ARM GAS  C:\Users\JENNEW~1\AppData\Local\Temp\ccDmuUZA.s 			page 1


   1              		.syntax unified
   2              		.cpu cortex-m3
   3              		.fpu softvfp
   4              		.eabi_attribute 20, 1
   5              		.eabi_attribute 21, 1
   6              		.eabi_attribute 23, 3
   7              		.eabi_attribute 24, 1
   8              		.eabi_attribute 25, 1
   9              		.eabi_attribute 26, 1
  10              		.eabi_attribute 30, 6
  11              		.eabi_attribute 34, 1
  12              		.eabi_attribute 18, 4
  13              		.thumb
  14              		.syntax unified
  15              		.file	"app_statemachine.c"
  16              		.text
  17              	.Ltext0:
  18              		.cfi_sections	.debug_frame
  19              		.section	.rodata
  20              		.align	2
  21              		.type	parent_of, %object
  22              		.size	parent_of, 17
  23              	parent_of:
  24 0000 00       		.byte	0
  25 0001 00       		.byte	0
  26 0002 00       		.byte	0
  27 0003 00       		.byte	0
  28 0004 00       		.byte	0
  29 0005 01       		.byte	1
  30 0006 01       		.byte	1
  31 0007 02       		.byte	2
  32 0008 03       		.byte	3
  33 0009 03       		.byte	3
  34 000a 03       		.byte	3
  35 000b 03       		.byte	3
  36 000c 03       		.byte	3
  37 000d 03       		.byte	3
  38 000e 03       		.byte	3
  39 000f 04       		.byte	4
  40 0010 04       		.byte	4
  41 0011 000000   		.align	2
  42              		.type	can_enter, %object
  43              		.size	can_enter, 68
  44              	can_enter:
  45 0014 00000000 		.space	12
  45      00000000 
  45      00000000 
  46 0020 00000000 		.word	guard_auto_parent
  47 0024 00000000 		.space	12
  47      00000000 
  47      00000000 
  48 0030 00000000 		.word	guard_manu_joystick
  49 0034 00000000 		.word	guard_auto_home
  50 0038 00000000 		.space	4
  51 003c 00000000 		.word	guard_auto_acq_gps
  52 0040 00000000 		.space	24
  52      00000000 
ARM GAS  C:\Users\JENNEW~1\AppData\Local\Temp\ccDmuUZA.s 			page 2


  52      00000000 
  52      00000000 
  52      00000000 
  53              		.align	2
  54              		.type	on_entry, %object
  55              		.size	on_entry, 68
  56              	on_entry:
  57 0058 00000000 		.space	4
  58 005c 00000000 		.word	0
  59 0060 00000000 		.word	0
  60 0064 00000000 		.word	0
  61 0068 00000000 		.word	0
  62 006c 00000000 		.word	entry_stby_defer
  63 0070 00000000 		.word	entry_stby_hold
  64 0074 00000000 		.word	entry_manu_joystick
  65 0078 00000000 		.word	entry_auto_home
  66 007c 00000000 		.word	entry_auto_hold
  67 0080 00000000 		.word	entry_auto_acq_gps
  68 0084 00000000 		.word	entry_auto_acq_spiral
  69 0088 00000000 		.word	entry_auto_tracking
  70 008c 00000000 		.word	entry_auto_loss
  71 0090 00000000 		.word	entry_auto_no_lock
  72 0094 00000000 		.word	entry_error_active
  73 0098 00000000 		.word	entry_error_kill
  74              		.align	2
  75              		.type	on_exit, %object
  76              		.size	on_exit, 68
  77              	on_exit:
  78 009c 00000000 		.space	4
  79 00a0 00000000 		.word	0
  80 00a4 00000000 		.word	0
  81 00a8 00000000 		.word	0
  82 00ac 00000000 		.word	0
  83 00b0 00000000 		.word	0
  84 00b4 00000000 		.word	0
  85 00b8 00000000 		.word	exit_manu_joystick
  86 00bc 00000000 		.word	exit_auto_home
  87 00c0 00000000 		.word	0
  88 00c4 00000000 		.word	exit_auto_acq_gps
  89 00c8 00000000 		.word	0
  90 00cc 00000000 		.word	0
  91 00d0 00000000 		.word	0
  92 00d4 00000000 		.word	0
  93 00d8 00000000 		.word	0
  94 00dc 00000000 		.word	0
  95              		.align	2
  96              		.type	on_key, %object
  97              		.size	on_key, 68
  98              	on_key:
  99 00e0 00000000 		.space	20
  99      00000000 
  99      00000000 
  99      00000000 
  99      00000000 
 100 00f4 00000000 		.word	0
 101 00f8 00000000 		.word	0
 102 00fc 00000000 		.word	key_manu_joystick
ARM GAS  C:\Users\JENNEW~1\AppData\Local\Temp\ccDmuUZA.s 			page 3


 103 0100 00000000 		.word	key_auto_home
 104 0104 00000000 		.word	key_auto_hold
 105 0108 00000000 		.word	key_auto_acq_gps
 106 010c 00000000 		.word	0
 107 0110 00000000 		.word	key_auto_tracking
 108 0114 00000000 		.word	key_auto_loss
 109 0118 00000000 		.word	key_auto_no_lock
 110 011c 00000000 		.word	key_error_active
 111 0120 00000000 		.word	key_error_kill
 112              		.align	2
 113              		.type	on_build, %object
 114              		.size	on_build, 68
 115              	on_build:
 116 0124 00000000 		.space	20
 116      00000000 
 116      00000000 
 116      00000000 
 116      00000000 
 117 0138 00000000 		.word	build_defer
 118 013c 00000000 		.word	build_hold
 119 0140 00000000 		.word	build_manu_joystick
 120 0144 00000000 		.word	build_auto_home
 121 0148 00000000 		.word	build_hold
 122 014c 00000000 		.word	build_auto_acq_gps
 123 0150 00000000 		.word	build_hold
 124 0154 00000000 		.word	build_auto_tracking
 125 0158 00000000 		.word	build_hold
 126 015c 00000000 		.word	build_hold
 127 0160 00000000 		.word	build_error
 128 0164 00000000 		.word	build_error
 129              		.section	.text.depth_of,"ax",%progbits
 130              		.align	2
 131              		.thumb
 132              		.thumb_func
 133              		.type	depth_of, %function
 134              	depth_of:
 135              	.LFB64:
 136              		.file 1 "app_statemachine.c"
   1:app_statemachine.c **** /* ========================================
   2:app_statemachine.c ****  *
   3:app_statemachine.c ****  * Copyright Hamish Johnson, 2026
   4:app_statemachine.c ****  * All Rights Reserved
   5:app_statemachine.c ****  * UNPUBLISHED, LICENSED SOFTWARE.
   6:app_statemachine.c ****  *
   7:app_statemachine.c ****  * CONFIDENTIAL AND PROPRIETARY INFORMATION
   8:app_statemachine.c ****  * WHICH IS THE PROPERTY OF 
   9:app_statemachine.c ****  * Quantum Internet Systems Lab (QISL),
  10:app_statemachine.c ****  * Department of Physics, SFU, Canada.
  11:app_statemachine.c ****  *
  12:app_statemachine.c ****  * Author: Hamish Johnson (2026)
  13:app_statemachine.c ****  *
  14:app_statemachine.c ****  * ========================================
  15:app_statemachine.c ****  *
  16:app_statemachine.c ****  * HFSM engine: parent table, LCA walk, transition driver, error raiser.
  17:app_statemachine.c ****  *
  18:app_statemachine.c ****  *   ROOT
  19:app_statemachine.c ****  *   ├─ STBY ── STBY_DEFER (boot)
ARM GAS  C:\Users\JENNEW~1\AppData\Local\Temp\ccDmuUZA.s 			page 4


  20:app_statemachine.c ****  *   ├       ── STBY_HOLD
  21:app_statemachine.c ****  *   ├─ MANU ── MANU_JOYSTICK
  22:app_statemachine.c ****  *   ├─ AUTO ── AUTO_HOME*
  23:app_statemachine.c ****  *   ├       ── ACQ_GPS*
  24:app_statemachine.c ****  *   ├       ── ACQ_SPIRAL*
  25:app_statemachine.c ****  *   ├       ── TRACKING*
  26:app_statemachine.c ****  *   ├       ── LOSS*
  27:app_statemachine.c ****  *   ├       ── NO_LOCK*
  28:app_statemachine.c ****  *   └─ ERROR ─ ERROR_ACTIVE
  29:app_statemachine.c ****  * 
  30:app_statemachine.c ****  *      * = declared, not yet implemented
  31:app_statemachine.c ****  *
  32:app_statemachine.c ****  * KEYMAP (keep in sync with the key_* handlers in section 5):
  33:app_statemachine.c ****  *   GLOBAL (any non-FATAL leaf):
  34:app_statemachine.c ****  *     k       soft kill -> STBY_HOLD
  35:app_statemachine.c ****  *     [       capture origin from telemetry
  36:app_statemachine.c ****  *     ?       help
  37:app_statemachine.c ****  *     Ctrl+R  clear FATAL latch -> STBY_HOLD
  38:app_statemachine.c ****  *   NAV (suppressed where leaf_traps_nav()==1):
  39:app_statemachine.c ****  *     1/2/3   STBY_HOLD / MANU_JOYSTICK / AUTO
  40:app_statemachine.c ****  *   MANU_JOYSTICK leaf:
  41:app_statemachine.c ****  *     r/a     RATE / ABSOLUTE      e  exit -> STBY_HOLD
  42:app_statemachine.c ****  *     ]       -> AUTO_HOME
  43:app_statemachine.c ****  *
  44:app_statemachine.c ****  * DISPATCH PRECEDENCE (app_dispatch_key):
  45:app_statemachine.c ****  *     FATAL-lockout  >  global  >  leaf  >  nav
  46:app_statemachine.c **** */
  47:app_statemachine.c **** 
  48:app_statemachine.c **** #include "hamfly.h"
  49:app_statemachine.c **** #include "sbc_comms.h"
  50:app_statemachine.c **** #include "telemetry.h"
  51:app_statemachine.c **** #include <project.h>  // For UART
  52:app_statemachine.c **** #include <math.h> // TODO: Remove?
  53:app_statemachine.c **** #include <string.h>
  54:app_statemachine.c **** #include <stdio.h>
  55:app_statemachine.c **** 
  56:app_statemachine.c **** // Substates
  57:app_statemachine.c **** #include "app_statemachine.h"
  58:app_statemachine.c **** #include "app_state_stby.h"
  59:app_statemachine.c **** #include "app_state_manu.h"
  60:app_statemachine.c **** #include "app_state_auto.h"
  61:app_statemachine.c **** #include "app_state_error.h"
  62:app_statemachine.c **** 
  63:app_statemachine.c **** // For timing, PSoC incremented with looptimer ISR.
  64:app_statemachine.c **** extern volatile uint32_t g_tick_ms;
  65:app_statemachine.c **** 
  66:app_statemachine.c **** // Hierarchy %================================================================%
  67:app_statemachine.c **** // Heirarchy allows shared entry/exit behaviour.
  68:app_statemachine.c **** // ROOT is the base of the walk.
  69:app_statemachine.c **** static const state_t parent_of[STATE_COUNT] = {
  70:app_statemachine.c ****     [ROOT]            = ROOT,  // Book keeping
  71:app_statemachine.c ****     [STBY]            = ROOT,  // Parent states
  72:app_statemachine.c ****     [MANU]            = ROOT,
  73:app_statemachine.c ****     [AUTO]            = ROOT,
  74:app_statemachine.c ****     [ERROR]           = ROOT,
  75:app_statemachine.c **** 
  76:app_statemachine.c ****     [STBY_DEFER]      = STBY,  // Two types of standby
ARM GAS  C:\Users\JENNEW~1\AppData\Local\Temp\ccDmuUZA.s 			page 5


  77:app_statemachine.c ****     [STBY_HOLD]       = STBY,  // Hold and wait
  78:app_statemachine.c **** 
  79:app_statemachine.c ****     [MANU_JOYSTICK]   = MANU,
  80:app_statemachine.c **** 
  81:app_statemachine.c ****     [AUTO_HOME]       = AUTO,  // Go to 0, 0
  82:app_statemachine.c ****     [AUTO_HOLD]       = AUTO,  // Hold but accept centroids
  83:app_statemachine.c ****     [AUTO_ACQ_GPS]    = AUTO,  // Go to GPS vector pointing
  84:app_statemachine.c ****     [AUTO_ACQ_SPIRAL] = AUTO,  // Spiral search for lock
  85:app_statemachine.c ****     [AUTO_TRACKING]   = AUTO,  // Closed loop tracking
  86:app_statemachine.c ****     [AUTO_LOSS]       = AUTO,  // Loss of centeroiding packets
  87:app_statemachine.c ****     [AUTO_NO_LOCK]    = AUTO,  // No lock after ACQ attempts
  88:app_statemachine.c **** 
  89:app_statemachine.c ****     [ERROR_ACTIVE]    = ERROR,  // Error state. TODO: Severity levels.
  90:app_statemachine.c ****     [ERROR_KILL]      = ERROR,  // Sends kill to gimbal.
  91:app_statemachine.c **** };
  92:app_statemachine.c **** 
  93:app_statemachine.c **** // Hook table type forward declaration
  94:app_statemachine.c **** typedef void    (*state_fn_t)(app_ctx_t *);         // Entry and Exit handlers
  95:app_statemachine.c **** typedef uint8_t (*key_fn_t)  (app_ctx_t *, char);   // Input handlers
  96:app_statemachine.c **** typedef void    (*build_fn_t)(const app_ctx_t *, hamfly_control_t *); //Packet
  97:app_statemachine.c **** typedef uint8_t (*guard_fn_t)(const app_ctx_t *);   // 1=valid, 0=refuse
  98:app_statemachine.c **** 
  99:app_statemachine.c **** // %==========================================================================%
 100:app_statemachine.c **** // %                          Dispatch tables                                 %
 101:app_statemachine.c **** // %==========================================================================%
 102:app_statemachine.c **** // All handler symbols are declared in their respective app_state_*.h headers.
 103:app_statemachine.c **** 
 104:app_statemachine.c **** // Table of entry guards.
 105:app_statemachine.c **** static const guard_fn_t can_enter[STATE_COUNT] = {
 106:app_statemachine.c ****     [MANU_JOYSTICK] = guard_manu_joystick,
 107:app_statemachine.c ****     [AUTO]         = guard_auto_parent,   // need gimbal telemetry to enter
 108:app_statemachine.c ****     [AUTO_HOME]    = guard_auto_home,     // needs origin set + live telemetry
 109:app_statemachine.c ****     [AUTO_ACQ_GPS] = guard_auto_acq_gps,  // needs a GPS target
 110:app_statemachine.c **** };
 111:app_statemachine.c **** 
 112:app_statemachine.c **** // Table of on-entry functions.
 113:app_statemachine.c **** static const state_fn_t on_entry[STATE_COUNT] = {
 114:app_statemachine.c ****     [STBY]            = NULL,   // parent: shared STBY entry, if ever needed
 115:app_statemachine.c ****     [MANU]            = NULL,   // parent
 116:app_statemachine.c ****     [AUTO]            = NULL,   // parent
 117:app_statemachine.c ****     [ERROR]           = NULL,   // parent
 118:app_statemachine.c ****     [STBY_DEFER]      = entry_stby_defer,
 119:app_statemachine.c ****     [STBY_HOLD]       = entry_stby_hold,
 120:app_statemachine.c ****     [MANU_JOYSTICK]   = entry_manu_joystick,
 121:app_statemachine.c ****     [AUTO_HOME]       = entry_auto_home,
 122:app_statemachine.c ****     [AUTO_HOLD]       = entry_auto_hold,
 123:app_statemachine.c ****     [AUTO_ACQ_GPS]    = entry_auto_acq_gps,
 124:app_statemachine.c ****     [AUTO_ACQ_SPIRAL] = entry_auto_acq_spiral,
 125:app_statemachine.c ****     [AUTO_TRACKING]   = entry_auto_tracking,
 126:app_statemachine.c ****     [AUTO_LOSS]       = entry_auto_loss,
 127:app_statemachine.c ****     [AUTO_NO_LOCK]    = entry_auto_no_lock,
 128:app_statemachine.c ****     [ERROR_ACTIVE]    = entry_error_active,
 129:app_statemachine.c ****     [ERROR_KILL]      = entry_error_kill,
 130:app_statemachine.c **** };
 131:app_statemachine.c **** 
 132:app_statemachine.c **** static const state_fn_t on_exit[STATE_COUNT] = {
 133:app_statemachine.c ****     [STBY]            = NULL,   // parent
ARM GAS  C:\Users\JENNEW~1\AppData\Local\Temp\ccDmuUZA.s 			page 6


 134:app_statemachine.c ****     [MANU]            = NULL,   // parent
 135:app_statemachine.c ****     [AUTO]            = NULL,   // parent
 136:app_statemachine.c ****     [ERROR]           = NULL,   // parent
 137:app_statemachine.c ****     [STBY_DEFER]      = NULL,
 138:app_statemachine.c ****     [STBY_HOLD]       = NULL,
 139:app_statemachine.c ****     [MANU_JOYSTICK]   = exit_manu_joystick,
 140:app_statemachine.c ****     [AUTO_HOME]       = exit_auto_home,
 141:app_statemachine.c ****     [AUTO_HOLD]       = NULL,
 142:app_statemachine.c ****     [AUTO_ACQ_GPS]    = exit_auto_acq_gps,
 143:app_statemachine.c ****     [AUTO_ACQ_SPIRAL] = NULL,   // TODO
 144:app_statemachine.c ****     [AUTO_TRACKING]   = NULL,   // TODO
 145:app_statemachine.c ****     [AUTO_LOSS]       = NULL,   // TODO
 146:app_statemachine.c ****     [AUTO_NO_LOCK]    = NULL,   // TODO
 147:app_statemachine.c ****     [ERROR_ACTIVE]    = NULL,   // TODO
 148:app_statemachine.c ****     [ERROR_KILL]      = NULL,
 149:app_statemachine.c **** };
 150:app_statemachine.c **** 
 151:app_statemachine.c **** // For key handling over serial
 152:app_statemachine.c **** // Will be superceded by auto flow conditions and SBC commands.
 153:app_statemachine.c **** static const key_fn_t on_key[STATE_COUNT] = {
 154:app_statemachine.c ****     [STBY_DEFER]      = NULL,  // TODO
 155:app_statemachine.c ****     [STBY_HOLD]       = NULL,  // TODO
 156:app_statemachine.c ****     [MANU_JOYSTICK]   = key_manu_joystick,
 157:app_statemachine.c ****     [AUTO_HOME]       = key_auto_home,
 158:app_statemachine.c ****     [AUTO_HOLD]       = key_auto_hold,
 159:app_statemachine.c ****     [AUTO_ACQ_GPS]    = key_auto_acq_gps,
 160:app_statemachine.c ****     [AUTO_ACQ_SPIRAL] = NULL,  // TODO
 161:app_statemachine.c ****     [AUTO_TRACKING]   = key_auto_tracking,
 162:app_statemachine.c ****     [AUTO_LOSS]       = key_auto_loss,
 163:app_statemachine.c ****     [AUTO_NO_LOCK]    = key_auto_no_lock,
 164:app_statemachine.c ****     [ERROR_ACTIVE]    = key_error_active,
 165:app_statemachine.c ****     [ERROR_KILL]      = key_error_kill,
 166:app_statemachine.c **** };
 167:app_statemachine.c **** 
 168:app_statemachine.c **** static const build_fn_t on_build[STATE_COUNT] = {
 169:app_statemachine.c ****     [STBY_DEFER]      = build_defer,
 170:app_statemachine.c ****     [STBY_HOLD]       = build_hold,
 171:app_statemachine.c ****     [MANU_JOYSTICK]   = build_manu_joystick,  // NOTE: Nudge folded into joysticl leaf.
 172:app_statemachine.c ****     [AUTO_HOME]       = build_auto_home,
 173:app_statemachine.c ****     [AUTO_HOLD]       = build_hold,
 174:app_statemachine.c ****     [AUTO_ACQ_GPS]    = build_auto_acq_gps,
 175:app_statemachine.c ****     [AUTO_ACQ_SPIRAL] = build_hold,          // placeholder: zero rates, hold
 176:app_statemachine.c ****     [AUTO_TRACKING]   = build_auto_tracking,
 177:app_statemachine.c ****     [AUTO_LOSS]       = build_hold,          // placeholder: hold position
 178:app_statemachine.c ****     [AUTO_NO_LOCK]    = build_hold,          // placeholder: hold position
 179:app_statemachine.c ****     [ERROR_ACTIVE]    = build_error,
 180:app_statemachine.c ****     [ERROR_KILL]      = build_error,
 181:app_statemachine.c **** };
 182:app_statemachine.c **** 
 183:app_statemachine.c **** // %==========================================================================%
 184:app_statemachine.c **** // %                              LCA walk                                    %
 185:app_statemachine.c **** // %==========================================================================%
 186:app_statemachine.c **** // Lowest Common Ancestor (LCA) allows for the relevant exit and entry action
 187:app_statemachine.c **** // cascate occurs as needed to get between heirarchecal leafs. For a given 
 188:app_statemachine.c **** // state, walk up its parents to ROOT, then walk down to incoming state.
 189:app_statemachine.c **** // Allows for heirarchical and shared entry/exit behaviour.
 190:app_statemachine.c **** 
ARM GAS  C:\Users\JENNEW~1\AppData\Local\Temp\ccDmuUZA.s 			page 7


 191:app_statemachine.c **** static uint8_t depth_of(state_t s)
 192:app_statemachine.c **** {
 137              		.loc 1 192 0
 138              		.cfi_startproc
 139              		@ args = 0, pretend = 0, frame = 16
 140              		@ frame_needed = 1, uses_anonymous_args = 0
 141              		@ link register save eliminated.
 142 0000 80B4     		push	{r7}
 143              		.cfi_def_cfa_offset 4
 144              		.cfi_offset 7, -4
 145 0002 85B0     		sub	sp, sp, #20
 146              		.cfi_def_cfa_offset 24
 147 0004 00AF     		add	r7, sp, #0
 148              		.cfi_def_cfa_register 7
 149 0006 0346     		mov	r3, r0
 150 0008 FB71     		strb	r3, [r7, #7]
 193:app_statemachine.c ****     uint8_t d = 0;
 151              		.loc 1 193 0
 152 000a 0023     		movs	r3, #0
 153 000c FB73     		strb	r3, [r7, #15]
 194:app_statemachine.c ****     while (s != ROOT) { s = parent_of[s]; d++; }
 154              		.loc 1 194 0
 155 000e 06E0     		b	.L2
 156              	.L3:
 157              		.loc 1 194 0 is_stmt 0 discriminator 2
 158 0010 FB79     		ldrb	r3, [r7, #7]	@ zero_extendqisi2
 159 0012 074A     		ldr	r2, .L5
 160 0014 D35C     		ldrb	r3, [r2, r3]
 161 0016 FB71     		strb	r3, [r7, #7]
 162 0018 FB7B     		ldrb	r3, [r7, #15]	@ zero_extendqisi2
 163 001a 0133     		adds	r3, r3, #1
 164 001c FB73     		strb	r3, [r7, #15]
 165              	.L2:
 166              		.loc 1 194 0 discriminator 1
 167 001e FB79     		ldrb	r3, [r7, #7]	@ zero_extendqisi2
 168 0020 002B     		cmp	r3, #0
 169 0022 F5D1     		bne	.L3
 195:app_statemachine.c ****     return d;
 170              		.loc 1 195 0 is_stmt 1
 171 0024 FB7B     		ldrb	r3, [r7, #15]	@ zero_extendqisi2
 196:app_statemachine.c **** }
 172              		.loc 1 196 0
 173 0026 1846     		mov	r0, r3
 174 0028 1437     		adds	r7, r7, #20
 175              		.cfi_def_cfa_offset 4
 176 002a BD46     		mov	sp, r7
 177              		.cfi_def_cfa_register 13
 178              		@ sp needed
 179 002c 80BC     		pop	{r7}
 180              		.cfi_restore 7
 181              		.cfi_def_cfa_offset 0
 182 002e 7047     		bx	lr
 183              	.L6:
 184              		.align	2
 185              	.L5:
 186 0030 00000000 		.word	parent_of
 187              		.cfi_endproc
ARM GAS  C:\Users\JENNEW~1\AppData\Local\Temp\ccDmuUZA.s 			page 8


 188              	.LFE64:
 189              		.size	depth_of, .-depth_of
 190              		.section	.text.lca,"ax",%progbits
 191              		.align	2
 192              		.thumb
 193              		.thumb_func
 194              		.type	lca, %function
 195              	lca:
 196              	.LFB65:
 197:app_statemachine.c **** 
 198:app_statemachine.c **** static state_t lca(state_t a, state_t b)
 199:app_statemachine.c **** {
 197              		.loc 1 199 0
 198              		.cfi_startproc
 199              		@ args = 0, pretend = 0, frame = 16
 200              		@ frame_needed = 1, uses_anonymous_args = 0
 201 0000 80B5     		push	{r7, lr}
 202              		.cfi_def_cfa_offset 8
 203              		.cfi_offset 7, -8
 204              		.cfi_offset 14, -4
 205 0002 84B0     		sub	sp, sp, #16
 206              		.cfi_def_cfa_offset 24
 207 0004 00AF     		add	r7, sp, #0
 208              		.cfi_def_cfa_register 7
 209 0006 0346     		mov	r3, r0
 210 0008 0A46     		mov	r2, r1
 211 000a FB71     		strb	r3, [r7, #7]
 212 000c 1346     		mov	r3, r2
 213 000e BB71     		strb	r3, [r7, #6]
 200:app_statemachine.c ****     uint8_t da = depth_of(a), db = depth_of(b);
 214              		.loc 1 200 0
 215 0010 FB79     		ldrb	r3, [r7, #7]	@ zero_extendqisi2
 216 0012 1846     		mov	r0, r3
 217 0014 FFF7FEFF 		bl	depth_of
 218 0018 0346     		mov	r3, r0
 219 001a FB73     		strb	r3, [r7, #15]
 220 001c BB79     		ldrb	r3, [r7, #6]	@ zero_extendqisi2
 221 001e 1846     		mov	r0, r3
 222 0020 FFF7FEFF 		bl	depth_of
 223 0024 0346     		mov	r3, r0
 224 0026 BB73     		strb	r3, [r7, #14]
 201:app_statemachine.c ****     while (da > db) { a = parent_of[a]; da--; }
 225              		.loc 1 201 0
 226 0028 06E0     		b	.L8
 227              	.L9:
 228              		.loc 1 201 0 is_stmt 0 discriminator 2
 229 002a FB79     		ldrb	r3, [r7, #7]	@ zero_extendqisi2
 230 002c 134A     		ldr	r2, .L15
 231 002e D35C     		ldrb	r3, [r2, r3]
 232 0030 FB71     		strb	r3, [r7, #7]
 233 0032 FB7B     		ldrb	r3, [r7, #15]	@ zero_extendqisi2
 234 0034 013B     		subs	r3, r3, #1
 235 0036 FB73     		strb	r3, [r7, #15]
 236              	.L8:
 237              		.loc 1 201 0 discriminator 1
 238 0038 FA7B     		ldrb	r2, [r7, #15]	@ zero_extendqisi2
 239 003a BB7B     		ldrb	r3, [r7, #14]	@ zero_extendqisi2
ARM GAS  C:\Users\JENNEW~1\AppData\Local\Temp\ccDmuUZA.s 			page 9


 240 003c 9A42     		cmp	r2, r3
 241 003e F4D8     		bhi	.L9
 202:app_statemachine.c ****     while (db > da) { b = parent_of[b]; db--; }
 242              		.loc 1 202 0 is_stmt 1
 243 0040 06E0     		b	.L10
 244              	.L11:
 245              		.loc 1 202 0 is_stmt 0 discriminator 2
 246 0042 BB79     		ldrb	r3, [r7, #6]	@ zero_extendqisi2
 247 0044 0D4A     		ldr	r2, .L15
 248 0046 D35C     		ldrb	r3, [r2, r3]
 249 0048 BB71     		strb	r3, [r7, #6]
 250 004a BB7B     		ldrb	r3, [r7, #14]	@ zero_extendqisi2
 251 004c 013B     		subs	r3, r3, #1
 252 004e BB73     		strb	r3, [r7, #14]
 253              	.L10:
 254              		.loc 1 202 0 discriminator 1
 255 0050 BA7B     		ldrb	r2, [r7, #14]	@ zero_extendqisi2
 256 0052 FB7B     		ldrb	r3, [r7, #15]	@ zero_extendqisi2
 257 0054 9A42     		cmp	r2, r3
 258 0056 F4D8     		bhi	.L11
 203:app_statemachine.c ****     while (a != b)  { a = parent_of[a]; b = parent_of[b]; }
 259              		.loc 1 203 0 is_stmt 1
 260 0058 07E0     		b	.L12
 261              	.L13:
 262              		.loc 1 203 0 is_stmt 0 discriminator 2
 263 005a FB79     		ldrb	r3, [r7, #7]	@ zero_extendqisi2
 264 005c 074A     		ldr	r2, .L15
 265 005e D35C     		ldrb	r3, [r2, r3]
 266 0060 FB71     		strb	r3, [r7, #7]
 267 0062 BB79     		ldrb	r3, [r7, #6]	@ zero_extendqisi2
 268 0064 054A     		ldr	r2, .L15
 269 0066 D35C     		ldrb	r3, [r2, r3]
 270 0068 BB71     		strb	r3, [r7, #6]
 271              	.L12:
 272              		.loc 1 203 0 discriminator 1
 273 006a FA79     		ldrb	r2, [r7, #7]	@ zero_extendqisi2
 274 006c BB79     		ldrb	r3, [r7, #6]	@ zero_extendqisi2
 275 006e 9A42     		cmp	r2, r3
 276 0070 F3D1     		bne	.L13
 204:app_statemachine.c ****     return a;
 277              		.loc 1 204 0 is_stmt 1
 278 0072 FB79     		ldrb	r3, [r7, #7]	@ zero_extendqisi2
 205:app_statemachine.c **** }
 279              		.loc 1 205 0
 280 0074 1846     		mov	r0, r3
 281 0076 1037     		adds	r7, r7, #16
 282              		.cfi_def_cfa_offset 8
 283 0078 BD46     		mov	sp, r7
 284              		.cfi_def_cfa_register 13
 285              		@ sp needed
 286 007a 80BD     		pop	{r7, pc}
 287              	.L16:
 288              		.align	2
 289              	.L15:
 290 007c 00000000 		.word	parent_of
 291              		.cfi_endproc
 292              	.LFE65:
ARM GAS  C:\Users\JENNEW~1\AppData\Local\Temp\ccDmuUZA.s 			page 10


 293              		.size	lca, .-lca
 294              		.section	.rodata
 295              		.align	2
 296              	.LC0:
 297 0168 5B46534D 		.ascii	"[FSM] entry guard failed -> STBY_HOLD\015\012\000"
 297      5D20656E 
 297      74727920 
 297      67756172 
 297      64206661 
 298              		.section	.text.app_transition,"ax",%progbits
 299              		.align	2
 300              		.global	app_transition
 301              		.thumb
 302              		.thumb_func
 303              		.type	app_transition, %function
 304              	app_transition:
 305              	.LFB66:
 206:app_statemachine.c **** 
 207:app_statemachine.c **** // Transition driver %========================================================%
 208:app_statemachine.c **** // Walk src up to LCA (running on_exit), then LCA down to target (running
 209:app_statemachine.c **** // on_entry). Self-transitions are a no-op. ROOT is the absorbing root, so
 210:app_statemachine.c **** // any pair has an LCA.
 211:app_statemachine.c **** 
 212:app_statemachine.c **** void app_transition(app_ctx_t *ctx, state_t target)
 213:app_statemachine.c **** {
 306              		.loc 1 213 0
 307              		.cfi_startproc
 308              		@ args = 0, pretend = 0, frame = 24
 309              		@ frame_needed = 1, uses_anonymous_args = 0
 310 0000 80B5     		push	{r7, lr}
 311              		.cfi_def_cfa_offset 8
 312              		.cfi_offset 7, -8
 313              		.cfi_offset 14, -4
 314 0002 86B0     		sub	sp, sp, #24
 315              		.cfi_def_cfa_offset 32
 316 0004 00AF     		add	r7, sp, #0
 317              		.cfi_def_cfa_register 7
 318 0006 7860     		str	r0, [r7, #4]
 319 0008 0B46     		mov	r3, r1
 320 000a FB70     		strb	r3, [r7, #3]
 214:app_statemachine.c ****     // Check auto state flow pin
 215:app_statemachine.c ****     ctx->auto_flow = Pin_SwitchAuto_Read();  // TODO: Ensure wired
 321              		.loc 1 215 0
 322 000c FFF7FEFF 		bl	Pin_SwitchAuto_Read
 323 0010 0346     		mov	r3, r0
 324 0012 1A46     		mov	r2, r3
 325 0014 7B68     		ldr	r3, [r7, #4]
 326 0016 9A71     		strb	r2, [r3, #6]
 216:app_statemachine.c ****     // Check entry guard
 217:app_statemachine.c ****     if (can_enter[target] && !can_enter[target](ctx)) {
 327              		.loc 1 217 0
 328 0018 FB78     		ldrb	r3, [r7, #3]	@ zero_extendqisi2
 329 001a 3E4A     		ldr	r2, .L29
 330 001c 52F82330 		ldr	r3, [r2, r3, lsl #2]
 331 0020 002B     		cmp	r3, #0
 332 0022 0DD0     		beq	.L18
 333              		.loc 1 217 0 is_stmt 0 discriminator 1
ARM GAS  C:\Users\JENNEW~1\AppData\Local\Temp\ccDmuUZA.s 			page 11


 334 0024 FB78     		ldrb	r3, [r7, #3]	@ zero_extendqisi2
 335 0026 3B4A     		ldr	r2, .L29
 336 0028 52F82330 		ldr	r3, [r2, r3, lsl #2]
 337 002c 7868     		ldr	r0, [r7, #4]
 338 002e 9847     		blx	r3
 339 0030 0346     		mov	r3, r0
 340 0032 002B     		cmp	r3, #0
 341 0034 04D1     		bne	.L18
 218:app_statemachine.c ****         UART_DEBUG_PutString("[FSM] entry guard failed -> STBY_HOLD\r\n");
 342              		.loc 1 218 0 is_stmt 1
 343 0036 3848     		ldr	r0, .L29+4
 344 0038 FFF7FEFF 		bl	UART_DEBUG_PutString
 219:app_statemachine.c ****         target = STBY_HOLD;
 345              		.loc 1 219 0
 346 003c 0623     		movs	r3, #6
 347 003e FB70     		strb	r3, [r7, #3]
 348              	.L18:
 220:app_statemachine.c ****     }
 221:app_statemachine.c ****     
 222:app_statemachine.c ****     // Self transition handle.
 223:app_statemachine.c ****     state_t src = ctx->state;
 349              		.loc 1 223 0
 350 0040 7B68     		ldr	r3, [r7, #4]
 351 0042 1B79     		ldrb	r3, [r3, #4]
 352 0044 3B75     		strb	r3, [r7, #20]
 224:app_statemachine.c ****     if (target == src) return;
 353              		.loc 1 224 0
 354 0046 FA78     		ldrb	r2, [r7, #3]	@ zero_extendqisi2
 355 0048 3B7D     		ldrb	r3, [r7, #20]	@ zero_extendqisi2
 356 004a 9A42     		cmp	r2, r3
 357 004c 5DD0     		beq	.L28
 225:app_statemachine.c ****     
 226:app_statemachine.c ****     // LCA walk.
 227:app_statemachine.c ****     state_t common = lca(src, target);
 358              		.loc 1 227 0
 359 004e FA78     		ldrb	r2, [r7, #3]	@ zero_extendqisi2
 360 0050 3B7D     		ldrb	r3, [r7, #20]	@ zero_extendqisi2
 361 0052 1146     		mov	r1, r2
 362 0054 1846     		mov	r0, r3
 363 0056 FFF7FEFF 		bl	lca
 364 005a 0346     		mov	r3, r0
 365 005c FB74     		strb	r3, [r7, #19]
 366              	.LBB2:
 228:app_statemachine.c **** 
 229:app_statemachine.c ****     // Shared parents require no duplicate on_exit calls.
 230:app_statemachine.c ****     // Walk up path, running on_exit.
 231:app_statemachine.c ****     for (state_t s = src; s != common; s = parent_of[s]) {
 367              		.loc 1 231 0
 368 005e 3B7D     		ldrb	r3, [r7, #20]
 369 0060 FB75     		strb	r3, [r7, #23]
 370 0062 0FE0     		b	.L21
 371              	.L23:
 232:app_statemachine.c ****         if (on_exit[s]) on_exit[s](ctx);
 372              		.loc 1 232 0
 373 0064 FB7D     		ldrb	r3, [r7, #23]	@ zero_extendqisi2
 374 0066 2D4A     		ldr	r2, .L29+8
 375 0068 52F82330 		ldr	r3, [r2, r3, lsl #2]
ARM GAS  C:\Users\JENNEW~1\AppData\Local\Temp\ccDmuUZA.s 			page 12


 376 006c 002B     		cmp	r3, #0
 377 006e 05D0     		beq	.L22
 378              		.loc 1 232 0 is_stmt 0 discriminator 1
 379 0070 FB7D     		ldrb	r3, [r7, #23]	@ zero_extendqisi2
 380 0072 2A4A     		ldr	r2, .L29+8
 381 0074 52F82330 		ldr	r3, [r2, r3, lsl #2]
 382 0078 7868     		ldr	r0, [r7, #4]
 383 007a 9847     		blx	r3
 384              	.L22:
 231:app_statemachine.c ****         if (on_exit[s]) on_exit[s](ctx);
 385              		.loc 1 231 0 is_stmt 1 discriminator 2
 386 007c FB7D     		ldrb	r3, [r7, #23]	@ zero_extendqisi2
 387 007e 284A     		ldr	r2, .L29+12
 388 0080 D35C     		ldrb	r3, [r2, r3]
 389 0082 FB75     		strb	r3, [r7, #23]
 390              	.L21:
 231:app_statemachine.c ****         if (on_exit[s]) on_exit[s](ctx);
 391              		.loc 1 231 0 is_stmt 0 discriminator 1
 392 0084 FA7D     		ldrb	r2, [r7, #23]	@ zero_extendqisi2
 393 0086 FB7C     		ldrb	r3, [r7, #19]	@ zero_extendqisi2
 394 0088 9A42     		cmp	r2, r3
 395 008a EBD1     		bne	.L23
 396              	.LBE2:
 233:app_statemachine.c ****     }
 234:app_statemachine.c ****     
 235:app_statemachine.c ****     ctx->prev_leaf = src;  // Return to last state book-keeping.
 397              		.loc 1 235 0 is_stmt 1
 398 008c 7B68     		ldr	r3, [r7, #4]
 399 008e 3A7D     		ldrb	r2, [r7, #20]
 400 0090 5A71     		strb	r2, [r3, #5]
 236:app_statemachine.c **** 
 237:app_statemachine.c ****     // Walk down the path, running on_entry.
 238:app_statemachine.c ****     state_t path[MAX_HFSM_DEPTH];
 239:app_statemachine.c ****     uint8_t n = 0;
 401              		.loc 1 239 0
 402 0092 0023     		movs	r3, #0
 403 0094 BB75     		strb	r3, [r7, #22]
 404              	.LBB3:
 240:app_statemachine.c ****     for (state_t s = target; s != common; s = parent_of[s]) {
 405              		.loc 1 240 0
 406 0096 FB78     		ldrb	r3, [r7, #3]
 407 0098 7B75     		strb	r3, [r7, #21]
 408 009a 0CE0     		b	.L24
 409              	.L25:
 241:app_statemachine.c ****         path[n++] = s;
 410              		.loc 1 241 0 discriminator 3
 411 009c BB7D     		ldrb	r3, [r7, #22]	@ zero_extendqisi2
 412 009e 5A1C     		adds	r2, r3, #1
 413 00a0 BA75     		strb	r2, [r7, #22]
 414 00a2 07F11802 		add	r2, r7, #24
 415 00a6 1344     		add	r3, r3, r2
 416 00a8 7A7D     		ldrb	r2, [r7, #21]
 417 00aa 03F80C2C 		strb	r2, [r3, #-12]
 240:app_statemachine.c ****     for (state_t s = target; s != common; s = parent_of[s]) {
 418              		.loc 1 240 0 discriminator 3
 419 00ae 7B7D     		ldrb	r3, [r7, #21]	@ zero_extendqisi2
 420 00b0 1B4A     		ldr	r2, .L29+12
ARM GAS  C:\Users\JENNEW~1\AppData\Local\Temp\ccDmuUZA.s 			page 13


 421 00b2 D35C     		ldrb	r3, [r2, r3]
 422 00b4 7B75     		strb	r3, [r7, #21]
 423              	.L24:
 240:app_statemachine.c ****     for (state_t s = target; s != common; s = parent_of[s]) {
 424              		.loc 1 240 0 is_stmt 0 discriminator 1
 425 00b6 7A7D     		ldrb	r2, [r7, #21]	@ zero_extendqisi2
 426 00b8 FB7C     		ldrb	r3, [r7, #19]	@ zero_extendqisi2
 427 00ba 9A42     		cmp	r2, r3
 428 00bc EED1     		bne	.L25
 429              	.LBE3:
 242:app_statemachine.c ****     }
 243:app_statemachine.c ****     while (n--) {
 430              		.loc 1 243 0 is_stmt 1
 431 00be 17E0     		b	.L26
 432              	.L27:
 244:app_statemachine.c ****         if (on_entry[path[n]]) on_entry[path[n]](ctx);
 433              		.loc 1 244 0
 434 00c0 BB7D     		ldrb	r3, [r7, #22]	@ zero_extendqisi2
 435 00c2 07F11802 		add	r2, r7, #24
 436 00c6 1344     		add	r3, r3, r2
 437 00c8 13F80C3C 		ldrb	r3, [r3, #-12]	@ zero_extendqisi2
 438 00cc 1A46     		mov	r2, r3
 439 00ce 154B     		ldr	r3, .L29+16
 440 00d0 53F82230 		ldr	r3, [r3, r2, lsl #2]
 441 00d4 002B     		cmp	r3, #0
 442 00d6 0BD0     		beq	.L26
 443              		.loc 1 244 0 is_stmt 0 discriminator 1
 444 00d8 BB7D     		ldrb	r3, [r7, #22]	@ zero_extendqisi2
 445 00da 07F11802 		add	r2, r7, #24
 446 00de 1344     		add	r3, r3, r2
 447 00e0 13F80C3C 		ldrb	r3, [r3, #-12]	@ zero_extendqisi2
 448 00e4 1A46     		mov	r2, r3
 449 00e6 0F4B     		ldr	r3, .L29+16
 450 00e8 53F82230 		ldr	r3, [r3, r2, lsl #2]
 451 00ec 7868     		ldr	r0, [r7, #4]
 452 00ee 9847     		blx	r3
 453              	.L26:
 243:app_statemachine.c ****         if (on_entry[path[n]]) on_entry[path[n]](ctx);
 454              		.loc 1 243 0 is_stmt 1
 455 00f0 BB7D     		ldrb	r3, [r7, #22]	@ zero_extendqisi2
 456 00f2 5A1E     		subs	r2, r3, #1
 457 00f4 BA75     		strb	r2, [r7, #22]
 458 00f6 002B     		cmp	r3, #0
 459 00f8 E2D1     		bne	.L27
 245:app_statemachine.c ****     }
 246:app_statemachine.c ****     
 247:app_statemachine.c ****     // Store new state.
 248:app_statemachine.c ****     ctx->state          = target;
 460              		.loc 1 248 0
 461 00fa 7B68     		ldr	r3, [r7, #4]
 462 00fc FA78     		ldrb	r2, [r7, #3]
 463 00fe 1A71     		strb	r2, [r3, #4]
 249:app_statemachine.c ****     ctx->state_entry_ms = g_tick_ms;
 464              		.loc 1 249 0
 465 0100 094B     		ldr	r3, .L29+20
 466 0102 1A68     		ldr	r2, [r3]
 467 0104 7B68     		ldr	r3, [r7, #4]
ARM GAS  C:\Users\JENNEW~1\AppData\Local\Temp\ccDmuUZA.s 			page 14


 468 0106 DA66     		str	r2, [r3, #108]
 469 0108 00E0     		b	.L17
 470              	.L28:
 224:app_statemachine.c ****     
 471              		.loc 1 224 0
 472 010a 00BF     		nop
 473              	.L17:
 250:app_statemachine.c **** }
 474              		.loc 1 250 0
 475 010c 1837     		adds	r7, r7, #24
 476              		.cfi_def_cfa_offset 8
 477 010e BD46     		mov	sp, r7
 478              		.cfi_def_cfa_register 13
 479              		@ sp needed
 480 0110 80BD     		pop	{r7, pc}
 481              	.L30:
 482 0112 00BF     		.align	2
 483              	.L29:
 484 0114 14000000 		.word	can_enter
 485 0118 68010000 		.word	.LC0
 486 011c 9C000000 		.word	on_exit
 487 0120 00000000 		.word	parent_of
 488 0124 58000000 		.word	on_entry
 489 0128 00000000 		.word	g_tick_ms
 490              		.cfi_endproc
 491              	.LFE66:
 492              		.size	app_transition, .-app_transition
 493              		.section	.text.app_start,"ax",%progbits
 494              		.align	2
 495              		.global	app_start
 496              		.thumb
 497              		.thumb_func
 498              		.type	app_start, %function
 499              	app_start:
 500              	.LFB67:
 251:app_statemachine.c **** 
 252:app_statemachine.c **** // On boot.
 253:app_statemachine.c **** void app_start(app_ctx_t *ctx)
 254:app_statemachine.c **** {
 501              		.loc 1 254 0
 502              		.cfi_startproc
 503              		@ args = 0, pretend = 0, frame = 16
 504              		@ frame_needed = 1, uses_anonymous_args = 0
 505 0000 80B5     		push	{r7, lr}
 506              		.cfi_def_cfa_offset 8
 507              		.cfi_offset 7, -8
 508              		.cfi_offset 14, -4
 509 0002 84B0     		sub	sp, sp, #16
 510              		.cfi_def_cfa_offset 24
 511 0004 00AF     		add	r7, sp, #0
 512              		.cfi_def_cfa_register 7
 513 0006 7860     		str	r0, [r7, #4]
 255:app_statemachine.c ****     // Walk entry conditions from ROOT to the init state,
 256:app_statemachine.c ****     state_t target = ctx->state;
 514              		.loc 1 256 0
 515 0008 7B68     		ldr	r3, [r7, #4]
 516 000a 1B79     		ldrb	r3, [r3, #4]
ARM GAS  C:\Users\JENNEW~1\AppData\Local\Temp\ccDmuUZA.s 			page 15


 517 000c FB73     		strb	r3, [r7, #15]
 257:app_statemachine.c ****     ctx->state = ROOT;
 518              		.loc 1 257 0
 519 000e 7B68     		ldr	r3, [r7, #4]
 520 0010 0022     		movs	r2, #0
 521 0012 1A71     		strb	r2, [r3, #4]
 258:app_statemachine.c ****     app_transition(ctx, target);
 522              		.loc 1 258 0
 523 0014 FB7B     		ldrb	r3, [r7, #15]	@ zero_extendqisi2
 524 0016 1946     		mov	r1, r3
 525 0018 7868     		ldr	r0, [r7, #4]
 526 001a FFF7FEFF 		bl	app_transition
 259:app_statemachine.c **** }
 527              		.loc 1 259 0
 528 001e 00BF     		nop
 529 0020 1037     		adds	r7, r7, #16
 530              		.cfi_def_cfa_offset 8
 531 0022 BD46     		mov	sp, r7
 532              		.cfi_def_cfa_register 13
 533              		@ sp needed
 534 0024 80BD     		pop	{r7, pc}
 535              		.cfi_endproc
 536              	.LFE67:
 537              		.size	app_start, .-app_start
 538 0026 00BF     		.section	.rodata
 539              		.align	2
 540              	.LC1:
 541 0190 5B555345 		.ascii	"[USER] \000"
 541      525D2000 
 542              		.align	2
 543              	.LC2:
 544 0198 0D0A00   		.ascii	"\015\012\000"
 545              		.section	.text.app_raise_error,"ax",%progbits
 546              		.align	2
 547              		.global	app_raise_error
 548              		.thumb
 549              		.thumb_func
 550              		.type	app_raise_error, %function
 551              	app_raise_error:
 552              	.LFB68:
 260:app_statemachine.c **** 
 261:app_statemachine.c **** // On error: Handles severity.
 262:app_statemachine.c **** void app_raise_error(app_ctx_t *ctx, err_sev_t sev, const char *msg)
 263:app_statemachine.c **** {
 553              		.loc 1 263 0
 554              		.cfi_startproc
 555              		@ args = 0, pretend = 0, frame = 16
 556              		@ frame_needed = 1, uses_anonymous_args = 0
 557 0000 80B5     		push	{r7, lr}
 558              		.cfi_def_cfa_offset 8
 559              		.cfi_offset 7, -8
 560              		.cfi_offset 14, -4
 561 0002 84B0     		sub	sp, sp, #16
 562              		.cfi_def_cfa_offset 24
 563 0004 00AF     		add	r7, sp, #0
 564              		.cfi_def_cfa_register 7
 565 0006 F860     		str	r0, [r7, #12]
ARM GAS  C:\Users\JENNEW~1\AppData\Local\Temp\ccDmuUZA.s 			page 16


 566 0008 0B46     		mov	r3, r1
 567 000a 7A60     		str	r2, [r7, #4]
 568 000c FB72     		strb	r3, [r7, #11]
 264:app_statemachine.c ****     // User error: Invalid request, do not change and notify user.
 265:app_statemachine.c ****     if (sev == SEV_USER) {
 569              		.loc 1 265 0
 570 000e FB7A     		ldrb	r3, [r7, #11]	@ zero_extendqisi2
 571 0010 002B     		cmp	r3, #0
 572 0012 09D1     		bne	.L33
 266:app_statemachine.c ****         UART_DEBUG_PutString("[USER] ");
 573              		.loc 1 266 0
 574 0014 1248     		ldr	r0, .L38
 575 0016 FFF7FEFF 		bl	UART_DEBUG_PutString
 267:app_statemachine.c ****         UART_DEBUG_PutString(msg);
 576              		.loc 1 267 0
 577 001a 7868     		ldr	r0, [r7, #4]
 578 001c FFF7FEFF 		bl	UART_DEBUG_PutString
 268:app_statemachine.c ****         UART_DEBUG_PutString("\r\n");
 579              		.loc 1 268 0
 580 0020 1048     		ldr	r0, .L38+4
 581 0022 FFF7FEFF 		bl	UART_DEBUG_PutString
 269:app_statemachine.c ****         return;
 582              		.loc 1 269 0
 583 0026 18E0     		b	.L32
 584              	.L33:
 270:app_statemachine.c ****     }
 271:app_statemachine.c ****     
 272:app_statemachine.c ****     // Fatal error flag.
 273:app_statemachine.c ****     if (ctx->fatal_latched && sev != SEV_FATAL) return;
 585              		.loc 1 273 0
 586 0028 FB68     		ldr	r3, [r7, #12]
 587 002a 1B7E     		ldrb	r3, [r3, #24]	@ zero_extendqisi2
 588 002c 002B     		cmp	r3, #0
 589 002e 02D0     		beq	.L35
 590              		.loc 1 273 0 is_stmt 0 discriminator 1
 591 0030 FB7A     		ldrb	r3, [r7, #11]	@ zero_extendqisi2
 592 0032 032B     		cmp	r3, #3
 593 0034 10D1     		bne	.L37
 594              	.L35:
 274:app_statemachine.c ****     
 275:app_statemachine.c ****     ctx->err_sev = sev;
 595              		.loc 1 275 0 is_stmt 1
 596 0036 FB68     		ldr	r3, [r7, #12]
 597 0038 FA7A     		ldrb	r2, [r7, #11]
 598 003a 1A74     		strb	r2, [r3, #16]
 276:app_statemachine.c ****     ctx->err_msg = msg;
 599              		.loc 1 276 0
 600 003c FB68     		ldr	r3, [r7, #12]
 601 003e 7A68     		ldr	r2, [r7, #4]
 602 0040 5A61     		str	r2, [r3, #20]
 277:app_statemachine.c ****     if (sev == SEV_FATAL) ctx->fatal_latched = 1u;
 603              		.loc 1 277 0
 604 0042 FB7A     		ldrb	r3, [r7, #11]	@ zero_extendqisi2
 605 0044 032B     		cmp	r3, #3
 606 0046 02D1     		bne	.L36
 607              		.loc 1 277 0 is_stmt 0 discriminator 1
 608 0048 FB68     		ldr	r3, [r7, #12]
ARM GAS  C:\Users\JENNEW~1\AppData\Local\Temp\ccDmuUZA.s 			page 17


 609 004a 0122     		movs	r2, #1
 610 004c 1A76     		strb	r2, [r3, #24]
 611              	.L36:
 278:app_statemachine.c ****     
 279:app_statemachine.c ****     app_transition(ctx, ERROR_ACTIVE);  // Go to error state.
 612              		.loc 1 279 0 is_stmt 1
 613 004e 0F21     		movs	r1, #15
 614 0050 F868     		ldr	r0, [r7, #12]
 615 0052 FFF7FEFF 		bl	app_transition
 616 0056 00E0     		b	.L32
 617              	.L37:
 273:app_statemachine.c ****     
 618              		.loc 1 273 0
 619 0058 00BF     		nop
 620              	.L32:
 280:app_statemachine.c **** }
 621              		.loc 1 280 0
 622 005a 1037     		adds	r7, r7, #16
 623              		.cfi_def_cfa_offset 8
 624 005c BD46     		mov	sp, r7
 625              		.cfi_def_cfa_register 13
 626              		@ sp needed
 627 005e 80BD     		pop	{r7, pc}
 628              	.L39:
 629              		.align	2
 630              	.L38:
 631 0060 90010000 		.word	.LC1
 632 0064 98010000 		.word	.LC2
 633              		.cfi_endproc
 634              	.LFE68:
 635              		.size	app_raise_error, .-app_raise_error
 636              		.section	.rodata
 637 019b 00       		.align	2
 638              	.LC3:
 639 019c 524F4F54 		.ascii	"ROOT\000"
 639      00
 640 01a1 000000   		.align	2
 641              	.LC4:
 642 01a4 53544259 		.ascii	"STBY\000"
 642      00
 643 01a9 000000   		.align	2
 644              	.LC5:
 645 01ac 4D414E55 		.ascii	"MANU\000"
 645      00
 646 01b1 000000   		.align	2
 647              	.LC6:
 648 01b4 4155544F 		.ascii	"AUTO\000"
 648      00
 649 01b9 000000   		.align	2
 650              	.LC7:
 651 01bc 4552524F 		.ascii	"ERROR\000"
 651      5200
 652 01c2 0000     		.align	2
 653              	.LC8:
 654 01c4 53544259 		.ascii	"STBY_DEFER\000"
 654      5F444546 
 654      455200
ARM GAS  C:\Users\JENNEW~1\AppData\Local\Temp\ccDmuUZA.s 			page 18


 655 01cf 00       		.align	2
 656              	.LC9:
 657 01d0 53544259 		.ascii	"STBY_HOLD\000"
 657      5F484F4C 
 657      4400
 658 01da 0000     		.align	2
 659              	.LC10:
 660 01dc 4D414E55 		.ascii	"MANU_JOYSTICK\000"
 660      5F4A4F59 
 660      53544943 
 660      4B00
 661 01ea 0000     		.align	2
 662              	.LC11:
 663 01ec 4155544F 		.ascii	"AUTO_HOME\000"
 663      5F484F4D 
 663      4500
 664 01f6 0000     		.align	2
 665              	.LC12:
 666 01f8 4155544F 		.ascii	"AUTO_ACQ_GPS\000"
 666      5F414351 
 666      5F475053 
 666      00
 667 0205 000000   		.align	2
 668              	.LC13:
 669 0208 4155544F 		.ascii	"AUTO_ACQ_SPIRAL\000"
 669      5F414351 
 669      5F535049 
 669      52414C00 
 670              		.align	2
 671              	.LC14:
 672 0218 4155544F 		.ascii	"AUTO_TRACKING\000"
 672      5F545241 
 672      434B494E 
 672      4700
 673 0226 0000     		.align	2
 674              	.LC15:
 675 0228 4155544F 		.ascii	"AUTO_LOSS\000"
 675      5F4C4F53 
 675      5300
 676 0232 0000     		.align	2
 677              	.LC16:
 678 0234 4155544F 		.ascii	"AUTO_NO_LOCK\000"
 678      5F4E4F5F 
 678      4C4F434B 
 678      00
 679 0241 000000   		.align	2
 680              	.LC17:
 681 0244 4552524F 		.ascii	"ERROR_ACTIVE\000"
 681      525F4143 
 681      54495645 
 681      00
 682 0251 000000   		.align	2
 683              		.type	state_names, %object
 684              		.size	state_names, 68
 685              	state_names:
 686 0254 9C010000 		.word	.LC3
 687 0258 A4010000 		.word	.LC4
ARM GAS  C:\Users\JENNEW~1\AppData\Local\Temp\ccDmuUZA.s 			page 19


 688 025c AC010000 		.word	.LC5
 689 0260 B4010000 		.word	.LC6
 690 0264 BC010000 		.word	.LC7
 691 0268 C4010000 		.word	.LC8
 692 026c D0010000 		.word	.LC9
 693 0270 DC010000 		.word	.LC10
 694 0274 EC010000 		.word	.LC11
 695 0278 00000000 		.space	4
 696 027c F8010000 		.word	.LC12
 697 0280 08020000 		.word	.LC13
 698 0284 18020000 		.word	.LC14
 699 0288 28020000 		.word	.LC15
 700 028c 34020000 		.word	.LC16
 701 0290 44020000 		.word	.LC17
 702 0294 00000000 		.space	4
 703              		.section	.text.app_state_name,"ax",%progbits
 704              		.align	2
 705              		.global	app_state_name
 706              		.thumb
 707              		.thumb_func
 708              		.type	app_state_name, %function
 709              	app_state_name:
 710              	.LFB69:
 281:app_statemachine.c **** 
 282:app_statemachine.c **** // %==========================================================================%
 283:app_statemachine.c **** // %                            State names                                   %
 284:app_statemachine.c **** // %==========================================================================%
 285:app_statemachine.c **** static const char *const state_names[STATE_COUNT] = {
 286:app_statemachine.c ****     [ROOT] = "ROOT",
 287:app_statemachine.c ****     [STBY] = "STBY", [MANU] = "MANU", [AUTO] = "AUTO", [ERROR] = "ERROR",
 288:app_statemachine.c ****     [STBY_DEFER]      = "STBY_DEFER",
 289:app_statemachine.c ****     [STBY_HOLD]       = "STBY_HOLD",
 290:app_statemachine.c ****     [MANU_JOYSTICK]   = "MANU_JOYSTICK",
 291:app_statemachine.c ****     [AUTO_HOME]       = "AUTO_HOME",
 292:app_statemachine.c ****     [AUTO_ACQ_GPS]    = "AUTO_ACQ_GPS",
 293:app_statemachine.c ****     [AUTO_ACQ_SPIRAL] = "AUTO_ACQ_SPIRAL",
 294:app_statemachine.c ****     [AUTO_TRACKING]   = "AUTO_TRACKING",
 295:app_statemachine.c ****     [AUTO_LOSS]       = "AUTO_LOSS",
 296:app_statemachine.c ****     [AUTO_NO_LOCK]    = "AUTO_NO_LOCK",
 297:app_statemachine.c ****     [ERROR_ACTIVE]    = "ERROR_ACTIVE",
 298:app_statemachine.c **** };
 299:app_statemachine.c **** 
 300:app_statemachine.c **** // Helper for serial monitor.
 301:app_statemachine.c **** const char *app_state_name(state_t s) { return state_names[s]; }
 711              		.loc 1 301 0
 712              		.cfi_startproc
 713              		@ args = 0, pretend = 0, frame = 8
 714              		@ frame_needed = 1, uses_anonymous_args = 0
 715              		@ link register save eliminated.
 716 0000 80B4     		push	{r7}
 717              		.cfi_def_cfa_offset 4
 718              		.cfi_offset 7, -4
 719 0002 83B0     		sub	sp, sp, #12
 720              		.cfi_def_cfa_offset 16
 721 0004 00AF     		add	r7, sp, #0
 722              		.cfi_def_cfa_register 7
 723 0006 0346     		mov	r3, r0
ARM GAS  C:\Users\JENNEW~1\AppData\Local\Temp\ccDmuUZA.s 			page 20


 724 0008 FB71     		strb	r3, [r7, #7]
 725              		.loc 1 301 0
 726 000a FB79     		ldrb	r3, [r7, #7]	@ zero_extendqisi2
 727 000c 034A     		ldr	r2, .L42
 728 000e 52F82330 		ldr	r3, [r2, r3, lsl #2]
 729 0012 1846     		mov	r0, r3
 730 0014 0C37     		adds	r7, r7, #12
 731              		.cfi_def_cfa_offset 4
 732 0016 BD46     		mov	sp, r7
 733              		.cfi_def_cfa_register 13
 734              		@ sp needed
 735 0018 80BC     		pop	{r7}
 736              		.cfi_restore 7
 737              		.cfi_def_cfa_offset 0
 738 001a 7047     		bx	lr
 739              	.L43:
 740              		.align	2
 741              	.L42:
 742 001c 54020000 		.word	state_names
 743              		.cfi_endproc
 744              	.LFE69:
 745              		.size	app_state_name, .-app_state_name
 746              		.section	.text.app_telem_tick,"ax",%progbits
 747              		.align	2
 748              		.global	app_telem_tick
 749              		.thumb
 750              		.thumb_func
 751              		.type	app_telem_tick, %function
 752              	app_telem_tick:
 753              	.LFB70:
 302:app_statemachine.c **** 
 303:app_statemachine.c **** 
 304:app_statemachine.c **** // %==========================================================================%
 305:app_statemachine.c **** // %                              Telemetry                                   %
 306:app_statemachine.c **** // %==========================================================================%
 307:app_statemachine.c **** void app_telem_tick(app_ctx_t *ctx)
 308:app_statemachine.c **** {
 754              		.loc 1 308 0
 755              		.cfi_startproc
 756              		@ args = 0, pretend = 0, frame = 8
 757              		@ frame_needed = 1, uses_anonymous_args = 0
 758 0000 80B5     		push	{r7, lr}
 759              		.cfi_def_cfa_offset 8
 760              		.cfi_offset 7, -8
 761              		.cfi_offset 14, -4
 762 0002 82B0     		sub	sp, sp, #8
 763              		.cfi_def_cfa_offset 16
 764 0004 00AF     		add	r7, sp, #0
 765              		.cfi_def_cfa_register 7
 766 0006 7860     		str	r0, [r7, #4]
 309:app_statemachine.c ****     // Do the telemetry grabs if gimble connected
 310:app_statemachine.c ****     if (!ctx->gimbal) return;
 767              		.loc 1 310 0
 768 0008 7B68     		ldr	r3, [r7, #4]
 769 000a 1B68     		ldr	r3, [r3]
 770 000c 002B     		cmp	r3, #0
 771 000e 2DD0     		beq	.L48
ARM GAS  C:\Users\JENNEW~1\AppData\Local\Temp\ccDmuUZA.s 			page 21


 311:app_statemachine.c **** 
 312:app_statemachine.c ****     static uint32_t last_hot_ms  = 0u;  // Hot is the Movi status
 313:app_statemachine.c ****     static uint32_t last_link_ms = 0u;  // Cold are all other sensors
 314:app_statemachine.c ****     if (g_tick_ms - last_hot_ms  >= CONTROL_PERIOD_MS) {  //  10 Hz
 772              		.loc 1 314 0
 773 0010 184B     		ldr	r3, .L49
 774 0012 1A68     		ldr	r2, [r3]
 775 0014 184B     		ldr	r3, .L49+4
 776 0016 1B68     		ldr	r3, [r3]
 777 0018 D31A     		subs	r3, r2, r3
 778 001a 632B     		cmp	r3, #99
 779 001c 06D9     		bls	.L47
 315:app_statemachine.c ****         last_hot_ms = g_tick_ms;
 780              		.loc 1 315 0
 781 001e 154B     		ldr	r3, .L49
 782 0020 1B68     		ldr	r3, [r3]
 783 0022 154A     		ldr	r2, .L49+4
 784 0024 1360     		str	r3, [r2]
 316:app_statemachine.c ****         telemetry_send_hot_sbc(ctx);
 785              		.loc 1 316 0
 786 0026 7868     		ldr	r0, [r7, #4]
 787 0028 FFF7FEFF 		bl	telemetry_send_hot_sbc
 788              	.L47:
 317:app_statemachine.c ****     }
 318:app_statemachine.c ****     if (g_tick_ms - last_link_ms >= DIAG_PERIOD_MS) {     //  1 Hz
 789              		.loc 1 318 0
 790 002c 114B     		ldr	r3, .L49
 791 002e 1A68     		ldr	r2, [r3]
 792 0030 124B     		ldr	r3, .L49+8
 793 0032 1B68     		ldr	r3, [r3]
 794 0034 D31A     		subs	r3, r2, r3
 795 0036 41F28732 		movw	r2, #4999
 796 003a 9342     		cmp	r3, r2
 797 003c 17D9     		bls	.L44
 319:app_statemachine.c ****         last_link_ms = g_tick_ms;
 798              		.loc 1 319 0
 799 003e 0D4B     		ldr	r3, .L49
 800 0040 1B68     		ldr	r3, [r3]
 801 0042 0E4A     		ldr	r2, .L49+8
 802 0044 1360     		str	r3, [r2]
 320:app_statemachine.c ****         telemetry_send_link_sbc(ctx);  // These each only excecute if scheduled
 803              		.loc 1 320 0
 804 0046 7868     		ldr	r0, [r7, #4]
 805 0048 FFF7FEFF 		bl	telemetry_send_link_sbc
 321:app_statemachine.c ****         telemetry_send_power_sbc(ctx);
 806              		.loc 1 321 0
 807 004c 7868     		ldr	r0, [r7, #4]
 808 004e FFF7FEFF 		bl	telemetry_send_power_sbc
 322:app_statemachine.c ****         telemetry_send_env_sbc(ctx);
 809              		.loc 1 322 0
 810 0052 7868     		ldr	r0, [r7, #4]
 811 0054 FFF7FEFF 		bl	telemetry_send_env_sbc
 323:app_statemachine.c ****         telemetry_send_gps_sbc(ctx);
 812              		.loc 1 323 0
 813 0058 7868     		ldr	r0, [r7, #4]
 814 005a FFF7FEFF 		bl	telemetry_send_gps_sbc
 324:app_statemachine.c ****         telemetry_send_baro_sbc(ctx);
ARM GAS  C:\Users\JENNEW~1\AppData\Local\Temp\ccDmuUZA.s 			page 22


 815              		.loc 1 324 0
 816 005e 7868     		ldr	r0, [r7, #4]
 817 0060 FFF7FEFF 		bl	telemetry_send_baro_sbc
 325:app_statemachine.c ****         telemetry_send_mag_sbc(ctx);
 818              		.loc 1 325 0
 819 0064 7868     		ldr	r0, [r7, #4]
 820 0066 FFF7FEFF 		bl	telemetry_send_mag_sbc
 821 006a 00E0     		b	.L44
 822              	.L48:
 310:app_statemachine.c **** 
 823              		.loc 1 310 0
 824 006c 00BF     		nop
 825              	.L44:
 326:app_statemachine.c ****     }
 327:app_statemachine.c **** }
 826              		.loc 1 327 0
 827 006e 0837     		adds	r7, r7, #8
 828              		.cfi_def_cfa_offset 8
 829 0070 BD46     		mov	sp, r7
 830              		.cfi_def_cfa_register 13
 831              		@ sp needed
 832 0072 80BD     		pop	{r7, pc}
 833              	.L50:
 834              		.align	2
 835              	.L49:
 836 0074 00000000 		.word	g_tick_ms
 837 0078 00000000 		.word	last_hot_ms.8298
 838 007c 04000000 		.word	last_link_ms.8299
 839              		.cfi_endproc
 840              	.LFE70:
 841              		.size	app_telem_tick, .-app_telem_tick
 842              		.section	.text.build_defer,"ax",%progbits
 843              		.align	2
 844              		.global	build_defer
 845              		.thumb
 846              		.thumb_func
 847              		.type	build_defer, %function
 848              	build_defer:
 849              	.LFB71:
 328:app_statemachine.c **** 
 329:app_statemachine.c **** // %==========================================================================%
 330:app_statemachine.c **** // %                        Gimbal control packets                            %
 331:app_statemachine.c **** // %==========================================================================%
 332:app_statemachine.c **** void build_defer(const app_ctx_t *ctx, hamfly_control_t *out)
 333:app_statemachine.c **** {
 850              		.loc 1 333 0
 851              		.cfi_startproc
 852              		@ args = 0, pretend = 0, frame = 8
 853              		@ frame_needed = 1, uses_anonymous_args = 0
 854 0000 80B5     		push	{r7, lr}
 855              		.cfi_def_cfa_offset 8
 856              		.cfi_offset 7, -8
 857              		.cfi_offset 14, -4
 858 0002 82B0     		sub	sp, sp, #8
 859              		.cfi_def_cfa_offset 16
 860 0004 00AF     		add	r7, sp, #0
 861              		.cfi_def_cfa_register 7
ARM GAS  C:\Users\JENNEW~1\AppData\Local\Temp\ccDmuUZA.s 			page 23


 862 0006 7860     		str	r0, [r7, #4]
 863 0008 3960     		str	r1, [r7]
 334:app_statemachine.c ****     (void)ctx;
 335:app_statemachine.c ****     memset(out, 0, sizeof *out);          /* DEFER == 0, so this releases */
 864              		.loc 1 335 0
 865 000a 1422     		movs	r2, #20
 866 000c 0021     		movs	r1, #0
 867 000e 3868     		ldr	r0, [r7]
 868 0010 FFF7FEFF 		bl	memset
 336:app_statemachine.c ****     out->pan_mode = HAMFLY_DEFER;
 869              		.loc 1 336 0
 870 0014 3B68     		ldr	r3, [r7]
 871 0016 0022     		movs	r2, #0
 872 0018 1A73     		strb	r2, [r3, #12]
 337:app_statemachine.c ****     out->tilt_mode = HAMFLY_DEFER;
 873              		.loc 1 337 0
 874 001a 3B68     		ldr	r3, [r7]
 875 001c 0022     		movs	r2, #0
 876 001e 5A73     		strb	r2, [r3, #13]
 338:app_statemachine.c ****     out->roll_mode = HAMFLY_DEFER;
 877              		.loc 1 338 0
 878 0020 3B68     		ldr	r3, [r7]
 879 0022 0022     		movs	r2, #0
 880 0024 9A73     		strb	r2, [r3, #14]
 339:app_statemachine.c **** }
 881              		.loc 1 339 0
 882 0026 00BF     		nop
 883 0028 0837     		adds	r7, r7, #8
 884              		.cfi_def_cfa_offset 8
 885 002a BD46     		mov	sp, r7
 886              		.cfi_def_cfa_register 13
 887              		@ sp needed
 888 002c 80BD     		pop	{r7, pc}
 889              		.cfi_endproc
 890              	.LFE71:
 891              		.size	build_defer, .-build_defer
 892 002e 00BF     		.section	.text.build_hold,"ax",%progbits
 893              		.align	2
 894              		.global	build_hold
 895              		.thumb
 896              		.thumb_func
 897              		.type	build_hold, %function
 898              	build_hold:
 899              	.LFB72:
 340:app_statemachine.c **** // Active hold at vel=0.
 341:app_statemachine.c **** void build_hold(const app_ctx_t *ctx, hamfly_control_t *out)
 342:app_statemachine.c **** {
 900              		.loc 1 342 0
 901              		.cfi_startproc
 902              		@ args = 0, pretend = 0, frame = 8
 903              		@ frame_needed = 1, uses_anonymous_args = 0
 904 0000 80B5     		push	{r7, lr}
 905              		.cfi_def_cfa_offset 8
 906              		.cfi_offset 7, -8
 907              		.cfi_offset 14, -4
 908 0002 82B0     		sub	sp, sp, #8
 909              		.cfi_def_cfa_offset 16
ARM GAS  C:\Users\JENNEW~1\AppData\Local\Temp\ccDmuUZA.s 			page 24


 910 0004 00AF     		add	r7, sp, #0
 911              		.cfi_def_cfa_register 7
 912 0006 7860     		str	r0, [r7, #4]
 913 0008 3960     		str	r1, [r7]
 343:app_statemachine.c ****     (void)ctx;
 344:app_statemachine.c ****     memset(out, 0, sizeof *out);
 914              		.loc 1 344 0
 915 000a 1422     		movs	r2, #20
 916 000c 0021     		movs	r1, #0
 917 000e 3868     		ldr	r0, [r7]
 918 0010 FFF7FEFF 		bl	memset
 345:app_statemachine.c ****     out->pan_mode  = HAMFLY_RATE;          /* RATE with value 0 == "stay put" */
 919              		.loc 1 345 0
 920 0014 3B68     		ldr	r3, [r7]
 921 0016 0122     		movs	r2, #1
 922 0018 1A73     		strb	r2, [r3, #12]
 346:app_statemachine.c ****     out->tilt_mode = HAMFLY_RATE;
 923              		.loc 1 346 0
 924 001a 3B68     		ldr	r3, [r7]
 925 001c 0122     		movs	r2, #1
 926 001e 5A73     		strb	r2, [r3, #13]
 347:app_statemachine.c ****     out->roll_mode = HAMFLY_DEFER;         /* roll has always been deferred here */
 927              		.loc 1 347 0
 928 0020 3B68     		ldr	r3, [r7]
 929 0022 0022     		movs	r2, #0
 930 0024 9A73     		strb	r2, [r3, #14]
 348:app_statemachine.c **** }
 931              		.loc 1 348 0
 932 0026 00BF     		nop
 933 0028 0837     		adds	r7, r7, #8
 934              		.cfi_def_cfa_offset 8
 935 002a BD46     		mov	sp, r7
 936              		.cfi_def_cfa_register 13
 937              		@ sp needed
 938 002c 80BD     		pop	{r7, pc}
 939              		.cfi_endproc
 940              	.LFE72:
 941              		.size	build_hold, .-build_hold
 942 002e 00BF     		.section	.text.app_build_control,"ax",%progbits
 943              		.align	2
 944              		.global	app_build_control
 945              		.thumb
 946              		.thumb_func
 947              		.type	app_build_control, %function
 948              	app_build_control:
 949              	.LFB73:
 349:app_statemachine.c **** 
 350:app_statemachine.c **** // Do build. For states without a build function returns zeroed packet.
 351:app_statemachine.c **** void app_build_control(const app_ctx_t *ctx, hamfly_control_t *out)
 352:app_statemachine.c **** {
 950              		.loc 1 352 0
 951              		.cfi_startproc
 952              		@ args = 0, pretend = 0, frame = 16
 953              		@ frame_needed = 1, uses_anonymous_args = 0
 954 0000 80B5     		push	{r7, lr}
 955              		.cfi_def_cfa_offset 8
 956              		.cfi_offset 7, -8
ARM GAS  C:\Users\JENNEW~1\AppData\Local\Temp\ccDmuUZA.s 			page 25


 957              		.cfi_offset 14, -4
 958 0002 84B0     		sub	sp, sp, #16
 959              		.cfi_def_cfa_offset 24
 960 0004 00AF     		add	r7, sp, #0
 961              		.cfi_def_cfa_register 7
 962 0006 7860     		str	r0, [r7, #4]
 963 0008 3960     		str	r1, [r7]
 353:app_statemachine.c ****     // Nudge overlay: Allow user triggered nudges to supress state building
 354:app_statemachine.c ****     if (ctx->nudge_hold) {
 964              		.loc 1 354 0
 965 000a 7B68     		ldr	r3, [r7, #4]
 966 000c 93F88430 		ldrb	r3, [r3, #132]	@ zero_extendqisi2
 967 0010 002B     		cmp	r3, #0
 968 0012 04D0     		beq	.L54
 355:app_statemachine.c ****         build_manu_joystick(ctx, out);  // Borrow from MANU
 969              		.loc 1 355 0
 970 0014 3968     		ldr	r1, [r7]
 971 0016 7868     		ldr	r0, [r7, #4]
 972 0018 FFF7FEFF 		bl	build_manu_joystick
 356:app_statemachine.c ****         // TODO: Ensure we return to the correct state.
 357:app_statemachine.c ****         // TODO: Move to utils? Or a less biased name.
 358:app_statemachine.c ****         return;
 973              		.loc 1 358 0
 974 001c 12E0     		b	.L53
 975              	.L54:
 359:app_statemachine.c ****     }
 360:app_statemachine.c ****     
 361:app_statemachine.c ****     // No nudge, build from state
 362:app_statemachine.c ****     build_fn_t f = on_build[ctx->state];
 976              		.loc 1 362 0
 977 001e 7B68     		ldr	r3, [r7, #4]
 978 0020 1B79     		ldrb	r3, [r3, #4]	@ zero_extendqisi2
 979 0022 1A46     		mov	r2, r3
 980 0024 094B     		ldr	r3, .L57
 981 0026 53F82230 		ldr	r3, [r3, r2, lsl #2]
 982 002a FB60     		str	r3, [r7, #12]
 363:app_statemachine.c ****     if (f)  f(ctx, out);
 983              		.loc 1 363 0
 984 002c FB68     		ldr	r3, [r7, #12]
 985 002e 002B     		cmp	r3, #0
 986 0030 04D0     		beq	.L56
 987              		.loc 1 363 0 is_stmt 0 discriminator 1
 988 0032 FB68     		ldr	r3, [r7, #12]
 989 0034 3968     		ldr	r1, [r7]
 990 0036 7868     		ldr	r0, [r7, #4]
 991 0038 9847     		blx	r3
 992 003a 03E0     		b	.L53
 993              	.L56:
 364:app_statemachine.c ****     else    build_defer(ctx, out);  // Safe default.
 994              		.loc 1 364 0 is_stmt 1
 995 003c 3968     		ldr	r1, [r7]
 996 003e 7868     		ldr	r0, [r7, #4]
 997 0040 FFF7FEFF 		bl	build_defer
 998              	.L53:
 365:app_statemachine.c **** }
 999              		.loc 1 365 0
 1000 0044 1037     		adds	r7, r7, #16
ARM GAS  C:\Users\JENNEW~1\AppData\Local\Temp\ccDmuUZA.s 			page 26


 1001              		.cfi_def_cfa_offset 8
 1002 0046 BD46     		mov	sp, r7
 1003              		.cfi_def_cfa_register 13
 1004              		@ sp needed
 1005 0048 80BD     		pop	{r7, pc}
 1006              	.L58:
 1007 004a 00BF     		.align	2
 1008              	.L57:
 1009 004c 24010000 		.word	on_build
 1010              		.cfi_endproc
 1011              	.LFE73:
 1012              		.size	app_build_control, .-app_build_control
 1013              		.section	.rodata
 1014              		.align	2
 1015              	.LC18:
 1016 0298 6E6F2067 		.ascii	"no gimbal handle\000"
 1016      696D6261 
 1016      6C206861 
 1016      6E646C65 
 1016      00
 1017 02a9 000000   		.align	2
 1018              	.LC19:
 1019 02ac 6E6F2074 		.ascii	"no telemetry (origin not set)\000"
 1019      656C656D 
 1019      65747279 
 1019      20286F72 
 1019      6967696E 
 1020 02ca 0000     		.align	2
 1021              	.LC20:
 1022 02cc 0D0A5B4F 		.ascii	"\015\012[ORIGIN] captured.\015\012\000"
 1022      52494749 
 1022      4E5D2063 
 1022      61707475 
 1022      7265642E 
 1023              		.section	.text.set_origin,"ax",%progbits
 1024              		.align	2
 1025              		.global	set_origin
 1026              		.thumb
 1027              		.thumb_func
 1028              		.type	set_origin, %function
 1029              	set_origin:
 1030              	.LFB74:
 366:app_statemachine.c **** 
 367:app_statemachine.c **** 
 368:app_statemachine.c **** // %==========================================================================%
 369:app_statemachine.c **** // %                        Serial Key dispatch                               %
 370:app_statemachine.c **** // %==========================================================================%
 371:app_statemachine.c **** #define KEY_CTRL_R 0x12  // Reset ASCII code.
 372:app_statemachine.c **** 
 373:app_statemachine.c **** 
 374:app_statemachine.c **** // Capture current attitude and save as origin
 375:app_statemachine.c **** // zero_tilt is a bool which forces the tilt origin to be level
 376:app_statemachine.c **** void set_origin(app_ctx_t *ctx, uint8_t zero_tilt)
 377:app_statemachine.c **** {
 1031              		.loc 1 377 0
 1032              		.cfi_startproc
 1033              		@ args = 0, pretend = 0, frame = 16
ARM GAS  C:\Users\JENNEW~1\AppData\Local\Temp\ccDmuUZA.s 			page 27


 1034              		@ frame_needed = 1, uses_anonymous_args = 0
 1035 0000 80B5     		push	{r7, lr}
 1036              		.cfi_def_cfa_offset 8
 1037              		.cfi_offset 7, -8
 1038              		.cfi_offset 14, -4
 1039 0002 84B0     		sub	sp, sp, #16
 1040              		.cfi_def_cfa_offset 24
 1041 0004 00AF     		add	r7, sp, #0
 1042              		.cfi_def_cfa_register 7
 1043 0006 7860     		str	r0, [r7, #4]
 1044 0008 0B46     		mov	r3, r1
 1045 000a FB70     		strb	r3, [r7, #3]
 378:app_statemachine.c ****     if (!ctx->gimbal) { app_raise_error(ctx, SEV_USER, "no gimbal handle"); return; }
 1046              		.loc 1 378 0
 1047 000c 7B68     		ldr	r3, [r7, #4]
 1048 000e 1B68     		ldr	r3, [r3]
 1049 0010 002B     		cmp	r3, #0
 1050 0012 05D1     		bne	.L60
 1051              		.loc 1 378 0 is_stmt 0 discriminator 1
 1052 0014 164A     		ldr	r2, .L66
 1053 0016 0021     		movs	r1, #0
 1054 0018 7868     		ldr	r0, [r7, #4]
 1055 001a FFF7FEFF 		bl	app_raise_error
 1056 001e 23E0     		b	.L59
 1057              	.L60:
 379:app_statemachine.c **** 
 380:app_statemachine.c ****     float pan, tilt;
 381:app_statemachine.c ****     if (!gimbal_pan_tilt_deg(ctx, &pan, &tilt)) {
 1058              		.loc 1 381 0 is_stmt 1
 1059 0020 07F10802 		add	r2, r7, #8
 1060 0024 07F10C03 		add	r3, r7, #12
 1061 0028 1946     		mov	r1, r3
 1062 002a 7868     		ldr	r0, [r7, #4]
 1063 002c FFF7FEFF 		bl	gimbal_pan_tilt_deg
 1064 0030 0346     		mov	r3, r0
 1065 0032 002B     		cmp	r3, #0
 1066 0034 05D1     		bne	.L62
 382:app_statemachine.c ****         app_raise_error(ctx, SEV_USER, "no telemetry (origin not set)");
 1067              		.loc 1 382 0
 1068 0036 0F4A     		ldr	r2, .L66+4
 1069 0038 0021     		movs	r1, #0
 1070 003a 7868     		ldr	r0, [r7, #4]
 1071 003c FFF7FEFF 		bl	app_raise_error
 383:app_statemachine.c ****         return;
 1072              		.loc 1 383 0
 1073 0040 12E0     		b	.L59
 1074              	.L62:
 384:app_statemachine.c ****     }
 385:app_statemachine.c ****     ctx->origin_pan_deg  = pan;
 1075              		.loc 1 385 0
 1076 0042 FA68     		ldr	r2, [r7, #12]	@ float
 1077 0044 7B68     		ldr	r3, [r7, #4]
 1078 0046 9A65     		str	r2, [r3, #88]	@ float
 386:app_statemachine.c ****     ctx->origin_tilt_deg = zero_tilt ? 0.0f : tilt;
 1079              		.loc 1 386 0
 1080 0048 FB78     		ldrb	r3, [r7, #3]	@ zero_extendqisi2
 1081 004a 002B     		cmp	r3, #0
ARM GAS  C:\Users\JENNEW~1\AppData\Local\Temp\ccDmuUZA.s 			page 28


 1082 004c 01D1     		bne	.L63
 1083              		.loc 1 386 0 is_stmt 0 discriminator 1
 1084 004e BB68     		ldr	r3, [r7, #8]	@ float
 1085 0050 01E0     		b	.L64
 1086              	.L63:
 1087              		.loc 1 386 0 discriminator 2
 1088 0052 4FF00003 		mov	r3, #0
 1089              	.L64:
 1090              		.loc 1 386 0 discriminator 4
 1091 0056 7A68     		ldr	r2, [r7, #4]
 1092 0058 D365     		str	r3, [r2, #92]	@ float
 387:app_statemachine.c ****     ctx->origin_set = 1u;
 1093              		.loc 1 387 0 is_stmt 1 discriminator 4
 1094 005a 7B68     		ldr	r3, [r7, #4]
 1095 005c 0122     		movs	r2, #1
 1096 005e 83F86020 		strb	r2, [r3, #96]
 388:app_statemachine.c ****     UART_DEBUG_PutString("\r\n[ORIGIN] captured.\r\n");
 1097              		.loc 1 388 0 discriminator 4
 1098 0062 0548     		ldr	r0, .L66+8
 1099 0064 FFF7FEFF 		bl	UART_DEBUG_PutString
 1100              	.L59:
 389:app_statemachine.c **** }
 1101              		.loc 1 389 0
 1102 0068 1037     		adds	r7, r7, #16
 1103              		.cfi_def_cfa_offset 8
 1104 006a BD46     		mov	sp, r7
 1105              		.cfi_def_cfa_register 13
 1106              		@ sp needed
 1107 006c 80BD     		pop	{r7, pc}
 1108              	.L67:
 1109 006e 00BF     		.align	2
 1110              	.L66:
 1111 0070 98020000 		.word	.LC18
 1112 0074 AC020000 		.word	.LC19
 1113 0078 CC020000 		.word	.LC20
 1114              		.cfi_endproc
 1115              	.LFE74:
 1116              		.size	set_origin, .-set_origin
 1117              		.section	.rodata
 1118 02e3 00       		.align	2
 1119              	.LC21:
 1120 02e4 0D0A2D2D 		.ascii	"\015\012--- keys ---\015\012 1 hold   2 manual     "
 1120      2D206B65 
 1120      7973202D 
 1120      2D2D0D0A 
 1120      20312068 
 1121 030b 20203320 		.ascii	"  3 auto\015\012 x kill   [ set-origin   ? help\015"
 1121      6175746F 
 1121      0D0A2078 
 1121      206B696C 
 1121      6C202020 
 1122 0335 0A206520 		.ascii	"\012 e exit   ] home\015\012 (in MANU) numpad/ijkl/"
 1122      65786974 
 1122      2020205D 
 1122      20686F6D 
 1122      650D0A20 
 1123 035f 77617364 		.ascii	"wasd nudge\015\012\000"
ARM GAS  C:\Users\JENNEW~1\AppData\Local\Temp\ccDmuUZA.s 			page 29


 1123      206E7564 
 1123      67650D0A 
 1123      00
 1124              		.section	.text.print_help,"ax",%progbits
 1125              		.align	2
 1126              		.thumb
 1127              		.thumb_func
 1128              		.type	print_help, %function
 1129              	print_help:
 1130              	.LFB75:
 390:app_statemachine.c **** 
 391:app_statemachine.c **** // Serial key menu, for debugging but superceded soon by SBC comms.
 392:app_statemachine.c **** static void print_help(const app_ctx_t *ctx)
 393:app_statemachine.c **** {
 1131              		.loc 1 393 0
 1132              		.cfi_startproc
 1133              		@ args = 0, pretend = 0, frame = 8
 1134              		@ frame_needed = 1, uses_anonymous_args = 0
 1135 0000 80B5     		push	{r7, lr}
 1136              		.cfi_def_cfa_offset 8
 1137              		.cfi_offset 7, -8
 1138              		.cfi_offset 14, -4
 1139 0002 82B0     		sub	sp, sp, #8
 1140              		.cfi_def_cfa_offset 16
 1141 0004 00AF     		add	r7, sp, #0
 1142              		.cfi_def_cfa_register 7
 1143 0006 7860     		str	r0, [r7, #4]
 394:app_statemachine.c ****     (void)ctx;
 395:app_statemachine.c ****     UART_DEBUG_PutString(
 1144              		.loc 1 395 0
 1145 0008 0348     		ldr	r0, .L69
 1146 000a FFF7FEFF 		bl	UART_DEBUG_PutString
 396:app_statemachine.c ****         "\r\n--- keys ---\r\n"
 397:app_statemachine.c ****         " 1 hold   2 manual       3 auto\r\n"
 398:app_statemachine.c ****         " x kill   [ set-origin   ? help\r\n"
 399:app_statemachine.c ****         " e exit   ] home\r\n"
 400:app_statemachine.c ****         " (in MANU) numpad/ijkl/wasd nudge\r\n");
 401:app_statemachine.c **** }
 1147              		.loc 1 401 0
 1148 000e 00BF     		nop
 1149 0010 0837     		adds	r7, r7, #8
 1150              		.cfi_def_cfa_offset 8
 1151 0012 BD46     		mov	sp, r7
 1152              		.cfi_def_cfa_register 13
 1153              		@ sp needed
 1154 0014 80BD     		pop	{r7, pc}
 1155              	.L70:
 1156 0016 00BF     		.align	2
 1157              	.L69:
 1158 0018 E4020000 		.word	.LC21
 1159              		.cfi_endproc
 1160              	.LFE75:
 1161              		.size	print_help, .-print_help
 1162              		.section	.rodata
 1163              		.align	2
 1164              	.LC22:
 1165 036c 0D0A4641 		.ascii	"\015\012FATAL cleared.\015\012\000"
ARM GAS  C:\Users\JENNEW~1\AppData\Local\Temp\ccDmuUZA.s 			page 30


 1165      54414C20 
 1165      636C6561 
 1165      7265642E 
 1165      0D0A00
 1166              		.section	.text.handle_global_key,"ax",%progbits
 1167              		.align	2
 1168              		.thumb
 1169              		.thumb_func
 1170              		.type	handle_global_key, %function
 1171              	handle_global_key:
 1172              	.LFB76:
 402:app_statemachine.c **** 
 403:app_statemachine.c **** // Handle global keys in any state.
 404:app_statemachine.c **** static uint8_t handle_global_key(app_ctx_t *ctx, char k)
 405:app_statemachine.c **** {
 1173              		.loc 1 405 0
 1174              		.cfi_startproc
 1175              		@ args = 0, pretend = 0, frame = 8
 1176              		@ frame_needed = 1, uses_anonymous_args = 0
 1177 0000 80B5     		push	{r7, lr}
 1178              		.cfi_def_cfa_offset 8
 1179              		.cfi_offset 7, -8
 1180              		.cfi_offset 14, -4
 1181 0002 82B0     		sub	sp, sp, #8
 1182              		.cfi_def_cfa_offset 16
 1183 0004 00AF     		add	r7, sp, #0
 1184              		.cfi_def_cfa_register 7
 1185 0006 7860     		str	r0, [r7, #4]
 1186 0008 0B46     		mov	r3, r1
 1187 000a FB70     		strb	r3, [r7, #3]
 406:app_statemachine.c ****     switch (k) {
 1188              		.loc 1 406 0
 1189 000c FB78     		ldrb	r3, [r7, #3]	@ zero_extendqisi2
 1190 000e 3F2B     		cmp	r3, #63
 1191 0010 34D0     		beq	.L73
 1192 0012 3F2B     		cmp	r3, #63
 1193 0014 02DC     		bgt	.L74
 1194 0016 122B     		cmp	r3, #18
 1195 0018 05D0     		beq	.L75
 1196 001a 34E0     		b	.L72
 1197              	.L74:
 1198 001c 5B2B     		cmp	r3, #91
 1199 001e 27D0     		beq	.L76
 1200 0020 782B     		cmp	r3, #120
 1201 0022 16D0     		beq	.L77
 1202 0024 2FE0     		b	.L72
 1203              	.L75:
 407:app_statemachine.c ****         case KEY_CTRL_R:  // Clear FATAL error
 408:app_statemachine.c ****             if (ctx->fatal_latched) {
 1204              		.loc 1 408 0
 1205 0026 7B68     		ldr	r3, [r7, #4]
 1206 0028 1B7E     		ldrb	r3, [r3, #24]	@ zero_extendqisi2
 1207 002a 002B     		cmp	r3, #0
 1208 002c 0FD0     		beq	.L78
 409:app_statemachine.c ****                 ctx->fatal_latched = 0u;
 1209              		.loc 1 409 0
 1210 002e 7B68     		ldr	r3, [r7, #4]
ARM GAS  C:\Users\JENNEW~1\AppData\Local\Temp\ccDmuUZA.s 			page 31


 1211 0030 0022     		movs	r2, #0
 1212 0032 1A76     		strb	r2, [r3, #24]
 410:app_statemachine.c ****                 ctx->err_sev = SEV_USER;
 1213              		.loc 1 410 0
 1214 0034 7B68     		ldr	r3, [r7, #4]
 1215 0036 0022     		movs	r2, #0
 1216 0038 1A74     		strb	r2, [r3, #16]
 411:app_statemachine.c ****                 ctx->err_msg = NULL;
 1217              		.loc 1 411 0
 1218 003a 7B68     		ldr	r3, [r7, #4]
 1219 003c 0022     		movs	r2, #0
 1220 003e 5A61     		str	r2, [r3, #20]
 412:app_statemachine.c ****                 UART_DEBUG_PutString("\r\nFATAL cleared.\r\n");
 1221              		.loc 1 412 0
 1222 0040 1348     		ldr	r0, .L81
 1223 0042 FFF7FEFF 		bl	UART_DEBUG_PutString
 413:app_statemachine.c ****                 app_transition(ctx, STBY_HOLD);
 1224              		.loc 1 413 0
 1225 0046 0621     		movs	r1, #6
 1226 0048 7868     		ldr	r0, [r7, #4]
 1227 004a FFF7FEFF 		bl	app_transition
 1228              	.L78:
 414:app_statemachine.c ****             }
 415:app_statemachine.c ****             return 1;
 1229              		.loc 1 415 0
 1230 004e 0123     		movs	r3, #1
 1231 0050 1AE0     		b	.L79
 1232              	.L77:
 416:app_statemachine.c ****         case 'x':  // Return to HOLD as a safe state
 417:app_statemachine.c ****             if (ctx->gimbal) hamfly_kill(ctx->gimbal);
 1233              		.loc 1 417 0
 1234 0052 7B68     		ldr	r3, [r7, #4]
 1235 0054 1B68     		ldr	r3, [r3]
 1236 0056 002B     		cmp	r3, #0
 1237 0058 04D0     		beq	.L80
 1238              		.loc 1 417 0 is_stmt 0 discriminator 1
 1239 005a 7B68     		ldr	r3, [r7, #4]
 1240 005c 1B68     		ldr	r3, [r3]
 1241 005e 1846     		mov	r0, r3
 1242 0060 FFF7FEFF 		bl	hamfly_kill
 1243              	.L80:
 418:app_statemachine.c ****             app_transition(ctx, STBY_HOLD);
 1244              		.loc 1 418 0 is_stmt 1
 1245 0064 0621     		movs	r1, #6
 1246 0066 7868     		ldr	r0, [r7, #4]
 1247 0068 FFF7FEFF 		bl	app_transition
 419:app_statemachine.c ****             return 1;
 1248              		.loc 1 419 0
 1249 006c 0123     		movs	r3, #1
 1250 006e 0BE0     		b	.L79
 1251              	.L76:
 420:app_statemachine.c ****         case '[': set_origin(ctx, 0u); return 1;
 1252              		.loc 1 420 0
 1253 0070 0021     		movs	r1, #0
 1254 0072 7868     		ldr	r0, [r7, #4]
 1255 0074 FFF7FEFF 		bl	set_origin
 1256 0078 0123     		movs	r3, #1
ARM GAS  C:\Users\JENNEW~1\AppData\Local\Temp\ccDmuUZA.s 			page 32


 1257 007a 05E0     		b	.L79
 1258              	.L73:
 421:app_statemachine.c ****         case '?': print_help(ctx);  return 1;
 1259              		.loc 1 421 0
 1260 007c 7868     		ldr	r0, [r7, #4]
 1261 007e FFF7FEFF 		bl	print_help
 1262 0082 0123     		movs	r3, #1
 1263 0084 00E0     		b	.L79
 1264              	.L72:
 422:app_statemachine.c ****         default:  return 0;
 1265              		.loc 1 422 0
 1266 0086 0023     		movs	r3, #0
 1267              	.L79:
 423:app_statemachine.c ****     }
 424:app_statemachine.c **** }
 1268              		.loc 1 424 0
 1269 0088 1846     		mov	r0, r3
 1270 008a 0837     		adds	r7, r7, #8
 1271              		.cfi_def_cfa_offset 8
 1272 008c BD46     		mov	sp, r7
 1273              		.cfi_def_cfa_register 13
 1274              		@ sp needed
 1275 008e 80BD     		pop	{r7, pc}
 1276              	.L82:
 1277              		.align	2
 1278              	.L81:
 1279 0090 6C030000 		.word	.LC22
 1280              		.cfi_endproc
 1281              	.LFE76:
 1282              		.size	handle_global_key, .-handle_global_key
 1283              		.section	.text.leaf_traps_nav,"ax",%progbits
 1284              		.align	2
 1285              		.thumb
 1286              		.thumb_func
 1287              		.type	leaf_traps_nav, %function
 1288              	leaf_traps_nav:
 1289              	.LFB77:
 425:app_statemachine.c **** 
 426:app_statemachine.c **** static uint8_t leaf_traps_nav(state_t s)
 427:app_statemachine.c **** {
 1290              		.loc 1 427 0
 1291              		.cfi_startproc
 1292              		@ args = 0, pretend = 0, frame = 8
 1293              		@ frame_needed = 1, uses_anonymous_args = 0
 1294              		@ link register save eliminated.
 1295 0000 80B4     		push	{r7}
 1296              		.cfi_def_cfa_offset 4
 1297              		.cfi_offset 7, -4
 1298 0002 83B0     		sub	sp, sp, #12
 1299              		.cfi_def_cfa_offset 16
 1300 0004 00AF     		add	r7, sp, #0
 1301              		.cfi_def_cfa_register 7
 1302 0006 0346     		mov	r3, r0
 1303 0008 FB71     		strb	r3, [r7, #7]
 428:app_statemachine.c ****     // Tee following states need to be exited (e) before numerals change state.
 429:app_statemachine.c ****     return (s == MANU_JOYSTICK   ||
 430:app_statemachine.c ****             s == AUTO_HOME       ||
ARM GAS  C:\Users\JENNEW~1\AppData\Local\Temp\ccDmuUZA.s 			page 33


 431:app_statemachine.c ****             s == AUTO_ACQ_GPS    ||
 432:app_statemachine.c ****             s == AUTO_ACQ_SPIRAL ||
 1304              		.loc 1 432 0
 1305 000a FB79     		ldrb	r3, [r7, #7]	@ zero_extendqisi2
 1306 000c 072B     		cmp	r3, #7
 1307 000e 0BD0     		beq	.L84
 429:app_statemachine.c ****             s == AUTO_HOME       ||
 1308              		.loc 1 429 0
 1309 0010 FB79     		ldrb	r3, [r7, #7]	@ zero_extendqisi2
 1310 0012 082B     		cmp	r3, #8
 1311 0014 08D0     		beq	.L84
 430:app_statemachine.c ****             s == AUTO_ACQ_GPS    ||
 1312              		.loc 1 430 0
 1313 0016 FB79     		ldrb	r3, [r7, #7]	@ zero_extendqisi2
 1314 0018 0A2B     		cmp	r3, #10
 1315 001a 05D0     		beq	.L84
 431:app_statemachine.c ****             s == AUTO_ACQ_SPIRAL ||
 1316              		.loc 1 431 0
 1317 001c FB79     		ldrb	r3, [r7, #7]	@ zero_extendqisi2
 1318 001e 0B2B     		cmp	r3, #11
 1319 0020 02D0     		beq	.L84
 1320              		.loc 1 432 0 discriminator 2
 1321 0022 FB79     		ldrb	r3, [r7, #7]	@ zero_extendqisi2
 1322 0024 0C2B     		cmp	r3, #12
 1323 0026 01D1     		bne	.L85
 1324              	.L84:
 1325              		.loc 1 432 0 is_stmt 0 discriminator 1
 1326 0028 0123     		movs	r3, #1
 1327 002a 00E0     		b	.L86
 1328              	.L85:
 1329              		.loc 1 432 0 discriminator 3
 1330 002c 0023     		movs	r3, #0
 1331              	.L86:
 429:app_statemachine.c ****             s == AUTO_HOME       ||
 1332              		.loc 1 429 0 is_stmt 1
 1333 002e DBB2     		uxtb	r3, r3
 433:app_statemachine.c ****             s == AUTO_TRACKING);
 434:app_statemachine.c **** }
 1334              		.loc 1 434 0
 1335 0030 1846     		mov	r0, r3
 1336 0032 0C37     		adds	r7, r7, #12
 1337              		.cfi_def_cfa_offset 4
 1338 0034 BD46     		mov	sp, r7
 1339              		.cfi_def_cfa_register 13
 1340              		@ sp needed
 1341 0036 80BC     		pop	{r7}
 1342              		.cfi_restore 7
 1343              		.cfi_def_cfa_offset 0
 1344 0038 7047     		bx	lr
 1345              		.cfi_endproc
 1346              	.LFE77:
 1347              		.size	leaf_traps_nav, .-leaf_traps_nav
 1348 003a 00BF     		.section	.text.handle_nav_key,"ax",%progbits
 1349              		.align	2
 1350              		.thumb
 1351              		.thumb_func
 1352              		.type	handle_nav_key, %function
ARM GAS  C:\Users\JENNEW~1\AppData\Local\Temp\ccDmuUZA.s 			page 34


 1353              	handle_nav_key:
 1354              	.LFB78:
 435:app_statemachine.c **** static uint8_t handle_nav_key(app_ctx_t *ctx, char k)
 436:app_statemachine.c **** {
 1355              		.loc 1 436 0
 1356              		.cfi_startproc
 1357              		@ args = 0, pretend = 0, frame = 8
 1358              		@ frame_needed = 1, uses_anonymous_args = 0
 1359 0000 80B5     		push	{r7, lr}
 1360              		.cfi_def_cfa_offset 8
 1361              		.cfi_offset 7, -8
 1362              		.cfi_offset 14, -4
 1363 0002 82B0     		sub	sp, sp, #8
 1364              		.cfi_def_cfa_offset 16
 1365 0004 00AF     		add	r7, sp, #0
 1366              		.cfi_def_cfa_register 7
 1367 0006 7860     		str	r0, [r7, #4]
 1368 0008 0B46     		mov	r3, r1
 1369 000a FB70     		strb	r3, [r7, #3]
 437:app_statemachine.c ****     // TODO: Add remaining states
 438:app_statemachine.c ****     switch (k) {
 1370              		.loc 1 438 0
 1371 000c FB78     		ldrb	r3, [r7, #3]	@ zero_extendqisi2
 1372 000e 322B     		cmp	r3, #50
 1373 0010 09D0     		beq	.L90
 1374 0012 332B     		cmp	r3, #51
 1375 0014 0DD0     		beq	.L91
 1376 0016 312B     		cmp	r3, #49
 1377 0018 11D1     		bne	.L94
 439:app_statemachine.c ****         case '1': app_transition(ctx, STBY_HOLD);     return 1;
 1378              		.loc 1 439 0
 1379 001a 0621     		movs	r1, #6
 1380 001c 7868     		ldr	r0, [r7, #4]
 1381 001e FFF7FEFF 		bl	app_transition
 1382 0022 0123     		movs	r3, #1
 1383 0024 0CE0     		b	.L93
 1384              	.L90:
 440:app_statemachine.c ****         case '2': app_transition(ctx, MANU_JOYSTICK); return 1;
 1385              		.loc 1 440 0
 1386 0026 0721     		movs	r1, #7
 1387 0028 7868     		ldr	r0, [r7, #4]
 1388 002a FFF7FEFF 		bl	app_transition
 1389 002e 0123     		movs	r3, #1
 1390 0030 06E0     		b	.L93
 1391              	.L91:
 441:app_statemachine.c ****         case '3': app_transition(ctx, AUTO_TRACKING); return 1;
 1392              		.loc 1 441 0
 1393 0032 0C21     		movs	r1, #12
 1394 0034 7868     		ldr	r0, [r7, #4]
 1395 0036 FFF7FEFF 		bl	app_transition
 1396 003a 0123     		movs	r3, #1
 1397 003c 00E0     		b	.L93
 1398              	.L94:
 442:app_statemachine.c ****         default:  return 0;
 1399              		.loc 1 442 0
 1400 003e 0023     		movs	r3, #0
 1401              	.L93:
ARM GAS  C:\Users\JENNEW~1\AppData\Local\Temp\ccDmuUZA.s 			page 35


 443:app_statemachine.c ****     }
 444:app_statemachine.c **** }
 1402              		.loc 1 444 0
 1403 0040 1846     		mov	r0, r3
 1404 0042 0837     		adds	r7, r7, #8
 1405              		.cfi_def_cfa_offset 8
 1406 0044 BD46     		mov	sp, r7
 1407              		.cfi_def_cfa_register 13
 1408              		@ sp needed
 1409 0046 80BD     		pop	{r7, pc}
 1410              		.cfi_endproc
 1411              	.LFE78:
 1412              		.size	handle_nav_key, .-handle_nav_key
 1413              		.section	.text.app_dispatch_key,"ax",%progbits
 1414              		.align	2
 1415              		.global	app_dispatch_key
 1416              		.thumb
 1417              		.thumb_func
 1418              		.type	app_dispatch_key, %function
 1419              	app_dispatch_key:
 1420              	.LFB79:
 445:app_statemachine.c **** 
 446:app_statemachine.c **** 
 447:app_statemachine.c **** // % Public key handling entry point %----------------------------------------%
 448:app_statemachine.c **** uint8_t app_dispatch_key(app_ctx_t *ctx, char key)
 449:app_statemachine.c **** {
 1421              		.loc 1 449 0
 1422              		.cfi_startproc
 1423              		@ args = 0, pretend = 0, frame = 16
 1424              		@ frame_needed = 1, uses_anonymous_args = 0
 1425 0000 80B5     		push	{r7, lr}
 1426              		.cfi_def_cfa_offset 8
 1427              		.cfi_offset 7, -8
 1428              		.cfi_offset 14, -4
 1429 0002 84B0     		sub	sp, sp, #16
 1430              		.cfi_def_cfa_offset 24
 1431 0004 00AF     		add	r7, sp, #0
 1432              		.cfi_def_cfa_register 7
 1433 0006 7860     		str	r0, [r7, #4]
 1434 0008 0B46     		mov	r3, r1
 1435 000a FB70     		strb	r3, [r7, #3]
 450:app_statemachine.c ****     if (ctx->state >= STATE_COUNT) return 0;  // Guard on real states
 1436              		.loc 1 450 0
 1437 000c 7B68     		ldr	r3, [r7, #4]
 1438 000e 1B79     		ldrb	r3, [r3, #4]	@ zero_extendqisi2
 1439 0010 102B     		cmp	r3, #16
 1440 0012 01D9     		bls	.L96
 1441              		.loc 1 450 0 is_stmt 0 discriminator 1
 1442 0014 0023     		movs	r3, #0
 1443 0016 3DE0     		b	.L97
 1444              	.L96:
 451:app_statemachine.c **** 
 452:app_statemachine.c ****     if (ctx->fatal_latched)  // Lout of if in FATAL error.
 1445              		.loc 1 452 0 is_stmt 1
 1446 0018 7B68     		ldr	r3, [r7, #4]
 1447 001a 1B7E     		ldrb	r3, [r3, #24]	@ zero_extendqisi2
 1448 001c 002B     		cmp	r3, #0
ARM GAS  C:\Users\JENNEW~1\AppData\Local\Temp\ccDmuUZA.s 			page 36


 1449 001e 0BD0     		beq	.L98
 453:app_statemachine.c ****         return (key == KEY_CTRL_R) ? handle_global_key(ctx, key) : 0;
 1450              		.loc 1 453 0
 1451 0020 FB78     		ldrb	r3, [r7, #3]	@ zero_extendqisi2
 1452 0022 122B     		cmp	r3, #18
 1453 0024 06D1     		bne	.L99
 1454              		.loc 1 453 0 is_stmt 0 discriminator 1
 1455 0026 FB78     		ldrb	r3, [r7, #3]	@ zero_extendqisi2
 1456 0028 1946     		mov	r1, r3
 1457 002a 7868     		ldr	r0, [r7, #4]
 1458 002c FFF7FEFF 		bl	handle_global_key
 1459 0030 0346     		mov	r3, r0
 1460 0032 2FE0     		b	.L97
 1461              	.L99:
 1462              		.loc 1 453 0 discriminator 2
 1463 0034 0023     		movs	r3, #0
 1464 0036 2DE0     		b	.L97
 1465              	.L98:
 454:app_statemachine.c **** 
 455:app_statemachine.c ****     if (handle_global_key(ctx, key)) return 1;  // Handle global keys first
 1466              		.loc 1 455 0 is_stmt 1
 1467 0038 FB78     		ldrb	r3, [r7, #3]	@ zero_extendqisi2
 1468 003a 1946     		mov	r1, r3
 1469 003c 7868     		ldr	r0, [r7, #4]
 1470 003e FFF7FEFF 		bl	handle_global_key
 1471 0042 0346     		mov	r3, r0
 1472 0044 002B     		cmp	r3, #0
 1473 0046 01D0     		beq	.L101
 1474              		.loc 1 455 0 is_stmt 0 discriminator 1
 1475 0048 0123     		movs	r3, #1
 1476 004a 23E0     		b	.L97
 1477              	.L101:
 456:app_statemachine.c **** 
 457:app_statemachine.c ****     // Handle per leaf key
 458:app_statemachine.c ****     key_fn_t f = on_key[ctx->state];
 1478              		.loc 1 458 0 is_stmt 1
 1479 004c 7B68     		ldr	r3, [r7, #4]
 1480 004e 1B79     		ldrb	r3, [r3, #4]	@ zero_extendqisi2
 1481 0050 1A46     		mov	r2, r3
 1482 0052 124B     		ldr	r3, .L104
 1483 0054 53F82230 		ldr	r3, [r3, r2, lsl #2]
 1484 0058 FB60     		str	r3, [r7, #12]
 459:app_statemachine.c ****     if (f && f(ctx, key)) return 1;
 1485              		.loc 1 459 0
 1486 005a FB68     		ldr	r3, [r7, #12]
 1487 005c 002B     		cmp	r3, #0
 1488 005e 09D0     		beq	.L102
 1489              		.loc 1 459 0 is_stmt 0 discriminator 1
 1490 0060 FA78     		ldrb	r2, [r7, #3]	@ zero_extendqisi2
 1491 0062 FB68     		ldr	r3, [r7, #12]
 1492 0064 1146     		mov	r1, r2
 1493 0066 7868     		ldr	r0, [r7, #4]
 1494 0068 9847     		blx	r3
 1495 006a 0346     		mov	r3, r0
 1496 006c 002B     		cmp	r3, #0
 1497 006e 01D0     		beq	.L102
 1498              		.loc 1 459 0 discriminator 2
ARM GAS  C:\Users\JENNEW~1\AppData\Local\Temp\ccDmuUZA.s 			page 37


 1499 0070 0123     		movs	r3, #1
 1500 0072 0FE0     		b	.L97
 1501              	.L102:
 460:app_statemachine.c ****     
 461:app_statemachine.c ****     // Handle state change numerals unless locked
 462:app_statemachine.c ****     if (!leaf_traps_nav(ctx->state))
 1502              		.loc 1 462 0 is_stmt 1
 1503 0074 7B68     		ldr	r3, [r7, #4]
 1504 0076 1B79     		ldrb	r3, [r3, #4]	@ zero_extendqisi2
 1505 0078 1846     		mov	r0, r3
 1506 007a FFF7FEFF 		bl	leaf_traps_nav
 1507 007e 0346     		mov	r3, r0
 1508 0080 002B     		cmp	r3, #0
 1509 0082 06D1     		bne	.L103
 463:app_statemachine.c ****         return handle_nav_key(ctx, key);
 1510              		.loc 1 463 0
 1511 0084 FB78     		ldrb	r3, [r7, #3]	@ zero_extendqisi2
 1512 0086 1946     		mov	r1, r3
 1513 0088 7868     		ldr	r0, [r7, #4]
 1514 008a FFF7FEFF 		bl	handle_nav_key
 1515 008e 0346     		mov	r3, r0
 1516 0090 00E0     		b	.L97
 1517              	.L103:
 464:app_statemachine.c **** 
 465:app_statemachine.c ****     return 0;
 1518              		.loc 1 465 0
 1519 0092 0023     		movs	r3, #0
 1520              	.L97:
 466:app_statemachine.c **** }
 1521              		.loc 1 466 0
 1522 0094 1846     		mov	r0, r3
 1523 0096 1037     		adds	r7, r7, #16
 1524              		.cfi_def_cfa_offset 8
 1525 0098 BD46     		mov	sp, r7
 1526              		.cfi_def_cfa_register 13
 1527              		@ sp needed
 1528 009a 80BD     		pop	{r7, pc}
 1529              	.L105:
 1530              		.align	2
 1531              	.L104:
 1532 009c E0000000 		.word	on_key
 1533              		.cfi_endproc
 1534              	.LFE79:
 1535              		.size	app_dispatch_key, .-app_dispatch_key
 1536              		.section	.text.sbc_state_is_requestable,"ax",%progbits
 1537              		.align	2
 1538              		.thumb
 1539              		.thumb_func
 1540              		.type	sbc_state_is_requestable, %function
 1541              	sbc_state_is_requestable:
 1542              	.LFB80:
 467:app_statemachine.c **** 
 468:app_statemachine.c **** 
 469:app_statemachine.c **** // %==========================================================================%
 470:app_statemachine.c **** // %                        SBC Commands and Control                          %
 471:app_statemachine.c **** // %==========================================================================%
 472:app_statemachine.c **** // Helper - Validate state change request
ARM GAS  C:\Users\JENNEW~1\AppData\Local\Temp\ccDmuUZA.s 			page 38


 473:app_statemachine.c **** static uint8_t sbc_state_is_requestable(uint8_t s)
 474:app_statemachine.c **** {
 1543              		.loc 1 474 0
 1544              		.cfi_startproc
 1545              		@ args = 0, pretend = 0, frame = 8
 1546              		@ frame_needed = 1, uses_anonymous_args = 0
 1547              		@ link register save eliminated.
 1548 0000 80B4     		push	{r7}
 1549              		.cfi_def_cfa_offset 4
 1550              		.cfi_offset 7, -4
 1551 0002 83B0     		sub	sp, sp, #12
 1552              		.cfi_def_cfa_offset 16
 1553 0004 00AF     		add	r7, sp, #0
 1554              		.cfi_def_cfa_register 7
 1555 0006 0346     		mov	r3, r0
 1556 0008 FB71     		strb	r3, [r7, #7]
 475:app_statemachine.c ****     // Not implemented. Should be a state-to-state look up table I think.
 476:app_statemachine.c ****     switch ((state_t)s) {
 1557              		.loc 1 476 0
 1558 000a FB79     		ldrb	r3, [r7, #7]	@ zero_extendqisi2
 1559 000c 063B     		subs	r3, r3, #6
 1560 000e 062B     		cmp	r3, #6
 1561 0010 01D8     		bhi	.L107
 477:app_statemachine.c ****         case STBY_HOLD:
 478:app_statemachine.c ****         case MANU_JOYSTICK:
 479:app_statemachine.c ****         case AUTO_HOME:
 480:app_statemachine.c ****         case AUTO_HOLD:
 481:app_statemachine.c ****         case AUTO_ACQ_GPS:
 482:app_statemachine.c ****         case AUTO_ACQ_SPIRAL:
 483:app_statemachine.c ****         case AUTO_TRACKING:
 484:app_statemachine.c ****             return 1u;
 1562              		.loc 1 484 0
 1563 0012 0123     		movs	r3, #1
 1564 0014 00E0     		b	.L109
 1565              	.L107:
 485:app_statemachine.c ****         case ERROR_KILL:  // Serial only for now
 486:app_statemachine.c ****         default:
 487:app_statemachine.c ****             return 0u;
 1566              		.loc 1 487 0
 1567 0016 0023     		movs	r3, #0
 1568              	.L109:
 488:app_statemachine.c ****     }
 489:app_statemachine.c **** }
 1569              		.loc 1 489 0
 1570 0018 1846     		mov	r0, r3
 1571 001a 0C37     		adds	r7, r7, #12
 1572              		.cfi_def_cfa_offset 4
 1573 001c BD46     		mov	sp, r7
 1574              		.cfi_def_cfa_register 13
 1575              		@ sp needed
 1576 001e 80BC     		pop	{r7}
 1577              		.cfi_restore 7
 1578              		.cfi_def_cfa_offset 0
 1579 0020 7047     		bx	lr
 1580              		.cfi_endproc
 1581              	.LFE80:
 1582              		.size	sbc_state_is_requestable, .-sbc_state_is_requestable
ARM GAS  C:\Users\JENNEW~1\AppData\Local\Temp\ccDmuUZA.s 			page 39


 1583              		.section	.rodata
 1584 037f 00       		.align	2
 1585              	.LC23:
 1586 0380 5B534243 		.ascii	"[SBC] invalid state req=%u\015\012\000"
 1586      5D20696E 
 1586      76616C69 
 1586      64207374 
 1586      61746520 
 1587 039d 000000   		.align	2
 1588              	.LC24:
 1589 03a0 5B534243 		.ascii	"[SBC] state req -> %s\015\012\000"
 1589      5D207374 
 1589      61746520 
 1589      72657120 
 1589      2D3E2025 
 1590              		.section	.text.app_sbc_tick,"ax",%progbits
 1591              		.align	2
 1592              		.global	app_sbc_tick
 1593              		.thumb
 1594              		.thumb_func
 1595              		.type	app_sbc_tick, %function
 1596              	app_sbc_tick:
 1597              	.LFB81:
 490:app_statemachine.c **** 
 491:app_statemachine.c **** void app_sbc_tick(app_ctx_t *ctx)
 492:app_statemachine.c **** {
 1598              		.loc 1 492 0
 1599              		.cfi_startproc
 1600              		@ args = 0, pretend = 0, frame = 160
 1601              		@ frame_needed = 1, uses_anonymous_args = 0
 1602 0000 80B5     		push	{r7, lr}
 1603              		.cfi_def_cfa_offset 8
 1604              		.cfi_offset 7, -8
 1605              		.cfi_offset 14, -4
 1606 0002 A8B0     		sub	sp, sp, #160
 1607              		.cfi_def_cfa_offset 168
 1608 0004 00AF     		add	r7, sp, #0
 1609              		.cfi_def_cfa_register 7
 1610 0006 7860     		str	r0, [r7, #4]
 493:app_statemachine.c ****     // TODO: Is this the right flow? The ctx should have a target coord,
 494:app_statemachine.c ****     // when the ISR for the SBC comms triggers it should load a new target 
 495:app_statemachine.c ****     // into the ctx.
 496:app_statemachine.c ****     payload_gps_target_t tgt;
 497:app_statemachine.c ****     if (sbc_get_gps_target(&tgt))
 1611              		.loc 1 497 0
 1612 0008 07F19003 		add	r3, r7, #144
 1613 000c 1846     		mov	r0, r3
 1614 000e FFF7FEFF 		bl	sbc_get_gps_target
 1615 0012 0346     		mov	r3, r0
 1616 0014 002B     		cmp	r3, #0
 1617 0016 13D0     		beq	.L111
 498:app_statemachine.c ****     {
 499:app_statemachine.c ****         ctx->gps_target_lat_raw = tgt.lat_raw;
 1618              		.loc 1 499 0
 1619 0018 D7F89020 		ldr	r2, [r7, #144]
 1620 001c 7B68     		ldr	r3, [r7, #4]
 1621 001e 5A62     		str	r2, [r3, #36]
ARM GAS  C:\Users\JENNEW~1\AppData\Local\Temp\ccDmuUZA.s 			page 40


 500:app_statemachine.c ****         ctx->gps_target_lon_raw = tgt.lon_raw;
 1622              		.loc 1 500 0
 1623 0020 D7F89420 		ldr	r2, [r7, #148]
 1624 0024 7B68     		ldr	r3, [r7, #4]
 1625 0026 9A62     		str	r2, [r3, #40]
 501:app_statemachine.c ****         ctx->gps_target_alt_mm  = tgt.alt_mm;
 1626              		.loc 1 501 0
 1627 0028 D7F89820 		ldr	r2, [r7, #152]
 1628 002c 7B68     		ldr	r3, [r7, #4]
 1629 002e DA62     		str	r2, [r3, #44]
 502:app_statemachine.c ****         ctx->gps_target_set     = 1u;
 1630              		.loc 1 502 0
 1631 0030 7B68     		ldr	r3, [r7, #4]
 1632 0032 0122     		movs	r2, #1
 1633 0034 83F83020 		strb	r2, [r3, #48]
 503:app_statemachine.c ****         ctx->gps_new_target     = 1u;   // ACQ_GPS picks this up on next settle
 1634              		.loc 1 503 0
 1635 0038 7B68     		ldr	r3, [r7, #4]
 1636 003a 0122     		movs	r2, #1
 1637 003c 83F83120 		strb	r2, [r3, #49]
 1638              	.L111:
 504:app_statemachine.c ****     }
 505:app_statemachine.c **** 
 506:app_statemachine.c ****     // 2) State change request
 507:app_statemachine.c ****     payload_state_req_t req;
 508:app_statemachine.c ****     if (!sbc_get_state_req(&req)) return;
 1639              		.loc 1 508 0
 1640 0040 07F18C03 		add	r3, r7, #140
 1641 0044 1846     		mov	r0, r3
 1642 0046 FFF7FEFF 		bl	sbc_get_state_req
 1643 004a 0346     		mov	r3, r0
 1644 004c 002B     		cmp	r3, #0
 1645 004e 49D0     		beq	.L117
 509:app_statemachine.c **** 
 510:app_statemachine.c ****     // Lock out if in FATAL error until ctrl-R.
 511:app_statemachine.c ****     // TODO: SBC needs a way to get out of error state too.
 512:app_statemachine.c ****     if (ctx->fatal_latched)
 1646              		.loc 1 512 0
 1647 0050 7B68     		ldr	r3, [r7, #4]
 1648 0052 1B7E     		ldrb	r3, [r3, #24]	@ zero_extendqisi2
 1649 0054 002B     		cmp	r3, #0
 1650 0056 06D0     		beq	.L114
 513:app_statemachine.c ****     {
 514:app_statemachine.c ****         sbc_send_state_ack((uint8_t)ctx->state, STATE_ACK_REJECTED);
 1651              		.loc 1 514 0
 1652 0058 7B68     		ldr	r3, [r7, #4]
 1653 005a 1B79     		ldrb	r3, [r3, #4]	@ zero_extendqisi2
 1654 005c 0121     		movs	r1, #1
 1655 005e 1846     		mov	r0, r3
 1656 0060 FFF7FEFF 		bl	sbc_send_state_ack
 515:app_statemachine.c ****         return;
 1657              		.loc 1 515 0
 1658 0064 3FE0     		b	.L110
 1659              	.L114:
 516:app_statemachine.c ****     }
 517:app_statemachine.c ****     // Validate state change request.
 518:app_statemachine.c ****     if (!sbc_state_is_requestable(req.requested_state))
ARM GAS  C:\Users\JENNEW~1\AppData\Local\Temp\ccDmuUZA.s 			page 41


 1660              		.loc 1 518 0
 1661 0066 97F88C30 		ldrb	r3, [r7, #140]	@ zero_extendqisi2
 1662 006a 1846     		mov	r0, r3
 1663 006c FFF7FEFF 		bl	sbc_state_is_requestable
 1664 0070 0346     		mov	r3, r0
 1665 0072 002B     		cmp	r3, #0
 1666 0074 14D1     		bne	.L115
 1667              	.LBB4:
 519:app_statemachine.c ****     {
 520:app_statemachine.c ****         sbc_send_state_ack((uint8_t)ctx->state, STATE_ACK_INVALID);
 1668              		.loc 1 520 0
 1669 0076 7B68     		ldr	r3, [r7, #4]
 1670 0078 1B79     		ldrb	r3, [r3, #4]	@ zero_extendqisi2
 1671 007a 0221     		movs	r1, #2
 1672 007c 1846     		mov	r0, r3
 1673 007e FFF7FEFF 		bl	sbc_send_state_ack
 521:app_statemachine.c ****         char b[64];
 522:app_statemachine.c ****         snprintf(b, sizeof b, "[SBC] invalid state req=%u\r\n",
 523:app_statemachine.c ****                  (unsigned)req.requested_state);
 1674              		.loc 1 523 0
 1675 0082 97F88C30 		ldrb	r3, [r7, #140]	@ zero_extendqisi2
 522:app_statemachine.c ****                  (unsigned)req.requested_state);
 1676              		.loc 1 522 0
 1677 0086 07F10C00 		add	r0, r7, #12
 1678 008a 184A     		ldr	r2, .L118
 1679 008c 4021     		movs	r1, #64
 1680 008e FFF7FEFF 		bl	snprintf
 524:app_statemachine.c ****         UART_DEBUG_PutString(b);
 1681              		.loc 1 524 0
 1682 0092 07F10C03 		add	r3, r7, #12
 1683 0096 1846     		mov	r0, r3
 1684 0098 FFF7FEFF 		bl	UART_DEBUG_PutString
 525:app_statemachine.c ****         return;
 1685              		.loc 1 525 0
 1686 009c 00BF     		nop
 1687 009e 22E0     		b	.L110
 1688              	.L115:
 1689              	.LBE4:
 526:app_statemachine.c ****     }
 527:app_statemachine.c **** 
 528:app_statemachine.c ****     state_t target = (state_t)req.requested_state;
 1690              		.loc 1 528 0
 1691 00a0 97F88C30 		ldrb	r3, [r7, #140]
 1692 00a4 87F89F30 		strb	r3, [r7, #159]
 529:app_statemachine.c ****     // Debug serial monitor print.
 530:app_statemachine.c ****     char b[64];
 531:app_statemachine.c ****     snprintf(b, sizeof b, "[SBC] state req -> %s\r\n", app_state_name(target));
 1693              		.loc 1 531 0
 1694 00a8 97F89F30 		ldrb	r3, [r7, #159]	@ zero_extendqisi2
 1695 00ac 1846     		mov	r0, r3
 1696 00ae FFF7FEFF 		bl	app_state_name
 1697 00b2 0346     		mov	r3, r0
 1698 00b4 07F14C00 		add	r0, r7, #76
 1699 00b8 0D4A     		ldr	r2, .L118+4
 1700 00ba 4021     		movs	r1, #64
 1701 00bc FFF7FEFF 		bl	snprintf
 532:app_statemachine.c ****     UART_DEBUG_PutString(b);
ARM GAS  C:\Users\JENNEW~1\AppData\Local\Temp\ccDmuUZA.s 			page 42


 1702              		.loc 1 532 0
 1703 00c0 07F14C03 		add	r3, r7, #76
 1704 00c4 1846     		mov	r0, r3
 1705 00c6 FFF7FEFF 		bl	UART_DEBUG_PutString
 533:app_statemachine.c ****     // Trigger state change
 534:app_statemachine.c ****     app_transition(ctx, target);
 1706              		.loc 1 534 0
 1707 00ca 97F89F30 		ldrb	r3, [r7, #159]	@ zero_extendqisi2
 1708 00ce 1946     		mov	r1, r3
 1709 00d0 7868     		ldr	r0, [r7, #4]
 1710 00d2 FFF7FEFF 		bl	app_transition
 535:app_statemachine.c ****     // Acknowledge on success.
 536:app_statemachine.c ****     sbc_send_state_ack((uint8_t)ctx->state, STATE_ACK_OK);
 1711              		.loc 1 536 0
 1712 00d6 7B68     		ldr	r3, [r7, #4]
 1713 00d8 1B79     		ldrb	r3, [r3, #4]	@ zero_extendqisi2
 1714 00da 0021     		movs	r1, #0
 1715 00dc 1846     		mov	r0, r3
 1716 00de FFF7FEFF 		bl	sbc_send_state_ack
 1717 00e2 00E0     		b	.L110
 1718              	.L117:
 508:app_statemachine.c **** 
 1719              		.loc 1 508 0
 1720 00e4 00BF     		nop
 1721              	.L110:
 537:app_statemachine.c **** }
 1722              		.loc 1 537 0
 1723 00e6 A037     		adds	r7, r7, #160
 1724              		.cfi_def_cfa_offset 8
 1725 00e8 BD46     		mov	sp, r7
 1726              		.cfi_def_cfa_register 13
 1727              		@ sp needed
 1728 00ea 80BD     		pop	{r7, pc}
 1729              	.L119:
 1730              		.align	2
 1731              	.L118:
 1732 00ec 80030000 		.word	.LC23
 1733 00f0 A0030000 		.word	.LC24
 1734              		.cfi_endproc
 1735              	.LFE81:
 1736              		.size	app_sbc_tick, .-app_sbc_tick
 1737              		.bss
 1738              		.align	2
 1739              	last_hot_ms.8298:
 1740 0000 00000000 		.space	4
 1741              		.align	2
 1742              	last_link_ms.8299:
 1743 0004 00000000 		.space	4
 1744              		.text
 1745              	.Letext0:
 1746              		.file 2 "c:\\program files (x86)\\cypress\\psoc creator\\4.4\\psoc creator\\import\\gnu\\arm\\5.4.
 1747              		.file 3 "c:\\program files (x86)\\cypress\\psoc creator\\4.4\\psoc creator\\import\\gnu\\arm\\5.4.
 1748              		.file 4 "..\\..\\..\\HamFlyAPI\\src/hamfly_core_hal.h"
 1749              		.file 5 "..\\..\\..\\HamFlyAPI\\src/hamfly_core_control.h"
 1750              		.file 6 "..\\..\\..\\HamFlyAPI\\src/hamfly_core_telemetry.h"
 1751              		.file 7 "..\\..\\..\\HamFlyAPI\\src/hamfly_comm_rb.h"
 1752              		.file 8 "..\\..\\..\\HamFlyAPI\\src/hamfly_core_gimbal.h"
ARM GAS  C:\Users\JENNEW~1\AppData\Local\Temp\ccDmuUZA.s 			page 43


 1753              		.file 9 "sbc_comms.h"
 1754              		.file 10 "joystick.h"
 1755              		.file 11 "app_ctx.h"
 1756              		.file 12 "Generated_Source\\PSoC5/core_cm3.h"