ARM GAS  C:\Users\JENNEW~1\AppData\Local\Temp\ccEqAB2L.s 			page 1


   1              		.syntax unified
   2              		.cpu cortex-m3
   3              		.fpu softvfp
   4              		.eabi_attribute 20, 1
   5              		.eabi_attribute 21, 1
   6              		.eabi_attribute 23, 3
   7              		.eabi_attribute 24, 1
   8              		.eabi_attribute 25, 1
   9              		.eabi_attribute 26, 1
  10              		.eabi_attribute 30, 6
  11              		.eabi_attribute 34, 1
  12              		.eabi_attribute 18, 4
  13              		.thumb
  14              		.syntax unified
  15              		.file	"app_statemachine.c"
  16              		.text
  17              	.Ltext0:
  18              		.cfi_sections	.debug_frame
  19              		.section	.rodata
  20              		.align	2
  21              		.type	parent_of, %object
  22              		.size	parent_of, 15
  23              	parent_of:
  24 0000 00       		.byte	0
  25 0001 00       		.byte	0
  26 0002 00       		.byte	0
  27 0003 00       		.byte	0
  28 0004 00       		.byte	0
  29 0005 01       		.byte	1
  30 0006 01       		.byte	1
  31 0007 02       		.byte	2
  32 0008 03       		.byte	3
  33 0009 03       		.byte	3
  34 000a 03       		.byte	3
  35 000b 03       		.byte	3
  36 000c 03       		.byte	3
  37 000d 03       		.byte	3
  38 000e 04       		.byte	4
  39 000f 00       		.align	2
  40              		.type	on_entry, %object
  41              		.size	on_entry, 60
  42              	on_entry:
  43 0010 00000000 		.space	4
  44 0014 00000000 		.word	0
  45 0018 00000000 		.word	0
  46 001c 00000000 		.word	0
  47 0020 00000000 		.word	0
  48 0024 00000000 		.word	entry_stby_defer
  49 0028 00000000 		.word	entry_stby_hold
  50 002c 00000000 		.word	entry_manu_joystick
  51 0030 00000000 		.word	entry_auto_home
  52 0034 00000000 		.word	entry_auto_acq_gps
  53 0038 00000000 		.word	entry_auto_acq_spiral
  54 003c 00000000 		.word	entry_auto_tracking
  55 0040 00000000 		.word	entry_auto_loss
  56 0044 00000000 		.word	entry_auto_no_lock
  57 0048 00000000 		.word	entry_error_active
ARM GAS  C:\Users\JENNEW~1\AppData\Local\Temp\ccEqAB2L.s 			page 2


  58              		.align	2
  59              		.type	on_exit, %object
  60              		.size	on_exit, 60
  61              	on_exit:
  62 004c 00000000 		.space	4
  63 0050 00000000 		.word	0
  64 0054 00000000 		.word	0
  65 0058 00000000 		.word	0
  66 005c 00000000 		.word	0
  67 0060 00000000 		.word	0
  68 0064 00000000 		.word	0
  69 0068 00000000 		.word	exit_manu_joystick
  70 006c 00000000 		.word	exit_auto_home
  71 0070 00000000 		.word	exit_auto_acq_gps
  72 0074 00000000 		.word	0
  73 0078 00000000 		.word	0
  74 007c 00000000 		.word	0
  75 0080 00000000 		.word	0
  76 0084 00000000 		.word	0
  77              		.align	2
  78              		.type	on_key, %object
  79              		.size	on_key, 60
  80              	on_key:
  81 0088 00000000 		.space	20
  81      00000000 
  81      00000000 
  81      00000000 
  81      00000000 
  82 009c 00000000 		.word	0
  83 00a0 00000000 		.word	0
  84 00a4 00000000 		.word	key_manu_joystick
  85 00a8 00000000 		.word	key_auto_home
  86 00ac 00000000 		.word	key_auto_acq_gps
  87 00b0 00000000 		.word	0
  88 00b4 00000000 		.word	key_auto_tracking
  89 00b8 00000000 		.word	key_auto_loss
  90 00bc 00000000 		.word	key_auto_no_lock
  91 00c0 00000000 		.word	key_error_active
  92              		.align	2
  93              		.type	on_build, %object
  94              		.size	on_build, 60
  95              	on_build:
  96 00c4 00000000 		.space	20
  96      00000000 
  96      00000000 
  96      00000000 
  96      00000000 
  97 00d8 00000000 		.word	build_stby
  98 00dc 00000000 		.word	build_stby
  99 00e0 00000000 		.word	build_manu_joystick
 100 00e4 00000000 		.word	build_auto_home
 101 00e8 00000000 		.word	build_auto_acq_gps
 102 00ec 00000000 		.word	build_stby
 103 00f0 00000000 		.word	build_auto_tracking
 104 00f4 00000000 		.word	build_stby
 105 00f8 00000000 		.word	build_stby
 106 00fc 00000000 		.word	build_error
ARM GAS  C:\Users\JENNEW~1\AppData\Local\Temp\ccEqAB2L.s 			page 3


 107              		.section	.text.depth_of,"ax",%progbits
 108              		.align	2
 109              		.thumb
 110              		.thumb_func
 111              		.type	depth_of, %function
 112              	depth_of:
 113              	.LFB64:
 114              		.file 1 "app_statemachine.c"
   1:app_statemachine.c **** /* ========================================
   2:app_statemachine.c ****  *
   3:app_statemachine.c ****  * Copyright Hamish Johnson, 2026
   4:app_statemachine.c ****  * All Rights Reserved
   5:app_statemachine.c ****  * UNPUBLISHED, LICENSED SOFTWARE.
   6:app_statemachine.c ****  *
   7:app_statemachine.c ****  * CONFIDENTIAL AND PROPRIETARY INFORMATION
   8:app_statemachine.c ****  * WHICH IS THE PROPERTY OF 
   9:app_statemachine.c ****  * Quantum Internet Systems Lab (QISL),
  10:app_statemachine.c ****  * Department of Physics, SFU, Canada.
  11:app_statemachine.c ****  *
  12:app_statemachine.c ****  * Author: Hamish Johnson (2026)
  13:app_statemachine.c ****  *
  14:app_statemachine.c ****  * ========================================
  15:app_statemachine.c ****  *
  16:app_statemachine.c ****  * HFSM engine: parent table, LCA walk, transition driver, error raiser.
  17:app_statemachine.c ****  *
  18:app_statemachine.c ****  *   ROOT
  19:app_statemachine.c ****  *   ├─ STBY ── STBY_DEFER (boot)
  20:app_statemachine.c ****  *   ├       ── STBY_HOLD
  21:app_statemachine.c ****  *   ├─ MANU ── MANU_JOYSTICK
  22:app_statemachine.c ****  *   ├─ AUTO ── AUTO_HOME*
  23:app_statemachine.c ****  *   ├       ── ACQ_GPS*
  24:app_statemachine.c ****  *   ├       ── ACQ_SPIRAL*
  25:app_statemachine.c ****  *   ├       ── TRACKING*
  26:app_statemachine.c ****  *   ├       ── LOSS*
  27:app_statemachine.c ****  *   ├       ── NO_LOCK*
  28:app_statemachine.c ****  *   └─ ERROR ─ ERROR_ACTIVE
  29:app_statemachine.c ****  * 
  30:app_statemachine.c ****  *      * = declared, not yet implemented
  31:app_statemachine.c ****  *
  32:app_statemachine.c ****  * KEYMAP (keep in sync with the key_* handlers in section 5):
  33:app_statemachine.c ****  *   GLOBAL (any non-FATAL leaf):
  34:app_statemachine.c ****  *     k       soft kill -> STBY_HOLD
  35:app_statemachine.c ****  *     [       capture origin from telemetry
  36:app_statemachine.c ****  *     ?       help
  37:app_statemachine.c ****  *     Ctrl+R  clear FATAL latch -> STBY_HOLD
  38:app_statemachine.c ****  *   NAV (suppressed where leaf_traps_nav()==1):
  39:app_statemachine.c ****  *     1/2/3   STBY_HOLD / MANU_JOYSTICK / AUTO
  40:app_statemachine.c ****  *   MANU_JOYSTICK leaf:
  41:app_statemachine.c ****  *     r/a     RATE / ABSOLUTE      e  exit -> STBY_HOLD
  42:app_statemachine.c ****  *     ]       -> AUTO_HOME
  43:app_statemachine.c ****  *
  44:app_statemachine.c ****  * DISPATCH PRECEDENCE (app_dispatch_key):
  45:app_statemachine.c ****  *     FATAL-lockout  >  global  >  leaf  >  nav
  46:app_statemachine.c **** */
  47:app_statemachine.c **** 
  48:app_statemachine.c **** #include "app_statemachine.h"
  49:app_statemachine.c **** #include "hamfly.h"
ARM GAS  C:\Users\JENNEW~1\AppData\Local\Temp\ccEqAB2L.s 			page 4


  50:app_statemachine.c **** #include "sbc_comms.h"
  51:app_statemachine.c **** #include "telemetry.h"
  52:app_statemachine.c **** #include "sbc_comms.h"
  53:app_statemachine.c **** #include <project.h>  // For UART
  54:app_statemachine.c **** #include <math.h>
  55:app_statemachine.c **** #include <string.h>
  56:app_statemachine.c **** #include <stdio.h>
  57:app_statemachine.c **** 
  58:app_statemachine.c **** // For timing, PSoC incremented with looptimer ISR.
  59:app_statemachine.c **** extern volatile uint32_t g_tick_ms;
  60:app_statemachine.c **** 
  61:app_statemachine.c **** // Hierarchy %================================================================%
  62:app_statemachine.c **** // Heirarchy allows shared entry/exit behaviour.
  63:app_statemachine.c **** // ROOT is the base of the walk.
  64:app_statemachine.c **** static const state_t parent_of[STATE_COUNT] = {
  65:app_statemachine.c ****     [ROOT]            = ROOT,  // Book keeping
  66:app_statemachine.c ****     [STBY]            = ROOT,  // Parent states
  67:app_statemachine.c ****     [MANU]            = ROOT,
  68:app_statemachine.c ****     [AUTO]            = ROOT,
  69:app_statemachine.c ****     [ERROR]           = ROOT,
  70:app_statemachine.c **** 
  71:app_statemachine.c ****     [STBY_DEFER]      = STBY,  // Two types of standby
  72:app_statemachine.c ****     [STBY_HOLD]       = STBY,
  73:app_statemachine.c **** 
  74:app_statemachine.c ****     [MANU_JOYSTICK]   = MANU,
  75:app_statemachine.c **** 
  76:app_statemachine.c ****     [AUTO_HOME]       = AUTO,  // Go to 0, 0
  77:app_statemachine.c ****     [AUTO_ACQ_GPS]    = AUTO,  // Go to GPS vector pointing
  78:app_statemachine.c ****     [AUTO_ACQ_SPIRAL] = AUTO,  // Spiral search for lock
  79:app_statemachine.c ****     [AUTO_TRACKING]   = AUTO,  // Closed loop tracking
  80:app_statemachine.c ****     [AUTO_LOSS]       = AUTO,  // Loss of centeroiding packets
  81:app_statemachine.c ****     [AUTO_NO_LOCK]    = AUTO,  // No lock after ACQ attempts
  82:app_statemachine.c **** 
  83:app_statemachine.c ****     [ERROR_ACTIVE]    = ERROR,  // Error state. TODO: Severity levels.
  84:app_statemachine.c **** };
  85:app_statemachine.c **** 
  86:app_statemachine.c **** // Per-state hook tables %====================================================%
  87:app_statemachine.c **** // Forward declaration of state handlers.
  88:app_statemachine.c **** typedef void    (*state_fn_t)(app_ctx_t *);  // Entry and Exit handlers
  89:app_statemachine.c **** typedef uint8_t (*key_fn_t)  (app_ctx_t *, char);  // Input handlers
  90:app_statemachine.c **** typedef void    (*build_fn_t)(const app_ctx_t *, hamfly_control_t *); //Packet
  91:app_statemachine.c **** 
  92:app_statemachine.c **** // Entry handlers
  93:app_statemachine.c **** static void entry_stby_defer    (app_ctx_t *);
  94:app_statemachine.c **** static void entry_stby_hold     (app_ctx_t *);
  95:app_statemachine.c **** static void entry_manu_joystick (app_ctx_t *);
  96:app_statemachine.c **** static void entry_auto_home     (app_ctx_t *);
  97:app_statemachine.c **** static void entry_auto_acq_gps  (app_ctx_t *);
  98:app_statemachine.c **** static void entry_auto_acq_spiral(app_ctx_t *);
  99:app_statemachine.c **** static void entry_auto_tracking (app_ctx_t *);
 100:app_statemachine.c **** static void entry_auto_loss     (app_ctx_t *);
 101:app_statemachine.c **** static void entry_auto_no_lock  (app_ctx_t *);
 102:app_statemachine.c **** static void entry_error_active  (app_ctx_t *);
 103:app_statemachine.c **** 
 104:app_statemachine.c **** // Exit handlers
 105:app_statemachine.c **** static void exit_manu_joystick  (app_ctx_t *);
 106:app_statemachine.c **** static void exit_auto_home      (app_ctx_t *);
ARM GAS  C:\Users\JENNEW~1\AppData\Local\Temp\ccEqAB2L.s 			page 5


 107:app_statemachine.c **** static void exit_auto_acq_gps   (app_ctx_t *);
 108:app_statemachine.c **** 
 109:app_statemachine.c **** // Key handlers
 110:app_statemachine.c **** static uint8_t key_manu_joystick(app_ctx_t *, char);
 111:app_statemachine.c **** static uint8_t key_auto_home    (app_ctx_t *, char);
 112:app_statemachine.c **** static uint8_t key_auto_acq_gps (app_ctx_t *, char);
 113:app_statemachine.c **** static uint8_t key_auto_tracking(app_ctx_t *, char);
 114:app_statemachine.c **** static uint8_t key_auto_loss    (app_ctx_t *, char);
 115:app_statemachine.c **** static uint8_t key_auto_no_lock (app_ctx_t *, char);
 116:app_statemachine.c **** static uint8_t key_error_active (app_ctx_t *, char);
 117:app_statemachine.c **** 
 118:app_statemachine.c **** // Packet building handlers
 119:app_statemachine.c **** static void build_zero          (const app_ctx_t *, hamfly_control_t *);
 120:app_statemachine.c **** static void build_stby          (const app_ctx_t *, hamfly_control_t *);
 121:app_statemachine.c **** static void build_manu_joystick (const app_ctx_t *, hamfly_control_t *);
 122:app_statemachine.c **** static void build_auto_home     (const app_ctx_t *, hamfly_control_t *);
 123:app_statemachine.c **** static void build_auto_acq_gps  (const app_ctx_t *, hamfly_control_t *);
 124:app_statemachine.c **** static void build_auto_tracking (const app_ctx_t *, hamfly_control_t *);
 125:app_statemachine.c **** static void build_error         (const app_ctx_t *, hamfly_control_t *);
 126:app_statemachine.c **** 
 127:app_statemachine.c **** // GPS vector math + slew helpers (internal)
 128:app_statemachine.c **** static float gps_bearing_deg (float lat1, float lon1, float lat2, float lon2);
 129:app_statemachine.c **** static float gps_elev_deg    (float lat1, float lon1, float alt1_m,
 130:app_statemachine.c ****                               float lat2, float lon2, float alt2_m);
 131:app_statemachine.c **** static void  gps_start_slew    (app_ctx_t *);
 132:app_statemachine.c **** static void  gps_update_pointing(app_ctx_t *);
 133:app_statemachine.c **** static void  gps_check_settle  (app_ctx_t *);
 134:app_statemachine.c **** 
 135:app_statemachine.c **** // Telemetry Helper
 136:app_statemachine.c **** // Telemetry helper (defined in the Key Handling section, used earlier by GPS)
 137:app_statemachine.c **** static uint8_t manu_pan_tilt_deg(const app_ctx_t *ctx, float *pan_deg, float *tilt_deg);
 138:app_statemachine.c **** 
 139:app_statemachine.c **** static const state_fn_t on_entry[STATE_COUNT] = {
 140:app_statemachine.c ****     [STBY]            = NULL,   /* parent: shared STBY entry, if ever needed */
 141:app_statemachine.c ****     [MANU]            = NULL,   /* parent */
 142:app_statemachine.c ****     [AUTO]            = NULL,   /* parent */
 143:app_statemachine.c ****     [ERROR]           = NULL,   /* parent */
 144:app_statemachine.c ****     [STBY_DEFER]      = entry_stby_defer,
 145:app_statemachine.c ****     [STBY_HOLD]       = entry_stby_hold,
 146:app_statemachine.c ****     [MANU_JOYSTICK]   = entry_manu_joystick,
 147:app_statemachine.c ****     [AUTO_HOME]       = entry_auto_home,
 148:app_statemachine.c ****     [AUTO_ACQ_GPS]    = entry_auto_acq_gps,
 149:app_statemachine.c ****     [AUTO_ACQ_SPIRAL] = entry_auto_acq_spiral,
 150:app_statemachine.c ****     [AUTO_TRACKING]   = entry_auto_tracking,
 151:app_statemachine.c ****     [AUTO_LOSS]       = entry_auto_loss,
 152:app_statemachine.c ****     [AUTO_NO_LOCK]    = entry_auto_no_lock,
 153:app_statemachine.c ****     [ERROR_ACTIVE]    = entry_error_active,
 154:app_statemachine.c **** };
 155:app_statemachine.c **** 
 156:app_statemachine.c **** static const state_fn_t on_exit[STATE_COUNT] = {
 157:app_statemachine.c ****     [STBY]            = NULL,   /* parent */
 158:app_statemachine.c ****     [MANU]            = NULL,   /* parent */
 159:app_statemachine.c ****     [AUTO]            = NULL,   /* parent */
 160:app_statemachine.c ****     [ERROR]           = NULL,   /* parent */
 161:app_statemachine.c ****     [STBY_DEFER]      = NULL,
 162:app_statemachine.c ****     [STBY_HOLD]       = NULL,
 163:app_statemachine.c ****     [MANU_JOYSTICK]   = exit_manu_joystick,
ARM GAS  C:\Users\JENNEW~1\AppData\Local\Temp\ccEqAB2L.s 			page 6


 164:app_statemachine.c ****     [AUTO_HOME]       = exit_auto_home,
 165:app_statemachine.c ****     [AUTO_ACQ_GPS]    = exit_auto_acq_gps,
 166:app_statemachine.c ****     [AUTO_ACQ_SPIRAL] = NULL,   /* TODO */
 167:app_statemachine.c ****     [AUTO_TRACKING]   = NULL,  
 168:app_statemachine.c ****     [AUTO_LOSS]       = NULL,   /* TODO */
 169:app_statemachine.c ****     [AUTO_NO_LOCK]    = NULL,   /* TODO */
 170:app_statemachine.c ****     [ERROR_ACTIVE]    = NULL,
 171:app_statemachine.c **** };
 172:app_statemachine.c **** 
 173:app_statemachine.c **** static const key_fn_t on_key[STATE_COUNT] = {
 174:app_statemachine.c ****     [STBY_DEFER]      = NULL,
 175:app_statemachine.c ****     [STBY_HOLD]       = NULL,
 176:app_statemachine.c ****     [MANU_JOYSTICK]   = key_manu_joystick,
 177:app_statemachine.c ****     [AUTO_HOME]       = key_auto_home,
 178:app_statemachine.c ****     [AUTO_ACQ_GPS]    = key_auto_acq_gps,
 179:app_statemachine.c ****     [AUTO_ACQ_SPIRAL] = NULL,   /* TODO */
 180:app_statemachine.c ****     [AUTO_TRACKING]   = key_auto_tracking,
 181:app_statemachine.c ****     [AUTO_LOSS]       = key_auto_loss,
 182:app_statemachine.c ****     [AUTO_NO_LOCK]    = key_auto_no_lock,
 183:app_statemachine.c ****     [ERROR_ACTIVE]    = key_error_active,
 184:app_statemachine.c **** };
 185:app_statemachine.c **** 
 186:app_statemachine.c **** static const build_fn_t on_build[STATE_COUNT] = {
 187:app_statemachine.c ****     [STBY_DEFER]      = build_stby,
 188:app_statemachine.c ****     [STBY_HOLD]       = build_stby,
 189:app_statemachine.c ****     [MANU_JOYSTICK]   = build_manu_joystick,
 190:app_statemachine.c ****     [AUTO_HOME]       = build_auto_home,
 191:app_statemachine.c ****     [AUTO_ACQ_GPS]    = build_auto_acq_gps,
 192:app_statemachine.c ****     [AUTO_ACQ_SPIRAL] = build_stby,          /* placeholder: zero rates, hold */
 193:app_statemachine.c ****     [AUTO_TRACKING]   = build_auto_tracking,
 194:app_statemachine.c ****     [AUTO_LOSS]       = build_stby,          /* placeholder: hold position */
 195:app_statemachine.c ****     [AUTO_NO_LOCK]    = build_stby,          /* placeholder: hold position */
 196:app_statemachine.c ****     [ERROR_ACTIVE]    = build_error,
 197:app_statemachine.c **** };
 198:app_statemachine.c **** 
 199:app_statemachine.c **** // Lowest common ancestor (LCA) walk %========================================%
 200:app_statemachine.c **** // For a given state, walk up its parents to ROOT, then walk down to incoming
 201:app_statemachine.c **** // state. Allows for heirarchical and shared entry/exit behaviour.
 202:app_statemachine.c **** static uint8_t depth_of(state_t s)
 203:app_statemachine.c **** {
 115              		.loc 1 203 0
 116              		.cfi_startproc
 117              		@ args = 0, pretend = 0, frame = 16
 118              		@ frame_needed = 1, uses_anonymous_args = 0
 119              		@ link register save eliminated.
 120 0000 80B4     		push	{r7}
 121              		.cfi_def_cfa_offset 4
 122              		.cfi_offset 7, -4
 123 0002 85B0     		sub	sp, sp, #20
 124              		.cfi_def_cfa_offset 24
 125 0004 00AF     		add	r7, sp, #0
 126              		.cfi_def_cfa_register 7
 127 0006 0346     		mov	r3, r0
 128 0008 FB71     		strb	r3, [r7, #7]
 204:app_statemachine.c ****     uint8_t d = 0;
 129              		.loc 1 204 0
 130 000a 0023     		movs	r3, #0
ARM GAS  C:\Users\JENNEW~1\AppData\Local\Temp\ccEqAB2L.s 			page 7


 131 000c FB73     		strb	r3, [r7, #15]
 205:app_statemachine.c ****     while (s != ROOT) { s = parent_of[s]; d++; }
 132              		.loc 1 205 0
 133 000e 06E0     		b	.L2
 134              	.L3:
 135              		.loc 1 205 0 is_stmt 0 discriminator 2
 136 0010 FB79     		ldrb	r3, [r7, #7]	@ zero_extendqisi2
 137 0012 074A     		ldr	r2, .L5
 138 0014 D35C     		ldrb	r3, [r2, r3]
 139 0016 FB71     		strb	r3, [r7, #7]
 140 0018 FB7B     		ldrb	r3, [r7, #15]	@ zero_extendqisi2
 141 001a 0133     		adds	r3, r3, #1
 142 001c FB73     		strb	r3, [r7, #15]
 143              	.L2:
 144              		.loc 1 205 0 discriminator 1
 145 001e FB79     		ldrb	r3, [r7, #7]	@ zero_extendqisi2
 146 0020 002B     		cmp	r3, #0
 147 0022 F5D1     		bne	.L3
 206:app_statemachine.c ****     return d;
 148              		.loc 1 206 0 is_stmt 1
 149 0024 FB7B     		ldrb	r3, [r7, #15]	@ zero_extendqisi2
 207:app_statemachine.c **** }
 150              		.loc 1 207 0
 151 0026 1846     		mov	r0, r3
 152 0028 1437     		adds	r7, r7, #20
 153              		.cfi_def_cfa_offset 4
 154 002a BD46     		mov	sp, r7
 155              		.cfi_def_cfa_register 13
 156              		@ sp needed
 157 002c 80BC     		pop	{r7}
 158              		.cfi_restore 7
 159              		.cfi_def_cfa_offset 0
 160 002e 7047     		bx	lr
 161              	.L6:
 162              		.align	2
 163              	.L5:
 164 0030 00000000 		.word	parent_of
 165              		.cfi_endproc
 166              	.LFE64:
 167              		.size	depth_of, .-depth_of
 168              		.section	.text.lca,"ax",%progbits
 169              		.align	2
 170              		.thumb
 171              		.thumb_func
 172              		.type	lca, %function
 173              	lca:
 174              	.LFB65:
 208:app_statemachine.c **** 
 209:app_statemachine.c **** static state_t lca(state_t a, state_t b)
 210:app_statemachine.c **** {
 175              		.loc 1 210 0
 176              		.cfi_startproc
 177              		@ args = 0, pretend = 0, frame = 16
 178              		@ frame_needed = 1, uses_anonymous_args = 0
 179 0000 80B5     		push	{r7, lr}
 180              		.cfi_def_cfa_offset 8
 181              		.cfi_offset 7, -8
ARM GAS  C:\Users\JENNEW~1\AppData\Local\Temp\ccEqAB2L.s 			page 8


 182              		.cfi_offset 14, -4
 183 0002 84B0     		sub	sp, sp, #16
 184              		.cfi_def_cfa_offset 24
 185 0004 00AF     		add	r7, sp, #0
 186              		.cfi_def_cfa_register 7
 187 0006 0346     		mov	r3, r0
 188 0008 0A46     		mov	r2, r1
 189 000a FB71     		strb	r3, [r7, #7]
 190 000c 1346     		mov	r3, r2
 191 000e BB71     		strb	r3, [r7, #6]
 211:app_statemachine.c ****     uint8_t da = depth_of(a), db = depth_of(b);
 192              		.loc 1 211 0
 193 0010 FB79     		ldrb	r3, [r7, #7]	@ zero_extendqisi2
 194 0012 1846     		mov	r0, r3
 195 0014 FFF7FEFF 		bl	depth_of
 196 0018 0346     		mov	r3, r0
 197 001a FB73     		strb	r3, [r7, #15]
 198 001c BB79     		ldrb	r3, [r7, #6]	@ zero_extendqisi2
 199 001e 1846     		mov	r0, r3
 200 0020 FFF7FEFF 		bl	depth_of
 201 0024 0346     		mov	r3, r0
 202 0026 BB73     		strb	r3, [r7, #14]
 212:app_statemachine.c ****     while (da > db) { a = parent_of[a]; da--; }
 203              		.loc 1 212 0
 204 0028 06E0     		b	.L8
 205              	.L9:
 206              		.loc 1 212 0 is_stmt 0 discriminator 2
 207 002a FB79     		ldrb	r3, [r7, #7]	@ zero_extendqisi2
 208 002c 134A     		ldr	r2, .L15
 209 002e D35C     		ldrb	r3, [r2, r3]
 210 0030 FB71     		strb	r3, [r7, #7]
 211 0032 FB7B     		ldrb	r3, [r7, #15]	@ zero_extendqisi2
 212 0034 013B     		subs	r3, r3, #1
 213 0036 FB73     		strb	r3, [r7, #15]
 214              	.L8:
 215              		.loc 1 212 0 discriminator 1
 216 0038 FA7B     		ldrb	r2, [r7, #15]	@ zero_extendqisi2
 217 003a BB7B     		ldrb	r3, [r7, #14]	@ zero_extendqisi2
 218 003c 9A42     		cmp	r2, r3
 219 003e F4D8     		bhi	.L9
 213:app_statemachine.c ****     while (db > da) { b = parent_of[b]; db--; }
 220              		.loc 1 213 0 is_stmt 1
 221 0040 06E0     		b	.L10
 222              	.L11:
 223              		.loc 1 213 0 is_stmt 0 discriminator 2
 224 0042 BB79     		ldrb	r3, [r7, #6]	@ zero_extendqisi2
 225 0044 0D4A     		ldr	r2, .L15
 226 0046 D35C     		ldrb	r3, [r2, r3]
 227 0048 BB71     		strb	r3, [r7, #6]
 228 004a BB7B     		ldrb	r3, [r7, #14]	@ zero_extendqisi2
 229 004c 013B     		subs	r3, r3, #1
 230 004e BB73     		strb	r3, [r7, #14]
 231              	.L10:
 232              		.loc 1 213 0 discriminator 1
 233 0050 BA7B     		ldrb	r2, [r7, #14]	@ zero_extendqisi2
 234 0052 FB7B     		ldrb	r3, [r7, #15]	@ zero_extendqisi2
 235 0054 9A42     		cmp	r2, r3
ARM GAS  C:\Users\JENNEW~1\AppData\Local\Temp\ccEqAB2L.s 			page 9


 236 0056 F4D8     		bhi	.L11
 214:app_statemachine.c ****     while (a != b)  { a = parent_of[a]; b = parent_of[b]; }
 237              		.loc 1 214 0 is_stmt 1
 238 0058 07E0     		b	.L12
 239              	.L13:
 240              		.loc 1 214 0 is_stmt 0 discriminator 2
 241 005a FB79     		ldrb	r3, [r7, #7]	@ zero_extendqisi2
 242 005c 074A     		ldr	r2, .L15
 243 005e D35C     		ldrb	r3, [r2, r3]
 244 0060 FB71     		strb	r3, [r7, #7]
 245 0062 BB79     		ldrb	r3, [r7, #6]	@ zero_extendqisi2
 246 0064 054A     		ldr	r2, .L15
 247 0066 D35C     		ldrb	r3, [r2, r3]
 248 0068 BB71     		strb	r3, [r7, #6]
 249              	.L12:
 250              		.loc 1 214 0 discriminator 1
 251 006a FA79     		ldrb	r2, [r7, #7]	@ zero_extendqisi2
 252 006c BB79     		ldrb	r3, [r7, #6]	@ zero_extendqisi2
 253 006e 9A42     		cmp	r2, r3
 254 0070 F3D1     		bne	.L13
 215:app_statemachine.c ****     return a;
 255              		.loc 1 215 0 is_stmt 1
 256 0072 FB79     		ldrb	r3, [r7, #7]	@ zero_extendqisi2
 216:app_statemachine.c **** }
 257              		.loc 1 216 0
 258 0074 1846     		mov	r0, r3
 259 0076 1037     		adds	r7, r7, #16
 260              		.cfi_def_cfa_offset 8
 261 0078 BD46     		mov	sp, r7
 262              		.cfi_def_cfa_register 13
 263              		@ sp needed
 264 007a 80BD     		pop	{r7, pc}
 265              	.L16:
 266              		.align	2
 267              	.L15:
 268 007c 00000000 		.word	parent_of
 269              		.cfi_endproc
 270              	.LFE65:
 271              		.size	lca, .-lca
 272              		.section	.text.transition,"ax",%progbits
 273              		.align	2
 274              		.thumb
 275              		.thumb_func
 276              		.type	transition, %function
 277              	transition:
 278              	.LFB66:
 217:app_statemachine.c **** 
 218:app_statemachine.c **** // Transition driver %========================================================%
 219:app_statemachine.c **** // Walk src up to LCA (running on_exit), then LCA down to target (running
 220:app_statemachine.c **** // on_entry). Self-transitions are a no-op. ROOT is the absorbing root, so
 221:app_statemachine.c **** // any pair has an LCA.
 222:app_statemachine.c **** 
 223:app_statemachine.c **** static void transition(app_ctx_t *ctx, state_t target)
 224:app_statemachine.c **** {
 279              		.loc 1 224 0
 280              		.cfi_startproc
 281              		@ args = 0, pretend = 0, frame = 24
ARM GAS  C:\Users\JENNEW~1\AppData\Local\Temp\ccEqAB2L.s 			page 10


 282              		@ frame_needed = 1, uses_anonymous_args = 0
 283 0000 80B5     		push	{r7, lr}
 284              		.cfi_def_cfa_offset 8
 285              		.cfi_offset 7, -8
 286              		.cfi_offset 14, -4
 287 0002 86B0     		sub	sp, sp, #24
 288              		.cfi_def_cfa_offset 32
 289 0004 00AF     		add	r7, sp, #0
 290              		.cfi_def_cfa_register 7
 291 0006 7860     		str	r0, [r7, #4]
 292 0008 0B46     		mov	r3, r1
 293 000a FB70     		strb	r3, [r7, #3]
 225:app_statemachine.c ****     // Self transition handle.
 226:app_statemachine.c ****     state_t src = ctx->state;
 294              		.loc 1 226 0
 295 000c 7B68     		ldr	r3, [r7, #4]
 296 000e 1B79     		ldrb	r3, [r3, #4]
 297 0010 3B75     		strb	r3, [r7, #20]
 227:app_statemachine.c ****     if (target == src) return;
 298              		.loc 1 227 0
 299 0012 FA78     		ldrb	r2, [r7, #3]	@ zero_extendqisi2
 300 0014 3B7D     		ldrb	r3, [r7, #20]	@ zero_extendqisi2
 301 0016 9A42     		cmp	r2, r3
 302 0018 5DD0     		beq	.L27
 228:app_statemachine.c ****     
 229:app_statemachine.c ****     // LCA walk.
 230:app_statemachine.c ****     state_t common = lca(src, target);
 303              		.loc 1 230 0
 304 001a FA78     		ldrb	r2, [r7, #3]	@ zero_extendqisi2
 305 001c 3B7D     		ldrb	r3, [r7, #20]	@ zero_extendqisi2
 306 001e 1146     		mov	r1, r2
 307 0020 1846     		mov	r0, r3
 308 0022 FFF7FEFF 		bl	lca
 309 0026 0346     		mov	r3, r0
 310 0028 FB74     		strb	r3, [r7, #19]
 311              	.LBB2:
 231:app_statemachine.c **** 
 232:app_statemachine.c ****     // Shared parents require no duplicate on_exit calls.
 233:app_statemachine.c ****     // Walk up path, running on_exit.
 234:app_statemachine.c ****     for (state_t s = src; s != common; s = parent_of[s]) {
 312              		.loc 1 234 0
 313 002a 3B7D     		ldrb	r3, [r7, #20]
 314 002c FB75     		strb	r3, [r7, #23]
 315 002e 0FE0     		b	.L20
 316              	.L22:
 235:app_statemachine.c ****         if (on_exit[s]) on_exit[s](ctx);
 317              		.loc 1 235 0
 318 0030 FB7D     		ldrb	r3, [r7, #23]	@ zero_extendqisi2
 319 0032 2B4A     		ldr	r2, .L28
 320 0034 52F82330 		ldr	r3, [r2, r3, lsl #2]
 321 0038 002B     		cmp	r3, #0
 322 003a 05D0     		beq	.L21
 323              		.loc 1 235 0 is_stmt 0 discriminator 1
 324 003c FB7D     		ldrb	r3, [r7, #23]	@ zero_extendqisi2
 325 003e 284A     		ldr	r2, .L28
 326 0040 52F82330 		ldr	r3, [r2, r3, lsl #2]
 327 0044 7868     		ldr	r0, [r7, #4]
ARM GAS  C:\Users\JENNEW~1\AppData\Local\Temp\ccEqAB2L.s 			page 11


 328 0046 9847     		blx	r3
 329              	.L21:
 234:app_statemachine.c ****         if (on_exit[s]) on_exit[s](ctx);
 330              		.loc 1 234 0 is_stmt 1 discriminator 2
 331 0048 FB7D     		ldrb	r3, [r7, #23]	@ zero_extendqisi2
 332 004a 264A     		ldr	r2, .L28+4
 333 004c D35C     		ldrb	r3, [r2, r3]
 334 004e FB75     		strb	r3, [r7, #23]
 335              	.L20:
 234:app_statemachine.c ****         if (on_exit[s]) on_exit[s](ctx);
 336              		.loc 1 234 0 is_stmt 0 discriminator 1
 337 0050 FA7D     		ldrb	r2, [r7, #23]	@ zero_extendqisi2
 338 0052 FB7C     		ldrb	r3, [r7, #19]	@ zero_extendqisi2
 339 0054 9A42     		cmp	r2, r3
 340 0056 EBD1     		bne	.L22
 341              	.LBE2:
 236:app_statemachine.c ****     }
 237:app_statemachine.c ****     
 238:app_statemachine.c ****     ctx->prev_leaf = src;  // Return to last state book-keeping.
 342              		.loc 1 238 0 is_stmt 1
 343 0058 7B68     		ldr	r3, [r7, #4]
 344 005a 3A7D     		ldrb	r2, [r7, #20]
 345 005c 5A71     		strb	r2, [r3, #5]
 239:app_statemachine.c **** 
 240:app_statemachine.c ****     // Walk down the path, running on_entry.
 241:app_statemachine.c ****     state_t path[MAX_HFSM_DEPTH];
 242:app_statemachine.c ****     uint8_t n = 0;
 346              		.loc 1 242 0
 347 005e 0023     		movs	r3, #0
 348 0060 BB75     		strb	r3, [r7, #22]
 349              	.LBB3:
 243:app_statemachine.c ****     for (state_t s = target; s != common; s = parent_of[s]) {
 350              		.loc 1 243 0
 351 0062 FB78     		ldrb	r3, [r7, #3]
 352 0064 7B75     		strb	r3, [r7, #21]
 353 0066 0CE0     		b	.L23
 354              	.L24:
 244:app_statemachine.c ****         path[n++] = s;
 355              		.loc 1 244 0 discriminator 3
 356 0068 BB7D     		ldrb	r3, [r7, #22]	@ zero_extendqisi2
 357 006a 5A1C     		adds	r2, r3, #1
 358 006c BA75     		strb	r2, [r7, #22]
 359 006e 07F11802 		add	r2, r7, #24
 360 0072 1344     		add	r3, r3, r2
 361 0074 7A7D     		ldrb	r2, [r7, #21]
 362 0076 03F80C2C 		strb	r2, [r3, #-12]
 243:app_statemachine.c ****     for (state_t s = target; s != common; s = parent_of[s]) {
 363              		.loc 1 243 0 discriminator 3
 364 007a 7B7D     		ldrb	r3, [r7, #21]	@ zero_extendqisi2
 365 007c 194A     		ldr	r2, .L28+4
 366 007e D35C     		ldrb	r3, [r2, r3]
 367 0080 7B75     		strb	r3, [r7, #21]
 368              	.L23:
 243:app_statemachine.c ****     for (state_t s = target; s != common; s = parent_of[s]) {
 369              		.loc 1 243 0 is_stmt 0 discriminator 1
 370 0082 7A7D     		ldrb	r2, [r7, #21]	@ zero_extendqisi2
 371 0084 FB7C     		ldrb	r3, [r7, #19]	@ zero_extendqisi2
ARM GAS  C:\Users\JENNEW~1\AppData\Local\Temp\ccEqAB2L.s 			page 12


 372 0086 9A42     		cmp	r2, r3
 373 0088 EED1     		bne	.L24
 374              	.LBE3:
 245:app_statemachine.c ****     }
 246:app_statemachine.c ****     while (n--) {
 375              		.loc 1 246 0 is_stmt 1
 376 008a 17E0     		b	.L25
 377              	.L26:
 247:app_statemachine.c ****         if (on_entry[path[n]]) on_entry[path[n]](ctx);
 378              		.loc 1 247 0
 379 008c BB7D     		ldrb	r3, [r7, #22]	@ zero_extendqisi2
 380 008e 07F11802 		add	r2, r7, #24
 381 0092 1344     		add	r3, r3, r2
 382 0094 13F80C3C 		ldrb	r3, [r3, #-12]	@ zero_extendqisi2
 383 0098 1A46     		mov	r2, r3
 384 009a 134B     		ldr	r3, .L28+8
 385 009c 53F82230 		ldr	r3, [r3, r2, lsl #2]
 386 00a0 002B     		cmp	r3, #0
 387 00a2 0BD0     		beq	.L25
 388              		.loc 1 247 0 is_stmt 0 discriminator 1
 389 00a4 BB7D     		ldrb	r3, [r7, #22]	@ zero_extendqisi2
 390 00a6 07F11802 		add	r2, r7, #24
 391 00aa 1344     		add	r3, r3, r2
 392 00ac 13F80C3C 		ldrb	r3, [r3, #-12]	@ zero_extendqisi2
 393 00b0 1A46     		mov	r2, r3
 394 00b2 0D4B     		ldr	r3, .L28+8
 395 00b4 53F82230 		ldr	r3, [r3, r2, lsl #2]
 396 00b8 7868     		ldr	r0, [r7, #4]
 397 00ba 9847     		blx	r3
 398              	.L25:
 246:app_statemachine.c ****         if (on_entry[path[n]]) on_entry[path[n]](ctx);
 399              		.loc 1 246 0 is_stmt 1
 400 00bc BB7D     		ldrb	r3, [r7, #22]	@ zero_extendqisi2
 401 00be 5A1E     		subs	r2, r3, #1
 402 00c0 BA75     		strb	r2, [r7, #22]
 403 00c2 002B     		cmp	r3, #0
 404 00c4 E2D1     		bne	.L26
 248:app_statemachine.c ****     }
 249:app_statemachine.c ****     
 250:app_statemachine.c ****     // Store new state.
 251:app_statemachine.c ****     ctx->state          = target;
 405              		.loc 1 251 0
 406 00c6 7B68     		ldr	r3, [r7, #4]
 407 00c8 FA78     		ldrb	r2, [r7, #3]
 408 00ca 1A71     		strb	r2, [r3, #4]
 252:app_statemachine.c ****     ctx->state_entry_ms = g_tick_ms;
 409              		.loc 1 252 0
 410 00cc 074B     		ldr	r3, .L28+12
 411 00ce 1A68     		ldr	r2, [r3]
 412 00d0 7B68     		ldr	r3, [r7, #4]
 413 00d2 1A66     		str	r2, [r3, #96]
 414 00d4 00E0     		b	.L17
 415              	.L27:
 227:app_statemachine.c ****     
 416              		.loc 1 227 0
 417 00d6 00BF     		nop
 418              	.L17:
ARM GAS  C:\Users\JENNEW~1\AppData\Local\Temp\ccEqAB2L.s 			page 13


 253:app_statemachine.c **** }
 419              		.loc 1 253 0
 420 00d8 1837     		adds	r7, r7, #24
 421              		.cfi_def_cfa_offset 8
 422 00da BD46     		mov	sp, r7
 423              		.cfi_def_cfa_register 13
 424              		@ sp needed
 425 00dc 80BD     		pop	{r7, pc}
 426              	.L29:
 427 00de 00BF     		.align	2
 428              	.L28:
 429 00e0 4C000000 		.word	on_exit
 430 00e4 00000000 		.word	parent_of
 431 00e8 10000000 		.word	on_entry
 432 00ec 00000000 		.word	g_tick_ms
 433              		.cfi_endproc
 434              	.LFE66:
 435              		.size	transition, .-transition
 436              		.section	.text.app_start,"ax",%progbits
 437              		.align	2
 438              		.global	app_start
 439              		.thumb
 440              		.thumb_func
 441              		.type	app_start, %function
 442              	app_start:
 443              	.LFB67:
 254:app_statemachine.c **** 
 255:app_statemachine.c **** // On boot.
 256:app_statemachine.c **** void app_start(app_ctx_t *ctx)
 257:app_statemachine.c **** {
 444              		.loc 1 257 0
 445              		.cfi_startproc
 446              		@ args = 0, pretend = 0, frame = 16
 447              		@ frame_needed = 1, uses_anonymous_args = 0
 448 0000 80B5     		push	{r7, lr}
 449              		.cfi_def_cfa_offset 8
 450              		.cfi_offset 7, -8
 451              		.cfi_offset 14, -4
 452 0002 84B0     		sub	sp, sp, #16
 453              		.cfi_def_cfa_offset 24
 454 0004 00AF     		add	r7, sp, #0
 455              		.cfi_def_cfa_register 7
 456 0006 7860     		str	r0, [r7, #4]
 258:app_statemachine.c ****     // Walk entry conditions from ROOT to the init state,
 259:app_statemachine.c ****     state_t target = ctx->state;
 457              		.loc 1 259 0
 458 0008 7B68     		ldr	r3, [r7, #4]
 459 000a 1B79     		ldrb	r3, [r3, #4]
 460 000c FB73     		strb	r3, [r7, #15]
 260:app_statemachine.c ****     ctx->state = ROOT;
 461              		.loc 1 260 0
 462 000e 7B68     		ldr	r3, [r7, #4]
 463 0010 0022     		movs	r2, #0
 464 0012 1A71     		strb	r2, [r3, #4]
 261:app_statemachine.c ****     transition(ctx, target);
 465              		.loc 1 261 0
 466 0014 FB7B     		ldrb	r3, [r7, #15]	@ zero_extendqisi2
ARM GAS  C:\Users\JENNEW~1\AppData\Local\Temp\ccEqAB2L.s 			page 14


 467 0016 1946     		mov	r1, r3
 468 0018 7868     		ldr	r0, [r7, #4]
 469 001a FFF7FEFF 		bl	transition
 262:app_statemachine.c **** }
 470              		.loc 1 262 0
 471 001e 00BF     		nop
 472 0020 1037     		adds	r7, r7, #16
 473              		.cfi_def_cfa_offset 8
 474 0022 BD46     		mov	sp, r7
 475              		.cfi_def_cfa_register 13
 476              		@ sp needed
 477 0024 80BD     		pop	{r7, pc}
 478              		.cfi_endproc
 479              	.LFE67:
 480              		.size	app_start, .-app_start
 481 0026 00BF     		.section	.rodata
 482              		.align	2
 483              	.LC0:
 484 0100 5B555345 		.ascii	"[USER] \000"
 484      525D2000 
 485              		.align	2
 486              	.LC1:
 487 0108 0D0A00   		.ascii	"\015\012\000"
 488              		.section	.text.app_raise_error,"ax",%progbits
 489              		.align	2
 490              		.global	app_raise_error
 491              		.thumb
 492              		.thumb_func
 493              		.type	app_raise_error, %function
 494              	app_raise_error:
 495              	.LFB68:
 263:app_statemachine.c **** 
 264:app_statemachine.c **** // On error: Handles severity.
 265:app_statemachine.c **** void app_raise_error(app_ctx_t *ctx, err_sev_t sev, const char *msg)
 266:app_statemachine.c **** {
 496              		.loc 1 266 0
 497              		.cfi_startproc
 498              		@ args = 0, pretend = 0, frame = 16
 499              		@ frame_needed = 1, uses_anonymous_args = 0
 500 0000 80B5     		push	{r7, lr}
 501              		.cfi_def_cfa_offset 8
 502              		.cfi_offset 7, -8
 503              		.cfi_offset 14, -4
 504 0002 84B0     		sub	sp, sp, #16
 505              		.cfi_def_cfa_offset 24
 506 0004 00AF     		add	r7, sp, #0
 507              		.cfi_def_cfa_register 7
 508 0006 F860     		str	r0, [r7, #12]
 509 0008 0B46     		mov	r3, r1
 510 000a 7A60     		str	r2, [r7, #4]
 511 000c FB72     		strb	r3, [r7, #11]
 267:app_statemachine.c ****     // User error: Invalid request, do not change and notify user.
 268:app_statemachine.c ****     if (sev == SEV_USER) {
 512              		.loc 1 268 0
 513 000e FB7A     		ldrb	r3, [r7, #11]	@ zero_extendqisi2
 514 0010 002B     		cmp	r3, #0
 515 0012 09D1     		bne	.L32
ARM GAS  C:\Users\JENNEW~1\AppData\Local\Temp\ccEqAB2L.s 			page 15


 269:app_statemachine.c ****         UART_DEBUG_PutString("[USER] ");
 516              		.loc 1 269 0
 517 0014 1248     		ldr	r0, .L37
 518 0016 FFF7FEFF 		bl	UART_DEBUG_PutString
 270:app_statemachine.c ****         UART_DEBUG_PutString(msg);
 519              		.loc 1 270 0
 520 001a 7868     		ldr	r0, [r7, #4]
 521 001c FFF7FEFF 		bl	UART_DEBUG_PutString
 271:app_statemachine.c ****         UART_DEBUG_PutString("\r\n");
 522              		.loc 1 271 0
 523 0020 1048     		ldr	r0, .L37+4
 524 0022 FFF7FEFF 		bl	UART_DEBUG_PutString
 272:app_statemachine.c ****         return;
 525              		.loc 1 272 0
 526 0026 18E0     		b	.L31
 527              	.L32:
 273:app_statemachine.c ****     }
 274:app_statemachine.c ****     
 275:app_statemachine.c ****     // Fatal error flag.
 276:app_statemachine.c ****     if (ctx->fatal_latched && sev != SEV_FATAL) return;
 528              		.loc 1 276 0
 529 0028 FB68     		ldr	r3, [r7, #12]
 530 002a 1B7B     		ldrb	r3, [r3, #12]	@ zero_extendqisi2
 531 002c 002B     		cmp	r3, #0
 532 002e 02D0     		beq	.L34
 533              		.loc 1 276 0 is_stmt 0 discriminator 1
 534 0030 FB7A     		ldrb	r3, [r7, #11]	@ zero_extendqisi2
 535 0032 032B     		cmp	r3, #3
 536 0034 10D1     		bne	.L36
 537              	.L34:
 277:app_statemachine.c ****     
 278:app_statemachine.c ****     ctx->err_sev = sev;
 538              		.loc 1 278 0 is_stmt 1
 539 0036 FB68     		ldr	r3, [r7, #12]
 540 0038 FA7A     		ldrb	r2, [r7, #11]
 541 003a 9A71     		strb	r2, [r3, #6]
 279:app_statemachine.c ****     ctx->err_msg = msg;
 542              		.loc 1 279 0
 543 003c FB68     		ldr	r3, [r7, #12]
 544 003e 7A68     		ldr	r2, [r7, #4]
 545 0040 9A60     		str	r2, [r3, #8]
 280:app_statemachine.c ****     if (sev == SEV_FATAL) ctx->fatal_latched = 1u;
 546              		.loc 1 280 0
 547 0042 FB7A     		ldrb	r3, [r7, #11]	@ zero_extendqisi2
 548 0044 032B     		cmp	r3, #3
 549 0046 02D1     		bne	.L35
 550              		.loc 1 280 0 is_stmt 0 discriminator 1
 551 0048 FB68     		ldr	r3, [r7, #12]
 552 004a 0122     		movs	r2, #1
 553 004c 1A73     		strb	r2, [r3, #12]
 554              	.L35:
 281:app_statemachine.c ****     
 282:app_statemachine.c ****     transition(ctx, ERROR_ACTIVE);  // Go to error state.
 555              		.loc 1 282 0 is_stmt 1
 556 004e 0E21     		movs	r1, #14
 557 0050 F868     		ldr	r0, [r7, #12]
 558 0052 FFF7FEFF 		bl	transition
ARM GAS  C:\Users\JENNEW~1\AppData\Local\Temp\ccEqAB2L.s 			page 16


 559 0056 00E0     		b	.L31
 560              	.L36:
 276:app_statemachine.c ****     
 561              		.loc 1 276 0
 562 0058 00BF     		nop
 563              	.L31:
 283:app_statemachine.c **** }
 564              		.loc 1 283 0
 565 005a 1037     		adds	r7, r7, #16
 566              		.cfi_def_cfa_offset 8
 567 005c BD46     		mov	sp, r7
 568              		.cfi_def_cfa_register 13
 569              		@ sp needed
 570 005e 80BD     		pop	{r7, pc}
 571              	.L38:
 572              		.align	2
 573              	.L37:
 574 0060 00010000 		.word	.LC0
 575 0064 08010000 		.word	.LC1
 576              		.cfi_endproc
 577              	.LFE68:
 578              		.size	app_raise_error, .-app_raise_error
 579              		.section	.rodata
 580 010b 00       		.align	2
 581              	.LC2:
 582 010c 524F4F54 		.ascii	"ROOT\000"
 582      00
 583 0111 000000   		.align	2
 584              	.LC3:
 585 0114 53544259 		.ascii	"STBY\000"
 585      00
 586 0119 000000   		.align	2
 587              	.LC4:
 588 011c 4D414E55 		.ascii	"MANU\000"
 588      00
 589 0121 000000   		.align	2
 590              	.LC5:
 591 0124 4155544F 		.ascii	"AUTO\000"
 591      00
 592 0129 000000   		.align	2
 593              	.LC6:
 594 012c 4552524F 		.ascii	"ERROR\000"
 594      5200
 595 0132 0000     		.align	2
 596              	.LC7:
 597 0134 53544259 		.ascii	"STBY_DEFER\000"
 597      5F444546 
 597      455200
 598 013f 00       		.align	2
 599              	.LC8:
 600 0140 53544259 		.ascii	"STBY_HOLD\000"
 600      5F484F4C 
 600      4400
 601 014a 0000     		.align	2
 602              	.LC9:
 603 014c 4D414E55 		.ascii	"MANU_JOYSTICK\000"
 603      5F4A4F59 
ARM GAS  C:\Users\JENNEW~1\AppData\Local\Temp\ccEqAB2L.s 			page 17


 603      53544943 
 603      4B00
 604 015a 0000     		.align	2
 605              	.LC10:
 606 015c 4155544F 		.ascii	"AUTO_HOME\000"
 606      5F484F4D 
 606      4500
 607 0166 0000     		.align	2
 608              	.LC11:
 609 0168 4155544F 		.ascii	"AUTO_ACQ_GPS\000"
 609      5F414351 
 609      5F475053 
 609      00
 610 0175 000000   		.align	2
 611              	.LC12:
 612 0178 4155544F 		.ascii	"AUTO_ACQ_SPIRAL\000"
 612      5F414351 
 612      5F535049 
 612      52414C00 
 613              		.align	2
 614              	.LC13:
 615 0188 4155544F 		.ascii	"AUTO_TRACKING\000"
 615      5F545241 
 615      434B494E 
 615      4700
 616 0196 0000     		.align	2
 617              	.LC14:
 618 0198 4155544F 		.ascii	"AUTO_LOSS\000"
 618      5F4C4F53 
 618      5300
 619 01a2 0000     		.align	2
 620              	.LC15:
 621 01a4 4155544F 		.ascii	"AUTO_NO_LOCK\000"
 621      5F4E4F5F 
 621      4C4F434B 
 621      00
 622 01b1 000000   		.align	2
 623              	.LC16:
 624 01b4 4552524F 		.ascii	"ERROR_ACTIVE\000"
 624      525F4143 
 624      54495645 
 624      00
 625 01c1 000000   		.align	2
 626              		.type	state_names, %object
 627              		.size	state_names, 60
 628              	state_names:
 629 01c4 0C010000 		.word	.LC2
 630 01c8 14010000 		.word	.LC3
 631 01cc 1C010000 		.word	.LC4
 632 01d0 24010000 		.word	.LC5
 633 01d4 2C010000 		.word	.LC6
 634 01d8 34010000 		.word	.LC7
 635 01dc 40010000 		.word	.LC8
 636 01e0 4C010000 		.word	.LC9
 637 01e4 5C010000 		.word	.LC10
 638 01e8 68010000 		.word	.LC11
 639 01ec 78010000 		.word	.LC12
ARM GAS  C:\Users\JENNEW~1\AppData\Local\Temp\ccEqAB2L.s 			page 18


 640 01f0 88010000 		.word	.LC13
 641 01f4 98010000 		.word	.LC14
 642 01f8 A4010000 		.word	.LC15
 643 01fc B4010000 		.word	.LC16
 644              		.section	.text.app_state_name,"ax",%progbits
 645              		.align	2
 646              		.global	app_state_name
 647              		.thumb
 648              		.thumb_func
 649              		.type	app_state_name, %function
 650              	app_state_name:
 651              	.LFB69:
 284:app_statemachine.c **** 
 285:app_statemachine.c **** // Lookup table for state names, used by serial monitor.
 286:app_statemachine.c **** static const char *const state_names[STATE_COUNT] = {
 287:app_statemachine.c ****     [ROOT] = "ROOT",
 288:app_statemachine.c ****     [STBY] = "STBY", [MANU] = "MANU", [AUTO] = "AUTO", [ERROR] = "ERROR",
 289:app_statemachine.c ****     [STBY_DEFER]      = "STBY_DEFER",
 290:app_statemachine.c ****     [STBY_HOLD]       = "STBY_HOLD",
 291:app_statemachine.c ****     [MANU_JOYSTICK]   = "MANU_JOYSTICK",
 292:app_statemachine.c ****     [AUTO_HOME]       = "AUTO_HOME",
 293:app_statemachine.c ****     [AUTO_ACQ_GPS]    = "AUTO_ACQ_GPS",
 294:app_statemachine.c ****     [AUTO_ACQ_SPIRAL] = "AUTO_ACQ_SPIRAL",
 295:app_statemachine.c ****     [AUTO_TRACKING]   = "AUTO_TRACKING",
 296:app_statemachine.c ****     [AUTO_LOSS]       = "AUTO_LOSS",
 297:app_statemachine.c ****     [AUTO_NO_LOCK]    = "AUTO_NO_LOCK",
 298:app_statemachine.c ****     [ERROR_ACTIVE]    = "ERROR_ACTIVE",
 299:app_statemachine.c **** };
 300:app_statemachine.c **** 
 301:app_statemachine.c **** // Helper for serial monitor.
 302:app_statemachine.c **** const char *app_state_name(state_t s) { return state_names[s]; }
 652              		.loc 1 302 0
 653              		.cfi_startproc
 654              		@ args = 0, pretend = 0, frame = 8
 655              		@ frame_needed = 1, uses_anonymous_args = 0
 656              		@ link register save eliminated.
 657 0000 80B4     		push	{r7}
 658              		.cfi_def_cfa_offset 4
 659              		.cfi_offset 7, -4
 660 0002 83B0     		sub	sp, sp, #12
 661              		.cfi_def_cfa_offset 16
 662 0004 00AF     		add	r7, sp, #0
 663              		.cfi_def_cfa_register 7
 664 0006 0346     		mov	r3, r0
 665 0008 FB71     		strb	r3, [r7, #7]
 666              		.loc 1 302 0
 667 000a FB79     		ldrb	r3, [r7, #7]	@ zero_extendqisi2
 668 000c 034A     		ldr	r2, .L41
 669 000e 52F82330 		ldr	r3, [r2, r3, lsl #2]
 670 0012 1846     		mov	r0, r3
 671 0014 0C37     		adds	r7, r7, #12
 672              		.cfi_def_cfa_offset 4
 673 0016 BD46     		mov	sp, r7
 674              		.cfi_def_cfa_register 13
 675              		@ sp needed
 676 0018 80BC     		pop	{r7}
 677              		.cfi_restore 7
ARM GAS  C:\Users\JENNEW~1\AppData\Local\Temp\ccEqAB2L.s 			page 19


 678              		.cfi_def_cfa_offset 0
 679 001a 7047     		bx	lr
 680              	.L42:
 681              		.align	2
 682              	.L41:
 683 001c C4010000 		.word	state_names
 684              		.cfi_endproc
 685              	.LFE69:
 686              		.size	app_state_name, .-app_state_name
 687              		.section	.text.app_telem_tick,"ax",%progbits
 688              		.align	2
 689              		.global	app_telem_tick
 690              		.thumb
 691              		.thumb_func
 692              		.type	app_telem_tick, %function
 693              	app_telem_tick:
 694              	.LFB70:
 303:app_statemachine.c **** 
 304:app_statemachine.c **** // Telemetry %===============================================================%
 305:app_statemachine.c **** void app_telem_tick(app_ctx_t *ctx)
 306:app_statemachine.c **** {
 695              		.loc 1 306 0
 696              		.cfi_startproc
 697              		@ args = 0, pretend = 0, frame = 8
 698              		@ frame_needed = 1, uses_anonymous_args = 0
 699 0000 80B5     		push	{r7, lr}
 700              		.cfi_def_cfa_offset 8
 701              		.cfi_offset 7, -8
 702              		.cfi_offset 14, -4
 703 0002 82B0     		sub	sp, sp, #8
 704              		.cfi_def_cfa_offset 16
 705 0004 00AF     		add	r7, sp, #0
 706              		.cfi_def_cfa_register 7
 707 0006 7860     		str	r0, [r7, #4]
 307:app_statemachine.c ****     // Do the telemetry grabs if gimble connected
 308:app_statemachine.c ****     if (!ctx->gimbal) return;
 708              		.loc 1 308 0
 709 0008 7B68     		ldr	r3, [r7, #4]
 710 000a 1B68     		ldr	r3, [r3]
 711 000c 002B     		cmp	r3, #0
 712 000e 2DD0     		beq	.L47
 309:app_statemachine.c **** 
 310:app_statemachine.c ****     static uint32_t last_hot_ms  = 0u;  // Hot is the Movi status
 311:app_statemachine.c ****     static uint32_t last_link_ms = 0u;  // Cold are all other sensors
 312:app_statemachine.c ****     if (g_tick_ms - last_hot_ms  >= CONTROL_PERIOD_MS) {  //  10 Hz
 713              		.loc 1 312 0
 714 0010 184B     		ldr	r3, .L48
 715 0012 1A68     		ldr	r2, [r3]
 716 0014 184B     		ldr	r3, .L48+4
 717 0016 1B68     		ldr	r3, [r3]
 718 0018 D31A     		subs	r3, r2, r3
 719 001a C72B     		cmp	r3, #199
 720 001c 06D9     		bls	.L46
 313:app_statemachine.c ****         last_hot_ms = g_tick_ms;
 721              		.loc 1 313 0
 722 001e 154B     		ldr	r3, .L48
 723 0020 1B68     		ldr	r3, [r3]
ARM GAS  C:\Users\JENNEW~1\AppData\Local\Temp\ccEqAB2L.s 			page 20


 724 0022 154A     		ldr	r2, .L48+4
 725 0024 1360     		str	r3, [r2]
 314:app_statemachine.c ****         telemetry_send_hot_sbc(ctx);
 726              		.loc 1 314 0
 727 0026 7868     		ldr	r0, [r7, #4]
 728 0028 FFF7FEFF 		bl	telemetry_send_hot_sbc
 729              	.L46:
 315:app_statemachine.c ****     }
 316:app_statemachine.c ****     if (g_tick_ms - last_link_ms >= DIAG_PERIOD_MS) {     //  1 Hz
 730              		.loc 1 316 0
 731 002c 114B     		ldr	r3, .L48
 732 002e 1A68     		ldr	r2, [r3]
 733 0030 124B     		ldr	r3, .L48+8
 734 0032 1B68     		ldr	r3, [r3]
 735 0034 D31A     		subs	r3, r2, r3
 736 0036 41F28732 		movw	r2, #4999
 737 003a 9342     		cmp	r3, r2
 738 003c 17D9     		bls	.L43
 317:app_statemachine.c ****         last_link_ms = g_tick_ms;
 739              		.loc 1 317 0
 740 003e 0D4B     		ldr	r3, .L48
 741 0040 1B68     		ldr	r3, [r3]
 742 0042 0E4A     		ldr	r2, .L48+8
 743 0044 1360     		str	r3, [r2]
 318:app_statemachine.c ****         telemetry_send_link_sbc(ctx);
 744              		.loc 1 318 0
 745 0046 7868     		ldr	r0, [r7, #4]
 746 0048 FFF7FEFF 		bl	telemetry_send_link_sbc
 319:app_statemachine.c ****         telemetry_send_power_sbc(ctx);
 747              		.loc 1 319 0
 748 004c 7868     		ldr	r0, [r7, #4]
 749 004e FFF7FEFF 		bl	telemetry_send_power_sbc
 320:app_statemachine.c ****         telemetry_send_env_sbc(ctx);
 750              		.loc 1 320 0
 751 0052 7868     		ldr	r0, [r7, #4]
 752 0054 FFF7FEFF 		bl	telemetry_send_env_sbc
 321:app_statemachine.c ****         telemetry_send_gps_sbc(ctx);
 753              		.loc 1 321 0
 754 0058 7868     		ldr	r0, [r7, #4]
 755 005a FFF7FEFF 		bl	telemetry_send_gps_sbc
 322:app_statemachine.c ****         telemetry_send_baro_sbc(ctx);
 756              		.loc 1 322 0
 757 005e 7868     		ldr	r0, [r7, #4]
 758 0060 FFF7FEFF 		bl	telemetry_send_baro_sbc
 323:app_statemachine.c ****         telemetry_send_mag_sbc(ctx);
 759              		.loc 1 323 0
 760 0064 7868     		ldr	r0, [r7, #4]
 761 0066 FFF7FEFF 		bl	telemetry_send_mag_sbc
 762 006a 00E0     		b	.L43
 763              	.L47:
 308:app_statemachine.c **** 
 764              		.loc 1 308 0
 765 006c 00BF     		nop
 766              	.L43:
 324:app_statemachine.c ****     }
 325:app_statemachine.c **** }
 767              		.loc 1 325 0
ARM GAS  C:\Users\JENNEW~1\AppData\Local\Temp\ccEqAB2L.s 			page 21


 768 006e 0837     		adds	r7, r7, #8
 769              		.cfi_def_cfa_offset 8
 770 0070 BD46     		mov	sp, r7
 771              		.cfi_def_cfa_register 13
 772              		@ sp needed
 773 0072 80BD     		pop	{r7, pc}
 774              	.L49:
 775              		.align	2
 776              	.L48:
 777 0074 00000000 		.word	g_tick_ms
 778 0078 00000000 		.word	last_hot_ms.8191
 779 007c 04000000 		.word	last_link_ms.8192
 780              		.cfi_endproc
 781              	.LFE70:
 782              		.size	app_telem_tick, .-app_telem_tick
 783              		.section	.rodata
 784              		.align	2
 785              	.LC17:
 786 0200 0D0A5B53 		.ascii	"\015\012[STBY_DEFER] '1' hold, '2' manual, '3' auto"
 786      5442595F 
 786      44454645 
 786      525D2027 
 786      31272068 
 787 022d 2C20273F 		.ascii	", '?' help\015\012> \000"
 787      27206865 
 787      6C700D0A 
 787      3E2000
 788              		.section	.text.entry_stby_defer,"ax",%progbits
 789              		.align	2
 790              		.thumb
 791              		.thumb_func
 792              		.type	entry_stby_defer, %function
 793              	entry_stby_defer:
 794              	.LFB71:
 326:app_statemachine.c **** 
 327:app_statemachine.c **** // %==========================================================================%
 328:app_statemachine.c **** // %                               Standby                                    %
 329:app_statemachine.c **** // %==========================================================================%
 330:app_statemachine.c **** 
 331:app_statemachine.c **** // STBY_DEFER %===============================================================%
 332:app_statemachine.c **** // On Enter: Print message, wait for user input.
 333:app_statemachine.c **** static void entry_stby_defer(app_ctx_t *ctx)
 334:app_statemachine.c **** {
 795              		.loc 1 334 0
 796              		.cfi_startproc
 797              		@ args = 0, pretend = 0, frame = 8
 798              		@ frame_needed = 1, uses_anonymous_args = 0
 799 0000 80B5     		push	{r7, lr}
 800              		.cfi_def_cfa_offset 8
 801              		.cfi_offset 7, -8
 802              		.cfi_offset 14, -4
 803 0002 82B0     		sub	sp, sp, #8
 804              		.cfi_def_cfa_offset 16
 805 0004 00AF     		add	r7, sp, #0
 806              		.cfi_def_cfa_register 7
 807 0006 7860     		str	r0, [r7, #4]
 335:app_statemachine.c ****     (void)ctx;
ARM GAS  C:\Users\JENNEW~1\AppData\Local\Temp\ccEqAB2L.s 			page 22


 336:app_statemachine.c ****     UART_DEBUG_PutString("\r\n[STBY_DEFER] '1' hold, '2' manual, '3' auto, '?' help\r\n> ");
 808              		.loc 1 336 0
 809 0008 0348     		ldr	r0, .L51
 810 000a FFF7FEFF 		bl	UART_DEBUG_PutString
 337:app_statemachine.c **** }
 811              		.loc 1 337 0
 812 000e 00BF     		nop
 813 0010 0837     		adds	r7, r7, #8
 814              		.cfi_def_cfa_offset 8
 815 0012 BD46     		mov	sp, r7
 816              		.cfi_def_cfa_register 13
 817              		@ sp needed
 818 0014 80BD     		pop	{r7, pc}
 819              	.L52:
 820 0016 00BF     		.align	2
 821              	.L51:
 822 0018 00020000 		.word	.LC17
 823              		.cfi_endproc
 824              	.LFE71:
 825              		.size	entry_stby_defer, .-entry_stby_defer
 826              		.section	.rodata
 827              		.align	2
 828              	.LC18:
 829 023c 0D0A5B53 		.ascii	"\015\012[STBY_HOLD] rates zeroed\015\012> \000"
 829      5442595F 
 829      484F4C44 
 829      5D207261 
 829      74657320 
 830              		.section	.text.entry_stby_hold,"ax",%progbits
 831              		.align	2
 832              		.thumb
 833              		.thumb_func
 834              		.type	entry_stby_hold, %function
 835              	entry_stby_hold:
 836              	.LFB72:
 338:app_statemachine.c **** // On Exit: None
 339:app_statemachine.c **** 
 340:app_statemachine.c **** 
 341:app_statemachine.c **** // STBY_HOLD %================================================================%
 342:app_statemachine.c **** // On Enter
 343:app_statemachine.c **** static void entry_stby_hold(app_ctx_t *ctx)
 344:app_statemachine.c **** {
 837              		.loc 1 344 0
 838              		.cfi_startproc
 839              		@ args = 0, pretend = 0, frame = 8
 840              		@ frame_needed = 1, uses_anonymous_args = 0
 841 0000 80B5     		push	{r7, lr}
 842              		.cfi_def_cfa_offset 8
 843              		.cfi_offset 7, -8
 844              		.cfi_offset 14, -4
 845 0002 82B0     		sub	sp, sp, #8
 846              		.cfi_def_cfa_offset 16
 847 0004 00AF     		add	r7, sp, #0
 848              		.cfi_def_cfa_register 7
 849 0006 7860     		str	r0, [r7, #4]
 345:app_statemachine.c ****     (void)ctx;
 346:app_statemachine.c ****     UART_DEBUG_PutString("\r\n[STBY_HOLD] rates zeroed\r\n> ");
ARM GAS  C:\Users\JENNEW~1\AppData\Local\Temp\ccEqAB2L.s 			page 23


 850              		.loc 1 346 0
 851 0008 0348     		ldr	r0, .L54
 852 000a FFF7FEFF 		bl	UART_DEBUG_PutString
 347:app_statemachine.c **** }
 853              		.loc 1 347 0
 854 000e 00BF     		nop
 855 0010 0837     		adds	r7, r7, #8
 856              		.cfi_def_cfa_offset 8
 857 0012 BD46     		mov	sp, r7
 858              		.cfi_def_cfa_register 13
 859              		@ sp needed
 860 0014 80BD     		pop	{r7, pc}
 861              	.L55:
 862 0016 00BF     		.align	2
 863              	.L54:
 864 0018 3C020000 		.word	.LC18
 865              		.cfi_endproc
 866              	.LFE72:
 867              		.size	entry_stby_hold, .-entry_stby_hold
 868              		.section	.rodata
 869 025b 00       		.align	2
 870              	.LC19:
 871 025c 0D0A5B4D 		.ascii	"\015\012[MANU] joystick=rate  nudge: numpad=fine  i"
 871      414E555D 
 871      206A6F79 
 871      73746963 
 871      6B3D7261 
 872 0289 6A6B6C3D 		.ascii	"jkl=0.5  wasd=1  e=exit\015\012> \000"
 872      302E3520 
 872      20776173 
 872      643D3120 
 872      20653D65 
 873              		.section	.text.entry_manu_joystick,"ax",%progbits
 874              		.align	2
 875              		.thumb
 876              		.thumb_func
 877              		.type	entry_manu_joystick, %function
 878              	entry_manu_joystick:
 879              	.LFB73:
 348:app_statemachine.c **** // On Exit: None
 349:app_statemachine.c **** 
 350:app_statemachine.c **** 
 351:app_statemachine.c **** // %==========================================================================%
 352:app_statemachine.c **** // %                                Manual                                    %
 353:app_statemachine.c **** // %==========================================================================%
 354:app_statemachine.c **** 
 355:app_statemachine.c **** // MANU_JOYSTICK %============================================================%
 356:app_statemachine.c **** // On Enter: Enable joystick, print message.
 357:app_statemachine.c **** static void entry_manu_joystick(app_ctx_t *ctx)
 358:app_statemachine.c **** {
 880              		.loc 1 358 0
 881              		.cfi_startproc
 882              		@ args = 0, pretend = 0, frame = 8
 883              		@ frame_needed = 1, uses_anonymous_args = 0
 884 0000 80B5     		push	{r7, lr}
 885              		.cfi_def_cfa_offset 8
 886              		.cfi_offset 7, -8
ARM GAS  C:\Users\JENNEW~1\AppData\Local\Temp\ccEqAB2L.s 			page 24


 887              		.cfi_offset 14, -4
 888 0002 82B0     		sub	sp, sp, #8
 889              		.cfi_def_cfa_offset 16
 890 0004 00AF     		add	r7, sp, #0
 891              		.cfi_def_cfa_register 7
 892 0006 7860     		str	r0, [r7, #4]
 359:app_statemachine.c ****     // Rate default
 360:app_statemachine.c ****     ctx->ctrl_mode = HAMFLY_RATE;
 893              		.loc 1 360 0
 894 0008 7B68     		ldr	r3, [r7, #4]
 895 000a 0122     		movs	r2, #1
 896 000c 5A73     		strb	r2, [r3, #13]
 361:app_statemachine.c ****      UART_DEBUG_PutString("\r\n[MANU] joystick=rate  nudge: numpad=fine  ijkl=0.5  wasd=1  e=exit\r
 897              		.loc 1 361 0
 898 000e 0348     		ldr	r0, .L57
 899 0010 FFF7FEFF 		bl	UART_DEBUG_PutString
 362:app_statemachine.c **** }
 900              		.loc 1 362 0
 901 0014 00BF     		nop
 902 0016 0837     		adds	r7, r7, #8
 903              		.cfi_def_cfa_offset 8
 904 0018 BD46     		mov	sp, r7
 905              		.cfi_def_cfa_register 13
 906              		@ sp needed
 907 001a 80BD     		pop	{r7, pc}
 908              	.L58:
 909              		.align	2
 910              	.L57:
 911 001c 5C020000 		.word	.LC19
 912              		.cfi_endproc
 913              	.LFE73:
 914              		.size	entry_manu_joystick, .-entry_manu_joystick
 915              		.section	.text.exit_manu_joystick,"ax",%progbits
 916              		.align	2
 917              		.thumb
 918              		.thumb_func
 919              		.type	exit_manu_joystick, %function
 920              	exit_manu_joystick:
 921              	.LFB74:
 363:app_statemachine.c **** // On Exit: Disable joystick, zero control mode.
 364:app_statemachine.c **** static void exit_manu_joystick(app_ctx_t *ctx)
 365:app_statemachine.c **** {
 922              		.loc 1 365 0
 923              		.cfi_startproc
 924              		@ args = 0, pretend = 0, frame = 8
 925              		@ frame_needed = 1, uses_anonymous_args = 0
 926              		@ link register save eliminated.
 927 0000 80B4     		push	{r7}
 928              		.cfi_def_cfa_offset 4
 929              		.cfi_offset 7, -4
 930 0002 83B0     		sub	sp, sp, #12
 931              		.cfi_def_cfa_offset 16
 932 0004 00AF     		add	r7, sp, #0
 933              		.cfi_def_cfa_register 7
 934 0006 7860     		str	r0, [r7, #4]
 366:app_statemachine.c ****     ctx->ctrl_mode = HAMFLY_DEFER;
 935              		.loc 1 366 0
ARM GAS  C:\Users\JENNEW~1\AppData\Local\Temp\ccEqAB2L.s 			page 25


 936 0008 7B68     		ldr	r3, [r7, #4]
 937 000a 0022     		movs	r2, #0
 938 000c 5A73     		strb	r2, [r3, #13]
 367:app_statemachine.c **** }
 939              		.loc 1 367 0
 940 000e 00BF     		nop
 941 0010 0C37     		adds	r7, r7, #12
 942              		.cfi_def_cfa_offset 4
 943 0012 BD46     		mov	sp, r7
 944              		.cfi_def_cfa_register 13
 945              		@ sp needed
 946 0014 80BC     		pop	{r7}
 947              		.cfi_restore 7
 948              		.cfi_def_cfa_offset 0
 949 0016 7047     		bx	lr
 950              		.cfi_endproc
 951              	.LFE74:
 952              		.size	exit_manu_joystick, .-exit_manu_joystick
 953              		.section	.rodata
 954 02a5 000000   		.align	2
 955              	.LC20:
 956 02a8 0D0A5B41 		.ascii	"\015\012[AUTO] listening for centroid frames from P"
 956      55544F5D 
 956      206C6973 
 956      74656E69 
 956      6E672066 
 957 02d5 690D0A00 		.ascii	"i\015\012\000"
 958              		.section	.text.entry_auto_test,"ax",%progbits
 959              		.align	2
 960              		.thumb
 961              		.thumb_func
 962              		.type	entry_auto_test, %function
 963              	entry_auto_test:
 964              	.LFB75:
 368:app_statemachine.c **** 
 369:app_statemachine.c **** // %==========================================================================%
 370:app_statemachine.c **** // %                                 Auto                                     %
 371:app_statemachine.c **** // %==========================================================================%
 372:app_statemachine.c **** // AUTO_TRACKING placeholder: prints centroid frames received from the Pi.
 373:app_statemachine.c **** static void entry_auto_test(app_ctx_t *ctx)
 374:app_statemachine.c **** {
 965              		.loc 1 374 0
 966              		.cfi_startproc
 967              		@ args = 0, pretend = 0, frame = 8
 968              		@ frame_needed = 1, uses_anonymous_args = 0
 969 0000 80B5     		push	{r7, lr}
 970              		.cfi_def_cfa_offset 8
 971              		.cfi_offset 7, -8
 972              		.cfi_offset 14, -4
 973 0002 82B0     		sub	sp, sp, #8
 974              		.cfi_def_cfa_offset 16
 975 0004 00AF     		add	r7, sp, #0
 976              		.cfi_def_cfa_register 7
 977 0006 7860     		str	r0, [r7, #4]
 375:app_statemachine.c ****     (void)ctx;
 376:app_statemachine.c ****     UART_DEBUG_PutString("\r\n[AUTO] listening for centroid frames from Pi\r\n");
 978              		.loc 1 376 0
ARM GAS  C:\Users\JENNEW~1\AppData\Local\Temp\ccEqAB2L.s 			page 26


 979 0008 0348     		ldr	r0, .L61
 980 000a FFF7FEFF 		bl	UART_DEBUG_PutString
 377:app_statemachine.c **** }
 981              		.loc 1 377 0
 982 000e 00BF     		nop
 983 0010 0837     		adds	r7, r7, #8
 984              		.cfi_def_cfa_offset 8
 985 0012 BD46     		mov	sp, r7
 986              		.cfi_def_cfa_register 13
 987              		@ sp needed
 988 0014 80BD     		pop	{r7, pc}
 989              	.L62:
 990 0016 00BF     		.align	2
 991              	.L61:
 992 0018 A8020000 		.word	.LC20
 993              		.cfi_endproc
 994              	.LFE75:
 995              		.size	entry_auto_test, .-entry_auto_test
 996              		.global	__aeabi_fsub
 997              		.global	__aeabi_fcmplt
 998              		.section	.rodata
 999 02d9 000000   		.align	2
 1000              	.LC21:
 1001 02dc 5B415554 		.ascii	"[AUTO_HOME] arrived -> STBY_HOLD\015\012\000"
 1001      4F5F484F 
 1001      4D455D20 
 1001      61727269 
 1001      76656420 
 1002 02ff 00       		.align	2
 1003              	.LC22:
 1004 0300 5B534243 		.ascii	"[SBC:%s] cx=%d cy=%d dt=%u rx=%lu crcErr=%u uartErr"
 1004      3A25735D 
 1004      2063783D 
 1004      25642063 
 1004      793D2564 
 1005 0333 3D25750D 		.ascii	"=%u\015\012\000"
 1005      0A00
 1006              		.section	.text.app_auto_tick,"ax",%progbits
 1007              		.align	2
 1008              		.global	app_auto_tick
 1009              		.thumb
 1010              		.thumb_func
 1011              		.type	app_auto_tick, %function
 1012              	app_auto_tick:
 1013              	.LFB76:
 378:app_statemachine.c **** 
 379:app_statemachine.c **** // Auto has sub-modes: HOME, GPS, SPIRAL, TRACKING, LOSS, NO LOCK
 380:app_statemachine.c **** void app_auto_tick(app_ctx_t *ctx)
 381:app_statemachine.c **** {
 1014              		.loc 1 381 0
 1015              		.cfi_startproc
 1016              		@ args = 0, pretend = 0, frame = 176
 1017              		@ frame_needed = 1, uses_anonymous_args = 0
 1018 0000 F0B5     		push	{r4, r5, r6, r7, lr}
 1019              		.cfi_def_cfa_offset 20
 1020              		.cfi_offset 4, -20
 1021              		.cfi_offset 5, -16
ARM GAS  C:\Users\JENNEW~1\AppData\Local\Temp\ccEqAB2L.s 			page 27


 1022              		.cfi_offset 6, -12
 1023              		.cfi_offset 7, -8
 1024              		.cfi_offset 14, -4
 1025 0002 B3B0     		sub	sp, sp, #204
 1026              		.cfi_def_cfa_offset 224
 1027 0004 06AF     		add	r7, sp, #24
 1028              		.cfi_def_cfa 7, 200
 1029 0006 F860     		str	r0, [r7, #12]
 382:app_statemachine.c ****     // %--- AUTO_HOME: settle then drop to STBY_HOLD ------------------------%
 383:app_statemachine.c ****     if (ctx->state == AUTO_HOME && ctx->nudge_hold) {
 1030              		.loc 1 383 0
 1031 0008 FB68     		ldr	r3, [r7, #12]
 1032 000a 1B79     		ldrb	r3, [r3, #4]	@ zero_extendqisi2
 1033 000c 082B     		cmp	r3, #8
 1034 000e 5BD1     		bne	.L64
 1035              		.loc 1 383 0 is_stmt 0 discriminator 1
 1036 0010 FB68     		ldr	r3, [r7, #12]
 1037 0012 93F87830 		ldrb	r3, [r3, #120]	@ zero_extendqisi2
 1038 0016 002B     		cmp	r3, #0
 1039 0018 56D0     		beq	.L64
 1040              	.LBB4:
 384:app_statemachine.c ****         uint32_t elapsed = g_tick_ms - ctx->nudge_start_ms;
 1041              		.loc 1 384 0 is_stmt 1
 1042 001a 6B4B     		ldr	r3, .L85
 1043 001c 1A68     		ldr	r2, [r3]
 1044 001e FB68     		ldr	r3, [r7, #12]
 1045 0020 DB6F     		ldr	r3, [r3, #124]
 1046 0022 D31A     		subs	r3, r2, r3
 1047 0024 C7F8A830 		str	r3, [r7, #168]
 385:app_statemachine.c ****         if (elapsed >= NUDGE_MIN_DWELL_MS) {
 1048              		.loc 1 385 0
 1049 0028 D7F8A830 		ldr	r3, [r7, #168]
 1050 002c 952B     		cmp	r3, #149
 1051 002e 40F2C680 		bls	.L83
 1052              	.LBB5:
 386:app_statemachine.c ****             float p, t; uint8_t arrived = 0u;
 1053              		.loc 1 386 0
 1054 0032 0023     		movs	r3, #0
 1055 0034 87F8AF30 		strb	r3, [r7, #175]
 387:app_statemachine.c ****             if (manu_pan_tilt_deg(ctx, &p, &t))
 1056              		.loc 1 387 0
 1057 0038 07F1A002 		add	r2, r7, #160
 1058 003c 07F1A403 		add	r3, r7, #164
 1059 0040 1946     		mov	r1, r3
 1060 0042 F868     		ldr	r0, [r7, #12]
 1061 0044 FFF7FEFF 		bl	manu_pan_tilt_deg
 1062 0048 0346     		mov	r3, r0
 1063 004a 002B     		cmp	r3, #0
 1064 004c 2AD0     		beq	.L66
 388:app_statemachine.c ****                 arrived = (fabsf(p - ctx->tgt_pan_deg)  < NUDGE_SETTLE_DEG) &&
 1065              		.loc 1 388 0
 1066 004e D7F8A420 		ldr	r2, [r7, #164]	@ float
 1067 0052 FB68     		ldr	r3, [r7, #12]
 1068 0054 D3F88830 		ldr	r3, [r3, #136]	@ float
 1069 0058 1946     		mov	r1, r3
 1070 005a 1046     		mov	r0, r2
 1071 005c FFF7FEFF 		bl	__aeabi_fsub
ARM GAS  C:\Users\JENNEW~1\AppData\Local\Temp\ccEqAB2L.s 			page 28


 1072 0060 0346     		mov	r3, r0
 1073 0062 23F00043 		bic	r3, r3, #-2147483648
 1074 0066 5949     		ldr	r1, .L85+4
 1075 0068 1846     		mov	r0, r3
 1076 006a FFF7FEFF 		bl	__aeabi_fcmplt
 1077 006e 0346     		mov	r3, r0
 1078 0070 002B     		cmp	r3, #0
 1079 0072 14D0     		beq	.L67
 389:app_statemachine.c ****                           (fabsf(t - ctx->tgt_tilt_deg) < NUDGE_SETTLE_DEG);
 1080              		.loc 1 389 0 discriminator 1
 1081 0074 D7F8A020 		ldr	r2, [r7, #160]	@ float
 1082 0078 FB68     		ldr	r3, [r7, #12]
 1083 007a D3F88C30 		ldr	r3, [r3, #140]	@ float
 1084 007e 1946     		mov	r1, r3
 1085 0080 1046     		mov	r0, r2
 1086 0082 FFF7FEFF 		bl	__aeabi_fsub
 1087 0086 0346     		mov	r3, r0
 1088 0088 23F00043 		bic	r3, r3, #-2147483648
 388:app_statemachine.c ****                 arrived = (fabsf(p - ctx->tgt_pan_deg)  < NUDGE_SETTLE_DEG) &&
 1089              		.loc 1 388 0 discriminator 1
 1090 008c 4F49     		ldr	r1, .L85+4
 1091 008e 1846     		mov	r0, r3
 1092 0090 FFF7FEFF 		bl	__aeabi_fcmplt
 1093 0094 0346     		mov	r3, r0
 1094 0096 002B     		cmp	r3, #0
 1095 0098 01D0     		beq	.L67
 388:app_statemachine.c ****                 arrived = (fabsf(p - ctx->tgt_pan_deg)  < NUDGE_SETTLE_DEG) &&
 1096              		.loc 1 388 0 is_stmt 0 discriminator 3
 1097 009a 0123     		movs	r3, #1
 1098 009c 00E0     		b	.L70
 1099              	.L67:
 388:app_statemachine.c ****                 arrived = (fabsf(p - ctx->tgt_pan_deg)  < NUDGE_SETTLE_DEG) &&
 1100              		.loc 1 388 0 discriminator 4
 1101 009e 0023     		movs	r3, #0
 1102              	.L70:
 388:app_statemachine.c ****                 arrived = (fabsf(p - ctx->tgt_pan_deg)  < NUDGE_SETTLE_DEG) &&
 1103              		.loc 1 388 0 discriminator 6
 1104 00a0 87F8AF30 		strb	r3, [r7, #175]
 1105              	.L66:
 390:app_statemachine.c ****             if (arrived || elapsed >= NUDGE_TIMEOUT_MS) {
 1106              		.loc 1 390 0 is_stmt 1
 1107 00a4 97F8AF30 		ldrb	r3, [r7, #175]	@ zero_extendqisi2
 1108 00a8 002B     		cmp	r3, #0
 1109 00aa 05D1     		bne	.L71
 1110              		.loc 1 390 0 is_stmt 0 discriminator 1
 1111 00ac D7F8A830 		ldr	r3, [r7, #168]
 1112 00b0 B3F5FA6F 		cmp	r3, #2000
 1113 00b4 C0F08380 		bcc	.L83
 1114              	.L71:
 391:app_statemachine.c ****                 UART_DEBUG_PutString("[AUTO_HOME] arrived -> STBY_HOLD\r\n");
 1115              		.loc 1 391 0 is_stmt 1
 1116 00b8 4548     		ldr	r0, .L85+8
 1117 00ba FFF7FEFF 		bl	UART_DEBUG_PutString
 392:app_statemachine.c ****                 transition(ctx, STBY_HOLD);  // -> STBY_HOLD
 1118              		.loc 1 392 0
 1119 00be 0621     		movs	r1, #6
 1120 00c0 F868     		ldr	r0, [r7, #12]
ARM GAS  C:\Users\JENNEW~1\AppData\Local\Temp\ccEqAB2L.s 			page 29


 1121 00c2 FFF7FEFF 		bl	transition
 1122              	.LBE5:
 393:app_statemachine.c ****             }
 394:app_statemachine.c ****         }
 395:app_statemachine.c ****         return;
 1123              		.loc 1 395 0
 1124 00c6 7AE0     		b	.L83
 1125              	.L64:
 1126              	.LBE4:
 396:app_statemachine.c ****     }
 397:app_statemachine.c **** 
 398:app_statemachine.c ****     // %--- AUTO_ACQ_GPS: re-point at 1 Hz, settle check every loop ---------%
 399:app_statemachine.c ****     // TODO: GPS should go to the set coordinate and settle and stay there,
 400:app_statemachine.c ****     // waiting for centroid packets to arrive for N seconds (0 means wait forever).
 401:app_statemachine.c ****     // If no lock in N seconds, spiral, if lock go to tracking.
 402:app_statemachine.c ****     if (ctx->state == AUTO_ACQ_GPS) {
 1127              		.loc 1 402 0
 1128 00c8 FB68     		ldr	r3, [r7, #12]
 1129 00ca 1B79     		ldrb	r3, [r3, #4]	@ zero_extendqisi2
 1130 00cc 092B     		cmp	r3, #9
 1131 00ce 18D1     		bne	.L74
 1132              	.LBB6:
 403:app_statemachine.c ****         static uint32_t last_pt_ms = 0u;
 404:app_statemachine.c ****         if (g_tick_ms - last_pt_ms >= DIAG_PERIOD_MS) {
 1133              		.loc 1 404 0
 1134 00d0 3D4B     		ldr	r3, .L85
 1135 00d2 1A68     		ldr	r2, [r3]
 1136 00d4 3F4B     		ldr	r3, .L85+12
 1137 00d6 1B68     		ldr	r3, [r3]
 1138 00d8 D31A     		subs	r3, r2, r3
 1139 00da 41F28732 		movw	r2, #4999
 1140 00de 9342     		cmp	r3, r2
 1141 00e0 0BD9     		bls	.L75
 405:app_statemachine.c ****             last_pt_ms = g_tick_ms;
 1142              		.loc 1 405 0
 1143 00e2 394B     		ldr	r3, .L85
 1144 00e4 1B68     		ldr	r3, [r3]
 1145 00e6 3B4A     		ldr	r2, .L85+12
 1146 00e8 1360     		str	r3, [r2]
 406:app_statemachine.c ****             if (ctx->gps_target_set) gps_update_pointing(ctx);
 1147              		.loc 1 406 0
 1148 00ea FB68     		ldr	r3, [r7, #12]
 1149 00ec 93F82430 		ldrb	r3, [r3, #36]	@ zero_extendqisi2
 1150 00f0 002B     		cmp	r3, #0
 1151 00f2 02D0     		beq	.L75
 1152              		.loc 1 406 0 is_stmt 0 discriminator 1
 1153 00f4 F868     		ldr	r0, [r7, #12]
 1154 00f6 FFF7FEFF 		bl	gps_update_pointing
 1155              	.L75:
 407:app_statemachine.c ****         }
 408:app_statemachine.c ****         gps_check_settle(ctx);   // self-throttled to GPS_SETTLE_PERIOD_MS
 1156              		.loc 1 408 0 is_stmt 1
 1157 00fa F868     		ldr	r0, [r7, #12]
 1158 00fc FFF7FEFF 		bl	gps_check_settle
 409:app_statemachine.c ****         return;
 1159              		.loc 1 409 0
 1160 0100 5EE0     		b	.L63
ARM GAS  C:\Users\JENNEW~1\AppData\Local\Temp\ccEqAB2L.s 			page 30


 1161              	.L74:
 1162              	.LBE6:
 410:app_statemachine.c ****     }
 411:app_statemachine.c **** 
 412:app_statemachine.c ****     // %--- AUTO_TRACKING: pull freshest centroid into P-control state ------%
 413:app_statemachine.c ****     if (ctx->state == AUTO_TRACKING) {
 1163              		.loc 1 413 0
 1164 0102 FB68     		ldr	r3, [r7, #12]
 1165 0104 1B79     		ldrb	r3, [r3, #4]	@ zero_extendqisi2
 1166 0106 0B2B     		cmp	r3, #11
 1167 0108 5AD1     		bne	.L63
 1168              	.LBB7:
 1169              	.LBB8:
 414:app_statemachine.c ****         static const char *tag[STREAM_COUNTS] = { "C", "F" };
 415:app_statemachine.c ****         for (uint8_t s = 0u; s < STREAM_COUNTS; s++) {
 1170              		.loc 1 415 0
 1171 010a 0023     		movs	r3, #0
 1172 010c 87F8AE30 		strb	r3, [r7, #174]
 1173 0110 50E0     		b	.L76
 1174              	.L80:
 1175              	.LBB9:
 416:app_statemachine.c ****             payload_centroid_t c;
 417:app_statemachine.c ****             if (!sbc_get_centroid(s, &c)) continue;
 1176              		.loc 1 417 0
 1177 0112 07F19402 		add	r2, r7, #148
 1178 0116 97F8AE30 		ldrb	r3, [r7, #174]	@ zero_extendqisi2
 1179 011a 1146     		mov	r1, r2
 1180 011c 1846     		mov	r0, r3
 1181 011e FFF7FEFF 		bl	sbc_get_centroid
 1182 0122 0346     		mov	r3, r0
 1183 0124 002B     		cmp	r3, #0
 1184 0126 3FD0     		beq	.L84
 418:app_statemachine.c ****             if (s == STREAM_COARSE) {  // Save coarse tracking centroids
 1185              		.loc 1 418 0
 1186 0128 97F8AE30 		ldrb	r3, [r7, #174]	@ zero_extendqisi2
 1187 012c 002B     		cmp	r3, #0
 1188 012e 09D1     		bne	.L79
 419:app_statemachine.c ****                 ctx->track_cx_last = c.cx;
 1189              		.loc 1 419 0
 1190 0130 B7F99820 		ldrsh	r2, [r7, #152]
 1191 0134 FB68     		ldr	r3, [r7, #12]
 1192 0136 A3F84820 		strh	r2, [r3, #72]	@ movhi
 420:app_statemachine.c ****                 ctx->track_cy_last = c.cy;
 1193              		.loc 1 420 0
 1194 013a B7F99A20 		ldrsh	r2, [r7, #154]
 1195 013e FB68     		ldr	r3, [r7, #12]
 1196 0140 A3F84A20 		strh	r2, [r3, #74]	@ movhi
 1197              	.L79:
 421:app_statemachine.c ****             }
 422:app_statemachine.c ****             char b[128];
 423:app_statemachine.c ****             snprintf(b, sizeof b,
 1198              		.loc 1 423 0
 1199 0144 97F8AE30 		ldrb	r3, [r7, #174]	@ zero_extendqisi2
 1200 0148 234A     		ldr	r2, .L85+16
 1201 014a 52F82340 		ldr	r4, [r2, r3, lsl #2]
 424:app_statemachine.c ****                      "[SBC:%s] cx=%d cy=%d dt=%u rx=%lu crcErr=%u uartErr=%u\r\n",
 425:app_statemachine.c ****                      tag[s], c.cx, c.cy,
ARM GAS  C:\Users\JENNEW~1\AppData\Local\Temp\ccEqAB2L.s 			page 31


 1202              		.loc 1 425 0
 1203 014e B7F99830 		ldrsh	r3, [r7, #152]
 423:app_statemachine.c ****                      "[SBC:%s] cx=%d cy=%d dt=%u rx=%lu crcErr=%u uartErr=%u\r\n",
 1204              		.loc 1 423 0
 1205 0152 1D46     		mov	r5, r3
 1206              		.loc 1 425 0
 1207 0154 B7F99A30 		ldrsh	r3, [r7, #154]
 423:app_statemachine.c ****                      "[SBC:%s] cx=%d cy=%d dt=%u rx=%lu crcErr=%u uartErr=%u\r\n",
 1208              		.loc 1 423 0
 1209 0158 1E46     		mov	r6, r3
 426:app_statemachine.c ****                      sbc_last_centroid_dt_ms(s),
 1210              		.loc 1 426 0
 1211 015a 97F8AE30 		ldrb	r3, [r7, #174]	@ zero_extendqisi2
 1212 015e 1846     		mov	r0, r3
 1213 0160 FFF7FEFF 		bl	sbc_last_centroid_dt_ms
 1214 0164 0346     		mov	r3, r0
 423:app_statemachine.c ****                      "[SBC:%s] cx=%d cy=%d dt=%u rx=%lu crcErr=%u uartErr=%u\r\n",
 1215              		.loc 1 423 0
 1216 0166 BB60     		str	r3, [r7, #8]
 427:app_statemachine.c ****                      (unsigned long)sbc_rx_pkt_count(),
 1217              		.loc 1 427 0
 1218 0168 FFF7FEFF 		bl	sbc_rx_pkt_count
 1219 016c 7860     		str	r0, [r7, #4]
 428:app_statemachine.c ****                      sbc_crc_errors(), sbc_uart_errors());
 1220              		.loc 1 428 0
 1221 016e FFF7FEFF 		bl	sbc_crc_errors
 1222 0172 0346     		mov	r3, r0
 423:app_statemachine.c ****                      "[SBC:%s] cx=%d cy=%d dt=%u rx=%lu crcErr=%u uartErr=%u\r\n",
 1223              		.loc 1 423 0
 1224 0174 3B60     		str	r3, [r7]
 1225              		.loc 1 428 0
 1226 0176 FFF7FEFF 		bl	sbc_uart_errors
 1227 017a 0346     		mov	r3, r0
 423:app_statemachine.c ****                      "[SBC:%s] cx=%d cy=%d dt=%u rx=%lu crcErr=%u uartErr=%u\r\n",
 1228              		.loc 1 423 0
 1229 017c 07F11400 		add	r0, r7, #20
 1230 0180 0593     		str	r3, [sp, #20]
 1231 0182 3A68     		ldr	r2, [r7]
 1232 0184 0492     		str	r2, [sp, #16]
 1233 0186 7A68     		ldr	r2, [r7, #4]
 1234 0188 0392     		str	r2, [sp, #12]
 1235 018a BB68     		ldr	r3, [r7, #8]
 1236 018c 0293     		str	r3, [sp, #8]
 1237 018e 0196     		str	r6, [sp, #4]
 1238 0190 0095     		str	r5, [sp]
 1239 0192 2346     		mov	r3, r4
 1240 0194 114A     		ldr	r2, .L85+20
 1241 0196 8021     		movs	r1, #128
 1242 0198 FFF7FEFF 		bl	snprintf
 429:app_statemachine.c ****             UART_DEBUG_PutString(b);
 1243              		.loc 1 429 0
 1244 019c 07F11403 		add	r3, r7, #20
 1245 01a0 1846     		mov	r0, r3
 1246 01a2 FFF7FEFF 		bl	UART_DEBUG_PutString
 1247 01a6 00E0     		b	.L78
 1248              	.L84:
 417:app_statemachine.c ****             if (s == STREAM_COARSE) {  // Save coarse tracking centroids
ARM GAS  C:\Users\JENNEW~1\AppData\Local\Temp\ccEqAB2L.s 			page 32


 1249              		.loc 1 417 0
 1250 01a8 00BF     		nop
 1251              	.L78:
 1252              	.LBE9:
 415:app_statemachine.c ****             payload_centroid_t c;
 1253              		.loc 1 415 0 discriminator 2
 1254 01aa 97F8AE30 		ldrb	r3, [r7, #174]	@ zero_extendqisi2
 1255 01ae 0133     		adds	r3, r3, #1
 1256 01b0 87F8AE30 		strb	r3, [r7, #174]
 1257              	.L76:
 415:app_statemachine.c ****             payload_centroid_t c;
 1258              		.loc 1 415 0 is_stmt 0 discriminator 1
 1259 01b4 97F8AE30 		ldrb	r3, [r7, #174]	@ zero_extendqisi2
 1260 01b8 012B     		cmp	r3, #1
 1261 01ba AAD9     		bls	.L80
 1262 01bc 00E0     		b	.L63
 1263              	.L83:
 1264              	.LBE8:
 1265              	.LBE7:
 1266              	.LBB10:
 395:app_statemachine.c ****     }
 1267              		.loc 1 395 0 is_stmt 1
 1268 01be 00BF     		nop
 1269              	.L63:
 1270              	.LBE10:
 430:app_statemachine.c ****         }
 431:app_statemachine.c ****     }
 432:app_statemachine.c **** }
 1271              		.loc 1 432 0
 1272 01c0 B437     		adds	r7, r7, #180
 1273              		.cfi_def_cfa_offset 20
 1274 01c2 BD46     		mov	sp, r7
 1275              		.cfi_def_cfa_register 13
 1276              		@ sp needed
 1277 01c4 F0BD     		pop	{r4, r5, r6, r7, pc}
 1278              	.L86:
 1279 01c6 00BF     		.align	2
 1280              	.L85:
 1281 01c8 00000000 		.word	g_tick_ms
 1282 01cc CDCC4C3D 		.word	1028443341
 1283 01d0 DC020000 		.word	.LC21
 1284 01d4 08000000 		.word	last_pt_ms.8215
 1285 01d8 00000000 		.word	tag.8216
 1286 01dc 00030000 		.word	.LC22
 1287              		.cfi_endproc
 1288              	.LFE76:
 1289              		.size	app_auto_tick, .-app_auto_tick
 1290              		.section	.rodata
 1291 0339 000000   		.align	2
 1292              	.LC23:
 1293 033c 0D0A5B41 		.ascii	"\015\012[AUTO_HOME] slewing to origin  e=exit\015\012"
 1293      55544F5F 
 1293      484F4D45 
 1293      5D20736C 
 1293      6577696E 
 1294 0365 3E2000   		.ascii	"> \000"
 1295              		.align	2
ARM GAS  C:\Users\JENNEW~1\AppData\Local\Temp\ccEqAB2L.s 			page 33


 1296              	.LC24:
 1297 0368 6E6F206F 		.ascii	"no origin set (press '[' first)\000"
 1297      72696769 
 1297      6E207365 
 1297      74202870 
 1297      72657373 
 1298              		.align	2
 1299              	.LC25:
 1300 0388 6E6F2074 		.ascii	"no telemetry (home aborted)\000"
 1300      656C656D 
 1300      65747279 
 1300      2028686F 
 1300      6D652061 
 1301              		.section	.text.entry_auto_home,"ax",%progbits
 1302              		.align	2
 1303              		.thumb
 1304              		.thumb_func
 1305              		.type	entry_auto_home, %function
 1306              	entry_auto_home:
 1307              	.LFB77:
 433:app_statemachine.c **** 
 434:app_statemachine.c **** // AUTO_HOME %================================================================%
 435:app_statemachine.c **** static void entry_auto_home(app_ctx_t *ctx)
 436:app_statemachine.c **** {
 1308              		.loc 1 436 0
 1309              		.cfi_startproc
 1310              		@ args = 0, pretend = 0, frame = 16
 1311              		@ frame_needed = 1, uses_anonymous_args = 0
 1312 0000 80B5     		push	{r7, lr}
 1313              		.cfi_def_cfa_offset 8
 1314              		.cfi_offset 7, -8
 1315              		.cfi_offset 14, -4
 1316 0002 84B0     		sub	sp, sp, #16
 1317              		.cfi_def_cfa_offset 24
 1318 0004 00AF     		add	r7, sp, #0
 1319              		.cfi_def_cfa_register 7
 1320 0006 7860     		str	r0, [r7, #4]
 437:app_statemachine.c ****     UART_DEBUG_PutString("\r\n[AUTO_HOME] slewing to origin  e=exit\r\n> ");
 1321              		.loc 1 437 0
 1322 0008 2148     		ldr	r0, .L92
 1323 000a FFF7FEFF 		bl	UART_DEBUG_PutString
 438:app_statemachine.c ****     if (!ctx->origin_set) {
 1324              		.loc 1 438 0
 1325 000e 7B68     		ldr	r3, [r7, #4]
 1326 0010 93F85430 		ldrb	r3, [r3, #84]	@ zero_extendqisi2
 1327 0014 002B     		cmp	r3, #0
 1328 0016 09D1     		bne	.L88
 439:app_statemachine.c ****         app_raise_error(ctx, SEV_USER, "no origin set (press '[' first)");
 1329              		.loc 1 439 0
 1330 0018 1E4A     		ldr	r2, .L92+4
 1331 001a 0021     		movs	r1, #0
 1332 001c 7868     		ldr	r0, [r7, #4]
 1333 001e FFF7FEFF 		bl	app_raise_error
 440:app_statemachine.c ****         transition(ctx, STBY_HOLD);
 1334              		.loc 1 440 0
 1335 0022 0621     		movs	r1, #6
 1336 0024 7868     		ldr	r0, [r7, #4]
ARM GAS  C:\Users\JENNEW~1\AppData\Local\Temp\ccEqAB2L.s 			page 34


 1337 0026 FFF7FEFF 		bl	transition
 441:app_statemachine.c ****         return;
 1338              		.loc 1 441 0
 1339 002a 2EE0     		b	.L87
 1340              	.L88:
 442:app_statemachine.c ****     }
 443:app_statemachine.c ****     float pan, tilt;
 444:app_statemachine.c ****     if (!manu_pan_tilt_deg(ctx, &pan, &tilt)) {
 1341              		.loc 1 444 0
 1342 002c 07F10802 		add	r2, r7, #8
 1343 0030 07F10C03 		add	r3, r7, #12
 1344 0034 1946     		mov	r1, r3
 1345 0036 7868     		ldr	r0, [r7, #4]
 1346 0038 FFF7FEFF 		bl	manu_pan_tilt_deg
 1347 003c 0346     		mov	r3, r0
 1348 003e 002B     		cmp	r3, #0
 1349 0040 09D1     		bne	.L90
 445:app_statemachine.c ****         app_raise_error(ctx, SEV_USER, "no telemetry (home aborted)");
 1350              		.loc 1 445 0
 1351 0042 154A     		ldr	r2, .L92+8
 1352 0044 0021     		movs	r1, #0
 1353 0046 7868     		ldr	r0, [r7, #4]
 1354 0048 FFF7FEFF 		bl	app_raise_error
 446:app_statemachine.c ****         transition(ctx, STBY_HOLD);
 1355              		.loc 1 446 0
 1356 004c 0621     		movs	r1, #6
 1357 004e 7868     		ldr	r0, [r7, #4]
 1358 0050 FFF7FEFF 		bl	transition
 447:app_statemachine.c ****         return;
 1359              		.loc 1 447 0
 1360 0054 19E0     		b	.L87
 1361              	.L90:
 448:app_statemachine.c ****     }
 449:app_statemachine.c ****     ctx->nudge_base_pan_deg  = pan;
 1362              		.loc 1 449 0
 1363 0056 FA68     		ldr	r2, [r7, #12]	@ float
 1364 0058 7B68     		ldr	r3, [r7, #4]
 1365 005a C3F88020 		str	r2, [r3, #128]	@ float
 450:app_statemachine.c ****     ctx->nudge_base_tilt_deg = tilt;
 1366              		.loc 1 450 0
 1367 005e BA68     		ldr	r2, [r7, #8]	@ float
 1368 0060 7B68     		ldr	r3, [r7, #4]
 1369 0062 C3F88420 		str	r2, [r3, #132]	@ float
 451:app_statemachine.c ****     ctx->tgt_pan_deg         = ctx->origin_pan_deg;
 1370              		.loc 1 451 0
 1371 0066 7B68     		ldr	r3, [r7, #4]
 1372 0068 DA6C     		ldr	r2, [r3, #76]	@ float
 1373 006a 7B68     		ldr	r3, [r7, #4]
 1374 006c C3F88820 		str	r2, [r3, #136]	@ float
 452:app_statemachine.c ****     ctx->tgt_tilt_deg        = ctx->origin_tilt_deg;
 1375              		.loc 1 452 0
 1376 0070 7B68     		ldr	r3, [r7, #4]
 1377 0072 1A6D     		ldr	r2, [r3, #80]	@ float
 1378 0074 7B68     		ldr	r3, [r7, #4]
 1379 0076 C3F88C20 		str	r2, [r3, #140]	@ float
 453:app_statemachine.c ****     ctx->nudge_hold          = 1u;
 1380              		.loc 1 453 0
ARM GAS  C:\Users\JENNEW~1\AppData\Local\Temp\ccEqAB2L.s 			page 35


 1381 007a 7B68     		ldr	r3, [r7, #4]
 1382 007c 0122     		movs	r2, #1
 1383 007e 83F87820 		strb	r2, [r3, #120]
 454:app_statemachine.c ****     ctx->nudge_start_ms      = g_tick_ms;
 1384              		.loc 1 454 0
 1385 0082 064B     		ldr	r3, .L92+12
 1386 0084 1A68     		ldr	r2, [r3]
 1387 0086 7B68     		ldr	r3, [r7, #4]
 1388 0088 DA67     		str	r2, [r3, #124]
 1389              	.L87:
 455:app_statemachine.c **** }
 1390              		.loc 1 455 0
 1391 008a 1037     		adds	r7, r7, #16
 1392              		.cfi_def_cfa_offset 8
 1393 008c BD46     		mov	sp, r7
 1394              		.cfi_def_cfa_register 13
 1395              		@ sp needed
 1396 008e 80BD     		pop	{r7, pc}
 1397              	.L93:
 1398              		.align	2
 1399              	.L92:
 1400 0090 3C030000 		.word	.LC23
 1401 0094 68030000 		.word	.LC24
 1402 0098 88030000 		.word	.LC25
 1403 009c 00000000 		.word	g_tick_ms
 1404              		.cfi_endproc
 1405              	.LFE77:
 1406              		.size	entry_auto_home, .-entry_auto_home
 1407              		.section	.text.exit_auto_home,"ax",%progbits
 1408              		.align	2
 1409              		.thumb
 1410              		.thumb_func
 1411              		.type	exit_auto_home, %function
 1412              	exit_auto_home:
 1413              	.LFB78:
 456:app_statemachine.c **** static void exit_auto_home(app_ctx_t *ctx) { ctx->nudge_hold = 0u; }
 1414              		.loc 1 456 0
 1415              		.cfi_startproc
 1416              		@ args = 0, pretend = 0, frame = 8
 1417              		@ frame_needed = 1, uses_anonymous_args = 0
 1418              		@ link register save eliminated.
 1419 0000 80B4     		push	{r7}
 1420              		.cfi_def_cfa_offset 4
 1421              		.cfi_offset 7, -4
 1422 0002 83B0     		sub	sp, sp, #12
 1423              		.cfi_def_cfa_offset 16
 1424 0004 00AF     		add	r7, sp, #0
 1425              		.cfi_def_cfa_register 7
 1426 0006 7860     		str	r0, [r7, #4]
 1427              		.loc 1 456 0
 1428 0008 7B68     		ldr	r3, [r7, #4]
 1429 000a 0022     		movs	r2, #0
 1430 000c 83F87820 		strb	r2, [r3, #120]
 1431 0010 00BF     		nop
 1432 0012 0C37     		adds	r7, r7, #12
 1433              		.cfi_def_cfa_offset 4
 1434 0014 BD46     		mov	sp, r7
ARM GAS  C:\Users\JENNEW~1\AppData\Local\Temp\ccEqAB2L.s 			page 36


 1435              		.cfi_def_cfa_register 13
 1436              		@ sp needed
 1437 0016 80BC     		pop	{r7}
 1438              		.cfi_restore 7
 1439              		.cfi_def_cfa_offset 0
 1440 0018 7047     		bx	lr
 1441              		.cfi_endproc
 1442              	.LFE78:
 1443              		.size	exit_auto_home, .-exit_auto_home
 1444 001a 00BF     		.section	.text.key_auto_home,"ax",%progbits
 1445              		.align	2
 1446              		.thumb
 1447              		.thumb_func
 1448              		.type	key_auto_home, %function
 1449              	key_auto_home:
 1450              	.LFB79:
 457:app_statemachine.c **** 
 458:app_statemachine.c **** static uint8_t key_auto_home(app_ctx_t *ctx, char k)
 459:app_statemachine.c **** {
 1451              		.loc 1 459 0
 1452              		.cfi_startproc
 1453              		@ args = 0, pretend = 0, frame = 8
 1454              		@ frame_needed = 1, uses_anonymous_args = 0
 1455 0000 80B5     		push	{r7, lr}
 1456              		.cfi_def_cfa_offset 8
 1457              		.cfi_offset 7, -8
 1458              		.cfi_offset 14, -4
 1459 0002 82B0     		sub	sp, sp, #8
 1460              		.cfi_def_cfa_offset 16
 1461 0004 00AF     		add	r7, sp, #0
 1462              		.cfi_def_cfa_register 7
 1463 0006 7860     		str	r0, [r7, #4]
 1464 0008 0B46     		mov	r3, r1
 1465 000a FB70     		strb	r3, [r7, #3]
 460:app_statemachine.c ****     switch (k) {
 1466              		.loc 1 460 0
 1467 000c FB78     		ldrb	r3, [r7, #3]	@ zero_extendqisi2
 1468 000e 652B     		cmp	r3, #101
 1469 0010 05D1     		bne	.L99
 461:app_statemachine.c ****         case 'e': transition(ctx, STBY_HOLD); return 1;
 1470              		.loc 1 461 0
 1471 0012 0621     		movs	r1, #6
 1472 0014 7868     		ldr	r0, [r7, #4]
 1473 0016 FFF7FEFF 		bl	transition
 1474 001a 0123     		movs	r3, #1
 1475 001c 00E0     		b	.L98
 1476              	.L99:
 462:app_statemachine.c ****         default:  return 0;
 1477              		.loc 1 462 0
 1478 001e 0023     		movs	r3, #0
 1479              	.L98:
 463:app_statemachine.c ****     }
 464:app_statemachine.c **** }
 1480              		.loc 1 464 0
 1481 0020 1846     		mov	r0, r3
 1482 0022 0837     		adds	r7, r7, #8
 1483              		.cfi_def_cfa_offset 8
ARM GAS  C:\Users\JENNEW~1\AppData\Local\Temp\ccEqAB2L.s 			page 37


 1484 0024 BD46     		mov	sp, r7
 1485              		.cfi_def_cfa_register 13
 1486              		@ sp needed
 1487 0026 80BD     		pop	{r7, pc}
 1488              		.cfi_endproc
 1489              	.LFE79:
 1490              		.size	key_auto_home, .-key_auto_home
 1491              		.global	__aeabi_fdiv
 1492              		.section	.text.build_auto_home,"ax",%progbits
 1493              		.align	2
 1494              		.thumb
 1495              		.thumb_func
 1496              		.type	build_auto_home, %function
 1497              	build_auto_home:
 1498              	.LFB80:
 465:app_statemachine.c **** 
 466:app_statemachine.c **** static void build_auto_home(const app_ctx_t *ctx, hamfly_control_t *out)
 467:app_statemachine.c **** {
 1499              		.loc 1 467 0
 1500              		.cfi_startproc
 1501              		@ args = 0, pretend = 0, frame = 8
 1502              		@ frame_needed = 1, uses_anonymous_args = 0
 1503 0000 80B5     		push	{r7, lr}
 1504              		.cfi_def_cfa_offset 8
 1505              		.cfi_offset 7, -8
 1506              		.cfi_offset 14, -4
 1507 0002 82B0     		sub	sp, sp, #8
 1508              		.cfi_def_cfa_offset 16
 1509 0004 00AF     		add	r7, sp, #0
 1510              		.cfi_def_cfa_register 7
 1511 0006 7860     		str	r0, [r7, #4]
 1512 0008 3960     		str	r1, [r7]
 468:app_statemachine.c ****     out->enable    = 1u;
 1513              		.loc 1 468 0
 1514 000a 3B68     		ldr	r3, [r7]
 1515 000c 0122     		movs	r2, #1
 1516 000e DA73     		strb	r2, [r3, #15]
 469:app_statemachine.c ****     out->kill      = 0u;
 1517              		.loc 1 469 0
 1518 0010 3B68     		ldr	r3, [r7]
 1519 0012 0022     		movs	r2, #0
 1520 0014 1A74     		strb	r2, [r3, #16]
 470:app_statemachine.c ****     out->roll_mode = HAMFLY_DEFER;
 1521              		.loc 1 470 0
 1522 0016 3B68     		ldr	r3, [r7]
 1523 0018 0022     		movs	r2, #0
 1524 001a 9A73     		strb	r2, [r3, #14]
 471:app_statemachine.c ****     out->roll      = 0.0f;
 1525              		.loc 1 471 0
 1526 001c 3B68     		ldr	r3, [r7]
 1527 001e 4FF00002 		mov	r2, #0
 1528 0022 9A60     		str	r2, [r3, #8]	@ float
 472:app_statemachine.c ****     out->pan_mode  = out->tilt_mode = HAMFLY_ABSOLUTE;
 1529              		.loc 1 472 0
 1530 0024 3B68     		ldr	r3, [r7]
 1531 0026 0222     		movs	r2, #2
 1532 0028 5A73     		strb	r2, [r3, #13]
ARM GAS  C:\Users\JENNEW~1\AppData\Local\Temp\ccEqAB2L.s 			page 38


 1533 002a 3B68     		ldr	r3, [r7]
 1534 002c 5A7B     		ldrb	r2, [r3, #13]	@ zero_extendqisi2
 1535 002e 3B68     		ldr	r3, [r7]
 1536 0030 1A73     		strb	r2, [r3, #12]
 473:app_statemachine.c ****     out->pan  = DEG_TO_UNIT(ctx->tgt_pan_deg - ctx->nudge_base_pan_deg);
 1537              		.loc 1 473 0
 1538 0032 7B68     		ldr	r3, [r7, #4]
 1539 0034 D3F88820 		ldr	r2, [r3, #136]	@ float
 1540 0038 7B68     		ldr	r3, [r7, #4]
 1541 003a D3F88030 		ldr	r3, [r3, #128]	@ float
 1542 003e 1946     		mov	r1, r3
 1543 0040 1046     		mov	r0, r2
 1544 0042 FFF7FEFF 		bl	__aeabi_fsub
 1545 0046 0346     		mov	r3, r0
 1546 0048 0B49     		ldr	r1, .L101
 1547 004a 1846     		mov	r0, r3
 1548 004c FFF7FEFF 		bl	__aeabi_fdiv
 1549 0050 0346     		mov	r3, r0
 1550 0052 1A46     		mov	r2, r3
 1551 0054 3B68     		ldr	r3, [r7]
 1552 0056 1A60     		str	r2, [r3]	@ float
 474:app_statemachine.c ****     out->tilt = DEG_TO_UNIT(ctx->tgt_tilt_deg);
 1553              		.loc 1 474 0
 1554 0058 7B68     		ldr	r3, [r7, #4]
 1555 005a D3F88C30 		ldr	r3, [r3, #140]	@ float
 1556 005e 0649     		ldr	r1, .L101
 1557 0060 1846     		mov	r0, r3
 1558 0062 FFF7FEFF 		bl	__aeabi_fdiv
 1559 0066 0346     		mov	r3, r0
 1560 0068 1A46     		mov	r2, r3
 1561 006a 3B68     		ldr	r3, [r7]
 1562 006c 5A60     		str	r2, [r3, #4]	@ float
 475:app_statemachine.c **** }
 1563              		.loc 1 475 0
 1564 006e 00BF     		nop
 1565 0070 0837     		adds	r7, r7, #8
 1566              		.cfi_def_cfa_offset 8
 1567 0072 BD46     		mov	sp, r7
 1568              		.cfi_def_cfa_register 13
 1569              		@ sp needed
 1570 0074 80BD     		pop	{r7, pc}
 1571              	.L102:
 1572 0076 00BF     		.align	2
 1573              	.L101:
 1574 0078 00003443 		.word	1127481344
 1575              		.cfi_endproc
 1576              	.LFE80:
 1577              		.size	build_auto_home, .-build_auto_home
 1578              		.global	__aeabi_fmul
 1579              		.global	__aeabi_fadd
 1580              		.section	.text.gps_bearing_deg,"ax",%progbits
 1581              		.align	2
 1582              		.thumb
 1583              		.thumb_func
 1584              		.type	gps_bearing_deg, %function
 1585              	gps_bearing_deg:
 1586              	.LFB81:
ARM GAS  C:\Users\JENNEW~1\AppData\Local\Temp\ccEqAB2L.s 			page 39


 476:app_statemachine.c **** 
 477:app_statemachine.c **** // AUTO_GPS %=================================================================%
 478:app_statemachine.c **** // All float trig; PSoC 5 LP has no HW FPU, so callers run these at most 1 Hz.
 479:app_statemachine.c **** static float gps_bearing_deg(float lat1, float lon1, float lat2, float lon2)
 480:app_statemachine.c **** {
 1587              		.loc 1 480 0
 1588              		.cfi_startproc
 1589              		@ args = 0, pretend = 0, frame = 40
 1590              		@ frame_needed = 1, uses_anonymous_args = 0
 1591 0000 B0B5     		push	{r4, r5, r7, lr}
 1592              		.cfi_def_cfa_offset 16
 1593              		.cfi_offset 4, -16
 1594              		.cfi_offset 5, -12
 1595              		.cfi_offset 7, -8
 1596              		.cfi_offset 14, -4
 1597 0002 8AB0     		sub	sp, sp, #40
 1598              		.cfi_def_cfa_offset 56
 1599 0004 00AF     		add	r7, sp, #0
 1600              		.cfi_def_cfa_register 7
 1601 0006 F860     		str	r0, [r7, #12]	@ float
 1602 0008 B960     		str	r1, [r7, #8]	@ float
 1603 000a 7A60     		str	r2, [r7, #4]	@ float
 1604 000c 3B60     		str	r3, [r7]	@ float
 481:app_statemachine.c ****     float la1 = lat1 * DEG_TO_RAD, la2 = lat2 * DEG_TO_RAD;
 1605              		.loc 1 481 0
 1606 000e 3749     		ldr	r1, .L108
 1607 0010 F868     		ldr	r0, [r7, #12]	@ float
 1608 0012 FFF7FEFF 		bl	__aeabi_fmul
 1609 0016 0346     		mov	r3, r0
 1610 0018 3B62     		str	r3, [r7, #32]	@ float
 1611 001a 3449     		ldr	r1, .L108
 1612 001c 7868     		ldr	r0, [r7, #4]	@ float
 1613 001e FFF7FEFF 		bl	__aeabi_fmul
 1614 0022 0346     		mov	r3, r0
 1615 0024 FB61     		str	r3, [r7, #28]	@ float
 482:app_statemachine.c ****     float dlo = (lon2 - lon1) * DEG_TO_RAD;
 1616              		.loc 1 482 0
 1617 0026 B968     		ldr	r1, [r7, #8]	@ float
 1618 0028 3868     		ldr	r0, [r7]	@ float
 1619 002a FFF7FEFF 		bl	__aeabi_fsub
 1620 002e 0346     		mov	r3, r0
 1621 0030 2E49     		ldr	r1, .L108
 1622 0032 1846     		mov	r0, r3
 1623 0034 FFF7FEFF 		bl	__aeabi_fmul
 1624 0038 0346     		mov	r3, r0
 1625 003a BB61     		str	r3, [r7, #24]	@ float
 483:app_statemachine.c ****     float x   = sinf(dlo) * cosf(la2);
 1626              		.loc 1 483 0
 1627 003c B869     		ldr	r0, [r7, #24]	@ float
 1628 003e FFF7FEFF 		bl	sinf
 1629 0042 0446     		mov	r4, r0
 1630 0044 F869     		ldr	r0, [r7, #28]	@ float
 1631 0046 FFF7FEFF 		bl	cosf
 1632 004a 0346     		mov	r3, r0
 1633 004c 1946     		mov	r1, r3
 1634 004e 2046     		mov	r0, r4
 1635 0050 FFF7FEFF 		bl	__aeabi_fmul
ARM GAS  C:\Users\JENNEW~1\AppData\Local\Temp\ccEqAB2L.s 			page 40


 1636 0054 0346     		mov	r3, r0
 1637 0056 7B61     		str	r3, [r7, #20]	@ float
 484:app_statemachine.c ****     float y   = cosf(la1) * sinf(la2) - sinf(la1) * cosf(la2) * cosf(dlo);
 1638              		.loc 1 484 0
 1639 0058 386A     		ldr	r0, [r7, #32]	@ float
 1640 005a FFF7FEFF 		bl	cosf
 1641 005e 0446     		mov	r4, r0
 1642 0060 F869     		ldr	r0, [r7, #28]	@ float
 1643 0062 FFF7FEFF 		bl	sinf
 1644 0066 0346     		mov	r3, r0
 1645 0068 1946     		mov	r1, r3
 1646 006a 2046     		mov	r0, r4
 1647 006c FFF7FEFF 		bl	__aeabi_fmul
 1648 0070 0346     		mov	r3, r0
 1649 0072 1C46     		mov	r4, r3
 1650 0074 386A     		ldr	r0, [r7, #32]	@ float
 1651 0076 FFF7FEFF 		bl	sinf
 1652 007a 0546     		mov	r5, r0
 1653 007c F869     		ldr	r0, [r7, #28]	@ float
 1654 007e FFF7FEFF 		bl	cosf
 1655 0082 0346     		mov	r3, r0
 1656 0084 1946     		mov	r1, r3
 1657 0086 2846     		mov	r0, r5
 1658 0088 FFF7FEFF 		bl	__aeabi_fmul
 1659 008c 0346     		mov	r3, r0
 1660 008e 1D46     		mov	r5, r3
 1661 0090 B869     		ldr	r0, [r7, #24]	@ float
 1662 0092 FFF7FEFF 		bl	cosf
 1663 0096 0346     		mov	r3, r0
 1664 0098 1946     		mov	r1, r3
 1665 009a 2846     		mov	r0, r5
 1666 009c FFF7FEFF 		bl	__aeabi_fmul
 1667 00a0 0346     		mov	r3, r0
 1668 00a2 1946     		mov	r1, r3
 1669 00a4 2046     		mov	r0, r4
 1670 00a6 FFF7FEFF 		bl	__aeabi_fsub
 1671 00aa 0346     		mov	r3, r0
 1672 00ac 3B61     		str	r3, [r7, #16]	@ float
 485:app_statemachine.c ****     float b   = atan2f(x, y) * RAD_TO_DEG;
 1673              		.loc 1 485 0
 1674 00ae 3969     		ldr	r1, [r7, #16]	@ float
 1675 00b0 7869     		ldr	r0, [r7, #20]	@ float
 1676 00b2 FFF7FEFF 		bl	atan2f
 1677 00b6 0346     		mov	r3, r0
 1678 00b8 0D49     		ldr	r1, .L108+4
 1679 00ba 1846     		mov	r0, r3
 1680 00bc FFF7FEFF 		bl	__aeabi_fmul
 1681 00c0 0346     		mov	r3, r0
 1682 00c2 7B62     		str	r3, [r7, #36]	@ float
 486:app_statemachine.c ****     if (b < 0.0f) b += 360.0f;
 1683              		.loc 1 486 0
 1684 00c4 4FF00001 		mov	r1, #0
 1685 00c8 786A     		ldr	r0, [r7, #36]	@ float
 1686 00ca FFF7FEFF 		bl	__aeabi_fcmplt
 1687 00ce 0346     		mov	r3, r0
 1688 00d0 002B     		cmp	r3, #0
 1689 00d2 05D0     		beq	.L104
ARM GAS  C:\Users\JENNEW~1\AppData\Local\Temp\ccEqAB2L.s 			page 41


 1690              		.loc 1 486 0 is_stmt 0 discriminator 1
 1691 00d4 0749     		ldr	r1, .L108+8
 1692 00d6 786A     		ldr	r0, [r7, #36]	@ float
 1693 00d8 FFF7FEFF 		bl	__aeabi_fadd
 1694 00dc 0346     		mov	r3, r0
 1695 00de 7B62     		str	r3, [r7, #36]	@ float
 1696              	.L104:
 487:app_statemachine.c ****     return b;  // 0 = North, clockwise
 1697              		.loc 1 487 0 is_stmt 1
 1698 00e0 7B6A     		ldr	r3, [r7, #36]	@ float
 488:app_statemachine.c **** }
 1699              		.loc 1 488 0
 1700 00e2 1846     		mov	r0, r3
 1701 00e4 2837     		adds	r7, r7, #40
 1702              		.cfi_def_cfa_offset 16
 1703 00e6 BD46     		mov	sp, r7
 1704              		.cfi_def_cfa_register 13
 1705              		@ sp needed
 1706 00e8 B0BD     		pop	{r4, r5, r7, pc}
 1707              	.L109:
 1708 00ea 00BF     		.align	2
 1709              	.L108:
 1710 00ec 98F98E3C 		.word	1016002968
 1711 00f0 E62E6542 		.word	1113927398
 1712 00f4 0000B443 		.word	1135869952
 1713              		.cfi_endproc
 1714              	.LFE81:
 1715              		.size	gps_bearing_deg, .-gps_bearing_deg
 1716              		.section	.text.gps_elev_deg,"ax",%progbits
 1717              		.align	2
 1718              		.thumb
 1719              		.thumb_func
 1720              		.type	gps_elev_deg, %function
 1721              	gps_elev_deg:
 1722              	.LFB82:
 489:app_statemachine.c **** static float gps_elev_deg(float lat1, float lon1, float alt1_m,
 490:app_statemachine.c ****                           float lat2, float lon2, float alt2_m)
 491:app_statemachine.c **** {
 1723              		.loc 1 491 0
 1724              		.cfi_startproc
 1725              		@ args = 8, pretend = 0, frame = 40
 1726              		@ frame_needed = 1, uses_anonymous_args = 0
 1727 0000 B0B5     		push	{r4, r5, r7, lr}
 1728              		.cfi_def_cfa_offset 16
 1729              		.cfi_offset 4, -16
 1730              		.cfi_offset 5, -12
 1731              		.cfi_offset 7, -8
 1732              		.cfi_offset 14, -4
 1733 0002 8AB0     		sub	sp, sp, #40
 1734              		.cfi_def_cfa_offset 56
 1735 0004 00AF     		add	r7, sp, #0
 1736              		.cfi_def_cfa_register 7
 1737 0006 F860     		str	r0, [r7, #12]	@ float
 1738 0008 B960     		str	r1, [r7, #8]	@ float
 1739 000a 7A60     		str	r2, [r7, #4]	@ float
 1740 000c 3B60     		str	r3, [r7]	@ float
 492:app_statemachine.c ****     float la1 = lat1 * DEG_TO_RAD, la2 = lat2 * DEG_TO_RAD;
ARM GAS  C:\Users\JENNEW~1\AppData\Local\Temp\ccEqAB2L.s 			page 42


 1741              		.loc 1 492 0
 1742 000e 5049     		ldr	r1, .L115
 1743 0010 F868     		ldr	r0, [r7, #12]	@ float
 1744 0012 FFF7FEFF 		bl	__aeabi_fmul
 1745 0016 0346     		mov	r3, r0
 1746 0018 3B62     		str	r3, [r7, #32]	@ float
 1747 001a 4D49     		ldr	r1, .L115
 1748 001c 3868     		ldr	r0, [r7]	@ float
 1749 001e FFF7FEFF 		bl	__aeabi_fmul
 1750 0022 0346     		mov	r3, r0
 1751 0024 FB61     		str	r3, [r7, #28]	@ float
 493:app_statemachine.c ****     float dlo = (lon2 - lon1) * DEG_TO_RAD;
 1752              		.loc 1 493 0
 1753 0026 B968     		ldr	r1, [r7, #8]	@ float
 1754 0028 B86B     		ldr	r0, [r7, #56]	@ float
 1755 002a FFF7FEFF 		bl	__aeabi_fsub
 1756 002e 0346     		mov	r3, r0
 1757 0030 4749     		ldr	r1, .L115
 1758 0032 1846     		mov	r0, r3
 1759 0034 FFF7FEFF 		bl	__aeabi_fmul
 1760 0038 0346     		mov	r3, r0
 1761 003a BB61     		str	r3, [r7, #24]	@ float
 494:app_statemachine.c ****     float dla = la2 - la1;
 1762              		.loc 1 494 0
 1763 003c 396A     		ldr	r1, [r7, #32]	@ float
 1764 003e F869     		ldr	r0, [r7, #28]	@ float
 1765 0040 FFF7FEFF 		bl	__aeabi_fsub
 1766 0044 0346     		mov	r3, r0
 1767 0046 7B61     		str	r3, [r7, #20]	@ float
 495:app_statemachine.c ****     float a   = sinf(dla * 0.5f) * sinf(dla * 0.5f)
 1768              		.loc 1 495 0
 1769 0048 4FF07C51 		mov	r1, #1056964608
 1770 004c 7869     		ldr	r0, [r7, #20]	@ float
 1771 004e FFF7FEFF 		bl	__aeabi_fmul
 1772 0052 0346     		mov	r3, r0
 1773 0054 1846     		mov	r0, r3
 1774 0056 FFF7FEFF 		bl	sinf
 1775 005a 0446     		mov	r4, r0
 1776 005c 4FF07C51 		mov	r1, #1056964608
 1777 0060 7869     		ldr	r0, [r7, #20]	@ float
 1778 0062 FFF7FEFF 		bl	__aeabi_fmul
 1779 0066 0346     		mov	r3, r0
 1780 0068 1846     		mov	r0, r3
 1781 006a FFF7FEFF 		bl	sinf
 1782 006e 0346     		mov	r3, r0
 1783 0070 1946     		mov	r1, r3
 1784 0072 2046     		mov	r0, r4
 1785 0074 FFF7FEFF 		bl	__aeabi_fmul
 1786 0078 0346     		mov	r3, r0
 1787 007a 1C46     		mov	r4, r3
 496:app_statemachine.c ****               + cosf(la1) * cosf(la2) * sinf(dlo * 0.5f) * sinf(dlo * 0.5f);
 1788              		.loc 1 496 0
 1789 007c 386A     		ldr	r0, [r7, #32]	@ float
 1790 007e FFF7FEFF 		bl	cosf
 1791 0082 0546     		mov	r5, r0
 1792 0084 F869     		ldr	r0, [r7, #28]	@ float
 1793 0086 FFF7FEFF 		bl	cosf
ARM GAS  C:\Users\JENNEW~1\AppData\Local\Temp\ccEqAB2L.s 			page 43


 1794 008a 0346     		mov	r3, r0
 1795 008c 1946     		mov	r1, r3
 1796 008e 2846     		mov	r0, r5
 1797 0090 FFF7FEFF 		bl	__aeabi_fmul
 1798 0094 0346     		mov	r3, r0
 1799 0096 1D46     		mov	r5, r3
 1800 0098 4FF07C51 		mov	r1, #1056964608
 1801 009c B869     		ldr	r0, [r7, #24]	@ float
 1802 009e FFF7FEFF 		bl	__aeabi_fmul
 1803 00a2 0346     		mov	r3, r0
 1804 00a4 1846     		mov	r0, r3
 1805 00a6 FFF7FEFF 		bl	sinf
 1806 00aa 0346     		mov	r3, r0
 1807 00ac 1946     		mov	r1, r3
 1808 00ae 2846     		mov	r0, r5
 1809 00b0 FFF7FEFF 		bl	__aeabi_fmul
 1810 00b4 0346     		mov	r3, r0
 1811 00b6 1D46     		mov	r5, r3
 1812 00b8 4FF07C51 		mov	r1, #1056964608
 1813 00bc B869     		ldr	r0, [r7, #24]	@ float
 1814 00be FFF7FEFF 		bl	__aeabi_fmul
 1815 00c2 0346     		mov	r3, r0
 1816 00c4 1846     		mov	r0, r3
 1817 00c6 FFF7FEFF 		bl	sinf
 1818 00ca 0346     		mov	r3, r0
 1819 00cc 1946     		mov	r1, r3
 1820 00ce 2846     		mov	r0, r5
 1821 00d0 FFF7FEFF 		bl	__aeabi_fmul
 1822 00d4 0346     		mov	r3, r0
 495:app_statemachine.c ****     float a   = sinf(dla * 0.5f) * sinf(dla * 0.5f)
 1823              		.loc 1 495 0
 1824 00d6 1946     		mov	r1, r3
 1825 00d8 2046     		mov	r0, r4
 1826 00da FFF7FEFF 		bl	__aeabi_fadd
 1827 00de 0346     		mov	r3, r0
 1828 00e0 3B61     		str	r3, [r7, #16]	@ float
 497:app_statemachine.c ****     float dist_m = 2.0f * GPS_EARTH_R_M * atan2f(sqrtf(a), sqrtf(1.0f - a));
 1829              		.loc 1 497 0
 1830 00e2 3869     		ldr	r0, [r7, #16]	@ float
 1831 00e4 FFF7FEFF 		bl	sqrtf
 1832 00e8 0446     		mov	r4, r0
 1833 00ea 3969     		ldr	r1, [r7, #16]	@ float
 1834 00ec 4FF07E50 		mov	r0, #1065353216
 1835 00f0 FFF7FEFF 		bl	__aeabi_fsub
 1836 00f4 0346     		mov	r3, r0
 1837 00f6 1846     		mov	r0, r3
 1838 00f8 FFF7FEFF 		bl	sqrtf
 1839 00fc 0346     		mov	r3, r0
 1840 00fe 1946     		mov	r1, r3
 1841 0100 2046     		mov	r0, r4
 1842 0102 FFF7FEFF 		bl	atan2f
 1843 0106 0346     		mov	r3, r0
 1844 0108 1249     		ldr	r1, .L115+4
 1845 010a 1846     		mov	r0, r3
 1846 010c FFF7FEFF 		bl	__aeabi_fmul
 1847 0110 0346     		mov	r3, r0
 1848 0112 7B62     		str	r3, [r7, #36]	@ float
ARM GAS  C:\Users\JENNEW~1\AppData\Local\Temp\ccEqAB2L.s 			page 44


 498:app_statemachine.c ****     if (dist_m < 1.0f) dist_m = 1.0f;  // guard div/0 at zero range
 1849              		.loc 1 498 0
 1850 0114 4FF07E51 		mov	r1, #1065353216
 1851 0118 786A     		ldr	r0, [r7, #36]	@ float
 1852 011a FFF7FEFF 		bl	__aeabi_fcmplt
 1853 011e 0346     		mov	r3, r0
 1854 0120 002B     		cmp	r3, #0
 1855 0122 02D0     		beq	.L111
 1856              		.loc 1 498 0 is_stmt 0 discriminator 1
 1857 0124 4FF07E53 		mov	r3, #1065353216
 1858 0128 7B62     		str	r3, [r7, #36]	@ float
 1859              	.L111:
 499:app_statemachine.c ****     return atan2f(alt2_m - alt1_m, dist_m) * RAD_TO_DEG;
 1860              		.loc 1 499 0 is_stmt 1
 1861 012a 7968     		ldr	r1, [r7, #4]	@ float
 1862 012c F86B     		ldr	r0, [r7, #60]	@ float
 1863 012e FFF7FEFF 		bl	__aeabi_fsub
 1864 0132 0346     		mov	r3, r0
 1865 0134 796A     		ldr	r1, [r7, #36]	@ float
 1866 0136 1846     		mov	r0, r3
 1867 0138 FFF7FEFF 		bl	atan2f
 1868 013c 0346     		mov	r3, r0
 1869 013e 0649     		ldr	r1, .L115+8
 1870 0140 1846     		mov	r0, r3
 1871 0142 FFF7FEFF 		bl	__aeabi_fmul
 1872 0146 0346     		mov	r3, r0
 500:app_statemachine.c **** }
 1873              		.loc 1 500 0
 1874 0148 1846     		mov	r0, r3
 1875 014a 2837     		adds	r7, r7, #40
 1876              		.cfi_def_cfa_offset 16
 1877 014c BD46     		mov	sp, r7
 1878              		.cfi_def_cfa_register 13
 1879              		@ sp needed
 1880 014e B0BD     		pop	{r4, r5, r7, pc}
 1881              	.L116:
 1882              		.align	2
 1883              	.L115:
 1884 0150 98F98E3C 		.word	1016002968
 1885 0154 706D424B 		.word	1262644592
 1886 0158 E62E6542 		.word	1113927398
 1887              		.cfi_endproc
 1888              	.LFE82:
 1889              		.size	gps_elev_deg, .-gps_elev_deg
 1890              		.section	.text.gps_start_slew,"ax",%progbits
 1891              		.align	2
 1892              		.thumb
 1893              		.thumb_func
 1894              		.type	gps_start_slew, %function
 1895              	gps_start_slew:
 1896              	.LFB83:
 501:app_statemachine.c **** 
 502:app_statemachine.c **** // Snap the active target into the working copy and reset the slew.
 503:app_statemachine.c **** static void gps_start_slew(app_ctx_t *ctx)
 504:app_statemachine.c **** {
 1897              		.loc 1 504 0
 1898              		.cfi_startproc
ARM GAS  C:\Users\JENNEW~1\AppData\Local\Temp\ccEqAB2L.s 			page 45


 1899              		@ args = 0, pretend = 0, frame = 8
 1900              		@ frame_needed = 1, uses_anonymous_args = 0
 1901              		@ link register save eliminated.
 1902 0000 80B4     		push	{r7}
 1903              		.cfi_def_cfa_offset 4
 1904              		.cfi_offset 7, -4
 1905 0002 83B0     		sub	sp, sp, #12
 1906              		.cfi_def_cfa_offset 16
 1907 0004 00AF     		add	r7, sp, #0
 1908              		.cfi_def_cfa_register 7
 1909 0006 7860     		str	r0, [r7, #4]
 505:app_statemachine.c ****     ctx->gps_work_lat_raw = ctx->gps_target_lat_raw;
 1910              		.loc 1 505 0
 1911 0008 7B68     		ldr	r3, [r7, #4]
 1912 000a 9A69     		ldr	r2, [r3, #24]
 1913 000c 7B68     		ldr	r3, [r7, #4]
 1914 000e 9A62     		str	r2, [r3, #40]
 506:app_statemachine.c ****     ctx->gps_work_lon_raw = ctx->gps_target_lon_raw;
 1915              		.loc 1 506 0
 1916 0010 7B68     		ldr	r3, [r7, #4]
 1917 0012 DA69     		ldr	r2, [r3, #28]
 1918 0014 7B68     		ldr	r3, [r7, #4]
 1919 0016 DA62     		str	r2, [r3, #44]
 507:app_statemachine.c ****     ctx->gps_work_alt_mm  = ctx->gps_target_alt_mm;
 1920              		.loc 1 507 0
 1921 0018 7B68     		ldr	r3, [r7, #4]
 1922 001a 1A6A     		ldr	r2, [r3, #32]
 1923 001c 7B68     		ldr	r3, [r7, #4]
 1924 001e 1A63     		str	r2, [r3, #48]
 508:app_statemachine.c ****     ctx->gps_settled      = 0u;
 1925              		.loc 1 508 0
 1926 0020 7B68     		ldr	r3, [r7, #4]
 1927 0022 0022     		movs	r2, #0
 1928 0024 83F83420 		strb	r2, [r3, #52]
 509:app_statemachine.c ****     ctx->gps_new_target   = 0u;
 1929              		.loc 1 509 0
 1930 0028 7B68     		ldr	r3, [r7, #4]
 1931 002a 0022     		movs	r2, #0
 1932 002c 83F82520 		strb	r2, [r3, #37]
 510:app_statemachine.c **** }
 1933              		.loc 1 510 0
 1934 0030 00BF     		nop
 1935 0032 0C37     		adds	r7, r7, #12
 1936              		.cfi_def_cfa_offset 4
 1937 0034 BD46     		mov	sp, r7
 1938              		.cfi_def_cfa_register 13
 1939              		@ sp needed
 1940 0036 80BC     		pop	{r7}
 1941              		.cfi_restore 7
 1942              		.cfi_def_cfa_offset 0
 1943 0038 7047     		bx	lr
 1944              		.cfi_endproc
 1945              	.LFE83:
 1946              		.size	gps_start_slew, .-gps_start_slew
 1947              		.global	__aeabi_i2f
 1948 003a 00BF     		.section	.text.gps_update_pointing,"ax",%progbits
 1949              		.align	2
ARM GAS  C:\Users\JENNEW~1\AppData\Local\Temp\ccEqAB2L.s 			page 46


 1950              		.thumb
 1951              		.thumb_func
 1952              		.type	gps_update_pointing, %function
 1953              	gps_update_pointing:
 1954              	.LFB84:
 511:app_statemachine.c **** 
 512:app_statemachine.c **** // Recompute abs_pan/tilt setpoints from the working copy + live gimbal GPS.
 513:app_statemachine.c **** static void gps_update_pointing(app_ctx_t *ctx)
 514:app_statemachine.c **** {
 1955              		.loc 1 514 0
 1956              		.cfi_startproc
 1957              		@ args = 0, pretend = 0, frame = 256
 1958              		@ frame_needed = 1, uses_anonymous_args = 0
 1959 0000 80B5     		push	{r7, lr}
 1960              		.cfi_def_cfa_offset 8
 1961              		.cfi_offset 7, -8
 1962              		.cfi_offset 14, -4
 1963 0002 C2B0     		sub	sp, sp, #264
 1964              		.cfi_def_cfa_offset 272
 1965 0004 02AF     		add	r7, sp, #8
 1966              		.cfi_def_cfa 7, 264
 1967 0006 7860     		str	r0, [r7, #4]
 515:app_statemachine.c ****     hamfly_telemetry_t st;
 516:app_statemachine.c ****     hamfly_get_telemetry(ctx->gimbal, &st);
 1968              		.loc 1 516 0
 1969 0008 7B68     		ldr	r3, [r7, #4]
 1970 000a 1B68     		ldr	r3, [r3]
 1971 000c 07F10802 		add	r2, r7, #8
 1972 0010 1146     		mov	r1, r2
 1973 0012 1846     		mov	r0, r3
 1974 0014 FFF7FEFF 		bl	hamfly_get_telemetry
 517:app_statemachine.c ****     if (!st.gps_valid) return;
 1975              		.loc 1 517 0
 1976 0018 97F82630 		ldrb	r3, [r7, #38]	@ zero_extendqisi2
 1977 001c 83F00103 		eor	r3, r3, #1
 1978 0020 DBB2     		uxtb	r3, r3
 1979 0022 002B     		cmp	r3, #0
 1980 0024 54D1     		bne	.L121
 518:app_statemachine.c ****     float tlat = (float)ctx->gps_work_lat_raw * 1e-7f;
 1981              		.loc 1 518 0
 1982 0026 7B68     		ldr	r3, [r7, #4]
 1983 0028 9B6A     		ldr	r3, [r3, #40]
 1984 002a 1846     		mov	r0, r3
 1985 002c FFF7FEFF 		bl	__aeabi_i2f
 1986 0030 0346     		mov	r3, r0
 1987 0032 2A49     		ldr	r1, .L122
 1988 0034 1846     		mov	r0, r3
 1989 0036 FFF7FEFF 		bl	__aeabi_fmul
 1990 003a 0346     		mov	r3, r0
 1991 003c C7F8FC30 		str	r3, [r7, #252]	@ float
 519:app_statemachine.c ****     float tlon = (float)ctx->gps_work_lon_raw * 1e-7f;
 1992              		.loc 1 519 0
 1993 0040 7B68     		ldr	r3, [r7, #4]
 1994 0042 DB6A     		ldr	r3, [r3, #44]
 1995 0044 1846     		mov	r0, r3
 1996 0046 FFF7FEFF 		bl	__aeabi_i2f
 1997 004a 0346     		mov	r3, r0
ARM GAS  C:\Users\JENNEW~1\AppData\Local\Temp\ccEqAB2L.s 			page 47


 1998 004c 2349     		ldr	r1, .L122
 1999 004e 1846     		mov	r0, r3
 2000 0050 FFF7FEFF 		bl	__aeabi_fmul
 2001 0054 0346     		mov	r3, r0
 2002 0056 C7F8F830 		str	r3, [r7, #248]	@ float
 520:app_statemachine.c ****     float talt = (float)ctx->gps_work_alt_mm  * 0.001f;
 2003              		.loc 1 520 0
 2004 005a 7B68     		ldr	r3, [r7, #4]
 2005 005c 1B6B     		ldr	r3, [r3, #48]
 2006 005e 1846     		mov	r0, r3
 2007 0060 FFF7FEFF 		bl	__aeabi_i2f
 2008 0064 0346     		mov	r3, r0
 2009 0066 1E49     		ldr	r1, .L122+4
 2010 0068 1846     		mov	r0, r3
 2011 006a FFF7FEFF 		bl	__aeabi_fmul
 2012 006e 0346     		mov	r3, r0
 2013 0070 C7F8F430 		str	r3, [r7, #244]	@ float
 521:app_statemachine.c ****     ctx->abs_pan_target  = DEG_TO_UNIT(
 2014              		.loc 1 521 0
 2015 0074 B86A     		ldr	r0, [r7, #40]	@ float
 2016 0076 F96A     		ldr	r1, [r7, #44]	@ float
 2017 0078 D7F8F830 		ldr	r3, [r7, #248]	@ float
 2018 007c D7F8FC20 		ldr	r2, [r7, #252]	@ float
 2019 0080 FFF7FEFF 		bl	gps_bearing_deg
 2020 0084 0246     		mov	r2, r0
 2021 0086 BB6B     		ldr	r3, [r7, #56]	@ float
 2022 0088 1946     		mov	r1, r3
 2023 008a 1046     		mov	r0, r2
 2024 008c FFF7FEFF 		bl	__aeabi_fsub
 2025 0090 0346     		mov	r3, r0
 2026 0092 1449     		ldr	r1, .L122+8
 2027 0094 1846     		mov	r0, r3
 2028 0096 FFF7FEFF 		bl	__aeabi_fdiv
 2029 009a 0346     		mov	r3, r0
 2030 009c 1A46     		mov	r2, r3
 2031 009e 7B68     		ldr	r3, [r7, #4]
 2032 00a0 1A61     		str	r2, [r3, #16]	@ float
 522:app_statemachine.c ****         gps_bearing_deg(st.gps_lat_deg, st.gps_lon_deg, tlat, tlon) - st.gps_heading_deg);
 523:app_statemachine.c ****     ctx->abs_tilt_target = DEG_TO_UNIT(
 2033              		.loc 1 523 0
 2034 00a2 B86A     		ldr	r0, [r7, #40]	@ float
 2035 00a4 F96A     		ldr	r1, [r7, #44]	@ float
 2036 00a6 3A6B     		ldr	r2, [r7, #48]	@ float
 2037 00a8 D7F8F430 		ldr	r3, [r7, #244]	@ float
 2038 00ac 0193     		str	r3, [sp, #4]	@ float
 2039 00ae D7F8F830 		ldr	r3, [r7, #248]	@ float
 2040 00b2 0093     		str	r3, [sp]	@ float
 2041 00b4 D7F8FC30 		ldr	r3, [r7, #252]	@ float
 2042 00b8 FFF7FEFF 		bl	gps_elev_deg
 2043 00bc 0346     		mov	r3, r0
 2044 00be 0949     		ldr	r1, .L122+8
 2045 00c0 1846     		mov	r0, r3
 2046 00c2 FFF7FEFF 		bl	__aeabi_fdiv
 2047 00c6 0346     		mov	r3, r0
 2048 00c8 1A46     		mov	r2, r3
 2049 00ca 7B68     		ldr	r3, [r7, #4]
 2050 00cc 5A61     		str	r2, [r3, #20]	@ float
ARM GAS  C:\Users\JENNEW~1\AppData\Local\Temp\ccEqAB2L.s 			page 48


 2051 00ce 00E0     		b	.L118
 2052              	.L121:
 517:app_statemachine.c ****     float tlat = (float)ctx->gps_work_lat_raw * 1e-7f;
 2053              		.loc 1 517 0
 2054 00d0 00BF     		nop
 2055              	.L118:
 524:app_statemachine.c ****         gps_elev_deg(st.gps_lat_deg, st.gps_lon_deg, st.gps_alt_m, tlat, tlon, talt));
 525:app_statemachine.c **** }
 2056              		.loc 1 525 0
 2057 00d2 07F58077 		add	r7, r7, #256
 2058              		.cfi_def_cfa_offset 8
 2059 00d6 BD46     		mov	sp, r7
 2060              		.cfi_def_cfa_register 13
 2061              		@ sp needed
 2062 00d8 80BD     		pop	{r7, pc}
 2063              	.L123:
 2064 00da 00BF     		.align	2
 2065              	.L122:
 2066 00dc 95BFD633 		.word	869711765
 2067 00e0 6F12833A 		.word	981668463
 2068 00e4 00003443 		.word	1127481344
 2069              		.cfi_endproc
 2070              	.LFE84:
 2071              		.size	gps_update_pointing, .-gps_update_pointing
 2072              		.global	__aeabi_ui2f
 2073              		.global	__aeabi_fcmpgt
 2074              		.section	.rodata
 2075              		.align	2
 2076              	.LC26:
 2077 03a4 5B415554 		.ascii	"[AUTO_ACQ_GPS] new target -> re-slew\015\012\000"
 2077      4F5F4143 
 2077      515F4750 
 2077      535D206E 
 2077      65772074 
 2078 03cb 00       		.align	2
 2079              	.LC27:
 2080 03cc 5B415554 		.ascii	"[AUTO_ACQ_GPS] settled\015\012\000"
 2080      4F5F4143 
 2080      515F4750 
 2080      535D2073 
 2080      6574746C 
 2081              		.section	.text.gps_check_settle,"ax",%progbits
 2082              		.align	2
 2083              		.thumb
 2084              		.thumb_func
 2085              		.type	gps_check_settle, %function
 2086              	gps_check_settle:
 2087              	.LFB85:
 526:app_statemachine.c **** 
 527:app_statemachine.c **** static void gps_check_settle(app_ctx_t *ctx)
 528:app_statemachine.c **** {
 2088              		.loc 1 528 0
 2089              		.cfi_startproc
 2090              		@ args = 0, pretend = 0, frame = 40
 2091              		@ frame_needed = 1, uses_anonymous_args = 0
 2092 0000 90B5     		push	{r4, r7, lr}
 2093              		.cfi_def_cfa_offset 12
ARM GAS  C:\Users\JENNEW~1\AppData\Local\Temp\ccEqAB2L.s 			page 49


 2094              		.cfi_offset 4, -12
 2095              		.cfi_offset 7, -8
 2096              		.cfi_offset 14, -4
 2097 0002 8BB0     		sub	sp, sp, #44
 2098              		.cfi_def_cfa_offset 56
 2099 0004 00AF     		add	r7, sp, #0
 2100              		.cfi_def_cfa_register 7
 2101 0006 7860     		str	r0, [r7, #4]
 529:app_statemachine.c ****     uint32_t now = g_tick_ms;
 2102              		.loc 1 529 0
 2103 0008 674B     		ldr	r3, .L144
 2104 000a 1B68     		ldr	r3, [r3]
 2105 000c 3B62     		str	r3, [r7, #32]
 530:app_statemachine.c ****     if (now - ctx->gps_last_sample_ms < GPS_SETTLE_PERIOD_MS) return;
 2106              		.loc 1 530 0
 2107 000e 7B68     		ldr	r3, [r7, #4]
 2108 0010 1B6C     		ldr	r3, [r3, #64]
 2109 0012 3A6A     		ldr	r2, [r7, #32]
 2110 0014 D31A     		subs	r3, r2, r3
 2111 0016 312B     		cmp	r3, #49
 2112 0018 40F2BF80 		bls	.L142
 531:app_statemachine.c **** 
 532:app_statemachine.c ****     float pan, tilt;
 533:app_statemachine.c ****     if (!manu_pan_tilt_deg(ctx, &pan, &tilt)) return;  // no telemetry -> can't judge
 2113              		.loc 1 533 0
 2114 001c 07F10802 		add	r2, r7, #8
 2115 0020 07F10C03 		add	r3, r7, #12
 2116 0024 1946     		mov	r1, r3
 2117 0026 7868     		ldr	r0, [r7, #4]
 2118 0028 FFF7FEFF 		bl	manu_pan_tilt_deg
 2119 002c 0346     		mov	r3, r0
 2120 002e 002B     		cmp	r3, #0
 2121 0030 00F0B580 		beq	.L143
 534:app_statemachine.c **** 
 535:app_statemachine.c ****     float speed_dps = 1.0e9f;   // assume moving until we have a valid dt
 2122              		.loc 1 535 0
 2123 0034 5D4B     		ldr	r3, .L144+4
 2124 0036 7B62     		str	r3, [r7, #36]	@ float
 536:app_statemachine.c ****     if (ctx->gps_last_sample_ms != 0u) {
 2125              		.loc 1 536 0
 2126 0038 7B68     		ldr	r3, [r7, #4]
 2127 003a 1B6C     		ldr	r3, [r3, #64]
 2128 003c 002B     		cmp	r3, #0
 2129 003e 34D0     		beq	.L128
 2130              	.LBB11:
 537:app_statemachine.c ****         float dt = (float)(now - ctx->gps_last_sample_ms) * 0.001f;
 2131              		.loc 1 537 0
 2132 0040 7B68     		ldr	r3, [r7, #4]
 2133 0042 1B6C     		ldr	r3, [r3, #64]
 2134 0044 3A6A     		ldr	r2, [r7, #32]
 2135 0046 D31A     		subs	r3, r2, r3
 2136 0048 1846     		mov	r0, r3
 2137 004a FFF7FEFF 		bl	__aeabi_ui2f
 2138 004e 0346     		mov	r3, r0
 2139 0050 5749     		ldr	r1, .L144+8
 2140 0052 1846     		mov	r0, r3
 2141 0054 FFF7FEFF 		bl	__aeabi_fmul
ARM GAS  C:\Users\JENNEW~1\AppData\Local\Temp\ccEqAB2L.s 			page 50


 2142 0058 0346     		mov	r3, r0
 2143 005a FB61     		str	r3, [r7, #28]	@ float
 538:app_statemachine.c ****         if (dt > 0.0f)
 2144              		.loc 1 538 0
 2145 005c 4FF00001 		mov	r1, #0
 2146 0060 F869     		ldr	r0, [r7, #28]	@ float
 2147 0062 FFF7FEFF 		bl	__aeabi_fcmpgt
 2148 0066 0346     		mov	r3, r0
 2149 0068 002B     		cmp	r3, #0
 2150 006a 1ED0     		beq	.L128
 539:app_statemachine.c ****             speed_dps = (fabsf(pan  - ctx->gps_last_pan_deg) +
 2151              		.loc 1 539 0
 2152 006c FA68     		ldr	r2, [r7, #12]	@ float
 2153 006e 7B68     		ldr	r3, [r7, #4]
 2154 0070 9B6B     		ldr	r3, [r3, #56]	@ float
 2155 0072 1946     		mov	r1, r3
 2156 0074 1046     		mov	r0, r2
 2157 0076 FFF7FEFF 		bl	__aeabi_fsub
 2158 007a 0346     		mov	r3, r0
 2159 007c 23F00044 		bic	r4, r3, #-2147483648
 540:app_statemachine.c ****                          fabsf(tilt - ctx->gps_last_tilt_deg)) / dt;
 2160              		.loc 1 540 0
 2161 0080 BA68     		ldr	r2, [r7, #8]	@ float
 2162 0082 7B68     		ldr	r3, [r7, #4]
 2163 0084 DB6B     		ldr	r3, [r3, #60]	@ float
 2164 0086 1946     		mov	r1, r3
 2165 0088 1046     		mov	r0, r2
 2166 008a FFF7FEFF 		bl	__aeabi_fsub
 2167 008e 0346     		mov	r3, r0
 2168 0090 23F00043 		bic	r3, r3, #-2147483648
 539:app_statemachine.c ****             speed_dps = (fabsf(pan  - ctx->gps_last_pan_deg) +
 2169              		.loc 1 539 0
 2170 0094 1946     		mov	r1, r3
 2171 0096 2046     		mov	r0, r4
 2172 0098 FFF7FEFF 		bl	__aeabi_fadd
 2173 009c 0346     		mov	r3, r0
 2174 009e F969     		ldr	r1, [r7, #28]	@ float
 2175 00a0 1846     		mov	r0, r3
 2176 00a2 FFF7FEFF 		bl	__aeabi_fdiv
 2177 00a6 0346     		mov	r3, r0
 2178 00a8 7B62     		str	r3, [r7, #36]	@ float
 2179              	.L128:
 2180              	.LBE11:
 541:app_statemachine.c ****     }
 542:app_statemachine.c ****     ctx->gps_last_pan_deg   = pan;
 2181              		.loc 1 542 0
 2182 00aa FA68     		ldr	r2, [r7, #12]	@ float
 2183 00ac 7B68     		ldr	r3, [r7, #4]
 2184 00ae 9A63     		str	r2, [r3, #56]	@ float
 543:app_statemachine.c ****     ctx->gps_last_tilt_deg  = tilt;
 2185              		.loc 1 543 0
 2186 00b0 BA68     		ldr	r2, [r7, #8]	@ float
 2187 00b2 7B68     		ldr	r3, [r7, #4]
 2188 00b4 DA63     		str	r2, [r3, #60]	@ float
 544:app_statemachine.c ****     ctx->gps_last_sample_ms = now;
 2189              		.loc 1 544 0
 2190 00b6 7B68     		ldr	r3, [r7, #4]
ARM GAS  C:\Users\JENNEW~1\AppData\Local\Temp\ccEqAB2L.s 			page 51


 2191 00b8 3A6A     		ldr	r2, [r7, #32]
 2192 00ba 1A64     		str	r2, [r3, #64]
 545:app_statemachine.c **** 
 546:app_statemachine.c ****     /* Frame assumption: measured euler pan/tilt share the gimbal's ABSOLUTE
 547:app_statemachine.c ****        command reference. Validate on hardware; if frames differ, the low-speed
 548:app_statemachine.c ****        gate still gives a usable settle proxy. */
 549:app_statemachine.c ****     float cmd_pan_deg  = UNIT_TO_DEG(ctx->abs_pan_target);
 2193              		.loc 1 549 0
 2194 00bc 7B68     		ldr	r3, [r7, #4]
 2195 00be 1B69     		ldr	r3, [r3, #16]	@ float
 2196 00c0 3C49     		ldr	r1, .L144+12
 2197 00c2 1846     		mov	r0, r3
 2198 00c4 FFF7FEFF 		bl	__aeabi_fmul
 2199 00c8 0346     		mov	r3, r0
 2200 00ca BB61     		str	r3, [r7, #24]	@ float
 550:app_statemachine.c ****     float cmd_tilt_deg = UNIT_TO_DEG(ctx->abs_tilt_target);
 2201              		.loc 1 550 0
 2202 00cc 7B68     		ldr	r3, [r7, #4]
 2203 00ce 5B69     		ldr	r3, [r3, #20]	@ float
 2204 00d0 3849     		ldr	r1, .L144+12
 2205 00d2 1846     		mov	r0, r3
 2206 00d4 FFF7FEFF 		bl	__aeabi_fmul
 2207 00d8 0346     		mov	r3, r0
 2208 00da 7B61     		str	r3, [r7, #20]	@ float
 551:app_statemachine.c ****     uint8_t arrived = (fabsf(pan  - cmd_pan_deg)  < GPS_POINT_SETTLE_DEG) &&
 2209              		.loc 1 551 0
 2210 00dc FB68     		ldr	r3, [r7, #12]	@ float
 2211 00de B969     		ldr	r1, [r7, #24]	@ float
 2212 00e0 1846     		mov	r0, r3
 2213 00e2 FFF7FEFF 		bl	__aeabi_fsub
 2214 00e6 0346     		mov	r3, r0
 2215 00e8 23F00043 		bic	r3, r3, #-2147483648
 2216 00ec 4FF07C51 		mov	r1, #1056964608
 2217 00f0 1846     		mov	r0, r3
 2218 00f2 FFF7FEFF 		bl	__aeabi_fcmplt
 2219 00f6 0346     		mov	r3, r0
 2220 00f8 002B     		cmp	r3, #0
 2221 00fa 11D0     		beq	.L130
 552:app_statemachine.c ****                       (fabsf(tilt - cmd_tilt_deg) < GPS_POINT_SETTLE_DEG);
 2222              		.loc 1 552 0 discriminator 1
 2223 00fc BB68     		ldr	r3, [r7, #8]	@ float
 2224 00fe 7969     		ldr	r1, [r7, #20]	@ float
 2225 0100 1846     		mov	r0, r3
 2226 0102 FFF7FEFF 		bl	__aeabi_fsub
 2227 0106 0346     		mov	r3, r0
 2228 0108 23F00043 		bic	r3, r3, #-2147483648
 551:app_statemachine.c ****     uint8_t arrived = (fabsf(pan  - cmd_pan_deg)  < GPS_POINT_SETTLE_DEG) &&
 2229              		.loc 1 551 0 discriminator 1
 2230 010c 4FF07C51 		mov	r1, #1056964608
 2231 0110 1846     		mov	r0, r3
 2232 0112 FFF7FEFF 		bl	__aeabi_fcmplt
 2233 0116 0346     		mov	r3, r0
 2234 0118 002B     		cmp	r3, #0
 2235 011a 01D0     		beq	.L130
 551:app_statemachine.c ****     uint8_t arrived = (fabsf(pan  - cmd_pan_deg)  < GPS_POINT_SETTLE_DEG) &&
 2236              		.loc 1 551 0 is_stmt 0 discriminator 3
 2237 011c 0123     		movs	r3, #1
ARM GAS  C:\Users\JENNEW~1\AppData\Local\Temp\ccEqAB2L.s 			page 52


 2238 011e 00E0     		b	.L133
 2239              	.L130:
 551:app_statemachine.c ****     uint8_t arrived = (fabsf(pan  - cmd_pan_deg)  < GPS_POINT_SETTLE_DEG) &&
 2240              		.loc 1 551 0 discriminator 4
 2241 0120 0023     		movs	r3, #0
 2242              	.L133:
 551:app_statemachine.c ****     uint8_t arrived = (fabsf(pan  - cmd_pan_deg)  < GPS_POINT_SETTLE_DEG) &&
 2243              		.loc 1 551 0 discriminator 6
 2244 0122 FB74     		strb	r3, [r7, #19]
 553:app_statemachine.c ****     uint8_t slow    = (speed_dps < GPS_RATE_SETTLE_DPS);
 2245              		.loc 1 553 0 is_stmt 1 discriminator 6
 2246 0124 0123     		movs	r3, #1
 2247 0126 1C46     		mov	r4, r3
 2248 0128 4FF07E51 		mov	r1, #1065353216
 2249 012c 786A     		ldr	r0, [r7, #36]	@ float
 2250 012e FFF7FEFF 		bl	__aeabi_fcmplt
 2251 0132 0346     		mov	r3, r0
 2252 0134 002B     		cmp	r3, #0
 2253 0136 01D1     		bne	.L134
 2254 0138 0023     		movs	r3, #0
 2255 013a 1C46     		mov	r4, r3
 2256              	.L134:
 2257 013c E3B2     		uxtb	r3, r4
 2258 013e BB74     		strb	r3, [r7, #18]
 554:app_statemachine.c **** 
 555:app_statemachine.c ****     if (ctx->gps_new_target && (ctx->gps_settled || (arrived && slow))) {
 2259              		.loc 1 555 0 discriminator 6
 2260 0140 7B68     		ldr	r3, [r7, #4]
 2261 0142 93F82530 		ldrb	r3, [r3, #37]	@ zero_extendqisi2
 2262 0146 002B     		cmp	r3, #0
 2263 0148 14D0     		beq	.L135
 2264              		.loc 1 555 0 is_stmt 0 discriminator 1
 2265 014a 7B68     		ldr	r3, [r7, #4]
 2266 014c 93F83430 		ldrb	r3, [r3, #52]	@ zero_extendqisi2
 2267 0150 002B     		cmp	r3, #0
 2268 0152 05D1     		bne	.L136
 2269              		.loc 1 555 0 discriminator 2
 2270 0154 FB7C     		ldrb	r3, [r7, #19]	@ zero_extendqisi2
 2271 0156 002B     		cmp	r3, #0
 2272 0158 0CD0     		beq	.L135
 2273              		.loc 1 555 0 discriminator 3
 2274 015a BB7C     		ldrb	r3, [r7, #18]	@ zero_extendqisi2
 2275 015c 002B     		cmp	r3, #0
 2276 015e 09D0     		beq	.L135
 2277              	.L136:
 556:app_statemachine.c ****         UART_DEBUG_PutString("[AUTO_ACQ_GPS] new target -> re-slew\r\n");
 2278              		.loc 1 556 0 is_stmt 1
 2279 0160 1548     		ldr	r0, .L144+16
 2280 0162 FFF7FEFF 		bl	UART_DEBUG_PutString
 557:app_statemachine.c ****         gps_start_slew(ctx);        // copies target->work, clears flag + settled
 2281              		.loc 1 557 0
 2282 0166 7868     		ldr	r0, [r7, #4]
 2283 0168 FFF7FEFF 		bl	gps_start_slew
 558:app_statemachine.c ****         gps_update_pointing(ctx);
 2284              		.loc 1 558 0
 2285 016c 7868     		ldr	r0, [r7, #4]
 2286 016e FFF7FEFF 		bl	gps_update_pointing
ARM GAS  C:\Users\JENNEW~1\AppData\Local\Temp\ccEqAB2L.s 			page 53


 559:app_statemachine.c ****         return;
 2287              		.loc 1 559 0
 2288 0172 15E0     		b	.L124
 2289              	.L135:
 560:app_statemachine.c ****     }
 561:app_statemachine.c ****     if (!ctx->gps_settled && arrived && slow) {
 2290              		.loc 1 561 0
 2291 0174 7B68     		ldr	r3, [r7, #4]
 2292 0176 93F83430 		ldrb	r3, [r3, #52]	@ zero_extendqisi2
 2293 017a 002B     		cmp	r3, #0
 2294 017c 10D1     		bne	.L124
 2295              		.loc 1 561 0 is_stmt 0 discriminator 1
 2296 017e FB7C     		ldrb	r3, [r7, #19]	@ zero_extendqisi2
 2297 0180 002B     		cmp	r3, #0
 2298 0182 0DD0     		beq	.L124
 2299              		.loc 1 561 0 discriminator 2
 2300 0184 BB7C     		ldrb	r3, [r7, #18]	@ zero_extendqisi2
 2301 0186 002B     		cmp	r3, #0
 2302 0188 0AD0     		beq	.L124
 562:app_statemachine.c ****         ctx->gps_settled = 1u;
 2303              		.loc 1 562 0 is_stmt 1
 2304 018a 7B68     		ldr	r3, [r7, #4]
 2305 018c 0122     		movs	r2, #1
 2306 018e 83F83420 		strb	r2, [r3, #52]
 563:app_statemachine.c ****         UART_DEBUG_PutString("[AUTO_ACQ_GPS] settled\r\n");
 2307              		.loc 1 563 0
 2308 0192 0A48     		ldr	r0, .L144+20
 2309 0194 FFF7FEFF 		bl	UART_DEBUG_PutString
 2310 0198 02E0     		b	.L124
 2311              	.L142:
 530:app_statemachine.c **** 
 2312              		.loc 1 530 0
 2313 019a 00BF     		nop
 2314 019c 00E0     		b	.L124
 2315              	.L143:
 533:app_statemachine.c **** 
 2316              		.loc 1 533 0
 2317 019e 00BF     		nop
 2318              	.L124:
 564:app_statemachine.c ****     }
 565:app_statemachine.c **** }
 2319              		.loc 1 565 0
 2320 01a0 2C37     		adds	r7, r7, #44
 2321              		.cfi_def_cfa_offset 12
 2322 01a2 BD46     		mov	sp, r7
 2323              		.cfi_def_cfa_register 13
 2324              		@ sp needed
 2325 01a4 90BD     		pop	{r4, r7, pc}
 2326              	.L145:
 2327 01a6 00BF     		.align	2
 2328              	.L144:
 2329 01a8 00000000 		.word	g_tick_ms
 2330 01ac 286B6E4E 		.word	1315859240
 2331 01b0 6F12833A 		.word	981668463
 2332 01b4 00003443 		.word	1127481344
 2333 01b8 A4030000 		.word	.LC26
 2334 01bc CC030000 		.word	.LC27
ARM GAS  C:\Users\JENNEW~1\AppData\Local\Temp\ccEqAB2L.s 			page 54


 2335              		.cfi_endproc
 2336              	.LFE85:
 2337              		.size	gps_check_settle, .-gps_check_settle
 2338              		.section	.rodata
 2339 03e5 000000   		.align	2
 2340              	.LC28:
 2341 03e8 0D0A5B41 		.ascii	"\015\012[AUTO_ACQ_GPS] no GPS target -> STBY_HOLD\015"
 2341      55544F5F 
 2341      4143515F 
 2341      4750535D 
 2341      206E6F20 
 2342 0414 0A00     		.ascii	"\012\000"
 2343 0416 0000     		.align	2
 2344              	.LC29:
 2345 0418 0D0A5B41 		.ascii	"\015\012[AUTO_ACQ_GPS] open-loop GPS pointing  e=ex"
 2345      55544F5F 
 2345      4143515F 
 2345      4750535D 
 2345      206F7065 
 2346 0445 69740D0A 		.ascii	"it\015\012> \000"
 2346      3E2000
 2347              		.section	.text.entry_auto_acq_gps,"ax",%progbits
 2348              		.align	2
 2349              		.thumb
 2350              		.thumb_func
 2351              		.type	entry_auto_acq_gps, %function
 2352              	entry_auto_acq_gps:
 2353              	.LFB86:
 566:app_statemachine.c **** 
 567:app_statemachine.c **** static void entry_auto_acq_gps(app_ctx_t *ctx)
 568:app_statemachine.c **** {
 2354              		.loc 1 568 0
 2355              		.cfi_startproc
 2356              		@ args = 0, pretend = 0, frame = 8
 2357              		@ frame_needed = 1, uses_anonymous_args = 0
 2358 0000 80B5     		push	{r7, lr}
 2359              		.cfi_def_cfa_offset 8
 2360              		.cfi_offset 7, -8
 2361              		.cfi_offset 14, -4
 2362 0002 82B0     		sub	sp, sp, #8
 2363              		.cfi_def_cfa_offset 16
 2364 0004 00AF     		add	r7, sp, #0
 2365              		.cfi_def_cfa_register 7
 2366 0006 7860     		str	r0, [r7, #4]
 569:app_statemachine.c ****     if (!ctx->gps_target_set) {
 2367              		.loc 1 569 0
 2368 0008 7B68     		ldr	r3, [r7, #4]
 2369 000a 93F82430 		ldrb	r3, [r3, #36]	@ zero_extendqisi2
 2370 000e 002B     		cmp	r3, #0
 2371 0010 07D1     		bne	.L147
 570:app_statemachine.c ****         UART_DEBUG_PutString("\r\n[AUTO_ACQ_GPS] no GPS target -> STBY_HOLD\r\n");
 2372              		.loc 1 570 0
 2373 0012 0B48     		ldr	r0, .L149
 2374 0014 FFF7FEFF 		bl	UART_DEBUG_PutString
 571:app_statemachine.c ****         transition(ctx, STBY_HOLD);
 2375              		.loc 1 571 0
 2376 0018 0621     		movs	r1, #6
ARM GAS  C:\Users\JENNEW~1\AppData\Local\Temp\ccEqAB2L.s 			page 55


 2377 001a 7868     		ldr	r0, [r7, #4]
 2378 001c FFF7FEFF 		bl	transition
 572:app_statemachine.c ****         return;
 2379              		.loc 1 572 0
 2380 0020 0BE0     		b	.L146
 2381              	.L147:
 573:app_statemachine.c ****     }
 574:app_statemachine.c ****     UART_DEBUG_PutString("\r\n[AUTO_ACQ_GPS] open-loop GPS pointing  e=exit\r\n> ");
 2382              		.loc 1 574 0
 2383 0022 0848     		ldr	r0, .L149+4
 2384 0024 FFF7FEFF 		bl	UART_DEBUG_PutString
 575:app_statemachine.c ****     ctx->gps_last_sample_ms = 0u;
 2385              		.loc 1 575 0
 2386 0028 7B68     		ldr	r3, [r7, #4]
 2387 002a 0022     		movs	r2, #0
 2388 002c 1A64     		str	r2, [r3, #64]
 576:app_statemachine.c ****     gps_start_slew(ctx);        // snap target -> work, start fresh
 2389              		.loc 1 576 0
 2390 002e 7868     		ldr	r0, [r7, #4]
 2391 0030 FFF7FEFF 		bl	gps_start_slew
 577:app_statemachine.c ****     gps_update_pointing(ctx);   // initial bearing
 2392              		.loc 1 577 0
 2393 0034 7868     		ldr	r0, [r7, #4]
 2394 0036 FFF7FEFF 		bl	gps_update_pointing
 2395              	.L146:
 578:app_statemachine.c **** }
 2396              		.loc 1 578 0
 2397 003a 0837     		adds	r7, r7, #8
 2398              		.cfi_def_cfa_offset 8
 2399 003c BD46     		mov	sp, r7
 2400              		.cfi_def_cfa_register 13
 2401              		@ sp needed
 2402 003e 80BD     		pop	{r7, pc}
 2403              	.L150:
 2404              		.align	2
 2405              	.L149:
 2406 0040 E8030000 		.word	.LC28
 2407 0044 18040000 		.word	.LC29
 2408              		.cfi_endproc
 2409              	.LFE86:
 2410              		.size	entry_auto_acq_gps, .-entry_auto_acq_gps
 2411              		.section	.text.exit_auto_acq_gps,"ax",%progbits
 2412              		.align	2
 2413              		.thumb
 2414              		.thumb_func
 2415              		.type	exit_auto_acq_gps, %function
 2416              	exit_auto_acq_gps:
 2417              	.LFB87:
 579:app_statemachine.c **** static void exit_auto_acq_gps(app_ctx_t *ctx)
 580:app_statemachine.c **** {
 2418              		.loc 1 580 0
 2419              		.cfi_startproc
 2420              		@ args = 0, pretend = 0, frame = 8
 2421              		@ frame_needed = 1, uses_anonymous_args = 0
 2422              		@ link register save eliminated.
 2423 0000 80B4     		push	{r7}
 2424              		.cfi_def_cfa_offset 4
ARM GAS  C:\Users\JENNEW~1\AppData\Local\Temp\ccEqAB2L.s 			page 56


 2425              		.cfi_offset 7, -4
 2426 0002 83B0     		sub	sp, sp, #12
 2427              		.cfi_def_cfa_offset 16
 2428 0004 00AF     		add	r7, sp, #0
 2429              		.cfi_def_cfa_register 7
 2430 0006 7860     		str	r0, [r7, #4]
 581:app_statemachine.c ****     ctx->abs_pan_target = ctx->abs_tilt_target = 0.0f;
 2431              		.loc 1 581 0
 2432 0008 7B68     		ldr	r3, [r7, #4]
 2433 000a 4FF00002 		mov	r2, #0
 2434 000e 5A61     		str	r2, [r3, #20]	@ float
 2435 0010 7B68     		ldr	r3, [r7, #4]
 2436 0012 5A69     		ldr	r2, [r3, #20]	@ float
 2437 0014 7B68     		ldr	r3, [r7, #4]
 2438 0016 1A61     		str	r2, [r3, #16]	@ float
 582:app_statemachine.c **** }
 2439              		.loc 1 582 0
 2440 0018 00BF     		nop
 2441 001a 0C37     		adds	r7, r7, #12
 2442              		.cfi_def_cfa_offset 4
 2443 001c BD46     		mov	sp, r7
 2444              		.cfi_def_cfa_register 13
 2445              		@ sp needed
 2446 001e 80BC     		pop	{r7}
 2447              		.cfi_restore 7
 2448              		.cfi_def_cfa_offset 0
 2449 0020 7047     		bx	lr
 2450              		.cfi_endproc
 2451              	.LFE87:
 2452              		.size	exit_auto_acq_gps, .-exit_auto_acq_gps
 2453 0022 00BF     		.section	.text.key_auto_acq_gps,"ax",%progbits
 2454              		.align	2
 2455              		.thumb
 2456              		.thumb_func
 2457              		.type	key_auto_acq_gps, %function
 2458              	key_auto_acq_gps:
 2459              	.LFB88:
 583:app_statemachine.c **** static uint8_t key_auto_acq_gps(app_ctx_t *ctx, char k)
 584:app_statemachine.c **** {
 2460              		.loc 1 584 0
 2461              		.cfi_startproc
 2462              		@ args = 0, pretend = 0, frame = 8
 2463              		@ frame_needed = 1, uses_anonymous_args = 0
 2464 0000 80B5     		push	{r7, lr}
 2465              		.cfi_def_cfa_offset 8
 2466              		.cfi_offset 7, -8
 2467              		.cfi_offset 14, -4
 2468 0002 82B0     		sub	sp, sp, #8
 2469              		.cfi_def_cfa_offset 16
 2470 0004 00AF     		add	r7, sp, #0
 2471              		.cfi_def_cfa_register 7
 2472 0006 7860     		str	r0, [r7, #4]
 2473 0008 0B46     		mov	r3, r1
 2474 000a FB70     		strb	r3, [r7, #3]
 585:app_statemachine.c ****     switch (k) {
 2475              		.loc 1 585 0
 2476 000c FB78     		ldrb	r3, [r7, #3]	@ zero_extendqisi2
ARM GAS  C:\Users\JENNEW~1\AppData\Local\Temp\ccEqAB2L.s 			page 57


 2477 000e 652B     		cmp	r3, #101
 2478 0010 05D1     		bne	.L156
 586:app_statemachine.c ****         case 'e': transition(ctx, STBY_HOLD); return 1;
 2479              		.loc 1 586 0
 2480 0012 0621     		movs	r1, #6
 2481 0014 7868     		ldr	r0, [r7, #4]
 2482 0016 FFF7FEFF 		bl	transition
 2483 001a 0123     		movs	r3, #1
 2484 001c 00E0     		b	.L155
 2485              	.L156:
 587:app_statemachine.c ****         default:  return 0;
 2486              		.loc 1 587 0
 2487 001e 0023     		movs	r3, #0
 2488              	.L155:
 588:app_statemachine.c ****     }
 589:app_statemachine.c **** }
 2489              		.loc 1 589 0
 2490 0020 1846     		mov	r0, r3
 2491 0022 0837     		adds	r7, r7, #8
 2492              		.cfi_def_cfa_offset 8
 2493 0024 BD46     		mov	sp, r7
 2494              		.cfi_def_cfa_register 13
 2495              		@ sp needed
 2496 0026 80BD     		pop	{r7, pc}
 2497              		.cfi_endproc
 2498              	.LFE88:
 2499              		.size	key_auto_acq_gps, .-key_auto_acq_gps
 2500              		.section	.text.build_auto_acq_gps,"ax",%progbits
 2501              		.align	2
 2502              		.thumb
 2503              		.thumb_func
 2504              		.type	build_auto_acq_gps, %function
 2505              	build_auto_acq_gps:
 2506              	.LFB89:
 590:app_statemachine.c **** static void build_auto_acq_gps(const app_ctx_t *ctx, hamfly_control_t *out)
 591:app_statemachine.c **** {
 2507              		.loc 1 591 0
 2508              		.cfi_startproc
 2509              		@ args = 0, pretend = 0, frame = 8
 2510              		@ frame_needed = 1, uses_anonymous_args = 0
 2511 0000 80B5     		push	{r7, lr}
 2512              		.cfi_def_cfa_offset 8
 2513              		.cfi_offset 7, -8
 2514              		.cfi_offset 14, -4
 2515 0002 82B0     		sub	sp, sp, #8
 2516              		.cfi_def_cfa_offset 16
 2517 0004 00AF     		add	r7, sp, #0
 2518              		.cfi_def_cfa_register 7
 2519 0006 7860     		str	r0, [r7, #4]
 2520 0008 3960     		str	r1, [r7]
 592:app_statemachine.c ****     out->enable    = 1u;
 2521              		.loc 1 592 0
 2522 000a 3B68     		ldr	r3, [r7]
 2523 000c 0122     		movs	r2, #1
 2524 000e DA73     		strb	r2, [r3, #15]
 593:app_statemachine.c ****     out->kill      = 0u;
 2525              		.loc 1 593 0
ARM GAS  C:\Users\JENNEW~1\AppData\Local\Temp\ccEqAB2L.s 			page 58


 2526 0010 3B68     		ldr	r3, [r7]
 2527 0012 0022     		movs	r2, #0
 2528 0014 1A74     		strb	r2, [r3, #16]
 594:app_statemachine.c ****     out->roll_mode = HAMFLY_DEFER;
 2529              		.loc 1 594 0
 2530 0016 3B68     		ldr	r3, [r7]
 2531 0018 0022     		movs	r2, #0
 2532 001a 9A73     		strb	r2, [r3, #14]
 595:app_statemachine.c ****     out->roll      = 0.0f;
 2533              		.loc 1 595 0
 2534 001c 3B68     		ldr	r3, [r7]
 2535 001e 4FF00002 		mov	r2, #0
 2536 0022 9A60     		str	r2, [r3, #8]	@ float
 596:app_statemachine.c ****     out->pan_mode  = out->tilt_mode = HAMFLY_ABSOLUTE;
 2537              		.loc 1 596 0
 2538 0024 3B68     		ldr	r3, [r7]
 2539 0026 0222     		movs	r2, #2
 2540 0028 5A73     		strb	r2, [r3, #13]
 2541 002a 3B68     		ldr	r3, [r7]
 2542 002c 5A7B     		ldrb	r2, [r3, #13]	@ zero_extendqisi2
 2543 002e 3B68     		ldr	r3, [r7]
 2544 0030 1A73     		strb	r2, [r3, #12]
 597:app_statemachine.c ****     out->pan  = CLAMP(ctx->abs_pan_target,  -1.0f, 1.0f);
 2545              		.loc 1 597 0
 2546 0032 7B68     		ldr	r3, [r7, #4]
 2547 0034 1B69     		ldr	r3, [r3, #16]	@ float
 2548 0036 1D49     		ldr	r1, .L178
 2549 0038 1846     		mov	r0, r3
 2550 003a FFF7FEFF 		bl	__aeabi_fcmplt
 2551 003e 0346     		mov	r3, r0
 2552 0040 002B     		cmp	r3, #0
 2553 0042 01D0     		beq	.L174
 2554              		.loc 1 597 0 is_stmt 0 discriminator 1
 2555 0044 194B     		ldr	r3, .L178
 2556 0046 0EE0     		b	.L160
 2557              	.L174:
 2558              		.loc 1 597 0 discriminator 2
 2559 0048 7B68     		ldr	r3, [r7, #4]
 2560 004a 1B69     		ldr	r3, [r3, #16]	@ float
 2561 004c 4FF07E51 		mov	r1, #1065353216
 2562 0050 1846     		mov	r0, r3
 2563 0052 FFF7FEFF 		bl	__aeabi_fcmpgt
 2564 0056 0346     		mov	r3, r0
 2565 0058 002B     		cmp	r3, #0
 2566 005a 02D0     		beq	.L175
 2567              		.loc 1 597 0 discriminator 4
 2568 005c 4FF07E53 		mov	r3, #1065353216
 2569 0060 01E0     		b	.L160
 2570              	.L175:
 2571              		.loc 1 597 0 discriminator 5
 2572 0062 7B68     		ldr	r3, [r7, #4]
 2573 0064 1B69     		ldr	r3, [r3, #16]	@ float
 2574              	.L160:
 2575              		.loc 1 597 0 discriminator 8
 2576 0066 3A68     		ldr	r2, [r7]
 2577 0068 1360     		str	r3, [r2]	@ float
 598:app_statemachine.c ****     out->tilt = CLAMP(ctx->abs_tilt_target, -1.0f, 1.0f);
ARM GAS  C:\Users\JENNEW~1\AppData\Local\Temp\ccEqAB2L.s 			page 59


 2578              		.loc 1 598 0 is_stmt 1 discriminator 8
 2579 006a 7B68     		ldr	r3, [r7, #4]
 2580 006c 5B69     		ldr	r3, [r3, #20]	@ float
 2581 006e 0F49     		ldr	r1, .L178
 2582 0070 1846     		mov	r0, r3
 2583 0072 FFF7FEFF 		bl	__aeabi_fcmplt
 2584 0076 0346     		mov	r3, r0
 2585 0078 002B     		cmp	r3, #0
 2586 007a 01D0     		beq	.L176
 2587              		.loc 1 598 0 is_stmt 0 discriminator 1
 2588 007c 0B4B     		ldr	r3, .L178
 2589 007e 0EE0     		b	.L166
 2590              	.L176:
 2591              		.loc 1 598 0 discriminator 2
 2592 0080 7B68     		ldr	r3, [r7, #4]
 2593 0082 5B69     		ldr	r3, [r3, #20]	@ float
 2594 0084 4FF07E51 		mov	r1, #1065353216
 2595 0088 1846     		mov	r0, r3
 2596 008a FFF7FEFF 		bl	__aeabi_fcmpgt
 2597 008e 0346     		mov	r3, r0
 2598 0090 002B     		cmp	r3, #0
 2599 0092 02D0     		beq	.L177
 2600              		.loc 1 598 0 discriminator 4
 2601 0094 4FF07E53 		mov	r3, #1065353216
 2602 0098 01E0     		b	.L166
 2603              	.L177:
 2604              		.loc 1 598 0 discriminator 5
 2605 009a 7B68     		ldr	r3, [r7, #4]
 2606 009c 5B69     		ldr	r3, [r3, #20]	@ float
 2607              	.L166:
 2608              		.loc 1 598 0 discriminator 8
 2609 009e 3A68     		ldr	r2, [r7]
 2610 00a0 5360     		str	r3, [r2, #4]	@ float
 599:app_statemachine.c **** }
 2611              		.loc 1 599 0 is_stmt 1 discriminator 8
 2612 00a2 00BF     		nop
 2613 00a4 0837     		adds	r7, r7, #8
 2614              		.cfi_def_cfa_offset 8
 2615 00a6 BD46     		mov	sp, r7
 2616              		.cfi_def_cfa_register 13
 2617              		@ sp needed
 2618 00a8 80BD     		pop	{r7, pc}
 2619              	.L179:
 2620 00aa 00BF     		.align	2
 2621              	.L178:
 2622 00ac 000080BF 		.word	-1082130432
 2623              		.cfi_endproc
 2624              	.LFE89:
 2625              		.size	build_auto_acq_gps, .-build_auto_acq_gps
 2626              		.section	.rodata
 2627              		.align	2
 2628              	.LC30:
 2629 044c 0D0A5B41 		.ascii	"\015\012[AUTO_ACQ_SPIRAL] placeholder (NI).\015\012"
 2629      55544F5F 
 2629      4143515F 
 2629      53504952 
 2629      414C5D20 
ARM GAS  C:\Users\JENNEW~1\AppData\Local\Temp\ccEqAB2L.s 			page 60


 2630 0473 3E2000   		.ascii	"> \000"
 2631              		.section	.text.entry_auto_acq_spiral,"ax",%progbits
 2632              		.align	2
 2633              		.thumb
 2634              		.thumb_func
 2635              		.type	entry_auto_acq_spiral, %function
 2636              	entry_auto_acq_spiral:
 2637              	.LFB90:
 600:app_statemachine.c **** 
 601:app_statemachine.c **** // AUTO_SPIRAL %=================================================================%
 602:app_statemachine.c **** static void entry_auto_acq_spiral(app_ctx_t *ctx)
 603:app_statemachine.c **** {
 2638              		.loc 1 603 0
 2639              		.cfi_startproc
 2640              		@ args = 0, pretend = 0, frame = 8
 2641              		@ frame_needed = 1, uses_anonymous_args = 0
 2642 0000 80B5     		push	{r7, lr}
 2643              		.cfi_def_cfa_offset 8
 2644              		.cfi_offset 7, -8
 2645              		.cfi_offset 14, -4
 2646 0002 82B0     		sub	sp, sp, #8
 2647              		.cfi_def_cfa_offset 16
 2648 0004 00AF     		add	r7, sp, #0
 2649              		.cfi_def_cfa_register 7
 2650 0006 7860     		str	r0, [r7, #4]
 604:app_statemachine.c ****     (void)ctx;
 605:app_statemachine.c ****     UART_DEBUG_PutString("\r\n[AUTO_ACQ_SPIRAL] placeholder (NI).\r\n> ");
 2651              		.loc 1 605 0
 2652 0008 0348     		ldr	r0, .L181
 2653 000a FFF7FEFF 		bl	UART_DEBUG_PutString
 606:app_statemachine.c **** }
 2654              		.loc 1 606 0
 2655 000e 00BF     		nop
 2656 0010 0837     		adds	r7, r7, #8
 2657              		.cfi_def_cfa_offset 8
 2658 0012 BD46     		mov	sp, r7
 2659              		.cfi_def_cfa_register 13
 2660              		@ sp needed
 2661 0014 80BD     		pop	{r7, pc}
 2662              	.L182:
 2663 0016 00BF     		.align	2
 2664              	.L181:
 2665 0018 4C040000 		.word	.LC30
 2666              		.cfi_endproc
 2667              	.LFE90:
 2668              		.size	entry_auto_acq_spiral, .-entry_auto_acq_spiral
 2669              		.section	.rodata
 2670 0476 0000     		.align	2
 2671              	.LC31:
 2672 0478 0D0A5B41 		.ascii	"\015\012[AUTO_TRACKING] closed-loop  e=exit\015\012"
 2672      55544F5F 
 2672      54524143 
 2672      4B494E47 
 2672      5D20636C 
 2673 049f 3E2000   		.ascii	"> \000"
 2674              		.section	.text.entry_auto_tracking,"ax",%progbits
 2675              		.align	2
ARM GAS  C:\Users\JENNEW~1\AppData\Local\Temp\ccEqAB2L.s 			page 61


 2676              		.thumb
 2677              		.thumb_func
 2678              		.type	entry_auto_tracking, %function
 2679              	entry_auto_tracking:
 2680              	.LFB91:
 607:app_statemachine.c **** 
 608:app_statemachine.c **** // AUTO_TRACKING %=================================================================%
 609:app_statemachine.c **** static void entry_auto_tracking(app_ctx_t *ctx)
 610:app_statemachine.c **** {
 2681              		.loc 1 610 0
 2682              		.cfi_startproc
 2683              		@ args = 0, pretend = 0, frame = 8
 2684              		@ frame_needed = 1, uses_anonymous_args = 0
 2685 0000 80B5     		push	{r7, lr}
 2686              		.cfi_def_cfa_offset 8
 2687              		.cfi_offset 7, -8
 2688              		.cfi_offset 14, -4
 2689 0002 82B0     		sub	sp, sp, #8
 2690              		.cfi_def_cfa_offset 16
 2691 0004 00AF     		add	r7, sp, #0
 2692              		.cfi_def_cfa_register 7
 2693 0006 7860     		str	r0, [r7, #4]
 611:app_statemachine.c ****     ctx->track_cx_last = 0;  // Clear last centroid value (TODO: Init wht the first centroid packet
 2694              		.loc 1 611 0
 2695 0008 7B68     		ldr	r3, [r7, #4]
 2696 000a 0022     		movs	r2, #0
 2697 000c A3F84820 		strh	r2, [r3, #72]	@ movhi
 612:app_statemachine.c ****     ctx->track_cy_last = 0;
 2698              		.loc 1 612 0
 2699 0010 7B68     		ldr	r3, [r7, #4]
 2700 0012 0022     		movs	r2, #0
 2701 0014 A3F84A20 		strh	r2, [r3, #74]	@ movhi
 613:app_statemachine.c ****     UART_DEBUG_PutString("\r\n[AUTO_TRACKING] closed-loop  e=exit\r\n> ");
 2702              		.loc 1 613 0
 2703 0018 0348     		ldr	r0, .L184
 2704 001a FFF7FEFF 		bl	UART_DEBUG_PutString
 614:app_statemachine.c **** }
 2705              		.loc 1 614 0
 2706 001e 00BF     		nop
 2707 0020 0837     		adds	r7, r7, #8
 2708              		.cfi_def_cfa_offset 8
 2709 0022 BD46     		mov	sp, r7
 2710              		.cfi_def_cfa_register 13
 2711              		@ sp needed
 2712 0024 80BD     		pop	{r7, pc}
 2713              	.L185:
 2714 0026 00BF     		.align	2
 2715              	.L184:
 2716 0028 78040000 		.word	.LC31
 2717              		.cfi_endproc
 2718              	.LFE91:
 2719              		.size	entry_auto_tracking, .-entry_auto_tracking
 2720              		.section	.text.key_auto_tracking,"ax",%progbits
 2721              		.align	2
 2722              		.thumb
 2723              		.thumb_func
 2724              		.type	key_auto_tracking, %function
ARM GAS  C:\Users\JENNEW~1\AppData\Local\Temp\ccEqAB2L.s 			page 62


 2725              	key_auto_tracking:
 2726              	.LFB92:
 615:app_statemachine.c **** static uint8_t key_auto_tracking(app_ctx_t *ctx, char k)
 616:app_statemachine.c **** {
 2727              		.loc 1 616 0
 2728              		.cfi_startproc
 2729              		@ args = 0, pretend = 0, frame = 8
 2730              		@ frame_needed = 1, uses_anonymous_args = 0
 2731 0000 80B5     		push	{r7, lr}
 2732              		.cfi_def_cfa_offset 8
 2733              		.cfi_offset 7, -8
 2734              		.cfi_offset 14, -4
 2735 0002 82B0     		sub	sp, sp, #8
 2736              		.cfi_def_cfa_offset 16
 2737 0004 00AF     		add	r7, sp, #0
 2738              		.cfi_def_cfa_register 7
 2739 0006 7860     		str	r0, [r7, #4]
 2740 0008 0B46     		mov	r3, r1
 2741 000a FB70     		strb	r3, [r7, #3]
 617:app_statemachine.c ****     // TEMP: Debug exit to hold with e over serial.
 618:app_statemachine.c ****     switch (k) {
 2742              		.loc 1 618 0
 2743 000c FB78     		ldrb	r3, [r7, #3]	@ zero_extendqisi2
 2744 000e 652B     		cmp	r3, #101
 2745 0010 05D1     		bne	.L190
 619:app_statemachine.c ****         case 'e': transition(ctx, STBY_HOLD); return 1;
 2746              		.loc 1 619 0
 2747 0012 0621     		movs	r1, #6
 2748 0014 7868     		ldr	r0, [r7, #4]
 2749 0016 FFF7FEFF 		bl	transition
 2750 001a 0123     		movs	r3, #1
 2751 001c 00E0     		b	.L189
 2752              	.L190:
 620:app_statemachine.c ****         default:  return 0;
 2753              		.loc 1 620 0
 2754 001e 0023     		movs	r3, #0
 2755              	.L189:
 621:app_statemachine.c ****     }
 622:app_statemachine.c **** }
 2756              		.loc 1 622 0
 2757 0020 1846     		mov	r0, r3
 2758 0022 0837     		adds	r7, r7, #8
 2759              		.cfi_def_cfa_offset 8
 2760 0024 BD46     		mov	sp, r7
 2761              		.cfi_def_cfa_register 13
 2762              		@ sp needed
 2763 0026 80BD     		pop	{r7, pc}
 2764              		.cfi_endproc
 2765              	.LFE92:
 2766              		.size	key_auto_tracking, .-key_auto_tracking
 2767              		.section	.text.build_auto_tracking,"ax",%progbits
 2768              		.align	2
 2769              		.thumb
 2770              		.thumb_func
 2771              		.type	build_auto_tracking, %function
 2772              	build_auto_tracking:
 2773              	.LFB93:
ARM GAS  C:\Users\JENNEW~1\AppData\Local\Temp\ccEqAB2L.s 			page 63


 623:app_statemachine.c **** 
 624:app_statemachine.c **** static void build_auto_tracking(const app_ctx_t *ctx, hamfly_control_t *out)
 625:app_statemachine.c **** {
 2774              		.loc 1 625 0
 2775              		.cfi_startproc
 2776              		@ args = 0, pretend = 0, frame = 16
 2777              		@ frame_needed = 1, uses_anonymous_args = 0
 2778 0000 80B5     		push	{r7, lr}
 2779              		.cfi_def_cfa_offset 8
 2780              		.cfi_offset 7, -8
 2781              		.cfi_offset 14, -4
 2782 0002 84B0     		sub	sp, sp, #16
 2783              		.cfi_def_cfa_offset 24
 2784 0004 00AF     		add	r7, sp, #0
 2785              		.cfi_def_cfa_register 7
 2786 0006 7860     		str	r0, [r7, #4]
 2787 0008 3960     		str	r1, [r7]
 626:app_statemachine.c ****     // Construct control packet from centroid error signal.
 627:app_statemachine.c ****     out->enable    = 1u;  // Update these if not already set.
 2788              		.loc 1 627 0
 2789 000a 3B68     		ldr	r3, [r7]
 2790 000c 0122     		movs	r2, #1
 2791 000e DA73     		strb	r2, [r3, #15]
 628:app_statemachine.c ****     out->kill      = 0u;
 2792              		.loc 1 628 0
 2793 0010 3B68     		ldr	r3, [r7]
 2794 0012 0022     		movs	r2, #0
 2795 0014 1A74     		strb	r2, [r3, #16]
 629:app_statemachine.c ****     out->roll_mode = HAMFLY_DEFER;  // No roll
 2796              		.loc 1 629 0
 2797 0016 3B68     		ldr	r3, [r7]
 2798 0018 0022     		movs	r2, #0
 2799 001a 9A73     		strb	r2, [r3, #14]
 630:app_statemachine.c ****     out->roll      = 0.0f;
 2800              		.loc 1 630 0
 2801 001c 3B68     		ldr	r3, [r7]
 2802 001e 4FF00002 		mov	r2, #0
 2803 0022 9A60     		str	r2, [r3, #8]	@ float
 631:app_statemachine.c ****     out->pan_mode  = out->tilt_mode = HAMFLY_RATE;
 2804              		.loc 1 631 0
 2805 0024 3B68     		ldr	r3, [r7]
 2806 0026 0122     		movs	r2, #1
 2807 0028 5A73     		strb	r2, [r3, #13]
 2808 002a 3B68     		ldr	r3, [r7]
 2809 002c 5A7B     		ldrb	r2, [r3, #13]	@ zero_extendqisi2
 2810 002e 3B68     		ldr	r3, [r7]
 2811 0030 1A73     		strb	r2, [r3, #12]
 632:app_statemachine.c ****     float cx_mrad = (float)ctx->track_cx_last * 0.1f;  // 0.1 mrad to mrad
 2812              		.loc 1 632 0
 2813 0032 7B68     		ldr	r3, [r7, #4]
 2814 0034 B3F94830 		ldrsh	r3, [r3, #72]
 2815 0038 1846     		mov	r0, r3
 2816 003a FFF7FEFF 		bl	__aeabi_i2f
 2817 003e 0346     		mov	r3, r0
 2818 0040 3749     		ldr	r1, .L212
 2819 0042 1846     		mov	r0, r3
 2820 0044 FFF7FEFF 		bl	__aeabi_fmul
ARM GAS  C:\Users\JENNEW~1\AppData\Local\Temp\ccEqAB2L.s 			page 64


 2821 0048 0346     		mov	r3, r0
 2822 004a FB60     		str	r3, [r7, #12]	@ float
 633:app_statemachine.c ****     float cy_mrad = (float)ctx->track_cy_last * 0.1f;
 2823              		.loc 1 633 0
 2824 004c 7B68     		ldr	r3, [r7, #4]
 2825 004e B3F94A30 		ldrsh	r3, [r3, #74]
 2826 0052 1846     		mov	r0, r3
 2827 0054 FFF7FEFF 		bl	__aeabi_i2f
 2828 0058 0346     		mov	r3, r0
 2829 005a 3149     		ldr	r1, .L212
 2830 005c 1846     		mov	r0, r3
 2831 005e FFF7FEFF 		bl	__aeabi_fmul
 2832 0062 0346     		mov	r3, r0
 2833 0064 BB60     		str	r3, [r7, #8]	@ float
 634:app_statemachine.c ****     // Simple proportional gain linear feedback.
 635:app_statemachine.c ****     out->pan  =  CLAMP(ctx->track_kp * cx_mrad, -1.0f, 1.0f);  // TODO: Confirm direction with phys
 2834              		.loc 1 635 0
 2835 0066 7B68     		ldr	r3, [r7, #4]
 2836 0068 5B6C     		ldr	r3, [r3, #68]	@ float
 2837 006a F968     		ldr	r1, [r7, #12]	@ float
 2838 006c 1846     		mov	r0, r3
 2839 006e FFF7FEFF 		bl	__aeabi_fmul
 2840 0072 0346     		mov	r3, r0
 2841 0074 2B49     		ldr	r1, .L212+4
 2842 0076 1846     		mov	r0, r3
 2843 0078 FFF7FEFF 		bl	__aeabi_fcmplt
 2844 007c 0346     		mov	r3, r0
 2845 007e 002B     		cmp	r3, #0
 2846 0080 01D0     		beq	.L208
 2847              		.loc 1 635 0 is_stmt 0 discriminator 1
 2848 0082 284B     		ldr	r3, .L212+4
 2849 0084 18E0     		b	.L194
 2850              	.L208:
 2851              		.loc 1 635 0 discriminator 2
 2852 0086 7B68     		ldr	r3, [r7, #4]
 2853 0088 5B6C     		ldr	r3, [r3, #68]	@ float
 2854 008a F968     		ldr	r1, [r7, #12]	@ float
 2855 008c 1846     		mov	r0, r3
 2856 008e FFF7FEFF 		bl	__aeabi_fmul
 2857 0092 0346     		mov	r3, r0
 2858 0094 4FF07E51 		mov	r1, #1065353216
 2859 0098 1846     		mov	r0, r3
 2860 009a FFF7FEFF 		bl	__aeabi_fcmpgt
 2861 009e 0346     		mov	r3, r0
 2862 00a0 002B     		cmp	r3, #0
 2863 00a2 02D0     		beq	.L209
 2864              		.loc 1 635 0 discriminator 4
 2865 00a4 4FF07E53 		mov	r3, #1065353216
 2866 00a8 06E0     		b	.L194
 2867              	.L209:
 2868              		.loc 1 635 0 discriminator 5
 2869 00aa 7B68     		ldr	r3, [r7, #4]
 2870 00ac 5B6C     		ldr	r3, [r3, #68]	@ float
 2871 00ae F968     		ldr	r1, [r7, #12]	@ float
 2872 00b0 1846     		mov	r0, r3
 2873 00b2 FFF7FEFF 		bl	__aeabi_fmul
 2874 00b6 0346     		mov	r3, r0
ARM GAS  C:\Users\JENNEW~1\AppData\Local\Temp\ccEqAB2L.s 			page 65


 2875              	.L194:
 2876              		.loc 1 635 0 discriminator 8
 2877 00b8 3A68     		ldr	r2, [r7]
 2878 00ba 1360     		str	r3, [r2]	@ float
 636:app_statemachine.c ****     out->tilt = -CLAMP(ctx->track_kp * cy_mrad, -1.0f, 1.0f);  // +cy = up
 2879              		.loc 1 636 0 is_stmt 1 discriminator 8
 2880 00bc 7B68     		ldr	r3, [r7, #4]
 2881 00be 5B6C     		ldr	r3, [r3, #68]	@ float
 2882 00c0 B968     		ldr	r1, [r7, #8]	@ float
 2883 00c2 1846     		mov	r0, r3
 2884 00c4 FFF7FEFF 		bl	__aeabi_fmul
 2885 00c8 0346     		mov	r3, r0
 2886 00ca 1649     		ldr	r1, .L212+4
 2887 00cc 1846     		mov	r0, r3
 2888 00ce FFF7FEFF 		bl	__aeabi_fcmplt
 2889 00d2 0346     		mov	r3, r0
 2890 00d4 002B     		cmp	r3, #0
 2891 00d6 02D0     		beq	.L210
 2892              		.loc 1 636 0 is_stmt 0 discriminator 1
 2893 00d8 4FF07E53 		mov	r3, #1065353216
 2894 00dc 19E0     		b	.L200
 2895              	.L210:
 2896              		.loc 1 636 0 discriminator 2
 2897 00de 7B68     		ldr	r3, [r7, #4]
 2898 00e0 5B6C     		ldr	r3, [r3, #68]	@ float
 2899 00e2 B968     		ldr	r1, [r7, #8]	@ float
 2900 00e4 1846     		mov	r0, r3
 2901 00e6 FFF7FEFF 		bl	__aeabi_fmul
 2902 00ea 0346     		mov	r3, r0
 2903 00ec 4FF07E51 		mov	r1, #1065353216
 2904 00f0 1846     		mov	r0, r3
 2905 00f2 FFF7FEFF 		bl	__aeabi_fcmpgt
 2906 00f6 0346     		mov	r3, r0
 2907 00f8 002B     		cmp	r3, #0
 2908 00fa 01D0     		beq	.L211
 2909              		.loc 1 636 0 discriminator 4
 2910 00fc 094B     		ldr	r3, .L212+4
 2911 00fe 08E0     		b	.L200
 2912              	.L211:
 2913              		.loc 1 636 0 discriminator 5
 2914 0100 7B68     		ldr	r3, [r7, #4]
 2915 0102 5B6C     		ldr	r3, [r3, #68]	@ float
 2916 0104 B968     		ldr	r1, [r7, #8]	@ float
 2917 0106 1846     		mov	r0, r3
 2918 0108 FFF7FEFF 		bl	__aeabi_fmul
 2919 010c 0346     		mov	r3, r0
 2920 010e 83F00043 		eor	r3, r3, #-2147483648
 2921              	.L200:
 2922              		.loc 1 636 0 discriminator 8
 2923 0112 3A68     		ldr	r2, [r7]
 2924 0114 5360     		str	r3, [r2, #4]	@ float
 637:app_statemachine.c **** }
 2925              		.loc 1 637 0 is_stmt 1 discriminator 8
 2926 0116 00BF     		nop
 2927 0118 1037     		adds	r7, r7, #16
 2928              		.cfi_def_cfa_offset 8
 2929 011a BD46     		mov	sp, r7
ARM GAS  C:\Users\JENNEW~1\AppData\Local\Temp\ccEqAB2L.s 			page 66


 2930              		.cfi_def_cfa_register 13
 2931              		@ sp needed
 2932 011c 80BD     		pop	{r7, pc}
 2933              	.L213:
 2934 011e 00BF     		.align	2
 2935              	.L212:
 2936 0120 CDCCCC3D 		.word	1036831949
 2937 0124 000080BF 		.word	-1082130432
 2938              		.cfi_endproc
 2939              	.LFE93:
 2940              		.size	build_auto_tracking, .-build_auto_tracking
 2941              		.section	.rodata
 2942 04a2 0000     		.align	2
 2943              	.LC32:
 2944 04a4 0D0A5B41 		.ascii	"\015\012[AUTO_LOSS] centroid lost  1=hold  3=retry\015"
 2944      55544F5F 
 2944      4C4F5353 
 2944      5D206365 
 2944      6E74726F 
 2945 04d1 0A3E2000 		.ascii	"\012> \000"
 2946              		.section	.text.entry_auto_loss,"ax",%progbits
 2947              		.align	2
 2948              		.thumb
 2949              		.thumb_func
 2950              		.type	entry_auto_loss, %function
 2951              	entry_auto_loss:
 2952              	.LFB94:
 638:app_statemachine.c **** 
 639:app_statemachine.c **** // AUTO_LOSS %=================================================================%
 640:app_statemachine.c **** static void entry_auto_loss(app_ctx_t *ctx)
 641:app_statemachine.c **** {
 2953              		.loc 1 641 0
 2954              		.cfi_startproc
 2955              		@ args = 0, pretend = 0, frame = 8
 2956              		@ frame_needed = 1, uses_anonymous_args = 0
 2957 0000 80B5     		push	{r7, lr}
 2958              		.cfi_def_cfa_offset 8
 2959              		.cfi_offset 7, -8
 2960              		.cfi_offset 14, -4
 2961 0002 82B0     		sub	sp, sp, #8
 2962              		.cfi_def_cfa_offset 16
 2963 0004 00AF     		add	r7, sp, #0
 2964              		.cfi_def_cfa_register 7
 2965 0006 7860     		str	r0, [r7, #4]
 642:app_statemachine.c ****     // TODO: Loss should hold and wait. If packets re-commence we go back into tracking,
 643:app_statemachine.c ****     // TODO: Let user trigger spiral search, GPS re-aqc, or exit to STBY later.
 644:app_statemachine.c ****     (void)ctx;
 645:app_statemachine.c ****     UART_DEBUG_PutString("\r\n[AUTO_LOSS] centroid lost  1=hold  3=retry\r\n> ");
 2966              		.loc 1 645 0
 2967 0008 0348     		ldr	r0, .L215
 2968 000a FFF7FEFF 		bl	UART_DEBUG_PutString
 646:app_statemachine.c **** }
 2969              		.loc 1 646 0
 2970 000e 00BF     		nop
 2971 0010 0837     		adds	r7, r7, #8
 2972              		.cfi_def_cfa_offset 8
 2973 0012 BD46     		mov	sp, r7
ARM GAS  C:\Users\JENNEW~1\AppData\Local\Temp\ccEqAB2L.s 			page 67


 2974              		.cfi_def_cfa_register 13
 2975              		@ sp needed
 2976 0014 80BD     		pop	{r7, pc}
 2977              	.L216:
 2978 0016 00BF     		.align	2
 2979              	.L215:
 2980 0018 A4040000 		.word	.LC32
 2981              		.cfi_endproc
 2982              	.LFE94:
 2983              		.size	entry_auto_loss, .-entry_auto_loss
 2984              		.section	.text.key_auto_loss,"ax",%progbits
 2985              		.align	2
 2986              		.thumb
 2987              		.thumb_func
 2988              		.type	key_auto_loss, %function
 2989              	key_auto_loss:
 2990              	.LFB95:
 647:app_statemachine.c **** static uint8_t key_auto_loss(app_ctx_t *ctx, char k)
 648:app_statemachine.c **** {
 2991              		.loc 1 648 0
 2992              		.cfi_startproc
 2993              		@ args = 0, pretend = 0, frame = 8
 2994              		@ frame_needed = 1, uses_anonymous_args = 0
 2995 0000 80B5     		push	{r7, lr}
 2996              		.cfi_def_cfa_offset 8
 2997              		.cfi_offset 7, -8
 2998              		.cfi_offset 14, -4
 2999 0002 82B0     		sub	sp, sp, #8
 3000              		.cfi_def_cfa_offset 16
 3001 0004 00AF     		add	r7, sp, #0
 3002              		.cfi_def_cfa_register 7
 3003 0006 7860     		str	r0, [r7, #4]
 3004 0008 0B46     		mov	r3, r1
 3005 000a FB70     		strb	r3, [r7, #3]
 649:app_statemachine.c ****     switch (k) {  // Keep stationary, spiral search if requested.
 3006              		.loc 1 649 0
 3007 000c FB78     		ldrb	r3, [r7, #3]	@ zero_extendqisi2
 3008 000e 332B     		cmp	r3, #51
 3009 0010 05D1     		bne	.L221
 650:app_statemachine.c ****         case '3': transition(ctx, AUTO_ACQ_SPIRAL); return 1;
 3010              		.loc 1 650 0
 3011 0012 0A21     		movs	r1, #10
 3012 0014 7868     		ldr	r0, [r7, #4]
 3013 0016 FFF7FEFF 		bl	transition
 3014 001a 0123     		movs	r3, #1
 3015 001c 00E0     		b	.L220
 3016              	.L221:
 651:app_statemachine.c ****         default:  return 0;
 3017              		.loc 1 651 0
 3018 001e 0023     		movs	r3, #0
 3019              	.L220:
 652:app_statemachine.c ****     }
 653:app_statemachine.c **** }
 3020              		.loc 1 653 0
 3021 0020 1846     		mov	r0, r3
 3022 0022 0837     		adds	r7, r7, #8
 3023              		.cfi_def_cfa_offset 8
ARM GAS  C:\Users\JENNEW~1\AppData\Local\Temp\ccEqAB2L.s 			page 68


 3024 0024 BD46     		mov	sp, r7
 3025              		.cfi_def_cfa_register 13
 3026              		@ sp needed
 3027 0026 80BD     		pop	{r7, pc}
 3028              		.cfi_endproc
 3029              	.LFE95:
 3030              		.size	key_auto_loss, .-key_auto_loss
 3031              		.section	.rodata
 3032 04d5 000000   		.align	2
 3033              	.LC33:
 3034 04d8 0D0A5B41 		.ascii	"\015\012[AUTO_NO_LOCK] acquisition failed  1=hold  "
 3034      55544F5F 
 3034      4E4F5F4C 
 3034      4F434B5D 
 3034      20616371 
 3035 0505 333D7265 		.ascii	"3=retry\015\012> \000"
 3035      7472790D 
 3035      0A3E2000 
 3036              		.section	.text.entry_auto_no_lock,"ax",%progbits
 3037              		.align	2
 3038              		.thumb
 3039              		.thumb_func
 3040              		.type	entry_auto_no_lock, %function
 3041              	entry_auto_no_lock:
 3042              	.LFB96:
 654:app_statemachine.c **** 
 655:app_statemachine.c **** // AUTO_NO_LOCK %=================================================================%
 656:app_statemachine.c **** static void entry_auto_no_lock(app_ctx_t *ctx)
 657:app_statemachine.c **** {
 3043              		.loc 1 657 0
 3044              		.cfi_startproc
 3045              		@ args = 0, pretend = 0, frame = 8
 3046              		@ frame_needed = 1, uses_anonymous_args = 0
 3047 0000 80B5     		push	{r7, lr}
 3048              		.cfi_def_cfa_offset 8
 3049              		.cfi_offset 7, -8
 3050              		.cfi_offset 14, -4
 3051 0002 82B0     		sub	sp, sp, #8
 3052              		.cfi_def_cfa_offset 16
 3053 0004 00AF     		add	r7, sp, #0
 3054              		.cfi_def_cfa_register 7
 3055 0006 7860     		str	r0, [r7, #4]
 658:app_statemachine.c ****     (void)ctx;
 659:app_statemachine.c ****     UART_DEBUG_PutString("\r\n[AUTO_NO_LOCK] acquisition failed  1=hold  3=retry\r\n> ");
 3056              		.loc 1 659 0
 3057 0008 0348     		ldr	r0, .L223
 3058 000a FFF7FEFF 		bl	UART_DEBUG_PutString
 660:app_statemachine.c **** }
 3059              		.loc 1 660 0
 3060 000e 00BF     		nop
 3061 0010 0837     		adds	r7, r7, #8
 3062              		.cfi_def_cfa_offset 8
 3063 0012 BD46     		mov	sp, r7
 3064              		.cfi_def_cfa_register 13
 3065              		@ sp needed
 3066 0014 80BD     		pop	{r7, pc}
 3067              	.L224:
ARM GAS  C:\Users\JENNEW~1\AppData\Local\Temp\ccEqAB2L.s 			page 69


 3068 0016 00BF     		.align	2
 3069              	.L223:
 3070 0018 D8040000 		.word	.LC33
 3071              		.cfi_endproc
 3072              	.LFE96:
 3073              		.size	entry_auto_no_lock, .-entry_auto_no_lock
 3074              		.section	.text.key_auto_no_lock,"ax",%progbits
 3075              		.align	2
 3076              		.thumb
 3077              		.thumb_func
 3078              		.type	key_auto_no_lock, %function
 3079              	key_auto_no_lock:
 3080              	.LFB97:
 661:app_statemachine.c **** static uint8_t key_auto_no_lock(app_ctx_t *ctx, char k)
 662:app_statemachine.c **** {
 3081              		.loc 1 662 0
 3082              		.cfi_startproc
 3083              		@ args = 0, pretend = 0, frame = 8
 3084              		@ frame_needed = 1, uses_anonymous_args = 0
 3085 0000 80B5     		push	{r7, lr}
 3086              		.cfi_def_cfa_offset 8
 3087              		.cfi_offset 7, -8
 3088              		.cfi_offset 14, -4
 3089 0002 82B0     		sub	sp, sp, #8
 3090              		.cfi_def_cfa_offset 16
 3091 0004 00AF     		add	r7, sp, #0
 3092              		.cfi_def_cfa_register 7
 3093 0006 7860     		str	r0, [r7, #4]
 3094 0008 0B46     		mov	r3, r1
 3095 000a FB70     		strb	r3, [r7, #3]
 663:app_statemachine.c ****     switch (k) {
 3096              		.loc 1 663 0
 3097 000c FB78     		ldrb	r3, [r7, #3]	@ zero_extendqisi2
 3098 000e 332B     		cmp	r3, #51
 3099 0010 05D1     		bne	.L229
 664:app_statemachine.c ****         case '3': transition(ctx, AUTO_ACQ_SPIRAL); return 1;
 3100              		.loc 1 664 0
 3101 0012 0A21     		movs	r1, #10
 3102 0014 7868     		ldr	r0, [r7, #4]
 3103 0016 FFF7FEFF 		bl	transition
 3104 001a 0123     		movs	r3, #1
 3105 001c 00E0     		b	.L228
 3106              	.L229:
 665:app_statemachine.c ****         default:  return 0;
 3107              		.loc 1 665 0
 3108 001e 0023     		movs	r3, #0
 3109              	.L228:
 666:app_statemachine.c ****     }
 667:app_statemachine.c **** }
 3110              		.loc 1 667 0
 3111 0020 1846     		mov	r0, r3
 3112 0022 0837     		adds	r7, r7, #8
 3113              		.cfi_def_cfa_offset 8
 3114 0024 BD46     		mov	sp, r7
 3115              		.cfi_def_cfa_register 13
 3116              		@ sp needed
 3117 0026 80BD     		pop	{r7, pc}
ARM GAS  C:\Users\JENNEW~1\AppData\Local\Temp\ccEqAB2L.s 			page 70


 3118              		.cfi_endproc
 3119              	.LFE97:
 3120              		.size	key_auto_no_lock, .-key_auto_no_lock
 3121              		.section	.rodata
 3122 0511 000000   		.align	2
 3123              	.LC34:
 3124 0514 5741524E 		.ascii	"WARN\000"
 3124      00
 3125 0519 000000   		.align	2
 3126              	.LC35:
 3127 051c 534F4654 		.ascii	"SOFTWARE\000"
 3127      57415245 
 3127      00
 3128 0525 000000   		.align	2
 3129              	.LC36:
 3130 0528 46415441 		.ascii	"FATAL\000"
 3130      4C00
 3131 052e 0000     		.align	2
 3132              	.LC37:
 3133 0530 55534552 		.ascii	"USER\000"
 3133      00
 3134              		.section	.text.sev_str,"ax",%progbits
 3135              		.align	2
 3136              		.thumb
 3137              		.thumb_func
 3138              		.type	sev_str, %function
 3139              	sev_str:
 3140              	.LFB98:
 668:app_statemachine.c **** // %==========================================================================%
 669:app_statemachine.c **** // %                                 Error                                    %
 670:app_statemachine.c **** // %==========================================================================%
 671:app_statemachine.c **** static const char *sev_str(err_sev_t s)
 672:app_statemachine.c **** {
 3141              		.loc 1 672 0
 3142              		.cfi_startproc
 3143              		@ args = 0, pretend = 0, frame = 8
 3144              		@ frame_needed = 1, uses_anonymous_args = 0
 3145              		@ link register save eliminated.
 3146 0000 80B4     		push	{r7}
 3147              		.cfi_def_cfa_offset 4
 3148              		.cfi_offset 7, -4
 3149 0002 83B0     		sub	sp, sp, #12
 3150              		.cfi_def_cfa_offset 16
 3151 0004 00AF     		add	r7, sp, #0
 3152              		.cfi_def_cfa_register 7
 3153 0006 0346     		mov	r3, r0
 3154 0008 FB71     		strb	r3, [r7, #7]
 673:app_statemachine.c ****     switch (s) {
 3155              		.loc 1 673 0
 3156 000a FB79     		ldrb	r3, [r7, #7]	@ zero_extendqisi2
 3157 000c 022B     		cmp	r3, #2
 3158 000e 05D0     		beq	.L232
 3159 0010 032B     		cmp	r3, #3
 3160 0012 05D0     		beq	.L233
 3161 0014 012B     		cmp	r3, #1
 3162 0016 05D1     		bne	.L236
 674:app_statemachine.c ****         case SEV_WARN:     return "WARN";
ARM GAS  C:\Users\JENNEW~1\AppData\Local\Temp\ccEqAB2L.s 			page 71


 3163              		.loc 1 674 0
 3164 0018 054B     		ldr	r3, .L237
 3165 001a 04E0     		b	.L235
 3166              	.L232:
 675:app_statemachine.c ****         case SEV_SOFTWARE: return "SOFTWARE";
 3167              		.loc 1 675 0
 3168 001c 054B     		ldr	r3, .L237+4
 3169 001e 02E0     		b	.L235
 3170              	.L233:
 676:app_statemachine.c ****         case SEV_FATAL:    return "FATAL";
 3171              		.loc 1 676 0
 3172 0020 054B     		ldr	r3, .L237+8
 3173 0022 00E0     		b	.L235
 3174              	.L236:
 677:app_statemachine.c ****         default:           return "USER";
 3175              		.loc 1 677 0
 3176 0024 054B     		ldr	r3, .L237+12
 3177              	.L235:
 678:app_statemachine.c ****     }
 679:app_statemachine.c **** }
 3178              		.loc 1 679 0
 3179 0026 1846     		mov	r0, r3
 3180 0028 0C37     		adds	r7, r7, #12
 3181              		.cfi_def_cfa_offset 4
 3182 002a BD46     		mov	sp, r7
 3183              		.cfi_def_cfa_register 13
 3184              		@ sp needed
 3185 002c 80BC     		pop	{r7}
 3186              		.cfi_restore 7
 3187              		.cfi_def_cfa_offset 0
 3188 002e 7047     		bx	lr
 3189              	.L238:
 3190              		.align	2
 3191              	.L237:
 3192 0030 14050000 		.word	.LC34
 3193 0034 1C050000 		.word	.LC35
 3194 0038 28050000 		.word	.LC36
 3195 003c 30050000 		.word	.LC37
 3196              		.cfi_endproc
 3197              	.LFE98:
 3198              		.size	sev_str, .-sev_str
 3199              		.section	.rodata
 3200 0535 000000   		.align	2
 3201              	.LC38:
 3202 0538 0D0A5B45 		.ascii	"\015\012[ERROR:\000"
 3202      52524F52 
 3202      3A00
 3203 0542 0000     		.align	2
 3204              	.LC39:
 3205 0544 5D2000   		.ascii	"] \000"
 3206 0547 00       		.align	2
 3207              	.LC40:
 3208 0548 286E6F20 		.ascii	"(no msg)\000"
 3208      6D736729 
 3208      00
 3209 0551 000000   		.align	2
 3210              	.LC41:
ARM GAS  C:\Users\JENNEW~1\AppData\Local\Temp\ccEqAB2L.s 			page 72


 3211 0554 0D0A4641 		.ascii	"\015\012FATAL latched. Power cycle or Ctrl+R to cle"
 3211      54414C20 
 3211      6C617463 
 3211      6865642E 
 3211      20506F77 
 3212 0581 61722E0D 		.ascii	"ar.\015\012\000"
 3212      0A00
 3213 0587 00       		.align	2
 3214              	.LC42:
 3215 0588 0D0A416E 		.ascii	"\015\012Any key to acknowledge.\015\012\000"
 3215      79206B65 
 3215      7920746F 
 3215      2061636B 
 3215      6E6F776C 
 3216              		.section	.text.entry_error_active,"ax",%progbits
 3217              		.align	2
 3218              		.thumb
 3219              		.thumb_func
 3220              		.type	entry_error_active, %function
 3221              	entry_error_active:
 3222              	.LFB99:
 680:app_statemachine.c **** static void entry_error_active(app_ctx_t *ctx)
 681:app_statemachine.c **** {
 3223              		.loc 1 681 0
 3224              		.cfi_startproc
 3225              		@ args = 0, pretend = 0, frame = 8
 3226              		@ frame_needed = 1, uses_anonymous_args = 0
 3227 0000 80B5     		push	{r7, lr}
 3228              		.cfi_def_cfa_offset 8
 3229              		.cfi_offset 7, -8
 3230              		.cfi_offset 14, -4
 3231 0002 82B0     		sub	sp, sp, #8
 3232              		.cfi_def_cfa_offset 16
 3233 0004 00AF     		add	r7, sp, #0
 3234              		.cfi_def_cfa_register 7
 3235 0006 7860     		str	r0, [r7, #4]
 682:app_statemachine.c ****     UART_DEBUG_PutString("\r\n[ERROR:");
 3236              		.loc 1 682 0
 3237 0008 1848     		ldr	r0, .L244
 3238 000a FFF7FEFF 		bl	UART_DEBUG_PutString
 683:app_statemachine.c ****     UART_DEBUG_PutString(sev_str(ctx->err_sev));
 3239              		.loc 1 683 0
 3240 000e 7B68     		ldr	r3, [r7, #4]
 3241 0010 9B79     		ldrb	r3, [r3, #6]	@ zero_extendqisi2
 3242 0012 1846     		mov	r0, r3
 3243 0014 FFF7FEFF 		bl	sev_str
 3244 0018 0346     		mov	r3, r0
 3245 001a 1846     		mov	r0, r3
 3246 001c FFF7FEFF 		bl	UART_DEBUG_PutString
 684:app_statemachine.c ****     UART_DEBUG_PutString("] ");
 3247              		.loc 1 684 0
 3248 0020 1348     		ldr	r0, .L244+4
 3249 0022 FFF7FEFF 		bl	UART_DEBUG_PutString
 685:app_statemachine.c ****     UART_DEBUG_PutString(ctx->err_msg ? ctx->err_msg : "(no msg)");
 3250              		.loc 1 685 0
 3251 0026 7B68     		ldr	r3, [r7, #4]
 3252 0028 9B68     		ldr	r3, [r3, #8]
ARM GAS  C:\Users\JENNEW~1\AppData\Local\Temp\ccEqAB2L.s 			page 73


 3253 002a 002B     		cmp	r3, #0
 3254 002c 02D0     		beq	.L240
 3255              		.loc 1 685 0 is_stmt 0 discriminator 1
 3256 002e 7B68     		ldr	r3, [r7, #4]
 3257 0030 9B68     		ldr	r3, [r3, #8]
 3258 0032 00E0     		b	.L241
 3259              	.L240:
 3260              		.loc 1 685 0 discriminator 2
 3261 0034 0F4B     		ldr	r3, .L244+8
 3262              	.L241:
 3263              		.loc 1 685 0 discriminator 4
 3264 0036 1846     		mov	r0, r3
 3265 0038 FFF7FEFF 		bl	UART_DEBUG_PutString
 686:app_statemachine.c ****     if (ctx->err_sev == SEV_FATAL && ctx->gimbal)
 3266              		.loc 1 686 0 is_stmt 1 discriminator 4
 3267 003c 7B68     		ldr	r3, [r7, #4]
 3268 003e 9B79     		ldrb	r3, [r3, #6]	@ zero_extendqisi2
 3269 0040 032B     		cmp	r3, #3
 3270 0042 0CD1     		bne	.L242
 3271              		.loc 1 686 0 is_stmt 0 discriminator 1
 3272 0044 7B68     		ldr	r3, [r7, #4]
 3273 0046 1B68     		ldr	r3, [r3]
 3274 0048 002B     		cmp	r3, #0
 3275 004a 08D0     		beq	.L242
 687:app_statemachine.c ****     {
 688:app_statemachine.c ****         hamfly_kill(ctx->gimbal);
 3276              		.loc 1 688 0 is_stmt 1
 3277 004c 7B68     		ldr	r3, [r7, #4]
 3278 004e 1B68     		ldr	r3, [r3]
 3279 0050 1846     		mov	r0, r3
 3280 0052 FFF7FEFF 		bl	hamfly_kill
 689:app_statemachine.c ****         UART_DEBUG_PutString("\r\nFATAL latched. Power cycle or Ctrl+R to clear.\r\n");
 3281              		.loc 1 689 0
 3282 0056 0848     		ldr	r0, .L244+12
 3283 0058 FFF7FEFF 		bl	UART_DEBUG_PutString
 3284 005c 02E0     		b	.L243
 3285              	.L242:
 690:app_statemachine.c ****     }
 691:app_statemachine.c ****     else    UART_DEBUG_PutString("\r\nAny key to acknowledge.\r\n");
 3286              		.loc 1 691 0
 3287 005e 0748     		ldr	r0, .L244+16
 3288 0060 FFF7FEFF 		bl	UART_DEBUG_PutString
 3289              	.L243:
 692:app_statemachine.c **** }
 3290              		.loc 1 692 0
 3291 0064 00BF     		nop
 3292 0066 0837     		adds	r7, r7, #8
 3293              		.cfi_def_cfa_offset 8
 3294 0068 BD46     		mov	sp, r7
 3295              		.cfi_def_cfa_register 13
 3296              		@ sp needed
 3297 006a 80BD     		pop	{r7, pc}
 3298              	.L245:
 3299              		.align	2
 3300              	.L244:
 3301 006c 38050000 		.word	.LC38
 3302 0070 44050000 		.word	.LC39
ARM GAS  C:\Users\JENNEW~1\AppData\Local\Temp\ccEqAB2L.s 			page 74


 3303 0074 48050000 		.word	.LC40
 3304 0078 54050000 		.word	.LC41
 3305 007c 88050000 		.word	.LC42
 3306              		.cfi_endproc
 3307              	.LFE99:
 3308              		.size	entry_error_active, .-entry_error_active
 3309              		.section	.text.manu_pan_tilt_deg,"ax",%progbits
 3310              		.align	2
 3311              		.thumb
 3312              		.thumb_func
 3313              		.type	manu_pan_tilt_deg, %function
 3314              	manu_pan_tilt_deg:
 3315              	.LFB100:
 693:app_statemachine.c **** 
 694:app_statemachine.c **** // %==========================================================================%
 695:app_statemachine.c **** // %                             Key Handling                                 %
 696:app_statemachine.c **** // %==========================================================================%
 697:app_statemachine.c **** #define KEY_CTRL_R 0x12  // Reset ASCII code.
 698:app_statemachine.c **** 
 699:app_statemachine.c **** static uint8_t manu_pan_tilt_deg(const app_ctx_t *ctx, float *pan_deg, float *tilt_deg)
 700:app_statemachine.c **** {
 3316              		.loc 1 700 0
 3317              		.cfi_startproc
 3318              		@ args = 0, pretend = 0, frame = 256
 3319              		@ frame_needed = 1, uses_anonymous_args = 0
 3320 0000 80B5     		push	{r7, lr}
 3321              		.cfi_def_cfa_offset 8
 3322              		.cfi_offset 7, -8
 3323              		.cfi_offset 14, -4
 3324 0002 C0B0     		sub	sp, sp, #256
 3325              		.cfi_def_cfa_offset 264
 3326 0004 00AF     		add	r7, sp, #0
 3327              		.cfi_def_cfa_register 7
 3328 0006 F860     		str	r0, [r7, #12]
 3329 0008 B960     		str	r1, [r7, #8]
 3330 000a 7A60     		str	r2, [r7, #4]
 701:app_statemachine.c ****     if (!ctx->gimbal) return 0u;
 3331              		.loc 1 701 0
 3332 000c FB68     		ldr	r3, [r7, #12]
 3333 000e 1B68     		ldr	r3, [r3]
 3334 0010 002B     		cmp	r3, #0
 3335 0012 01D1     		bne	.L247
 3336              		.loc 1 701 0 is_stmt 0 discriminator 1
 3337 0014 0023     		movs	r3, #0
 3338 0016 18E0     		b	.L250
 3339              	.L247:
 702:app_statemachine.c ****     hamfly_telemetry_t st;
 703:app_statemachine.c ****     hamfly_get_telemetry(ctx->gimbal, &st);
 3340              		.loc 1 703 0 is_stmt 1
 3341 0018 FB68     		ldr	r3, [r7, #12]
 3342 001a 1B68     		ldr	r3, [r3]
 3343 001c 07F11402 		add	r2, r7, #20
 3344 0020 1146     		mov	r1, r2
 3345 0022 1846     		mov	r0, r3
 3346 0024 FFF7FEFF 		bl	hamfly_get_telemetry
 704:app_statemachine.c ****     if (!st.valid) return 0u;
 3347              		.loc 1 704 0
ARM GAS  C:\Users\JENNEW~1\AppData\Local\Temp\ccEqAB2L.s 			page 75


 3348 0028 3B7D     		ldrb	r3, [r7, #20]	@ zero_extendqisi2
 3349 002a 83F00103 		eor	r3, r3, #1
 3350 002e DBB2     		uxtb	r3, r3
 3351 0030 002B     		cmp	r3, #0
 3352 0032 01D0     		beq	.L249
 3353              		.loc 1 704 0 is_stmt 0 discriminator 1
 3354 0034 0023     		movs	r3, #0
 3355 0036 08E0     		b	.L250
 3356              	.L249:
 705:app_statemachine.c ****     float roll_deg;                                   /* discarded */
 706:app_statemachine.c ****     return hamfly_telemetry_to_euler(&st, pan_deg, tilt_deg, &roll_deg);
 3357              		.loc 1 706 0 is_stmt 1
 3358 0038 07F11003 		add	r3, r7, #16
 3359 003c 07F11400 		add	r0, r7, #20
 3360 0040 7A68     		ldr	r2, [r7, #4]
 3361 0042 B968     		ldr	r1, [r7, #8]
 3362 0044 FFF7FEFF 		bl	hamfly_telemetry_to_euler
 3363 0048 0346     		mov	r3, r0
 3364              	.L250:
 707:app_statemachine.c **** }
 3365              		.loc 1 707 0 discriminator 1
 3366 004a 1846     		mov	r0, r3
 3367 004c 07F58077 		add	r7, r7, #256
 3368              		.cfi_def_cfa_offset 8
 3369 0050 BD46     		mov	sp, r7
 3370              		.cfi_def_cfa_register 13
 3371              		@ sp needed
 3372 0052 80BD     		pop	{r7, pc}
 3373              		.cfi_endproc
 3374              	.LFE100:
 3375              		.size	manu_pan_tilt_deg, .-manu_pan_tilt_deg
 3376              		.section	.rodata
 3377              		.align	2
 3378              	.LC43:
 3379 05a4 6E6F2067 		.ascii	"no gimbal handle\000"
 3379      696D6261 
 3379      6C206861 
 3379      6E646C65 
 3379      00
 3380 05b5 000000   		.align	2
 3381              	.LC44:
 3382 05b8 6E6F2074 		.ascii	"no telemetry (origin not set)\000"
 3382      656C656D 
 3382      65747279 
 3382      20286F72 
 3382      6967696E 
 3383 05d6 0000     		.align	2
 3384              	.LC45:
 3385 05d8 0D0A5B4F 		.ascii	"\015\012[ORIGIN] captured.\015\012\000"
 3385      52494749 
 3385      4E5D2063 
 3385      61707475 
 3385      7265642E 
 3386              		.section	.text.set_origin,"ax",%progbits
 3387              		.align	2
 3388              		.thumb
 3389              		.thumb_func
ARM GAS  C:\Users\JENNEW~1\AppData\Local\Temp\ccEqAB2L.s 			page 76


 3390              		.type	set_origin, %function
 3391              	set_origin:
 3392              	.LFB101:
 708:app_statemachine.c **** 
 709:app_statemachine.c **** /* Capture current gimbal attitude as the origin (global '['). */
 710:app_statemachine.c **** static void set_origin(app_ctx_t *ctx)
 711:app_statemachine.c **** {
 3393              		.loc 1 711 0
 3394              		.cfi_startproc
 3395              		@ args = 0, pretend = 0, frame = 16
 3396              		@ frame_needed = 1, uses_anonymous_args = 0
 3397 0000 80B5     		push	{r7, lr}
 3398              		.cfi_def_cfa_offset 8
 3399              		.cfi_offset 7, -8
 3400              		.cfi_offset 14, -4
 3401 0002 84B0     		sub	sp, sp, #16
 3402              		.cfi_def_cfa_offset 24
 3403 0004 00AF     		add	r7, sp, #0
 3404              		.cfi_def_cfa_register 7
 3405 0006 7860     		str	r0, [r7, #4]
 712:app_statemachine.c ****     if (!ctx->gimbal) { app_raise_error(ctx, SEV_USER, "no gimbal handle"); return; }
 3406              		.loc 1 712 0
 3407 0008 7B68     		ldr	r3, [r7, #4]
 3408 000a 1B68     		ldr	r3, [r3]
 3409 000c 002B     		cmp	r3, #0
 3410 000e 05D1     		bne	.L252
 3411              		.loc 1 712 0 is_stmt 0 discriminator 1
 3412 0010 134A     		ldr	r2, .L256
 3413 0012 0021     		movs	r1, #0
 3414 0014 7868     		ldr	r0, [r7, #4]
 3415 0016 FFF7FEFF 		bl	app_raise_error
 3416 001a 1DE0     		b	.L251
 3417              	.L252:
 713:app_statemachine.c **** 
 714:app_statemachine.c ****     float pan, tilt;
 715:app_statemachine.c ****     if (!manu_pan_tilt_deg(ctx, &pan, &tilt)) {
 3418              		.loc 1 715 0 is_stmt 1
 3419 001c 07F10802 		add	r2, r7, #8
 3420 0020 07F10C03 		add	r3, r7, #12
 3421 0024 1946     		mov	r1, r3
 3422 0026 7868     		ldr	r0, [r7, #4]
 3423 0028 FFF7FEFF 		bl	manu_pan_tilt_deg
 3424 002c 0346     		mov	r3, r0
 3425 002e 002B     		cmp	r3, #0
 3426 0030 05D1     		bne	.L254
 716:app_statemachine.c ****         app_raise_error(ctx, SEV_USER, "no telemetry (origin not set)");
 3427              		.loc 1 716 0
 3428 0032 0C4A     		ldr	r2, .L256+4
 3429 0034 0021     		movs	r1, #0
 3430 0036 7868     		ldr	r0, [r7, #4]
 3431 0038 FFF7FEFF 		bl	app_raise_error
 717:app_statemachine.c ****         return;
 3432              		.loc 1 717 0
 3433 003c 0CE0     		b	.L251
 3434              	.L254:
 718:app_statemachine.c ****     }
 719:app_statemachine.c ****     ctx->origin_pan_deg  = pan;
ARM GAS  C:\Users\JENNEW~1\AppData\Local\Temp\ccEqAB2L.s 			page 77


 3435              		.loc 1 719 0
 3436 003e FA68     		ldr	r2, [r7, #12]	@ float
 3437 0040 7B68     		ldr	r3, [r7, #4]
 3438 0042 DA64     		str	r2, [r3, #76]	@ float
 720:app_statemachine.c ****     ctx->origin_tilt_deg = tilt;
 3439              		.loc 1 720 0
 3440 0044 BA68     		ldr	r2, [r7, #8]	@ float
 3441 0046 7B68     		ldr	r3, [r7, #4]
 3442 0048 1A65     		str	r2, [r3, #80]	@ float
 721:app_statemachine.c ****     ctx->origin_set = 1u;
 3443              		.loc 1 721 0
 3444 004a 7B68     		ldr	r3, [r7, #4]
 3445 004c 0122     		movs	r2, #1
 3446 004e 83F85420 		strb	r2, [r3, #84]
 722:app_statemachine.c ****     UART_DEBUG_PutString("\r\n[ORIGIN] captured.\r\n");
 3447              		.loc 1 722 0
 3448 0052 0548     		ldr	r0, .L256+8
 3449 0054 FFF7FEFF 		bl	UART_DEBUG_PutString
 3450              	.L251:
 723:app_statemachine.c **** }
 3451              		.loc 1 723 0
 3452 0058 1037     		adds	r7, r7, #16
 3453              		.cfi_def_cfa_offset 8
 3454 005a BD46     		mov	sp, r7
 3455              		.cfi_def_cfa_register 13
 3456              		@ sp needed
 3457 005c 80BD     		pop	{r7, pc}
 3458              	.L257:
 3459 005e 00BF     		.align	2
 3460              	.L256:
 3461 0060 A4050000 		.word	.LC43
 3462 0064 B8050000 		.word	.LC44
 3463 0068 D8050000 		.word	.LC45
 3464              		.cfi_endproc
 3465              	.LFE101:
 3466              		.size	set_origin, .-set_origin
 3467              		.section	.rodata
 3468 05ef 00       		.align	2
 3469              	.LC46:
 3470 05f0 0D0A2D2D 		.ascii	"\015\012--- keys ---\015\012 1 hold   2 manual     "
 3470      2D206B65 
 3470      7973202D 
 3470      2D2D0D0A 
 3470      20312068 
 3471 0617 20203320 		.ascii	"  3 auto\015\012 x kill   [ set-origin   ? help\015"
 3471      6175746F 
 3471      0D0A2078 
 3471      206B696C 
 3471      6C202020 
 3472 0641 0A206520 		.ascii	"\012 e exit   ] home\015\012 (in MANU) numpad/ijkl/"
 3472      65786974 
 3472      2020205D 
 3472      20686F6D 
 3472      650D0A20 
 3473 066b 77617364 		.ascii	"wasd nudge\015\012\000"
 3473      206E7564 
 3473      67650D0A 
ARM GAS  C:\Users\JENNEW~1\AppData\Local\Temp\ccEqAB2L.s 			page 78


 3473      00
 3474              		.section	.text.print_help,"ax",%progbits
 3475              		.align	2
 3476              		.thumb
 3477              		.thumb_func
 3478              		.type	print_help, %function
 3479              	print_help:
 3480              	.LFB102:
 724:app_statemachine.c **** 
 725:app_statemachine.c **** static void print_help(const app_ctx_t *ctx)
 726:app_statemachine.c **** {
 3481              		.loc 1 726 0
 3482              		.cfi_startproc
 3483              		@ args = 0, pretend = 0, frame = 8
 3484              		@ frame_needed = 1, uses_anonymous_args = 0
 3485 0000 80B5     		push	{r7, lr}
 3486              		.cfi_def_cfa_offset 8
 3487              		.cfi_offset 7, -8
 3488              		.cfi_offset 14, -4
 3489 0002 82B0     		sub	sp, sp, #8
 3490              		.cfi_def_cfa_offset 16
 3491 0004 00AF     		add	r7, sp, #0
 3492              		.cfi_def_cfa_register 7
 3493 0006 7860     		str	r0, [r7, #4]
 727:app_statemachine.c ****     (void)ctx;
 728:app_statemachine.c ****     UART_DEBUG_PutString(
 3494              		.loc 1 728 0
 3495 0008 0348     		ldr	r0, .L259
 3496 000a FFF7FEFF 		bl	UART_DEBUG_PutString
 729:app_statemachine.c ****         "\r\n--- keys ---\r\n"
 730:app_statemachine.c ****         " 1 hold   2 manual       3 auto\r\n"
 731:app_statemachine.c ****         " x kill   [ set-origin   ? help\r\n"
 732:app_statemachine.c ****         " e exit   ] home\r\n"
 733:app_statemachine.c ****         " (in MANU) numpad/ijkl/wasd nudge\r\n");
 734:app_statemachine.c **** }
 3497              		.loc 1 734 0
 3498 000e 00BF     		nop
 3499 0010 0837     		adds	r7, r7, #8
 3500              		.cfi_def_cfa_offset 8
 3501 0012 BD46     		mov	sp, r7
 3502              		.cfi_def_cfa_register 13
 3503              		@ sp needed
 3504 0014 80BD     		pop	{r7, pc}
 3505              	.L260:
 3506 0016 00BF     		.align	2
 3507              	.L259:
 3508 0018 F0050000 		.word	.LC46
 3509              		.cfi_endproc
 3510              	.LFE102:
 3511              		.size	print_help, .-print_help
 3512              		.section	.rodata
 3513              		.align	2
 3514              	.LC47:
 3515 0678 0D0A4641 		.ascii	"\015\012FATAL cleared.\015\012\000"
 3515      54414C20 
 3515      636C6561 
 3515      7265642E 
ARM GAS  C:\Users\JENNEW~1\AppData\Local\Temp\ccEqAB2L.s 			page 79


 3515      0D0A00
 3516              		.section	.text.handle_global_key,"ax",%progbits
 3517              		.align	2
 3518              		.thumb
 3519              		.thumb_func
 3520              		.type	handle_global_key, %function
 3521              	handle_global_key:
 3522              	.LFB103:
 735:app_statemachine.c **** 
 736:app_statemachine.c **** /* ---- always-global keys (honored in every non-FATAL leaf) ------------- */
 737:app_statemachine.c **** static uint8_t handle_global_key(app_ctx_t *ctx, char k)
 738:app_statemachine.c **** {
 3523              		.loc 1 738 0
 3524              		.cfi_startproc
 3525              		@ args = 0, pretend = 0, frame = 8
 3526              		@ frame_needed = 1, uses_anonymous_args = 0
 3527 0000 80B5     		push	{r7, lr}
 3528              		.cfi_def_cfa_offset 8
 3529              		.cfi_offset 7, -8
 3530              		.cfi_offset 14, -4
 3531 0002 82B0     		sub	sp, sp, #8
 3532              		.cfi_def_cfa_offset 16
 3533 0004 00AF     		add	r7, sp, #0
 3534              		.cfi_def_cfa_register 7
 3535 0006 7860     		str	r0, [r7, #4]
 3536 0008 0B46     		mov	r3, r1
 3537 000a FB70     		strb	r3, [r7, #3]
 739:app_statemachine.c ****     switch (k) {
 3538              		.loc 1 739 0
 3539 000c FB78     		ldrb	r3, [r7, #3]	@ zero_extendqisi2
 3540 000e 3F2B     		cmp	r3, #63
 3541 0010 33D0     		beq	.L263
 3542 0012 3F2B     		cmp	r3, #63
 3543 0014 02DC     		bgt	.L264
 3544 0016 122B     		cmp	r3, #18
 3545 0018 05D0     		beq	.L265
 3546 001a 33E0     		b	.L262
 3547              	.L264:
 3548 001c 5B2B     		cmp	r3, #91
 3549 001e 27D0     		beq	.L266
 3550 0020 782B     		cmp	r3, #120
 3551 0022 16D0     		beq	.L267
 3552 0024 2EE0     		b	.L262
 3553              	.L265:
 740:app_statemachine.c ****         case KEY_CTRL_R:                       /* clear FATAL latch */
 741:app_statemachine.c ****             if (ctx->fatal_latched) {
 3554              		.loc 1 741 0
 3555 0026 7B68     		ldr	r3, [r7, #4]
 3556 0028 1B7B     		ldrb	r3, [r3, #12]	@ zero_extendqisi2
 3557 002a 002B     		cmp	r3, #0
 3558 002c 0FD0     		beq	.L268
 742:app_statemachine.c ****                 ctx->fatal_latched = 0u;
 3559              		.loc 1 742 0
 3560 002e 7B68     		ldr	r3, [r7, #4]
 3561 0030 0022     		movs	r2, #0
 3562 0032 1A73     		strb	r2, [r3, #12]
 743:app_statemachine.c ****                 ctx->err_sev = SEV_USER;
ARM GAS  C:\Users\JENNEW~1\AppData\Local\Temp\ccEqAB2L.s 			page 80


 3563              		.loc 1 743 0
 3564 0034 7B68     		ldr	r3, [r7, #4]
 3565 0036 0022     		movs	r2, #0
 3566 0038 9A71     		strb	r2, [r3, #6]
 744:app_statemachine.c ****                 ctx->err_msg = NULL;
 3567              		.loc 1 744 0
 3568 003a 7B68     		ldr	r3, [r7, #4]
 3569 003c 0022     		movs	r2, #0
 3570 003e 9A60     		str	r2, [r3, #8]
 745:app_statemachine.c ****                 UART_DEBUG_PutString("\r\nFATAL cleared.\r\n");
 3571              		.loc 1 745 0
 3572 0040 1348     		ldr	r0, .L271
 3573 0042 FFF7FEFF 		bl	UART_DEBUG_PutString
 746:app_statemachine.c ****                 transition(ctx, STBY_HOLD);
 3574              		.loc 1 746 0
 3575 0046 0621     		movs	r1, #6
 3576 0048 7868     		ldr	r0, [r7, #4]
 3577 004a FFF7FEFF 		bl	transition
 3578              	.L268:
 747:app_statemachine.c ****             }
 748:app_statemachine.c ****             return 1;                          /* reserved key, always consumed */
 3579              		.loc 1 748 0
 3580 004e 0123     		movs	r3, #1
 3581 0050 19E0     		b	.L269
 3582              	.L267:
 749:app_statemachine.c ****         case 'x':                              /* soft kill */
 750:app_statemachine.c ****             if (ctx->gimbal) hamfly_kill(ctx->gimbal);
 3583              		.loc 1 750 0
 3584 0052 7B68     		ldr	r3, [r7, #4]
 3585 0054 1B68     		ldr	r3, [r3]
 3586 0056 002B     		cmp	r3, #0
 3587 0058 04D0     		beq	.L270
 3588              		.loc 1 750 0 is_stmt 0 discriminator 1
 3589 005a 7B68     		ldr	r3, [r7, #4]
 3590 005c 1B68     		ldr	r3, [r3]
 3591 005e 1846     		mov	r0, r3
 3592 0060 FFF7FEFF 		bl	hamfly_kill
 3593              	.L270:
 751:app_statemachine.c ****             transition(ctx, STBY_HOLD);
 3594              		.loc 1 751 0 is_stmt 1
 3595 0064 0621     		movs	r1, #6
 3596 0066 7868     		ldr	r0, [r7, #4]
 3597 0068 FFF7FEFF 		bl	transition
 752:app_statemachine.c ****             return 1;
 3598              		.loc 1 752 0
 3599 006c 0123     		movs	r3, #1
 3600 006e 0AE0     		b	.L269
 3601              	.L266:
 753:app_statemachine.c ****         case '[': set_origin(ctx);  return 1;
 3602              		.loc 1 753 0
 3603 0070 7868     		ldr	r0, [r7, #4]
 3604 0072 FFF7FEFF 		bl	set_origin
 3605 0076 0123     		movs	r3, #1
 3606 0078 05E0     		b	.L269
 3607              	.L263:
 754:app_statemachine.c ****             case '?': print_help(ctx);  return 1;
 3608              		.loc 1 754 0
ARM GAS  C:\Users\JENNEW~1\AppData\Local\Temp\ccEqAB2L.s 			page 81


 3609 007a 7868     		ldr	r0, [r7, #4]
 3610 007c FFF7FEFF 		bl	print_help
 3611 0080 0123     		movs	r3, #1
 3612 0082 00E0     		b	.L269
 3613              	.L262:
 755:app_statemachine.c ****             default:  return 0;
 3614              		.loc 1 755 0
 3615 0084 0023     		movs	r3, #0
 3616              	.L269:
 756:app_statemachine.c ****     }
 757:app_statemachine.c **** }
 3617              		.loc 1 757 0
 3618 0086 1846     		mov	r0, r3
 3619 0088 0837     		adds	r7, r7, #8
 3620              		.cfi_def_cfa_offset 8
 3621 008a BD46     		mov	sp, r7
 3622              		.cfi_def_cfa_register 13
 3623              		@ sp needed
 3624 008c 80BD     		pop	{r7, pc}
 3625              	.L272:
 3626 008e 00BF     		.align	2
 3627              	.L271:
 3628 0090 78060000 		.word	.LC47
 3629              		.cfi_endproc
 3630              	.LFE103:
 3631              		.size	handle_global_key, .-handle_global_key
 3632              		.section	.text.leaf_traps_nav,"ax",%progbits
 3633              		.align	2
 3634              		.thumb
 3635              		.thumb_func
 3636              		.type	leaf_traps_nav, %function
 3637              	leaf_traps_nav:
 3638              	.LFB104:
 758:app_statemachine.c **** 
 759:app_statemachine.c **** /* ---- navigation keys (suppressed in trapping leaves) ------------------ */
 760:app_statemachine.c **** static uint8_t leaf_traps_nav(state_t s)
 761:app_statemachine.c **** {
 3639              		.loc 1 761 0
 3640              		.cfi_startproc
 3641              		@ args = 0, pretend = 0, frame = 8
 3642              		@ frame_needed = 1, uses_anonymous_args = 0
 3643              		@ link register save eliminated.
 3644 0000 80B4     		push	{r7}
 3645              		.cfi_def_cfa_offset 4
 3646              		.cfi_offset 7, -4
 3647 0002 83B0     		sub	sp, sp, #12
 3648              		.cfi_def_cfa_offset 16
 3649 0004 00AF     		add	r7, sp, #0
 3650              		.cfi_def_cfa_register 7
 3651 0006 0346     		mov	r3, r0
 3652 0008 FB71     		strb	r3, [r7, #7]
 762:app_statemachine.c ****     /* Active control states swallow nav keys; loss/no-lock allow user escape. */
 763:app_statemachine.c ****     return (s == MANU_JOYSTICK   ||
 764:app_statemachine.c ****             s == AUTO_HOME       ||
 765:app_statemachine.c ****             s == AUTO_ACQ_GPS    ||
 766:app_statemachine.c ****             s == AUTO_ACQ_SPIRAL ||
 3653              		.loc 1 766 0
ARM GAS  C:\Users\JENNEW~1\AppData\Local\Temp\ccEqAB2L.s 			page 82


 3654 000a FB79     		ldrb	r3, [r7, #7]	@ zero_extendqisi2
 3655 000c 072B     		cmp	r3, #7
 3656 000e 0BD0     		beq	.L274
 763:app_statemachine.c ****             s == AUTO_HOME       ||
 3657              		.loc 1 763 0
 3658 0010 FB79     		ldrb	r3, [r7, #7]	@ zero_extendqisi2
 3659 0012 082B     		cmp	r3, #8
 3660 0014 08D0     		beq	.L274
 764:app_statemachine.c ****             s == AUTO_ACQ_GPS    ||
 3661              		.loc 1 764 0
 3662 0016 FB79     		ldrb	r3, [r7, #7]	@ zero_extendqisi2
 3663 0018 092B     		cmp	r3, #9
 3664 001a 05D0     		beq	.L274
 765:app_statemachine.c ****             s == AUTO_ACQ_SPIRAL ||
 3665              		.loc 1 765 0
 3666 001c FB79     		ldrb	r3, [r7, #7]	@ zero_extendqisi2
 3667 001e 0A2B     		cmp	r3, #10
 3668 0020 02D0     		beq	.L274
 3669              		.loc 1 766 0 discriminator 2
 3670 0022 FB79     		ldrb	r3, [r7, #7]	@ zero_extendqisi2
 3671 0024 0B2B     		cmp	r3, #11
 3672 0026 01D1     		bne	.L275
 3673              	.L274:
 3674              		.loc 1 766 0 is_stmt 0 discriminator 1
 3675 0028 0123     		movs	r3, #1
 3676 002a 00E0     		b	.L276
 3677              	.L275:
 3678              		.loc 1 766 0 discriminator 3
 3679 002c 0023     		movs	r3, #0
 3680              	.L276:
 763:app_statemachine.c ****             s == AUTO_HOME       ||
 3681              		.loc 1 763 0 is_stmt 1
 3682 002e DBB2     		uxtb	r3, r3
 767:app_statemachine.c ****             s == AUTO_TRACKING);
 768:app_statemachine.c **** }
 3683              		.loc 1 768 0
 3684 0030 1846     		mov	r0, r3
 3685 0032 0C37     		adds	r7, r7, #12
 3686              		.cfi_def_cfa_offset 4
 3687 0034 BD46     		mov	sp, r7
 3688              		.cfi_def_cfa_register 13
 3689              		@ sp needed
 3690 0036 80BC     		pop	{r7}
 3691              		.cfi_restore 7
 3692              		.cfi_def_cfa_offset 0
 3693 0038 7047     		bx	lr
 3694              		.cfi_endproc
 3695              	.LFE104:
 3696              		.size	leaf_traps_nav, .-leaf_traps_nav
 3697 003a 00BF     		.section	.text.handle_nav_key,"ax",%progbits
 3698              		.align	2
 3699              		.thumb
 3700              		.thumb_func
 3701              		.type	handle_nav_key, %function
 3702              	handle_nav_key:
 3703              	.LFB105:
 769:app_statemachine.c **** static uint8_t handle_nav_key(app_ctx_t *ctx, char k)
ARM GAS  C:\Users\JENNEW~1\AppData\Local\Temp\ccEqAB2L.s 			page 83


 770:app_statemachine.c **** {
 3704              		.loc 1 770 0
 3705              		.cfi_startproc
 3706              		@ args = 0, pretend = 0, frame = 8
 3707              		@ frame_needed = 1, uses_anonymous_args = 0
 3708 0000 80B5     		push	{r7, lr}
 3709              		.cfi_def_cfa_offset 8
 3710              		.cfi_offset 7, -8
 3711              		.cfi_offset 14, -4
 3712 0002 82B0     		sub	sp, sp, #8
 3713              		.cfi_def_cfa_offset 16
 3714 0004 00AF     		add	r7, sp, #0
 3715              		.cfi_def_cfa_register 7
 3716 0006 7860     		str	r0, [r7, #4]
 3717 0008 0B46     		mov	r3, r1
 3718 000a FB70     		strb	r3, [r7, #3]
 771:app_statemachine.c ****     switch (k) {
 3719              		.loc 1 771 0
 3720 000c FB78     		ldrb	r3, [r7, #3]	@ zero_extendqisi2
 3721 000e 322B     		cmp	r3, #50
 3722 0010 09D0     		beq	.L280
 3723 0012 332B     		cmp	r3, #51
 3724 0014 0DD0     		beq	.L281
 3725 0016 312B     		cmp	r3, #49
 3726 0018 11D1     		bne	.L284
 772:app_statemachine.c ****         case '1': transition(ctx, STBY_HOLD);     return 1;
 3727              		.loc 1 772 0
 3728 001a 0621     		movs	r1, #6
 3729 001c 7868     		ldr	r0, [r7, #4]
 3730 001e FFF7FEFF 		bl	transition
 3731 0022 0123     		movs	r3, #1
 3732 0024 0CE0     		b	.L283
 3733              	.L280:
 773:app_statemachine.c ****         case '2': transition(ctx, MANU_JOYSTICK); return 1;
 3734              		.loc 1 773 0
 3735 0026 0721     		movs	r1, #7
 3736 0028 7868     		ldr	r0, [r7, #4]
 3737 002a FFF7FEFF 		bl	transition
 3738 002e 0123     		movs	r3, #1
 3739 0030 06E0     		b	.L283
 3740              	.L281:
 774:app_statemachine.c ****         case '3': transition(ctx, AUTO_TRACKING); return 1;
 3741              		.loc 1 774 0
 3742 0032 0B21     		movs	r1, #11
 3743 0034 7868     		ldr	r0, [r7, #4]
 3744 0036 FFF7FEFF 		bl	transition
 3745 003a 0123     		movs	r3, #1
 3746 003c 00E0     		b	.L283
 3747              	.L284:
 775:app_statemachine.c ****         default:  return 0;
 3748              		.loc 1 775 0
 3749 003e 0023     		movs	r3, #0
 3750              	.L283:
 776:app_statemachine.c ****     }
 777:app_statemachine.c **** }
 3751              		.loc 1 777 0
 3752 0040 1846     		mov	r0, r3
ARM GAS  C:\Users\JENNEW~1\AppData\Local\Temp\ccEqAB2L.s 			page 84


 3753 0042 0837     		adds	r7, r7, #8
 3754              		.cfi_def_cfa_offset 8
 3755 0044 BD46     		mov	sp, r7
 3756              		.cfi_def_cfa_register 13
 3757              		@ sp needed
 3758 0046 80BD     		pop	{r7, pc}
 3759              		.cfi_endproc
 3760              	.LFE105:
 3761              		.size	handle_nav_key, .-handle_nav_key
 3762              		.section	.text.key_error_active,"ax",%progbits
 3763              		.align	2
 3764              		.thumb
 3765              		.thumb_func
 3766              		.type	key_error_active, %function
 3767              	key_error_active:
 3768              	.LFB106:
 778:app_statemachine.c **** 
 779:app_statemachine.c **** /* ---- leaf-specific keys ----------------------------------------------- */
 780:app_statemachine.c **** static uint8_t key_error_active(app_ctx_t *ctx, char k)
 781:app_statemachine.c **** {
 3769              		.loc 1 781 0
 3770              		.cfi_startproc
 3771              		@ args = 0, pretend = 0, frame = 16
 3772              		@ frame_needed = 1, uses_anonymous_args = 0
 3773 0000 80B5     		push	{r7, lr}
 3774              		.cfi_def_cfa_offset 8
 3775              		.cfi_offset 7, -8
 3776              		.cfi_offset 14, -4
 3777 0002 84B0     		sub	sp, sp, #16
 3778              		.cfi_def_cfa_offset 24
 3779 0004 00AF     		add	r7, sp, #0
 3780              		.cfi_def_cfa_register 7
 3781 0006 7860     		str	r0, [r7, #4]
 3782 0008 0B46     		mov	r3, r1
 3783 000a FB70     		strb	r3, [r7, #3]
 782:app_statemachine.c ****     (void)k;
 783:app_statemachine.c ****     if (ctx->err_sev != SEV_FATAL) {            /* WARN/SOFTWARE ack */
 3784              		.loc 1 783 0
 3785 000c 7B68     		ldr	r3, [r7, #4]
 3786 000e 9B79     		ldrb	r3, [r3, #6]	@ zero_extendqisi2
 3787 0010 032B     		cmp	r3, #3
 3788 0012 0FD0     		beq	.L286
 3789              	.LBB12:
 784:app_statemachine.c ****         state_t back = (ctx->prev_leaf == ERROR_ACTIVE) ? STBY_HOLD : ctx->prev_leaf;
 3790              		.loc 1 784 0
 3791 0014 7B68     		ldr	r3, [r7, #4]
 3792 0016 5B79     		ldrb	r3, [r3, #5]	@ zero_extendqisi2
 3793 0018 0E2B     		cmp	r3, #14
 3794 001a 02D0     		beq	.L287
 3795              		.loc 1 784 0 is_stmt 0 discriminator 1
 3796 001c 7B68     		ldr	r3, [r7, #4]
 3797 001e 5B79     		ldrb	r3, [r3, #5]	@ zero_extendqisi2
 3798 0020 00E0     		b	.L288
 3799              	.L287:
 3800              		.loc 1 784 0 discriminator 2
 3801 0022 0623     		movs	r3, #6
 3802              	.L288:
ARM GAS  C:\Users\JENNEW~1\AppData\Local\Temp\ccEqAB2L.s 			page 85


 3803              		.loc 1 784 0 discriminator 4
 3804 0024 FB73     		strb	r3, [r7, #15]
 785:app_statemachine.c ****         transition(ctx, back);
 3805              		.loc 1 785 0 is_stmt 1 discriminator 4
 3806 0026 FB7B     		ldrb	r3, [r7, #15]	@ zero_extendqisi2
 3807 0028 1946     		mov	r1, r3
 3808 002a 7868     		ldr	r0, [r7, #4]
 3809 002c FFF7FEFF 		bl	transition
 786:app_statemachine.c ****         return 1;
 3810              		.loc 1 786 0 discriminator 4
 3811 0030 0123     		movs	r3, #1
 3812 0032 00E0     		b	.L289
 3813              	.L286:
 3814              	.LBE12:
 787:app_statemachine.c ****     }
 788:app_statemachine.c ****     return 0;                                   /* FATAL: only Ctrl+R (handled in lockout) */
 3815              		.loc 1 788 0
 3816 0034 0023     		movs	r3, #0
 3817              	.L289:
 789:app_statemachine.c **** }
 3818              		.loc 1 789 0
 3819 0036 1846     		mov	r0, r3
 3820 0038 1037     		adds	r7, r7, #16
 3821              		.cfi_def_cfa_offset 8
 3822 003a BD46     		mov	sp, r7
 3823              		.cfi_def_cfa_register 13
 3824              		@ sp needed
 3825 003c 80BD     		pop	{r7, pc}
 3826              		.cfi_endproc
 3827              	.LFE106:
 3828              		.size	key_error_active, .-key_error_active
 3829 003e 00BF     		.section	.text.app_dispatch_key,"ax",%progbits
 3830              		.align	2
 3831              		.global	app_dispatch_key
 3832              		.thumb
 3833              		.thumb_func
 3834              		.type	app_dispatch_key, %function
 3835              	app_dispatch_key:
 3836              	.LFB107:
 790:app_statemachine.c **** 
 791:app_statemachine.c **** /* ---- public entry point ----------------------------------------------- */
 792:app_statemachine.c **** uint8_t app_dispatch_key(app_ctx_t *ctx, char key)
 793:app_statemachine.c **** {
 3837              		.loc 1 793 0
 3838              		.cfi_startproc
 3839              		@ args = 0, pretend = 0, frame = 16
 3840              		@ frame_needed = 1, uses_anonymous_args = 0
 3841 0000 80B5     		push	{r7, lr}
 3842              		.cfi_def_cfa_offset 8
 3843              		.cfi_offset 7, -8
 3844              		.cfi_offset 14, -4
 3845 0002 84B0     		sub	sp, sp, #16
 3846              		.cfi_def_cfa_offset 24
 3847 0004 00AF     		add	r7, sp, #0
 3848              		.cfi_def_cfa_register 7
 3849 0006 7860     		str	r0, [r7, #4]
 3850 0008 0B46     		mov	r3, r1
ARM GAS  C:\Users\JENNEW~1\AppData\Local\Temp\ccEqAB2L.s 			page 86


 3851 000a FB70     		strb	r3, [r7, #3]
 794:app_statemachine.c ****     if (ctx->state >= STATE_COUNT) return 0;          /* Patch 12 guard */
 3852              		.loc 1 794 0
 3853 000c 7B68     		ldr	r3, [r7, #4]
 3854 000e 1B79     		ldrb	r3, [r3, #4]	@ zero_extendqisi2
 3855 0010 0E2B     		cmp	r3, #14
 3856 0012 01D9     		bls	.L291
 3857              		.loc 1 794 0 is_stmt 0 discriminator 1
 3858 0014 0023     		movs	r3, #0
 3859 0016 3DE0     		b	.L292
 3860              	.L291:
 795:app_statemachine.c **** 
 796:app_statemachine.c ****     if (ctx->fatal_latched)                            /* FATAL lockout */
 3861              		.loc 1 796 0 is_stmt 1
 3862 0018 7B68     		ldr	r3, [r7, #4]
 3863 001a 1B7B     		ldrb	r3, [r3, #12]	@ zero_extendqisi2
 3864 001c 002B     		cmp	r3, #0
 3865 001e 0BD0     		beq	.L293
 797:app_statemachine.c ****         return (key == KEY_CTRL_R) ? handle_global_key(ctx, key) : 0;
 3866              		.loc 1 797 0
 3867 0020 FB78     		ldrb	r3, [r7, #3]	@ zero_extendqisi2
 3868 0022 122B     		cmp	r3, #18
 3869 0024 06D1     		bne	.L294
 3870              		.loc 1 797 0 is_stmt 0 discriminator 1
 3871 0026 FB78     		ldrb	r3, [r7, #3]	@ zero_extendqisi2
 3872 0028 1946     		mov	r1, r3
 3873 002a 7868     		ldr	r0, [r7, #4]
 3874 002c FFF7FEFF 		bl	handle_global_key
 3875 0030 0346     		mov	r3, r0
 3876 0032 2FE0     		b	.L292
 3877              	.L294:
 3878              		.loc 1 797 0 discriminator 2
 3879 0034 0023     		movs	r3, #0
 3880 0036 2DE0     		b	.L292
 3881              	.L293:
 798:app_statemachine.c **** 
 799:app_statemachine.c ****     if (handle_global_key(ctx, key)) return 1;         /* k, [, ?, Ctrl+R */
 3882              		.loc 1 799 0 is_stmt 1
 3883 0038 FB78     		ldrb	r3, [r7, #3]	@ zero_extendqisi2
 3884 003a 1946     		mov	r1, r3
 3885 003c 7868     		ldr	r0, [r7, #4]
 3886 003e FFF7FEFF 		bl	handle_global_key
 3887 0042 0346     		mov	r3, r0
 3888 0044 002B     		cmp	r3, #0
 3889 0046 01D0     		beq	.L296
 3890              		.loc 1 799 0 is_stmt 0 discriminator 1
 3891 0048 0123     		movs	r3, #1
 3892 004a 23E0     		b	.L292
 3893              	.L296:
 800:app_statemachine.c **** 
 801:app_statemachine.c ****     key_fn_t f = on_key[ctx->state];
 3894              		.loc 1 801 0 is_stmt 1
 3895 004c 7B68     		ldr	r3, [r7, #4]
 3896 004e 1B79     		ldrb	r3, [r3, #4]	@ zero_extendqisi2
 3897 0050 1A46     		mov	r2, r3
 3898 0052 124B     		ldr	r3, .L299
 3899 0054 53F82230 		ldr	r3, [r3, r2, lsl #2]
ARM GAS  C:\Users\JENNEW~1\AppData\Local\Temp\ccEqAB2L.s 			page 87


 3900 0058 FB60     		str	r3, [r7, #12]
 802:app_statemachine.c ****     if (f && f(ctx, key)) return 1;                    /* leaf keys */
 3901              		.loc 1 802 0
 3902 005a FB68     		ldr	r3, [r7, #12]
 3903 005c 002B     		cmp	r3, #0
 3904 005e 09D0     		beq	.L297
 3905              		.loc 1 802 0 is_stmt 0 discriminator 1
 3906 0060 FA78     		ldrb	r2, [r7, #3]	@ zero_extendqisi2
 3907 0062 FB68     		ldr	r3, [r7, #12]
 3908 0064 1146     		mov	r1, r2
 3909 0066 7868     		ldr	r0, [r7, #4]
 3910 0068 9847     		blx	r3
 3911 006a 0346     		mov	r3, r0
 3912 006c 002B     		cmp	r3, #0
 3913 006e 01D0     		beq	.L297
 3914              		.loc 1 802 0 discriminator 2
 3915 0070 0123     		movs	r3, #1
 3916 0072 0FE0     		b	.L292
 3917              	.L297:
 803:app_statemachine.c **** 
 804:app_statemachine.c ****     if (!leaf_traps_nav(ctx->state))                   /* nav, unless trapped */
 3918              		.loc 1 804 0 is_stmt 1
 3919 0074 7B68     		ldr	r3, [r7, #4]
 3920 0076 1B79     		ldrb	r3, [r3, #4]	@ zero_extendqisi2
 3921 0078 1846     		mov	r0, r3
 3922 007a FFF7FEFF 		bl	leaf_traps_nav
 3923 007e 0346     		mov	r3, r0
 3924 0080 002B     		cmp	r3, #0
 3925 0082 06D1     		bne	.L298
 805:app_statemachine.c ****         return handle_nav_key(ctx, key);
 3926              		.loc 1 805 0
 3927 0084 FB78     		ldrb	r3, [r7, #3]	@ zero_extendqisi2
 3928 0086 1946     		mov	r1, r3
 3929 0088 7868     		ldr	r0, [r7, #4]
 3930 008a FFF7FEFF 		bl	handle_nav_key
 3931 008e 0346     		mov	r3, r0
 3932 0090 00E0     		b	.L292
 3933              	.L298:
 806:app_statemachine.c **** 
 807:app_statemachine.c ****     return 0;
 3934              		.loc 1 807 0
 3935 0092 0023     		movs	r3, #0
 3936              	.L292:
 808:app_statemachine.c **** }
 3937              		.loc 1 808 0
 3938 0094 1846     		mov	r0, r3
 3939 0096 1037     		adds	r7, r7, #16
 3940              		.cfi_def_cfa_offset 8
 3941 0098 BD46     		mov	sp, r7
 3942              		.cfi_def_cfa_register 13
 3943              		@ sp needed
 3944 009a 80BD     		pop	{r7, pc}
 3945              	.L300:
 3946              		.align	2
 3947              	.L299:
 3948 009c 88000000 		.word	on_key
 3949              		.cfi_endproc
ARM GAS  C:\Users\JENNEW~1\AppData\Local\Temp\ccEqAB2L.s 			page 88


 3950              	.LFE107:
 3951              		.size	app_dispatch_key, .-app_dispatch_key
 3952              		.section	.text.build_zero,"ax",%progbits
 3953              		.align	2
 3954              		.thumb
 3955              		.thumb_func
 3956              		.type	build_zero, %function
 3957              	build_zero:
 3958              	.LFB108:
 809:app_statemachine.c **** 
 810:app_statemachine.c **** // %==========================================================================%
 811:app_statemachine.c **** // %                       Gimbal Control Packet                              %
 812:app_statemachine.c **** // %==========================================================================%
 813:app_statemachine.c **** // Initialize empty packet.
 814:app_statemachine.c **** static void build_zero(const app_ctx_t *ctx, hamfly_control_t *out)
 815:app_statemachine.c **** {
 3959              		.loc 1 815 0
 3960              		.cfi_startproc
 3961              		@ args = 0, pretend = 0, frame = 8
 3962              		@ frame_needed = 1, uses_anonymous_args = 0
 3963 0000 80B5     		push	{r7, lr}
 3964              		.cfi_def_cfa_offset 8
 3965              		.cfi_offset 7, -8
 3966              		.cfi_offset 14, -4
 3967 0002 82B0     		sub	sp, sp, #8
 3968              		.cfi_def_cfa_offset 16
 3969 0004 00AF     		add	r7, sp, #0
 3970              		.cfi_def_cfa_register 7
 3971 0006 7860     		str	r0, [r7, #4]
 3972 0008 3960     		str	r1, [r7]
 816:app_statemachine.c ****     (void)ctx;
 817:app_statemachine.c ****     memset(out, 0, sizeof *out);
 3973              		.loc 1 817 0
 3974 000a 1422     		movs	r2, #20
 3975 000c 0021     		movs	r1, #0
 3976 000e 3868     		ldr	r0, [r7]
 3977 0010 FFF7FEFF 		bl	memset
 818:app_statemachine.c **** }
 3978              		.loc 1 818 0
 3979 0014 00BF     		nop
 3980 0016 0837     		adds	r7, r7, #8
 3981              		.cfi_def_cfa_offset 8
 3982 0018 BD46     		mov	sp, r7
 3983              		.cfi_def_cfa_register 13
 3984              		@ sp needed
 3985 001a 80BD     		pop	{r7, pc}
 3986              		.cfi_endproc
 3987              	.LFE108:
 3988              		.size	build_zero, .-build_zero
 3989              		.section	.text.build_stby,"ax",%progbits
 3990              		.align	2
 3991              		.thumb
 3992              		.thumb_func
 3993              		.type	build_stby, %function
 3994              	build_stby:
 3995              	.LFB109:
 819:app_statemachine.c **** // Build packet for STBY states: zero rates, defer mode.
ARM GAS  C:\Users\JENNEW~1\AppData\Local\Temp\ccEqAB2L.s 			page 89


 820:app_statemachine.c **** static void build_stby(const app_ctx_t *ctx, hamfly_control_t *out) {
 3996              		.loc 1 820 0
 3997              		.cfi_startproc
 3998              		@ args = 0, pretend = 0, frame = 8
 3999              		@ frame_needed = 1, uses_anonymous_args = 0
 4000 0000 80B5     		push	{r7, lr}
 4001              		.cfi_def_cfa_offset 8
 4002              		.cfi_offset 7, -8
 4003              		.cfi_offset 14, -4
 4004 0002 82B0     		sub	sp, sp, #8
 4005              		.cfi_def_cfa_offset 16
 4006 0004 00AF     		add	r7, sp, #0
 4007              		.cfi_def_cfa_register 7
 4008 0006 7860     		str	r0, [r7, #4]
 4009 0008 3960     		str	r1, [r7]
 821:app_statemachine.c ****     build_zero(ctx, out);  // DEFERed, and disabled.
 4010              		.loc 1 821 0
 4011 000a 3968     		ldr	r1, [r7]
 4012 000c 7868     		ldr	r0, [r7, #4]
 4013 000e FFF7FEFF 		bl	build_zero
 822:app_statemachine.c **** }
 4014              		.loc 1 822 0
 4015 0012 00BF     		nop
 4016 0014 0837     		adds	r7, r7, #8
 4017              		.cfi_def_cfa_offset 8
 4018 0016 BD46     		mov	sp, r7
 4019              		.cfi_def_cfa_register 13
 4020              		@ sp needed
 4021 0018 80BD     		pop	{r7, pc}
 4022              		.cfi_endproc
 4023              	.LFE109:
 4024              		.size	build_stby, .-build_stby
 4025 001a 00BF     		.section	.text.build_manu_joystick,"ax",%progbits
 4026              		.align	2
 4027              		.thumb
 4028              		.thumb_func
 4029              		.type	build_manu_joystick, %function
 4030              	build_manu_joystick:
 4031              	.LFB110:
 823:app_statemachine.c **** 
 824:app_statemachine.c **** // Build packet from joystick inputs.
 825:app_statemachine.c **** static void build_manu_joystick(const app_ctx_t *ctx, hamfly_control_t *out) {
 4032              		.loc 1 825 0
 4033              		.cfi_startproc
 4034              		@ args = 0, pretend = 0, frame = 8
 4035              		@ frame_needed = 1, uses_anonymous_args = 0
 4036 0000 80B5     		push	{r7, lr}
 4037              		.cfi_def_cfa_offset 8
 4038              		.cfi_offset 7, -8
 4039              		.cfi_offset 14, -4
 4040 0002 82B0     		sub	sp, sp, #8
 4041              		.cfi_def_cfa_offset 16
 4042 0004 00AF     		add	r7, sp, #0
 4043              		.cfi_def_cfa_register 7
 4044 0006 7860     		str	r0, [r7, #4]
 4045 0008 3960     		str	r1, [r7]
 826:app_statemachine.c ****     out->enable    = 1u;
ARM GAS  C:\Users\JENNEW~1\AppData\Local\Temp\ccEqAB2L.s 			page 90


 4046              		.loc 1 826 0
 4047 000a 3B68     		ldr	r3, [r7]
 4048 000c 0122     		movs	r2, #1
 4049 000e DA73     		strb	r2, [r3, #15]
 827:app_statemachine.c ****     out->roll_mode = HAMFLY_DEFER;
 4050              		.loc 1 827 0
 4051 0010 3B68     		ldr	r3, [r7]
 4052 0012 0022     		movs	r2, #0
 4053 0014 9A73     		strb	r2, [r3, #14]
 828:app_statemachine.c ****     out->roll      = 0.0f;
 4054              		.loc 1 828 0
 4055 0016 3B68     		ldr	r3, [r7]
 4056 0018 4FF00002 		mov	r2, #0
 4057 001c 9A60     		str	r2, [r3, #8]	@ float
 829:app_statemachine.c ****     out->kill      = 0u;
 4058              		.loc 1 829 0
 4059 001e 3B68     		ldr	r3, [r7]
 4060 0020 0022     		movs	r2, #0
 4061 0022 1A74     		strb	r2, [r3, #16]
 830:app_statemachine.c ****     // Nudge vs joystick control mode
 831:app_statemachine.c ****     if (ctx->nudge_hold) {
 4062              		.loc 1 831 0
 4063 0024 7B68     		ldr	r3, [r7, #4]
 4064 0026 93F87830 		ldrb	r3, [r3, #120]	@ zero_extendqisi2
 4065 002a 002B     		cmp	r3, #0
 4066 002c 25D0     		beq	.L304
 832:app_statemachine.c ****         out->pan_mode = out->tilt_mode = HAMFLY_ABSOLUTE;
 4067              		.loc 1 832 0
 4068 002e 3B68     		ldr	r3, [r7]
 4069 0030 0222     		movs	r2, #2
 4070 0032 5A73     		strb	r2, [r3, #13]
 4071 0034 3B68     		ldr	r3, [r7]
 4072 0036 5A7B     		ldrb	r2, [r3, #13]	@ zero_extendqisi2
 4073 0038 3B68     		ldr	r3, [r7]
 4074 003a 1A73     		strb	r2, [r3, #12]
 833:app_statemachine.c ****         out->pan  = DEG_TO_UNIT(ctx->tgt_pan_deg - ctx->nudge_base_pan_deg); /* pan rebased -> rela
 4075              		.loc 1 833 0
 4076 003c 7B68     		ldr	r3, [r7, #4]
 4077 003e D3F88820 		ldr	r2, [r3, #136]	@ float
 4078 0042 7B68     		ldr	r3, [r7, #4]
 4079 0044 D3F88030 		ldr	r3, [r3, #128]	@ float
 4080 0048 1946     		mov	r1, r3
 4081 004a 1046     		mov	r0, r2
 4082 004c FFF7FEFF 		bl	__aeabi_fsub
 4083 0050 0346     		mov	r3, r0
 4084 0052 1449     		ldr	r1, .L307
 4085 0054 1846     		mov	r0, r3
 4086 0056 FFF7FEFF 		bl	__aeabi_fdiv
 4087 005a 0346     		mov	r3, r0
 4088 005c 1A46     		mov	r2, r3
 4089 005e 3B68     		ldr	r3, [r7]
 4090 0060 1A60     		str	r2, [r3]	@ float
 834:app_statemachine.c ****         out->tilt = DEG_TO_UNIT(ctx->tgt_tilt_deg);                          /* tilt true-absolute 
 4091              		.loc 1 834 0
 4092 0062 7B68     		ldr	r3, [r7, #4]
 4093 0064 D3F88C30 		ldr	r3, [r3, #140]	@ float
 4094 0068 0E49     		ldr	r1, .L307
ARM GAS  C:\Users\JENNEW~1\AppData\Local\Temp\ccEqAB2L.s 			page 91


 4095 006a 1846     		mov	r0, r3
 4096 006c FFF7FEFF 		bl	__aeabi_fdiv
 4097 0070 0346     		mov	r3, r0
 4098 0072 1A46     		mov	r2, r3
 4099 0074 3B68     		ldr	r3, [r7]
 4100 0076 5A60     		str	r2, [r3, #4]	@ float
 835:app_statemachine.c ****     } else {
 836:app_statemachine.c ****         out->pan_mode = out->tilt_mode = HAMFLY_RATE;
 837:app_statemachine.c ****         out->pan  =  ctx->cmd.u[CH_X];
 838:app_statemachine.c ****         out->tilt = -ctx->cmd.u[CH_Y];
 839:app_statemachine.c ****     }
 840:app_statemachine.c **** 
 841:app_statemachine.c **** }
 4101              		.loc 1 841 0
 4102 0078 10E0     		b	.L306
 4103              	.L304:
 836:app_statemachine.c ****         out->pan  =  ctx->cmd.u[CH_X];
 4104              		.loc 1 836 0
 4105 007a 3B68     		ldr	r3, [r7]
 4106 007c 0122     		movs	r2, #1
 4107 007e 5A73     		strb	r2, [r3, #13]
 4108 0080 3B68     		ldr	r3, [r7]
 4109 0082 5A7B     		ldrb	r2, [r3, #13]	@ zero_extendqisi2
 4110 0084 3B68     		ldr	r3, [r7]
 4111 0086 1A73     		strb	r2, [r3, #12]
 837:app_statemachine.c ****         out->tilt = -ctx->cmd.u[CH_Y];
 4112              		.loc 1 837 0
 4113 0088 7B68     		ldr	r3, [r7, #4]
 4114 008a 9A6E     		ldr	r2, [r3, #104]	@ float
 4115 008c 3B68     		ldr	r3, [r7]
 4116 008e 1A60     		str	r2, [r3]	@ float
 838:app_statemachine.c ****     }
 4117              		.loc 1 838 0
 4118 0090 7B68     		ldr	r3, [r7, #4]
 4119 0092 DB6E     		ldr	r3, [r3, #108]	@ float
 4120 0094 83F00042 		eor	r2, r3, #-2147483648
 4121 0098 3B68     		ldr	r3, [r7]
 4122 009a 5A60     		str	r2, [r3, #4]	@ float
 4123              	.L306:
 4124              		.loc 1 841 0
 4125 009c 00BF     		nop
 4126 009e 0837     		adds	r7, r7, #8
 4127              		.cfi_def_cfa_offset 8
 4128 00a0 BD46     		mov	sp, r7
 4129              		.cfi_def_cfa_register 13
 4130              		@ sp needed
 4131 00a2 80BD     		pop	{r7, pc}
 4132              	.L308:
 4133              		.align	2
 4134              	.L307:
 4135 00a4 00003443 		.word	1127481344
 4136              		.cfi_endproc
 4137              	.LFE110:
 4138              		.size	build_manu_joystick, .-build_manu_joystick
 4139              		.section	.text.build_error,"ax",%progbits
 4140              		.align	2
 4141              		.thumb
ARM GAS  C:\Users\JENNEW~1\AppData\Local\Temp\ccEqAB2L.s 			page 92


 4142              		.thumb_func
 4143              		.type	build_error, %function
 4144              	build_error:
 4145              	.LFB111:
 842:app_statemachine.c **** 
 843:app_statemachine.c **** // Build packet for when in ERROR state
 844:app_statemachine.c **** static void build_error(const app_ctx_t *ctx, hamfly_control_t *out) {
 4146              		.loc 1 844 0
 4147              		.cfi_startproc
 4148              		@ args = 0, pretend = 0, frame = 8
 4149              		@ frame_needed = 1, uses_anonymous_args = 0
 4150 0000 80B5     		push	{r7, lr}
 4151              		.cfi_def_cfa_offset 8
 4152              		.cfi_offset 7, -8
 4153              		.cfi_offset 14, -4
 4154 0002 82B0     		sub	sp, sp, #8
 4155              		.cfi_def_cfa_offset 16
 4156 0004 00AF     		add	r7, sp, #0
 4157              		.cfi_def_cfa_register 7
 4158 0006 7860     		str	r0, [r7, #4]
 4159 0008 3960     		str	r1, [r7]
 845:app_statemachine.c ****     build_zero(ctx, out);
 4160              		.loc 1 845 0
 4161 000a 3968     		ldr	r1, [r7]
 4162 000c 7868     		ldr	r0, [r7, #4]
 4163 000e FFF7FEFF 		bl	build_zero
 846:app_statemachine.c ****     if (ctx->err_sev == SEV_FATAL) out->kill = 1u;
 4164              		.loc 1 846 0
 4165 0012 7B68     		ldr	r3, [r7, #4]
 4166 0014 9B79     		ldrb	r3, [r3, #6]	@ zero_extendqisi2
 4167 0016 032B     		cmp	r3, #3
 4168 0018 02D1     		bne	.L311
 4169              		.loc 1 846 0 is_stmt 0 discriminator 1
 4170 001a 3B68     		ldr	r3, [r7]
 4171 001c 0122     		movs	r2, #1
 4172 001e 1A74     		strb	r2, [r3, #16]
 4173              	.L311:
 847:app_statemachine.c **** }
 4174              		.loc 1 847 0 is_stmt 1
 4175 0020 00BF     		nop
 4176 0022 0837     		adds	r7, r7, #8
 4177              		.cfi_def_cfa_offset 8
 4178 0024 BD46     		mov	sp, r7
 4179              		.cfi_def_cfa_register 13
 4180              		@ sp needed
 4181 0026 80BD     		pop	{r7, pc}
 4182              		.cfi_endproc
 4183              	.LFE111:
 4184              		.size	build_error, .-build_error
 4185              		.section	.text.app_build_control,"ax",%progbits
 4186              		.align	2
 4187              		.global	app_build_control
 4188              		.thumb
 4189              		.thumb_func
 4190              		.type	app_build_control, %function
 4191              	app_build_control:
 4192              	.LFB112:
ARM GAS  C:\Users\JENNEW~1\AppData\Local\Temp\ccEqAB2L.s 			page 93


 848:app_statemachine.c **** 
 849:app_statemachine.c **** 
 850:app_statemachine.c **** // Do build. For states without a build function returns zeroed packet.
 851:app_statemachine.c **** void app_build_control(const app_ctx_t *ctx, hamfly_control_t *out)
 852:app_statemachine.c **** {
 4193              		.loc 1 852 0
 4194              		.cfi_startproc
 4195              		@ args = 0, pretend = 0, frame = 16
 4196              		@ frame_needed = 1, uses_anonymous_args = 0
 4197 0000 80B5     		push	{r7, lr}
 4198              		.cfi_def_cfa_offset 8
 4199              		.cfi_offset 7, -8
 4200              		.cfi_offset 14, -4
 4201 0002 84B0     		sub	sp, sp, #16
 4202              		.cfi_def_cfa_offset 24
 4203 0004 00AF     		add	r7, sp, #0
 4204              		.cfi_def_cfa_register 7
 4205 0006 7860     		str	r0, [r7, #4]
 4206 0008 3960     		str	r1, [r7]
 853:app_statemachine.c ****     build_fn_t f = on_build[ctx->state];
 4207              		.loc 1 853 0
 4208 000a 7B68     		ldr	r3, [r7, #4]
 4209 000c 1B79     		ldrb	r3, [r3, #4]	@ zero_extendqisi2
 4210 000e 1A46     		mov	r2, r3
 4211 0010 094B     		ldr	r3, .L316
 4212 0012 53F82230 		ldr	r3, [r3, r2, lsl #2]
 4213 0016 FB60     		str	r3, [r7, #12]
 854:app_statemachine.c ****     if (f)  f(ctx, out);
 4214              		.loc 1 854 0
 4215 0018 FB68     		ldr	r3, [r7, #12]
 4216 001a 002B     		cmp	r3, #0
 4217 001c 04D0     		beq	.L313
 4218              		.loc 1 854 0 is_stmt 0 discriminator 1
 4219 001e FB68     		ldr	r3, [r7, #12]
 4220 0020 3968     		ldr	r1, [r7]
 4221 0022 7868     		ldr	r0, [r7, #4]
 4222 0024 9847     		blx	r3
 855:app_statemachine.c ****     else    build_zero(ctx, out);  // Safe default.
 856:app_statemachine.c **** }
 4223              		.loc 1 856 0 is_stmt 1 discriminator 1
 4224 0026 03E0     		b	.L315
 4225              	.L313:
 855:app_statemachine.c ****     else    build_zero(ctx, out);  // Safe default.
 4226              		.loc 1 855 0
 4227 0028 3968     		ldr	r1, [r7]
 4228 002a 7868     		ldr	r0, [r7, #4]
 4229 002c FFF7FEFF 		bl	build_zero
 4230              	.L315:
 4231              		.loc 1 856 0
 4232 0030 00BF     		nop
 4233 0032 1037     		adds	r7, r7, #16
 4234              		.cfi_def_cfa_offset 8
 4235 0034 BD46     		mov	sp, r7
 4236              		.cfi_def_cfa_register 13
 4237              		@ sp needed
 4238 0036 80BD     		pop	{r7, pc}
 4239              	.L317:
ARM GAS  C:\Users\JENNEW~1\AppData\Local\Temp\ccEqAB2L.s 			page 94


 4240              		.align	2
 4241              	.L316:
 4242 0038 C4000000 		.word	on_build
 4243              		.cfi_endproc
 4244              	.LFE112:
 4245              		.size	app_build_control, .-app_build_control
 4246              		.section	.rodata
 4247 068b 00       		.align	2
 4248              	.LC48:
 4249 068c 6E6F2074 		.ascii	"no telemetry (nudge ignored).\000"
 4249      656C656D 
 4249      65747279 
 4249      20286E75 
 4249      64676520 
 4250 06aa 0000     		.align	2
 4251              	.LC49:
 4252 06ac 4E756467 		.ascii	"Nudging!\015\012\000"
 4252      696E6721 
 4252      0D0A00
 4253              		.section	.text.nudge_apply,"ax",%progbits
 4254              		.align	2
 4255              		.thumb
 4256              		.thumb_func
 4257              		.type	nudge_apply, %function
 4258              	nudge_apply:
 4259              	.LFB113:
 857:app_statemachine.c **** 
 858:app_statemachine.c **** // TEMP: Nudge handler
 859:app_statemachine.c **** static void nudge_apply(app_ctx_t *ctx, float dpan_deg, float dtilt_deg)
 860:app_statemachine.c **** {
 4260              		.loc 1 860 0
 4261              		.cfi_startproc
 4262              		@ args = 0, pretend = 0, frame = 24
 4263              		@ frame_needed = 1, uses_anonymous_args = 0
 4264 0000 90B5     		push	{r4, r7, lr}
 4265              		.cfi_def_cfa_offset 12
 4266              		.cfi_offset 4, -12
 4267              		.cfi_offset 7, -8
 4268              		.cfi_offset 14, -4
 4269 0002 87B0     		sub	sp, sp, #28
 4270              		.cfi_def_cfa_offset 40
 4271 0004 00AF     		add	r7, sp, #0
 4272              		.cfi_def_cfa_register 7
 4273 0006 F860     		str	r0, [r7, #12]
 4274 0008 B960     		str	r1, [r7, #8]	@ float
 4275 000a 7A60     		str	r2, [r7, #4]	@ float
 861:app_statemachine.c ****     if (!ctx->nudge_hold) {// Capture nudge baseline
 4276              		.loc 1 861 0
 4277 000c FB68     		ldr	r3, [r7, #12]
 4278 000e 93F87830 		ldrb	r3, [r3, #120]	@ zero_extendqisi2
 4279 0012 002B     		cmp	r3, #0
 4280 0014 27D1     		bne	.L319
 4281              	.LBB13:
 862:app_statemachine.c ****         float p, t;
 863:app_statemachine.c ****         if (!manu_pan_tilt_deg(ctx, &p, &t)) {
 4282              		.loc 1 863 0
 4283 0016 07F11002 		add	r2, r7, #16
ARM GAS  C:\Users\JENNEW~1\AppData\Local\Temp\ccEqAB2L.s 			page 95


 4284 001a 07F11403 		add	r3, r7, #20
 4285 001e 1946     		mov	r1, r3
 4286 0020 F868     		ldr	r0, [r7, #12]
 4287 0022 FFF7FEFF 		bl	manu_pan_tilt_deg
 4288 0026 0346     		mov	r3, r0
 4289 0028 002B     		cmp	r3, #0
 4290 002a 05D1     		bne	.L320
 864:app_statemachine.c ****             app_raise_error(ctx, SEV_USER, "no telemetry (nudge ignored).");
 4291              		.loc 1 864 0
 4292 002c 5D4A     		ldr	r2, .L342
 4293 002e 0021     		movs	r1, #0
 4294 0030 F868     		ldr	r0, [r7, #12]
 4295 0032 FFF7FEFF 		bl	app_raise_error
 4296 0036 B2E0     		b	.L318
 4297              	.L320:
 865:app_statemachine.c ****             return;
 866:app_statemachine.c ****         }
 867:app_statemachine.c ****         UART_DEBUG_PutString("Nudging!\r\n");  // TODO: Verbose nudge print
 4298              		.loc 1 867 0
 4299 0038 5B48     		ldr	r0, .L342+4
 4300 003a FFF7FEFF 		bl	UART_DEBUG_PutString
 868:app_statemachine.c ****         ctx->nudge_base_pan_deg  = p;
 4301              		.loc 1 868 0
 4302 003e 7A69     		ldr	r2, [r7, #20]	@ float
 4303 0040 FB68     		ldr	r3, [r7, #12]
 4304 0042 C3F88020 		str	r2, [r3, #128]	@ float
 869:app_statemachine.c ****         ctx->nudge_base_tilt_deg = t;
 4305              		.loc 1 869 0
 4306 0046 3A69     		ldr	r2, [r7, #16]	@ float
 4307 0048 FB68     		ldr	r3, [r7, #12]
 4308 004a C3F88420 		str	r2, [r3, #132]	@ float
 870:app_statemachine.c ****         ctx->tgt_pan_deg  = p;
 4309              		.loc 1 870 0
 4310 004e 7A69     		ldr	r2, [r7, #20]	@ float
 4311 0050 FB68     		ldr	r3, [r7, #12]
 4312 0052 C3F88820 		str	r2, [r3, #136]	@ float
 871:app_statemachine.c ****         ctx->tgt_tilt_deg = t;
 4313              		.loc 1 871 0
 4314 0056 3A69     		ldr	r2, [r7, #16]	@ float
 4315 0058 FB68     		ldr	r3, [r7, #12]
 4316 005a C3F88C20 		str	r2, [r3, #140]	@ float
 872:app_statemachine.c ****         ctx->nudge_hold = 1u;
 4317              		.loc 1 872 0
 4318 005e FB68     		ldr	r3, [r7, #12]
 4319 0060 0122     		movs	r2, #1
 4320 0062 83F87820 		strb	r2, [r3, #120]
 4321              	.L319:
 4322              	.LBE13:
 873:app_statemachine.c ****     }
 874:app_statemachine.c ****     ctx->tgt_pan_deg  = CLAMP(ctx->tgt_pan_deg  + dpan_deg,
 4323              		.loc 1 874 0
 4324 0066 FB68     		ldr	r3, [r7, #12]
 4325 0068 D3F88830 		ldr	r3, [r3, #136]	@ float
 4326 006c B968     		ldr	r1, [r7, #8]	@ float
 4327 006e 1846     		mov	r0, r3
 4328 0070 FFF7FEFF 		bl	__aeabi_fadd
 4329 0074 0346     		mov	r3, r0
ARM GAS  C:\Users\JENNEW~1\AppData\Local\Temp\ccEqAB2L.s 			page 96


 4330 0076 1C46     		mov	r4, r3
 4331 0078 FB68     		ldr	r3, [r7, #12]
 4332 007a DB6C     		ldr	r3, [r3, #76]	@ float
 4333 007c 4B49     		ldr	r1, .L342+8
 4334 007e 1846     		mov	r0, r3
 4335 0080 FFF7FEFF 		bl	__aeabi_fsub
 4336 0084 0346     		mov	r3, r0
 4337 0086 1946     		mov	r1, r3
 4338 0088 2046     		mov	r0, r4
 4339 008a FFF7FEFF 		bl	__aeabi_fcmplt
 4340 008e 0346     		mov	r3, r0
 4341 0090 002B     		cmp	r3, #0
 4342 0092 08D0     		beq	.L338
 4343              		.loc 1 874 0 is_stmt 0 discriminator 1
 4344 0094 FB68     		ldr	r3, [r7, #12]
 4345 0096 DB6C     		ldr	r3, [r3, #76]	@ float
 4346 0098 4449     		ldr	r1, .L342+8
 4347 009a 1846     		mov	r0, r3
 4348 009c FFF7FEFF 		bl	__aeabi_fsub
 4349 00a0 0346     		mov	r3, r0
 4350 00a2 1A46     		mov	r2, r3
 4351 00a4 28E0     		b	.L324
 4352              	.L338:
 4353              		.loc 1 874 0 discriminator 2
 4354 00a6 FB68     		ldr	r3, [r7, #12]
 4355 00a8 D3F88830 		ldr	r3, [r3, #136]	@ float
 4356 00ac B968     		ldr	r1, [r7, #8]	@ float
 4357 00ae 1846     		mov	r0, r3
 4358 00b0 FFF7FEFF 		bl	__aeabi_fadd
 4359 00b4 0346     		mov	r3, r0
 4360 00b6 1C46     		mov	r4, r3
 4361 00b8 FB68     		ldr	r3, [r7, #12]
 4362 00ba DB6C     		ldr	r3, [r3, #76]	@ float
 4363 00bc 3B49     		ldr	r1, .L342+8
 4364 00be 1846     		mov	r0, r3
 4365 00c0 FFF7FEFF 		bl	__aeabi_fadd
 4366 00c4 0346     		mov	r3, r0
 4367 00c6 1946     		mov	r1, r3
 4368 00c8 2046     		mov	r0, r4
 4369 00ca FFF7FEFF 		bl	__aeabi_fcmpgt
 4370 00ce 0346     		mov	r3, r0
 4371 00d0 002B     		cmp	r3, #0
 4372 00d2 08D0     		beq	.L339
 4373              		.loc 1 874 0 discriminator 4
 4374 00d4 FB68     		ldr	r3, [r7, #12]
 4375 00d6 DB6C     		ldr	r3, [r3, #76]	@ float
 4376 00d8 3449     		ldr	r1, .L342+8
 4377 00da 1846     		mov	r0, r3
 4378 00dc FFF7FEFF 		bl	__aeabi_fadd
 4379 00e0 0346     		mov	r3, r0
 4380 00e2 1A46     		mov	r2, r3
 4381 00e4 08E0     		b	.L324
 4382              	.L339:
 4383              		.loc 1 874 0 discriminator 5
 4384 00e6 FB68     		ldr	r3, [r7, #12]
 4385 00e8 D3F88830 		ldr	r3, [r3, #136]	@ float
 4386 00ec B968     		ldr	r1, [r7, #8]	@ float
ARM GAS  C:\Users\JENNEW~1\AppData\Local\Temp\ccEqAB2L.s 			page 97


 4387 00ee 1846     		mov	r0, r3
 4388 00f0 FFF7FEFF 		bl	__aeabi_fadd
 4389 00f4 0346     		mov	r3, r0
 4390 00f6 1A46     		mov	r2, r3
 4391              	.L324:
 4392              		.loc 1 874 0 discriminator 8
 4393 00f8 FB68     		ldr	r3, [r7, #12]
 4394 00fa C3F88820 		str	r2, [r3, #136]	@ float
 875:app_statemachine.c ****                               ctx->origin_pan_deg  + LIMIT_PAN_MIN_DEG,
 876:app_statemachine.c ****                               ctx->origin_pan_deg  + LIMIT_PAN_MAX_DEG);
 877:app_statemachine.c ****     ctx->tgt_tilt_deg = CLAMP(ctx->tgt_tilt_deg + dtilt_deg,
 4395              		.loc 1 877 0 is_stmt 1 discriminator 8
 4396 00fe FB68     		ldr	r3, [r7, #12]
 4397 0100 D3F88C30 		ldr	r3, [r3, #140]	@ float
 4398 0104 7968     		ldr	r1, [r7, #4]	@ float
 4399 0106 1846     		mov	r0, r3
 4400 0108 FFF7FEFF 		bl	__aeabi_fadd
 4401 010c 0346     		mov	r3, r0
 4402 010e 1C46     		mov	r4, r3
 4403 0110 FB68     		ldr	r3, [r7, #12]
 4404 0112 1B6D     		ldr	r3, [r3, #80]	@ float
 4405 0114 2649     		ldr	r1, .L342+12
 4406 0116 1846     		mov	r0, r3
 4407 0118 FFF7FEFF 		bl	__aeabi_fsub
 4408 011c 0346     		mov	r3, r0
 4409 011e 1946     		mov	r1, r3
 4410 0120 2046     		mov	r0, r4
 4411 0122 FFF7FEFF 		bl	__aeabi_fcmplt
 4412 0126 0346     		mov	r3, r0
 4413 0128 002B     		cmp	r3, #0
 4414 012a 08D0     		beq	.L340
 4415              		.loc 1 877 0 is_stmt 0 discriminator 1
 4416 012c FB68     		ldr	r3, [r7, #12]
 4417 012e 1B6D     		ldr	r3, [r3, #80]	@ float
 4418 0130 1F49     		ldr	r1, .L342+12
 4419 0132 1846     		mov	r0, r3
 4420 0134 FFF7FEFF 		bl	__aeabi_fsub
 4421 0138 0346     		mov	r3, r0
 4422 013a 1A46     		mov	r2, r3
 4423 013c 28E0     		b	.L330
 4424              	.L340:
 4425              		.loc 1 877 0 discriminator 2
 4426 013e FB68     		ldr	r3, [r7, #12]
 4427 0140 D3F88C30 		ldr	r3, [r3, #140]	@ float
 4428 0144 7968     		ldr	r1, [r7, #4]	@ float
 4429 0146 1846     		mov	r0, r3
 4430 0148 FFF7FEFF 		bl	__aeabi_fadd
 4431 014c 0346     		mov	r3, r0
 4432 014e 1C46     		mov	r4, r3
 4433 0150 FB68     		ldr	r3, [r7, #12]
 4434 0152 1B6D     		ldr	r3, [r3, #80]	@ float
 4435 0154 1649     		ldr	r1, .L342+12
 4436 0156 1846     		mov	r0, r3
 4437 0158 FFF7FEFF 		bl	__aeabi_fadd
 4438 015c 0346     		mov	r3, r0
 4439 015e 1946     		mov	r1, r3
 4440 0160 2046     		mov	r0, r4
ARM GAS  C:\Users\JENNEW~1\AppData\Local\Temp\ccEqAB2L.s 			page 98


 4441 0162 FFF7FEFF 		bl	__aeabi_fcmpgt
 4442 0166 0346     		mov	r3, r0
 4443 0168 002B     		cmp	r3, #0
 4444 016a 08D0     		beq	.L341
 4445              		.loc 1 877 0 discriminator 4
 4446 016c FB68     		ldr	r3, [r7, #12]
 4447 016e 1B6D     		ldr	r3, [r3, #80]	@ float
 4448 0170 0F49     		ldr	r1, .L342+12
 4449 0172 1846     		mov	r0, r3
 4450 0174 FFF7FEFF 		bl	__aeabi_fadd
 4451 0178 0346     		mov	r3, r0
 4452 017a 1A46     		mov	r2, r3
 4453 017c 08E0     		b	.L330
 4454              	.L341:
 4455              		.loc 1 877 0 discriminator 5
 4456 017e FB68     		ldr	r3, [r7, #12]
 4457 0180 D3F88C30 		ldr	r3, [r3, #140]	@ float
 4458 0184 7968     		ldr	r1, [r7, #4]	@ float
 4459 0186 1846     		mov	r0, r3
 4460 0188 FFF7FEFF 		bl	__aeabi_fadd
 4461 018c 0346     		mov	r3, r0
 4462 018e 1A46     		mov	r2, r3
 4463              	.L330:
 4464              		.loc 1 877 0 discriminator 8
 4465 0190 FB68     		ldr	r3, [r7, #12]
 4466 0192 C3F88C20 		str	r2, [r3, #140]	@ float
 878:app_statemachine.c ****                               ctx->origin_tilt_deg + LIMIT_TILT_MIN_DEG,
 879:app_statemachine.c ****                               ctx->origin_tilt_deg + LIMIT_TILT_MAX_DEG);
 880:app_statemachine.c ****     ctx->nudge_start_ms = g_tick_ms;  // Restart the dwell timer
 4467              		.loc 1 880 0 is_stmt 1 discriminator 8
 4468 0196 074B     		ldr	r3, .L342+16
 4469 0198 1A68     		ldr	r2, [r3]
 4470 019a FB68     		ldr	r3, [r7, #12]
 4471 019c DA67     		str	r2, [r3, #124]
 4472              	.L318:
 881:app_statemachine.c **** }
 4473              		.loc 1 881 0
 4474 019e 1C37     		adds	r7, r7, #28
 4475              		.cfi_def_cfa_offset 12
 4476 01a0 BD46     		mov	sp, r7
 4477              		.cfi_def_cfa_register 13
 4478              		@ sp needed
 4479 01a2 90BD     		pop	{r4, r7, pc}
 4480              	.L343:
 4481              		.align	2
 4482              	.L342:
 4483 01a4 8C060000 		.word	.LC48
 4484 01a8 AC060000 		.word	.LC49
 4485 01ac 0000F041 		.word	1106247680
 4486 01b0 0000A041 		.word	1101004800
 4487 01b4 00000000 		.word	g_tick_ms
 4488              		.cfi_endproc
 4489              	.LFE113:
 4490              		.size	nudge_apply, .-nudge_apply
 4491              		.section	.text.key_manu_joystick,"ax",%progbits
 4492              		.align	2
 4493              		.thumb
ARM GAS  C:\Users\JENNEW~1\AppData\Local\Temp\ccEqAB2L.s 			page 99


 4494              		.thumb_func
 4495              		.type	key_manu_joystick, %function
 4496              	key_manu_joystick:
 4497              	.LFB114:
 882:app_statemachine.c **** 
 883:app_statemachine.c **** static uint8_t key_manu_joystick(app_ctx_t *ctx, char k)
 884:app_statemachine.c **** {
 4498              		.loc 1 884 0
 4499              		.cfi_startproc
 4500              		@ args = 0, pretend = 0, frame = 8
 4501              		@ frame_needed = 1, uses_anonymous_args = 0
 4502 0000 80B5     		push	{r7, lr}
 4503              		.cfi_def_cfa_offset 8
 4504              		.cfi_offset 7, -8
 4505              		.cfi_offset 14, -4
 4506 0002 82B0     		sub	sp, sp, #8
 4507              		.cfi_def_cfa_offset 16
 4508 0004 00AF     		add	r7, sp, #0
 4509              		.cfi_def_cfa_register 7
 4510 0006 7860     		str	r0, [r7, #4]
 4511 0008 0B46     		mov	r3, r1
 4512 000a FB70     		strb	r3, [r7, #3]
 885:app_statemachine.c ****     switch (k) {
 4513              		.loc 1 885 0
 4514 000c FB78     		ldrb	r3, [r7, #3]	@ zero_extendqisi2
 4515 000e 323B     		subs	r3, r3, #50
 4516 0010 452B     		cmp	r3, #69
 4517 0012 00F2FB80 		bhi	.L345
 4518 0016 01A2     		adr	r2, .L347
 4519 0018 52F823F0 		ldr	pc, [r2, r3, lsl #2]
 4520              		.p2align 2
 4521              	.L347:
 4522 001c 45010000 		.word	.L346+1
 4523 0020 0D020000 		.word	.L345+1
 4524 0024 55010000 		.word	.L348+1
 4525 0028 0D020000 		.word	.L345+1
 4526 002c 65010000 		.word	.L349+1
 4527 0030 0D020000 		.word	.L345+1
 4528 0034 35010000 		.word	.L350+1
 4529 0038 0D020000 		.word	.L345+1
 4530 003c 0D020000 		.word	.L345+1
 4531 0040 0D020000 		.word	.L345+1
 4532 0044 0D020000 		.word	.L345+1
 4533 0048 0D020000 		.word	.L345+1
 4534 004c 0D020000 		.word	.L345+1
 4535 0050 0D020000 		.word	.L345+1
 4536 0054 0D020000 		.word	.L345+1
 4537 0058 0D020000 		.word	.L345+1
 4538 005c 0D020000 		.word	.L345+1
 4539 0060 0D020000 		.word	.L345+1
 4540 0064 0D020000 		.word	.L345+1
 4541 0068 0D020000 		.word	.L345+1
 4542 006c 0D020000 		.word	.L345+1
 4543 0070 0D020000 		.word	.L345+1
 4544 0074 0D020000 		.word	.L345+1
 4545 0078 0D020000 		.word	.L345+1
 4546 007c 0D020000 		.word	.L345+1
ARM GAS  C:\Users\JENNEW~1\AppData\Local\Temp\ccEqAB2L.s 			page 100


 4547 0080 0D020000 		.word	.L345+1
 4548 0084 0D020000 		.word	.L345+1
 4549 0088 0D020000 		.word	.L345+1
 4550 008c 0D020000 		.word	.L345+1
 4551 0090 0D020000 		.word	.L345+1
 4552 0094 0D020000 		.word	.L345+1
 4553 0098 0D020000 		.word	.L345+1
 4554 009c 0D020000 		.word	.L345+1
 4555 00a0 0D020000 		.word	.L345+1
 4556 00a4 0D020000 		.word	.L345+1
 4557 00a8 0D020000 		.word	.L345+1
 4558 00ac 0D020000 		.word	.L345+1
 4559 00b0 0D020000 		.word	.L345+1
 4560 00b4 0D020000 		.word	.L345+1
 4561 00b8 0D020000 		.word	.L345+1
 4562 00bc 0D020000 		.word	.L345+1
 4563 00c0 0D020000 		.word	.L345+1
 4564 00c4 0D020000 		.word	.L345+1
 4565 00c8 0D020000 		.word	.L345+1
 4566 00cc 0D020000 		.word	.L345+1
 4567 00d0 0D020000 		.word	.L345+1
 4568 00d4 0D020000 		.word	.L345+1
 4569 00d8 DF010000 		.word	.L351+1
 4570 00dc 0D020000 		.word	.L345+1
 4571 00e0 0D020000 		.word	.L345+1
 4572 00e4 EF010000 		.word	.L352+1
 4573 00e8 01020000 		.word	.L353+1
 4574 00ec 0D020000 		.word	.L345+1
 4575 00f0 0D020000 		.word	.L345+1
 4576 00f4 0D020000 		.word	.L345+1
 4577 00f8 75010000 		.word	.L354+1
 4578 00fc 99010000 		.word	.L355+1
 4579 0100 87010000 		.word	.L356+1
 4580 0104 AB010000 		.word	.L357+1
 4581 0108 0D020000 		.word	.L345+1
 4582 010c 0D020000 		.word	.L345+1
 4583 0110 0D020000 		.word	.L345+1
 4584 0114 0D020000 		.word	.L345+1
 4585 0118 0D020000 		.word	.L345+1
 4586 011c 0D020000 		.word	.L345+1
 4587 0120 CF010000 		.word	.L358+1
 4588 0124 0D020000 		.word	.L345+1
 4589 0128 0D020000 		.word	.L345+1
 4590 012c 0D020000 		.word	.L345+1
 4591 0130 BD010000 		.word	.L359+1
 4592              		.p2align 1
 4593              	.L350:
 886:app_statemachine.c ****         case '8': nudge_apply(ctx, 0,    +NUDGE_LSB_DEG);  return 1;  // Numpad
 4594              		.loc 1 886 0
 4595 0134 384A     		ldr	r2, .L361
 4596 0136 4FF00001 		mov	r1, #0
 4597 013a 7868     		ldr	r0, [r7, #4]
 4598 013c FFF7FEFF 		bl	nudge_apply
 4599 0140 0123     		movs	r3, #1
 4600 0142 64E0     		b	.L360
 4601              	.L346:
 887:app_statemachine.c ****         case '2': nudge_apply(ctx, 0,    -NUDGE_LSB_DEG);  return 1;  // Numpad
ARM GAS  C:\Users\JENNEW~1\AppData\Local\Temp\ccEqAB2L.s 			page 101


 4602              		.loc 1 887 0
 4603 0144 354A     		ldr	r2, .L361+4
 4604 0146 4FF00001 		mov	r1, #0
 4605 014a 7868     		ldr	r0, [r7, #4]
 4606 014c FFF7FEFF 		bl	nudge_apply
 4607 0150 0123     		movs	r3, #1
 4608 0152 5CE0     		b	.L360
 4609              	.L348:
 888:app_statemachine.c ****         case '4': nudge_apply(ctx, -NUDGE_LSB_DEG,    0);  return 1;  // Numpad
 4610              		.loc 1 888 0
 4611 0154 4FF00002 		mov	r2, #0
 4612 0158 3049     		ldr	r1, .L361+4
 4613 015a 7868     		ldr	r0, [r7, #4]
 4614 015c FFF7FEFF 		bl	nudge_apply
 4615 0160 0123     		movs	r3, #1
 4616 0162 54E0     		b	.L360
 4617              	.L349:
 889:app_statemachine.c ****         case '6': nudge_apply(ctx, +NUDGE_LSB_DEG,    0);  return 1;  // Numpad
 4618              		.loc 1 889 0
 4619 0164 4FF00002 		mov	r2, #0
 4620 0168 2B49     		ldr	r1, .L361
 4621 016a 7868     		ldr	r0, [r7, #4]
 4622 016c FFF7FEFF 		bl	nudge_apply
 4623 0170 0123     		movs	r3, #1
 4624 0172 4CE0     		b	.L360
 4625              	.L354:
 890:app_statemachine.c **** 
 891:app_statemachine.c ****         case 'i': nudge_apply(ctx, 0,    +NUDGE_FINE_DEG);   return 1;  // ijkl
 4626              		.loc 1 891 0
 4627 0174 4FF07C52 		mov	r2, #1056964608
 4628 0178 4FF00001 		mov	r1, #0
 4629 017c 7868     		ldr	r0, [r7, #4]
 4630 017e FFF7FEFF 		bl	nudge_apply
 4631 0182 0123     		movs	r3, #1
 4632 0184 43E0     		b	.L360
 4633              	.L356:
 892:app_statemachine.c ****         case 'k': nudge_apply(ctx, 0,    -NUDGE_FINE_DEG);   return 1;  // ijkl
 4634              		.loc 1 892 0
 4635 0186 4FF03F42 		mov	r2, #-1090519040
 4636 018a 4FF00001 		mov	r1, #0
 4637 018e 7868     		ldr	r0, [r7, #4]
 4638 0190 FFF7FEFF 		bl	nudge_apply
 4639 0194 0123     		movs	r3, #1
 4640 0196 3AE0     		b	.L360
 4641              	.L355:
 893:app_statemachine.c ****         case 'j': nudge_apply(ctx, -NUDGE_FINE_DEG,   0);    return 1;  // ijkl
 4642              		.loc 1 893 0
 4643 0198 4FF00002 		mov	r2, #0
 4644 019c 4FF03F41 		mov	r1, #-1090519040
 4645 01a0 7868     		ldr	r0, [r7, #4]
 4646 01a2 FFF7FEFF 		bl	nudge_apply
 4647 01a6 0123     		movs	r3, #1
 4648 01a8 31E0     		b	.L360
 4649              	.L357:
 894:app_statemachine.c ****         case 'l': nudge_apply(ctx, +NUDGE_FINE_DEG,   0);    return 1;  // ijkl
 4650              		.loc 1 894 0
 4651 01aa 4FF00002 		mov	r2, #0
ARM GAS  C:\Users\JENNEW~1\AppData\Local\Temp\ccEqAB2L.s 			page 102


 4652 01ae 4FF07C51 		mov	r1, #1056964608
 4653 01b2 7868     		ldr	r0, [r7, #4]
 4654 01b4 FFF7FEFF 		bl	nudge_apply
 4655 01b8 0123     		movs	r3, #1
 4656 01ba 28E0     		b	.L360
 4657              	.L359:
 895:app_statemachine.c **** 
 896:app_statemachine.c ****         case 'w': nudge_apply(ctx, 0,    +NUDGE_COARSE_DEG); return 1;  // wasd
 4658              		.loc 1 896 0
 4659 01bc 4FF07E52 		mov	r2, #1065353216
 4660 01c0 4FF00001 		mov	r1, #0
 4661 01c4 7868     		ldr	r0, [r7, #4]
 4662 01c6 FFF7FEFF 		bl	nudge_apply
 4663 01ca 0123     		movs	r3, #1
 4664 01cc 1FE0     		b	.L360
 4665              	.L358:
 897:app_statemachine.c ****         case 's': nudge_apply(ctx, 0,    -NUDGE_COARSE_DEG); return 1;  // wasd
 4666              		.loc 1 897 0
 4667 01ce 144A     		ldr	r2, .L361+8
 4668 01d0 4FF00001 		mov	r1, #0
 4669 01d4 7868     		ldr	r0, [r7, #4]
 4670 01d6 FFF7FEFF 		bl	nudge_apply
 4671 01da 0123     		movs	r3, #1
 4672 01dc 17E0     		b	.L360
 4673              	.L351:
 898:app_statemachine.c ****         case 'a': nudge_apply(ctx, -NUDGE_COARSE_DEG, 0);    return 1;  // wasd
 4674              		.loc 1 898 0
 4675 01de 4FF00002 		mov	r2, #0
 4676 01e2 0F49     		ldr	r1, .L361+8
 4677 01e4 7868     		ldr	r0, [r7, #4]
 4678 01e6 FFF7FEFF 		bl	nudge_apply
 4679 01ea 0123     		movs	r3, #1
 4680 01ec 0FE0     		b	.L360
 4681              	.L352:
 899:app_statemachine.c ****         case 'd': nudge_apply(ctx, +NUDGE_COARSE_DEG, 0);    return 1;  // wasd
 4682              		.loc 1 899 0
 4683 01ee 4FF00002 		mov	r2, #0
 4684 01f2 4FF07E51 		mov	r1, #1065353216
 4685 01f6 7868     		ldr	r0, [r7, #4]
 4686 01f8 FFF7FEFF 		bl	nudge_apply
 4687 01fc 0123     		movs	r3, #1
 4688 01fe 06E0     		b	.L360
 4689              	.L353:
 900:app_statemachine.c ****         case 'e': transition(ctx, STBY_HOLD);                return 1;  // Exit
 4690              		.loc 1 900 0
 4691 0200 0621     		movs	r1, #6
 4692 0202 7868     		ldr	r0, [r7, #4]
 4693 0204 FFF7FEFF 		bl	transition
 4694 0208 0123     		movs	r3, #1
 4695 020a 00E0     		b	.L360
 4696              	.L345:
 901:app_statemachine.c ****         default:  return 0;
 4697              		.loc 1 901 0
 4698 020c 0023     		movs	r3, #0
 4699              	.L360:
 902:app_statemachine.c ****     }
 903:app_statemachine.c **** }
ARM GAS  C:\Users\JENNEW~1\AppData\Local\Temp\ccEqAB2L.s 			page 103


 4700              		.loc 1 903 0
 4701 020e 1846     		mov	r0, r3
 4702 0210 0837     		adds	r7, r7, #8
 4703              		.cfi_def_cfa_offset 8
 4704 0212 BD46     		mov	sp, r7
 4705              		.cfi_def_cfa_register 13
 4706              		@ sp needed
 4707 0214 80BD     		pop	{r7, pc}
 4708              	.L362:
 4709 0216 00BF     		.align	2
 4710              	.L361:
 4711 0218 6801B43B 		.word	1001652584
 4712 021c 6801B4BB 		.word	-1145831064
 4713 0220 000080BF 		.word	-1082130432
 4714              		.cfi_endproc
 4715              	.LFE114:
 4716              		.size	key_manu_joystick, .-key_manu_joystick
 4717              		.section	.text.app_manual_tick,"ax",%progbits
 4718              		.align	2
 4719              		.global	app_manual_tick
 4720              		.thumb
 4721              		.thumb_func
 4722              		.type	app_manual_tick, %function
 4723              	app_manual_tick:
 4724              	.LFB115:
 904:app_statemachine.c **** 
 905:app_statemachine.c **** // TEMP: Manual tick for nudge
 906:app_statemachine.c **** void app_manual_tick(app_ctx_t *ctx)
 907:app_statemachine.c **** {
 4725              		.loc 1 907 0
 4726              		.cfi_startproc
 4727              		@ args = 0, pretend = 0, frame = 24
 4728              		@ frame_needed = 1, uses_anonymous_args = 0
 4729 0000 80B5     		push	{r7, lr}
 4730              		.cfi_def_cfa_offset 8
 4731              		.cfi_offset 7, -8
 4732              		.cfi_offset 14, -4
 4733 0002 86B0     		sub	sp, sp, #24
 4734              		.cfi_def_cfa_offset 32
 4735 0004 00AF     		add	r7, sp, #0
 4736              		.cfi_def_cfa_register 7
 4737 0006 7860     		str	r0, [r7, #4]
 908:app_statemachine.c ****     if (ctx->state != MANU_JOYSTICK || !ctx->nudge_hold) return;
 4738              		.loc 1 908 0
 4739 0008 7B68     		ldr	r3, [r7, #4]
 4740 000a 1B79     		ldrb	r3, [r3, #4]	@ zero_extendqisi2
 4741 000c 072B     		cmp	r3, #7
 4742 000e 4ED1     		bne	.L378
 4743              		.loc 1 908 0 is_stmt 0 discriminator 1
 4744 0010 7B68     		ldr	r3, [r7, #4]
 4745 0012 93F87830 		ldrb	r3, [r3, #120]	@ zero_extendqisi2
 4746 0016 002B     		cmp	r3, #0
 4747 0018 49D0     		beq	.L378
 909:app_statemachine.c ****     uint32_t elapsed = g_tick_ms - ctx->nudge_start_ms;
 4748              		.loc 1 909 0 is_stmt 1
 4749 001a 284B     		ldr	r3, .L380
 4750 001c 1A68     		ldr	r2, [r3]
ARM GAS  C:\Users\JENNEW~1\AppData\Local\Temp\ccEqAB2L.s 			page 104


 4751 001e 7B68     		ldr	r3, [r7, #4]
 4752 0020 DB6F     		ldr	r3, [r3, #124]
 4753 0022 D31A     		subs	r3, r2, r3
 4754 0024 3B61     		str	r3, [r7, #16]
 910:app_statemachine.c ****     if (elapsed < NUDGE_MIN_DWELL_MS) return;       /* let the step physically land */
 4755              		.loc 1 910 0
 4756 0026 3B69     		ldr	r3, [r7, #16]
 4757 0028 952B     		cmp	r3, #149
 4758 002a 42D9     		bls	.L379
 911:app_statemachine.c **** 
 912:app_statemachine.c ****     float p, t; uint8_t arrived = 0u;
 4759              		.loc 1 912 0
 4760 002c 0023     		movs	r3, #0
 4761 002e FB75     		strb	r3, [r7, #23]
 913:app_statemachine.c ****     if (manu_pan_tilt_deg(ctx, &p, &t))
 4762              		.loc 1 913 0
 4763 0030 07F10802 		add	r2, r7, #8
 4764 0034 07F10C03 		add	r3, r7, #12
 4765 0038 1946     		mov	r1, r3
 4766 003a 7868     		ldr	r0, [r7, #4]
 4767 003c FFF7FEFF 		bl	manu_pan_tilt_deg
 4768 0040 0346     		mov	r3, r0
 4769 0042 002B     		cmp	r3, #0
 4770 0044 27D0     		beq	.L368
 914:app_statemachine.c ****         arrived = (fabsf(p - ctx->tgt_pan_deg)  < NUDGE_SETTLE_DEG) &&
 4771              		.loc 1 914 0
 4772 0046 FA68     		ldr	r2, [r7, #12]	@ float
 4773 0048 7B68     		ldr	r3, [r7, #4]
 4774 004a D3F88830 		ldr	r3, [r3, #136]	@ float
 4775 004e 1946     		mov	r1, r3
 4776 0050 1046     		mov	r0, r2
 4777 0052 FFF7FEFF 		bl	__aeabi_fsub
 4778 0056 0346     		mov	r3, r0
 4779 0058 23F00043 		bic	r3, r3, #-2147483648
 4780 005c 1849     		ldr	r1, .L380+4
 4781 005e 1846     		mov	r0, r3
 4782 0060 FFF7FEFF 		bl	__aeabi_fcmplt
 4783 0064 0346     		mov	r3, r0
 4784 0066 002B     		cmp	r3, #0
 4785 0068 13D0     		beq	.L369
 915:app_statemachine.c ****                   (fabsf(t - ctx->tgt_tilt_deg) < NUDGE_SETTLE_DEG);
 4786              		.loc 1 915 0 discriminator 1
 4787 006a BA68     		ldr	r2, [r7, #8]	@ float
 4788 006c 7B68     		ldr	r3, [r7, #4]
 4789 006e D3F88C30 		ldr	r3, [r3, #140]	@ float
 4790 0072 1946     		mov	r1, r3
 4791 0074 1046     		mov	r0, r2
 4792 0076 FFF7FEFF 		bl	__aeabi_fsub
 4793 007a 0346     		mov	r3, r0
 4794 007c 23F00043 		bic	r3, r3, #-2147483648
 914:app_statemachine.c ****         arrived = (fabsf(p - ctx->tgt_pan_deg)  < NUDGE_SETTLE_DEG) &&
 4795              		.loc 1 914 0 discriminator 1
 4796 0080 0F49     		ldr	r1, .L380+4
 4797 0082 1846     		mov	r0, r3
 4798 0084 FFF7FEFF 		bl	__aeabi_fcmplt
 4799 0088 0346     		mov	r3, r0
 4800 008a 002B     		cmp	r3, #0
ARM GAS  C:\Users\JENNEW~1\AppData\Local\Temp\ccEqAB2L.s 			page 105


 4801 008c 01D0     		beq	.L369
 914:app_statemachine.c ****         arrived = (fabsf(p - ctx->tgt_pan_deg)  < NUDGE_SETTLE_DEG) &&
 4802              		.loc 1 914 0 is_stmt 0 discriminator 3
 4803 008e 0123     		movs	r3, #1
 4804 0090 00E0     		b	.L372
 4805              	.L369:
 914:app_statemachine.c ****         arrived = (fabsf(p - ctx->tgt_pan_deg)  < NUDGE_SETTLE_DEG) &&
 4806              		.loc 1 914 0 discriminator 4
 4807 0092 0023     		movs	r3, #0
 4808              	.L372:
 914:app_statemachine.c ****         arrived = (fabsf(p - ctx->tgt_pan_deg)  < NUDGE_SETTLE_DEG) &&
 4809              		.loc 1 914 0 discriminator 6
 4810 0094 FB75     		strb	r3, [r7, #23]
 4811              	.L368:
 916:app_statemachine.c ****     if (arrived || elapsed >= NUDGE_TIMEOUT_MS)
 4812              		.loc 1 916 0 is_stmt 1
 4813 0096 FB7D     		ldrb	r3, [r7, #23]	@ zero_extendqisi2
 4814 0098 002B     		cmp	r3, #0
 4815 009a 03D1     		bne	.L373
 4816              		.loc 1 916 0 is_stmt 0 discriminator 1
 4817 009c 3B69     		ldr	r3, [r7, #16]
 4818 009e B3F5FA6F 		cmp	r3, #2000
 4819 00a2 07D3     		bcc	.L363
 4820              	.L373:
 917:app_statemachine.c ****         ctx->nudge_hold = 0u;                        /* rate=0 holds the new attitude */
 4821              		.loc 1 917 0 is_stmt 1
 4822 00a4 7B68     		ldr	r3, [r7, #4]
 4823 00a6 0022     		movs	r2, #0
 4824 00a8 83F87820 		strb	r2, [r3, #120]
 4825 00ac 02E0     		b	.L363
 4826              	.L378:
 908:app_statemachine.c ****     uint32_t elapsed = g_tick_ms - ctx->nudge_start_ms;
 4827              		.loc 1 908 0
 4828 00ae 00BF     		nop
 4829 00b0 00E0     		b	.L363
 4830              	.L379:
 910:app_statemachine.c **** 
 4831              		.loc 1 910 0
 4832 00b2 00BF     		nop
 4833              	.L363:
 918:app_statemachine.c **** }
 4834              		.loc 1 918 0
 4835 00b4 1837     		adds	r7, r7, #24
 4836              		.cfi_def_cfa_offset 8
 4837 00b6 BD46     		mov	sp, r7
 4838              		.cfi_def_cfa_register 13
 4839              		@ sp needed
 4840 00b8 80BD     		pop	{r7, pc}
 4841              	.L381:
 4842 00ba 00BF     		.align	2
 4843              	.L380:
 4844 00bc 00000000 		.word	g_tick_ms
 4845 00c0 CDCC4C3D 		.word	1028443341
 4846              		.cfi_endproc
 4847              	.LFE115:
 4848              		.size	app_manual_tick, .-app_manual_tick
 4849              		.section	.text.sbc_state_is_requestable,"ax",%progbits
ARM GAS  C:\Users\JENNEW~1\AppData\Local\Temp\ccEqAB2L.s 			page 106


 4850              		.align	2
 4851              		.thumb
 4852              		.thumb_func
 4853              		.type	sbc_state_is_requestable, %function
 4854              	sbc_state_is_requestable:
 4855              	.LFB116:
 919:app_statemachine.c **** 
 920:app_statemachine.c **** // Helper - Validate state change request
 921:app_statemachine.c **** static uint8_t sbc_state_is_requestable(uint8_t s)
 922:app_statemachine.c **** {
 4856              		.loc 1 922 0
 4857              		.cfi_startproc
 4858              		@ args = 0, pretend = 0, frame = 8
 4859              		@ frame_needed = 1, uses_anonymous_args = 0
 4860              		@ link register save eliminated.
 4861 0000 80B4     		push	{r7}
 4862              		.cfi_def_cfa_offset 4
 4863              		.cfi_offset 7, -4
 4864 0002 83B0     		sub	sp, sp, #12
 4865              		.cfi_def_cfa_offset 16
 4866 0004 00AF     		add	r7, sp, #0
 4867              		.cfi_def_cfa_register 7
 4868 0006 0346     		mov	r3, r0
 4869 0008 FB71     		strb	r3, [r7, #7]
 923:app_statemachine.c ****     // Not implemented.
 924:app_statemachine.c ****     switch ((state_t)s) {
 4870              		.loc 1 924 0
 4871 000a FB79     		ldrb	r3, [r7, #7]	@ zero_extendqisi2
 4872 000c 063B     		subs	r3, r3, #6
 4873 000e 052B     		cmp	r3, #5
 4874 0010 01D8     		bhi	.L383
 925:app_statemachine.c ****         case STBY_HOLD:
 926:app_statemachine.c ****         case MANU_JOYSTICK:
 927:app_statemachine.c ****         case AUTO_HOME:
 928:app_statemachine.c ****         case AUTO_ACQ_GPS:
 929:app_statemachine.c ****         case AUTO_ACQ_SPIRAL:
 930:app_statemachine.c ****         case AUTO_TRACKING:
 931:app_statemachine.c ****             return 1u;
 4875              		.loc 1 931 0
 4876 0012 0123     		movs	r3, #1
 4877 0014 00E0     		b	.L385
 4878              	.L383:
 932:app_statemachine.c ****         default:
 933:app_statemachine.c ****             return 0u;
 4879              		.loc 1 933 0
 4880 0016 0023     		movs	r3, #0
 4881              	.L385:
 934:app_statemachine.c ****     }
 935:app_statemachine.c **** }
 4882              		.loc 1 935 0
 4883 0018 1846     		mov	r0, r3
 4884 001a 0C37     		adds	r7, r7, #12
 4885              		.cfi_def_cfa_offset 4
 4886 001c BD46     		mov	sp, r7
 4887              		.cfi_def_cfa_register 13
 4888              		@ sp needed
 4889 001e 80BC     		pop	{r7}
ARM GAS  C:\Users\JENNEW~1\AppData\Local\Temp\ccEqAB2L.s 			page 107


 4890              		.cfi_restore 7
 4891              		.cfi_def_cfa_offset 0
 4892 0020 7047     		bx	lr
 4893              		.cfi_endproc
 4894              	.LFE116:
 4895              		.size	sbc_state_is_requestable, .-sbc_state_is_requestable
 4896              		.section	.rodata
 4897 06b7 00       		.align	2
 4898              	.LC50:
 4899 06b8 5B534243 		.ascii	"[SBC] invalid state req=%u\015\012\000"
 4899      5D20696E 
 4899      76616C69 
 4899      64207374 
 4899      61746520 
 4900 06d5 000000   		.align	2
 4901              	.LC51:
 4902 06d8 5B534243 		.ascii	"[SBC] state req -> %s\015\012\000"
 4902      5D207374 
 4902      61746520 
 4902      72657120 
 4902      2D3E2025 
 4903              		.section	.text.app_sbc_tick,"ax",%progbits
 4904              		.align	2
 4905              		.global	app_sbc_tick
 4906              		.thumb
 4907              		.thumb_func
 4908              		.type	app_sbc_tick, %function
 4909              	app_sbc_tick:
 4910              	.LFB117:
 936:app_statemachine.c **** 
 937:app_statemachine.c **** void app_sbc_tick(app_ctx_t *ctx)
 938:app_statemachine.c **** {
 4911              		.loc 1 938 0
 4912              		.cfi_startproc
 4913              		@ args = 0, pretend = 0, frame = 160
 4914              		@ frame_needed = 1, uses_anonymous_args = 0
 4915 0000 80B5     		push	{r7, lr}
 4916              		.cfi_def_cfa_offset 8
 4917              		.cfi_offset 7, -8
 4918              		.cfi_offset 14, -4
 4919 0002 A8B0     		sub	sp, sp, #160
 4920              		.cfi_def_cfa_offset 168
 4921 0004 00AF     		add	r7, sp, #0
 4922              		.cfi_def_cfa_register 7
 4923 0006 7860     		str	r0, [r7, #4]
 939:app_statemachine.c ****     // 1) GPS target — always commit to ctx + flag. Run BEFORE the state req so
 940:app_statemachine.c ****     //    a "target then go" pair landing in one tick has the target ready when
 941:app_statemachine.c ****     //    entry_auto_acq_gps checks gps_target_set.
 942:app_statemachine.c ****     payload_gps_target_t tgt;
 943:app_statemachine.c ****     if (sbc_get_gps_target(&tgt)) {
 4924              		.loc 1 943 0
 4925 0008 07F19003 		add	r3, r7, #144
 4926 000c 1846     		mov	r0, r3
 4927 000e FFF7FEFF 		bl	sbc_get_gps_target
 4928 0012 0346     		mov	r3, r0
 4929 0014 002B     		cmp	r3, #0
 4930 0016 13D0     		beq	.L387
ARM GAS  C:\Users\JENNEW~1\AppData\Local\Temp\ccEqAB2L.s 			page 108


 944:app_statemachine.c ****         ctx->gps_target_lat_raw = tgt.lat_raw;
 4931              		.loc 1 944 0
 4932 0018 D7F89020 		ldr	r2, [r7, #144]
 4933 001c 7B68     		ldr	r3, [r7, #4]
 4934 001e 9A61     		str	r2, [r3, #24]
 945:app_statemachine.c ****         ctx->gps_target_lon_raw = tgt.lon_raw;
 4935              		.loc 1 945 0
 4936 0020 D7F89420 		ldr	r2, [r7, #148]
 4937 0024 7B68     		ldr	r3, [r7, #4]
 4938 0026 DA61     		str	r2, [r3, #28]
 946:app_statemachine.c ****         ctx->gps_target_alt_mm  = tgt.alt_mm;
 4939              		.loc 1 946 0
 4940 0028 D7F89820 		ldr	r2, [r7, #152]
 4941 002c 7B68     		ldr	r3, [r7, #4]
 4942 002e 1A62     		str	r2, [r3, #32]
 947:app_statemachine.c ****         ctx->gps_target_set     = 1u;
 4943              		.loc 1 947 0
 4944 0030 7B68     		ldr	r3, [r7, #4]
 4945 0032 0122     		movs	r2, #1
 4946 0034 83F82420 		strb	r2, [r3, #36]
 948:app_statemachine.c ****         ctx->gps_new_target     = 1u;   // ACQ_GPS picks this up on next settle
 4947              		.loc 1 948 0
 4948 0038 7B68     		ldr	r3, [r7, #4]
 4949 003a 0122     		movs	r2, #1
 4950 003c 83F82520 		strb	r2, [r3, #37]
 4951              	.L387:
 949:app_statemachine.c ****     }
 950:app_statemachine.c **** 
 951:app_statemachine.c ****     // 2) State change request
 952:app_statemachine.c ****     payload_state_req_t req;
 953:app_statemachine.c ****     if (!sbc_get_state_req(&req)) return;
 4952              		.loc 1 953 0
 4953 0040 07F18C03 		add	r3, r7, #140
 4954 0044 1846     		mov	r0, r3
 4955 0046 FFF7FEFF 		bl	sbc_get_state_req
 4956 004a 0346     		mov	r3, r0
 4957 004c 002B     		cmp	r3, #0
 4958 004e 49D0     		beq	.L393
 954:app_statemachine.c **** 
 955:app_statemachine.c ****     if (ctx->fatal_latched) {
 4959              		.loc 1 955 0
 4960 0050 7B68     		ldr	r3, [r7, #4]
 4961 0052 1B7B     		ldrb	r3, [r3, #12]	@ zero_extendqisi2
 4962 0054 002B     		cmp	r3, #0
 4963 0056 06D0     		beq	.L390
 956:app_statemachine.c ****         sbc_send_state_ack((uint8_t)ctx->state, STATE_ACK_REJECTED);
 4964              		.loc 1 956 0
 4965 0058 7B68     		ldr	r3, [r7, #4]
 4966 005a 1B79     		ldrb	r3, [r3, #4]	@ zero_extendqisi2
 4967 005c 0121     		movs	r1, #1
 4968 005e 1846     		mov	r0, r3
 4969 0060 FFF7FEFF 		bl	sbc_send_state_ack
 957:app_statemachine.c ****         return;
 4970              		.loc 1 957 0
 4971 0064 3FE0     		b	.L386
 4972              	.L390:
 958:app_statemachine.c ****     }
ARM GAS  C:\Users\JENNEW~1\AppData\Local\Temp\ccEqAB2L.s 			page 109


 959:app_statemachine.c ****     if (!sbc_state_is_requestable(req.requested_state)) {
 4973              		.loc 1 959 0
 4974 0066 97F88C30 		ldrb	r3, [r7, #140]	@ zero_extendqisi2
 4975 006a 1846     		mov	r0, r3
 4976 006c FFF7FEFF 		bl	sbc_state_is_requestable
 4977 0070 0346     		mov	r3, r0
 4978 0072 002B     		cmp	r3, #0
 4979 0074 14D1     		bne	.L391
 4980              	.LBB14:
 960:app_statemachine.c ****         sbc_send_state_ack((uint8_t)ctx->state, STATE_ACK_INVALID);
 4981              		.loc 1 960 0
 4982 0076 7B68     		ldr	r3, [r7, #4]
 4983 0078 1B79     		ldrb	r3, [r3, #4]	@ zero_extendqisi2
 4984 007a 0221     		movs	r1, #2
 4985 007c 1846     		mov	r0, r3
 4986 007e FFF7FEFF 		bl	sbc_send_state_ack
 961:app_statemachine.c ****         char b[64];
 962:app_statemachine.c ****         snprintf(b, sizeof b, "[SBC] invalid state req=%u\r\n",
 963:app_statemachine.c ****                  (unsigned)req.requested_state);
 4987              		.loc 1 963 0
 4988 0082 97F88C30 		ldrb	r3, [r7, #140]	@ zero_extendqisi2
 962:app_statemachine.c ****                  (unsigned)req.requested_state);
 4989              		.loc 1 962 0
 4990 0086 07F10C00 		add	r0, r7, #12
 4991 008a 184A     		ldr	r2, .L394
 4992 008c 4021     		movs	r1, #64
 4993 008e FFF7FEFF 		bl	snprintf
 964:app_statemachine.c ****         UART_DEBUG_PutString(b);
 4994              		.loc 1 964 0
 4995 0092 07F10C03 		add	r3, r7, #12
 4996 0096 1846     		mov	r0, r3
 4997 0098 FFF7FEFF 		bl	UART_DEBUG_PutString
 965:app_statemachine.c ****         return;
 4998              		.loc 1 965 0
 4999 009c 00BF     		nop
 5000 009e 22E0     		b	.L386
 5001              	.L391:
 5002              	.LBE14:
 966:app_statemachine.c ****     }
 967:app_statemachine.c **** 
 968:app_statemachine.c ****     state_t target = (state_t)req.requested_state;
 5003              		.loc 1 968 0
 5004 00a0 97F88C30 		ldrb	r3, [r7, #140]
 5005 00a4 87F89F30 		strb	r3, [r7, #159]
 969:app_statemachine.c ****     char b[64];
 970:app_statemachine.c ****     snprintf(b, sizeof b, "[SBC] state req -> %s\r\n", app_state_name(target));
 5006              		.loc 1 970 0
 5007 00a8 97F89F30 		ldrb	r3, [r7, #159]	@ zero_extendqisi2
 5008 00ac 1846     		mov	r0, r3
 5009 00ae FFF7FEFF 		bl	app_state_name
 5010 00b2 0346     		mov	r3, r0
 5011 00b4 07F14C00 		add	r0, r7, #76
 5012 00b8 0D4A     		ldr	r2, .L394+4
 5013 00ba 4021     		movs	r1, #64
 5014 00bc FFF7FEFF 		bl	snprintf
 971:app_statemachine.c ****     UART_DEBUG_PutString(b);
 5015              		.loc 1 971 0
ARM GAS  C:\Users\JENNEW~1\AppData\Local\Temp\ccEqAB2L.s 			page 110


 5016 00c0 07F14C03 		add	r3, r7, #76
 5017 00c4 1846     		mov	r0, r3
 5018 00c6 FFF7FEFF 		bl	UART_DEBUG_PutString
 972:app_statemachine.c ****     transition(ctx, target);
 5019              		.loc 1 972 0
 5020 00ca 97F89F30 		ldrb	r3, [r7, #159]	@ zero_extendqisi2
 5021 00ce 1946     		mov	r1, r3
 5022 00d0 7868     		ldr	r0, [r7, #4]
 5023 00d2 FFF7FEFF 		bl	transition
 973:app_statemachine.c ****     sbc_send_state_ack((uint8_t)ctx->state, STATE_ACK_OK);
 5024              		.loc 1 973 0
 5025 00d6 7B68     		ldr	r3, [r7, #4]
 5026 00d8 1B79     		ldrb	r3, [r3, #4]	@ zero_extendqisi2
 5027 00da 0021     		movs	r1, #0
 5028 00dc 1846     		mov	r0, r3
 5029 00de FFF7FEFF 		bl	sbc_send_state_ack
 5030 00e2 00E0     		b	.L386
 5031              	.L393:
 953:app_statemachine.c **** 
 5032              		.loc 1 953 0
 5033 00e4 00BF     		nop
 5034              	.L386:
 974:app_statemachine.c **** }...
 5035              		.loc 1 974 0
 5036 00e6 A037     		adds	r7, r7, #160
 5037              		.cfi_def_cfa_offset 8
 5038 00e8 BD46     		mov	sp, r7
 5039              		.cfi_def_cfa_register 13
 5040              		@ sp needed
 5041 00ea 80BD     		pop	{r7, pc}
 5042              	.L395:
 5043              		.align	2
 5044              	.L394:
 5045 00ec B8060000 		.word	.LC50
 5046 00f0 D8060000 		.word	.LC51
 5047              		.cfi_endproc
 5048              	.LFE117:
 5049              		.size	app_sbc_tick, .-app_sbc_tick
 5050              		.bss
 5051              		.align	2
 5052              	last_hot_ms.8191:
 5053 0000 00000000 		.space	4
 5054              		.align	2
 5055              	last_link_ms.8192:
 5056 0004 00000000 		.space	4
 5057              		.align	2
 5058              	last_pt_ms.8215:
 5059 0008 00000000 		.space	4
 5060              		.section	.rodata
 5061              		.align	2
 5062              	.LC52:
 5063 06f0 4300     		.ascii	"C\000"
 5064 06f2 0000     		.align	2
 5065              	.LC53:
 5066 06f4 4600     		.ascii	"F\000"
 5067              		.data
 5068              		.align	2
ARM GAS  C:\Users\JENNEW~1\AppData\Local\Temp\ccEqAB2L.s 			page 111


 5069              		.type	tag.8216, %object
 5070              		.size	tag.8216, 8
 5071              	tag.8216:
 5072 0000 F0060000 		.word	.LC52
 5073 0004 F4060000 		.word	.LC53
 5074              		.text
 5075              	.Letext0:
 5076              		.file 2 "c:\\program files (x86)\\cypress\\psoc creator\\4.4\\psoc creator\\import\\gnu\\arm\\5.4.
 5077              		.file 3 "c:\\program files (x86)\\cypress\\psoc creator\\4.4\\psoc creator\\import\\gnu\\arm\\5.4.
 5078              		.file 4 "..\\..\\..\\HamFlyAPI\\src/hamfly_core_control.h"
 5079              		.file 5 "..\\..\\..\\HamFlyAPI\\src/hamfly_core_hal.h"
 5080              		.file 6 "..\\..\\..\\HamFlyAPI\\src/hamfly_core_telemetry.h"
 5081              		.file 7 "..\\..\\..\\HamFlyAPI\\src/hamfly_comm_rb.h"
 5082              		.file 8 "..\\..\\..\\HamFlyAPI\\src/hamfly_core_gimbal.h"
 5083              		.file 9 "joystick.h"
 5084              		.file 10 "app_ctx.h"
 5085              		.file 11 "sbc_comms.h"
 5086              		.file 12 "Generated_Source\\PSoC5/core_cm3.h"
 5087              		.section	.debug_info,"",%progbits
 5088              	.Ldebug_info0:
 5089 0000 1F1B0000 		.4byte	0x1b1f
 5090 0004 0400     		.2byte	0x4
 5091 0006 00000000 		.4byte	.Ldebug_abbrev0
 5092 000a 04       		.byte	0x4
 5093 000b 01       		.uleb128 0x1
 5094 000c 23070000 		.4byte	.LASF310
 5095 0010 0C       		.byte	0xc
 5096 0011 C80C0000 		.4byte	.LASF311
 5097 0015 860F0000 		.4byte	.LASF312
 5098 0019 18000000 		.4byte	.Ldebug_ranges0+0x18
 5099 001d 00000000 		.4byte	0
 5100 0021 00000000 		.4byte	.Ldebug_line0
 5101 0025 02       		.uleb128 0x2
 5102 0026 01       		.byte	0x1
 5103 0027 06       		.byte	0x6
 5104 0028 F2020000 		.4byte	.LASF0
 5105 002c 03       		.uleb128 0x3
 5106 002d E0010000 		.4byte	.LASF2
 5107 0031 02       		.byte	0x2
 5108 0032 1D       		.byte	0x1d
 5109 0033 37000000 		.4byte	0x37
 5110 0037 02       		.uleb128 0x2
 5111 0038 01       		.byte	0x1
 5112 0039 08       		.byte	0x8
 5113 003a 54030000 		.4byte	.LASF1
 5114 003e 03       		.uleb128 0x3
 5115 003f 350C0000 		.4byte	.LASF3
 5116 0043 02       		.byte	0x2
 5117 0044 29       		.byte	0x29
 5118 0045 49000000 		.4byte	0x49
 5119 0049 02       		.uleb128 0x2
 5120 004a 02       		.byte	0x2
 5121 004b 05       		.byte	0x5
 5122 004c 350D0000 		.4byte	.LASF4
 5123 0050 03       		.uleb128 0x3
 5124 0051 25040000 		.4byte	.LASF5
 5125 0055 02       		.byte	0x2
ARM GAS  C:\Users\JENNEW~1\AppData\Local\Temp\ccEqAB2L.s 			page 112


 5126 0056 2B       		.byte	0x2b
 5127 0057 5B000000 		.4byte	0x5b
 5128 005b 02       		.uleb128 0x2
 5129 005c 02       		.byte	0x2
 5130 005d 07       		.byte	0x7
 5131 005e A20E0000 		.4byte	.LASF6
 5132 0062 03       		.uleb128 0x3
 5133 0063 EB0E0000 		.4byte	.LASF7
 5134 0067 02       		.byte	0x2
 5135 0068 3F       		.byte	0x3f
 5136 0069 6D000000 		.4byte	0x6d
 5137 006d 02       		.uleb128 0x2
 5138 006e 04       		.byte	0x4
 5139 006f 05       		.byte	0x5
 5140 0070 3C020000 		.4byte	.LASF8
 5141 0074 03       		.uleb128 0x3
 5142 0075 D5070000 		.4byte	.LASF9
 5143 0079 02       		.byte	0x2
 5144 007a 41       		.byte	0x41
 5145 007b 7F000000 		.4byte	0x7f
 5146 007f 02       		.uleb128 0x2
 5147 0080 04       		.byte	0x4
 5148 0081 07       		.byte	0x7
 5149 0082 3D060000 		.4byte	.LASF10
 5150 0086 02       		.uleb128 0x2
 5151 0087 08       		.byte	0x8
 5152 0088 05       		.byte	0x5
 5153 0089 EF070000 		.4byte	.LASF11
 5154 008d 02       		.uleb128 0x2
 5155 008e 08       		.byte	0x8
 5156 008f 07       		.byte	0x7
 5157 0090 F40A0000 		.4byte	.LASF12
 5158 0094 04       		.uleb128 0x4
 5159 0095 04       		.byte	0x4
 5160 0096 05       		.byte	0x5
 5161 0097 696E7400 		.ascii	"int\000"
 5162 009b 02       		.uleb128 0x2
 5163 009c 04       		.byte	0x4
 5164 009d 07       		.byte	0x7
 5165 009e EB080000 		.4byte	.LASF13
 5166 00a2 03       		.uleb128 0x3
 5167 00a3 FE020000 		.4byte	.LASF14
 5168 00a7 03       		.byte	0x3
 5169 00a8 18       		.byte	0x18
 5170 00a9 2C000000 		.4byte	0x2c
 5171 00ad 03       		.uleb128 0x3
 5172 00ae 560D0000 		.4byte	.LASF15
 5173 00b2 03       		.byte	0x3
 5174 00b3 20       		.byte	0x20
 5175 00b4 3E000000 		.4byte	0x3e
 5176 00b8 03       		.uleb128 0x3
 5177 00b9 470B0000 		.4byte	.LASF16
 5178 00bd 03       		.byte	0x3
 5179 00be 24       		.byte	0x24
 5180 00bf 50000000 		.4byte	0x50
 5181 00c3 03       		.uleb128 0x3
 5182 00c4 BF000000 		.4byte	.LASF17
ARM GAS  C:\Users\JENNEW~1\AppData\Local\Temp\ccEqAB2L.s 			page 113


 5183 00c8 03       		.byte	0x3
 5184 00c9 2C       		.byte	0x2c
 5185 00ca 62000000 		.4byte	0x62
 5186 00ce 03       		.uleb128 0x3
 5187 00cf 460E0000 		.4byte	.LASF18
 5188 00d3 03       		.byte	0x3
 5189 00d4 30       		.byte	0x30
 5190 00d5 74000000 		.4byte	0x74
 5191 00d9 02       		.uleb128 0x2
 5192 00da 04       		.byte	0x4
 5193 00db 04       		.byte	0x4
 5194 00dc C5080000 		.4byte	.LASF19
 5195 00e0 02       		.uleb128 0x2
 5196 00e1 08       		.byte	0x8
 5197 00e2 04       		.byte	0x4
 5198 00e3 6B080000 		.4byte	.LASF20
 5199 00e7 02       		.uleb128 0x2
 5200 00e8 01       		.byte	0x1
 5201 00e9 08       		.byte	0x8
 5202 00ea DE030000 		.4byte	.LASF21
 5203 00ee 02       		.uleb128 0x2
 5204 00ef 08       		.byte	0x8
 5205 00f0 04       		.byte	0x4
 5206 00f1 150A0000 		.4byte	.LASF22
 5207 00f5 02       		.uleb128 0x2
 5208 00f6 04       		.byte	0x4
 5209 00f7 07       		.byte	0x7
 5210 00f8 47000000 		.4byte	.LASF23
 5211 00fc 05       		.uleb128 0x5
 5212 00fd 04       		.byte	0x4
 5213 00fe 06       		.uleb128 0x6
 5214 00ff 04       		.byte	0x4
 5215 0100 04010000 		.4byte	0x104
 5216 0104 07       		.uleb128 0x7
 5217 0105 E7000000 		.4byte	0xe7
 5218 0109 08       		.uleb128 0x8
 5219 010a CE000000 		.4byte	0xce
 5220 010e 08       		.uleb128 0x8
 5221 010f A2000000 		.4byte	0xa2
 5222 0113 08       		.uleb128 0x8
 5223 0114 B8000000 		.4byte	0xb8
 5224 0118 09       		.uleb128 0x9
 5225 0119 01       		.byte	0x1
 5226 011a 37000000 		.4byte	0x37
 5227 011e 04       		.byte	0x4
 5228 011f 1E       		.byte	0x1e
 5229 0120 3D010000 		.4byte	0x13d
 5230 0124 0A       		.uleb128 0xa
 5231 0125 950D0000 		.4byte	.LASF24
 5232 0129 00       		.byte	0
 5233 012a 0A       		.uleb128 0xa
 5234 012b A7030000 		.4byte	.LASF25
 5235 012f 01       		.byte	0x1
 5236 0130 0A       		.uleb128 0xa
 5237 0131 F3090000 		.4byte	.LASF26
 5238 0135 02       		.byte	0x2
 5239 0136 0A       		.uleb128 0xa
ARM GAS  C:\Users\JENNEW~1\AppData\Local\Temp\ccEqAB2L.s 			page 114


 5240 0137 0B0B0000 		.4byte	.LASF27
 5241 013b 03       		.byte	0x3
 5242 013c 00       		.byte	0
 5243 013d 03       		.uleb128 0x3
 5244 013e FD070000 		.4byte	.LASF28
 5245 0142 04       		.byte	0x4
 5246 0143 2A       		.byte	0x2a
 5247 0144 18010000 		.4byte	0x118
 5248 0148 0B       		.uleb128 0xb
 5249 0149 14       		.byte	0x14
 5250 014a 04       		.byte	0x4
 5251 014b 2E       		.byte	0x2e
 5252 014c B1010000 		.4byte	0x1b1
 5253 0150 0C       		.uleb128 0xc
 5254 0151 70616E00 		.ascii	"pan\000"
 5255 0155 04       		.byte	0x4
 5256 0156 2F       		.byte	0x2f
 5257 0157 D9000000 		.4byte	0xd9
 5258 015b 00       		.byte	0
 5259 015c 0D       		.uleb128 0xd
 5260 015d FC0B0000 		.4byte	.LASF29
 5261 0161 04       		.byte	0x4
 5262 0162 30       		.byte	0x30
 5263 0163 D9000000 		.4byte	0xd9
 5264 0167 04       		.byte	0x4
 5265 0168 0D       		.uleb128 0xd
 5266 0169 B50E0000 		.4byte	.LASF30
 5267 016d 04       		.byte	0x4
 5268 016e 31       		.byte	0x31
 5269 016f D9000000 		.4byte	0xd9
 5270 0173 08       		.byte	0x8
 5271 0174 0D       		.uleb128 0xd
 5272 0175 B80A0000 		.4byte	.LASF31
 5273 0179 04       		.byte	0x4
 5274 017a 32       		.byte	0x32
 5275 017b 3D010000 		.4byte	0x13d
 5276 017f 0C       		.byte	0xc
 5277 0180 0D       		.uleb128 0xd
 5278 0181 B20C0000 		.4byte	.LASF32
 5279 0185 04       		.byte	0x4
 5280 0186 33       		.byte	0x33
 5281 0187 3D010000 		.4byte	0x13d
 5282 018b 0D       		.byte	0xd
 5283 018c 0D       		.uleb128 0xd
 5284 018d 4E090000 		.4byte	.LASF33
 5285 0191 04       		.byte	0x4
 5286 0192 34       		.byte	0x34
 5287 0193 3D010000 		.4byte	0x13d
 5288 0197 0E       		.byte	0xe
 5289 0198 0D       		.uleb128 0xd
 5290 0199 48080000 		.4byte	.LASF34
 5291 019d 04       		.byte	0x4
 5292 019e 35       		.byte	0x35
 5293 019f A2000000 		.4byte	0xa2
 5294 01a3 0F       		.byte	0xf
 5295 01a4 0D       		.uleb128 0xd
 5296 01a5 BE0D0000 		.4byte	.LASF35
ARM GAS  C:\Users\JENNEW~1\AppData\Local\Temp\ccEqAB2L.s 			page 115


 5297 01a9 04       		.byte	0x4
 5298 01aa 36       		.byte	0x36
 5299 01ab A2000000 		.4byte	0xa2
 5300 01af 10       		.byte	0x10
 5301 01b0 00       		.byte	0
 5302 01b1 03       		.uleb128 0x3
 5303 01b2 42010000 		.4byte	.LASF36
 5304 01b6 04       		.byte	0x4
 5305 01b7 37       		.byte	0x37
 5306 01b8 48010000 		.4byte	0x148
 5307 01bc 0B       		.uleb128 0xb
 5308 01bd 0C       		.byte	0xc
 5309 01be 05       		.byte	0x5
 5310 01bf 24       		.byte	0x24
 5311 01c0 E9010000 		.4byte	0x1e9
 5312 01c4 0C       		.uleb128 0xc
 5313 01c5 63747800 		.ascii	"ctx\000"
 5314 01c9 05       		.byte	0x5
 5315 01ca 25       		.byte	0x25
 5316 01cb FC000000 		.4byte	0xfc
 5317 01cf 00       		.byte	0
 5318 01d0 0D       		.uleb128 0xd
 5319 01d1 B9060000 		.4byte	.LASF37
 5320 01d5 05       		.byte	0x5
 5321 01d6 26       		.byte	0x26
 5322 01d7 F9010000 		.4byte	0x1f9
 5323 01db 04       		.byte	0x4
 5324 01dc 0D       		.uleb128 0xd
 5325 01dd 790E0000 		.4byte	.LASF38
 5326 01e1 05       		.byte	0x5
 5327 01e2 27       		.byte	0x27
 5328 01e3 0E020000 		.4byte	0x20e
 5329 01e7 08       		.byte	0x8
 5330 01e8 00       		.byte	0
 5331 01e9 0E       		.uleb128 0xe
 5332 01ea F9010000 		.4byte	0x1f9
 5333 01ee 0F       		.uleb128 0xf
 5334 01ef FC000000 		.4byte	0xfc
 5335 01f3 0F       		.uleb128 0xf
 5336 01f4 A2000000 		.4byte	0xa2
 5337 01f8 00       		.byte	0
 5338 01f9 06       		.uleb128 0x6
 5339 01fa 04       		.byte	0x4
 5340 01fb E9010000 		.4byte	0x1e9
 5341 01ff 10       		.uleb128 0x10
 5342 0200 CE000000 		.4byte	0xce
 5343 0204 0E020000 		.4byte	0x20e
 5344 0208 0F       		.uleb128 0xf
 5345 0209 FC000000 		.4byte	0xfc
 5346 020d 00       		.byte	0
 5347 020e 06       		.uleb128 0x6
 5348 020f 04       		.byte	0x4
 5349 0210 FF010000 		.4byte	0x1ff
 5350 0214 03       		.uleb128 0x3
 5351 0215 5E0A0000 		.4byte	.LASF39
 5352 0219 05       		.byte	0x5
 5353 021a 28       		.byte	0x28
ARM GAS  C:\Users\JENNEW~1\AppData\Local\Temp\ccEqAB2L.s 			page 116


 5354 021b BC010000 		.4byte	0x1bc
 5355 021f 0B       		.uleb128 0xb
 5356 0220 EC       		.byte	0xec
 5357 0221 06       		.byte	0x6
 5358 0222 1F       		.byte	0x1f
 5359 0223 88050000 		.4byte	0x588
 5360 0227 0D       		.uleb128 0xd
 5361 0228 AD0D0000 		.4byte	.LASF40
 5362 022c 06       		.byte	0x6
 5363 022d 21       		.byte	0x21
 5364 022e 88050000 		.4byte	0x588
 5365 0232 00       		.byte	0
 5366 0233 0D       		.uleb128 0xd
 5367 0234 E0070000 		.4byte	.LASF41
 5368 0238 06       		.byte	0x6
 5369 0239 22       		.byte	0x22
 5370 023a D9000000 		.4byte	0xd9
 5371 023e 04       		.byte	0x4
 5372 023f 0D       		.uleb128 0xd
 5373 0240 80040000 		.4byte	.LASF42
 5374 0244 06       		.byte	0x6
 5375 0245 23       		.byte	0x23
 5376 0246 D9000000 		.4byte	0xd9
 5377 024a 08       		.byte	0x8
 5378 024b 0D       		.uleb128 0xd
 5379 024c F9010000 		.4byte	.LASF43
 5380 0250 06       		.byte	0x6
 5381 0251 24       		.byte	0x24
 5382 0252 D9000000 		.4byte	0xd9
 5383 0256 0C       		.byte	0xc
 5384 0257 0D       		.uleb128 0xd
 5385 0258 CE010000 		.4byte	.LASF44
 5386 025c 06       		.byte	0x6
 5387 025d 25       		.byte	0x25
 5388 025e D9000000 		.4byte	0xd9
 5389 0262 10       		.byte	0x10
 5390 0263 0D       		.uleb128 0xd
 5391 0264 D7010000 		.4byte	.LASF45
 5392 0268 06       		.byte	0x6
 5393 0269 26       		.byte	0x26
 5394 026a D9000000 		.4byte	0xd9
 5395 026e 14       		.byte	0x14
 5396 026f 0D       		.uleb128 0xd
 5397 0270 93020000 		.4byte	.LASF46
 5398 0274 06       		.byte	0x6
 5399 0275 27       		.byte	0x27
 5400 0276 D9000000 		.4byte	0xd9
 5401 027a 18       		.byte	0x18
 5402 027b 0D       		.uleb128 0xd
 5403 027c 10000000 		.4byte	.LASF47
 5404 0280 06       		.byte	0x6
 5405 0281 28       		.byte	0x28
 5406 0282 A2000000 		.4byte	0xa2
 5407 0286 1C       		.byte	0x1c
 5408 0287 0D       		.uleb128 0xd
 5409 0288 1F000000 		.4byte	.LASF48
 5410 028c 06       		.byte	0x6
ARM GAS  C:\Users\JENNEW~1\AppData\Local\Temp\ccEqAB2L.s 			page 117


 5411 028d 29       		.byte	0x29
 5412 028e A2000000 		.4byte	0xa2
 5413 0292 1D       		.byte	0x1d
 5414 0293 0D       		.uleb128 0xd
 5415 0294 8E010000 		.4byte	.LASF49
 5416 0298 06       		.byte	0x6
 5417 0299 2C       		.byte	0x2c
 5418 029a 88050000 		.4byte	0x588
 5419 029e 1E       		.byte	0x1e
 5420 029f 0D       		.uleb128 0xd
 5421 02a0 7A0D0000 		.4byte	.LASF50
 5422 02a4 06       		.byte	0x6
 5423 02a5 2E       		.byte	0x2e
 5424 02a6 88050000 		.4byte	0x588
 5425 02aa 1F       		.byte	0x1f
 5426 02ab 0D       		.uleb128 0xd
 5427 02ac 1C020000 		.4byte	.LASF51
 5428 02b0 06       		.byte	0x6
 5429 02b1 31       		.byte	0x31
 5430 02b2 D9000000 		.4byte	0xd9
 5431 02b6 20       		.byte	0x20
 5432 02b7 0D       		.uleb128 0xd
 5433 02b8 700F0000 		.4byte	.LASF52
 5434 02bc 06       		.byte	0x6
 5435 02bd 32       		.byte	0x32
 5436 02be D9000000 		.4byte	0xd9
 5437 02c2 24       		.byte	0x24
 5438 02c3 0D       		.uleb128 0xd
 5439 02c4 D8020000 		.4byte	.LASF53
 5440 02c8 06       		.byte	0x6
 5441 02c9 33       		.byte	0x33
 5442 02ca D9000000 		.4byte	0xd9
 5443 02ce 28       		.byte	0x28
 5444 02cf 0D       		.uleb128 0xd
 5445 02d0 F1040000 		.4byte	.LASF54
 5446 02d4 06       		.byte	0x6
 5447 02d5 34       		.byte	0x34
 5448 02d6 D9000000 		.4byte	0xd9
 5449 02da 2C       		.byte	0x2c
 5450 02db 0D       		.uleb128 0xd
 5451 02dc 38080000 		.4byte	.LASF55
 5452 02e0 06       		.byte	0x6
 5453 02e1 36       		.byte	0x36
 5454 02e2 D9000000 		.4byte	0xd9
 5455 02e6 30       		.byte	0x30
 5456 02e7 0D       		.uleb128 0xd
 5457 02e8 56060000 		.4byte	.LASF56
 5458 02ec 06       		.byte	0x6
 5459 02ed 37       		.byte	0x37
 5460 02ee D9000000 		.4byte	0xd9
 5461 02f2 34       		.byte	0x34
 5462 02f3 0D       		.uleb128 0xd
 5463 02f4 39050000 		.4byte	.LASF57
 5464 02f8 06       		.byte	0x6
 5465 02f9 38       		.byte	0x38
 5466 02fa D9000000 		.4byte	0xd9
 5467 02fe 38       		.byte	0x38
ARM GAS  C:\Users\JENNEW~1\AppData\Local\Temp\ccEqAB2L.s 			page 118


 5468 02ff 0D       		.uleb128 0xd
 5469 0300 00060000 		.4byte	.LASF58
 5470 0304 06       		.byte	0x6
 5471 0305 39       		.byte	0x39
 5472 0306 D9000000 		.4byte	0xd9
 5473 030a 3C       		.byte	0x3c
 5474 030b 0D       		.uleb128 0xd
 5475 030c AD060000 		.4byte	.LASF59
 5476 0310 06       		.byte	0x6
 5477 0311 3B       		.byte	0x3b
 5478 0312 C3000000 		.4byte	0xc3
 5479 0316 40       		.byte	0x40
 5480 0317 0D       		.uleb128 0xd
 5481 0318 6D0E0000 		.4byte	.LASF60
 5482 031c 06       		.byte	0x6
 5483 031d 3C       		.byte	0x3c
 5484 031e C3000000 		.4byte	0xc3
 5485 0322 44       		.byte	0x44
 5486 0323 0D       		.uleb128 0xd
 5487 0324 75090000 		.4byte	.LASF61
 5488 0328 06       		.byte	0x6
 5489 0329 41       		.byte	0x41
 5490 032a C3000000 		.4byte	0xc3
 5491 032e 48       		.byte	0x48
 5492 032f 0D       		.uleb128 0xd
 5493 0330 44050000 		.4byte	.LASF62
 5494 0334 06       		.byte	0x6
 5495 0335 42       		.byte	0x42
 5496 0336 AD000000 		.4byte	0xad
 5497 033a 4C       		.byte	0x4c
 5498 033b 0D       		.uleb128 0xd
 5499 033c 290C0000 		.4byte	.LASF63
 5500 0340 06       		.byte	0x6
 5501 0341 44       		.byte	0x44
 5502 0342 AD000000 		.4byte	0xad
 5503 0346 4E       		.byte	0x4e
 5504 0347 0D       		.uleb128 0xd
 5505 0348 81010000 		.4byte	.LASF64
 5506 034c 06       		.byte	0x6
 5507 034d 45       		.byte	0x45
 5508 034e B8000000 		.4byte	0xb8
 5509 0352 50       		.byte	0x50
 5510 0353 0D       		.uleb128 0xd
 5511 0354 50020000 		.4byte	.LASF65
 5512 0358 06       		.byte	0x6
 5513 0359 46       		.byte	0x46
 5514 035a B8000000 		.4byte	0xb8
 5515 035e 52       		.byte	0x52
 5516 035f 0D       		.uleb128 0xd
 5517 0360 210A0000 		.4byte	.LASF66
 5518 0364 06       		.byte	0x6
 5519 0365 47       		.byte	0x47
 5520 0366 B8000000 		.4byte	0xb8
 5521 036a 54       		.byte	0x54
 5522 036b 0D       		.uleb128 0xd
 5523 036c B30D0000 		.4byte	.LASF67
 5524 0370 06       		.byte	0x6
ARM GAS  C:\Users\JENNEW~1\AppData\Local\Temp\ccEqAB2L.s 			page 119


 5525 0371 4A       		.byte	0x4a
 5526 0372 88050000 		.4byte	0x588
 5527 0376 56       		.byte	0x56
 5528 0377 0D       		.uleb128 0xd
 5529 0378 360F0000 		.4byte	.LASF68
 5530 037c 06       		.byte	0x6
 5531 037d 4E       		.byte	0x4e
 5532 037e D9000000 		.4byte	0xd9
 5533 0382 58       		.byte	0x58
 5534 0383 0D       		.uleb128 0xd
 5535 0384 940B0000 		.4byte	.LASF69
 5536 0388 06       		.byte	0x6
 5537 0389 52       		.byte	0x52
 5538 038a D9000000 		.4byte	0xd9
 5539 038e 5C       		.byte	0x5c
 5540 038f 0D       		.uleb128 0xd
 5541 0390 86050000 		.4byte	.LASF70
 5542 0394 06       		.byte	0x6
 5543 0395 57       		.byte	0x57
 5544 0396 88050000 		.4byte	0x588
 5545 039a 60       		.byte	0x60
 5546 039b 0D       		.uleb128 0xd
 5547 039c E3030000 		.4byte	.LASF71
 5548 03a0 06       		.byte	0x6
 5549 03a1 58       		.byte	0x58
 5550 03a2 CE000000 		.4byte	0xce
 5551 03a6 64       		.byte	0x64
 5552 03a7 0D       		.uleb128 0xd
 5553 03a8 14010000 		.4byte	.LASF72
 5554 03ac 06       		.byte	0x6
 5555 03ad 59       		.byte	0x59
 5556 03ae D9000000 		.4byte	0xd9
 5557 03b2 68       		.byte	0x68
 5558 03b3 0D       		.uleb128 0xd
 5559 03b4 AD090000 		.4byte	.LASF73
 5560 03b8 06       		.byte	0x6
 5561 03b9 5A       		.byte	0x5a
 5562 03ba D9000000 		.4byte	0xd9
 5563 03be 6C       		.byte	0x6c
 5564 03bf 0D       		.uleb128 0xd
 5565 03c0 F4030000 		.4byte	.LASF74
 5566 03c4 06       		.byte	0x6
 5567 03c5 5B       		.byte	0x5b
 5568 03c6 D9000000 		.4byte	0xd9
 5569 03ca 70       		.byte	0x70
 5570 03cb 0D       		.uleb128 0xd
 5571 03cc 07070000 		.4byte	.LASF75
 5572 03d0 06       		.byte	0x6
 5573 03d1 5F       		.byte	0x5f
 5574 03d2 D9000000 		.4byte	0xd9
 5575 03d6 74       		.byte	0x74
 5576 03d7 0D       		.uleb128 0xd
 5577 03d8 B9040000 		.4byte	.LASF76
 5578 03dc 06       		.byte	0x6
 5579 03dd 60       		.byte	0x60
 5580 03de D9000000 		.4byte	0xd9
 5581 03e2 78       		.byte	0x78
ARM GAS  C:\Users\JENNEW~1\AppData\Local\Temp\ccEqAB2L.s 			page 120


 5582 03e3 0D       		.uleb128 0xd
 5583 03e4 4C0A0000 		.4byte	.LASF77
 5584 03e8 06       		.byte	0x6
 5585 03e9 61       		.byte	0x61
 5586 03ea D9000000 		.4byte	0xd9
 5587 03ee 7C       		.byte	0x7c
 5588 03ef 0D       		.uleb128 0xd
 5589 03f0 A70A0000 		.4byte	.LASF78
 5590 03f4 06       		.byte	0x6
 5591 03f5 65       		.byte	0x65
 5592 03f6 D9000000 		.4byte	0xd9
 5593 03fa 80       		.byte	0x80
 5594 03fb 0D       		.uleb128 0xd
 5595 03fc 13080000 		.4byte	.LASF79
 5596 0400 06       		.byte	0x6
 5597 0401 66       		.byte	0x66
 5598 0402 D9000000 		.4byte	0xd9
 5599 0406 84       		.byte	0x84
 5600 0407 0D       		.uleb128 0xd
 5601 0408 CF060000 		.4byte	.LASF80
 5602 040c 06       		.byte	0x6
 5603 040d 67       		.byte	0x67
 5604 040e D9000000 		.4byte	0xd9
 5605 0412 88       		.byte	0x88
 5606 0413 0D       		.uleb128 0xd
 5607 0414 860B0000 		.4byte	.LASF81
 5608 0418 06       		.byte	0x6
 5609 0419 6A       		.byte	0x6a
 5610 041a 88050000 		.4byte	0x588
 5611 041e 8C       		.byte	0x8c
 5612 041f 0D       		.uleb128 0xd
 5613 0420 D50B0000 		.4byte	.LASF82
 5614 0424 06       		.byte	0x6
 5615 0425 6E       		.byte	0x6e
 5616 0426 88050000 		.4byte	0x588
 5617 042a 8D       		.byte	0x8d
 5618 042b 0D       		.uleb128 0xd
 5619 042c AC040000 		.4byte	.LASF83
 5620 0430 06       		.byte	0x6
 5621 0431 6F       		.byte	0x6f
 5622 0432 88050000 		.4byte	0x588
 5623 0436 8E       		.byte	0x8e
 5624 0437 0D       		.uleb128 0xd
 5625 0438 01040000 		.4byte	.LASF84
 5626 043c 06       		.byte	0x6
 5627 043d 70       		.byte	0x70
 5628 043e 88050000 		.4byte	0x588
 5629 0442 8F       		.byte	0x8f
 5630 0443 0D       		.uleb128 0xd
 5631 0444 53010000 		.4byte	.LASF85
 5632 0448 06       		.byte	0x6
 5633 0449 71       		.byte	0x71
 5634 044a 88050000 		.4byte	0x588
 5635 044e 90       		.byte	0x90
 5636 044f 0D       		.uleb128 0xd
 5637 0450 EA010000 		.4byte	.LASF86
 5638 0454 06       		.byte	0x6
ARM GAS  C:\Users\JENNEW~1\AppData\Local\Temp\ccEqAB2L.s 			page 121


 5639 0455 72       		.byte	0x72
 5640 0456 D9000000 		.4byte	0xd9
 5641 045a 94       		.byte	0x94
 5642 045b 0D       		.uleb128 0xd
 5643 045c 75050000 		.4byte	.LASF87
 5644 0460 06       		.byte	0x6
 5645 0461 73       		.byte	0x73
 5646 0462 A2000000 		.4byte	0xa2
 5647 0466 98       		.byte	0x98
 5648 0467 0D       		.uleb128 0xd
 5649 0468 9C020000 		.4byte	.LASF88
 5650 046c 06       		.byte	0x6
 5651 046d 74       		.byte	0x74
 5652 046e D9000000 		.4byte	0xd9
 5653 0472 9C       		.byte	0x9c
 5654 0473 0D       		.uleb128 0xd
 5655 0474 F50E0000 		.4byte	.LASF89
 5656 0478 06       		.byte	0x6
 5657 0479 75       		.byte	0x75
 5658 047a A2000000 		.4byte	0xa2
 5659 047e A0       		.byte	0xa0
 5660 047f 0D       		.uleb128 0xd
 5661 0480 240B0000 		.4byte	.LASF90
 5662 0484 06       		.byte	0x6
 5663 0485 76       		.byte	0x76
 5664 0486 AD000000 		.4byte	0xad
 5665 048a A2       		.byte	0xa2
 5666 048b 0D       		.uleb128 0xd
 5667 048c 0E050000 		.4byte	.LASF91
 5668 0490 06       		.byte	0x6
 5669 0491 77       		.byte	0x77
 5670 0492 AD000000 		.4byte	0xad
 5671 0496 A4       		.byte	0xa4
 5672 0497 0D       		.uleb128 0xd
 5673 0498 61060000 		.4byte	.LASF92
 5674 049c 06       		.byte	0x6
 5675 049d 78       		.byte	0x78
 5676 049e D9000000 		.4byte	0xd9
 5677 04a2 A8       		.byte	0xa8
 5678 04a3 0D       		.uleb128 0xd
 5679 04a4 80080000 		.4byte	.LASF93
 5680 04a8 06       		.byte	0x6
 5681 04a9 79       		.byte	0x79
 5682 04aa AD000000 		.4byte	0xad
 5683 04ae AC       		.byte	0xac
 5684 04af 0D       		.uleb128 0xd
 5685 04b0 540C0000 		.4byte	.LASF94
 5686 04b4 06       		.byte	0x6
 5687 04b5 7A       		.byte	0x7a
 5688 04b6 AD000000 		.4byte	0xad
 5689 04ba AE       		.byte	0xae
 5690 04bb 0D       		.uleb128 0xd
 5691 04bc E9060000 		.4byte	.LASF95
 5692 04c0 06       		.byte	0x6
 5693 04c1 7B       		.byte	0x7b
 5694 04c2 AD000000 		.4byte	0xad
 5695 04c6 B0       		.byte	0xb0
ARM GAS  C:\Users\JENNEW~1\AppData\Local\Temp\ccEqAB2L.s 			page 122


 5696 04c7 0D       		.uleb128 0xd
 5697 04c8 B3010000 		.4byte	.LASF96
 5698 04cc 06       		.byte	0x6
 5699 04cd 7C       		.byte	0x7c
 5700 04ce D9000000 		.4byte	0xd9
 5701 04d2 B4       		.byte	0xb4
 5702 04d3 0D       		.uleb128 0xd
 5703 04d4 7A020000 		.4byte	.LASF97
 5704 04d8 06       		.byte	0x6
 5705 04d9 7D       		.byte	0x7d
 5706 04da AD000000 		.4byte	0xad
 5707 04de B8       		.byte	0xb8
 5708 04df 0D       		.uleb128 0xd
 5709 04e0 4D040000 		.4byte	.LASF98
 5710 04e4 06       		.byte	0x6
 5711 04e5 80       		.byte	0x80
 5712 04e6 88050000 		.4byte	0x588
 5713 04ea BA       		.byte	0xba
 5714 04eb 0D       		.uleb128 0xd
 5715 04ec 9B090000 		.4byte	.LASF99
 5716 04f0 06       		.byte	0x6
 5717 04f1 81       		.byte	0x81
 5718 04f2 D9000000 		.4byte	0xd9
 5719 04f6 BC       		.byte	0xbc
 5720 04f7 0D       		.uleb128 0xd
 5721 04f8 A1090000 		.4byte	.LASF100
 5722 04fc 06       		.byte	0x6
 5723 04fd 82       		.byte	0x82
 5724 04fe D9000000 		.4byte	0xd9
 5725 0502 C0       		.byte	0xc0
 5726 0503 0D       		.uleb128 0xd
 5727 0504 A7090000 		.4byte	.LASF101
 5728 0508 06       		.byte	0x6
 5729 0509 83       		.byte	0x83
 5730 050a D9000000 		.4byte	0xd9
 5731 050e C4       		.byte	0xc4
 5732 050f 0D       		.uleb128 0xd
 5733 0510 30040000 		.4byte	.LASF102
 5734 0514 06       		.byte	0x6
 5735 0515 84       		.byte	0x84
 5736 0516 D9000000 		.4byte	0xd9
 5737 051a C8       		.byte	0xc8
 5738 051b 0D       		.uleb128 0xd
 5739 051c 990E0000 		.4byte	.LASF103
 5740 0520 06       		.byte	0x6
 5741 0521 85       		.byte	0x85
 5742 0522 D9000000 		.4byte	0xd9
 5743 0526 CC       		.byte	0xcc
 5744 0527 0D       		.uleb128 0xd
 5745 0528 D7050000 		.4byte	.LASF104
 5746 052c 06       		.byte	0x6
 5747 052d 86       		.byte	0x86
 5748 052e D9000000 		.4byte	0xd9
 5749 0532 D0       		.byte	0xd0
 5750 0533 0D       		.uleb128 0xd
 5751 0534 E1050000 		.4byte	.LASF105
 5752 0538 06       		.byte	0x6
ARM GAS  C:\Users\JENNEW~1\AppData\Local\Temp\ccEqAB2L.s 			page 123


 5753 0539 87       		.byte	0x87
 5754 053a D9000000 		.4byte	0xd9
 5755 053e D4       		.byte	0xd4
 5756 053f 0D       		.uleb128 0xd
 5757 0540 EB050000 		.4byte	.LASF106
 5758 0544 06       		.byte	0x6
 5759 0545 88       		.byte	0x88
 5760 0546 D9000000 		.4byte	0xd9
 5761 054a D8       		.byte	0xd8
 5762 054b 0D       		.uleb128 0xd
 5763 054c 850D0000 		.4byte	.LASF107
 5764 0550 06       		.byte	0x6
 5765 0551 89       		.byte	0x89
 5766 0552 D9000000 		.4byte	0xd9
 5767 0556 DC       		.byte	0xdc
 5768 0557 0D       		.uleb128 0xd
 5769 0558 39000000 		.4byte	.LASF108
 5770 055c 06       		.byte	0x6
 5771 055d 94       		.byte	0x94
 5772 055e 88050000 		.4byte	0x588
 5773 0562 E0       		.byte	0xe0
 5774 0563 0D       		.uleb128 0xd
 5775 0564 140F0000 		.4byte	.LASF109
 5776 0568 06       		.byte	0x6
 5777 0569 95       		.byte	0x95
 5778 056a 88050000 		.4byte	0x588
 5779 056e E1       		.byte	0xe1
 5780 056f 0D       		.uleb128 0xd
 5781 0570 93060000 		.4byte	.LASF110
 5782 0574 06       		.byte	0x6
 5783 0575 96       		.byte	0x96
 5784 0576 D9000000 		.4byte	0xd9
 5785 057a E4       		.byte	0xe4
 5786 057b 0D       		.uleb128 0xd
 5787 057c 14060000 		.4byte	.LASF111
 5788 0580 06       		.byte	0x6
 5789 0581 97       		.byte	0x97
 5790 0582 AD000000 		.4byte	0xad
 5791 0586 E8       		.byte	0xe8
 5792 0587 00       		.byte	0
 5793 0588 02       		.uleb128 0x2
 5794 0589 01       		.byte	0x1
 5795 058a 02       		.byte	0x2
 5796 058b A1030000 		.4byte	.LASF112
 5797 058f 03       		.uleb128 0x3
 5798 0590 80060000 		.4byte	.LASF113
 5799 0594 06       		.byte	0x6
 5800 0595 99       		.byte	0x99
 5801 0596 1F020000 		.4byte	0x21f
 5802 059a 11       		.uleb128 0x11
 5803 059b 0601     		.2byte	0x106
 5804 059d 07       		.byte	0x7
 5805 059e 22       		.byte	0x22
 5806 059f D7050000 		.4byte	0x5d7
 5807 05a3 0C       		.uleb128 0xc
 5808 05a4 62756600 		.ascii	"buf\000"
 5809 05a8 07       		.byte	0x7
ARM GAS  C:\Users\JENNEW~1\AppData\Local\Temp\ccEqAB2L.s 			page 124


 5810 05a9 23       		.byte	0x23
 5811 05aa E7050000 		.4byte	0x5e7
 5812 05ae 00       		.byte	0
 5813 05af 12       		.uleb128 0x12
 5814 05b0 B9020000 		.4byte	.LASF114
 5815 05b4 07       		.byte	0x7
 5816 05b5 24       		.byte	0x24
 5817 05b6 13010000 		.4byte	0x113
 5818 05ba 0001     		.2byte	0x100
 5819 05bc 12       		.uleb128 0x12
 5820 05bd 5F000000 		.4byte	.LASF115
 5821 05c1 07       		.byte	0x7
 5822 05c2 25       		.byte	0x25
 5823 05c3 13010000 		.4byte	0x113
 5824 05c7 0201     		.2byte	0x102
 5825 05c9 12       		.uleb128 0x12
 5826 05ca 7C0C0000 		.4byte	.LASF116
 5827 05ce 07       		.byte	0x7
 5828 05cf 26       		.byte	0x26
 5829 05d0 13010000 		.4byte	0x113
 5830 05d4 0401     		.2byte	0x104
 5831 05d6 00       		.byte	0
 5832 05d7 13       		.uleb128 0x13
 5833 05d8 0E010000 		.4byte	0x10e
 5834 05dc E7050000 		.4byte	0x5e7
 5835 05e0 14       		.uleb128 0x14
 5836 05e1 F5000000 		.4byte	0xf5
 5837 05e5 FF       		.byte	0xff
 5838 05e6 00       		.byte	0
 5839 05e7 08       		.uleb128 0x8
 5840 05e8 D7050000 		.4byte	0x5d7
 5841 05ec 03       		.uleb128 0x3
 5842 05ed 37030000 		.4byte	.LASF117
 5843 05f1 07       		.byte	0x7
 5844 05f2 27       		.byte	0x27
 5845 05f3 9A050000 		.4byte	0x59a
 5846 05f7 0B       		.uleb128 0xb
 5847 05f8 18       		.byte	0x18
 5848 05f9 08       		.byte	0x8
 5849 05fa 2F       		.byte	0x2f
 5850 05fb 54060000 		.4byte	0x654
 5851 05ff 0D       		.uleb128 0xd
 5852 0600 F10D0000 		.4byte	.LASF118
 5853 0604 08       		.byte	0x8
 5854 0605 30       		.byte	0x30
 5855 0606 CE000000 		.4byte	0xce
 5856 060a 00       		.byte	0
 5857 060b 0D       		.uleb128 0xd
 5858 060c 07020000 		.4byte	.LASF119
 5859 0610 08       		.byte	0x8
 5860 0611 31       		.byte	0x31
 5861 0612 CE000000 		.4byte	0xce
 5862 0616 04       		.byte	0x4
 5863 0617 0D       		.uleb128 0xd
 5864 0618 6F030000 		.4byte	.LASF120
 5865 061c 08       		.byte	0x8
 5866 061d 32       		.byte	0x32
ARM GAS  C:\Users\JENNEW~1\AppData\Local\Temp\ccEqAB2L.s 			page 125


 5867 061e CE000000 		.4byte	0xce
 5868 0622 08       		.byte	0x8
 5869 0623 0D       		.uleb128 0xd
 5870 0624 BC080000 		.4byte	.LASF121
 5871 0628 08       		.byte	0x8
 5872 0629 33       		.byte	0x33
 5873 062a CE000000 		.4byte	0xce
 5874 062e 0C       		.byte	0xc
 5875 062f 0D       		.uleb128 0xd
 5876 0630 29050000 		.4byte	.LASF122
 5877 0634 08       		.byte	0x8
 5878 0635 34       		.byte	0x34
 5879 0636 CE000000 		.4byte	0xce
 5880 063a 10       		.byte	0x10
 5881 063b 0D       		.uleb128 0xd
 5882 063c 10020000 		.4byte	.LASF123
 5883 0640 08       		.byte	0x8
 5884 0641 35       		.byte	0x35
 5885 0642 B8000000 		.4byte	0xb8
 5886 0646 14       		.byte	0x14
 5887 0647 0D       		.uleb128 0xd
 5888 0648 50050000 		.4byte	.LASF124
 5889 064c 08       		.byte	0x8
 5890 064d 36       		.byte	0x36
 5891 064e A2000000 		.4byte	0xa2
 5892 0652 16       		.byte	0x16
 5893 0653 00       		.byte	0
 5894 0654 03       		.uleb128 0x3
 5895 0655 CA040000 		.4byte	.LASF125
 5896 0659 08       		.byte	0x8
 5897 065a 37       		.byte	0x37
 5898 065b F7050000 		.4byte	0x5f7
 5899 065f 11       		.uleb128 0x11
 5900 0660 8003     		.2byte	0x380
 5901 0662 08       		.byte	0x8
 5902 0663 3E       		.byte	0x3e
 5903 0664 1C070000 		.4byte	0x71c
 5904 0668 0C       		.uleb128 0xc
 5905 0669 68616C00 		.ascii	"hal\000"
 5906 066d 08       		.byte	0x8
 5907 066e 3F       		.byte	0x3f
 5908 066f 14020000 		.4byte	0x214
 5909 0673 00       		.byte	0
 5910 0674 0C       		.uleb128 0xc
 5911 0675 63746C00 		.ascii	"ctl\000"
 5912 0679 08       		.byte	0x8
 5913 067a 40       		.byte	0x40
 5914 067b B1010000 		.4byte	0x1b1
 5915 067f 0C       		.byte	0xc
 5916 0680 0D       		.uleb128 0xd
 5917 0681 2E0A0000 		.4byte	.LASF126
 5918 0685 08       		.byte	0x8
 5919 0686 41       		.byte	0x41
 5920 0687 8F050000 		.4byte	0x58f
 5921 068b 20       		.byte	0x20
 5922 068c 12       		.uleb128 0x12
 5923 068d A20D0000 		.4byte	.LASF127
ARM GAS  C:\Users\JENNEW~1\AppData\Local\Temp\ccEqAB2L.s 			page 126


 5924 0691 08       		.byte	0x8
 5925 0692 42       		.byte	0x42
 5926 0693 54060000 		.4byte	0x654
 5927 0697 0C01     		.2byte	0x10c
 5928 0699 12       		.uleb128 0x12
 5929 069a C3070000 		.4byte	.LASF128
 5930 069e 08       		.byte	0x8
 5931 069f 43       		.byte	0x43
 5932 06a0 EC050000 		.4byte	0x5ec
 5933 06a4 2401     		.2byte	0x124
 5934 06a6 12       		.uleb128 0x12
 5935 06a7 8D020000 		.4byte	.LASF129
 5936 06ab 08       		.byte	0x8
 5937 06ac 44       		.byte	0x44
 5938 06ad EC050000 		.4byte	0x5ec
 5939 06b1 2A02     		.2byte	0x22a
 5940 06b3 12       		.uleb128 0x12
 5941 06b4 B8050000 		.4byte	.LASF130
 5942 06b8 08       		.byte	0x8
 5943 06b9 48       		.byte	0x48
 5944 06ba A2000000 		.4byte	0xa2
 5945 06be 3003     		.2byte	0x330
 5946 06c0 12       		.uleb128 0x12
 5947 06c1 4F0E0000 		.4byte	.LASF131
 5948 06c5 08       		.byte	0x8
 5949 06c6 4C       		.byte	0x4c
 5950 06c7 B8000000 		.4byte	0xb8
 5951 06cb 3203     		.2byte	0x332
 5952 06cd 12       		.uleb128 0x12
 5953 06ce 9A000000 		.4byte	.LASF132
 5954 06d2 08       		.byte	0x8
 5955 06d3 4D       		.byte	0x4d
 5956 06d4 CE000000 		.4byte	0xce
 5957 06d8 3403     		.2byte	0x334
 5958 06da 12       		.uleb128 0x12
 5959 06db 22010000 		.4byte	.LASF133
 5960 06df 08       		.byte	0x8
 5961 06e0 4E       		.byte	0x4e
 5962 06e1 88050000 		.4byte	0x588
 5963 06e5 3803     		.2byte	0x338
 5964 06e7 12       		.uleb128 0x12
 5965 06e8 5F050000 		.4byte	.LASF134
 5966 06ec 08       		.byte	0x8
 5967 06ed 4F       		.byte	0x4f
 5968 06ee B8000000 		.4byte	0xb8
 5969 06f2 3A03     		.2byte	0x33a
 5970 06f4 12       		.uleb128 0x12
 5971 06f5 3F0C0000 		.4byte	.LASF135
 5972 06f9 08       		.byte	0x8
 5973 06fa 50       		.byte	0x50
 5974 06fb B8000000 		.4byte	0xb8
 5975 06ff 3C03     		.2byte	0x33c
 5976 0701 12       		.uleb128 0x12
 5977 0702 6A020000 		.4byte	.LASF136
 5978 0706 08       		.byte	0x8
 5979 0707 51       		.byte	0x51
 5980 0708 1C070000 		.4byte	0x71c
ARM GAS  C:\Users\JENNEW~1\AppData\Local\Temp\ccEqAB2L.s 			page 127


 5981 070c 3E03     		.2byte	0x33e
 5982 070e 12       		.uleb128 0x12
 5983 070f 57080000 		.4byte	.LASF137
 5984 0713 08       		.byte	0x8
 5985 0714 54       		.byte	0x54
 5986 0715 A2000000 		.4byte	0xa2
 5987 0719 7E03     		.2byte	0x37e
 5988 071b 00       		.byte	0
 5989 071c 13       		.uleb128 0x13
 5990 071d A2000000 		.4byte	0xa2
 5991 0721 2C070000 		.4byte	0x72c
 5992 0725 14       		.uleb128 0x14
 5993 0726 F5000000 		.4byte	0xf5
 5994 072a 3F       		.byte	0x3f
 5995 072b 00       		.byte	0
 5996 072c 03       		.uleb128 0x3
 5997 072d 00000000 		.4byte	.LASF138
 5998 0731 08       		.byte	0x8
 5999 0732 56       		.byte	0x56
 6000 0733 5F060000 		.4byte	0x65f
 6001 0737 09       		.uleb128 0x9
 6002 0738 01       		.byte	0x1
 6003 0739 37000000 		.4byte	0x37
 6004 073d 09       		.byte	0x9
 6005 073e 38       		.byte	0x38
 6006 073f 56070000 		.4byte	0x756
 6007 0743 0A       		.uleb128 0xa
 6008 0744 DF060000 		.4byte	.LASF139
 6009 0748 00       		.byte	0
 6010 0749 0A       		.uleb128 0xa
 6011 074a 90040000 		.4byte	.LASF140
 6012 074e 01       		.byte	0x1
 6013 074f 0A       		.uleb128 0xa
 6014 0750 90090000 		.4byte	.LASF141
 6015 0754 02       		.byte	0x2
 6016 0755 00       		.byte	0
 6017 0756 03       		.uleb128 0x3
 6018 0757 C3090000 		.4byte	.LASF142
 6019 075b 09       		.byte	0x9
 6020 075c 3C       		.byte	0x3c
 6021 075d 37070000 		.4byte	0x737
 6022 0761 0B       		.uleb128 0xb
 6023 0762 08       		.byte	0x8
 6024 0763 09       		.byte	0x9
 6025 0764 50       		.byte	0x50
 6026 0765 74070000 		.4byte	0x774
 6027 0769 0C       		.uleb128 0xc
 6028 076a 7500     		.ascii	"u\000"
 6029 076c 09       		.byte	0x9
 6030 076d 51       		.byte	0x51
 6031 076e 74070000 		.4byte	0x774
 6032 0772 00       		.byte	0
 6033 0773 00       		.byte	0
 6034 0774 13       		.uleb128 0x13
 6035 0775 D9000000 		.4byte	0xd9
 6036 0779 84070000 		.4byte	0x784
 6037 077d 14       		.uleb128 0x14
ARM GAS  C:\Users\JENNEW~1\AppData\Local\Temp\ccEqAB2L.s 			page 128


 6038 077e F5000000 		.4byte	0xf5
 6039 0782 01       		.byte	0x1
 6040 0783 00       		.byte	0
 6041 0784 03       		.uleb128 0x3
 6042 0785 29100000 		.4byte	.LASF143
 6043 0789 09       		.byte	0x9
 6044 078a 52       		.byte	0x52
 6045 078b 61070000 		.4byte	0x761
 6046 078f 09       		.uleb128 0x9
 6047 0790 01       		.byte	0x1
 6048 0791 37000000 		.4byte	0x37
 6049 0795 0A       		.byte	0xa
 6050 0796 2F       		.byte	0x2f
 6051 0797 FC070000 		.4byte	0x7fc
 6052 079b 0A       		.uleb128 0xa
 6053 079c BA000000 		.4byte	.LASF144
 6054 07a0 00       		.byte	0
 6055 07a1 0A       		.uleb128 0xa
 6056 07a2 810F0000 		.4byte	.LASF145
 6057 07a6 01       		.byte	0x1
 6058 07a7 0A       		.uleb128 0xa
 6059 07a8 470A0000 		.4byte	.LASF146
 6060 07ac 02       		.byte	0x2
 6061 07ad 0A       		.uleb128 0xa
 6062 07ae 3F0D0000 		.4byte	.LASF147
 6063 07b2 03       		.byte	0x3
 6064 07b3 0A       		.uleb128 0xa
 6065 07b4 A7060000 		.4byte	.LASF148
 6066 07b8 04       		.byte	0x4
 6067 07b9 0A       		.uleb128 0xa
 6068 07ba 43090000 		.4byte	.LASF149
 6069 07be 05       		.byte	0x5
 6070 07bf 0A       		.uleb128 0xa
 6071 07c0 8D030000 		.4byte	.LASF150
 6072 07c4 06       		.byte	0x6
 6073 07c5 0A       		.uleb128 0xa
 6074 07c6 390B0000 		.4byte	.LASF151
 6075 07ca 07       		.byte	0x7
 6076 07cb 0A       		.uleb128 0xa
 6077 07cc 81000000 		.4byte	.LASF152
 6078 07d0 08       		.byte	0x8
 6079 07d1 0A       		.uleb128 0xa
 6080 07d2 5D020000 		.4byte	.LASF153
 6081 07d6 09       		.byte	0x9
 6082 07d7 0A       		.uleb128 0xa
 6083 07d8 6B0A0000 		.4byte	.LASF154
 6084 07dc 0A       		.byte	0xa
 6085 07dd 0A       		.uleb128 0xa
 6086 07de 98010000 		.4byte	.LASF155
 6087 07e2 0B       		.byte	0xb
 6088 07e3 0A       		.uleb128 0xa
 6089 07e4 97030000 		.4byte	.LASF156
 6090 07e8 0C       		.byte	0xc
 6091 07e9 0A       		.uleb128 0xa
 6092 07ea 62030000 		.4byte	.LASF157
 6093 07ee 0D       		.byte	0xd
 6094 07ef 0A       		.uleb128 0xa
ARM GAS  C:\Users\JENNEW~1\AppData\Local\Temp\ccEqAB2L.s 			page 129


 6095 07f0 C30D0000 		.4byte	.LASF158
 6096 07f4 0E       		.byte	0xe
 6097 07f5 0A       		.uleb128 0xa
 6098 07f6 C9070000 		.4byte	.LASF159
 6099 07fa 0F       		.byte	0xf
 6100 07fb 00       		.byte	0
 6101 07fc 03       		.uleb128 0x3
 6102 07fd BA0E0000 		.4byte	.LASF160
 6103 0801 0A       		.byte	0xa
 6104 0802 3F       		.byte	0x3f
 6105 0803 8F070000 		.4byte	0x78f
 6106 0807 09       		.uleb128 0x9
 6107 0808 01       		.byte	0x1
 6108 0809 37000000 		.4byte	0x37
 6109 080d 0A       		.byte	0xa
 6110 080e 47       		.byte	0x47
 6111 080f 2C080000 		.4byte	0x82c
 6112 0813 0A       		.uleb128 0xa
 6113 0814 A8050000 		.4byte	.LASF161
 6114 0818 00       		.byte	0
 6115 0819 0A       		.uleb128 0xa
 6116 081a BE020000 		.4byte	.LASF162
 6117 081e 01       		.byte	0x1
 6118 081f 0A       		.uleb128 0xa
 6119 0820 A6010000 		.4byte	.LASF163
 6120 0824 02       		.byte	0x2
 6121 0825 0A       		.uleb128 0xa
 6122 0826 5F0B0000 		.4byte	.LASF164
 6123 082a 03       		.byte	0x3
 6124 082b 00       		.byte	0
 6125 082c 03       		.uleb128 0x3
 6126 082d 0A010000 		.4byte	.LASF165
 6127 0831 0A       		.byte	0xa
 6128 0832 4C       		.byte	0x4c
 6129 0833 07080000 		.4byte	0x807
 6130 0837 0B       		.uleb128 0xb
 6131 0838 90       		.byte	0x90
 6132 0839 0A       		.byte	0xa
 6133 083a 4F       		.byte	0x4f
 6134 083b 200A0000 		.4byte	0xa20
 6135 083f 0D       		.uleb128 0xd
 6136 0840 29030000 		.4byte	.LASF166
 6137 0844 0A       		.byte	0xa
 6138 0845 51       		.byte	0x51
 6139 0846 200A0000 		.4byte	0xa20
 6140 084a 00       		.byte	0
 6141 084b 0D       		.uleb128 0xd
 6142 084c 6D010000 		.4byte	.LASF167
 6143 0850 0A       		.byte	0xa
 6144 0851 54       		.byte	0x54
 6145 0852 FC070000 		.4byte	0x7fc
 6146 0856 04       		.byte	0x4
 6147 0857 0D       		.uleb128 0xd
 6148 0858 16030000 		.4byte	.LASF168
 6149 085c 0A       		.byte	0xa
 6150 085d 55       		.byte	0x55
 6151 085e FC070000 		.4byte	0x7fc
ARM GAS  C:\Users\JENNEW~1\AppData\Local\Temp\ccEqAB2L.s 			page 130


 6152 0862 05       		.byte	0x5
 6153 0863 0D       		.uleb128 0xd
 6154 0864 0C060000 		.4byte	.LASF169
 6155 0868 0A       		.byte	0xa
 6156 0869 58       		.byte	0x58
 6157 086a 2C080000 		.4byte	0x82c
 6158 086e 06       		.byte	0x6
 6159 086f 0D       		.uleb128 0xd
 6160 0870 500B0000 		.4byte	.LASF170
 6161 0874 0A       		.byte	0xa
 6162 0875 59       		.byte	0x59
 6163 0876 FE000000 		.4byte	0xfe
 6164 087a 08       		.byte	0x8
 6165 087b 0D       		.uleb128 0xd
 6166 087c 72080000 		.4byte	.LASF171
 6167 0880 0A       		.byte	0xa
 6168 0881 5A       		.byte	0x5a
 6169 0882 A2000000 		.4byte	0xa2
 6170 0886 0C       		.byte	0xc
 6171 0887 0D       		.uleb128 0xd
 6172 0888 63010000 		.4byte	.LASF172
 6173 088c 0A       		.byte	0xa
 6174 088d 5D       		.byte	0x5d
 6175 088e 3D010000 		.4byte	0x13d
 6176 0892 0D       		.byte	0xd
 6177 0893 0D       		.uleb128 0xd
 6178 0894 050F0000 		.4byte	.LASF173
 6179 0898 0A       		.byte	0xa
 6180 0899 60       		.byte	0x60
 6181 089a D9000000 		.4byte	0xd9
 6182 089e 10       		.byte	0x10
 6183 089f 0D       		.uleb128 0xd
 6184 08a0 0A0D0000 		.4byte	.LASF174
 6185 08a4 0A       		.byte	0xa
 6186 08a5 61       		.byte	0x61
 6187 08a6 D9000000 		.4byte	0xd9
 6188 08aa 14       		.byte	0x14
 6189 08ab 0D       		.uleb128 0xd
 6190 08ac CF0A0000 		.4byte	.LASF175
 6191 08b0 0A       		.byte	0xa
 6192 08b1 66       		.byte	0x66
 6193 08b2 C3000000 		.4byte	0xc3
 6194 08b6 18       		.byte	0x18
 6195 08b7 0D       		.uleb128 0xd
 6196 08b8 670D0000 		.4byte	.LASF176
 6197 08bc 0A       		.byte	0xa
 6198 08bd 67       		.byte	0x67
 6199 08be C3000000 		.4byte	0xc3
 6200 08c2 1C       		.byte	0x1c
 6201 08c3 0D       		.uleb128 0xd
 6202 08c4 30010000 		.4byte	.LASF177
 6203 08c8 0A       		.byte	0xa
 6204 08c9 68       		.byte	0x68
 6205 08ca C3000000 		.4byte	0xc3
 6206 08ce 20       		.byte	0x20
 6207 08cf 0D       		.uleb128 0xd
 6208 08d0 3E040000 		.4byte	.LASF178
ARM GAS  C:\Users\JENNEW~1\AppData\Local\Temp\ccEqAB2L.s 			page 131


 6209 08d4 0A       		.byte	0xa
 6210 08d5 69       		.byte	0x69
 6211 08d6 A2000000 		.4byte	0xa2
 6212 08da 24       		.byte	0x24
 6213 08db 0D       		.uleb128 0xd
 6214 08dc 8B000000 		.4byte	.LASF179
 6215 08e0 0A       		.byte	0xa
 6216 08e1 6A       		.byte	0x6a
 6217 08e2 A2000000 		.4byte	0xa2
 6218 08e6 25       		.byte	0x25
 6219 08e7 0D       		.uleb128 0xd
 6220 08e8 C7020000 		.4byte	.LASF180
 6221 08ec 0A       		.byte	0xa
 6222 08ed 6D       		.byte	0x6d
 6223 08ee C3000000 		.4byte	0xc3
 6224 08f2 28       		.byte	0x28
 6225 08f3 0D       		.uleb128 0xd
 6226 08f4 2D0E0000 		.4byte	.LASF181
 6227 08f8 0A       		.byte	0xa
 6228 08f9 6E       		.byte	0x6e
 6229 08fa C3000000 		.4byte	0xc3
 6230 08fe 2C       		.byte	0x2c
 6231 08ff 0D       		.uleb128 0xd
 6232 0900 E2020000 		.4byte	.LASF182
 6233 0904 0A       		.byte	0xa
 6234 0905 6F       		.byte	0x6f
 6235 0906 C3000000 		.4byte	0xc3
 6236 090a 30       		.byte	0x30
 6237 090b 0D       		.uleb128 0xd
 6238 090c 290D0000 		.4byte	.LASF183
 6239 0910 0A       		.byte	0xa
 6240 0911 72       		.byte	0x72
 6241 0912 A2000000 		.4byte	0xa2
 6242 0916 34       		.byte	0x34
 6243 0917 0D       		.uleb128 0xd
 6244 0918 65040000 		.4byte	.LASF184
 6245 091c 0A       		.byte	0xa
 6246 091d 73       		.byte	0x73
 6247 091e D9000000 		.4byte	0xd9
 6248 0922 38       		.byte	0x38
 6249 0923 0D       		.uleb128 0xd
 6250 0924 A00C0000 		.4byte	.LASF185
 6251 0928 0A       		.byte	0xa
 6252 0929 74       		.byte	0x74
 6253 092a D9000000 		.4byte	0xd9
 6254 092e 3C       		.byte	0x3c
 6255 092f 0D       		.uleb128 0xd
 6256 0930 E0000000 		.4byte	.LASF186
 6257 0934 0A       		.byte	0xa
 6258 0935 75       		.byte	0x75
 6259 0936 CE000000 		.4byte	0xce
 6260 093a 40       		.byte	0x40
 6261 093b 0D       		.uleb128 0xd
 6262 093c F20C0000 		.4byte	.LASF187
 6263 0940 0A       		.byte	0xa
 6264 0941 78       		.byte	0x78
 6265 0942 D9000000 		.4byte	0xd9
ARM GAS  C:\Users\JENNEW~1\AppData\Local\Temp\ccEqAB2L.s 			page 132


 6266 0946 44       		.byte	0x44
 6267 0947 0D       		.uleb128 0xd
 6268 0948 AB020000 		.4byte	.LASF188
 6269 094c 0A       		.byte	0xa
 6270 094d 79       		.byte	0x79
 6271 094e AD000000 		.4byte	0xad
 6272 0952 48       		.byte	0x48
 6273 0953 0D       		.uleb128 0xd
 6274 0954 E40C0000 		.4byte	.LASF189
 6275 0958 0A       		.byte	0xa
 6276 0959 7A       		.byte	0x7a
 6277 095a AD000000 		.4byte	0xad
 6278 095e 4A       		.byte	0x4a
 6279 095f 0D       		.uleb128 0xd
 6280 0960 1A0D0000 		.4byte	.LASF190
 6281 0964 0A       		.byte	0xa
 6282 0965 7D       		.byte	0x7d
 6283 0966 D9000000 		.4byte	0xd9
 6284 096a 4C       		.byte	0x4c
 6285 096b 0D       		.uleb128 0xd
 6286 096c 90050000 		.4byte	.LASF191
 6287 0970 0A       		.byte	0xa
 6288 0971 7E       		.byte	0x7e
 6289 0972 D9000000 		.4byte	0xd9
 6290 0976 50       		.byte	0x50
 6291 0977 0D       		.uleb128 0xd
 6292 0978 45020000 		.4byte	.LASF192
 6293 097c 0A       		.byte	0xa
 6294 097d 7F       		.byte	0x7f
 6295 097e A2000000 		.4byte	0xa2
 6296 0982 54       		.byte	0x54
 6297 0983 0D       		.uleb128 0xd
 6298 0984 F5050000 		.4byte	.LASF193
 6299 0988 0A       		.byte	0xa
 6300 0989 82       		.byte	0x82
 6301 098a CE000000 		.4byte	0xce
 6302 098e 58       		.byte	0x58
 6303 098f 0D       		.uleb128 0xd
 6304 0990 E40D0000 		.4byte	.LASF194
 6305 0994 0A       		.byte	0xa
 6306 0995 83       		.byte	0x83
 6307 0996 CE000000 		.4byte	0xce
 6308 099a 5C       		.byte	0x5c
 6309 099b 0D       		.uleb128 0xd
 6310 099c 270F0000 		.4byte	.LASF195
 6311 09a0 0A       		.byte	0xa
 6312 09a1 84       		.byte	0x84
 6313 09a2 CE000000 		.4byte	0xce
 6314 09a6 60       		.byte	0x60
 6315 09a7 0D       		.uleb128 0xd
 6316 09a8 B60B0000 		.4byte	.LASF196
 6317 09ac 0A       		.byte	0xa
 6318 09ad 85       		.byte	0x85
 6319 09ae A2000000 		.4byte	0xa2
 6320 09b2 64       		.byte	0x64
 6321 09b3 0C       		.uleb128 0xc
 6322 09b4 636D6400 		.ascii	"cmd\000"
ARM GAS  C:\Users\JENNEW~1\AppData\Local\Temp\ccEqAB2L.s 			page 133


 6323 09b8 0A       		.byte	0xa
 6324 09b9 88       		.byte	0x88
 6325 09ba 84070000 		.4byte	0x784
 6326 09be 68       		.byte	0x68
 6327 09bf 0D       		.uleb128 0xd
 6328 09c0 7B010000 		.4byte	.LASF197
 6329 09c4 0A       		.byte	0xa
 6330 09c5 89       		.byte	0x89
 6331 09c6 56070000 		.4byte	0x756
 6332 09ca 70       		.byte	0x70
 6333 09cb 0D       		.uleb128 0xd
 6334 09cc 690B0000 		.4byte	.LASF198
 6335 09d0 0A       		.byte	0xa
 6336 09d1 8A       		.byte	0x8a
 6337 09d2 CE000000 		.4byte	0xce
 6338 09d6 74       		.byte	0x74
 6339 09d7 0D       		.uleb128 0xd
 6340 09d8 33100000 		.4byte	.LASF199
 6341 09dc 0A       		.byte	0xa
 6342 09dd 8D       		.byte	0x8d
 6343 09de A2000000 		.4byte	0xa2
 6344 09e2 78       		.byte	0x78
 6345 09e3 0D       		.uleb128 0xd
 6346 09e4 380A0000 		.4byte	.LASF200
 6347 09e8 0A       		.byte	0xa
 6348 09e9 8E       		.byte	0x8e
 6349 09ea CE000000 		.4byte	0xce
 6350 09ee 7C       		.byte	0x7c
 6351 09ef 0D       		.uleb128 0xd
 6352 09f0 7A030000 		.4byte	.LASF201
 6353 09f4 0A       		.byte	0xa
 6354 09f5 8F       		.byte	0x8f
 6355 09f6 D9000000 		.4byte	0xd9
 6356 09fa 80       		.byte	0x80
 6357 09fb 0D       		.uleb128 0xd
 6358 09fc 510F0000 		.4byte	.LASF202
 6359 0a00 0A       		.byte	0xa
 6360 0a01 90       		.byte	0x90
 6361 0a02 D9000000 		.4byte	0xd9
 6362 0a06 84       		.byte	0x84
 6363 0a07 0D       		.uleb128 0xd
 6364 0a08 C3060000 		.4byte	.LASF203
 6365 0a0c 0A       		.byte	0xa
 6366 0a0d 91       		.byte	0x91
 6367 0a0e D9000000 		.4byte	0xd9
 6368 0a12 88       		.byte	0x88
 6369 0a13 0D       		.uleb128 0xd
 6370 0a14 0E0E0000 		.4byte	.LASF204
 6371 0a18 0A       		.byte	0xa
 6372 0a19 92       		.byte	0x92
 6373 0a1a D9000000 		.4byte	0xd9
 6374 0a1e 8C       		.byte	0x8c
 6375 0a1f 00       		.byte	0
 6376 0a20 06       		.uleb128 0x6
 6377 0a21 04       		.byte	0x4
 6378 0a22 2C070000 		.4byte	0x72c
 6379 0a26 03       		.uleb128 0x3
ARM GAS  C:\Users\JENNEW~1\AppData\Local\Temp\ccEqAB2L.s 			page 134


 6380 0a27 B3030000 		.4byte	.LASF205
 6381 0a2b 0A       		.byte	0xa
 6382 0a2c 95       		.byte	0x95
 6383 0a2d 37080000 		.4byte	0x837
 6384 0a31 0B       		.uleb128 0xb
 6385 0a32 0C       		.byte	0xc
 6386 0a33 0B       		.byte	0xb
 6387 0a34 33       		.byte	0x33
 6388 0a35 740A0000 		.4byte	0xa74
 6389 0a39 0D       		.uleb128 0xd
 6390 0a3a 770C0000 		.4byte	.LASF206
 6391 0a3e 0B       		.byte	0xb
 6392 0a3f 34       		.byte	0x34
 6393 0a40 CE000000 		.4byte	0xce
 6394 0a44 00       		.byte	0
 6395 0a45 0C       		.uleb128 0xc
 6396 0a46 637800   		.ascii	"cx\000"
 6397 0a49 0B       		.byte	0xb
 6398 0a4a 35       		.byte	0x35
 6399 0a4b AD000000 		.4byte	0xad
 6400 0a4f 04       		.byte	0x4
 6401 0a50 0C       		.uleb128 0xc
 6402 0a51 637900   		.ascii	"cy\000"
 6403 0a54 0B       		.byte	0xb
 6404 0a55 35       		.byte	0x35
 6405 0a56 AD000000 		.4byte	0xad
 6406 0a5a 06       		.byte	0x6
 6407 0a5b 0D       		.uleb128 0xd
 6408 0a5c 4E100000 		.4byte	.LASF207
 6409 0a60 0B       		.byte	0xb
 6410 0a61 36       		.byte	0x36
 6411 0a62 B8000000 		.4byte	0xb8
 6412 0a66 08       		.byte	0x8
 6413 0a67 0D       		.uleb128 0xd
 6414 0a68 7A060000 		.4byte	.LASF208
 6415 0a6c 0B       		.byte	0xb
 6416 0a6d 36       		.byte	0x36
 6417 0a6e B8000000 		.4byte	0xb8
 6418 0a72 0A       		.byte	0xa
 6419 0a73 00       		.byte	0
 6420 0a74 03       		.uleb128 0x3
 6421 0a75 1F090000 		.4byte	.LASF209
 6422 0a79 0B       		.byte	0xb
 6423 0a7a 37       		.byte	0x37
 6424 0a7b 310A0000 		.4byte	0xa31
 6425 0a7f 0B       		.uleb128 0xb
 6426 0a80 01       		.byte	0x1
 6427 0a81 0B       		.byte	0xb
 6428 0a82 3A       		.byte	0x3a
 6429 0a83 940A0000 		.4byte	0xa94
 6430 0a87 0D       		.uleb128 0xd
 6431 0a88 970A0000 		.4byte	.LASF210
 6432 0a8c 0B       		.byte	0xb
 6433 0a8d 3B       		.byte	0x3b
 6434 0a8e A2000000 		.4byte	0xa2
 6435 0a92 00       		.byte	0
 6436 0a93 00       		.byte	0
ARM GAS  C:\Users\JENNEW~1\AppData\Local\Temp\ccEqAB2L.s 			page 135


 6437 0a94 03       		.uleb128 0x3
 6438 0a95 C7000000 		.4byte	.LASF211
 6439 0a99 0B       		.byte	0xb
 6440 0a9a 3C       		.byte	0x3c
 6441 0a9b 7F0A0000 		.4byte	0xa7f
 6442 0a9f 0B       		.uleb128 0xb
 6443 0aa0 0C       		.byte	0xc
 6444 0aa1 0B       		.byte	0xb
 6445 0aa2 3F       		.byte	0x3f
 6446 0aa3 CC0A0000 		.4byte	0xacc
 6447 0aa7 0D       		.uleb128 0xd
 6448 0aa8 73010000 		.4byte	.LASF212
 6449 0aac 0B       		.byte	0xb
 6450 0aad 40       		.byte	0x40
 6451 0aae C3000000 		.4byte	0xc3
 6452 0ab2 00       		.byte	0
 6453 0ab3 0D       		.uleb128 0xd
 6454 0ab4 3E0E0000 		.4byte	.LASF213
 6455 0ab8 0B       		.byte	0xb
 6456 0ab9 41       		.byte	0x41
 6457 0aba C3000000 		.4byte	0xc3
 6458 0abe 04       		.byte	0x4
 6459 0abf 0D       		.uleb128 0xd
 6460 0ac0 F50B0000 		.4byte	.LASF214
 6461 0ac4 0B       		.byte	0xb
 6462 0ac5 42       		.byte	0x42
 6463 0ac6 C3000000 		.4byte	0xc3
 6464 0aca 08       		.byte	0x8
 6465 0acb 00       		.byte	0
 6466 0acc 03       		.uleb128 0x3
 6467 0acd 0C100000 		.4byte	.LASF215
 6468 0ad1 0B       		.byte	0xb
 6469 0ad2 43       		.byte	0x43
 6470 0ad3 9F0A0000 		.4byte	0xa9f
 6471 0ad7 03       		.uleb128 0x3
 6472 0ad8 650F0000 		.4byte	.LASF216
 6473 0adc 01       		.byte	0x1
 6474 0add 58       		.byte	0x58
 6475 0ade E20A0000 		.4byte	0xae2
 6476 0ae2 06       		.uleb128 0x6
 6477 0ae3 04       		.byte	0x4
 6478 0ae4 E80A0000 		.4byte	0xae8
 6479 0ae8 0E       		.uleb128 0xe
 6480 0ae9 F30A0000 		.4byte	0xaf3
 6481 0aed 0F       		.uleb128 0xf
 6482 0aee F30A0000 		.4byte	0xaf3
 6483 0af2 00       		.byte	0
 6484 0af3 06       		.uleb128 0x6
 6485 0af4 04       		.byte	0x4
 6486 0af5 260A0000 		.4byte	0xa26
 6487 0af9 03       		.uleb128 0x3
 6488 0afa D6080000 		.4byte	.LASF217
 6489 0afe 01       		.byte	0x1
 6490 0aff 59       		.byte	0x59
 6491 0b00 040B0000 		.4byte	0xb04
 6492 0b04 06       		.uleb128 0x6
 6493 0b05 04       		.byte	0x4
ARM GAS  C:\Users\JENNEW~1\AppData\Local\Temp\ccEqAB2L.s 			page 136


 6494 0b06 0A0B0000 		.4byte	0xb0a
 6495 0b0a 10       		.uleb128 0x10
 6496 0b0b A2000000 		.4byte	0xa2
 6497 0b0f 1E0B0000 		.4byte	0xb1e
 6498 0b13 0F       		.uleb128 0xf
 6499 0b14 F30A0000 		.4byte	0xaf3
 6500 0b18 0F       		.uleb128 0xf
 6501 0b19 E7000000 		.4byte	0xe7
 6502 0b1d 00       		.byte	0
 6503 0b1e 03       		.uleb128 0x3
 6504 0b1f 7B0A0000 		.4byte	.LASF218
 6505 0b23 01       		.byte	0x1
 6506 0b24 5A       		.byte	0x5a
 6507 0b25 290B0000 		.4byte	0xb29
 6508 0b29 06       		.uleb128 0x6
 6509 0b2a 04       		.byte	0x4
 6510 0b2b 2F0B0000 		.4byte	0xb2f
 6511 0b2f 0E       		.uleb128 0xe
 6512 0b30 3F0B0000 		.4byte	0xb3f
 6513 0b34 0F       		.uleb128 0xf
 6514 0b35 3F0B0000 		.4byte	0xb3f
 6515 0b39 0F       		.uleb128 0xf
 6516 0b3a 4A0B0000 		.4byte	0xb4a
 6517 0b3e 00       		.byte	0
 6518 0b3f 06       		.uleb128 0x6
 6519 0b40 04       		.byte	0x4
 6520 0b41 450B0000 		.4byte	0xb45
 6521 0b45 07       		.uleb128 0x7
 6522 0b46 260A0000 		.4byte	0xa26
 6523 0b4a 06       		.uleb128 0x6
 6524 0b4b 04       		.byte	0x4
 6525 0b4c B1010000 		.4byte	0x1b1
 6526 0b50 15       		.uleb128 0x15
 6527 0b51 5E0D0000 		.4byte	.LASF219
 6528 0b55 01       		.byte	0x1
 6529 0b56 CA       		.byte	0xca
 6530 0b57 A2000000 		.4byte	0xa2
 6531 0b5b 00000000 		.4byte	.LFB64
 6532 0b5f 34000000 		.4byte	.LFE64-.LFB64
 6533 0b63 01       		.uleb128 0x1
 6534 0b64 9C       		.byte	0x9c
 6535 0b65 820B0000 		.4byte	0xb82
 6536 0b69 16       		.uleb128 0x16
 6537 0b6a 7300     		.ascii	"s\000"
 6538 0b6c 01       		.byte	0x1
 6539 0b6d CA       		.byte	0xca
 6540 0b6e FC070000 		.4byte	0x7fc
 6541 0b72 02       		.uleb128 0x2
 6542 0b73 91       		.byte	0x91
 6543 0b74 6F       		.sleb128 -17
 6544 0b75 17       		.uleb128 0x17
 6545 0b76 6400     		.ascii	"d\000"
 6546 0b78 01       		.byte	0x1
 6547 0b79 CC       		.byte	0xcc
 6548 0b7a A2000000 		.4byte	0xa2
 6549 0b7e 02       		.uleb128 0x2
 6550 0b7f 91       		.byte	0x91
ARM GAS  C:\Users\JENNEW~1\AppData\Local\Temp\ccEqAB2L.s 			page 137


 6551 0b80 77       		.sleb128 -9
 6552 0b81 00       		.byte	0
 6553 0b82 18       		.uleb128 0x18
 6554 0b83 6C636100 		.ascii	"lca\000"
 6555 0b87 01       		.byte	0x1
 6556 0b88 D1       		.byte	0xd1
 6557 0b89 FC070000 		.4byte	0x7fc
 6558 0b8d 00000000 		.4byte	.LFB65
 6559 0b91 80000000 		.4byte	.LFE65-.LFB65
 6560 0b95 01       		.uleb128 0x1
 6561 0b96 9C       		.byte	0x9c
 6562 0b97 CE0B0000 		.4byte	0xbce
 6563 0b9b 16       		.uleb128 0x16
 6564 0b9c 6100     		.ascii	"a\000"
 6565 0b9e 01       		.byte	0x1
 6566 0b9f D1       		.byte	0xd1
 6567 0ba0 FC070000 		.4byte	0x7fc
 6568 0ba4 02       		.uleb128 0x2
 6569 0ba5 91       		.byte	0x91
 6570 0ba6 6F       		.sleb128 -17
 6571 0ba7 16       		.uleb128 0x16
 6572 0ba8 6200     		.ascii	"b\000"
 6573 0baa 01       		.byte	0x1
 6574 0bab D1       		.byte	0xd1
 6575 0bac FC070000 		.4byte	0x7fc
 6576 0bb0 02       		.uleb128 0x2
 6577 0bb1 91       		.byte	0x91
 6578 0bb2 6E       		.sleb128 -18
 6579 0bb3 17       		.uleb128 0x17
 6580 0bb4 646100   		.ascii	"da\000"
 6581 0bb7 01       		.byte	0x1
 6582 0bb8 D3       		.byte	0xd3
 6583 0bb9 A2000000 		.4byte	0xa2
 6584 0bbd 02       		.uleb128 0x2
 6585 0bbe 91       		.byte	0x91
 6586 0bbf 77       		.sleb128 -9
 6587 0bc0 17       		.uleb128 0x17
 6588 0bc1 646200   		.ascii	"db\000"
 6589 0bc4 01       		.byte	0x1
 6590 0bc5 D3       		.byte	0xd3
 6591 0bc6 A2000000 		.4byte	0xa2
 6592 0bca 02       		.uleb128 0x2
 6593 0bcb 91       		.byte	0x91
 6594 0bcc 76       		.sleb128 -10
 6595 0bcd 00       		.byte	0
 6596 0bce 19       		.uleb128 0x19
 6597 0bcf 2E000000 		.4byte	.LASF228
 6598 0bd3 01       		.byte	0x1
 6599 0bd4 DF       		.byte	0xdf
 6600 0bd5 00000000 		.4byte	.LFB66
 6601 0bd9 F0000000 		.4byte	.LFE66-.LFB66
 6602 0bdd 01       		.uleb128 0x1
 6603 0bde 9C       		.byte	0x9c
 6604 0bdf 660C0000 		.4byte	0xc66
 6605 0be3 16       		.uleb128 0x16
 6606 0be4 63747800 		.ascii	"ctx\000"
 6607 0be8 01       		.byte	0x1
ARM GAS  C:\Users\JENNEW~1\AppData\Local\Temp\ccEqAB2L.s 			page 138


 6608 0be9 DF       		.byte	0xdf
 6609 0bea F30A0000 		.4byte	0xaf3
 6610 0bee 02       		.uleb128 0x2
 6611 0bef 91       		.byte	0x91
 6612 0bf0 64       		.sleb128 -28
 6613 0bf1 1A       		.uleb128 0x1a
 6614 0bf2 4F060000 		.4byte	.LASF220
 6615 0bf6 01       		.byte	0x1
 6616 0bf7 DF       		.byte	0xdf
 6617 0bf8 FC070000 		.4byte	0x7fc
 6618 0bfc 02       		.uleb128 0x2
 6619 0bfd 91       		.byte	0x91
 6620 0bfe 63       		.sleb128 -29
 6621 0bff 17       		.uleb128 0x17
 6622 0c00 73726300 		.ascii	"src\000"
 6623 0c04 01       		.byte	0x1
 6624 0c05 E2       		.byte	0xe2
 6625 0c06 FC070000 		.4byte	0x7fc
 6626 0c0a 02       		.uleb128 0x2
 6627 0c0b 91       		.byte	0x91
 6628 0c0c 74       		.sleb128 -12
 6629 0c0d 1B       		.uleb128 0x1b
 6630 0c0e B1050000 		.4byte	.LASF221
 6631 0c12 01       		.byte	0x1
 6632 0c13 E6       		.byte	0xe6
 6633 0c14 FC070000 		.4byte	0x7fc
 6634 0c18 02       		.uleb128 0x2
 6635 0c19 91       		.byte	0x91
 6636 0c1a 73       		.sleb128 -13
 6637 0c1b 1B       		.uleb128 0x1b
 6638 0c1c DB000000 		.4byte	.LASF222
 6639 0c20 01       		.byte	0x1
 6640 0c21 F1       		.byte	0xf1
 6641 0c22 660C0000 		.4byte	0xc66
 6642 0c26 02       		.uleb128 0x2
 6643 0c27 91       		.byte	0x91
 6644 0c28 6C       		.sleb128 -20
 6645 0c29 17       		.uleb128 0x17
 6646 0c2a 6E00     		.ascii	"n\000"
 6647 0c2c 01       		.byte	0x1
 6648 0c2d F2       		.byte	0xf2
 6649 0c2e A2000000 		.4byte	0xa2
 6650 0c32 02       		.uleb128 0x2
 6651 0c33 91       		.byte	0x91
 6652 0c34 76       		.sleb128 -10
 6653 0c35 1C       		.uleb128 0x1c
 6654 0c36 2A000000 		.4byte	.LBB2
 6655 0c3a 2E000000 		.4byte	.LBE2-.LBB2
 6656 0c3e 4F0C0000 		.4byte	0xc4f
 6657 0c42 17       		.uleb128 0x17
 6658 0c43 7300     		.ascii	"s\000"
 6659 0c45 01       		.byte	0x1
 6660 0c46 EA       		.byte	0xea
 6661 0c47 FC070000 		.4byte	0x7fc
 6662 0c4b 02       		.uleb128 0x2
 6663 0c4c 91       		.byte	0x91
 6664 0c4d 77       		.sleb128 -9
ARM GAS  C:\Users\JENNEW~1\AppData\Local\Temp\ccEqAB2L.s 			page 139


 6665 0c4e 00       		.byte	0
 6666 0c4f 1D       		.uleb128 0x1d
 6667 0c50 62000000 		.4byte	.LBB3
 6668 0c54 28000000 		.4byte	.LBE3-.LBB3
 6669 0c58 17       		.uleb128 0x17
 6670 0c59 7300     		.ascii	"s\000"
 6671 0c5b 01       		.byte	0x1
 6672 0c5c F3       		.byte	0xf3
 6673 0c5d FC070000 		.4byte	0x7fc
 6674 0c61 02       		.uleb128 0x2
 6675 0c62 91       		.byte	0x91
 6676 0c63 75       		.sleb128 -11
 6677 0c64 00       		.byte	0
 6678 0c65 00       		.byte	0
 6679 0c66 13       		.uleb128 0x13
 6680 0c67 FC070000 		.4byte	0x7fc
 6681 0c6b 760C0000 		.4byte	0xc76
 6682 0c6f 14       		.uleb128 0x14
 6683 0c70 F5000000 		.4byte	0xf5
 6684 0c74 03       		.byte	0x3
 6685 0c75 00       		.byte	0
 6686 0c76 1E       		.uleb128 0x1e
 6687 0c77 820C0000 		.4byte	.LASF223
 6688 0c7b 01       		.byte	0x1
 6689 0c7c 0001     		.2byte	0x100
 6690 0c7e 00000000 		.4byte	.LFB67
 6691 0c82 26000000 		.4byte	.LFE67-.LFB67
 6692 0c86 01       		.uleb128 0x1
 6693 0c87 9C       		.byte	0x9c
 6694 0c88 AB0C0000 		.4byte	0xcab
 6695 0c8c 1F       		.uleb128 0x1f
 6696 0c8d 63747800 		.ascii	"ctx\000"
 6697 0c91 01       		.byte	0x1
 6698 0c92 0001     		.2byte	0x100
 6699 0c94 F30A0000 		.4byte	0xaf3
 6700 0c98 02       		.uleb128 0x2
 6701 0c99 91       		.byte	0x91
 6702 0c9a 6C       		.sleb128 -20
 6703 0c9b 20       		.uleb128 0x20
 6704 0c9c 4F060000 		.4byte	.LASF220
 6705 0ca0 01       		.byte	0x1
 6706 0ca1 0301     		.2byte	0x103
 6707 0ca3 FC070000 		.4byte	0x7fc
 6708 0ca7 02       		.uleb128 0x2
 6709 0ca8 91       		.byte	0x91
 6710 0ca9 77       		.sleb128 -9
 6711 0caa 00       		.byte	0
 6712 0cab 1E       		.uleb128 0x1e
 6713 0cac C7050000 		.4byte	.LASF224
 6714 0cb0 01       		.byte	0x1
 6715 0cb1 0901     		.2byte	0x109
 6716 0cb3 00000000 		.4byte	.LFB68
 6717 0cb7 68000000 		.4byte	.LFE68-.LFB68
 6718 0cbb 01       		.uleb128 0x1
 6719 0cbc 9C       		.byte	0x9c
 6720 0cbd EF0C0000 		.4byte	0xcef
 6721 0cc1 1F       		.uleb128 0x1f
ARM GAS  C:\Users\JENNEW~1\AppData\Local\Temp\ccEqAB2L.s 			page 140


 6722 0cc2 63747800 		.ascii	"ctx\000"
 6723 0cc6 01       		.byte	0x1
 6724 0cc7 0901     		.2byte	0x109
 6725 0cc9 F30A0000 		.4byte	0xaf3
 6726 0ccd 02       		.uleb128 0x2
 6727 0cce 91       		.byte	0x91
 6728 0ccf 74       		.sleb128 -12
 6729 0cd0 1F       		.uleb128 0x1f
 6730 0cd1 73657600 		.ascii	"sev\000"
 6731 0cd5 01       		.byte	0x1
 6732 0cd6 0901     		.2byte	0x109
 6733 0cd8 2C080000 		.4byte	0x82c
 6734 0cdc 02       		.uleb128 0x2
 6735 0cdd 91       		.byte	0x91
 6736 0cde 73       		.sleb128 -13
 6737 0cdf 1F       		.uleb128 0x1f
 6738 0ce0 6D736700 		.ascii	"msg\000"
 6739 0ce4 01       		.byte	0x1
 6740 0ce5 0901     		.2byte	0x109
 6741 0ce7 FE000000 		.4byte	0xfe
 6742 0ceb 02       		.uleb128 0x2
 6743 0cec 91       		.byte	0x91
 6744 0ced 6C       		.sleb128 -20
 6745 0cee 00       		.byte	0
 6746 0cef 21       		.uleb128 0x21
 6747 0cf0 F3000000 		.4byte	.LASF288
 6748 0cf4 01       		.byte	0x1
 6749 0cf5 2E01     		.2byte	0x12e
 6750 0cf7 FE000000 		.4byte	0xfe
 6751 0cfb 00000000 		.4byte	.LFB69
 6752 0cff 20000000 		.4byte	.LFE69-.LFB69
 6753 0d03 01       		.uleb128 0x1
 6754 0d04 9C       		.byte	0x9c
 6755 0d05 170D0000 		.4byte	0xd17
 6756 0d09 1F       		.uleb128 0x1f
 6757 0d0a 7300     		.ascii	"s\000"
 6758 0d0c 01       		.byte	0x1
 6759 0d0d 2E01     		.2byte	0x12e
 6760 0d0f FC070000 		.4byte	0x7fc
 6761 0d13 02       		.uleb128 0x2
 6762 0d14 91       		.byte	0x91
 6763 0d15 77       		.sleb128 -9
 6764 0d16 00       		.byte	0
 6765 0d17 1E       		.uleb128 0x1e
 6766 0d18 50000000 		.4byte	.LASF225
 6767 0d1c 01       		.byte	0x1
 6768 0d1d 3101     		.2byte	0x131
 6769 0d1f 00000000 		.4byte	.LFB70
 6770 0d23 80000000 		.4byte	.LFE70-.LFB70
 6771 0d27 01       		.uleb128 0x1
 6772 0d28 9C       		.byte	0x9c
 6773 0d29 610D0000 		.4byte	0xd61
 6774 0d2d 1F       		.uleb128 0x1f
 6775 0d2e 63747800 		.ascii	"ctx\000"
 6776 0d32 01       		.byte	0x1
 6777 0d33 3101     		.2byte	0x131
 6778 0d35 F30A0000 		.4byte	0xaf3
ARM GAS  C:\Users\JENNEW~1\AppData\Local\Temp\ccEqAB2L.s 			page 141


 6779 0d39 02       		.uleb128 0x2
 6780 0d3a 91       		.byte	0x91
 6781 0d3b 74       		.sleb128 -12
 6782 0d3c 20       		.uleb128 0x20
 6783 0d3d BC0C0000 		.4byte	.LASF226
 6784 0d41 01       		.byte	0x1
 6785 0d42 3601     		.2byte	0x136
 6786 0d44 CE000000 		.4byte	0xce
 6787 0d48 05       		.uleb128 0x5
 6788 0d49 03       		.byte	0x3
 6789 0d4a 00000000 		.4byte	last_hot_ms.8191
 6790 0d4e 20       		.uleb128 0x20
 6791 0d4f 10040000 		.4byte	.LASF227
 6792 0d53 01       		.byte	0x1
 6793 0d54 3701     		.2byte	0x137
 6794 0d56 CE000000 		.4byte	0xce
 6795 0d5a 05       		.uleb128 0x5
 6796 0d5b 03       		.byte	0x3
 6797 0d5c 04000000 		.4byte	last_link_ms.8192
 6798 0d60 00       		.byte	0
 6799 0d61 22       		.uleb128 0x22
 6800 0d62 43030000 		.4byte	.LASF229
 6801 0d66 01       		.byte	0x1
 6802 0d67 4D01     		.2byte	0x14d
 6803 0d69 00000000 		.4byte	.LFB71
 6804 0d6d 1C000000 		.4byte	.LFE71-.LFB71
 6805 0d71 01       		.uleb128 0x1
 6806 0d72 9C       		.byte	0x9c
 6807 0d73 870D0000 		.4byte	0xd87
 6808 0d77 1F       		.uleb128 0x1f
 6809 0d78 63747800 		.ascii	"ctx\000"
 6810 0d7c 01       		.byte	0x1
 6811 0d7d 4D01     		.2byte	0x14d
 6812 0d7f F30A0000 		.4byte	0xaf3
 6813 0d83 02       		.uleb128 0x2
 6814 0d84 91       		.byte	0x91
 6815 0d85 74       		.sleb128 -12
 6816 0d86 00       		.byte	0
 6817 0d87 22       		.uleb128 0x22
 6818 0d88 71000000 		.4byte	.LASF230
 6819 0d8c 01       		.byte	0x1
 6820 0d8d 5701     		.2byte	0x157
 6821 0d8f 00000000 		.4byte	.LFB72
 6822 0d93 1C000000 		.4byte	.LFE72-.LFB72
 6823 0d97 01       		.uleb128 0x1
 6824 0d98 9C       		.byte	0x9c
 6825 0d99 AD0D0000 		.4byte	0xdad
 6826 0d9d 1F       		.uleb128 0x1f
 6827 0d9e 63747800 		.ascii	"ctx\000"
 6828 0da2 01       		.byte	0x1
 6829 0da3 5701     		.2byte	0x157
 6830 0da5 F30A0000 		.4byte	0xaf3
 6831 0da9 02       		.uleb128 0x2
 6832 0daa 91       		.byte	0x91
 6833 0dab 74       		.sleb128 -12
 6834 0dac 00       		.byte	0
 6835 0dad 22       		.uleb128 0x22
ARM GAS  C:\Users\JENNEW~1\AppData\Local\Temp\ccEqAB2L.s 			page 142


 6836 0dae 28020000 		.4byte	.LASF231
 6837 0db2 01       		.byte	0x1
 6838 0db3 6501     		.2byte	0x165
 6839 0db5 00000000 		.4byte	.LFB73
 6840 0db9 20000000 		.4byte	.LFE73-.LFB73
 6841 0dbd 01       		.uleb128 0x1
 6842 0dbe 9C       		.byte	0x9c
 6843 0dbf D30D0000 		.4byte	0xdd3
 6844 0dc3 1F       		.uleb128 0x1f
 6845 0dc4 63747800 		.ascii	"ctx\000"
 6846 0dc8 01       		.byte	0x1
 6847 0dc9 6501     		.2byte	0x165
 6848 0dcb F30A0000 		.4byte	0xaf3
 6849 0dcf 02       		.uleb128 0x2
 6850 0dd0 91       		.byte	0x91
 6851 0dd1 74       		.sleb128 -12
 6852 0dd2 00       		.byte	0
 6853 0dd3 23       		.uleb128 0x23
 6854 0dd4 DE040000 		.4byte	.LASF232
 6855 0dd8 01       		.byte	0x1
 6856 0dd9 6C01     		.2byte	0x16c
 6857 0ddb 00000000 		.4byte	.LFB74
 6858 0ddf 18000000 		.4byte	.LFE74-.LFB74
 6859 0de3 01       		.uleb128 0x1
 6860 0de4 9C       		.byte	0x9c
 6861 0de5 F90D0000 		.4byte	0xdf9
 6862 0de9 1F       		.uleb128 0x1f
 6863 0dea 63747800 		.ascii	"ctx\000"
 6864 0dee 01       		.byte	0x1
 6865 0def 6C01     		.2byte	0x16c
 6866 0df1 F30A0000 		.4byte	0xaf3
 6867 0df5 02       		.uleb128 0x2
 6868 0df6 91       		.byte	0x91
 6869 0df7 74       		.sleb128 -12
 6870 0df8 00       		.byte	0
 6871 0df9 22       		.uleb128 0x22
 6872 0dfa 410F0000 		.4byte	.LASF233
 6873 0dfe 01       		.byte	0x1
 6874 0dff 7501     		.2byte	0x175
 6875 0e01 00000000 		.4byte	.LFB75
 6876 0e05 1C000000 		.4byte	.LFE75-.LFB75
 6877 0e09 01       		.uleb128 0x1
 6878 0e0a 9C       		.byte	0x9c
 6879 0e0b 1F0E0000 		.4byte	0xe1f
 6880 0e0f 1F       		.uleb128 0x1f
 6881 0e10 63747800 		.ascii	"ctx\000"
 6882 0e14 01       		.byte	0x1
 6883 0e15 7501     		.2byte	0x175
 6884 0e17 F30A0000 		.4byte	0xaf3
 6885 0e1b 02       		.uleb128 0x2
 6886 0e1c 91       		.byte	0x91
 6887 0e1d 74       		.sleb128 -12
 6888 0e1e 00       		.byte	0
 6889 0e1f 1E       		.uleb128 0x1e
 6890 0e20 C10A0000 		.4byte	.LASF234
 6891 0e24 01       		.byte	0x1
 6892 0e25 7C01     		.2byte	0x17c
ARM GAS  C:\Users\JENNEW~1\AppData\Local\Temp\ccEqAB2L.s 			page 143


 6893 0e27 00000000 		.4byte	.LFB76
 6894 0e2b E0010000 		.4byte	.LFE76-.LFB76
 6895 0e2f 01       		.uleb128 0x1
 6896 0e30 9C       		.byte	0x9c
 6897 0e31 0A0F0000 		.4byte	0xf0a
 6898 0e35 1F       		.uleb128 0x1f
 6899 0e36 63747800 		.ascii	"ctx\000"
 6900 0e3a 01       		.byte	0x1
 6901 0e3b 7C01     		.2byte	0x17c
 6902 0e3d F30A0000 		.4byte	0xaf3
 6903 0e41 03       		.uleb128 0x3
 6904 0e42 91       		.byte	0x91
 6905 0e43 C47E     		.sleb128 -188
 6906 0e45 24       		.uleb128 0x24
 6907 0e46 00000000 		.4byte	.Ldebug_ranges0+0
 6908 0e4a 910E0000 		.4byte	0xe91
 6909 0e4e 20       		.uleb128 0x20
 6910 0e4f 9A040000 		.4byte	.LASF235
 6911 0e53 01       		.byte	0x1
 6912 0e54 8001     		.2byte	0x180
 6913 0e56 CE000000 		.4byte	0xce
 6914 0e5a 02       		.uleb128 0x2
 6915 0e5b 91       		.byte	0x91
 6916 0e5c 60       		.sleb128 -32
 6917 0e5d 1D       		.uleb128 0x1d
 6918 0e5e 32000000 		.4byte	.LBB5
 6919 0e62 94000000 		.4byte	.LBE5-.LBB5
 6920 0e66 25       		.uleb128 0x25
 6921 0e67 7000     		.ascii	"p\000"
 6922 0e69 01       		.byte	0x1
 6923 0e6a 8201     		.2byte	0x182
 6924 0e6c D9000000 		.4byte	0xd9
 6925 0e70 02       		.uleb128 0x2
 6926 0e71 91       		.byte	0x91
 6927 0e72 5C       		.sleb128 -36
 6928 0e73 25       		.uleb128 0x25
 6929 0e74 7400     		.ascii	"t\000"
 6930 0e76 01       		.byte	0x1
 6931 0e77 8201     		.2byte	0x182
 6932 0e79 D9000000 		.4byte	0xd9
 6933 0e7d 02       		.uleb128 0x2
 6934 0e7e 91       		.byte	0x91
 6935 0e7f 58       		.sleb128 -40
 6936 0e80 20       		.uleb128 0x20
 6937 0e81 5C0E0000 		.4byte	.LASF236
 6938 0e85 01       		.byte	0x1
 6939 0e86 8201     		.2byte	0x182
 6940 0e88 A2000000 		.4byte	0xa2
 6941 0e8c 02       		.uleb128 0x2
 6942 0e8d 91       		.byte	0x91
 6943 0e8e 67       		.sleb128 -25
 6944 0e8f 00       		.byte	0
 6945 0e90 00       		.byte	0
 6946 0e91 1C       		.uleb128 0x1c
 6947 0e92 D0000000 		.4byte	.LBB6
 6948 0e96 32000000 		.4byte	.LBE6-.LBB6
 6949 0e9a B10E0000 		.4byte	0xeb1
ARM GAS  C:\Users\JENNEW~1\AppData\Local\Temp\ccEqAB2L.s 			page 144


 6950 0e9e 20       		.uleb128 0x20
 6951 0e9f 43100000 		.4byte	.LASF237
 6952 0ea3 01       		.byte	0x1
 6953 0ea4 9301     		.2byte	0x193
 6954 0ea6 CE000000 		.4byte	0xce
 6955 0eaa 05       		.uleb128 0x5
 6956 0eab 03       		.byte	0x3
 6957 0eac 08000000 		.4byte	last_pt_ms.8215
 6958 0eb0 00       		.byte	0
 6959 0eb1 1D       		.uleb128 0x1d
 6960 0eb2 0A010000 		.4byte	.LBB7
 6961 0eb6 B4000000 		.4byte	.LBE7-.LBB7
 6962 0eba 25       		.uleb128 0x25
 6963 0ebb 74616700 		.ascii	"tag\000"
 6964 0ebf 01       		.byte	0x1
 6965 0ec0 9E01     		.2byte	0x19e
 6966 0ec2 0A0F0000 		.4byte	0xf0a
 6967 0ec6 05       		.uleb128 0x5
 6968 0ec7 03       		.byte	0x3
 6969 0ec8 00000000 		.4byte	tag.8216
 6970 0ecc 1D       		.uleb128 0x1d
 6971 0ecd 0A010000 		.4byte	.LBB8
 6972 0ed1 B4000000 		.4byte	.LBE8-.LBB8
 6973 0ed5 25       		.uleb128 0x25
 6974 0ed6 7300     		.ascii	"s\000"
 6975 0ed8 01       		.byte	0x1
 6976 0ed9 9F01     		.2byte	0x19f
 6977 0edb A2000000 		.4byte	0xa2
 6978 0edf 02       		.uleb128 0x2
 6979 0ee0 91       		.byte	0x91
 6980 0ee1 66       		.sleb128 -26
 6981 0ee2 1D       		.uleb128 0x1d
 6982 0ee3 12010000 		.4byte	.LBB9
 6983 0ee7 98000000 		.4byte	.LBE9-.LBB9
 6984 0eeb 25       		.uleb128 0x25
 6985 0eec 6300     		.ascii	"c\000"
 6986 0eee 01       		.byte	0x1
 6987 0eef A001     		.2byte	0x1a0
 6988 0ef1 740A0000 		.4byte	0xa74
 6989 0ef5 02       		.uleb128 0x2
 6990 0ef6 91       		.byte	0x91
 6991 0ef7 4C       		.sleb128 -52
 6992 0ef8 25       		.uleb128 0x25
 6993 0ef9 6200     		.ascii	"b\000"
 6994 0efb 01       		.byte	0x1
 6995 0efc A601     		.2byte	0x1a6
 6996 0efe 1A0F0000 		.4byte	0xf1a
 6997 0f02 03       		.uleb128 0x3
 6998 0f03 91       		.byte	0x91
 6999 0f04 CC7E     		.sleb128 -180
 7000 0f06 00       		.byte	0
 7001 0f07 00       		.byte	0
 7002 0f08 00       		.byte	0
 7003 0f09 00       		.byte	0
 7004 0f0a 13       		.uleb128 0x13
 7005 0f0b FE000000 		.4byte	0xfe
 7006 0f0f 1A0F0000 		.4byte	0xf1a
ARM GAS  C:\Users\JENNEW~1\AppData\Local\Temp\ccEqAB2L.s 			page 145


 7007 0f13 14       		.uleb128 0x14
 7008 0f14 F5000000 		.4byte	0xf5
 7009 0f18 01       		.byte	0x1
 7010 0f19 00       		.byte	0
 7011 0f1a 13       		.uleb128 0x13
 7012 0f1b E7000000 		.4byte	0xe7
 7013 0f1f 2A0F0000 		.4byte	0xf2a
 7014 0f23 14       		.uleb128 0x14
 7015 0f24 F5000000 		.4byte	0xf5
 7016 0f28 7F       		.byte	0x7f
 7017 0f29 00       		.byte	0
 7018 0f2a 22       		.uleb128 0x22
 7019 0f2b 670C0000 		.4byte	.LASF238
 7020 0f2f 01       		.byte	0x1
 7021 0f30 B301     		.2byte	0x1b3
 7022 0f32 00000000 		.4byte	.LFB77
 7023 0f36 A0000000 		.4byte	.LFE77-.LFB77
 7024 0f3a 01       		.uleb128 0x1
 7025 0f3b 9C       		.byte	0x9c
 7026 0f3c 6E0F0000 		.4byte	0xf6e
 7027 0f40 1F       		.uleb128 0x1f
 7028 0f41 63747800 		.ascii	"ctx\000"
 7029 0f45 01       		.byte	0x1
 7030 0f46 B301     		.2byte	0x1b3
 7031 0f48 F30A0000 		.4byte	0xaf3
 7032 0f4c 02       		.uleb128 0x2
 7033 0f4d 91       		.byte	0x91
 7034 0f4e 6C       		.sleb128 -20
 7035 0f4f 25       		.uleb128 0x25
 7036 0f50 70616E00 		.ascii	"pan\000"
 7037 0f54 01       		.byte	0x1
 7038 0f55 BB01     		.2byte	0x1bb
 7039 0f57 D9000000 		.4byte	0xd9
 7040 0f5b 02       		.uleb128 0x2
 7041 0f5c 91       		.byte	0x91
 7042 0f5d 74       		.sleb128 -12
 7043 0f5e 20       		.uleb128 0x20
 7044 0f5f FC0B0000 		.4byte	.LASF29
 7045 0f63 01       		.byte	0x1
 7046 0f64 BB01     		.2byte	0x1bb
 7047 0f66 D9000000 		.4byte	0xd9
 7048 0f6a 02       		.uleb128 0x2
 7049 0f6b 91       		.byte	0x91
 7050 0f6c 70       		.sleb128 -16
 7051 0f6d 00       		.byte	0
 7052 0f6e 23       		.uleb128 0x23
 7053 0f6f 81090000 		.4byte	.LASF239
 7054 0f73 01       		.byte	0x1
 7055 0f74 C801     		.2byte	0x1c8
 7056 0f76 00000000 		.4byte	.LFB78
 7057 0f7a 1A000000 		.4byte	.LFE78-.LFB78
 7058 0f7e 01       		.uleb128 0x1
 7059 0f7f 9C       		.byte	0x9c
 7060 0f80 940F0000 		.4byte	0xf94
 7061 0f84 1F       		.uleb128 0x1f
 7062 0f85 63747800 		.ascii	"ctx\000"
 7063 0f89 01       		.byte	0x1
ARM GAS  C:\Users\JENNEW~1\AppData\Local\Temp\ccEqAB2L.s 			page 146


 7064 0f8a C801     		.2byte	0x1c8
 7065 0f8c F30A0000 		.4byte	0xaf3
 7066 0f90 02       		.uleb128 0x2
 7067 0f91 91       		.byte	0x91
 7068 0f92 74       		.sleb128 -12
 7069 0f93 00       		.byte	0
 7070 0f94 26       		.uleb128 0x26
 7071 0f95 57040000 		.4byte	.LASF240
 7072 0f99 01       		.byte	0x1
 7073 0f9a CA01     		.2byte	0x1ca
 7074 0f9c A2000000 		.4byte	0xa2
 7075 0fa0 00000000 		.4byte	.LFB79
 7076 0fa4 28000000 		.4byte	.LFE79-.LFB79
 7077 0fa8 01       		.uleb128 0x1
 7078 0fa9 9C       		.byte	0x9c
 7079 0faa CB0F0000 		.4byte	0xfcb
 7080 0fae 1F       		.uleb128 0x1f
 7081 0faf 63747800 		.ascii	"ctx\000"
 7082 0fb3 01       		.byte	0x1
 7083 0fb4 CA01     		.2byte	0x1ca
 7084 0fb6 F30A0000 		.4byte	0xaf3
 7085 0fba 02       		.uleb128 0x2
 7086 0fbb 91       		.byte	0x91
 7087 0fbc 74       		.sleb128 -12
 7088 0fbd 1F       		.uleb128 0x1f
 7089 0fbe 6B00     		.ascii	"k\000"
 7090 0fc0 01       		.byte	0x1
 7091 0fc1 CA01     		.2byte	0x1ca
 7092 0fc3 E7000000 		.4byte	0xe7
 7093 0fc7 02       		.uleb128 0x2
 7094 0fc8 91       		.byte	0x91
 7095 0fc9 73       		.sleb128 -13
 7096 0fca 00       		.byte	0
 7097 0fcb 22       		.uleb128 0x22
 7098 0fcc C20E0000 		.4byte	.LASF241
 7099 0fd0 01       		.byte	0x1
 7100 0fd1 D201     		.2byte	0x1d2
 7101 0fd3 00000000 		.4byte	.LFB80
 7102 0fd7 7C000000 		.4byte	.LFE80-.LFB80
 7103 0fdb 01       		.uleb128 0x1
 7104 0fdc 9C       		.byte	0x9c
 7105 0fdd 00100000 		.4byte	0x1000
 7106 0fe1 1F       		.uleb128 0x1f
 7107 0fe2 63747800 		.ascii	"ctx\000"
 7108 0fe6 01       		.byte	0x1
 7109 0fe7 D201     		.2byte	0x1d2
 7110 0fe9 3F0B0000 		.4byte	0xb3f
 7111 0fed 02       		.uleb128 0x2
 7112 0fee 91       		.byte	0x91
 7113 0fef 74       		.sleb128 -12
 7114 0ff0 1F       		.uleb128 0x1f
 7115 0ff1 6F757400 		.ascii	"out\000"
 7116 0ff5 01       		.byte	0x1
 7117 0ff6 D201     		.2byte	0x1d2
 7118 0ff8 4A0B0000 		.4byte	0xb4a
 7119 0ffc 02       		.uleb128 0x2
 7120 0ffd 91       		.byte	0x91
ARM GAS  C:\Users\JENNEW~1\AppData\Local\Temp\ccEqAB2L.s 			page 147


 7121 0ffe 70       		.sleb128 -16
 7122 0fff 00       		.byte	0
 7123 1000 26       		.uleb128 0x26
 7124 1001 91080000 		.4byte	.LASF242
 7125 1005 01       		.byte	0x1
 7126 1006 DF01     		.2byte	0x1df
 7127 1008 D9000000 		.4byte	0xd9
 7128 100c 00000000 		.4byte	.LFB81
 7129 1010 F8000000 		.4byte	.LFE81-.LFB81
 7130 1014 01       		.uleb128 0x1
 7131 1015 9C       		.byte	0x9c
 7132 1016 AB100000 		.4byte	0x10ab
 7133 101a 27       		.uleb128 0x27
 7134 101b 3E100000 		.4byte	.LASF243
 7135 101f 01       		.byte	0x1
 7136 1020 DF01     		.2byte	0x1df
 7137 1022 D9000000 		.4byte	0xd9
 7138 1026 02       		.uleb128 0x2
 7139 1027 91       		.byte	0x91
 7140 1028 54       		.sleb128 -44
 7141 1029 27       		.uleb128 0x27
 7142 102a B9090000 		.4byte	.LASF244
 7143 102e 01       		.byte	0x1
 7144 102f DF01     		.2byte	0x1df
 7145 1031 D9000000 		.4byte	0xd9
 7146 1035 02       		.uleb128 0x2
 7147 1036 91       		.byte	0x91
 7148 1037 50       		.sleb128 -48
 7149 1038 27       		.uleb128 0x27
 7150 1039 C2050000 		.4byte	.LASF245
 7151 103d 01       		.byte	0x1
 7152 103e DF01     		.2byte	0x1df
 7153 1040 D9000000 		.4byte	0xd9
 7154 1044 02       		.uleb128 0x2
 7155 1045 91       		.byte	0x91
 7156 1046 4C       		.sleb128 -52
 7157 1047 27       		.uleb128 0x27
 7158 1048 BE090000 		.4byte	.LASF246
 7159 104c 01       		.byte	0x1
 7160 104d DF01     		.2byte	0x1df
 7161 104f D9000000 		.4byte	0xd9
 7162 1053 02       		.uleb128 0x2
 7163 1054 91       		.byte	0x91
 7164 1055 48       		.sleb128 -56
 7165 1056 25       		.uleb128 0x25
 7166 1057 6C613100 		.ascii	"la1\000"
 7167 105b 01       		.byte	0x1
 7168 105c E101     		.2byte	0x1e1
 7169 105e D9000000 		.4byte	0xd9
 7170 1062 02       		.uleb128 0x2
 7171 1063 91       		.byte	0x91
 7172 1064 68       		.sleb128 -24
 7173 1065 25       		.uleb128 0x25
 7174 1066 6C613200 		.ascii	"la2\000"
 7175 106a 01       		.byte	0x1
 7176 106b E101     		.2byte	0x1e1
 7177 106d D9000000 		.4byte	0xd9
ARM GAS  C:\Users\JENNEW~1\AppData\Local\Temp\ccEqAB2L.s 			page 148


 7178 1071 02       		.uleb128 0x2
 7179 1072 91       		.byte	0x91
 7180 1073 64       		.sleb128 -28
 7181 1074 25       		.uleb128 0x25
 7182 1075 646C6F00 		.ascii	"dlo\000"
 7183 1079 01       		.byte	0x1
 7184 107a E201     		.2byte	0x1e2
 7185 107c D9000000 		.4byte	0xd9
 7186 1080 02       		.uleb128 0x2
 7187 1081 91       		.byte	0x91
 7188 1082 60       		.sleb128 -32
 7189 1083 25       		.uleb128 0x25
 7190 1084 7800     		.ascii	"x\000"
 7191 1086 01       		.byte	0x1
 7192 1087 E301     		.2byte	0x1e3
 7193 1089 D9000000 		.4byte	0xd9
 7194 108d 02       		.uleb128 0x2
 7195 108e 91       		.byte	0x91
 7196 108f 5C       		.sleb128 -36
 7197 1090 25       		.uleb128 0x25
 7198 1091 7900     		.ascii	"y\000"
 7199 1093 01       		.byte	0x1
 7200 1094 E401     		.2byte	0x1e4
 7201 1096 D9000000 		.4byte	0xd9
 7202 109a 02       		.uleb128 0x2
 7203 109b 91       		.byte	0x91
 7204 109c 58       		.sleb128 -40
 7205 109d 25       		.uleb128 0x25
 7206 109e 6200     		.ascii	"b\000"
 7207 10a0 01       		.byte	0x1
 7208 10a1 E501     		.2byte	0x1e5
 7209 10a3 D9000000 		.4byte	0xd9
 7210 10a7 02       		.uleb128 0x2
 7211 10a8 91       		.byte	0x91
 7212 10a9 6C       		.sleb128 -20
 7213 10aa 00       		.byte	0
 7214 10ab 26       		.uleb128 0x26
 7215 10ac 64000000 		.4byte	.LASF247
 7216 10b0 01       		.byte	0x1
 7217 10b1 E901     		.2byte	0x1e9
 7218 10b3 D9000000 		.4byte	0xd9
 7219 10b7 00000000 		.4byte	.LFB82
 7220 10bb 5C010000 		.4byte	.LFE82-.LFB82
 7221 10bf 01       		.uleb128 0x1
 7222 10c0 9C       		.byte	0x9c
 7223 10c1 78110000 		.4byte	0x1178
 7224 10c5 27       		.uleb128 0x27
 7225 10c6 3E100000 		.4byte	.LASF243
 7226 10ca 01       		.byte	0x1
 7227 10cb E901     		.2byte	0x1e9
 7228 10cd D9000000 		.4byte	0xd9
 7229 10d1 02       		.uleb128 0x2
 7230 10d2 91       		.byte	0x91
 7231 10d3 54       		.sleb128 -44
 7232 10d4 27       		.uleb128 0x27
 7233 10d5 B9090000 		.4byte	.LASF244
 7234 10d9 01       		.byte	0x1
ARM GAS  C:\Users\JENNEW~1\AppData\Local\Temp\ccEqAB2L.s 			page 149


 7235 10da E901     		.2byte	0x1e9
 7236 10dc D9000000 		.4byte	0xd9
 7237 10e0 02       		.uleb128 0x2
 7238 10e1 91       		.byte	0x91
 7239 10e2 50       		.sleb128 -48
 7240 10e3 27       		.uleb128 0x27
 7241 10e4 580B0000 		.4byte	.LASF248
 7242 10e8 01       		.byte	0x1
 7243 10e9 E901     		.2byte	0x1e9
 7244 10eb D9000000 		.4byte	0xd9
 7245 10ef 02       		.uleb128 0x2
 7246 10f0 91       		.byte	0x91
 7247 10f1 4C       		.sleb128 -52
 7248 10f2 27       		.uleb128 0x27
 7249 10f3 C2050000 		.4byte	.LASF245
 7250 10f7 01       		.byte	0x1
 7251 10f8 EA01     		.2byte	0x1ea
 7252 10fa D9000000 		.4byte	0xd9
 7253 10fe 02       		.uleb128 0x2
 7254 10ff 91       		.byte	0x91
 7255 1100 48       		.sleb128 -56
 7256 1101 27       		.uleb128 0x27
 7257 1102 BE090000 		.4byte	.LASF246
 7258 1106 01       		.byte	0x1
 7259 1107 EA01     		.2byte	0x1ea
 7260 1109 D9000000 		.4byte	0xd9
 7261 110d 02       		.uleb128 0x2
 7262 110e 91       		.byte	0x91
 7263 110f 00       		.sleb128 0
 7264 1110 27       		.uleb128 0x27
 7265 1111 06030000 		.4byte	.LASF249
 7266 1115 01       		.byte	0x1
 7267 1116 EA01     		.2byte	0x1ea
 7268 1118 D9000000 		.4byte	0xd9
 7269 111c 02       		.uleb128 0x2
 7270 111d 91       		.byte	0x91
 7271 111e 04       		.sleb128 4
 7272 111f 25       		.uleb128 0x25
 7273 1120 6C613100 		.ascii	"la1\000"
 7274 1124 01       		.byte	0x1
 7275 1125 EC01     		.2byte	0x1ec
 7276 1127 D9000000 		.4byte	0xd9
 7277 112b 02       		.uleb128 0x2
 7278 112c 91       		.byte	0x91
 7279 112d 68       		.sleb128 -24
 7280 112e 25       		.uleb128 0x25
 7281 112f 6C613200 		.ascii	"la2\000"
 7282 1133 01       		.byte	0x1
 7283 1134 EC01     		.2byte	0x1ec
 7284 1136 D9000000 		.4byte	0xd9
 7285 113a 02       		.uleb128 0x2
 7286 113b 91       		.byte	0x91
 7287 113c 64       		.sleb128 -28
 7288 113d 25       		.uleb128 0x25
 7289 113e 646C6F00 		.ascii	"dlo\000"
 7290 1142 01       		.byte	0x1
 7291 1143 ED01     		.2byte	0x1ed
ARM GAS  C:\Users\JENNEW~1\AppData\Local\Temp\ccEqAB2L.s 			page 150


 7292 1145 D9000000 		.4byte	0xd9
 7293 1149 02       		.uleb128 0x2
 7294 114a 91       		.byte	0x91
 7295 114b 60       		.sleb128 -32
 7296 114c 25       		.uleb128 0x25
 7297 114d 646C6100 		.ascii	"dla\000"
 7298 1151 01       		.byte	0x1
 7299 1152 EE01     		.2byte	0x1ee
 7300 1154 D9000000 		.4byte	0xd9
 7301 1158 02       		.uleb128 0x2
 7302 1159 91       		.byte	0x91
 7303 115a 5C       		.sleb128 -36
 7304 115b 25       		.uleb128 0x25
 7305 115c 6100     		.ascii	"a\000"
 7306 115e 01       		.byte	0x1
 7307 115f EF01     		.2byte	0x1ef
 7308 1161 D9000000 		.4byte	0xd9
 7309 1165 02       		.uleb128 0x2
 7310 1166 91       		.byte	0x91
 7311 1167 58       		.sleb128 -40
 7312 1168 20       		.uleb128 0x20
 7313 1169 030A0000 		.4byte	.LASF250
 7314 116d 01       		.byte	0x1
 7315 116e F101     		.2byte	0x1f1
 7316 1170 D9000000 		.4byte	0xd9
 7317 1174 02       		.uleb128 0x2
 7318 1175 91       		.byte	0x91
 7319 1176 6C       		.sleb128 -20
 7320 1177 00       		.byte	0
 7321 1178 23       		.uleb128 0x23
 7322 1179 05090000 		.4byte	.LASF251
 7323 117d 01       		.byte	0x1
 7324 117e F701     		.2byte	0x1f7
 7325 1180 00000000 		.4byte	.LFB83
 7326 1184 3A000000 		.4byte	.LFE83-.LFB83
 7327 1188 01       		.uleb128 0x1
 7328 1189 9C       		.byte	0x9c
 7329 118a 9E110000 		.4byte	0x119e
 7330 118e 1F       		.uleb128 0x1f
 7331 118f 63747800 		.ascii	"ctx\000"
 7332 1193 01       		.byte	0x1
 7333 1194 F701     		.2byte	0x1f7
 7334 1196 F30A0000 		.4byte	0xaf3
 7335 119a 02       		.uleb128 0x2
 7336 119b 91       		.byte	0x91
 7337 119c 74       		.sleb128 -12
 7338 119d 00       		.byte	0
 7339 119e 22       		.uleb128 0x22
 7340 119f D20E0000 		.4byte	.LASF252
 7341 11a3 01       		.byte	0x1
 7342 11a4 0102     		.2byte	0x201
 7343 11a6 00000000 		.4byte	.LFB84
 7344 11aa E8000000 		.4byte	.LFE84-.LFB84
 7345 11ae 01       		.uleb128 0x1
 7346 11af 9C       		.byte	0x9c
 7347 11b0 01120000 		.4byte	0x1201
 7348 11b4 1F       		.uleb128 0x1f
ARM GAS  C:\Users\JENNEW~1\AppData\Local\Temp\ccEqAB2L.s 			page 151


 7349 11b5 63747800 		.ascii	"ctx\000"
 7350 11b9 01       		.byte	0x1
 7351 11ba 0102     		.2byte	0x201
 7352 11bc F30A0000 		.4byte	0xaf3
 7353 11c0 03       		.uleb128 0x3
 7354 11c1 91       		.byte	0x91
 7355 11c2 FC7D     		.sleb128 -260
 7356 11c4 25       		.uleb128 0x25
 7357 11c5 737400   		.ascii	"st\000"
 7358 11c8 01       		.byte	0x1
 7359 11c9 0302     		.2byte	0x203
 7360 11cb 8F050000 		.4byte	0x58f
 7361 11cf 03       		.uleb128 0x3
 7362 11d0 91       		.byte	0x91
 7363 11d1 807E     		.sleb128 -256
 7364 11d3 20       		.uleb128 0x20
 7365 11d4 7C0F0000 		.4byte	.LASF253
 7366 11d8 01       		.byte	0x1
 7367 11d9 0602     		.2byte	0x206
 7368 11db D9000000 		.4byte	0xd9
 7369 11df 02       		.uleb128 0x2
 7370 11e0 91       		.byte	0x91
 7371 11e1 74       		.sleb128 -12
 7372 11e2 20       		.uleb128 0x20
 7373 11e3 75060000 		.4byte	.LASF254
 7374 11e7 01       		.byte	0x1
 7375 11e8 0702     		.2byte	0x207
 7376 11ea D9000000 		.4byte	0xd9
 7377 11ee 02       		.uleb128 0x2
 7378 11ef 91       		.byte	0x91
 7379 11f0 70       		.sleb128 -16
 7380 11f1 20       		.uleb128 0x20
 7381 11f2 02020000 		.4byte	.LASF255
 7382 11f6 01       		.byte	0x1
 7383 11f7 0802     		.2byte	0x208
 7384 11f9 D9000000 		.4byte	0xd9
 7385 11fd 02       		.uleb128 0x2
 7386 11fe 91       		.byte	0x91
 7387 11ff 6C       		.sleb128 -20
 7388 1200 00       		.byte	0
 7389 1201 22       		.uleb128 0x22
 7390 1202 BD030000 		.4byte	.LASF256
 7391 1206 01       		.byte	0x1
 7392 1207 0F02     		.2byte	0x20f
 7393 1209 00000000 		.4byte	.LFB85
 7394 120d C0010000 		.4byte	.LFE85-.LFB85
 7395 1211 01       		.uleb128 0x1
 7396 1212 9C       		.byte	0x9c
 7397 1213 B7120000 		.4byte	0x12b7
 7398 1217 1F       		.uleb128 0x1f
 7399 1218 63747800 		.ascii	"ctx\000"
 7400 121c 01       		.byte	0x1
 7401 121d 0F02     		.2byte	0x20f
 7402 121f F30A0000 		.4byte	0xaf3
 7403 1223 02       		.uleb128 0x2
 7404 1224 91       		.byte	0x91
 7405 1225 4C       		.sleb128 -52
ARM GAS  C:\Users\JENNEW~1\AppData\Local\Temp\ccEqAB2L.s 			page 152


 7406 1226 25       		.uleb128 0x25
 7407 1227 6E6F7700 		.ascii	"now\000"
 7408 122b 01       		.byte	0x1
 7409 122c 1102     		.2byte	0x211
 7410 122e CE000000 		.4byte	0xce
 7411 1232 02       		.uleb128 0x2
 7412 1233 91       		.byte	0x91
 7413 1234 68       		.sleb128 -24
 7414 1235 25       		.uleb128 0x25
 7415 1236 70616E00 		.ascii	"pan\000"
 7416 123a 01       		.byte	0x1
 7417 123b 1402     		.2byte	0x214
 7418 123d D9000000 		.4byte	0xd9
 7419 1241 02       		.uleb128 0x2
 7420 1242 91       		.byte	0x91
 7421 1243 54       		.sleb128 -44
 7422 1244 20       		.uleb128 0x20
 7423 1245 FC0B0000 		.4byte	.LASF29
 7424 1249 01       		.byte	0x1
 7425 124a 1402     		.2byte	0x214
 7426 124c D9000000 		.4byte	0xd9
 7427 1250 02       		.uleb128 0x2
 7428 1251 91       		.byte	0x91
 7429 1252 50       		.sleb128 -48
 7430 1253 20       		.uleb128 0x20
 7431 1254 FD060000 		.4byte	.LASF257
 7432 1258 01       		.byte	0x1
 7433 1259 1702     		.2byte	0x217
 7434 125b D9000000 		.4byte	0xd9
 7435 125f 02       		.uleb128 0x2
 7436 1260 91       		.byte	0x91
 7437 1261 6C       		.sleb128 -20
 7438 1262 20       		.uleb128 0x20
 7439 1263 DF080000 		.4byte	.LASF258
 7440 1267 01       		.byte	0x1
 7441 1268 2502     		.2byte	0x225
 7442 126a D9000000 		.4byte	0xd9
 7443 126e 02       		.uleb128 0x2
 7444 126f 91       		.byte	0x91
 7445 1270 60       		.sleb128 -32
 7446 1271 20       		.uleb128 0x20
 7447 1272 F8080000 		.4byte	.LASF259
 7448 1276 01       		.byte	0x1
 7449 1277 2602     		.2byte	0x226
 7450 1279 D9000000 		.4byte	0xd9
 7451 127d 02       		.uleb128 0x2
 7452 127e 91       		.byte	0x91
 7453 127f 5C       		.sleb128 -36
 7454 1280 20       		.uleb128 0x20
 7455 1281 5C0E0000 		.4byte	.LASF236
 7456 1285 01       		.byte	0x1
 7457 1286 2702     		.2byte	0x227
 7458 1288 A2000000 		.4byte	0xa2
 7459 128c 02       		.uleb128 0x2
 7460 128d 91       		.byte	0x91
 7461 128e 5B       		.sleb128 -37
 7462 128f 20       		.uleb128 0x20
ARM GAS  C:\Users\JENNEW~1\AppData\Local\Temp\ccEqAB2L.s 			page 153


 7463 1290 E60E0000 		.4byte	.LASF260
 7464 1294 01       		.byte	0x1
 7465 1295 2902     		.2byte	0x229
 7466 1297 A2000000 		.4byte	0xa2
 7467 129b 02       		.uleb128 0x2
 7468 129c 91       		.byte	0x91
 7469 129d 5A       		.sleb128 -38
 7470 129e 1D       		.uleb128 0x1d
 7471 129f 40000000 		.4byte	.LBB11
 7472 12a3 6A000000 		.4byte	.LBE11-.LBB11
 7473 12a7 25       		.uleb128 0x25
 7474 12a8 647400   		.ascii	"dt\000"
 7475 12ab 01       		.byte	0x1
 7476 12ac 1902     		.2byte	0x219
 7477 12ae D9000000 		.4byte	0xd9
 7478 12b2 02       		.uleb128 0x2
 7479 12b3 91       		.byte	0x91
 7480 12b4 64       		.sleb128 -28
 7481 12b5 00       		.byte	0
 7482 12b6 00       		.byte	0
 7483 12b7 22       		.uleb128 0x22
 7484 12b8 58090000 		.4byte	.LASF261
 7485 12bc 01       		.byte	0x1
 7486 12bd 3702     		.2byte	0x237
 7487 12bf 00000000 		.4byte	.LFB86
 7488 12c3 48000000 		.4byte	.LFE86-.LFB86
 7489 12c7 01       		.uleb128 0x1
 7490 12c8 9C       		.byte	0x9c
 7491 12c9 DD120000 		.4byte	0x12dd
 7492 12cd 1F       		.uleb128 0x1f
 7493 12ce 63747800 		.ascii	"ctx\000"
 7494 12d2 01       		.byte	0x1
 7495 12d3 3702     		.2byte	0x237
 7496 12d5 F30A0000 		.4byte	0xaf3
 7497 12d9 02       		.uleb128 0x2
 7498 12da 91       		.byte	0x91
 7499 12db 74       		.sleb128 -12
 7500 12dc 00       		.byte	0
 7501 12dd 23       		.uleb128 0x23
 7502 12de 1B0E0000 		.4byte	.LASF262
 7503 12e2 01       		.byte	0x1
 7504 12e3 4302     		.2byte	0x243
 7505 12e5 00000000 		.4byte	.LFB87
 7506 12e9 22000000 		.4byte	.LFE87-.LFB87
 7507 12ed 01       		.uleb128 0x1
 7508 12ee 9C       		.byte	0x9c
 7509 12ef 03130000 		.4byte	0x1303
 7510 12f3 1F       		.uleb128 0x1f
 7511 12f4 63747800 		.ascii	"ctx\000"
 7512 12f8 01       		.byte	0x1
 7513 12f9 4302     		.2byte	0x243
 7514 12fb F30A0000 		.4byte	0xaf3
 7515 12ff 02       		.uleb128 0x2
 7516 1300 91       		.byte	0x91
 7517 1301 74       		.sleb128 -12
 7518 1302 00       		.byte	0
 7519 1303 26       		.uleb128 0x26
ARM GAS  C:\Users\JENNEW~1\AppData\Local\Temp\ccEqAB2L.s 			page 154


 7520 1304 750B0000 		.4byte	.LASF263
 7521 1308 01       		.byte	0x1
 7522 1309 4702     		.2byte	0x247
 7523 130b A2000000 		.4byte	0xa2
 7524 130f 00000000 		.4byte	.LFB88
 7525 1313 28000000 		.4byte	.LFE88-.LFB88
 7526 1317 01       		.uleb128 0x1
 7527 1318 9C       		.byte	0x9c
 7528 1319 3A130000 		.4byte	0x133a
 7529 131d 1F       		.uleb128 0x1f
 7530 131e 63747800 		.ascii	"ctx\000"
 7531 1322 01       		.byte	0x1
 7532 1323 4702     		.2byte	0x247
 7533 1325 F30A0000 		.4byte	0xaf3
 7534 1329 02       		.uleb128 0x2
 7535 132a 91       		.byte	0x91
 7536 132b 74       		.sleb128 -12
 7537 132c 1F       		.uleb128 0x1f
 7538 132d 6B00     		.ascii	"k\000"
 7539 132f 01       		.byte	0x1
 7540 1330 4702     		.2byte	0x247
 7541 1332 E7000000 		.4byte	0xe7
 7542 1336 02       		.uleb128 0x2
 7543 1337 91       		.byte	0x91
 7544 1338 73       		.sleb128 -13
 7545 1339 00       		.byte	0
 7546 133a 22       		.uleb128 0x22
 7547 133b C20B0000 		.4byte	.LASF264
 7548 133f 01       		.byte	0x1
 7549 1340 4E02     		.2byte	0x24e
 7550 1342 00000000 		.4byte	.LFB89
 7551 1346 B0000000 		.4byte	.LFE89-.LFB89
 7552 134a 01       		.uleb128 0x1
 7553 134b 9C       		.byte	0x9c
 7554 134c 6F130000 		.4byte	0x136f
 7555 1350 1F       		.uleb128 0x1f
 7556 1351 63747800 		.ascii	"ctx\000"
 7557 1355 01       		.byte	0x1
 7558 1356 4E02     		.2byte	0x24e
 7559 1358 3F0B0000 		.4byte	0xb3f
 7560 135c 02       		.uleb128 0x2
 7561 135d 91       		.byte	0x91
 7562 135e 74       		.sleb128 -12
 7563 135f 1F       		.uleb128 0x1f
 7564 1360 6F757400 		.ascii	"out\000"
 7565 1364 01       		.byte	0x1
 7566 1365 4E02     		.2byte	0x24e
 7567 1367 4A0B0000 		.4byte	0xb4a
 7568 136b 02       		.uleb128 0x2
 7569 136c 91       		.byte	0x91
 7570 136d 70       		.sleb128 -16
 7571 136e 00       		.byte	0
 7572 136f 22       		.uleb128 0x22
 7573 1370 A00B0000 		.4byte	.LASF265
 7574 1374 01       		.byte	0x1
 7575 1375 5A02     		.2byte	0x25a
 7576 1377 00000000 		.4byte	.LFB90
ARM GAS  C:\Users\JENNEW~1\AppData\Local\Temp\ccEqAB2L.s 			page 155


 7577 137b 1C000000 		.4byte	.LFE90-.LFB90
 7578 137f 01       		.uleb128 0x1
 7579 1380 9C       		.byte	0x9c
 7580 1381 95130000 		.4byte	0x1395
 7581 1385 1F       		.uleb128 0x1f
 7582 1386 63747800 		.ascii	"ctx\000"
 7583 138a 01       		.byte	0x1
 7584 138b 5A02     		.2byte	0x25a
 7585 138d F30A0000 		.4byte	0xaf3
 7586 1391 02       		.uleb128 0x2
 7587 1392 91       		.byte	0x91
 7588 1393 74       		.sleb128 -12
 7589 1394 00       		.byte	0
 7590 1395 22       		.uleb128 0x22
 7591 1396 D00D0000 		.4byte	.LASF266
 7592 139a 01       		.byte	0x1
 7593 139b 6102     		.2byte	0x261
 7594 139d 00000000 		.4byte	.LFB91
 7595 13a1 2C000000 		.4byte	.LFE91-.LFB91
 7596 13a5 01       		.uleb128 0x1
 7597 13a6 9C       		.byte	0x9c
 7598 13a7 BB130000 		.4byte	0x13bb
 7599 13ab 1F       		.uleb128 0x1f
 7600 13ac 63747800 		.ascii	"ctx\000"
 7601 13b0 01       		.byte	0x1
 7602 13b1 6102     		.2byte	0x261
 7603 13b3 F30A0000 		.4byte	0xaf3
 7604 13b7 02       		.uleb128 0x2
 7605 13b8 91       		.byte	0x91
 7606 13b9 74       		.sleb128 -12
 7607 13ba 00       		.byte	0
 7608 13bb 26       		.uleb128 0x26
 7609 13bc B1070000 		.4byte	.LASF267
 7610 13c0 01       		.byte	0x1
 7611 13c1 6702     		.2byte	0x267
 7612 13c3 A2000000 		.4byte	0xa2
 7613 13c7 00000000 		.4byte	.LFB92
 7614 13cb 28000000 		.4byte	.LFE92-.LFB92
 7615 13cf 01       		.uleb128 0x1
 7616 13d0 9C       		.byte	0x9c
 7617 13d1 F2130000 		.4byte	0x13f2
 7618 13d5 1F       		.uleb128 0x1f
 7619 13d6 63747800 		.ascii	"ctx\000"
 7620 13da 01       		.byte	0x1
 7621 13db 6702     		.2byte	0x267
 7622 13dd F30A0000 		.4byte	0xaf3
 7623 13e1 02       		.uleb128 0x2
 7624 13e2 91       		.byte	0x91
 7625 13e3 74       		.sleb128 -12
 7626 13e4 1F       		.uleb128 0x1f
 7627 13e5 6B00     		.ascii	"k\000"
 7628 13e7 01       		.byte	0x1
 7629 13e8 6702     		.2byte	0x267
 7630 13ea E7000000 		.4byte	0xe7
 7631 13ee 02       		.uleb128 0x2
 7632 13ef 91       		.byte	0x91
 7633 13f0 73       		.sleb128 -13
ARM GAS  C:\Users\JENNEW~1\AppData\Local\Temp\ccEqAB2L.s 			page 156


 7634 13f1 00       		.byte	0
 7635 13f2 22       		.uleb128 0x22
 7636 13f3 8C0C0000 		.4byte	.LASF268
 7637 13f7 01       		.byte	0x1
 7638 13f8 7002     		.2byte	0x270
 7639 13fa 00000000 		.4byte	.LFB93
 7640 13fe 28010000 		.4byte	.LFE93-.LFB93
 7641 1402 01       		.uleb128 0x1
 7642 1403 9C       		.byte	0x9c
 7643 1404 45140000 		.4byte	0x1445
 7644 1408 1F       		.uleb128 0x1f
 7645 1409 63747800 		.ascii	"ctx\000"
 7646 140d 01       		.byte	0x1
 7647 140e 7002     		.2byte	0x270
 7648 1410 3F0B0000 		.4byte	0xb3f
 7649 1414 02       		.uleb128 0x2
 7650 1415 91       		.byte	0x91
 7651 1416 6C       		.sleb128 -20
 7652 1417 1F       		.uleb128 0x1f
 7653 1418 6F757400 		.ascii	"out\000"
 7654 141c 01       		.byte	0x1
 7655 141d 7002     		.2byte	0x270
 7656 141f 4A0B0000 		.4byte	0xb4a
 7657 1423 02       		.uleb128 0x2
 7658 1424 91       		.byte	0x91
 7659 1425 68       		.sleb128 -24
 7660 1426 20       		.uleb128 0x20
 7661 1427 A0050000 		.4byte	.LASF269
 7662 142b 01       		.byte	0x1
 7663 142c 7802     		.2byte	0x278
 7664 142e D9000000 		.4byte	0xd9
 7665 1432 02       		.uleb128 0x2
 7666 1433 91       		.byte	0x91
 7667 1434 74       		.sleb128 -12
 7668 1435 20       		.uleb128 0x20
 7669 1436 21100000 		.4byte	.LASF270
 7670 143a 01       		.byte	0x1
 7671 143b 7902     		.2byte	0x279
 7672 143d D9000000 		.4byte	0xd9
 7673 1441 02       		.uleb128 0x2
 7674 1442 91       		.byte	0x91
 7675 1443 70       		.sleb128 -16
 7676 1444 00       		.byte	0
 7677 1445 22       		.uleb128 0x22
 7678 1446 AA000000 		.4byte	.LASF271
 7679 144a 01       		.byte	0x1
 7680 144b 8002     		.2byte	0x280
 7681 144d 00000000 		.4byte	.LFB94
 7682 1451 1C000000 		.4byte	.LFE94-.LFB94
 7683 1455 01       		.uleb128 0x1
 7684 1456 9C       		.byte	0x9c
 7685 1457 6B140000 		.4byte	0x146b
 7686 145b 1F       		.uleb128 0x1f
 7687 145c 63747800 		.ascii	"ctx\000"
 7688 1460 01       		.byte	0x1
 7689 1461 8002     		.2byte	0x280
 7690 1463 F30A0000 		.4byte	0xaf3
ARM GAS  C:\Users\JENNEW~1\AppData\Local\Temp\ccEqAB2L.s 			page 157


 7691 1467 02       		.uleb128 0x2
 7692 1468 91       		.byte	0x91
 7693 1469 74       		.sleb128 -12
 7694 146a 00       		.byte	0
 7695 146b 26       		.uleb128 0x26
 7696 146c AE080000 		.4byte	.LASF272
 7697 1470 01       		.byte	0x1
 7698 1471 8702     		.2byte	0x287
 7699 1473 A2000000 		.4byte	0xa2
 7700 1477 00000000 		.4byte	.LFB95
 7701 147b 28000000 		.4byte	.LFE95-.LFB95
 7702 147f 01       		.uleb128 0x1
 7703 1480 9C       		.byte	0x9c
 7704 1481 A2140000 		.4byte	0x14a2
 7705 1485 1F       		.uleb128 0x1f
 7706 1486 63747800 		.ascii	"ctx\000"
 7707 148a 01       		.byte	0x1
 7708 148b 8702     		.2byte	0x287
 7709 148d F30A0000 		.4byte	0xaf3
 7710 1491 02       		.uleb128 0x2
 7711 1492 91       		.byte	0x91
 7712 1493 74       		.sleb128 -12
 7713 1494 1F       		.uleb128 0x1f
 7714 1495 6B00     		.ascii	"k\000"
 7715 1497 01       		.byte	0x1
 7716 1498 8702     		.2byte	0x287
 7717 149a E7000000 		.4byte	0xe7
 7718 149e 02       		.uleb128 0x2
 7719 149f 91       		.byte	0x91
 7720 14a0 73       		.sleb128 -13
 7721 14a1 00       		.byte	0
 7722 14a2 22       		.uleb128 0x22
 7723 14a3 25080000 		.4byte	.LASF273
 7724 14a7 01       		.byte	0x1
 7725 14a8 9002     		.2byte	0x290
 7726 14aa 00000000 		.4byte	.LFB96
 7727 14ae 1C000000 		.4byte	.LFE96-.LFB96
 7728 14b2 01       		.uleb128 0x1
 7729 14b3 9C       		.byte	0x9c
 7730 14b4 C8140000 		.4byte	0x14c8
 7731 14b8 1F       		.uleb128 0x1f
 7732 14b9 63747800 		.ascii	"ctx\000"
 7733 14bd 01       		.byte	0x1
 7734 14be 9002     		.2byte	0x290
 7735 14c0 F30A0000 		.4byte	0xaf3
 7736 14c4 02       		.uleb128 0x2
 7737 14c5 91       		.byte	0x91
 7738 14c6 74       		.sleb128 -12
 7739 14c7 00       		.byte	0
 7740 14c8 26       		.uleb128 0x26
 7741 14c9 32090000 		.4byte	.LASF274
 7742 14cd 01       		.byte	0x1
 7743 14ce 9502     		.2byte	0x295
 7744 14d0 A2000000 		.4byte	0xa2
 7745 14d4 00000000 		.4byte	.LFB97
 7746 14d8 28000000 		.4byte	.LFE97-.LFB97
 7747 14dc 01       		.uleb128 0x1
ARM GAS  C:\Users\JENNEW~1\AppData\Local\Temp\ccEqAB2L.s 			page 158


 7748 14dd 9C       		.byte	0x9c
 7749 14de FF140000 		.4byte	0x14ff
 7750 14e2 1F       		.uleb128 0x1f
 7751 14e3 63747800 		.ascii	"ctx\000"
 7752 14e7 01       		.byte	0x1
 7753 14e8 9502     		.2byte	0x295
 7754 14ea F30A0000 		.4byte	0xaf3
 7755 14ee 02       		.uleb128 0x2
 7756 14ef 91       		.byte	0x91
 7757 14f0 74       		.sleb128 -12
 7758 14f1 1F       		.uleb128 0x1f
 7759 14f2 6B00     		.ascii	"k\000"
 7760 14f4 01       		.byte	0x1
 7761 14f5 9502     		.2byte	0x295
 7762 14f7 E7000000 		.4byte	0xe7
 7763 14fb 02       		.uleb128 0x2
 7764 14fc 91       		.byte	0x91
 7765 14fd 73       		.sleb128 -13
 7766 14fe 00       		.byte	0
 7767 14ff 28       		.uleb128 0x28
 7768 1500 02010000 		.4byte	.LASF275
 7769 1504 01       		.byte	0x1
 7770 1505 9F02     		.2byte	0x29f
 7771 1507 FE000000 		.4byte	0xfe
 7772 150b 00000000 		.4byte	.LFB98
 7773 150f 40000000 		.4byte	.LFE98-.LFB98
 7774 1513 01       		.uleb128 0x1
 7775 1514 9C       		.byte	0x9c
 7776 1515 27150000 		.4byte	0x1527
 7777 1519 1F       		.uleb128 0x1f
 7778 151a 7300     		.ascii	"s\000"
 7779 151c 01       		.byte	0x1
 7780 151d 9F02     		.2byte	0x29f
 7781 151f 2C080000 		.4byte	0x82c
 7782 1523 02       		.uleb128 0x2
 7783 1524 91       		.byte	0x91
 7784 1525 77       		.sleb128 -9
 7785 1526 00       		.byte	0
 7786 1527 22       		.uleb128 0x22
 7787 1528 2A060000 		.4byte	.LASF276
 7788 152c 01       		.byte	0x1
 7789 152d A802     		.2byte	0x2a8
 7790 152f 00000000 		.4byte	.LFB99
 7791 1533 80000000 		.4byte	.LFE99-.LFB99
 7792 1537 01       		.uleb128 0x1
 7793 1538 9C       		.byte	0x9c
 7794 1539 4D150000 		.4byte	0x154d
 7795 153d 1F       		.uleb128 0x1f
 7796 153e 63747800 		.ascii	"ctx\000"
 7797 1542 01       		.byte	0x1
 7798 1543 A802     		.2byte	0x2a8
 7799 1545 F30A0000 		.4byte	0xaf3
 7800 1549 02       		.uleb128 0x2
 7801 154a 91       		.byte	0x91
 7802 154b 74       		.sleb128 -12
 7803 154c 00       		.byte	0
 7804 154d 26       		.uleb128 0x26
ARM GAS  C:\Users\JENNEW~1\AppData\Local\Temp\ccEqAB2L.s 			page 159


 7805 154e D5090000 		.4byte	.LASF277
 7806 1552 01       		.byte	0x1
 7807 1553 BB02     		.2byte	0x2bb
 7808 1555 A2000000 		.4byte	0xa2
 7809 1559 00000000 		.4byte	.LFB100
 7810 155d 54000000 		.4byte	.LFE100-.LFB100
 7811 1561 01       		.uleb128 0x1
 7812 1562 9C       		.byte	0x9c
 7813 1563 B7150000 		.4byte	0x15b7
 7814 1567 1F       		.uleb128 0x1f
 7815 1568 63747800 		.ascii	"ctx\000"
 7816 156c 01       		.byte	0x1
 7817 156d BB02     		.2byte	0x2bb
 7818 156f 3F0B0000 		.4byte	0xb3f
 7819 1573 03       		.uleb128 0x3
 7820 1574 91       		.byte	0x91
 7821 1575 847E     		.sleb128 -252
 7822 1577 27       		.uleb128 0x27
 7823 1578 4F080000 		.4byte	.LASF278
 7824 157c 01       		.byte	0x1
 7825 157d BB02     		.2byte	0x2bb
 7826 157f B7150000 		.4byte	0x15b7
 7827 1583 03       		.uleb128 0x3
 7828 1584 91       		.byte	0x91
 7829 1585 807E     		.sleb128 -256
 7830 1587 27       		.uleb128 0x27
 7831 1588 0D030000 		.4byte	.LASF279
 7832 158c 01       		.byte	0x1
 7833 158d BB02     		.2byte	0x2bb
 7834 158f B7150000 		.4byte	0x15b7
 7835 1593 03       		.uleb128 0x3
 7836 1594 91       		.byte	0x91
 7837 1595 FC7D     		.sleb128 -260
 7838 1597 25       		.uleb128 0x25
 7839 1598 737400   		.ascii	"st\000"
 7840 159b 01       		.byte	0x1
 7841 159c BE02     		.2byte	0x2be
 7842 159e 8F050000 		.4byte	0x58f
 7843 15a2 03       		.uleb128 0x3
 7844 15a3 91       		.byte	0x91
 7845 15a4 8C7E     		.sleb128 -244
 7846 15a6 20       		.uleb128 0x20
 7847 15a7 1A070000 		.4byte	.LASF280
 7848 15ab 01       		.byte	0x1
 7849 15ac C102     		.2byte	0x2c1
 7850 15ae D9000000 		.4byte	0xd9
 7851 15b2 03       		.uleb128 0x3
 7852 15b3 91       		.byte	0x91
 7853 15b4 887E     		.sleb128 -248
 7854 15b6 00       		.byte	0
 7855 15b7 06       		.uleb128 0x6
 7856 15b8 04       		.byte	0x4
 7857 15b9 D9000000 		.4byte	0xd9
 7858 15bd 22       		.uleb128 0x22
 7859 15be 0A0A0000 		.4byte	.LASF281
 7860 15c2 01       		.byte	0x1
 7861 15c3 C602     		.2byte	0x2c6
ARM GAS  C:\Users\JENNEW~1\AppData\Local\Temp\ccEqAB2L.s 			page 160


 7862 15c5 00000000 		.4byte	.LFB101
 7863 15c9 6C000000 		.4byte	.LFE101-.LFB101
 7864 15cd 01       		.uleb128 0x1
 7865 15ce 9C       		.byte	0x9c
 7866 15cf 01160000 		.4byte	0x1601
 7867 15d3 1F       		.uleb128 0x1f
 7868 15d4 63747800 		.ascii	"ctx\000"
 7869 15d8 01       		.byte	0x1
 7870 15d9 C602     		.2byte	0x2c6
 7871 15db F30A0000 		.4byte	0xaf3
 7872 15df 02       		.uleb128 0x2
 7873 15e0 91       		.byte	0x91
 7874 15e1 6C       		.sleb128 -20
 7875 15e2 25       		.uleb128 0x25
 7876 15e3 70616E00 		.ascii	"pan\000"
 7877 15e7 01       		.byte	0x1
 7878 15e8 CA02     		.2byte	0x2ca
 7879 15ea D9000000 		.4byte	0xd9
 7880 15ee 02       		.uleb128 0x2
 7881 15ef 91       		.byte	0x91
 7882 15f0 74       		.sleb128 -12
 7883 15f1 20       		.uleb128 0x20
 7884 15f2 FC0B0000 		.4byte	.LASF29
 7885 15f6 01       		.byte	0x1
 7886 15f7 CA02     		.2byte	0x2ca
 7887 15f9 D9000000 		.4byte	0xd9
 7888 15fd 02       		.uleb128 0x2
 7889 15fe 91       		.byte	0x91
 7890 15ff 70       		.sleb128 -16
 7891 1600 00       		.byte	0
 7892 1601 22       		.uleb128 0x22
 7893 1602 03050000 		.4byte	.LASF282
 7894 1606 01       		.byte	0x1
 7895 1607 D502     		.2byte	0x2d5
 7896 1609 00000000 		.4byte	.LFB102
 7897 160d 1C000000 		.4byte	.LFE102-.LFB102
 7898 1611 01       		.uleb128 0x1
 7899 1612 9C       		.byte	0x9c
 7900 1613 27160000 		.4byte	0x1627
 7901 1617 1F       		.uleb128 0x1f
 7902 1618 63747800 		.ascii	"ctx\000"
 7903 161c 01       		.byte	0x1
 7904 161d D502     		.2byte	0x2d5
 7905 161f 3F0B0000 		.4byte	0xb3f
 7906 1623 02       		.uleb128 0x2
 7907 1624 91       		.byte	0x91
 7908 1625 74       		.sleb128 -12
 7909 1626 00       		.byte	0
 7910 1627 26       		.uleb128 0x26
 7911 1628 FC0D0000 		.4byte	.LASF283
 7912 162c 01       		.byte	0x1
 7913 162d E102     		.2byte	0x2e1
 7914 162f A2000000 		.4byte	0xa2
 7915 1633 00000000 		.4byte	.LFB103
 7916 1637 94000000 		.4byte	.LFE103-.LFB103
 7917 163b 01       		.uleb128 0x1
 7918 163c 9C       		.byte	0x9c
ARM GAS  C:\Users\JENNEW~1\AppData\Local\Temp\ccEqAB2L.s 			page 161


 7919 163d 5E160000 		.4byte	0x165e
 7920 1641 1F       		.uleb128 0x1f
 7921 1642 63747800 		.ascii	"ctx\000"
 7922 1646 01       		.byte	0x1
 7923 1647 E102     		.2byte	0x2e1
 7924 1649 F30A0000 		.4byte	0xaf3
 7925 164d 02       		.uleb128 0x2
 7926 164e 91       		.byte	0x91
 7927 164f 74       		.sleb128 -12
 7928 1650 1F       		.uleb128 0x1f
 7929 1651 6B00     		.ascii	"k\000"
 7930 1653 01       		.byte	0x1
 7931 1654 E102     		.2byte	0x2e1
 7932 1656 E7000000 		.4byte	0xe7
 7933 165a 02       		.uleb128 0x2
 7934 165b 91       		.byte	0x91
 7935 165c 73       		.sleb128 -13
 7936 165d 00       		.byte	0
 7937 165e 28       		.uleb128 0x28
 7938 165f 1A0C0000 		.4byte	.LASF284
 7939 1663 01       		.byte	0x1
 7940 1664 F802     		.2byte	0x2f8
 7941 1666 A2000000 		.4byte	0xa2
 7942 166a 00000000 		.4byte	.LFB104
 7943 166e 3A000000 		.4byte	.LFE104-.LFB104
 7944 1672 01       		.uleb128 0x1
 7945 1673 9C       		.byte	0x9c
 7946 1674 86160000 		.4byte	0x1686
 7947 1678 1F       		.uleb128 0x1f
 7948 1679 7300     		.ascii	"s\000"
 7949 167b 01       		.byte	0x1
 7950 167c F802     		.2byte	0x2f8
 7951 167e FC070000 		.4byte	0x7fc
 7952 1682 02       		.uleb128 0x2
 7953 1683 91       		.byte	0x91
 7954 1684 77       		.sleb128 -9
 7955 1685 00       		.byte	0
 7956 1686 26       		.uleb128 0x26
 7957 1687 FB0C0000 		.4byte	.LASF285
 7958 168b 01       		.byte	0x1
 7959 168c 0103     		.2byte	0x301
 7960 168e A2000000 		.4byte	0xa2
 7961 1692 00000000 		.4byte	.LFB105
 7962 1696 48000000 		.4byte	.LFE105-.LFB105
 7963 169a 01       		.uleb128 0x1
 7964 169b 9C       		.byte	0x9c
 7965 169c BD160000 		.4byte	0x16bd
 7966 16a0 1F       		.uleb128 0x1f
 7967 16a1 63747800 		.ascii	"ctx\000"
 7968 16a5 01       		.byte	0x1
 7969 16a6 0103     		.2byte	0x301
 7970 16a8 F30A0000 		.4byte	0xaf3
 7971 16ac 02       		.uleb128 0x2
 7972 16ad 91       		.byte	0x91
 7973 16ae 74       		.sleb128 -12
 7974 16af 1F       		.uleb128 0x1f
 7975 16b0 6B00     		.ascii	"k\000"
ARM GAS  C:\Users\JENNEW~1\AppData\Local\Temp\ccEqAB2L.s 			page 162


 7976 16b2 01       		.byte	0x1
 7977 16b3 0103     		.2byte	0x301
 7978 16b5 E7000000 		.4byte	0xe7
 7979 16b9 02       		.uleb128 0x2
 7980 16ba 91       		.byte	0x91
 7981 16bb 73       		.sleb128 -13
 7982 16bc 00       		.byte	0
 7983 16bd 26       		.uleb128 0x26
 7984 16be 860A0000 		.4byte	.LASF286
 7985 16c2 01       		.byte	0x1
 7986 16c3 0C03     		.2byte	0x30c
 7987 16c5 A2000000 		.4byte	0xa2
 7988 16c9 00000000 		.4byte	.LFB106
 7989 16cd 3E000000 		.4byte	.LFE106-.LFB106
 7990 16d1 01       		.uleb128 0x1
 7991 16d2 9C       		.byte	0x9c
 7992 16d3 0D170000 		.4byte	0x170d
 7993 16d7 1F       		.uleb128 0x1f
 7994 16d8 63747800 		.ascii	"ctx\000"
 7995 16dc 01       		.byte	0x1
 7996 16dd 0C03     		.2byte	0x30c
 7997 16df F30A0000 		.4byte	0xaf3
 7998 16e3 02       		.uleb128 0x2
 7999 16e4 91       		.byte	0x91
 8000 16e5 6C       		.sleb128 -20
 8001 16e6 1F       		.uleb128 0x1f
 8002 16e7 6B00     		.ascii	"k\000"
 8003 16e9 01       		.byte	0x1
 8004 16ea 0C03     		.2byte	0x30c
 8005 16ec E7000000 		.4byte	0xe7
 8006 16f0 02       		.uleb128 0x2
 8007 16f1 91       		.byte	0x91
 8008 16f2 6B       		.sleb128 -21
 8009 16f3 1D       		.uleb128 0x1d
 8010 16f4 14000000 		.4byte	.LBB12
 8011 16f8 20000000 		.4byte	.LBE12-.LBB12
 8012 16fc 20       		.uleb128 0x20
 8013 16fd 25060000 		.4byte	.LASF287
 8014 1701 01       		.byte	0x1
 8015 1702 1003     		.2byte	0x310
 8016 1704 FC070000 		.4byte	0x7fc
 8017 1708 02       		.uleb128 0x2
 8018 1709 91       		.byte	0x91
 8019 170a 77       		.sleb128 -9
 8020 170b 00       		.byte	0
 8021 170c 00       		.byte	0
 8022 170d 29       		.uleb128 0x29
 8023 170e FB0F0000 		.4byte	.LASF289
 8024 1712 01       		.byte	0x1
 8025 1713 1803     		.2byte	0x318
 8026 1715 A2000000 		.4byte	0xa2
 8027 1719 00000000 		.4byte	.LFB107
 8028 171d A0000000 		.4byte	.LFE107-.LFB107
 8029 1721 01       		.uleb128 0x1
 8030 1722 9C       		.byte	0x9c
 8031 1723 53170000 		.4byte	0x1753
 8032 1727 1F       		.uleb128 0x1f
ARM GAS  C:\Users\JENNEW~1\AppData\Local\Temp\ccEqAB2L.s 			page 163


 8033 1728 63747800 		.ascii	"ctx\000"
 8034 172c 01       		.byte	0x1
 8035 172d 1803     		.2byte	0x318
 8036 172f F30A0000 		.4byte	0xaf3
 8037 1733 02       		.uleb128 0x2
 8038 1734 91       		.byte	0x91
 8039 1735 6C       		.sleb128 -20
 8040 1736 1F       		.uleb128 0x1f
 8041 1737 6B657900 		.ascii	"key\000"
 8042 173b 01       		.byte	0x1
 8043 173c 1803     		.2byte	0x318
 8044 173e E7000000 		.4byte	0xe7
 8045 1742 02       		.uleb128 0x2
 8046 1743 91       		.byte	0x91
 8047 1744 6B       		.sleb128 -21
 8048 1745 25       		.uleb128 0x25
 8049 1746 6600     		.ascii	"f\000"
 8050 1748 01       		.byte	0x1
 8051 1749 2103     		.2byte	0x321
 8052 174b F90A0000 		.4byte	0xaf9
 8053 174f 02       		.uleb128 0x2
 8054 1750 91       		.byte	0x91
 8055 1751 74       		.sleb128 -12
 8056 1752 00       		.byte	0
 8057 1753 22       		.uleb128 0x22
 8058 1754 14090000 		.4byte	.LASF290
 8059 1758 01       		.byte	0x1
 8060 1759 2E03     		.2byte	0x32e
 8061 175b 00000000 		.4byte	.LFB108
 8062 175f 1C000000 		.4byte	.LFE108-.LFB108
 8063 1763 01       		.uleb128 0x1
 8064 1764 9C       		.byte	0x9c
 8065 1765 88170000 		.4byte	0x1788
 8066 1769 1F       		.uleb128 0x1f
 8067 176a 63747800 		.ascii	"ctx\000"
 8068 176e 01       		.byte	0x1
 8069 176f 2E03     		.2byte	0x32e
 8070 1771 3F0B0000 		.4byte	0xb3f
 8071 1775 02       		.uleb128 0x2
 8072 1776 91       		.byte	0x91
 8073 1777 74       		.sleb128 -12
 8074 1778 1F       		.uleb128 0x1f
 8075 1779 6F757400 		.ascii	"out\000"
 8076 177d 01       		.byte	0x1
 8077 177e 2E03     		.2byte	0x32e
 8078 1780 4A0B0000 		.4byte	0xb4a
 8079 1784 02       		.uleb128 0x2
 8080 1785 91       		.byte	0x91
 8081 1786 70       		.sleb128 -16
 8082 1787 00       		.byte	0
 8083 1788 22       		.uleb128 0x22
 8084 1789 CB080000 		.4byte	.LASF291
 8085 178d 01       		.byte	0x1
 8086 178e 3403     		.2byte	0x334
 8087 1790 00000000 		.4byte	.LFB109
 8088 1794 1A000000 		.4byte	.LFE109-.LFB109
 8089 1798 01       		.uleb128 0x1
ARM GAS  C:\Users\JENNEW~1\AppData\Local\Temp\ccEqAB2L.s 			page 164


 8090 1799 9C       		.byte	0x9c
 8091 179a BD170000 		.4byte	0x17bd
 8092 179e 1F       		.uleb128 0x1f
 8093 179f 63747800 		.ascii	"ctx\000"
 8094 17a3 01       		.byte	0x1
 8095 17a4 3403     		.2byte	0x334
 8096 17a6 3F0B0000 		.4byte	0xb3f
 8097 17aa 02       		.uleb128 0x2
 8098 17ab 91       		.byte	0x91
 8099 17ac 74       		.sleb128 -12
 8100 17ad 1F       		.uleb128 0x1f
 8101 17ae 6F757400 		.ascii	"out\000"
 8102 17b2 01       		.byte	0x1
 8103 17b3 3403     		.2byte	0x334
 8104 17b5 4A0B0000 		.4byte	0xb4a
 8105 17b9 02       		.uleb128 0x2
 8106 17ba 91       		.byte	0x91
 8107 17bb 70       		.sleb128 -16
 8108 17bc 00       		.byte	0
 8109 17bd 22       		.uleb128 0x22
 8110 17be 850E0000 		.4byte	.LASF292
 8111 17c2 01       		.byte	0x1
 8112 17c3 3903     		.2byte	0x339
 8113 17c5 00000000 		.4byte	.LFB110
 8114 17c9 A8000000 		.4byte	.LFE110-.LFB110
 8115 17cd 01       		.uleb128 0x1
 8116 17ce 9C       		.byte	0x9c
 8117 17cf F2170000 		.4byte	0x17f2
 8118 17d3 1F       		.uleb128 0x1f
 8119 17d4 63747800 		.ascii	"ctx\000"
 8120 17d8 01       		.byte	0x1
 8121 17d9 3903     		.2byte	0x339
 8122 17db 3F0B0000 		.4byte	0xb3f
 8123 17df 02       		.uleb128 0x2
 8124 17e0 91       		.byte	0x91
 8125 17e1 74       		.sleb128 -12
 8126 17e2 1F       		.uleb128 0x1f
 8127 17e3 6F757400 		.ascii	"out\000"
 8128 17e7 01       		.byte	0x1
 8129 17e8 3903     		.2byte	0x339
 8130 17ea 4A0B0000 		.4byte	0xb4a
 8131 17ee 02       		.uleb128 0x2
 8132 17ef 91       		.byte	0x91
 8133 17f0 70       		.sleb128 -16
 8134 17f1 00       		.byte	0
 8135 17f2 22       		.uleb128 0x22
 8136 17f3 E7090000 		.4byte	.LASF293
 8137 17f7 01       		.byte	0x1
 8138 17f8 4C03     		.2byte	0x34c
 8139 17fa 00000000 		.4byte	.LFB111
 8140 17fe 28000000 		.4byte	.LFE111-.LFB111
 8141 1802 01       		.uleb128 0x1
 8142 1803 9C       		.byte	0x9c
 8143 1804 27180000 		.4byte	0x1827
 8144 1808 1F       		.uleb128 0x1f
 8145 1809 63747800 		.ascii	"ctx\000"
 8146 180d 01       		.byte	0x1
ARM GAS  C:\Users\JENNEW~1\AppData\Local\Temp\ccEqAB2L.s 			page 165


 8147 180e 4C03     		.2byte	0x34c
 8148 1810 3F0B0000 		.4byte	0xb3f
 8149 1814 02       		.uleb128 0x2
 8150 1815 91       		.byte	0x91
 8151 1816 74       		.sleb128 -12
 8152 1817 1F       		.uleb128 0x1f
 8153 1818 6F757400 		.ascii	"out\000"
 8154 181c 01       		.byte	0x1
 8155 181d 4C03     		.2byte	0x34c
 8156 181f 4A0B0000 		.4byte	0xb4a
 8157 1823 02       		.uleb128 0x2
 8158 1824 91       		.byte	0x91
 8159 1825 70       		.sleb128 -16
 8160 1826 00       		.byte	0
 8161 1827 1E       		.uleb128 0x1e
 8162 1828 440D0000 		.4byte	.LASF294
 8163 182c 01       		.byte	0x1
 8164 182d 5303     		.2byte	0x353
 8165 182f 00000000 		.4byte	.LFB112
 8166 1833 3C000000 		.4byte	.LFE112-.LFB112
 8167 1837 01       		.uleb128 0x1
 8168 1838 9C       		.byte	0x9c
 8169 1839 69180000 		.4byte	0x1869
 8170 183d 1F       		.uleb128 0x1f
 8171 183e 63747800 		.ascii	"ctx\000"
 8172 1842 01       		.byte	0x1
 8173 1843 5303     		.2byte	0x353
 8174 1845 3F0B0000 		.4byte	0xb3f
 8175 1849 02       		.uleb128 0x2
 8176 184a 91       		.byte	0x91
 8177 184b 6C       		.sleb128 -20
 8178 184c 1F       		.uleb128 0x1f
 8179 184d 6F757400 		.ascii	"out\000"
 8180 1851 01       		.byte	0x1
 8181 1852 5303     		.2byte	0x353
 8182 1854 4A0B0000 		.4byte	0xb4a
 8183 1858 02       		.uleb128 0x2
 8184 1859 91       		.byte	0x91
 8185 185a 68       		.sleb128 -24
 8186 185b 25       		.uleb128 0x25
 8187 185c 6600     		.ascii	"f\000"
 8188 185e 01       		.byte	0x1
 8189 185f 5503     		.2byte	0x355
 8190 1861 1E0B0000 		.4byte	0xb1e
 8191 1865 02       		.uleb128 0x2
 8192 1866 91       		.byte	0x91
 8193 1867 74       		.sleb128 -12
 8194 1868 00       		.byte	0
 8195 1869 22       		.uleb128 0x22
 8196 186a C2010000 		.4byte	.LASF295
 8197 186e 01       		.byte	0x1
 8198 186f 5B03     		.2byte	0x35b
 8199 1871 00000000 		.4byte	.LFB113
 8200 1875 B8010000 		.4byte	.LFE113-.LFB113
 8201 1879 01       		.uleb128 0x1
 8202 187a 9C       		.byte	0x9c
 8203 187b D1180000 		.4byte	0x18d1
ARM GAS  C:\Users\JENNEW~1\AppData\Local\Temp\ccEqAB2L.s 			page 166


 8204 187f 1F       		.uleb128 0x1f
 8205 1880 63747800 		.ascii	"ctx\000"
 8206 1884 01       		.byte	0x1
 8207 1885 5B03     		.2byte	0x35b
 8208 1887 F30A0000 		.4byte	0xaf3
 8209 188b 02       		.uleb128 0x2
 8210 188c 91       		.byte	0x91
 8211 188d 64       		.sleb128 -28
 8212 188e 27       		.uleb128 0x27
 8213 188f 640E0000 		.4byte	.LASF296
 8214 1893 01       		.byte	0x1
 8215 1894 5B03     		.2byte	0x35b
 8216 1896 D9000000 		.4byte	0xd9
 8217 189a 02       		.uleb128 0x2
 8218 189b 91       		.byte	0x91
 8219 189c 60       		.sleb128 -32
 8220 189d 27       		.uleb128 0x27
 8221 189e A2040000 		.4byte	.LASF297
 8222 18a2 01       		.byte	0x1
 8223 18a3 5B03     		.2byte	0x35b
 8224 18a5 D9000000 		.4byte	0xd9
 8225 18a9 02       		.uleb128 0x2
 8226 18aa 91       		.byte	0x91
 8227 18ab 5C       		.sleb128 -36
 8228 18ac 1D       		.uleb128 0x1d
 8229 18ad 16000000 		.4byte	.LBB13
 8230 18b1 50000000 		.4byte	.LBE13-.LBB13
 8231 18b5 25       		.uleb128 0x25
 8232 18b6 7000     		.ascii	"p\000"
 8233 18b8 01       		.byte	0x1
 8234 18b9 5E03     		.2byte	0x35e
 8235 18bb D9000000 		.4byte	0xd9
 8236 18bf 02       		.uleb128 0x2
 8237 18c0 91       		.byte	0x91
 8238 18c1 6C       		.sleb128 -20
 8239 18c2 25       		.uleb128 0x25
 8240 18c3 7400     		.ascii	"t\000"
 8241 18c5 01       		.byte	0x1
 8242 18c6 5E03     		.2byte	0x35e
 8243 18c8 D9000000 		.4byte	0xd9
 8244 18cc 02       		.uleb128 0x2
 8245 18cd 91       		.byte	0x91
 8246 18ce 68       		.sleb128 -24
 8247 18cf 00       		.byte	0
 8248 18d0 00       		.byte	0
 8249 18d1 26       		.uleb128 0x26
 8250 18d2 E20A0000 		.4byte	.LASF298
 8251 18d6 01       		.byte	0x1
 8252 18d7 7303     		.2byte	0x373
 8253 18d9 A2000000 		.4byte	0xa2
 8254 18dd 00000000 		.4byte	.LFB114
 8255 18e1 24020000 		.4byte	.LFE114-.LFB114
 8256 18e5 01       		.uleb128 0x1
 8257 18e6 9C       		.byte	0x9c
 8258 18e7 08190000 		.4byte	0x1908
 8259 18eb 1F       		.uleb128 0x1f
 8260 18ec 63747800 		.ascii	"ctx\000"
ARM GAS  C:\Users\JENNEW~1\AppData\Local\Temp\ccEqAB2L.s 			page 167


 8261 18f0 01       		.byte	0x1
 8262 18f1 7303     		.2byte	0x373
 8263 18f3 F30A0000 		.4byte	0xaf3
 8264 18f7 02       		.uleb128 0x2
 8265 18f8 91       		.byte	0x91
 8266 18f9 74       		.sleb128 -12
 8267 18fa 1F       		.uleb128 0x1f
 8268 18fb 6B00     		.ascii	"k\000"
 8269 18fd 01       		.byte	0x1
 8270 18fe 7303     		.2byte	0x373
 8271 1900 E7000000 		.4byte	0xe7
 8272 1904 02       		.uleb128 0x2
 8273 1905 91       		.byte	0x91
 8274 1906 73       		.sleb128 -13
 8275 1907 00       		.byte	0
 8276 1908 1E       		.uleb128 0x1e
 8277 1909 CE030000 		.4byte	.LASF299
 8278 190d 01       		.byte	0x1
 8279 190e 8A03     		.2byte	0x38a
 8280 1910 00000000 		.4byte	.LFB115
 8281 1914 C4000000 		.4byte	.LFE115-.LFB115
 8282 1918 01       		.uleb128 0x1
 8283 1919 9C       		.byte	0x9c
 8284 191a 66190000 		.4byte	0x1966
 8285 191e 1F       		.uleb128 0x1f
 8286 191f 63747800 		.ascii	"ctx\000"
 8287 1923 01       		.byte	0x1
 8288 1924 8A03     		.2byte	0x38a
 8289 1926 F30A0000 		.4byte	0xaf3
 8290 192a 02       		.uleb128 0x2
 8291 192b 91       		.byte	0x91
 8292 192c 64       		.sleb128 -28
 8293 192d 20       		.uleb128 0x20
 8294 192e 9A040000 		.4byte	.LASF235
 8295 1932 01       		.byte	0x1
 8296 1933 8D03     		.2byte	0x38d
 8297 1935 CE000000 		.4byte	0xce
 8298 1939 02       		.uleb128 0x2
 8299 193a 91       		.byte	0x91
 8300 193b 70       		.sleb128 -16
 8301 193c 25       		.uleb128 0x25
 8302 193d 7000     		.ascii	"p\000"
 8303 193f 01       		.byte	0x1
 8304 1940 9003     		.2byte	0x390
 8305 1942 D9000000 		.4byte	0xd9
 8306 1946 02       		.uleb128 0x2
 8307 1947 91       		.byte	0x91
 8308 1948 6C       		.sleb128 -20
 8309 1949 25       		.uleb128 0x25
 8310 194a 7400     		.ascii	"t\000"
 8311 194c 01       		.byte	0x1
 8312 194d 9003     		.2byte	0x390
 8313 194f D9000000 		.4byte	0xd9
 8314 1953 02       		.uleb128 0x2
 8315 1954 91       		.byte	0x91
 8316 1955 68       		.sleb128 -24
 8317 1956 20       		.uleb128 0x20
ARM GAS  C:\Users\JENNEW~1\AppData\Local\Temp\ccEqAB2L.s 			page 168


 8318 1957 5C0E0000 		.4byte	.LASF236
 8319 195b 01       		.byte	0x1
 8320 195c 9003     		.2byte	0x390
 8321 195e A2000000 		.4byte	0xa2
 8322 1962 02       		.uleb128 0x2
 8323 1963 91       		.byte	0x91
 8324 1964 77       		.sleb128 -9
 8325 1965 00       		.byte	0
 8326 1966 28       		.uleb128 0x28
 8327 1967 010C0000 		.4byte	.LASF300
 8328 196b 01       		.byte	0x1
 8329 196c 9903     		.2byte	0x399
 8330 196e A2000000 		.4byte	0xa2
 8331 1972 00000000 		.4byte	.LFB116
 8332 1976 22000000 		.4byte	.LFE116-.LFB116
 8333 197a 01       		.uleb128 0x1
 8334 197b 9C       		.byte	0x9c
 8335 197c 8E190000 		.4byte	0x198e
 8336 1980 1F       		.uleb128 0x1f
 8337 1981 7300     		.ascii	"s\000"
 8338 1983 01       		.byte	0x1
 8339 1984 9903     		.2byte	0x399
 8340 1986 A2000000 		.4byte	0xa2
 8341 198a 02       		.uleb128 0x2
 8342 198b 91       		.byte	0x91
 8343 198c 77       		.sleb128 -9
 8344 198d 00       		.byte	0
 8345 198e 1E       		.uleb128 0x1e
 8346 198f E80B0000 		.4byte	.LASF301
 8347 1993 01       		.byte	0x1
 8348 1994 A903     		.2byte	0x3a9
 8349 1996 00000000 		.4byte	.LFB117
 8350 199a F4000000 		.4byte	.LFE117-.LFB117
 8351 199e 01       		.uleb128 0x1
 8352 199f 9C       		.byte	0x9c
 8353 19a0 081A0000 		.4byte	0x1a08
 8354 19a4 1F       		.uleb128 0x1f
 8355 19a5 63747800 		.ascii	"ctx\000"
 8356 19a9 01       		.byte	0x1
 8357 19aa A903     		.2byte	0x3a9
 8358 19ac F30A0000 		.4byte	0xaf3
 8359 19b0 03       		.uleb128 0x3
 8360 19b1 91       		.byte	0x91
 8361 19b2 DC7E     		.sleb128 -164
 8362 19b4 25       		.uleb128 0x25
 8363 19b5 74677400 		.ascii	"tgt\000"
 8364 19b9 01       		.byte	0x1
 8365 19ba AE03     		.2byte	0x3ae
 8366 19bc CC0A0000 		.4byte	0xacc
 8367 19c0 02       		.uleb128 0x2
 8368 19c1 91       		.byte	0x91
 8369 19c2 68       		.sleb128 -24
 8370 19c3 25       		.uleb128 0x25
 8371 19c4 72657100 		.ascii	"req\000"
 8372 19c8 01       		.byte	0x1
 8373 19c9 B803     		.2byte	0x3b8
 8374 19cb 940A0000 		.4byte	0xa94
ARM GAS  C:\Users\JENNEW~1\AppData\Local\Temp\ccEqAB2L.s 			page 169


 8375 19cf 02       		.uleb128 0x2
 8376 19d0 91       		.byte	0x91
 8377 19d1 64       		.sleb128 -28
 8378 19d2 20       		.uleb128 0x20
 8379 19d3 4F060000 		.4byte	.LASF220
 8380 19d7 01       		.byte	0x1
 8381 19d8 C803     		.2byte	0x3c8
 8382 19da FC070000 		.4byte	0x7fc
 8383 19de 02       		.uleb128 0x2
 8384 19df 91       		.byte	0x91
 8385 19e0 77       		.sleb128 -9
 8386 19e1 25       		.uleb128 0x25
 8387 19e2 6200     		.ascii	"b\000"
 8388 19e4 01       		.byte	0x1
 8389 19e5 C903     		.2byte	0x3c9
 8390 19e7 081A0000 		.4byte	0x1a08
 8391 19eb 03       		.uleb128 0x3
 8392 19ec 91       		.byte	0x91
 8393 19ed A47F     		.sleb128 -92
 8394 19ef 1D       		.uleb128 0x1d
 8395 19f0 76000000 		.4byte	.LBB14
 8396 19f4 2A000000 		.4byte	.LBE14-.LBB14
 8397 19f8 25       		.uleb128 0x25
 8398 19f9 6200     		.ascii	"b\000"
 8399 19fb 01       		.byte	0x1
 8400 19fc C103     		.2byte	0x3c1
 8401 19fe 081A0000 		.4byte	0x1a08
 8402 1a02 03       		.uleb128 0x3
 8403 1a03 91       		.byte	0x91
 8404 1a04 E47E     		.sleb128 -156
 8405 1a06 00       		.byte	0
 8406 1a07 00       		.byte	0
 8407 1a08 13       		.uleb128 0x13
 8408 1a09 E7000000 		.4byte	0xe7
 8409 1a0d 181A0000 		.4byte	0x1a18
 8410 1a11 14       		.uleb128 0x14
 8411 1a12 F5000000 		.4byte	0xf5
 8412 1a16 3F       		.byte	0x3f
 8413 1a17 00       		.byte	0
 8414 1a18 13       		.uleb128 0x13
 8415 1a19 281A0000 		.4byte	0x1a28
 8416 1a1d 281A0000 		.4byte	0x1a28
 8417 1a21 14       		.uleb128 0x14
 8418 1a22 F5000000 		.4byte	0xf5
 8419 1a26 0E       		.byte	0xe
 8420 1a27 00       		.byte	0
 8421 1a28 07       		.uleb128 0x7
 8422 1a29 FC070000 		.4byte	0x7fc
 8423 1a2d 1B       		.uleb128 0x1b
 8424 1a2e 6B090000 		.4byte	.LASF302
 8425 1a32 01       		.byte	0x1
 8426 1a33 40       		.byte	0x40
 8427 1a34 3E1A0000 		.4byte	0x1a3e
 8428 1a38 05       		.uleb128 0x5
 8429 1a39 03       		.byte	0x3
 8430 1a3a 00000000 		.4byte	parent_of
 8431 1a3e 07       		.uleb128 0x7
ARM GAS  C:\Users\JENNEW~1\AppData\Local\Temp\ccEqAB2L.s 			page 170


 8432 1a3f 181A0000 		.4byte	0x1a18
 8433 1a43 13       		.uleb128 0x13
 8434 1a44 531A0000 		.4byte	0x1a53
 8435 1a48 531A0000 		.4byte	0x1a53
 8436 1a4c 14       		.uleb128 0x14
 8437 1a4d F5000000 		.4byte	0xf5
 8438 1a51 0E       		.byte	0xe
 8439 1a52 00       		.byte	0
 8440 1a53 07       		.uleb128 0x7
 8441 1a54 D70A0000 		.4byte	0xad7
 8442 1a58 1B       		.uleb128 0x1b
 8443 1a59 20030000 		.4byte	.LASF303
 8444 1a5d 01       		.byte	0x1
 8445 1a5e 8B       		.byte	0x8b
 8446 1a5f 691A0000 		.4byte	0x1a69
 8447 1a63 05       		.uleb128 0x5
 8448 1a64 03       		.byte	0x3
 8449 1a65 10000000 		.4byte	on_entry
 8450 1a69 07       		.uleb128 0x7
 8451 1a6a 431A0000 		.4byte	0x1a43
 8452 1a6e 1B       		.uleb128 0x1b
 8453 1a6f 1D040000 		.4byte	.LASF304
 8454 1a73 01       		.byte	0x1
 8455 1a74 9C       		.byte	0x9c
 8456 1a75 7F1A0000 		.4byte	0x1a7f
 8457 1a79 05       		.uleb128 0x5
 8458 1a7a 03       		.byte	0x3
 8459 1a7b 4C000000 		.4byte	on_exit
 8460 1a7f 07       		.uleb128 0x7
 8461 1a80 431A0000 		.4byte	0x1a43
 8462 1a84 13       		.uleb128 0x13
 8463 1a85 941A0000 		.4byte	0x1a94
 8464 1a89 941A0000 		.4byte	0x1a94
 8465 1a8d 14       		.uleb128 0x14
 8466 1a8e F5000000 		.4byte	0xf5
 8467 1a92 0E       		.byte	0xe
 8468 1a93 00       		.byte	0
 8469 1a94 07       		.uleb128 0x7
 8470 1a95 F90A0000 		.4byte	0xaf9
 8471 1a99 1B       		.uleb128 0x1b
 8472 1a9a 30030000 		.4byte	.LASF305
 8473 1a9e 01       		.byte	0x1
 8474 1a9f AD       		.byte	0xad
 8475 1aa0 AA1A0000 		.4byte	0x1aaa
 8476 1aa4 05       		.uleb128 0x5
 8477 1aa5 03       		.byte	0x3
 8478 1aa6 88000000 		.4byte	on_key
 8479 1aaa 07       		.uleb128 0x7
 8480 1aab 841A0000 		.4byte	0x1a84
 8481 1aaf 13       		.uleb128 0x13
 8482 1ab0 BF1A0000 		.4byte	0x1abf
 8483 1ab4 BF1A0000 		.4byte	0x1abf
 8484 1ab8 14       		.uleb128 0x14
 8485 1ab9 F5000000 		.4byte	0xf5
 8486 1abd 0E       		.byte	0xe
 8487 1abe 00       		.byte	0
 8488 1abf 07       		.uleb128 0x7
ARM GAS  C:\Users\JENNEW~1\AppData\Local\Temp\ccEqAB2L.s 			page 171


 8489 1ac0 1E0B0000 		.4byte	0xb1e
 8490 1ac4 1B       		.uleb128 0x1b
 8491 1ac5 DB0C0000 		.4byte	.LASF306
 8492 1ac9 01       		.byte	0x1
 8493 1aca BA       		.byte	0xba
 8494 1acb D51A0000 		.4byte	0x1ad5
 8495 1acf 05       		.uleb128 0x5
 8496 1ad0 03       		.byte	0x3
 8497 1ad1 C4000000 		.4byte	on_build
 8498 1ad5 07       		.uleb128 0x7
 8499 1ad6 AF1A0000 		.4byte	0x1aaf
 8500 1ada 13       		.uleb128 0x13
 8501 1adb EA1A0000 		.4byte	0x1aea
 8502 1adf EA1A0000 		.4byte	0x1aea
 8503 1ae3 14       		.uleb128 0x14
 8504 1ae4 F5000000 		.4byte	0xf5
 8505 1ae8 0E       		.byte	0xe
 8506 1ae9 00       		.byte	0
 8507 1aea 07       		.uleb128 0x7
 8508 1aeb FE000000 		.4byte	0xfe
 8509 1aef 20       		.uleb128 0x20
 8510 1af0 1D050000 		.4byte	.LASF307
 8511 1af4 01       		.byte	0x1
 8512 1af5 1E01     		.2byte	0x11e
 8513 1af7 011B0000 		.4byte	0x1b01
 8514 1afb 05       		.uleb128 0x5
 8515 1afc 03       		.byte	0x3
 8516 1afd C4010000 		.4byte	state_names
 8517 1b01 07       		.uleb128 0x7
 8518 1b02 DA1A0000 		.4byte	0x1ada
 8519 1b06 2A       		.uleb128 0x2a
 8520 1b07 A1080000 		.4byte	.LASF308
 8521 1b0b 0C       		.byte	0xc
 8522 1b0c 1207     		.2byte	0x712
 8523 1b0e 121B0000 		.4byte	0x1b12
 8524 1b12 08       		.uleb128 0x8
 8525 1b13 C3000000 		.4byte	0xc3
 8526 1b17 2B       		.uleb128 0x2b
 8527 1b18 76040000 		.4byte	.LASF309
 8528 1b1c 01       		.byte	0x1
 8529 1b1d 3B       		.byte	0x3b
 8530 1b1e 09010000 		.4byte	0x109
 8531 1b22 00       		.byte	0
 8532              		.section	.debug_abbrev,"",%progbits
 8533              	.Ldebug_abbrev0:
 8534 0000 01       		.uleb128 0x1
 8535 0001 11       		.uleb128 0x11
 8536 0002 01       		.byte	0x1
 8537 0003 25       		.uleb128 0x25
 8538 0004 0E       		.uleb128 0xe
 8539 0005 13       		.uleb128 0x13
 8540 0006 0B       		.uleb128 0xb
 8541 0007 03       		.uleb128 0x3
 8542 0008 0E       		.uleb128 0xe
 8543 0009 1B       		.uleb128 0x1b
 8544 000a 0E       		.uleb128 0xe
 8545 000b 55       		.uleb128 0x55
ARM GAS  C:\Users\JENNEW~1\AppData\Local\Temp\ccEqAB2L.s 			page 172


 8546 000c 17       		.uleb128 0x17
 8547 000d 11       		.uleb128 0x11
 8548 000e 01       		.uleb128 0x1
 8549 000f 10       		.uleb128 0x10
 8550 0010 17       		.uleb128 0x17
 8551 0011 00       		.byte	0
 8552 0012 00       		.byte	0
 8553 0013 02       		.uleb128 0x2
 8554 0014 24       		.uleb128 0x24
 8555 0015 00       		.byte	0
 8556 0016 0B       		.uleb128 0xb
 8557 0017 0B       		.uleb128 0xb
 8558 0018 3E       		.uleb128 0x3e
 8559 0019 0B       		.uleb128 0xb
 8560 001a 03       		.uleb128 0x3
 8561 001b 0E       		.uleb128 0xe
 8562 001c 00       		.byte	0
 8563 001d 00       		.byte	0
 8564 001e 03       		.uleb128 0x3
 8565 001f 16       		.uleb128 0x16
 8566 0020 00       		.byte	0
 8567 0021 03       		.uleb128 0x3
 8568 0022 0E       		.uleb128 0xe
 8569 0023 3A       		.uleb128 0x3a
 8570 0024 0B       		.uleb128 0xb
 8571 0025 3B       		.uleb128 0x3b
 8572 0026 0B       		.uleb128 0xb
 8573 0027 49       		.uleb128 0x49
 8574 0028 13       		.uleb128 0x13
 8575 0029 00       		.byte	0
 8576 002a 00       		.byte	0
 8577 002b 04       		.uleb128 0x4
 8578 002c 24       		.uleb128 0x24
 8579 002d 00       		.byte	0
 8580 002e 0B       		.uleb128 0xb
 8581 002f 0B       		.uleb128 0xb
 8582 0030 3E       		.uleb128 0x3e
 8583 0031 0B       		.uleb128 0xb
 8584 0032 03       		.uleb128 0x3
 8585 0033 08       		.uleb128 0x8
 8586 0034 00       		.byte	0
 8587 0035 00       		.byte	0
 8588 0036 05       		.uleb128 0x5
 8589 0037 0F       		.uleb128 0xf
 8590 0038 00       		.byte	0
 8591 0039 0B       		.uleb128 0xb
 8592 003a 0B       		.uleb128 0xb
 8593 003b 00       		.byte	0
 8594 003c 00       		.byte	0
 8595 003d 06       		.uleb128 0x6
 8596 003e 0F       		.uleb128 0xf
 8597 003f 00       		.byte	0
 8598 0040 0B       		.uleb128 0xb
 8599 0041 0B       		.uleb128 0xb
 8600 0042 49       		.uleb128 0x49
 8601 0043 13       		.uleb128 0x13
 8602 0044 00       		.byte	0
ARM GAS  C:\Users\JENNEW~1\AppData\Local\Temp\ccEqAB2L.s 			page 173


 8603 0045 00       		.byte	0
 8604 0046 07       		.uleb128 0x7
 8605 0047 26       		.uleb128 0x26
 8606 0048 00       		.byte	0
 8607 0049 49       		.uleb128 0x49
 8608 004a 13       		.uleb128 0x13
 8609 004b 00       		.byte	0
 8610 004c 00       		.byte	0
 8611 004d 08       		.uleb128 0x8
 8612 004e 35       		.uleb128 0x35
 8613 004f 00       		.byte	0
 8614 0050 49       		.uleb128 0x49
 8615 0051 13       		.uleb128 0x13
 8616 0052 00       		.byte	0
 8617 0053 00       		.byte	0
 8618 0054 09       		.uleb128 0x9
 8619 0055 04       		.uleb128 0x4
 8620 0056 01       		.byte	0x1
 8621 0057 0B       		.uleb128 0xb
 8622 0058 0B       		.uleb128 0xb
 8623 0059 49       		.uleb128 0x49
 8624 005a 13       		.uleb128 0x13
 8625 005b 3A       		.uleb128 0x3a
 8626 005c 0B       		.uleb128 0xb
 8627 005d 3B       		.uleb128 0x3b
 8628 005e 0B       		.uleb128 0xb
 8629 005f 01       		.uleb128 0x1
 8630 0060 13       		.uleb128 0x13
 8631 0061 00       		.byte	0
 8632 0062 00       		.byte	0
 8633 0063 0A       		.uleb128 0xa
 8634 0064 28       		.uleb128 0x28
 8635 0065 00       		.byte	0
 8636 0066 03       		.uleb128 0x3
 8637 0067 0E       		.uleb128 0xe
 8638 0068 1C       		.uleb128 0x1c
 8639 0069 0B       		.uleb128 0xb
 8640 006a 00       		.byte	0
 8641 006b 00       		.byte	0
 8642 006c 0B       		.uleb128 0xb
 8643 006d 13       		.uleb128 0x13
 8644 006e 01       		.byte	0x1
 8645 006f 0B       		.uleb128 0xb
 8646 0070 0B       		.uleb128 0xb
 8647 0071 3A       		.uleb128 0x3a
 8648 0072 0B       		.uleb128 0xb
 8649 0073 3B       		.uleb128 0x3b
 8650 0074 0B       		.uleb128 0xb
 8651 0075 01       		.uleb128 0x1
 8652 0076 13       		.uleb128 0x13
 8653 0077 00       		.byte	0
 8654 0078 00       		.byte	0
 8655 0079 0C       		.uleb128 0xc
 8656 007a 0D       		.uleb128 0xd
 8657 007b 00       		.byte	0
 8658 007c 03       		.uleb128 0x3
 8659 007d 08       		.uleb128 0x8
ARM GAS  C:\Users\JENNEW~1\AppData\Local\Temp\ccEqAB2L.s 			page 174


 8660 007e 3A       		.uleb128 0x3a
 8661 007f 0B       		.uleb128 0xb
 8662 0080 3B       		.uleb128 0x3b
 8663 0081 0B       		.uleb128 0xb
 8664 0082 49       		.uleb128 0x49
 8665 0083 13       		.uleb128 0x13
 8666 0084 38       		.uleb128 0x38
 8667 0085 0B       		.uleb128 0xb
 8668 0086 00       		.byte	0
 8669 0087 00       		.byte	0
 8670 0088 0D       		.uleb128 0xd
 8671 0089 0D       		.uleb128 0xd
 8672 008a 00       		.byte	0
 8673 008b 03       		.uleb128 0x3
 8674 008c 0E       		.uleb128 0xe
 8675 008d 3A       		.uleb128 0x3a
 8676 008e 0B       		.uleb128 0xb
 8677 008f 3B       		.uleb128 0x3b
 8678 0090 0B       		.uleb128 0xb
 8679 0091 49       		.uleb128 0x49
 8680 0092 13       		.uleb128 0x13
 8681 0093 38       		.uleb128 0x38
 8682 0094 0B       		.uleb128 0xb
 8683 0095 00       		.byte	0
 8684 0096 00       		.byte	0
 8685 0097 0E       		.uleb128 0xe
 8686 0098 15       		.uleb128 0x15
 8687 0099 01       		.byte	0x1
 8688 009a 27       		.uleb128 0x27
 8689 009b 19       		.uleb128 0x19
 8690 009c 01       		.uleb128 0x1
 8691 009d 13       		.uleb128 0x13
 8692 009e 00       		.byte	0
 8693 009f 00       		.byte	0
 8694 00a0 0F       		.uleb128 0xf
 8695 00a1 05       		.uleb128 0x5
 8696 00a2 00       		.byte	0
 8697 00a3 49       		.uleb128 0x49
 8698 00a4 13       		.uleb128 0x13
 8699 00a5 00       		.byte	0
 8700 00a6 00       		.byte	0
 8701 00a7 10       		.uleb128 0x10
 8702 00a8 15       		.uleb128 0x15
 8703 00a9 01       		.byte	0x1
 8704 00aa 27       		.uleb128 0x27
 8705 00ab 19       		.uleb128 0x19
 8706 00ac 49       		.uleb128 0x49
 8707 00ad 13       		.uleb128 0x13
 8708 00ae 01       		.uleb128 0x1
 8709 00af 13       		.uleb128 0x13
 8710 00b0 00       		.byte	0
 8711 00b1 00       		.byte	0
 8712 00b2 11       		.uleb128 0x11
 8713 00b3 13       		.uleb128 0x13
 8714 00b4 01       		.byte	0x1
 8715 00b5 0B       		.uleb128 0xb
 8716 00b6 05       		.uleb128 0x5
ARM GAS  C:\Users\JENNEW~1\AppData\Local\Temp\ccEqAB2L.s 			page 175


 8717 00b7 3A       		.uleb128 0x3a
 8718 00b8 0B       		.uleb128 0xb
 8719 00b9 3B       		.uleb128 0x3b
 8720 00ba 0B       		.uleb128 0xb
 8721 00bb 01       		.uleb128 0x1
 8722 00bc 13       		.uleb128 0x13
 8723 00bd 00       		.byte	0
 8724 00be 00       		.byte	0
 8725 00bf 12       		.uleb128 0x12
 8726 00c0 0D       		.uleb128 0xd
 8727 00c1 00       		.byte	0
 8728 00c2 03       		.uleb128 0x3
 8729 00c3 0E       		.uleb128 0xe
 8730 00c4 3A       		.uleb128 0x3a
 8731 00c5 0B       		.uleb128 0xb
 8732 00c6 3B       		.uleb128 0x3b
 8733 00c7 0B       		.uleb128 0xb
 8734 00c8 49       		.uleb128 0x49
 8735 00c9 13       		.uleb128 0x13
 8736 00ca 38       		.uleb128 0x38
 8737 00cb 05       		.uleb128 0x5
 8738 00cc 00       		.byte	0
 8739 00cd 00       		.byte	0
 8740 00ce 13       		.uleb128 0x13
 8741 00cf 01       		.uleb128 0x1
 8742 00d0 01       		.byte	0x1
 8743 00d1 49       		.uleb128 0x49
 8744 00d2 13       		.uleb128 0x13
 8745 00d3 01       		.uleb128 0x1
 8746 00d4 13       		.uleb128 0x13
 8747 00d5 00       		.byte	0
 8748 00d6 00       		.byte	0
 8749 00d7 14       		.uleb128 0x14
 8750 00d8 21       		.uleb128 0x21
 8751 00d9 00       		.byte	0
 8752 00da 49       		.uleb128 0x49
 8753 00db 13       		.uleb128 0x13
 8754 00dc 2F       		.uleb128 0x2f
 8755 00dd 0B       		.uleb128 0xb
 8756 00de 00       		.byte	0
 8757 00df 00       		.byte	0
 8758 00e0 15       		.uleb128 0x15
 8759 00e1 2E       		.uleb128 0x2e
 8760 00e2 01       		.byte	0x1
 8761 00e3 03       		.uleb128 0x3
 8762 00e4 0E       		.uleb128 0xe
 8763 00e5 3A       		.uleb128 0x3a
 8764 00e6 0B       		.uleb128 0xb
 8765 00e7 3B       		.uleb128 0x3b
 8766 00e8 0B       		.uleb128 0xb
 8767 00e9 27       		.uleb128 0x27
 8768 00ea 19       		.uleb128 0x19
 8769 00eb 49       		.uleb128 0x49
 8770 00ec 13       		.uleb128 0x13
 8771 00ed 11       		.uleb128 0x11
 8772 00ee 01       		.uleb128 0x1
 8773 00ef 12       		.uleb128 0x12
ARM GAS  C:\Users\JENNEW~1\AppData\Local\Temp\ccEqAB2L.s 			page 176


 8774 00f0 06       		.uleb128 0x6
 8775 00f1 40       		.uleb128 0x40
 8776 00f2 18       		.uleb128 0x18
 8777 00f3 9742     		.uleb128 0x2117
 8778 00f5 19       		.uleb128 0x19
 8779 00f6 01       		.uleb128 0x1
 8780 00f7 13       		.uleb128 0x13
 8781 00f8 00       		.byte	0
 8782 00f9 00       		.byte	0
 8783 00fa 16       		.uleb128 0x16
 8784 00fb 05       		.uleb128 0x5
 8785 00fc 00       		.byte	0
 8786 00fd 03       		.uleb128 0x3
 8787 00fe 08       		.uleb128 0x8
 8788 00ff 3A       		.uleb128 0x3a
 8789 0100 0B       		.uleb128 0xb
 8790 0101 3B       		.uleb128 0x3b
 8791 0102 0B       		.uleb128 0xb
 8792 0103 49       		.uleb128 0x49
 8793 0104 13       		.uleb128 0x13
 8794 0105 02       		.uleb128 0x2
 8795 0106 18       		.uleb128 0x18
 8796 0107 00       		.byte	0
 8797 0108 00       		.byte	0
 8798 0109 17       		.uleb128 0x17
 8799 010a 34       		.uleb128 0x34
 8800 010b 00       		.byte	0
 8801 010c 03       		.uleb128 0x3
 8802 010d 08       		.uleb128 0x8
 8803 010e 3A       		.uleb128 0x3a
 8804 010f 0B       		.uleb128 0xb
 8805 0110 3B       		.uleb128 0x3b
 8806 0111 0B       		.uleb128 0xb
 8807 0112 49       		.uleb128 0x49
 8808 0113 13       		.uleb128 0x13
 8809 0114 02       		.uleb128 0x2
 8810 0115 18       		.uleb128 0x18
 8811 0116 00       		.byte	0
 8812 0117 00       		.byte	0
 8813 0118 18       		.uleb128 0x18
 8814 0119 2E       		.uleb128 0x2e
 8815 011a 01       		.byte	0x1
 8816 011b 03       		.uleb128 0x3
 8817 011c 08       		.uleb128 0x8
 8818 011d 3A       		.uleb128 0x3a
 8819 011e 0B       		.uleb128 0xb
 8820 011f 3B       		.uleb128 0x3b
 8821 0120 0B       		.uleb128 0xb
 8822 0121 27       		.uleb128 0x27
 8823 0122 19       		.uleb128 0x19
 8824 0123 49       		.uleb128 0x49
 8825 0124 13       		.uleb128 0x13
 8826 0125 11       		.uleb128 0x11
 8827 0126 01       		.uleb128 0x1
 8828 0127 12       		.uleb128 0x12
 8829 0128 06       		.uleb128 0x6
 8830 0129 40       		.uleb128 0x40
ARM GAS  C:\Users\JENNEW~1\AppData\Local\Temp\ccEqAB2L.s 			page 177


 8831 012a 18       		.uleb128 0x18
 8832 012b 9642     		.uleb128 0x2116
 8833 012d 19       		.uleb128 0x19
 8834 012e 01       		.uleb128 0x1
 8835 012f 13       		.uleb128 0x13
 8836 0130 00       		.byte	0
 8837 0131 00       		.byte	0
 8838 0132 19       		.uleb128 0x19
 8839 0133 2E       		.uleb128 0x2e
 8840 0134 01       		.byte	0x1
 8841 0135 03       		.uleb128 0x3
 8842 0136 0E       		.uleb128 0xe
 8843 0137 3A       		.uleb128 0x3a
 8844 0138 0B       		.uleb128 0xb
 8845 0139 3B       		.uleb128 0x3b
 8846 013a 0B       		.uleb128 0xb
 8847 013b 27       		.uleb128 0x27
 8848 013c 19       		.uleb128 0x19
 8849 013d 11       		.uleb128 0x11
 8850 013e 01       		.uleb128 0x1
 8851 013f 12       		.uleb128 0x12
 8852 0140 06       		.uleb128 0x6
 8853 0141 40       		.uleb128 0x40
 8854 0142 18       		.uleb128 0x18
 8855 0143 9642     		.uleb128 0x2116
 8856 0145 19       		.uleb128 0x19
 8857 0146 01       		.uleb128 0x1
 8858 0147 13       		.uleb128 0x13
 8859 0148 00       		.byte	0
 8860 0149 00       		.byte	0
 8861 014a 1A       		.uleb128 0x1a
 8862 014b 05       		.uleb128 0x5
 8863 014c 00       		.byte	0
 8864 014d 03       		.uleb128 0x3
 8865 014e 0E       		.uleb128 0xe
 8866 014f 3A       		.uleb128 0x3a
 8867 0150 0B       		.uleb128 0xb
 8868 0151 3B       		.uleb128 0x3b
 8869 0152 0B       		.uleb128 0xb
 8870 0153 49       		.uleb128 0x49
 8871 0154 13       		.uleb128 0x13
 8872 0155 02       		.uleb128 0x2
 8873 0156 18       		.uleb128 0x18
 8874 0157 00       		.byte	0
 8875 0158 00       		.byte	0
 8876 0159 1B       		.uleb128 0x1b
 8877 015a 34       		.uleb128 0x34
 8878 015b 00       		.byte	0
 8879 015c 03       		.uleb128 0x3
 8880 015d 0E       		.uleb128 0xe
 8881 015e 3A       		.uleb128 0x3a
 8882 015f 0B       		.uleb128 0xb
 8883 0160 3B       		.uleb128 0x3b
 8884 0161 0B       		.uleb128 0xb
 8885 0162 49       		.uleb128 0x49
 8886 0163 13       		.uleb128 0x13
 8887 0164 02       		.uleb128 0x2
ARM GAS  C:\Users\JENNEW~1\AppData\Local\Temp\ccEqAB2L.s 			page 178


 8888 0165 18       		.uleb128 0x18
 8889 0166 00       		.byte	0
 8890 0167 00       		.byte	0
 8891 0168 1C       		.uleb128 0x1c
 8892 0169 0B       		.uleb128 0xb
 8893 016a 01       		.byte	0x1
 8894 016b 11       		.uleb128 0x11
 8895 016c 01       		.uleb128 0x1
 8896 016d 12       		.uleb128 0x12
 8897 016e 06       		.uleb128 0x6
 8898 016f 01       		.uleb128 0x1
 8899 0170 13       		.uleb128 0x13
 8900 0171 00       		.byte	0
 8901 0172 00       		.byte	0
 8902 0173 1D       		.uleb128 0x1d
 8903 0174 0B       		.uleb128 0xb
 8904 0175 01       		.byte	0x1
 8905 0176 11       		.uleb128 0x11
 8906 0177 01       		.uleb128 0x1
 8907 0178 12       		.uleb128 0x12
 8908 0179 06       		.uleb128 0x6
 8909 017a 00       		.byte	0
 8910 017b 00       		.byte	0
 8911 017c 1E       		.uleb128 0x1e
 8912 017d 2E       		.uleb128 0x2e
 8913 017e 01       		.byte	0x1
 8914 017f 3F       		.uleb128 0x3f
 8915 0180 19       		.uleb128 0x19
 8916 0181 03       		.uleb128 0x3
 8917 0182 0E       		.uleb128 0xe
 8918 0183 3A       		.uleb128 0x3a
 8919 0184 0B       		.uleb128 0xb
 8920 0185 3B       		.uleb128 0x3b
 8921 0186 05       		.uleb128 0x5
 8922 0187 27       		.uleb128 0x27
 8923 0188 19       		.uleb128 0x19
 8924 0189 11       		.uleb128 0x11
 8925 018a 01       		.uleb128 0x1
 8926 018b 12       		.uleb128 0x12
 8927 018c 06       		.uleb128 0x6
 8928 018d 40       		.uleb128 0x40
 8929 018e 18       		.uleb128 0x18
 8930 018f 9642     		.uleb128 0x2116
 8931 0191 19       		.uleb128 0x19
 8932 0192 01       		.uleb128 0x1
 8933 0193 13       		.uleb128 0x13
 8934 0194 00       		.byte	0
 8935 0195 00       		.byte	0
 8936 0196 1F       		.uleb128 0x1f
 8937 0197 05       		.uleb128 0x5
 8938 0198 00       		.byte	0
 8939 0199 03       		.uleb128 0x3
 8940 019a 08       		.uleb128 0x8
 8941 019b 3A       		.uleb128 0x3a
 8942 019c 0B       		.uleb128 0xb
 8943 019d 3B       		.uleb128 0x3b
 8944 019e 05       		.uleb128 0x5
ARM GAS  C:\Users\JENNEW~1\AppData\Local\Temp\ccEqAB2L.s 			page 179


 8945 019f 49       		.uleb128 0x49
 8946 01a0 13       		.uleb128 0x13
 8947 01a1 02       		.uleb128 0x2
 8948 01a2 18       		.uleb128 0x18
 8949 01a3 00       		.byte	0
 8950 01a4 00       		.byte	0
 8951 01a5 20       		.uleb128 0x20
 8952 01a6 34       		.uleb128 0x34
 8953 01a7 00       		.byte	0
 8954 01a8 03       		.uleb128 0x3
 8955 01a9 0E       		.uleb128 0xe
 8956 01aa 3A       		.uleb128 0x3a
 8957 01ab 0B       		.uleb128 0xb
 8958 01ac 3B       		.uleb128 0x3b
 8959 01ad 05       		.uleb128 0x5
 8960 01ae 49       		.uleb128 0x49
 8961 01af 13       		.uleb128 0x13
 8962 01b0 02       		.uleb128 0x2
 8963 01b1 18       		.uleb128 0x18
 8964 01b2 00       		.byte	0
 8965 01b3 00       		.byte	0
 8966 01b4 21       		.uleb128 0x21
 8967 01b5 2E       		.uleb128 0x2e
 8968 01b6 01       		.byte	0x1
 8969 01b7 3F       		.uleb128 0x3f
 8970 01b8 19       		.uleb128 0x19
 8971 01b9 03       		.uleb128 0x3
 8972 01ba 0E       		.uleb128 0xe
 8973 01bb 3A       		.uleb128 0x3a
 8974 01bc 0B       		.uleb128 0xb
 8975 01bd 3B       		.uleb128 0x3b
 8976 01be 05       		.uleb128 0x5
 8977 01bf 27       		.uleb128 0x27
 8978 01c0 19       		.uleb128 0x19
 8979 01c1 49       		.uleb128 0x49
 8980 01c2 13       		.uleb128 0x13
 8981 01c3 11       		.uleb128 0x11
 8982 01c4 01       		.uleb128 0x1
 8983 01c5 12       		.uleb128 0x12
 8984 01c6 06       		.uleb128 0x6
 8985 01c7 40       		.uleb128 0x40
 8986 01c8 18       		.uleb128 0x18
 8987 01c9 9742     		.uleb128 0x2117
 8988 01cb 19       		.uleb128 0x19
 8989 01cc 01       		.uleb128 0x1
 8990 01cd 13       		.uleb128 0x13
 8991 01ce 00       		.byte	0
 8992 01cf 00       		.byte	0
 8993 01d0 22       		.uleb128 0x22
 8994 01d1 2E       		.uleb128 0x2e
 8995 01d2 01       		.byte	0x1
 8996 01d3 03       		.uleb128 0x3
 8997 01d4 0E       		.uleb128 0xe
 8998 01d5 3A       		.uleb128 0x3a
 8999 01d6 0B       		.uleb128 0xb
 9000 01d7 3B       		.uleb128 0x3b
 9001 01d8 05       		.uleb128 0x5
ARM GAS  C:\Users\JENNEW~1\AppData\Local\Temp\ccEqAB2L.s 			page 180


 9002 01d9 27       		.uleb128 0x27
 9003 01da 19       		.uleb128 0x19
 9004 01db 11       		.uleb128 0x11
 9005 01dc 01       		.uleb128 0x1
 9006 01dd 12       		.uleb128 0x12
 9007 01de 06       		.uleb128 0x6
 9008 01df 40       		.uleb128 0x40
 9009 01e0 18       		.uleb128 0x18
 9010 01e1 9642     		.uleb128 0x2116
 9011 01e3 19       		.uleb128 0x19
 9012 01e4 01       		.uleb128 0x1
 9013 01e5 13       		.uleb128 0x13
 9014 01e6 00       		.byte	0
 9015 01e7 00       		.byte	0
 9016 01e8 23       		.uleb128 0x23
 9017 01e9 2E       		.uleb128 0x2e
 9018 01ea 01       		.byte	0x1
 9019 01eb 03       		.uleb128 0x3
 9020 01ec 0E       		.uleb128 0xe
 9021 01ed 3A       		.uleb128 0x3a
 9022 01ee 0B       		.uleb128 0xb
 9023 01ef 3B       		.uleb128 0x3b
 9024 01f0 05       		.uleb128 0x5
 9025 01f1 27       		.uleb128 0x27
 9026 01f2 19       		.uleb128 0x19
 9027 01f3 11       		.uleb128 0x11
 9028 01f4 01       		.uleb128 0x1
 9029 01f5 12       		.uleb128 0x12
 9030 01f6 06       		.uleb128 0x6
 9031 01f7 40       		.uleb128 0x40
 9032 01f8 18       		.uleb128 0x18
 9033 01f9 9742     		.uleb128 0x2117
 9034 01fb 19       		.uleb128 0x19
 9035 01fc 01       		.uleb128 0x1
 9036 01fd 13       		.uleb128 0x13
 9037 01fe 00       		.byte	0
 9038 01ff 00       		.byte	0
 9039 0200 24       		.uleb128 0x24
 9040 0201 0B       		.uleb128 0xb
 9041 0202 01       		.byte	0x1
 9042 0203 55       		.uleb128 0x55
 9043 0204 17       		.uleb128 0x17
 9044 0205 01       		.uleb128 0x1
 9045 0206 13       		.uleb128 0x13
 9046 0207 00       		.byte	0
 9047 0208 00       		.byte	0
 9048 0209 25       		.uleb128 0x25
 9049 020a 34       		.uleb128 0x34
 9050 020b 00       		.byte	0
 9051 020c 03       		.uleb128 0x3
 9052 020d 08       		.uleb128 0x8
 9053 020e 3A       		.uleb128 0x3a
 9054 020f 0B       		.uleb128 0xb
 9055 0210 3B       		.uleb128 0x3b
 9056 0211 05       		.uleb128 0x5
 9057 0212 49       		.uleb128 0x49
 9058 0213 13       		.uleb128 0x13
ARM GAS  C:\Users\JENNEW~1\AppData\Local\Temp\ccEqAB2L.s 			page 181


 9059 0214 02       		.uleb128 0x2
 9060 0215 18       		.uleb128 0x18
 9061 0216 00       		.byte	0
 9062 0217 00       		.byte	0
 9063 0218 26       		.uleb128 0x26
 9064 0219 2E       		.uleb128 0x2e
 9065 021a 01       		.byte	0x1
 9066 021b 03       		.uleb128 0x3
 9067 021c 0E       		.uleb128 0xe
 9068 021d 3A       		.uleb128 0x3a
 9069 021e 0B       		.uleb128 0xb
 9070 021f 3B       		.uleb128 0x3b
 9071 0220 05       		.uleb128 0x5
 9072 0221 27       		.uleb128 0x27
 9073 0222 19       		.uleb128 0x19
 9074 0223 49       		.uleb128 0x49
 9075 0224 13       		.uleb128 0x13
 9076 0225 11       		.uleb128 0x11
 9077 0226 01       		.uleb128 0x1
 9078 0227 12       		.uleb128 0x12
 9079 0228 06       		.uleb128 0x6
 9080 0229 40       		.uleb128 0x40
 9081 022a 18       		.uleb128 0x18
 9082 022b 9642     		.uleb128 0x2116
 9083 022d 19       		.uleb128 0x19
 9084 022e 01       		.uleb128 0x1
 9085 022f 13       		.uleb128 0x13
 9086 0230 00       		.byte	0
 9087 0231 00       		.byte	0
 9088 0232 27       		.uleb128 0x27
 9089 0233 05       		.uleb128 0x5
 9090 0234 00       		.byte	0
 9091 0235 03       		.uleb128 0x3
 9092 0236 0E       		.uleb128 0xe
 9093 0237 3A       		.uleb128 0x3a
 9094 0238 0B       		.uleb128 0xb
 9095 0239 3B       		.uleb128 0x3b
 9096 023a 05       		.uleb128 0x5
 9097 023b 49       		.uleb128 0x49
 9098 023c 13       		.uleb128 0x13
 9099 023d 02       		.uleb128 0x2
 9100 023e 18       		.uleb128 0x18
 9101 023f 00       		.byte	0
 9102 0240 00       		.byte	0
 9103 0241 28       		.uleb128 0x28
 9104 0242 2E       		.uleb128 0x2e
 9105 0243 01       		.byte	0x1
 9106 0244 03       		.uleb128 0x3
 9107 0245 0E       		.uleb128 0xe
 9108 0246 3A       		.uleb128 0x3a
 9109 0247 0B       		.uleb128 0xb
 9110 0248 3B       		.uleb128 0x3b
 9111 0249 05       		.uleb128 0x5
 9112 024a 27       		.uleb128 0x27
 9113 024b 19       		.uleb128 0x19
 9114 024c 49       		.uleb128 0x49
 9115 024d 13       		.uleb128 0x13
ARM GAS  C:\Users\JENNEW~1\AppData\Local\Temp\ccEqAB2L.s 			page 182


 9116 024e 11       		.uleb128 0x11
 9117 024f 01       		.uleb128 0x1
 9118 0250 12       		.uleb128 0x12
 9119 0251 06       		.uleb128 0x6
 9120 0252 40       		.uleb128 0x40
 9121 0253 18       		.uleb128 0x18
 9122 0254 9742     		.uleb128 0x2117
 9123 0256 19       		.uleb128 0x19
 9124 0257 01       		.uleb128 0x1
 9125 0258 13       		.uleb128 0x13
 9126 0259 00       		.byte	0
 9127 025a 00       		.byte	0
 9128 025b 29       		.uleb128 0x29
 9129 025c 2E       		.uleb128 0x2e
 9130 025d 01       		.byte	0x1
 9131 025e 3F       		.uleb128 0x3f
 9132 025f 19       		.uleb128 0x19
 9133 0260 03       		.uleb128 0x3
 9134 0261 0E       		.uleb128 0xe
 9135 0262 3A       		.uleb128 0x3a
 9136 0263 0B       		.uleb128 0xb
 9137 0264 3B       		.uleb128 0x3b
 9138 0265 05       		.uleb128 0x5
 9139 0266 27       		.uleb128 0x27
 9140 0267 19       		.uleb128 0x19
 9141 0268 49       		.uleb128 0x49
 9142 0269 13       		.uleb128 0x13
 9143 026a 11       		.uleb128 0x11
 9144 026b 01       		.uleb128 0x1
 9145 026c 12       		.uleb128 0x12
 9146 026d 06       		.uleb128 0x6
 9147 026e 40       		.uleb128 0x40
 9148 026f 18       		.uleb128 0x18
 9149 0270 9642     		.uleb128 0x2116
 9150 0272 19       		.uleb128 0x19
 9151 0273 01       		.uleb128 0x1
 9152 0274 13       		.uleb128 0x13
 9153 0275 00       		.byte	0
 9154 0276 00       		.byte	0
 9155 0277 2A       		.uleb128 0x2a
 9156 0278 34       		.uleb128 0x34
 9157 0279 00       		.byte	0
 9158 027a 03       		.uleb128 0x3
 9159 027b 0E       		.uleb128 0xe
 9160 027c 3A       		.uleb128 0x3a
 9161 027d 0B       		.uleb128 0xb
 9162 027e 3B       		.uleb128 0x3b
 9163 027f 05       		.uleb128 0x5
 9164 0280 49       		.uleb128 0x49
 9165 0281 13       		.uleb128 0x13
 9166 0282 3F       		.uleb128 0x3f
 9167 0283 19       		.uleb128 0x19
 9168 0284 3C       		.uleb128 0x3c
 9169 0285 19       		.uleb128 0x19
 9170 0286 00       		.byte	0
 9171 0287 00       		.byte	0
 9172 0288 2B       		.uleb128 0x2b
ARM GAS  C:\Users\JENNEW~1\AppData\Local\Temp\ccEqAB2L.s 			page 183


 9173 0289 34       		.uleb128 0x34
 9174 028a 00       		.byte	0
 9175 028b 03       		.uleb128 0x3
 9176 028c 0E       		.uleb128 0xe
 9177 028d 3A       		.uleb128 0x3a
 9178 028e 0B       		.uleb128 0xb
 9179 028f 3B       		.uleb128 0x3b
 9180 0290 0B       		.uleb128 0xb
 9181 0291 49       		.uleb128 0x49
 9182 0292 13       		.uleb128 0x13
 9183 0293 3F       		.uleb128 0x3f
 9184 0294 19       		.uleb128 0x19
 9185 0295 3C       		.uleb128 0x3c
 9186 0296 19       		.uleb128 0x19
 9187 0297 00       		.byte	0
 9188 0298 00       		.byte	0
 9189 0299 00       		.byte	0
 9190              		.section	.debug_aranges,"",%progbits
 9191 0000 C4010000 		.4byte	0x1c4
 9192 0004 0200     		.2byte	0x2
 9193 0006 00000000 		.4byte	.Ldebug_info0
 9194 000a 04       		.byte	0x4
 9195 000b 00       		.byte	0
 9196 000c 0000     		.2byte	0
 9197 000e 0000     		.2byte	0
 9198 0010 00000000 		.4byte	.LFB64
 9199 0014 34000000 		.4byte	.LFE64-.LFB64
 9200 0018 00000000 		.4byte	.LFB65
 9201 001c 80000000 		.4byte	.LFE65-.LFB65
 9202 0020 00000000 		.4byte	.LFB66
 9203 0024 F0000000 		.4byte	.LFE66-.LFB66
 9204 0028 00000000 		.4byte	.LFB67
 9205 002c 26000000 		.4byte	.LFE67-.LFB67
 9206 0030 00000000 		.4byte	.LFB68
 9207 0034 68000000 		.4byte	.LFE68-.LFB68
 9208 0038 00000000 		.4byte	.LFB69
 9209 003c 20000000 		.4byte	.LFE69-.LFB69
 9210 0040 00000000 		.4byte	.LFB70
 9211 0044 80000000 		.4byte	.LFE70-.LFB70
 9212 0048 00000000 		.4byte	.LFB71
 9213 004c 1C000000 		.4byte	.LFE71-.LFB71
 9214 0050 00000000 		.4byte	.LFB72
 9215 0054 1C000000 		.4byte	.LFE72-.LFB72
 9216 0058 00000000 		.4byte	.LFB73
 9217 005c 20000000 		.4byte	.LFE73-.LFB73
 9218 0060 00000000 		.4byte	.LFB74
 9219 0064 18000000 		.4byte	.LFE74-.LFB74
 9220 0068 00000000 		.4byte	.LFB75
 9221 006c 1C000000 		.4byte	.LFE75-.LFB75
 9222 0070 00000000 		.4byte	.LFB76
 9223 0074 E0010000 		.4byte	.LFE76-.LFB76
 9224 0078 00000000 		.4byte	.LFB77
 9225 007c A0000000 		.4byte	.LFE77-.LFB77
 9226 0080 00000000 		.4byte	.LFB78
 9227 0084 1A000000 		.4byte	.LFE78-.LFB78
 9228 0088 00000000 		.4byte	.LFB79
 9229 008c 28000000 		.4byte	.LFE79-.LFB79
ARM GAS  C:\Users\JENNEW~1\AppData\Local\Temp\ccEqAB2L.s 			page 184


 9230 0090 00000000 		.4byte	.LFB80
 9231 0094 7C000000 		.4byte	.LFE80-.LFB80
 9232 0098 00000000 		.4byte	.LFB81
 9233 009c F8000000 		.4byte	.LFE81-.LFB81
 9234 00a0 00000000 		.4byte	.LFB82
 9235 00a4 5C010000 		.4byte	.LFE82-.LFB82
 9236 00a8 00000000 		.4byte	.LFB83
 9237 00ac 3A000000 		.4byte	.LFE83-.LFB83
 9238 00b0 00000000 		.4byte	.LFB84
 9239 00b4 E8000000 		.4byte	.LFE84-.LFB84
 9240 00b8 00000000 		.4byte	.LFB85
 9241 00bc C0010000 		.4byte	.LFE85-.LFB85
 9242 00c0 00000000 		.4byte	.LFB86
 9243 00c4 48000000 		.4byte	.LFE86-.LFB86
 9244 00c8 00000000 		.4byte	.LFB87
 9245 00cc 22000000 		.4byte	.LFE87-.LFB87
 9246 00d0 00000000 		.4byte	.LFB88
 9247 00d4 28000000 		.4byte	.LFE88-.LFB88
 9248 00d8 00000000 		.4byte	.LFB89
 9249 00dc B0000000 		.4byte	.LFE89-.LFB89
 9250 00e0 00000000 		.4byte	.LFB90
 9251 00e4 1C000000 		.4byte	.LFE90-.LFB90
 9252 00e8 00000000 		.4byte	.LFB91
 9253 00ec 2C000000 		.4byte	.LFE91-.LFB91
 9254 00f0 00000000 		.4byte	.LFB92
 9255 00f4 28000000 		.4byte	.LFE92-.LFB92
 9256 00f8 00000000 		.4byte	.LFB93
 9257 00fc 28010000 		.4byte	.LFE93-.LFB93
 9258 0100 00000000 		.4byte	.LFB94
 9259 0104 1C000000 		.4byte	.LFE94-.LFB94
 9260 0108 00000000 		.4byte	.LFB95
 9261 010c 28000000 		.4byte	.LFE95-.LFB95
 9262 0110 00000000 		.4byte	.LFB96
 9263 0114 1C000000 		.4byte	.LFE96-.LFB96
 9264 0118 00000000 		.4byte	.LFB97
 9265 011c 28000000 		.4byte	.LFE97-.LFB97
 9266 0120 00000000 		.4byte	.LFB98
 9267 0124 40000000 		.4byte	.LFE98-.LFB98
 9268 0128 00000000 		.4byte	.LFB99
 9269 012c 80000000 		.4byte	.LFE99-.LFB99
 9270 0130 00000000 		.4byte	.LFB100
 9271 0134 54000000 		.4byte	.LFE100-.LFB100
 9272 0138 00000000 		.4byte	.LFB101
 9273 013c 6C000000 		.4byte	.LFE101-.LFB101
 9274 0140 00000000 		.4byte	.LFB102
 9275 0144 1C000000 		.4byte	.LFE102-.LFB102
 9276 0148 00000000 		.4byte	.LFB103
 9277 014c 94000000 		.4byte	.LFE103-.LFB103
 9278 0150 00000000 		.4byte	.LFB104
 9279 0154 3A000000 		.4byte	.LFE104-.LFB104
 9280 0158 00000000 		.4byte	.LFB105
 9281 015c 48000000 		.4byte	.LFE105-.LFB105
 9282 0160 00000000 		.4byte	.LFB106
 9283 0164 3E000000 		.4byte	.LFE106-.LFB106
 9284 0168 00000000 		.4byte	.LFB107
 9285 016c A0000000 		.4byte	.LFE107-.LFB107
 9286 0170 00000000 		.4byte	.LFB108
ARM GAS  C:\Users\JENNEW~1\AppData\Local\Temp\ccEqAB2L.s 			page 185


 9287 0174 1C000000 		.4byte	.LFE108-.LFB108
 9288 0178 00000000 		.4byte	.LFB109
 9289 017c 1A000000 		.4byte	.LFE109-.LFB109
 9290 0180 00000000 		.4byte	.LFB110
 9291 0184 A8000000 		.4byte	.LFE110-.LFB110
 9292 0188 00000000 		.4byte	.LFB111
 9293 018c 28000000 		.4byte	.LFE111-.LFB111
 9294 0190 00000000 		.4byte	.LFB112
 9295 0194 3C000000 		.4byte	.LFE112-.LFB112
 9296 0198 00000000 		.4byte	.LFB113
 9297 019c B8010000 		.4byte	.LFE113-.LFB113
 9298 01a0 00000000 		.4byte	.LFB114
 9299 01a4 24020000 		.4byte	.LFE114-.LFB114
 9300 01a8 00000000 		.4byte	.LFB115
 9301 01ac C4000000 		.4byte	.LFE115-.LFB115
 9302 01b0 00000000 		.4byte	.LFB116
 9303 01b4 22000000 		.4byte	.LFE116-.LFB116
 9304 01b8 00000000 		.4byte	.LFB117
 9305 01bc F4000000 		.4byte	.LFE117-.LFB117
 9306 01c0 00000000 		.4byte	0
 9307 01c4 00000000 		.4byte	0
 9308              		.section	.debug_ranges,"",%progbits
 9309              	.Ldebug_ranges0:
 9310 0000 1A000000 		.4byte	.LBB4
 9311 0004 C8000000 		.4byte	.LBE4
 9312 0008 BE010000 		.4byte	.LBB10
 9313 000c C0010000 		.4byte	.LBE10
 9314 0010 00000000 		.4byte	0
 9315 0014 00000000 		.4byte	0
 9316 0018 00000000 		.4byte	.LFB64
 9317 001c 34000000 		.4byte	.LFE64
 9318 0020 00000000 		.4byte	.LFB65
 9319 0024 80000000 		.4byte	.LFE65
 9320 0028 00000000 		.4byte	.LFB66
 9321 002c F0000000 		.4byte	.LFE66
 9322 0030 00000000 		.4byte	.LFB67
 9323 0034 26000000 		.4byte	.LFE67
 9324 0038 00000000 		.4byte	.LFB68
 9325 003c 68000000 		.4byte	.LFE68
 9326 0040 00000000 		.4byte	.LFB69
 9327 0044 20000000 		.4byte	.LFE69
 9328 0048 00000000 		.4byte	.LFB70
 9329 004c 80000000 		.4byte	.LFE70
 9330 0050 00000000 		.4byte	.LFB71
 9331 0054 1C000000 		.4byte	.LFE71
 9332 0058 00000000 		.4byte	.LFB72
 9333 005c 1C000000 		.4byte	.LFE72
 9334 0060 00000000 		.4byte	.LFB73
 9335 0064 20000000 		.4byte	.LFE73
 9336 0068 00000000 		.4byte	.LFB74
 9337 006c 18000000 		.4byte	.LFE74
 9338 0070 00000000 		.4byte	.LFB75
 9339 0074 1C000000 		.4byte	.LFE75
 9340 0078 00000000 		.4byte	.LFB76
 9341 007c E0010000 		.4byte	.LFE76
 9342 0080 00000000 		.4byte	.LFB77
 9343 0084 A0000000 		.4byte	.LFE77
ARM GAS  C:\Users\JENNEW~1\AppData\Local\Temp\ccEqAB2L.s 			page 186


 9344 0088 00000000 		.4byte	.LFB78
 9345 008c 1A000000 		.4byte	.LFE78
 9346 0090 00000000 		.4byte	.LFB79
 9347 0094 28000000 		.4byte	.LFE79
 9348 0098 00000000 		.4byte	.LFB80
 9349 009c 7C000000 		.4byte	.LFE80
 9350 00a0 00000000 		.4byte	.LFB81
 9351 00a4 F8000000 		.4byte	.LFE81
 9352 00a8 00000000 		.4byte	.LFB82
 9353 00ac 5C010000 		.4byte	.LFE82
 9354 00b0 00000000 		.4byte	.LFB83
 9355 00b4 3A000000 		.4byte	.LFE83
 9356 00b8 00000000 		.4byte	.LFB84
 9357 00bc E8000000 		.4byte	.LFE84
 9358 00c0 00000000 		.4byte	.LFB85
 9359 00c4 C0010000 		.4byte	.LFE85
 9360 00c8 00000000 		.4byte	.LFB86
 9361 00cc 48000000 		.4byte	.LFE86
 9362 00d0 00000000 		.4byte	.LFB87
 9363 00d4 22000000 		.4byte	.LFE87
 9364 00d8 00000000 		.4byte	.LFB88
 9365 00dc 28000000 		.4byte	.LFE88
 9366 00e0 00000000 		.4byte	.LFB89
 9367 00e4 B0000000 		.4byte	.LFE89
 9368 00e8 00000000 		.4byte	.LFB90
 9369 00ec 1C000000 		.4byte	.LFE90
 9370 00f0 00000000 		.4byte	.LFB91
 9371 00f4 2C000000 		.4byte	.LFE91
 9372 00f8 00000000 		.4byte	.LFB92
 9373 00fc 28000000 		.4byte	.LFE92
 9374 0100 00000000 		.4byte	.LFB93
 9375 0104 28010000 		.4byte	.LFE93
 9376 0108 00000000 		.4byte	.LFB94
 9377 010c 1C000000 		.4byte	.LFE94
 9378 0110 00000000 		.4byte	.LFB95
 9379 0114 28000000 		.4byte	.LFE95
 9380 0118 00000000 		.4byte	.LFB96
 9381 011c 1C000000 		.4byte	.LFE96
 9382 0120 00000000 		.4byte	.LFB97
 9383 0124 28000000 		.4byte	.LFE97
 9384 0128 00000000 		.4byte	.LFB98
 9385 012c 40000000 		.4byte	.LFE98
 9386 0130 00000000 		.4byte	.LFB99
 9387 0134 80000000 		.4byte	.LFE99
 9388 0138 00000000 		.4byte	.LFB100
 9389 013c 54000000 		.4byte	.LFE100
 9390 0140 00000000 		.4byte	.LFB101
 9391 0144 6C000000 		.4byte	.LFE101
 9392 0148 00000000 		.4byte	.LFB102
 9393 014c 1C000000 		.4byte	.LFE102
 9394 0150 00000000 		.4byte	.LFB103
 9395 0154 94000000 		.4byte	.LFE103
 9396 0158 00000000 		.4byte	.LFB104
 9397 015c 3A000000 		.4byte	.LFE104
 9398 0160 00000000 		.4byte	.LFB105
 9399 0164 48000000 		.4byte	.LFE105
 9400 0168 00000000 		.4byte	.LFB106
ARM GAS  C:\Users\JENNEW~1\AppData\Local\Temp\ccEqAB2L.s 			page 187


 9401 016c 3E000000 		.4byte	.LFE106
 9402 0170 00000000 		.4byte	.LFB107
 9403 0174 A0000000 		.4byte	.LFE107
 9404 0178 00000000 		.4byte	.LFB108
 9405 017c 1C000000 		.4byte	.LFE108
 9406 0180 00000000 		.4byte	.LFB109
 9407 0184 1A000000 		.4byte	.LFE109
 9408 0188 00000000 		.4byte	.LFB110
 9409 018c A8000000 		.4byte	.LFE110
 9410 0190 00000000 		.4byte	.LFB111
 9411 0194 28000000 		.4byte	.LFE111
 9412 0198 00000000 		.4byte	.LFB112
 9413 019c 3C000000 		.4byte	.LFE112
 9414 01a0 00000000 		.4byte	.LFB113
 9415 01a4 B8010000 		.4byte	.LFE113
 9416 01a8 00000000 		.4byte	.LFB114
 9417 01ac 24020000 		.4byte	.LFE114
 9418 01b0 00000000 		.4byte	.LFB115
 9419 01b4 C4000000 		.4byte	.LFE115
 9420 01b8 00000000 		.4byte	.LFB116
 9421 01bc 22000000 		.4byte	.LFE116
 9422 01c0 00000000 		.4byte	.LFB117
 9423 01c4 F4000000 		.4byte	.LFE117
 9424 01c8 00000000 		.4byte	0
 9425 01cc 00000000 		.4byte	0
 9426              		.section	.debug_line,"",%progbits
 9427              	.Ldebug_line0:
 9428 0000 AA090000 		.section	.debug_str,"MS",%progbits,1
 9428      02000102 
 9428      00000201 
 9428      FB0E0D00 
 9428      01010101 
 9429              	.LASF138:
 9430 0000 68616D66 		.ascii	"hamfly_gimbal_t\000"
 9430      6C795F67 
 9430      696D6261 
 9430      6C5F7400 
 9431              	.LASF47:
 9432 0010 67696D62 		.ascii	"gimbal_status1\000"
 9432      616C5F73 
 9432      74617475 
 9432      733100
 9433              	.LASF48:
 9434 001f 67696D62 		.ascii	"gimbal_status2\000"
 9434      616C5F73 
 9434      74617475 
 9434      733200
 9435              	.LASF228:
 9436 002e 7472616E 		.ascii	"transition\000"
 9436      73697469 
 9436      6F6E00
 9437              	.LASF108:
 9438 0039 73797365 		.ascii	"sysecho_valid\000"
 9438      63686F5F 
 9438      76616C69 
 9438      6400
 9439              	.LASF23:
ARM GAS  C:\Users\JENNEW~1\AppData\Local\Temp\ccEqAB2L.s 			page 188


 9440 0047 73697A65 		.ascii	"sizetype\000"
 9440      74797065 
 9440      00
 9441              	.LASF225:
 9442 0050 6170705F 		.ascii	"app_telem_tick\000"
 9442      74656C65 
 9442      6D5F7469 
 9442      636B00
 9443              	.LASF115:
 9444 005f 7461696C 		.ascii	"tail\000"
 9444      00
 9445              	.LASF247:
 9446 0064 6770735F 		.ascii	"gps_elev_deg\000"
 9446      656C6576 
 9446      5F646567 
 9446      00
 9447              	.LASF230:
 9448 0071 656E7472 		.ascii	"entry_stby_hold\000"
 9448      795F7374 
 9448      62795F68 
 9448      6F6C6400 
 9449              	.LASF152:
 9450 0081 4155544F 		.ascii	"AUTO_HOME\000"
 9450      5F484F4D 
 9450      4500
 9451              	.LASF179:
 9452 008b 6770735F 		.ascii	"gps_new_target\000"
 9452      6E65775F 
 9452      74617267 
 9452      657400
 9453              	.LASF132:
 9454 009a 70656E64 		.ascii	"pending_sent_ms\000"
 9454      696E675F 
 9454      73656E74 
 9454      5F6D7300 
 9455              	.LASF271:
 9456 00aa 656E7472 		.ascii	"entry_auto_loss\000"
 9456      795F6175 
 9456      746F5F6C 
 9456      6F737300 
 9457              	.LASF144:
 9458 00ba 524F4F54 		.ascii	"ROOT\000"
 9458      00
 9459              	.LASF17:
 9460 00bf 696E7433 		.ascii	"int32_t\000"
 9460      325F7400 
 9461              	.LASF211:
 9462 00c7 7061796C 		.ascii	"payload_state_req_t\000"
 9462      6F61645F 
 9462      73746174 
 9462      655F7265 
 9462      715F7400 
 9463              	.LASF222:
 9464 00db 70617468 		.ascii	"path\000"
 9464      00
 9465              	.LASF186:
 9466 00e0 6770735F 		.ascii	"gps_last_sample_ms\000"
ARM GAS  C:\Users\JENNEW~1\AppData\Local\Temp\ccEqAB2L.s 			page 189


 9466      6C617374 
 9466      5F73616D 
 9466      706C655F 
 9466      6D7300
 9467              	.LASF288:
 9468 00f3 6170705F 		.ascii	"app_state_name\000"
 9468      73746174 
 9468      655F6E61 
 9468      6D6500
 9469              	.LASF275:
 9470 0102 7365765F 		.ascii	"sev_str\000"
 9470      73747200 
 9471              	.LASF165:
 9472 010a 6572725F 		.ascii	"err_sev_t\000"
 9472      7365765F 
 9472      7400
 9473              	.LASF72:
 9474 0114 6174745F 		.ascii	"att_pitch_deg\000"
 9474      70697463 
 9474      685F6465 
 9474      6700
 9475              	.LASF133:
 9476 0122 70656E64 		.ascii	"pending_ready\000"
 9476      696E675F 
 9476      72656164 
 9476      7900
 9477              	.LASF177:
 9478 0130 6770735F 		.ascii	"gps_target_alt_mm\000"
 9478      74617267 
 9478      65745F61 
 9478      6C745F6D 
 9478      6D00
 9479              	.LASF36:
 9480 0142 68616D66 		.ascii	"hamfly_control_t\000"
 9480      6C795F63 
 9480      6F6E7472 
 9480      6F6C5F74 
 9480      00
 9481              	.LASF85:
 9482 0153 666C6167 		.ascii	"flag_gps_locked\000"
 9482      5F677073 
 9482      5F6C6F63 
 9482      6B656400 
 9483              	.LASF172:
 9484 0163 6374726C 		.ascii	"ctrl_mode\000"
 9484      5F6D6F64 
 9484      6500
 9485              	.LASF167:
 9486 016d 73746174 		.ascii	"state\000"
 9486      6500
 9487              	.LASF212:
 9488 0173 6C61745F 		.ascii	"lat_raw\000"
 9488      72617700 
 9489              	.LASF197:
 9490 017b 73656E73 		.ascii	"sense\000"
 9490      6500
 9491              	.LASF64:
ARM GAS  C:\Users\JENNEW~1\AppData\Local\Temp\ccEqAB2L.s 			page 190


 9492 0181 6770735F 		.ascii	"gps_raw_hacc\000"
 9492      7261775F 
 9492      68616363 
 9492      00
 9493              	.LASF49:
 9494 018e 6770735F 		.ascii	"gps_valid\000"
 9494      76616C69 
 9494      6400
 9495              	.LASF155:
 9496 0198 4155544F 		.ascii	"AUTO_TRACKING\000"
 9496      5F545241 
 9496      434B494E 
 9496      4700
 9497              	.LASF163:
 9498 01a6 5345565F 		.ascii	"SEV_SOFTWARE\000"
 9498      534F4654 
 9498      57415245 
 9498      00
 9499              	.LASF96:
 9500 01b3 73797373 		.ascii	"sysstat_batt_a\000"
 9500      7461745F 
 9500      62617474 
 9500      5F6100
 9501              	.LASF295:
 9502 01c2 6E756467 		.ascii	"nudge_apply\000"
 9502      655F6170 
 9502      706C7900 
 9503              	.LASF44:
 9504 01ce 67696D62 		.ascii	"gimbal_i\000"
 9504      616C5F69 
 9504      00
 9505              	.LASF45:
 9506 01d7 67696D62 		.ascii	"gimbal_j\000"
 9506      616C5F6A 
 9506      00
 9507              	.LASF2:
 9508 01e0 5F5F7569 		.ascii	"__uint8_t\000"
 9508      6E74385F 
 9508      7400
 9509              	.LASF86:
 9510 01ea 73797373 		.ascii	"sysstat_batt_v\000"
 9510      7461745F 
 9510      62617474 
 9510      5F7600
 9511              	.LASF43:
 9512 01f9 67696D62 		.ascii	"gimbal_r\000"
 9512      616C5F72 
 9512      00
 9513              	.LASF255:
 9514 0202 74616C74 		.ascii	"talt\000"
 9514      00
 9515              	.LASF119:
 9516 0207 74785F62 		.ascii	"tx_bytes\000"
 9516      79746573 
 9516      00
 9517              	.LASF123:
 9518 0210 72786275 		.ascii	"rxbuf_drops\000"
ARM GAS  C:\Users\JENNEW~1\AppData\Local\Temp\ccEqAB2L.s 			page 191


 9518      665F6472 
 9518      6F707300 
 9519              	.LASF51:
 9520 021c 6770735F 		.ascii	"gps_lat_deg\000"
 9520      6C61745F 
 9520      64656700 
 9521              	.LASF231:
 9522 0228 656E7472 		.ascii	"entry_manu_joystick\000"
 9522      795F6D61 
 9522      6E755F6A 
 9522      6F797374 
 9522      69636B00 
 9523              	.LASF8:
 9524 023c 6C6F6E67 		.ascii	"long int\000"
 9524      20696E74 
 9524      00
 9525              	.LASF192:
 9526 0245 6F726967 		.ascii	"origin_set\000"
 9526      696E5F73 
 9526      657400
 9527              	.LASF65:
 9528 0250 6770735F 		.ascii	"gps_raw_vacc\000"
 9528      7261775F 
 9528      76616363 
 9528      00
 9529              	.LASF153:
 9530 025d 4155544F 		.ascii	"AUTO_ACQ_GPS\000"
 9530      5F414351 
 9530      5F475053 
 9530      00
 9531              	.LASF136:
 9532 026a 70656E64 		.ascii	"pending_payload\000"
 9532      696E675F 
 9532      7061796C 
 9532      6F616400 
 9533              	.LASF97:
 9534 027a 73797373 		.ascii	"sysstat_charge_mah\000"
 9534      7461745F 
 9534      63686172 
 9534      67655F6D 
 9534      616800
 9535              	.LASF129:
 9536 028d 74786275 		.ascii	"txbuf\000"
 9536      6600
 9537              	.LASF46:
 9538 0293 67696D62 		.ascii	"gimbal_k\000"
 9538      616C5F6B 
 9538      00
 9539              	.LASF88:
 9540 029c 73797373 		.ascii	"sysstat_temp_c\000"
 9540      7461745F 
 9540      74656D70 
 9540      5F6300
 9541              	.LASF188:
 9542 02ab 74726163 		.ascii	"track_cx_last\000"
 9542      6B5F6378 
 9542      5F6C6173 
ARM GAS  C:\Users\JENNEW~1\AppData\Local\Temp\ccEqAB2L.s 			page 192


 9542      7400
 9543              	.LASF114:
 9544 02b9 68656164 		.ascii	"head\000"
 9544      00
 9545              	.LASF162:
 9546 02be 5345565F 		.ascii	"SEV_WARN\000"
 9546      5741524E 
 9546      00
 9547              	.LASF180:
 9548 02c7 6770735F 		.ascii	"gps_work_lat_raw\000"
 9548      776F726B 
 9548      5F6C6174 
 9548      5F726177 
 9548      00
 9549              	.LASF53:
 9550 02d8 6770735F 		.ascii	"gps_alt_m\000"
 9550      616C745F 
 9550      6D00
 9551              	.LASF182:
 9552 02e2 6770735F 		.ascii	"gps_work_alt_mm\000"
 9552      776F726B 
 9552      5F616C74 
 9552      5F6D6D00 
 9553              	.LASF0:
 9554 02f2 7369676E 		.ascii	"signed char\000"
 9554      65642063 
 9554      68617200 
 9555              	.LASF14:
 9556 02fe 75696E74 		.ascii	"uint8_t\000"
 9556      385F7400 
 9557              	.LASF249:
 9558 0306 616C7432 		.ascii	"alt2_m\000"
 9558      5F6D00
 9559              	.LASF279:
 9560 030d 74696C74 		.ascii	"tilt_deg\000"
 9560      5F646567 
 9560      00
 9561              	.LASF168:
 9562 0316 70726576 		.ascii	"prev_leaf\000"
 9562      5F6C6561 
 9562      6600
 9563              	.LASF303:
 9564 0320 6F6E5F65 		.ascii	"on_entry\000"
 9564      6E747279 
 9564      00
 9565              	.LASF166:
 9566 0329 67696D62 		.ascii	"gimbal\000"
 9566      616C00
 9567              	.LASF305:
 9568 0330 6F6E5F6B 		.ascii	"on_key\000"
 9568      657900
 9569              	.LASF117:
 9570 0337 68616D66 		.ascii	"hamfly_rb_t\000"
 9570      6C795F72 
 9570      625F7400 
 9571              	.LASF229:
 9572 0343 656E7472 		.ascii	"entry_stby_defer\000"
ARM GAS  C:\Users\JENNEW~1\AppData\Local\Temp\ccEqAB2L.s 			page 193


 9572      795F7374 
 9572      62795F64 
 9572      65666572 
 9572      00
 9573              	.LASF1:
 9574 0354 756E7369 		.ascii	"unsigned char\000"
 9574      676E6564 
 9574      20636861 
 9574      7200
 9575              	.LASF157:
 9576 0362 4155544F 		.ascii	"AUTO_NO_LOCK\000"
 9576      5F4E4F5F 
 9576      4C4F434B 
 9576      00
 9577              	.LASF120:
 9578 036f 72785F70 		.ascii	"rx_packets\000"
 9578      61636B65 
 9578      747300
 9579              	.LASF201:
 9580 037a 6E756467 		.ascii	"nudge_base_pan_deg\000"
 9580      655F6261 
 9580      73655F70 
 9580      616E5F64 
 9580      656700
 9581              	.LASF150:
 9582 038d 53544259 		.ascii	"STBY_HOLD\000"
 9582      5F484F4C 
 9582      4400
 9583              	.LASF156:
 9584 0397 4155544F 		.ascii	"AUTO_LOSS\000"
 9584      5F4C4F53 
 9584      5300
 9585              	.LASF112:
 9586 03a1 5F426F6F 		.ascii	"_Bool\000"
 9586      6C00
 9587              	.LASF25:
 9588 03a7 48414D46 		.ascii	"HAMFLY_RATE\000"
 9588      4C595F52 
 9588      41544500 
 9589              	.LASF205:
 9590 03b3 6170705F 		.ascii	"app_ctx_t\000"
 9590      6374785F 
 9590      7400
 9591              	.LASF256:
 9592 03bd 6770735F 		.ascii	"gps_check_settle\000"
 9592      63686563 
 9592      6B5F7365 
 9592      74746C65 
 9592      00
 9593              	.LASF299:
 9594 03ce 6170705F 		.ascii	"app_manual_tick\000"
 9594      6D616E75 
 9594      616C5F74 
 9594      69636B00 
 9595              	.LASF21:
 9596 03de 63686172 		.ascii	"char\000"
 9596      00
ARM GAS  C:\Users\JENNEW~1\AppData\Local\Temp\ccEqAB2L.s 			page 194


 9597              	.LASF71:
 9598 03e3 6174745F 		.ascii	"att_timestamp_ms\000"
 9598      74696D65 
 9598      7374616D 
 9598      705F6D73 
 9598      00
 9599              	.LASF74:
 9600 03f4 6174745F 		.ascii	"att_roll_deg\000"
 9600      726F6C6C 
 9600      5F646567 
 9600      00
 9601              	.LASF84:
 9602 0401 666C6167 		.ascii	"flag_radio_los\000"
 9602      5F726164 
 9602      696F5F6C 
 9602      6F7300
 9603              	.LASF227:
 9604 0410 6C617374 		.ascii	"last_link_ms\000"
 9604      5F6C696E 
 9604      6B5F6D73 
 9604      00
 9605              	.LASF304:
 9606 041d 6F6E5F65 		.ascii	"on_exit\000"
 9606      78697400 
 9607              	.LASF5:
 9608 0425 5F5F7569 		.ascii	"__uint16_t\000"
 9608      6E743136 
 9608      5F7400
 9609              	.LASF102:
 9610 0430 6D61675F 		.ascii	"mag_magnitude\000"
 9610      6D61676E 
 9610      69747564 
 9610      6500
 9611              	.LASF178:
 9612 043e 6770735F 		.ascii	"gps_target_set\000"
 9612      74617267 
 9612      65745F73 
 9612      657400
 9613              	.LASF98:
 9614 044d 6D61675F 		.ascii	"mag_valid\000"
 9614      76616C69 
 9614      6400
 9615              	.LASF240:
 9616 0457 6B65795F 		.ascii	"key_auto_home\000"
 9616      6175746F 
 9616      5F686F6D 
 9616      6500
 9617              	.LASF184:
 9618 0465 6770735F 		.ascii	"gps_last_pan_deg\000"
 9618      6C617374 
 9618      5F70616E 
 9618      5F646567 
 9618      00
 9619              	.LASF309:
 9620 0476 675F7469 		.ascii	"g_tick_ms\000"
 9620      636B5F6D 
 9620      7300
ARM GAS  C:\Users\JENNEW~1\AppData\Local\Temp\ccEqAB2L.s 			page 195


 9621              	.LASF42:
 9622 0480 62617474 		.ascii	"battery_right_v\000"
 9622      6572795F 
 9622      72696768 
 9622      745F7600 
 9623              	.LASF140:
 9624 0490 53454E53 		.ascii	"SENSE_MED\000"
 9624      455F4D45 
 9624      4400
 9625              	.LASF235:
 9626 049a 656C6170 		.ascii	"elapsed\000"
 9626      73656400 
 9627              	.LASF297:
 9628 04a2 6474696C 		.ascii	"dtilt_deg\000"
 9628      745F6465 
 9628      6700
 9629              	.LASF83:
 9630 04ac 666C6167 		.ascii	"flag_gps_los\000"
 9630      5F677073 
 9630      5F6C6F73 
 9630      00
 9631              	.LASF76:
 9632 04b9 6174745F 		.ascii	"att_yaw_rate_dps\000"
 9632      7961775F 
 9632      72617465 
 9632      5F647073 
 9632      00
 9633              	.LASF125:
 9634 04ca 68616D66 		.ascii	"hamfly_statistics_t\000"
 9634      6C795F73 
 9634      74617469 
 9634      73746963 
 9634      735F7400 
 9635              	.LASF232:
 9636 04de 65786974 		.ascii	"exit_manu_joystick\000"
 9636      5F6D616E 
 9636      755F6A6F 
 9636      79737469 
 9636      636B00
 9637              	.LASF54:
 9638 04f1 6770735F 		.ascii	"gps_ground_spd_ms\000"
 9638      67726F75 
 9638      6E645F73 
 9638      70645F6D 
 9638      7300
 9639              	.LASF282:
 9640 0503 7072696E 		.ascii	"print_help\000"
 9640      745F6865 
 9640      6C7000
 9641              	.LASF91:
 9642 050e 73797373 		.ascii	"sysstat_time_s\000"
 9642      7461745F 
 9642      74696D65 
 9642      5F7300
 9643              	.LASF307:
 9644 051d 73746174 		.ascii	"state_names\000"
 9644      655F6E61 
ARM GAS  C:\Users\JENNEW~1\AppData\Local\Temp\ccEqAB2L.s 			page 196


 9644      6D657300 
 9645              	.LASF122:
 9646 0529 72785F62 		.ascii	"rx_bad_checksum\000"
 9646      61645F63 
 9646      6865636B 
 9646      73756D00 
 9647              	.LASF57:
 9648 0539 6770735F 		.ascii	"gps_vacc_m\000"
 9648      76616363 
 9648      5F6D00
 9649              	.LASF62:
 9650 0544 6770735F 		.ascii	"gps_raw_spd\000"
 9650      7261775F 
 9650      73706400 
 9651              	.LASF124:
 9652 0550 75617274 		.ascii	"uart_err_flags\000"
 9652      5F657272 
 9652      5F666C61 
 9652      677300
 9653              	.LASF134:
 9654 055f 70656E64 		.ascii	"pending_response_attr\000"
 9654      696E675F 
 9654      72657370 
 9654      6F6E7365 
 9654      5F617474 
 9655              	.LASF87:
 9656 0575 73797373 		.ascii	"sysstat_gps_sats\000"
 9656      7461745F 
 9656      6770735F 
 9656      73617473 
 9656      00
 9657              	.LASF70:
 9658 0586 6174745F 		.ascii	"att_valid\000"
 9658      76616C69 
 9658      6400
 9659              	.LASF191:
 9660 0590 6F726967 		.ascii	"origin_tilt_deg\000"
 9660      696E5F74 
 9660      696C745F 
 9660      64656700 
 9661              	.LASF269:
 9662 05a0 63785F6D 		.ascii	"cx_mrad\000"
 9662      72616400 
 9663              	.LASF161:
 9664 05a8 5345565F 		.ascii	"SEV_USER\000"
 9664      55534552 
 9664      00
 9665              	.LASF221:
 9666 05b1 636F6D6D 		.ascii	"common\000"
 9666      6F6E00
 9667              	.LASF130:
 9668 05b8 67696D62 		.ascii	"gimbal_id\000"
 9668      616C5F69 
 9668      6400
 9669              	.LASF245:
 9670 05c2 6C617432 		.ascii	"lat2\000"
 9670      00
ARM GAS  C:\Users\JENNEW~1\AppData\Local\Temp\ccEqAB2L.s 			page 197


 9671              	.LASF224:
 9672 05c7 6170705F 		.ascii	"app_raise_error\000"
 9672      72616973 
 9672      655F6572 
 9672      726F7200 
 9673              	.LASF104:
 9674 05d7 6D61675F 		.ascii	"mag_off_x\000"
 9674      6F66665F 
 9674      7800
 9675              	.LASF105:
 9676 05e1 6D61675F 		.ascii	"mag_off_y\000"
 9676      6F66665F 
 9676      7900
 9677              	.LASF106:
 9678 05eb 6D61675F 		.ascii	"mag_off_z\000"
 9678      6F66665F 
 9678      7A00
 9679              	.LASF193:
 9680 05f5 6C617374 		.ascii	"last_tx_ms\000"
 9680      5F74785F 
 9680      6D7300
 9681              	.LASF58:
 9682 0600 6770735F 		.ascii	"gps_sacc_ms\000"
 9682      73616363 
 9682      5F6D7300 
 9683              	.LASF169:
 9684 060c 6572725F 		.ascii	"err_sev\000"
 9684      73657600 
 9685              	.LASF111:
 9686 0614 73797365 		.ascii	"sysecho_imu_rate\000"
 9686      63686F5F 
 9686      696D755F 
 9686      72617465 
 9686      00
 9687              	.LASF287:
 9688 0625 6261636B 		.ascii	"back\000"
 9688      00
 9689              	.LASF276:
 9690 062a 656E7472 		.ascii	"entry_error_active\000"
 9690      795F6572 
 9690      726F725F 
 9690      61637469 
 9690      766500
 9691              	.LASF10:
 9692 063d 6C6F6E67 		.ascii	"long unsigned int\000"
 9692      20756E73 
 9692      69676E65 
 9692      6420696E 
 9692      7400
 9693              	.LASF220:
 9694 064f 74617267 		.ascii	"target\000"
 9694      657400
 9695              	.LASF56:
 9696 0656 6770735F 		.ascii	"gps_hacc_m\000"
 9696      68616363 
 9696      5F6D00
 9697              	.LASF92:
ARM GAS  C:\Users\JENNEW~1\AppData\Local\Temp\ccEqAB2L.s 			page 198


 9698 0661 73797373 		.ascii	"sysstat_pressure_mb\000"
 9698      7461745F 
 9698      70726573 
 9698      73757265 
 9698      5F6D6200 
 9699              	.LASF254:
 9700 0675 746C6F6E 		.ascii	"tlon\000"
 9700      00
 9701              	.LASF208:
 9702 067a 63796572 		.ascii	"cyerr\000"
 9702      7200
 9703              	.LASF113:
 9704 0680 68616D66 		.ascii	"hamfly_telemetry_t\000"
 9704      6C795F74 
 9704      656C656D 
 9704      65747279 
 9704      5F7400
 9705              	.LASF110:
 9706 0693 73797365 		.ascii	"sysecho_pressure_mb\000"
 9706      63686F5F 
 9706      70726573 
 9706      73757265 
 9706      5F6D6200 
 9707              	.LASF148:
 9708 06a7 4552524F 		.ascii	"ERROR\000"
 9708      5200
 9709              	.LASF59:
 9710 06ad 6770735F 		.ascii	"gps_raw_lat\000"
 9710      7261775F 
 9710      6C617400 
 9711              	.LASF37:
 9712 06b9 75617274 		.ascii	"uart_putc\000"
 9712      5F707574 
 9712      6300
 9713              	.LASF203:
 9714 06c3 7467745F 		.ascii	"tgt_pan_deg\000"
 9714      70616E5F 
 9714      64656700 
 9715              	.LASF80:
 9716 06cf 6174745F 		.ascii	"att_yaw_err_deg\000"
 9716      7961775F 
 9716      6572725F 
 9716      64656700 
 9717              	.LASF139:
 9718 06df 53454E53 		.ascii	"SENSE_LOW\000"
 9718      455F4C4F 
 9718      5700
 9719              	.LASF95:
 9720 06e9 73797373 		.ascii	"sysstat_imu_latency\000"
 9720      7461745F 
 9720      696D755F 
 9720      6C617465 
 9720      6E637900 
 9721              	.LASF257:
 9722 06fd 73706565 		.ascii	"speed_dps\000"
 9722      645F6470 
 9722      7300
ARM GAS  C:\Users\JENNEW~1\AppData\Local\Temp\ccEqAB2L.s 			page 199


 9723              	.LASF75:
 9724 0707 6174745F 		.ascii	"att_pitch_rate_dps\000"
 9724      70697463 
 9724      685F7261 
 9724      74655F64 
 9724      707300
 9725              	.LASF280:
 9726 071a 726F6C6C 		.ascii	"roll_deg\000"
 9726      5F646567 
 9726      00
 9727              	.LASF310:
 9728 0723 474E5520 		.ascii	"GNU C11 5.4.1 20160609 (release) [ARM/embedded-5-br"
 9728      43313120 
 9728      352E342E 
 9728      31203230 
 9728      31363036 
 9729 0756 616E6368 		.ascii	"anch revision 237715] -mcpu=cortex-m3 -mthumb -g -O"
 9729      20726576 
 9729      6973696F 
 9729      6E203233 
 9729      37373135 
 9730 0789 30202D66 		.ascii	"0 -ffunction-sections -ffat-lto-objects\000"
 9730      66756E63 
 9730      74696F6E 
 9730      2D736563 
 9730      74696F6E 
 9731              	.LASF267:
 9732 07b1 6B65795F 		.ascii	"key_auto_tracking\000"
 9732      6175746F 
 9732      5F747261 
 9732      636B696E 
 9732      6700
 9733              	.LASF128:
 9734 07c3 72786275 		.ascii	"rxbuf\000"
 9734      6600
 9735              	.LASF159:
 9736 07c9 53544154 		.ascii	"STATE_COUNT\000"
 9736      455F434F 
 9736      554E5400 
 9737              	.LASF9:
 9738 07d5 5F5F7569 		.ascii	"__uint32_t\000"
 9738      6E743332 
 9738      5F7400
 9739              	.LASF41:
 9740 07e0 62617474 		.ascii	"battery_left_v\000"
 9740      6572795F 
 9740      6C656674 
 9740      5F7600
 9741              	.LASF11:
 9742 07ef 6C6F6E67 		.ascii	"long long int\000"
 9742      206C6F6E 
 9742      6720696E 
 9742      7400
 9743              	.LASF28:
 9744 07fd 68616D66 		.ascii	"hamfly_control_mode_t\000"
 9744      6C795F63 
 9744      6F6E7472 
ARM GAS  C:\Users\JENNEW~1\AppData\Local\Temp\ccEqAB2L.s 			page 200


 9744      6F6C5F6D 
 9744      6F64655F 
 9745              	.LASF79:
 9746 0813 6174745F 		.ascii	"att_pitch_err_deg\000"
 9746      70697463 
 9746      685F6572 
 9746      725F6465 
 9746      6700
 9747              	.LASF273:
 9748 0825 656E7472 		.ascii	"entry_auto_no_lock\000"
 9748      795F6175 
 9748      746F5F6E 
 9748      6F5F6C6F 
 9748      636B00
 9749              	.LASF55:
 9750 0838 6770735F 		.ascii	"gps_heading_deg\000"
 9750      68656164 
 9750      696E675F 
 9750      64656700 
 9751              	.LASF34:
 9752 0848 656E6162 		.ascii	"enable\000"
 9752      6C6500
 9753              	.LASF278:
 9754 084f 70616E5F 		.ascii	"pan_deg\000"
 9754      64656700 
 9755              	.LASF137:
 9756 0857 70656E64 		.ascii	"pending_payload_len\000"
 9756      696E675F 
 9756      7061796C 
 9756      6F61645F 
 9756      6C656E00 
 9757              	.LASF20:
 9758 086b 646F7562 		.ascii	"double\000"
 9758      6C6500
 9759              	.LASF171:
 9760 0872 66617461 		.ascii	"fatal_latched\000"
 9760      6C5F6C61 
 9760      74636865 
 9760      6400
 9761              	.LASF93:
 9762 0880 73797373 		.ascii	"sysstat_imu_rate\000"
 9762      7461745F 
 9762      696D755F 
 9762      72617465 
 9762      00
 9763              	.LASF242:
 9764 0891 6770735F 		.ascii	"gps_bearing_deg\000"
 9764      62656172 
 9764      696E675F 
 9764      64656700 
 9765              	.LASF308:
 9766 08a1 49544D5F 		.ascii	"ITM_RxBuffer\000"
 9766      52784275 
 9766      66666572 
 9766      00
 9767              	.LASF272:
 9768 08ae 6B65795F 		.ascii	"key_auto_loss\000"
ARM GAS  C:\Users\JENNEW~1\AppData\Local\Temp\ccEqAB2L.s 			page 201


 9768      6175746F 
 9768      5F6C6F73 
 9768      7300
 9769              	.LASF121:
 9770 08bc 72785F62 		.ascii	"rx_bytes\000"
 9770      79746573 
 9770      00
 9771              	.LASF19:
 9772 08c5 666C6F61 		.ascii	"float\000"
 9772      7400
 9773              	.LASF291:
 9774 08cb 6275696C 		.ascii	"build_stby\000"
 9774      645F7374 
 9774      627900
 9775              	.LASF217:
 9776 08d6 6B65795F 		.ascii	"key_fn_t\000"
 9776      666E5F74 
 9776      00
 9777              	.LASF258:
 9778 08df 636D645F 		.ascii	"cmd_pan_deg\000"
 9778      70616E5F 
 9778      64656700 
 9779              	.LASF13:
 9780 08eb 756E7369 		.ascii	"unsigned int\000"
 9780      676E6564 
 9780      20696E74 
 9780      00
 9781              	.LASF259:
 9782 08f8 636D645F 		.ascii	"cmd_tilt_deg\000"
 9782      74696C74 
 9782      5F646567 
 9782      00
 9783              	.LASF251:
 9784 0905 6770735F 		.ascii	"gps_start_slew\000"
 9784      73746172 
 9784      745F736C 
 9784      657700
 9785              	.LASF290:
 9786 0914 6275696C 		.ascii	"build_zero\000"
 9786      645F7A65 
 9786      726F00
 9787              	.LASF209:
 9788 091f 7061796C 		.ascii	"payload_centroid_t\000"
 9788      6F61645F 
 9788      63656E74 
 9788      726F6964 
 9788      5F7400
 9789              	.LASF274:
 9790 0932 6B65795F 		.ascii	"key_auto_no_lock\000"
 9790      6175746F 
 9790      5F6E6F5F 
 9790      6C6F636B 
 9790      00
 9791              	.LASF149:
 9792 0943 53544259 		.ascii	"STBY_DEFER\000"
 9792      5F444546 
 9792      455200
ARM GAS  C:\Users\JENNEW~1\AppData\Local\Temp\ccEqAB2L.s 			page 202


 9793              	.LASF33:
 9794 094e 726F6C6C 		.ascii	"roll_mode\000"
 9794      5F6D6F64 
 9794      6500
 9795              	.LASF261:
 9796 0958 656E7472 		.ascii	"entry_auto_acq_gps\000"
 9796      795F6175 
 9796      746F5F61 
 9796      63715F67 
 9796      707300
 9797              	.LASF302:
 9798 096b 70617265 		.ascii	"parent_of\000"
 9798      6E745F6F 
 9798      6600
 9799              	.LASF61:
 9800 0975 6770735F 		.ascii	"gps_raw_alt\000"
 9800      7261775F 
 9800      616C7400 
 9801              	.LASF239:
 9802 0981 65786974 		.ascii	"exit_auto_home\000"
 9802      5F617574 
 9802      6F5F686F 
 9802      6D6500
 9803              	.LASF141:
 9804 0990 53454E53 		.ascii	"SENSE_HIGH\000"
 9804      455F4849 
 9804      474800
 9805              	.LASF99:
 9806 099b 6D61675F 		.ascii	"mag_x\000"
 9806      7800
 9807              	.LASF100:
 9808 09a1 6D61675F 		.ascii	"mag_y\000"
 9808      7900
 9809              	.LASF101:
 9810 09a7 6D61675F 		.ascii	"mag_z\000"
 9810      7A00
 9811              	.LASF73:
 9812 09ad 6174745F 		.ascii	"att_yaw_deg\000"
 9812      7961775F 
 9812      64656700 
 9813              	.LASF244:
 9814 09b9 6C6F6E31 		.ascii	"lon1\000"
 9814      00
 9815              	.LASF246:
 9816 09be 6C6F6E32 		.ascii	"lon2\000"
 9816      00
 9817              	.LASF142:
 9818 09c3 6A6F795F 		.ascii	"joy_sensitivity_t\000"
 9818      73656E73 
 9818      69746976 
 9818      6974795F 
 9818      7400
 9819              	.LASF277:
 9820 09d5 6D616E75 		.ascii	"manu_pan_tilt_deg\000"
 9820      5F70616E 
 9820      5F74696C 
 9820      745F6465 
ARM GAS  C:\Users\JENNEW~1\AppData\Local\Temp\ccEqAB2L.s 			page 203


 9820      6700
 9821              	.LASF293:
 9822 09e7 6275696C 		.ascii	"build_error\000"
 9822      645F6572 
 9822      726F7200 
 9823              	.LASF26:
 9824 09f3 48414D46 		.ascii	"HAMFLY_ABSOLUTE\000"
 9824      4C595F41 
 9824      42534F4C 
 9824      55544500 
 9825              	.LASF250:
 9826 0a03 64697374 		.ascii	"dist_m\000"
 9826      5F6D00
 9827              	.LASF281:
 9828 0a0a 7365745F 		.ascii	"set_origin\000"
 9828      6F726967 
 9828      696E00
 9829              	.LASF22:
 9830 0a15 6C6F6E67 		.ascii	"long double\000"
 9830      20646F75 
 9830      626C6500 
 9831              	.LASF66:
 9832 0a21 6770735F 		.ascii	"gps_raw_sacc\000"
 9832      7261775F 
 9832      73616363 
 9832      00
 9833              	.LASF126:
 9834 0a2e 74656C65 		.ascii	"telemetry\000"
 9834      6D657472 
 9834      7900
 9835              	.LASF200:
 9836 0a38 6E756467 		.ascii	"nudge_start_ms\000"
 9836      655F7374 
 9836      6172745F 
 9836      6D7300
 9837              	.LASF146:
 9838 0a47 4D414E55 		.ascii	"MANU\000"
 9838      00
 9839              	.LASF77:
 9840 0a4c 6174745F 		.ascii	"att_roll_rate_dps\000"
 9840      726F6C6C 
 9840      5F726174 
 9840      655F6470 
 9840      7300
 9841              	.LASF39:
 9842 0a5e 68616D66 		.ascii	"hamfly_hal_t\000"
 9842      6C795F68 
 9842      616C5F74 
 9842      00
 9843              	.LASF154:
 9844 0a6b 4155544F 		.ascii	"AUTO_ACQ_SPIRAL\000"
 9844      5F414351 
 9844      5F535049 
 9844      52414C00 
 9845              	.LASF218:
 9846 0a7b 6275696C 		.ascii	"build_fn_t\000"
 9846      645F666E 
ARM GAS  C:\Users\JENNEW~1\AppData\Local\Temp\ccEqAB2L.s 			page 204


 9846      5F7400
 9847              	.LASF286:
 9848 0a86 6B65795F 		.ascii	"key_error_active\000"
 9848      6572726F 
 9848      725F6163 
 9848      74697665 
 9848      00
 9849              	.LASF210:
 9850 0a97 72657175 		.ascii	"requested_state\000"
 9850      65737465 
 9850      645F7374 
 9850      61746500 
 9851              	.LASF78:
 9852 0aa7 6174745F 		.ascii	"att_roll_err_deg\000"
 9852      726F6C6C 
 9852      5F657272 
 9852      5F646567 
 9852      00
 9853              	.LASF31:
 9854 0ab8 70616E5F 		.ascii	"pan_mode\000"
 9854      6D6F6465 
 9854      00
 9855              	.LASF234:
 9856 0ac1 6170705F 		.ascii	"app_auto_tick\000"
 9856      6175746F 
 9856      5F746963 
 9856      6B00
 9857              	.LASF175:
 9858 0acf 6770735F 		.ascii	"gps_target_lat_raw\000"
 9858      74617267 
 9858      65745F6C 
 9858      61745F72 
 9858      617700
 9859              	.LASF298:
 9860 0ae2 6B65795F 		.ascii	"key_manu_joystick\000"
 9860      6D616E75 
 9860      5F6A6F79 
 9860      73746963 
 9860      6B00
 9861              	.LASF12:
 9862 0af4 6C6F6E67 		.ascii	"long long unsigned int\000"
 9862      206C6F6E 
 9862      6720756E 
 9862      7369676E 
 9862      65642069 
 9863              	.LASF27:
 9864 0b0b 48414D46 		.ascii	"HAMFLY_ABSOLUTE_MAJESTIC\000"
 9864      4C595F41 
 9864      42534F4C 
 9864      5554455F 
 9864      4D414A45 
 9865              	.LASF90:
 9866 0b24 73797373 		.ascii	"sysstat_status_flags\000"
 9866      7461745F 
 9866      73746174 
 9866      75735F66 
 9866      6C616773 
ARM GAS  C:\Users\JENNEW~1\AppData\Local\Temp\ccEqAB2L.s 			page 205


 9867              	.LASF151:
 9868 0b39 4D414E55 		.ascii	"MANU_JOYSTICK\000"
 9868      5F4A4F59 
 9868      53544943 
 9868      4B00
 9869              	.LASF16:
 9870 0b47 75696E74 		.ascii	"uint16_t\000"
 9870      31365F74 
 9870      00
 9871              	.LASF170:
 9872 0b50 6572725F 		.ascii	"err_msg\000"
 9872      6D736700 
 9873              	.LASF248:
 9874 0b58 616C7431 		.ascii	"alt1_m\000"
 9874      5F6D00
 9875              	.LASF164:
 9876 0b5f 5345565F 		.ascii	"SEV_FATAL\000"
 9876      46415441 
 9876      4C00
 9877              	.LASF198:
 9878 0b69 696E7665 		.ascii	"invert_mask\000"
 9878      72745F6D 
 9878      61736B00 
 9879              	.LASF263:
 9880 0b75 6B65795F 		.ascii	"key_auto_acq_gps\000"
 9880      6175746F 
 9880      5F616371 
 9880      5F677073 
 9880      00
 9881              	.LASF81:
 9882 0b86 73797373 		.ascii	"sysstat_valid\000"
 9882      7461745F 
 9882      76616C69 
 9882      6400
 9883              	.LASF69:
 9884 0b94 6261726F 		.ascii	"baro_roc_ms\000"
 9884      5F726F63 
 9884      5F6D7300 
 9885              	.LASF265:
 9886 0ba0 656E7472 		.ascii	"entry_auto_acq_spiral\000"
 9886      795F6175 
 9886      746F5F61 
 9886      63715F73 
 9886      70697261 
 9887              	.LASF196:
 9888 0bb6 64696167 		.ascii	"diag_active\000"
 9888      5F616374 
 9888      69766500 
 9889              	.LASF264:
 9890 0bc2 6275696C 		.ascii	"build_auto_acq_gps\000"
 9890      645F6175 
 9890      746F5F61 
 9890      63715F67 
 9890      707300
 9891              	.LASF82:
 9892 0bd5 666C6167 		.ascii	"flag_compass_error\000"
 9892      5F636F6D 
ARM GAS  C:\Users\JENNEW~1\AppData\Local\Temp\ccEqAB2L.s 			page 206


 9892      70617373 
 9892      5F657272 
 9892      6F7200
 9893              	.LASF301:
 9894 0be8 6170705F 		.ascii	"app_sbc_tick\000"
 9894      7362635F 
 9894      7469636B 
 9894      00
 9895              	.LASF214:
 9896 0bf5 616C745F 		.ascii	"alt_mm\000"
 9896      6D6D00
 9897              	.LASF29:
 9898 0bfc 74696C74 		.ascii	"tilt\000"
 9898      00
 9899              	.LASF300:
 9900 0c01 7362635F 		.ascii	"sbc_state_is_requestable\000"
 9900      73746174 
 9900      655F6973 
 9900      5F726571 
 9900      75657374 
 9901              	.LASF284:
 9902 0c1a 6C656166 		.ascii	"leaf_traps_nav\000"
 9902      5F747261 
 9902      70735F6E 
 9902      617600
 9903              	.LASF63:
 9904 0c29 6770735F 		.ascii	"gps_raw_hdg\000"
 9904      7261775F 
 9904      68646700 
 9905              	.LASF3:
 9906 0c35 5F5F696E 		.ascii	"__int16_t\000"
 9906      7431365F 
 9906      7400
 9907              	.LASF135:
 9908 0c3f 70656E64 		.ascii	"pending_response_len\000"
 9908      696E675F 
 9908      72657370 
 9908      6F6E7365 
 9908      5F6C656E 
 9909              	.LASF94:
 9910 0c54 73797373 		.ascii	"sysstat_cam_status\000"
 9910      7461745F 
 9910      63616D5F 
 9910      73746174 
 9910      757300
 9911              	.LASF238:
 9912 0c67 656E7472 		.ascii	"entry_auto_home\000"
 9912      795F6175 
 9912      746F5F68 
 9912      6F6D6500 
 9913              	.LASF206:
 9914 0c77 745F6D73 		.ascii	"t_ms\000"
 9914      00
 9915              	.LASF116:
 9916 0c7c 64726F70 		.ascii	"drops\000"
 9916      7300
 9917              	.LASF223:
ARM GAS  C:\Users\JENNEW~1\AppData\Local\Temp\ccEqAB2L.s 			page 207


 9918 0c82 6170705F 		.ascii	"app_start\000"
 9918      73746172 
 9918      7400
 9919              	.LASF268:
 9920 0c8c 6275696C 		.ascii	"build_auto_tracking\000"
 9920      645F6175 
 9920      746F5F74 
 9920      7261636B 
 9920      696E6700 
 9921              	.LASF185:
 9922 0ca0 6770735F 		.ascii	"gps_last_tilt_deg\000"
 9922      6C617374 
 9922      5F74696C 
 9922      745F6465 
 9922      6700
 9923              	.LASF32:
 9924 0cb2 74696C74 		.ascii	"tilt_mode\000"
 9924      5F6D6F64 
 9924      6500
 9925              	.LASF226:
 9926 0cbc 6C617374 		.ascii	"last_hot_ms\000"
 9926      5F686F74 
 9926      5F6D7300 
 9927              	.LASF311:
 9928 0cc8 6170705F 		.ascii	"app_statemachine.c\000"
 9928      73746174 
 9928      656D6163 
 9928      68696E65 
 9928      2E6300
 9929              	.LASF306:
 9930 0cdb 6F6E5F62 		.ascii	"on_build\000"
 9930      75696C64 
 9930      00
 9931              	.LASF189:
 9932 0ce4 74726163 		.ascii	"track_cy_last\000"
 9932      6B5F6379 
 9932      5F6C6173 
 9932      7400
 9933              	.LASF187:
 9934 0cf2 74726163 		.ascii	"track_kp\000"
 9934      6B5F6B70 
 9934      00
 9935              	.LASF285:
 9936 0cfb 68616E64 		.ascii	"handle_nav_key\000"
 9936      6C655F6E 
 9936      61765F6B 
 9936      657900
 9937              	.LASF174:
 9938 0d0a 6162735F 		.ascii	"abs_tilt_target\000"
 9938      74696C74 
 9938      5F746172 
 9938      67657400 
 9939              	.LASF190:
 9940 0d1a 6F726967 		.ascii	"origin_pan_deg\000"
 9940      696E5F70 
 9940      616E5F64 
 9940      656700
ARM GAS  C:\Users\JENNEW~1\AppData\Local\Temp\ccEqAB2L.s 			page 208


 9941              	.LASF183:
 9942 0d29 6770735F 		.ascii	"gps_settled\000"
 9942      73657474 
 9942      6C656400 
 9943              	.LASF4:
 9944 0d35 73686F72 		.ascii	"short int\000"
 9944      7420696E 
 9944      7400
 9945              	.LASF147:
 9946 0d3f 4155544F 		.ascii	"AUTO\000"
 9946      00
 9947              	.LASF294:
 9948 0d44 6170705F 		.ascii	"app_build_control\000"
 9948      6275696C 
 9948      645F636F 
 9948      6E74726F 
 9948      6C00
 9949              	.LASF15:
 9950 0d56 696E7431 		.ascii	"int16_t\000"
 9950      365F7400 
 9951              	.LASF219:
 9952 0d5e 64657074 		.ascii	"depth_of\000"
 9952      685F6F66 
 9952      00
 9953              	.LASF176:
 9954 0d67 6770735F 		.ascii	"gps_target_lon_raw\000"
 9954      74617267 
 9954      65745F6C 
 9954      6F6E5F72 
 9954      617700
 9955              	.LASF50:
 9956 0d7a 6770735F 		.ascii	"gps_locked\000"
 9956      6C6F636B 
 9956      656400
 9957              	.LASF107:
 9958 0d85 6D61675F 		.ascii	"mag_declination\000"
 9958      6465636C 
 9958      696E6174 
 9958      696F6E00 
 9959              	.LASF24:
 9960 0d95 48414D46 		.ascii	"HAMFLY_DEFER\000"
 9960      4C595F44 
 9960      45464552 
 9960      00
 9961              	.LASF127:
 9962 0da2 73746174 		.ascii	"statistics\000"
 9962      69737469 
 9962      637300
 9963              	.LASF40:
 9964 0dad 76616C69 		.ascii	"valid\000"
 9964      6400
 9965              	.LASF67:
 9966 0db3 6261726F 		.ascii	"baro_valid\000"
 9966      5F76616C 
 9966      696400
 9967              	.LASF35:
 9968 0dbe 6B696C6C 		.ascii	"kill\000"
ARM GAS  C:\Users\JENNEW~1\AppData\Local\Temp\ccEqAB2L.s 			page 209


 9968      00
 9969              	.LASF158:
 9970 0dc3 4552524F 		.ascii	"ERROR_ACTIVE\000"
 9970      525F4143 
 9970      54495645 
 9970      00
 9971              	.LASF266:
 9972 0dd0 656E7472 		.ascii	"entry_auto_tracking\000"
 9972      795F6175 
 9972      746F5F74 
 9972      7261636B 
 9972      696E6700 
 9973              	.LASF194:
 9974 0de4 6C617374 		.ascii	"last_diag_ms\000"
 9974      5F646961 
 9974      675F6D73 
 9974      00
 9975              	.LASF118:
 9976 0df1 74785F70 		.ascii	"tx_packets\000"
 9976      61636B65 
 9976      747300
 9977              	.LASF283:
 9978 0dfc 68616E64 		.ascii	"handle_global_key\000"
 9978      6C655F67 
 9978      6C6F6261 
 9978      6C5F6B65 
 9978      7900
 9979              	.LASF204:
 9980 0e0e 7467745F 		.ascii	"tgt_tilt_deg\000"
 9980      74696C74 
 9980      5F646567 
 9980      00
 9981              	.LASF262:
 9982 0e1b 65786974 		.ascii	"exit_auto_acq_gps\000"
 9982      5F617574 
 9982      6F5F6163 
 9982      715F6770 
 9982      7300
 9983              	.LASF181:
 9984 0e2d 6770735F 		.ascii	"gps_work_lon_raw\000"
 9984      776F726B 
 9984      5F6C6F6E 
 9984      5F726177 
 9984      00
 9985              	.LASF213:
 9986 0e3e 6C6F6E5F 		.ascii	"lon_raw\000"
 9986      72617700 
 9987              	.LASF18:
 9988 0e46 75696E74 		.ascii	"uint32_t\000"
 9988      33325F74 
 9988      00
 9989              	.LASF131:
 9990 0e4f 70656E64 		.ascii	"pending_attr\000"
 9990      696E675F 
 9990      61747472 
 9990      00
 9991              	.LASF236:
ARM GAS  C:\Users\JENNEW~1\AppData\Local\Temp\ccEqAB2L.s 			page 210


 9992 0e5c 61727269 		.ascii	"arrived\000"
 9992      76656400 
 9993              	.LASF296:
 9994 0e64 6470616E 		.ascii	"dpan_deg\000"
 9994      5F646567 
 9994      00
 9995              	.LASF60:
 9996 0e6d 6770735F 		.ascii	"gps_raw_lon\000"
 9996      7261775F 
 9996      6C6F6E00 
 9997              	.LASF38:
 9998 0e79 6765745F 		.ascii	"get_tick_ms\000"
 9998      7469636B 
 9998      5F6D7300 
 9999              	.LASF292:
 10000 0e85 6275696C 		.ascii	"build_manu_joystick\000"
 10000      645F6D61 
 10000      6E755F6A 
 10000      6F797374 
 10000      69636B00 
 10001              	.LASF103:
 10002 0e99 6D61675F 		.ascii	"mag_freq\000"
 10002      66726571 
 10002      00
 10003              	.LASF6:
 10004 0ea2 73686F72 		.ascii	"short unsigned int\000"
 10004      7420756E 
 10004      7369676E 
 10004      65642069 
 10004      6E7400
 10005              	.LASF30:
 10006 0eb5 726F6C6C 		.ascii	"roll\000"
 10006      00
 10007              	.LASF160:
 10008 0eba 73746174 		.ascii	"state_t\000"
 10008      655F7400 
 10009              	.LASF241:
 10010 0ec2 6275696C 		.ascii	"build_auto_home\000"
 10010      645F6175 
 10010      746F5F68 
 10010      6F6D6500 
 10011              	.LASF252:
 10012 0ed2 6770735F 		.ascii	"gps_update_pointing\000"
 10012      75706461 
 10012      74655F70 
 10012      6F696E74 
 10012      696E6700 
 10013              	.LASF260:
 10014 0ee6 736C6F77 		.ascii	"slow\000"
 10014      00
 10015              	.LASF7:
 10016 0eeb 5F5F696E 		.ascii	"__int32_t\000"
 10016      7433325F 
 10016      7400
 10017              	.LASF89:
 10018 0ef5 73797373 		.ascii	"sysstat_cpu_pct\000"
 10018      7461745F 
ARM GAS  C:\Users\JENNEW~1\AppData\Local\Temp\ccEqAB2L.s 			page 211


 10018      6370755F 
 10018      70637400 
 10019              	.LASF173:
 10020 0f05 6162735F 		.ascii	"abs_pan_target\000"
 10020      70616E5F 
 10020      74617267 
 10020      657400
 10021              	.LASF109:
 10022 0f14 73797365 		.ascii	"sysecho_gps_locked\000"
 10022      63686F5F 
 10022      6770735F 
 10022      6C6F636B 
 10022      656400
 10023              	.LASF195:
 10024 0f27 73746174 		.ascii	"state_entry_ms\000"
 10024      655F656E 
 10024      7472795F 
 10024      6D7300
 10025              	.LASF68:
 10026 0f36 6261726F 		.ascii	"baro_alt_m\000"
 10026      5F616C74 
 10026      5F6D00
 10027              	.LASF233:
 10028 0f41 656E7472 		.ascii	"entry_auto_test\000"
 10028      795F6175 
 10028      746F5F74 
 10028      65737400 
 10029              	.LASF202:
 10030 0f51 6E756467 		.ascii	"nudge_base_tilt_deg\000"
 10030      655F6261 
 10030      73655F74 
 10030      696C745F 
 10030      64656700 
 10031              	.LASF216:
 10032 0f65 73746174 		.ascii	"state_fn_t\000"
 10032      655F666E 
 10032      5F7400
 10033              	.LASF52:
 10034 0f70 6770735F 		.ascii	"gps_lon_deg\000"
 10034      6C6F6E5F 
 10034      64656700 
 10035              	.LASF253:
 10036 0f7c 746C6174 		.ascii	"tlat\000"
 10036      00
 10037              	.LASF145:
 10038 0f81 53544259 		.ascii	"STBY\000"
 10038      00
 10039              	.LASF312:
 10040 0f86 433A5C55 		.ascii	"C:\\Users\\Jennewein\\Documents\\hamish-workspace\\"
 10040      73657273 
 10040      5C4A656E 
 10040      6E657765 
 10040      696E5C44 
 10041 0fb4 50536F43 		.ascii	"PSoC-Programs\\test_projects\\Proj07_hamflyAPI_stat"
 10041      2D50726F 
 10041      6772616D 
 10041      735C7465 
ARM GAS  C:\Users\JENNEW~1\AppData\Local\Temp\ccEqAB2L.s 			page 212


 10041      73745F70 
 10042 0fe5 654D6163 		.ascii	"eMachineUpgrade.cydsn\000"
 10042      68696E65 
 10042      55706772 
 10042      6164652E 
 10042      63796473 
 10043              	.LASF289:
 10044 0ffb 6170705F 		.ascii	"app_dispatch_key\000"
 10044      64697370 
 10044      61746368 
 10044      5F6B6579 
 10044      00
 10045              	.LASF215:
 10046 100c 7061796C 		.ascii	"payload_gps_target_t\000"
 10046      6F61645F 
 10046      6770735F 
 10046      74617267 
 10046      65745F74 
 10047              	.LASF270:
 10048 1021 63795F6D 		.ascii	"cy_mrad\000"
 10048      72616400 
 10049              	.LASF143:
 10050 1029 6A6F795F 		.ascii	"joy_cmd_t\000"
 10050      636D645F 
 10050      7400
 10051              	.LASF199:
 10052 1033 6E756467 		.ascii	"nudge_hold\000"
 10052      655F686F 
 10052      6C6400
 10053              	.LASF243:
 10054 103e 6C617431 		.ascii	"lat1\000"
 10054      00
 10055              	.LASF237:
 10056 1043 6C617374 		.ascii	"last_pt_ms\000"
 10056      5F70745F 
 10056      6D7300
 10057              	.LASF207:
 10058 104e 63786572 		.ascii	"cxerr\000"
 10058      7200
 10059              		.ident	"GCC: (GNU Tools for ARM Embedded Processors) 5.4.1 20160609 (release) [ARM/embedded-5-bran
