ARM GAS  C:\Users\JENNEW~1\AppData\Local\Temp\cc33Iuyf.s 			page 1


   1              		.syntax unified
   2              		.cpu cortex-m3
   3              		.fpu softvfp
   4              		.eabi_attribute 20, 1
   5              		.eabi_attribute 21, 1
   6              		.eabi_attribute 23, 3
   7              		.eabi_attribute 24, 1
   8              		.eabi_attribute 25, 1
   9              		.eabi_attribute 26, 1
  10              		.eabi_attribute 30, 6
  11              		.eabi_attribute 34, 1
  12              		.eabi_attribute 18, 4
  13              		.thumb
  14              		.syntax unified
  15              		.file	"app_statemachine.c"
  16              		.text
  17              	.Ltext0:
  18              		.cfi_sections	.debug_frame
  19              		.section	.rodata
  20              		.align	2
  21              		.type	parent_of, %object
  22              		.size	parent_of, 15
  23              	parent_of:
  24 0000 00       		.byte	0
  25 0001 00       		.byte	0
  26 0002 00       		.byte	0
  27 0003 00       		.byte	0
  28 0004 00       		.byte	0
  29 0005 01       		.byte	1
  30 0006 01       		.byte	1
  31 0007 02       		.byte	2
  32 0008 03       		.byte	3
  33 0009 03       		.byte	3
  34 000a 03       		.byte	3
  35 000b 03       		.byte	3
  36 000c 03       		.byte	3
  37 000d 03       		.byte	3
  38 000e 04       		.byte	4
  39 000f 00       		.align	2
  40              		.type	on_entry, %object
  41              		.size	on_entry, 60
  42              	on_entry:
  43 0010 00000000 		.space	4
  44 0014 00000000 		.word	0
  45 0018 00000000 		.word	0
  46 001c 00000000 		.word	0
  47 0020 00000000 		.word	0
  48 0024 00000000 		.word	entry_stby_defer
  49 0028 00000000 		.word	entry_stby_hold
  50 002c 00000000 		.word	entry_manu_joystick
  51 0030 00000000 		.word	entry_auto_home
  52 0034 00000000 		.word	entry_auto_acq_gps
  53 0038 00000000 		.word	entry_auto_acq_spiral
  54 003c 00000000 		.word	entry_auto_tracking
  55 0040 00000000 		.word	entry_auto_loss
  56 0044 00000000 		.word	entry_auto_no_lock
  57 0048 00000000 		.word	entry_error_active
ARM GAS  C:\Users\JENNEW~1\AppData\Local\Temp\cc33Iuyf.s 			page 2


  58              		.align	2
  59              		.type	on_exit, %object
  60              		.size	on_exit, 60
  61              	on_exit:
  62 004c 00000000 		.space	4
  63 0050 00000000 		.word	0
  64 0054 00000000 		.word	0
  65 0058 00000000 		.word	0
  66 005c 00000000 		.word	0
  67 0060 00000000 		.word	0
  68 0064 00000000 		.word	0
  69 0068 00000000 		.word	exit_manu_joystick
  70 006c 00000000 		.word	exit_auto_home
  71 0070 00000000 		.word	exit_auto_acq_gps
  72 0074 00000000 		.word	0
  73 0078 00000000 		.word	0
  74 007c 00000000 		.word	0
  75 0080 00000000 		.word	0
  76 0084 00000000 		.word	0
  77              		.align	2
  78              		.type	on_key, %object
  79              		.size	on_key, 60
  80              	on_key:
  81 0088 00000000 		.space	20
  81      00000000 
  81      00000000 
  81      00000000 
  81      00000000 
  82 009c 00000000 		.word	0
  83 00a0 00000000 		.word	0
  84 00a4 00000000 		.word	key_manu_joystick
  85 00a8 00000000 		.word	key_auto_home
  86 00ac 00000000 		.word	key_auto_acq_gps
  87 00b0 00000000 		.word	0
  88 00b4 00000000 		.word	key_auto_tracking
  89 00b8 00000000 		.word	key_auto_loss
  90 00bc 00000000 		.word	key_auto_no_lock
  91 00c0 00000000 		.word	key_error_active
  92              		.align	2
  93              		.type	on_build, %object
  94              		.size	on_build, 60
  95              	on_build:
  96 00c4 00000000 		.space	20
  96      00000000 
  96      00000000 
  96      00000000 
  96      00000000 
  97 00d8 00000000 		.word	build_stby
  98 00dc 00000000 		.word	build_stby
  99 00e0 00000000 		.word	build_manu_joystick
 100 00e4 00000000 		.word	build_auto_home
 101 00e8 00000000 		.word	build_auto_acq_gps
 102 00ec 00000000 		.word	build_stby
 103 00f0 00000000 		.word	build_auto_tracking
 104 00f4 00000000 		.word	build_stby
 105 00f8 00000000 		.word	build_stby
 106 00fc 00000000 		.word	build_error
ARM GAS  C:\Users\JENNEW~1\AppData\Local\Temp\cc33Iuyf.s 			page 3


 107              		.section	.text.depth_of,"ax",%progbits
 108              		.align	2
 109              		.thumb
 110              		.thumb_func
 111              		.type	depth_of, %function
 112              	depth_of:
 113              	.LFB64:
 114              		.file 1 "app_statemachine.c"
   1:app_statemachine.c **** /* ========================================
   2:app_statemachine.c ****  *
   3:app_statemachine.c ****  * Copyright Hamish Johnson, 2026
   4:app_statemachine.c ****  * All Rights Reserved
   5:app_statemachine.c ****  * UNPUBLISHED, LICENSED SOFTWARE.
   6:app_statemachine.c ****  *
   7:app_statemachine.c ****  * CONFIDENTIAL AND PROPRIETARY INFORMATION
   8:app_statemachine.c ****  * WHICH IS THE PROPERTY OF 
   9:app_statemachine.c ****  * Quantum Internet Systems Lab (QISL),
  10:app_statemachine.c ****  * Department of Physics, SFU, Canada.
  11:app_statemachine.c ****  *
  12:app_statemachine.c ****  * Author: Hamish Johnson (2026)
  13:app_statemachine.c ****  *
  14:app_statemachine.c ****  * ========================================
  15:app_statemachine.c ****  *
  16:app_statemachine.c ****  * HFSM engine: parent table, LCA walk, transition driver, error raiser.
  17:app_statemachine.c ****  *
  18:app_statemachine.c ****  *   ROOT
  19:app_statemachine.c ****  *   ├─ STBY ── STBY_DEFER (boot)
  20:app_statemachine.c ****  *   ├       ── STBY_HOLD
  21:app_statemachine.c ****  *   ├─ MANU ── MANU_JOYSTICK
  22:app_statemachine.c ****  *   ├─ AUTO ── AUTO_HOME*
  23:app_statemachine.c ****  *   ├       ── ACQ_GPS*
  24:app_statemachine.c ****  *   ├       ── ACQ_SPIRAL*
  25:app_statemachine.c ****  *   ├       ── TRACKING*
  26:app_statemachine.c ****  *   ├       ── LOSS*
  27:app_statemachine.c ****  *   ├       ── NO_LOCK*
  28:app_statemachine.c ****  *   └─ ERROR ─ ERROR_ACTIVE
  29:app_statemachine.c ****  * 
  30:app_statemachine.c ****  *      * = declared, not yet implemented
  31:app_statemachine.c ****  *
  32:app_statemachine.c ****  * KEYMAP (keep in sync with the key_* handlers in section 5):
  33:app_statemachine.c ****  *   GLOBAL (any non-FATAL leaf):
  34:app_statemachine.c ****  *     k       soft kill -> STBY_HOLD
  35:app_statemachine.c ****  *     [       capture origin from telemetry
  36:app_statemachine.c ****  *     ?       help
  37:app_statemachine.c ****  *     Ctrl+R  clear FATAL latch -> STBY_HOLD
  38:app_statemachine.c ****  *   NAV (suppressed where leaf_traps_nav()==1):
  39:app_statemachine.c ****  *     1/2/3   STBY_HOLD / MANU_JOYSTICK / AUTO
  40:app_statemachine.c ****  *   MANU_JOYSTICK leaf:
  41:app_statemachine.c ****  *     r/a     RATE / ABSOLUTE      e  exit -> STBY_HOLD
  42:app_statemachine.c ****  *     ]       -> AUTO_HOME
  43:app_statemachine.c ****  *
  44:app_statemachine.c ****  * DISPATCH PRECEDENCE (app_dispatch_key):
  45:app_statemachine.c ****  *     FATAL-lockout  >  global  >  leaf  >  nav
  46:app_statemachine.c **** */
  47:app_statemachine.c **** 
  48:app_statemachine.c **** #include "app_statemachine.h"
  49:app_statemachine.c **** #include "hamfly.h"
ARM GAS  C:\Users\JENNEW~1\AppData\Local\Temp\cc33Iuyf.s 			page 4


  50:app_statemachine.c **** #include "sbc_comms.h"
  51:app_statemachine.c **** #include "telemetry.h"
  52:app_statemachine.c **** #include "sbc_comms.h"
  53:app_statemachine.c **** #include <project.h>  // For UART
  54:app_statemachine.c **** #include <math.h>
  55:app_statemachine.c **** #include <string.h>
  56:app_statemachine.c **** #include <stdio.h>
  57:app_statemachine.c **** 
  58:app_statemachine.c **** // For timing, PSoC incremented with looptimer ISR.
  59:app_statemachine.c **** extern volatile uint32_t g_tick_ms;
  60:app_statemachine.c **** 
  61:app_statemachine.c **** // Hierarchy %================================================================%
  62:app_statemachine.c **** // Heirarchy allows shared entry/exit behaviour.
  63:app_statemachine.c **** // ROOT is the base of the walk.
  64:app_statemachine.c **** static const state_t parent_of[STATE_COUNT] = {
  65:app_statemachine.c ****     [ROOT]            = ROOT,  // Book keeping
  66:app_statemachine.c ****     [STBY]            = ROOT,  // Parent states
  67:app_statemachine.c ****     [MANU]            = ROOT,
  68:app_statemachine.c ****     [AUTO]            = ROOT,
  69:app_statemachine.c ****     [ERROR]           = ROOT,
  70:app_statemachine.c **** 
  71:app_statemachine.c ****     [STBY_DEFER]      = STBY,  // Two types of standby
  72:app_statemachine.c ****     [STBY_HOLD]       = STBY,
  73:app_statemachine.c **** 
  74:app_statemachine.c ****     [MANU_JOYSTICK]   = MANU,
  75:app_statemachine.c **** 
  76:app_statemachine.c ****     [AUTO_HOME]       = AUTO,  // Go to 0, 0
  77:app_statemachine.c ****     [AUTO_ACQ_GPS]    = AUTO,  // Go to GPS vector pointing
  78:app_statemachine.c ****     [AUTO_ACQ_SPIRAL] = AUTO,  // Spiral search for lock
  79:app_statemachine.c ****     [AUTO_TRACKING]   = AUTO,  // Closed loop tracking
  80:app_statemachine.c ****     [AUTO_LOSS]       = AUTO,  // Loss of centeroiding packets
  81:app_statemachine.c ****     [AUTO_NO_LOCK]    = AUTO,  // No lock after ACQ attempts
  82:app_statemachine.c **** 
  83:app_statemachine.c ****     [ERROR_ACTIVE]    = ERROR,  // Error state. TODO: Severity levels.
  84:app_statemachine.c **** };
  85:app_statemachine.c **** 
  86:app_statemachine.c **** // Per-state hook tables %====================================================%
  87:app_statemachine.c **** // Forward declaration of state handlers.
  88:app_statemachine.c **** typedef void    (*state_fn_t)(app_ctx_t *);  // Entry and Exit handlers
  89:app_statemachine.c **** typedef uint8_t (*key_fn_t)  (app_ctx_t *, char);  // Input handlers
  90:app_statemachine.c **** typedef void    (*build_fn_t)(const app_ctx_t *, hamfly_control_t *); //Packet
  91:app_statemachine.c **** 
  92:app_statemachine.c **** // Entry handlers
  93:app_statemachine.c **** static void entry_stby_defer    (app_ctx_t *);
  94:app_statemachine.c **** static void entry_stby_hold     (app_ctx_t *);
  95:app_statemachine.c **** static void entry_manu_joystick (app_ctx_t *);
  96:app_statemachine.c **** static void entry_auto_home     (app_ctx_t *);
  97:app_statemachine.c **** static void entry_auto_acq_gps  (app_ctx_t *);
  98:app_statemachine.c **** static void entry_auto_acq_spiral(app_ctx_t *);
  99:app_statemachine.c **** static void entry_auto_tracking (app_ctx_t *);
 100:app_statemachine.c **** static void entry_auto_loss     (app_ctx_t *);
 101:app_statemachine.c **** static void entry_auto_no_lock  (app_ctx_t *);
 102:app_statemachine.c **** static void entry_error_active  (app_ctx_t *);
 103:app_statemachine.c **** 
 104:app_statemachine.c **** // Exit handlers
 105:app_statemachine.c **** static void exit_manu_joystick  (app_ctx_t *);
 106:app_statemachine.c **** static void exit_auto_home      (app_ctx_t *);
ARM GAS  C:\Users\JENNEW~1\AppData\Local\Temp\cc33Iuyf.s 			page 5


 107:app_statemachine.c **** static void exit_auto_acq_gps   (app_ctx_t *);
 108:app_statemachine.c **** 
 109:app_statemachine.c **** // Key handlers
 110:app_statemachine.c **** static uint8_t key_manu_joystick(app_ctx_t *, char);
 111:app_statemachine.c **** static uint8_t key_auto_home    (app_ctx_t *, char);
 112:app_statemachine.c **** static uint8_t key_auto_acq_gps (app_ctx_t *, char);
 113:app_statemachine.c **** static uint8_t key_auto_tracking(app_ctx_t *, char);
 114:app_statemachine.c **** static uint8_t key_auto_loss    (app_ctx_t *, char);
 115:app_statemachine.c **** static uint8_t key_auto_no_lock (app_ctx_t *, char);
 116:app_statemachine.c **** static uint8_t key_error_active (app_ctx_t *, char);
 117:app_statemachine.c **** 
 118:app_statemachine.c **** // Packet building handlers
 119:app_statemachine.c **** static void build_zero          (const app_ctx_t *, hamfly_control_t *);
 120:app_statemachine.c **** static void build_stby          (const app_ctx_t *, hamfly_control_t *);
 121:app_statemachine.c **** static void build_manu_joystick (const app_ctx_t *, hamfly_control_t *);
 122:app_statemachine.c **** static void build_auto_home     (const app_ctx_t *, hamfly_control_t *);
 123:app_statemachine.c **** static void build_auto_acq_gps  (const app_ctx_t *, hamfly_control_t *);
 124:app_statemachine.c **** static void build_auto_tracking (const app_ctx_t *, hamfly_control_t *);
 125:app_statemachine.c **** static void build_error         (const app_ctx_t *, hamfly_control_t *);
 126:app_statemachine.c **** 
 127:app_statemachine.c **** // GPS vector math + slew helpers (internal)
 128:app_statemachine.c **** static float gps_bearing_deg (float lat1, float lon1, float lat2, float lon2);
 129:app_statemachine.c **** static float gps_elev_deg    (float lat1, float lon1, float alt1_m,
 130:app_statemachine.c ****                               float lat2, float lon2, float alt2_m);
 131:app_statemachine.c **** static void  gps_start_slew    (app_ctx_t *);
 132:app_statemachine.c **** static void  gps_update_pointing(app_ctx_t *);
 133:app_statemachine.c **** static void  gps_check_settle  (app_ctx_t *);
 134:app_statemachine.c **** 
 135:app_statemachine.c **** // Telemetry Helpers
 136:app_statemachine.c **** 
 137:app_statemachine.c **** // Gets the current pan and tilt as azm alt in degrees from latest gimble
 138:app_statemachine.c **** // status telemetry. Returns 1 on success, 0 on fail or stale. Read-only
 139:app_statemachine.c **** // helper.
 140:app_statemachine.c **** static uint8_t gimbal_pan_tilt_deg(const app_ctx_t *ctx, float *pan_deg, float *tilt_deg);
 141:app_statemachine.c **** 
 142:app_statemachine.c **** static const state_fn_t on_entry[STATE_COUNT] = {
 143:app_statemachine.c ****     [STBY]            = NULL,   /* parent: shared STBY entry, if ever needed */
 144:app_statemachine.c ****     [MANU]            = NULL,   /* parent */
 145:app_statemachine.c ****     [AUTO]            = NULL,   /* parent */
 146:app_statemachine.c ****     [ERROR]           = NULL,   /* parent */
 147:app_statemachine.c ****     [STBY_DEFER]      = entry_stby_defer,
 148:app_statemachine.c ****     [STBY_HOLD]       = entry_stby_hold,
 149:app_statemachine.c ****     [MANU_JOYSTICK]   = entry_manu_joystick,
 150:app_statemachine.c ****     [AUTO_HOME]       = entry_auto_home,
 151:app_statemachine.c ****     [AUTO_ACQ_GPS]    = entry_auto_acq_gps,
 152:app_statemachine.c ****     [AUTO_ACQ_SPIRAL] = entry_auto_acq_spiral,
 153:app_statemachine.c ****     [AUTO_TRACKING]   = entry_auto_tracking,
 154:app_statemachine.c ****     [AUTO_LOSS]       = entry_auto_loss,
 155:app_statemachine.c ****     [AUTO_NO_LOCK]    = entry_auto_no_lock,
 156:app_statemachine.c ****     [ERROR_ACTIVE]    = entry_error_active,
 157:app_statemachine.c **** };
 158:app_statemachine.c **** 
 159:app_statemachine.c **** static const state_fn_t on_exit[STATE_COUNT] = {
 160:app_statemachine.c ****     [STBY]            = NULL,   /* parent */
 161:app_statemachine.c ****     [MANU]            = NULL,   /* parent */
 162:app_statemachine.c ****     [AUTO]            = NULL,   /* parent */
 163:app_statemachine.c ****     [ERROR]           = NULL,   /* parent */
ARM GAS  C:\Users\JENNEW~1\AppData\Local\Temp\cc33Iuyf.s 			page 6


 164:app_statemachine.c ****     [STBY_DEFER]      = NULL,
 165:app_statemachine.c ****     [STBY_HOLD]       = NULL,
 166:app_statemachine.c ****     [MANU_JOYSTICK]   = exit_manu_joystick,
 167:app_statemachine.c ****     [AUTO_HOME]       = exit_auto_home,
 168:app_statemachine.c ****     [AUTO_ACQ_GPS]    = exit_auto_acq_gps,
 169:app_statemachine.c ****     [AUTO_ACQ_SPIRAL] = NULL,   /* TODO */
 170:app_statemachine.c ****     [AUTO_TRACKING]   = NULL,  
 171:app_statemachine.c ****     [AUTO_LOSS]       = NULL,   /* TODO */
 172:app_statemachine.c ****     [AUTO_NO_LOCK]    = NULL,   /* TODO */
 173:app_statemachine.c ****     [ERROR_ACTIVE]    = NULL,
 174:app_statemachine.c **** };
 175:app_statemachine.c **** 
 176:app_statemachine.c **** static const key_fn_t on_key[STATE_COUNT] = {
 177:app_statemachine.c ****     [STBY_DEFER]      = NULL,
 178:app_statemachine.c ****     [STBY_HOLD]       = NULL,
 179:app_statemachine.c ****     [MANU_JOYSTICK]   = key_manu_joystick,
 180:app_statemachine.c ****     [AUTO_HOME]       = key_auto_home,
 181:app_statemachine.c ****     [AUTO_ACQ_GPS]    = key_auto_acq_gps,
 182:app_statemachine.c ****     [AUTO_ACQ_SPIRAL] = NULL,   /* TODO */
 183:app_statemachine.c ****     [AUTO_TRACKING]   = key_auto_tracking,
 184:app_statemachine.c ****     [AUTO_LOSS]       = key_auto_loss,
 185:app_statemachine.c ****     [AUTO_NO_LOCK]    = key_auto_no_lock,
 186:app_statemachine.c ****     [ERROR_ACTIVE]    = key_error_active,
 187:app_statemachine.c **** };
 188:app_statemachine.c **** 
 189:app_statemachine.c **** static const build_fn_t on_build[STATE_COUNT] = {
 190:app_statemachine.c ****     [STBY_DEFER]      = build_stby,
 191:app_statemachine.c ****     [STBY_HOLD]       = build_stby,
 192:app_statemachine.c ****     [MANU_JOYSTICK]   = build_manu_joystick,
 193:app_statemachine.c ****     [AUTO_HOME]       = build_auto_home,
 194:app_statemachine.c ****     [AUTO_ACQ_GPS]    = build_auto_acq_gps,
 195:app_statemachine.c ****     [AUTO_ACQ_SPIRAL] = build_stby,          /* placeholder: zero rates, hold */
 196:app_statemachine.c ****     [AUTO_TRACKING]   = build_auto_tracking,
 197:app_statemachine.c ****     [AUTO_LOSS]       = build_stby,          /* placeholder: hold position */
 198:app_statemachine.c ****     [AUTO_NO_LOCK]    = build_stby,          /* placeholder: hold position */
 199:app_statemachine.c ****     [ERROR_ACTIVE]    = build_error,
 200:app_statemachine.c **** };
 201:app_statemachine.c **** 
 202:app_statemachine.c **** // Lowest common ancestor (LCA) walk %========================================%
 203:app_statemachine.c **** // For a given state, walk up its parents to ROOT, then walk down to incoming
 204:app_statemachine.c **** // state. Allows for heirarchical and shared entry/exit behaviour.
 205:app_statemachine.c **** static uint8_t depth_of(state_t s)
 206:app_statemachine.c **** {
 115              		.loc 1 206 0
 116              		.cfi_startproc
 117              		@ args = 0, pretend = 0, frame = 16
 118              		@ frame_needed = 1, uses_anonymous_args = 0
 119              		@ link register save eliminated.
 120 0000 80B4     		push	{r7}
 121              		.cfi_def_cfa_offset 4
 122              		.cfi_offset 7, -4
 123 0002 85B0     		sub	sp, sp, #20
 124              		.cfi_def_cfa_offset 24
 125 0004 00AF     		add	r7, sp, #0
 126              		.cfi_def_cfa_register 7
 127 0006 0346     		mov	r3, r0
 128 0008 FB71     		strb	r3, [r7, #7]
ARM GAS  C:\Users\JENNEW~1\AppData\Local\Temp\cc33Iuyf.s 			page 7


 207:app_statemachine.c ****     uint8_t d = 0;
 129              		.loc 1 207 0
 130 000a 0023     		movs	r3, #0
 131 000c FB73     		strb	r3, [r7, #15]
 208:app_statemachine.c ****     while (s != ROOT) { s = parent_of[s]; d++; }
 132              		.loc 1 208 0
 133 000e 06E0     		b	.L2
 134              	.L3:
 135              		.loc 1 208 0 is_stmt 0 discriminator 2
 136 0010 FB79     		ldrb	r3, [r7, #7]	@ zero_extendqisi2
 137 0012 074A     		ldr	r2, .L5
 138 0014 D35C     		ldrb	r3, [r2, r3]
 139 0016 FB71     		strb	r3, [r7, #7]
 140 0018 FB7B     		ldrb	r3, [r7, #15]	@ zero_extendqisi2
 141 001a 0133     		adds	r3, r3, #1
 142 001c FB73     		strb	r3, [r7, #15]
 143              	.L2:
 144              		.loc 1 208 0 discriminator 1
 145 001e FB79     		ldrb	r3, [r7, #7]	@ zero_extendqisi2
 146 0020 002B     		cmp	r3, #0
 147 0022 F5D1     		bne	.L3
 209:app_statemachine.c ****     return d;
 148              		.loc 1 209 0 is_stmt 1
 149 0024 FB7B     		ldrb	r3, [r7, #15]	@ zero_extendqisi2
 210:app_statemachine.c **** }
 150              		.loc 1 210 0
 151 0026 1846     		mov	r0, r3
 152 0028 1437     		adds	r7, r7, #20
 153              		.cfi_def_cfa_offset 4
 154 002a BD46     		mov	sp, r7
 155              		.cfi_def_cfa_register 13
 156              		@ sp needed
 157 002c 80BC     		pop	{r7}
 158              		.cfi_restore 7
 159              		.cfi_def_cfa_offset 0
 160 002e 7047     		bx	lr
 161              	.L6:
 162              		.align	2
 163              	.L5:
 164 0030 00000000 		.word	parent_of
 165              		.cfi_endproc
 166              	.LFE64:
 167              		.size	depth_of, .-depth_of
 168              		.section	.text.lca,"ax",%progbits
 169              		.align	2
 170              		.thumb
 171              		.thumb_func
 172              		.type	lca, %function
 173              	lca:
 174              	.LFB65:
 211:app_statemachine.c **** 
 212:app_statemachine.c **** static state_t lca(state_t a, state_t b)
 213:app_statemachine.c **** {
 175              		.loc 1 213 0
 176              		.cfi_startproc
 177              		@ args = 0, pretend = 0, frame = 16
 178              		@ frame_needed = 1, uses_anonymous_args = 0
ARM GAS  C:\Users\JENNEW~1\AppData\Local\Temp\cc33Iuyf.s 			page 8


 179 0000 80B5     		push	{r7, lr}
 180              		.cfi_def_cfa_offset 8
 181              		.cfi_offset 7, -8
 182              		.cfi_offset 14, -4
 183 0002 84B0     		sub	sp, sp, #16
 184              		.cfi_def_cfa_offset 24
 185 0004 00AF     		add	r7, sp, #0
 186              		.cfi_def_cfa_register 7
 187 0006 0346     		mov	r3, r0
 188 0008 0A46     		mov	r2, r1
 189 000a FB71     		strb	r3, [r7, #7]
 190 000c 1346     		mov	r3, r2
 191 000e BB71     		strb	r3, [r7, #6]
 214:app_statemachine.c ****     uint8_t da = depth_of(a), db = depth_of(b);
 192              		.loc 1 214 0
 193 0010 FB79     		ldrb	r3, [r7, #7]	@ zero_extendqisi2
 194 0012 1846     		mov	r0, r3
 195 0014 FFF7FEFF 		bl	depth_of
 196 0018 0346     		mov	r3, r0
 197 001a FB73     		strb	r3, [r7, #15]
 198 001c BB79     		ldrb	r3, [r7, #6]	@ zero_extendqisi2
 199 001e 1846     		mov	r0, r3
 200 0020 FFF7FEFF 		bl	depth_of
 201 0024 0346     		mov	r3, r0
 202 0026 BB73     		strb	r3, [r7, #14]
 215:app_statemachine.c ****     while (da > db) { a = parent_of[a]; da--; }
 203              		.loc 1 215 0
 204 0028 06E0     		b	.L8
 205              	.L9:
 206              		.loc 1 215 0 is_stmt 0 discriminator 2
 207 002a FB79     		ldrb	r3, [r7, #7]	@ zero_extendqisi2
 208 002c 134A     		ldr	r2, .L15
 209 002e D35C     		ldrb	r3, [r2, r3]
 210 0030 FB71     		strb	r3, [r7, #7]
 211 0032 FB7B     		ldrb	r3, [r7, #15]	@ zero_extendqisi2
 212 0034 013B     		subs	r3, r3, #1
 213 0036 FB73     		strb	r3, [r7, #15]
 214              	.L8:
 215              		.loc 1 215 0 discriminator 1
 216 0038 FA7B     		ldrb	r2, [r7, #15]	@ zero_extendqisi2
 217 003a BB7B     		ldrb	r3, [r7, #14]	@ zero_extendqisi2
 218 003c 9A42     		cmp	r2, r3
 219 003e F4D8     		bhi	.L9
 216:app_statemachine.c ****     while (db > da) { b = parent_of[b]; db--; }
 220              		.loc 1 216 0 is_stmt 1
 221 0040 06E0     		b	.L10
 222              	.L11:
 223              		.loc 1 216 0 is_stmt 0 discriminator 2
 224 0042 BB79     		ldrb	r3, [r7, #6]	@ zero_extendqisi2
 225 0044 0D4A     		ldr	r2, .L15
 226 0046 D35C     		ldrb	r3, [r2, r3]
 227 0048 BB71     		strb	r3, [r7, #6]
 228 004a BB7B     		ldrb	r3, [r7, #14]	@ zero_extendqisi2
 229 004c 013B     		subs	r3, r3, #1
 230 004e BB73     		strb	r3, [r7, #14]
 231              	.L10:
 232              		.loc 1 216 0 discriminator 1
ARM GAS  C:\Users\JENNEW~1\AppData\Local\Temp\cc33Iuyf.s 			page 9


 233 0050 BA7B     		ldrb	r2, [r7, #14]	@ zero_extendqisi2
 234 0052 FB7B     		ldrb	r3, [r7, #15]	@ zero_extendqisi2
 235 0054 9A42     		cmp	r2, r3
 236 0056 F4D8     		bhi	.L11
 217:app_statemachine.c ****     while (a != b)  { a = parent_of[a]; b = parent_of[b]; }
 237              		.loc 1 217 0 is_stmt 1
 238 0058 07E0     		b	.L12
 239              	.L13:
 240              		.loc 1 217 0 is_stmt 0 discriminator 2
 241 005a FB79     		ldrb	r3, [r7, #7]	@ zero_extendqisi2
 242 005c 074A     		ldr	r2, .L15
 243 005e D35C     		ldrb	r3, [r2, r3]
 244 0060 FB71     		strb	r3, [r7, #7]
 245 0062 BB79     		ldrb	r3, [r7, #6]	@ zero_extendqisi2
 246 0064 054A     		ldr	r2, .L15
 247 0066 D35C     		ldrb	r3, [r2, r3]
 248 0068 BB71     		strb	r3, [r7, #6]
 249              	.L12:
 250              		.loc 1 217 0 discriminator 1
 251 006a FA79     		ldrb	r2, [r7, #7]	@ zero_extendqisi2
 252 006c BB79     		ldrb	r3, [r7, #6]	@ zero_extendqisi2
 253 006e 9A42     		cmp	r2, r3
 254 0070 F3D1     		bne	.L13
 218:app_statemachine.c ****     return a;
 255              		.loc 1 218 0 is_stmt 1
 256 0072 FB79     		ldrb	r3, [r7, #7]	@ zero_extendqisi2
 219:app_statemachine.c **** }
 257              		.loc 1 219 0
 258 0074 1846     		mov	r0, r3
 259 0076 1037     		adds	r7, r7, #16
 260              		.cfi_def_cfa_offset 8
 261 0078 BD46     		mov	sp, r7
 262              		.cfi_def_cfa_register 13
 263              		@ sp needed
 264 007a 80BD     		pop	{r7, pc}
 265              	.L16:
 266              		.align	2
 267              	.L15:
 268 007c 00000000 		.word	parent_of
 269              		.cfi_endproc
 270              	.LFE65:
 271              		.size	lca, .-lca
 272              		.section	.text.transition,"ax",%progbits
 273              		.align	2
 274              		.thumb
 275              		.thumb_func
 276              		.type	transition, %function
 277              	transition:
 278              	.LFB66:
 220:app_statemachine.c **** 
 221:app_statemachine.c **** // Transition driver %========================================================%
 222:app_statemachine.c **** // Walk src up to LCA (running on_exit), then LCA down to target (running
 223:app_statemachine.c **** // on_entry). Self-transitions are a no-op. ROOT is the absorbing root, so
 224:app_statemachine.c **** // any pair has an LCA.
 225:app_statemachine.c **** 
 226:app_statemachine.c **** static void transition(app_ctx_t *ctx, state_t target)
 227:app_statemachine.c **** {
ARM GAS  C:\Users\JENNEW~1\AppData\Local\Temp\cc33Iuyf.s 			page 10


 279              		.loc 1 227 0
 280              		.cfi_startproc
 281              		@ args = 0, pretend = 0, frame = 24
 282              		@ frame_needed = 1, uses_anonymous_args = 0
 283 0000 80B5     		push	{r7, lr}
 284              		.cfi_def_cfa_offset 8
 285              		.cfi_offset 7, -8
 286              		.cfi_offset 14, -4
 287 0002 86B0     		sub	sp, sp, #24
 288              		.cfi_def_cfa_offset 32
 289 0004 00AF     		add	r7, sp, #0
 290              		.cfi_def_cfa_register 7
 291 0006 7860     		str	r0, [r7, #4]
 292 0008 0B46     		mov	r3, r1
 293 000a FB70     		strb	r3, [r7, #3]
 228:app_statemachine.c ****     // Self transition handle.
 229:app_statemachine.c ****     state_t src = ctx->state;
 294              		.loc 1 229 0
 295 000c 7B68     		ldr	r3, [r7, #4]
 296 000e 1B79     		ldrb	r3, [r3, #4]
 297 0010 3B75     		strb	r3, [r7, #20]
 230:app_statemachine.c ****     if (target == src) return;
 298              		.loc 1 230 0
 299 0012 FA78     		ldrb	r2, [r7, #3]	@ zero_extendqisi2
 300 0014 3B7D     		ldrb	r3, [r7, #20]	@ zero_extendqisi2
 301 0016 9A42     		cmp	r2, r3
 302 0018 5DD0     		beq	.L27
 231:app_statemachine.c ****     
 232:app_statemachine.c ****     // LCA walk.
 233:app_statemachine.c ****     state_t common = lca(src, target);
 303              		.loc 1 233 0
 304 001a FA78     		ldrb	r2, [r7, #3]	@ zero_extendqisi2
 305 001c 3B7D     		ldrb	r3, [r7, #20]	@ zero_extendqisi2
 306 001e 1146     		mov	r1, r2
 307 0020 1846     		mov	r0, r3
 308 0022 FFF7FEFF 		bl	lca
 309 0026 0346     		mov	r3, r0
 310 0028 FB74     		strb	r3, [r7, #19]
 311              	.LBB2:
 234:app_statemachine.c **** 
 235:app_statemachine.c ****     // Shared parents require no duplicate on_exit calls.
 236:app_statemachine.c ****     // Walk up path, running on_exit.
 237:app_statemachine.c ****     for (state_t s = src; s != common; s = parent_of[s]) {
 312              		.loc 1 237 0
 313 002a 3B7D     		ldrb	r3, [r7, #20]
 314 002c FB75     		strb	r3, [r7, #23]
 315 002e 0FE0     		b	.L20
 316              	.L22:
 238:app_statemachine.c ****         if (on_exit[s]) on_exit[s](ctx);
 317              		.loc 1 238 0
 318 0030 FB7D     		ldrb	r3, [r7, #23]	@ zero_extendqisi2
 319 0032 2B4A     		ldr	r2, .L28
 320 0034 52F82330 		ldr	r3, [r2, r3, lsl #2]
 321 0038 002B     		cmp	r3, #0
 322 003a 05D0     		beq	.L21
 323              		.loc 1 238 0 is_stmt 0 discriminator 1
 324 003c FB7D     		ldrb	r3, [r7, #23]	@ zero_extendqisi2
ARM GAS  C:\Users\JENNEW~1\AppData\Local\Temp\cc33Iuyf.s 			page 11


 325 003e 284A     		ldr	r2, .L28
 326 0040 52F82330 		ldr	r3, [r2, r3, lsl #2]
 327 0044 7868     		ldr	r0, [r7, #4]
 328 0046 9847     		blx	r3
 329              	.L21:
 237:app_statemachine.c ****         if (on_exit[s]) on_exit[s](ctx);
 330              		.loc 1 237 0 is_stmt 1 discriminator 2
 331 0048 FB7D     		ldrb	r3, [r7, #23]	@ zero_extendqisi2
 332 004a 264A     		ldr	r2, .L28+4
 333 004c D35C     		ldrb	r3, [r2, r3]
 334 004e FB75     		strb	r3, [r7, #23]
 335              	.L20:
 237:app_statemachine.c ****         if (on_exit[s]) on_exit[s](ctx);
 336              		.loc 1 237 0 is_stmt 0 discriminator 1
 337 0050 FA7D     		ldrb	r2, [r7, #23]	@ zero_extendqisi2
 338 0052 FB7C     		ldrb	r3, [r7, #19]	@ zero_extendqisi2
 339 0054 9A42     		cmp	r2, r3
 340 0056 EBD1     		bne	.L22
 341              	.LBE2:
 239:app_statemachine.c ****     }
 240:app_statemachine.c ****     
 241:app_statemachine.c ****     ctx->prev_leaf = src;  // Return to last state book-keeping.
 342              		.loc 1 241 0 is_stmt 1
 343 0058 7B68     		ldr	r3, [r7, #4]
 344 005a 3A7D     		ldrb	r2, [r7, #20]
 345 005c 5A71     		strb	r2, [r3, #5]
 242:app_statemachine.c **** 
 243:app_statemachine.c ****     // Walk down the path, running on_entry.
 244:app_statemachine.c ****     state_t path[MAX_HFSM_DEPTH];
 245:app_statemachine.c ****     uint8_t n = 0;
 346              		.loc 1 245 0
 347 005e 0023     		movs	r3, #0
 348 0060 BB75     		strb	r3, [r7, #22]
 349              	.LBB3:
 246:app_statemachine.c ****     for (state_t s = target; s != common; s = parent_of[s]) {
 350              		.loc 1 246 0
 351 0062 FB78     		ldrb	r3, [r7, #3]
 352 0064 7B75     		strb	r3, [r7, #21]
 353 0066 0CE0     		b	.L23
 354              	.L24:
 247:app_statemachine.c ****         path[n++] = s;
 355              		.loc 1 247 0 discriminator 3
 356 0068 BB7D     		ldrb	r3, [r7, #22]	@ zero_extendqisi2
 357 006a 5A1C     		adds	r2, r3, #1
 358 006c BA75     		strb	r2, [r7, #22]
 359 006e 07F11802 		add	r2, r7, #24
 360 0072 1344     		add	r3, r3, r2
 361 0074 7A7D     		ldrb	r2, [r7, #21]
 362 0076 03F80C2C 		strb	r2, [r3, #-12]
 246:app_statemachine.c ****     for (state_t s = target; s != common; s = parent_of[s]) {
 363              		.loc 1 246 0 discriminator 3
 364 007a 7B7D     		ldrb	r3, [r7, #21]	@ zero_extendqisi2
 365 007c 194A     		ldr	r2, .L28+4
 366 007e D35C     		ldrb	r3, [r2, r3]
 367 0080 7B75     		strb	r3, [r7, #21]
 368              	.L23:
 246:app_statemachine.c ****     for (state_t s = target; s != common; s = parent_of[s]) {
ARM GAS  C:\Users\JENNEW~1\AppData\Local\Temp\cc33Iuyf.s 			page 12


 369              		.loc 1 246 0 is_stmt 0 discriminator 1
 370 0082 7A7D     		ldrb	r2, [r7, #21]	@ zero_extendqisi2
 371 0084 FB7C     		ldrb	r3, [r7, #19]	@ zero_extendqisi2
 372 0086 9A42     		cmp	r2, r3
 373 0088 EED1     		bne	.L24
 374              	.LBE3:
 248:app_statemachine.c ****     }
 249:app_statemachine.c ****     while (n--) {
 375              		.loc 1 249 0 is_stmt 1
 376 008a 17E0     		b	.L25
 377              	.L26:
 250:app_statemachine.c ****         if (on_entry[path[n]]) on_entry[path[n]](ctx);
 378              		.loc 1 250 0
 379 008c BB7D     		ldrb	r3, [r7, #22]	@ zero_extendqisi2
 380 008e 07F11802 		add	r2, r7, #24
 381 0092 1344     		add	r3, r3, r2
 382 0094 13F80C3C 		ldrb	r3, [r3, #-12]	@ zero_extendqisi2
 383 0098 1A46     		mov	r2, r3
 384 009a 134B     		ldr	r3, .L28+8
 385 009c 53F82230 		ldr	r3, [r3, r2, lsl #2]
 386 00a0 002B     		cmp	r3, #0
 387 00a2 0BD0     		beq	.L25
 388              		.loc 1 250 0 is_stmt 0 discriminator 1
 389 00a4 BB7D     		ldrb	r3, [r7, #22]	@ zero_extendqisi2
 390 00a6 07F11802 		add	r2, r7, #24
 391 00aa 1344     		add	r3, r3, r2
 392 00ac 13F80C3C 		ldrb	r3, [r3, #-12]	@ zero_extendqisi2
 393 00b0 1A46     		mov	r2, r3
 394 00b2 0D4B     		ldr	r3, .L28+8
 395 00b4 53F82230 		ldr	r3, [r3, r2, lsl #2]
 396 00b8 7868     		ldr	r0, [r7, #4]
 397 00ba 9847     		blx	r3
 398              	.L25:
 249:app_statemachine.c ****         if (on_entry[path[n]]) on_entry[path[n]](ctx);
 399              		.loc 1 249 0 is_stmt 1
 400 00bc BB7D     		ldrb	r3, [r7, #22]	@ zero_extendqisi2
 401 00be 5A1E     		subs	r2, r3, #1
 402 00c0 BA75     		strb	r2, [r7, #22]
 403 00c2 002B     		cmp	r3, #0
 404 00c4 E2D1     		bne	.L26
 251:app_statemachine.c ****     }
 252:app_statemachine.c ****     
 253:app_statemachine.c ****     // Store new state.
 254:app_statemachine.c ****     ctx->state          = target;
 405              		.loc 1 254 0
 406 00c6 7B68     		ldr	r3, [r7, #4]
 407 00c8 FA78     		ldrb	r2, [r7, #3]
 408 00ca 1A71     		strb	r2, [r3, #4]
 255:app_statemachine.c ****     ctx->state_entry_ms = g_tick_ms;
 409              		.loc 1 255 0
 410 00cc 074B     		ldr	r3, .L28+12
 411 00ce 1A68     		ldr	r2, [r3]
 412 00d0 7B68     		ldr	r3, [r7, #4]
 413 00d2 1A66     		str	r2, [r3, #96]
 414 00d4 00E0     		b	.L17
 415              	.L27:
 230:app_statemachine.c ****     
ARM GAS  C:\Users\JENNEW~1\AppData\Local\Temp\cc33Iuyf.s 			page 13


 416              		.loc 1 230 0
 417 00d6 00BF     		nop
 418              	.L17:
 256:app_statemachine.c **** }
 419              		.loc 1 256 0
 420 00d8 1837     		adds	r7, r7, #24
 421              		.cfi_def_cfa_offset 8
 422 00da BD46     		mov	sp, r7
 423              		.cfi_def_cfa_register 13
 424              		@ sp needed
 425 00dc 80BD     		pop	{r7, pc}
 426              	.L29:
 427 00de 00BF     		.align	2
 428              	.L28:
 429 00e0 4C000000 		.word	on_exit
 430 00e4 00000000 		.word	parent_of
 431 00e8 10000000 		.word	on_entry
 432 00ec 00000000 		.word	g_tick_ms
 433              		.cfi_endproc
 434              	.LFE66:
 435              		.size	transition, .-transition
 436              		.section	.text.app_start,"ax",%progbits
 437              		.align	2
 438              		.global	app_start
 439              		.thumb
 440              		.thumb_func
 441              		.type	app_start, %function
 442              	app_start:
 443              	.LFB67:
 257:app_statemachine.c **** 
 258:app_statemachine.c **** // On boot.
 259:app_statemachine.c **** void app_start(app_ctx_t *ctx)
 260:app_statemachine.c **** {
 444              		.loc 1 260 0
 445              		.cfi_startproc
 446              		@ args = 0, pretend = 0, frame = 16
 447              		@ frame_needed = 1, uses_anonymous_args = 0
 448 0000 80B5     		push	{r7, lr}
 449              		.cfi_def_cfa_offset 8
 450              		.cfi_offset 7, -8
 451              		.cfi_offset 14, -4
 452 0002 84B0     		sub	sp, sp, #16
 453              		.cfi_def_cfa_offset 24
 454 0004 00AF     		add	r7, sp, #0
 455              		.cfi_def_cfa_register 7
 456 0006 7860     		str	r0, [r7, #4]
 261:app_statemachine.c ****     // Walk entry conditions from ROOT to the init state,
 262:app_statemachine.c ****     state_t target = ctx->state;
 457              		.loc 1 262 0
 458 0008 7B68     		ldr	r3, [r7, #4]
 459 000a 1B79     		ldrb	r3, [r3, #4]
 460 000c FB73     		strb	r3, [r7, #15]
 263:app_statemachine.c ****     ctx->state = ROOT;
 461              		.loc 1 263 0
 462 000e 7B68     		ldr	r3, [r7, #4]
 463 0010 0022     		movs	r2, #0
 464 0012 1A71     		strb	r2, [r3, #4]
ARM GAS  C:\Users\JENNEW~1\AppData\Local\Temp\cc33Iuyf.s 			page 14


 264:app_statemachine.c ****     transition(ctx, target);
 465              		.loc 1 264 0
 466 0014 FB7B     		ldrb	r3, [r7, #15]	@ zero_extendqisi2
 467 0016 1946     		mov	r1, r3
 468 0018 7868     		ldr	r0, [r7, #4]
 469 001a FFF7FEFF 		bl	transition
 265:app_statemachine.c **** }
 470              		.loc 1 265 0
 471 001e 00BF     		nop
 472 0020 1037     		adds	r7, r7, #16
 473              		.cfi_def_cfa_offset 8
 474 0022 BD46     		mov	sp, r7
 475              		.cfi_def_cfa_register 13
 476              		@ sp needed
 477 0024 80BD     		pop	{r7, pc}
 478              		.cfi_endproc
 479              	.LFE67:
 480              		.size	app_start, .-app_start
 481 0026 00BF     		.section	.rodata
 482              		.align	2
 483              	.LC0:
 484 0100 5B555345 		.ascii	"[USER] \000"
 484      525D2000 
 485              		.align	2
 486              	.LC1:
 487 0108 0D0A00   		.ascii	"\015\012\000"
 488              		.section	.text.app_raise_error,"ax",%progbits
 489              		.align	2
 490              		.global	app_raise_error
 491              		.thumb
 492              		.thumb_func
 493              		.type	app_raise_error, %function
 494              	app_raise_error:
 495              	.LFB68:
 266:app_statemachine.c **** 
 267:app_statemachine.c **** // On error: Handles severity.
 268:app_statemachine.c **** void app_raise_error(app_ctx_t *ctx, err_sev_t sev, const char *msg)
 269:app_statemachine.c **** {
 496              		.loc 1 269 0
 497              		.cfi_startproc
 498              		@ args = 0, pretend = 0, frame = 16
 499              		@ frame_needed = 1, uses_anonymous_args = 0
 500 0000 80B5     		push	{r7, lr}
 501              		.cfi_def_cfa_offset 8
 502              		.cfi_offset 7, -8
 503              		.cfi_offset 14, -4
 504 0002 84B0     		sub	sp, sp, #16
 505              		.cfi_def_cfa_offset 24
 506 0004 00AF     		add	r7, sp, #0
 507              		.cfi_def_cfa_register 7
 508 0006 F860     		str	r0, [r7, #12]
 509 0008 0B46     		mov	r3, r1
 510 000a 7A60     		str	r2, [r7, #4]
 511 000c FB72     		strb	r3, [r7, #11]
 270:app_statemachine.c ****     // User error: Invalid request, do not change and notify user.
 271:app_statemachine.c ****     if (sev == SEV_USER) {
 512              		.loc 1 271 0
ARM GAS  C:\Users\JENNEW~1\AppData\Local\Temp\cc33Iuyf.s 			page 15


 513 000e FB7A     		ldrb	r3, [r7, #11]	@ zero_extendqisi2
 514 0010 002B     		cmp	r3, #0
 515 0012 09D1     		bne	.L32
 272:app_statemachine.c ****         UART_DEBUG_PutString("[USER] ");
 516              		.loc 1 272 0
 517 0014 1248     		ldr	r0, .L37
 518 0016 FFF7FEFF 		bl	UART_DEBUG_PutString
 273:app_statemachine.c ****         UART_DEBUG_PutString(msg);
 519              		.loc 1 273 0
 520 001a 7868     		ldr	r0, [r7, #4]
 521 001c FFF7FEFF 		bl	UART_DEBUG_PutString
 274:app_statemachine.c ****         UART_DEBUG_PutString("\r\n");
 522              		.loc 1 274 0
 523 0020 1048     		ldr	r0, .L37+4
 524 0022 FFF7FEFF 		bl	UART_DEBUG_PutString
 275:app_statemachine.c ****         return;
 525              		.loc 1 275 0
 526 0026 18E0     		b	.L31
 527              	.L32:
 276:app_statemachine.c ****     }
 277:app_statemachine.c ****     
 278:app_statemachine.c ****     // Fatal error flag.
 279:app_statemachine.c ****     if (ctx->fatal_latched && sev != SEV_FATAL) return;
 528              		.loc 1 279 0
 529 0028 FB68     		ldr	r3, [r7, #12]
 530 002a 1B7B     		ldrb	r3, [r3, #12]	@ zero_extendqisi2
 531 002c 002B     		cmp	r3, #0
 532 002e 02D0     		beq	.L34
 533              		.loc 1 279 0 is_stmt 0 discriminator 1
 534 0030 FB7A     		ldrb	r3, [r7, #11]	@ zero_extendqisi2
 535 0032 032B     		cmp	r3, #3
 536 0034 10D1     		bne	.L36
 537              	.L34:
 280:app_statemachine.c ****     
 281:app_statemachine.c ****     ctx->err_sev = sev;
 538              		.loc 1 281 0 is_stmt 1
 539 0036 FB68     		ldr	r3, [r7, #12]
 540 0038 FA7A     		ldrb	r2, [r7, #11]
 541 003a 9A71     		strb	r2, [r3, #6]
 282:app_statemachine.c ****     ctx->err_msg = msg;
 542              		.loc 1 282 0
 543 003c FB68     		ldr	r3, [r7, #12]
 544 003e 7A68     		ldr	r2, [r7, #4]
 545 0040 9A60     		str	r2, [r3, #8]
 283:app_statemachine.c ****     if (sev == SEV_FATAL) ctx->fatal_latched = 1u;
 546              		.loc 1 283 0
 547 0042 FB7A     		ldrb	r3, [r7, #11]	@ zero_extendqisi2
 548 0044 032B     		cmp	r3, #3
 549 0046 02D1     		bne	.L35
 550              		.loc 1 283 0 is_stmt 0 discriminator 1
 551 0048 FB68     		ldr	r3, [r7, #12]
 552 004a 0122     		movs	r2, #1
 553 004c 1A73     		strb	r2, [r3, #12]
 554              	.L35:
 284:app_statemachine.c ****     
 285:app_statemachine.c ****     transition(ctx, ERROR_ACTIVE);  // Go to error state.
 555              		.loc 1 285 0 is_stmt 1
ARM GAS  C:\Users\JENNEW~1\AppData\Local\Temp\cc33Iuyf.s 			page 16


 556 004e 0E21     		movs	r1, #14
 557 0050 F868     		ldr	r0, [r7, #12]
 558 0052 FFF7FEFF 		bl	transition
 559 0056 00E0     		b	.L31
 560              	.L36:
 279:app_statemachine.c ****     
 561              		.loc 1 279 0
 562 0058 00BF     		nop
 563              	.L31:
 286:app_statemachine.c **** }
 564              		.loc 1 286 0
 565 005a 1037     		adds	r7, r7, #16
 566              		.cfi_def_cfa_offset 8
 567 005c BD46     		mov	sp, r7
 568              		.cfi_def_cfa_register 13
 569              		@ sp needed
 570 005e 80BD     		pop	{r7, pc}
 571              	.L38:
 572              		.align	2
 573              	.L37:
 574 0060 00010000 		.word	.LC0
 575 0064 08010000 		.word	.LC1
 576              		.cfi_endproc
 577              	.LFE68:
 578              		.size	app_raise_error, .-app_raise_error
 579              		.section	.rodata
 580 010b 00       		.align	2
 581              	.LC2:
 582 010c 524F4F54 		.ascii	"ROOT\000"
 582      00
 583 0111 000000   		.align	2
 584              	.LC3:
 585 0114 53544259 		.ascii	"STBY\000"
 585      00
 586 0119 000000   		.align	2
 587              	.LC4:
 588 011c 4D414E55 		.ascii	"MANU\000"
 588      00
 589 0121 000000   		.align	2
 590              	.LC5:
 591 0124 4155544F 		.ascii	"AUTO\000"
 591      00
 592 0129 000000   		.align	2
 593              	.LC6:
 594 012c 4552524F 		.ascii	"ERROR\000"
 594      5200
 595 0132 0000     		.align	2
 596              	.LC7:
 597 0134 53544259 		.ascii	"STBY_DEFER\000"
 597      5F444546 
 597      455200
 598 013f 00       		.align	2
 599              	.LC8:
 600 0140 53544259 		.ascii	"STBY_HOLD\000"
 600      5F484F4C 
 600      4400
 601 014a 0000     		.align	2
ARM GAS  C:\Users\JENNEW~1\AppData\Local\Temp\cc33Iuyf.s 			page 17


 602              	.LC9:
 603 014c 4D414E55 		.ascii	"MANU_JOYSTICK\000"
 603      5F4A4F59 
 603      53544943 
 603      4B00
 604 015a 0000     		.align	2
 605              	.LC10:
 606 015c 4155544F 		.ascii	"AUTO_HOME\000"
 606      5F484F4D 
 606      4500
 607 0166 0000     		.align	2
 608              	.LC11:
 609 0168 4155544F 		.ascii	"AUTO_ACQ_GPS\000"
 609      5F414351 
 609      5F475053 
 609      00
 610 0175 000000   		.align	2
 611              	.LC12:
 612 0178 4155544F 		.ascii	"AUTO_ACQ_SPIRAL\000"
 612      5F414351 
 612      5F535049 
 612      52414C00 
 613              		.align	2
 614              	.LC13:
 615 0188 4155544F 		.ascii	"AUTO_TRACKING\000"
 615      5F545241 
 615      434B494E 
 615      4700
 616 0196 0000     		.align	2
 617              	.LC14:
 618 0198 4155544F 		.ascii	"AUTO_LOSS\000"
 618      5F4C4F53 
 618      5300
 619 01a2 0000     		.align	2
 620              	.LC15:
 621 01a4 4155544F 		.ascii	"AUTO_NO_LOCK\000"
 621      5F4E4F5F 
 621      4C4F434B 
 621      00
 622 01b1 000000   		.align	2
 623              	.LC16:
 624 01b4 4552524F 		.ascii	"ERROR_ACTIVE\000"
 624      525F4143 
 624      54495645 
 624      00
 625 01c1 000000   		.align	2
 626              		.type	state_names, %object
 627              		.size	state_names, 60
 628              	state_names:
 629 01c4 0C010000 		.word	.LC2
 630 01c8 14010000 		.word	.LC3
 631 01cc 1C010000 		.word	.LC4
 632 01d0 24010000 		.word	.LC5
 633 01d4 2C010000 		.word	.LC6
 634 01d8 34010000 		.word	.LC7
 635 01dc 40010000 		.word	.LC8
 636 01e0 4C010000 		.word	.LC9
ARM GAS  C:\Users\JENNEW~1\AppData\Local\Temp\cc33Iuyf.s 			page 18


 637 01e4 5C010000 		.word	.LC10
 638 01e8 68010000 		.word	.LC11
 639 01ec 78010000 		.word	.LC12
 640 01f0 88010000 		.word	.LC13
 641 01f4 98010000 		.word	.LC14
 642 01f8 A4010000 		.word	.LC15
 643 01fc B4010000 		.word	.LC16
 644              		.section	.text.app_state_name,"ax",%progbits
 645              		.align	2
 646              		.global	app_state_name
 647              		.thumb
 648              		.thumb_func
 649              		.type	app_state_name, %function
 650              	app_state_name:
 651              	.LFB69:
 287:app_statemachine.c **** 
 288:app_statemachine.c **** // Lookup table for state names, used by serial monitor.
 289:app_statemachine.c **** static const char *const state_names[STATE_COUNT] = {
 290:app_statemachine.c ****     [ROOT] = "ROOT",
 291:app_statemachine.c ****     [STBY] = "STBY", [MANU] = "MANU", [AUTO] = "AUTO", [ERROR] = "ERROR",
 292:app_statemachine.c ****     [STBY_DEFER]      = "STBY_DEFER",
 293:app_statemachine.c ****     [STBY_HOLD]       = "STBY_HOLD",
 294:app_statemachine.c ****     [MANU_JOYSTICK]   = "MANU_JOYSTICK",
 295:app_statemachine.c ****     [AUTO_HOME]       = "AUTO_HOME",
 296:app_statemachine.c ****     [AUTO_ACQ_GPS]    = "AUTO_ACQ_GPS",
 297:app_statemachine.c ****     [AUTO_ACQ_SPIRAL] = "AUTO_ACQ_SPIRAL",
 298:app_statemachine.c ****     [AUTO_TRACKING]   = "AUTO_TRACKING",
 299:app_statemachine.c ****     [AUTO_LOSS]       = "AUTO_LOSS",
 300:app_statemachine.c ****     [AUTO_NO_LOCK]    = "AUTO_NO_LOCK",
 301:app_statemachine.c ****     [ERROR_ACTIVE]    = "ERROR_ACTIVE",
 302:app_statemachine.c **** };
 303:app_statemachine.c **** 
 304:app_statemachine.c **** // Helper for serial monitor.
 305:app_statemachine.c **** const char *app_state_name(state_t s) { return state_names[s]; }
 652              		.loc 1 305 0
 653              		.cfi_startproc
 654              		@ args = 0, pretend = 0, frame = 8
 655              		@ frame_needed = 1, uses_anonymous_args = 0
 656              		@ link register save eliminated.
 657 0000 80B4     		push	{r7}
 658              		.cfi_def_cfa_offset 4
 659              		.cfi_offset 7, -4
 660 0002 83B0     		sub	sp, sp, #12
 661              		.cfi_def_cfa_offset 16
 662 0004 00AF     		add	r7, sp, #0
 663              		.cfi_def_cfa_register 7
 664 0006 0346     		mov	r3, r0
 665 0008 FB71     		strb	r3, [r7, #7]
 666              		.loc 1 305 0
 667 000a FB79     		ldrb	r3, [r7, #7]	@ zero_extendqisi2
 668 000c 034A     		ldr	r2, .L41
 669 000e 52F82330 		ldr	r3, [r2, r3, lsl #2]
 670 0012 1846     		mov	r0, r3
 671 0014 0C37     		adds	r7, r7, #12
 672              		.cfi_def_cfa_offset 4
 673 0016 BD46     		mov	sp, r7
 674              		.cfi_def_cfa_register 13
ARM GAS  C:\Users\JENNEW~1\AppData\Local\Temp\cc33Iuyf.s 			page 19


 675              		@ sp needed
 676 0018 80BC     		pop	{r7}
 677              		.cfi_restore 7
 678              		.cfi_def_cfa_offset 0
 679 001a 7047     		bx	lr
 680              	.L42:
 681              		.align	2
 682              	.L41:
 683 001c C4010000 		.word	state_names
 684              		.cfi_endproc
 685              	.LFE69:
 686              		.size	app_state_name, .-app_state_name
 687              		.section	.text.app_telem_tick,"ax",%progbits
 688              		.align	2
 689              		.global	app_telem_tick
 690              		.thumb
 691              		.thumb_func
 692              		.type	app_telem_tick, %function
 693              	app_telem_tick:
 694              	.LFB70:
 306:app_statemachine.c **** 
 307:app_statemachine.c **** // Telemetry %===============================================================%
 308:app_statemachine.c **** void app_telem_tick(app_ctx_t *ctx)
 309:app_statemachine.c **** {
 695              		.loc 1 309 0
 696              		.cfi_startproc
 697              		@ args = 0, pretend = 0, frame = 8
 698              		@ frame_needed = 1, uses_anonymous_args = 0
 699 0000 80B5     		push	{r7, lr}
 700              		.cfi_def_cfa_offset 8
 701              		.cfi_offset 7, -8
 702              		.cfi_offset 14, -4
 703 0002 82B0     		sub	sp, sp, #8
 704              		.cfi_def_cfa_offset 16
 705 0004 00AF     		add	r7, sp, #0
 706              		.cfi_def_cfa_register 7
 707 0006 7860     		str	r0, [r7, #4]
 310:app_statemachine.c ****     // Do the telemetry grabs if gimble connected
 311:app_statemachine.c ****     if (!ctx->gimbal) return;
 708              		.loc 1 311 0
 709 0008 7B68     		ldr	r3, [r7, #4]
 710 000a 1B68     		ldr	r3, [r3]
 711 000c 002B     		cmp	r3, #0
 712 000e 2DD0     		beq	.L47
 312:app_statemachine.c **** 
 313:app_statemachine.c ****     static uint32_t last_hot_ms  = 0u;  // Hot is the Movi status
 314:app_statemachine.c ****     static uint32_t last_link_ms = 0u;  // Cold are all other sensors
 315:app_statemachine.c ****     if (g_tick_ms - last_hot_ms  >= CONTROL_PERIOD_MS) {  //  10 Hz
 713              		.loc 1 315 0
 714 0010 184B     		ldr	r3, .L48
 715 0012 1A68     		ldr	r2, [r3]
 716 0014 184B     		ldr	r3, .L48+4
 717 0016 1B68     		ldr	r3, [r3]
 718 0018 D31A     		subs	r3, r2, r3
 719 001a 632B     		cmp	r3, #99
 720 001c 06D9     		bls	.L46
 316:app_statemachine.c ****         last_hot_ms = g_tick_ms;
ARM GAS  C:\Users\JENNEW~1\AppData\Local\Temp\cc33Iuyf.s 			page 20


 721              		.loc 1 316 0
 722 001e 154B     		ldr	r3, .L48
 723 0020 1B68     		ldr	r3, [r3]
 724 0022 154A     		ldr	r2, .L48+4
 725 0024 1360     		str	r3, [r2]
 317:app_statemachine.c ****         telemetry_send_hot_sbc(ctx);
 726              		.loc 1 317 0
 727 0026 7868     		ldr	r0, [r7, #4]
 728 0028 FFF7FEFF 		bl	telemetry_send_hot_sbc
 729              	.L46:
 318:app_statemachine.c ****     }
 319:app_statemachine.c ****     if (g_tick_ms - last_link_ms >= DIAG_PERIOD_MS) {     //  1 Hz
 730              		.loc 1 319 0
 731 002c 114B     		ldr	r3, .L48
 732 002e 1A68     		ldr	r2, [r3]
 733 0030 124B     		ldr	r3, .L48+8
 734 0032 1B68     		ldr	r3, [r3]
 735 0034 D31A     		subs	r3, r2, r3
 736 0036 41F28732 		movw	r2, #4999
 737 003a 9342     		cmp	r3, r2
 738 003c 17D9     		bls	.L43
 320:app_statemachine.c ****         last_link_ms = g_tick_ms;
 739              		.loc 1 320 0
 740 003e 0D4B     		ldr	r3, .L48
 741 0040 1B68     		ldr	r3, [r3]
 742 0042 0E4A     		ldr	r2, .L48+8
 743 0044 1360     		str	r3, [r2]
 321:app_statemachine.c ****         telemetry_send_link_sbc(ctx);
 744              		.loc 1 321 0
 745 0046 7868     		ldr	r0, [r7, #4]
 746 0048 FFF7FEFF 		bl	telemetry_send_link_sbc
 322:app_statemachine.c ****         telemetry_send_power_sbc(ctx);
 747              		.loc 1 322 0
 748 004c 7868     		ldr	r0, [r7, #4]
 749 004e FFF7FEFF 		bl	telemetry_send_power_sbc
 323:app_statemachine.c ****         telemetry_send_env_sbc(ctx);
 750              		.loc 1 323 0
 751 0052 7868     		ldr	r0, [r7, #4]
 752 0054 FFF7FEFF 		bl	telemetry_send_env_sbc
 324:app_statemachine.c ****         telemetry_send_gps_sbc(ctx);
 753              		.loc 1 324 0
 754 0058 7868     		ldr	r0, [r7, #4]
 755 005a FFF7FEFF 		bl	telemetry_send_gps_sbc
 325:app_statemachine.c ****         telemetry_send_baro_sbc(ctx);
 756              		.loc 1 325 0
 757 005e 7868     		ldr	r0, [r7, #4]
 758 0060 FFF7FEFF 		bl	telemetry_send_baro_sbc
 326:app_statemachine.c ****         telemetry_send_mag_sbc(ctx);
 759              		.loc 1 326 0
 760 0064 7868     		ldr	r0, [r7, #4]
 761 0066 FFF7FEFF 		bl	telemetry_send_mag_sbc
 762 006a 00E0     		b	.L43
 763              	.L47:
 311:app_statemachine.c **** 
 764              		.loc 1 311 0
 765 006c 00BF     		nop
 766              	.L43:
ARM GAS  C:\Users\JENNEW~1\AppData\Local\Temp\cc33Iuyf.s 			page 21


 327:app_statemachine.c ****     }
 328:app_statemachine.c **** }
 767              		.loc 1 328 0
 768 006e 0837     		adds	r7, r7, #8
 769              		.cfi_def_cfa_offset 8
 770 0070 BD46     		mov	sp, r7
 771              		.cfi_def_cfa_register 13
 772              		@ sp needed
 773 0072 80BD     		pop	{r7, pc}
 774              	.L49:
 775              		.align	2
 776              	.L48:
 777 0074 00000000 		.word	g_tick_ms
 778 0078 00000000 		.word	last_hot_ms.8190
 779 007c 04000000 		.word	last_link_ms.8191
 780              		.cfi_endproc
 781              	.LFE70:
 782              		.size	app_telem_tick, .-app_telem_tick
 783              		.section	.rodata
 784              		.align	2
 785              	.LC17:
 786 0200 0D0A5B53 		.ascii	"\015\012[STBY_DEFER] '1' hold, '2' manual, '3' auto"
 786      5442595F 
 786      44454645 
 786      525D2027 
 786      31272068 
 787 022d 2C20273F 		.ascii	", '?' help\015\012> \000"
 787      27206865 
 787      6C700D0A 
 787      3E2000
 788              		.section	.text.entry_stby_defer,"ax",%progbits
 789              		.align	2
 790              		.thumb
 791              		.thumb_func
 792              		.type	entry_stby_defer, %function
 793              	entry_stby_defer:
 794              	.LFB71:
 329:app_statemachine.c **** 
 330:app_statemachine.c **** // %==========================================================================%
 331:app_statemachine.c **** // %                               Standby                                    %
 332:app_statemachine.c **** // %==========================================================================%
 333:app_statemachine.c **** 
 334:app_statemachine.c **** // STBY_DEFER %===============================================================%
 335:app_statemachine.c **** // On Enter: Print message, wait for user input.
 336:app_statemachine.c **** static void entry_stby_defer(app_ctx_t *ctx)
 337:app_statemachine.c **** {
 795              		.loc 1 337 0
 796              		.cfi_startproc
 797              		@ args = 0, pretend = 0, frame = 8
 798              		@ frame_needed = 1, uses_anonymous_args = 0
 799 0000 80B5     		push	{r7, lr}
 800              		.cfi_def_cfa_offset 8
 801              		.cfi_offset 7, -8
 802              		.cfi_offset 14, -4
 803 0002 82B0     		sub	sp, sp, #8
 804              		.cfi_def_cfa_offset 16
 805 0004 00AF     		add	r7, sp, #0
ARM GAS  C:\Users\JENNEW~1\AppData\Local\Temp\cc33Iuyf.s 			page 22


 806              		.cfi_def_cfa_register 7
 807 0006 7860     		str	r0, [r7, #4]
 338:app_statemachine.c ****     (void)ctx;
 339:app_statemachine.c ****     UART_DEBUG_PutString("\r\n[STBY_DEFER] '1' hold, '2' manual, '3' auto, '?' help\r\n> ");
 808              		.loc 1 339 0
 809 0008 0348     		ldr	r0, .L51
 810 000a FFF7FEFF 		bl	UART_DEBUG_PutString
 340:app_statemachine.c **** }
 811              		.loc 1 340 0
 812 000e 00BF     		nop
 813 0010 0837     		adds	r7, r7, #8
 814              		.cfi_def_cfa_offset 8
 815 0012 BD46     		mov	sp, r7
 816              		.cfi_def_cfa_register 13
 817              		@ sp needed
 818 0014 80BD     		pop	{r7, pc}
 819              	.L52:
 820 0016 00BF     		.align	2
 821              	.L51:
 822 0018 00020000 		.word	.LC17
 823              		.cfi_endproc
 824              	.LFE71:
 825              		.size	entry_stby_defer, .-entry_stby_defer
 826              		.section	.rodata
 827              		.align	2
 828              	.LC18:
 829 023c 0D0A5B53 		.ascii	"\015\012[STBY_HOLD] rates zeroed\015\012> \000"
 829      5442595F 
 829      484F4C44 
 829      5D207261 
 829      74657320 
 830              		.section	.text.entry_stby_hold,"ax",%progbits
 831              		.align	2
 832              		.thumb
 833              		.thumb_func
 834              		.type	entry_stby_hold, %function
 835              	entry_stby_hold:
 836              	.LFB72:
 341:app_statemachine.c **** // On Exit: None
 342:app_statemachine.c **** 
 343:app_statemachine.c **** 
 344:app_statemachine.c **** // STBY_HOLD %================================================================%
 345:app_statemachine.c **** // On Enter
 346:app_statemachine.c **** static void entry_stby_hold(app_ctx_t *ctx)
 347:app_statemachine.c **** {
 837              		.loc 1 347 0
 838              		.cfi_startproc
 839              		@ args = 0, pretend = 0, frame = 8
 840              		@ frame_needed = 1, uses_anonymous_args = 0
 841 0000 80B5     		push	{r7, lr}
 842              		.cfi_def_cfa_offset 8
 843              		.cfi_offset 7, -8
 844              		.cfi_offset 14, -4
 845 0002 82B0     		sub	sp, sp, #8
 846              		.cfi_def_cfa_offset 16
 847 0004 00AF     		add	r7, sp, #0
 848              		.cfi_def_cfa_register 7
ARM GAS  C:\Users\JENNEW~1\AppData\Local\Temp\cc33Iuyf.s 			page 23


 849 0006 7860     		str	r0, [r7, #4]
 348:app_statemachine.c ****     (void)ctx;
 349:app_statemachine.c ****     UART_DEBUG_PutString("\r\n[STBY_HOLD] rates zeroed\r\n> ");
 850              		.loc 1 349 0
 851 0008 0348     		ldr	r0, .L54
 852 000a FFF7FEFF 		bl	UART_DEBUG_PutString
 350:app_statemachine.c **** }
 853              		.loc 1 350 0
 854 000e 00BF     		nop
 855 0010 0837     		adds	r7, r7, #8
 856              		.cfi_def_cfa_offset 8
 857 0012 BD46     		mov	sp, r7
 858              		.cfi_def_cfa_register 13
 859              		@ sp needed
 860 0014 80BD     		pop	{r7, pc}
 861              	.L55:
 862 0016 00BF     		.align	2
 863              	.L54:
 864 0018 3C020000 		.word	.LC18
 865              		.cfi_endproc
 866              	.LFE72:
 867              		.size	entry_stby_hold, .-entry_stby_hold
 868              		.section	.rodata
 869 025b 00       		.align	2
 870              	.LC19:
 871 025c 0D0A5B4D 		.ascii	"\015\012[MANU] joystick=rate  nudge: numpad=fine  i"
 871      414E555D 
 871      206A6F79 
 871      73746963 
 871      6B3D7261 
 872 0289 6A6B6C3D 		.ascii	"jkl=0.5 deg wasd=1 deg e=exit\015\012> \000"
 872      302E3520 
 872      64656720 
 872      77617364 
 872      3D312064 
 873              		.section	.text.entry_manu_joystick,"ax",%progbits
 874              		.align	2
 875              		.thumb
 876              		.thumb_func
 877              		.type	entry_manu_joystick, %function
 878              	entry_manu_joystick:
 879              	.LFB73:
 351:app_statemachine.c **** // On Exit: None
 352:app_statemachine.c **** 
 353:app_statemachine.c **** 
 354:app_statemachine.c **** // %==========================================================================%
 355:app_statemachine.c **** // %                                Manual                                    %
 356:app_statemachine.c **** // %==========================================================================%
 357:app_statemachine.c **** 
 358:app_statemachine.c **** // MANU_JOYSTICK %============================================================%
 359:app_statemachine.c **** // On Enter: Enable joystick, print message.
 360:app_statemachine.c **** static void entry_manu_joystick(app_ctx_t *ctx)
 361:app_statemachine.c **** {
 880              		.loc 1 361 0
 881              		.cfi_startproc
 882              		@ args = 0, pretend = 0, frame = 8
 883              		@ frame_needed = 1, uses_anonymous_args = 0
ARM GAS  C:\Users\JENNEW~1\AppData\Local\Temp\cc33Iuyf.s 			page 24


 884 0000 80B5     		push	{r7, lr}
 885              		.cfi_def_cfa_offset 8
 886              		.cfi_offset 7, -8
 887              		.cfi_offset 14, -4
 888 0002 82B0     		sub	sp, sp, #8
 889              		.cfi_def_cfa_offset 16
 890 0004 00AF     		add	r7, sp, #0
 891              		.cfi_def_cfa_register 7
 892 0006 7860     		str	r0, [r7, #4]
 362:app_statemachine.c ****     (void)ctx;
 363:app_statemachine.c ****     UART_DEBUG_PutString("\r\n[MANU] joystick=rate  nudge: numpad=fine  ijkl=0.5 deg wasd=1 deg e=e
 893              		.loc 1 363 0
 894 0008 0348     		ldr	r0, .L57
 895 000a FFF7FEFF 		bl	UART_DEBUG_PutString
 364:app_statemachine.c **** }
 896              		.loc 1 364 0
 897 000e 00BF     		nop
 898 0010 0837     		adds	r7, r7, #8
 899              		.cfi_def_cfa_offset 8
 900 0012 BD46     		mov	sp, r7
 901              		.cfi_def_cfa_register 13
 902              		@ sp needed
 903 0014 80BD     		pop	{r7, pc}
 904              	.L58:
 905 0016 00BF     		.align	2
 906              	.L57:
 907 0018 5C020000 		.word	.LC19
 908              		.cfi_endproc
 909              	.LFE73:
 910              		.size	entry_manu_joystick, .-entry_manu_joystick
 911              		.section	.text.exit_manu_joystick,"ax",%progbits
 912              		.align	2
 913              		.thumb
 914              		.thumb_func
 915              		.type	exit_manu_joystick, %function
 916              	exit_manu_joystick:
 917              	.LFB74:
 365:app_statemachine.c **** // On Exit: Disable joystick, zero control mode.
 366:app_statemachine.c **** static void exit_manu_joystick(app_ctx_t *ctx)
 367:app_statemachine.c **** {
 918              		.loc 1 367 0
 919              		.cfi_startproc
 920              		@ args = 0, pretend = 0, frame = 8
 921              		@ frame_needed = 1, uses_anonymous_args = 0
 922              		@ link register save eliminated.
 923 0000 80B4     		push	{r7}
 924              		.cfi_def_cfa_offset 4
 925              		.cfi_offset 7, -4
 926 0002 83B0     		sub	sp, sp, #12
 927              		.cfi_def_cfa_offset 16
 928 0004 00AF     		add	r7, sp, #0
 929              		.cfi_def_cfa_register 7
 930 0006 7860     		str	r0, [r7, #4]
 368:app_statemachine.c ****     ctx->nudge_hold = 0u;  // Clean nudge if in progress.
 931              		.loc 1 368 0
 932 0008 7B68     		ldr	r3, [r7, #4]
 933 000a 0022     		movs	r2, #0
ARM GAS  C:\Users\JENNEW~1\AppData\Local\Temp\cc33Iuyf.s 			page 25


 934 000c 83F87820 		strb	r2, [r3, #120]
 369:app_statemachine.c **** }
 935              		.loc 1 369 0
 936 0010 00BF     		nop
 937 0012 0C37     		adds	r7, r7, #12
 938              		.cfi_def_cfa_offset 4
 939 0014 BD46     		mov	sp, r7
 940              		.cfi_def_cfa_register 13
 941              		@ sp needed
 942 0016 80BC     		pop	{r7}
 943              		.cfi_restore 7
 944              		.cfi_def_cfa_offset 0
 945 0018 7047     		bx	lr
 946              		.cfi_endproc
 947              	.LFE74:
 948              		.size	exit_manu_joystick, .-exit_manu_joystick
 949              		.global	__aeabi_fsub
 950              		.global	__aeabi_fcmplt
 951 001a 00BF     		.section	.rodata
 952 02ab 00       		.align	2
 953              	.LC20:
 954 02ac 5B415554 		.ascii	"[AUTO_HOME] arrived -> STBY_HOLD\015\012\000"
 954      4F5F484F 
 954      4D455D20 
 954      61727269 
 954      76656420 
 955 02cf 00       		.align	2
 956              	.LC21:
 957 02d0 5B534243 		.ascii	"[SBC:%s] cx=%d cy=%d dt=%u rx=%lu crcErr=%u uartErr"
 957      3A25735D 
 957      2063783D 
 957      25642063 
 957      793D2564 
 958 0303 3D25750D 		.ascii	"=%u\015\012\000"
 958      0A00
 959              		.section	.text.app_auto_tick,"ax",%progbits
 960              		.align	2
 961              		.global	app_auto_tick
 962              		.thumb
 963              		.thumb_func
 964              		.type	app_auto_tick, %function
 965              	app_auto_tick:
 966              	.LFB75:
 370:app_statemachine.c **** 
 371:app_statemachine.c **** // %==========================================================================%
 372:app_statemachine.c **** // %                                 Auto                                     %
 373:app_statemachine.c **** // %==========================================================================%
 374:app_statemachine.c **** // Auto has sub-modes: HOME, GPS, SPIRAL, TRACKING, LOSS, NO LOCK
 375:app_statemachine.c **** void app_auto_tick(app_ctx_t *ctx)
 376:app_statemachine.c **** {
 967              		.loc 1 376 0
 968              		.cfi_startproc
 969              		@ args = 0, pretend = 0, frame = 176
 970              		@ frame_needed = 1, uses_anonymous_args = 0
 971 0000 F0B5     		push	{r4, r5, r6, r7, lr}
 972              		.cfi_def_cfa_offset 20
 973              		.cfi_offset 4, -20
ARM GAS  C:\Users\JENNEW~1\AppData\Local\Temp\cc33Iuyf.s 			page 26


 974              		.cfi_offset 5, -16
 975              		.cfi_offset 6, -12
 976              		.cfi_offset 7, -8
 977              		.cfi_offset 14, -4
 978 0002 B3B0     		sub	sp, sp, #204
 979              		.cfi_def_cfa_offset 224
 980 0004 06AF     		add	r7, sp, #24
 981              		.cfi_def_cfa 7, 200
 982 0006 F860     		str	r0, [r7, #12]
 377:app_statemachine.c ****     // %--- AUTO_HOME: settle then drop to STBY_HOLD ------------------------%
 378:app_statemachine.c ****     if (ctx->state == AUTO_HOME && ctx->nudge_hold) {
 983              		.loc 1 378 0
 984 0008 FB68     		ldr	r3, [r7, #12]
 985 000a 1B79     		ldrb	r3, [r3, #4]	@ zero_extendqisi2
 986 000c 082B     		cmp	r3, #8
 987 000e 5BD1     		bne	.L61
 988              		.loc 1 378 0 is_stmt 0 discriminator 1
 989 0010 FB68     		ldr	r3, [r7, #12]
 990 0012 93F87830 		ldrb	r3, [r3, #120]	@ zero_extendqisi2
 991 0016 002B     		cmp	r3, #0
 992 0018 56D0     		beq	.L61
 993              	.LBB4:
 379:app_statemachine.c ****         uint32_t elapsed = g_tick_ms - ctx->nudge_start_ms;
 994              		.loc 1 379 0 is_stmt 1
 995 001a 6B4B     		ldr	r3, .L82
 996 001c 1A68     		ldr	r2, [r3]
 997 001e FB68     		ldr	r3, [r7, #12]
 998 0020 DB6F     		ldr	r3, [r3, #124]
 999 0022 D31A     		subs	r3, r2, r3
 1000 0024 C7F8A830 		str	r3, [r7, #168]
 380:app_statemachine.c ****         if (elapsed >= NUDGE_MIN_DWELL_MS) {
 1001              		.loc 1 380 0
 1002 0028 D7F8A830 		ldr	r3, [r7, #168]
 1003 002c 952B     		cmp	r3, #149
 1004 002e 40F2C680 		bls	.L80
 1005              	.LBB5:
 381:app_statemachine.c ****             float p, t; uint8_t arrived = 0u;
 1006              		.loc 1 381 0
 1007 0032 0023     		movs	r3, #0
 1008 0034 87F8AF30 		strb	r3, [r7, #175]
 382:app_statemachine.c ****             if (gimbal_pan_tilt_deg(ctx, &p, &t))
 1009              		.loc 1 382 0
 1010 0038 07F1A002 		add	r2, r7, #160
 1011 003c 07F1A403 		add	r3, r7, #164
 1012 0040 1946     		mov	r1, r3
 1013 0042 F868     		ldr	r0, [r7, #12]
 1014 0044 FFF7FEFF 		bl	gimbal_pan_tilt_deg
 1015 0048 0346     		mov	r3, r0
 1016 004a 002B     		cmp	r3, #0
 1017 004c 2AD0     		beq	.L63
 383:app_statemachine.c ****                 arrived = (fabsf(p - ctx->tgt_pan_deg)  < NUDGE_SETTLE_DEG) &&
 1018              		.loc 1 383 0
 1019 004e D7F8A420 		ldr	r2, [r7, #164]	@ float
 1020 0052 FB68     		ldr	r3, [r7, #12]
 1021 0054 D3F88830 		ldr	r3, [r3, #136]	@ float
 1022 0058 1946     		mov	r1, r3
 1023 005a 1046     		mov	r0, r2
ARM GAS  C:\Users\JENNEW~1\AppData\Local\Temp\cc33Iuyf.s 			page 27


 1024 005c FFF7FEFF 		bl	__aeabi_fsub
 1025 0060 0346     		mov	r3, r0
 1026 0062 23F00043 		bic	r3, r3, #-2147483648
 1027 0066 5949     		ldr	r1, .L82+4
 1028 0068 1846     		mov	r0, r3
 1029 006a FFF7FEFF 		bl	__aeabi_fcmplt
 1030 006e 0346     		mov	r3, r0
 1031 0070 002B     		cmp	r3, #0
 1032 0072 14D0     		beq	.L64
 384:app_statemachine.c ****                           (fabsf(t - ctx->tgt_tilt_deg) < NUDGE_SETTLE_DEG);
 1033              		.loc 1 384 0 discriminator 1
 1034 0074 D7F8A020 		ldr	r2, [r7, #160]	@ float
 1035 0078 FB68     		ldr	r3, [r7, #12]
 1036 007a D3F88C30 		ldr	r3, [r3, #140]	@ float
 1037 007e 1946     		mov	r1, r3
 1038 0080 1046     		mov	r0, r2
 1039 0082 FFF7FEFF 		bl	__aeabi_fsub
 1040 0086 0346     		mov	r3, r0
 1041 0088 23F00043 		bic	r3, r3, #-2147483648
 383:app_statemachine.c ****                 arrived = (fabsf(p - ctx->tgt_pan_deg)  < NUDGE_SETTLE_DEG) &&
 1042              		.loc 1 383 0 discriminator 1
 1043 008c 4F49     		ldr	r1, .L82+4
 1044 008e 1846     		mov	r0, r3
 1045 0090 FFF7FEFF 		bl	__aeabi_fcmplt
 1046 0094 0346     		mov	r3, r0
 1047 0096 002B     		cmp	r3, #0
 1048 0098 01D0     		beq	.L64
 383:app_statemachine.c ****                 arrived = (fabsf(p - ctx->tgt_pan_deg)  < NUDGE_SETTLE_DEG) &&
 1049              		.loc 1 383 0 is_stmt 0 discriminator 3
 1050 009a 0123     		movs	r3, #1
 1051 009c 00E0     		b	.L67
 1052              	.L64:
 383:app_statemachine.c ****                 arrived = (fabsf(p - ctx->tgt_pan_deg)  < NUDGE_SETTLE_DEG) &&
 1053              		.loc 1 383 0 discriminator 4
 1054 009e 0023     		movs	r3, #0
 1055              	.L67:
 383:app_statemachine.c ****                 arrived = (fabsf(p - ctx->tgt_pan_deg)  < NUDGE_SETTLE_DEG) &&
 1056              		.loc 1 383 0 discriminator 6
 1057 00a0 87F8AF30 		strb	r3, [r7, #175]
 1058              	.L63:
 385:app_statemachine.c ****             if (arrived || elapsed >= NUDGE_TIMEOUT_MS) {
 1059              		.loc 1 385 0 is_stmt 1
 1060 00a4 97F8AF30 		ldrb	r3, [r7, #175]	@ zero_extendqisi2
 1061 00a8 002B     		cmp	r3, #0
 1062 00aa 05D1     		bne	.L68
 1063              		.loc 1 385 0 is_stmt 0 discriminator 1
 1064 00ac D7F8A830 		ldr	r3, [r7, #168]
 1065 00b0 B3F5FA6F 		cmp	r3, #2000
 1066 00b4 C0F08380 		bcc	.L80
 1067              	.L68:
 386:app_statemachine.c ****                 UART_DEBUG_PutString("[AUTO_HOME] arrived -> STBY_HOLD\r\n");
 1068              		.loc 1 386 0 is_stmt 1
 1069 00b8 4548     		ldr	r0, .L82+8
 1070 00ba FFF7FEFF 		bl	UART_DEBUG_PutString
 387:app_statemachine.c ****                 transition(ctx, STBY_HOLD);  // -> STBY_HOLD
 1071              		.loc 1 387 0
 1072 00be 0621     		movs	r1, #6
ARM GAS  C:\Users\JENNEW~1\AppData\Local\Temp\cc33Iuyf.s 			page 28


 1073 00c0 F868     		ldr	r0, [r7, #12]
 1074 00c2 FFF7FEFF 		bl	transition
 1075              	.LBE5:
 388:app_statemachine.c ****             }
 389:app_statemachine.c ****         }
 390:app_statemachine.c ****         return;
 1076              		.loc 1 390 0
 1077 00c6 7AE0     		b	.L80
 1078              	.L61:
 1079              	.LBE4:
 391:app_statemachine.c ****     }
 392:app_statemachine.c **** 
 393:app_statemachine.c ****     // %--- AUTO_ACQ_GPS: re-point at 1 Hz, settle check every loop ---------%
 394:app_statemachine.c ****     // TODO: GPS should go to the set coordinate and settle and stay there,
 395:app_statemachine.c ****     // waiting for centroid packets to arrive for N seconds (0 means wait forever).
 396:app_statemachine.c ****     // If no lock in N seconds, spiral, if lock go to tracking.
 397:app_statemachine.c ****     if (ctx->state == AUTO_ACQ_GPS) {
 1080              		.loc 1 397 0
 1081 00c8 FB68     		ldr	r3, [r7, #12]
 1082 00ca 1B79     		ldrb	r3, [r3, #4]	@ zero_extendqisi2
 1083 00cc 092B     		cmp	r3, #9
 1084 00ce 18D1     		bne	.L71
 1085              	.LBB6:
 398:app_statemachine.c ****         static uint32_t last_pt_ms = 0u;
 399:app_statemachine.c ****         if (g_tick_ms - last_pt_ms >= DIAG_PERIOD_MS) {
 1086              		.loc 1 399 0
 1087 00d0 3D4B     		ldr	r3, .L82
 1088 00d2 1A68     		ldr	r2, [r3]
 1089 00d4 3F4B     		ldr	r3, .L82+12
 1090 00d6 1B68     		ldr	r3, [r3]
 1091 00d8 D31A     		subs	r3, r2, r3
 1092 00da 41F28732 		movw	r2, #4999
 1093 00de 9342     		cmp	r3, r2
 1094 00e0 0BD9     		bls	.L72
 400:app_statemachine.c ****             last_pt_ms = g_tick_ms;
 1095              		.loc 1 400 0
 1096 00e2 394B     		ldr	r3, .L82
 1097 00e4 1B68     		ldr	r3, [r3]
 1098 00e6 3B4A     		ldr	r2, .L82+12
 1099 00e8 1360     		str	r3, [r2]
 401:app_statemachine.c ****             if (ctx->gps_target_set) gps_update_pointing(ctx);
 1100              		.loc 1 401 0
 1101 00ea FB68     		ldr	r3, [r7, #12]
 1102 00ec 93F82430 		ldrb	r3, [r3, #36]	@ zero_extendqisi2
 1103 00f0 002B     		cmp	r3, #0
 1104 00f2 02D0     		beq	.L72
 1105              		.loc 1 401 0 is_stmt 0 discriminator 1
 1106 00f4 F868     		ldr	r0, [r7, #12]
 1107 00f6 FFF7FEFF 		bl	gps_update_pointing
 1108              	.L72:
 402:app_statemachine.c ****         }
 403:app_statemachine.c ****         gps_check_settle(ctx);   // self-throttled to GPS_SETTLE_PERIOD_MS
 1109              		.loc 1 403 0 is_stmt 1
 1110 00fa F868     		ldr	r0, [r7, #12]
 1111 00fc FFF7FEFF 		bl	gps_check_settle
 404:app_statemachine.c ****         return;
 1112              		.loc 1 404 0
ARM GAS  C:\Users\JENNEW~1\AppData\Local\Temp\cc33Iuyf.s 			page 29


 1113 0100 5EE0     		b	.L60
 1114              	.L71:
 1115              	.LBE6:
 405:app_statemachine.c ****     }
 406:app_statemachine.c **** 
 407:app_statemachine.c ****     // %--- AUTO_TRACKING: pull freshest centroid into P-control state ------%
 408:app_statemachine.c ****     if (ctx->state == AUTO_TRACKING) {
 1116              		.loc 1 408 0
 1117 0102 FB68     		ldr	r3, [r7, #12]
 1118 0104 1B79     		ldrb	r3, [r3, #4]	@ zero_extendqisi2
 1119 0106 0B2B     		cmp	r3, #11
 1120 0108 5AD1     		bne	.L60
 1121              	.LBB7:
 1122              	.LBB8:
 409:app_statemachine.c ****         static const char *tag[STREAM_COUNTS] = { "C", "F" };
 410:app_statemachine.c ****         for (uint8_t s = 0u; s < STREAM_COUNTS; s++) {
 1123              		.loc 1 410 0
 1124 010a 0023     		movs	r3, #0
 1125 010c 87F8AE30 		strb	r3, [r7, #174]
 1126 0110 50E0     		b	.L73
 1127              	.L77:
 1128              	.LBB9:
 411:app_statemachine.c ****             payload_centroid_t c;
 412:app_statemachine.c ****             if (!sbc_get_centroid(s, &c)) continue;
 1129              		.loc 1 412 0
 1130 0112 07F19402 		add	r2, r7, #148
 1131 0116 97F8AE30 		ldrb	r3, [r7, #174]	@ zero_extendqisi2
 1132 011a 1146     		mov	r1, r2
 1133 011c 1846     		mov	r0, r3
 1134 011e FFF7FEFF 		bl	sbc_get_centroid
 1135 0122 0346     		mov	r3, r0
 1136 0124 002B     		cmp	r3, #0
 1137 0126 3FD0     		beq	.L81
 413:app_statemachine.c ****             if (s == STREAM_COARSE) {  // Save coarse tracking centroids
 1138              		.loc 1 413 0
 1139 0128 97F8AE30 		ldrb	r3, [r7, #174]	@ zero_extendqisi2
 1140 012c 002B     		cmp	r3, #0
 1141 012e 09D1     		bne	.L76
 414:app_statemachine.c ****                 ctx->track_cx_last = c.cx;
 1142              		.loc 1 414 0
 1143 0130 B7F99820 		ldrsh	r2, [r7, #152]
 1144 0134 FB68     		ldr	r3, [r7, #12]
 1145 0136 A3F84820 		strh	r2, [r3, #72]	@ movhi
 415:app_statemachine.c ****                 ctx->track_cy_last = c.cy;
 1146              		.loc 1 415 0
 1147 013a B7F99A20 		ldrsh	r2, [r7, #154]
 1148 013e FB68     		ldr	r3, [r7, #12]
 1149 0140 A3F84A20 		strh	r2, [r3, #74]	@ movhi
 1150              	.L76:
 416:app_statemachine.c ****             }
 417:app_statemachine.c ****             char b[128];
 418:app_statemachine.c ****             snprintf(b, sizeof b,
 1151              		.loc 1 418 0
 1152 0144 97F8AE30 		ldrb	r3, [r7, #174]	@ zero_extendqisi2
 1153 0148 234A     		ldr	r2, .L82+16
 1154 014a 52F82340 		ldr	r4, [r2, r3, lsl #2]
 419:app_statemachine.c ****                      "[SBC:%s] cx=%d cy=%d dt=%u rx=%lu crcErr=%u uartErr=%u\r\n",
ARM GAS  C:\Users\JENNEW~1\AppData\Local\Temp\cc33Iuyf.s 			page 30


 420:app_statemachine.c ****                      tag[s], c.cx, c.cy,
 1155              		.loc 1 420 0
 1156 014e B7F99830 		ldrsh	r3, [r7, #152]
 418:app_statemachine.c ****                      "[SBC:%s] cx=%d cy=%d dt=%u rx=%lu crcErr=%u uartErr=%u\r\n",
 1157              		.loc 1 418 0
 1158 0152 1D46     		mov	r5, r3
 1159              		.loc 1 420 0
 1160 0154 B7F99A30 		ldrsh	r3, [r7, #154]
 418:app_statemachine.c ****                      "[SBC:%s] cx=%d cy=%d dt=%u rx=%lu crcErr=%u uartErr=%u\r\n",
 1161              		.loc 1 418 0
 1162 0158 1E46     		mov	r6, r3
 421:app_statemachine.c ****                      sbc_last_centroid_dt_ms(s),
 1163              		.loc 1 421 0
 1164 015a 97F8AE30 		ldrb	r3, [r7, #174]	@ zero_extendqisi2
 1165 015e 1846     		mov	r0, r3
 1166 0160 FFF7FEFF 		bl	sbc_last_centroid_dt_ms
 1167 0164 0346     		mov	r3, r0
 418:app_statemachine.c ****                      "[SBC:%s] cx=%d cy=%d dt=%u rx=%lu crcErr=%u uartErr=%u\r\n",
 1168              		.loc 1 418 0
 1169 0166 BB60     		str	r3, [r7, #8]
 422:app_statemachine.c ****                      (unsigned long)sbc_rx_pkt_count(),
 1170              		.loc 1 422 0
 1171 0168 FFF7FEFF 		bl	sbc_rx_pkt_count
 1172 016c 7860     		str	r0, [r7, #4]
 423:app_statemachine.c ****                      sbc_crc_errors(), sbc_uart_errors());
 1173              		.loc 1 423 0
 1174 016e FFF7FEFF 		bl	sbc_crc_errors
 1175 0172 0346     		mov	r3, r0
 418:app_statemachine.c ****                      "[SBC:%s] cx=%d cy=%d dt=%u rx=%lu crcErr=%u uartErr=%u\r\n",
 1176              		.loc 1 418 0
 1177 0174 3B60     		str	r3, [r7]
 1178              		.loc 1 423 0
 1179 0176 FFF7FEFF 		bl	sbc_uart_errors
 1180 017a 0346     		mov	r3, r0
 418:app_statemachine.c ****                      "[SBC:%s] cx=%d cy=%d dt=%u rx=%lu crcErr=%u uartErr=%u\r\n",
 1181              		.loc 1 418 0
 1182 017c 07F11400 		add	r0, r7, #20
 1183 0180 0593     		str	r3, [sp, #20]
 1184 0182 3A68     		ldr	r2, [r7]
 1185 0184 0492     		str	r2, [sp, #16]
 1186 0186 7A68     		ldr	r2, [r7, #4]
 1187 0188 0392     		str	r2, [sp, #12]
 1188 018a BB68     		ldr	r3, [r7, #8]
 1189 018c 0293     		str	r3, [sp, #8]
 1190 018e 0196     		str	r6, [sp, #4]
 1191 0190 0095     		str	r5, [sp]
 1192 0192 2346     		mov	r3, r4
 1193 0194 114A     		ldr	r2, .L82+20
 1194 0196 8021     		movs	r1, #128
 1195 0198 FFF7FEFF 		bl	snprintf
 424:app_statemachine.c ****             UART_DEBUG_PutString(b);
 1196              		.loc 1 424 0
 1197 019c 07F11403 		add	r3, r7, #20
 1198 01a0 1846     		mov	r0, r3
 1199 01a2 FFF7FEFF 		bl	UART_DEBUG_PutString
 1200 01a6 00E0     		b	.L75
 1201              	.L81:
ARM GAS  C:\Users\JENNEW~1\AppData\Local\Temp\cc33Iuyf.s 			page 31


 412:app_statemachine.c ****             if (s == STREAM_COARSE) {  // Save coarse tracking centroids
 1202              		.loc 1 412 0
 1203 01a8 00BF     		nop
 1204              	.L75:
 1205              	.LBE9:
 410:app_statemachine.c ****             payload_centroid_t c;
 1206              		.loc 1 410 0 discriminator 2
 1207 01aa 97F8AE30 		ldrb	r3, [r7, #174]	@ zero_extendqisi2
 1208 01ae 0133     		adds	r3, r3, #1
 1209 01b0 87F8AE30 		strb	r3, [r7, #174]
 1210              	.L73:
 410:app_statemachine.c ****             payload_centroid_t c;
 1211              		.loc 1 410 0 is_stmt 0 discriminator 1
 1212 01b4 97F8AE30 		ldrb	r3, [r7, #174]	@ zero_extendqisi2
 1213 01b8 012B     		cmp	r3, #1
 1214 01ba AAD9     		bls	.L77
 1215 01bc 00E0     		b	.L60
 1216              	.L80:
 1217              	.LBE8:
 1218              	.LBE7:
 1219              	.LBB10:
 390:app_statemachine.c ****     }
 1220              		.loc 1 390 0 is_stmt 1
 1221 01be 00BF     		nop
 1222              	.L60:
 1223              	.LBE10:
 425:app_statemachine.c ****         }
 426:app_statemachine.c ****     }
 427:app_statemachine.c **** }
 1224              		.loc 1 427 0
 1225 01c0 B437     		adds	r7, r7, #180
 1226              		.cfi_def_cfa_offset 20
 1227 01c2 BD46     		mov	sp, r7
 1228              		.cfi_def_cfa_register 13
 1229              		@ sp needed
 1230 01c4 F0BD     		pop	{r4, r5, r6, r7, pc}
 1231              	.L83:
 1232 01c6 00BF     		.align	2
 1233              	.L82:
 1234 01c8 00000000 		.word	g_tick_ms
 1235 01cc CDCC4C3D 		.word	1028443341
 1236 01d0 AC020000 		.word	.LC20
 1237 01d4 08000000 		.word	last_pt_ms.8211
 1238 01d8 00000000 		.word	tag.8212
 1239 01dc D0020000 		.word	.LC21
 1240              		.cfi_endproc
 1241              	.LFE75:
 1242              		.size	app_auto_tick, .-app_auto_tick
 1243              		.section	.rodata
 1244 0309 000000   		.align	2
 1245              	.LC22:
 1246 030c 0D0A5B41 		.ascii	"\015\012[AUTO_HOME] slewing to origin  e=exit\015\012"
 1246      55544F5F 
 1246      484F4D45 
 1246      5D20736C 
 1246      6577696E 
 1247 0335 3E2000   		.ascii	"> \000"
ARM GAS  C:\Users\JENNEW~1\AppData\Local\Temp\cc33Iuyf.s 			page 32


 1248              		.align	2
 1249              	.LC23:
 1250 0338 6E6F206F 		.ascii	"no origin set (press '[' first)\000"
 1250      72696769 
 1250      6E207365 
 1250      74202870 
 1250      72657373 
 1251              		.align	2
 1252              	.LC24:
 1253 0358 6E6F2074 		.ascii	"no telemetry (home aborted)\000"
 1253      656C656D 
 1253      65747279 
 1253      2028686F 
 1253      6D652061 
 1254              		.section	.text.entry_auto_home,"ax",%progbits
 1255              		.align	2
 1256              		.thumb
 1257              		.thumb_func
 1258              		.type	entry_auto_home, %function
 1259              	entry_auto_home:
 1260              	.LFB76:
 428:app_statemachine.c **** 
 429:app_statemachine.c **** // AUTO_HOME %================================================================%
 430:app_statemachine.c **** static void entry_auto_home(app_ctx_t *ctx)
 431:app_statemachine.c **** {
 1261              		.loc 1 431 0
 1262              		.cfi_startproc
 1263              		@ args = 0, pretend = 0, frame = 16
 1264              		@ frame_needed = 1, uses_anonymous_args = 0
 1265 0000 80B5     		push	{r7, lr}
 1266              		.cfi_def_cfa_offset 8
 1267              		.cfi_offset 7, -8
 1268              		.cfi_offset 14, -4
 1269 0002 84B0     		sub	sp, sp, #16
 1270              		.cfi_def_cfa_offset 24
 1271 0004 00AF     		add	r7, sp, #0
 1272              		.cfi_def_cfa_register 7
 1273 0006 7860     		str	r0, [r7, #4]
 432:app_statemachine.c ****     UART_DEBUG_PutString("\r\n[AUTO_HOME] slewing to origin  e=exit\r\n> ");
 1274              		.loc 1 432 0
 1275 0008 2148     		ldr	r0, .L89
 1276 000a FFF7FEFF 		bl	UART_DEBUG_PutString
 433:app_statemachine.c ****     if (!ctx->origin_set) {
 1277              		.loc 1 433 0
 1278 000e 7B68     		ldr	r3, [r7, #4]
 1279 0010 93F85430 		ldrb	r3, [r3, #84]	@ zero_extendqisi2
 1280 0014 002B     		cmp	r3, #0
 1281 0016 09D1     		bne	.L85
 434:app_statemachine.c ****         app_raise_error(ctx, SEV_USER, "no origin set (press '[' first)");
 1282              		.loc 1 434 0
 1283 0018 1E4A     		ldr	r2, .L89+4
 1284 001a 0021     		movs	r1, #0
 1285 001c 7868     		ldr	r0, [r7, #4]
 1286 001e FFF7FEFF 		bl	app_raise_error
 435:app_statemachine.c ****         transition(ctx, STBY_HOLD);
 1287              		.loc 1 435 0
 1288 0022 0621     		movs	r1, #6
ARM GAS  C:\Users\JENNEW~1\AppData\Local\Temp\cc33Iuyf.s 			page 33


 1289 0024 7868     		ldr	r0, [r7, #4]
 1290 0026 FFF7FEFF 		bl	transition
 436:app_statemachine.c ****         return;
 1291              		.loc 1 436 0
 1292 002a 2EE0     		b	.L84
 1293              	.L85:
 437:app_statemachine.c ****     }
 438:app_statemachine.c ****     float pan, tilt;
 439:app_statemachine.c ****     if (!gimbal_pan_tilt_deg(ctx, &pan, &tilt)) {
 1294              		.loc 1 439 0
 1295 002c 07F10802 		add	r2, r7, #8
 1296 0030 07F10C03 		add	r3, r7, #12
 1297 0034 1946     		mov	r1, r3
 1298 0036 7868     		ldr	r0, [r7, #4]
 1299 0038 FFF7FEFF 		bl	gimbal_pan_tilt_deg
 1300 003c 0346     		mov	r3, r0
 1301 003e 002B     		cmp	r3, #0
 1302 0040 09D1     		bne	.L87
 440:app_statemachine.c ****         app_raise_error(ctx, SEV_USER, "no telemetry (home aborted)");
 1303              		.loc 1 440 0
 1304 0042 154A     		ldr	r2, .L89+8
 1305 0044 0021     		movs	r1, #0
 1306 0046 7868     		ldr	r0, [r7, #4]
 1307 0048 FFF7FEFF 		bl	app_raise_error
 441:app_statemachine.c ****         transition(ctx, STBY_HOLD);
 1308              		.loc 1 441 0
 1309 004c 0621     		movs	r1, #6
 1310 004e 7868     		ldr	r0, [r7, #4]
 1311 0050 FFF7FEFF 		bl	transition
 442:app_statemachine.c ****         return;
 1312              		.loc 1 442 0
 1313 0054 19E0     		b	.L84
 1314              	.L87:
 443:app_statemachine.c ****     }
 444:app_statemachine.c ****     ctx->nudge_base_pan_deg  = pan;
 1315              		.loc 1 444 0
 1316 0056 FA68     		ldr	r2, [r7, #12]	@ float
 1317 0058 7B68     		ldr	r3, [r7, #4]
 1318 005a C3F88020 		str	r2, [r3, #128]	@ float
 445:app_statemachine.c ****     ctx->nudge_base_tilt_deg = tilt;
 1319              		.loc 1 445 0
 1320 005e BA68     		ldr	r2, [r7, #8]	@ float
 1321 0060 7B68     		ldr	r3, [r7, #4]
 1322 0062 C3F88420 		str	r2, [r3, #132]	@ float
 446:app_statemachine.c ****     ctx->tgt_pan_deg         = ctx->origin_pan_deg;
 1323              		.loc 1 446 0
 1324 0066 7B68     		ldr	r3, [r7, #4]
 1325 0068 DA6C     		ldr	r2, [r3, #76]	@ float
 1326 006a 7B68     		ldr	r3, [r7, #4]
 1327 006c C3F88820 		str	r2, [r3, #136]	@ float
 447:app_statemachine.c ****     ctx->tgt_tilt_deg        = ctx->origin_tilt_deg;
 1328              		.loc 1 447 0
 1329 0070 7B68     		ldr	r3, [r7, #4]
 1330 0072 1A6D     		ldr	r2, [r3, #80]	@ float
 1331 0074 7B68     		ldr	r3, [r7, #4]
 1332 0076 C3F88C20 		str	r2, [r3, #140]	@ float
 448:app_statemachine.c ****     ctx->nudge_hold          = 1u;
ARM GAS  C:\Users\JENNEW~1\AppData\Local\Temp\cc33Iuyf.s 			page 34


 1333              		.loc 1 448 0
 1334 007a 7B68     		ldr	r3, [r7, #4]
 1335 007c 0122     		movs	r2, #1
 1336 007e 83F87820 		strb	r2, [r3, #120]
 449:app_statemachine.c ****     ctx->nudge_start_ms      = g_tick_ms;
 1337              		.loc 1 449 0
 1338 0082 064B     		ldr	r3, .L89+12
 1339 0084 1A68     		ldr	r2, [r3]
 1340 0086 7B68     		ldr	r3, [r7, #4]
 1341 0088 DA67     		str	r2, [r3, #124]
 1342              	.L84:
 450:app_statemachine.c **** }
 1343              		.loc 1 450 0
 1344 008a 1037     		adds	r7, r7, #16
 1345              		.cfi_def_cfa_offset 8
 1346 008c BD46     		mov	sp, r7
 1347              		.cfi_def_cfa_register 13
 1348              		@ sp needed
 1349 008e 80BD     		pop	{r7, pc}
 1350              	.L90:
 1351              		.align	2
 1352              	.L89:
 1353 0090 0C030000 		.word	.LC22
 1354 0094 38030000 		.word	.LC23
 1355 0098 58030000 		.word	.LC24
 1356 009c 00000000 		.word	g_tick_ms
 1357              		.cfi_endproc
 1358              	.LFE76:
 1359              		.size	entry_auto_home, .-entry_auto_home
 1360              		.section	.text.exit_auto_home,"ax",%progbits
 1361              		.align	2
 1362              		.thumb
 1363              		.thumb_func
 1364              		.type	exit_auto_home, %function
 1365              	exit_auto_home:
 1366              	.LFB77:
 451:app_statemachine.c **** static void exit_auto_home(app_ctx_t *ctx) { ctx->nudge_hold = 0u; }
 1367              		.loc 1 451 0
 1368              		.cfi_startproc
 1369              		@ args = 0, pretend = 0, frame = 8
 1370              		@ frame_needed = 1, uses_anonymous_args = 0
 1371              		@ link register save eliminated.
 1372 0000 80B4     		push	{r7}
 1373              		.cfi_def_cfa_offset 4
 1374              		.cfi_offset 7, -4
 1375 0002 83B0     		sub	sp, sp, #12
 1376              		.cfi_def_cfa_offset 16
 1377 0004 00AF     		add	r7, sp, #0
 1378              		.cfi_def_cfa_register 7
 1379 0006 7860     		str	r0, [r7, #4]
 1380              		.loc 1 451 0
 1381 0008 7B68     		ldr	r3, [r7, #4]
 1382 000a 0022     		movs	r2, #0
 1383 000c 83F87820 		strb	r2, [r3, #120]
 1384 0010 00BF     		nop
 1385 0012 0C37     		adds	r7, r7, #12
 1386              		.cfi_def_cfa_offset 4
ARM GAS  C:\Users\JENNEW~1\AppData\Local\Temp\cc33Iuyf.s 			page 35


 1387 0014 BD46     		mov	sp, r7
 1388              		.cfi_def_cfa_register 13
 1389              		@ sp needed
 1390 0016 80BC     		pop	{r7}
 1391              		.cfi_restore 7
 1392              		.cfi_def_cfa_offset 0
 1393 0018 7047     		bx	lr
 1394              		.cfi_endproc
 1395              	.LFE77:
 1396              		.size	exit_auto_home, .-exit_auto_home
 1397 001a 00BF     		.section	.text.key_auto_home,"ax",%progbits
 1398              		.align	2
 1399              		.thumb
 1400              		.thumb_func
 1401              		.type	key_auto_home, %function
 1402              	key_auto_home:
 1403              	.LFB78:
 452:app_statemachine.c **** 
 453:app_statemachine.c **** static uint8_t key_auto_home(app_ctx_t *ctx, char k)
 454:app_statemachine.c **** {
 1404              		.loc 1 454 0
 1405              		.cfi_startproc
 1406              		@ args = 0, pretend = 0, frame = 8
 1407              		@ frame_needed = 1, uses_anonymous_args = 0
 1408 0000 80B5     		push	{r7, lr}
 1409              		.cfi_def_cfa_offset 8
 1410              		.cfi_offset 7, -8
 1411              		.cfi_offset 14, -4
 1412 0002 82B0     		sub	sp, sp, #8
 1413              		.cfi_def_cfa_offset 16
 1414 0004 00AF     		add	r7, sp, #0
 1415              		.cfi_def_cfa_register 7
 1416 0006 7860     		str	r0, [r7, #4]
 1417 0008 0B46     		mov	r3, r1
 1418 000a FB70     		strb	r3, [r7, #3]
 455:app_statemachine.c ****     switch (k) {
 1419              		.loc 1 455 0
 1420 000c FB78     		ldrb	r3, [r7, #3]	@ zero_extendqisi2
 1421 000e 652B     		cmp	r3, #101
 1422 0010 05D1     		bne	.L96
 456:app_statemachine.c ****         case 'e': transition(ctx, STBY_HOLD); return 1;
 1423              		.loc 1 456 0
 1424 0012 0621     		movs	r1, #6
 1425 0014 7868     		ldr	r0, [r7, #4]
 1426 0016 FFF7FEFF 		bl	transition
 1427 001a 0123     		movs	r3, #1
 1428 001c 00E0     		b	.L95
 1429              	.L96:
 457:app_statemachine.c ****         default:  return 0;
 1430              		.loc 1 457 0
 1431 001e 0023     		movs	r3, #0
 1432              	.L95:
 458:app_statemachine.c ****     }
 459:app_statemachine.c **** }
 1433              		.loc 1 459 0
 1434 0020 1846     		mov	r0, r3
 1435 0022 0837     		adds	r7, r7, #8
ARM GAS  C:\Users\JENNEW~1\AppData\Local\Temp\cc33Iuyf.s 			page 36


 1436              		.cfi_def_cfa_offset 8
 1437 0024 BD46     		mov	sp, r7
 1438              		.cfi_def_cfa_register 13
 1439              		@ sp needed
 1440 0026 80BD     		pop	{r7, pc}
 1441              		.cfi_endproc
 1442              	.LFE78:
 1443              		.size	key_auto_home, .-key_auto_home
 1444              		.global	__aeabi_fdiv
 1445              		.section	.text.build_auto_home,"ax",%progbits
 1446              		.align	2
 1447              		.thumb
 1448              		.thumb_func
 1449              		.type	build_auto_home, %function
 1450              	build_auto_home:
 1451              	.LFB79:
 460:app_statemachine.c **** 
 461:app_statemachine.c **** static void build_auto_home(const app_ctx_t *ctx, hamfly_control_t *out)
 462:app_statemachine.c **** {
 1452              		.loc 1 462 0
 1453              		.cfi_startproc
 1454              		@ args = 0, pretend = 0, frame = 8
 1455              		@ frame_needed = 1, uses_anonymous_args = 0
 1456 0000 80B5     		push	{r7, lr}
 1457              		.cfi_def_cfa_offset 8
 1458              		.cfi_offset 7, -8
 1459              		.cfi_offset 14, -4
 1460 0002 82B0     		sub	sp, sp, #8
 1461              		.cfi_def_cfa_offset 16
 1462 0004 00AF     		add	r7, sp, #0
 1463              		.cfi_def_cfa_register 7
 1464 0006 7860     		str	r0, [r7, #4]
 1465 0008 3960     		str	r1, [r7]
 463:app_statemachine.c ****     out->kill      = 0u;
 1466              		.loc 1 463 0
 1467 000a 3B68     		ldr	r3, [r7]
 1468 000c 0022     		movs	r2, #0
 1469 000e 1A74     		strb	r2, [r3, #16]
 464:app_statemachine.c ****     out->roll_mode = HAMFLY_DEFER;
 1470              		.loc 1 464 0
 1471 0010 3B68     		ldr	r3, [r7]
 1472 0012 0022     		movs	r2, #0
 1473 0014 9A73     		strb	r2, [r3, #14]
 465:app_statemachine.c ****     out->roll      = 0.0f;
 1474              		.loc 1 465 0
 1475 0016 3B68     		ldr	r3, [r7]
 1476 0018 4FF00002 		mov	r2, #0
 1477 001c 9A60     		str	r2, [r3, #8]	@ float
 466:app_statemachine.c ****     out->pan_mode  = out->tilt_mode = HAMFLY_ABSOLUTE;
 1478              		.loc 1 466 0
 1479 001e 3B68     		ldr	r3, [r7]
 1480 0020 0222     		movs	r2, #2
 1481 0022 5A73     		strb	r2, [r3, #13]
 1482 0024 3B68     		ldr	r3, [r7]
 1483 0026 5A7B     		ldrb	r2, [r3, #13]	@ zero_extendqisi2
 1484 0028 3B68     		ldr	r3, [r7]
 1485 002a 1A73     		strb	r2, [r3, #12]
ARM GAS  C:\Users\JENNEW~1\AppData\Local\Temp\cc33Iuyf.s 			page 37


 467:app_statemachine.c ****     out->pan  = DEG_TO_UNIT(ctx->tgt_pan_deg - ctx->nudge_base_pan_deg);
 1486              		.loc 1 467 0
 1487 002c 7B68     		ldr	r3, [r7, #4]
 1488 002e D3F88820 		ldr	r2, [r3, #136]	@ float
 1489 0032 7B68     		ldr	r3, [r7, #4]
 1490 0034 D3F88030 		ldr	r3, [r3, #128]	@ float
 1491 0038 1946     		mov	r1, r3
 1492 003a 1046     		mov	r0, r2
 1493 003c FFF7FEFF 		bl	__aeabi_fsub
 1494 0040 0346     		mov	r3, r0
 1495 0042 0B49     		ldr	r1, .L98
 1496 0044 1846     		mov	r0, r3
 1497 0046 FFF7FEFF 		bl	__aeabi_fdiv
 1498 004a 0346     		mov	r3, r0
 1499 004c 1A46     		mov	r2, r3
 1500 004e 3B68     		ldr	r3, [r7]
 1501 0050 1A60     		str	r2, [r3]	@ float
 468:app_statemachine.c ****     out->tilt = DEG_TO_UNIT(ctx->tgt_tilt_deg);
 1502              		.loc 1 468 0
 1503 0052 7B68     		ldr	r3, [r7, #4]
 1504 0054 D3F88C30 		ldr	r3, [r3, #140]	@ float
 1505 0058 0549     		ldr	r1, .L98
 1506 005a 1846     		mov	r0, r3
 1507 005c FFF7FEFF 		bl	__aeabi_fdiv
 1508 0060 0346     		mov	r3, r0
 1509 0062 1A46     		mov	r2, r3
 1510 0064 3B68     		ldr	r3, [r7]
 1511 0066 5A60     		str	r2, [r3, #4]	@ float
 469:app_statemachine.c **** }
 1512              		.loc 1 469 0
 1513 0068 00BF     		nop
 1514 006a 0837     		adds	r7, r7, #8
 1515              		.cfi_def_cfa_offset 8
 1516 006c BD46     		mov	sp, r7
 1517              		.cfi_def_cfa_register 13
 1518              		@ sp needed
 1519 006e 80BD     		pop	{r7, pc}
 1520              	.L99:
 1521              		.align	2
 1522              	.L98:
 1523 0070 00003443 		.word	1127481344
 1524              		.cfi_endproc
 1525              	.LFE79:
 1526              		.size	build_auto_home, .-build_auto_home
 1527              		.global	__aeabi_fmul
 1528              		.global	__aeabi_fadd
 1529              		.section	.text.gps_bearing_deg,"ax",%progbits
 1530              		.align	2
 1531              		.thumb
 1532              		.thumb_func
 1533              		.type	gps_bearing_deg, %function
 1534              	gps_bearing_deg:
 1535              	.LFB80:
 470:app_statemachine.c **** 
 471:app_statemachine.c **** // AUTO_GPS %=================================================================%
 472:app_statemachine.c **** // All float trig; PSoC 5 LP has no HW FPU, so callers run these at most 1 Hz.
 473:app_statemachine.c **** static float gps_bearing_deg(float lat1, float lon1, float lat2, float lon2)
ARM GAS  C:\Users\JENNEW~1\AppData\Local\Temp\cc33Iuyf.s 			page 38


 474:app_statemachine.c **** {
 1536              		.loc 1 474 0
 1537              		.cfi_startproc
 1538              		@ args = 0, pretend = 0, frame = 40
 1539              		@ frame_needed = 1, uses_anonymous_args = 0
 1540 0000 B0B5     		push	{r4, r5, r7, lr}
 1541              		.cfi_def_cfa_offset 16
 1542              		.cfi_offset 4, -16
 1543              		.cfi_offset 5, -12
 1544              		.cfi_offset 7, -8
 1545              		.cfi_offset 14, -4
 1546 0002 8AB0     		sub	sp, sp, #40
 1547              		.cfi_def_cfa_offset 56
 1548 0004 00AF     		add	r7, sp, #0
 1549              		.cfi_def_cfa_register 7
 1550 0006 F860     		str	r0, [r7, #12]	@ float
 1551 0008 B960     		str	r1, [r7, #8]	@ float
 1552 000a 7A60     		str	r2, [r7, #4]	@ float
 1553 000c 3B60     		str	r3, [r7]	@ float
 475:app_statemachine.c ****     float la1 = lat1 * DEG_TO_RAD, la2 = lat2 * DEG_TO_RAD;
 1554              		.loc 1 475 0
 1555 000e 3749     		ldr	r1, .L105
 1556 0010 F868     		ldr	r0, [r7, #12]	@ float
 1557 0012 FFF7FEFF 		bl	__aeabi_fmul
 1558 0016 0346     		mov	r3, r0
 1559 0018 3B62     		str	r3, [r7, #32]	@ float
 1560 001a 3449     		ldr	r1, .L105
 1561 001c 7868     		ldr	r0, [r7, #4]	@ float
 1562 001e FFF7FEFF 		bl	__aeabi_fmul
 1563 0022 0346     		mov	r3, r0
 1564 0024 FB61     		str	r3, [r7, #28]	@ float
 476:app_statemachine.c ****     float dlo = (lon2 - lon1) * DEG_TO_RAD;
 1565              		.loc 1 476 0
 1566 0026 B968     		ldr	r1, [r7, #8]	@ float
 1567 0028 3868     		ldr	r0, [r7]	@ float
 1568 002a FFF7FEFF 		bl	__aeabi_fsub
 1569 002e 0346     		mov	r3, r0
 1570 0030 2E49     		ldr	r1, .L105
 1571 0032 1846     		mov	r0, r3
 1572 0034 FFF7FEFF 		bl	__aeabi_fmul
 1573 0038 0346     		mov	r3, r0
 1574 003a BB61     		str	r3, [r7, #24]	@ float
 477:app_statemachine.c ****     float x   = sinf(dlo) * cosf(la2);
 1575              		.loc 1 477 0
 1576 003c B869     		ldr	r0, [r7, #24]	@ float
 1577 003e FFF7FEFF 		bl	sinf
 1578 0042 0446     		mov	r4, r0
 1579 0044 F869     		ldr	r0, [r7, #28]	@ float
 1580 0046 FFF7FEFF 		bl	cosf
 1581 004a 0346     		mov	r3, r0
 1582 004c 1946     		mov	r1, r3
 1583 004e 2046     		mov	r0, r4
 1584 0050 FFF7FEFF 		bl	__aeabi_fmul
 1585 0054 0346     		mov	r3, r0
 1586 0056 7B61     		str	r3, [r7, #20]	@ float
 478:app_statemachine.c ****     float y   = cosf(la1) * sinf(la2) - sinf(la1) * cosf(la2) * cosf(dlo);
 1587              		.loc 1 478 0
ARM GAS  C:\Users\JENNEW~1\AppData\Local\Temp\cc33Iuyf.s 			page 39


 1588 0058 386A     		ldr	r0, [r7, #32]	@ float
 1589 005a FFF7FEFF 		bl	cosf
 1590 005e 0446     		mov	r4, r0
 1591 0060 F869     		ldr	r0, [r7, #28]	@ float
 1592 0062 FFF7FEFF 		bl	sinf
 1593 0066 0346     		mov	r3, r0
 1594 0068 1946     		mov	r1, r3
 1595 006a 2046     		mov	r0, r4
 1596 006c FFF7FEFF 		bl	__aeabi_fmul
 1597 0070 0346     		mov	r3, r0
 1598 0072 1C46     		mov	r4, r3
 1599 0074 386A     		ldr	r0, [r7, #32]	@ float
 1600 0076 FFF7FEFF 		bl	sinf
 1601 007a 0546     		mov	r5, r0
 1602 007c F869     		ldr	r0, [r7, #28]	@ float
 1603 007e FFF7FEFF 		bl	cosf
 1604 0082 0346     		mov	r3, r0
 1605 0084 1946     		mov	r1, r3
 1606 0086 2846     		mov	r0, r5
 1607 0088 FFF7FEFF 		bl	__aeabi_fmul
 1608 008c 0346     		mov	r3, r0
 1609 008e 1D46     		mov	r5, r3
 1610 0090 B869     		ldr	r0, [r7, #24]	@ float
 1611 0092 FFF7FEFF 		bl	cosf
 1612 0096 0346     		mov	r3, r0
 1613 0098 1946     		mov	r1, r3
 1614 009a 2846     		mov	r0, r5
 1615 009c FFF7FEFF 		bl	__aeabi_fmul
 1616 00a0 0346     		mov	r3, r0
 1617 00a2 1946     		mov	r1, r3
 1618 00a4 2046     		mov	r0, r4
 1619 00a6 FFF7FEFF 		bl	__aeabi_fsub
 1620 00aa 0346     		mov	r3, r0
 1621 00ac 3B61     		str	r3, [r7, #16]	@ float
 479:app_statemachine.c ****     float b   = atan2f(x, y) * RAD_TO_DEG;
 1622              		.loc 1 479 0
 1623 00ae 3969     		ldr	r1, [r7, #16]	@ float
 1624 00b0 7869     		ldr	r0, [r7, #20]	@ float
 1625 00b2 FFF7FEFF 		bl	atan2f
 1626 00b6 0346     		mov	r3, r0
 1627 00b8 0D49     		ldr	r1, .L105+4
 1628 00ba 1846     		mov	r0, r3
 1629 00bc FFF7FEFF 		bl	__aeabi_fmul
 1630 00c0 0346     		mov	r3, r0
 1631 00c2 7B62     		str	r3, [r7, #36]	@ float
 480:app_statemachine.c ****     if (b < 0.0f) b += 360.0f;
 1632              		.loc 1 480 0
 1633 00c4 4FF00001 		mov	r1, #0
 1634 00c8 786A     		ldr	r0, [r7, #36]	@ float
 1635 00ca FFF7FEFF 		bl	__aeabi_fcmplt
 1636 00ce 0346     		mov	r3, r0
 1637 00d0 002B     		cmp	r3, #0
 1638 00d2 05D0     		beq	.L101
 1639              		.loc 1 480 0 is_stmt 0 discriminator 1
 1640 00d4 0749     		ldr	r1, .L105+8
 1641 00d6 786A     		ldr	r0, [r7, #36]	@ float
 1642 00d8 FFF7FEFF 		bl	__aeabi_fadd
ARM GAS  C:\Users\JENNEW~1\AppData\Local\Temp\cc33Iuyf.s 			page 40


 1643 00dc 0346     		mov	r3, r0
 1644 00de 7B62     		str	r3, [r7, #36]	@ float
 1645              	.L101:
 481:app_statemachine.c ****     return b;  // 0 = North, clockwise
 1646              		.loc 1 481 0 is_stmt 1
 1647 00e0 7B6A     		ldr	r3, [r7, #36]	@ float
 482:app_statemachine.c **** }
 1648              		.loc 1 482 0
 1649 00e2 1846     		mov	r0, r3
 1650 00e4 2837     		adds	r7, r7, #40
 1651              		.cfi_def_cfa_offset 16
 1652 00e6 BD46     		mov	sp, r7
 1653              		.cfi_def_cfa_register 13
 1654              		@ sp needed
 1655 00e8 B0BD     		pop	{r4, r5, r7, pc}
 1656              	.L106:
 1657 00ea 00BF     		.align	2
 1658              	.L105:
 1659 00ec 98F98E3C 		.word	1016002968
 1660 00f0 E62E6542 		.word	1113927398
 1661 00f4 0000B443 		.word	1135869952
 1662              		.cfi_endproc
 1663              	.LFE80:
 1664              		.size	gps_bearing_deg, .-gps_bearing_deg
 1665              		.section	.text.gps_elev_deg,"ax",%progbits
 1666              		.align	2
 1667              		.thumb
 1668              		.thumb_func
 1669              		.type	gps_elev_deg, %function
 1670              	gps_elev_deg:
 1671              	.LFB81:
 483:app_statemachine.c **** static float gps_elev_deg(float lat1, float lon1, float alt1_m,
 484:app_statemachine.c ****                           float lat2, float lon2, float alt2_m)
 485:app_statemachine.c **** {
 1672              		.loc 1 485 0
 1673              		.cfi_startproc
 1674              		@ args = 8, pretend = 0, frame = 40
 1675              		@ frame_needed = 1, uses_anonymous_args = 0
 1676 0000 B0B5     		push	{r4, r5, r7, lr}
 1677              		.cfi_def_cfa_offset 16
 1678              		.cfi_offset 4, -16
 1679              		.cfi_offset 5, -12
 1680              		.cfi_offset 7, -8
 1681              		.cfi_offset 14, -4
 1682 0002 8AB0     		sub	sp, sp, #40
 1683              		.cfi_def_cfa_offset 56
 1684 0004 00AF     		add	r7, sp, #0
 1685              		.cfi_def_cfa_register 7
 1686 0006 F860     		str	r0, [r7, #12]	@ float
 1687 0008 B960     		str	r1, [r7, #8]	@ float
 1688 000a 7A60     		str	r2, [r7, #4]	@ float
 1689 000c 3B60     		str	r3, [r7]	@ float
 486:app_statemachine.c ****     float la1 = lat1 * DEG_TO_RAD, la2 = lat2 * DEG_TO_RAD;
 1690              		.loc 1 486 0
 1691 000e 5049     		ldr	r1, .L112
 1692 0010 F868     		ldr	r0, [r7, #12]	@ float
 1693 0012 FFF7FEFF 		bl	__aeabi_fmul
ARM GAS  C:\Users\JENNEW~1\AppData\Local\Temp\cc33Iuyf.s 			page 41


 1694 0016 0346     		mov	r3, r0
 1695 0018 3B62     		str	r3, [r7, #32]	@ float
 1696 001a 4D49     		ldr	r1, .L112
 1697 001c 3868     		ldr	r0, [r7]	@ float
 1698 001e FFF7FEFF 		bl	__aeabi_fmul
 1699 0022 0346     		mov	r3, r0
 1700 0024 FB61     		str	r3, [r7, #28]	@ float
 487:app_statemachine.c ****     float dlo = (lon2 - lon1) * DEG_TO_RAD;
 1701              		.loc 1 487 0
 1702 0026 B968     		ldr	r1, [r7, #8]	@ float
 1703 0028 B86B     		ldr	r0, [r7, #56]	@ float
 1704 002a FFF7FEFF 		bl	__aeabi_fsub
 1705 002e 0346     		mov	r3, r0
 1706 0030 4749     		ldr	r1, .L112
 1707 0032 1846     		mov	r0, r3
 1708 0034 FFF7FEFF 		bl	__aeabi_fmul
 1709 0038 0346     		mov	r3, r0
 1710 003a BB61     		str	r3, [r7, #24]	@ float
 488:app_statemachine.c ****     float dla = la2 - la1;
 1711              		.loc 1 488 0
 1712 003c 396A     		ldr	r1, [r7, #32]	@ float
 1713 003e F869     		ldr	r0, [r7, #28]	@ float
 1714 0040 FFF7FEFF 		bl	__aeabi_fsub
 1715 0044 0346     		mov	r3, r0
 1716 0046 7B61     		str	r3, [r7, #20]	@ float
 489:app_statemachine.c ****     float a   = sinf(dla * 0.5f) * sinf(dla * 0.5f)
 1717              		.loc 1 489 0
 1718 0048 4FF07C51 		mov	r1, #1056964608
 1719 004c 7869     		ldr	r0, [r7, #20]	@ float
 1720 004e FFF7FEFF 		bl	__aeabi_fmul
 1721 0052 0346     		mov	r3, r0
 1722 0054 1846     		mov	r0, r3
 1723 0056 FFF7FEFF 		bl	sinf
 1724 005a 0446     		mov	r4, r0
 1725 005c 4FF07C51 		mov	r1, #1056964608
 1726 0060 7869     		ldr	r0, [r7, #20]	@ float
 1727 0062 FFF7FEFF 		bl	__aeabi_fmul
 1728 0066 0346     		mov	r3, r0
 1729 0068 1846     		mov	r0, r3
 1730 006a FFF7FEFF 		bl	sinf
 1731 006e 0346     		mov	r3, r0
 1732 0070 1946     		mov	r1, r3
 1733 0072 2046     		mov	r0, r4
 1734 0074 FFF7FEFF 		bl	__aeabi_fmul
 1735 0078 0346     		mov	r3, r0
 1736 007a 1C46     		mov	r4, r3
 490:app_statemachine.c ****               + cosf(la1) * cosf(la2) * sinf(dlo * 0.5f) * sinf(dlo * 0.5f);
 1737              		.loc 1 490 0
 1738 007c 386A     		ldr	r0, [r7, #32]	@ float
 1739 007e FFF7FEFF 		bl	cosf
 1740 0082 0546     		mov	r5, r0
 1741 0084 F869     		ldr	r0, [r7, #28]	@ float
 1742 0086 FFF7FEFF 		bl	cosf
 1743 008a 0346     		mov	r3, r0
 1744 008c 1946     		mov	r1, r3
 1745 008e 2846     		mov	r0, r5
 1746 0090 FFF7FEFF 		bl	__aeabi_fmul
ARM GAS  C:\Users\JENNEW~1\AppData\Local\Temp\cc33Iuyf.s 			page 42


 1747 0094 0346     		mov	r3, r0
 1748 0096 1D46     		mov	r5, r3
 1749 0098 4FF07C51 		mov	r1, #1056964608
 1750 009c B869     		ldr	r0, [r7, #24]	@ float
 1751 009e FFF7FEFF 		bl	__aeabi_fmul
 1752 00a2 0346     		mov	r3, r0
 1753 00a4 1846     		mov	r0, r3
 1754 00a6 FFF7FEFF 		bl	sinf
 1755 00aa 0346     		mov	r3, r0
 1756 00ac 1946     		mov	r1, r3
 1757 00ae 2846     		mov	r0, r5
 1758 00b0 FFF7FEFF 		bl	__aeabi_fmul
 1759 00b4 0346     		mov	r3, r0
 1760 00b6 1D46     		mov	r5, r3
 1761 00b8 4FF07C51 		mov	r1, #1056964608
 1762 00bc B869     		ldr	r0, [r7, #24]	@ float
 1763 00be FFF7FEFF 		bl	__aeabi_fmul
 1764 00c2 0346     		mov	r3, r0
 1765 00c4 1846     		mov	r0, r3
 1766 00c6 FFF7FEFF 		bl	sinf
 1767 00ca 0346     		mov	r3, r0
 1768 00cc 1946     		mov	r1, r3
 1769 00ce 2846     		mov	r0, r5
 1770 00d0 FFF7FEFF 		bl	__aeabi_fmul
 1771 00d4 0346     		mov	r3, r0
 489:app_statemachine.c ****     float a   = sinf(dla * 0.5f) * sinf(dla * 0.5f)
 1772              		.loc 1 489 0
 1773 00d6 1946     		mov	r1, r3
 1774 00d8 2046     		mov	r0, r4
 1775 00da FFF7FEFF 		bl	__aeabi_fadd
 1776 00de 0346     		mov	r3, r0
 1777 00e0 3B61     		str	r3, [r7, #16]	@ float
 491:app_statemachine.c ****     float dist_m = 2.0f * GPS_EARTH_R_M * atan2f(sqrtf(a), sqrtf(1.0f - a));
 1778              		.loc 1 491 0
 1779 00e2 3869     		ldr	r0, [r7, #16]	@ float
 1780 00e4 FFF7FEFF 		bl	sqrtf
 1781 00e8 0446     		mov	r4, r0
 1782 00ea 3969     		ldr	r1, [r7, #16]	@ float
 1783 00ec 4FF07E50 		mov	r0, #1065353216
 1784 00f0 FFF7FEFF 		bl	__aeabi_fsub
 1785 00f4 0346     		mov	r3, r0
 1786 00f6 1846     		mov	r0, r3
 1787 00f8 FFF7FEFF 		bl	sqrtf
 1788 00fc 0346     		mov	r3, r0
 1789 00fe 1946     		mov	r1, r3
 1790 0100 2046     		mov	r0, r4
 1791 0102 FFF7FEFF 		bl	atan2f
 1792 0106 0346     		mov	r3, r0
 1793 0108 1249     		ldr	r1, .L112+4
 1794 010a 1846     		mov	r0, r3
 1795 010c FFF7FEFF 		bl	__aeabi_fmul
 1796 0110 0346     		mov	r3, r0
 1797 0112 7B62     		str	r3, [r7, #36]	@ float
 492:app_statemachine.c ****     if (dist_m < 1.0f) dist_m = 1.0f;  // guard div/0 at zero range
 1798              		.loc 1 492 0
 1799 0114 4FF07E51 		mov	r1, #1065353216
 1800 0118 786A     		ldr	r0, [r7, #36]	@ float
ARM GAS  C:\Users\JENNEW~1\AppData\Local\Temp\cc33Iuyf.s 			page 43


 1801 011a FFF7FEFF 		bl	__aeabi_fcmplt
 1802 011e 0346     		mov	r3, r0
 1803 0120 002B     		cmp	r3, #0
 1804 0122 02D0     		beq	.L108
 1805              		.loc 1 492 0 is_stmt 0 discriminator 1
 1806 0124 4FF07E53 		mov	r3, #1065353216
 1807 0128 7B62     		str	r3, [r7, #36]	@ float
 1808              	.L108:
 493:app_statemachine.c ****     return atan2f(alt2_m - alt1_m, dist_m) * RAD_TO_DEG;
 1809              		.loc 1 493 0 is_stmt 1
 1810 012a 7968     		ldr	r1, [r7, #4]	@ float
 1811 012c F86B     		ldr	r0, [r7, #60]	@ float
 1812 012e FFF7FEFF 		bl	__aeabi_fsub
 1813 0132 0346     		mov	r3, r0
 1814 0134 796A     		ldr	r1, [r7, #36]	@ float
 1815 0136 1846     		mov	r0, r3
 1816 0138 FFF7FEFF 		bl	atan2f
 1817 013c 0346     		mov	r3, r0
 1818 013e 0649     		ldr	r1, .L112+8
 1819 0140 1846     		mov	r0, r3
 1820 0142 FFF7FEFF 		bl	__aeabi_fmul
 1821 0146 0346     		mov	r3, r0
 494:app_statemachine.c **** }
 1822              		.loc 1 494 0
 1823 0148 1846     		mov	r0, r3
 1824 014a 2837     		adds	r7, r7, #40
 1825              		.cfi_def_cfa_offset 16
 1826 014c BD46     		mov	sp, r7
 1827              		.cfi_def_cfa_register 13
 1828              		@ sp needed
 1829 014e B0BD     		pop	{r4, r5, r7, pc}
 1830              	.L113:
 1831              		.align	2
 1832              	.L112:
 1833 0150 98F98E3C 		.word	1016002968
 1834 0154 706D424B 		.word	1262644592
 1835 0158 E62E6542 		.word	1113927398
 1836              		.cfi_endproc
 1837              	.LFE81:
 1838              		.size	gps_elev_deg, .-gps_elev_deg
 1839              		.section	.text.gps_start_slew,"ax",%progbits
 1840              		.align	2
 1841              		.thumb
 1842              		.thumb_func
 1843              		.type	gps_start_slew, %function
 1844              	gps_start_slew:
 1845              	.LFB82:
 495:app_statemachine.c **** 
 496:app_statemachine.c **** // Snap the active target into the working copy and reset the slew.
 497:app_statemachine.c **** static void gps_start_slew(app_ctx_t *ctx)
 498:app_statemachine.c **** {
 1846              		.loc 1 498 0
 1847              		.cfi_startproc
 1848              		@ args = 0, pretend = 0, frame = 8
 1849              		@ frame_needed = 1, uses_anonymous_args = 0
 1850              		@ link register save eliminated.
 1851 0000 80B4     		push	{r7}
ARM GAS  C:\Users\JENNEW~1\AppData\Local\Temp\cc33Iuyf.s 			page 44


 1852              		.cfi_def_cfa_offset 4
 1853              		.cfi_offset 7, -4
 1854 0002 83B0     		sub	sp, sp, #12
 1855              		.cfi_def_cfa_offset 16
 1856 0004 00AF     		add	r7, sp, #0
 1857              		.cfi_def_cfa_register 7
 1858 0006 7860     		str	r0, [r7, #4]
 499:app_statemachine.c ****     ctx->gps_work_lat_raw = ctx->gps_target_lat_raw;
 1859              		.loc 1 499 0
 1860 0008 7B68     		ldr	r3, [r7, #4]
 1861 000a 9A69     		ldr	r2, [r3, #24]
 1862 000c 7B68     		ldr	r3, [r7, #4]
 1863 000e 9A62     		str	r2, [r3, #40]
 500:app_statemachine.c ****     ctx->gps_work_lon_raw = ctx->gps_target_lon_raw;
 1864              		.loc 1 500 0
 1865 0010 7B68     		ldr	r3, [r7, #4]
 1866 0012 DA69     		ldr	r2, [r3, #28]
 1867 0014 7B68     		ldr	r3, [r7, #4]
 1868 0016 DA62     		str	r2, [r3, #44]
 501:app_statemachine.c ****     ctx->gps_work_alt_mm  = ctx->gps_target_alt_mm;
 1869              		.loc 1 501 0
 1870 0018 7B68     		ldr	r3, [r7, #4]
 1871 001a 1A6A     		ldr	r2, [r3, #32]
 1872 001c 7B68     		ldr	r3, [r7, #4]
 1873 001e 1A63     		str	r2, [r3, #48]
 502:app_statemachine.c ****     ctx->gps_settled      = 0u;
 1874              		.loc 1 502 0
 1875 0020 7B68     		ldr	r3, [r7, #4]
 1876 0022 0022     		movs	r2, #0
 1877 0024 83F83420 		strb	r2, [r3, #52]
 503:app_statemachine.c ****     ctx->gps_new_target   = 0u;
 1878              		.loc 1 503 0
 1879 0028 7B68     		ldr	r3, [r7, #4]
 1880 002a 0022     		movs	r2, #0
 1881 002c 83F82520 		strb	r2, [r3, #37]
 504:app_statemachine.c **** }
 1882              		.loc 1 504 0
 1883 0030 00BF     		nop
 1884 0032 0C37     		adds	r7, r7, #12
 1885              		.cfi_def_cfa_offset 4
 1886 0034 BD46     		mov	sp, r7
 1887              		.cfi_def_cfa_register 13
 1888              		@ sp needed
 1889 0036 80BC     		pop	{r7}
 1890              		.cfi_restore 7
 1891              		.cfi_def_cfa_offset 0
 1892 0038 7047     		bx	lr
 1893              		.cfi_endproc
 1894              	.LFE82:
 1895              		.size	gps_start_slew, .-gps_start_slew
 1896              		.global	__aeabi_i2f
 1897 003a 00BF     		.section	.text.gps_update_pointing,"ax",%progbits
 1898              		.align	2
 1899              		.thumb
 1900              		.thumb_func
 1901              		.type	gps_update_pointing, %function
 1902              	gps_update_pointing:
ARM GAS  C:\Users\JENNEW~1\AppData\Local\Temp\cc33Iuyf.s 			page 45


 1903              	.LFB83:
 505:app_statemachine.c **** 
 506:app_statemachine.c **** // Recompute abs_pan/tilt setpoints from the working copy + live gimbal GPS.
 507:app_statemachine.c **** static void gps_update_pointing(app_ctx_t *ctx)
 508:app_statemachine.c **** {
 1904              		.loc 1 508 0
 1905              		.cfi_startproc
 1906              		@ args = 0, pretend = 0, frame = 256
 1907              		@ frame_needed = 1, uses_anonymous_args = 0
 1908 0000 80B5     		push	{r7, lr}
 1909              		.cfi_def_cfa_offset 8
 1910              		.cfi_offset 7, -8
 1911              		.cfi_offset 14, -4
 1912 0002 C2B0     		sub	sp, sp, #264
 1913              		.cfi_def_cfa_offset 272
 1914 0004 02AF     		add	r7, sp, #8
 1915              		.cfi_def_cfa 7, 264
 1916 0006 7860     		str	r0, [r7, #4]
 509:app_statemachine.c ****     hamfly_telemetry_t st;
 510:app_statemachine.c ****     hamfly_get_telemetry(ctx->gimbal, &st);
 1917              		.loc 1 510 0
 1918 0008 7B68     		ldr	r3, [r7, #4]
 1919 000a 1B68     		ldr	r3, [r3]
 1920 000c 07F10802 		add	r2, r7, #8
 1921 0010 1146     		mov	r1, r2
 1922 0012 1846     		mov	r0, r3
 1923 0014 FFF7FEFF 		bl	hamfly_get_telemetry
 511:app_statemachine.c ****     if (!st.gps_valid) return;
 1924              		.loc 1 511 0
 1925 0018 97F82630 		ldrb	r3, [r7, #38]	@ zero_extendqisi2
 1926 001c 83F00103 		eor	r3, r3, #1
 1927 0020 DBB2     		uxtb	r3, r3
 1928 0022 002B     		cmp	r3, #0
 1929 0024 54D1     		bne	.L118
 512:app_statemachine.c ****     float tlat = (float)ctx->gps_work_lat_raw * 1e-7f;
 1930              		.loc 1 512 0
 1931 0026 7B68     		ldr	r3, [r7, #4]
 1932 0028 9B6A     		ldr	r3, [r3, #40]
 1933 002a 1846     		mov	r0, r3
 1934 002c FFF7FEFF 		bl	__aeabi_i2f
 1935 0030 0346     		mov	r3, r0
 1936 0032 2A49     		ldr	r1, .L119
 1937 0034 1846     		mov	r0, r3
 1938 0036 FFF7FEFF 		bl	__aeabi_fmul
 1939 003a 0346     		mov	r3, r0
 1940 003c C7F8FC30 		str	r3, [r7, #252]	@ float
 513:app_statemachine.c ****     float tlon = (float)ctx->gps_work_lon_raw * 1e-7f;
 1941              		.loc 1 513 0
 1942 0040 7B68     		ldr	r3, [r7, #4]
 1943 0042 DB6A     		ldr	r3, [r3, #44]
 1944 0044 1846     		mov	r0, r3
 1945 0046 FFF7FEFF 		bl	__aeabi_i2f
 1946 004a 0346     		mov	r3, r0
 1947 004c 2349     		ldr	r1, .L119
 1948 004e 1846     		mov	r0, r3
 1949 0050 FFF7FEFF 		bl	__aeabi_fmul
 1950 0054 0346     		mov	r3, r0
ARM GAS  C:\Users\JENNEW~1\AppData\Local\Temp\cc33Iuyf.s 			page 46


 1951 0056 C7F8F830 		str	r3, [r7, #248]	@ float
 514:app_statemachine.c ****     float talt = (float)ctx->gps_work_alt_mm  * 0.001f;
 1952              		.loc 1 514 0
 1953 005a 7B68     		ldr	r3, [r7, #4]
 1954 005c 1B6B     		ldr	r3, [r3, #48]
 1955 005e 1846     		mov	r0, r3
 1956 0060 FFF7FEFF 		bl	__aeabi_i2f
 1957 0064 0346     		mov	r3, r0
 1958 0066 1E49     		ldr	r1, .L119+4
 1959 0068 1846     		mov	r0, r3
 1960 006a FFF7FEFF 		bl	__aeabi_fmul
 1961 006e 0346     		mov	r3, r0
 1962 0070 C7F8F430 		str	r3, [r7, #244]	@ float
 515:app_statemachine.c ****     ctx->abs_pan_target  = DEG_TO_UNIT(
 1963              		.loc 1 515 0
 1964 0074 B86A     		ldr	r0, [r7, #40]	@ float
 1965 0076 F96A     		ldr	r1, [r7, #44]	@ float
 1966 0078 D7F8F830 		ldr	r3, [r7, #248]	@ float
 1967 007c D7F8FC20 		ldr	r2, [r7, #252]	@ float
 1968 0080 FFF7FEFF 		bl	gps_bearing_deg
 1969 0084 0246     		mov	r2, r0
 1970 0086 BB6B     		ldr	r3, [r7, #56]	@ float
 1971 0088 1946     		mov	r1, r3
 1972 008a 1046     		mov	r0, r2
 1973 008c FFF7FEFF 		bl	__aeabi_fsub
 1974 0090 0346     		mov	r3, r0
 1975 0092 1449     		ldr	r1, .L119+8
 1976 0094 1846     		mov	r0, r3
 1977 0096 FFF7FEFF 		bl	__aeabi_fdiv
 1978 009a 0346     		mov	r3, r0
 1979 009c 1A46     		mov	r2, r3
 1980 009e 7B68     		ldr	r3, [r7, #4]
 1981 00a0 1A61     		str	r2, [r3, #16]	@ float
 516:app_statemachine.c ****         gps_bearing_deg(st.gps_lat_deg, st.gps_lon_deg, tlat, tlon) - st.gps_heading_deg);
 517:app_statemachine.c ****     ctx->abs_tilt_target = DEG_TO_UNIT(
 1982              		.loc 1 517 0
 1983 00a2 B86A     		ldr	r0, [r7, #40]	@ float
 1984 00a4 F96A     		ldr	r1, [r7, #44]	@ float
 1985 00a6 3A6B     		ldr	r2, [r7, #48]	@ float
 1986 00a8 D7F8F430 		ldr	r3, [r7, #244]	@ float
 1987 00ac 0193     		str	r3, [sp, #4]	@ float
 1988 00ae D7F8F830 		ldr	r3, [r7, #248]	@ float
 1989 00b2 0093     		str	r3, [sp]	@ float
 1990 00b4 D7F8FC30 		ldr	r3, [r7, #252]	@ float
 1991 00b8 FFF7FEFF 		bl	gps_elev_deg
 1992 00bc 0346     		mov	r3, r0
 1993 00be 0949     		ldr	r1, .L119+8
 1994 00c0 1846     		mov	r0, r3
 1995 00c2 FFF7FEFF 		bl	__aeabi_fdiv
 1996 00c6 0346     		mov	r3, r0
 1997 00c8 1A46     		mov	r2, r3
 1998 00ca 7B68     		ldr	r3, [r7, #4]
 1999 00cc 5A61     		str	r2, [r3, #20]	@ float
 2000 00ce 00E0     		b	.L115
 2001              	.L118:
 511:app_statemachine.c ****     float tlat = (float)ctx->gps_work_lat_raw * 1e-7f;
 2002              		.loc 1 511 0
ARM GAS  C:\Users\JENNEW~1\AppData\Local\Temp\cc33Iuyf.s 			page 47


 2003 00d0 00BF     		nop
 2004              	.L115:
 518:app_statemachine.c ****         gps_elev_deg(st.gps_lat_deg, st.gps_lon_deg, st.gps_alt_m, tlat, tlon, talt));
 519:app_statemachine.c **** }
 2005              		.loc 1 519 0
 2006 00d2 07F58077 		add	r7, r7, #256
 2007              		.cfi_def_cfa_offset 8
 2008 00d6 BD46     		mov	sp, r7
 2009              		.cfi_def_cfa_register 13
 2010              		@ sp needed
 2011 00d8 80BD     		pop	{r7, pc}
 2012              	.L120:
 2013 00da 00BF     		.align	2
 2014              	.L119:
 2015 00dc 95BFD633 		.word	869711765
 2016 00e0 6F12833A 		.word	981668463
 2017 00e4 00003443 		.word	1127481344
 2018              		.cfi_endproc
 2019              	.LFE83:
 2020              		.size	gps_update_pointing, .-gps_update_pointing
 2021              		.global	__aeabi_ui2f
 2022              		.global	__aeabi_fcmpgt
 2023              		.section	.rodata
 2024              		.align	2
 2025              	.LC25:
 2026 0374 5B415554 		.ascii	"[AUTO_ACQ_GPS] new target -> re-slew\015\012\000"
 2026      4F5F4143 
 2026      515F4750 
 2026      535D206E 
 2026      65772074 
 2027 039b 00       		.align	2
 2028              	.LC26:
 2029 039c 5B415554 		.ascii	"[AUTO_ACQ_GPS] settled\015\012\000"
 2029      4F5F4143 
 2029      515F4750 
 2029      535D2073 
 2029      6574746C 
 2030              		.section	.text.gps_check_settle,"ax",%progbits
 2031              		.align	2
 2032              		.thumb
 2033              		.thumb_func
 2034              		.type	gps_check_settle, %function
 2035              	gps_check_settle:
 2036              	.LFB84:
 520:app_statemachine.c **** 
 521:app_statemachine.c **** static void gps_check_settle(app_ctx_t *ctx)
 522:app_statemachine.c **** {
 2037              		.loc 1 522 0
 2038              		.cfi_startproc
 2039              		@ args = 0, pretend = 0, frame = 40
 2040              		@ frame_needed = 1, uses_anonymous_args = 0
 2041 0000 90B5     		push	{r4, r7, lr}
 2042              		.cfi_def_cfa_offset 12
 2043              		.cfi_offset 4, -12
 2044              		.cfi_offset 7, -8
 2045              		.cfi_offset 14, -4
 2046 0002 8BB0     		sub	sp, sp, #44
ARM GAS  C:\Users\JENNEW~1\AppData\Local\Temp\cc33Iuyf.s 			page 48


 2047              		.cfi_def_cfa_offset 56
 2048 0004 00AF     		add	r7, sp, #0
 2049              		.cfi_def_cfa_register 7
 2050 0006 7860     		str	r0, [r7, #4]
 523:app_statemachine.c ****     uint32_t now = g_tick_ms;
 2051              		.loc 1 523 0
 2052 0008 674B     		ldr	r3, .L141
 2053 000a 1B68     		ldr	r3, [r3]
 2054 000c 3B62     		str	r3, [r7, #32]
 524:app_statemachine.c ****     if (now - ctx->gps_last_sample_ms < GPS_SETTLE_PERIOD_MS) return;
 2055              		.loc 1 524 0
 2056 000e 7B68     		ldr	r3, [r7, #4]
 2057 0010 1B6C     		ldr	r3, [r3, #64]
 2058 0012 3A6A     		ldr	r2, [r7, #32]
 2059 0014 D31A     		subs	r3, r2, r3
 2060 0016 312B     		cmp	r3, #49
 2061 0018 40F2BF80 		bls	.L139
 525:app_statemachine.c **** 
 526:app_statemachine.c ****     float pan, tilt;
 527:app_statemachine.c ****     if (!gimbal_pan_tilt_deg(ctx, &pan, &tilt)) return;  // no telemetry -> can't judge
 2062              		.loc 1 527 0
 2063 001c 07F10802 		add	r2, r7, #8
 2064 0020 07F10C03 		add	r3, r7, #12
 2065 0024 1946     		mov	r1, r3
 2066 0026 7868     		ldr	r0, [r7, #4]
 2067 0028 FFF7FEFF 		bl	gimbal_pan_tilt_deg
 2068 002c 0346     		mov	r3, r0
 2069 002e 002B     		cmp	r3, #0
 2070 0030 00F0B580 		beq	.L140
 528:app_statemachine.c **** 
 529:app_statemachine.c ****     float speed_dps = 1.0e9f;   // assume moving until we have a valid dt
 2071              		.loc 1 529 0
 2072 0034 5D4B     		ldr	r3, .L141+4
 2073 0036 7B62     		str	r3, [r7, #36]	@ float
 530:app_statemachine.c ****     if (ctx->gps_last_sample_ms != 0u) {
 2074              		.loc 1 530 0
 2075 0038 7B68     		ldr	r3, [r7, #4]
 2076 003a 1B6C     		ldr	r3, [r3, #64]
 2077 003c 002B     		cmp	r3, #0
 2078 003e 34D0     		beq	.L125
 2079              	.LBB11:
 531:app_statemachine.c ****         float dt = (float)(now - ctx->gps_last_sample_ms) * 0.001f;
 2080              		.loc 1 531 0
 2081 0040 7B68     		ldr	r3, [r7, #4]
 2082 0042 1B6C     		ldr	r3, [r3, #64]
 2083 0044 3A6A     		ldr	r2, [r7, #32]
 2084 0046 D31A     		subs	r3, r2, r3
 2085 0048 1846     		mov	r0, r3
 2086 004a FFF7FEFF 		bl	__aeabi_ui2f
 2087 004e 0346     		mov	r3, r0
 2088 0050 5749     		ldr	r1, .L141+8
 2089 0052 1846     		mov	r0, r3
 2090 0054 FFF7FEFF 		bl	__aeabi_fmul
 2091 0058 0346     		mov	r3, r0
 2092 005a FB61     		str	r3, [r7, #28]	@ float
 532:app_statemachine.c ****         if (dt > 0.0f)
 2093              		.loc 1 532 0
ARM GAS  C:\Users\JENNEW~1\AppData\Local\Temp\cc33Iuyf.s 			page 49


 2094 005c 4FF00001 		mov	r1, #0
 2095 0060 F869     		ldr	r0, [r7, #28]	@ float
 2096 0062 FFF7FEFF 		bl	__aeabi_fcmpgt
 2097 0066 0346     		mov	r3, r0
 2098 0068 002B     		cmp	r3, #0
 2099 006a 1ED0     		beq	.L125
 533:app_statemachine.c ****             speed_dps = (fabsf(pan  - ctx->gps_last_pan_deg) +
 2100              		.loc 1 533 0
 2101 006c FA68     		ldr	r2, [r7, #12]	@ float
 2102 006e 7B68     		ldr	r3, [r7, #4]
 2103 0070 9B6B     		ldr	r3, [r3, #56]	@ float
 2104 0072 1946     		mov	r1, r3
 2105 0074 1046     		mov	r0, r2
 2106 0076 FFF7FEFF 		bl	__aeabi_fsub
 2107 007a 0346     		mov	r3, r0
 2108 007c 23F00044 		bic	r4, r3, #-2147483648
 534:app_statemachine.c ****                          fabsf(tilt - ctx->gps_last_tilt_deg)) / dt;
 2109              		.loc 1 534 0
 2110 0080 BA68     		ldr	r2, [r7, #8]	@ float
 2111 0082 7B68     		ldr	r3, [r7, #4]
 2112 0084 DB6B     		ldr	r3, [r3, #60]	@ float
 2113 0086 1946     		mov	r1, r3
 2114 0088 1046     		mov	r0, r2
 2115 008a FFF7FEFF 		bl	__aeabi_fsub
 2116 008e 0346     		mov	r3, r0
 2117 0090 23F00043 		bic	r3, r3, #-2147483648
 533:app_statemachine.c ****             speed_dps = (fabsf(pan  - ctx->gps_last_pan_deg) +
 2118              		.loc 1 533 0
 2119 0094 1946     		mov	r1, r3
 2120 0096 2046     		mov	r0, r4
 2121 0098 FFF7FEFF 		bl	__aeabi_fadd
 2122 009c 0346     		mov	r3, r0
 2123 009e F969     		ldr	r1, [r7, #28]	@ float
 2124 00a0 1846     		mov	r0, r3
 2125 00a2 FFF7FEFF 		bl	__aeabi_fdiv
 2126 00a6 0346     		mov	r3, r0
 2127 00a8 7B62     		str	r3, [r7, #36]	@ float
 2128              	.L125:
 2129              	.LBE11:
 535:app_statemachine.c ****     }
 536:app_statemachine.c ****     ctx->gps_last_pan_deg   = pan;
 2130              		.loc 1 536 0
 2131 00aa FA68     		ldr	r2, [r7, #12]	@ float
 2132 00ac 7B68     		ldr	r3, [r7, #4]
 2133 00ae 9A63     		str	r2, [r3, #56]	@ float
 537:app_statemachine.c ****     ctx->gps_last_tilt_deg  = tilt;
 2134              		.loc 1 537 0
 2135 00b0 BA68     		ldr	r2, [r7, #8]	@ float
 2136 00b2 7B68     		ldr	r3, [r7, #4]
 2137 00b4 DA63     		str	r2, [r3, #60]	@ float
 538:app_statemachine.c ****     ctx->gps_last_sample_ms = now;
 2138              		.loc 1 538 0
 2139 00b6 7B68     		ldr	r3, [r7, #4]
 2140 00b8 3A6A     		ldr	r2, [r7, #32]
 2141 00ba 1A64     		str	r2, [r3, #64]
 539:app_statemachine.c **** 
 540:app_statemachine.c ****     /* Frame assumption: measured euler pan/tilt share the gimbal's ABSOLUTE
ARM GAS  C:\Users\JENNEW~1\AppData\Local\Temp\cc33Iuyf.s 			page 50


 541:app_statemachine.c ****        command reference. Validate on hardware; if frames differ, the low-speed
 542:app_statemachine.c ****        gate still gives a usable settle proxy. */
 543:app_statemachine.c ****     float cmd_pan_deg  = UNIT_TO_DEG(ctx->abs_pan_target);
 2142              		.loc 1 543 0
 2143 00bc 7B68     		ldr	r3, [r7, #4]
 2144 00be 1B69     		ldr	r3, [r3, #16]	@ float
 2145 00c0 3C49     		ldr	r1, .L141+12
 2146 00c2 1846     		mov	r0, r3
 2147 00c4 FFF7FEFF 		bl	__aeabi_fmul
 2148 00c8 0346     		mov	r3, r0
 2149 00ca BB61     		str	r3, [r7, #24]	@ float
 544:app_statemachine.c ****     float cmd_tilt_deg = UNIT_TO_DEG(ctx->abs_tilt_target);
 2150              		.loc 1 544 0
 2151 00cc 7B68     		ldr	r3, [r7, #4]
 2152 00ce 5B69     		ldr	r3, [r3, #20]	@ float
 2153 00d0 3849     		ldr	r1, .L141+12
 2154 00d2 1846     		mov	r0, r3
 2155 00d4 FFF7FEFF 		bl	__aeabi_fmul
 2156 00d8 0346     		mov	r3, r0
 2157 00da 7B61     		str	r3, [r7, #20]	@ float
 545:app_statemachine.c ****     uint8_t arrived = (fabsf(pan  - cmd_pan_deg)  < GPS_POINT_SETTLE_DEG) &&
 2158              		.loc 1 545 0
 2159 00dc FB68     		ldr	r3, [r7, #12]	@ float
 2160 00de B969     		ldr	r1, [r7, #24]	@ float
 2161 00e0 1846     		mov	r0, r3
 2162 00e2 FFF7FEFF 		bl	__aeabi_fsub
 2163 00e6 0346     		mov	r3, r0
 2164 00e8 23F00043 		bic	r3, r3, #-2147483648
 2165 00ec 4FF07C51 		mov	r1, #1056964608
 2166 00f0 1846     		mov	r0, r3
 2167 00f2 FFF7FEFF 		bl	__aeabi_fcmplt
 2168 00f6 0346     		mov	r3, r0
 2169 00f8 002B     		cmp	r3, #0
 2170 00fa 11D0     		beq	.L127
 546:app_statemachine.c ****                       (fabsf(tilt - cmd_tilt_deg) < GPS_POINT_SETTLE_DEG);
 2171              		.loc 1 546 0 discriminator 1
 2172 00fc BB68     		ldr	r3, [r7, #8]	@ float
 2173 00fe 7969     		ldr	r1, [r7, #20]	@ float
 2174 0100 1846     		mov	r0, r3
 2175 0102 FFF7FEFF 		bl	__aeabi_fsub
 2176 0106 0346     		mov	r3, r0
 2177 0108 23F00043 		bic	r3, r3, #-2147483648
 545:app_statemachine.c ****     uint8_t arrived = (fabsf(pan  - cmd_pan_deg)  < GPS_POINT_SETTLE_DEG) &&
 2178              		.loc 1 545 0 discriminator 1
 2179 010c 4FF07C51 		mov	r1, #1056964608
 2180 0110 1846     		mov	r0, r3
 2181 0112 FFF7FEFF 		bl	__aeabi_fcmplt
 2182 0116 0346     		mov	r3, r0
 2183 0118 002B     		cmp	r3, #0
 2184 011a 01D0     		beq	.L127
 545:app_statemachine.c ****     uint8_t arrived = (fabsf(pan  - cmd_pan_deg)  < GPS_POINT_SETTLE_DEG) &&
 2185              		.loc 1 545 0 is_stmt 0 discriminator 3
 2186 011c 0123     		movs	r3, #1
 2187 011e 00E0     		b	.L130
 2188              	.L127:
 545:app_statemachine.c ****     uint8_t arrived = (fabsf(pan  - cmd_pan_deg)  < GPS_POINT_SETTLE_DEG) &&
 2189              		.loc 1 545 0 discriminator 4
ARM GAS  C:\Users\JENNEW~1\AppData\Local\Temp\cc33Iuyf.s 			page 51


 2190 0120 0023     		movs	r3, #0
 2191              	.L130:
 545:app_statemachine.c ****     uint8_t arrived = (fabsf(pan  - cmd_pan_deg)  < GPS_POINT_SETTLE_DEG) &&
 2192              		.loc 1 545 0 discriminator 6
 2193 0122 FB74     		strb	r3, [r7, #19]
 547:app_statemachine.c ****     uint8_t slow    = (speed_dps < GPS_RATE_SETTLE_DPS);
 2194              		.loc 1 547 0 is_stmt 1 discriminator 6
 2195 0124 0123     		movs	r3, #1
 2196 0126 1C46     		mov	r4, r3
 2197 0128 4FF07E51 		mov	r1, #1065353216
 2198 012c 786A     		ldr	r0, [r7, #36]	@ float
 2199 012e FFF7FEFF 		bl	__aeabi_fcmplt
 2200 0132 0346     		mov	r3, r0
 2201 0134 002B     		cmp	r3, #0
 2202 0136 01D1     		bne	.L131
 2203 0138 0023     		movs	r3, #0
 2204 013a 1C46     		mov	r4, r3
 2205              	.L131:
 2206 013c E3B2     		uxtb	r3, r4
 2207 013e BB74     		strb	r3, [r7, #18]
 548:app_statemachine.c **** 
 549:app_statemachine.c ****     if (ctx->gps_new_target && (ctx->gps_settled || (arrived && slow))) {
 2208              		.loc 1 549 0 discriminator 6
 2209 0140 7B68     		ldr	r3, [r7, #4]
 2210 0142 93F82530 		ldrb	r3, [r3, #37]	@ zero_extendqisi2
 2211 0146 002B     		cmp	r3, #0
 2212 0148 14D0     		beq	.L132
 2213              		.loc 1 549 0 is_stmt 0 discriminator 1
 2214 014a 7B68     		ldr	r3, [r7, #4]
 2215 014c 93F83430 		ldrb	r3, [r3, #52]	@ zero_extendqisi2
 2216 0150 002B     		cmp	r3, #0
 2217 0152 05D1     		bne	.L133
 2218              		.loc 1 549 0 discriminator 2
 2219 0154 FB7C     		ldrb	r3, [r7, #19]	@ zero_extendqisi2
 2220 0156 002B     		cmp	r3, #0
 2221 0158 0CD0     		beq	.L132
 2222              		.loc 1 549 0 discriminator 3
 2223 015a BB7C     		ldrb	r3, [r7, #18]	@ zero_extendqisi2
 2224 015c 002B     		cmp	r3, #0
 2225 015e 09D0     		beq	.L132
 2226              	.L133:
 550:app_statemachine.c ****         UART_DEBUG_PutString("[AUTO_ACQ_GPS] new target -> re-slew\r\n");
 2227              		.loc 1 550 0 is_stmt 1
 2228 0160 1548     		ldr	r0, .L141+16
 2229 0162 FFF7FEFF 		bl	UART_DEBUG_PutString
 551:app_statemachine.c ****         gps_start_slew(ctx);        // copies target->work, clears flag + settled
 2230              		.loc 1 551 0
 2231 0166 7868     		ldr	r0, [r7, #4]
 2232 0168 FFF7FEFF 		bl	gps_start_slew
 552:app_statemachine.c ****         gps_update_pointing(ctx);
 2233              		.loc 1 552 0
 2234 016c 7868     		ldr	r0, [r7, #4]
 2235 016e FFF7FEFF 		bl	gps_update_pointing
 553:app_statemachine.c ****         return;
 2236              		.loc 1 553 0
 2237 0172 15E0     		b	.L121
 2238              	.L132:
ARM GAS  C:\Users\JENNEW~1\AppData\Local\Temp\cc33Iuyf.s 			page 52


 554:app_statemachine.c ****     }
 555:app_statemachine.c ****     if (!ctx->gps_settled && arrived && slow) {
 2239              		.loc 1 555 0
 2240 0174 7B68     		ldr	r3, [r7, #4]
 2241 0176 93F83430 		ldrb	r3, [r3, #52]	@ zero_extendqisi2
 2242 017a 002B     		cmp	r3, #0
 2243 017c 10D1     		bne	.L121
 2244              		.loc 1 555 0 is_stmt 0 discriminator 1
 2245 017e FB7C     		ldrb	r3, [r7, #19]	@ zero_extendqisi2
 2246 0180 002B     		cmp	r3, #0
 2247 0182 0DD0     		beq	.L121
 2248              		.loc 1 555 0 discriminator 2
 2249 0184 BB7C     		ldrb	r3, [r7, #18]	@ zero_extendqisi2
 2250 0186 002B     		cmp	r3, #0
 2251 0188 0AD0     		beq	.L121
 556:app_statemachine.c ****         ctx->gps_settled = 1u;
 2252              		.loc 1 556 0 is_stmt 1
 2253 018a 7B68     		ldr	r3, [r7, #4]
 2254 018c 0122     		movs	r2, #1
 2255 018e 83F83420 		strb	r2, [r3, #52]
 557:app_statemachine.c ****         UART_DEBUG_PutString("[AUTO_ACQ_GPS] settled\r\n");
 2256              		.loc 1 557 0
 2257 0192 0A48     		ldr	r0, .L141+20
 2258 0194 FFF7FEFF 		bl	UART_DEBUG_PutString
 2259 0198 02E0     		b	.L121
 2260              	.L139:
 524:app_statemachine.c **** 
 2261              		.loc 1 524 0
 2262 019a 00BF     		nop
 2263 019c 00E0     		b	.L121
 2264              	.L140:
 527:app_statemachine.c **** 
 2265              		.loc 1 527 0
 2266 019e 00BF     		nop
 2267              	.L121:
 558:app_statemachine.c ****     }
 559:app_statemachine.c **** }
 2268              		.loc 1 559 0
 2269 01a0 2C37     		adds	r7, r7, #44
 2270              		.cfi_def_cfa_offset 12
 2271 01a2 BD46     		mov	sp, r7
 2272              		.cfi_def_cfa_register 13
 2273              		@ sp needed
 2274 01a4 90BD     		pop	{r4, r7, pc}
 2275              	.L142:
 2276 01a6 00BF     		.align	2
 2277              	.L141:
 2278 01a8 00000000 		.word	g_tick_ms
 2279 01ac 286B6E4E 		.word	1315859240
 2280 01b0 6F12833A 		.word	981668463
 2281 01b4 00003443 		.word	1127481344
 2282 01b8 74030000 		.word	.LC25
 2283 01bc 9C030000 		.word	.LC26
 2284              		.cfi_endproc
 2285              	.LFE84:
 2286              		.size	gps_check_settle, .-gps_check_settle
 2287              		.section	.rodata
ARM GAS  C:\Users\JENNEW~1\AppData\Local\Temp\cc33Iuyf.s 			page 53


 2288 03b5 000000   		.align	2
 2289              	.LC27:
 2290 03b8 0D0A5B41 		.ascii	"\015\012[AUTO_ACQ_GPS] no GPS target -> STBY_HOLD\015"
 2290      55544F5F 
 2290      4143515F 
 2290      4750535D 
 2290      206E6F20 
 2291 03e4 0A00     		.ascii	"\012\000"
 2292 03e6 0000     		.align	2
 2293              	.LC28:
 2294 03e8 0D0A5B41 		.ascii	"\015\012[AUTO_ACQ_GPS] open-loop GPS pointing  e=ex"
 2294      55544F5F 
 2294      4143515F 
 2294      4750535D 
 2294      206F7065 
 2295 0415 69740D0A 		.ascii	"it\015\012> \000"
 2295      3E2000
 2296              		.section	.text.entry_auto_acq_gps,"ax",%progbits
 2297              		.align	2
 2298              		.thumb
 2299              		.thumb_func
 2300              		.type	entry_auto_acq_gps, %function
 2301              	entry_auto_acq_gps:
 2302              	.LFB85:
 560:app_statemachine.c **** 
 561:app_statemachine.c **** static void entry_auto_acq_gps(app_ctx_t *ctx)
 562:app_statemachine.c **** {
 2303              		.loc 1 562 0
 2304              		.cfi_startproc
 2305              		@ args = 0, pretend = 0, frame = 8
 2306              		@ frame_needed = 1, uses_anonymous_args = 0
 2307 0000 80B5     		push	{r7, lr}
 2308              		.cfi_def_cfa_offset 8
 2309              		.cfi_offset 7, -8
 2310              		.cfi_offset 14, -4
 2311 0002 82B0     		sub	sp, sp, #8
 2312              		.cfi_def_cfa_offset 16
 2313 0004 00AF     		add	r7, sp, #0
 2314              		.cfi_def_cfa_register 7
 2315 0006 7860     		str	r0, [r7, #4]
 563:app_statemachine.c ****     if (!ctx->gps_target_set) {
 2316              		.loc 1 563 0
 2317 0008 7B68     		ldr	r3, [r7, #4]
 2318 000a 93F82430 		ldrb	r3, [r3, #36]	@ zero_extendqisi2
 2319 000e 002B     		cmp	r3, #0
 2320 0010 07D1     		bne	.L144
 564:app_statemachine.c ****         UART_DEBUG_PutString("\r\n[AUTO_ACQ_GPS] no GPS target -> STBY_HOLD\r\n");
 2321              		.loc 1 564 0
 2322 0012 0B48     		ldr	r0, .L146
 2323 0014 FFF7FEFF 		bl	UART_DEBUG_PutString
 565:app_statemachine.c ****         transition(ctx, STBY_HOLD);
 2324              		.loc 1 565 0
 2325 0018 0621     		movs	r1, #6
 2326 001a 7868     		ldr	r0, [r7, #4]
 2327 001c FFF7FEFF 		bl	transition
 566:app_statemachine.c ****         return;
 2328              		.loc 1 566 0
ARM GAS  C:\Users\JENNEW~1\AppData\Local\Temp\cc33Iuyf.s 			page 54


 2329 0020 0BE0     		b	.L143
 2330              	.L144:
 567:app_statemachine.c ****     }
 568:app_statemachine.c ****     UART_DEBUG_PutString("\r\n[AUTO_ACQ_GPS] open-loop GPS pointing  e=exit\r\n> ");
 2331              		.loc 1 568 0
 2332 0022 0848     		ldr	r0, .L146+4
 2333 0024 FFF7FEFF 		bl	UART_DEBUG_PutString
 569:app_statemachine.c ****     ctx->gps_last_sample_ms = 0u;
 2334              		.loc 1 569 0
 2335 0028 7B68     		ldr	r3, [r7, #4]
 2336 002a 0022     		movs	r2, #0
 2337 002c 1A64     		str	r2, [r3, #64]
 570:app_statemachine.c ****     gps_start_slew(ctx);        // snap target -> work, start fresh
 2338              		.loc 1 570 0
 2339 002e 7868     		ldr	r0, [r7, #4]
 2340 0030 FFF7FEFF 		bl	gps_start_slew
 571:app_statemachine.c ****     gps_update_pointing(ctx);   // initial bearing
 2341              		.loc 1 571 0
 2342 0034 7868     		ldr	r0, [r7, #4]
 2343 0036 FFF7FEFF 		bl	gps_update_pointing
 2344              	.L143:
 572:app_statemachine.c **** }
 2345              		.loc 1 572 0
 2346 003a 0837     		adds	r7, r7, #8
 2347              		.cfi_def_cfa_offset 8
 2348 003c BD46     		mov	sp, r7
 2349              		.cfi_def_cfa_register 13
 2350              		@ sp needed
 2351 003e 80BD     		pop	{r7, pc}
 2352              	.L147:
 2353              		.align	2
 2354              	.L146:
 2355 0040 B8030000 		.word	.LC27
 2356 0044 E8030000 		.word	.LC28
 2357              		.cfi_endproc
 2358              	.LFE85:
 2359              		.size	entry_auto_acq_gps, .-entry_auto_acq_gps
 2360              		.section	.text.exit_auto_acq_gps,"ax",%progbits
 2361              		.align	2
 2362              		.thumb
 2363              		.thumb_func
 2364              		.type	exit_auto_acq_gps, %function
 2365              	exit_auto_acq_gps:
 2366              	.LFB86:
 573:app_statemachine.c **** static void exit_auto_acq_gps(app_ctx_t *ctx)
 574:app_statemachine.c **** {
 2367              		.loc 1 574 0
 2368              		.cfi_startproc
 2369              		@ args = 0, pretend = 0, frame = 8
 2370              		@ frame_needed = 1, uses_anonymous_args = 0
 2371              		@ link register save eliminated.
 2372 0000 80B4     		push	{r7}
 2373              		.cfi_def_cfa_offset 4
 2374              		.cfi_offset 7, -4
 2375 0002 83B0     		sub	sp, sp, #12
 2376              		.cfi_def_cfa_offset 16
 2377 0004 00AF     		add	r7, sp, #0
ARM GAS  C:\Users\JENNEW~1\AppData\Local\Temp\cc33Iuyf.s 			page 55


 2378              		.cfi_def_cfa_register 7
 2379 0006 7860     		str	r0, [r7, #4]
 575:app_statemachine.c ****     ctx->abs_pan_target = ctx->abs_tilt_target = 0.0f;
 2380              		.loc 1 575 0
 2381 0008 7B68     		ldr	r3, [r7, #4]
 2382 000a 4FF00002 		mov	r2, #0
 2383 000e 5A61     		str	r2, [r3, #20]	@ float
 2384 0010 7B68     		ldr	r3, [r7, #4]
 2385 0012 5A69     		ldr	r2, [r3, #20]	@ float
 2386 0014 7B68     		ldr	r3, [r7, #4]
 2387 0016 1A61     		str	r2, [r3, #16]	@ float
 576:app_statemachine.c **** }
 2388              		.loc 1 576 0
 2389 0018 00BF     		nop
 2390 001a 0C37     		adds	r7, r7, #12
 2391              		.cfi_def_cfa_offset 4
 2392 001c BD46     		mov	sp, r7
 2393              		.cfi_def_cfa_register 13
 2394              		@ sp needed
 2395 001e 80BC     		pop	{r7}
 2396              		.cfi_restore 7
 2397              		.cfi_def_cfa_offset 0
 2398 0020 7047     		bx	lr
 2399              		.cfi_endproc
 2400              	.LFE86:
 2401              		.size	exit_auto_acq_gps, .-exit_auto_acq_gps
 2402 0022 00BF     		.section	.text.key_auto_acq_gps,"ax",%progbits
 2403              		.align	2
 2404              		.thumb
 2405              		.thumb_func
 2406              		.type	key_auto_acq_gps, %function
 2407              	key_auto_acq_gps:
 2408              	.LFB87:
 577:app_statemachine.c **** static uint8_t key_auto_acq_gps(app_ctx_t *ctx, char k)
 578:app_statemachine.c **** {
 2409              		.loc 1 578 0
 2410              		.cfi_startproc
 2411              		@ args = 0, pretend = 0, frame = 8
 2412              		@ frame_needed = 1, uses_anonymous_args = 0
 2413 0000 80B5     		push	{r7, lr}
 2414              		.cfi_def_cfa_offset 8
 2415              		.cfi_offset 7, -8
 2416              		.cfi_offset 14, -4
 2417 0002 82B0     		sub	sp, sp, #8
 2418              		.cfi_def_cfa_offset 16
 2419 0004 00AF     		add	r7, sp, #0
 2420              		.cfi_def_cfa_register 7
 2421 0006 7860     		str	r0, [r7, #4]
 2422 0008 0B46     		mov	r3, r1
 2423 000a FB70     		strb	r3, [r7, #3]
 579:app_statemachine.c ****     switch (k) {
 2424              		.loc 1 579 0
 2425 000c FB78     		ldrb	r3, [r7, #3]	@ zero_extendqisi2
 2426 000e 652B     		cmp	r3, #101
 2427 0010 05D1     		bne	.L153
 580:app_statemachine.c ****         case 'e': transition(ctx, STBY_HOLD); return 1;
 2428              		.loc 1 580 0
ARM GAS  C:\Users\JENNEW~1\AppData\Local\Temp\cc33Iuyf.s 			page 56


 2429 0012 0621     		movs	r1, #6
 2430 0014 7868     		ldr	r0, [r7, #4]
 2431 0016 FFF7FEFF 		bl	transition
 2432 001a 0123     		movs	r3, #1
 2433 001c 00E0     		b	.L152
 2434              	.L153:
 581:app_statemachine.c ****         default:  return 0;
 2435              		.loc 1 581 0
 2436 001e 0023     		movs	r3, #0
 2437              	.L152:
 582:app_statemachine.c ****     }
 583:app_statemachine.c **** }
 2438              		.loc 1 583 0
 2439 0020 1846     		mov	r0, r3
 2440 0022 0837     		adds	r7, r7, #8
 2441              		.cfi_def_cfa_offset 8
 2442 0024 BD46     		mov	sp, r7
 2443              		.cfi_def_cfa_register 13
 2444              		@ sp needed
 2445 0026 80BD     		pop	{r7, pc}
 2446              		.cfi_endproc
 2447              	.LFE87:
 2448              		.size	key_auto_acq_gps, .-key_auto_acq_gps
 2449              		.section	.text.build_auto_acq_gps,"ax",%progbits
 2450              		.align	2
 2451              		.thumb
 2452              		.thumb_func
 2453              		.type	build_auto_acq_gps, %function
 2454              	build_auto_acq_gps:
 2455              	.LFB88:
 584:app_statemachine.c **** static void build_auto_acq_gps(const app_ctx_t *ctx, hamfly_control_t *out)
 585:app_statemachine.c **** {
 2456              		.loc 1 585 0
 2457              		.cfi_startproc
 2458              		@ args = 0, pretend = 0, frame = 8
 2459              		@ frame_needed = 1, uses_anonymous_args = 0
 2460 0000 80B5     		push	{r7, lr}
 2461              		.cfi_def_cfa_offset 8
 2462              		.cfi_offset 7, -8
 2463              		.cfi_offset 14, -4
 2464 0002 82B0     		sub	sp, sp, #8
 2465              		.cfi_def_cfa_offset 16
 2466 0004 00AF     		add	r7, sp, #0
 2467              		.cfi_def_cfa_register 7
 2468 0006 7860     		str	r0, [r7, #4]
 2469 0008 3960     		str	r1, [r7]
 586:app_statemachine.c ****     out->kill      = 0u;
 2470              		.loc 1 586 0
 2471 000a 3B68     		ldr	r3, [r7]
 2472 000c 0022     		movs	r2, #0
 2473 000e 1A74     		strb	r2, [r3, #16]
 587:app_statemachine.c ****     out->roll_mode = HAMFLY_DEFER;
 2474              		.loc 1 587 0
 2475 0010 3B68     		ldr	r3, [r7]
 2476 0012 0022     		movs	r2, #0
 2477 0014 9A73     		strb	r2, [r3, #14]
 588:app_statemachine.c ****     out->roll      = 0.0f;
ARM GAS  C:\Users\JENNEW~1\AppData\Local\Temp\cc33Iuyf.s 			page 57


 2478              		.loc 1 588 0
 2479 0016 3B68     		ldr	r3, [r7]
 2480 0018 4FF00002 		mov	r2, #0
 2481 001c 9A60     		str	r2, [r3, #8]	@ float
 589:app_statemachine.c ****     out->pan_mode  = out->tilt_mode = HAMFLY_ABSOLUTE;
 2482              		.loc 1 589 0
 2483 001e 3B68     		ldr	r3, [r7]
 2484 0020 0222     		movs	r2, #2
 2485 0022 5A73     		strb	r2, [r3, #13]
 2486 0024 3B68     		ldr	r3, [r7]
 2487 0026 5A7B     		ldrb	r2, [r3, #13]	@ zero_extendqisi2
 2488 0028 3B68     		ldr	r3, [r7]
 2489 002a 1A73     		strb	r2, [r3, #12]
 590:app_statemachine.c ****     out->pan  = CLAMP(ctx->abs_pan_target,  -1.0f, 1.0f);
 2490              		.loc 1 590 0
 2491 002c 7B68     		ldr	r3, [r7, #4]
 2492 002e 1B69     		ldr	r3, [r3, #16]	@ float
 2493 0030 1C49     		ldr	r1, .L175
 2494 0032 1846     		mov	r0, r3
 2495 0034 FFF7FEFF 		bl	__aeabi_fcmplt
 2496 0038 0346     		mov	r3, r0
 2497 003a 002B     		cmp	r3, #0
 2498 003c 01D0     		beq	.L171
 2499              		.loc 1 590 0 is_stmt 0 discriminator 1
 2500 003e 194B     		ldr	r3, .L175
 2501 0040 0EE0     		b	.L157
 2502              	.L171:
 2503              		.loc 1 590 0 discriminator 2
 2504 0042 7B68     		ldr	r3, [r7, #4]
 2505 0044 1B69     		ldr	r3, [r3, #16]	@ float
 2506 0046 4FF07E51 		mov	r1, #1065353216
 2507 004a 1846     		mov	r0, r3
 2508 004c FFF7FEFF 		bl	__aeabi_fcmpgt
 2509 0050 0346     		mov	r3, r0
 2510 0052 002B     		cmp	r3, #0
 2511 0054 02D0     		beq	.L172
 2512              		.loc 1 590 0 discriminator 4
 2513 0056 4FF07E53 		mov	r3, #1065353216
 2514 005a 01E0     		b	.L157
 2515              	.L172:
 2516              		.loc 1 590 0 discriminator 5
 2517 005c 7B68     		ldr	r3, [r7, #4]
 2518 005e 1B69     		ldr	r3, [r3, #16]	@ float
 2519              	.L157:
 2520              		.loc 1 590 0 discriminator 8
 2521 0060 3A68     		ldr	r2, [r7]
 2522 0062 1360     		str	r3, [r2]	@ float
 591:app_statemachine.c ****     out->tilt = CLAMP(ctx->abs_tilt_target, -1.0f, 1.0f);
 2523              		.loc 1 591 0 is_stmt 1 discriminator 8
 2524 0064 7B68     		ldr	r3, [r7, #4]
 2525 0066 5B69     		ldr	r3, [r3, #20]	@ float
 2526 0068 0E49     		ldr	r1, .L175
 2527 006a 1846     		mov	r0, r3
 2528 006c FFF7FEFF 		bl	__aeabi_fcmplt
 2529 0070 0346     		mov	r3, r0
 2530 0072 002B     		cmp	r3, #0
 2531 0074 01D0     		beq	.L173
ARM GAS  C:\Users\JENNEW~1\AppData\Local\Temp\cc33Iuyf.s 			page 58


 2532              		.loc 1 591 0 is_stmt 0 discriminator 1
 2533 0076 0B4B     		ldr	r3, .L175
 2534 0078 0EE0     		b	.L163
 2535              	.L173:
 2536              		.loc 1 591 0 discriminator 2
 2537 007a 7B68     		ldr	r3, [r7, #4]
 2538 007c 5B69     		ldr	r3, [r3, #20]	@ float
 2539 007e 4FF07E51 		mov	r1, #1065353216
 2540 0082 1846     		mov	r0, r3
 2541 0084 FFF7FEFF 		bl	__aeabi_fcmpgt
 2542 0088 0346     		mov	r3, r0
 2543 008a 002B     		cmp	r3, #0
 2544 008c 02D0     		beq	.L174
 2545              		.loc 1 591 0 discriminator 4
 2546 008e 4FF07E53 		mov	r3, #1065353216
 2547 0092 01E0     		b	.L163
 2548              	.L174:
 2549              		.loc 1 591 0 discriminator 5
 2550 0094 7B68     		ldr	r3, [r7, #4]
 2551 0096 5B69     		ldr	r3, [r3, #20]	@ float
 2552              	.L163:
 2553              		.loc 1 591 0 discriminator 8
 2554 0098 3A68     		ldr	r2, [r7]
 2555 009a 5360     		str	r3, [r2, #4]	@ float
 592:app_statemachine.c **** }
 2556              		.loc 1 592 0 is_stmt 1 discriminator 8
 2557 009c 00BF     		nop
 2558 009e 0837     		adds	r7, r7, #8
 2559              		.cfi_def_cfa_offset 8
 2560 00a0 BD46     		mov	sp, r7
 2561              		.cfi_def_cfa_register 13
 2562              		@ sp needed
 2563 00a2 80BD     		pop	{r7, pc}
 2564              	.L176:
 2565              		.align	2
 2566              	.L175:
 2567 00a4 000080BF 		.word	-1082130432
 2568              		.cfi_endproc
 2569              	.LFE88:
 2570              		.size	build_auto_acq_gps, .-build_auto_acq_gps
 2571              		.section	.rodata
 2572              		.align	2
 2573              	.LC29:
 2574 041c 0D0A5B41 		.ascii	"\015\012[AUTO_ACQ_SPIRAL] placeholder (NI).\015\012"
 2574      55544F5F 
 2574      4143515F 
 2574      53504952 
 2574      414C5D20 
 2575 0443 3E2000   		.ascii	"> \000"
 2576              		.section	.text.entry_auto_acq_spiral,"ax",%progbits
 2577              		.align	2
 2578              		.thumb
 2579              		.thumb_func
 2580              		.type	entry_auto_acq_spiral, %function
 2581              	entry_auto_acq_spiral:
 2582              	.LFB89:
 593:app_statemachine.c **** 
ARM GAS  C:\Users\JENNEW~1\AppData\Local\Temp\cc33Iuyf.s 			page 59


 594:app_statemachine.c **** // AUTO_SPIRAL %=================================================================%
 595:app_statemachine.c **** static void entry_auto_acq_spiral(app_ctx_t *ctx)
 596:app_statemachine.c **** {
 2583              		.loc 1 596 0
 2584              		.cfi_startproc
 2585              		@ args = 0, pretend = 0, frame = 8
 2586              		@ frame_needed = 1, uses_anonymous_args = 0
 2587 0000 80B5     		push	{r7, lr}
 2588              		.cfi_def_cfa_offset 8
 2589              		.cfi_offset 7, -8
 2590              		.cfi_offset 14, -4
 2591 0002 82B0     		sub	sp, sp, #8
 2592              		.cfi_def_cfa_offset 16
 2593 0004 00AF     		add	r7, sp, #0
 2594              		.cfi_def_cfa_register 7
 2595 0006 7860     		str	r0, [r7, #4]
 597:app_statemachine.c ****     (void)ctx;
 598:app_statemachine.c ****     UART_DEBUG_PutString("\r\n[AUTO_ACQ_SPIRAL] placeholder (NI).\r\n> ");
 2596              		.loc 1 598 0
 2597 0008 0348     		ldr	r0, .L178
 2598 000a FFF7FEFF 		bl	UART_DEBUG_PutString
 599:app_statemachine.c **** }
 2599              		.loc 1 599 0
 2600 000e 00BF     		nop
 2601 0010 0837     		adds	r7, r7, #8
 2602              		.cfi_def_cfa_offset 8
 2603 0012 BD46     		mov	sp, r7
 2604              		.cfi_def_cfa_register 13
 2605              		@ sp needed
 2606 0014 80BD     		pop	{r7, pc}
 2607              	.L179:
 2608 0016 00BF     		.align	2
 2609              	.L178:
 2610 0018 1C040000 		.word	.LC29
 2611              		.cfi_endproc
 2612              	.LFE89:
 2613              		.size	entry_auto_acq_spiral, .-entry_auto_acq_spiral
 2614              		.section	.rodata
 2615 0446 0000     		.align	2
 2616              	.LC30:
 2617 0448 0D0A5B41 		.ascii	"\015\012[AUTO_TRACKING] closed-loop  e=exit\015\012"
 2617      55544F5F 
 2617      54524143 
 2617      4B494E47 
 2617      5D20636C 
 2618 046f 3E2000   		.ascii	"> \000"
 2619              		.section	.text.entry_auto_tracking,"ax",%progbits
 2620              		.align	2
 2621              		.thumb
 2622              		.thumb_func
 2623              		.type	entry_auto_tracking, %function
 2624              	entry_auto_tracking:
 2625              	.LFB90:
 600:app_statemachine.c **** 
 601:app_statemachine.c **** // AUTO_TRACKING %=================================================================%
 602:app_statemachine.c **** static void entry_auto_tracking(app_ctx_t *ctx)
 603:app_statemachine.c **** {
ARM GAS  C:\Users\JENNEW~1\AppData\Local\Temp\cc33Iuyf.s 			page 60


 2626              		.loc 1 603 0
 2627              		.cfi_startproc
 2628              		@ args = 0, pretend = 0, frame = 8
 2629              		@ frame_needed = 1, uses_anonymous_args = 0
 2630 0000 80B5     		push	{r7, lr}
 2631              		.cfi_def_cfa_offset 8
 2632              		.cfi_offset 7, -8
 2633              		.cfi_offset 14, -4
 2634 0002 82B0     		sub	sp, sp, #8
 2635              		.cfi_def_cfa_offset 16
 2636 0004 00AF     		add	r7, sp, #0
 2637              		.cfi_def_cfa_register 7
 2638 0006 7860     		str	r0, [r7, #4]
 604:app_statemachine.c ****     ctx->track_cx_last = 0;  // Clear last centroid value (TODO: Init wht the first centroid packet
 2639              		.loc 1 604 0
 2640 0008 7B68     		ldr	r3, [r7, #4]
 2641 000a 0022     		movs	r2, #0
 2642 000c A3F84820 		strh	r2, [r3, #72]	@ movhi
 605:app_statemachine.c ****     ctx->track_cy_last = 0;
 2643              		.loc 1 605 0
 2644 0010 7B68     		ldr	r3, [r7, #4]
 2645 0012 0022     		movs	r2, #0
 2646 0014 A3F84A20 		strh	r2, [r3, #74]	@ movhi
 606:app_statemachine.c ****     UART_DEBUG_PutString("\r\n[AUTO_TRACKING] closed-loop  e=exit\r\n> ");
 2647              		.loc 1 606 0
 2648 0018 0348     		ldr	r0, .L181
 2649 001a FFF7FEFF 		bl	UART_DEBUG_PutString
 607:app_statemachine.c **** }
 2650              		.loc 1 607 0
 2651 001e 00BF     		nop
 2652 0020 0837     		adds	r7, r7, #8
 2653              		.cfi_def_cfa_offset 8
 2654 0022 BD46     		mov	sp, r7
 2655              		.cfi_def_cfa_register 13
 2656              		@ sp needed
 2657 0024 80BD     		pop	{r7, pc}
 2658              	.L182:
 2659 0026 00BF     		.align	2
 2660              	.L181:
 2661 0028 48040000 		.word	.LC30
 2662              		.cfi_endproc
 2663              	.LFE90:
 2664              		.size	entry_auto_tracking, .-entry_auto_tracking
 2665              		.section	.text.key_auto_tracking,"ax",%progbits
 2666              		.align	2
 2667              		.thumb
 2668              		.thumb_func
 2669              		.type	key_auto_tracking, %function
 2670              	key_auto_tracking:
 2671              	.LFB91:
 608:app_statemachine.c **** static uint8_t key_auto_tracking(app_ctx_t *ctx, char k)
 609:app_statemachine.c **** {
 2672              		.loc 1 609 0
 2673              		.cfi_startproc
 2674              		@ args = 0, pretend = 0, frame = 8
 2675              		@ frame_needed = 1, uses_anonymous_args = 0
 2676 0000 80B5     		push	{r7, lr}
ARM GAS  C:\Users\JENNEW~1\AppData\Local\Temp\cc33Iuyf.s 			page 61


 2677              		.cfi_def_cfa_offset 8
 2678              		.cfi_offset 7, -8
 2679              		.cfi_offset 14, -4
 2680 0002 82B0     		sub	sp, sp, #8
 2681              		.cfi_def_cfa_offset 16
 2682 0004 00AF     		add	r7, sp, #0
 2683              		.cfi_def_cfa_register 7
 2684 0006 7860     		str	r0, [r7, #4]
 2685 0008 0B46     		mov	r3, r1
 2686 000a FB70     		strb	r3, [r7, #3]
 610:app_statemachine.c ****     // TEMP: Debug exit to hold with e over serial.
 611:app_statemachine.c ****     switch (k) {
 2687              		.loc 1 611 0
 2688 000c FB78     		ldrb	r3, [r7, #3]	@ zero_extendqisi2
 2689 000e 652B     		cmp	r3, #101
 2690 0010 05D1     		bne	.L187
 612:app_statemachine.c ****         case 'e': transition(ctx, STBY_HOLD); return 1;
 2691              		.loc 1 612 0
 2692 0012 0621     		movs	r1, #6
 2693 0014 7868     		ldr	r0, [r7, #4]
 2694 0016 FFF7FEFF 		bl	transition
 2695 001a 0123     		movs	r3, #1
 2696 001c 00E0     		b	.L186
 2697              	.L187:
 613:app_statemachine.c ****         default:  return 0;
 2698              		.loc 1 613 0
 2699 001e 0023     		movs	r3, #0
 2700              	.L186:
 614:app_statemachine.c ****     }
 615:app_statemachine.c **** }
 2701              		.loc 1 615 0
 2702 0020 1846     		mov	r0, r3
 2703 0022 0837     		adds	r7, r7, #8
 2704              		.cfi_def_cfa_offset 8
 2705 0024 BD46     		mov	sp, r7
 2706              		.cfi_def_cfa_register 13
 2707              		@ sp needed
 2708 0026 80BD     		pop	{r7, pc}
 2709              		.cfi_endproc
 2710              	.LFE91:
 2711              		.size	key_auto_tracking, .-key_auto_tracking
 2712              		.section	.text.build_auto_tracking,"ax",%progbits
 2713              		.align	2
 2714              		.thumb
 2715              		.thumb_func
 2716              		.type	build_auto_tracking, %function
 2717              	build_auto_tracking:
 2718              	.LFB92:
 616:app_statemachine.c **** 
 617:app_statemachine.c **** static void build_auto_tracking(const app_ctx_t *ctx, hamfly_control_t *out)
 618:app_statemachine.c **** {
 2719              		.loc 1 618 0
 2720              		.cfi_startproc
 2721              		@ args = 0, pretend = 0, frame = 16
 2722              		@ frame_needed = 1, uses_anonymous_args = 0
 2723 0000 80B5     		push	{r7, lr}
 2724              		.cfi_def_cfa_offset 8
ARM GAS  C:\Users\JENNEW~1\AppData\Local\Temp\cc33Iuyf.s 			page 62


 2725              		.cfi_offset 7, -8
 2726              		.cfi_offset 14, -4
 2727 0002 84B0     		sub	sp, sp, #16
 2728              		.cfi_def_cfa_offset 24
 2729 0004 00AF     		add	r7, sp, #0
 2730              		.cfi_def_cfa_register 7
 2731 0006 7860     		str	r0, [r7, #4]
 2732 0008 3960     		str	r1, [r7]
 619:app_statemachine.c ****     // Construct control packet from centroid error signal.
 620:app_statemachine.c ****     out->kill      = 0u;
 2733              		.loc 1 620 0
 2734 000a 3B68     		ldr	r3, [r7]
 2735 000c 0022     		movs	r2, #0
 2736 000e 1A74     		strb	r2, [r3, #16]
 621:app_statemachine.c ****     out->roll_mode = HAMFLY_DEFER;  // No roll
 2737              		.loc 1 621 0
 2738 0010 3B68     		ldr	r3, [r7]
 2739 0012 0022     		movs	r2, #0
 2740 0014 9A73     		strb	r2, [r3, #14]
 622:app_statemachine.c ****     out->roll      = 0.0f;
 2741              		.loc 1 622 0
 2742 0016 3B68     		ldr	r3, [r7]
 2743 0018 4FF00002 		mov	r2, #0
 2744 001c 9A60     		str	r2, [r3, #8]	@ float
 623:app_statemachine.c ****     out->pan_mode  = out->tilt_mode = HAMFLY_RATE;
 2745              		.loc 1 623 0
 2746 001e 3B68     		ldr	r3, [r7]
 2747 0020 0122     		movs	r2, #1
 2748 0022 5A73     		strb	r2, [r3, #13]
 2749 0024 3B68     		ldr	r3, [r7]
 2750 0026 5A7B     		ldrb	r2, [r3, #13]	@ zero_extendqisi2
 2751 0028 3B68     		ldr	r3, [r7]
 2752 002a 1A73     		strb	r2, [r3, #12]
 624:app_statemachine.c ****     float cx_mrad = (float)ctx->track_cx_last * 0.1f;  // 0.1 mrad to mrad
 2753              		.loc 1 624 0
 2754 002c 7B68     		ldr	r3, [r7, #4]
 2755 002e B3F94830 		ldrsh	r3, [r3, #72]
 2756 0032 1846     		mov	r0, r3
 2757 0034 FFF7FEFF 		bl	__aeabi_i2f
 2758 0038 0346     		mov	r3, r0
 2759 003a 3749     		ldr	r1, .L209
 2760 003c 1846     		mov	r0, r3
 2761 003e FFF7FEFF 		bl	__aeabi_fmul
 2762 0042 0346     		mov	r3, r0
 2763 0044 FB60     		str	r3, [r7, #12]	@ float
 625:app_statemachine.c ****     float cy_mrad = (float)ctx->track_cy_last * 0.1f;
 2764              		.loc 1 625 0
 2765 0046 7B68     		ldr	r3, [r7, #4]
 2766 0048 B3F94A30 		ldrsh	r3, [r3, #74]
 2767 004c 1846     		mov	r0, r3
 2768 004e FFF7FEFF 		bl	__aeabi_i2f
 2769 0052 0346     		mov	r3, r0
 2770 0054 3049     		ldr	r1, .L209
 2771 0056 1846     		mov	r0, r3
 2772 0058 FFF7FEFF 		bl	__aeabi_fmul
 2773 005c 0346     		mov	r3, r0
 2774 005e BB60     		str	r3, [r7, #8]	@ float
ARM GAS  C:\Users\JENNEW~1\AppData\Local\Temp\cc33Iuyf.s 			page 63


 626:app_statemachine.c ****     // Simple proportional gain linear feedback.
 627:app_statemachine.c ****     out->pan  =  CLAMP(ctx->track_kp * cx_mrad, -1.0f, 1.0f);  // TODO: Confirm direction with phys
 2775              		.loc 1 627 0
 2776 0060 7B68     		ldr	r3, [r7, #4]
 2777 0062 5B6C     		ldr	r3, [r3, #68]	@ float
 2778 0064 F968     		ldr	r1, [r7, #12]	@ float
 2779 0066 1846     		mov	r0, r3
 2780 0068 FFF7FEFF 		bl	__aeabi_fmul
 2781 006c 0346     		mov	r3, r0
 2782 006e 2B49     		ldr	r1, .L209+4
 2783 0070 1846     		mov	r0, r3
 2784 0072 FFF7FEFF 		bl	__aeabi_fcmplt
 2785 0076 0346     		mov	r3, r0
 2786 0078 002B     		cmp	r3, #0
 2787 007a 01D0     		beq	.L205
 2788              		.loc 1 627 0 is_stmt 0 discriminator 1
 2789 007c 274B     		ldr	r3, .L209+4
 2790 007e 18E0     		b	.L191
 2791              	.L205:
 2792              		.loc 1 627 0 discriminator 2
 2793 0080 7B68     		ldr	r3, [r7, #4]
 2794 0082 5B6C     		ldr	r3, [r3, #68]	@ float
 2795 0084 F968     		ldr	r1, [r7, #12]	@ float
 2796 0086 1846     		mov	r0, r3
 2797 0088 FFF7FEFF 		bl	__aeabi_fmul
 2798 008c 0346     		mov	r3, r0
 2799 008e 4FF07E51 		mov	r1, #1065353216
 2800 0092 1846     		mov	r0, r3
 2801 0094 FFF7FEFF 		bl	__aeabi_fcmpgt
 2802 0098 0346     		mov	r3, r0
 2803 009a 002B     		cmp	r3, #0
 2804 009c 02D0     		beq	.L206
 2805              		.loc 1 627 0 discriminator 4
 2806 009e 4FF07E53 		mov	r3, #1065353216
 2807 00a2 06E0     		b	.L191
 2808              	.L206:
 2809              		.loc 1 627 0 discriminator 5
 2810 00a4 7B68     		ldr	r3, [r7, #4]
 2811 00a6 5B6C     		ldr	r3, [r3, #68]	@ float
 2812 00a8 F968     		ldr	r1, [r7, #12]	@ float
 2813 00aa 1846     		mov	r0, r3
 2814 00ac FFF7FEFF 		bl	__aeabi_fmul
 2815 00b0 0346     		mov	r3, r0
 2816              	.L191:
 2817              		.loc 1 627 0 discriminator 8
 2818 00b2 3A68     		ldr	r2, [r7]
 2819 00b4 1360     		str	r3, [r2]	@ float
 628:app_statemachine.c ****     out->tilt = -CLAMP(ctx->track_kp * cy_mrad, -1.0f, 1.0f);  // +cy = up
 2820              		.loc 1 628 0 is_stmt 1 discriminator 8
 2821 00b6 7B68     		ldr	r3, [r7, #4]
 2822 00b8 5B6C     		ldr	r3, [r3, #68]	@ float
 2823 00ba B968     		ldr	r1, [r7, #8]	@ float
 2824 00bc 1846     		mov	r0, r3
 2825 00be FFF7FEFF 		bl	__aeabi_fmul
 2826 00c2 0346     		mov	r3, r0
 2827 00c4 1549     		ldr	r1, .L209+4
 2828 00c6 1846     		mov	r0, r3
ARM GAS  C:\Users\JENNEW~1\AppData\Local\Temp\cc33Iuyf.s 			page 64


 2829 00c8 FFF7FEFF 		bl	__aeabi_fcmplt
 2830 00cc 0346     		mov	r3, r0
 2831 00ce 002B     		cmp	r3, #0
 2832 00d0 02D0     		beq	.L207
 2833              		.loc 1 628 0 is_stmt 0 discriminator 1
 2834 00d2 4FF07E53 		mov	r3, #1065353216
 2835 00d6 19E0     		b	.L197
 2836              	.L207:
 2837              		.loc 1 628 0 discriminator 2
 2838 00d8 7B68     		ldr	r3, [r7, #4]
 2839 00da 5B6C     		ldr	r3, [r3, #68]	@ float
 2840 00dc B968     		ldr	r1, [r7, #8]	@ float
 2841 00de 1846     		mov	r0, r3
 2842 00e0 FFF7FEFF 		bl	__aeabi_fmul
 2843 00e4 0346     		mov	r3, r0
 2844 00e6 4FF07E51 		mov	r1, #1065353216
 2845 00ea 1846     		mov	r0, r3
 2846 00ec FFF7FEFF 		bl	__aeabi_fcmpgt
 2847 00f0 0346     		mov	r3, r0
 2848 00f2 002B     		cmp	r3, #0
 2849 00f4 01D0     		beq	.L208
 2850              		.loc 1 628 0 discriminator 4
 2851 00f6 094B     		ldr	r3, .L209+4
 2852 00f8 08E0     		b	.L197
 2853              	.L208:
 2854              		.loc 1 628 0 discriminator 5
 2855 00fa 7B68     		ldr	r3, [r7, #4]
 2856 00fc 5B6C     		ldr	r3, [r3, #68]	@ float
 2857 00fe B968     		ldr	r1, [r7, #8]	@ float
 2858 0100 1846     		mov	r0, r3
 2859 0102 FFF7FEFF 		bl	__aeabi_fmul
 2860 0106 0346     		mov	r3, r0
 2861 0108 83F00043 		eor	r3, r3, #-2147483648
 2862              	.L197:
 2863              		.loc 1 628 0 discriminator 8
 2864 010c 3A68     		ldr	r2, [r7]
 2865 010e 5360     		str	r3, [r2, #4]	@ float
 629:app_statemachine.c **** }
 2866              		.loc 1 629 0 is_stmt 1 discriminator 8
 2867 0110 00BF     		nop
 2868 0112 1037     		adds	r7, r7, #16
 2869              		.cfi_def_cfa_offset 8
 2870 0114 BD46     		mov	sp, r7
 2871              		.cfi_def_cfa_register 13
 2872              		@ sp needed
 2873 0116 80BD     		pop	{r7, pc}
 2874              	.L210:
 2875              		.align	2
 2876              	.L209:
 2877 0118 CDCCCC3D 		.word	1036831949
 2878 011c 000080BF 		.word	-1082130432
 2879              		.cfi_endproc
 2880              	.LFE92:
 2881              		.size	build_auto_tracking, .-build_auto_tracking
 2882              		.section	.rodata
 2883 0472 0000     		.align	2
 2884              	.LC31:
ARM GAS  C:\Users\JENNEW~1\AppData\Local\Temp\cc33Iuyf.s 			page 65


 2885 0474 0D0A5B41 		.ascii	"\015\012[AUTO_LOSS] centroid lost  1=hold  3=retry\015"
 2885      55544F5F 
 2885      4C4F5353 
 2885      5D206365 
 2885      6E74726F 
 2886 04a1 0A3E2000 		.ascii	"\012> \000"
 2887              		.section	.text.entry_auto_loss,"ax",%progbits
 2888              		.align	2
 2889              		.thumb
 2890              		.thumb_func
 2891              		.type	entry_auto_loss, %function
 2892              	entry_auto_loss:
 2893              	.LFB93:
 630:app_statemachine.c **** 
 631:app_statemachine.c **** // AUTO_LOSS %=================================================================%
 632:app_statemachine.c **** static void entry_auto_loss(app_ctx_t *ctx)
 633:app_statemachine.c **** {
 2894              		.loc 1 633 0
 2895              		.cfi_startproc
 2896              		@ args = 0, pretend = 0, frame = 8
 2897              		@ frame_needed = 1, uses_anonymous_args = 0
 2898 0000 80B5     		push	{r7, lr}
 2899              		.cfi_def_cfa_offset 8
 2900              		.cfi_offset 7, -8
 2901              		.cfi_offset 14, -4
 2902 0002 82B0     		sub	sp, sp, #8
 2903              		.cfi_def_cfa_offset 16
 2904 0004 00AF     		add	r7, sp, #0
 2905              		.cfi_def_cfa_register 7
 2906 0006 7860     		str	r0, [r7, #4]
 634:app_statemachine.c ****     // TODO: Loss should hold and wait. If packets re-commence we go back into tracking,
 635:app_statemachine.c ****     // TODO: Let user trigger spiral search, GPS re-aqc, or exit to STBY later.
 636:app_statemachine.c ****     (void)ctx;
 637:app_statemachine.c ****     UART_DEBUG_PutString("\r\n[AUTO_LOSS] centroid lost  1=hold  3=retry\r\n> ");
 2907              		.loc 1 637 0
 2908 0008 0348     		ldr	r0, .L212
 2909 000a FFF7FEFF 		bl	UART_DEBUG_PutString
 638:app_statemachine.c **** }
 2910              		.loc 1 638 0
 2911 000e 00BF     		nop
 2912 0010 0837     		adds	r7, r7, #8
 2913              		.cfi_def_cfa_offset 8
 2914 0012 BD46     		mov	sp, r7
 2915              		.cfi_def_cfa_register 13
 2916              		@ sp needed
 2917 0014 80BD     		pop	{r7, pc}
 2918              	.L213:
 2919 0016 00BF     		.align	2
 2920              	.L212:
 2921 0018 74040000 		.word	.LC31
 2922              		.cfi_endproc
 2923              	.LFE93:
 2924              		.size	entry_auto_loss, .-entry_auto_loss
 2925              		.section	.text.key_auto_loss,"ax",%progbits
 2926              		.align	2
 2927              		.thumb
 2928              		.thumb_func
ARM GAS  C:\Users\JENNEW~1\AppData\Local\Temp\cc33Iuyf.s 			page 66


 2929              		.type	key_auto_loss, %function
 2930              	key_auto_loss:
 2931              	.LFB94:
 639:app_statemachine.c **** static uint8_t key_auto_loss(app_ctx_t *ctx, char k)
 640:app_statemachine.c **** {
 2932              		.loc 1 640 0
 2933              		.cfi_startproc
 2934              		@ args = 0, pretend = 0, frame = 8
 2935              		@ frame_needed = 1, uses_anonymous_args = 0
 2936 0000 80B5     		push	{r7, lr}
 2937              		.cfi_def_cfa_offset 8
 2938              		.cfi_offset 7, -8
 2939              		.cfi_offset 14, -4
 2940 0002 82B0     		sub	sp, sp, #8
 2941              		.cfi_def_cfa_offset 16
 2942 0004 00AF     		add	r7, sp, #0
 2943              		.cfi_def_cfa_register 7
 2944 0006 7860     		str	r0, [r7, #4]
 2945 0008 0B46     		mov	r3, r1
 2946 000a FB70     		strb	r3, [r7, #3]
 641:app_statemachine.c ****     switch (k) {  // Keep stationary, spiral search if requested.
 2947              		.loc 1 641 0
 2948 000c FB78     		ldrb	r3, [r7, #3]	@ zero_extendqisi2
 2949 000e 332B     		cmp	r3, #51
 2950 0010 05D1     		bne	.L218
 642:app_statemachine.c ****         case '3': transition(ctx, AUTO_ACQ_SPIRAL); return 1;
 2951              		.loc 1 642 0
 2952 0012 0A21     		movs	r1, #10
 2953 0014 7868     		ldr	r0, [r7, #4]
 2954 0016 FFF7FEFF 		bl	transition
 2955 001a 0123     		movs	r3, #1
 2956 001c 00E0     		b	.L217
 2957              	.L218:
 643:app_statemachine.c ****         default:  return 0;
 2958              		.loc 1 643 0
 2959 001e 0023     		movs	r3, #0
 2960              	.L217:
 644:app_statemachine.c ****     }
 645:app_statemachine.c **** }
 2961              		.loc 1 645 0
 2962 0020 1846     		mov	r0, r3
 2963 0022 0837     		adds	r7, r7, #8
 2964              		.cfi_def_cfa_offset 8
 2965 0024 BD46     		mov	sp, r7
 2966              		.cfi_def_cfa_register 13
 2967              		@ sp needed
 2968 0026 80BD     		pop	{r7, pc}
 2969              		.cfi_endproc
 2970              	.LFE94:
 2971              		.size	key_auto_loss, .-key_auto_loss
 2972              		.section	.rodata
 2973 04a5 000000   		.align	2
 2974              	.LC32:
 2975 04a8 0D0A5B41 		.ascii	"\015\012[AUTO_NO_LOCK] acquisition failed  1=hold  "
 2975      55544F5F 
 2975      4E4F5F4C 
 2975      4F434B5D 
ARM GAS  C:\Users\JENNEW~1\AppData\Local\Temp\cc33Iuyf.s 			page 67


 2975      20616371 
 2976 04d5 333D7265 		.ascii	"3=retry\015\012> \000"
 2976      7472790D 
 2976      0A3E2000 
 2977              		.section	.text.entry_auto_no_lock,"ax",%progbits
 2978              		.align	2
 2979              		.thumb
 2980              		.thumb_func
 2981              		.type	entry_auto_no_lock, %function
 2982              	entry_auto_no_lock:
 2983              	.LFB95:
 646:app_statemachine.c **** 
 647:app_statemachine.c **** // AUTO_NO_LOCK %=================================================================%
 648:app_statemachine.c **** static void entry_auto_no_lock(app_ctx_t *ctx)
 649:app_statemachine.c **** {
 2984              		.loc 1 649 0
 2985              		.cfi_startproc
 2986              		@ args = 0, pretend = 0, frame = 8
 2987              		@ frame_needed = 1, uses_anonymous_args = 0
 2988 0000 80B5     		push	{r7, lr}
 2989              		.cfi_def_cfa_offset 8
 2990              		.cfi_offset 7, -8
 2991              		.cfi_offset 14, -4
 2992 0002 82B0     		sub	sp, sp, #8
 2993              		.cfi_def_cfa_offset 16
 2994 0004 00AF     		add	r7, sp, #0
 2995              		.cfi_def_cfa_register 7
 2996 0006 7860     		str	r0, [r7, #4]
 650:app_statemachine.c ****     (void)ctx;
 651:app_statemachine.c ****     UART_DEBUG_PutString("\r\n[AUTO_NO_LOCK] acquisition failed  1=hold  3=retry\r\n> ");
 2997              		.loc 1 651 0
 2998 0008 0348     		ldr	r0, .L220
 2999 000a FFF7FEFF 		bl	UART_DEBUG_PutString
 652:app_statemachine.c **** }
 3000              		.loc 1 652 0
 3001 000e 00BF     		nop
 3002 0010 0837     		adds	r7, r7, #8
 3003              		.cfi_def_cfa_offset 8
 3004 0012 BD46     		mov	sp, r7
 3005              		.cfi_def_cfa_register 13
 3006              		@ sp needed
 3007 0014 80BD     		pop	{r7, pc}
 3008              	.L221:
 3009 0016 00BF     		.align	2
 3010              	.L220:
 3011 0018 A8040000 		.word	.LC32
 3012              		.cfi_endproc
 3013              	.LFE95:
 3014              		.size	entry_auto_no_lock, .-entry_auto_no_lock
 3015              		.section	.text.key_auto_no_lock,"ax",%progbits
 3016              		.align	2
 3017              		.thumb
 3018              		.thumb_func
 3019              		.type	key_auto_no_lock, %function
 3020              	key_auto_no_lock:
 3021              	.LFB96:
 653:app_statemachine.c **** static uint8_t key_auto_no_lock(app_ctx_t *ctx, char k)
ARM GAS  C:\Users\JENNEW~1\AppData\Local\Temp\cc33Iuyf.s 			page 68


 654:app_statemachine.c **** {
 3022              		.loc 1 654 0
 3023              		.cfi_startproc
 3024              		@ args = 0, pretend = 0, frame = 8
 3025              		@ frame_needed = 1, uses_anonymous_args = 0
 3026 0000 80B5     		push	{r7, lr}
 3027              		.cfi_def_cfa_offset 8
 3028              		.cfi_offset 7, -8
 3029              		.cfi_offset 14, -4
 3030 0002 82B0     		sub	sp, sp, #8
 3031              		.cfi_def_cfa_offset 16
 3032 0004 00AF     		add	r7, sp, #0
 3033              		.cfi_def_cfa_register 7
 3034 0006 7860     		str	r0, [r7, #4]
 3035 0008 0B46     		mov	r3, r1
 3036 000a FB70     		strb	r3, [r7, #3]
 655:app_statemachine.c ****     switch (k) {
 3037              		.loc 1 655 0
 3038 000c FB78     		ldrb	r3, [r7, #3]	@ zero_extendqisi2
 3039 000e 332B     		cmp	r3, #51
 3040 0010 05D1     		bne	.L226
 656:app_statemachine.c ****         case '3': transition(ctx, AUTO_ACQ_SPIRAL); return 1;
 3041              		.loc 1 656 0
 3042 0012 0A21     		movs	r1, #10
 3043 0014 7868     		ldr	r0, [r7, #4]
 3044 0016 FFF7FEFF 		bl	transition
 3045 001a 0123     		movs	r3, #1
 3046 001c 00E0     		b	.L225
 3047              	.L226:
 657:app_statemachine.c ****         default:  return 0;
 3048              		.loc 1 657 0
 3049 001e 0023     		movs	r3, #0
 3050              	.L225:
 658:app_statemachine.c ****     }
 659:app_statemachine.c **** }
 3051              		.loc 1 659 0
 3052 0020 1846     		mov	r0, r3
 3053 0022 0837     		adds	r7, r7, #8
 3054              		.cfi_def_cfa_offset 8
 3055 0024 BD46     		mov	sp, r7
 3056              		.cfi_def_cfa_register 13
 3057              		@ sp needed
 3058 0026 80BD     		pop	{r7, pc}
 3059              		.cfi_endproc
 3060              	.LFE96:
 3061              		.size	key_auto_no_lock, .-key_auto_no_lock
 3062              		.section	.rodata
 3063 04e1 000000   		.align	2
 3064              	.LC33:
 3065 04e4 5741524E 		.ascii	"WARN\000"
 3065      00
 3066 04e9 000000   		.align	2
 3067              	.LC34:
 3068 04ec 534F4654 		.ascii	"SOFTWARE\000"
 3068      57415245 
 3068      00
 3069 04f5 000000   		.align	2
ARM GAS  C:\Users\JENNEW~1\AppData\Local\Temp\cc33Iuyf.s 			page 69


 3070              	.LC35:
 3071 04f8 46415441 		.ascii	"FATAL\000"
 3071      4C00
 3072 04fe 0000     		.align	2
 3073              	.LC36:
 3074 0500 55534552 		.ascii	"USER\000"
 3074      00
 3075              		.section	.text.sev_str,"ax",%progbits
 3076              		.align	2
 3077              		.thumb
 3078              		.thumb_func
 3079              		.type	sev_str, %function
 3080              	sev_str:
 3081              	.LFB97:
 660:app_statemachine.c **** // %==========================================================================%
 661:app_statemachine.c **** // %                                 Error                                    %
 662:app_statemachine.c **** // %==========================================================================%
 663:app_statemachine.c **** static const char *sev_str(err_sev_t s)
 664:app_statemachine.c **** {
 3082              		.loc 1 664 0
 3083              		.cfi_startproc
 3084              		@ args = 0, pretend = 0, frame = 8
 3085              		@ frame_needed = 1, uses_anonymous_args = 0
 3086              		@ link register save eliminated.
 3087 0000 80B4     		push	{r7}
 3088              		.cfi_def_cfa_offset 4
 3089              		.cfi_offset 7, -4
 3090 0002 83B0     		sub	sp, sp, #12
 3091              		.cfi_def_cfa_offset 16
 3092 0004 00AF     		add	r7, sp, #0
 3093              		.cfi_def_cfa_register 7
 3094 0006 0346     		mov	r3, r0
 3095 0008 FB71     		strb	r3, [r7, #7]
 665:app_statemachine.c ****     switch (s) {
 3096              		.loc 1 665 0
 3097 000a FB79     		ldrb	r3, [r7, #7]	@ zero_extendqisi2
 3098 000c 022B     		cmp	r3, #2
 3099 000e 05D0     		beq	.L229
 3100 0010 032B     		cmp	r3, #3
 3101 0012 05D0     		beq	.L230
 3102 0014 012B     		cmp	r3, #1
 3103 0016 05D1     		bne	.L233
 666:app_statemachine.c ****         case SEV_WARN:     return "WARN";
 3104              		.loc 1 666 0
 3105 0018 054B     		ldr	r3, .L234
 3106 001a 04E0     		b	.L232
 3107              	.L229:
 667:app_statemachine.c ****         case SEV_SOFTWARE: return "SOFTWARE";
 3108              		.loc 1 667 0
 3109 001c 054B     		ldr	r3, .L234+4
 3110 001e 02E0     		b	.L232
 3111              	.L230:
 668:app_statemachine.c ****         case SEV_FATAL:    return "FATAL";
 3112              		.loc 1 668 0
 3113 0020 054B     		ldr	r3, .L234+8
 3114 0022 00E0     		b	.L232
 3115              	.L233:
ARM GAS  C:\Users\JENNEW~1\AppData\Local\Temp\cc33Iuyf.s 			page 70


 669:app_statemachine.c ****         default:           return "USER";
 3116              		.loc 1 669 0
 3117 0024 054B     		ldr	r3, .L234+12
 3118              	.L232:
 670:app_statemachine.c ****     }
 671:app_statemachine.c **** }
 3119              		.loc 1 671 0
 3120 0026 1846     		mov	r0, r3
 3121 0028 0C37     		adds	r7, r7, #12
 3122              		.cfi_def_cfa_offset 4
 3123 002a BD46     		mov	sp, r7
 3124              		.cfi_def_cfa_register 13
 3125              		@ sp needed
 3126 002c 80BC     		pop	{r7}
 3127              		.cfi_restore 7
 3128              		.cfi_def_cfa_offset 0
 3129 002e 7047     		bx	lr
 3130              	.L235:
 3131              		.align	2
 3132              	.L234:
 3133 0030 E4040000 		.word	.LC33
 3134 0034 EC040000 		.word	.LC34
 3135 0038 F8040000 		.word	.LC35
 3136 003c 00050000 		.word	.LC36
 3137              		.cfi_endproc
 3138              	.LFE97:
 3139              		.size	sev_str, .-sev_str
 3140              		.section	.rodata
 3141 0505 000000   		.align	2
 3142              	.LC37:
 3143 0508 0D0A5B45 		.ascii	"\015\012[ERROR:\000"
 3143      52524F52 
 3143      3A00
 3144 0512 0000     		.align	2
 3145              	.LC38:
 3146 0514 5D2000   		.ascii	"] \000"
 3147 0517 00       		.align	2
 3148              	.LC39:
 3149 0518 286E6F20 		.ascii	"(no msg)\000"
 3149      6D736729 
 3149      00
 3150 0521 000000   		.align	2
 3151              	.LC40:
 3152 0524 0D0A4641 		.ascii	"\015\012FATAL latched. Power cycle or Ctrl+R to cle"
 3152      54414C20 
 3152      6C617463 
 3152      6865642E 
 3152      20506F77 
 3153 0551 61722E0D 		.ascii	"ar.\015\012\000"
 3153      0A00
 3154 0557 00       		.align	2
 3155              	.LC41:
 3156 0558 0D0A416E 		.ascii	"\015\012Any key to acknowledge.\015\012\000"
 3156      79206B65 
 3156      7920746F 
 3156      2061636B 
 3156      6E6F776C 
ARM GAS  C:\Users\JENNEW~1\AppData\Local\Temp\cc33Iuyf.s 			page 71


 3157              		.section	.text.entry_error_active,"ax",%progbits
 3158              		.align	2
 3159              		.thumb
 3160              		.thumb_func
 3161              		.type	entry_error_active, %function
 3162              	entry_error_active:
 3163              	.LFB98:
 672:app_statemachine.c **** static void entry_error_active(app_ctx_t *ctx)
 673:app_statemachine.c **** {
 3164              		.loc 1 673 0
 3165              		.cfi_startproc
 3166              		@ args = 0, pretend = 0, frame = 8
 3167              		@ frame_needed = 1, uses_anonymous_args = 0
 3168 0000 80B5     		push	{r7, lr}
 3169              		.cfi_def_cfa_offset 8
 3170              		.cfi_offset 7, -8
 3171              		.cfi_offset 14, -4
 3172 0002 82B0     		sub	sp, sp, #8
 3173              		.cfi_def_cfa_offset 16
 3174 0004 00AF     		add	r7, sp, #0
 3175              		.cfi_def_cfa_register 7
 3176 0006 7860     		str	r0, [r7, #4]
 674:app_statemachine.c ****     UART_DEBUG_PutString("\r\n[ERROR:");
 3177              		.loc 1 674 0
 3178 0008 1848     		ldr	r0, .L241
 3179 000a FFF7FEFF 		bl	UART_DEBUG_PutString
 675:app_statemachine.c ****     UART_DEBUG_PutString(sev_str(ctx->err_sev));
 3180              		.loc 1 675 0
 3181 000e 7B68     		ldr	r3, [r7, #4]
 3182 0010 9B79     		ldrb	r3, [r3, #6]	@ zero_extendqisi2
 3183 0012 1846     		mov	r0, r3
 3184 0014 FFF7FEFF 		bl	sev_str
 3185 0018 0346     		mov	r3, r0
 3186 001a 1846     		mov	r0, r3
 3187 001c FFF7FEFF 		bl	UART_DEBUG_PutString
 676:app_statemachine.c ****     UART_DEBUG_PutString("] ");
 3188              		.loc 1 676 0
 3189 0020 1348     		ldr	r0, .L241+4
 3190 0022 FFF7FEFF 		bl	UART_DEBUG_PutString
 677:app_statemachine.c ****     UART_DEBUG_PutString(ctx->err_msg ? ctx->err_msg : "(no msg)");
 3191              		.loc 1 677 0
 3192 0026 7B68     		ldr	r3, [r7, #4]
 3193 0028 9B68     		ldr	r3, [r3, #8]
 3194 002a 002B     		cmp	r3, #0
 3195 002c 02D0     		beq	.L237
 3196              		.loc 1 677 0 is_stmt 0 discriminator 1
 3197 002e 7B68     		ldr	r3, [r7, #4]
 3198 0030 9B68     		ldr	r3, [r3, #8]
 3199 0032 00E0     		b	.L238
 3200              	.L237:
 3201              		.loc 1 677 0 discriminator 2
 3202 0034 0F4B     		ldr	r3, .L241+8
 3203              	.L238:
 3204              		.loc 1 677 0 discriminator 4
 3205 0036 1846     		mov	r0, r3
 3206 0038 FFF7FEFF 		bl	UART_DEBUG_PutString
 678:app_statemachine.c ****     if (ctx->err_sev == SEV_FATAL && ctx->gimbal)
ARM GAS  C:\Users\JENNEW~1\AppData\Local\Temp\cc33Iuyf.s 			page 72


 3207              		.loc 1 678 0 is_stmt 1 discriminator 4
 3208 003c 7B68     		ldr	r3, [r7, #4]
 3209 003e 9B79     		ldrb	r3, [r3, #6]	@ zero_extendqisi2
 3210 0040 032B     		cmp	r3, #3
 3211 0042 0CD1     		bne	.L239
 3212              		.loc 1 678 0 is_stmt 0 discriminator 1
 3213 0044 7B68     		ldr	r3, [r7, #4]
 3214 0046 1B68     		ldr	r3, [r3]
 3215 0048 002B     		cmp	r3, #0
 3216 004a 08D0     		beq	.L239
 679:app_statemachine.c ****     {
 680:app_statemachine.c ****         hamfly_kill(ctx->gimbal);
 3217              		.loc 1 680 0 is_stmt 1
 3218 004c 7B68     		ldr	r3, [r7, #4]
 3219 004e 1B68     		ldr	r3, [r3]
 3220 0050 1846     		mov	r0, r3
 3221 0052 FFF7FEFF 		bl	hamfly_kill
 681:app_statemachine.c ****         UART_DEBUG_PutString("\r\nFATAL latched. Power cycle or Ctrl+R to clear.\r\n");
 3222              		.loc 1 681 0
 3223 0056 0848     		ldr	r0, .L241+12
 3224 0058 FFF7FEFF 		bl	UART_DEBUG_PutString
 3225 005c 02E0     		b	.L240
 3226              	.L239:
 682:app_statemachine.c ****     }
 683:app_statemachine.c ****     else    UART_DEBUG_PutString("\r\nAny key to acknowledge.\r\n");
 3227              		.loc 1 683 0
 3228 005e 0748     		ldr	r0, .L241+16
 3229 0060 FFF7FEFF 		bl	UART_DEBUG_PutString
 3230              	.L240:
 684:app_statemachine.c **** }
 3231              		.loc 1 684 0
 3232 0064 00BF     		nop
 3233 0066 0837     		adds	r7, r7, #8
 3234              		.cfi_def_cfa_offset 8
 3235 0068 BD46     		mov	sp, r7
 3236              		.cfi_def_cfa_register 13
 3237              		@ sp needed
 3238 006a 80BD     		pop	{r7, pc}
 3239              	.L242:
 3240              		.align	2
 3241              	.L241:
 3242 006c 08050000 		.word	.LC37
 3243 0070 14050000 		.word	.LC38
 3244 0074 18050000 		.word	.LC39
 3245 0078 24050000 		.word	.LC40
 3246 007c 58050000 		.word	.LC41
 3247              		.cfi_endproc
 3248              	.LFE98:
 3249              		.size	entry_error_active, .-entry_error_active
 3250              		.section	.text.gimbal_pan_tilt_deg,"ax",%progbits
 3251              		.align	2
 3252              		.thumb
 3253              		.thumb_func
 3254              		.type	gimbal_pan_tilt_deg, %function
 3255              	gimbal_pan_tilt_deg:
 3256              	.LFB99:
 685:app_statemachine.c **** 
ARM GAS  C:\Users\JENNEW~1\AppData\Local\Temp\cc33Iuyf.s 			page 73


 686:app_statemachine.c **** // %==========================================================================%
 687:app_statemachine.c **** // %                             Key Handling                                 %
 688:app_statemachine.c **** // %==========================================================================%
 689:app_statemachine.c **** #define KEY_CTRL_R 0x12  // Reset ASCII code.
 690:app_statemachine.c **** 
 691:app_statemachine.c **** static uint8_t gimbal_pan_tilt_deg(const app_ctx_t *ctx, float *pan_deg, float *tilt_deg)
 692:app_statemachine.c **** {
 3257              		.loc 1 692 0
 3258              		.cfi_startproc
 3259              		@ args = 0, pretend = 0, frame = 256
 3260              		@ frame_needed = 1, uses_anonymous_args = 0
 3261 0000 80B5     		push	{r7, lr}
 3262              		.cfi_def_cfa_offset 8
 3263              		.cfi_offset 7, -8
 3264              		.cfi_offset 14, -4
 3265 0002 C0B0     		sub	sp, sp, #256
 3266              		.cfi_def_cfa_offset 264
 3267 0004 00AF     		add	r7, sp, #0
 3268              		.cfi_def_cfa_register 7
 3269 0006 F860     		str	r0, [r7, #12]
 3270 0008 B960     		str	r1, [r7, #8]
 3271 000a 7A60     		str	r2, [r7, #4]
 693:app_statemachine.c ****     if (!ctx->gimbal) return 0u;
 3272              		.loc 1 693 0
 3273 000c FB68     		ldr	r3, [r7, #12]
 3274 000e 1B68     		ldr	r3, [r3]
 3275 0010 002B     		cmp	r3, #0
 3276 0012 01D1     		bne	.L244
 3277              		.loc 1 693 0 is_stmt 0 discriminator 1
 3278 0014 0023     		movs	r3, #0
 3279 0016 18E0     		b	.L247
 3280              	.L244:
 694:app_statemachine.c ****     hamfly_telemetry_t st;
 695:app_statemachine.c ****     hamfly_get_telemetry(ctx->gimbal, &st);
 3281              		.loc 1 695 0 is_stmt 1
 3282 0018 FB68     		ldr	r3, [r7, #12]
 3283 001a 1B68     		ldr	r3, [r3]
 3284 001c 07F11402 		add	r2, r7, #20
 3285 0020 1146     		mov	r1, r2
 3286 0022 1846     		mov	r0, r3
 3287 0024 FFF7FEFF 		bl	hamfly_get_telemetry
 696:app_statemachine.c ****     if (!st.valid) return 0u;
 3288              		.loc 1 696 0
 3289 0028 3B7D     		ldrb	r3, [r7, #20]	@ zero_extendqisi2
 3290 002a 83F00103 		eor	r3, r3, #1
 3291 002e DBB2     		uxtb	r3, r3
 3292 0030 002B     		cmp	r3, #0
 3293 0032 01D0     		beq	.L246
 3294              		.loc 1 696 0 is_stmt 0 discriminator 1
 3295 0034 0023     		movs	r3, #0
 3296 0036 08E0     		b	.L247
 3297              	.L246:
 697:app_statemachine.c ****     float roll_deg;                                   /* discarded */
 698:app_statemachine.c ****     return hamfly_telemetry_to_euler(&st, pan_deg, tilt_deg, &roll_deg);
 3298              		.loc 1 698 0 is_stmt 1
 3299 0038 07F11003 		add	r3, r7, #16
 3300 003c 07F11400 		add	r0, r7, #20
ARM GAS  C:\Users\JENNEW~1\AppData\Local\Temp\cc33Iuyf.s 			page 74


 3301 0040 7A68     		ldr	r2, [r7, #4]
 3302 0042 B968     		ldr	r1, [r7, #8]
 3303 0044 FFF7FEFF 		bl	hamfly_telemetry_to_euler
 3304 0048 0346     		mov	r3, r0
 3305              	.L247:
 699:app_statemachine.c **** }
 3306              		.loc 1 699 0 discriminator 1
 3307 004a 1846     		mov	r0, r3
 3308 004c 07F58077 		add	r7, r7, #256
 3309              		.cfi_def_cfa_offset 8
 3310 0050 BD46     		mov	sp, r7
 3311              		.cfi_def_cfa_register 13
 3312              		@ sp needed
 3313 0052 80BD     		pop	{r7, pc}
 3314              		.cfi_endproc
 3315              	.LFE99:
 3316              		.size	gimbal_pan_tilt_deg, .-gimbal_pan_tilt_deg
 3317              		.section	.rodata
 3318              		.align	2
 3319              	.LC42:
 3320 0574 6E6F2067 		.ascii	"no gimbal handle\000"
 3320      696D6261 
 3320      6C206861 
 3320      6E646C65 
 3320      00
 3321 0585 000000   		.align	2
 3322              	.LC43:
 3323 0588 6E6F2074 		.ascii	"no telemetry (origin not set)\000"
 3323      656C656D 
 3323      65747279 
 3323      20286F72 
 3323      6967696E 
 3324 05a6 0000     		.align	2
 3325              	.LC44:
 3326 05a8 0D0A5B4F 		.ascii	"\015\012[ORIGIN] captured.\015\012\000"
 3326      52494749 
 3326      4E5D2063 
 3326      61707475 
 3326      7265642E 
 3327              		.section	.text.set_origin,"ax",%progbits
 3328              		.align	2
 3329              		.thumb
 3330              		.thumb_func
 3331              		.type	set_origin, %function
 3332              	set_origin:
 3333              	.LFB100:
 700:app_statemachine.c **** 
 701:app_statemachine.c **** /* Capture current gimbal attitude as the origin (global '['). */
 702:app_statemachine.c **** static void set_origin(app_ctx_t *ctx)
 703:app_statemachine.c **** {
 3334              		.loc 1 703 0
 3335              		.cfi_startproc
 3336              		@ args = 0, pretend = 0, frame = 16
 3337              		@ frame_needed = 1, uses_anonymous_args = 0
 3338 0000 80B5     		push	{r7, lr}
 3339              		.cfi_def_cfa_offset 8
 3340              		.cfi_offset 7, -8
ARM GAS  C:\Users\JENNEW~1\AppData\Local\Temp\cc33Iuyf.s 			page 75


 3341              		.cfi_offset 14, -4
 3342 0002 84B0     		sub	sp, sp, #16
 3343              		.cfi_def_cfa_offset 24
 3344 0004 00AF     		add	r7, sp, #0
 3345              		.cfi_def_cfa_register 7
 3346 0006 7860     		str	r0, [r7, #4]
 704:app_statemachine.c ****     if (!ctx->gimbal) { app_raise_error(ctx, SEV_USER, "no gimbal handle"); return; }
 3347              		.loc 1 704 0
 3348 0008 7B68     		ldr	r3, [r7, #4]
 3349 000a 1B68     		ldr	r3, [r3]
 3350 000c 002B     		cmp	r3, #0
 3351 000e 05D1     		bne	.L249
 3352              		.loc 1 704 0 is_stmt 0 discriminator 1
 3353 0010 134A     		ldr	r2, .L253
 3354 0012 0021     		movs	r1, #0
 3355 0014 7868     		ldr	r0, [r7, #4]
 3356 0016 FFF7FEFF 		bl	app_raise_error
 3357 001a 1DE0     		b	.L248
 3358              	.L249:
 705:app_statemachine.c **** 
 706:app_statemachine.c ****     float pan, tilt;
 707:app_statemachine.c ****     if (!gimbal_pan_tilt_deg(ctx, &pan, &tilt)) {
 3359              		.loc 1 707 0 is_stmt 1
 3360 001c 07F10802 		add	r2, r7, #8
 3361 0020 07F10C03 		add	r3, r7, #12
 3362 0024 1946     		mov	r1, r3
 3363 0026 7868     		ldr	r0, [r7, #4]
 3364 0028 FFF7FEFF 		bl	gimbal_pan_tilt_deg
 3365 002c 0346     		mov	r3, r0
 3366 002e 002B     		cmp	r3, #0
 3367 0030 05D1     		bne	.L251
 708:app_statemachine.c ****         app_raise_error(ctx, SEV_USER, "no telemetry (origin not set)");
 3368              		.loc 1 708 0
 3369 0032 0C4A     		ldr	r2, .L253+4
 3370 0034 0021     		movs	r1, #0
 3371 0036 7868     		ldr	r0, [r7, #4]
 3372 0038 FFF7FEFF 		bl	app_raise_error
 709:app_statemachine.c ****         return;
 3373              		.loc 1 709 0
 3374 003c 0CE0     		b	.L248
 3375              	.L251:
 710:app_statemachine.c ****     }
 711:app_statemachine.c ****     ctx->origin_pan_deg  = pan;
 3376              		.loc 1 711 0
 3377 003e FA68     		ldr	r2, [r7, #12]	@ float
 3378 0040 7B68     		ldr	r3, [r7, #4]
 3379 0042 DA64     		str	r2, [r3, #76]	@ float
 712:app_statemachine.c ****     ctx->origin_tilt_deg = tilt;
 3380              		.loc 1 712 0
 3381 0044 BA68     		ldr	r2, [r7, #8]	@ float
 3382 0046 7B68     		ldr	r3, [r7, #4]
 3383 0048 1A65     		str	r2, [r3, #80]	@ float
 713:app_statemachine.c ****     ctx->origin_set = 1u;
 3384              		.loc 1 713 0
 3385 004a 7B68     		ldr	r3, [r7, #4]
 3386 004c 0122     		movs	r2, #1
 3387 004e 83F85420 		strb	r2, [r3, #84]
ARM GAS  C:\Users\JENNEW~1\AppData\Local\Temp\cc33Iuyf.s 			page 76


 714:app_statemachine.c ****     UART_DEBUG_PutString("\r\n[ORIGIN] captured.\r\n");
 3388              		.loc 1 714 0
 3389 0052 0548     		ldr	r0, .L253+8
 3390 0054 FFF7FEFF 		bl	UART_DEBUG_PutString
 3391              	.L248:
 715:app_statemachine.c **** }
 3392              		.loc 1 715 0
 3393 0058 1037     		adds	r7, r7, #16
 3394              		.cfi_def_cfa_offset 8
 3395 005a BD46     		mov	sp, r7
 3396              		.cfi_def_cfa_register 13
 3397              		@ sp needed
 3398 005c 80BD     		pop	{r7, pc}
 3399              	.L254:
 3400 005e 00BF     		.align	2
 3401              	.L253:
 3402 0060 74050000 		.word	.LC42
 3403 0064 88050000 		.word	.LC43
 3404 0068 A8050000 		.word	.LC44
 3405              		.cfi_endproc
 3406              	.LFE100:
 3407              		.size	set_origin, .-set_origin
 3408              		.section	.rodata
 3409 05bf 00       		.align	2
 3410              	.LC45:
 3411 05c0 0D0A2D2D 		.ascii	"\015\012--- keys ---\015\012 1 hold   2 manual     "
 3411      2D206B65 
 3411      7973202D 
 3411      2D2D0D0A 
 3411      20312068 
 3412 05e7 20203320 		.ascii	"  3 auto\015\012 x kill   [ set-origin   ? help\015"
 3412      6175746F 
 3412      0D0A2078 
 3412      206B696C 
 3412      6C202020 
 3413 0611 0A206520 		.ascii	"\012 e exit   ] home\015\012 (in MANU) numpad/ijkl/"
 3413      65786974 
 3413      2020205D 
 3413      20686F6D 
 3413      650D0A20 
 3414 063b 77617364 		.ascii	"wasd nudge\015\012\000"
 3414      206E7564 
 3414      67650D0A 
 3414      00
 3415              		.section	.text.print_help,"ax",%progbits
 3416              		.align	2
 3417              		.thumb
 3418              		.thumb_func
 3419              		.type	print_help, %function
 3420              	print_help:
 3421              	.LFB101:
 716:app_statemachine.c **** 
 717:app_statemachine.c **** static void print_help(const app_ctx_t *ctx)
 718:app_statemachine.c **** {
 3422              		.loc 1 718 0
 3423              		.cfi_startproc
 3424              		@ args = 0, pretend = 0, frame = 8
ARM GAS  C:\Users\JENNEW~1\AppData\Local\Temp\cc33Iuyf.s 			page 77


 3425              		@ frame_needed = 1, uses_anonymous_args = 0
 3426 0000 80B5     		push	{r7, lr}
 3427              		.cfi_def_cfa_offset 8
 3428              		.cfi_offset 7, -8
 3429              		.cfi_offset 14, -4
 3430 0002 82B0     		sub	sp, sp, #8
 3431              		.cfi_def_cfa_offset 16
 3432 0004 00AF     		add	r7, sp, #0
 3433              		.cfi_def_cfa_register 7
 3434 0006 7860     		str	r0, [r7, #4]
 719:app_statemachine.c ****     (void)ctx;
 720:app_statemachine.c ****     UART_DEBUG_PutString(
 3435              		.loc 1 720 0
 3436 0008 0348     		ldr	r0, .L256
 3437 000a FFF7FEFF 		bl	UART_DEBUG_PutString
 721:app_statemachine.c ****         "\r\n--- keys ---\r\n"
 722:app_statemachine.c ****         " 1 hold   2 manual       3 auto\r\n"
 723:app_statemachine.c ****         " x kill   [ set-origin   ? help\r\n"
 724:app_statemachine.c ****         " e exit   ] home\r\n"
 725:app_statemachine.c ****         " (in MANU) numpad/ijkl/wasd nudge\r\n");
 726:app_statemachine.c **** }
 3438              		.loc 1 726 0
 3439 000e 00BF     		nop
 3440 0010 0837     		adds	r7, r7, #8
 3441              		.cfi_def_cfa_offset 8
 3442 0012 BD46     		mov	sp, r7
 3443              		.cfi_def_cfa_register 13
 3444              		@ sp needed
 3445 0014 80BD     		pop	{r7, pc}
 3446              	.L257:
 3447 0016 00BF     		.align	2
 3448              	.L256:
 3449 0018 C0050000 		.word	.LC45
 3450              		.cfi_endproc
 3451              	.LFE101:
 3452              		.size	print_help, .-print_help
 3453              		.section	.rodata
 3454              		.align	2
 3455              	.LC46:
 3456 0648 0D0A4641 		.ascii	"\015\012FATAL cleared.\015\012\000"
 3456      54414C20 
 3456      636C6561 
 3456      7265642E 
 3456      0D0A00
 3457              		.section	.text.handle_global_key,"ax",%progbits
 3458              		.align	2
 3459              		.thumb
 3460              		.thumb_func
 3461              		.type	handle_global_key, %function
 3462              	handle_global_key:
 3463              	.LFB102:
 727:app_statemachine.c **** 
 728:app_statemachine.c **** /* ---- always-global keys (honored in every non-FATAL leaf) ------------- */
 729:app_statemachine.c **** static uint8_t handle_global_key(app_ctx_t *ctx, char k)
 730:app_statemachine.c **** {
 3464              		.loc 1 730 0
 3465              		.cfi_startproc
ARM GAS  C:\Users\JENNEW~1\AppData\Local\Temp\cc33Iuyf.s 			page 78


 3466              		@ args = 0, pretend = 0, frame = 8
 3467              		@ frame_needed = 1, uses_anonymous_args = 0
 3468 0000 80B5     		push	{r7, lr}
 3469              		.cfi_def_cfa_offset 8
 3470              		.cfi_offset 7, -8
 3471              		.cfi_offset 14, -4
 3472 0002 82B0     		sub	sp, sp, #8
 3473              		.cfi_def_cfa_offset 16
 3474 0004 00AF     		add	r7, sp, #0
 3475              		.cfi_def_cfa_register 7
 3476 0006 7860     		str	r0, [r7, #4]
 3477 0008 0B46     		mov	r3, r1
 3478 000a FB70     		strb	r3, [r7, #3]
 731:app_statemachine.c ****     switch (k) {
 3479              		.loc 1 731 0
 3480 000c FB78     		ldrb	r3, [r7, #3]	@ zero_extendqisi2
 3481 000e 3F2B     		cmp	r3, #63
 3482 0010 33D0     		beq	.L260
 3483 0012 3F2B     		cmp	r3, #63
 3484 0014 02DC     		bgt	.L261
 3485 0016 122B     		cmp	r3, #18
 3486 0018 05D0     		beq	.L262
 3487 001a 33E0     		b	.L259
 3488              	.L261:
 3489 001c 5B2B     		cmp	r3, #91
 3490 001e 27D0     		beq	.L263
 3491 0020 782B     		cmp	r3, #120
 3492 0022 16D0     		beq	.L264
 3493 0024 2EE0     		b	.L259
 3494              	.L262:
 732:app_statemachine.c ****         case KEY_CTRL_R:                       /* clear FATAL latch */
 733:app_statemachine.c ****             if (ctx->fatal_latched) {
 3495              		.loc 1 733 0
 3496 0026 7B68     		ldr	r3, [r7, #4]
 3497 0028 1B7B     		ldrb	r3, [r3, #12]	@ zero_extendqisi2
 3498 002a 002B     		cmp	r3, #0
 3499 002c 0FD0     		beq	.L265
 734:app_statemachine.c ****                 ctx->fatal_latched = 0u;
 3500              		.loc 1 734 0
 3501 002e 7B68     		ldr	r3, [r7, #4]
 3502 0030 0022     		movs	r2, #0
 3503 0032 1A73     		strb	r2, [r3, #12]
 735:app_statemachine.c ****                 ctx->err_sev = SEV_USER;
 3504              		.loc 1 735 0
 3505 0034 7B68     		ldr	r3, [r7, #4]
 3506 0036 0022     		movs	r2, #0
 3507 0038 9A71     		strb	r2, [r3, #6]
 736:app_statemachine.c ****                 ctx->err_msg = NULL;
 3508              		.loc 1 736 0
 3509 003a 7B68     		ldr	r3, [r7, #4]
 3510 003c 0022     		movs	r2, #0
 3511 003e 9A60     		str	r2, [r3, #8]
 737:app_statemachine.c ****                 UART_DEBUG_PutString("\r\nFATAL cleared.\r\n");
 3512              		.loc 1 737 0
 3513 0040 1348     		ldr	r0, .L268
 3514 0042 FFF7FEFF 		bl	UART_DEBUG_PutString
 738:app_statemachine.c ****                 transition(ctx, STBY_HOLD);
ARM GAS  C:\Users\JENNEW~1\AppData\Local\Temp\cc33Iuyf.s 			page 79


 3515              		.loc 1 738 0
 3516 0046 0621     		movs	r1, #6
 3517 0048 7868     		ldr	r0, [r7, #4]
 3518 004a FFF7FEFF 		bl	transition
 3519              	.L265:
 739:app_statemachine.c ****             }
 740:app_statemachine.c ****             return 1;                          /* reserved key, always consumed */
 3520              		.loc 1 740 0
 3521 004e 0123     		movs	r3, #1
 3522 0050 19E0     		b	.L266
 3523              	.L264:
 741:app_statemachine.c ****         case 'x':                              /* soft kill */
 742:app_statemachine.c ****             if (ctx->gimbal) hamfly_kill(ctx->gimbal);
 3524              		.loc 1 742 0
 3525 0052 7B68     		ldr	r3, [r7, #4]
 3526 0054 1B68     		ldr	r3, [r3]
 3527 0056 002B     		cmp	r3, #0
 3528 0058 04D0     		beq	.L267
 3529              		.loc 1 742 0 is_stmt 0 discriminator 1
 3530 005a 7B68     		ldr	r3, [r7, #4]
 3531 005c 1B68     		ldr	r3, [r3]
 3532 005e 1846     		mov	r0, r3
 3533 0060 FFF7FEFF 		bl	hamfly_kill
 3534              	.L267:
 743:app_statemachine.c ****             transition(ctx, STBY_HOLD);
 3535              		.loc 1 743 0 is_stmt 1
 3536 0064 0621     		movs	r1, #6
 3537 0066 7868     		ldr	r0, [r7, #4]
 3538 0068 FFF7FEFF 		bl	transition
 744:app_statemachine.c ****             return 1;
 3539              		.loc 1 744 0
 3540 006c 0123     		movs	r3, #1
 3541 006e 0AE0     		b	.L266
 3542              	.L263:
 745:app_statemachine.c ****         case '[': set_origin(ctx);  return 1;
 3543              		.loc 1 745 0
 3544 0070 7868     		ldr	r0, [r7, #4]
 3545 0072 FFF7FEFF 		bl	set_origin
 3546 0076 0123     		movs	r3, #1
 3547 0078 05E0     		b	.L266
 3548              	.L260:
 746:app_statemachine.c ****             case '?': print_help(ctx);  return 1;
 3549              		.loc 1 746 0
 3550 007a 7868     		ldr	r0, [r7, #4]
 3551 007c FFF7FEFF 		bl	print_help
 3552 0080 0123     		movs	r3, #1
 3553 0082 00E0     		b	.L266
 3554              	.L259:
 747:app_statemachine.c ****             default:  return 0;
 3555              		.loc 1 747 0
 3556 0084 0023     		movs	r3, #0
 3557              	.L266:
 748:app_statemachine.c ****     }
 749:app_statemachine.c **** }
 3558              		.loc 1 749 0
 3559 0086 1846     		mov	r0, r3
 3560 0088 0837     		adds	r7, r7, #8
ARM GAS  C:\Users\JENNEW~1\AppData\Local\Temp\cc33Iuyf.s 			page 80


 3561              		.cfi_def_cfa_offset 8
 3562 008a BD46     		mov	sp, r7
 3563              		.cfi_def_cfa_register 13
 3564              		@ sp needed
 3565 008c 80BD     		pop	{r7, pc}
 3566              	.L269:
 3567 008e 00BF     		.align	2
 3568              	.L268:
 3569 0090 48060000 		.word	.LC46
 3570              		.cfi_endproc
 3571              	.LFE102:
 3572              		.size	handle_global_key, .-handle_global_key
 3573              		.section	.text.leaf_traps_nav,"ax",%progbits
 3574              		.align	2
 3575              		.thumb
 3576              		.thumb_func
 3577              		.type	leaf_traps_nav, %function
 3578              	leaf_traps_nav:
 3579              	.LFB103:
 750:app_statemachine.c **** 
 751:app_statemachine.c **** /* ---- navigation keys (suppressed in trapping leaves) ------------------ */
 752:app_statemachine.c **** static uint8_t leaf_traps_nav(state_t s)
 753:app_statemachine.c **** {
 3580              		.loc 1 753 0
 3581              		.cfi_startproc
 3582              		@ args = 0, pretend = 0, frame = 8
 3583              		@ frame_needed = 1, uses_anonymous_args = 0
 3584              		@ link register save eliminated.
 3585 0000 80B4     		push	{r7}
 3586              		.cfi_def_cfa_offset 4
 3587              		.cfi_offset 7, -4
 3588 0002 83B0     		sub	sp, sp, #12
 3589              		.cfi_def_cfa_offset 16
 3590 0004 00AF     		add	r7, sp, #0
 3591              		.cfi_def_cfa_register 7
 3592 0006 0346     		mov	r3, r0
 3593 0008 FB71     		strb	r3, [r7, #7]
 754:app_statemachine.c ****     /* Active control states swallow nav keys; loss/no-lock allow user escape. */
 755:app_statemachine.c ****     return (s == MANU_JOYSTICK   ||
 756:app_statemachine.c ****             s == AUTO_HOME       ||
 757:app_statemachine.c ****             s == AUTO_ACQ_GPS    ||
 758:app_statemachine.c ****             s == AUTO_ACQ_SPIRAL ||
 3594              		.loc 1 758 0
 3595 000a FB79     		ldrb	r3, [r7, #7]	@ zero_extendqisi2
 3596 000c 072B     		cmp	r3, #7
 3597 000e 0BD0     		beq	.L271
 755:app_statemachine.c ****             s == AUTO_HOME       ||
 3598              		.loc 1 755 0
 3599 0010 FB79     		ldrb	r3, [r7, #7]	@ zero_extendqisi2
 3600 0012 082B     		cmp	r3, #8
 3601 0014 08D0     		beq	.L271
 756:app_statemachine.c ****             s == AUTO_ACQ_GPS    ||
 3602              		.loc 1 756 0
 3603 0016 FB79     		ldrb	r3, [r7, #7]	@ zero_extendqisi2
 3604 0018 092B     		cmp	r3, #9
 3605 001a 05D0     		beq	.L271
 757:app_statemachine.c ****             s == AUTO_ACQ_SPIRAL ||
ARM GAS  C:\Users\JENNEW~1\AppData\Local\Temp\cc33Iuyf.s 			page 81


 3606              		.loc 1 757 0
 3607 001c FB79     		ldrb	r3, [r7, #7]	@ zero_extendqisi2
 3608 001e 0A2B     		cmp	r3, #10
 3609 0020 02D0     		beq	.L271
 3610              		.loc 1 758 0 discriminator 2
 3611 0022 FB79     		ldrb	r3, [r7, #7]	@ zero_extendqisi2
 3612 0024 0B2B     		cmp	r3, #11
 3613 0026 01D1     		bne	.L272
 3614              	.L271:
 3615              		.loc 1 758 0 is_stmt 0 discriminator 1
 3616 0028 0123     		movs	r3, #1
 3617 002a 00E0     		b	.L273
 3618              	.L272:
 3619              		.loc 1 758 0 discriminator 3
 3620 002c 0023     		movs	r3, #0
 3621              	.L273:
 755:app_statemachine.c ****             s == AUTO_HOME       ||
 3622              		.loc 1 755 0 is_stmt 1
 3623 002e DBB2     		uxtb	r3, r3
 759:app_statemachine.c ****             s == AUTO_TRACKING);
 760:app_statemachine.c **** }
 3624              		.loc 1 760 0
 3625 0030 1846     		mov	r0, r3
 3626 0032 0C37     		adds	r7, r7, #12
 3627              		.cfi_def_cfa_offset 4
 3628 0034 BD46     		mov	sp, r7
 3629              		.cfi_def_cfa_register 13
 3630              		@ sp needed
 3631 0036 80BC     		pop	{r7}
 3632              		.cfi_restore 7
 3633              		.cfi_def_cfa_offset 0
 3634 0038 7047     		bx	lr
 3635              		.cfi_endproc
 3636              	.LFE103:
 3637              		.size	leaf_traps_nav, .-leaf_traps_nav
 3638 003a 00BF     		.section	.text.handle_nav_key,"ax",%progbits
 3639              		.align	2
 3640              		.thumb
 3641              		.thumb_func
 3642              		.type	handle_nav_key, %function
 3643              	handle_nav_key:
 3644              	.LFB104:
 761:app_statemachine.c **** static uint8_t handle_nav_key(app_ctx_t *ctx, char k)
 762:app_statemachine.c **** {
 3645              		.loc 1 762 0
 3646              		.cfi_startproc
 3647              		@ args = 0, pretend = 0, frame = 8
 3648              		@ frame_needed = 1, uses_anonymous_args = 0
 3649 0000 80B5     		push	{r7, lr}
 3650              		.cfi_def_cfa_offset 8
 3651              		.cfi_offset 7, -8
 3652              		.cfi_offset 14, -4
 3653 0002 82B0     		sub	sp, sp, #8
 3654              		.cfi_def_cfa_offset 16
 3655 0004 00AF     		add	r7, sp, #0
 3656              		.cfi_def_cfa_register 7
 3657 0006 7860     		str	r0, [r7, #4]
ARM GAS  C:\Users\JENNEW~1\AppData\Local\Temp\cc33Iuyf.s 			page 82


 3658 0008 0B46     		mov	r3, r1
 3659 000a FB70     		strb	r3, [r7, #3]
 763:app_statemachine.c ****     switch (k) {
 3660              		.loc 1 763 0
 3661 000c FB78     		ldrb	r3, [r7, #3]	@ zero_extendqisi2
 3662 000e 322B     		cmp	r3, #50
 3663 0010 09D0     		beq	.L277
 3664 0012 332B     		cmp	r3, #51
 3665 0014 0DD0     		beq	.L278
 3666 0016 312B     		cmp	r3, #49
 3667 0018 11D1     		bne	.L281
 764:app_statemachine.c ****         case '1': transition(ctx, STBY_HOLD);     return 1;
 3668              		.loc 1 764 0
 3669 001a 0621     		movs	r1, #6
 3670 001c 7868     		ldr	r0, [r7, #4]
 3671 001e FFF7FEFF 		bl	transition
 3672 0022 0123     		movs	r3, #1
 3673 0024 0CE0     		b	.L280
 3674              	.L277:
 765:app_statemachine.c ****         case '2': transition(ctx, MANU_JOYSTICK); return 1;
 3675              		.loc 1 765 0
 3676 0026 0721     		movs	r1, #7
 3677 0028 7868     		ldr	r0, [r7, #4]
 3678 002a FFF7FEFF 		bl	transition
 3679 002e 0123     		movs	r3, #1
 3680 0030 06E0     		b	.L280
 3681              	.L278:
 766:app_statemachine.c ****         case '3': transition(ctx, AUTO_TRACKING); return 1;
 3682              		.loc 1 766 0
 3683 0032 0B21     		movs	r1, #11
 3684 0034 7868     		ldr	r0, [r7, #4]
 3685 0036 FFF7FEFF 		bl	transition
 3686 003a 0123     		movs	r3, #1
 3687 003c 00E0     		b	.L280
 3688              	.L281:
 767:app_statemachine.c ****         default:  return 0;
 3689              		.loc 1 767 0
 3690 003e 0023     		movs	r3, #0
 3691              	.L280:
 768:app_statemachine.c ****     }
 769:app_statemachine.c **** }
 3692              		.loc 1 769 0
 3693 0040 1846     		mov	r0, r3
 3694 0042 0837     		adds	r7, r7, #8
 3695              		.cfi_def_cfa_offset 8
 3696 0044 BD46     		mov	sp, r7
 3697              		.cfi_def_cfa_register 13
 3698              		@ sp needed
 3699 0046 80BD     		pop	{r7, pc}
 3700              		.cfi_endproc
 3701              	.LFE104:
 3702              		.size	handle_nav_key, .-handle_nav_key
 3703              		.section	.text.key_error_active,"ax",%progbits
 3704              		.align	2
 3705              		.thumb
 3706              		.thumb_func
 3707              		.type	key_error_active, %function
ARM GAS  C:\Users\JENNEW~1\AppData\Local\Temp\cc33Iuyf.s 			page 83


 3708              	key_error_active:
 3709              	.LFB105:
 770:app_statemachine.c **** 
 771:app_statemachine.c **** /* ---- leaf-specific keys ----------------------------------------------- */
 772:app_statemachine.c **** static uint8_t key_error_active(app_ctx_t *ctx, char k)
 773:app_statemachine.c **** {
 3710              		.loc 1 773 0
 3711              		.cfi_startproc
 3712              		@ args = 0, pretend = 0, frame = 16
 3713              		@ frame_needed = 1, uses_anonymous_args = 0
 3714 0000 80B5     		push	{r7, lr}
 3715              		.cfi_def_cfa_offset 8
 3716              		.cfi_offset 7, -8
 3717              		.cfi_offset 14, -4
 3718 0002 84B0     		sub	sp, sp, #16
 3719              		.cfi_def_cfa_offset 24
 3720 0004 00AF     		add	r7, sp, #0
 3721              		.cfi_def_cfa_register 7
 3722 0006 7860     		str	r0, [r7, #4]
 3723 0008 0B46     		mov	r3, r1
 3724 000a FB70     		strb	r3, [r7, #3]
 774:app_statemachine.c ****     (void)k;
 775:app_statemachine.c ****     if (ctx->err_sev != SEV_FATAL) {            /* WARN/SOFTWARE ack */
 3725              		.loc 1 775 0
 3726 000c 7B68     		ldr	r3, [r7, #4]
 3727 000e 9B79     		ldrb	r3, [r3, #6]	@ zero_extendqisi2
 3728 0010 032B     		cmp	r3, #3
 3729 0012 0FD0     		beq	.L283
 3730              	.LBB12:
 776:app_statemachine.c ****         state_t back = (ctx->prev_leaf == ERROR_ACTIVE) ? STBY_HOLD : ctx->prev_leaf;
 3731              		.loc 1 776 0
 3732 0014 7B68     		ldr	r3, [r7, #4]
 3733 0016 5B79     		ldrb	r3, [r3, #5]	@ zero_extendqisi2
 3734 0018 0E2B     		cmp	r3, #14
 3735 001a 02D0     		beq	.L284
 3736              		.loc 1 776 0 is_stmt 0 discriminator 1
 3737 001c 7B68     		ldr	r3, [r7, #4]
 3738 001e 5B79     		ldrb	r3, [r3, #5]	@ zero_extendqisi2
 3739 0020 00E0     		b	.L285
 3740              	.L284:
 3741              		.loc 1 776 0 discriminator 2
 3742 0022 0623     		movs	r3, #6
 3743              	.L285:
 3744              		.loc 1 776 0 discriminator 4
 3745 0024 FB73     		strb	r3, [r7, #15]
 777:app_statemachine.c ****         transition(ctx, back);
 3746              		.loc 1 777 0 is_stmt 1 discriminator 4
 3747 0026 FB7B     		ldrb	r3, [r7, #15]	@ zero_extendqisi2
 3748 0028 1946     		mov	r1, r3
 3749 002a 7868     		ldr	r0, [r7, #4]
 3750 002c FFF7FEFF 		bl	transition
 778:app_statemachine.c ****         return 1;
 3751              		.loc 1 778 0 discriminator 4
 3752 0030 0123     		movs	r3, #1
 3753 0032 00E0     		b	.L286
 3754              	.L283:
 3755              	.LBE12:
ARM GAS  C:\Users\JENNEW~1\AppData\Local\Temp\cc33Iuyf.s 			page 84


 779:app_statemachine.c ****     }
 780:app_statemachine.c ****     return 0;                                   /* FATAL: only Ctrl+R (handled in lockout) */
 3756              		.loc 1 780 0
 3757 0034 0023     		movs	r3, #0
 3758              	.L286:
 781:app_statemachine.c **** }
 3759              		.loc 1 781 0
 3760 0036 1846     		mov	r0, r3
 3761 0038 1037     		adds	r7, r7, #16
 3762              		.cfi_def_cfa_offset 8
 3763 003a BD46     		mov	sp, r7
 3764              		.cfi_def_cfa_register 13
 3765              		@ sp needed
 3766 003c 80BD     		pop	{r7, pc}
 3767              		.cfi_endproc
 3768              	.LFE105:
 3769              		.size	key_error_active, .-key_error_active
 3770 003e 00BF     		.section	.text.app_dispatch_key,"ax",%progbits
 3771              		.align	2
 3772              		.global	app_dispatch_key
 3773              		.thumb
 3774              		.thumb_func
 3775              		.type	app_dispatch_key, %function
 3776              	app_dispatch_key:
 3777              	.LFB106:
 782:app_statemachine.c **** 
 783:app_statemachine.c **** /* ---- public entry point ----------------------------------------------- */
 784:app_statemachine.c **** uint8_t app_dispatch_key(app_ctx_t *ctx, char key)
 785:app_statemachine.c **** {
 3778              		.loc 1 785 0
 3779              		.cfi_startproc
 3780              		@ args = 0, pretend = 0, frame = 16
 3781              		@ frame_needed = 1, uses_anonymous_args = 0
 3782 0000 80B5     		push	{r7, lr}
 3783              		.cfi_def_cfa_offset 8
 3784              		.cfi_offset 7, -8
 3785              		.cfi_offset 14, -4
 3786 0002 84B0     		sub	sp, sp, #16
 3787              		.cfi_def_cfa_offset 24
 3788 0004 00AF     		add	r7, sp, #0
 3789              		.cfi_def_cfa_register 7
 3790 0006 7860     		str	r0, [r7, #4]
 3791 0008 0B46     		mov	r3, r1
 3792 000a FB70     		strb	r3, [r7, #3]
 786:app_statemachine.c ****     if (ctx->state >= STATE_COUNT) return 0;          /* Patch 12 guard */
 3793              		.loc 1 786 0
 3794 000c 7B68     		ldr	r3, [r7, #4]
 3795 000e 1B79     		ldrb	r3, [r3, #4]	@ zero_extendqisi2
 3796 0010 0E2B     		cmp	r3, #14
 3797 0012 01D9     		bls	.L288
 3798              		.loc 1 786 0 is_stmt 0 discriminator 1
 3799 0014 0023     		movs	r3, #0
 3800 0016 3DE0     		b	.L289
 3801              	.L288:
 787:app_statemachine.c **** 
 788:app_statemachine.c ****     if (ctx->fatal_latched)                            /* FATAL lockout */
 3802              		.loc 1 788 0 is_stmt 1
ARM GAS  C:\Users\JENNEW~1\AppData\Local\Temp\cc33Iuyf.s 			page 85


 3803 0018 7B68     		ldr	r3, [r7, #4]
 3804 001a 1B7B     		ldrb	r3, [r3, #12]	@ zero_extendqisi2
 3805 001c 002B     		cmp	r3, #0
 3806 001e 0BD0     		beq	.L290
 789:app_statemachine.c ****         return (key == KEY_CTRL_R) ? handle_global_key(ctx, key) : 0;
 3807              		.loc 1 789 0
 3808 0020 FB78     		ldrb	r3, [r7, #3]	@ zero_extendqisi2
 3809 0022 122B     		cmp	r3, #18
 3810 0024 06D1     		bne	.L291
 3811              		.loc 1 789 0 is_stmt 0 discriminator 1
 3812 0026 FB78     		ldrb	r3, [r7, #3]	@ zero_extendqisi2
 3813 0028 1946     		mov	r1, r3
 3814 002a 7868     		ldr	r0, [r7, #4]
 3815 002c FFF7FEFF 		bl	handle_global_key
 3816 0030 0346     		mov	r3, r0
 3817 0032 2FE0     		b	.L289
 3818              	.L291:
 3819              		.loc 1 789 0 discriminator 2
 3820 0034 0023     		movs	r3, #0
 3821 0036 2DE0     		b	.L289
 3822              	.L290:
 790:app_statemachine.c **** 
 791:app_statemachine.c ****     if (handle_global_key(ctx, key)) return 1;         /* k, [, ?, Ctrl+R */
 3823              		.loc 1 791 0 is_stmt 1
 3824 0038 FB78     		ldrb	r3, [r7, #3]	@ zero_extendqisi2
 3825 003a 1946     		mov	r1, r3
 3826 003c 7868     		ldr	r0, [r7, #4]
 3827 003e FFF7FEFF 		bl	handle_global_key
 3828 0042 0346     		mov	r3, r0
 3829 0044 002B     		cmp	r3, #0
 3830 0046 01D0     		beq	.L293
 3831              		.loc 1 791 0 is_stmt 0 discriminator 1
 3832 0048 0123     		movs	r3, #1
 3833 004a 23E0     		b	.L289
 3834              	.L293:
 792:app_statemachine.c **** 
 793:app_statemachine.c ****     key_fn_t f = on_key[ctx->state];
 3835              		.loc 1 793 0 is_stmt 1
 3836 004c 7B68     		ldr	r3, [r7, #4]
 3837 004e 1B79     		ldrb	r3, [r3, #4]	@ zero_extendqisi2
 3838 0050 1A46     		mov	r2, r3
 3839 0052 124B     		ldr	r3, .L296
 3840 0054 53F82230 		ldr	r3, [r3, r2, lsl #2]
 3841 0058 FB60     		str	r3, [r7, #12]
 794:app_statemachine.c ****     if (f && f(ctx, key)) return 1;                    /* leaf keys */
 3842              		.loc 1 794 0
 3843 005a FB68     		ldr	r3, [r7, #12]
 3844 005c 002B     		cmp	r3, #0
 3845 005e 09D0     		beq	.L294
 3846              		.loc 1 794 0 is_stmt 0 discriminator 1
 3847 0060 FA78     		ldrb	r2, [r7, #3]	@ zero_extendqisi2
 3848 0062 FB68     		ldr	r3, [r7, #12]
 3849 0064 1146     		mov	r1, r2
 3850 0066 7868     		ldr	r0, [r7, #4]
 3851 0068 9847     		blx	r3
 3852 006a 0346     		mov	r3, r0
 3853 006c 002B     		cmp	r3, #0
ARM GAS  C:\Users\JENNEW~1\AppData\Local\Temp\cc33Iuyf.s 			page 86


 3854 006e 01D0     		beq	.L294
 3855              		.loc 1 794 0 discriminator 2
 3856 0070 0123     		movs	r3, #1
 3857 0072 0FE0     		b	.L289
 3858              	.L294:
 795:app_statemachine.c **** 
 796:app_statemachine.c ****     if (!leaf_traps_nav(ctx->state))                   /* nav, unless trapped */
 3859              		.loc 1 796 0 is_stmt 1
 3860 0074 7B68     		ldr	r3, [r7, #4]
 3861 0076 1B79     		ldrb	r3, [r3, #4]	@ zero_extendqisi2
 3862 0078 1846     		mov	r0, r3
 3863 007a FFF7FEFF 		bl	leaf_traps_nav
 3864 007e 0346     		mov	r3, r0
 3865 0080 002B     		cmp	r3, #0
 3866 0082 06D1     		bne	.L295
 797:app_statemachine.c ****         return handle_nav_key(ctx, key);
 3867              		.loc 1 797 0
 3868 0084 FB78     		ldrb	r3, [r7, #3]	@ zero_extendqisi2
 3869 0086 1946     		mov	r1, r3
 3870 0088 7868     		ldr	r0, [r7, #4]
 3871 008a FFF7FEFF 		bl	handle_nav_key
 3872 008e 0346     		mov	r3, r0
 3873 0090 00E0     		b	.L289
 3874              	.L295:
 798:app_statemachine.c **** 
 799:app_statemachine.c ****     return 0;
 3875              		.loc 1 799 0
 3876 0092 0023     		movs	r3, #0
 3877              	.L289:
 800:app_statemachine.c **** }
 3878              		.loc 1 800 0
 3879 0094 1846     		mov	r0, r3
 3880 0096 1037     		adds	r7, r7, #16
 3881              		.cfi_def_cfa_offset 8
 3882 0098 BD46     		mov	sp, r7
 3883              		.cfi_def_cfa_register 13
 3884              		@ sp needed
 3885 009a 80BD     		pop	{r7, pc}
 3886              	.L297:
 3887              		.align	2
 3888              	.L296:
 3889 009c 88000000 		.word	on_key
 3890              		.cfi_endproc
 3891              	.LFE106:
 3892              		.size	app_dispatch_key, .-app_dispatch_key
 3893              		.section	.text.build_zero,"ax",%progbits
 3894              		.align	2
 3895              		.thumb
 3896              		.thumb_func
 3897              		.type	build_zero, %function
 3898              	build_zero:
 3899              	.LFB107:
 801:app_statemachine.c **** 
 802:app_statemachine.c **** // %==========================================================================%
 803:app_statemachine.c **** // %                       Gimbal Control Packet                              %
 804:app_statemachine.c **** // %==========================================================================%
 805:app_statemachine.c **** // Initialize empty packet.
ARM GAS  C:\Users\JENNEW~1\AppData\Local\Temp\cc33Iuyf.s 			page 87


 806:app_statemachine.c **** static void build_zero(const app_ctx_t *ctx, hamfly_control_t *out)
 807:app_statemachine.c **** {
 3900              		.loc 1 807 0
 3901              		.cfi_startproc
 3902              		@ args = 0, pretend = 0, frame = 8
 3903              		@ frame_needed = 1, uses_anonymous_args = 0
 3904 0000 80B5     		push	{r7, lr}
 3905              		.cfi_def_cfa_offset 8
 3906              		.cfi_offset 7, -8
 3907              		.cfi_offset 14, -4
 3908 0002 82B0     		sub	sp, sp, #8
 3909              		.cfi_def_cfa_offset 16
 3910 0004 00AF     		add	r7, sp, #0
 3911              		.cfi_def_cfa_register 7
 3912 0006 7860     		str	r0, [r7, #4]
 3913 0008 3960     		str	r1, [r7]
 808:app_statemachine.c ****     (void)ctx;
 809:app_statemachine.c ****     memset(out, 0, sizeof *out);
 3914              		.loc 1 809 0
 3915 000a 1422     		movs	r2, #20
 3916 000c 0021     		movs	r1, #0
 3917 000e 3868     		ldr	r0, [r7]
 3918 0010 FFF7FEFF 		bl	memset
 810:app_statemachine.c **** }
 3919              		.loc 1 810 0
 3920 0014 00BF     		nop
 3921 0016 0837     		adds	r7, r7, #8
 3922              		.cfi_def_cfa_offset 8
 3923 0018 BD46     		mov	sp, r7
 3924              		.cfi_def_cfa_register 13
 3925              		@ sp needed
 3926 001a 80BD     		pop	{r7, pc}
 3927              		.cfi_endproc
 3928              	.LFE107:
 3929              		.size	build_zero, .-build_zero
 3930              		.section	.text.build_stby,"ax",%progbits
 3931              		.align	2
 3932              		.thumb
 3933              		.thumb_func
 3934              		.type	build_stby, %function
 3935              	build_stby:
 3936              	.LFB108:
 811:app_statemachine.c **** // Build packet for STBY states: zero rates, defer mode.
 812:app_statemachine.c **** static void build_stby(const app_ctx_t *ctx, hamfly_control_t *out) {
 3937              		.loc 1 812 0
 3938              		.cfi_startproc
 3939              		@ args = 0, pretend = 0, frame = 8
 3940              		@ frame_needed = 1, uses_anonymous_args = 0
 3941 0000 80B5     		push	{r7, lr}
 3942              		.cfi_def_cfa_offset 8
 3943              		.cfi_offset 7, -8
 3944              		.cfi_offset 14, -4
 3945 0002 82B0     		sub	sp, sp, #8
 3946              		.cfi_def_cfa_offset 16
 3947 0004 00AF     		add	r7, sp, #0
 3948              		.cfi_def_cfa_register 7
 3949 0006 7860     		str	r0, [r7, #4]
ARM GAS  C:\Users\JENNEW~1\AppData\Local\Temp\cc33Iuyf.s 			page 88


 3950 0008 3960     		str	r1, [r7]
 813:app_statemachine.c ****     build_zero(ctx, out);  // DEFERed, and disabled.
 3951              		.loc 1 813 0
 3952 000a 3968     		ldr	r1, [r7]
 3953 000c 7868     		ldr	r0, [r7, #4]
 3954 000e FFF7FEFF 		bl	build_zero
 814:app_statemachine.c **** }
 3955              		.loc 1 814 0
 3956 0012 00BF     		nop
 3957 0014 0837     		adds	r7, r7, #8
 3958              		.cfi_def_cfa_offset 8
 3959 0016 BD46     		mov	sp, r7
 3960              		.cfi_def_cfa_register 13
 3961              		@ sp needed
 3962 0018 80BD     		pop	{r7, pc}
 3963              		.cfi_endproc
 3964              	.LFE108:
 3965              		.size	build_stby, .-build_stby
 3966 001a 00BF     		.section	.text.build_manu_joystick,"ax",%progbits
 3967              		.align	2
 3968              		.thumb
 3969              		.thumb_func
 3970              		.type	build_manu_joystick, %function
 3971              	build_manu_joystick:
 3972              	.LFB109:
 815:app_statemachine.c **** 
 816:app_statemachine.c **** // Build packet from joystick inputs.
 817:app_statemachine.c **** static void build_manu_joystick(const app_ctx_t *ctx, hamfly_control_t *out) {
 3973              		.loc 1 817 0
 3974              		.cfi_startproc
 3975              		@ args = 0, pretend = 0, frame = 8
 3976              		@ frame_needed = 1, uses_anonymous_args = 0
 3977 0000 80B5     		push	{r7, lr}
 3978              		.cfi_def_cfa_offset 8
 3979              		.cfi_offset 7, -8
 3980              		.cfi_offset 14, -4
 3981 0002 82B0     		sub	sp, sp, #8
 3982              		.cfi_def_cfa_offset 16
 3983 0004 00AF     		add	r7, sp, #0
 3984              		.cfi_def_cfa_register 7
 3985 0006 7860     		str	r0, [r7, #4]
 3986 0008 3960     		str	r1, [r7]
 818:app_statemachine.c ****     out->roll_mode = HAMFLY_DEFER;
 3987              		.loc 1 818 0
 3988 000a 3B68     		ldr	r3, [r7]
 3989 000c 0022     		movs	r2, #0
 3990 000e 9A73     		strb	r2, [r3, #14]
 819:app_statemachine.c ****     out->roll      = 0.0f;
 3991              		.loc 1 819 0
 3992 0010 3B68     		ldr	r3, [r7]
 3993 0012 4FF00002 		mov	r2, #0
 3994 0016 9A60     		str	r2, [r3, #8]	@ float
 820:app_statemachine.c ****     out->kill      = 0u;
 3995              		.loc 1 820 0
 3996 0018 3B68     		ldr	r3, [r7]
 3997 001a 0022     		movs	r2, #0
 3998 001c 1A74     		strb	r2, [r3, #16]
ARM GAS  C:\Users\JENNEW~1\AppData\Local\Temp\cc33Iuyf.s 			page 89


 821:app_statemachine.c ****     // Nudge vs joystick control mode
 822:app_statemachine.c ****     if (ctx->nudge_hold) {
 3999              		.loc 1 822 0
 4000 001e 7B68     		ldr	r3, [r7, #4]
 4001 0020 93F87830 		ldrb	r3, [r3, #120]	@ zero_extendqisi2
 4002 0024 002B     		cmp	r3, #0
 4003 0026 25D0     		beq	.L301
 823:app_statemachine.c ****         out->pan_mode = out->tilt_mode = HAMFLY_ABSOLUTE;
 4004              		.loc 1 823 0
 4005 0028 3B68     		ldr	r3, [r7]
 4006 002a 0222     		movs	r2, #2
 4007 002c 5A73     		strb	r2, [r3, #13]
 4008 002e 3B68     		ldr	r3, [r7]
 4009 0030 5A7B     		ldrb	r2, [r3, #13]	@ zero_extendqisi2
 4010 0032 3B68     		ldr	r3, [r7]
 4011 0034 1A73     		strb	r2, [r3, #12]
 824:app_statemachine.c ****         out->pan  = DEG_TO_UNIT(ctx->tgt_pan_deg - ctx->nudge_base_pan_deg); /* pan rebased -> rela
 4012              		.loc 1 824 0
 4013 0036 7B68     		ldr	r3, [r7, #4]
 4014 0038 D3F88820 		ldr	r2, [r3, #136]	@ float
 4015 003c 7B68     		ldr	r3, [r7, #4]
 4016 003e D3F88030 		ldr	r3, [r3, #128]	@ float
 4017 0042 1946     		mov	r1, r3
 4018 0044 1046     		mov	r0, r2
 4019 0046 FFF7FEFF 		bl	__aeabi_fsub
 4020 004a 0346     		mov	r3, r0
 4021 004c 1449     		ldr	r1, .L304
 4022 004e 1846     		mov	r0, r3
 4023 0050 FFF7FEFF 		bl	__aeabi_fdiv
 4024 0054 0346     		mov	r3, r0
 4025 0056 1A46     		mov	r2, r3
 4026 0058 3B68     		ldr	r3, [r7]
 4027 005a 1A60     		str	r2, [r3]	@ float
 825:app_statemachine.c ****         out->tilt = DEG_TO_UNIT(ctx->tgt_tilt_deg);                          /* tilt true-absolute 
 4028              		.loc 1 825 0
 4029 005c 7B68     		ldr	r3, [r7, #4]
 4030 005e D3F88C30 		ldr	r3, [r3, #140]	@ float
 4031 0062 0F49     		ldr	r1, .L304
 4032 0064 1846     		mov	r0, r3
 4033 0066 FFF7FEFF 		bl	__aeabi_fdiv
 4034 006a 0346     		mov	r3, r0
 4035 006c 1A46     		mov	r2, r3
 4036 006e 3B68     		ldr	r3, [r7]
 4037 0070 5A60     		str	r2, [r3, #4]	@ float
 826:app_statemachine.c ****     } else {
 827:app_statemachine.c ****         out->pan_mode = out->tilt_mode = HAMFLY_RATE;
 828:app_statemachine.c ****         out->pan  =  ctx->cmd.u[CH_X];
 829:app_statemachine.c ****         out->tilt = -ctx->cmd.u[CH_Y];
 830:app_statemachine.c ****     }
 831:app_statemachine.c **** 
 832:app_statemachine.c **** }
 4038              		.loc 1 832 0
 4039 0072 10E0     		b	.L303
 4040              	.L301:
 827:app_statemachine.c ****         out->pan  =  ctx->cmd.u[CH_X];
 4041              		.loc 1 827 0
 4042 0074 3B68     		ldr	r3, [r7]
ARM GAS  C:\Users\JENNEW~1\AppData\Local\Temp\cc33Iuyf.s 			page 90


 4043 0076 0122     		movs	r2, #1
 4044 0078 5A73     		strb	r2, [r3, #13]
 4045 007a 3B68     		ldr	r3, [r7]
 4046 007c 5A7B     		ldrb	r2, [r3, #13]	@ zero_extendqisi2
 4047 007e 3B68     		ldr	r3, [r7]
 4048 0080 1A73     		strb	r2, [r3, #12]
 828:app_statemachine.c ****         out->tilt = -ctx->cmd.u[CH_Y];
 4049              		.loc 1 828 0
 4050 0082 7B68     		ldr	r3, [r7, #4]
 4051 0084 9A6E     		ldr	r2, [r3, #104]	@ float
 4052 0086 3B68     		ldr	r3, [r7]
 4053 0088 1A60     		str	r2, [r3]	@ float
 829:app_statemachine.c ****     }
 4054              		.loc 1 829 0
 4055 008a 7B68     		ldr	r3, [r7, #4]
 4056 008c DB6E     		ldr	r3, [r3, #108]	@ float
 4057 008e 83F00042 		eor	r2, r3, #-2147483648
 4058 0092 3B68     		ldr	r3, [r7]
 4059 0094 5A60     		str	r2, [r3, #4]	@ float
 4060              	.L303:
 4061              		.loc 1 832 0
 4062 0096 00BF     		nop
 4063 0098 0837     		adds	r7, r7, #8
 4064              		.cfi_def_cfa_offset 8
 4065 009a BD46     		mov	sp, r7
 4066              		.cfi_def_cfa_register 13
 4067              		@ sp needed
 4068 009c 80BD     		pop	{r7, pc}
 4069              	.L305:
 4070 009e 00BF     		.align	2
 4071              	.L304:
 4072 00a0 00003443 		.word	1127481344
 4073              		.cfi_endproc
 4074              	.LFE109:
 4075              		.size	build_manu_joystick, .-build_manu_joystick
 4076              		.section	.text.build_error,"ax",%progbits
 4077              		.align	2
 4078              		.thumb
 4079              		.thumb_func
 4080              		.type	build_error, %function
 4081              	build_error:
 4082              	.LFB110:
 833:app_statemachine.c **** 
 834:app_statemachine.c **** // Build packet for when in ERROR state
 835:app_statemachine.c **** static void build_error(const app_ctx_t *ctx, hamfly_control_t *out) {
 4083              		.loc 1 835 0
 4084              		.cfi_startproc
 4085              		@ args = 0, pretend = 0, frame = 8
 4086              		@ frame_needed = 1, uses_anonymous_args = 0
 4087 0000 80B5     		push	{r7, lr}
 4088              		.cfi_def_cfa_offset 8
 4089              		.cfi_offset 7, -8
 4090              		.cfi_offset 14, -4
 4091 0002 82B0     		sub	sp, sp, #8
 4092              		.cfi_def_cfa_offset 16
 4093 0004 00AF     		add	r7, sp, #0
 4094              		.cfi_def_cfa_register 7
ARM GAS  C:\Users\JENNEW~1\AppData\Local\Temp\cc33Iuyf.s 			page 91


 4095 0006 7860     		str	r0, [r7, #4]
 4096 0008 3960     		str	r1, [r7]
 836:app_statemachine.c ****     build_zero(ctx, out);
 4097              		.loc 1 836 0
 4098 000a 3968     		ldr	r1, [r7]
 4099 000c 7868     		ldr	r0, [r7, #4]
 4100 000e FFF7FEFF 		bl	build_zero
 837:app_statemachine.c ****     if (ctx->err_sev == SEV_FATAL) out->kill = 1u;
 4101              		.loc 1 837 0
 4102 0012 7B68     		ldr	r3, [r7, #4]
 4103 0014 9B79     		ldrb	r3, [r3, #6]	@ zero_extendqisi2
 4104 0016 032B     		cmp	r3, #3
 4105 0018 02D1     		bne	.L308
 4106              		.loc 1 837 0 is_stmt 0 discriminator 1
 4107 001a 3B68     		ldr	r3, [r7]
 4108 001c 0122     		movs	r2, #1
 4109 001e 1A74     		strb	r2, [r3, #16]
 4110              	.L308:
 838:app_statemachine.c **** }
 4111              		.loc 1 838 0 is_stmt 1
 4112 0020 00BF     		nop
 4113 0022 0837     		adds	r7, r7, #8
 4114              		.cfi_def_cfa_offset 8
 4115 0024 BD46     		mov	sp, r7
 4116              		.cfi_def_cfa_register 13
 4117              		@ sp needed
 4118 0026 80BD     		pop	{r7, pc}
 4119              		.cfi_endproc
 4120              	.LFE110:
 4121              		.size	build_error, .-build_error
 4122              		.section	.text.app_build_control,"ax",%progbits
 4123              		.align	2
 4124              		.global	app_build_control
 4125              		.thumb
 4126              		.thumb_func
 4127              		.type	app_build_control, %function
 4128              	app_build_control:
 4129              	.LFB111:
 839:app_statemachine.c **** 
 840:app_statemachine.c **** 
 841:app_statemachine.c **** // Do build. For states without a build function returns zeroed packet.
 842:app_statemachine.c **** void app_build_control(const app_ctx_t *ctx, hamfly_control_t *out)
 843:app_statemachine.c **** {
 4130              		.loc 1 843 0
 4131              		.cfi_startproc
 4132              		@ args = 0, pretend = 0, frame = 16
 4133              		@ frame_needed = 1, uses_anonymous_args = 0
 4134 0000 80B5     		push	{r7, lr}
 4135              		.cfi_def_cfa_offset 8
 4136              		.cfi_offset 7, -8
 4137              		.cfi_offset 14, -4
 4138 0002 84B0     		sub	sp, sp, #16
 4139              		.cfi_def_cfa_offset 24
 4140 0004 00AF     		add	r7, sp, #0
 4141              		.cfi_def_cfa_register 7
 4142 0006 7860     		str	r0, [r7, #4]
 4143 0008 3960     		str	r1, [r7]
ARM GAS  C:\Users\JENNEW~1\AppData\Local\Temp\cc33Iuyf.s 			page 92


 844:app_statemachine.c ****     build_fn_t f = on_build[ctx->state];
 4144              		.loc 1 844 0
 4145 000a 7B68     		ldr	r3, [r7, #4]
 4146 000c 1B79     		ldrb	r3, [r3, #4]	@ zero_extendqisi2
 4147 000e 1A46     		mov	r2, r3
 4148 0010 094B     		ldr	r3, .L313
 4149 0012 53F82230 		ldr	r3, [r3, r2, lsl #2]
 4150 0016 FB60     		str	r3, [r7, #12]
 845:app_statemachine.c ****     if (f)  f(ctx, out);
 4151              		.loc 1 845 0
 4152 0018 FB68     		ldr	r3, [r7, #12]
 4153 001a 002B     		cmp	r3, #0
 4154 001c 04D0     		beq	.L310
 4155              		.loc 1 845 0 is_stmt 0 discriminator 1
 4156 001e FB68     		ldr	r3, [r7, #12]
 4157 0020 3968     		ldr	r1, [r7]
 4158 0022 7868     		ldr	r0, [r7, #4]
 4159 0024 9847     		blx	r3
 846:app_statemachine.c ****     else    build_zero(ctx, out);  // Safe default.
 847:app_statemachine.c **** }
 4160              		.loc 1 847 0 is_stmt 1 discriminator 1
 4161 0026 03E0     		b	.L312
 4162              	.L310:
 846:app_statemachine.c ****     else    build_zero(ctx, out);  // Safe default.
 4163              		.loc 1 846 0
 4164 0028 3968     		ldr	r1, [r7]
 4165 002a 7868     		ldr	r0, [r7, #4]
 4166 002c FFF7FEFF 		bl	build_zero
 4167              	.L312:
 4168              		.loc 1 847 0
 4169 0030 00BF     		nop
 4170 0032 1037     		adds	r7, r7, #16
 4171              		.cfi_def_cfa_offset 8
 4172 0034 BD46     		mov	sp, r7
 4173              		.cfi_def_cfa_register 13
 4174              		@ sp needed
 4175 0036 80BD     		pop	{r7, pc}
 4176              	.L314:
 4177              		.align	2
 4178              	.L313:
 4179 0038 C4000000 		.word	on_build
 4180              		.cfi_endproc
 4181              	.LFE111:
 4182              		.size	app_build_control, .-app_build_control
 4183              		.section	.rodata
 4184 065b 00       		.align	2
 4185              	.LC47:
 4186 065c 6E6F2074 		.ascii	"no telemetry (nudge ignored).\000"
 4186      656C656D 
 4186      65747279 
 4186      20286E75 
 4186      64676520 
 4187 067a 0000     		.align	2
 4188              	.LC48:
 4189 067c 4E756467 		.ascii	"Nudging!\015\012\000"
 4189      696E6721 
 4189      0D0A00
ARM GAS  C:\Users\JENNEW~1\AppData\Local\Temp\cc33Iuyf.s 			page 93


 4190              		.section	.text.nudge_apply,"ax",%progbits
 4191              		.align	2
 4192              		.thumb
 4193              		.thumb_func
 4194              		.type	nudge_apply, %function
 4195              	nudge_apply:
 4196              	.LFB112:
 848:app_statemachine.c **** 
 849:app_statemachine.c **** // TEMP: Nudge handler
 850:app_statemachine.c **** static void nudge_apply(app_ctx_t *ctx, float dpan_deg, float dtilt_deg)
 851:app_statemachine.c **** {
 4197              		.loc 1 851 0
 4198              		.cfi_startproc
 4199              		@ args = 0, pretend = 0, frame = 24
 4200              		@ frame_needed = 1, uses_anonymous_args = 0
 4201 0000 90B5     		push	{r4, r7, lr}
 4202              		.cfi_def_cfa_offset 12
 4203              		.cfi_offset 4, -12
 4204              		.cfi_offset 7, -8
 4205              		.cfi_offset 14, -4
 4206 0002 87B0     		sub	sp, sp, #28
 4207              		.cfi_def_cfa_offset 40
 4208 0004 00AF     		add	r7, sp, #0
 4209              		.cfi_def_cfa_register 7
 4210 0006 F860     		str	r0, [r7, #12]
 4211 0008 B960     		str	r1, [r7, #8]	@ float
 4212 000a 7A60     		str	r2, [r7, #4]	@ float
 852:app_statemachine.c ****     if (!ctx->nudge_hold) {// Capture nudge baseline
 4213              		.loc 1 852 0
 4214 000c FB68     		ldr	r3, [r7, #12]
 4215 000e 93F87830 		ldrb	r3, [r3, #120]	@ zero_extendqisi2
 4216 0012 002B     		cmp	r3, #0
 4217 0014 27D1     		bne	.L316
 4218              	.LBB13:
 853:app_statemachine.c ****         float p, t;
 854:app_statemachine.c ****         if (!gimbal_pan_tilt_deg(ctx, &p, &t)) {
 4219              		.loc 1 854 0
 4220 0016 07F11002 		add	r2, r7, #16
 4221 001a 07F11403 		add	r3, r7, #20
 4222 001e 1946     		mov	r1, r3
 4223 0020 F868     		ldr	r0, [r7, #12]
 4224 0022 FFF7FEFF 		bl	gimbal_pan_tilt_deg
 4225 0026 0346     		mov	r3, r0
 4226 0028 002B     		cmp	r3, #0
 4227 002a 05D1     		bne	.L317
 855:app_statemachine.c ****             app_raise_error(ctx, SEV_USER, "no telemetry (nudge ignored).");
 4228              		.loc 1 855 0
 4229 002c 5D4A     		ldr	r2, .L339
 4230 002e 0021     		movs	r1, #0
 4231 0030 F868     		ldr	r0, [r7, #12]
 4232 0032 FFF7FEFF 		bl	app_raise_error
 4233 0036 B2E0     		b	.L315
 4234              	.L317:
 856:app_statemachine.c ****             return;
 857:app_statemachine.c ****         }
 858:app_statemachine.c ****         UART_DEBUG_PutString("Nudging!\r\n");  // TODO: Verbose nudge print
 4235              		.loc 1 858 0
ARM GAS  C:\Users\JENNEW~1\AppData\Local\Temp\cc33Iuyf.s 			page 94


 4236 0038 5B48     		ldr	r0, .L339+4
 4237 003a FFF7FEFF 		bl	UART_DEBUG_PutString
 859:app_statemachine.c ****         ctx->nudge_base_pan_deg  = p;
 4238              		.loc 1 859 0
 4239 003e 7A69     		ldr	r2, [r7, #20]	@ float
 4240 0040 FB68     		ldr	r3, [r7, #12]
 4241 0042 C3F88020 		str	r2, [r3, #128]	@ float
 860:app_statemachine.c ****         ctx->nudge_base_tilt_deg = t;
 4242              		.loc 1 860 0
 4243 0046 3A69     		ldr	r2, [r7, #16]	@ float
 4244 0048 FB68     		ldr	r3, [r7, #12]
 4245 004a C3F88420 		str	r2, [r3, #132]	@ float
 861:app_statemachine.c ****         ctx->tgt_pan_deg  = p;
 4246              		.loc 1 861 0
 4247 004e 7A69     		ldr	r2, [r7, #20]	@ float
 4248 0050 FB68     		ldr	r3, [r7, #12]
 4249 0052 C3F88820 		str	r2, [r3, #136]	@ float
 862:app_statemachine.c ****         ctx->tgt_tilt_deg = t;
 4250              		.loc 1 862 0
 4251 0056 3A69     		ldr	r2, [r7, #16]	@ float
 4252 0058 FB68     		ldr	r3, [r7, #12]
 4253 005a C3F88C20 		str	r2, [r3, #140]	@ float
 863:app_statemachine.c ****         ctx->nudge_hold = 1u;
 4254              		.loc 1 863 0
 4255 005e FB68     		ldr	r3, [r7, #12]
 4256 0060 0122     		movs	r2, #1
 4257 0062 83F87820 		strb	r2, [r3, #120]
 4258              	.L316:
 4259              	.LBE13:
 864:app_statemachine.c ****     }
 865:app_statemachine.c ****     ctx->tgt_pan_deg  = CLAMP(ctx->tgt_pan_deg  + dpan_deg,
 4260              		.loc 1 865 0
 4261 0066 FB68     		ldr	r3, [r7, #12]
 4262 0068 D3F88830 		ldr	r3, [r3, #136]	@ float
 4263 006c B968     		ldr	r1, [r7, #8]	@ float
 4264 006e 1846     		mov	r0, r3
 4265 0070 FFF7FEFF 		bl	__aeabi_fadd
 4266 0074 0346     		mov	r3, r0
 4267 0076 1C46     		mov	r4, r3
 4268 0078 FB68     		ldr	r3, [r7, #12]
 4269 007a DB6C     		ldr	r3, [r3, #76]	@ float
 4270 007c 4B49     		ldr	r1, .L339+8
 4271 007e 1846     		mov	r0, r3
 4272 0080 FFF7FEFF 		bl	__aeabi_fsub
 4273 0084 0346     		mov	r3, r0
 4274 0086 1946     		mov	r1, r3
 4275 0088 2046     		mov	r0, r4
 4276 008a FFF7FEFF 		bl	__aeabi_fcmplt
 4277 008e 0346     		mov	r3, r0
 4278 0090 002B     		cmp	r3, #0
 4279 0092 08D0     		beq	.L335
 4280              		.loc 1 865 0 is_stmt 0 discriminator 1
 4281 0094 FB68     		ldr	r3, [r7, #12]
 4282 0096 DB6C     		ldr	r3, [r3, #76]	@ float
 4283 0098 4449     		ldr	r1, .L339+8
 4284 009a 1846     		mov	r0, r3
 4285 009c FFF7FEFF 		bl	__aeabi_fsub
ARM GAS  C:\Users\JENNEW~1\AppData\Local\Temp\cc33Iuyf.s 			page 95


 4286 00a0 0346     		mov	r3, r0
 4287 00a2 1A46     		mov	r2, r3
 4288 00a4 28E0     		b	.L321
 4289              	.L335:
 4290              		.loc 1 865 0 discriminator 2
 4291 00a6 FB68     		ldr	r3, [r7, #12]
 4292 00a8 D3F88830 		ldr	r3, [r3, #136]	@ float
 4293 00ac B968     		ldr	r1, [r7, #8]	@ float
 4294 00ae 1846     		mov	r0, r3
 4295 00b0 FFF7FEFF 		bl	__aeabi_fadd
 4296 00b4 0346     		mov	r3, r0
 4297 00b6 1C46     		mov	r4, r3
 4298 00b8 FB68     		ldr	r3, [r7, #12]
 4299 00ba DB6C     		ldr	r3, [r3, #76]	@ float
 4300 00bc 3B49     		ldr	r1, .L339+8
 4301 00be 1846     		mov	r0, r3
 4302 00c0 FFF7FEFF 		bl	__aeabi_fadd
 4303 00c4 0346     		mov	r3, r0
 4304 00c6 1946     		mov	r1, r3
 4305 00c8 2046     		mov	r0, r4
 4306 00ca FFF7FEFF 		bl	__aeabi_fcmpgt
 4307 00ce 0346     		mov	r3, r0
 4308 00d0 002B     		cmp	r3, #0
 4309 00d2 08D0     		beq	.L336
 4310              		.loc 1 865 0 discriminator 4
 4311 00d4 FB68     		ldr	r3, [r7, #12]
 4312 00d6 DB6C     		ldr	r3, [r3, #76]	@ float
 4313 00d8 3449     		ldr	r1, .L339+8
 4314 00da 1846     		mov	r0, r3
 4315 00dc FFF7FEFF 		bl	__aeabi_fadd
 4316 00e0 0346     		mov	r3, r0
 4317 00e2 1A46     		mov	r2, r3
 4318 00e4 08E0     		b	.L321
 4319              	.L336:
 4320              		.loc 1 865 0 discriminator 5
 4321 00e6 FB68     		ldr	r3, [r7, #12]
 4322 00e8 D3F88830 		ldr	r3, [r3, #136]	@ float
 4323 00ec B968     		ldr	r1, [r7, #8]	@ float
 4324 00ee 1846     		mov	r0, r3
 4325 00f0 FFF7FEFF 		bl	__aeabi_fadd
 4326 00f4 0346     		mov	r3, r0
 4327 00f6 1A46     		mov	r2, r3
 4328              	.L321:
 4329              		.loc 1 865 0 discriminator 8
 4330 00f8 FB68     		ldr	r3, [r7, #12]
 4331 00fa C3F88820 		str	r2, [r3, #136]	@ float
 866:app_statemachine.c ****                               ctx->origin_pan_deg  + LIMIT_PAN_MIN_DEG,
 867:app_statemachine.c ****                               ctx->origin_pan_deg  + LIMIT_PAN_MAX_DEG);
 868:app_statemachine.c ****     ctx->tgt_tilt_deg = CLAMP(ctx->tgt_tilt_deg + dtilt_deg,
 4332              		.loc 1 868 0 is_stmt 1 discriminator 8
 4333 00fe FB68     		ldr	r3, [r7, #12]
 4334 0100 D3F88C30 		ldr	r3, [r3, #140]	@ float
 4335 0104 7968     		ldr	r1, [r7, #4]	@ float
 4336 0106 1846     		mov	r0, r3
 4337 0108 FFF7FEFF 		bl	__aeabi_fadd
 4338 010c 0346     		mov	r3, r0
 4339 010e 1C46     		mov	r4, r3
ARM GAS  C:\Users\JENNEW~1\AppData\Local\Temp\cc33Iuyf.s 			page 96


 4340 0110 FB68     		ldr	r3, [r7, #12]
 4341 0112 1B6D     		ldr	r3, [r3, #80]	@ float
 4342 0114 2649     		ldr	r1, .L339+12
 4343 0116 1846     		mov	r0, r3
 4344 0118 FFF7FEFF 		bl	__aeabi_fsub
 4345 011c 0346     		mov	r3, r0
 4346 011e 1946     		mov	r1, r3
 4347 0120 2046     		mov	r0, r4
 4348 0122 FFF7FEFF 		bl	__aeabi_fcmplt
 4349 0126 0346     		mov	r3, r0
 4350 0128 002B     		cmp	r3, #0
 4351 012a 08D0     		beq	.L337
 4352              		.loc 1 868 0 is_stmt 0 discriminator 1
 4353 012c FB68     		ldr	r3, [r7, #12]
 4354 012e 1B6D     		ldr	r3, [r3, #80]	@ float
 4355 0130 1F49     		ldr	r1, .L339+12
 4356 0132 1846     		mov	r0, r3
 4357 0134 FFF7FEFF 		bl	__aeabi_fsub
 4358 0138 0346     		mov	r3, r0
 4359 013a 1A46     		mov	r2, r3
 4360 013c 28E0     		b	.L327
 4361              	.L337:
 4362              		.loc 1 868 0 discriminator 2
 4363 013e FB68     		ldr	r3, [r7, #12]
 4364 0140 D3F88C30 		ldr	r3, [r3, #140]	@ float
 4365 0144 7968     		ldr	r1, [r7, #4]	@ float
 4366 0146 1846     		mov	r0, r3
 4367 0148 FFF7FEFF 		bl	__aeabi_fadd
 4368 014c 0346     		mov	r3, r0
 4369 014e 1C46     		mov	r4, r3
 4370 0150 FB68     		ldr	r3, [r7, #12]
 4371 0152 1B6D     		ldr	r3, [r3, #80]	@ float
 4372 0154 1649     		ldr	r1, .L339+12
 4373 0156 1846     		mov	r0, r3
 4374 0158 FFF7FEFF 		bl	__aeabi_fadd
 4375 015c 0346     		mov	r3, r0
 4376 015e 1946     		mov	r1, r3
 4377 0160 2046     		mov	r0, r4
 4378 0162 FFF7FEFF 		bl	__aeabi_fcmpgt
 4379 0166 0346     		mov	r3, r0
 4380 0168 002B     		cmp	r3, #0
 4381 016a 08D0     		beq	.L338
 4382              		.loc 1 868 0 discriminator 4
 4383 016c FB68     		ldr	r3, [r7, #12]
 4384 016e 1B6D     		ldr	r3, [r3, #80]	@ float
 4385 0170 0F49     		ldr	r1, .L339+12
 4386 0172 1846     		mov	r0, r3
 4387 0174 FFF7FEFF 		bl	__aeabi_fadd
 4388 0178 0346     		mov	r3, r0
 4389 017a 1A46     		mov	r2, r3
 4390 017c 08E0     		b	.L327
 4391              	.L338:
 4392              		.loc 1 868 0 discriminator 5
 4393 017e FB68     		ldr	r3, [r7, #12]
 4394 0180 D3F88C30 		ldr	r3, [r3, #140]	@ float
 4395 0184 7968     		ldr	r1, [r7, #4]	@ float
 4396 0186 1846     		mov	r0, r3
ARM GAS  C:\Users\JENNEW~1\AppData\Local\Temp\cc33Iuyf.s 			page 97


 4397 0188 FFF7FEFF 		bl	__aeabi_fadd
 4398 018c 0346     		mov	r3, r0
 4399 018e 1A46     		mov	r2, r3
 4400              	.L327:
 4401              		.loc 1 868 0 discriminator 8
 4402 0190 FB68     		ldr	r3, [r7, #12]
 4403 0192 C3F88C20 		str	r2, [r3, #140]	@ float
 869:app_statemachine.c ****                               ctx->origin_tilt_deg + LIMIT_TILT_MIN_DEG,
 870:app_statemachine.c ****                               ctx->origin_tilt_deg + LIMIT_TILT_MAX_DEG);
 871:app_statemachine.c ****     ctx->nudge_start_ms = g_tick_ms;  // Restart the dwell timer
 4404              		.loc 1 871 0 is_stmt 1 discriminator 8
 4405 0196 074B     		ldr	r3, .L339+16
 4406 0198 1A68     		ldr	r2, [r3]
 4407 019a FB68     		ldr	r3, [r7, #12]
 4408 019c DA67     		str	r2, [r3, #124]
 4409              	.L315:
 872:app_statemachine.c **** }
 4410              		.loc 1 872 0
 4411 019e 1C37     		adds	r7, r7, #28
 4412              		.cfi_def_cfa_offset 12
 4413 01a0 BD46     		mov	sp, r7
 4414              		.cfi_def_cfa_register 13
 4415              		@ sp needed
 4416 01a2 90BD     		pop	{r4, r7, pc}
 4417              	.L340:
 4418              		.align	2
 4419              	.L339:
 4420 01a4 5C060000 		.word	.LC47
 4421 01a8 7C060000 		.word	.LC48
 4422 01ac 0000F041 		.word	1106247680
 4423 01b0 0000A041 		.word	1101004800
 4424 01b4 00000000 		.word	g_tick_ms
 4425              		.cfi_endproc
 4426              	.LFE112:
 4427              		.size	nudge_apply, .-nudge_apply
 4428              		.section	.text.key_manu_joystick,"ax",%progbits
 4429              		.align	2
 4430              		.thumb
 4431              		.thumb_func
 4432              		.type	key_manu_joystick, %function
 4433              	key_manu_joystick:
 4434              	.LFB113:
 873:app_statemachine.c **** 
 874:app_statemachine.c **** static uint8_t key_manu_joystick(app_ctx_t *ctx, char k)
 875:app_statemachine.c **** {
 4435              		.loc 1 875 0
 4436              		.cfi_startproc
 4437              		@ args = 0, pretend = 0, frame = 8
 4438              		@ frame_needed = 1, uses_anonymous_args = 0
 4439 0000 80B5     		push	{r7, lr}
 4440              		.cfi_def_cfa_offset 8
 4441              		.cfi_offset 7, -8
 4442              		.cfi_offset 14, -4
 4443 0002 82B0     		sub	sp, sp, #8
 4444              		.cfi_def_cfa_offset 16
 4445 0004 00AF     		add	r7, sp, #0
 4446              		.cfi_def_cfa_register 7
ARM GAS  C:\Users\JENNEW~1\AppData\Local\Temp\cc33Iuyf.s 			page 98


 4447 0006 7860     		str	r0, [r7, #4]
 4448 0008 0B46     		mov	r3, r1
 4449 000a FB70     		strb	r3, [r7, #3]
 876:app_statemachine.c ****     switch (k) {
 4450              		.loc 1 876 0
 4451 000c FB78     		ldrb	r3, [r7, #3]	@ zero_extendqisi2
 4452 000e 323B     		subs	r3, r3, #50
 4453 0010 452B     		cmp	r3, #69
 4454 0012 00F2FB80 		bhi	.L342
 4455 0016 01A2     		adr	r2, .L344
 4456 0018 52F823F0 		ldr	pc, [r2, r3, lsl #2]
 4457              		.p2align 2
 4458              	.L344:
 4459 001c 45010000 		.word	.L343+1
 4460 0020 0D020000 		.word	.L342+1
 4461 0024 55010000 		.word	.L345+1
 4462 0028 0D020000 		.word	.L342+1
 4463 002c 65010000 		.word	.L346+1
 4464 0030 0D020000 		.word	.L342+1
 4465 0034 35010000 		.word	.L347+1
 4466 0038 0D020000 		.word	.L342+1
 4467 003c 0D020000 		.word	.L342+1
 4468 0040 0D020000 		.word	.L342+1
 4469 0044 0D020000 		.word	.L342+1
 4470 0048 0D020000 		.word	.L342+1
 4471 004c 0D020000 		.word	.L342+1
 4472 0050 0D020000 		.word	.L342+1
 4473 0054 0D020000 		.word	.L342+1
 4474 0058 0D020000 		.word	.L342+1
 4475 005c 0D020000 		.word	.L342+1
 4476 0060 0D020000 		.word	.L342+1
 4477 0064 0D020000 		.word	.L342+1
 4478 0068 0D020000 		.word	.L342+1
 4479 006c 0D020000 		.word	.L342+1
 4480 0070 0D020000 		.word	.L342+1
 4481 0074 0D020000 		.word	.L342+1
 4482 0078 0D020000 		.word	.L342+1
 4483 007c 0D020000 		.word	.L342+1
 4484 0080 0D020000 		.word	.L342+1
 4485 0084 0D020000 		.word	.L342+1
 4486 0088 0D020000 		.word	.L342+1
 4487 008c 0D020000 		.word	.L342+1
 4488 0090 0D020000 		.word	.L342+1
 4489 0094 0D020000 		.word	.L342+1
 4490 0098 0D020000 		.word	.L342+1
 4491 009c 0D020000 		.word	.L342+1
 4492 00a0 0D020000 		.word	.L342+1
 4493 00a4 0D020000 		.word	.L342+1
 4494 00a8 0D020000 		.word	.L342+1
 4495 00ac 0D020000 		.word	.L342+1
 4496 00b0 0D020000 		.word	.L342+1
 4497 00b4 0D020000 		.word	.L342+1
 4498 00b8 0D020000 		.word	.L342+1
 4499 00bc 0D020000 		.word	.L342+1
 4500 00c0 0D020000 		.word	.L342+1
 4501 00c4 0D020000 		.word	.L342+1
 4502 00c8 0D020000 		.word	.L342+1
ARM GAS  C:\Users\JENNEW~1\AppData\Local\Temp\cc33Iuyf.s 			page 99


 4503 00cc 0D020000 		.word	.L342+1
 4504 00d0 0D020000 		.word	.L342+1
 4505 00d4 0D020000 		.word	.L342+1
 4506 00d8 DF010000 		.word	.L348+1
 4507 00dc 0D020000 		.word	.L342+1
 4508 00e0 0D020000 		.word	.L342+1
 4509 00e4 EF010000 		.word	.L349+1
 4510 00e8 01020000 		.word	.L350+1
 4511 00ec 0D020000 		.word	.L342+1
 4512 00f0 0D020000 		.word	.L342+1
 4513 00f4 0D020000 		.word	.L342+1
 4514 00f8 75010000 		.word	.L351+1
 4515 00fc 99010000 		.word	.L352+1
 4516 0100 87010000 		.word	.L353+1
 4517 0104 AB010000 		.word	.L354+1
 4518 0108 0D020000 		.word	.L342+1
 4519 010c 0D020000 		.word	.L342+1
 4520 0110 0D020000 		.word	.L342+1
 4521 0114 0D020000 		.word	.L342+1
 4522 0118 0D020000 		.word	.L342+1
 4523 011c 0D020000 		.word	.L342+1
 4524 0120 CF010000 		.word	.L355+1
 4525 0124 0D020000 		.word	.L342+1
 4526 0128 0D020000 		.word	.L342+1
 4527 012c 0D020000 		.word	.L342+1
 4528 0130 BD010000 		.word	.L356+1
 4529              		.p2align 1
 4530              	.L347:
 877:app_statemachine.c ****         case '8': nudge_apply(ctx, 0,    +NUDGE_LSB_DEG);  return 1;  // Numpad
 4531              		.loc 1 877 0
 4532 0134 384A     		ldr	r2, .L358
 4533 0136 4FF00001 		mov	r1, #0
 4534 013a 7868     		ldr	r0, [r7, #4]
 4535 013c FFF7FEFF 		bl	nudge_apply
 4536 0140 0123     		movs	r3, #1
 4537 0142 64E0     		b	.L357
 4538              	.L343:
 878:app_statemachine.c ****         case '2': nudge_apply(ctx, 0,    -NUDGE_LSB_DEG);  return 1;  // Numpad
 4539              		.loc 1 878 0
 4540 0144 354A     		ldr	r2, .L358+4
 4541 0146 4FF00001 		mov	r1, #0
 4542 014a 7868     		ldr	r0, [r7, #4]
 4543 014c FFF7FEFF 		bl	nudge_apply
 4544 0150 0123     		movs	r3, #1
 4545 0152 5CE0     		b	.L357
 4546              	.L345:
 879:app_statemachine.c ****         case '4': nudge_apply(ctx, -NUDGE_LSB_DEG,    0);  return 1;  // Numpad
 4547              		.loc 1 879 0
 4548 0154 4FF00002 		mov	r2, #0
 4549 0158 3049     		ldr	r1, .L358+4
 4550 015a 7868     		ldr	r0, [r7, #4]
 4551 015c FFF7FEFF 		bl	nudge_apply
 4552 0160 0123     		movs	r3, #1
 4553 0162 54E0     		b	.L357
 4554              	.L346:
 880:app_statemachine.c ****         case '6': nudge_apply(ctx, +NUDGE_LSB_DEG,    0);  return 1;  // Numpad
 4555              		.loc 1 880 0
ARM GAS  C:\Users\JENNEW~1\AppData\Local\Temp\cc33Iuyf.s 			page 100


 4556 0164 4FF00002 		mov	r2, #0
 4557 0168 2B49     		ldr	r1, .L358
 4558 016a 7868     		ldr	r0, [r7, #4]
 4559 016c FFF7FEFF 		bl	nudge_apply
 4560 0170 0123     		movs	r3, #1
 4561 0172 4CE0     		b	.L357
 4562              	.L351:
 881:app_statemachine.c **** 
 882:app_statemachine.c ****         case 'i': nudge_apply(ctx, 0,    +NUDGE_FINE_DEG);   return 1;  // ijkl
 4563              		.loc 1 882 0
 4564 0174 4FF07C52 		mov	r2, #1056964608
 4565 0178 4FF00001 		mov	r1, #0
 4566 017c 7868     		ldr	r0, [r7, #4]
 4567 017e FFF7FEFF 		bl	nudge_apply
 4568 0182 0123     		movs	r3, #1
 4569 0184 43E0     		b	.L357
 4570              	.L353:
 883:app_statemachine.c ****         case 'k': nudge_apply(ctx, 0,    -NUDGE_FINE_DEG);   return 1;  // ijkl
 4571              		.loc 1 883 0
 4572 0186 4FF03F42 		mov	r2, #-1090519040
 4573 018a 4FF00001 		mov	r1, #0
 4574 018e 7868     		ldr	r0, [r7, #4]
 4575 0190 FFF7FEFF 		bl	nudge_apply
 4576 0194 0123     		movs	r3, #1
 4577 0196 3AE0     		b	.L357
 4578              	.L352:
 884:app_statemachine.c ****         case 'j': nudge_apply(ctx, -NUDGE_FINE_DEG,   0);    return 1;  // ijkl
 4579              		.loc 1 884 0
 4580 0198 4FF00002 		mov	r2, #0
 4581 019c 4FF03F41 		mov	r1, #-1090519040
 4582 01a0 7868     		ldr	r0, [r7, #4]
 4583 01a2 FFF7FEFF 		bl	nudge_apply
 4584 01a6 0123     		movs	r3, #1
 4585 01a8 31E0     		b	.L357
 4586              	.L354:
 885:app_statemachine.c ****         case 'l': nudge_apply(ctx, +NUDGE_FINE_DEG,   0);    return 1;  // ijkl
 4587              		.loc 1 885 0
 4588 01aa 4FF00002 		mov	r2, #0
 4589 01ae 4FF07C51 		mov	r1, #1056964608
 4590 01b2 7868     		ldr	r0, [r7, #4]
 4591 01b4 FFF7FEFF 		bl	nudge_apply
 4592 01b8 0123     		movs	r3, #1
 4593 01ba 28E0     		b	.L357
 4594              	.L356:
 886:app_statemachine.c **** 
 887:app_statemachine.c ****         case 'w': nudge_apply(ctx, 0,    +NUDGE_COARSE_DEG); return 1;  // wasd
 4595              		.loc 1 887 0
 4596 01bc 4FF07E52 		mov	r2, #1065353216
 4597 01c0 4FF00001 		mov	r1, #0
 4598 01c4 7868     		ldr	r0, [r7, #4]
 4599 01c6 FFF7FEFF 		bl	nudge_apply
 4600 01ca 0123     		movs	r3, #1
 4601 01cc 1FE0     		b	.L357
 4602              	.L355:
 888:app_statemachine.c ****         case 's': nudge_apply(ctx, 0,    -NUDGE_COARSE_DEG); return 1;  // wasd
 4603              		.loc 1 888 0
 4604 01ce 144A     		ldr	r2, .L358+8
ARM GAS  C:\Users\JENNEW~1\AppData\Local\Temp\cc33Iuyf.s 			page 101


 4605 01d0 4FF00001 		mov	r1, #0
 4606 01d4 7868     		ldr	r0, [r7, #4]
 4607 01d6 FFF7FEFF 		bl	nudge_apply
 4608 01da 0123     		movs	r3, #1
 4609 01dc 17E0     		b	.L357
 4610              	.L348:
 889:app_statemachine.c ****         case 'a': nudge_apply(ctx, -NUDGE_COARSE_DEG, 0);    return 1;  // wasd
 4611              		.loc 1 889 0
 4612 01de 4FF00002 		mov	r2, #0
 4613 01e2 0F49     		ldr	r1, .L358+8
 4614 01e4 7868     		ldr	r0, [r7, #4]
 4615 01e6 FFF7FEFF 		bl	nudge_apply
 4616 01ea 0123     		movs	r3, #1
 4617 01ec 0FE0     		b	.L357
 4618              	.L349:
 890:app_statemachine.c ****         case 'd': nudge_apply(ctx, +NUDGE_COARSE_DEG, 0);    return 1;  // wasd
 4619              		.loc 1 890 0
 4620 01ee 4FF00002 		mov	r2, #0
 4621 01f2 4FF07E51 		mov	r1, #1065353216
 4622 01f6 7868     		ldr	r0, [r7, #4]
 4623 01f8 FFF7FEFF 		bl	nudge_apply
 4624 01fc 0123     		movs	r3, #1
 4625 01fe 06E0     		b	.L357
 4626              	.L350:
 891:app_statemachine.c ****         case 'e': transition(ctx, STBY_HOLD);                return 1;  // Exit
 4627              		.loc 1 891 0
 4628 0200 0621     		movs	r1, #6
 4629 0202 7868     		ldr	r0, [r7, #4]
 4630 0204 FFF7FEFF 		bl	transition
 4631 0208 0123     		movs	r3, #1
 4632 020a 00E0     		b	.L357
 4633              	.L342:
 892:app_statemachine.c ****         default:  return 0;
 4634              		.loc 1 892 0
 4635 020c 0023     		movs	r3, #0
 4636              	.L357:
 893:app_statemachine.c ****     }
 894:app_statemachine.c **** }
 4637              		.loc 1 894 0
 4638 020e 1846     		mov	r0, r3
 4639 0210 0837     		adds	r7, r7, #8
 4640              		.cfi_def_cfa_offset 8
 4641 0212 BD46     		mov	sp, r7
 4642              		.cfi_def_cfa_register 13
 4643              		@ sp needed
 4644 0214 80BD     		pop	{r7, pc}
 4645              	.L359:
 4646 0216 00BF     		.align	2
 4647              	.L358:
 4648 0218 6801B43B 		.word	1001652584
 4649 021c 6801B4BB 		.word	-1145831064
 4650 0220 000080BF 		.word	-1082130432
 4651              		.cfi_endproc
 4652              	.LFE113:
 4653              		.size	key_manu_joystick, .-key_manu_joystick
 4654              		.section	.text.app_manual_tick,"ax",%progbits
 4655              		.align	2
ARM GAS  C:\Users\JENNEW~1\AppData\Local\Temp\cc33Iuyf.s 			page 102


 4656              		.global	app_manual_tick
 4657              		.thumb
 4658              		.thumb_func
 4659              		.type	app_manual_tick, %function
 4660              	app_manual_tick:
 4661              	.LFB114:
 895:app_statemachine.c **** 
 896:app_statemachine.c **** // TEMP: Manual tick for nudge
 897:app_statemachine.c **** void app_manual_tick(app_ctx_t *ctx)
 898:app_statemachine.c **** {
 4662              		.loc 1 898 0
 4663              		.cfi_startproc
 4664              		@ args = 0, pretend = 0, frame = 24
 4665              		@ frame_needed = 1, uses_anonymous_args = 0
 4666 0000 80B5     		push	{r7, lr}
 4667              		.cfi_def_cfa_offset 8
 4668              		.cfi_offset 7, -8
 4669              		.cfi_offset 14, -4
 4670 0002 86B0     		sub	sp, sp, #24
 4671              		.cfi_def_cfa_offset 32
 4672 0004 00AF     		add	r7, sp, #0
 4673              		.cfi_def_cfa_register 7
 4674 0006 7860     		str	r0, [r7, #4]
 899:app_statemachine.c ****     if (ctx->state != MANU_JOYSTICK || !ctx->nudge_hold) return;
 4675              		.loc 1 899 0
 4676 0008 7B68     		ldr	r3, [r7, #4]
 4677 000a 1B79     		ldrb	r3, [r3, #4]	@ zero_extendqisi2
 4678 000c 072B     		cmp	r3, #7
 4679 000e 4ED1     		bne	.L375
 4680              		.loc 1 899 0 is_stmt 0 discriminator 1
 4681 0010 7B68     		ldr	r3, [r7, #4]
 4682 0012 93F87830 		ldrb	r3, [r3, #120]	@ zero_extendqisi2
 4683 0016 002B     		cmp	r3, #0
 4684 0018 49D0     		beq	.L375
 900:app_statemachine.c ****     uint32_t elapsed = g_tick_ms - ctx->nudge_start_ms;
 4685              		.loc 1 900 0 is_stmt 1
 4686 001a 284B     		ldr	r3, .L377
 4687 001c 1A68     		ldr	r2, [r3]
 4688 001e 7B68     		ldr	r3, [r7, #4]
 4689 0020 DB6F     		ldr	r3, [r3, #124]
 4690 0022 D31A     		subs	r3, r2, r3
 4691 0024 3B61     		str	r3, [r7, #16]
 901:app_statemachine.c ****     if (elapsed < NUDGE_MIN_DWELL_MS) return;       /* let the step physically land */
 4692              		.loc 1 901 0
 4693 0026 3B69     		ldr	r3, [r7, #16]
 4694 0028 952B     		cmp	r3, #149
 4695 002a 42D9     		bls	.L376
 902:app_statemachine.c **** 
 903:app_statemachine.c ****     float p, t; uint8_t arrived = 0u;
 4696              		.loc 1 903 0
 4697 002c 0023     		movs	r3, #0
 4698 002e FB75     		strb	r3, [r7, #23]
 904:app_statemachine.c ****     if (gimbal_pan_tilt_deg(ctx, &p, &t))
 4699              		.loc 1 904 0
 4700 0030 07F10802 		add	r2, r7, #8
 4701 0034 07F10C03 		add	r3, r7, #12
 4702 0038 1946     		mov	r1, r3
ARM GAS  C:\Users\JENNEW~1\AppData\Local\Temp\cc33Iuyf.s 			page 103


 4703 003a 7868     		ldr	r0, [r7, #4]
 4704 003c FFF7FEFF 		bl	gimbal_pan_tilt_deg
 4705 0040 0346     		mov	r3, r0
 4706 0042 002B     		cmp	r3, #0
 4707 0044 27D0     		beq	.L365
 905:app_statemachine.c ****         arrived = (fabsf(p - ctx->tgt_pan_deg)  < NUDGE_SETTLE_DEG) &&
 4708              		.loc 1 905 0
 4709 0046 FA68     		ldr	r2, [r7, #12]	@ float
 4710 0048 7B68     		ldr	r3, [r7, #4]
 4711 004a D3F88830 		ldr	r3, [r3, #136]	@ float
 4712 004e 1946     		mov	r1, r3
 4713 0050 1046     		mov	r0, r2
 4714 0052 FFF7FEFF 		bl	__aeabi_fsub
 4715 0056 0346     		mov	r3, r0
 4716 0058 23F00043 		bic	r3, r3, #-2147483648
 4717 005c 1849     		ldr	r1, .L377+4
 4718 005e 1846     		mov	r0, r3
 4719 0060 FFF7FEFF 		bl	__aeabi_fcmplt
 4720 0064 0346     		mov	r3, r0
 4721 0066 002B     		cmp	r3, #0
 4722 0068 13D0     		beq	.L366
 906:app_statemachine.c ****                   (fabsf(t - ctx->tgt_tilt_deg) < NUDGE_SETTLE_DEG);
 4723              		.loc 1 906 0 discriminator 1
 4724 006a BA68     		ldr	r2, [r7, #8]	@ float
 4725 006c 7B68     		ldr	r3, [r7, #4]
 4726 006e D3F88C30 		ldr	r3, [r3, #140]	@ float
 4727 0072 1946     		mov	r1, r3
 4728 0074 1046     		mov	r0, r2
 4729 0076 FFF7FEFF 		bl	__aeabi_fsub
 4730 007a 0346     		mov	r3, r0
 4731 007c 23F00043 		bic	r3, r3, #-2147483648
 905:app_statemachine.c ****         arrived = (fabsf(p - ctx->tgt_pan_deg)  < NUDGE_SETTLE_DEG) &&
 4732              		.loc 1 905 0 discriminator 1
 4733 0080 0F49     		ldr	r1, .L377+4
 4734 0082 1846     		mov	r0, r3
 4735 0084 FFF7FEFF 		bl	__aeabi_fcmplt
 4736 0088 0346     		mov	r3, r0
 4737 008a 002B     		cmp	r3, #0
 4738 008c 01D0     		beq	.L366
 905:app_statemachine.c ****         arrived = (fabsf(p - ctx->tgt_pan_deg)  < NUDGE_SETTLE_DEG) &&
 4739              		.loc 1 905 0 is_stmt 0 discriminator 3
 4740 008e 0123     		movs	r3, #1
 4741 0090 00E0     		b	.L369
 4742              	.L366:
 905:app_statemachine.c ****         arrived = (fabsf(p - ctx->tgt_pan_deg)  < NUDGE_SETTLE_DEG) &&
 4743              		.loc 1 905 0 discriminator 4
 4744 0092 0023     		movs	r3, #0
 4745              	.L369:
 905:app_statemachine.c ****         arrived = (fabsf(p - ctx->tgt_pan_deg)  < NUDGE_SETTLE_DEG) &&
 4746              		.loc 1 905 0 discriminator 6
 4747 0094 FB75     		strb	r3, [r7, #23]
 4748              	.L365:
 907:app_statemachine.c ****     if (arrived || elapsed >= NUDGE_TIMEOUT_MS)
 4749              		.loc 1 907 0 is_stmt 1
 4750 0096 FB7D     		ldrb	r3, [r7, #23]	@ zero_extendqisi2
 4751 0098 002B     		cmp	r3, #0
 4752 009a 03D1     		bne	.L370
ARM GAS  C:\Users\JENNEW~1\AppData\Local\Temp\cc33Iuyf.s 			page 104


 4753              		.loc 1 907 0 is_stmt 0 discriminator 1
 4754 009c 3B69     		ldr	r3, [r7, #16]
 4755 009e B3F5FA6F 		cmp	r3, #2000
 4756 00a2 07D3     		bcc	.L360
 4757              	.L370:
 908:app_statemachine.c ****         ctx->nudge_hold = 0u;                        /* rate=0 holds the new attitude */
 4758              		.loc 1 908 0 is_stmt 1
 4759 00a4 7B68     		ldr	r3, [r7, #4]
 4760 00a6 0022     		movs	r2, #0
 4761 00a8 83F87820 		strb	r2, [r3, #120]
 4762 00ac 02E0     		b	.L360
 4763              	.L375:
 899:app_statemachine.c ****     uint32_t elapsed = g_tick_ms - ctx->nudge_start_ms;
 4764              		.loc 1 899 0
 4765 00ae 00BF     		nop
 4766 00b0 00E0     		b	.L360
 4767              	.L376:
 901:app_statemachine.c **** 
 4768              		.loc 1 901 0
 4769 00b2 00BF     		nop
 4770              	.L360:
 909:app_statemachine.c **** }
 4771              		.loc 1 909 0
 4772 00b4 1837     		adds	r7, r7, #24
 4773              		.cfi_def_cfa_offset 8
 4774 00b6 BD46     		mov	sp, r7
 4775              		.cfi_def_cfa_register 13
 4776              		@ sp needed
 4777 00b8 80BD     		pop	{r7, pc}
 4778              	.L378:
 4779 00ba 00BF     		.align	2
 4780              	.L377:
 4781 00bc 00000000 		.word	g_tick_ms
 4782 00c0 CDCC4C3D 		.word	1028443341
 4783              		.cfi_endproc
 4784              	.LFE114:
 4785              		.size	app_manual_tick, .-app_manual_tick
 4786              		.section	.text.sbc_state_is_requestable,"ax",%progbits
 4787              		.align	2
 4788              		.thumb
 4789              		.thumb_func
 4790              		.type	sbc_state_is_requestable, %function
 4791              	sbc_state_is_requestable:
 4792              	.LFB115:
 910:app_statemachine.c **** 
 911:app_statemachine.c **** // Helper - Validate state change request
 912:app_statemachine.c **** static uint8_t sbc_state_is_requestable(uint8_t s)
 913:app_statemachine.c **** {
 4793              		.loc 1 913 0
 4794              		.cfi_startproc
 4795              		@ args = 0, pretend = 0, frame = 8
 4796              		@ frame_needed = 1, uses_anonymous_args = 0
 4797              		@ link register save eliminated.
 4798 0000 80B4     		push	{r7}
 4799              		.cfi_def_cfa_offset 4
 4800              		.cfi_offset 7, -4
 4801 0002 83B0     		sub	sp, sp, #12
ARM GAS  C:\Users\JENNEW~1\AppData\Local\Temp\cc33Iuyf.s 			page 105


 4802              		.cfi_def_cfa_offset 16
 4803 0004 00AF     		add	r7, sp, #0
 4804              		.cfi_def_cfa_register 7
 4805 0006 0346     		mov	r3, r0
 4806 0008 FB71     		strb	r3, [r7, #7]
 914:app_statemachine.c ****     // Not implemented.
 915:app_statemachine.c ****     switch ((state_t)s) {
 4807              		.loc 1 915 0
 4808 000a FB79     		ldrb	r3, [r7, #7]	@ zero_extendqisi2
 4809 000c 063B     		subs	r3, r3, #6
 4810 000e 052B     		cmp	r3, #5
 4811 0010 01D8     		bhi	.L380
 916:app_statemachine.c ****         case STBY_HOLD:
 917:app_statemachine.c ****         case MANU_JOYSTICK:
 918:app_statemachine.c ****         case AUTO_HOME:
 919:app_statemachine.c ****         case AUTO_ACQ_GPS:
 920:app_statemachine.c ****         case AUTO_ACQ_SPIRAL:
 921:app_statemachine.c ****         case AUTO_TRACKING:
 922:app_statemachine.c ****             return 1u;
 4812              		.loc 1 922 0
 4813 0012 0123     		movs	r3, #1
 4814 0014 00E0     		b	.L382
 4815              	.L380:
 923:app_statemachine.c ****         default:
 924:app_statemachine.c ****             return 0u;
 4816              		.loc 1 924 0
 4817 0016 0023     		movs	r3, #0
 4818              	.L382:
 925:app_statemachine.c ****     }
 926:app_statemachine.c **** }
 4819              		.loc 1 926 0
 4820 0018 1846     		mov	r0, r3
 4821 001a 0C37     		adds	r7, r7, #12
 4822              		.cfi_def_cfa_offset 4
 4823 001c BD46     		mov	sp, r7
 4824              		.cfi_def_cfa_register 13
 4825              		@ sp needed
 4826 001e 80BC     		pop	{r7}
 4827              		.cfi_restore 7
 4828              		.cfi_def_cfa_offset 0
 4829 0020 7047     		bx	lr
 4830              		.cfi_endproc
 4831              	.LFE115:
 4832              		.size	sbc_state_is_requestable, .-sbc_state_is_requestable
 4833              		.section	.rodata
 4834 0687 00       		.align	2
 4835              	.LC49:
 4836 0688 5B534243 		.ascii	"[SBC] invalid state req=%u\015\012\000"
 4836      5D20696E 
 4836      76616C69 
 4836      64207374 
 4836      61746520 
 4837 06a5 000000   		.align	2
 4838              	.LC50:
 4839 06a8 5B534243 		.ascii	"[SBC] state req -> %s\015\012\000"
 4839      5D207374 
 4839      61746520 
ARM GAS  C:\Users\JENNEW~1\AppData\Local\Temp\cc33Iuyf.s 			page 106


 4839      72657120 
 4839      2D3E2025 
 4840              		.section	.text.app_sbc_tick,"ax",%progbits
 4841              		.align	2
 4842              		.global	app_sbc_tick
 4843              		.thumb
 4844              		.thumb_func
 4845              		.type	app_sbc_tick, %function
 4846              	app_sbc_tick:
 4847              	.LFB116:
 927:app_statemachine.c **** 
 928:app_statemachine.c **** void app_sbc_tick(app_ctx_t *ctx)
 929:app_statemachine.c **** {
 4848              		.loc 1 929 0
 4849              		.cfi_startproc
 4850              		@ args = 0, pretend = 0, frame = 160
 4851              		@ frame_needed = 1, uses_anonymous_args = 0
 4852 0000 80B5     		push	{r7, lr}
 4853              		.cfi_def_cfa_offset 8
 4854              		.cfi_offset 7, -8
 4855              		.cfi_offset 14, -4
 4856 0002 A8B0     		sub	sp, sp, #160
 4857              		.cfi_def_cfa_offset 168
 4858 0004 00AF     		add	r7, sp, #0
 4859              		.cfi_def_cfa_register 7
 4860 0006 7860     		str	r0, [r7, #4]
 930:app_statemachine.c ****     // 1) GPS target — always commit to ctx + flag. Run BEFORE the state req so
 931:app_statemachine.c ****     //    a "target then go" pair landing in one tick has the target ready when
 932:app_statemachine.c ****     //    entry_auto_acq_gps checks gps_target_set.
 933:app_statemachine.c ****     payload_gps_target_t tgt;
 934:app_statemachine.c ****     if (sbc_get_gps_target(&tgt)) {
 4861              		.loc 1 934 0
 4862 0008 07F19003 		add	r3, r7, #144
 4863 000c 1846     		mov	r0, r3
 4864 000e FFF7FEFF 		bl	sbc_get_gps_target
 4865 0012 0346     		mov	r3, r0
 4866 0014 002B     		cmp	r3, #0
 4867 0016 13D0     		beq	.L384
 935:app_statemachine.c ****         ctx->gps_target_lat_raw = tgt.lat_raw;
 4868              		.loc 1 935 0
 4869 0018 D7F89020 		ldr	r2, [r7, #144]
 4870 001c 7B68     		ldr	r3, [r7, #4]
 4871 001e 9A61     		str	r2, [r3, #24]
 936:app_statemachine.c ****         ctx->gps_target_lon_raw = tgt.lon_raw;
 4872              		.loc 1 936 0
 4873 0020 D7F89420 		ldr	r2, [r7, #148]
 4874 0024 7B68     		ldr	r3, [r7, #4]
 4875 0026 DA61     		str	r2, [r3, #28]
 937:app_statemachine.c ****         ctx->gps_target_alt_mm  = tgt.alt_mm;
 4876              		.loc 1 937 0
 4877 0028 D7F89820 		ldr	r2, [r7, #152]
 4878 002c 7B68     		ldr	r3, [r7, #4]
 4879 002e 1A62     		str	r2, [r3, #32]
 938:app_statemachine.c ****         ctx->gps_target_set     = 1u;
 4880              		.loc 1 938 0
 4881 0030 7B68     		ldr	r3, [r7, #4]
 4882 0032 0122     		movs	r2, #1
ARM GAS  C:\Users\JENNEW~1\AppData\Local\Temp\cc33Iuyf.s 			page 107


 4883 0034 83F82420 		strb	r2, [r3, #36]
 939:app_statemachine.c ****         ctx->gps_new_target     = 1u;   // ACQ_GPS picks this up on next settle
 4884              		.loc 1 939 0
 4885 0038 7B68     		ldr	r3, [r7, #4]
 4886 003a 0122     		movs	r2, #1
 4887 003c 83F82520 		strb	r2, [r3, #37]
 4888              	.L384:
 940:app_statemachine.c ****     }
 941:app_statemachine.c **** 
 942:app_statemachine.c ****     // 2) State change request
 943:app_statemachine.c ****     payload_state_req_t req;
 944:app_statemachine.c ****     if (!sbc_get_state_req(&req)) return;
 4889              		.loc 1 944 0
 4890 0040 07F18C03 		add	r3, r7, #140
 4891 0044 1846     		mov	r0, r3
 4892 0046 FFF7FEFF 		bl	sbc_get_state_req
 4893 004a 0346     		mov	r3, r0
 4894 004c 002B     		cmp	r3, #0
 4895 004e 49D0     		beq	.L390
 945:app_statemachine.c **** 
 946:app_statemachine.c ****     if (ctx->fatal_latched) {
 4896              		.loc 1 946 0
 4897 0050 7B68     		ldr	r3, [r7, #4]
 4898 0052 1B7B     		ldrb	r3, [r3, #12]	@ zero_extendqisi2
 4899 0054 002B     		cmp	r3, #0
 4900 0056 06D0     		beq	.L387
 947:app_statemachine.c ****         sbc_send_state_ack((uint8_t)ctx->state, STATE_ACK_REJECTED);
 4901              		.loc 1 947 0
 4902 0058 7B68     		ldr	r3, [r7, #4]
 4903 005a 1B79     		ldrb	r3, [r3, #4]	@ zero_extendqisi2
 4904 005c 0121     		movs	r1, #1
 4905 005e 1846     		mov	r0, r3
 4906 0060 FFF7FEFF 		bl	sbc_send_state_ack
 948:app_statemachine.c ****         return;
 4907              		.loc 1 948 0
 4908 0064 3FE0     		b	.L383
 4909              	.L387:
 949:app_statemachine.c ****     }
 950:app_statemachine.c ****     if (!sbc_state_is_requestable(req.requested_state)) {
 4910              		.loc 1 950 0
 4911 0066 97F88C30 		ldrb	r3, [r7, #140]	@ zero_extendqisi2
 4912 006a 1846     		mov	r0, r3
 4913 006c FFF7FEFF 		bl	sbc_state_is_requestable
 4914 0070 0346     		mov	r3, r0
 4915 0072 002B     		cmp	r3, #0
 4916 0074 14D1     		bne	.L388
 4917              	.LBB14:
 951:app_statemachine.c ****         sbc_send_state_ack((uint8_t)ctx->state, STATE_ACK_INVALID);
 4918              		.loc 1 951 0
 4919 0076 7B68     		ldr	r3, [r7, #4]
 4920 0078 1B79     		ldrb	r3, [r3, #4]	@ zero_extendqisi2
 4921 007a 0221     		movs	r1, #2
 4922 007c 1846     		mov	r0, r3
 4923 007e FFF7FEFF 		bl	sbc_send_state_ack
 952:app_statemachine.c ****         char b[64];
 953:app_statemachine.c ****         snprintf(b, sizeof b, "[SBC] invalid state req=%u\r\n",
 954:app_statemachine.c ****                  (unsigned)req.requested_state);
ARM GAS  C:\Users\JENNEW~1\AppData\Local\Temp\cc33Iuyf.s 			page 108


 4924              		.loc 1 954 0
 4925 0082 97F88C30 		ldrb	r3, [r7, #140]	@ zero_extendqisi2
 953:app_statemachine.c ****                  (unsigned)req.requested_state);
 4926              		.loc 1 953 0
 4927 0086 07F10C00 		add	r0, r7, #12
 4928 008a 184A     		ldr	r2, .L391
 4929 008c 4021     		movs	r1, #64
 4930 008e FFF7FEFF 		bl	snprintf
 955:app_statemachine.c ****         UART_DEBUG_PutString(b);
 4931              		.loc 1 955 0
 4932 0092 07F10C03 		add	r3, r7, #12
 4933 0096 1846     		mov	r0, r3
 4934 0098 FFF7FEFF 		bl	UART_DEBUG_PutString
 956:app_statemachine.c ****         return;
 4935              		.loc 1 956 0
 4936 009c 00BF     		nop
 4937 009e 22E0     		b	.L383
 4938              	.L388:
 4939              	.LBE14:
 957:app_statemachine.c ****     }
 958:app_statemachine.c **** 
 959:app_statemachine.c ****     state_t target = (state_t)req.requested_state;
 4940              		.loc 1 959 0
 4941 00a0 97F88C30 		ldrb	r3, [r7, #140]
 4942 00a4 87F89F30 		strb	r3, [r7, #159]
 960:app_statemachine.c ****     char b[64];
 961:app_statemachine.c ****     snprintf(b, sizeof b, "[SBC] state req -> %s\r\n", app_state_name(target));
 4943              		.loc 1 961 0
 4944 00a8 97F89F30 		ldrb	r3, [r7, #159]	@ zero_extendqisi2
 4945 00ac 1846     		mov	r0, r3
 4946 00ae FFF7FEFF 		bl	app_state_name
 4947 00b2 0346     		mov	r3, r0
 4948 00b4 07F14C00 		add	r0, r7, #76
 4949 00b8 0D4A     		ldr	r2, .L391+4
 4950 00ba 4021     		movs	r1, #64
 4951 00bc FFF7FEFF 		bl	snprintf
 962:app_statemachine.c ****     UART_DEBUG_PutString(b);
 4952              		.loc 1 962 0
 4953 00c0 07F14C03 		add	r3, r7, #76
 4954 00c4 1846     		mov	r0, r3
 4955 00c6 FFF7FEFF 		bl	UART_DEBUG_PutString
 963:app_statemachine.c ****     transition(ctx, target);
 4956              		.loc 1 963 0
 4957 00ca 97F89F30 		ldrb	r3, [r7, #159]	@ zero_extendqisi2
 4958 00ce 1946     		mov	r1, r3
 4959 00d0 7868     		ldr	r0, [r7, #4]
 4960 00d2 FFF7FEFF 		bl	transition
 964:app_statemachine.c ****     sbc_send_state_ack((uint8_t)ctx->state, STATE_ACK_OK);
 4961              		.loc 1 964 0
 4962 00d6 7B68     		ldr	r3, [r7, #4]
 4963 00d8 1B79     		ldrb	r3, [r3, #4]	@ zero_extendqisi2
 4964 00da 0021     		movs	r1, #0
 4965 00dc 1846     		mov	r0, r3
 4966 00de FFF7FEFF 		bl	sbc_send_state_ack
 4967 00e2 00E0     		b	.L383
 4968              	.L390:
 944:app_statemachine.c **** 
ARM GAS  C:\Users\JENNEW~1\AppData\Local\Temp\cc33Iuyf.s 			page 109


 4969              		.loc 1 944 0
 4970 00e4 00BF     		nop
 4971              	.L383:
 965:app_statemachine.c **** }...
 4972              		.loc 1 965 0
 4973 00e6 A037     		adds	r7, r7, #160
 4974              		.cfi_def_cfa_offset 8
 4975 00e8 BD46     		mov	sp, r7
 4976              		.cfi_def_cfa_register 13
 4977              		@ sp needed
 4978 00ea 80BD     		pop	{r7, pc}
 4979              	.L392:
 4980              		.align	2
 4981              	.L391:
 4982 00ec 88060000 		.word	.LC49
 4983 00f0 A8060000 		.word	.LC50
 4984              		.cfi_endproc
 4985              	.LFE116:
 4986              		.size	app_sbc_tick, .-app_sbc_tick
 4987              		.bss
 4988              		.align	2
 4989              	last_hot_ms.8190:
 4990 0000 00000000 		.space	4
 4991              		.align	2
 4992              	last_link_ms.8191:
 4993 0004 00000000 		.space	4
 4994              		.align	2
 4995              	last_pt_ms.8211:
 4996 0008 00000000 		.space	4
 4997              		.section	.rodata
 4998              		.align	2
 4999              	.LC51:
 5000 06c0 4300     		.ascii	"C\000"
 5001 06c2 0000     		.align	2
 5002              	.LC52:
 5003 06c4 4600     		.ascii	"F\000"
 5004              		.data
 5005              		.align	2
 5006              		.type	tag.8212, %object
 5007              		.size	tag.8212, 8
 5008              	tag.8212:
 5009 0000 C0060000 		.word	.LC51
 5010 0004 C4060000 		.word	.LC52
 5011              		.text
 5012              	.Letext0:
 5013              		.file 2 "c:\\program files (x86)\\cypress\\psoc creator\\4.4\\psoc creator\\import\\gnu\\arm\\5.4.
 5014              		.file 3 "c:\\program files (x86)\\cypress\\psoc creator\\4.4\\psoc creator\\import\\gnu\\arm\\5.4.
 5015              		.file 4 "..\\..\\..\\HamFlyAPI\\src/hamfly_core_control.h"
 5016              		.file 5 "..\\..\\..\\HamFlyAPI\\src/hamfly_core_hal.h"
 5017              		.file 6 "..\\..\\..\\HamFlyAPI\\src/hamfly_core_telemetry.h"
 5018              		.file 7 "..\\..\\..\\HamFlyAPI\\src/hamfly_comm_rb.h"
 5019              		.file 8 "..\\..\\..\\HamFlyAPI\\src/hamfly_core_gimbal.h"
 5020              		.file 9 "joystick.h"
 5021              		.file 10 "app_ctx.h"
 5022              		.file 11 "sbc_comms.h"
 5023              		.file 12 "Generated_Source\\PSoC5/core_cm3.h"
 5024              		.section	.debug_info,"",%progbits
ARM GAS  C:\Users\JENNEW~1\AppData\Local\Temp\cc33Iuyf.s 			page 110


 5025              	.Ldebug_info0:
 5026 0000 ED1A0000 		.4byte	0x1aed
 5027 0004 0400     		.2byte	0x4
 5028 0006 00000000 		.4byte	.Ldebug_abbrev0
 5029 000a 04       		.byte	0x4
 5030 000b 01       		.uleb128 0x1
 5031 000c 2D070000 		.4byte	.LASF308
 5032 0010 0C       		.byte	0xc
 5033 0011 C00C0000 		.4byte	.LASF309
 5034 0015 6E0F0000 		.4byte	.LASF310
 5035 0019 18000000 		.4byte	.Ldebug_ranges0+0x18
 5036 001d 00000000 		.4byte	0
 5037 0021 00000000 		.4byte	.Ldebug_line0
 5038 0025 02       		.uleb128 0x2
 5039 0026 01       		.byte	0x1
 5040 0027 06       		.byte	0x6
 5041 0028 E8020000 		.4byte	.LASF0
 5042 002c 03       		.uleb128 0x3
 5043 002d D6010000 		.4byte	.LASF2
 5044 0031 02       		.byte	0x2
 5045 0032 1D       		.byte	0x1d
 5046 0033 37000000 		.4byte	0x37
 5047 0037 02       		.uleb128 0x2
 5048 0038 01       		.byte	0x1
 5049 0039 08       		.byte	0x8
 5050 003a 4A030000 		.4byte	.LASF1
 5051 003e 03       		.uleb128 0x3
 5052 003f 2D0C0000 		.4byte	.LASF3
 5053 0043 02       		.byte	0x2
 5054 0044 29       		.byte	0x29
 5055 0045 49000000 		.4byte	0x49
 5056 0049 02       		.uleb128 0x2
 5057 004a 02       		.byte	0x2
 5058 004b 05       		.byte	0x5
 5059 004c 2D0D0000 		.4byte	.LASF4
 5060 0050 03       		.uleb128 0x3
 5061 0051 2F040000 		.4byte	.LASF5
 5062 0055 02       		.byte	0x2
 5063 0056 2B       		.byte	0x2b
 5064 0057 5B000000 		.4byte	0x5b
 5065 005b 02       		.uleb128 0x2
 5066 005c 02       		.byte	0x2
 5067 005d 07       		.byte	0x7
 5068 005e 9A0E0000 		.4byte	.LASF6
 5069 0062 03       		.uleb128 0x3
 5070 0063 E30E0000 		.4byte	.LASF7
 5071 0067 02       		.byte	0x2
 5072 0068 3F       		.byte	0x3f
 5073 0069 6D000000 		.4byte	0x6d
 5074 006d 02       		.uleb128 0x2
 5075 006e 04       		.byte	0x4
 5076 006f 05       		.byte	0x5
 5077 0070 32020000 		.4byte	.LASF8
 5078 0074 03       		.uleb128 0x3
 5079 0075 DF070000 		.4byte	.LASF9
 5080 0079 02       		.byte	0x2
 5081 007a 41       		.byte	0x41
ARM GAS  C:\Users\JENNEW~1\AppData\Local\Temp\cc33Iuyf.s 			page 111


 5082 007b 7F000000 		.4byte	0x7f
 5083 007f 02       		.uleb128 0x2
 5084 0080 04       		.byte	0x4
 5085 0081 07       		.byte	0x7
 5086 0082 47060000 		.4byte	.LASF10
 5087 0086 02       		.uleb128 0x2
 5088 0087 08       		.byte	0x8
 5089 0088 05       		.byte	0x5
 5090 0089 F9070000 		.4byte	.LASF11
 5091 008d 02       		.uleb128 0x2
 5092 008e 08       		.byte	0x8
 5093 008f 07       		.byte	0x7
 5094 0090 EC0A0000 		.4byte	.LASF12
 5095 0094 04       		.uleb128 0x4
 5096 0095 04       		.byte	0x4
 5097 0096 05       		.byte	0x5
 5098 0097 696E7400 		.ascii	"int\000"
 5099 009b 02       		.uleb128 0x2
 5100 009c 04       		.byte	0x4
 5101 009d 07       		.byte	0x7
 5102 009e F5080000 		.4byte	.LASF13
 5103 00a2 03       		.uleb128 0x3
 5104 00a3 F4020000 		.4byte	.LASF14
 5105 00a7 03       		.byte	0x3
 5106 00a8 18       		.byte	0x18
 5107 00a9 2C000000 		.4byte	0x2c
 5108 00ad 03       		.uleb128 0x3
 5109 00ae 4E0D0000 		.4byte	.LASF15
 5110 00b2 03       		.byte	0x3
 5111 00b3 20       		.byte	0x20
 5112 00b4 3E000000 		.4byte	0x3e
 5113 00b8 03       		.uleb128 0x3
 5114 00b9 3F0B0000 		.4byte	.LASF16
 5115 00bd 03       		.byte	0x3
 5116 00be 24       		.byte	0x24
 5117 00bf 50000000 		.4byte	0x50
 5118 00c3 03       		.uleb128 0x3
 5119 00c4 BF000000 		.4byte	.LASF17
 5120 00c8 03       		.byte	0x3
 5121 00c9 2C       		.byte	0x2c
 5122 00ca 62000000 		.4byte	0x62
 5123 00ce 03       		.uleb128 0x3
 5124 00cf 3E0E0000 		.4byte	.LASF18
 5125 00d3 03       		.byte	0x3
 5126 00d4 30       		.byte	0x30
 5127 00d5 74000000 		.4byte	0x74
 5128 00d9 02       		.uleb128 0x2
 5129 00da 04       		.byte	0x4
 5130 00db 04       		.byte	0x4
 5131 00dc CF080000 		.4byte	.LASF19
 5132 00e0 02       		.uleb128 0x2
 5133 00e1 08       		.byte	0x8
 5134 00e2 04       		.byte	0x4
 5135 00e3 75080000 		.4byte	.LASF20
 5136 00e7 02       		.uleb128 0x2
 5137 00e8 01       		.byte	0x1
 5138 00e9 08       		.byte	0x8
ARM GAS  C:\Users\JENNEW~1\AppData\Local\Temp\cc33Iuyf.s 			page 112


 5139 00ea D4030000 		.4byte	.LASF21
 5140 00ee 02       		.uleb128 0x2
 5141 00ef 08       		.byte	0x8
 5142 00f0 04       		.byte	0x4
 5143 00f1 0D0A0000 		.4byte	.LASF22
 5144 00f5 02       		.uleb128 0x2
 5145 00f6 04       		.byte	0x4
 5146 00f7 07       		.byte	0x7
 5147 00f8 47000000 		.4byte	.LASF23
 5148 00fc 05       		.uleb128 0x5
 5149 00fd 04       		.byte	0x4
 5150 00fe 06       		.uleb128 0x6
 5151 00ff 04       		.byte	0x4
 5152 0100 04010000 		.4byte	0x104
 5153 0104 07       		.uleb128 0x7
 5154 0105 E7000000 		.4byte	0xe7
 5155 0109 08       		.uleb128 0x8
 5156 010a CE000000 		.4byte	0xce
 5157 010e 08       		.uleb128 0x8
 5158 010f A2000000 		.4byte	0xa2
 5159 0113 08       		.uleb128 0x8
 5160 0114 B8000000 		.4byte	0xb8
 5161 0118 09       		.uleb128 0x9
 5162 0119 01       		.byte	0x1
 5163 011a 37000000 		.4byte	0x37
 5164 011e 04       		.byte	0x4
 5165 011f 1E       		.byte	0x1e
 5166 0120 3D010000 		.4byte	0x13d
 5167 0124 0A       		.uleb128 0xa
 5168 0125 8D0D0000 		.4byte	.LASF24
 5169 0129 00       		.byte	0
 5170 012a 0A       		.uleb128 0xa
 5171 012b 9D030000 		.4byte	.LASF25
 5172 012f 01       		.byte	0x1
 5173 0130 0A       		.uleb128 0xa
 5174 0131 EB090000 		.4byte	.LASF26
 5175 0135 02       		.byte	0x2
 5176 0136 0A       		.uleb128 0xa
 5177 0137 030B0000 		.4byte	.LASF27
 5178 013b 03       		.byte	0x3
 5179 013c 00       		.byte	0
 5180 013d 03       		.uleb128 0x3
 5181 013e 07080000 		.4byte	.LASF28
 5182 0142 04       		.byte	0x4
 5183 0143 2A       		.byte	0x2a
 5184 0144 18010000 		.4byte	0x118
 5185 0148 0B       		.uleb128 0xb
 5186 0149 14       		.byte	0x14
 5187 014a 04       		.byte	0x4
 5188 014b 2E       		.byte	0x2e
 5189 014c B1010000 		.4byte	0x1b1
 5190 0150 0C       		.uleb128 0xc
 5191 0151 70616E00 		.ascii	"pan\000"
 5192 0155 04       		.byte	0x4
 5193 0156 2F       		.byte	0x2f
 5194 0157 D9000000 		.4byte	0xd9
 5195 015b 00       		.byte	0
ARM GAS  C:\Users\JENNEW~1\AppData\Local\Temp\cc33Iuyf.s 			page 113


 5196 015c 0D       		.uleb128 0xd
 5197 015d F40B0000 		.4byte	.LASF29
 5198 0161 04       		.byte	0x4
 5199 0162 30       		.byte	0x30
 5200 0163 D9000000 		.4byte	0xd9
 5201 0167 04       		.byte	0x4
 5202 0168 0D       		.uleb128 0xd
 5203 0169 AD0E0000 		.4byte	.LASF30
 5204 016d 04       		.byte	0x4
 5205 016e 31       		.byte	0x31
 5206 016f D9000000 		.4byte	0xd9
 5207 0173 08       		.byte	0x8
 5208 0174 0D       		.uleb128 0xd
 5209 0175 B00A0000 		.4byte	.LASF31
 5210 0179 04       		.byte	0x4
 5211 017a 32       		.byte	0x32
 5212 017b 3D010000 		.4byte	0x13d
 5213 017f 0C       		.byte	0xc
 5214 0180 0D       		.uleb128 0xd
 5215 0181 AA0C0000 		.4byte	.LASF32
 5216 0185 04       		.byte	0x4
 5217 0186 33       		.byte	0x33
 5218 0187 3D010000 		.4byte	0x13d
 5219 018b 0D       		.byte	0xd
 5220 018c 0D       		.uleb128 0xd
 5221 018d 58090000 		.4byte	.LASF33
 5222 0191 04       		.byte	0x4
 5223 0192 34       		.byte	0x34
 5224 0193 3D010000 		.4byte	0x13d
 5225 0197 0E       		.byte	0xe
 5226 0198 0D       		.uleb128 0xd
 5227 0199 52080000 		.4byte	.LASF34
 5228 019d 04       		.byte	0x4
 5229 019e 35       		.byte	0x35
 5230 019f A2000000 		.4byte	0xa2
 5231 01a3 0F       		.byte	0xf
 5232 01a4 0D       		.uleb128 0xd
 5233 01a5 B60D0000 		.4byte	.LASF35
 5234 01a9 04       		.byte	0x4
 5235 01aa 36       		.byte	0x36
 5236 01ab A2000000 		.4byte	0xa2
 5237 01af 10       		.byte	0x10
 5238 01b0 00       		.byte	0
 5239 01b1 03       		.uleb128 0x3
 5240 01b2 42010000 		.4byte	.LASF36
 5241 01b6 04       		.byte	0x4
 5242 01b7 37       		.byte	0x37
 5243 01b8 48010000 		.4byte	0x148
 5244 01bc 0B       		.uleb128 0xb
 5245 01bd 0C       		.byte	0xc
 5246 01be 05       		.byte	0x5
 5247 01bf 24       		.byte	0x24
 5248 01c0 E9010000 		.4byte	0x1e9
 5249 01c4 0C       		.uleb128 0xc
 5250 01c5 63747800 		.ascii	"ctx\000"
 5251 01c9 05       		.byte	0x5
 5252 01ca 25       		.byte	0x25
ARM GAS  C:\Users\JENNEW~1\AppData\Local\Temp\cc33Iuyf.s 			page 114


 5253 01cb FC000000 		.4byte	0xfc
 5254 01cf 00       		.byte	0
 5255 01d0 0D       		.uleb128 0xd
 5256 01d1 C3060000 		.4byte	.LASF37
 5257 01d5 05       		.byte	0x5
 5258 01d6 26       		.byte	0x26
 5259 01d7 F9010000 		.4byte	0x1f9
 5260 01db 04       		.byte	0x4
 5261 01dc 0D       		.uleb128 0xd
 5262 01dd 710E0000 		.4byte	.LASF38
 5263 01e1 05       		.byte	0x5
 5264 01e2 27       		.byte	0x27
 5265 01e3 0E020000 		.4byte	0x20e
 5266 01e7 08       		.byte	0x8
 5267 01e8 00       		.byte	0
 5268 01e9 0E       		.uleb128 0xe
 5269 01ea F9010000 		.4byte	0x1f9
 5270 01ee 0F       		.uleb128 0xf
 5271 01ef FC000000 		.4byte	0xfc
 5272 01f3 0F       		.uleb128 0xf
 5273 01f4 A2000000 		.4byte	0xa2
 5274 01f8 00       		.byte	0
 5275 01f9 06       		.uleb128 0x6
 5276 01fa 04       		.byte	0x4
 5277 01fb E9010000 		.4byte	0x1e9
 5278 01ff 10       		.uleb128 0x10
 5279 0200 CE000000 		.4byte	0xce
 5280 0204 0E020000 		.4byte	0x20e
 5281 0208 0F       		.uleb128 0xf
 5282 0209 FC000000 		.4byte	0xfc
 5283 020d 00       		.byte	0
 5284 020e 06       		.uleb128 0x6
 5285 020f 04       		.byte	0x4
 5286 0210 FF010000 		.4byte	0x1ff
 5287 0214 03       		.uleb128 0x3
 5288 0215 560A0000 		.4byte	.LASF39
 5289 0219 05       		.byte	0x5
 5290 021a 28       		.byte	0x28
 5291 021b BC010000 		.4byte	0x1bc
 5292 021f 0B       		.uleb128 0xb
 5293 0220 EC       		.byte	0xec
 5294 0221 06       		.byte	0x6
 5295 0222 1F       		.byte	0x1f
 5296 0223 88050000 		.4byte	0x588
 5297 0227 0D       		.uleb128 0xd
 5298 0228 A50D0000 		.4byte	.LASF40
 5299 022c 06       		.byte	0x6
 5300 022d 21       		.byte	0x21
 5301 022e 88050000 		.4byte	0x588
 5302 0232 00       		.byte	0
 5303 0233 0D       		.uleb128 0xd
 5304 0234 EA070000 		.4byte	.LASF41
 5305 0238 06       		.byte	0x6
 5306 0239 22       		.byte	0x22
 5307 023a D9000000 		.4byte	0xd9
 5308 023e 04       		.byte	0x4
 5309 023f 0D       		.uleb128 0xd
ARM GAS  C:\Users\JENNEW~1\AppData\Local\Temp\cc33Iuyf.s 			page 115


 5310 0240 8A040000 		.4byte	.LASF42
 5311 0244 06       		.byte	0x6
 5312 0245 23       		.byte	0x23
 5313 0246 D9000000 		.4byte	0xd9
 5314 024a 08       		.byte	0x8
 5315 024b 0D       		.uleb128 0xd
 5316 024c EF010000 		.4byte	.LASF43
 5317 0250 06       		.byte	0x6
 5318 0251 24       		.byte	0x24
 5319 0252 D9000000 		.4byte	0xd9
 5320 0256 0C       		.byte	0xc
 5321 0257 0D       		.uleb128 0xd
 5322 0258 C4010000 		.4byte	.LASF44
 5323 025c 06       		.byte	0x6
 5324 025d 25       		.byte	0x25
 5325 025e D9000000 		.4byte	0xd9
 5326 0262 10       		.byte	0x10
 5327 0263 0D       		.uleb128 0xd
 5328 0264 CD010000 		.4byte	.LASF45
 5329 0268 06       		.byte	0x6
 5330 0269 26       		.byte	0x26
 5331 026a D9000000 		.4byte	0xd9
 5332 026e 14       		.byte	0x14
 5333 026f 0D       		.uleb128 0xd
 5334 0270 89020000 		.4byte	.LASF46
 5335 0274 06       		.byte	0x6
 5336 0275 27       		.byte	0x27
 5337 0276 D9000000 		.4byte	0xd9
 5338 027a 18       		.byte	0x18
 5339 027b 0D       		.uleb128 0xd
 5340 027c 10000000 		.4byte	.LASF47
 5341 0280 06       		.byte	0x6
 5342 0281 28       		.byte	0x28
 5343 0282 A2000000 		.4byte	0xa2
 5344 0286 1C       		.byte	0x1c
 5345 0287 0D       		.uleb128 0xd
 5346 0288 1F000000 		.4byte	.LASF48
 5347 028c 06       		.byte	0x6
 5348 028d 29       		.byte	0x29
 5349 028e A2000000 		.4byte	0xa2
 5350 0292 1D       		.byte	0x1d
 5351 0293 0D       		.uleb128 0xd
 5352 0294 84010000 		.4byte	.LASF49
 5353 0298 06       		.byte	0x6
 5354 0299 2C       		.byte	0x2c
 5355 029a 88050000 		.4byte	0x588
 5356 029e 1E       		.byte	0x1e
 5357 029f 0D       		.uleb128 0xd
 5358 02a0 720D0000 		.4byte	.LASF50
 5359 02a4 06       		.byte	0x6
 5360 02a5 2E       		.byte	0x2e
 5361 02a6 88050000 		.4byte	0x588
 5362 02aa 1F       		.byte	0x1f
 5363 02ab 0D       		.uleb128 0xd
 5364 02ac 12020000 		.4byte	.LASF51
 5365 02b0 06       		.byte	0x6
 5366 02b1 31       		.byte	0x31
ARM GAS  C:\Users\JENNEW~1\AppData\Local\Temp\cc33Iuyf.s 			page 116


 5367 02b2 D9000000 		.4byte	0xd9
 5368 02b6 20       		.byte	0x20
 5369 02b7 0D       		.uleb128 0xd
 5370 02b8 580F0000 		.4byte	.LASF52
 5371 02bc 06       		.byte	0x6
 5372 02bd 32       		.byte	0x32
 5373 02be D9000000 		.4byte	0xd9
 5374 02c2 24       		.byte	0x24
 5375 02c3 0D       		.uleb128 0xd
 5376 02c4 CE020000 		.4byte	.LASF53
 5377 02c8 06       		.byte	0x6
 5378 02c9 33       		.byte	0x33
 5379 02ca D9000000 		.4byte	0xd9
 5380 02ce 28       		.byte	0x28
 5381 02cf 0D       		.uleb128 0xd
 5382 02d0 FB040000 		.4byte	.LASF54
 5383 02d4 06       		.byte	0x6
 5384 02d5 34       		.byte	0x34
 5385 02d6 D9000000 		.4byte	0xd9
 5386 02da 2C       		.byte	0x2c
 5387 02db 0D       		.uleb128 0xd
 5388 02dc 42080000 		.4byte	.LASF55
 5389 02e0 06       		.byte	0x6
 5390 02e1 36       		.byte	0x36
 5391 02e2 D9000000 		.4byte	0xd9
 5392 02e6 30       		.byte	0x30
 5393 02e7 0D       		.uleb128 0xd
 5394 02e8 60060000 		.4byte	.LASF56
 5395 02ec 06       		.byte	0x6
 5396 02ed 37       		.byte	0x37
 5397 02ee D9000000 		.4byte	0xd9
 5398 02f2 34       		.byte	0x34
 5399 02f3 0D       		.uleb128 0xd
 5400 02f4 43050000 		.4byte	.LASF57
 5401 02f8 06       		.byte	0x6
 5402 02f9 38       		.byte	0x38
 5403 02fa D9000000 		.4byte	0xd9
 5404 02fe 38       		.byte	0x38
 5405 02ff 0D       		.uleb128 0xd
 5406 0300 0A060000 		.4byte	.LASF58
 5407 0304 06       		.byte	0x6
 5408 0305 39       		.byte	0x39
 5409 0306 D9000000 		.4byte	0xd9
 5410 030a 3C       		.byte	0x3c
 5411 030b 0D       		.uleb128 0xd
 5412 030c B7060000 		.4byte	.LASF59
 5413 0310 06       		.byte	0x6
 5414 0311 3B       		.byte	0x3b
 5415 0312 C3000000 		.4byte	0xc3
 5416 0316 40       		.byte	0x40
 5417 0317 0D       		.uleb128 0xd
 5418 0318 650E0000 		.4byte	.LASF60
 5419 031c 06       		.byte	0x6
 5420 031d 3C       		.byte	0x3c
 5421 031e C3000000 		.4byte	0xc3
 5422 0322 44       		.byte	0x44
 5423 0323 0D       		.uleb128 0xd
ARM GAS  C:\Users\JENNEW~1\AppData\Local\Temp\cc33Iuyf.s 			page 117


 5424 0324 7F090000 		.4byte	.LASF61
 5425 0328 06       		.byte	0x6
 5426 0329 41       		.byte	0x41
 5427 032a C3000000 		.4byte	0xc3
 5428 032e 48       		.byte	0x48
 5429 032f 0D       		.uleb128 0xd
 5430 0330 4E050000 		.4byte	.LASF62
 5431 0334 06       		.byte	0x6
 5432 0335 42       		.byte	0x42
 5433 0336 AD000000 		.4byte	0xad
 5434 033a 4C       		.byte	0x4c
 5435 033b 0D       		.uleb128 0xd
 5436 033c 210C0000 		.4byte	.LASF63
 5437 0340 06       		.byte	0x6
 5438 0341 44       		.byte	0x44
 5439 0342 AD000000 		.4byte	0xad
 5440 0346 4E       		.byte	0x4e
 5441 0347 0D       		.uleb128 0xd
 5442 0348 77010000 		.4byte	.LASF64
 5443 034c 06       		.byte	0x6
 5444 034d 45       		.byte	0x45
 5445 034e B8000000 		.4byte	0xb8
 5446 0352 50       		.byte	0x50
 5447 0353 0D       		.uleb128 0xd
 5448 0354 46020000 		.4byte	.LASF65
 5449 0358 06       		.byte	0x6
 5450 0359 46       		.byte	0x46
 5451 035a B8000000 		.4byte	0xb8
 5452 035e 52       		.byte	0x52
 5453 035f 0D       		.uleb128 0xd
 5454 0360 190A0000 		.4byte	.LASF66
 5455 0364 06       		.byte	0x6
 5456 0365 47       		.byte	0x47
 5457 0366 B8000000 		.4byte	0xb8
 5458 036a 54       		.byte	0x54
 5459 036b 0D       		.uleb128 0xd
 5460 036c AB0D0000 		.4byte	.LASF67
 5461 0370 06       		.byte	0x6
 5462 0371 4A       		.byte	0x4a
 5463 0372 88050000 		.4byte	0x588
 5464 0376 56       		.byte	0x56
 5465 0377 0D       		.uleb128 0xd
 5466 0378 2E0F0000 		.4byte	.LASF68
 5467 037c 06       		.byte	0x6
 5468 037d 4E       		.byte	0x4e
 5469 037e D9000000 		.4byte	0xd9
 5470 0382 58       		.byte	0x58
 5471 0383 0D       		.uleb128 0xd
 5472 0384 8C0B0000 		.4byte	.LASF69
 5473 0388 06       		.byte	0x6
 5474 0389 52       		.byte	0x52
 5475 038a D9000000 		.4byte	0xd9
 5476 038e 5C       		.byte	0x5c
 5477 038f 0D       		.uleb128 0xd
 5478 0390 90050000 		.4byte	.LASF70
 5479 0394 06       		.byte	0x6
 5480 0395 57       		.byte	0x57
ARM GAS  C:\Users\JENNEW~1\AppData\Local\Temp\cc33Iuyf.s 			page 118


 5481 0396 88050000 		.4byte	0x588
 5482 039a 60       		.byte	0x60
 5483 039b 0D       		.uleb128 0xd
 5484 039c D9030000 		.4byte	.LASF71
 5485 03a0 06       		.byte	0x6
 5486 03a1 58       		.byte	0x58
 5487 03a2 CE000000 		.4byte	0xce
 5488 03a6 64       		.byte	0x64
 5489 03a7 0D       		.uleb128 0xd
 5490 03a8 14010000 		.4byte	.LASF72
 5491 03ac 06       		.byte	0x6
 5492 03ad 59       		.byte	0x59
 5493 03ae D9000000 		.4byte	0xd9
 5494 03b2 68       		.byte	0x68
 5495 03b3 0D       		.uleb128 0xd
 5496 03b4 B7090000 		.4byte	.LASF73
 5497 03b8 06       		.byte	0x6
 5498 03b9 5A       		.byte	0x5a
 5499 03ba D9000000 		.4byte	0xd9
 5500 03be 6C       		.byte	0x6c
 5501 03bf 0D       		.uleb128 0xd
 5502 03c0 EA030000 		.4byte	.LASF74
 5503 03c4 06       		.byte	0x6
 5504 03c5 5B       		.byte	0x5b
 5505 03c6 D9000000 		.4byte	0xd9
 5506 03ca 70       		.byte	0x70
 5507 03cb 0D       		.uleb128 0xd
 5508 03cc 11070000 		.4byte	.LASF75
 5509 03d0 06       		.byte	0x6
 5510 03d1 5F       		.byte	0x5f
 5511 03d2 D9000000 		.4byte	0xd9
 5512 03d6 74       		.byte	0x74
 5513 03d7 0D       		.uleb128 0xd
 5514 03d8 C3040000 		.4byte	.LASF76
 5515 03dc 06       		.byte	0x6
 5516 03dd 60       		.byte	0x60
 5517 03de D9000000 		.4byte	0xd9
 5518 03e2 78       		.byte	0x78
 5519 03e3 0D       		.uleb128 0xd
 5520 03e4 440A0000 		.4byte	.LASF77
 5521 03e8 06       		.byte	0x6
 5522 03e9 61       		.byte	0x61
 5523 03ea D9000000 		.4byte	0xd9
 5524 03ee 7C       		.byte	0x7c
 5525 03ef 0D       		.uleb128 0xd
 5526 03f0 9F0A0000 		.4byte	.LASF78
 5527 03f4 06       		.byte	0x6
 5528 03f5 65       		.byte	0x65
 5529 03f6 D9000000 		.4byte	0xd9
 5530 03fa 80       		.byte	0x80
 5531 03fb 0D       		.uleb128 0xd
 5532 03fc 1D080000 		.4byte	.LASF79
 5533 0400 06       		.byte	0x6
 5534 0401 66       		.byte	0x66
 5535 0402 D9000000 		.4byte	0xd9
 5536 0406 84       		.byte	0x84
 5537 0407 0D       		.uleb128 0xd
ARM GAS  C:\Users\JENNEW~1\AppData\Local\Temp\cc33Iuyf.s 			page 119


 5538 0408 D9060000 		.4byte	.LASF80
 5539 040c 06       		.byte	0x6
 5540 040d 67       		.byte	0x67
 5541 040e D9000000 		.4byte	0xd9
 5542 0412 88       		.byte	0x88
 5543 0413 0D       		.uleb128 0xd
 5544 0414 7E0B0000 		.4byte	.LASF81
 5545 0418 06       		.byte	0x6
 5546 0419 6A       		.byte	0x6a
 5547 041a 88050000 		.4byte	0x588
 5548 041e 8C       		.byte	0x8c
 5549 041f 0D       		.uleb128 0xd
 5550 0420 CD0B0000 		.4byte	.LASF82
 5551 0424 06       		.byte	0x6
 5552 0425 6E       		.byte	0x6e
 5553 0426 88050000 		.4byte	0x588
 5554 042a 8D       		.byte	0x8d
 5555 042b 0D       		.uleb128 0xd
 5556 042c B6040000 		.4byte	.LASF83
 5557 0430 06       		.byte	0x6
 5558 0431 6F       		.byte	0x6f
 5559 0432 88050000 		.4byte	0x588
 5560 0436 8E       		.byte	0x8e
 5561 0437 0D       		.uleb128 0xd
 5562 0438 F7030000 		.4byte	.LASF84
 5563 043c 06       		.byte	0x6
 5564 043d 70       		.byte	0x70
 5565 043e 88050000 		.4byte	0x588
 5566 0442 8F       		.byte	0x8f
 5567 0443 0D       		.uleb128 0xd
 5568 0444 53010000 		.4byte	.LASF85
 5569 0448 06       		.byte	0x6
 5570 0449 71       		.byte	0x71
 5571 044a 88050000 		.4byte	0x588
 5572 044e 90       		.byte	0x90
 5573 044f 0D       		.uleb128 0xd
 5574 0450 E0010000 		.4byte	.LASF86
 5575 0454 06       		.byte	0x6
 5576 0455 72       		.byte	0x72
 5577 0456 D9000000 		.4byte	0xd9
 5578 045a 94       		.byte	0x94
 5579 045b 0D       		.uleb128 0xd
 5580 045c 7F050000 		.4byte	.LASF87
 5581 0460 06       		.byte	0x6
 5582 0461 73       		.byte	0x73
 5583 0462 A2000000 		.4byte	0xa2
 5584 0466 98       		.byte	0x98
 5585 0467 0D       		.uleb128 0xd
 5586 0468 92020000 		.4byte	.LASF88
 5587 046c 06       		.byte	0x6
 5588 046d 74       		.byte	0x74
 5589 046e D9000000 		.4byte	0xd9
 5590 0472 9C       		.byte	0x9c
 5591 0473 0D       		.uleb128 0xd
 5592 0474 ED0E0000 		.4byte	.LASF89
 5593 0478 06       		.byte	0x6
 5594 0479 75       		.byte	0x75
ARM GAS  C:\Users\JENNEW~1\AppData\Local\Temp\cc33Iuyf.s 			page 120


 5595 047a A2000000 		.4byte	0xa2
 5596 047e A0       		.byte	0xa0
 5597 047f 0D       		.uleb128 0xd
 5598 0480 1C0B0000 		.4byte	.LASF90
 5599 0484 06       		.byte	0x6
 5600 0485 76       		.byte	0x76
 5601 0486 AD000000 		.4byte	0xad
 5602 048a A2       		.byte	0xa2
 5603 048b 0D       		.uleb128 0xd
 5604 048c 18050000 		.4byte	.LASF91
 5605 0490 06       		.byte	0x6
 5606 0491 77       		.byte	0x77
 5607 0492 AD000000 		.4byte	0xad
 5608 0496 A4       		.byte	0xa4
 5609 0497 0D       		.uleb128 0xd
 5610 0498 6B060000 		.4byte	.LASF92
 5611 049c 06       		.byte	0x6
 5612 049d 78       		.byte	0x78
 5613 049e D9000000 		.4byte	0xd9
 5614 04a2 A8       		.byte	0xa8
 5615 04a3 0D       		.uleb128 0xd
 5616 04a4 8A080000 		.4byte	.LASF93
 5617 04a8 06       		.byte	0x6
 5618 04a9 79       		.byte	0x79
 5619 04aa AD000000 		.4byte	0xad
 5620 04ae AC       		.byte	0xac
 5621 04af 0D       		.uleb128 0xd
 5622 04b0 4C0C0000 		.4byte	.LASF94
 5623 04b4 06       		.byte	0x6
 5624 04b5 7A       		.byte	0x7a
 5625 04b6 AD000000 		.4byte	0xad
 5626 04ba AE       		.byte	0xae
 5627 04bb 0D       		.uleb128 0xd
 5628 04bc F3060000 		.4byte	.LASF95
 5629 04c0 06       		.byte	0x6
 5630 04c1 7B       		.byte	0x7b
 5631 04c2 AD000000 		.4byte	0xad
 5632 04c6 B0       		.byte	0xb0
 5633 04c7 0D       		.uleb128 0xd
 5634 04c8 A9010000 		.4byte	.LASF96
 5635 04cc 06       		.byte	0x6
 5636 04cd 7C       		.byte	0x7c
 5637 04ce D9000000 		.4byte	0xd9
 5638 04d2 B4       		.byte	0xb4
 5639 04d3 0D       		.uleb128 0xd
 5640 04d4 70020000 		.4byte	.LASF97
 5641 04d8 06       		.byte	0x6
 5642 04d9 7D       		.byte	0x7d
 5643 04da AD000000 		.4byte	0xad
 5644 04de B8       		.byte	0xb8
 5645 04df 0D       		.uleb128 0xd
 5646 04e0 57040000 		.4byte	.LASF98
 5647 04e4 06       		.byte	0x6
 5648 04e5 80       		.byte	0x80
 5649 04e6 88050000 		.4byte	0x588
 5650 04ea BA       		.byte	0xba
 5651 04eb 0D       		.uleb128 0xd
ARM GAS  C:\Users\JENNEW~1\AppData\Local\Temp\cc33Iuyf.s 			page 121


 5652 04ec A5090000 		.4byte	.LASF99
 5653 04f0 06       		.byte	0x6
 5654 04f1 81       		.byte	0x81
 5655 04f2 D9000000 		.4byte	0xd9
 5656 04f6 BC       		.byte	0xbc
 5657 04f7 0D       		.uleb128 0xd
 5658 04f8 AB090000 		.4byte	.LASF100
 5659 04fc 06       		.byte	0x6
 5660 04fd 82       		.byte	0x82
 5661 04fe D9000000 		.4byte	0xd9
 5662 0502 C0       		.byte	0xc0
 5663 0503 0D       		.uleb128 0xd
 5664 0504 B1090000 		.4byte	.LASF101
 5665 0508 06       		.byte	0x6
 5666 0509 83       		.byte	0x83
 5667 050a D9000000 		.4byte	0xd9
 5668 050e C4       		.byte	0xc4
 5669 050f 0D       		.uleb128 0xd
 5670 0510 3A040000 		.4byte	.LASF102
 5671 0514 06       		.byte	0x6
 5672 0515 84       		.byte	0x84
 5673 0516 D9000000 		.4byte	0xd9
 5674 051a C8       		.byte	0xc8
 5675 051b 0D       		.uleb128 0xd
 5676 051c 910E0000 		.4byte	.LASF103
 5677 0520 06       		.byte	0x6
 5678 0521 85       		.byte	0x85
 5679 0522 D9000000 		.4byte	0xd9
 5680 0526 CC       		.byte	0xcc
 5681 0527 0D       		.uleb128 0xd
 5682 0528 E1050000 		.4byte	.LASF104
 5683 052c 06       		.byte	0x6
 5684 052d 86       		.byte	0x86
 5685 052e D9000000 		.4byte	0xd9
 5686 0532 D0       		.byte	0xd0
 5687 0533 0D       		.uleb128 0xd
 5688 0534 EB050000 		.4byte	.LASF105
 5689 0538 06       		.byte	0x6
 5690 0539 87       		.byte	0x87
 5691 053a D9000000 		.4byte	0xd9
 5692 053e D4       		.byte	0xd4
 5693 053f 0D       		.uleb128 0xd
 5694 0540 F5050000 		.4byte	.LASF106
 5695 0544 06       		.byte	0x6
 5696 0545 88       		.byte	0x88
 5697 0546 D9000000 		.4byte	0xd9
 5698 054a D8       		.byte	0xd8
 5699 054b 0D       		.uleb128 0xd
 5700 054c 7D0D0000 		.4byte	.LASF107
 5701 0550 06       		.byte	0x6
 5702 0551 89       		.byte	0x89
 5703 0552 D9000000 		.4byte	0xd9
 5704 0556 DC       		.byte	0xdc
 5705 0557 0D       		.uleb128 0xd
 5706 0558 39000000 		.4byte	.LASF108
 5707 055c 06       		.byte	0x6
 5708 055d 94       		.byte	0x94
ARM GAS  C:\Users\JENNEW~1\AppData\Local\Temp\cc33Iuyf.s 			page 122


 5709 055e 88050000 		.4byte	0x588
 5710 0562 E0       		.byte	0xe0
 5711 0563 0D       		.uleb128 0xd
 5712 0564 0C0F0000 		.4byte	.LASF109
 5713 0568 06       		.byte	0x6
 5714 0569 95       		.byte	0x95
 5715 056a 88050000 		.4byte	0x588
 5716 056e E1       		.byte	0xe1
 5717 056f 0D       		.uleb128 0xd
 5718 0570 9D060000 		.4byte	.LASF110
 5719 0574 06       		.byte	0x6
 5720 0575 96       		.byte	0x96
 5721 0576 D9000000 		.4byte	0xd9
 5722 057a E4       		.byte	0xe4
 5723 057b 0D       		.uleb128 0xd
 5724 057c 1E060000 		.4byte	.LASF111
 5725 0580 06       		.byte	0x6
 5726 0581 97       		.byte	0x97
 5727 0582 AD000000 		.4byte	0xad
 5728 0586 E8       		.byte	0xe8
 5729 0587 00       		.byte	0
 5730 0588 02       		.uleb128 0x2
 5731 0589 01       		.byte	0x1
 5732 058a 02       		.byte	0x2
 5733 058b 97030000 		.4byte	.LASF112
 5734 058f 03       		.uleb128 0x3
 5735 0590 8A060000 		.4byte	.LASF113
 5736 0594 06       		.byte	0x6
 5737 0595 99       		.byte	0x99
 5738 0596 1F020000 		.4byte	0x21f
 5739 059a 11       		.uleb128 0x11
 5740 059b 0601     		.2byte	0x106
 5741 059d 07       		.byte	0x7
 5742 059e 22       		.byte	0x22
 5743 059f D7050000 		.4byte	0x5d7
 5744 05a3 0C       		.uleb128 0xc
 5745 05a4 62756600 		.ascii	"buf\000"
 5746 05a8 07       		.byte	0x7
 5747 05a9 23       		.byte	0x23
 5748 05aa E7050000 		.4byte	0x5e7
 5749 05ae 00       		.byte	0
 5750 05af 12       		.uleb128 0x12
 5751 05b0 AF020000 		.4byte	.LASF114
 5752 05b4 07       		.byte	0x7
 5753 05b5 24       		.byte	0x24
 5754 05b6 13010000 		.4byte	0x113
 5755 05ba 0001     		.2byte	0x100
 5756 05bc 12       		.uleb128 0x12
 5757 05bd 5F000000 		.4byte	.LASF115
 5758 05c1 07       		.byte	0x7
 5759 05c2 25       		.byte	0x25
 5760 05c3 13010000 		.4byte	0x113
 5761 05c7 0201     		.2byte	0x102
 5762 05c9 12       		.uleb128 0x12
 5763 05ca 740C0000 		.4byte	.LASF116
 5764 05ce 07       		.byte	0x7
 5765 05cf 26       		.byte	0x26
ARM GAS  C:\Users\JENNEW~1\AppData\Local\Temp\cc33Iuyf.s 			page 123


 5766 05d0 13010000 		.4byte	0x113
 5767 05d4 0401     		.2byte	0x104
 5768 05d6 00       		.byte	0
 5769 05d7 13       		.uleb128 0x13
 5770 05d8 0E010000 		.4byte	0x10e
 5771 05dc E7050000 		.4byte	0x5e7
 5772 05e0 14       		.uleb128 0x14
 5773 05e1 F5000000 		.4byte	0xf5
 5774 05e5 FF       		.byte	0xff
 5775 05e6 00       		.byte	0
 5776 05e7 08       		.uleb128 0x8
 5777 05e8 D7050000 		.4byte	0x5d7
 5778 05ec 03       		.uleb128 0x3
 5779 05ed 2D030000 		.4byte	.LASF117
 5780 05f1 07       		.byte	0x7
 5781 05f2 27       		.byte	0x27
 5782 05f3 9A050000 		.4byte	0x59a
 5783 05f7 0B       		.uleb128 0xb
 5784 05f8 18       		.byte	0x18
 5785 05f9 08       		.byte	0x8
 5786 05fa 2F       		.byte	0x2f
 5787 05fb 54060000 		.4byte	0x654
 5788 05ff 0D       		.uleb128 0xd
 5789 0600 E90D0000 		.4byte	.LASF118
 5790 0604 08       		.byte	0x8
 5791 0605 30       		.byte	0x30
 5792 0606 CE000000 		.4byte	0xce
 5793 060a 00       		.byte	0
 5794 060b 0D       		.uleb128 0xd
 5795 060c FD010000 		.4byte	.LASF119
 5796 0610 08       		.byte	0x8
 5797 0611 31       		.byte	0x31
 5798 0612 CE000000 		.4byte	0xce
 5799 0616 04       		.byte	0x4
 5800 0617 0D       		.uleb128 0xd
 5801 0618 65030000 		.4byte	.LASF120
 5802 061c 08       		.byte	0x8
 5803 061d 32       		.byte	0x32
 5804 061e CE000000 		.4byte	0xce
 5805 0622 08       		.byte	0x8
 5806 0623 0D       		.uleb128 0xd
 5807 0624 C6080000 		.4byte	.LASF121
 5808 0628 08       		.byte	0x8
 5809 0629 33       		.byte	0x33
 5810 062a CE000000 		.4byte	0xce
 5811 062e 0C       		.byte	0xc
 5812 062f 0D       		.uleb128 0xd
 5813 0630 33050000 		.4byte	.LASF122
 5814 0634 08       		.byte	0x8
 5815 0635 34       		.byte	0x34
 5816 0636 CE000000 		.4byte	0xce
 5817 063a 10       		.byte	0x10
 5818 063b 0D       		.uleb128 0xd
 5819 063c 06020000 		.4byte	.LASF123
 5820 0640 08       		.byte	0x8
 5821 0641 35       		.byte	0x35
 5822 0642 B8000000 		.4byte	0xb8
ARM GAS  C:\Users\JENNEW~1\AppData\Local\Temp\cc33Iuyf.s 			page 124


 5823 0646 14       		.byte	0x14
 5824 0647 0D       		.uleb128 0xd
 5825 0648 5A050000 		.4byte	.LASF124
 5826 064c 08       		.byte	0x8
 5827 064d 36       		.byte	0x36
 5828 064e A2000000 		.4byte	0xa2
 5829 0652 16       		.byte	0x16
 5830 0653 00       		.byte	0
 5831 0654 03       		.uleb128 0x3
 5832 0655 D4040000 		.4byte	.LASF125
 5833 0659 08       		.byte	0x8
 5834 065a 37       		.byte	0x37
 5835 065b F7050000 		.4byte	0x5f7
 5836 065f 11       		.uleb128 0x11
 5837 0660 8003     		.2byte	0x380
 5838 0662 08       		.byte	0x8
 5839 0663 3E       		.byte	0x3e
 5840 0664 1C070000 		.4byte	0x71c
 5841 0668 0C       		.uleb128 0xc
 5842 0669 68616C00 		.ascii	"hal\000"
 5843 066d 08       		.byte	0x8
 5844 066e 3F       		.byte	0x3f
 5845 066f 14020000 		.4byte	0x214
 5846 0673 00       		.byte	0
 5847 0674 0C       		.uleb128 0xc
 5848 0675 63746C00 		.ascii	"ctl\000"
 5849 0679 08       		.byte	0x8
 5850 067a 40       		.byte	0x40
 5851 067b B1010000 		.4byte	0x1b1
 5852 067f 0C       		.byte	0xc
 5853 0680 0D       		.uleb128 0xd
 5854 0681 260A0000 		.4byte	.LASF126
 5855 0685 08       		.byte	0x8
 5856 0686 41       		.byte	0x41
 5857 0687 8F050000 		.4byte	0x58f
 5858 068b 20       		.byte	0x20
 5859 068c 12       		.uleb128 0x12
 5860 068d 9A0D0000 		.4byte	.LASF127
 5861 0691 08       		.byte	0x8
 5862 0692 42       		.byte	0x42
 5863 0693 54060000 		.4byte	0x654
 5864 0697 0C01     		.2byte	0x10c
 5865 0699 12       		.uleb128 0x12
 5866 069a CD070000 		.4byte	.LASF128
 5867 069e 08       		.byte	0x8
 5868 069f 43       		.byte	0x43
 5869 06a0 EC050000 		.4byte	0x5ec
 5870 06a4 2401     		.2byte	0x124
 5871 06a6 12       		.uleb128 0x12
 5872 06a7 83020000 		.4byte	.LASF129
 5873 06ab 08       		.byte	0x8
 5874 06ac 44       		.byte	0x44
 5875 06ad EC050000 		.4byte	0x5ec
 5876 06b1 2A02     		.2byte	0x22a
 5877 06b3 12       		.uleb128 0x12
 5878 06b4 C2050000 		.4byte	.LASF130
 5879 06b8 08       		.byte	0x8
ARM GAS  C:\Users\JENNEW~1\AppData\Local\Temp\cc33Iuyf.s 			page 125


 5880 06b9 48       		.byte	0x48
 5881 06ba A2000000 		.4byte	0xa2
 5882 06be 3003     		.2byte	0x330
 5883 06c0 12       		.uleb128 0x12
 5884 06c1 470E0000 		.4byte	.LASF131
 5885 06c5 08       		.byte	0x8
 5886 06c6 4C       		.byte	0x4c
 5887 06c7 B8000000 		.4byte	0xb8
 5888 06cb 3203     		.2byte	0x332
 5889 06cd 12       		.uleb128 0x12
 5890 06ce 9A000000 		.4byte	.LASF132
 5891 06d2 08       		.byte	0x8
 5892 06d3 4D       		.byte	0x4d
 5893 06d4 CE000000 		.4byte	0xce
 5894 06d8 3403     		.2byte	0x334
 5895 06da 12       		.uleb128 0x12
 5896 06db 22010000 		.4byte	.LASF133
 5897 06df 08       		.byte	0x8
 5898 06e0 4E       		.byte	0x4e
 5899 06e1 88050000 		.4byte	0x588
 5900 06e5 3803     		.2byte	0x338
 5901 06e7 12       		.uleb128 0x12
 5902 06e8 69050000 		.4byte	.LASF134
 5903 06ec 08       		.byte	0x8
 5904 06ed 4F       		.byte	0x4f
 5905 06ee B8000000 		.4byte	0xb8
 5906 06f2 3A03     		.2byte	0x33a
 5907 06f4 12       		.uleb128 0x12
 5908 06f5 370C0000 		.4byte	.LASF135
 5909 06f9 08       		.byte	0x8
 5910 06fa 50       		.byte	0x50
 5911 06fb B8000000 		.4byte	0xb8
 5912 06ff 3C03     		.2byte	0x33c
 5913 0701 12       		.uleb128 0x12
 5914 0702 60020000 		.4byte	.LASF136
 5915 0706 08       		.byte	0x8
 5916 0707 51       		.byte	0x51
 5917 0708 1C070000 		.4byte	0x71c
 5918 070c 3E03     		.2byte	0x33e
 5919 070e 12       		.uleb128 0x12
 5920 070f 61080000 		.4byte	.LASF137
 5921 0713 08       		.byte	0x8
 5922 0714 54       		.byte	0x54
 5923 0715 A2000000 		.4byte	0xa2
 5924 0719 7E03     		.2byte	0x37e
 5925 071b 00       		.byte	0
 5926 071c 13       		.uleb128 0x13
 5927 071d A2000000 		.4byte	0xa2
 5928 0721 2C070000 		.4byte	0x72c
 5929 0725 14       		.uleb128 0x14
 5930 0726 F5000000 		.4byte	0xf5
 5931 072a 3F       		.byte	0x3f
 5932 072b 00       		.byte	0
 5933 072c 03       		.uleb128 0x3
 5934 072d 00000000 		.4byte	.LASF138
 5935 0731 08       		.byte	0x8
 5936 0732 56       		.byte	0x56
ARM GAS  C:\Users\JENNEW~1\AppData\Local\Temp\cc33Iuyf.s 			page 126


 5937 0733 5F060000 		.4byte	0x65f
 5938 0737 09       		.uleb128 0x9
 5939 0738 01       		.byte	0x1
 5940 0739 37000000 		.4byte	0x37
 5941 073d 09       		.byte	0x9
 5942 073e 38       		.byte	0x38
 5943 073f 56070000 		.4byte	0x756
 5944 0743 0A       		.uleb128 0xa
 5945 0744 E9060000 		.4byte	.LASF139
 5946 0748 00       		.byte	0
 5947 0749 0A       		.uleb128 0xa
 5948 074a 9A040000 		.4byte	.LASF140
 5949 074e 01       		.byte	0x1
 5950 074f 0A       		.uleb128 0xa
 5951 0750 9A090000 		.4byte	.LASF141
 5952 0754 02       		.byte	0x2
 5953 0755 00       		.byte	0
 5954 0756 03       		.uleb128 0x3
 5955 0757 CD090000 		.4byte	.LASF142
 5956 075b 09       		.byte	0x9
 5957 075c 3C       		.byte	0x3c
 5958 075d 37070000 		.4byte	0x737
 5959 0761 0B       		.uleb128 0xb
 5960 0762 08       		.byte	0x8
 5961 0763 09       		.byte	0x9
 5962 0764 50       		.byte	0x50
 5963 0765 74070000 		.4byte	0x774
 5964 0769 0C       		.uleb128 0xc
 5965 076a 7500     		.ascii	"u\000"
 5966 076c 09       		.byte	0x9
 5967 076d 51       		.byte	0x51
 5968 076e 74070000 		.4byte	0x774
 5969 0772 00       		.byte	0
 5970 0773 00       		.byte	0
 5971 0774 13       		.uleb128 0x13
 5972 0775 D9000000 		.4byte	0xd9
 5973 0779 84070000 		.4byte	0x784
 5974 077d 14       		.uleb128 0x14
 5975 077e F5000000 		.4byte	0xf5
 5976 0782 01       		.byte	0x1
 5977 0783 00       		.byte	0
 5978 0784 03       		.uleb128 0x3
 5979 0785 11100000 		.4byte	.LASF143
 5980 0789 09       		.byte	0x9
 5981 078a 52       		.byte	0x52
 5982 078b 61070000 		.4byte	0x761
 5983 078f 09       		.uleb128 0x9
 5984 0790 01       		.byte	0x1
 5985 0791 37000000 		.4byte	0x37
 5986 0795 0A       		.byte	0xa
 5987 0796 2F       		.byte	0x2f
 5988 0797 FC070000 		.4byte	0x7fc
 5989 079b 0A       		.uleb128 0xa
 5990 079c BA000000 		.4byte	.LASF144
 5991 07a0 00       		.byte	0
 5992 07a1 0A       		.uleb128 0xa
 5993 07a2 690F0000 		.4byte	.LASF145
ARM GAS  C:\Users\JENNEW~1\AppData\Local\Temp\cc33Iuyf.s 			page 127


 5994 07a6 01       		.byte	0x1
 5995 07a7 0A       		.uleb128 0xa
 5996 07a8 3F0A0000 		.4byte	.LASF146
 5997 07ac 02       		.byte	0x2
 5998 07ad 0A       		.uleb128 0xa
 5999 07ae 370D0000 		.4byte	.LASF147
 6000 07b2 03       		.byte	0x3
 6001 07b3 0A       		.uleb128 0xa
 6002 07b4 B1060000 		.4byte	.LASF148
 6003 07b8 04       		.byte	0x4
 6004 07b9 0A       		.uleb128 0xa
 6005 07ba 4D090000 		.4byte	.LASF149
 6006 07be 05       		.byte	0x5
 6007 07bf 0A       		.uleb128 0xa
 6008 07c0 83030000 		.4byte	.LASF150
 6009 07c4 06       		.byte	0x6
 6010 07c5 0A       		.uleb128 0xa
 6011 07c6 310B0000 		.4byte	.LASF151
 6012 07ca 07       		.byte	0x7
 6013 07cb 0A       		.uleb128 0xa
 6014 07cc 81000000 		.4byte	.LASF152
 6015 07d0 08       		.byte	0x8
 6016 07d1 0A       		.uleb128 0xa
 6017 07d2 53020000 		.4byte	.LASF153
 6018 07d6 09       		.byte	0x9
 6019 07d7 0A       		.uleb128 0xa
 6020 07d8 630A0000 		.4byte	.LASF154
 6021 07dc 0A       		.byte	0xa
 6022 07dd 0A       		.uleb128 0xa
 6023 07de 8E010000 		.4byte	.LASF155
 6024 07e2 0B       		.byte	0xb
 6025 07e3 0A       		.uleb128 0xa
 6026 07e4 8D030000 		.4byte	.LASF156
 6027 07e8 0C       		.byte	0xc
 6028 07e9 0A       		.uleb128 0xa
 6029 07ea 58030000 		.4byte	.LASF157
 6030 07ee 0D       		.byte	0xd
 6031 07ef 0A       		.uleb128 0xa
 6032 07f0 BB0D0000 		.4byte	.LASF158
 6033 07f4 0E       		.byte	0xe
 6034 07f5 0A       		.uleb128 0xa
 6035 07f6 D3070000 		.4byte	.LASF159
 6036 07fa 0F       		.byte	0xf
 6037 07fb 00       		.byte	0
 6038 07fc 03       		.uleb128 0x3
 6039 07fd B20E0000 		.4byte	.LASF160
 6040 0801 0A       		.byte	0xa
 6041 0802 3F       		.byte	0x3f
 6042 0803 8F070000 		.4byte	0x78f
 6043 0807 09       		.uleb128 0x9
 6044 0808 01       		.byte	0x1
 6045 0809 37000000 		.4byte	0x37
 6046 080d 0A       		.byte	0xa
 6047 080e 47       		.byte	0x47
 6048 080f 2C080000 		.4byte	0x82c
 6049 0813 0A       		.uleb128 0xa
 6050 0814 B2050000 		.4byte	.LASF161
ARM GAS  C:\Users\JENNEW~1\AppData\Local\Temp\cc33Iuyf.s 			page 128


 6051 0818 00       		.byte	0
 6052 0819 0A       		.uleb128 0xa
 6053 081a B4020000 		.4byte	.LASF162
 6054 081e 01       		.byte	0x1
 6055 081f 0A       		.uleb128 0xa
 6056 0820 9C010000 		.4byte	.LASF163
 6057 0824 02       		.byte	0x2
 6058 0825 0A       		.uleb128 0xa
 6059 0826 570B0000 		.4byte	.LASF164
 6060 082a 03       		.byte	0x3
 6061 082b 00       		.byte	0
 6062 082c 03       		.uleb128 0x3
 6063 082d 0A010000 		.4byte	.LASF165
 6064 0831 0A       		.byte	0xa
 6065 0832 4C       		.byte	0x4c
 6066 0833 07080000 		.4byte	0x807
 6067 0837 0B       		.uleb128 0xb
 6068 0838 90       		.byte	0x90
 6069 0839 0A       		.byte	0xa
 6070 083a 4F       		.byte	0x4f
 6071 083b 140A0000 		.4byte	0xa14
 6072 083f 0D       		.uleb128 0xd
 6073 0840 1F030000 		.4byte	.LASF166
 6074 0844 0A       		.byte	0xa
 6075 0845 51       		.byte	0x51
 6076 0846 140A0000 		.4byte	0xa14
 6077 084a 00       		.byte	0
 6078 084b 0D       		.uleb128 0xd
 6079 084c 63010000 		.4byte	.LASF167
 6080 0850 0A       		.byte	0xa
 6081 0851 54       		.byte	0x54
 6082 0852 FC070000 		.4byte	0x7fc
 6083 0856 04       		.byte	0x4
 6084 0857 0D       		.uleb128 0xd
 6085 0858 0C030000 		.4byte	.LASF168
 6086 085c 0A       		.byte	0xa
 6087 085d 55       		.byte	0x55
 6088 085e FC070000 		.4byte	0x7fc
 6089 0862 05       		.byte	0x5
 6090 0863 0D       		.uleb128 0xd
 6091 0864 16060000 		.4byte	.LASF169
 6092 0868 0A       		.byte	0xa
 6093 0869 58       		.byte	0x58
 6094 086a 2C080000 		.4byte	0x82c
 6095 086e 06       		.byte	0x6
 6096 086f 0D       		.uleb128 0xd
 6097 0870 480B0000 		.4byte	.LASF170
 6098 0874 0A       		.byte	0xa
 6099 0875 59       		.byte	0x59
 6100 0876 FE000000 		.4byte	0xfe
 6101 087a 08       		.byte	0x8
 6102 087b 0D       		.uleb128 0xd
 6103 087c 7C080000 		.4byte	.LASF171
 6104 0880 0A       		.byte	0xa
 6105 0881 5A       		.byte	0x5a
 6106 0882 A2000000 		.4byte	0xa2
 6107 0886 0C       		.byte	0xc
ARM GAS  C:\Users\JENNEW~1\AppData\Local\Temp\cc33Iuyf.s 			page 129


 6108 0887 0D       		.uleb128 0xd
 6109 0888 FD0E0000 		.4byte	.LASF172
 6110 088c 0A       		.byte	0xa
 6111 088d 61       		.byte	0x61
 6112 088e D9000000 		.4byte	0xd9
 6113 0892 10       		.byte	0x10
 6114 0893 0D       		.uleb128 0xd
 6115 0894 020D0000 		.4byte	.LASF173
 6116 0898 0A       		.byte	0xa
 6117 0899 62       		.byte	0x62
 6118 089a D9000000 		.4byte	0xd9
 6119 089e 14       		.byte	0x14
 6120 089f 0D       		.uleb128 0xd
 6121 08a0 C70A0000 		.4byte	.LASF174
 6122 08a4 0A       		.byte	0xa
 6123 08a5 67       		.byte	0x67
 6124 08a6 C3000000 		.4byte	0xc3
 6125 08aa 18       		.byte	0x18
 6126 08ab 0D       		.uleb128 0xd
 6127 08ac 5F0D0000 		.4byte	.LASF175
 6128 08b0 0A       		.byte	0xa
 6129 08b1 68       		.byte	0x68
 6130 08b2 C3000000 		.4byte	0xc3
 6131 08b6 1C       		.byte	0x1c
 6132 08b7 0D       		.uleb128 0xd
 6133 08b8 30010000 		.4byte	.LASF176
 6134 08bc 0A       		.byte	0xa
 6135 08bd 69       		.byte	0x69
 6136 08be C3000000 		.4byte	0xc3
 6137 08c2 20       		.byte	0x20
 6138 08c3 0D       		.uleb128 0xd
 6139 08c4 48040000 		.4byte	.LASF177
 6140 08c8 0A       		.byte	0xa
 6141 08c9 6A       		.byte	0x6a
 6142 08ca A2000000 		.4byte	0xa2
 6143 08ce 24       		.byte	0x24
 6144 08cf 0D       		.uleb128 0xd
 6145 08d0 8B000000 		.4byte	.LASF178
 6146 08d4 0A       		.byte	0xa
 6147 08d5 6B       		.byte	0x6b
 6148 08d6 A2000000 		.4byte	0xa2
 6149 08da 25       		.byte	0x25
 6150 08db 0D       		.uleb128 0xd
 6151 08dc BD020000 		.4byte	.LASF179
 6152 08e0 0A       		.byte	0xa
 6153 08e1 6E       		.byte	0x6e
 6154 08e2 C3000000 		.4byte	0xc3
 6155 08e6 28       		.byte	0x28
 6156 08e7 0D       		.uleb128 0xd
 6157 08e8 250E0000 		.4byte	.LASF180
 6158 08ec 0A       		.byte	0xa
 6159 08ed 6F       		.byte	0x6f
 6160 08ee C3000000 		.4byte	0xc3
 6161 08f2 2C       		.byte	0x2c
 6162 08f3 0D       		.uleb128 0xd
 6163 08f4 D8020000 		.4byte	.LASF181
 6164 08f8 0A       		.byte	0xa
ARM GAS  C:\Users\JENNEW~1\AppData\Local\Temp\cc33Iuyf.s 			page 130


 6165 08f9 70       		.byte	0x70
 6166 08fa C3000000 		.4byte	0xc3
 6167 08fe 30       		.byte	0x30
 6168 08ff 0D       		.uleb128 0xd
 6169 0900 210D0000 		.4byte	.LASF182
 6170 0904 0A       		.byte	0xa
 6171 0905 73       		.byte	0x73
 6172 0906 A2000000 		.4byte	0xa2
 6173 090a 34       		.byte	0x34
 6174 090b 0D       		.uleb128 0xd
 6175 090c 6F040000 		.4byte	.LASF183
 6176 0910 0A       		.byte	0xa
 6177 0911 74       		.byte	0x74
 6178 0912 D9000000 		.4byte	0xd9
 6179 0916 38       		.byte	0x38
 6180 0917 0D       		.uleb128 0xd
 6181 0918 980C0000 		.4byte	.LASF184
 6182 091c 0A       		.byte	0xa
 6183 091d 75       		.byte	0x75
 6184 091e D9000000 		.4byte	0xd9
 6185 0922 3C       		.byte	0x3c
 6186 0923 0D       		.uleb128 0xd
 6187 0924 E0000000 		.4byte	.LASF185
 6188 0928 0A       		.byte	0xa
 6189 0929 76       		.byte	0x76
 6190 092a CE000000 		.4byte	0xce
 6191 092e 40       		.byte	0x40
 6192 092f 0D       		.uleb128 0xd
 6193 0930 EA0C0000 		.4byte	.LASF186
 6194 0934 0A       		.byte	0xa
 6195 0935 79       		.byte	0x79
 6196 0936 D9000000 		.4byte	0xd9
 6197 093a 44       		.byte	0x44
 6198 093b 0D       		.uleb128 0xd
 6199 093c A1020000 		.4byte	.LASF187
 6200 0940 0A       		.byte	0xa
 6201 0941 7B       		.byte	0x7b
 6202 0942 AD000000 		.4byte	0xad
 6203 0946 48       		.byte	0x48
 6204 0947 0D       		.uleb128 0xd
 6205 0948 DC0C0000 		.4byte	.LASF188
 6206 094c 0A       		.byte	0xa
 6207 094d 7C       		.byte	0x7c
 6208 094e AD000000 		.4byte	0xad
 6209 0952 4A       		.byte	0x4a
 6210 0953 0D       		.uleb128 0xd
 6211 0954 120D0000 		.4byte	.LASF189
 6212 0958 0A       		.byte	0xa
 6213 0959 80       		.byte	0x80
 6214 095a D9000000 		.4byte	0xd9
 6215 095e 4C       		.byte	0x4c
 6216 095f 0D       		.uleb128 0xd
 6217 0960 9A050000 		.4byte	.LASF190
 6218 0964 0A       		.byte	0xa
 6219 0965 81       		.byte	0x81
 6220 0966 D9000000 		.4byte	0xd9
 6221 096a 50       		.byte	0x50
ARM GAS  C:\Users\JENNEW~1\AppData\Local\Temp\cc33Iuyf.s 			page 131


 6222 096b 0D       		.uleb128 0xd
 6223 096c 3B020000 		.4byte	.LASF191
 6224 0970 0A       		.byte	0xa
 6225 0971 82       		.byte	0x82
 6226 0972 A2000000 		.4byte	0xa2
 6227 0976 54       		.byte	0x54
 6228 0977 0D       		.uleb128 0xd
 6229 0978 FF050000 		.4byte	.LASF192
 6230 097c 0A       		.byte	0xa
 6231 097d 85       		.byte	0x85
 6232 097e CE000000 		.4byte	0xce
 6233 0982 58       		.byte	0x58
 6234 0983 0D       		.uleb128 0xd
 6235 0984 DC0D0000 		.4byte	.LASF193
 6236 0988 0A       		.byte	0xa
 6237 0989 86       		.byte	0x86
 6238 098a CE000000 		.4byte	0xce
 6239 098e 5C       		.byte	0x5c
 6240 098f 0D       		.uleb128 0xd
 6241 0990 1F0F0000 		.4byte	.LASF194
 6242 0994 0A       		.byte	0xa
 6243 0995 87       		.byte	0x87
 6244 0996 CE000000 		.4byte	0xce
 6245 099a 60       		.byte	0x60
 6246 099b 0D       		.uleb128 0xd
 6247 099c AE0B0000 		.4byte	.LASF195
 6248 09a0 0A       		.byte	0xa
 6249 09a1 88       		.byte	0x88
 6250 09a2 A2000000 		.4byte	0xa2
 6251 09a6 64       		.byte	0x64
 6252 09a7 0C       		.uleb128 0xc
 6253 09a8 636D6400 		.ascii	"cmd\000"
 6254 09ac 0A       		.byte	0xa
 6255 09ad 8B       		.byte	0x8b
 6256 09ae 84070000 		.4byte	0x784
 6257 09b2 68       		.byte	0x68
 6258 09b3 0D       		.uleb128 0xd
 6259 09b4 71010000 		.4byte	.LASF196
 6260 09b8 0A       		.byte	0xa
 6261 09b9 8C       		.byte	0x8c
 6262 09ba 56070000 		.4byte	0x756
 6263 09be 70       		.byte	0x70
 6264 09bf 0D       		.uleb128 0xd
 6265 09c0 610B0000 		.4byte	.LASF197
 6266 09c4 0A       		.byte	0xa
 6267 09c5 8D       		.byte	0x8d
 6268 09c6 CE000000 		.4byte	0xce
 6269 09ca 74       		.byte	0x74
 6270 09cb 0D       		.uleb128 0xd
 6271 09cc 1B100000 		.4byte	.LASF198
 6272 09d0 0A       		.byte	0xa
 6273 09d1 90       		.byte	0x90
 6274 09d2 A2000000 		.4byte	0xa2
 6275 09d6 78       		.byte	0x78
 6276 09d7 0D       		.uleb128 0xd
 6277 09d8 300A0000 		.4byte	.LASF199
 6278 09dc 0A       		.byte	0xa
ARM GAS  C:\Users\JENNEW~1\AppData\Local\Temp\cc33Iuyf.s 			page 132


 6279 09dd 91       		.byte	0x91
 6280 09de CE000000 		.4byte	0xce
 6281 09e2 7C       		.byte	0x7c
 6282 09e3 0D       		.uleb128 0xd
 6283 09e4 70030000 		.4byte	.LASF200
 6284 09e8 0A       		.byte	0xa
 6285 09e9 92       		.byte	0x92
 6286 09ea D9000000 		.4byte	0xd9
 6287 09ee 80       		.byte	0x80
 6288 09ef 0D       		.uleb128 0xd
 6289 09f0 390F0000 		.4byte	.LASF201
 6290 09f4 0A       		.byte	0xa
 6291 09f5 93       		.byte	0x93
 6292 09f6 D9000000 		.4byte	0xd9
 6293 09fa 84       		.byte	0x84
 6294 09fb 0D       		.uleb128 0xd
 6295 09fc CD060000 		.4byte	.LASF202
 6296 0a00 0A       		.byte	0xa
 6297 0a01 94       		.byte	0x94
 6298 0a02 D9000000 		.4byte	0xd9
 6299 0a06 88       		.byte	0x88
 6300 0a07 0D       		.uleb128 0xd
 6301 0a08 060E0000 		.4byte	.LASF203
 6302 0a0c 0A       		.byte	0xa
 6303 0a0d 95       		.byte	0x95
 6304 0a0e D9000000 		.4byte	0xd9
 6305 0a12 8C       		.byte	0x8c
 6306 0a13 00       		.byte	0
 6307 0a14 06       		.uleb128 0x6
 6308 0a15 04       		.byte	0x4
 6309 0a16 2C070000 		.4byte	0x72c
 6310 0a1a 03       		.uleb128 0x3
 6311 0a1b A9030000 		.4byte	.LASF204
 6312 0a1f 0A       		.byte	0xa
 6313 0a20 97       		.byte	0x97
 6314 0a21 37080000 		.4byte	0x837
 6315 0a25 0B       		.uleb128 0xb
 6316 0a26 0C       		.byte	0xc
 6317 0a27 0B       		.byte	0xb
 6318 0a28 33       		.byte	0x33
 6319 0a29 680A0000 		.4byte	0xa68
 6320 0a2d 0D       		.uleb128 0xd
 6321 0a2e 6F0C0000 		.4byte	.LASF205
 6322 0a32 0B       		.byte	0xb
 6323 0a33 34       		.byte	0x34
 6324 0a34 CE000000 		.4byte	0xce
 6325 0a38 00       		.byte	0
 6326 0a39 0C       		.uleb128 0xc
 6327 0a3a 637800   		.ascii	"cx\000"
 6328 0a3d 0B       		.byte	0xb
 6329 0a3e 35       		.byte	0x35
 6330 0a3f AD000000 		.4byte	0xad
 6331 0a43 04       		.byte	0x4
 6332 0a44 0C       		.uleb128 0xc
 6333 0a45 637900   		.ascii	"cy\000"
 6334 0a48 0B       		.byte	0xb
 6335 0a49 35       		.byte	0x35
ARM GAS  C:\Users\JENNEW~1\AppData\Local\Temp\cc33Iuyf.s 			page 133


 6336 0a4a AD000000 		.4byte	0xad
 6337 0a4e 06       		.byte	0x6
 6338 0a4f 0D       		.uleb128 0xd
 6339 0a50 36100000 		.4byte	.LASF206
 6340 0a54 0B       		.byte	0xb
 6341 0a55 36       		.byte	0x36
 6342 0a56 B8000000 		.4byte	0xb8
 6343 0a5a 08       		.byte	0x8
 6344 0a5b 0D       		.uleb128 0xd
 6345 0a5c 84060000 		.4byte	.LASF207
 6346 0a60 0B       		.byte	0xb
 6347 0a61 36       		.byte	0x36
 6348 0a62 B8000000 		.4byte	0xb8
 6349 0a66 0A       		.byte	0xa
 6350 0a67 00       		.byte	0
 6351 0a68 03       		.uleb128 0x3
 6352 0a69 29090000 		.4byte	.LASF208
 6353 0a6d 0B       		.byte	0xb
 6354 0a6e 37       		.byte	0x37
 6355 0a6f 250A0000 		.4byte	0xa25
 6356 0a73 0B       		.uleb128 0xb
 6357 0a74 01       		.byte	0x1
 6358 0a75 0B       		.byte	0xb
 6359 0a76 3A       		.byte	0x3a
 6360 0a77 880A0000 		.4byte	0xa88
 6361 0a7b 0D       		.uleb128 0xd
 6362 0a7c 8F0A0000 		.4byte	.LASF209
 6363 0a80 0B       		.byte	0xb
 6364 0a81 3B       		.byte	0x3b
 6365 0a82 A2000000 		.4byte	0xa2
 6366 0a86 00       		.byte	0
 6367 0a87 00       		.byte	0
 6368 0a88 03       		.uleb128 0x3
 6369 0a89 C7000000 		.4byte	.LASF210
 6370 0a8d 0B       		.byte	0xb
 6371 0a8e 3C       		.byte	0x3c
 6372 0a8f 730A0000 		.4byte	0xa73
 6373 0a93 0B       		.uleb128 0xb
 6374 0a94 0C       		.byte	0xc
 6375 0a95 0B       		.byte	0xb
 6376 0a96 3F       		.byte	0x3f
 6377 0a97 C00A0000 		.4byte	0xac0
 6378 0a9b 0D       		.uleb128 0xd
 6379 0a9c 69010000 		.4byte	.LASF211
 6380 0aa0 0B       		.byte	0xb
 6381 0aa1 40       		.byte	0x40
 6382 0aa2 C3000000 		.4byte	0xc3
 6383 0aa6 00       		.byte	0
 6384 0aa7 0D       		.uleb128 0xd
 6385 0aa8 360E0000 		.4byte	.LASF212
 6386 0aac 0B       		.byte	0xb
 6387 0aad 41       		.byte	0x41
 6388 0aae C3000000 		.4byte	0xc3
 6389 0ab2 04       		.byte	0x4
 6390 0ab3 0D       		.uleb128 0xd
 6391 0ab4 ED0B0000 		.4byte	.LASF213
 6392 0ab8 0B       		.byte	0xb
ARM GAS  C:\Users\JENNEW~1\AppData\Local\Temp\cc33Iuyf.s 			page 134


 6393 0ab9 42       		.byte	0x42
 6394 0aba C3000000 		.4byte	0xc3
 6395 0abe 08       		.byte	0x8
 6396 0abf 00       		.byte	0
 6397 0ac0 03       		.uleb128 0x3
 6398 0ac1 F40F0000 		.4byte	.LASF214
 6399 0ac5 0B       		.byte	0xb
 6400 0ac6 43       		.byte	0x43
 6401 0ac7 930A0000 		.4byte	0xa93
 6402 0acb 03       		.uleb128 0x3
 6403 0acc 4D0F0000 		.4byte	.LASF215
 6404 0ad0 01       		.byte	0x1
 6405 0ad1 58       		.byte	0x58
 6406 0ad2 D60A0000 		.4byte	0xad6
 6407 0ad6 06       		.uleb128 0x6
 6408 0ad7 04       		.byte	0x4
 6409 0ad8 DC0A0000 		.4byte	0xadc
 6410 0adc 0E       		.uleb128 0xe
 6411 0add E70A0000 		.4byte	0xae7
 6412 0ae1 0F       		.uleb128 0xf
 6413 0ae2 E70A0000 		.4byte	0xae7
 6414 0ae6 00       		.byte	0
 6415 0ae7 06       		.uleb128 0x6
 6416 0ae8 04       		.byte	0x4
 6417 0ae9 1A0A0000 		.4byte	0xa1a
 6418 0aed 03       		.uleb128 0x3
 6419 0aee E0080000 		.4byte	.LASF216
 6420 0af2 01       		.byte	0x1
 6421 0af3 59       		.byte	0x59
 6422 0af4 F80A0000 		.4byte	0xaf8
 6423 0af8 06       		.uleb128 0x6
 6424 0af9 04       		.byte	0x4
 6425 0afa FE0A0000 		.4byte	0xafe
 6426 0afe 10       		.uleb128 0x10
 6427 0aff A2000000 		.4byte	0xa2
 6428 0b03 120B0000 		.4byte	0xb12
 6429 0b07 0F       		.uleb128 0xf
 6430 0b08 E70A0000 		.4byte	0xae7
 6431 0b0c 0F       		.uleb128 0xf
 6432 0b0d E7000000 		.4byte	0xe7
 6433 0b11 00       		.byte	0
 6434 0b12 03       		.uleb128 0x3
 6435 0b13 730A0000 		.4byte	.LASF217
 6436 0b17 01       		.byte	0x1
 6437 0b18 5A       		.byte	0x5a
 6438 0b19 1D0B0000 		.4byte	0xb1d
 6439 0b1d 06       		.uleb128 0x6
 6440 0b1e 04       		.byte	0x4
 6441 0b1f 230B0000 		.4byte	0xb23
 6442 0b23 0E       		.uleb128 0xe
 6443 0b24 330B0000 		.4byte	0xb33
 6444 0b28 0F       		.uleb128 0xf
 6445 0b29 330B0000 		.4byte	0xb33
 6446 0b2d 0F       		.uleb128 0xf
 6447 0b2e 3E0B0000 		.4byte	0xb3e
 6448 0b32 00       		.byte	0
 6449 0b33 06       		.uleb128 0x6
ARM GAS  C:\Users\JENNEW~1\AppData\Local\Temp\cc33Iuyf.s 			page 135


 6450 0b34 04       		.byte	0x4
 6451 0b35 390B0000 		.4byte	0xb39
 6452 0b39 07       		.uleb128 0x7
 6453 0b3a 1A0A0000 		.4byte	0xa1a
 6454 0b3e 06       		.uleb128 0x6
 6455 0b3f 04       		.byte	0x4
 6456 0b40 B1010000 		.4byte	0x1b1
 6457 0b44 15       		.uleb128 0x15
 6458 0b45 560D0000 		.4byte	.LASF218
 6459 0b49 01       		.byte	0x1
 6460 0b4a CD       		.byte	0xcd
 6461 0b4b A2000000 		.4byte	0xa2
 6462 0b4f 00000000 		.4byte	.LFB64
 6463 0b53 34000000 		.4byte	.LFE64-.LFB64
 6464 0b57 01       		.uleb128 0x1
 6465 0b58 9C       		.byte	0x9c
 6466 0b59 760B0000 		.4byte	0xb76
 6467 0b5d 16       		.uleb128 0x16
 6468 0b5e 7300     		.ascii	"s\000"
 6469 0b60 01       		.byte	0x1
 6470 0b61 CD       		.byte	0xcd
 6471 0b62 FC070000 		.4byte	0x7fc
 6472 0b66 02       		.uleb128 0x2
 6473 0b67 91       		.byte	0x91
 6474 0b68 6F       		.sleb128 -17
 6475 0b69 17       		.uleb128 0x17
 6476 0b6a 6400     		.ascii	"d\000"
 6477 0b6c 01       		.byte	0x1
 6478 0b6d CF       		.byte	0xcf
 6479 0b6e A2000000 		.4byte	0xa2
 6480 0b72 02       		.uleb128 0x2
 6481 0b73 91       		.byte	0x91
 6482 0b74 77       		.sleb128 -9
 6483 0b75 00       		.byte	0
 6484 0b76 18       		.uleb128 0x18
 6485 0b77 6C636100 		.ascii	"lca\000"
 6486 0b7b 01       		.byte	0x1
 6487 0b7c D4       		.byte	0xd4
 6488 0b7d FC070000 		.4byte	0x7fc
 6489 0b81 00000000 		.4byte	.LFB65
 6490 0b85 80000000 		.4byte	.LFE65-.LFB65
 6491 0b89 01       		.uleb128 0x1
 6492 0b8a 9C       		.byte	0x9c
 6493 0b8b C20B0000 		.4byte	0xbc2
 6494 0b8f 16       		.uleb128 0x16
 6495 0b90 6100     		.ascii	"a\000"
 6496 0b92 01       		.byte	0x1
 6497 0b93 D4       		.byte	0xd4
 6498 0b94 FC070000 		.4byte	0x7fc
 6499 0b98 02       		.uleb128 0x2
 6500 0b99 91       		.byte	0x91
 6501 0b9a 6F       		.sleb128 -17
 6502 0b9b 16       		.uleb128 0x16
 6503 0b9c 6200     		.ascii	"b\000"
 6504 0b9e 01       		.byte	0x1
 6505 0b9f D4       		.byte	0xd4
 6506 0ba0 FC070000 		.4byte	0x7fc
ARM GAS  C:\Users\JENNEW~1\AppData\Local\Temp\cc33Iuyf.s 			page 136


 6507 0ba4 02       		.uleb128 0x2
 6508 0ba5 91       		.byte	0x91
 6509 0ba6 6E       		.sleb128 -18
 6510 0ba7 17       		.uleb128 0x17
 6511 0ba8 646100   		.ascii	"da\000"
 6512 0bab 01       		.byte	0x1
 6513 0bac D6       		.byte	0xd6
 6514 0bad A2000000 		.4byte	0xa2
 6515 0bb1 02       		.uleb128 0x2
 6516 0bb2 91       		.byte	0x91
 6517 0bb3 77       		.sleb128 -9
 6518 0bb4 17       		.uleb128 0x17
 6519 0bb5 646200   		.ascii	"db\000"
 6520 0bb8 01       		.byte	0x1
 6521 0bb9 D6       		.byte	0xd6
 6522 0bba A2000000 		.4byte	0xa2
 6523 0bbe 02       		.uleb128 0x2
 6524 0bbf 91       		.byte	0x91
 6525 0bc0 76       		.sleb128 -10
 6526 0bc1 00       		.byte	0
 6527 0bc2 19       		.uleb128 0x19
 6528 0bc3 2E000000 		.4byte	.LASF227
 6529 0bc7 01       		.byte	0x1
 6530 0bc8 E2       		.byte	0xe2
 6531 0bc9 00000000 		.4byte	.LFB66
 6532 0bcd F0000000 		.4byte	.LFE66-.LFB66
 6533 0bd1 01       		.uleb128 0x1
 6534 0bd2 9C       		.byte	0x9c
 6535 0bd3 5A0C0000 		.4byte	0xc5a
 6536 0bd7 16       		.uleb128 0x16
 6537 0bd8 63747800 		.ascii	"ctx\000"
 6538 0bdc 01       		.byte	0x1
 6539 0bdd E2       		.byte	0xe2
 6540 0bde E70A0000 		.4byte	0xae7
 6541 0be2 02       		.uleb128 0x2
 6542 0be3 91       		.byte	0x91
 6543 0be4 64       		.sleb128 -28
 6544 0be5 1A       		.uleb128 0x1a
 6545 0be6 59060000 		.4byte	.LASF219
 6546 0bea 01       		.byte	0x1
 6547 0beb E2       		.byte	0xe2
 6548 0bec FC070000 		.4byte	0x7fc
 6549 0bf0 02       		.uleb128 0x2
 6550 0bf1 91       		.byte	0x91
 6551 0bf2 63       		.sleb128 -29
 6552 0bf3 17       		.uleb128 0x17
 6553 0bf4 73726300 		.ascii	"src\000"
 6554 0bf8 01       		.byte	0x1
 6555 0bf9 E5       		.byte	0xe5
 6556 0bfa FC070000 		.4byte	0x7fc
 6557 0bfe 02       		.uleb128 0x2
 6558 0bff 91       		.byte	0x91
 6559 0c00 74       		.sleb128 -12
 6560 0c01 1B       		.uleb128 0x1b
 6561 0c02 BB050000 		.4byte	.LASF220
 6562 0c06 01       		.byte	0x1
 6563 0c07 E9       		.byte	0xe9
ARM GAS  C:\Users\JENNEW~1\AppData\Local\Temp\cc33Iuyf.s 			page 137


 6564 0c08 FC070000 		.4byte	0x7fc
 6565 0c0c 02       		.uleb128 0x2
 6566 0c0d 91       		.byte	0x91
 6567 0c0e 73       		.sleb128 -13
 6568 0c0f 1B       		.uleb128 0x1b
 6569 0c10 DB000000 		.4byte	.LASF221
 6570 0c14 01       		.byte	0x1
 6571 0c15 F4       		.byte	0xf4
 6572 0c16 5A0C0000 		.4byte	0xc5a
 6573 0c1a 02       		.uleb128 0x2
 6574 0c1b 91       		.byte	0x91
 6575 0c1c 6C       		.sleb128 -20
 6576 0c1d 17       		.uleb128 0x17
 6577 0c1e 6E00     		.ascii	"n\000"
 6578 0c20 01       		.byte	0x1
 6579 0c21 F5       		.byte	0xf5
 6580 0c22 A2000000 		.4byte	0xa2
 6581 0c26 02       		.uleb128 0x2
 6582 0c27 91       		.byte	0x91
 6583 0c28 76       		.sleb128 -10
 6584 0c29 1C       		.uleb128 0x1c
 6585 0c2a 2A000000 		.4byte	.LBB2
 6586 0c2e 2E000000 		.4byte	.LBE2-.LBB2
 6587 0c32 430C0000 		.4byte	0xc43
 6588 0c36 17       		.uleb128 0x17
 6589 0c37 7300     		.ascii	"s\000"
 6590 0c39 01       		.byte	0x1
 6591 0c3a ED       		.byte	0xed
 6592 0c3b FC070000 		.4byte	0x7fc
 6593 0c3f 02       		.uleb128 0x2
 6594 0c40 91       		.byte	0x91
 6595 0c41 77       		.sleb128 -9
 6596 0c42 00       		.byte	0
 6597 0c43 1D       		.uleb128 0x1d
 6598 0c44 62000000 		.4byte	.LBB3
 6599 0c48 28000000 		.4byte	.LBE3-.LBB3
 6600 0c4c 17       		.uleb128 0x17
 6601 0c4d 7300     		.ascii	"s\000"
 6602 0c4f 01       		.byte	0x1
 6603 0c50 F6       		.byte	0xf6
 6604 0c51 FC070000 		.4byte	0x7fc
 6605 0c55 02       		.uleb128 0x2
 6606 0c56 91       		.byte	0x91
 6607 0c57 75       		.sleb128 -11
 6608 0c58 00       		.byte	0
 6609 0c59 00       		.byte	0
 6610 0c5a 13       		.uleb128 0x13
 6611 0c5b FC070000 		.4byte	0x7fc
 6612 0c5f 6A0C0000 		.4byte	0xc6a
 6613 0c63 14       		.uleb128 0x14
 6614 0c64 F5000000 		.4byte	0xf5
 6615 0c68 03       		.byte	0x3
 6616 0c69 00       		.byte	0
 6617 0c6a 1E       		.uleb128 0x1e
 6618 0c6b 7A0C0000 		.4byte	.LASF222
 6619 0c6f 01       		.byte	0x1
 6620 0c70 0301     		.2byte	0x103
ARM GAS  C:\Users\JENNEW~1\AppData\Local\Temp\cc33Iuyf.s 			page 138


 6621 0c72 00000000 		.4byte	.LFB67
 6622 0c76 26000000 		.4byte	.LFE67-.LFB67
 6623 0c7a 01       		.uleb128 0x1
 6624 0c7b 9C       		.byte	0x9c
 6625 0c7c 9F0C0000 		.4byte	0xc9f
 6626 0c80 1F       		.uleb128 0x1f
 6627 0c81 63747800 		.ascii	"ctx\000"
 6628 0c85 01       		.byte	0x1
 6629 0c86 0301     		.2byte	0x103
 6630 0c88 E70A0000 		.4byte	0xae7
 6631 0c8c 02       		.uleb128 0x2
 6632 0c8d 91       		.byte	0x91
 6633 0c8e 6C       		.sleb128 -20
 6634 0c8f 20       		.uleb128 0x20
 6635 0c90 59060000 		.4byte	.LASF219
 6636 0c94 01       		.byte	0x1
 6637 0c95 0601     		.2byte	0x106
 6638 0c97 FC070000 		.4byte	0x7fc
 6639 0c9b 02       		.uleb128 0x2
 6640 0c9c 91       		.byte	0x91
 6641 0c9d 77       		.sleb128 -9
 6642 0c9e 00       		.byte	0
 6643 0c9f 1E       		.uleb128 0x1e
 6644 0ca0 D1050000 		.4byte	.LASF223
 6645 0ca4 01       		.byte	0x1
 6646 0ca5 0C01     		.2byte	0x10c
 6647 0ca7 00000000 		.4byte	.LFB68
 6648 0cab 68000000 		.4byte	.LFE68-.LFB68
 6649 0caf 01       		.uleb128 0x1
 6650 0cb0 9C       		.byte	0x9c
 6651 0cb1 E30C0000 		.4byte	0xce3
 6652 0cb5 1F       		.uleb128 0x1f
 6653 0cb6 63747800 		.ascii	"ctx\000"
 6654 0cba 01       		.byte	0x1
 6655 0cbb 0C01     		.2byte	0x10c
 6656 0cbd E70A0000 		.4byte	0xae7
 6657 0cc1 02       		.uleb128 0x2
 6658 0cc2 91       		.byte	0x91
 6659 0cc3 74       		.sleb128 -12
 6660 0cc4 1F       		.uleb128 0x1f
 6661 0cc5 73657600 		.ascii	"sev\000"
 6662 0cc9 01       		.byte	0x1
 6663 0cca 0C01     		.2byte	0x10c
 6664 0ccc 2C080000 		.4byte	0x82c
 6665 0cd0 02       		.uleb128 0x2
 6666 0cd1 91       		.byte	0x91
 6667 0cd2 73       		.sleb128 -13
 6668 0cd3 1F       		.uleb128 0x1f
 6669 0cd4 6D736700 		.ascii	"msg\000"
 6670 0cd8 01       		.byte	0x1
 6671 0cd9 0C01     		.2byte	0x10c
 6672 0cdb FE000000 		.4byte	0xfe
 6673 0cdf 02       		.uleb128 0x2
 6674 0ce0 91       		.byte	0x91
 6675 0ce1 6C       		.sleb128 -20
 6676 0ce2 00       		.byte	0
 6677 0ce3 21       		.uleb128 0x21
ARM GAS  C:\Users\JENNEW~1\AppData\Local\Temp\cc33Iuyf.s 			page 139


 6678 0ce4 F3000000 		.4byte	.LASF286
 6679 0ce8 01       		.byte	0x1
 6680 0ce9 3101     		.2byte	0x131
 6681 0ceb FE000000 		.4byte	0xfe
 6682 0cef 00000000 		.4byte	.LFB69
 6683 0cf3 20000000 		.4byte	.LFE69-.LFB69
 6684 0cf7 01       		.uleb128 0x1
 6685 0cf8 9C       		.byte	0x9c
 6686 0cf9 0B0D0000 		.4byte	0xd0b
 6687 0cfd 1F       		.uleb128 0x1f
 6688 0cfe 7300     		.ascii	"s\000"
 6689 0d00 01       		.byte	0x1
 6690 0d01 3101     		.2byte	0x131
 6691 0d03 FC070000 		.4byte	0x7fc
 6692 0d07 02       		.uleb128 0x2
 6693 0d08 91       		.byte	0x91
 6694 0d09 77       		.sleb128 -9
 6695 0d0a 00       		.byte	0
 6696 0d0b 1E       		.uleb128 0x1e
 6697 0d0c 50000000 		.4byte	.LASF224
 6698 0d10 01       		.byte	0x1
 6699 0d11 3401     		.2byte	0x134
 6700 0d13 00000000 		.4byte	.LFB70
 6701 0d17 80000000 		.4byte	.LFE70-.LFB70
 6702 0d1b 01       		.uleb128 0x1
 6703 0d1c 9C       		.byte	0x9c
 6704 0d1d 550D0000 		.4byte	0xd55
 6705 0d21 1F       		.uleb128 0x1f
 6706 0d22 63747800 		.ascii	"ctx\000"
 6707 0d26 01       		.byte	0x1
 6708 0d27 3401     		.2byte	0x134
 6709 0d29 E70A0000 		.4byte	0xae7
 6710 0d2d 02       		.uleb128 0x2
 6711 0d2e 91       		.byte	0x91
 6712 0d2f 74       		.sleb128 -12
 6713 0d30 20       		.uleb128 0x20
 6714 0d31 B40C0000 		.4byte	.LASF225
 6715 0d35 01       		.byte	0x1
 6716 0d36 3901     		.2byte	0x139
 6717 0d38 CE000000 		.4byte	0xce
 6718 0d3c 05       		.uleb128 0x5
 6719 0d3d 03       		.byte	0x3
 6720 0d3e 00000000 		.4byte	last_hot_ms.8190
 6721 0d42 20       		.uleb128 0x20
 6722 0d43 06040000 		.4byte	.LASF226
 6723 0d47 01       		.byte	0x1
 6724 0d48 3A01     		.2byte	0x13a
 6725 0d4a CE000000 		.4byte	0xce
 6726 0d4e 05       		.uleb128 0x5
 6727 0d4f 03       		.byte	0x3
 6728 0d50 04000000 		.4byte	last_link_ms.8191
 6729 0d54 00       		.byte	0
 6730 0d55 22       		.uleb128 0x22
 6731 0d56 39030000 		.4byte	.LASF228
 6732 0d5a 01       		.byte	0x1
 6733 0d5b 5001     		.2byte	0x150
 6734 0d5d 00000000 		.4byte	.LFB71
ARM GAS  C:\Users\JENNEW~1\AppData\Local\Temp\cc33Iuyf.s 			page 140


 6735 0d61 1C000000 		.4byte	.LFE71-.LFB71
 6736 0d65 01       		.uleb128 0x1
 6737 0d66 9C       		.byte	0x9c
 6738 0d67 7B0D0000 		.4byte	0xd7b
 6739 0d6b 1F       		.uleb128 0x1f
 6740 0d6c 63747800 		.ascii	"ctx\000"
 6741 0d70 01       		.byte	0x1
 6742 0d71 5001     		.2byte	0x150
 6743 0d73 E70A0000 		.4byte	0xae7
 6744 0d77 02       		.uleb128 0x2
 6745 0d78 91       		.byte	0x91
 6746 0d79 74       		.sleb128 -12
 6747 0d7a 00       		.byte	0
 6748 0d7b 22       		.uleb128 0x22
 6749 0d7c 71000000 		.4byte	.LASF229
 6750 0d80 01       		.byte	0x1
 6751 0d81 5A01     		.2byte	0x15a
 6752 0d83 00000000 		.4byte	.LFB72
 6753 0d87 1C000000 		.4byte	.LFE72-.LFB72
 6754 0d8b 01       		.uleb128 0x1
 6755 0d8c 9C       		.byte	0x9c
 6756 0d8d A10D0000 		.4byte	0xda1
 6757 0d91 1F       		.uleb128 0x1f
 6758 0d92 63747800 		.ascii	"ctx\000"
 6759 0d96 01       		.byte	0x1
 6760 0d97 5A01     		.2byte	0x15a
 6761 0d99 E70A0000 		.4byte	0xae7
 6762 0d9d 02       		.uleb128 0x2
 6763 0d9e 91       		.byte	0x91
 6764 0d9f 74       		.sleb128 -12
 6765 0da0 00       		.byte	0
 6766 0da1 22       		.uleb128 0x22
 6767 0da2 1E020000 		.4byte	.LASF230
 6768 0da6 01       		.byte	0x1
 6769 0da7 6801     		.2byte	0x168
 6770 0da9 00000000 		.4byte	.LFB73
 6771 0dad 1C000000 		.4byte	.LFE73-.LFB73
 6772 0db1 01       		.uleb128 0x1
 6773 0db2 9C       		.byte	0x9c
 6774 0db3 C70D0000 		.4byte	0xdc7
 6775 0db7 1F       		.uleb128 0x1f
 6776 0db8 63747800 		.ascii	"ctx\000"
 6777 0dbc 01       		.byte	0x1
 6778 0dbd 6801     		.2byte	0x168
 6779 0dbf E70A0000 		.4byte	0xae7
 6780 0dc3 02       		.uleb128 0x2
 6781 0dc4 91       		.byte	0x91
 6782 0dc5 74       		.sleb128 -12
 6783 0dc6 00       		.byte	0
 6784 0dc7 23       		.uleb128 0x23
 6785 0dc8 E8040000 		.4byte	.LASF231
 6786 0dcc 01       		.byte	0x1
 6787 0dcd 6E01     		.2byte	0x16e
 6788 0dcf 00000000 		.4byte	.LFB74
 6789 0dd3 1A000000 		.4byte	.LFE74-.LFB74
 6790 0dd7 01       		.uleb128 0x1
 6791 0dd8 9C       		.byte	0x9c
ARM GAS  C:\Users\JENNEW~1\AppData\Local\Temp\cc33Iuyf.s 			page 141


 6792 0dd9 ED0D0000 		.4byte	0xded
 6793 0ddd 1F       		.uleb128 0x1f
 6794 0dde 63747800 		.ascii	"ctx\000"
 6795 0de2 01       		.byte	0x1
 6796 0de3 6E01     		.2byte	0x16e
 6797 0de5 E70A0000 		.4byte	0xae7
 6798 0de9 02       		.uleb128 0x2
 6799 0dea 91       		.byte	0x91
 6800 0deb 74       		.sleb128 -12
 6801 0dec 00       		.byte	0
 6802 0ded 1E       		.uleb128 0x1e
 6803 0dee B90A0000 		.4byte	.LASF232
 6804 0df2 01       		.byte	0x1
 6805 0df3 7701     		.2byte	0x177
 6806 0df5 00000000 		.4byte	.LFB75
 6807 0df9 E0010000 		.4byte	.LFE75-.LFB75
 6808 0dfd 01       		.uleb128 0x1
 6809 0dfe 9C       		.byte	0x9c
 6810 0dff D80E0000 		.4byte	0xed8
 6811 0e03 1F       		.uleb128 0x1f
 6812 0e04 63747800 		.ascii	"ctx\000"
 6813 0e08 01       		.byte	0x1
 6814 0e09 7701     		.2byte	0x177
 6815 0e0b E70A0000 		.4byte	0xae7
 6816 0e0f 03       		.uleb128 0x3
 6817 0e10 91       		.byte	0x91
 6818 0e11 C47E     		.sleb128 -188
 6819 0e13 24       		.uleb128 0x24
 6820 0e14 00000000 		.4byte	.Ldebug_ranges0+0
 6821 0e18 5F0E0000 		.4byte	0xe5f
 6822 0e1c 20       		.uleb128 0x20
 6823 0e1d A4040000 		.4byte	.LASF233
 6824 0e21 01       		.byte	0x1
 6825 0e22 7B01     		.2byte	0x17b
 6826 0e24 CE000000 		.4byte	0xce
 6827 0e28 02       		.uleb128 0x2
 6828 0e29 91       		.byte	0x91
 6829 0e2a 60       		.sleb128 -32
 6830 0e2b 1D       		.uleb128 0x1d
 6831 0e2c 32000000 		.4byte	.LBB5
 6832 0e30 94000000 		.4byte	.LBE5-.LBB5
 6833 0e34 25       		.uleb128 0x25
 6834 0e35 7000     		.ascii	"p\000"
 6835 0e37 01       		.byte	0x1
 6836 0e38 7D01     		.2byte	0x17d
 6837 0e3a D9000000 		.4byte	0xd9
 6838 0e3e 02       		.uleb128 0x2
 6839 0e3f 91       		.byte	0x91
 6840 0e40 5C       		.sleb128 -36
 6841 0e41 25       		.uleb128 0x25
 6842 0e42 7400     		.ascii	"t\000"
 6843 0e44 01       		.byte	0x1
 6844 0e45 7D01     		.2byte	0x17d
 6845 0e47 D9000000 		.4byte	0xd9
 6846 0e4b 02       		.uleb128 0x2
 6847 0e4c 91       		.byte	0x91
 6848 0e4d 58       		.sleb128 -40
ARM GAS  C:\Users\JENNEW~1\AppData\Local\Temp\cc33Iuyf.s 			page 142


 6849 0e4e 20       		.uleb128 0x20
 6850 0e4f 540E0000 		.4byte	.LASF234
 6851 0e53 01       		.byte	0x1
 6852 0e54 7D01     		.2byte	0x17d
 6853 0e56 A2000000 		.4byte	0xa2
 6854 0e5a 02       		.uleb128 0x2
 6855 0e5b 91       		.byte	0x91
 6856 0e5c 67       		.sleb128 -25
 6857 0e5d 00       		.byte	0
 6858 0e5e 00       		.byte	0
 6859 0e5f 1C       		.uleb128 0x1c
 6860 0e60 D0000000 		.4byte	.LBB6
 6861 0e64 32000000 		.4byte	.LBE6-.LBB6
 6862 0e68 7F0E0000 		.4byte	0xe7f
 6863 0e6c 20       		.uleb128 0x20
 6864 0e6d 2B100000 		.4byte	.LASF235
 6865 0e71 01       		.byte	0x1
 6866 0e72 8E01     		.2byte	0x18e
 6867 0e74 CE000000 		.4byte	0xce
 6868 0e78 05       		.uleb128 0x5
 6869 0e79 03       		.byte	0x3
 6870 0e7a 08000000 		.4byte	last_pt_ms.8211
 6871 0e7e 00       		.byte	0
 6872 0e7f 1D       		.uleb128 0x1d
 6873 0e80 0A010000 		.4byte	.LBB7
 6874 0e84 B4000000 		.4byte	.LBE7-.LBB7
 6875 0e88 25       		.uleb128 0x25
 6876 0e89 74616700 		.ascii	"tag\000"
 6877 0e8d 01       		.byte	0x1
 6878 0e8e 9901     		.2byte	0x199
 6879 0e90 D80E0000 		.4byte	0xed8
 6880 0e94 05       		.uleb128 0x5
 6881 0e95 03       		.byte	0x3
 6882 0e96 00000000 		.4byte	tag.8212
 6883 0e9a 1D       		.uleb128 0x1d
 6884 0e9b 0A010000 		.4byte	.LBB8
 6885 0e9f B4000000 		.4byte	.LBE8-.LBB8
 6886 0ea3 25       		.uleb128 0x25
 6887 0ea4 7300     		.ascii	"s\000"
 6888 0ea6 01       		.byte	0x1
 6889 0ea7 9A01     		.2byte	0x19a
 6890 0ea9 A2000000 		.4byte	0xa2
 6891 0ead 02       		.uleb128 0x2
 6892 0eae 91       		.byte	0x91
 6893 0eaf 66       		.sleb128 -26
 6894 0eb0 1D       		.uleb128 0x1d
 6895 0eb1 12010000 		.4byte	.LBB9
 6896 0eb5 98000000 		.4byte	.LBE9-.LBB9
 6897 0eb9 25       		.uleb128 0x25
 6898 0eba 6300     		.ascii	"c\000"
 6899 0ebc 01       		.byte	0x1
 6900 0ebd 9B01     		.2byte	0x19b
 6901 0ebf 680A0000 		.4byte	0xa68
 6902 0ec3 02       		.uleb128 0x2
 6903 0ec4 91       		.byte	0x91
 6904 0ec5 4C       		.sleb128 -52
 6905 0ec6 25       		.uleb128 0x25
ARM GAS  C:\Users\JENNEW~1\AppData\Local\Temp\cc33Iuyf.s 			page 143


 6906 0ec7 6200     		.ascii	"b\000"
 6907 0ec9 01       		.byte	0x1
 6908 0eca A101     		.2byte	0x1a1
 6909 0ecc E80E0000 		.4byte	0xee8
 6910 0ed0 03       		.uleb128 0x3
 6911 0ed1 91       		.byte	0x91
 6912 0ed2 CC7E     		.sleb128 -180
 6913 0ed4 00       		.byte	0
 6914 0ed5 00       		.byte	0
 6915 0ed6 00       		.byte	0
 6916 0ed7 00       		.byte	0
 6917 0ed8 13       		.uleb128 0x13
 6918 0ed9 FE000000 		.4byte	0xfe
 6919 0edd E80E0000 		.4byte	0xee8
 6920 0ee1 14       		.uleb128 0x14
 6921 0ee2 F5000000 		.4byte	0xf5
 6922 0ee6 01       		.byte	0x1
 6923 0ee7 00       		.byte	0
 6924 0ee8 13       		.uleb128 0x13
 6925 0ee9 E7000000 		.4byte	0xe7
 6926 0eed F80E0000 		.4byte	0xef8
 6927 0ef1 14       		.uleb128 0x14
 6928 0ef2 F5000000 		.4byte	0xf5
 6929 0ef6 7F       		.byte	0x7f
 6930 0ef7 00       		.byte	0
 6931 0ef8 22       		.uleb128 0x22
 6932 0ef9 5F0C0000 		.4byte	.LASF236
 6933 0efd 01       		.byte	0x1
 6934 0efe AE01     		.2byte	0x1ae
 6935 0f00 00000000 		.4byte	.LFB76
 6936 0f04 A0000000 		.4byte	.LFE76-.LFB76
 6937 0f08 01       		.uleb128 0x1
 6938 0f09 9C       		.byte	0x9c
 6939 0f0a 3C0F0000 		.4byte	0xf3c
 6940 0f0e 1F       		.uleb128 0x1f
 6941 0f0f 63747800 		.ascii	"ctx\000"
 6942 0f13 01       		.byte	0x1
 6943 0f14 AE01     		.2byte	0x1ae
 6944 0f16 E70A0000 		.4byte	0xae7
 6945 0f1a 02       		.uleb128 0x2
 6946 0f1b 91       		.byte	0x91
 6947 0f1c 6C       		.sleb128 -20
 6948 0f1d 25       		.uleb128 0x25
 6949 0f1e 70616E00 		.ascii	"pan\000"
 6950 0f22 01       		.byte	0x1
 6951 0f23 B601     		.2byte	0x1b6
 6952 0f25 D9000000 		.4byte	0xd9
 6953 0f29 02       		.uleb128 0x2
 6954 0f2a 91       		.byte	0x91
 6955 0f2b 74       		.sleb128 -12
 6956 0f2c 20       		.uleb128 0x20
 6957 0f2d F40B0000 		.4byte	.LASF29
 6958 0f31 01       		.byte	0x1
 6959 0f32 B601     		.2byte	0x1b6
 6960 0f34 D9000000 		.4byte	0xd9
 6961 0f38 02       		.uleb128 0x2
 6962 0f39 91       		.byte	0x91
ARM GAS  C:\Users\JENNEW~1\AppData\Local\Temp\cc33Iuyf.s 			page 144


 6963 0f3a 70       		.sleb128 -16
 6964 0f3b 00       		.byte	0
 6965 0f3c 23       		.uleb128 0x23
 6966 0f3d 8B090000 		.4byte	.LASF237
 6967 0f41 01       		.byte	0x1
 6968 0f42 C301     		.2byte	0x1c3
 6969 0f44 00000000 		.4byte	.LFB77
 6970 0f48 1A000000 		.4byte	.LFE77-.LFB77
 6971 0f4c 01       		.uleb128 0x1
 6972 0f4d 9C       		.byte	0x9c
 6973 0f4e 620F0000 		.4byte	0xf62
 6974 0f52 1F       		.uleb128 0x1f
 6975 0f53 63747800 		.ascii	"ctx\000"
 6976 0f57 01       		.byte	0x1
 6977 0f58 C301     		.2byte	0x1c3
 6978 0f5a E70A0000 		.4byte	0xae7
 6979 0f5e 02       		.uleb128 0x2
 6980 0f5f 91       		.byte	0x91
 6981 0f60 74       		.sleb128 -12
 6982 0f61 00       		.byte	0
 6983 0f62 26       		.uleb128 0x26
 6984 0f63 61040000 		.4byte	.LASF238
 6985 0f67 01       		.byte	0x1
 6986 0f68 C501     		.2byte	0x1c5
 6987 0f6a A2000000 		.4byte	0xa2
 6988 0f6e 00000000 		.4byte	.LFB78
 6989 0f72 28000000 		.4byte	.LFE78-.LFB78
 6990 0f76 01       		.uleb128 0x1
 6991 0f77 9C       		.byte	0x9c
 6992 0f78 990F0000 		.4byte	0xf99
 6993 0f7c 1F       		.uleb128 0x1f
 6994 0f7d 63747800 		.ascii	"ctx\000"
 6995 0f81 01       		.byte	0x1
 6996 0f82 C501     		.2byte	0x1c5
 6997 0f84 E70A0000 		.4byte	0xae7
 6998 0f88 02       		.uleb128 0x2
 6999 0f89 91       		.byte	0x91
 7000 0f8a 74       		.sleb128 -12
 7001 0f8b 1F       		.uleb128 0x1f
 7002 0f8c 6B00     		.ascii	"k\000"
 7003 0f8e 01       		.byte	0x1
 7004 0f8f C501     		.2byte	0x1c5
 7005 0f91 E7000000 		.4byte	0xe7
 7006 0f95 02       		.uleb128 0x2
 7007 0f96 91       		.byte	0x91
 7008 0f97 73       		.sleb128 -13
 7009 0f98 00       		.byte	0
 7010 0f99 22       		.uleb128 0x22
 7011 0f9a BA0E0000 		.4byte	.LASF239
 7012 0f9e 01       		.byte	0x1
 7013 0f9f CD01     		.2byte	0x1cd
 7014 0fa1 00000000 		.4byte	.LFB79
 7015 0fa5 74000000 		.4byte	.LFE79-.LFB79
 7016 0fa9 01       		.uleb128 0x1
 7017 0faa 9C       		.byte	0x9c
 7018 0fab CE0F0000 		.4byte	0xfce
 7019 0faf 1F       		.uleb128 0x1f
ARM GAS  C:\Users\JENNEW~1\AppData\Local\Temp\cc33Iuyf.s 			page 145


 7020 0fb0 63747800 		.ascii	"ctx\000"
 7021 0fb4 01       		.byte	0x1
 7022 0fb5 CD01     		.2byte	0x1cd
 7023 0fb7 330B0000 		.4byte	0xb33
 7024 0fbb 02       		.uleb128 0x2
 7025 0fbc 91       		.byte	0x91
 7026 0fbd 74       		.sleb128 -12
 7027 0fbe 1F       		.uleb128 0x1f
 7028 0fbf 6F757400 		.ascii	"out\000"
 7029 0fc3 01       		.byte	0x1
 7030 0fc4 CD01     		.2byte	0x1cd
 7031 0fc6 3E0B0000 		.4byte	0xb3e
 7032 0fca 02       		.uleb128 0x2
 7033 0fcb 91       		.byte	0x91
 7034 0fcc 70       		.sleb128 -16
 7035 0fcd 00       		.byte	0
 7036 0fce 26       		.uleb128 0x26
 7037 0fcf 9B080000 		.4byte	.LASF240
 7038 0fd3 01       		.byte	0x1
 7039 0fd4 D901     		.2byte	0x1d9
 7040 0fd6 D9000000 		.4byte	0xd9
 7041 0fda 00000000 		.4byte	.LFB80
 7042 0fde F8000000 		.4byte	.LFE80-.LFB80
 7043 0fe2 01       		.uleb128 0x1
 7044 0fe3 9C       		.byte	0x9c
 7045 0fe4 79100000 		.4byte	0x1079
 7046 0fe8 27       		.uleb128 0x27
 7047 0fe9 26100000 		.4byte	.LASF241
 7048 0fed 01       		.byte	0x1
 7049 0fee D901     		.2byte	0x1d9
 7050 0ff0 D9000000 		.4byte	0xd9
 7051 0ff4 02       		.uleb128 0x2
 7052 0ff5 91       		.byte	0x91
 7053 0ff6 54       		.sleb128 -44
 7054 0ff7 27       		.uleb128 0x27
 7055 0ff8 C3090000 		.4byte	.LASF242
 7056 0ffc 01       		.byte	0x1
 7057 0ffd D901     		.2byte	0x1d9
 7058 0fff D9000000 		.4byte	0xd9
 7059 1003 02       		.uleb128 0x2
 7060 1004 91       		.byte	0x91
 7061 1005 50       		.sleb128 -48
 7062 1006 27       		.uleb128 0x27
 7063 1007 CC050000 		.4byte	.LASF243
 7064 100b 01       		.byte	0x1
 7065 100c D901     		.2byte	0x1d9
 7066 100e D9000000 		.4byte	0xd9
 7067 1012 02       		.uleb128 0x2
 7068 1013 91       		.byte	0x91
 7069 1014 4C       		.sleb128 -52
 7070 1015 27       		.uleb128 0x27
 7071 1016 C8090000 		.4byte	.LASF244
 7072 101a 01       		.byte	0x1
 7073 101b D901     		.2byte	0x1d9
 7074 101d D9000000 		.4byte	0xd9
 7075 1021 02       		.uleb128 0x2
 7076 1022 91       		.byte	0x91
ARM GAS  C:\Users\JENNEW~1\AppData\Local\Temp\cc33Iuyf.s 			page 146


 7077 1023 48       		.sleb128 -56
 7078 1024 25       		.uleb128 0x25
 7079 1025 6C613100 		.ascii	"la1\000"
 7080 1029 01       		.byte	0x1
 7081 102a DB01     		.2byte	0x1db
 7082 102c D9000000 		.4byte	0xd9
 7083 1030 02       		.uleb128 0x2
 7084 1031 91       		.byte	0x91
 7085 1032 68       		.sleb128 -24
 7086 1033 25       		.uleb128 0x25
 7087 1034 6C613200 		.ascii	"la2\000"
 7088 1038 01       		.byte	0x1
 7089 1039 DB01     		.2byte	0x1db
 7090 103b D9000000 		.4byte	0xd9
 7091 103f 02       		.uleb128 0x2
 7092 1040 91       		.byte	0x91
 7093 1041 64       		.sleb128 -28
 7094 1042 25       		.uleb128 0x25
 7095 1043 646C6F00 		.ascii	"dlo\000"
 7096 1047 01       		.byte	0x1
 7097 1048 DC01     		.2byte	0x1dc
 7098 104a D9000000 		.4byte	0xd9
 7099 104e 02       		.uleb128 0x2
 7100 104f 91       		.byte	0x91
 7101 1050 60       		.sleb128 -32
 7102 1051 25       		.uleb128 0x25
 7103 1052 7800     		.ascii	"x\000"
 7104 1054 01       		.byte	0x1
 7105 1055 DD01     		.2byte	0x1dd
 7106 1057 D9000000 		.4byte	0xd9
 7107 105b 02       		.uleb128 0x2
 7108 105c 91       		.byte	0x91
 7109 105d 5C       		.sleb128 -36
 7110 105e 25       		.uleb128 0x25
 7111 105f 7900     		.ascii	"y\000"
 7112 1061 01       		.byte	0x1
 7113 1062 DE01     		.2byte	0x1de
 7114 1064 D9000000 		.4byte	0xd9
 7115 1068 02       		.uleb128 0x2
 7116 1069 91       		.byte	0x91
 7117 106a 58       		.sleb128 -40
 7118 106b 25       		.uleb128 0x25
 7119 106c 6200     		.ascii	"b\000"
 7120 106e 01       		.byte	0x1
 7121 106f DF01     		.2byte	0x1df
 7122 1071 D9000000 		.4byte	0xd9
 7123 1075 02       		.uleb128 0x2
 7124 1076 91       		.byte	0x91
 7125 1077 6C       		.sleb128 -20
 7126 1078 00       		.byte	0
 7127 1079 26       		.uleb128 0x26
 7128 107a 64000000 		.4byte	.LASF245
 7129 107e 01       		.byte	0x1
 7130 107f E301     		.2byte	0x1e3
 7131 1081 D9000000 		.4byte	0xd9
 7132 1085 00000000 		.4byte	.LFB81
 7133 1089 5C010000 		.4byte	.LFE81-.LFB81
ARM GAS  C:\Users\JENNEW~1\AppData\Local\Temp\cc33Iuyf.s 			page 147


 7134 108d 01       		.uleb128 0x1
 7135 108e 9C       		.byte	0x9c
 7136 108f 46110000 		.4byte	0x1146
 7137 1093 27       		.uleb128 0x27
 7138 1094 26100000 		.4byte	.LASF241
 7139 1098 01       		.byte	0x1
 7140 1099 E301     		.2byte	0x1e3
 7141 109b D9000000 		.4byte	0xd9
 7142 109f 02       		.uleb128 0x2
 7143 10a0 91       		.byte	0x91
 7144 10a1 54       		.sleb128 -44
 7145 10a2 27       		.uleb128 0x27
 7146 10a3 C3090000 		.4byte	.LASF242
 7147 10a7 01       		.byte	0x1
 7148 10a8 E301     		.2byte	0x1e3
 7149 10aa D9000000 		.4byte	0xd9
 7150 10ae 02       		.uleb128 0x2
 7151 10af 91       		.byte	0x91
 7152 10b0 50       		.sleb128 -48
 7153 10b1 27       		.uleb128 0x27
 7154 10b2 500B0000 		.4byte	.LASF246
 7155 10b6 01       		.byte	0x1
 7156 10b7 E301     		.2byte	0x1e3
 7157 10b9 D9000000 		.4byte	0xd9
 7158 10bd 02       		.uleb128 0x2
 7159 10be 91       		.byte	0x91
 7160 10bf 4C       		.sleb128 -52
 7161 10c0 27       		.uleb128 0x27
 7162 10c1 CC050000 		.4byte	.LASF243
 7163 10c5 01       		.byte	0x1
 7164 10c6 E401     		.2byte	0x1e4
 7165 10c8 D9000000 		.4byte	0xd9
 7166 10cc 02       		.uleb128 0x2
 7167 10cd 91       		.byte	0x91
 7168 10ce 48       		.sleb128 -56
 7169 10cf 27       		.uleb128 0x27
 7170 10d0 C8090000 		.4byte	.LASF244
 7171 10d4 01       		.byte	0x1
 7172 10d5 E401     		.2byte	0x1e4
 7173 10d7 D9000000 		.4byte	0xd9
 7174 10db 02       		.uleb128 0x2
 7175 10dc 91       		.byte	0x91
 7176 10dd 00       		.sleb128 0
 7177 10de 27       		.uleb128 0x27
 7178 10df FC020000 		.4byte	.LASF247
 7179 10e3 01       		.byte	0x1
 7180 10e4 E401     		.2byte	0x1e4
 7181 10e6 D9000000 		.4byte	0xd9
 7182 10ea 02       		.uleb128 0x2
 7183 10eb 91       		.byte	0x91
 7184 10ec 04       		.sleb128 4
 7185 10ed 25       		.uleb128 0x25
 7186 10ee 6C613100 		.ascii	"la1\000"
 7187 10f2 01       		.byte	0x1
 7188 10f3 E601     		.2byte	0x1e6
 7189 10f5 D9000000 		.4byte	0xd9
 7190 10f9 02       		.uleb128 0x2
ARM GAS  C:\Users\JENNEW~1\AppData\Local\Temp\cc33Iuyf.s 			page 148


 7191 10fa 91       		.byte	0x91
 7192 10fb 68       		.sleb128 -24
 7193 10fc 25       		.uleb128 0x25
 7194 10fd 6C613200 		.ascii	"la2\000"
 7195 1101 01       		.byte	0x1
 7196 1102 E601     		.2byte	0x1e6
 7197 1104 D9000000 		.4byte	0xd9
 7198 1108 02       		.uleb128 0x2
 7199 1109 91       		.byte	0x91
 7200 110a 64       		.sleb128 -28
 7201 110b 25       		.uleb128 0x25
 7202 110c 646C6F00 		.ascii	"dlo\000"
 7203 1110 01       		.byte	0x1
 7204 1111 E701     		.2byte	0x1e7
 7205 1113 D9000000 		.4byte	0xd9
 7206 1117 02       		.uleb128 0x2
 7207 1118 91       		.byte	0x91
 7208 1119 60       		.sleb128 -32
 7209 111a 25       		.uleb128 0x25
 7210 111b 646C6100 		.ascii	"dla\000"
 7211 111f 01       		.byte	0x1
 7212 1120 E801     		.2byte	0x1e8
 7213 1122 D9000000 		.4byte	0xd9
 7214 1126 02       		.uleb128 0x2
 7215 1127 91       		.byte	0x91
 7216 1128 5C       		.sleb128 -36
 7217 1129 25       		.uleb128 0x25
 7218 112a 6100     		.ascii	"a\000"
 7219 112c 01       		.byte	0x1
 7220 112d E901     		.2byte	0x1e9
 7221 112f D9000000 		.4byte	0xd9
 7222 1133 02       		.uleb128 0x2
 7223 1134 91       		.byte	0x91
 7224 1135 58       		.sleb128 -40
 7225 1136 20       		.uleb128 0x20
 7226 1137 FB090000 		.4byte	.LASF248
 7227 113b 01       		.byte	0x1
 7228 113c EB01     		.2byte	0x1eb
 7229 113e D9000000 		.4byte	0xd9
 7230 1142 02       		.uleb128 0x2
 7231 1143 91       		.byte	0x91
 7232 1144 6C       		.sleb128 -20
 7233 1145 00       		.byte	0
 7234 1146 23       		.uleb128 0x23
 7235 1147 0F090000 		.4byte	.LASF249
 7236 114b 01       		.byte	0x1
 7237 114c F101     		.2byte	0x1f1
 7238 114e 00000000 		.4byte	.LFB82
 7239 1152 3A000000 		.4byte	.LFE82-.LFB82
 7240 1156 01       		.uleb128 0x1
 7241 1157 9C       		.byte	0x9c
 7242 1158 6C110000 		.4byte	0x116c
 7243 115c 1F       		.uleb128 0x1f
 7244 115d 63747800 		.ascii	"ctx\000"
 7245 1161 01       		.byte	0x1
 7246 1162 F101     		.2byte	0x1f1
 7247 1164 E70A0000 		.4byte	0xae7
ARM GAS  C:\Users\JENNEW~1\AppData\Local\Temp\cc33Iuyf.s 			page 149


 7248 1168 02       		.uleb128 0x2
 7249 1169 91       		.byte	0x91
 7250 116a 74       		.sleb128 -12
 7251 116b 00       		.byte	0
 7252 116c 22       		.uleb128 0x22
 7253 116d CA0E0000 		.4byte	.LASF250
 7254 1171 01       		.byte	0x1
 7255 1172 FB01     		.2byte	0x1fb
 7256 1174 00000000 		.4byte	.LFB83
 7257 1178 E8000000 		.4byte	.LFE83-.LFB83
 7258 117c 01       		.uleb128 0x1
 7259 117d 9C       		.byte	0x9c
 7260 117e CF110000 		.4byte	0x11cf
 7261 1182 1F       		.uleb128 0x1f
 7262 1183 63747800 		.ascii	"ctx\000"
 7263 1187 01       		.byte	0x1
 7264 1188 FB01     		.2byte	0x1fb
 7265 118a E70A0000 		.4byte	0xae7
 7266 118e 03       		.uleb128 0x3
 7267 118f 91       		.byte	0x91
 7268 1190 FC7D     		.sleb128 -260
 7269 1192 25       		.uleb128 0x25
 7270 1193 737400   		.ascii	"st\000"
 7271 1196 01       		.byte	0x1
 7272 1197 FD01     		.2byte	0x1fd
 7273 1199 8F050000 		.4byte	0x58f
 7274 119d 03       		.uleb128 0x3
 7275 119e 91       		.byte	0x91
 7276 119f 807E     		.sleb128 -256
 7277 11a1 20       		.uleb128 0x20
 7278 11a2 640F0000 		.4byte	.LASF251
 7279 11a6 01       		.byte	0x1
 7280 11a7 0002     		.2byte	0x200
 7281 11a9 D9000000 		.4byte	0xd9
 7282 11ad 02       		.uleb128 0x2
 7283 11ae 91       		.byte	0x91
 7284 11af 74       		.sleb128 -12
 7285 11b0 20       		.uleb128 0x20
 7286 11b1 7F060000 		.4byte	.LASF252
 7287 11b5 01       		.byte	0x1
 7288 11b6 0102     		.2byte	0x201
 7289 11b8 D9000000 		.4byte	0xd9
 7290 11bc 02       		.uleb128 0x2
 7291 11bd 91       		.byte	0x91
 7292 11be 70       		.sleb128 -16
 7293 11bf 20       		.uleb128 0x20
 7294 11c0 F8010000 		.4byte	.LASF253
 7295 11c4 01       		.byte	0x1
 7296 11c5 0202     		.2byte	0x202
 7297 11c7 D9000000 		.4byte	0xd9
 7298 11cb 02       		.uleb128 0x2
 7299 11cc 91       		.byte	0x91
 7300 11cd 6C       		.sleb128 -20
 7301 11ce 00       		.byte	0
 7302 11cf 22       		.uleb128 0x22
 7303 11d0 B3030000 		.4byte	.LASF254
 7304 11d4 01       		.byte	0x1
ARM GAS  C:\Users\JENNEW~1\AppData\Local\Temp\cc33Iuyf.s 			page 150


 7305 11d5 0902     		.2byte	0x209
 7306 11d7 00000000 		.4byte	.LFB84
 7307 11db C0010000 		.4byte	.LFE84-.LFB84
 7308 11df 01       		.uleb128 0x1
 7309 11e0 9C       		.byte	0x9c
 7310 11e1 85120000 		.4byte	0x1285
 7311 11e5 1F       		.uleb128 0x1f
 7312 11e6 63747800 		.ascii	"ctx\000"
 7313 11ea 01       		.byte	0x1
 7314 11eb 0902     		.2byte	0x209
 7315 11ed E70A0000 		.4byte	0xae7
 7316 11f1 02       		.uleb128 0x2
 7317 11f2 91       		.byte	0x91
 7318 11f3 4C       		.sleb128 -52
 7319 11f4 25       		.uleb128 0x25
 7320 11f5 6E6F7700 		.ascii	"now\000"
 7321 11f9 01       		.byte	0x1
 7322 11fa 0B02     		.2byte	0x20b
 7323 11fc CE000000 		.4byte	0xce
 7324 1200 02       		.uleb128 0x2
 7325 1201 91       		.byte	0x91
 7326 1202 68       		.sleb128 -24
 7327 1203 25       		.uleb128 0x25
 7328 1204 70616E00 		.ascii	"pan\000"
 7329 1208 01       		.byte	0x1
 7330 1209 0E02     		.2byte	0x20e
 7331 120b D9000000 		.4byte	0xd9
 7332 120f 02       		.uleb128 0x2
 7333 1210 91       		.byte	0x91
 7334 1211 54       		.sleb128 -44
 7335 1212 20       		.uleb128 0x20
 7336 1213 F40B0000 		.4byte	.LASF29
 7337 1217 01       		.byte	0x1
 7338 1218 0E02     		.2byte	0x20e
 7339 121a D9000000 		.4byte	0xd9
 7340 121e 02       		.uleb128 0x2
 7341 121f 91       		.byte	0x91
 7342 1220 50       		.sleb128 -48
 7343 1221 20       		.uleb128 0x20
 7344 1222 07070000 		.4byte	.LASF255
 7345 1226 01       		.byte	0x1
 7346 1227 1102     		.2byte	0x211
 7347 1229 D9000000 		.4byte	0xd9
 7348 122d 02       		.uleb128 0x2
 7349 122e 91       		.byte	0x91
 7350 122f 6C       		.sleb128 -20
 7351 1230 20       		.uleb128 0x20
 7352 1231 E9080000 		.4byte	.LASF256
 7353 1235 01       		.byte	0x1
 7354 1236 1F02     		.2byte	0x21f
 7355 1238 D9000000 		.4byte	0xd9
 7356 123c 02       		.uleb128 0x2
 7357 123d 91       		.byte	0x91
 7358 123e 60       		.sleb128 -32
 7359 123f 20       		.uleb128 0x20
 7360 1240 02090000 		.4byte	.LASF257
 7361 1244 01       		.byte	0x1
ARM GAS  C:\Users\JENNEW~1\AppData\Local\Temp\cc33Iuyf.s 			page 151


 7362 1245 2002     		.2byte	0x220
 7363 1247 D9000000 		.4byte	0xd9
 7364 124b 02       		.uleb128 0x2
 7365 124c 91       		.byte	0x91
 7366 124d 5C       		.sleb128 -36
 7367 124e 20       		.uleb128 0x20
 7368 124f 540E0000 		.4byte	.LASF234
 7369 1253 01       		.byte	0x1
 7370 1254 2102     		.2byte	0x221
 7371 1256 A2000000 		.4byte	0xa2
 7372 125a 02       		.uleb128 0x2
 7373 125b 91       		.byte	0x91
 7374 125c 5B       		.sleb128 -37
 7375 125d 20       		.uleb128 0x20
 7376 125e DE0E0000 		.4byte	.LASF258
 7377 1262 01       		.byte	0x1
 7378 1263 2302     		.2byte	0x223
 7379 1265 A2000000 		.4byte	0xa2
 7380 1269 02       		.uleb128 0x2
 7381 126a 91       		.byte	0x91
 7382 126b 5A       		.sleb128 -38
 7383 126c 1D       		.uleb128 0x1d
 7384 126d 40000000 		.4byte	.LBB11
 7385 1271 6A000000 		.4byte	.LBE11-.LBB11
 7386 1275 25       		.uleb128 0x25
 7387 1276 647400   		.ascii	"dt\000"
 7388 1279 01       		.byte	0x1
 7389 127a 1302     		.2byte	0x213
 7390 127c D9000000 		.4byte	0xd9
 7391 1280 02       		.uleb128 0x2
 7392 1281 91       		.byte	0x91
 7393 1282 64       		.sleb128 -28
 7394 1283 00       		.byte	0
 7395 1284 00       		.byte	0
 7396 1285 22       		.uleb128 0x22
 7397 1286 62090000 		.4byte	.LASF259
 7398 128a 01       		.byte	0x1
 7399 128b 3102     		.2byte	0x231
 7400 128d 00000000 		.4byte	.LFB85
 7401 1291 48000000 		.4byte	.LFE85-.LFB85
 7402 1295 01       		.uleb128 0x1
 7403 1296 9C       		.byte	0x9c
 7404 1297 AB120000 		.4byte	0x12ab
 7405 129b 1F       		.uleb128 0x1f
 7406 129c 63747800 		.ascii	"ctx\000"
 7407 12a0 01       		.byte	0x1
 7408 12a1 3102     		.2byte	0x231
 7409 12a3 E70A0000 		.4byte	0xae7
 7410 12a7 02       		.uleb128 0x2
 7411 12a8 91       		.byte	0x91
 7412 12a9 74       		.sleb128 -12
 7413 12aa 00       		.byte	0
 7414 12ab 23       		.uleb128 0x23
 7415 12ac 130E0000 		.4byte	.LASF260
 7416 12b0 01       		.byte	0x1
 7417 12b1 3D02     		.2byte	0x23d
 7418 12b3 00000000 		.4byte	.LFB86
ARM GAS  C:\Users\JENNEW~1\AppData\Local\Temp\cc33Iuyf.s 			page 152


 7419 12b7 22000000 		.4byte	.LFE86-.LFB86
 7420 12bb 01       		.uleb128 0x1
 7421 12bc 9C       		.byte	0x9c
 7422 12bd D1120000 		.4byte	0x12d1
 7423 12c1 1F       		.uleb128 0x1f
 7424 12c2 63747800 		.ascii	"ctx\000"
 7425 12c6 01       		.byte	0x1
 7426 12c7 3D02     		.2byte	0x23d
 7427 12c9 E70A0000 		.4byte	0xae7
 7428 12cd 02       		.uleb128 0x2
 7429 12ce 91       		.byte	0x91
 7430 12cf 74       		.sleb128 -12
 7431 12d0 00       		.byte	0
 7432 12d1 26       		.uleb128 0x26
 7433 12d2 6D0B0000 		.4byte	.LASF261
 7434 12d6 01       		.byte	0x1
 7435 12d7 4102     		.2byte	0x241
 7436 12d9 A2000000 		.4byte	0xa2
 7437 12dd 00000000 		.4byte	.LFB87
 7438 12e1 28000000 		.4byte	.LFE87-.LFB87
 7439 12e5 01       		.uleb128 0x1
 7440 12e6 9C       		.byte	0x9c
 7441 12e7 08130000 		.4byte	0x1308
 7442 12eb 1F       		.uleb128 0x1f
 7443 12ec 63747800 		.ascii	"ctx\000"
 7444 12f0 01       		.byte	0x1
 7445 12f1 4102     		.2byte	0x241
 7446 12f3 E70A0000 		.4byte	0xae7
 7447 12f7 02       		.uleb128 0x2
 7448 12f8 91       		.byte	0x91
 7449 12f9 74       		.sleb128 -12
 7450 12fa 1F       		.uleb128 0x1f
 7451 12fb 6B00     		.ascii	"k\000"
 7452 12fd 01       		.byte	0x1
 7453 12fe 4102     		.2byte	0x241
 7454 1300 E7000000 		.4byte	0xe7
 7455 1304 02       		.uleb128 0x2
 7456 1305 91       		.byte	0x91
 7457 1306 73       		.sleb128 -13
 7458 1307 00       		.byte	0
 7459 1308 22       		.uleb128 0x22
 7460 1309 BA0B0000 		.4byte	.LASF262
 7461 130d 01       		.byte	0x1
 7462 130e 4802     		.2byte	0x248
 7463 1310 00000000 		.4byte	.LFB88
 7464 1314 A8000000 		.4byte	.LFE88-.LFB88
 7465 1318 01       		.uleb128 0x1
 7466 1319 9C       		.byte	0x9c
 7467 131a 3D130000 		.4byte	0x133d
 7468 131e 1F       		.uleb128 0x1f
 7469 131f 63747800 		.ascii	"ctx\000"
 7470 1323 01       		.byte	0x1
 7471 1324 4802     		.2byte	0x248
 7472 1326 330B0000 		.4byte	0xb33
 7473 132a 02       		.uleb128 0x2
 7474 132b 91       		.byte	0x91
 7475 132c 74       		.sleb128 -12
ARM GAS  C:\Users\JENNEW~1\AppData\Local\Temp\cc33Iuyf.s 			page 153


 7476 132d 1F       		.uleb128 0x1f
 7477 132e 6F757400 		.ascii	"out\000"
 7478 1332 01       		.byte	0x1
 7479 1333 4802     		.2byte	0x248
 7480 1335 3E0B0000 		.4byte	0xb3e
 7481 1339 02       		.uleb128 0x2
 7482 133a 91       		.byte	0x91
 7483 133b 70       		.sleb128 -16
 7484 133c 00       		.byte	0
 7485 133d 22       		.uleb128 0x22
 7486 133e 980B0000 		.4byte	.LASF263
 7487 1342 01       		.byte	0x1
 7488 1343 5302     		.2byte	0x253
 7489 1345 00000000 		.4byte	.LFB89
 7490 1349 1C000000 		.4byte	.LFE89-.LFB89
 7491 134d 01       		.uleb128 0x1
 7492 134e 9C       		.byte	0x9c
 7493 134f 63130000 		.4byte	0x1363
 7494 1353 1F       		.uleb128 0x1f
 7495 1354 63747800 		.ascii	"ctx\000"
 7496 1358 01       		.byte	0x1
 7497 1359 5302     		.2byte	0x253
 7498 135b E70A0000 		.4byte	0xae7
 7499 135f 02       		.uleb128 0x2
 7500 1360 91       		.byte	0x91
 7501 1361 74       		.sleb128 -12
 7502 1362 00       		.byte	0
 7503 1363 22       		.uleb128 0x22
 7504 1364 C80D0000 		.4byte	.LASF264
 7505 1368 01       		.byte	0x1
 7506 1369 5A02     		.2byte	0x25a
 7507 136b 00000000 		.4byte	.LFB90
 7508 136f 2C000000 		.4byte	.LFE90-.LFB90
 7509 1373 01       		.uleb128 0x1
 7510 1374 9C       		.byte	0x9c
 7511 1375 89130000 		.4byte	0x1389
 7512 1379 1F       		.uleb128 0x1f
 7513 137a 63747800 		.ascii	"ctx\000"
 7514 137e 01       		.byte	0x1
 7515 137f 5A02     		.2byte	0x25a
 7516 1381 E70A0000 		.4byte	0xae7
 7517 1385 02       		.uleb128 0x2
 7518 1386 91       		.byte	0x91
 7519 1387 74       		.sleb128 -12
 7520 1388 00       		.byte	0
 7521 1389 26       		.uleb128 0x26
 7522 138a BB070000 		.4byte	.LASF265
 7523 138e 01       		.byte	0x1
 7524 138f 6002     		.2byte	0x260
 7525 1391 A2000000 		.4byte	0xa2
 7526 1395 00000000 		.4byte	.LFB91
 7527 1399 28000000 		.4byte	.LFE91-.LFB91
 7528 139d 01       		.uleb128 0x1
 7529 139e 9C       		.byte	0x9c
 7530 139f C0130000 		.4byte	0x13c0
 7531 13a3 1F       		.uleb128 0x1f
 7532 13a4 63747800 		.ascii	"ctx\000"
ARM GAS  C:\Users\JENNEW~1\AppData\Local\Temp\cc33Iuyf.s 			page 154


 7533 13a8 01       		.byte	0x1
 7534 13a9 6002     		.2byte	0x260
 7535 13ab E70A0000 		.4byte	0xae7
 7536 13af 02       		.uleb128 0x2
 7537 13b0 91       		.byte	0x91
 7538 13b1 74       		.sleb128 -12
 7539 13b2 1F       		.uleb128 0x1f
 7540 13b3 6B00     		.ascii	"k\000"
 7541 13b5 01       		.byte	0x1
 7542 13b6 6002     		.2byte	0x260
 7543 13b8 E7000000 		.4byte	0xe7
 7544 13bc 02       		.uleb128 0x2
 7545 13bd 91       		.byte	0x91
 7546 13be 73       		.sleb128 -13
 7547 13bf 00       		.byte	0
 7548 13c0 22       		.uleb128 0x22
 7549 13c1 840C0000 		.4byte	.LASF266
 7550 13c5 01       		.byte	0x1
 7551 13c6 6902     		.2byte	0x269
 7552 13c8 00000000 		.4byte	.LFB92
 7553 13cc 20010000 		.4byte	.LFE92-.LFB92
 7554 13d0 01       		.uleb128 0x1
 7555 13d1 9C       		.byte	0x9c
 7556 13d2 13140000 		.4byte	0x1413
 7557 13d6 1F       		.uleb128 0x1f
 7558 13d7 63747800 		.ascii	"ctx\000"
 7559 13db 01       		.byte	0x1
 7560 13dc 6902     		.2byte	0x269
 7561 13de 330B0000 		.4byte	0xb33
 7562 13e2 02       		.uleb128 0x2
 7563 13e3 91       		.byte	0x91
 7564 13e4 6C       		.sleb128 -20
 7565 13e5 1F       		.uleb128 0x1f
 7566 13e6 6F757400 		.ascii	"out\000"
 7567 13ea 01       		.byte	0x1
 7568 13eb 6902     		.2byte	0x269
 7569 13ed 3E0B0000 		.4byte	0xb3e
 7570 13f1 02       		.uleb128 0x2
 7571 13f2 91       		.byte	0x91
 7572 13f3 68       		.sleb128 -24
 7573 13f4 20       		.uleb128 0x20
 7574 13f5 AA050000 		.4byte	.LASF267
 7575 13f9 01       		.byte	0x1
 7576 13fa 7002     		.2byte	0x270
 7577 13fc D9000000 		.4byte	0xd9
 7578 1400 02       		.uleb128 0x2
 7579 1401 91       		.byte	0x91
 7580 1402 74       		.sleb128 -12
 7581 1403 20       		.uleb128 0x20
 7582 1404 09100000 		.4byte	.LASF268
 7583 1408 01       		.byte	0x1
 7584 1409 7102     		.2byte	0x271
 7585 140b D9000000 		.4byte	0xd9
 7586 140f 02       		.uleb128 0x2
 7587 1410 91       		.byte	0x91
 7588 1411 70       		.sleb128 -16
 7589 1412 00       		.byte	0
ARM GAS  C:\Users\JENNEW~1\AppData\Local\Temp\cc33Iuyf.s 			page 155


 7590 1413 22       		.uleb128 0x22
 7591 1414 AA000000 		.4byte	.LASF269
 7592 1418 01       		.byte	0x1
 7593 1419 7802     		.2byte	0x278
 7594 141b 00000000 		.4byte	.LFB93
 7595 141f 1C000000 		.4byte	.LFE93-.LFB93
 7596 1423 01       		.uleb128 0x1
 7597 1424 9C       		.byte	0x9c
 7598 1425 39140000 		.4byte	0x1439
 7599 1429 1F       		.uleb128 0x1f
 7600 142a 63747800 		.ascii	"ctx\000"
 7601 142e 01       		.byte	0x1
 7602 142f 7802     		.2byte	0x278
 7603 1431 E70A0000 		.4byte	0xae7
 7604 1435 02       		.uleb128 0x2
 7605 1436 91       		.byte	0x91
 7606 1437 74       		.sleb128 -12
 7607 1438 00       		.byte	0
 7608 1439 26       		.uleb128 0x26
 7609 143a B8080000 		.4byte	.LASF270
 7610 143e 01       		.byte	0x1
 7611 143f 7F02     		.2byte	0x27f
 7612 1441 A2000000 		.4byte	0xa2
 7613 1445 00000000 		.4byte	.LFB94
 7614 1449 28000000 		.4byte	.LFE94-.LFB94
 7615 144d 01       		.uleb128 0x1
 7616 144e 9C       		.byte	0x9c
 7617 144f 70140000 		.4byte	0x1470
 7618 1453 1F       		.uleb128 0x1f
 7619 1454 63747800 		.ascii	"ctx\000"
 7620 1458 01       		.byte	0x1
 7621 1459 7F02     		.2byte	0x27f
 7622 145b E70A0000 		.4byte	0xae7
 7623 145f 02       		.uleb128 0x2
 7624 1460 91       		.byte	0x91
 7625 1461 74       		.sleb128 -12
 7626 1462 1F       		.uleb128 0x1f
 7627 1463 6B00     		.ascii	"k\000"
 7628 1465 01       		.byte	0x1
 7629 1466 7F02     		.2byte	0x27f
 7630 1468 E7000000 		.4byte	0xe7
 7631 146c 02       		.uleb128 0x2
 7632 146d 91       		.byte	0x91
 7633 146e 73       		.sleb128 -13
 7634 146f 00       		.byte	0
 7635 1470 22       		.uleb128 0x22
 7636 1471 2F080000 		.4byte	.LASF271
 7637 1475 01       		.byte	0x1
 7638 1476 8802     		.2byte	0x288
 7639 1478 00000000 		.4byte	.LFB95
 7640 147c 1C000000 		.4byte	.LFE95-.LFB95
 7641 1480 01       		.uleb128 0x1
 7642 1481 9C       		.byte	0x9c
 7643 1482 96140000 		.4byte	0x1496
 7644 1486 1F       		.uleb128 0x1f
 7645 1487 63747800 		.ascii	"ctx\000"
 7646 148b 01       		.byte	0x1
ARM GAS  C:\Users\JENNEW~1\AppData\Local\Temp\cc33Iuyf.s 			page 156


 7647 148c 8802     		.2byte	0x288
 7648 148e E70A0000 		.4byte	0xae7
 7649 1492 02       		.uleb128 0x2
 7650 1493 91       		.byte	0x91
 7651 1494 74       		.sleb128 -12
 7652 1495 00       		.byte	0
 7653 1496 26       		.uleb128 0x26
 7654 1497 3C090000 		.4byte	.LASF272
 7655 149b 01       		.byte	0x1
 7656 149c 8D02     		.2byte	0x28d
 7657 149e A2000000 		.4byte	0xa2
 7658 14a2 00000000 		.4byte	.LFB96
 7659 14a6 28000000 		.4byte	.LFE96-.LFB96
 7660 14aa 01       		.uleb128 0x1
 7661 14ab 9C       		.byte	0x9c
 7662 14ac CD140000 		.4byte	0x14cd
 7663 14b0 1F       		.uleb128 0x1f
 7664 14b1 63747800 		.ascii	"ctx\000"
 7665 14b5 01       		.byte	0x1
 7666 14b6 8D02     		.2byte	0x28d
 7667 14b8 E70A0000 		.4byte	0xae7
 7668 14bc 02       		.uleb128 0x2
 7669 14bd 91       		.byte	0x91
 7670 14be 74       		.sleb128 -12
 7671 14bf 1F       		.uleb128 0x1f
 7672 14c0 6B00     		.ascii	"k\000"
 7673 14c2 01       		.byte	0x1
 7674 14c3 8D02     		.2byte	0x28d
 7675 14c5 E7000000 		.4byte	0xe7
 7676 14c9 02       		.uleb128 0x2
 7677 14ca 91       		.byte	0x91
 7678 14cb 73       		.sleb128 -13
 7679 14cc 00       		.byte	0
 7680 14cd 28       		.uleb128 0x28
 7681 14ce 02010000 		.4byte	.LASF273
 7682 14d2 01       		.byte	0x1
 7683 14d3 9702     		.2byte	0x297
 7684 14d5 FE000000 		.4byte	0xfe
 7685 14d9 00000000 		.4byte	.LFB97
 7686 14dd 40000000 		.4byte	.LFE97-.LFB97
 7687 14e1 01       		.uleb128 0x1
 7688 14e2 9C       		.byte	0x9c
 7689 14e3 F5140000 		.4byte	0x14f5
 7690 14e7 1F       		.uleb128 0x1f
 7691 14e8 7300     		.ascii	"s\000"
 7692 14ea 01       		.byte	0x1
 7693 14eb 9702     		.2byte	0x297
 7694 14ed 2C080000 		.4byte	0x82c
 7695 14f1 02       		.uleb128 0x2
 7696 14f2 91       		.byte	0x91
 7697 14f3 77       		.sleb128 -9
 7698 14f4 00       		.byte	0
 7699 14f5 22       		.uleb128 0x22
 7700 14f6 34060000 		.4byte	.LASF274
 7701 14fa 01       		.byte	0x1
 7702 14fb A002     		.2byte	0x2a0
 7703 14fd 00000000 		.4byte	.LFB98
ARM GAS  C:\Users\JENNEW~1\AppData\Local\Temp\cc33Iuyf.s 			page 157


 7704 1501 80000000 		.4byte	.LFE98-.LFB98
 7705 1505 01       		.uleb128 0x1
 7706 1506 9C       		.byte	0x9c
 7707 1507 1B150000 		.4byte	0x151b
 7708 150b 1F       		.uleb128 0x1f
 7709 150c 63747800 		.ascii	"ctx\000"
 7710 1510 01       		.byte	0x1
 7711 1511 A002     		.2byte	0x2a0
 7712 1513 E70A0000 		.4byte	0xae7
 7713 1517 02       		.uleb128 0x2
 7714 1518 91       		.byte	0x91
 7715 1519 74       		.sleb128 -12
 7716 151a 00       		.byte	0
 7717 151b 26       		.uleb128 0x26
 7718 151c 13040000 		.4byte	.LASF275
 7719 1520 01       		.byte	0x1
 7720 1521 B302     		.2byte	0x2b3
 7721 1523 A2000000 		.4byte	0xa2
 7722 1527 00000000 		.4byte	.LFB99
 7723 152b 54000000 		.4byte	.LFE99-.LFB99
 7724 152f 01       		.uleb128 0x1
 7725 1530 9C       		.byte	0x9c
 7726 1531 85150000 		.4byte	0x1585
 7727 1535 1F       		.uleb128 0x1f
 7728 1536 63747800 		.ascii	"ctx\000"
 7729 153a 01       		.byte	0x1
 7730 153b B302     		.2byte	0x2b3
 7731 153d 330B0000 		.4byte	0xb33
 7732 1541 03       		.uleb128 0x3
 7733 1542 91       		.byte	0x91
 7734 1543 847E     		.sleb128 -252
 7735 1545 27       		.uleb128 0x27
 7736 1546 59080000 		.4byte	.LASF276
 7737 154a 01       		.byte	0x1
 7738 154b B302     		.2byte	0x2b3
 7739 154d 85150000 		.4byte	0x1585
 7740 1551 03       		.uleb128 0x3
 7741 1552 91       		.byte	0x91
 7742 1553 807E     		.sleb128 -256
 7743 1555 27       		.uleb128 0x27
 7744 1556 03030000 		.4byte	.LASF277
 7745 155a 01       		.byte	0x1
 7746 155b B302     		.2byte	0x2b3
 7747 155d 85150000 		.4byte	0x1585
 7748 1561 03       		.uleb128 0x3
 7749 1562 91       		.byte	0x91
 7750 1563 FC7D     		.sleb128 -260
 7751 1565 25       		.uleb128 0x25
 7752 1566 737400   		.ascii	"st\000"
 7753 1569 01       		.byte	0x1
 7754 156a B602     		.2byte	0x2b6
 7755 156c 8F050000 		.4byte	0x58f
 7756 1570 03       		.uleb128 0x3
 7757 1571 91       		.byte	0x91
 7758 1572 8C7E     		.sleb128 -244
 7759 1574 20       		.uleb128 0x20
 7760 1575 24070000 		.4byte	.LASF278
ARM GAS  C:\Users\JENNEW~1\AppData\Local\Temp\cc33Iuyf.s 			page 158


 7761 1579 01       		.byte	0x1
 7762 157a B902     		.2byte	0x2b9
 7763 157c D9000000 		.4byte	0xd9
 7764 1580 03       		.uleb128 0x3
 7765 1581 91       		.byte	0x91
 7766 1582 887E     		.sleb128 -248
 7767 1584 00       		.byte	0
 7768 1585 06       		.uleb128 0x6
 7769 1586 04       		.byte	0x4
 7770 1587 D9000000 		.4byte	0xd9
 7771 158b 22       		.uleb128 0x22
 7772 158c 020A0000 		.4byte	.LASF279
 7773 1590 01       		.byte	0x1
 7774 1591 BE02     		.2byte	0x2be
 7775 1593 00000000 		.4byte	.LFB100
 7776 1597 6C000000 		.4byte	.LFE100-.LFB100
 7777 159b 01       		.uleb128 0x1
 7778 159c 9C       		.byte	0x9c
 7779 159d CF150000 		.4byte	0x15cf
 7780 15a1 1F       		.uleb128 0x1f
 7781 15a2 63747800 		.ascii	"ctx\000"
 7782 15a6 01       		.byte	0x1
 7783 15a7 BE02     		.2byte	0x2be
 7784 15a9 E70A0000 		.4byte	0xae7
 7785 15ad 02       		.uleb128 0x2
 7786 15ae 91       		.byte	0x91
 7787 15af 6C       		.sleb128 -20
 7788 15b0 25       		.uleb128 0x25
 7789 15b1 70616E00 		.ascii	"pan\000"
 7790 15b5 01       		.byte	0x1
 7791 15b6 C202     		.2byte	0x2c2
 7792 15b8 D9000000 		.4byte	0xd9
 7793 15bc 02       		.uleb128 0x2
 7794 15bd 91       		.byte	0x91
 7795 15be 74       		.sleb128 -12
 7796 15bf 20       		.uleb128 0x20
 7797 15c0 F40B0000 		.4byte	.LASF29
 7798 15c4 01       		.byte	0x1
 7799 15c5 C202     		.2byte	0x2c2
 7800 15c7 D9000000 		.4byte	0xd9
 7801 15cb 02       		.uleb128 0x2
 7802 15cc 91       		.byte	0x91
 7803 15cd 70       		.sleb128 -16
 7804 15ce 00       		.byte	0
 7805 15cf 22       		.uleb128 0x22
 7806 15d0 0D050000 		.4byte	.LASF280
 7807 15d4 01       		.byte	0x1
 7808 15d5 CD02     		.2byte	0x2cd
 7809 15d7 00000000 		.4byte	.LFB101
 7810 15db 1C000000 		.4byte	.LFE101-.LFB101
 7811 15df 01       		.uleb128 0x1
 7812 15e0 9C       		.byte	0x9c
 7813 15e1 F5150000 		.4byte	0x15f5
 7814 15e5 1F       		.uleb128 0x1f
 7815 15e6 63747800 		.ascii	"ctx\000"
 7816 15ea 01       		.byte	0x1
 7817 15eb CD02     		.2byte	0x2cd
ARM GAS  C:\Users\JENNEW~1\AppData\Local\Temp\cc33Iuyf.s 			page 159


 7818 15ed 330B0000 		.4byte	0xb33
 7819 15f1 02       		.uleb128 0x2
 7820 15f2 91       		.byte	0x91
 7821 15f3 74       		.sleb128 -12
 7822 15f4 00       		.byte	0
 7823 15f5 26       		.uleb128 0x26
 7824 15f6 F40D0000 		.4byte	.LASF281
 7825 15fa 01       		.byte	0x1
 7826 15fb D902     		.2byte	0x2d9
 7827 15fd A2000000 		.4byte	0xa2
 7828 1601 00000000 		.4byte	.LFB102
 7829 1605 94000000 		.4byte	.LFE102-.LFB102
 7830 1609 01       		.uleb128 0x1
 7831 160a 9C       		.byte	0x9c
 7832 160b 2C160000 		.4byte	0x162c
 7833 160f 1F       		.uleb128 0x1f
 7834 1610 63747800 		.ascii	"ctx\000"
 7835 1614 01       		.byte	0x1
 7836 1615 D902     		.2byte	0x2d9
 7837 1617 E70A0000 		.4byte	0xae7
 7838 161b 02       		.uleb128 0x2
 7839 161c 91       		.byte	0x91
 7840 161d 74       		.sleb128 -12
 7841 161e 1F       		.uleb128 0x1f
 7842 161f 6B00     		.ascii	"k\000"
 7843 1621 01       		.byte	0x1
 7844 1622 D902     		.2byte	0x2d9
 7845 1624 E7000000 		.4byte	0xe7
 7846 1628 02       		.uleb128 0x2
 7847 1629 91       		.byte	0x91
 7848 162a 73       		.sleb128 -13
 7849 162b 00       		.byte	0
 7850 162c 28       		.uleb128 0x28
 7851 162d 120C0000 		.4byte	.LASF282
 7852 1631 01       		.byte	0x1
 7853 1632 F002     		.2byte	0x2f0
 7854 1634 A2000000 		.4byte	0xa2
 7855 1638 00000000 		.4byte	.LFB103
 7856 163c 3A000000 		.4byte	.LFE103-.LFB103
 7857 1640 01       		.uleb128 0x1
 7858 1641 9C       		.byte	0x9c
 7859 1642 54160000 		.4byte	0x1654
 7860 1646 1F       		.uleb128 0x1f
 7861 1647 7300     		.ascii	"s\000"
 7862 1649 01       		.byte	0x1
 7863 164a F002     		.2byte	0x2f0
 7864 164c FC070000 		.4byte	0x7fc
 7865 1650 02       		.uleb128 0x2
 7866 1651 91       		.byte	0x91
 7867 1652 77       		.sleb128 -9
 7868 1653 00       		.byte	0
 7869 1654 26       		.uleb128 0x26
 7870 1655 F30C0000 		.4byte	.LASF283
 7871 1659 01       		.byte	0x1
 7872 165a F902     		.2byte	0x2f9
 7873 165c A2000000 		.4byte	0xa2
 7874 1660 00000000 		.4byte	.LFB104
ARM GAS  C:\Users\JENNEW~1\AppData\Local\Temp\cc33Iuyf.s 			page 160


 7875 1664 48000000 		.4byte	.LFE104-.LFB104
 7876 1668 01       		.uleb128 0x1
 7877 1669 9C       		.byte	0x9c
 7878 166a 8B160000 		.4byte	0x168b
 7879 166e 1F       		.uleb128 0x1f
 7880 166f 63747800 		.ascii	"ctx\000"
 7881 1673 01       		.byte	0x1
 7882 1674 F902     		.2byte	0x2f9
 7883 1676 E70A0000 		.4byte	0xae7
 7884 167a 02       		.uleb128 0x2
 7885 167b 91       		.byte	0x91
 7886 167c 74       		.sleb128 -12
 7887 167d 1F       		.uleb128 0x1f
 7888 167e 6B00     		.ascii	"k\000"
 7889 1680 01       		.byte	0x1
 7890 1681 F902     		.2byte	0x2f9
 7891 1683 E7000000 		.4byte	0xe7
 7892 1687 02       		.uleb128 0x2
 7893 1688 91       		.byte	0x91
 7894 1689 73       		.sleb128 -13
 7895 168a 00       		.byte	0
 7896 168b 26       		.uleb128 0x26
 7897 168c 7E0A0000 		.4byte	.LASF284
 7898 1690 01       		.byte	0x1
 7899 1691 0403     		.2byte	0x304
 7900 1693 A2000000 		.4byte	0xa2
 7901 1697 00000000 		.4byte	.LFB105
 7902 169b 3E000000 		.4byte	.LFE105-.LFB105
 7903 169f 01       		.uleb128 0x1
 7904 16a0 9C       		.byte	0x9c
 7905 16a1 DB160000 		.4byte	0x16db
 7906 16a5 1F       		.uleb128 0x1f
 7907 16a6 63747800 		.ascii	"ctx\000"
 7908 16aa 01       		.byte	0x1
 7909 16ab 0403     		.2byte	0x304
 7910 16ad E70A0000 		.4byte	0xae7
 7911 16b1 02       		.uleb128 0x2
 7912 16b2 91       		.byte	0x91
 7913 16b3 6C       		.sleb128 -20
 7914 16b4 1F       		.uleb128 0x1f
 7915 16b5 6B00     		.ascii	"k\000"
 7916 16b7 01       		.byte	0x1
 7917 16b8 0403     		.2byte	0x304
 7918 16ba E7000000 		.4byte	0xe7
 7919 16be 02       		.uleb128 0x2
 7920 16bf 91       		.byte	0x91
 7921 16c0 6B       		.sleb128 -21
 7922 16c1 1D       		.uleb128 0x1d
 7923 16c2 14000000 		.4byte	.LBB12
 7924 16c6 20000000 		.4byte	.LBE12-.LBB12
 7925 16ca 20       		.uleb128 0x20
 7926 16cb 2F060000 		.4byte	.LASF285
 7927 16cf 01       		.byte	0x1
 7928 16d0 0803     		.2byte	0x308
 7929 16d2 FC070000 		.4byte	0x7fc
 7930 16d6 02       		.uleb128 0x2
 7931 16d7 91       		.byte	0x91
ARM GAS  C:\Users\JENNEW~1\AppData\Local\Temp\cc33Iuyf.s 			page 161


 7932 16d8 77       		.sleb128 -9
 7933 16d9 00       		.byte	0
 7934 16da 00       		.byte	0
 7935 16db 29       		.uleb128 0x29
 7936 16dc E30F0000 		.4byte	.LASF287
 7937 16e0 01       		.byte	0x1
 7938 16e1 1003     		.2byte	0x310
 7939 16e3 A2000000 		.4byte	0xa2
 7940 16e7 00000000 		.4byte	.LFB106
 7941 16eb A0000000 		.4byte	.LFE106-.LFB106
 7942 16ef 01       		.uleb128 0x1
 7943 16f0 9C       		.byte	0x9c
 7944 16f1 21170000 		.4byte	0x1721
 7945 16f5 1F       		.uleb128 0x1f
 7946 16f6 63747800 		.ascii	"ctx\000"
 7947 16fa 01       		.byte	0x1
 7948 16fb 1003     		.2byte	0x310
 7949 16fd E70A0000 		.4byte	0xae7
 7950 1701 02       		.uleb128 0x2
 7951 1702 91       		.byte	0x91
 7952 1703 6C       		.sleb128 -20
 7953 1704 1F       		.uleb128 0x1f
 7954 1705 6B657900 		.ascii	"key\000"
 7955 1709 01       		.byte	0x1
 7956 170a 1003     		.2byte	0x310
 7957 170c E7000000 		.4byte	0xe7
 7958 1710 02       		.uleb128 0x2
 7959 1711 91       		.byte	0x91
 7960 1712 6B       		.sleb128 -21
 7961 1713 25       		.uleb128 0x25
 7962 1714 6600     		.ascii	"f\000"
 7963 1716 01       		.byte	0x1
 7964 1717 1903     		.2byte	0x319
 7965 1719 ED0A0000 		.4byte	0xaed
 7966 171d 02       		.uleb128 0x2
 7967 171e 91       		.byte	0x91
 7968 171f 74       		.sleb128 -12
 7969 1720 00       		.byte	0
 7970 1721 22       		.uleb128 0x22
 7971 1722 1E090000 		.4byte	.LASF288
 7972 1726 01       		.byte	0x1
 7973 1727 2603     		.2byte	0x326
 7974 1729 00000000 		.4byte	.LFB107
 7975 172d 1C000000 		.4byte	.LFE107-.LFB107
 7976 1731 01       		.uleb128 0x1
 7977 1732 9C       		.byte	0x9c
 7978 1733 56170000 		.4byte	0x1756
 7979 1737 1F       		.uleb128 0x1f
 7980 1738 63747800 		.ascii	"ctx\000"
 7981 173c 01       		.byte	0x1
 7982 173d 2603     		.2byte	0x326
 7983 173f 330B0000 		.4byte	0xb33
 7984 1743 02       		.uleb128 0x2
 7985 1744 91       		.byte	0x91
 7986 1745 74       		.sleb128 -12
 7987 1746 1F       		.uleb128 0x1f
 7988 1747 6F757400 		.ascii	"out\000"
ARM GAS  C:\Users\JENNEW~1\AppData\Local\Temp\cc33Iuyf.s 			page 162


 7989 174b 01       		.byte	0x1
 7990 174c 2603     		.2byte	0x326
 7991 174e 3E0B0000 		.4byte	0xb3e
 7992 1752 02       		.uleb128 0x2
 7993 1753 91       		.byte	0x91
 7994 1754 70       		.sleb128 -16
 7995 1755 00       		.byte	0
 7996 1756 22       		.uleb128 0x22
 7997 1757 D5080000 		.4byte	.LASF289
 7998 175b 01       		.byte	0x1
 7999 175c 2C03     		.2byte	0x32c
 8000 175e 00000000 		.4byte	.LFB108
 8001 1762 1A000000 		.4byte	.LFE108-.LFB108
 8002 1766 01       		.uleb128 0x1
 8003 1767 9C       		.byte	0x9c
 8004 1768 8B170000 		.4byte	0x178b
 8005 176c 1F       		.uleb128 0x1f
 8006 176d 63747800 		.ascii	"ctx\000"
 8007 1771 01       		.byte	0x1
 8008 1772 2C03     		.2byte	0x32c
 8009 1774 330B0000 		.4byte	0xb33
 8010 1778 02       		.uleb128 0x2
 8011 1779 91       		.byte	0x91
 8012 177a 74       		.sleb128 -12
 8013 177b 1F       		.uleb128 0x1f
 8014 177c 6F757400 		.ascii	"out\000"
 8015 1780 01       		.byte	0x1
 8016 1781 2C03     		.2byte	0x32c
 8017 1783 3E0B0000 		.4byte	0xb3e
 8018 1787 02       		.uleb128 0x2
 8019 1788 91       		.byte	0x91
 8020 1789 70       		.sleb128 -16
 8021 178a 00       		.byte	0
 8022 178b 22       		.uleb128 0x22
 8023 178c 7D0E0000 		.4byte	.LASF290
 8024 1790 01       		.byte	0x1
 8025 1791 3103     		.2byte	0x331
 8026 1793 00000000 		.4byte	.LFB109
 8027 1797 A4000000 		.4byte	.LFE109-.LFB109
 8028 179b 01       		.uleb128 0x1
 8029 179c 9C       		.byte	0x9c
 8030 179d C0170000 		.4byte	0x17c0
 8031 17a1 1F       		.uleb128 0x1f
 8032 17a2 63747800 		.ascii	"ctx\000"
 8033 17a6 01       		.byte	0x1
 8034 17a7 3103     		.2byte	0x331
 8035 17a9 330B0000 		.4byte	0xb33
 8036 17ad 02       		.uleb128 0x2
 8037 17ae 91       		.byte	0x91
 8038 17af 74       		.sleb128 -12
 8039 17b0 1F       		.uleb128 0x1f
 8040 17b1 6F757400 		.ascii	"out\000"
 8041 17b5 01       		.byte	0x1
 8042 17b6 3103     		.2byte	0x331
 8043 17b8 3E0B0000 		.4byte	0xb3e
 8044 17bc 02       		.uleb128 0x2
 8045 17bd 91       		.byte	0x91
ARM GAS  C:\Users\JENNEW~1\AppData\Local\Temp\cc33Iuyf.s 			page 163


 8046 17be 70       		.sleb128 -16
 8047 17bf 00       		.byte	0
 8048 17c0 22       		.uleb128 0x22
 8049 17c1 DF090000 		.4byte	.LASF291
 8050 17c5 01       		.byte	0x1
 8051 17c6 4303     		.2byte	0x343
 8052 17c8 00000000 		.4byte	.LFB110
 8053 17cc 28000000 		.4byte	.LFE110-.LFB110
 8054 17d0 01       		.uleb128 0x1
 8055 17d1 9C       		.byte	0x9c
 8056 17d2 F5170000 		.4byte	0x17f5
 8057 17d6 1F       		.uleb128 0x1f
 8058 17d7 63747800 		.ascii	"ctx\000"
 8059 17db 01       		.byte	0x1
 8060 17dc 4303     		.2byte	0x343
 8061 17de 330B0000 		.4byte	0xb33
 8062 17e2 02       		.uleb128 0x2
 8063 17e3 91       		.byte	0x91
 8064 17e4 74       		.sleb128 -12
 8065 17e5 1F       		.uleb128 0x1f
 8066 17e6 6F757400 		.ascii	"out\000"
 8067 17ea 01       		.byte	0x1
 8068 17eb 4303     		.2byte	0x343
 8069 17ed 3E0B0000 		.4byte	0xb3e
 8070 17f1 02       		.uleb128 0x2
 8071 17f2 91       		.byte	0x91
 8072 17f3 70       		.sleb128 -16
 8073 17f4 00       		.byte	0
 8074 17f5 1E       		.uleb128 0x1e
 8075 17f6 3C0D0000 		.4byte	.LASF292
 8076 17fa 01       		.byte	0x1
 8077 17fb 4A03     		.2byte	0x34a
 8078 17fd 00000000 		.4byte	.LFB111
 8079 1801 3C000000 		.4byte	.LFE111-.LFB111
 8080 1805 01       		.uleb128 0x1
 8081 1806 9C       		.byte	0x9c
 8082 1807 37180000 		.4byte	0x1837
 8083 180b 1F       		.uleb128 0x1f
 8084 180c 63747800 		.ascii	"ctx\000"
 8085 1810 01       		.byte	0x1
 8086 1811 4A03     		.2byte	0x34a
 8087 1813 330B0000 		.4byte	0xb33
 8088 1817 02       		.uleb128 0x2
 8089 1818 91       		.byte	0x91
 8090 1819 6C       		.sleb128 -20
 8091 181a 1F       		.uleb128 0x1f
 8092 181b 6F757400 		.ascii	"out\000"
 8093 181f 01       		.byte	0x1
 8094 1820 4A03     		.2byte	0x34a
 8095 1822 3E0B0000 		.4byte	0xb3e
 8096 1826 02       		.uleb128 0x2
 8097 1827 91       		.byte	0x91
 8098 1828 68       		.sleb128 -24
 8099 1829 25       		.uleb128 0x25
 8100 182a 6600     		.ascii	"f\000"
 8101 182c 01       		.byte	0x1
 8102 182d 4C03     		.2byte	0x34c
ARM GAS  C:\Users\JENNEW~1\AppData\Local\Temp\cc33Iuyf.s 			page 164


 8103 182f 120B0000 		.4byte	0xb12
 8104 1833 02       		.uleb128 0x2
 8105 1834 91       		.byte	0x91
 8106 1835 74       		.sleb128 -12
 8107 1836 00       		.byte	0
 8108 1837 22       		.uleb128 0x22
 8109 1838 B8010000 		.4byte	.LASF293
 8110 183c 01       		.byte	0x1
 8111 183d 5203     		.2byte	0x352
 8112 183f 00000000 		.4byte	.LFB112
 8113 1843 B8010000 		.4byte	.LFE112-.LFB112
 8114 1847 01       		.uleb128 0x1
 8115 1848 9C       		.byte	0x9c
 8116 1849 9F180000 		.4byte	0x189f
 8117 184d 1F       		.uleb128 0x1f
 8118 184e 63747800 		.ascii	"ctx\000"
 8119 1852 01       		.byte	0x1
 8120 1853 5203     		.2byte	0x352
 8121 1855 E70A0000 		.4byte	0xae7
 8122 1859 02       		.uleb128 0x2
 8123 185a 91       		.byte	0x91
 8124 185b 64       		.sleb128 -28
 8125 185c 27       		.uleb128 0x27
 8126 185d 5C0E0000 		.4byte	.LASF294
 8127 1861 01       		.byte	0x1
 8128 1862 5203     		.2byte	0x352
 8129 1864 D9000000 		.4byte	0xd9
 8130 1868 02       		.uleb128 0x2
 8131 1869 91       		.byte	0x91
 8132 186a 60       		.sleb128 -32
 8133 186b 27       		.uleb128 0x27
 8134 186c AC040000 		.4byte	.LASF295
 8135 1870 01       		.byte	0x1
 8136 1871 5203     		.2byte	0x352
 8137 1873 D9000000 		.4byte	0xd9
 8138 1877 02       		.uleb128 0x2
 8139 1878 91       		.byte	0x91
 8140 1879 5C       		.sleb128 -36
 8141 187a 1D       		.uleb128 0x1d
 8142 187b 16000000 		.4byte	.LBB13
 8143 187f 50000000 		.4byte	.LBE13-.LBB13
 8144 1883 25       		.uleb128 0x25
 8145 1884 7000     		.ascii	"p\000"
 8146 1886 01       		.byte	0x1
 8147 1887 5503     		.2byte	0x355
 8148 1889 D9000000 		.4byte	0xd9
 8149 188d 02       		.uleb128 0x2
 8150 188e 91       		.byte	0x91
 8151 188f 6C       		.sleb128 -20
 8152 1890 25       		.uleb128 0x25
 8153 1891 7400     		.ascii	"t\000"
 8154 1893 01       		.byte	0x1
 8155 1894 5503     		.2byte	0x355
 8156 1896 D9000000 		.4byte	0xd9
 8157 189a 02       		.uleb128 0x2
 8158 189b 91       		.byte	0x91
 8159 189c 68       		.sleb128 -24
ARM GAS  C:\Users\JENNEW~1\AppData\Local\Temp\cc33Iuyf.s 			page 165


 8160 189d 00       		.byte	0
 8161 189e 00       		.byte	0
 8162 189f 26       		.uleb128 0x26
 8163 18a0 DA0A0000 		.4byte	.LASF296
 8164 18a4 01       		.byte	0x1
 8165 18a5 6A03     		.2byte	0x36a
 8166 18a7 A2000000 		.4byte	0xa2
 8167 18ab 00000000 		.4byte	.LFB113
 8168 18af 24020000 		.4byte	.LFE113-.LFB113
 8169 18b3 01       		.uleb128 0x1
 8170 18b4 9C       		.byte	0x9c
 8171 18b5 D6180000 		.4byte	0x18d6
 8172 18b9 1F       		.uleb128 0x1f
 8173 18ba 63747800 		.ascii	"ctx\000"
 8174 18be 01       		.byte	0x1
 8175 18bf 6A03     		.2byte	0x36a
 8176 18c1 E70A0000 		.4byte	0xae7
 8177 18c5 02       		.uleb128 0x2
 8178 18c6 91       		.byte	0x91
 8179 18c7 74       		.sleb128 -12
 8180 18c8 1F       		.uleb128 0x1f
 8181 18c9 6B00     		.ascii	"k\000"
 8182 18cb 01       		.byte	0x1
 8183 18cc 6A03     		.2byte	0x36a
 8184 18ce E7000000 		.4byte	0xe7
 8185 18d2 02       		.uleb128 0x2
 8186 18d3 91       		.byte	0x91
 8187 18d4 73       		.sleb128 -13
 8188 18d5 00       		.byte	0
 8189 18d6 1E       		.uleb128 0x1e
 8190 18d7 C4030000 		.4byte	.LASF297
 8191 18db 01       		.byte	0x1
 8192 18dc 8103     		.2byte	0x381
 8193 18de 00000000 		.4byte	.LFB114
 8194 18e2 C4000000 		.4byte	.LFE114-.LFB114
 8195 18e6 01       		.uleb128 0x1
 8196 18e7 9C       		.byte	0x9c
 8197 18e8 34190000 		.4byte	0x1934
 8198 18ec 1F       		.uleb128 0x1f
 8199 18ed 63747800 		.ascii	"ctx\000"
 8200 18f1 01       		.byte	0x1
 8201 18f2 8103     		.2byte	0x381
 8202 18f4 E70A0000 		.4byte	0xae7
 8203 18f8 02       		.uleb128 0x2
 8204 18f9 91       		.byte	0x91
 8205 18fa 64       		.sleb128 -28
 8206 18fb 20       		.uleb128 0x20
 8207 18fc A4040000 		.4byte	.LASF233
 8208 1900 01       		.byte	0x1
 8209 1901 8403     		.2byte	0x384
 8210 1903 CE000000 		.4byte	0xce
 8211 1907 02       		.uleb128 0x2
 8212 1908 91       		.byte	0x91
 8213 1909 70       		.sleb128 -16
 8214 190a 25       		.uleb128 0x25
 8215 190b 7000     		.ascii	"p\000"
 8216 190d 01       		.byte	0x1
ARM GAS  C:\Users\JENNEW~1\AppData\Local\Temp\cc33Iuyf.s 			page 166


 8217 190e 8703     		.2byte	0x387
 8218 1910 D9000000 		.4byte	0xd9
 8219 1914 02       		.uleb128 0x2
 8220 1915 91       		.byte	0x91
 8221 1916 6C       		.sleb128 -20
 8222 1917 25       		.uleb128 0x25
 8223 1918 7400     		.ascii	"t\000"
 8224 191a 01       		.byte	0x1
 8225 191b 8703     		.2byte	0x387
 8226 191d D9000000 		.4byte	0xd9
 8227 1921 02       		.uleb128 0x2
 8228 1922 91       		.byte	0x91
 8229 1923 68       		.sleb128 -24
 8230 1924 20       		.uleb128 0x20
 8231 1925 540E0000 		.4byte	.LASF234
 8232 1929 01       		.byte	0x1
 8233 192a 8703     		.2byte	0x387
 8234 192c A2000000 		.4byte	0xa2
 8235 1930 02       		.uleb128 0x2
 8236 1931 91       		.byte	0x91
 8237 1932 77       		.sleb128 -9
 8238 1933 00       		.byte	0
 8239 1934 28       		.uleb128 0x28
 8240 1935 F90B0000 		.4byte	.LASF298
 8241 1939 01       		.byte	0x1
 8242 193a 9003     		.2byte	0x390
 8243 193c A2000000 		.4byte	0xa2
 8244 1940 00000000 		.4byte	.LFB115
 8245 1944 22000000 		.4byte	.LFE115-.LFB115
 8246 1948 01       		.uleb128 0x1
 8247 1949 9C       		.byte	0x9c
 8248 194a 5C190000 		.4byte	0x195c
 8249 194e 1F       		.uleb128 0x1f
 8250 194f 7300     		.ascii	"s\000"
 8251 1951 01       		.byte	0x1
 8252 1952 9003     		.2byte	0x390
 8253 1954 A2000000 		.4byte	0xa2
 8254 1958 02       		.uleb128 0x2
 8255 1959 91       		.byte	0x91
 8256 195a 77       		.sleb128 -9
 8257 195b 00       		.byte	0
 8258 195c 1E       		.uleb128 0x1e
 8259 195d E00B0000 		.4byte	.LASF299
 8260 1961 01       		.byte	0x1
 8261 1962 A003     		.2byte	0x3a0
 8262 1964 00000000 		.4byte	.LFB116
 8263 1968 F4000000 		.4byte	.LFE116-.LFB116
 8264 196c 01       		.uleb128 0x1
 8265 196d 9C       		.byte	0x9c
 8266 196e D6190000 		.4byte	0x19d6
 8267 1972 1F       		.uleb128 0x1f
 8268 1973 63747800 		.ascii	"ctx\000"
 8269 1977 01       		.byte	0x1
 8270 1978 A003     		.2byte	0x3a0
 8271 197a E70A0000 		.4byte	0xae7
 8272 197e 03       		.uleb128 0x3
 8273 197f 91       		.byte	0x91
ARM GAS  C:\Users\JENNEW~1\AppData\Local\Temp\cc33Iuyf.s 			page 167


 8274 1980 DC7E     		.sleb128 -164
 8275 1982 25       		.uleb128 0x25
 8276 1983 74677400 		.ascii	"tgt\000"
 8277 1987 01       		.byte	0x1
 8278 1988 A503     		.2byte	0x3a5
 8279 198a C00A0000 		.4byte	0xac0
 8280 198e 02       		.uleb128 0x2
 8281 198f 91       		.byte	0x91
 8282 1990 68       		.sleb128 -24
 8283 1991 25       		.uleb128 0x25
 8284 1992 72657100 		.ascii	"req\000"
 8285 1996 01       		.byte	0x1
 8286 1997 AF03     		.2byte	0x3af
 8287 1999 880A0000 		.4byte	0xa88
 8288 199d 02       		.uleb128 0x2
 8289 199e 91       		.byte	0x91
 8290 199f 64       		.sleb128 -28
 8291 19a0 20       		.uleb128 0x20
 8292 19a1 59060000 		.4byte	.LASF219
 8293 19a5 01       		.byte	0x1
 8294 19a6 BF03     		.2byte	0x3bf
 8295 19a8 FC070000 		.4byte	0x7fc
 8296 19ac 02       		.uleb128 0x2
 8297 19ad 91       		.byte	0x91
 8298 19ae 77       		.sleb128 -9
 8299 19af 25       		.uleb128 0x25
 8300 19b0 6200     		.ascii	"b\000"
 8301 19b2 01       		.byte	0x1
 8302 19b3 C003     		.2byte	0x3c0
 8303 19b5 D6190000 		.4byte	0x19d6
 8304 19b9 03       		.uleb128 0x3
 8305 19ba 91       		.byte	0x91
 8306 19bb A47F     		.sleb128 -92
 8307 19bd 1D       		.uleb128 0x1d
 8308 19be 76000000 		.4byte	.LBB14
 8309 19c2 2A000000 		.4byte	.LBE14-.LBB14
 8310 19c6 25       		.uleb128 0x25
 8311 19c7 6200     		.ascii	"b\000"
 8312 19c9 01       		.byte	0x1
 8313 19ca B803     		.2byte	0x3b8
 8314 19cc D6190000 		.4byte	0x19d6
 8315 19d0 03       		.uleb128 0x3
 8316 19d1 91       		.byte	0x91
 8317 19d2 E47E     		.sleb128 -156
 8318 19d4 00       		.byte	0
 8319 19d5 00       		.byte	0
 8320 19d6 13       		.uleb128 0x13
 8321 19d7 E7000000 		.4byte	0xe7
 8322 19db E6190000 		.4byte	0x19e6
 8323 19df 14       		.uleb128 0x14
 8324 19e0 F5000000 		.4byte	0xf5
 8325 19e4 3F       		.byte	0x3f
 8326 19e5 00       		.byte	0
 8327 19e6 13       		.uleb128 0x13
 8328 19e7 F6190000 		.4byte	0x19f6
 8329 19eb F6190000 		.4byte	0x19f6
 8330 19ef 14       		.uleb128 0x14
ARM GAS  C:\Users\JENNEW~1\AppData\Local\Temp\cc33Iuyf.s 			page 168


 8331 19f0 F5000000 		.4byte	0xf5
 8332 19f4 0E       		.byte	0xe
 8333 19f5 00       		.byte	0
 8334 19f6 07       		.uleb128 0x7
 8335 19f7 FC070000 		.4byte	0x7fc
 8336 19fb 1B       		.uleb128 0x1b
 8337 19fc 75090000 		.4byte	.LASF300
 8338 1a00 01       		.byte	0x1
 8339 1a01 40       		.byte	0x40
 8340 1a02 0C1A0000 		.4byte	0x1a0c
 8341 1a06 05       		.uleb128 0x5
 8342 1a07 03       		.byte	0x3
 8343 1a08 00000000 		.4byte	parent_of
 8344 1a0c 07       		.uleb128 0x7
 8345 1a0d E6190000 		.4byte	0x19e6
 8346 1a11 13       		.uleb128 0x13
 8347 1a12 211A0000 		.4byte	0x1a21
 8348 1a16 211A0000 		.4byte	0x1a21
 8349 1a1a 14       		.uleb128 0x14
 8350 1a1b F5000000 		.4byte	0xf5
 8351 1a1f 0E       		.byte	0xe
 8352 1a20 00       		.byte	0
 8353 1a21 07       		.uleb128 0x7
 8354 1a22 CB0A0000 		.4byte	0xacb
 8355 1a26 1B       		.uleb128 0x1b
 8356 1a27 16030000 		.4byte	.LASF301
 8357 1a2b 01       		.byte	0x1
 8358 1a2c 8E       		.byte	0x8e
 8359 1a2d 371A0000 		.4byte	0x1a37
 8360 1a31 05       		.uleb128 0x5
 8361 1a32 03       		.byte	0x3
 8362 1a33 10000000 		.4byte	on_entry
 8363 1a37 07       		.uleb128 0x7
 8364 1a38 111A0000 		.4byte	0x1a11
 8365 1a3c 1B       		.uleb128 0x1b
 8366 1a3d 27040000 		.4byte	.LASF302
 8367 1a41 01       		.byte	0x1
 8368 1a42 9F       		.byte	0x9f
 8369 1a43 4D1A0000 		.4byte	0x1a4d
 8370 1a47 05       		.uleb128 0x5
 8371 1a48 03       		.byte	0x3
 8372 1a49 4C000000 		.4byte	on_exit
 8373 1a4d 07       		.uleb128 0x7
 8374 1a4e 111A0000 		.4byte	0x1a11
 8375 1a52 13       		.uleb128 0x13
 8376 1a53 621A0000 		.4byte	0x1a62
 8377 1a57 621A0000 		.4byte	0x1a62
 8378 1a5b 14       		.uleb128 0x14
 8379 1a5c F5000000 		.4byte	0xf5
 8380 1a60 0E       		.byte	0xe
 8381 1a61 00       		.byte	0
 8382 1a62 07       		.uleb128 0x7
 8383 1a63 ED0A0000 		.4byte	0xaed
 8384 1a67 1B       		.uleb128 0x1b
 8385 1a68 26030000 		.4byte	.LASF303
 8386 1a6c 01       		.byte	0x1
 8387 1a6d B0       		.byte	0xb0
ARM GAS  C:\Users\JENNEW~1\AppData\Local\Temp\cc33Iuyf.s 			page 169


 8388 1a6e 781A0000 		.4byte	0x1a78
 8389 1a72 05       		.uleb128 0x5
 8390 1a73 03       		.byte	0x3
 8391 1a74 88000000 		.4byte	on_key
 8392 1a78 07       		.uleb128 0x7
 8393 1a79 521A0000 		.4byte	0x1a52
 8394 1a7d 13       		.uleb128 0x13
 8395 1a7e 8D1A0000 		.4byte	0x1a8d
 8396 1a82 8D1A0000 		.4byte	0x1a8d
 8397 1a86 14       		.uleb128 0x14
 8398 1a87 F5000000 		.4byte	0xf5
 8399 1a8b 0E       		.byte	0xe
 8400 1a8c 00       		.byte	0
 8401 1a8d 07       		.uleb128 0x7
 8402 1a8e 120B0000 		.4byte	0xb12
 8403 1a92 1B       		.uleb128 0x1b
 8404 1a93 D30C0000 		.4byte	.LASF304
 8405 1a97 01       		.byte	0x1
 8406 1a98 BD       		.byte	0xbd
 8407 1a99 A31A0000 		.4byte	0x1aa3
 8408 1a9d 05       		.uleb128 0x5
 8409 1a9e 03       		.byte	0x3
 8410 1a9f C4000000 		.4byte	on_build
 8411 1aa3 07       		.uleb128 0x7
 8412 1aa4 7D1A0000 		.4byte	0x1a7d
 8413 1aa8 13       		.uleb128 0x13
 8414 1aa9 B81A0000 		.4byte	0x1ab8
 8415 1aad B81A0000 		.4byte	0x1ab8
 8416 1ab1 14       		.uleb128 0x14
 8417 1ab2 F5000000 		.4byte	0xf5
 8418 1ab6 0E       		.byte	0xe
 8419 1ab7 00       		.byte	0
 8420 1ab8 07       		.uleb128 0x7
 8421 1ab9 FE000000 		.4byte	0xfe
 8422 1abd 20       		.uleb128 0x20
 8423 1abe 27050000 		.4byte	.LASF305
 8424 1ac2 01       		.byte	0x1
 8425 1ac3 2101     		.2byte	0x121
 8426 1ac5 CF1A0000 		.4byte	0x1acf
 8427 1ac9 05       		.uleb128 0x5
 8428 1aca 03       		.byte	0x3
 8429 1acb C4010000 		.4byte	state_names
 8430 1acf 07       		.uleb128 0x7
 8431 1ad0 A81A0000 		.4byte	0x1aa8
 8432 1ad4 2A       		.uleb128 0x2a
 8433 1ad5 AB080000 		.4byte	.LASF306
 8434 1ad9 0C       		.byte	0xc
 8435 1ada 1207     		.2byte	0x712
 8436 1adc E01A0000 		.4byte	0x1ae0
 8437 1ae0 08       		.uleb128 0x8
 8438 1ae1 C3000000 		.4byte	0xc3
 8439 1ae5 2B       		.uleb128 0x2b
 8440 1ae6 80040000 		.4byte	.LASF307
 8441 1aea 01       		.byte	0x1
 8442 1aeb 3B       		.byte	0x3b
 8443 1aec 09010000 		.4byte	0x109
 8444 1af0 00       		.byte	0
ARM GAS  C:\Users\JENNEW~1\AppData\Local\Temp\cc33Iuyf.s 			page 170


 8445              		.section	.debug_abbrev,"",%progbits
 8446              	.Ldebug_abbrev0:
 8447 0000 01       		.uleb128 0x1
 8448 0001 11       		.uleb128 0x11
 8449 0002 01       		.byte	0x1
 8450 0003 25       		.uleb128 0x25
 8451 0004 0E       		.uleb128 0xe
 8452 0005 13       		.uleb128 0x13
 8453 0006 0B       		.uleb128 0xb
 8454 0007 03       		.uleb128 0x3
 8455 0008 0E       		.uleb128 0xe
 8456 0009 1B       		.uleb128 0x1b
 8457 000a 0E       		.uleb128 0xe
 8458 000b 55       		.uleb128 0x55
 8459 000c 17       		.uleb128 0x17
 8460 000d 11       		.uleb128 0x11
 8461 000e 01       		.uleb128 0x1
 8462 000f 10       		.uleb128 0x10
 8463 0010 17       		.uleb128 0x17
 8464 0011 00       		.byte	0
 8465 0012 00       		.byte	0
 8466 0013 02       		.uleb128 0x2
 8467 0014 24       		.uleb128 0x24
 8468 0015 00       		.byte	0
 8469 0016 0B       		.uleb128 0xb
 8470 0017 0B       		.uleb128 0xb
 8471 0018 3E       		.uleb128 0x3e
 8472 0019 0B       		.uleb128 0xb
 8473 001a 03       		.uleb128 0x3
 8474 001b 0E       		.uleb128 0xe
 8475 001c 00       		.byte	0
 8476 001d 00       		.byte	0
 8477 001e 03       		.uleb128 0x3
 8478 001f 16       		.uleb128 0x16
 8479 0020 00       		.byte	0
 8480 0021 03       		.uleb128 0x3
 8481 0022 0E       		.uleb128 0xe
 8482 0023 3A       		.uleb128 0x3a
 8483 0024 0B       		.uleb128 0xb
 8484 0025 3B       		.uleb128 0x3b
 8485 0026 0B       		.uleb128 0xb
 8486 0027 49       		.uleb128 0x49
 8487 0028 13       		.uleb128 0x13
 8488 0029 00       		.byte	0
 8489 002a 00       		.byte	0
 8490 002b 04       		.uleb128 0x4
 8491 002c 24       		.uleb128 0x24
 8492 002d 00       		.byte	0
 8493 002e 0B       		.uleb128 0xb
 8494 002f 0B       		.uleb128 0xb
 8495 0030 3E       		.uleb128 0x3e
 8496 0031 0B       		.uleb128 0xb
 8497 0032 03       		.uleb128 0x3
 8498 0033 08       		.uleb128 0x8
 8499 0034 00       		.byte	0
 8500 0035 00       		.byte	0
 8501 0036 05       		.uleb128 0x5
ARM GAS  C:\Users\JENNEW~1\AppData\Local\Temp\cc33Iuyf.s 			page 171


 8502 0037 0F       		.uleb128 0xf
 8503 0038 00       		.byte	0
 8504 0039 0B       		.uleb128 0xb
 8505 003a 0B       		.uleb128 0xb
 8506 003b 00       		.byte	0
 8507 003c 00       		.byte	0
 8508 003d 06       		.uleb128 0x6
 8509 003e 0F       		.uleb128 0xf
 8510 003f 00       		.byte	0
 8511 0040 0B       		.uleb128 0xb
 8512 0041 0B       		.uleb128 0xb
 8513 0042 49       		.uleb128 0x49
 8514 0043 13       		.uleb128 0x13
 8515 0044 00       		.byte	0
 8516 0045 00       		.byte	0
 8517 0046 07       		.uleb128 0x7
 8518 0047 26       		.uleb128 0x26
 8519 0048 00       		.byte	0
 8520 0049 49       		.uleb128 0x49
 8521 004a 13       		.uleb128 0x13
 8522 004b 00       		.byte	0
 8523 004c 00       		.byte	0
 8524 004d 08       		.uleb128 0x8
 8525 004e 35       		.uleb128 0x35
 8526 004f 00       		.byte	0
 8527 0050 49       		.uleb128 0x49
 8528 0051 13       		.uleb128 0x13
 8529 0052 00       		.byte	0
 8530 0053 00       		.byte	0
 8531 0054 09       		.uleb128 0x9
 8532 0055 04       		.uleb128 0x4
 8533 0056 01       		.byte	0x1
 8534 0057 0B       		.uleb128 0xb
 8535 0058 0B       		.uleb128 0xb
 8536 0059 49       		.uleb128 0x49
 8537 005a 13       		.uleb128 0x13
 8538 005b 3A       		.uleb128 0x3a
 8539 005c 0B       		.uleb128 0xb
 8540 005d 3B       		.uleb128 0x3b
 8541 005e 0B       		.uleb128 0xb
 8542 005f 01       		.uleb128 0x1
 8543 0060 13       		.uleb128 0x13
 8544 0061 00       		.byte	0
 8545 0062 00       		.byte	0
 8546 0063 0A       		.uleb128 0xa
 8547 0064 28       		.uleb128 0x28
 8548 0065 00       		.byte	0
 8549 0066 03       		.uleb128 0x3
 8550 0067 0E       		.uleb128 0xe
 8551 0068 1C       		.uleb128 0x1c
 8552 0069 0B       		.uleb128 0xb
 8553 006a 00       		.byte	0
 8554 006b 00       		.byte	0
 8555 006c 0B       		.uleb128 0xb
 8556 006d 13       		.uleb128 0x13
 8557 006e 01       		.byte	0x1
 8558 006f 0B       		.uleb128 0xb
ARM GAS  C:\Users\JENNEW~1\AppData\Local\Temp\cc33Iuyf.s 			page 172


 8559 0070 0B       		.uleb128 0xb
 8560 0071 3A       		.uleb128 0x3a
 8561 0072 0B       		.uleb128 0xb
 8562 0073 3B       		.uleb128 0x3b
 8563 0074 0B       		.uleb128 0xb
 8564 0075 01       		.uleb128 0x1
 8565 0076 13       		.uleb128 0x13
 8566 0077 00       		.byte	0
 8567 0078 00       		.byte	0
 8568 0079 0C       		.uleb128 0xc
 8569 007a 0D       		.uleb128 0xd
 8570 007b 00       		.byte	0
 8571 007c 03       		.uleb128 0x3
 8572 007d 08       		.uleb128 0x8
 8573 007e 3A       		.uleb128 0x3a
 8574 007f 0B       		.uleb128 0xb
 8575 0080 3B       		.uleb128 0x3b
 8576 0081 0B       		.uleb128 0xb
 8577 0082 49       		.uleb128 0x49
 8578 0083 13       		.uleb128 0x13
 8579 0084 38       		.uleb128 0x38
 8580 0085 0B       		.uleb128 0xb
 8581 0086 00       		.byte	0
 8582 0087 00       		.byte	0
 8583 0088 0D       		.uleb128 0xd
 8584 0089 0D       		.uleb128 0xd
 8585 008a 00       		.byte	0
 8586 008b 03       		.uleb128 0x3
 8587 008c 0E       		.uleb128 0xe
 8588 008d 3A       		.uleb128 0x3a
 8589 008e 0B       		.uleb128 0xb
 8590 008f 3B       		.uleb128 0x3b
 8591 0090 0B       		.uleb128 0xb
 8592 0091 49       		.uleb128 0x49
 8593 0092 13       		.uleb128 0x13
 8594 0093 38       		.uleb128 0x38
 8595 0094 0B       		.uleb128 0xb
 8596 0095 00       		.byte	0
 8597 0096 00       		.byte	0
 8598 0097 0E       		.uleb128 0xe
 8599 0098 15       		.uleb128 0x15
 8600 0099 01       		.byte	0x1
 8601 009a 27       		.uleb128 0x27
 8602 009b 19       		.uleb128 0x19
 8603 009c 01       		.uleb128 0x1
 8604 009d 13       		.uleb128 0x13
 8605 009e 00       		.byte	0
 8606 009f 00       		.byte	0
 8607 00a0 0F       		.uleb128 0xf
 8608 00a1 05       		.uleb128 0x5
 8609 00a2 00       		.byte	0
 8610 00a3 49       		.uleb128 0x49
 8611 00a4 13       		.uleb128 0x13
 8612 00a5 00       		.byte	0
 8613 00a6 00       		.byte	0
 8614 00a7 10       		.uleb128 0x10
 8615 00a8 15       		.uleb128 0x15
ARM GAS  C:\Users\JENNEW~1\AppData\Local\Temp\cc33Iuyf.s 			page 173


 8616 00a9 01       		.byte	0x1
 8617 00aa 27       		.uleb128 0x27
 8618 00ab 19       		.uleb128 0x19
 8619 00ac 49       		.uleb128 0x49
 8620 00ad 13       		.uleb128 0x13
 8621 00ae 01       		.uleb128 0x1
 8622 00af 13       		.uleb128 0x13
 8623 00b0 00       		.byte	0
 8624 00b1 00       		.byte	0
 8625 00b2 11       		.uleb128 0x11
 8626 00b3 13       		.uleb128 0x13
 8627 00b4 01       		.byte	0x1
 8628 00b5 0B       		.uleb128 0xb
 8629 00b6 05       		.uleb128 0x5
 8630 00b7 3A       		.uleb128 0x3a
 8631 00b8 0B       		.uleb128 0xb
 8632 00b9 3B       		.uleb128 0x3b
 8633 00ba 0B       		.uleb128 0xb
 8634 00bb 01       		.uleb128 0x1
 8635 00bc 13       		.uleb128 0x13
 8636 00bd 00       		.byte	0
 8637 00be 00       		.byte	0
 8638 00bf 12       		.uleb128 0x12
 8639 00c0 0D       		.uleb128 0xd
 8640 00c1 00       		.byte	0
 8641 00c2 03       		.uleb128 0x3
 8642 00c3 0E       		.uleb128 0xe
 8643 00c4 3A       		.uleb128 0x3a
 8644 00c5 0B       		.uleb128 0xb
 8645 00c6 3B       		.uleb128 0x3b
 8646 00c7 0B       		.uleb128 0xb
 8647 00c8 49       		.uleb128 0x49
 8648 00c9 13       		.uleb128 0x13
 8649 00ca 38       		.uleb128 0x38
 8650 00cb 05       		.uleb128 0x5
 8651 00cc 00       		.byte	0
 8652 00cd 00       		.byte	0
 8653 00ce 13       		.uleb128 0x13
 8654 00cf 01       		.uleb128 0x1
 8655 00d0 01       		.byte	0x1
 8656 00d1 49       		.uleb128 0x49
 8657 00d2 13       		.uleb128 0x13
 8658 00d3 01       		.uleb128 0x1
 8659 00d4 13       		.uleb128 0x13
 8660 00d5 00       		.byte	0
 8661 00d6 00       		.byte	0
 8662 00d7 14       		.uleb128 0x14
 8663 00d8 21       		.uleb128 0x21
 8664 00d9 00       		.byte	0
 8665 00da 49       		.uleb128 0x49
 8666 00db 13       		.uleb128 0x13
 8667 00dc 2F       		.uleb128 0x2f
 8668 00dd 0B       		.uleb128 0xb
 8669 00de 00       		.byte	0
 8670 00df 00       		.byte	0
 8671 00e0 15       		.uleb128 0x15
 8672 00e1 2E       		.uleb128 0x2e
ARM GAS  C:\Users\JENNEW~1\AppData\Local\Temp\cc33Iuyf.s 			page 174


 8673 00e2 01       		.byte	0x1
 8674 00e3 03       		.uleb128 0x3
 8675 00e4 0E       		.uleb128 0xe
 8676 00e5 3A       		.uleb128 0x3a
 8677 00e6 0B       		.uleb128 0xb
 8678 00e7 3B       		.uleb128 0x3b
 8679 00e8 0B       		.uleb128 0xb
 8680 00e9 27       		.uleb128 0x27
 8681 00ea 19       		.uleb128 0x19
 8682 00eb 49       		.uleb128 0x49
 8683 00ec 13       		.uleb128 0x13
 8684 00ed 11       		.uleb128 0x11
 8685 00ee 01       		.uleb128 0x1
 8686 00ef 12       		.uleb128 0x12
 8687 00f0 06       		.uleb128 0x6
 8688 00f1 40       		.uleb128 0x40
 8689 00f2 18       		.uleb128 0x18
 8690 00f3 9742     		.uleb128 0x2117
 8691 00f5 19       		.uleb128 0x19
 8692 00f6 01       		.uleb128 0x1
 8693 00f7 13       		.uleb128 0x13
 8694 00f8 00       		.byte	0
 8695 00f9 00       		.byte	0
 8696 00fa 16       		.uleb128 0x16
 8697 00fb 05       		.uleb128 0x5
 8698 00fc 00       		.byte	0
 8699 00fd 03       		.uleb128 0x3
 8700 00fe 08       		.uleb128 0x8
 8701 00ff 3A       		.uleb128 0x3a
 8702 0100 0B       		.uleb128 0xb
 8703 0101 3B       		.uleb128 0x3b
 8704 0102 0B       		.uleb128 0xb
 8705 0103 49       		.uleb128 0x49
 8706 0104 13       		.uleb128 0x13
 8707 0105 02       		.uleb128 0x2
 8708 0106 18       		.uleb128 0x18
 8709 0107 00       		.byte	0
 8710 0108 00       		.byte	0
 8711 0109 17       		.uleb128 0x17
 8712 010a 34       		.uleb128 0x34
 8713 010b 00       		.byte	0
 8714 010c 03       		.uleb128 0x3
 8715 010d 08       		.uleb128 0x8
 8716 010e 3A       		.uleb128 0x3a
 8717 010f 0B       		.uleb128 0xb
 8718 0110 3B       		.uleb128 0x3b
 8719 0111 0B       		.uleb128 0xb
 8720 0112 49       		.uleb128 0x49
 8721 0113 13       		.uleb128 0x13
 8722 0114 02       		.uleb128 0x2
 8723 0115 18       		.uleb128 0x18
 8724 0116 00       		.byte	0
 8725 0117 00       		.byte	0
 8726 0118 18       		.uleb128 0x18
 8727 0119 2E       		.uleb128 0x2e
 8728 011a 01       		.byte	0x1
 8729 011b 03       		.uleb128 0x3
ARM GAS  C:\Users\JENNEW~1\AppData\Local\Temp\cc33Iuyf.s 			page 175


 8730 011c 08       		.uleb128 0x8
 8731 011d 3A       		.uleb128 0x3a
 8732 011e 0B       		.uleb128 0xb
 8733 011f 3B       		.uleb128 0x3b
 8734 0120 0B       		.uleb128 0xb
 8735 0121 27       		.uleb128 0x27
 8736 0122 19       		.uleb128 0x19
 8737 0123 49       		.uleb128 0x49
 8738 0124 13       		.uleb128 0x13
 8739 0125 11       		.uleb128 0x11
 8740 0126 01       		.uleb128 0x1
 8741 0127 12       		.uleb128 0x12
 8742 0128 06       		.uleb128 0x6
 8743 0129 40       		.uleb128 0x40
 8744 012a 18       		.uleb128 0x18
 8745 012b 9642     		.uleb128 0x2116
 8746 012d 19       		.uleb128 0x19
 8747 012e 01       		.uleb128 0x1
 8748 012f 13       		.uleb128 0x13
 8749 0130 00       		.byte	0
 8750 0131 00       		.byte	0
 8751 0132 19       		.uleb128 0x19
 8752 0133 2E       		.uleb128 0x2e
 8753 0134 01       		.byte	0x1
 8754 0135 03       		.uleb128 0x3
 8755 0136 0E       		.uleb128 0xe
 8756 0137 3A       		.uleb128 0x3a
 8757 0138 0B       		.uleb128 0xb
 8758 0139 3B       		.uleb128 0x3b
 8759 013a 0B       		.uleb128 0xb
 8760 013b 27       		.uleb128 0x27
 8761 013c 19       		.uleb128 0x19
 8762 013d 11       		.uleb128 0x11
 8763 013e 01       		.uleb128 0x1
 8764 013f 12       		.uleb128 0x12
 8765 0140 06       		.uleb128 0x6
 8766 0141 40       		.uleb128 0x40
 8767 0142 18       		.uleb128 0x18
 8768 0143 9642     		.uleb128 0x2116
 8769 0145 19       		.uleb128 0x19
 8770 0146 01       		.uleb128 0x1
 8771 0147 13       		.uleb128 0x13
 8772 0148 00       		.byte	0
 8773 0149 00       		.byte	0
 8774 014a 1A       		.uleb128 0x1a
 8775 014b 05       		.uleb128 0x5
 8776 014c 00       		.byte	0
 8777 014d 03       		.uleb128 0x3
 8778 014e 0E       		.uleb128 0xe
 8779 014f 3A       		.uleb128 0x3a
 8780 0150 0B       		.uleb128 0xb
 8781 0151 3B       		.uleb128 0x3b
 8782 0152 0B       		.uleb128 0xb
 8783 0153 49       		.uleb128 0x49
 8784 0154 13       		.uleb128 0x13
 8785 0155 02       		.uleb128 0x2
 8786 0156 18       		.uleb128 0x18
ARM GAS  C:\Users\JENNEW~1\AppData\Local\Temp\cc33Iuyf.s 			page 176


 8787 0157 00       		.byte	0
 8788 0158 00       		.byte	0
 8789 0159 1B       		.uleb128 0x1b
 8790 015a 34       		.uleb128 0x34
 8791 015b 00       		.byte	0
 8792 015c 03       		.uleb128 0x3
 8793 015d 0E       		.uleb128 0xe
 8794 015e 3A       		.uleb128 0x3a
 8795 015f 0B       		.uleb128 0xb
 8796 0160 3B       		.uleb128 0x3b
 8797 0161 0B       		.uleb128 0xb
 8798 0162 49       		.uleb128 0x49
 8799 0163 13       		.uleb128 0x13
 8800 0164 02       		.uleb128 0x2
 8801 0165 18       		.uleb128 0x18
 8802 0166 00       		.byte	0
 8803 0167 00       		.byte	0
 8804 0168 1C       		.uleb128 0x1c
 8805 0169 0B       		.uleb128 0xb
 8806 016a 01       		.byte	0x1
 8807 016b 11       		.uleb128 0x11
 8808 016c 01       		.uleb128 0x1
 8809 016d 12       		.uleb128 0x12
 8810 016e 06       		.uleb128 0x6
 8811 016f 01       		.uleb128 0x1
 8812 0170 13       		.uleb128 0x13
 8813 0171 00       		.byte	0
 8814 0172 00       		.byte	0
 8815 0173 1D       		.uleb128 0x1d
 8816 0174 0B       		.uleb128 0xb
 8817 0175 01       		.byte	0x1
 8818 0176 11       		.uleb128 0x11
 8819 0177 01       		.uleb128 0x1
 8820 0178 12       		.uleb128 0x12
 8821 0179 06       		.uleb128 0x6
 8822 017a 00       		.byte	0
 8823 017b 00       		.byte	0
 8824 017c 1E       		.uleb128 0x1e
 8825 017d 2E       		.uleb128 0x2e
 8826 017e 01       		.byte	0x1
 8827 017f 3F       		.uleb128 0x3f
 8828 0180 19       		.uleb128 0x19
 8829 0181 03       		.uleb128 0x3
 8830 0182 0E       		.uleb128 0xe
 8831 0183 3A       		.uleb128 0x3a
 8832 0184 0B       		.uleb128 0xb
 8833 0185 3B       		.uleb128 0x3b
 8834 0186 05       		.uleb128 0x5
 8835 0187 27       		.uleb128 0x27
 8836 0188 19       		.uleb128 0x19
 8837 0189 11       		.uleb128 0x11
 8838 018a 01       		.uleb128 0x1
 8839 018b 12       		.uleb128 0x12
 8840 018c 06       		.uleb128 0x6
 8841 018d 40       		.uleb128 0x40
 8842 018e 18       		.uleb128 0x18
 8843 018f 9642     		.uleb128 0x2116
ARM GAS  C:\Users\JENNEW~1\AppData\Local\Temp\cc33Iuyf.s 			page 177


 8844 0191 19       		.uleb128 0x19
 8845 0192 01       		.uleb128 0x1
 8846 0193 13       		.uleb128 0x13
 8847 0194 00       		.byte	0
 8848 0195 00       		.byte	0
 8849 0196 1F       		.uleb128 0x1f
 8850 0197 05       		.uleb128 0x5
 8851 0198 00       		.byte	0
 8852 0199 03       		.uleb128 0x3
 8853 019a 08       		.uleb128 0x8
 8854 019b 3A       		.uleb128 0x3a
 8855 019c 0B       		.uleb128 0xb
 8856 019d 3B       		.uleb128 0x3b
 8857 019e 05       		.uleb128 0x5
 8858 019f 49       		.uleb128 0x49
 8859 01a0 13       		.uleb128 0x13
 8860 01a1 02       		.uleb128 0x2
 8861 01a2 18       		.uleb128 0x18
 8862 01a3 00       		.byte	0
 8863 01a4 00       		.byte	0
 8864 01a5 20       		.uleb128 0x20
 8865 01a6 34       		.uleb128 0x34
 8866 01a7 00       		.byte	0
 8867 01a8 03       		.uleb128 0x3
 8868 01a9 0E       		.uleb128 0xe
 8869 01aa 3A       		.uleb128 0x3a
 8870 01ab 0B       		.uleb128 0xb
 8871 01ac 3B       		.uleb128 0x3b
 8872 01ad 05       		.uleb128 0x5
 8873 01ae 49       		.uleb128 0x49
 8874 01af 13       		.uleb128 0x13
 8875 01b0 02       		.uleb128 0x2
 8876 01b1 18       		.uleb128 0x18
 8877 01b2 00       		.byte	0
 8878 01b3 00       		.byte	0
 8879 01b4 21       		.uleb128 0x21
 8880 01b5 2E       		.uleb128 0x2e
 8881 01b6 01       		.byte	0x1
 8882 01b7 3F       		.uleb128 0x3f
 8883 01b8 19       		.uleb128 0x19
 8884 01b9 03       		.uleb128 0x3
 8885 01ba 0E       		.uleb128 0xe
 8886 01bb 3A       		.uleb128 0x3a
 8887 01bc 0B       		.uleb128 0xb
 8888 01bd 3B       		.uleb128 0x3b
 8889 01be 05       		.uleb128 0x5
 8890 01bf 27       		.uleb128 0x27
 8891 01c0 19       		.uleb128 0x19
 8892 01c1 49       		.uleb128 0x49
 8893 01c2 13       		.uleb128 0x13
 8894 01c3 11       		.uleb128 0x11
 8895 01c4 01       		.uleb128 0x1
 8896 01c5 12       		.uleb128 0x12
 8897 01c6 06       		.uleb128 0x6
 8898 01c7 40       		.uleb128 0x40
 8899 01c8 18       		.uleb128 0x18
 8900 01c9 9742     		.uleb128 0x2117
ARM GAS  C:\Users\JENNEW~1\AppData\Local\Temp\cc33Iuyf.s 			page 178


 8901 01cb 19       		.uleb128 0x19
 8902 01cc 01       		.uleb128 0x1
 8903 01cd 13       		.uleb128 0x13
 8904 01ce 00       		.byte	0
 8905 01cf 00       		.byte	0
 8906 01d0 22       		.uleb128 0x22
 8907 01d1 2E       		.uleb128 0x2e
 8908 01d2 01       		.byte	0x1
 8909 01d3 03       		.uleb128 0x3
 8910 01d4 0E       		.uleb128 0xe
 8911 01d5 3A       		.uleb128 0x3a
 8912 01d6 0B       		.uleb128 0xb
 8913 01d7 3B       		.uleb128 0x3b
 8914 01d8 05       		.uleb128 0x5
 8915 01d9 27       		.uleb128 0x27
 8916 01da 19       		.uleb128 0x19
 8917 01db 11       		.uleb128 0x11
 8918 01dc 01       		.uleb128 0x1
 8919 01dd 12       		.uleb128 0x12
 8920 01de 06       		.uleb128 0x6
 8921 01df 40       		.uleb128 0x40
 8922 01e0 18       		.uleb128 0x18
 8923 01e1 9642     		.uleb128 0x2116
 8924 01e3 19       		.uleb128 0x19
 8925 01e4 01       		.uleb128 0x1
 8926 01e5 13       		.uleb128 0x13
 8927 01e6 00       		.byte	0
 8928 01e7 00       		.byte	0
 8929 01e8 23       		.uleb128 0x23
 8930 01e9 2E       		.uleb128 0x2e
 8931 01ea 01       		.byte	0x1
 8932 01eb 03       		.uleb128 0x3
 8933 01ec 0E       		.uleb128 0xe
 8934 01ed 3A       		.uleb128 0x3a
 8935 01ee 0B       		.uleb128 0xb
 8936 01ef 3B       		.uleb128 0x3b
 8937 01f0 05       		.uleb128 0x5
 8938 01f1 27       		.uleb128 0x27
 8939 01f2 19       		.uleb128 0x19
 8940 01f3 11       		.uleb128 0x11
 8941 01f4 01       		.uleb128 0x1
 8942 01f5 12       		.uleb128 0x12
 8943 01f6 06       		.uleb128 0x6
 8944 01f7 40       		.uleb128 0x40
 8945 01f8 18       		.uleb128 0x18
 8946 01f9 9742     		.uleb128 0x2117
 8947 01fb 19       		.uleb128 0x19
 8948 01fc 01       		.uleb128 0x1
 8949 01fd 13       		.uleb128 0x13
 8950 01fe 00       		.byte	0
 8951 01ff 00       		.byte	0
 8952 0200 24       		.uleb128 0x24
 8953 0201 0B       		.uleb128 0xb
 8954 0202 01       		.byte	0x1
 8955 0203 55       		.uleb128 0x55
 8956 0204 17       		.uleb128 0x17
 8957 0205 01       		.uleb128 0x1
ARM GAS  C:\Users\JENNEW~1\AppData\Local\Temp\cc33Iuyf.s 			page 179


 8958 0206 13       		.uleb128 0x13
 8959 0207 00       		.byte	0
 8960 0208 00       		.byte	0
 8961 0209 25       		.uleb128 0x25
 8962 020a 34       		.uleb128 0x34
 8963 020b 00       		.byte	0
 8964 020c 03       		.uleb128 0x3
 8965 020d 08       		.uleb128 0x8
 8966 020e 3A       		.uleb128 0x3a
 8967 020f 0B       		.uleb128 0xb
 8968 0210 3B       		.uleb128 0x3b
 8969 0211 05       		.uleb128 0x5
 8970 0212 49       		.uleb128 0x49
 8971 0213 13       		.uleb128 0x13
 8972 0214 02       		.uleb128 0x2
 8973 0215 18       		.uleb128 0x18
 8974 0216 00       		.byte	0
 8975 0217 00       		.byte	0
 8976 0218 26       		.uleb128 0x26
 8977 0219 2E       		.uleb128 0x2e
 8978 021a 01       		.byte	0x1
 8979 021b 03       		.uleb128 0x3
 8980 021c 0E       		.uleb128 0xe
 8981 021d 3A       		.uleb128 0x3a
 8982 021e 0B       		.uleb128 0xb
 8983 021f 3B       		.uleb128 0x3b
 8984 0220 05       		.uleb128 0x5
 8985 0221 27       		.uleb128 0x27
 8986 0222 19       		.uleb128 0x19
 8987 0223 49       		.uleb128 0x49
 8988 0224 13       		.uleb128 0x13
 8989 0225 11       		.uleb128 0x11
 8990 0226 01       		.uleb128 0x1
 8991 0227 12       		.uleb128 0x12
 8992 0228 06       		.uleb128 0x6
 8993 0229 40       		.uleb128 0x40
 8994 022a 18       		.uleb128 0x18
 8995 022b 9642     		.uleb128 0x2116
 8996 022d 19       		.uleb128 0x19
 8997 022e 01       		.uleb128 0x1
 8998 022f 13       		.uleb128 0x13
 8999 0230 00       		.byte	0
 9000 0231 00       		.byte	0
 9001 0232 27       		.uleb128 0x27
 9002 0233 05       		.uleb128 0x5
 9003 0234 00       		.byte	0
 9004 0235 03       		.uleb128 0x3
 9005 0236 0E       		.uleb128 0xe
 9006 0237 3A       		.uleb128 0x3a
 9007 0238 0B       		.uleb128 0xb
 9008 0239 3B       		.uleb128 0x3b
 9009 023a 05       		.uleb128 0x5
 9010 023b 49       		.uleb128 0x49
 9011 023c 13       		.uleb128 0x13
 9012 023d 02       		.uleb128 0x2
 9013 023e 18       		.uleb128 0x18
 9014 023f 00       		.byte	0
ARM GAS  C:\Users\JENNEW~1\AppData\Local\Temp\cc33Iuyf.s 			page 180


 9015 0240 00       		.byte	0
 9016 0241 28       		.uleb128 0x28
 9017 0242 2E       		.uleb128 0x2e
 9018 0243 01       		.byte	0x1
 9019 0244 03       		.uleb128 0x3
 9020 0245 0E       		.uleb128 0xe
 9021 0246 3A       		.uleb128 0x3a
 9022 0247 0B       		.uleb128 0xb
 9023 0248 3B       		.uleb128 0x3b
 9024 0249 05       		.uleb128 0x5
 9025 024a 27       		.uleb128 0x27
 9026 024b 19       		.uleb128 0x19
 9027 024c 49       		.uleb128 0x49
 9028 024d 13       		.uleb128 0x13
 9029 024e 11       		.uleb128 0x11
 9030 024f 01       		.uleb128 0x1
 9031 0250 12       		.uleb128 0x12
 9032 0251 06       		.uleb128 0x6
 9033 0252 40       		.uleb128 0x40
 9034 0253 18       		.uleb128 0x18
 9035 0254 9742     		.uleb128 0x2117
 9036 0256 19       		.uleb128 0x19
 9037 0257 01       		.uleb128 0x1
 9038 0258 13       		.uleb128 0x13
 9039 0259 00       		.byte	0
 9040 025a 00       		.byte	0
 9041 025b 29       		.uleb128 0x29
 9042 025c 2E       		.uleb128 0x2e
 9043 025d 01       		.byte	0x1
 9044 025e 3F       		.uleb128 0x3f
 9045 025f 19       		.uleb128 0x19
 9046 0260 03       		.uleb128 0x3
 9047 0261 0E       		.uleb128 0xe
 9048 0262 3A       		.uleb128 0x3a
 9049 0263 0B       		.uleb128 0xb
 9050 0264 3B       		.uleb128 0x3b
 9051 0265 05       		.uleb128 0x5
 9052 0266 27       		.uleb128 0x27
 9053 0267 19       		.uleb128 0x19
 9054 0268 49       		.uleb128 0x49
 9055 0269 13       		.uleb128 0x13
 9056 026a 11       		.uleb128 0x11
 9057 026b 01       		.uleb128 0x1
 9058 026c 12       		.uleb128 0x12
 9059 026d 06       		.uleb128 0x6
 9060 026e 40       		.uleb128 0x40
 9061 026f 18       		.uleb128 0x18
 9062 0270 9642     		.uleb128 0x2116
 9063 0272 19       		.uleb128 0x19
 9064 0273 01       		.uleb128 0x1
 9065 0274 13       		.uleb128 0x13
 9066 0275 00       		.byte	0
 9067 0276 00       		.byte	0
 9068 0277 2A       		.uleb128 0x2a
 9069 0278 34       		.uleb128 0x34
 9070 0279 00       		.byte	0
 9071 027a 03       		.uleb128 0x3
ARM GAS  C:\Users\JENNEW~1\AppData\Local\Temp\cc33Iuyf.s 			page 181


 9072 027b 0E       		.uleb128 0xe
 9073 027c 3A       		.uleb128 0x3a
 9074 027d 0B       		.uleb128 0xb
 9075 027e 3B       		.uleb128 0x3b
 9076 027f 05       		.uleb128 0x5
 9077 0280 49       		.uleb128 0x49
 9078 0281 13       		.uleb128 0x13
 9079 0282 3F       		.uleb128 0x3f
 9080 0283 19       		.uleb128 0x19
 9081 0284 3C       		.uleb128 0x3c
 9082 0285 19       		.uleb128 0x19
 9083 0286 00       		.byte	0
 9084 0287 00       		.byte	0
 9085 0288 2B       		.uleb128 0x2b
 9086 0289 34       		.uleb128 0x34
 9087 028a 00       		.byte	0
 9088 028b 03       		.uleb128 0x3
 9089 028c 0E       		.uleb128 0xe
 9090 028d 3A       		.uleb128 0x3a
 9091 028e 0B       		.uleb128 0xb
 9092 028f 3B       		.uleb128 0x3b
 9093 0290 0B       		.uleb128 0xb
 9094 0291 49       		.uleb128 0x49
 9095 0292 13       		.uleb128 0x13
 9096 0293 3F       		.uleb128 0x3f
 9097 0294 19       		.uleb128 0x19
 9098 0295 3C       		.uleb128 0x3c
 9099 0296 19       		.uleb128 0x19
 9100 0297 00       		.byte	0
 9101 0298 00       		.byte	0
 9102 0299 00       		.byte	0
 9103              		.section	.debug_aranges,"",%progbits
 9104 0000 BC010000 		.4byte	0x1bc
 9105 0004 0200     		.2byte	0x2
 9106 0006 00000000 		.4byte	.Ldebug_info0
 9107 000a 04       		.byte	0x4
 9108 000b 00       		.byte	0
 9109 000c 0000     		.2byte	0
 9110 000e 0000     		.2byte	0
 9111 0010 00000000 		.4byte	.LFB64
 9112 0014 34000000 		.4byte	.LFE64-.LFB64
 9113 0018 00000000 		.4byte	.LFB65
 9114 001c 80000000 		.4byte	.LFE65-.LFB65
 9115 0020 00000000 		.4byte	.LFB66
 9116 0024 F0000000 		.4byte	.LFE66-.LFB66
 9117 0028 00000000 		.4byte	.LFB67
 9118 002c 26000000 		.4byte	.LFE67-.LFB67
 9119 0030 00000000 		.4byte	.LFB68
 9120 0034 68000000 		.4byte	.LFE68-.LFB68
 9121 0038 00000000 		.4byte	.LFB69
 9122 003c 20000000 		.4byte	.LFE69-.LFB69
 9123 0040 00000000 		.4byte	.LFB70
 9124 0044 80000000 		.4byte	.LFE70-.LFB70
 9125 0048 00000000 		.4byte	.LFB71
 9126 004c 1C000000 		.4byte	.LFE71-.LFB71
 9127 0050 00000000 		.4byte	.LFB72
 9128 0054 1C000000 		.4byte	.LFE72-.LFB72
ARM GAS  C:\Users\JENNEW~1\AppData\Local\Temp\cc33Iuyf.s 			page 182


 9129 0058 00000000 		.4byte	.LFB73
 9130 005c 1C000000 		.4byte	.LFE73-.LFB73
 9131 0060 00000000 		.4byte	.LFB74
 9132 0064 1A000000 		.4byte	.LFE74-.LFB74
 9133 0068 00000000 		.4byte	.LFB75
 9134 006c E0010000 		.4byte	.LFE75-.LFB75
 9135 0070 00000000 		.4byte	.LFB76
 9136 0074 A0000000 		.4byte	.LFE76-.LFB76
 9137 0078 00000000 		.4byte	.LFB77
 9138 007c 1A000000 		.4byte	.LFE77-.LFB77
 9139 0080 00000000 		.4byte	.LFB78
 9140 0084 28000000 		.4byte	.LFE78-.LFB78
 9141 0088 00000000 		.4byte	.LFB79
 9142 008c 74000000 		.4byte	.LFE79-.LFB79
 9143 0090 00000000 		.4byte	.LFB80
 9144 0094 F8000000 		.4byte	.LFE80-.LFB80
 9145 0098 00000000 		.4byte	.LFB81
 9146 009c 5C010000 		.4byte	.LFE81-.LFB81
 9147 00a0 00000000 		.4byte	.LFB82
 9148 00a4 3A000000 		.4byte	.LFE82-.LFB82
 9149 00a8 00000000 		.4byte	.LFB83
 9150 00ac E8000000 		.4byte	.LFE83-.LFB83
 9151 00b0 00000000 		.4byte	.LFB84
 9152 00b4 C0010000 		.4byte	.LFE84-.LFB84
 9153 00b8 00000000 		.4byte	.LFB85
 9154 00bc 48000000 		.4byte	.LFE85-.LFB85
 9155 00c0 00000000 		.4byte	.LFB86
 9156 00c4 22000000 		.4byte	.LFE86-.LFB86
 9157 00c8 00000000 		.4byte	.LFB87
 9158 00cc 28000000 		.4byte	.LFE87-.LFB87
 9159 00d0 00000000 		.4byte	.LFB88
 9160 00d4 A8000000 		.4byte	.LFE88-.LFB88
 9161 00d8 00000000 		.4byte	.LFB89
 9162 00dc 1C000000 		.4byte	.LFE89-.LFB89
 9163 00e0 00000000 		.4byte	.LFB90
 9164 00e4 2C000000 		.4byte	.LFE90-.LFB90
 9165 00e8 00000000 		.4byte	.LFB91
 9166 00ec 28000000 		.4byte	.LFE91-.LFB91
 9167 00f0 00000000 		.4byte	.LFB92
 9168 00f4 20010000 		.4byte	.LFE92-.LFB92
 9169 00f8 00000000 		.4byte	.LFB93
 9170 00fc 1C000000 		.4byte	.LFE93-.LFB93
 9171 0100 00000000 		.4byte	.LFB94
 9172 0104 28000000 		.4byte	.LFE94-.LFB94
 9173 0108 00000000 		.4byte	.LFB95
 9174 010c 1C000000 		.4byte	.LFE95-.LFB95
 9175 0110 00000000 		.4byte	.LFB96
 9176 0114 28000000 		.4byte	.LFE96-.LFB96
 9177 0118 00000000 		.4byte	.LFB97
 9178 011c 40000000 		.4byte	.LFE97-.LFB97
 9179 0120 00000000 		.4byte	.LFB98
 9180 0124 80000000 		.4byte	.LFE98-.LFB98
 9181 0128 00000000 		.4byte	.LFB99
 9182 012c 54000000 		.4byte	.LFE99-.LFB99
 9183 0130 00000000 		.4byte	.LFB100
 9184 0134 6C000000 		.4byte	.LFE100-.LFB100
 9185 0138 00000000 		.4byte	.LFB101
ARM GAS  C:\Users\JENNEW~1\AppData\Local\Temp\cc33Iuyf.s 			page 183


 9186 013c 1C000000 		.4byte	.LFE101-.LFB101
 9187 0140 00000000 		.4byte	.LFB102
 9188 0144 94000000 		.4byte	.LFE102-.LFB102
 9189 0148 00000000 		.4byte	.LFB103
 9190 014c 3A000000 		.4byte	.LFE103-.LFB103
 9191 0150 00000000 		.4byte	.LFB104
 9192 0154 48000000 		.4byte	.LFE104-.LFB104
 9193 0158 00000000 		.4byte	.LFB105
 9194 015c 3E000000 		.4byte	.LFE105-.LFB105
 9195 0160 00000000 		.4byte	.LFB106
 9196 0164 A0000000 		.4byte	.LFE106-.LFB106
 9197 0168 00000000 		.4byte	.LFB107
 9198 016c 1C000000 		.4byte	.LFE107-.LFB107
 9199 0170 00000000 		.4byte	.LFB108
 9200 0174 1A000000 		.4byte	.LFE108-.LFB108
 9201 0178 00000000 		.4byte	.LFB109
 9202 017c A4000000 		.4byte	.LFE109-.LFB109
 9203 0180 00000000 		.4byte	.LFB110
 9204 0184 28000000 		.4byte	.LFE110-.LFB110
 9205 0188 00000000 		.4byte	.LFB111
 9206 018c 3C000000 		.4byte	.LFE111-.LFB111
 9207 0190 00000000 		.4byte	.LFB112
 9208 0194 B8010000 		.4byte	.LFE112-.LFB112
 9209 0198 00000000 		.4byte	.LFB113
 9210 019c 24020000 		.4byte	.LFE113-.LFB113
 9211 01a0 00000000 		.4byte	.LFB114
 9212 01a4 C4000000 		.4byte	.LFE114-.LFB114
 9213 01a8 00000000 		.4byte	.LFB115
 9214 01ac 22000000 		.4byte	.LFE115-.LFB115
 9215 01b0 00000000 		.4byte	.LFB116
 9216 01b4 F4000000 		.4byte	.LFE116-.LFB116
 9217 01b8 00000000 		.4byte	0
 9218 01bc 00000000 		.4byte	0
 9219              		.section	.debug_ranges,"",%progbits
 9220              	.Ldebug_ranges0:
 9221 0000 1A000000 		.4byte	.LBB4
 9222 0004 C8000000 		.4byte	.LBE4
 9223 0008 BE010000 		.4byte	.LBB10
 9224 000c C0010000 		.4byte	.LBE10
 9225 0010 00000000 		.4byte	0
 9226 0014 00000000 		.4byte	0
 9227 0018 00000000 		.4byte	.LFB64
 9228 001c 34000000 		.4byte	.LFE64
 9229 0020 00000000 		.4byte	.LFB65
 9230 0024 80000000 		.4byte	.LFE65
 9231 0028 00000000 		.4byte	.LFB66
 9232 002c F0000000 		.4byte	.LFE66
 9233 0030 00000000 		.4byte	.LFB67
 9234 0034 26000000 		.4byte	.LFE67
 9235 0038 00000000 		.4byte	.LFB68
 9236 003c 68000000 		.4byte	.LFE68
 9237 0040 00000000 		.4byte	.LFB69
 9238 0044 20000000 		.4byte	.LFE69
 9239 0048 00000000 		.4byte	.LFB70
 9240 004c 80000000 		.4byte	.LFE70
 9241 0050 00000000 		.4byte	.LFB71
 9242 0054 1C000000 		.4byte	.LFE71
ARM GAS  C:\Users\JENNEW~1\AppData\Local\Temp\cc33Iuyf.s 			page 184


 9243 0058 00000000 		.4byte	.LFB72
 9244 005c 1C000000 		.4byte	.LFE72
 9245 0060 00000000 		.4byte	.LFB73
 9246 0064 1C000000 		.4byte	.LFE73
 9247 0068 00000000 		.4byte	.LFB74
 9248 006c 1A000000 		.4byte	.LFE74
 9249 0070 00000000 		.4byte	.LFB75
 9250 0074 E0010000 		.4byte	.LFE75
 9251 0078 00000000 		.4byte	.LFB76
 9252 007c A0000000 		.4byte	.LFE76
 9253 0080 00000000 		.4byte	.LFB77
 9254 0084 1A000000 		.4byte	.LFE77
 9255 0088 00000000 		.4byte	.LFB78
 9256 008c 28000000 		.4byte	.LFE78
 9257 0090 00000000 		.4byte	.LFB79
 9258 0094 74000000 		.4byte	.LFE79
 9259 0098 00000000 		.4byte	.LFB80
 9260 009c F8000000 		.4byte	.LFE80
 9261 00a0 00000000 		.4byte	.LFB81
 9262 00a4 5C010000 		.4byte	.LFE81
 9263 00a8 00000000 		.4byte	.LFB82
 9264 00ac 3A000000 		.4byte	.LFE82
 9265 00b0 00000000 		.4byte	.LFB83
 9266 00b4 E8000000 		.4byte	.LFE83
 9267 00b8 00000000 		.4byte	.LFB84
 9268 00bc C0010000 		.4byte	.LFE84
 9269 00c0 00000000 		.4byte	.LFB85
 9270 00c4 48000000 		.4byte	.LFE85
 9271 00c8 00000000 		.4byte	.LFB86
 9272 00cc 22000000 		.4byte	.LFE86
 9273 00d0 00000000 		.4byte	.LFB87
 9274 00d4 28000000 		.4byte	.LFE87
 9275 00d8 00000000 		.4byte	.LFB88
 9276 00dc A8000000 		.4byte	.LFE88
 9277 00e0 00000000 		.4byte	.LFB89
 9278 00e4 1C000000 		.4byte	.LFE89
 9279 00e8 00000000 		.4byte	.LFB90
 9280 00ec 2C000000 		.4byte	.LFE90
 9281 00f0 00000000 		.4byte	.LFB91
 9282 00f4 28000000 		.4byte	.LFE91
 9283 00f8 00000000 		.4byte	.LFB92
 9284 00fc 20010000 		.4byte	.LFE92
 9285 0100 00000000 		.4byte	.LFB93
 9286 0104 1C000000 		.4byte	.LFE93
 9287 0108 00000000 		.4byte	.LFB94
 9288 010c 28000000 		.4byte	.LFE94
 9289 0110 00000000 		.4byte	.LFB95
 9290 0114 1C000000 		.4byte	.LFE95
 9291 0118 00000000 		.4byte	.LFB96
 9292 011c 28000000 		.4byte	.LFE96
 9293 0120 00000000 		.4byte	.LFB97
 9294 0124 40000000 		.4byte	.LFE97
 9295 0128 00000000 		.4byte	.LFB98
 9296 012c 80000000 		.4byte	.LFE98
 9297 0130 00000000 		.4byte	.LFB99
 9298 0134 54000000 		.4byte	.LFE99
 9299 0138 00000000 		.4byte	.LFB100
ARM GAS  C:\Users\JENNEW~1\AppData\Local\Temp\cc33Iuyf.s 			page 185


 9300 013c 6C000000 		.4byte	.LFE100
 9301 0140 00000000 		.4byte	.LFB101
 9302 0144 1C000000 		.4byte	.LFE101
 9303 0148 00000000 		.4byte	.LFB102
 9304 014c 94000000 		.4byte	.LFE102
 9305 0150 00000000 		.4byte	.LFB103
 9306 0154 3A000000 		.4byte	.LFE103
 9307 0158 00000000 		.4byte	.LFB104
 9308 015c 48000000 		.4byte	.LFE104
 9309 0160 00000000 		.4byte	.LFB105
 9310 0164 3E000000 		.4byte	.LFE105
 9311 0168 00000000 		.4byte	.LFB106
 9312 016c A0000000 		.4byte	.LFE106
 9313 0170 00000000 		.4byte	.LFB107
 9314 0174 1C000000 		.4byte	.LFE107
 9315 0178 00000000 		.4byte	.LFB108
 9316 017c 1A000000 		.4byte	.LFE108
 9317 0180 00000000 		.4byte	.LFB109
 9318 0184 A4000000 		.4byte	.LFE109
 9319 0188 00000000 		.4byte	.LFB110
 9320 018c 28000000 		.4byte	.LFE110
 9321 0190 00000000 		.4byte	.LFB111
 9322 0194 3C000000 		.4byte	.LFE111
 9323 0198 00000000 		.4byte	.LFB112
 9324 019c B8010000 		.4byte	.LFE112
 9325 01a0 00000000 		.4byte	.LFB113
 9326 01a4 24020000 		.4byte	.LFE113
 9327 01a8 00000000 		.4byte	.LFB114
 9328 01ac C4000000 		.4byte	.LFE114
 9329 01b0 00000000 		.4byte	.LFB115
 9330 01b4 22000000 		.4byte	.LFE115
 9331 01b8 00000000 		.4byte	.LFB116
 9332 01bc F4000000 		.4byte	.LFE116
 9333 01c0 00000000 		.4byte	0
 9334 01c4 00000000 		.4byte	0
 9335              		.section	.debug_line,"",%progbits
 9336              	.Ldebug_line0:
 9337 0000 93090000 		.section	.debug_str,"MS",%progbits,1
 9337      02000102 
 9337      00000201 
 9337      FB0E0D00 
 9337      01010101 
 9338              	.LASF138:
 9339 0000 68616D66 		.ascii	"hamfly_gimbal_t\000"
 9339      6C795F67 
 9339      696D6261 
 9339      6C5F7400 
 9340              	.LASF47:
 9341 0010 67696D62 		.ascii	"gimbal_status1\000"
 9341      616C5F73 
 9341      74617475 
 9341      733100
 9342              	.LASF48:
 9343 001f 67696D62 		.ascii	"gimbal_status2\000"
 9343      616C5F73 
 9343      74617475 
 9343      733200
ARM GAS  C:\Users\JENNEW~1\AppData\Local\Temp\cc33Iuyf.s 			page 186


 9344              	.LASF227:
 9345 002e 7472616E 		.ascii	"transition\000"
 9345      73697469 
 9345      6F6E00
 9346              	.LASF108:
 9347 0039 73797365 		.ascii	"sysecho_valid\000"
 9347      63686F5F 
 9347      76616C69 
 9347      6400
 9348              	.LASF23:
 9349 0047 73697A65 		.ascii	"sizetype\000"
 9349      74797065 
 9349      00
 9350              	.LASF224:
 9351 0050 6170705F 		.ascii	"app_telem_tick\000"
 9351      74656C65 
 9351      6D5F7469 
 9351      636B00
 9352              	.LASF115:
 9353 005f 7461696C 		.ascii	"tail\000"
 9353      00
 9354              	.LASF245:
 9355 0064 6770735F 		.ascii	"gps_elev_deg\000"
 9355      656C6576 
 9355      5F646567 
 9355      00
 9356              	.LASF229:
 9357 0071 656E7472 		.ascii	"entry_stby_hold\000"
 9357      795F7374 
 9357      62795F68 
 9357      6F6C6400 
 9358              	.LASF152:
 9359 0081 4155544F 		.ascii	"AUTO_HOME\000"
 9359      5F484F4D 
 9359      4500
 9360              	.LASF178:
 9361 008b 6770735F 		.ascii	"gps_new_target\000"
 9361      6E65775F 
 9361      74617267 
 9361      657400
 9362              	.LASF132:
 9363 009a 70656E64 		.ascii	"pending_sent_ms\000"
 9363      696E675F 
 9363      73656E74 
 9363      5F6D7300 
 9364              	.LASF269:
 9365 00aa 656E7472 		.ascii	"entry_auto_loss\000"
 9365      795F6175 
 9365      746F5F6C 
 9365      6F737300 
 9366              	.LASF144:
 9367 00ba 524F4F54 		.ascii	"ROOT\000"
 9367      00
 9368              	.LASF17:
 9369 00bf 696E7433 		.ascii	"int32_t\000"
 9369      325F7400 
 9370              	.LASF210:
ARM GAS  C:\Users\JENNEW~1\AppData\Local\Temp\cc33Iuyf.s 			page 187


 9371 00c7 7061796C 		.ascii	"payload_state_req_t\000"
 9371      6F61645F 
 9371      73746174 
 9371      655F7265 
 9371      715F7400 
 9372              	.LASF221:
 9373 00db 70617468 		.ascii	"path\000"
 9373      00
 9374              	.LASF185:
 9375 00e0 6770735F 		.ascii	"gps_last_sample_ms\000"
 9375      6C617374 
 9375      5F73616D 
 9375      706C655F 
 9375      6D7300
 9376              	.LASF286:
 9377 00f3 6170705F 		.ascii	"app_state_name\000"
 9377      73746174 
 9377      655F6E61 
 9377      6D6500
 9378              	.LASF273:
 9379 0102 7365765F 		.ascii	"sev_str\000"
 9379      73747200 
 9380              	.LASF165:
 9381 010a 6572725F 		.ascii	"err_sev_t\000"
 9381      7365765F 
 9381      7400
 9382              	.LASF72:
 9383 0114 6174745F 		.ascii	"att_pitch_deg\000"
 9383      70697463 
 9383      685F6465 
 9383      6700
 9384              	.LASF133:
 9385 0122 70656E64 		.ascii	"pending_ready\000"
 9385      696E675F 
 9385      72656164 
 9385      7900
 9386              	.LASF176:
 9387 0130 6770735F 		.ascii	"gps_target_alt_mm\000"
 9387      74617267 
 9387      65745F61 
 9387      6C745F6D 
 9387      6D00
 9388              	.LASF36:
 9389 0142 68616D66 		.ascii	"hamfly_control_t\000"
 9389      6C795F63 
 9389      6F6E7472 
 9389      6F6C5F74 
 9389      00
 9390              	.LASF85:
 9391 0153 666C6167 		.ascii	"flag_gps_locked\000"
 9391      5F677073 
 9391      5F6C6F63 
 9391      6B656400 
 9392              	.LASF167:
 9393 0163 73746174 		.ascii	"state\000"
 9393      6500
 9394              	.LASF211:
ARM GAS  C:\Users\JENNEW~1\AppData\Local\Temp\cc33Iuyf.s 			page 188


 9395 0169 6C61745F 		.ascii	"lat_raw\000"
 9395      72617700 
 9396              	.LASF196:
 9397 0171 73656E73 		.ascii	"sense\000"
 9397      6500
 9398              	.LASF64:
 9399 0177 6770735F 		.ascii	"gps_raw_hacc\000"
 9399      7261775F 
 9399      68616363 
 9399      00
 9400              	.LASF49:
 9401 0184 6770735F 		.ascii	"gps_valid\000"
 9401      76616C69 
 9401      6400
 9402              	.LASF155:
 9403 018e 4155544F 		.ascii	"AUTO_TRACKING\000"
 9403      5F545241 
 9403      434B494E 
 9403      4700
 9404              	.LASF163:
 9405 019c 5345565F 		.ascii	"SEV_SOFTWARE\000"
 9405      534F4654 
 9405      57415245 
 9405      00
 9406              	.LASF96:
 9407 01a9 73797373 		.ascii	"sysstat_batt_a\000"
 9407      7461745F 
 9407      62617474 
 9407      5F6100
 9408              	.LASF293:
 9409 01b8 6E756467 		.ascii	"nudge_apply\000"
 9409      655F6170 
 9409      706C7900 
 9410              	.LASF44:
 9411 01c4 67696D62 		.ascii	"gimbal_i\000"
 9411      616C5F69 
 9411      00
 9412              	.LASF45:
 9413 01cd 67696D62 		.ascii	"gimbal_j\000"
 9413      616C5F6A 
 9413      00
 9414              	.LASF2:
 9415 01d6 5F5F7569 		.ascii	"__uint8_t\000"
 9415      6E74385F 
 9415      7400
 9416              	.LASF86:
 9417 01e0 73797373 		.ascii	"sysstat_batt_v\000"
 9417      7461745F 
 9417      62617474 
 9417      5F7600
 9418              	.LASF43:
 9419 01ef 67696D62 		.ascii	"gimbal_r\000"
 9419      616C5F72 
 9419      00
 9420              	.LASF253:
 9421 01f8 74616C74 		.ascii	"talt\000"
 9421      00
ARM GAS  C:\Users\JENNEW~1\AppData\Local\Temp\cc33Iuyf.s 			page 189


 9422              	.LASF119:
 9423 01fd 74785F62 		.ascii	"tx_bytes\000"
 9423      79746573 
 9423      00
 9424              	.LASF123:
 9425 0206 72786275 		.ascii	"rxbuf_drops\000"
 9425      665F6472 
 9425      6F707300 
 9426              	.LASF51:
 9427 0212 6770735F 		.ascii	"gps_lat_deg\000"
 9427      6C61745F 
 9427      64656700 
 9428              	.LASF230:
 9429 021e 656E7472 		.ascii	"entry_manu_joystick\000"
 9429      795F6D61 
 9429      6E755F6A 
 9429      6F797374 
 9429      69636B00 
 9430              	.LASF8:
 9431 0232 6C6F6E67 		.ascii	"long int\000"
 9431      20696E74 
 9431      00
 9432              	.LASF191:
 9433 023b 6F726967 		.ascii	"origin_set\000"
 9433      696E5F73 
 9433      657400
 9434              	.LASF65:
 9435 0246 6770735F 		.ascii	"gps_raw_vacc\000"
 9435      7261775F 
 9435      76616363 
 9435      00
 9436              	.LASF153:
 9437 0253 4155544F 		.ascii	"AUTO_ACQ_GPS\000"
 9437      5F414351 
 9437      5F475053 
 9437      00
 9438              	.LASF136:
 9439 0260 70656E64 		.ascii	"pending_payload\000"
 9439      696E675F 
 9439      7061796C 
 9439      6F616400 
 9440              	.LASF97:
 9441 0270 73797373 		.ascii	"sysstat_charge_mah\000"
 9441      7461745F 
 9441      63686172 
 9441      67655F6D 
 9441      616800
 9442              	.LASF129:
 9443 0283 74786275 		.ascii	"txbuf\000"
 9443      6600
 9444              	.LASF46:
 9445 0289 67696D62 		.ascii	"gimbal_k\000"
 9445      616C5F6B 
 9445      00
 9446              	.LASF88:
 9447 0292 73797373 		.ascii	"sysstat_temp_c\000"
 9447      7461745F 
ARM GAS  C:\Users\JENNEW~1\AppData\Local\Temp\cc33Iuyf.s 			page 190


 9447      74656D70 
 9447      5F6300
 9448              	.LASF187:
 9449 02a1 74726163 		.ascii	"track_cx_last\000"
 9449      6B5F6378 
 9449      5F6C6173 
 9449      7400
 9450              	.LASF114:
 9451 02af 68656164 		.ascii	"head\000"
 9451      00
 9452              	.LASF162:
 9453 02b4 5345565F 		.ascii	"SEV_WARN\000"
 9453      5741524E 
 9453      00
 9454              	.LASF179:
 9455 02bd 6770735F 		.ascii	"gps_work_lat_raw\000"
 9455      776F726B 
 9455      5F6C6174 
 9455      5F726177 
 9455      00
 9456              	.LASF53:
 9457 02ce 6770735F 		.ascii	"gps_alt_m\000"
 9457      616C745F 
 9457      6D00
 9458              	.LASF181:
 9459 02d8 6770735F 		.ascii	"gps_work_alt_mm\000"
 9459      776F726B 
 9459      5F616C74 
 9459      5F6D6D00 
 9460              	.LASF0:
 9461 02e8 7369676E 		.ascii	"signed char\000"
 9461      65642063 
 9461      68617200 
 9462              	.LASF14:
 9463 02f4 75696E74 		.ascii	"uint8_t\000"
 9463      385F7400 
 9464              	.LASF247:
 9465 02fc 616C7432 		.ascii	"alt2_m\000"
 9465      5F6D00
 9466              	.LASF277:
 9467 0303 74696C74 		.ascii	"tilt_deg\000"
 9467      5F646567 
 9467      00
 9468              	.LASF168:
 9469 030c 70726576 		.ascii	"prev_leaf\000"
 9469      5F6C6561 
 9469      6600
 9470              	.LASF301:
 9471 0316 6F6E5F65 		.ascii	"on_entry\000"
 9471      6E747279 
 9471      00
 9472              	.LASF166:
 9473 031f 67696D62 		.ascii	"gimbal\000"
 9473      616C00
 9474              	.LASF303:
 9475 0326 6F6E5F6B 		.ascii	"on_key\000"
 9475      657900
ARM GAS  C:\Users\JENNEW~1\AppData\Local\Temp\cc33Iuyf.s 			page 191


 9476              	.LASF117:
 9477 032d 68616D66 		.ascii	"hamfly_rb_t\000"
 9477      6C795F72 
 9477      625F7400 
 9478              	.LASF228:
 9479 0339 656E7472 		.ascii	"entry_stby_defer\000"
 9479      795F7374 
 9479      62795F64 
 9479      65666572 
 9479      00
 9480              	.LASF1:
 9481 034a 756E7369 		.ascii	"unsigned char\000"
 9481      676E6564 
 9481      20636861 
 9481      7200
 9482              	.LASF157:
 9483 0358 4155544F 		.ascii	"AUTO_NO_LOCK\000"
 9483      5F4E4F5F 
 9483      4C4F434B 
 9483      00
 9484              	.LASF120:
 9485 0365 72785F70 		.ascii	"rx_packets\000"
 9485      61636B65 
 9485      747300
 9486              	.LASF200:
 9487 0370 6E756467 		.ascii	"nudge_base_pan_deg\000"
 9487      655F6261 
 9487      73655F70 
 9487      616E5F64 
 9487      656700
 9488              	.LASF150:
 9489 0383 53544259 		.ascii	"STBY_HOLD\000"
 9489      5F484F4C 
 9489      4400
 9490              	.LASF156:
 9491 038d 4155544F 		.ascii	"AUTO_LOSS\000"
 9491      5F4C4F53 
 9491      5300
 9492              	.LASF112:
 9493 0397 5F426F6F 		.ascii	"_Bool\000"
 9493      6C00
 9494              	.LASF25:
 9495 039d 48414D46 		.ascii	"HAMFLY_RATE\000"
 9495      4C595F52 
 9495      41544500 
 9496              	.LASF204:
 9497 03a9 6170705F 		.ascii	"app_ctx_t\000"
 9497      6374785F 
 9497      7400
 9498              	.LASF254:
 9499 03b3 6770735F 		.ascii	"gps_check_settle\000"
 9499      63686563 
 9499      6B5F7365 
 9499      74746C65 
 9499      00
 9500              	.LASF297:
 9501 03c4 6170705F 		.ascii	"app_manual_tick\000"
ARM GAS  C:\Users\JENNEW~1\AppData\Local\Temp\cc33Iuyf.s 			page 192


 9501      6D616E75 
 9501      616C5F74 
 9501      69636B00 
 9502              	.LASF21:
 9503 03d4 63686172 		.ascii	"char\000"
 9503      00
 9504              	.LASF71:
 9505 03d9 6174745F 		.ascii	"att_timestamp_ms\000"
 9505      74696D65 
 9505      7374616D 
 9505      705F6D73 
 9505      00
 9506              	.LASF74:
 9507 03ea 6174745F 		.ascii	"att_roll_deg\000"
 9507      726F6C6C 
 9507      5F646567 
 9507      00
 9508              	.LASF84:
 9509 03f7 666C6167 		.ascii	"flag_radio_los\000"
 9509      5F726164 
 9509      696F5F6C 
 9509      6F7300
 9510              	.LASF226:
 9511 0406 6C617374 		.ascii	"last_link_ms\000"
 9511      5F6C696E 
 9511      6B5F6D73 
 9511      00
 9512              	.LASF275:
 9513 0413 67696D62 		.ascii	"gimbal_pan_tilt_deg\000"
 9513      616C5F70 
 9513      616E5F74 
 9513      696C745F 
 9513      64656700 
 9514              	.LASF302:
 9515 0427 6F6E5F65 		.ascii	"on_exit\000"
 9515      78697400 
 9516              	.LASF5:
 9517 042f 5F5F7569 		.ascii	"__uint16_t\000"
 9517      6E743136 
 9517      5F7400
 9518              	.LASF102:
 9519 043a 6D61675F 		.ascii	"mag_magnitude\000"
 9519      6D61676E 
 9519      69747564 
 9519      6500
 9520              	.LASF177:
 9521 0448 6770735F 		.ascii	"gps_target_set\000"
 9521      74617267 
 9521      65745F73 
 9521      657400
 9522              	.LASF98:
 9523 0457 6D61675F 		.ascii	"mag_valid\000"
 9523      76616C69 
 9523      6400
 9524              	.LASF238:
 9525 0461 6B65795F 		.ascii	"key_auto_home\000"
 9525      6175746F 
ARM GAS  C:\Users\JENNEW~1\AppData\Local\Temp\cc33Iuyf.s 			page 193


 9525      5F686F6D 
 9525      6500
 9526              	.LASF183:
 9527 046f 6770735F 		.ascii	"gps_last_pan_deg\000"
 9527      6C617374 
 9527      5F70616E 
 9527      5F646567 
 9527      00
 9528              	.LASF307:
 9529 0480 675F7469 		.ascii	"g_tick_ms\000"
 9529      636B5F6D 
 9529      7300
 9530              	.LASF42:
 9531 048a 62617474 		.ascii	"battery_right_v\000"
 9531      6572795F 
 9531      72696768 
 9531      745F7600 
 9532              	.LASF140:
 9533 049a 53454E53 		.ascii	"SENSE_MED\000"
 9533      455F4D45 
 9533      4400
 9534              	.LASF233:
 9535 04a4 656C6170 		.ascii	"elapsed\000"
 9535      73656400 
 9536              	.LASF295:
 9537 04ac 6474696C 		.ascii	"dtilt_deg\000"
 9537      745F6465 
 9537      6700
 9538              	.LASF83:
 9539 04b6 666C6167 		.ascii	"flag_gps_los\000"
 9539      5F677073 
 9539      5F6C6F73 
 9539      00
 9540              	.LASF76:
 9541 04c3 6174745F 		.ascii	"att_yaw_rate_dps\000"
 9541      7961775F 
 9541      72617465 
 9541      5F647073 
 9541      00
 9542              	.LASF125:
 9543 04d4 68616D66 		.ascii	"hamfly_statistics_t\000"
 9543      6C795F73 
 9543      74617469 
 9543      73746963 
 9543      735F7400 
 9544              	.LASF231:
 9545 04e8 65786974 		.ascii	"exit_manu_joystick\000"
 9545      5F6D616E 
 9545      755F6A6F 
 9545      79737469 
 9545      636B00
 9546              	.LASF54:
 9547 04fb 6770735F 		.ascii	"gps_ground_spd_ms\000"
 9547      67726F75 
 9547      6E645F73 
 9547      70645F6D 
 9547      7300
ARM GAS  C:\Users\JENNEW~1\AppData\Local\Temp\cc33Iuyf.s 			page 194


 9548              	.LASF280:
 9549 050d 7072696E 		.ascii	"print_help\000"
 9549      745F6865 
 9549      6C7000
 9550              	.LASF91:
 9551 0518 73797373 		.ascii	"sysstat_time_s\000"
 9551      7461745F 
 9551      74696D65 
 9551      5F7300
 9552              	.LASF305:
 9553 0527 73746174 		.ascii	"state_names\000"
 9553      655F6E61 
 9553      6D657300 
 9554              	.LASF122:
 9555 0533 72785F62 		.ascii	"rx_bad_checksum\000"
 9555      61645F63 
 9555      6865636B 
 9555      73756D00 
 9556              	.LASF57:
 9557 0543 6770735F 		.ascii	"gps_vacc_m\000"
 9557      76616363 
 9557      5F6D00
 9558              	.LASF62:
 9559 054e 6770735F 		.ascii	"gps_raw_spd\000"
 9559      7261775F 
 9559      73706400 
 9560              	.LASF124:
 9561 055a 75617274 		.ascii	"uart_err_flags\000"
 9561      5F657272 
 9561      5F666C61 
 9561      677300
 9562              	.LASF134:
 9563 0569 70656E64 		.ascii	"pending_response_attr\000"
 9563      696E675F 
 9563      72657370 
 9563      6F6E7365 
 9563      5F617474 
 9564              	.LASF87:
 9565 057f 73797373 		.ascii	"sysstat_gps_sats\000"
 9565      7461745F 
 9565      6770735F 
 9565      73617473 
 9565      00
 9566              	.LASF70:
 9567 0590 6174745F 		.ascii	"att_valid\000"
 9567      76616C69 
 9567      6400
 9568              	.LASF190:
 9569 059a 6F726967 		.ascii	"origin_tilt_deg\000"
 9569      696E5F74 
 9569      696C745F 
 9569      64656700 
 9570              	.LASF267:
 9571 05aa 63785F6D 		.ascii	"cx_mrad\000"
 9571      72616400 
 9572              	.LASF161:
 9573 05b2 5345565F 		.ascii	"SEV_USER\000"
ARM GAS  C:\Users\JENNEW~1\AppData\Local\Temp\cc33Iuyf.s 			page 195


 9573      55534552 
 9573      00
 9574              	.LASF220:
 9575 05bb 636F6D6D 		.ascii	"common\000"
 9575      6F6E00
 9576              	.LASF130:
 9577 05c2 67696D62 		.ascii	"gimbal_id\000"
 9577      616C5F69 
 9577      6400
 9578              	.LASF243:
 9579 05cc 6C617432 		.ascii	"lat2\000"
 9579      00
 9580              	.LASF223:
 9581 05d1 6170705F 		.ascii	"app_raise_error\000"
 9581      72616973 
 9581      655F6572 
 9581      726F7200 
 9582              	.LASF104:
 9583 05e1 6D61675F 		.ascii	"mag_off_x\000"
 9583      6F66665F 
 9583      7800
 9584              	.LASF105:
 9585 05eb 6D61675F 		.ascii	"mag_off_y\000"
 9585      6F66665F 
 9585      7900
 9586              	.LASF106:
 9587 05f5 6D61675F 		.ascii	"mag_off_z\000"
 9587      6F66665F 
 9587      7A00
 9588              	.LASF192:
 9589 05ff 6C617374 		.ascii	"last_tx_ms\000"
 9589      5F74785F 
 9589      6D7300
 9590              	.LASF58:
 9591 060a 6770735F 		.ascii	"gps_sacc_ms\000"
 9591      73616363 
 9591      5F6D7300 
 9592              	.LASF169:
 9593 0616 6572725F 		.ascii	"err_sev\000"
 9593      73657600 
 9594              	.LASF111:
 9595 061e 73797365 		.ascii	"sysecho_imu_rate\000"
 9595      63686F5F 
 9595      696D755F 
 9595      72617465 
 9595      00
 9596              	.LASF285:
 9597 062f 6261636B 		.ascii	"back\000"
 9597      00
 9598              	.LASF274:
 9599 0634 656E7472 		.ascii	"entry_error_active\000"
 9599      795F6572 
 9599      726F725F 
 9599      61637469 
 9599      766500
 9600              	.LASF10:
 9601 0647 6C6F6E67 		.ascii	"long unsigned int\000"
ARM GAS  C:\Users\JENNEW~1\AppData\Local\Temp\cc33Iuyf.s 			page 196


 9601      20756E73 
 9601      69676E65 
 9601      6420696E 
 9601      7400
 9602              	.LASF219:
 9603 0659 74617267 		.ascii	"target\000"
 9603      657400
 9604              	.LASF56:
 9605 0660 6770735F 		.ascii	"gps_hacc_m\000"
 9605      68616363 
 9605      5F6D00
 9606              	.LASF92:
 9607 066b 73797373 		.ascii	"sysstat_pressure_mb\000"
 9607      7461745F 
 9607      70726573 
 9607      73757265 
 9607      5F6D6200 
 9608              	.LASF252:
 9609 067f 746C6F6E 		.ascii	"tlon\000"
 9609      00
 9610              	.LASF207:
 9611 0684 63796572 		.ascii	"cyerr\000"
 9611      7200
 9612              	.LASF113:
 9613 068a 68616D66 		.ascii	"hamfly_telemetry_t\000"
 9613      6C795F74 
 9613      656C656D 
 9613      65747279 
 9613      5F7400
 9614              	.LASF110:
 9615 069d 73797365 		.ascii	"sysecho_pressure_mb\000"
 9615      63686F5F 
 9615      70726573 
 9615      73757265 
 9615      5F6D6200 
 9616              	.LASF148:
 9617 06b1 4552524F 		.ascii	"ERROR\000"
 9617      5200
 9618              	.LASF59:
 9619 06b7 6770735F 		.ascii	"gps_raw_lat\000"
 9619      7261775F 
 9619      6C617400 
 9620              	.LASF37:
 9621 06c3 75617274 		.ascii	"uart_putc\000"
 9621      5F707574 
 9621      6300
 9622              	.LASF202:
 9623 06cd 7467745F 		.ascii	"tgt_pan_deg\000"
 9623      70616E5F 
 9623      64656700 
 9624              	.LASF80:
 9625 06d9 6174745F 		.ascii	"att_yaw_err_deg\000"
 9625      7961775F 
 9625      6572725F 
 9625      64656700 
 9626              	.LASF139:
 9627 06e9 53454E53 		.ascii	"SENSE_LOW\000"
ARM GAS  C:\Users\JENNEW~1\AppData\Local\Temp\cc33Iuyf.s 			page 197


 9627      455F4C4F 
 9627      5700
 9628              	.LASF95:
 9629 06f3 73797373 		.ascii	"sysstat_imu_latency\000"
 9629      7461745F 
 9629      696D755F 
 9629      6C617465 
 9629      6E637900 
 9630              	.LASF255:
 9631 0707 73706565 		.ascii	"speed_dps\000"
 9631      645F6470 
 9631      7300
 9632              	.LASF75:
 9633 0711 6174745F 		.ascii	"att_pitch_rate_dps\000"
 9633      70697463 
 9633      685F7261 
 9633      74655F64 
 9633      707300
 9634              	.LASF278:
 9635 0724 726F6C6C 		.ascii	"roll_deg\000"
 9635      5F646567 
 9635      00
 9636              	.LASF308:
 9637 072d 474E5520 		.ascii	"GNU C11 5.4.1 20160609 (release) [ARM/embedded-5-br"
 9637      43313120 
 9637      352E342E 
 9637      31203230 
 9637      31363036 
 9638 0760 616E6368 		.ascii	"anch revision 237715] -mcpu=cortex-m3 -mthumb -g -O"
 9638      20726576 
 9638      6973696F 
 9638      6E203233 
 9638      37373135 
 9639 0793 30202D66 		.ascii	"0 -ffunction-sections -ffat-lto-objects\000"
 9639      66756E63 
 9639      74696F6E 
 9639      2D736563 
 9639      74696F6E 
 9640              	.LASF265:
 9641 07bb 6B65795F 		.ascii	"key_auto_tracking\000"
 9641      6175746F 
 9641      5F747261 
 9641      636B696E 
 9641      6700
 9642              	.LASF128:
 9643 07cd 72786275 		.ascii	"rxbuf\000"
 9643      6600
 9644              	.LASF159:
 9645 07d3 53544154 		.ascii	"STATE_COUNT\000"
 9645      455F434F 
 9645      554E5400 
 9646              	.LASF9:
 9647 07df 5F5F7569 		.ascii	"__uint32_t\000"
 9647      6E743332 
 9647      5F7400
 9648              	.LASF41:
 9649 07ea 62617474 		.ascii	"battery_left_v\000"
ARM GAS  C:\Users\JENNEW~1\AppData\Local\Temp\cc33Iuyf.s 			page 198


 9649      6572795F 
 9649      6C656674 
 9649      5F7600
 9650              	.LASF11:
 9651 07f9 6C6F6E67 		.ascii	"long long int\000"
 9651      206C6F6E 
 9651      6720696E 
 9651      7400
 9652              	.LASF28:
 9653 0807 68616D66 		.ascii	"hamfly_control_mode_t\000"
 9653      6C795F63 
 9653      6F6E7472 
 9653      6F6C5F6D 
 9653      6F64655F 
 9654              	.LASF79:
 9655 081d 6174745F 		.ascii	"att_pitch_err_deg\000"
 9655      70697463 
 9655      685F6572 
 9655      725F6465 
 9655      6700
 9656              	.LASF271:
 9657 082f 656E7472 		.ascii	"entry_auto_no_lock\000"
 9657      795F6175 
 9657      746F5F6E 
 9657      6F5F6C6F 
 9657      636B00
 9658              	.LASF55:
 9659 0842 6770735F 		.ascii	"gps_heading_deg\000"
 9659      68656164 
 9659      696E675F 
 9659      64656700 
 9660              	.LASF34:
 9661 0852 656E6162 		.ascii	"enable\000"
 9661      6C6500
 9662              	.LASF276:
 9663 0859 70616E5F 		.ascii	"pan_deg\000"
 9663      64656700 
 9664              	.LASF137:
 9665 0861 70656E64 		.ascii	"pending_payload_len\000"
 9665      696E675F 
 9665      7061796C 
 9665      6F61645F 
 9665      6C656E00 
 9666              	.LASF20:
 9667 0875 646F7562 		.ascii	"double\000"
 9667      6C6500
 9668              	.LASF171:
 9669 087c 66617461 		.ascii	"fatal_latched\000"
 9669      6C5F6C61 
 9669      74636865 
 9669      6400
 9670              	.LASF93:
 9671 088a 73797373 		.ascii	"sysstat_imu_rate\000"
 9671      7461745F 
 9671      696D755F 
 9671      72617465 
 9671      00
ARM GAS  C:\Users\JENNEW~1\AppData\Local\Temp\cc33Iuyf.s 			page 199


 9672              	.LASF240:
 9673 089b 6770735F 		.ascii	"gps_bearing_deg\000"
 9673      62656172 
 9673      696E675F 
 9673      64656700 
 9674              	.LASF306:
 9675 08ab 49544D5F 		.ascii	"ITM_RxBuffer\000"
 9675      52784275 
 9675      66666572 
 9675      00
 9676              	.LASF270:
 9677 08b8 6B65795F 		.ascii	"key_auto_loss\000"
 9677      6175746F 
 9677      5F6C6F73 
 9677      7300
 9678              	.LASF121:
 9679 08c6 72785F62 		.ascii	"rx_bytes\000"
 9679      79746573 
 9679      00
 9680              	.LASF19:
 9681 08cf 666C6F61 		.ascii	"float\000"
 9681      7400
 9682              	.LASF289:
 9683 08d5 6275696C 		.ascii	"build_stby\000"
 9683      645F7374 
 9683      627900
 9684              	.LASF216:
 9685 08e0 6B65795F 		.ascii	"key_fn_t\000"
 9685      666E5F74 
 9685      00
 9686              	.LASF256:
 9687 08e9 636D645F 		.ascii	"cmd_pan_deg\000"
 9687      70616E5F 
 9687      64656700 
 9688              	.LASF13:
 9689 08f5 756E7369 		.ascii	"unsigned int\000"
 9689      676E6564 
 9689      20696E74 
 9689      00
 9690              	.LASF257:
 9691 0902 636D645F 		.ascii	"cmd_tilt_deg\000"
 9691      74696C74 
 9691      5F646567 
 9691      00
 9692              	.LASF249:
 9693 090f 6770735F 		.ascii	"gps_start_slew\000"
 9693      73746172 
 9693      745F736C 
 9693      657700
 9694              	.LASF288:
 9695 091e 6275696C 		.ascii	"build_zero\000"
 9695      645F7A65 
 9695      726F00
 9696              	.LASF208:
 9697 0929 7061796C 		.ascii	"payload_centroid_t\000"
 9697      6F61645F 
 9697      63656E74 
ARM GAS  C:\Users\JENNEW~1\AppData\Local\Temp\cc33Iuyf.s 			page 200


 9697      726F6964 
 9697      5F7400
 9698              	.LASF272:
 9699 093c 6B65795F 		.ascii	"key_auto_no_lock\000"
 9699      6175746F 
 9699      5F6E6F5F 
 9699      6C6F636B 
 9699      00
 9700              	.LASF149:
 9701 094d 53544259 		.ascii	"STBY_DEFER\000"
 9701      5F444546 
 9701      455200
 9702              	.LASF33:
 9703 0958 726F6C6C 		.ascii	"roll_mode\000"
 9703      5F6D6F64 
 9703      6500
 9704              	.LASF259:
 9705 0962 656E7472 		.ascii	"entry_auto_acq_gps\000"
 9705      795F6175 
 9705      746F5F61 
 9705      63715F67 
 9705      707300
 9706              	.LASF300:
 9707 0975 70617265 		.ascii	"parent_of\000"
 9707      6E745F6F 
 9707      6600
 9708              	.LASF61:
 9709 097f 6770735F 		.ascii	"gps_raw_alt\000"
 9709      7261775F 
 9709      616C7400 
 9710              	.LASF237:
 9711 098b 65786974 		.ascii	"exit_auto_home\000"
 9711      5F617574 
 9711      6F5F686F 
 9711      6D6500
 9712              	.LASF141:
 9713 099a 53454E53 		.ascii	"SENSE_HIGH\000"
 9713      455F4849 
 9713      474800
 9714              	.LASF99:
 9715 09a5 6D61675F 		.ascii	"mag_x\000"
 9715      7800
 9716              	.LASF100:
 9717 09ab 6D61675F 		.ascii	"mag_y\000"
 9717      7900
 9718              	.LASF101:
 9719 09b1 6D61675F 		.ascii	"mag_z\000"
 9719      7A00
 9720              	.LASF73:
 9721 09b7 6174745F 		.ascii	"att_yaw_deg\000"
 9721      7961775F 
 9721      64656700 
 9722              	.LASF242:
 9723 09c3 6C6F6E31 		.ascii	"lon1\000"
 9723      00
 9724              	.LASF244:
 9725 09c8 6C6F6E32 		.ascii	"lon2\000"
ARM GAS  C:\Users\JENNEW~1\AppData\Local\Temp\cc33Iuyf.s 			page 201


 9725      00
 9726              	.LASF142:
 9727 09cd 6A6F795F 		.ascii	"joy_sensitivity_t\000"
 9727      73656E73 
 9727      69746976 
 9727      6974795F 
 9727      7400
 9728              	.LASF291:
 9729 09df 6275696C 		.ascii	"build_error\000"
 9729      645F6572 
 9729      726F7200 
 9730              	.LASF26:
 9731 09eb 48414D46 		.ascii	"HAMFLY_ABSOLUTE\000"
 9731      4C595F41 
 9731      42534F4C 
 9731      55544500 
 9732              	.LASF248:
 9733 09fb 64697374 		.ascii	"dist_m\000"
 9733      5F6D00
 9734              	.LASF279:
 9735 0a02 7365745F 		.ascii	"set_origin\000"
 9735      6F726967 
 9735      696E00
 9736              	.LASF22:
 9737 0a0d 6C6F6E67 		.ascii	"long double\000"
 9737      20646F75 
 9737      626C6500 
 9738              	.LASF66:
 9739 0a19 6770735F 		.ascii	"gps_raw_sacc\000"
 9739      7261775F 
 9739      73616363 
 9739      00
 9740              	.LASF126:
 9741 0a26 74656C65 		.ascii	"telemetry\000"
 9741      6D657472 
 9741      7900
 9742              	.LASF199:
 9743 0a30 6E756467 		.ascii	"nudge_start_ms\000"
 9743      655F7374 
 9743      6172745F 
 9743      6D7300
 9744              	.LASF146:
 9745 0a3f 4D414E55 		.ascii	"MANU\000"
 9745      00
 9746              	.LASF77:
 9747 0a44 6174745F 		.ascii	"att_roll_rate_dps\000"
 9747      726F6C6C 
 9747      5F726174 
 9747      655F6470 
 9747      7300
 9748              	.LASF39:
 9749 0a56 68616D66 		.ascii	"hamfly_hal_t\000"
 9749      6C795F68 
 9749      616C5F74 
 9749      00
 9750              	.LASF154:
 9751 0a63 4155544F 		.ascii	"AUTO_ACQ_SPIRAL\000"
ARM GAS  C:\Users\JENNEW~1\AppData\Local\Temp\cc33Iuyf.s 			page 202


 9751      5F414351 
 9751      5F535049 
 9751      52414C00 
 9752              	.LASF217:
 9753 0a73 6275696C 		.ascii	"build_fn_t\000"
 9753      645F666E 
 9753      5F7400
 9754              	.LASF284:
 9755 0a7e 6B65795F 		.ascii	"key_error_active\000"
 9755      6572726F 
 9755      725F6163 
 9755      74697665 
 9755      00
 9756              	.LASF209:
 9757 0a8f 72657175 		.ascii	"requested_state\000"
 9757      65737465 
 9757      645F7374 
 9757      61746500 
 9758              	.LASF78:
 9759 0a9f 6174745F 		.ascii	"att_roll_err_deg\000"
 9759      726F6C6C 
 9759      5F657272 
 9759      5F646567 
 9759      00
 9760              	.LASF31:
 9761 0ab0 70616E5F 		.ascii	"pan_mode\000"
 9761      6D6F6465 
 9761      00
 9762              	.LASF232:
 9763 0ab9 6170705F 		.ascii	"app_auto_tick\000"
 9763      6175746F 
 9763      5F746963 
 9763      6B00
 9764              	.LASF174:
 9765 0ac7 6770735F 		.ascii	"gps_target_lat_raw\000"
 9765      74617267 
 9765      65745F6C 
 9765      61745F72 
 9765      617700
 9766              	.LASF296:
 9767 0ada 6B65795F 		.ascii	"key_manu_joystick\000"
 9767      6D616E75 
 9767      5F6A6F79 
 9767      73746963 
 9767      6B00
 9768              	.LASF12:
 9769 0aec 6C6F6E67 		.ascii	"long long unsigned int\000"
 9769      206C6F6E 
 9769      6720756E 
 9769      7369676E 
 9769      65642069 
 9770              	.LASF27:
 9771 0b03 48414D46 		.ascii	"HAMFLY_ABSOLUTE_MAJESTIC\000"
 9771      4C595F41 
 9771      42534F4C 
 9771      5554455F 
 9771      4D414A45 
ARM GAS  C:\Users\JENNEW~1\AppData\Local\Temp\cc33Iuyf.s 			page 203


 9772              	.LASF90:
 9773 0b1c 73797373 		.ascii	"sysstat_status_flags\000"
 9773      7461745F 
 9773      73746174 
 9773      75735F66 
 9773      6C616773 
 9774              	.LASF151:
 9775 0b31 4D414E55 		.ascii	"MANU_JOYSTICK\000"
 9775      5F4A4F59 
 9775      53544943 
 9775      4B00
 9776              	.LASF16:
 9777 0b3f 75696E74 		.ascii	"uint16_t\000"
 9777      31365F74 
 9777      00
 9778              	.LASF170:
 9779 0b48 6572725F 		.ascii	"err_msg\000"
 9779      6D736700 
 9780              	.LASF246:
 9781 0b50 616C7431 		.ascii	"alt1_m\000"
 9781      5F6D00
 9782              	.LASF164:
 9783 0b57 5345565F 		.ascii	"SEV_FATAL\000"
 9783      46415441 
 9783      4C00
 9784              	.LASF197:
 9785 0b61 696E7665 		.ascii	"invert_mask\000"
 9785      72745F6D 
 9785      61736B00 
 9786              	.LASF261:
 9787 0b6d 6B65795F 		.ascii	"key_auto_acq_gps\000"
 9787      6175746F 
 9787      5F616371 
 9787      5F677073 
 9787      00
 9788              	.LASF81:
 9789 0b7e 73797373 		.ascii	"sysstat_valid\000"
 9789      7461745F 
 9789      76616C69 
 9789      6400
 9790              	.LASF69:
 9791 0b8c 6261726F 		.ascii	"baro_roc_ms\000"
 9791      5F726F63 
 9791      5F6D7300 
 9792              	.LASF263:
 9793 0b98 656E7472 		.ascii	"entry_auto_acq_spiral\000"
 9793      795F6175 
 9793      746F5F61 
 9793      63715F73 
 9793      70697261 
 9794              	.LASF195:
 9795 0bae 64696167 		.ascii	"diag_active\000"
 9795      5F616374 
 9795      69766500 
 9796              	.LASF262:
 9797 0bba 6275696C 		.ascii	"build_auto_acq_gps\000"
 9797      645F6175 
ARM GAS  C:\Users\JENNEW~1\AppData\Local\Temp\cc33Iuyf.s 			page 204


 9797      746F5F61 
 9797      63715F67 
 9797      707300
 9798              	.LASF82:
 9799 0bcd 666C6167 		.ascii	"flag_compass_error\000"
 9799      5F636F6D 
 9799      70617373 
 9799      5F657272 
 9799      6F7200
 9800              	.LASF299:
 9801 0be0 6170705F 		.ascii	"app_sbc_tick\000"
 9801      7362635F 
 9801      7469636B 
 9801      00
 9802              	.LASF213:
 9803 0bed 616C745F 		.ascii	"alt_mm\000"
 9803      6D6D00
 9804              	.LASF29:
 9805 0bf4 74696C74 		.ascii	"tilt\000"
 9805      00
 9806              	.LASF298:
 9807 0bf9 7362635F 		.ascii	"sbc_state_is_requestable\000"
 9807      73746174 
 9807      655F6973 
 9807      5F726571 
 9807      75657374 
 9808              	.LASF282:
 9809 0c12 6C656166 		.ascii	"leaf_traps_nav\000"
 9809      5F747261 
 9809      70735F6E 
 9809      617600
 9810              	.LASF63:
 9811 0c21 6770735F 		.ascii	"gps_raw_hdg\000"
 9811      7261775F 
 9811      68646700 
 9812              	.LASF3:
 9813 0c2d 5F5F696E 		.ascii	"__int16_t\000"
 9813      7431365F 
 9813      7400
 9814              	.LASF135:
 9815 0c37 70656E64 		.ascii	"pending_response_len\000"
 9815      696E675F 
 9815      72657370 
 9815      6F6E7365 
 9815      5F6C656E 
 9816              	.LASF94:
 9817 0c4c 73797373 		.ascii	"sysstat_cam_status\000"
 9817      7461745F 
 9817      63616D5F 
 9817      73746174 
 9817      757300
 9818              	.LASF236:
 9819 0c5f 656E7472 		.ascii	"entry_auto_home\000"
 9819      795F6175 
 9819      746F5F68 
 9819      6F6D6500 
 9820              	.LASF205:
ARM GAS  C:\Users\JENNEW~1\AppData\Local\Temp\cc33Iuyf.s 			page 205


 9821 0c6f 745F6D73 		.ascii	"t_ms\000"
 9821      00
 9822              	.LASF116:
 9823 0c74 64726F70 		.ascii	"drops\000"
 9823      7300
 9824              	.LASF222:
 9825 0c7a 6170705F 		.ascii	"app_start\000"
 9825      73746172 
 9825      7400
 9826              	.LASF266:
 9827 0c84 6275696C 		.ascii	"build_auto_tracking\000"
 9827      645F6175 
 9827      746F5F74 
 9827      7261636B 
 9827      696E6700 
 9828              	.LASF184:
 9829 0c98 6770735F 		.ascii	"gps_last_tilt_deg\000"
 9829      6C617374 
 9829      5F74696C 
 9829      745F6465 
 9829      6700
 9830              	.LASF32:
 9831 0caa 74696C74 		.ascii	"tilt_mode\000"
 9831      5F6D6F64 
 9831      6500
 9832              	.LASF225:
 9833 0cb4 6C617374 		.ascii	"last_hot_ms\000"
 9833      5F686F74 
 9833      5F6D7300 
 9834              	.LASF309:
 9835 0cc0 6170705F 		.ascii	"app_statemachine.c\000"
 9835      73746174 
 9835      656D6163 
 9835      68696E65 
 9835      2E6300
 9836              	.LASF304:
 9837 0cd3 6F6E5F62 		.ascii	"on_build\000"
 9837      75696C64 
 9837      00
 9838              	.LASF188:
 9839 0cdc 74726163 		.ascii	"track_cy_last\000"
 9839      6B5F6379 
 9839      5F6C6173 
 9839      7400
 9840              	.LASF186:
 9841 0cea 74726163 		.ascii	"track_kp\000"
 9841      6B5F6B70 
 9841      00
 9842              	.LASF283:
 9843 0cf3 68616E64 		.ascii	"handle_nav_key\000"
 9843      6C655F6E 
 9843      61765F6B 
 9843      657900
 9844              	.LASF173:
 9845 0d02 6162735F 		.ascii	"abs_tilt_target\000"
 9845      74696C74 
 9845      5F746172 
ARM GAS  C:\Users\JENNEW~1\AppData\Local\Temp\cc33Iuyf.s 			page 206


 9845      67657400 
 9846              	.LASF189:
 9847 0d12 6F726967 		.ascii	"origin_pan_deg\000"
 9847      696E5F70 
 9847      616E5F64 
 9847      656700
 9848              	.LASF182:
 9849 0d21 6770735F 		.ascii	"gps_settled\000"
 9849      73657474 
 9849      6C656400 
 9850              	.LASF4:
 9851 0d2d 73686F72 		.ascii	"short int\000"
 9851      7420696E 
 9851      7400
 9852              	.LASF147:
 9853 0d37 4155544F 		.ascii	"AUTO\000"
 9853      00
 9854              	.LASF292:
 9855 0d3c 6170705F 		.ascii	"app_build_control\000"
 9855      6275696C 
 9855      645F636F 
 9855      6E74726F 
 9855      6C00
 9856              	.LASF15:
 9857 0d4e 696E7431 		.ascii	"int16_t\000"
 9857      365F7400 
 9858              	.LASF218:
 9859 0d56 64657074 		.ascii	"depth_of\000"
 9859      685F6F66 
 9859      00
 9860              	.LASF175:
 9861 0d5f 6770735F 		.ascii	"gps_target_lon_raw\000"
 9861      74617267 
 9861      65745F6C 
 9861      6F6E5F72 
 9861      617700
 9862              	.LASF50:
 9863 0d72 6770735F 		.ascii	"gps_locked\000"
 9863      6C6F636B 
 9863      656400
 9864              	.LASF107:
 9865 0d7d 6D61675F 		.ascii	"mag_declination\000"
 9865      6465636C 
 9865      696E6174 
 9865      696F6E00 
 9866              	.LASF24:
 9867 0d8d 48414D46 		.ascii	"HAMFLY_DEFER\000"
 9867      4C595F44 
 9867      45464552 
 9867      00
 9868              	.LASF127:
 9869 0d9a 73746174 		.ascii	"statistics\000"
 9869      69737469 
 9869      637300
 9870              	.LASF40:
 9871 0da5 76616C69 		.ascii	"valid\000"
 9871      6400
ARM GAS  C:\Users\JENNEW~1\AppData\Local\Temp\cc33Iuyf.s 			page 207


 9872              	.LASF67:
 9873 0dab 6261726F 		.ascii	"baro_valid\000"
 9873      5F76616C 
 9873      696400
 9874              	.LASF35:
 9875 0db6 6B696C6C 		.ascii	"kill\000"
 9875      00
 9876              	.LASF158:
 9877 0dbb 4552524F 		.ascii	"ERROR_ACTIVE\000"
 9877      525F4143 
 9877      54495645 
 9877      00
 9878              	.LASF264:
 9879 0dc8 656E7472 		.ascii	"entry_auto_tracking\000"
 9879      795F6175 
 9879      746F5F74 
 9879      7261636B 
 9879      696E6700 
 9880              	.LASF193:
 9881 0ddc 6C617374 		.ascii	"last_diag_ms\000"
 9881      5F646961 
 9881      675F6D73 
 9881      00
 9882              	.LASF118:
 9883 0de9 74785F70 		.ascii	"tx_packets\000"
 9883      61636B65 
 9883      747300
 9884              	.LASF281:
 9885 0df4 68616E64 		.ascii	"handle_global_key\000"
 9885      6C655F67 
 9885      6C6F6261 
 9885      6C5F6B65 
 9885      7900
 9886              	.LASF203:
 9887 0e06 7467745F 		.ascii	"tgt_tilt_deg\000"
 9887      74696C74 
 9887      5F646567 
 9887      00
 9888              	.LASF260:
 9889 0e13 65786974 		.ascii	"exit_auto_acq_gps\000"
 9889      5F617574 
 9889      6F5F6163 
 9889      715F6770 
 9889      7300
 9890              	.LASF180:
 9891 0e25 6770735F 		.ascii	"gps_work_lon_raw\000"
 9891      776F726B 
 9891      5F6C6F6E 
 9891      5F726177 
 9891      00
 9892              	.LASF212:
 9893 0e36 6C6F6E5F 		.ascii	"lon_raw\000"
 9893      72617700 
 9894              	.LASF18:
 9895 0e3e 75696E74 		.ascii	"uint32_t\000"
 9895      33325F74 
 9895      00
ARM GAS  C:\Users\JENNEW~1\AppData\Local\Temp\cc33Iuyf.s 			page 208


 9896              	.LASF131:
 9897 0e47 70656E64 		.ascii	"pending_attr\000"
 9897      696E675F 
 9897      61747472 
 9897      00
 9898              	.LASF234:
 9899 0e54 61727269 		.ascii	"arrived\000"
 9899      76656400 
 9900              	.LASF294:
 9901 0e5c 6470616E 		.ascii	"dpan_deg\000"
 9901      5F646567 
 9901      00
 9902              	.LASF60:
 9903 0e65 6770735F 		.ascii	"gps_raw_lon\000"
 9903      7261775F 
 9903      6C6F6E00 
 9904              	.LASF38:
 9905 0e71 6765745F 		.ascii	"get_tick_ms\000"
 9905      7469636B 
 9905      5F6D7300 
 9906              	.LASF290:
 9907 0e7d 6275696C 		.ascii	"build_manu_joystick\000"
 9907      645F6D61 
 9907      6E755F6A 
 9907      6F797374 
 9907      69636B00 
 9908              	.LASF103:
 9909 0e91 6D61675F 		.ascii	"mag_freq\000"
 9909      66726571 
 9909      00
 9910              	.LASF6:
 9911 0e9a 73686F72 		.ascii	"short unsigned int\000"
 9911      7420756E 
 9911      7369676E 
 9911      65642069 
 9911      6E7400
 9912              	.LASF30:
 9913 0ead 726F6C6C 		.ascii	"roll\000"
 9913      00
 9914              	.LASF160:
 9915 0eb2 73746174 		.ascii	"state_t\000"
 9915      655F7400 
 9916              	.LASF239:
 9917 0eba 6275696C 		.ascii	"build_auto_home\000"
 9917      645F6175 
 9917      746F5F68 
 9917      6F6D6500 
 9918              	.LASF250:
 9919 0eca 6770735F 		.ascii	"gps_update_pointing\000"
 9919      75706461 
 9919      74655F70 
 9919      6F696E74 
 9919      696E6700 
 9920              	.LASF258:
 9921 0ede 736C6F77 		.ascii	"slow\000"
 9921      00
 9922              	.LASF7:
ARM GAS  C:\Users\JENNEW~1\AppData\Local\Temp\cc33Iuyf.s 			page 209


 9923 0ee3 5F5F696E 		.ascii	"__int32_t\000"
 9923      7433325F 
 9923      7400
 9924              	.LASF89:
 9925 0eed 73797373 		.ascii	"sysstat_cpu_pct\000"
 9925      7461745F 
 9925      6370755F 
 9925      70637400 
 9926              	.LASF172:
 9927 0efd 6162735F 		.ascii	"abs_pan_target\000"
 9927      70616E5F 
 9927      74617267 
 9927      657400
 9928              	.LASF109:
 9929 0f0c 73797365 		.ascii	"sysecho_gps_locked\000"
 9929      63686F5F 
 9929      6770735F 
 9929      6C6F636B 
 9929      656400
 9930              	.LASF194:
 9931 0f1f 73746174 		.ascii	"state_entry_ms\000"
 9931      655F656E 
 9931      7472795F 
 9931      6D7300
 9932              	.LASF68:
 9933 0f2e 6261726F 		.ascii	"baro_alt_m\000"
 9933      5F616C74 
 9933      5F6D00
 9934              	.LASF201:
 9935 0f39 6E756467 		.ascii	"nudge_base_tilt_deg\000"
 9935      655F6261 
 9935      73655F74 
 9935      696C745F 
 9935      64656700 
 9936              	.LASF215:
 9937 0f4d 73746174 		.ascii	"state_fn_t\000"
 9937      655F666E 
 9937      5F7400
 9938              	.LASF52:
 9939 0f58 6770735F 		.ascii	"gps_lon_deg\000"
 9939      6C6F6E5F 
 9939      64656700 
 9940              	.LASF251:
 9941 0f64 746C6174 		.ascii	"tlat\000"
 9941      00
 9942              	.LASF145:
 9943 0f69 53544259 		.ascii	"STBY\000"
 9943      00
 9944              	.LASF310:
 9945 0f6e 433A5C55 		.ascii	"C:\\Users\\Jennewein\\Documents\\hamish-workspace\\"
 9945      73657273 
 9945      5C4A656E 
 9945      6E657765 
 9945      696E5C44 
 9946 0f9c 50536F43 		.ascii	"PSoC-Programs\\test_projects\\Proj07_hamflyAPI_stat"
 9946      2D50726F 
 9946      6772616D 
ARM GAS  C:\Users\JENNEW~1\AppData\Local\Temp\cc33Iuyf.s 			page 210


 9946      735C7465 
 9946      73745F70 
 9947 0fcd 654D6163 		.ascii	"eMachineUpgrade.cydsn\000"
 9947      68696E65 
 9947      55706772 
 9947      6164652E 
 9947      63796473 
 9948              	.LASF287:
 9949 0fe3 6170705F 		.ascii	"app_dispatch_key\000"
 9949      64697370 
 9949      61746368 
 9949      5F6B6579 
 9949      00
 9950              	.LASF214:
 9951 0ff4 7061796C 		.ascii	"payload_gps_target_t\000"
 9951      6F61645F 
 9951      6770735F 
 9951      74617267 
 9951      65745F74 
 9952              	.LASF268:
 9953 1009 63795F6D 		.ascii	"cy_mrad\000"
 9953      72616400 
 9954              	.LASF143:
 9955 1011 6A6F795F 		.ascii	"joy_cmd_t\000"
 9955      636D645F 
 9955      7400
 9956              	.LASF198:
 9957 101b 6E756467 		.ascii	"nudge_hold\000"
 9957      655F686F 
 9957      6C6400
 9958              	.LASF241:
 9959 1026 6C617431 		.ascii	"lat1\000"
 9959      00
 9960              	.LASF235:
 9961 102b 6C617374 		.ascii	"last_pt_ms\000"
 9961      5F70745F 
 9961      6D7300
 9962              	.LASF206:
 9963 1036 63786572 		.ascii	"cxerr\000"
 9963      7200
 9964              		.ident	"GCC: (GNU Tools for ARM Embedded Processors) 5.4.1 20160609 (release) [ARM/embedded-5-bran
