ARM GAS  C:\Users\JENNEW~1\AppData\Local\Temp\ccfmLJ2w.s 			page 1


   1              		.syntax unified
   2              		.cpu cortex-m3
   3              		.fpu softvfp
   4              		.eabi_attribute 20, 1
   5              		.eabi_attribute 21, 1
   6              		.eabi_attribute 23, 3
   7              		.eabi_attribute 24, 1
   8              		.eabi_attribute 25, 1
   9              		.eabi_attribute 26, 1
  10              		.eabi_attribute 30, 6
  11              		.eabi_attribute 34, 1
  12              		.eabi_attribute 18, 4
  13              		.thumb
  14              		.syntax unified
  15              		.file	"app_state_auto.c"
  16              		.text
  17              	.Ltext0:
  18              		.cfi_sections	.debug_frame
  19              		.section	.text.guard_auto_parent,"ax",%progbits
  20              		.align	2
  21              		.global	guard_auto_parent
  22              		.thumb
  23              		.thumb_func
  24              		.type	guard_auto_parent, %function
  25              	guard_auto_parent:
  26              	.LFB64:
  27              		.file 1 "app_state_auto.c"
   1:app_state_auto.c **** /* ========================================
   2:app_state_auto.c ****  *
   3:app_state_auto.c ****  * Copyright Hamish Johnson, 2026
   4:app_state_auto.c ****  * All Rights Reserved
   5:app_state_auto.c ****  * UNPUBLISHED, LICENSED SOFTWARE.
   6:app_state_auto.c ****  *
   7:app_state_auto.c ****  * CONFIDENTIAL AND PROPRIETARY INFORMATION
   8:app_state_auto.c ****  * WHICH IS THE PROPERTY OF 
   9:app_state_auto.c ****  * Quantum Internet Systems Lab (QISL),
  10:app_state_auto.c ****  * Department of Physics, SFU, Canada.
  11:app_state_auto.c ****  *
  12:app_state_auto.c ****  * Author: Hamish Johnson (2026)
  13:app_state_auto.c ****  *
  14:app_state_auto.c ****  * ========================================
  15:app_state_auto.c ****  *
  16:app_state_auto.c ****  * Parent AUTO - For all tracking states.
  17:app_state_auto.c **** */
  18:app_state_auto.c **** 
  19:app_state_auto.c **** #include "app_state_auto.h"
  20:app_state_auto.c **** #include "app_statemachine.h"  // app_transitions and app_raise_error
  21:app_state_auto.c **** #include "hamfly.h"            // telemetry helpers and gimble mode enums
  22:app_state_auto.c **** #include "sbc_comms.h"         // centroid stream getters + counters
  23:app_state_auto.c **** #include "utils.h"             // Euler angles calc
  24:app_state_auto.c **** #include <project.h>           // UART_DEBUG_PutString
  25:app_state_auto.c **** #include <math.h>              // sinf cosf atan2f sqrtf fabsf
  26:app_state_auto.c **** #include <stdio.h>             // snprintf
  27:app_state_auto.c **** 
  28:app_state_auto.c **** extern volatile uint32_t g_tick_ms;
  29:app_state_auto.c **** 
  30:app_state_auto.c **** // GPS Pointing Math %========================================================%
ARM GAS  C:\Users\JENNEW~1\AppData\Local\Temp\ccfmLJ2w.s 			page 2


  31:app_state_auto.c **** // Forward declare here, defined below.
  32:app_state_auto.c **** static float gps_bearing_deg (float lat1, float lon1, float lat2, float lon2);
  33:app_state_auto.c **** static float gps_elev_deg    (float lat1, float lon1, float alt1_m,
  34:app_state_auto.c ****                               float lat2, float lon2, float alt2_m);
  35:app_state_auto.c **** static void  gps_start_slew     (app_ctx_t *ctx);
  36:app_state_auto.c **** static void  gps_update_pointing(app_ctx_t *ctx);
  37:app_state_auto.c **** static void  gps_check_settle   (app_ctx_t *ctx);
  38:app_state_auto.c **** 
  39:app_state_auto.c **** // State On-Entry Guards %====================================================%
  40:app_state_auto.c **** uint8_t guard_auto_parent(const app_ctx_t *ctx)
  41:app_state_auto.c **** {
  28              		.loc 1 41 0
  29              		.cfi_startproc
  30              		@ args = 0, pretend = 0, frame = 16
  31              		@ frame_needed = 1, uses_anonymous_args = 0
  32 0000 80B5     		push	{r7, lr}
  33              		.cfi_def_cfa_offset 8
  34              		.cfi_offset 7, -8
  35              		.cfi_offset 14, -4
  36 0002 84B0     		sub	sp, sp, #16
  37              		.cfi_def_cfa_offset 24
  38 0004 00AF     		add	r7, sp, #0
  39              		.cfi_def_cfa_register 7
  40 0006 7860     		str	r0, [r7, #4]
  42:app_state_auto.c ****     // All AUTO states require live telemetry.
  43:app_state_auto.c ****     float p, t;
  44:app_state_auto.c ****     return gimbal_pan_tilt_deg(ctx, &p, &t);
  41              		.loc 1 44 0
  42 0008 07F10802 		add	r2, r7, #8
  43 000c 07F10C03 		add	r3, r7, #12
  44 0010 1946     		mov	r1, r3
  45 0012 7868     		ldr	r0, [r7, #4]
  46 0014 FFF7FEFF 		bl	gimbal_pan_tilt_deg
  47 0018 0346     		mov	r3, r0
  45:app_state_auto.c **** }
  48              		.loc 1 45 0
  49 001a 1846     		mov	r0, r3
  50 001c 1037     		adds	r7, r7, #16
  51              		.cfi_def_cfa_offset 8
  52 001e BD46     		mov	sp, r7
  53              		.cfi_def_cfa_register 13
  54              		@ sp needed
  55 0020 80BD     		pop	{r7, pc}
  56              		.cfi_endproc
  57              	.LFE64:
  58              		.size	guard_auto_parent, .-guard_auto_parent
  59 0022 00BF     		.section	.text.guard_auto_home,"ax",%progbits
  60              		.align	2
  61              		.global	guard_auto_home
  62              		.thumb
  63              		.thumb_func
  64              		.type	guard_auto_home, %function
  65              	guard_auto_home:
  66              	.LFB65:
  46:app_state_auto.c **** 
  47:app_state_auto.c **** uint8_t guard_auto_home(const app_ctx_t *ctx)
  48:app_state_auto.c **** {
ARM GAS  C:\Users\JENNEW~1\AppData\Local\Temp\ccfmLJ2w.s 			page 3


  67              		.loc 1 48 0
  68              		.cfi_startproc
  69              		@ args = 0, pretend = 0, frame = 8
  70              		@ frame_needed = 1, uses_anonymous_args = 0
  71              		@ link register save eliminated.
  72 0000 80B4     		push	{r7}
  73              		.cfi_def_cfa_offset 4
  74              		.cfi_offset 7, -4
  75 0002 83B0     		sub	sp, sp, #12
  76              		.cfi_def_cfa_offset 16
  77 0004 00AF     		add	r7, sp, #0
  78              		.cfi_def_cfa_register 7
  79 0006 7860     		str	r0, [r7, #4]
  49:app_state_auto.c ****     // A home origin must be set.
  50:app_state_auto.c ****     return ctx->origin_set;
  80              		.loc 1 50 0
  81 0008 7B68     		ldr	r3, [r7, #4]
  82 000a 93F86430 		ldrb	r3, [r3, #100]	@ zero_extendqisi2
  51:app_state_auto.c **** }
  83              		.loc 1 51 0
  84 000e 1846     		mov	r0, r3
  85 0010 0C37     		adds	r7, r7, #12
  86              		.cfi_def_cfa_offset 4
  87 0012 BD46     		mov	sp, r7
  88              		.cfi_def_cfa_register 13
  89              		@ sp needed
  90 0014 80BC     		pop	{r7}
  91              		.cfi_restore 7
  92              		.cfi_def_cfa_offset 0
  93 0016 7047     		bx	lr
  94              		.cfi_endproc
  95              	.LFE65:
  96              		.size	guard_auto_home, .-guard_auto_home
  97              		.section	.text.guard_auto_acq_gps,"ax",%progbits
  98              		.align	2
  99              		.global	guard_auto_acq_gps
 100              		.thumb
 101              		.thumb_func
 102              		.type	guard_auto_acq_gps, %function
 103              	guard_auto_acq_gps:
 104              	.LFB66:
  52:app_state_auto.c **** 
  53:app_state_auto.c **** uint8_t guard_auto_acq_gps(const app_ctx_t *ctx)
  54:app_state_auto.c **** {
 105              		.loc 1 54 0
 106              		.cfi_startproc
 107              		@ args = 0, pretend = 0, frame = 8
 108              		@ frame_needed = 1, uses_anonymous_args = 0
 109              		@ link register save eliminated.
 110 0000 80B4     		push	{r7}
 111              		.cfi_def_cfa_offset 4
 112              		.cfi_offset 7, -4
 113 0002 83B0     		sub	sp, sp, #12
 114              		.cfi_def_cfa_offset 16
 115 0004 00AF     		add	r7, sp, #0
 116              		.cfi_def_cfa_register 7
 117 0006 7860     		str	r0, [r7, #4]
ARM GAS  C:\Users\JENNEW~1\AppData\Local\Temp\ccfmLJ2w.s 			page 4


  55:app_state_auto.c ****     // A target GPS coordinate must be set.
  56:app_state_auto.c ****     return ctx->gps_target_set;
 118              		.loc 1 56 0
 119 0008 7B68     		ldr	r3, [r7, #4]
 120 000a 93F83430 		ldrb	r3, [r3, #52]	@ zero_extendqisi2
  57:app_state_auto.c **** }
 121              		.loc 1 57 0
 122 000e 1846     		mov	r0, r3
 123 0010 0C37     		adds	r7, r7, #12
 124              		.cfi_def_cfa_offset 4
 125 0012 BD46     		mov	sp, r7
 126              		.cfi_def_cfa_register 13
 127              		@ sp needed
 128 0014 80BC     		pop	{r7}
 129              		.cfi_restore 7
 130              		.cfi_def_cfa_offset 0
 131 0016 7047     		bx	lr
 132              		.cfi_endproc
 133              	.LFE66:
 134              		.size	guard_auto_acq_gps, .-guard_auto_acq_gps
 135              		.global	__aeabi_fsub
 136              		.global	__aeabi_fcmplt
 137              		.section	.rodata
 138              		.align	2
 139              	.LC0:
 140 0000 5B415554 		.ascii	"[AUTO_HOME] arrived\015\012\000"
 140      4F5F484F 
 140      4D455D20 
 140      61727269 
 140      7665640D 
 141 0016 0000     		.align	2
 142              	.LC1:
 143 0018 5B415554 		.ascii	"[AUTO_HOLD] centroid -> AUTO_TRACKING\015\012\000"
 143      4F5F484F 
 143      4C445D20 
 143      63656E74 
 143      726F6964 
 144              		.align	2
 145              	.LC2:
 146 0040 5B415554 		.ascii	"[AUTO_HOLD] timeout -> AUTO_ACQ_SPIRAL\015\012\000"
 146      4F5F484F 
 146      4C445D20 
 146      74696D65 
 146      6F757420 
 147 0069 000000   		.align	2
 148              	.LC3:
 149 006c 5B534243 		.ascii	"[SBC:%s] cx=%d cy=%d dt=%u rx=%lu crcErr=%u uartErr"
 149      3A25735D 
 149      2063783D 
 149      25642063 
 149      793D2564 
 150 009f 3D25750D 		.ascii	"=%u\015\012\000"
 150      0A00
 151 00a5 000000   		.align	2
 152              	.LC4:
 153 00a8 5B415554 		.ascii	"[AUTO_TRACKING] centroid lost -> AUTO_LOSS\015\012\000"
 153      4F5F5452 
ARM GAS  C:\Users\JENNEW~1\AppData\Local\Temp\ccfmLJ2w.s 			page 5


 153      41434B49 
 153      4E475D20 
 153      63656E74 
 154 00d5 000000   		.align	2
 155              	.LC5:
 156 00d8 5B415554 		.ascii	"[AUTO_LOSS] centroid returned -> AUTO_TRACKING\015\012"
 156      4F5F4C4F 
 156      53535D20 
 156      63656E74 
 156      726F6964 
 157 0108 00       		.ascii	"\000"
 158 0109 000000   		.align	2
 159              	.LC6:
 160 010c 5B415554 		.ascii	"[AUTO_NO_LOCK] auto -> AUTO_ACQ_GPS\015\012\000"
 160      4F5F4E4F 
 160      5F4C4F43 
 160      4B5D2061 
 160      75746F20 
 161              		.section	.text.app_auto_tick,"ax",%progbits
 162              		.align	2
 163              		.global	app_auto_tick
 164              		.thumb
 165              		.thumb_func
 166              		.type	app_auto_tick, %function
 167              	app_auto_tick:
 168              	.LFB67:
  58:app_state_auto.c **** 
  59:app_state_auto.c **** // %==========================================================================%
  60:app_state_auto.c **** // %                          AUTO Tick Handling                              %
  61:app_state_auto.c **** // %==========================================================================%
  62:app_state_auto.c **** // Handles the multi-tick actions of sub-modes such as:
  63:app_state_auto.c **** //  - HOME: Reached within tolerance and steady.
  64:app_state_auto.c **** //  - ACQ_GPS: Recheck for new coordinate at 1Hz, settle.
  65:app_state_auto.c **** //  - TRACKING: Pull freshest centroid, print.
  66:app_state_auto.c **** 
  67:app_state_auto.c **** void app_auto_tick(app_ctx_t *ctx)
  68:app_state_auto.c **** {
 169              		.loc 1 68 0
 170              		.cfi_startproc
 171              		@ args = 0, pretend = 0, frame = 208
 172              		@ frame_needed = 1, uses_anonymous_args = 0
 173 0000 F0B5     		push	{r4, r5, r6, r7, lr}
 174              		.cfi_def_cfa_offset 20
 175              		.cfi_offset 4, -20
 176              		.cfi_offset 5, -16
 177              		.cfi_offset 6, -12
 178              		.cfi_offset 7, -8
 179              		.cfi_offset 14, -4
 180 0002 BBB0     		sub	sp, sp, #236
 181              		.cfi_def_cfa_offset 256
 182 0004 06AF     		add	r7, sp, #24
 183              		.cfi_def_cfa 7, 232
 184 0006 F860     		str	r0, [r7, #12]
  69:app_state_auto.c ****     // AUTO_HOME
  70:app_state_auto.c ****     if (ctx->state == AUTO_HOME && ctx->nudge_hold) {
 185              		.loc 1 70 0
 186 0008 FB68     		ldr	r3, [r7, #12]
ARM GAS  C:\Users\JENNEW~1\AppData\Local\Temp\ccfmLJ2w.s 			page 6


 187 000a 1B79     		ldrb	r3, [r3, #4]	@ zero_extendqisi2
 188 000c 082B     		cmp	r3, #8
 189 000e 6BD1     		bne	.L8
 190              		.loc 1 70 0 is_stmt 0 discriminator 1
 191 0010 FB68     		ldr	r3, [r7, #12]
 192 0012 93F88830 		ldrb	r3, [r3, #136]	@ zero_extendqisi2
 193 0016 002B     		cmp	r3, #0
 194 0018 66D0     		beq	.L8
 195              	.LBB2:
  71:app_state_auto.c ****         uint32_t elapsed = g_tick_ms - ctx->nudge_start_ms;
 196              		.loc 1 71 0 is_stmt 1
 197 001a BE4B     		ldr	r3, .L44
 198 001c 1A68     		ldr	r2, [r3]
 199 001e FB68     		ldr	r3, [r7, #12]
 200 0020 D3F88C30 		ldr	r3, [r3, #140]
 201 0024 D31A     		subs	r3, r2, r3
 202 0026 C7F8C830 		str	r3, [r7, #200]
  72:app_state_auto.c ****         if (elapsed >= NUDGE_MIN_DWELL_MS) {
 203              		.loc 1 72 0
 204 002a D7F8C830 		ldr	r3, [r7, #200]
 205 002e 952B     		cmp	r3, #149
 206 0030 40F26781 		bls	.L38
 207              	.LBB3:
  73:app_state_auto.c ****             float p, t;
  74:app_state_auto.c ****             uint8_t arrived = 0u;
 208              		.loc 1 74 0
 209 0034 0023     		movs	r3, #0
 210 0036 87F8C730 		strb	r3, [r7, #199]
  75:app_state_auto.c ****             if (gimbal_pan_tilt_deg(ctx, &p, &t))
 211              		.loc 1 75 0
 212 003a 07F1B802 		add	r2, r7, #184
 213 003e 07F1BC03 		add	r3, r7, #188
 214 0042 1946     		mov	r1, r3
 215 0044 F868     		ldr	r0, [r7, #12]
 216 0046 FFF7FEFF 		bl	gimbal_pan_tilt_deg
 217 004a 0346     		mov	r3, r0
 218 004c 002B     		cmp	r3, #0
 219 004e 03D0     		beq	.L10
  76:app_state_auto.c ****                 ctx->gimbal_last_rx_ms = g_tick_ms;
 220              		.loc 1 76 0
 221 0050 B04B     		ldr	r3, .L44
 222 0052 1A68     		ldr	r2, [r3]
 223 0054 FB68     		ldr	r3, [r7, #12]
 224 0056 1A61     		str	r2, [r3, #16]
 225              	.L10:
  77:app_state_auto.c ****                 arrived = (fabsf(p - ctx->tgt_pan_deg)  < NUDGE_SETTLE_DEG) &&
 226              		.loc 1 77 0
 227 0058 D7F8BC20 		ldr	r2, [r7, #188]	@ float
 228 005c FB68     		ldr	r3, [r7, #12]
 229 005e D3F89830 		ldr	r3, [r3, #152]	@ float
 230 0062 1946     		mov	r1, r3
 231 0064 1046     		mov	r0, r2
 232 0066 FFF7FEFF 		bl	__aeabi_fsub
 233 006a 0346     		mov	r3, r0
 234 006c 23F00043 		bic	r3, r3, #-2147483648
 235 0070 A949     		ldr	r1, .L44+4
 236 0072 1846     		mov	r0, r3
ARM GAS  C:\Users\JENNEW~1\AppData\Local\Temp\ccfmLJ2w.s 			page 7


 237 0074 FFF7FEFF 		bl	__aeabi_fcmplt
 238 0078 0346     		mov	r3, r0
 239 007a 002B     		cmp	r3, #0
 240 007c 14D0     		beq	.L11
  78:app_state_auto.c ****                           (fabsf(t - ctx->tgt_tilt_deg) < NUDGE_SETTLE_DEG);
 241              		.loc 1 78 0 discriminator 1
 242 007e D7F8B820 		ldr	r2, [r7, #184]	@ float
 243 0082 FB68     		ldr	r3, [r7, #12]
 244 0084 D3F89C30 		ldr	r3, [r3, #156]	@ float
 245 0088 1946     		mov	r1, r3
 246 008a 1046     		mov	r0, r2
 247 008c FFF7FEFF 		bl	__aeabi_fsub
 248 0090 0346     		mov	r3, r0
 249 0092 23F00043 		bic	r3, r3, #-2147483648
  77:app_state_auto.c ****                 arrived = (fabsf(p - ctx->tgt_pan_deg)  < NUDGE_SETTLE_DEG) &&
 250              		.loc 1 77 0 discriminator 1
 251 0096 A049     		ldr	r1, .L44+4
 252 0098 1846     		mov	r0, r3
 253 009a FFF7FEFF 		bl	__aeabi_fcmplt
 254 009e 0346     		mov	r3, r0
 255 00a0 002B     		cmp	r3, #0
 256 00a2 01D0     		beq	.L11
  77:app_state_auto.c ****                 arrived = (fabsf(p - ctx->tgt_pan_deg)  < NUDGE_SETTLE_DEG) &&
 257              		.loc 1 77 0 is_stmt 0 discriminator 3
 258 00a4 0123     		movs	r3, #1
 259 00a6 00E0     		b	.L14
 260              	.L11:
  77:app_state_auto.c ****                 arrived = (fabsf(p - ctx->tgt_pan_deg)  < NUDGE_SETTLE_DEG) &&
 261              		.loc 1 77 0 discriminator 4
 262 00a8 0023     		movs	r3, #0
 263              	.L14:
  77:app_state_auto.c ****                 arrived = (fabsf(p - ctx->tgt_pan_deg)  < NUDGE_SETTLE_DEG) &&
 264              		.loc 1 77 0 discriminator 6
 265 00aa 87F8C730 		strb	r3, [r7, #199]
  79:app_state_auto.c ****             if (arrived || elapsed >= NUDGE_TIMEOUT_MS) {
 266              		.loc 1 79 0 is_stmt 1 discriminator 6
 267 00ae 97F8C730 		ldrb	r3, [r7, #199]	@ zero_extendqisi2
 268 00b2 002B     		cmp	r3, #0
 269 00b4 05D1     		bne	.L15
 270              		.loc 1 79 0 is_stmt 0 discriminator 1
 271 00b6 D7F8C830 		ldr	r3, [r7, #200]
 272 00ba B3F5FA6F 		cmp	r3, #2000
 273 00be C0F02081 		bcc	.L38
 274              	.L15:
 275              	.LBB4:
  80:app_state_auto.c ****                 UART_DEBUG_PutString("[AUTO_HOME] arrived\r\n");
 276              		.loc 1 80 0 is_stmt 1
 277 00c2 9648     		ldr	r0, .L44+8
 278 00c4 FFF7FEFF 		bl	UART_DEBUG_PutString
  81:app_state_auto.c ****                 state_t dest = ctx->home_return_stby ? STBY_HOLD : AUTO_HOLD;
 279              		.loc 1 81 0
 280 00c8 FB68     		ldr	r3, [r7, #12]
 281 00ca DB79     		ldrb	r3, [r3, #7]	@ zero_extendqisi2
 282 00cc 002B     		cmp	r3, #0
 283 00ce 01D0     		beq	.L17
 284              		.loc 1 81 0 is_stmt 0 discriminator 1
 285 00d0 0623     		movs	r3, #6
ARM GAS  C:\Users\JENNEW~1\AppData\Local\Temp\ccfmLJ2w.s 			page 8


 286 00d2 00E0     		b	.L18
 287              	.L17:
 288              		.loc 1 81 0 discriminator 2
 289 00d4 0923     		movs	r3, #9
 290              	.L18:
 291              		.loc 1 81 0 discriminator 4
 292 00d6 87F8C630 		strb	r3, [r7, #198]
  82:app_state_auto.c ****                 app_transition(ctx, dest);  // -> STBY_HOLD or AUTO_HOLD
 293              		.loc 1 82 0 is_stmt 1 discriminator 4
 294 00da 97F8C630 		ldrb	r3, [r7, #198]	@ zero_extendqisi2
 295 00de 1946     		mov	r1, r3
 296 00e0 F868     		ldr	r0, [r7, #12]
 297 00e2 FFF7FEFF 		bl	app_transition
 298              	.LBE4:
 299              	.LBE3:
  83:app_state_auto.c ****             }
  84:app_state_auto.c ****         }
  85:app_state_auto.c ****         return;
 300              		.loc 1 85 0 discriminator 4
 301 00e6 0CE1     		b	.L38
 302              	.L8:
 303              	.LBE2:
  86:app_state_auto.c ****     }
  87:app_state_auto.c ****     
  88:app_state_auto.c ****     // AUTO_HOLD: watch for centroids and wait for timout to spiral search
  89:app_state_auto.c ****     if (ctx->state == AUTO_HOLD) {
 304              		.loc 1 89 0
 305 00e8 FB68     		ldr	r3, [r7, #12]
 306 00ea 1B79     		ldrb	r3, [r3, #4]	@ zero_extendqisi2
 307 00ec 092B     		cmp	r3, #9
 308 00ee 32D1     		bne	.L20
 309              	.LBB5:
  90:app_state_auto.c ****         payload_centroid_t c;
  91:app_state_auto.c ****         if (sbc_get_centroid(STREAM_COARSE, &c)) {
 310              		.loc 1 91 0
 311 00f0 07F1AC03 		add	r3, r7, #172
 312 00f4 1946     		mov	r1, r3
 313 00f6 0020     		movs	r0, #0
 314 00f8 FFF7FEFF 		bl	sbc_get_centroid
 315 00fc 0346     		mov	r3, r0
 316 00fe 002B     		cmp	r3, #0
 317 0100 11D0     		beq	.L21
  92:app_state_auto.c ****             ctx->track_cx_last = c.cx;
 318              		.loc 1 92 0
 319 0102 B7F9B020 		ldrsh	r2, [r7, #176]
 320 0106 FB68     		ldr	r3, [r7, #12]
 321 0108 A3F85820 		strh	r2, [r3, #88]	@ movhi
  93:app_state_auto.c ****             ctx->track_cy_last = c.cy;
 322              		.loc 1 93 0
 323 010c B7F9B220 		ldrsh	r2, [r7, #178]
 324 0110 FB68     		ldr	r3, [r7, #12]
 325 0112 A3F85A20 		strh	r2, [r3, #90]	@ movhi
  94:app_state_auto.c ****             UART_DEBUG_PutString("[AUTO_HOLD] centroid -> AUTO_TRACKING\r\n");
 326              		.loc 1 94 0
 327 0116 8248     		ldr	r0, .L44+12
 328 0118 FFF7FEFF 		bl	UART_DEBUG_PutString
  95:app_state_auto.c ****             app_transition(ctx, AUTO_TRACKING);
ARM GAS  C:\Users\JENNEW~1\AppData\Local\Temp\ccfmLJ2w.s 			page 9


 329              		.loc 1 95 0
 330 011c 0C21     		movs	r1, #12
 331 011e F868     		ldr	r0, [r7, #12]
 332 0120 FFF7FEFF 		bl	app_transition
  96:app_state_auto.c ****             return;
 333              		.loc 1 96 0
 334 0124 0DE1     		b	.L7
 335              	.L21:
  97:app_state_auto.c ****         }
  98:app_state_auto.c ****         if (ctx->auto_flow &&
 336              		.loc 1 98 0
 337 0126 FB68     		ldr	r3, [r7, #12]
 338 0128 9B79     		ldrb	r3, [r3, #6]	@ zero_extendqisi2
 339 012a 002B     		cmp	r3, #0
 340 012c 00F0EB80 		beq	.L39
  99:app_state_auto.c ****             (g_tick_ms - ctx->auto_hold_entry_ms) >= AUTO_HOLD_TO_SPIRAL_MS) {
 341              		.loc 1 99 0 discriminator 1
 342 0130 784B     		ldr	r3, .L44
 343 0132 1A68     		ldr	r2, [r3]
 344 0134 FB68     		ldr	r3, [r7, #12]
 345 0136 9B68     		ldr	r3, [r3, #8]
 346 0138 D31A     		subs	r3, r2, r3
  98:app_state_auto.c ****             (g_tick_ms - ctx->auto_hold_entry_ms) >= AUTO_HOLD_TO_SPIRAL_MS) {
 347              		.loc 1 98 0 discriminator 1
 348 013a 42F20F72 		movw	r2, #9999
 349 013e 9342     		cmp	r3, r2
 350 0140 40F2E180 		bls	.L39
 100:app_state_auto.c ****             UART_DEBUG_PutString("[AUTO_HOLD] timeout -> AUTO_ACQ_SPIRAL\r\n");
 351              		.loc 1 100 0
 352 0144 7748     		ldr	r0, .L44+16
 353 0146 FFF7FEFF 		bl	UART_DEBUG_PutString
 101:app_state_auto.c ****             app_transition(ctx, AUTO_ACQ_SPIRAL);
 354              		.loc 1 101 0
 355 014a 0B21     		movs	r1, #11
 356 014c F868     		ldr	r0, [r7, #12]
 357 014e FFF7FEFF 		bl	app_transition
 102:app_state_auto.c ****         }
 103:app_state_auto.c ****         return;
 358              		.loc 1 103 0
 359 0152 00BF     		nop
 360 0154 D7E0     		b	.L39
 361              	.L20:
 362              	.LBE5:
 104:app_state_auto.c ****     }
 105:app_state_auto.c ****     
 106:app_state_auto.c ****     // AUTO_ACQ_GPS
 107:app_state_auto.c ****     // TODO: GPS should go to the set coordinate and settle and stay there,
 108:app_state_auto.c ****     // waiting for centroid packets to arrive for N seconds (0 means wait forever).
 109:app_state_auto.c ****     // If no lock in N seconds, spiral, if lock go to tracking.
 110:app_state_auto.c ****     if (ctx->state == AUTO_ACQ_GPS) {
 363              		.loc 1 110 0
 364 0156 FB68     		ldr	r3, [r7, #12]
 365 0158 1B79     		ldrb	r3, [r3, #4]	@ zero_extendqisi2
 366 015a 0A2B     		cmp	r3, #10
 367 015c 18D1     		bne	.L24
 368              	.LBB6:
 111:app_state_auto.c ****         static uint32_t last_pt_ms = 0u;
ARM GAS  C:\Users\JENNEW~1\AppData\Local\Temp\ccfmLJ2w.s 			page 10


 112:app_state_auto.c ****         if (g_tick_ms - last_pt_ms >= DIAG_PERIOD_MS) {
 369              		.loc 1 112 0
 370 015e 6D4B     		ldr	r3, .L44
 371 0160 1A68     		ldr	r2, [r3]
 372 0162 714B     		ldr	r3, .L44+20
 373 0164 1B68     		ldr	r3, [r3]
 374 0166 D31A     		subs	r3, r2, r3
 375 0168 41F28732 		movw	r2, #4999
 376 016c 9342     		cmp	r3, r2
 377 016e 0BD9     		bls	.L25
 113:app_state_auto.c ****             last_pt_ms = g_tick_ms;
 378              		.loc 1 113 0
 379 0170 684B     		ldr	r3, .L44
 380 0172 1B68     		ldr	r3, [r3]
 381 0174 6C4A     		ldr	r2, .L44+20
 382 0176 1360     		str	r3, [r2]
 114:app_state_auto.c ****             if (ctx->gps_target_set) gps_update_pointing(ctx);
 383              		.loc 1 114 0
 384 0178 FB68     		ldr	r3, [r7, #12]
 385 017a 93F83430 		ldrb	r3, [r3, #52]	@ zero_extendqisi2
 386 017e 002B     		cmp	r3, #0
 387 0180 02D0     		beq	.L25
 388              		.loc 1 114 0 is_stmt 0 discriminator 1
 389 0182 F868     		ldr	r0, [r7, #12]
 390 0184 FFF7FEFF 		bl	gps_update_pointing
 391              	.L25:
 115:app_state_auto.c ****         }
 116:app_state_auto.c ****         gps_check_settle(ctx);   // self-throttled to GPS_SETTLE_PERIOD_MS
 392              		.loc 1 116 0 is_stmt 1
 393 0188 F868     		ldr	r0, [r7, #12]
 394 018a FFF7FEFF 		bl	gps_check_settle
 117:app_state_auto.c ****         return;
 395              		.loc 1 117 0
 396 018e D8E0     		b	.L7
 397              	.L24:
 398              	.LBE6:
 118:app_state_auto.c ****     }
 119:app_state_auto.c **** 
 120:app_state_auto.c ****     // AUTO_TRACKING
 121:app_state_auto.c ****     if (ctx->state == AUTO_TRACKING) {
 399              		.loc 1 121 0
 400 0190 FB68     		ldr	r3, [r7, #12]
 401 0192 1B79     		ldrb	r3, [r3, #4]	@ zero_extendqisi2
 402 0194 0C2B     		cmp	r3, #12
 403 0196 7ED1     		bne	.L26
 404              	.LBB7:
 122:app_state_auto.c ****         uint8_t got_coarse = 0u;
 405              		.loc 1 122 0
 406 0198 0023     		movs	r3, #0
 407 019a 87F8C530 		strb	r3, [r7, #197]
 408              	.LBB8:
 123:app_state_auto.c ****         static const char *tag[STREAM_COUNTS] = { "C", "F" };
 124:app_state_auto.c ****         for (uint8_t s = 0u; s < STREAM_COUNTS; s++) {
 409              		.loc 1 124 0
 410 019e 0023     		movs	r3, #0
 411 01a0 87F8CF30 		strb	r3, [r7, #207]
 412 01a4 53E0     		b	.L27
ARM GAS  C:\Users\JENNEW~1\AppData\Local\Temp\ccfmLJ2w.s 			page 11


 413              	.L31:
 414              	.LBB9:
 125:app_state_auto.c ****             payload_centroid_t c;
 126:app_state_auto.c ****             if (!sbc_get_centroid(s, &c)) continue; // No centroids
 415              		.loc 1 126 0
 416 01a6 07F1A002 		add	r2, r7, #160
 417 01aa 97F8CF30 		ldrb	r3, [r7, #207]	@ zero_extendqisi2
 418 01ae 1146     		mov	r1, r2
 419 01b0 1846     		mov	r0, r3
 420 01b2 FFF7FEFF 		bl	sbc_get_centroid
 421 01b6 0346     		mov	r3, r0
 422 01b8 002B     		cmp	r3, #0
 423 01ba 42D0     		beq	.L40
 127:app_state_auto.c ****             if (s == STREAM_COARSE) {               // Read corasecentroid
 424              		.loc 1 127 0
 425 01bc 97F8CF30 		ldrb	r3, [r7, #207]	@ zero_extendqisi2
 426 01c0 002B     		cmp	r3, #0
 427 01c2 0CD1     		bne	.L30
 128:app_state_auto.c ****                 ctx->track_cx_last  = c.cx;
 428              		.loc 1 128 0
 429 01c4 B7F9A420 		ldrsh	r2, [r7, #164]
 430 01c8 FB68     		ldr	r3, [r7, #12]
 431 01ca A3F85820 		strh	r2, [r3, #88]	@ movhi
 129:app_state_auto.c ****                 ctx->track_cy_last  = c.cy;
 432              		.loc 1 129 0
 433 01ce B7F9A620 		ldrsh	r2, [r7, #166]
 434 01d2 FB68     		ldr	r3, [r7, #12]
 435 01d4 A3F85A20 		strh	r2, [r3, #90]	@ movhi
 130:app_state_auto.c ****                 got_coarse = 1u;
 436              		.loc 1 130 0
 437 01d8 0123     		movs	r3, #1
 438 01da 87F8C530 		strb	r3, [r7, #197]
 439              	.L30:
 131:app_state_auto.c ****             }
 132:app_state_auto.c ****             // Serial debug
 133:app_state_auto.c ****             char b[128];
 134:app_state_auto.c ****             snprintf(b, sizeof b,
 440              		.loc 1 134 0
 441 01de 97F8CF30 		ldrb	r3, [r7, #207]	@ zero_extendqisi2
 442 01e2 524A     		ldr	r2, .L44+24
 443 01e4 52F82340 		ldr	r4, [r2, r3, lsl #2]
 135:app_state_auto.c ****                      "[SBC:%s] cx=%d cy=%d dt=%u rx=%lu crcErr=%u uartErr=%u\r\n",
 136:app_state_auto.c ****                      tag[s], c.cx, c.cy,
 444              		.loc 1 136 0
 445 01e8 B7F9A430 		ldrsh	r3, [r7, #164]
 134:app_state_auto.c ****                      "[SBC:%s] cx=%d cy=%d dt=%u rx=%lu crcErr=%u uartErr=%u\r\n",
 446              		.loc 1 134 0
 447 01ec 1D46     		mov	r5, r3
 448              		.loc 1 136 0
 449 01ee B7F9A630 		ldrsh	r3, [r7, #166]
 134:app_state_auto.c ****                      "[SBC:%s] cx=%d cy=%d dt=%u rx=%lu crcErr=%u uartErr=%u\r\n",
 450              		.loc 1 134 0
 451 01f2 1E46     		mov	r6, r3
 137:app_state_auto.c ****                      sbc_last_centroid_dt_ms(s),
 452              		.loc 1 137 0
 453 01f4 97F8CF30 		ldrb	r3, [r7, #207]	@ zero_extendqisi2
 454 01f8 1846     		mov	r0, r3
ARM GAS  C:\Users\JENNEW~1\AppData\Local\Temp\ccfmLJ2w.s 			page 12


 455 01fa FFF7FEFF 		bl	sbc_last_centroid_dt_ms
 456 01fe 0346     		mov	r3, r0
 134:app_state_auto.c ****                      "[SBC:%s] cx=%d cy=%d dt=%u rx=%lu crcErr=%u uartErr=%u\r\n",
 457              		.loc 1 134 0
 458 0200 BB60     		str	r3, [r7, #8]
 138:app_state_auto.c ****                      (unsigned long)sbc_rx_pkt_count(),
 459              		.loc 1 138 0
 460 0202 FFF7FEFF 		bl	sbc_rx_pkt_count
 461 0206 7860     		str	r0, [r7, #4]
 139:app_state_auto.c ****                      sbc_crc_errors(), sbc_uart_errors());
 462              		.loc 1 139 0
 463 0208 FFF7FEFF 		bl	sbc_crc_errors
 464 020c 0346     		mov	r3, r0
 134:app_state_auto.c ****                      "[SBC:%s] cx=%d cy=%d dt=%u rx=%lu crcErr=%u uartErr=%u\r\n",
 465              		.loc 1 134 0
 466 020e 3B60     		str	r3, [r7]
 467              		.loc 1 139 0
 468 0210 FFF7FEFF 		bl	sbc_uart_errors
 469 0214 0346     		mov	r3, r0
 134:app_state_auto.c ****                      "[SBC:%s] cx=%d cy=%d dt=%u rx=%lu crcErr=%u uartErr=%u\r\n",
 470              		.loc 1 134 0
 471 0216 07F11400 		add	r0, r7, #20
 472 021a 0593     		str	r3, [sp, #20]
 473 021c 3A68     		ldr	r2, [r7]
 474 021e 0492     		str	r2, [sp, #16]
 475 0220 7A68     		ldr	r2, [r7, #4]
 476 0222 0392     		str	r2, [sp, #12]
 477 0224 BB68     		ldr	r3, [r7, #8]
 478 0226 0293     		str	r3, [sp, #8]
 479 0228 0196     		str	r6, [sp, #4]
 480 022a 0095     		str	r5, [sp]
 481 022c 2346     		mov	r3, r4
 482 022e 404A     		ldr	r2, .L44+28
 483 0230 8021     		movs	r1, #128
 484 0232 FFF7FEFF 		bl	snprintf
 140:app_state_auto.c ****             UART_DEBUG_PutString(b);
 485              		.loc 1 140 0
 486 0236 07F11403 		add	r3, r7, #20
 487 023a 1846     		mov	r0, r3
 488 023c FFF7FEFF 		bl	UART_DEBUG_PutString
 489 0240 00E0     		b	.L29
 490              	.L40:
 126:app_state_auto.c ****             if (s == STREAM_COARSE) {               // Read corasecentroid
 491              		.loc 1 126 0
 492 0242 00BF     		nop
 493              	.L29:
 494              	.LBE9:
 124:app_state_auto.c ****             payload_centroid_t c;
 495              		.loc 1 124 0 discriminator 2
 496 0244 97F8CF30 		ldrb	r3, [r7, #207]	@ zero_extendqisi2
 497 0248 0133     		adds	r3, r3, #1
 498 024a 87F8CF30 		strb	r3, [r7, #207]
 499              	.L27:
 124:app_state_auto.c ****             payload_centroid_t c;
 500              		.loc 1 124 0 is_stmt 0 discriminator 1
 501 024e 97F8CF30 		ldrb	r3, [r7, #207]	@ zero_extendqisi2
 502 0252 012B     		cmp	r3, #1
ARM GAS  C:\Users\JENNEW~1\AppData\Local\Temp\ccfmLJ2w.s 			page 13


 503 0254 A7D9     		bls	.L31
 504              	.LBE8:
 141:app_state_auto.c ****         }
 142:app_state_auto.c ****         (void)got_coarse;
 143:app_state_auto.c **** 
 144:app_state_auto.c ****         // Loss check: no coarse centroid for TRACKING_LOSS_TIMEOUT_MS -> AUTO_LOSS
 145:app_state_auto.c ****         uint32_t last_c = sbc_last_rx_ms(STREAM_COARSE);
 505              		.loc 1 145 0 is_stmt 1
 506 0256 0020     		movs	r0, #0
 507 0258 FFF7FEFF 		bl	sbc_last_rx_ms
 508 025c C7F8C000 		str	r0, [r7, #192]
 146:app_state_auto.c ****         if (last_c != 0u &&                  // == No packets ever
 509              		.loc 1 146 0
 510 0260 D7F8C030 		ldr	r3, [r7, #192]
 511 0264 002B     		cmp	r3, #0
 512 0266 50D0     		beq	.L41
 147:app_state_auto.c ****             last_c > ctx->state_entry_ms &&  // == At least one centroidand loss.
 513              		.loc 1 147 0 discriminator 1
 514 0268 FB68     		ldr	r3, [r7, #12]
 515 026a 1A6F     		ldr	r2, [r3, #112]
 146:app_state_auto.c ****         if (last_c != 0u &&                  // == No packets ever
 516              		.loc 1 146 0 discriminator 1
 517 026c D7F8C030 		ldr	r3, [r7, #192]
 518 0270 9A42     		cmp	r2, r3
 519 0272 4AD2     		bcs	.L41
 148:app_state_auto.c ****             (g_tick_ms - last_c) >= TRACKING_LOSS_TIMEOUT_MS) {
 520              		.loc 1 148 0
 521 0274 274B     		ldr	r3, .L44
 522 0276 1A68     		ldr	r2, [r3]
 523 0278 D7F8C030 		ldr	r3, [r7, #192]
 524 027c D31A     		subs	r3, r2, r3
 147:app_state_auto.c ****             last_c > ctx->state_entry_ms &&  // == At least one centroidand loss.
 525              		.loc 1 147 0
 526 027e 41F28732 		movw	r2, #4999
 527 0282 9342     		cmp	r3, r2
 528 0284 41D9     		bls	.L41
 149:app_state_auto.c ****             UART_DEBUG_PutString("[AUTO_TRACKING] centroid lost -> AUTO_LOSS\r\n");
 529              		.loc 1 149 0
 530 0286 2B48     		ldr	r0, .L44+32
 531 0288 FFF7FEFF 		bl	UART_DEBUG_PutString
 150:app_state_auto.c ****             app_transition(ctx, AUTO_LOSS);
 532              		.loc 1 150 0
 533 028c 0D21     		movs	r1, #13
 534 028e F868     		ldr	r0, [r7, #12]
 535 0290 FFF7FEFF 		bl	app_transition
 151:app_state_auto.c ****         }
 152:app_state_auto.c ****         return;
 536              		.loc 1 152 0
 537 0294 39E0     		b	.L41
 538              	.L26:
 539              	.LBE7:
 153:app_state_auto.c ****     }
 154:app_state_auto.c ****     
 155:app_state_auto.c ****     // AUTO_LOSS: hold and watch for centroids returning
 156:app_state_auto.c ****     if (ctx->state == AUTO_LOSS) {
 540              		.loc 1 156 0
 541 0296 FB68     		ldr	r3, [r7, #12]
ARM GAS  C:\Users\JENNEW~1\AppData\Local\Temp\ccfmLJ2w.s 			page 14


 542 0298 1B79     		ldrb	r3, [r3, #4]	@ zero_extendqisi2
 543 029a 0D2B     		cmp	r3, #13
 544 029c 1BD1     		bne	.L33
 545              	.LBB10:
 157:app_state_auto.c ****         payload_centroid_t c;
 158:app_state_auto.c ****         if (sbc_get_centroid(STREAM_COARSE, &c)) {
 546              		.loc 1 158 0
 547 029e 07F19403 		add	r3, r7, #148
 548 02a2 1946     		mov	r1, r3
 549 02a4 0020     		movs	r0, #0
 550 02a6 FFF7FEFF 		bl	sbc_get_centroid
 551 02aa 0346     		mov	r3, r0
 552 02ac 002B     		cmp	r3, #0
 553 02ae 2ED0     		beq	.L42
 159:app_state_auto.c ****             ctx->track_cx_last = c.cx;
 554              		.loc 1 159 0
 555 02b0 B7F99820 		ldrsh	r2, [r7, #152]
 556 02b4 FB68     		ldr	r3, [r7, #12]
 557 02b6 A3F85820 		strh	r2, [r3, #88]	@ movhi
 160:app_state_auto.c ****             ctx->track_cy_last = c.cy;
 558              		.loc 1 160 0
 559 02ba B7F99A20 		ldrsh	r2, [r7, #154]
 560 02be FB68     		ldr	r3, [r7, #12]
 561 02c0 A3F85A20 		strh	r2, [r3, #90]	@ movhi
 161:app_state_auto.c ****             UART_DEBUG_PutString("[AUTO_LOSS] centroid returned -> AUTO_TRACKING\r\n");
 562              		.loc 1 161 0
 563 02c4 1C48     		ldr	r0, .L44+36
 564 02c6 FFF7FEFF 		bl	UART_DEBUG_PutString
 162:app_state_auto.c ****             app_transition(ctx, AUTO_TRACKING);
 565              		.loc 1 162 0
 566 02ca 0C21     		movs	r1, #12
 567 02cc F868     		ldr	r0, [r7, #12]
 568 02ce FFF7FEFF 		bl	app_transition
 163:app_state_auto.c ****         }
 164:app_state_auto.c ****         return;
 569              		.loc 1 164 0
 570 02d2 00BF     		nop
 571 02d4 1BE0     		b	.L42
 572              	.L33:
 573              	.LBE10:
 165:app_state_auto.c ****     }
 166:app_state_auto.c ****     
 167:app_state_auto.c ****     // AUTO_NO_LOCK: auto flow re-slews; manual flow waits for user.
 168:app_state_auto.c ****     // TODO: WHat if no GPS set? We should go to AUTO_HOLD rather than GPS maybe
 169:app_state_auto.c ****     if (ctx->state == AUTO_NO_LOCK) {
 574              		.loc 1 169 0
 575 02d6 FB68     		ldr	r3, [r7, #12]
 576 02d8 1B79     		ldrb	r3, [r3, #4]	@ zero_extendqisi2
 577 02da 0E2B     		cmp	r3, #14
 578 02dc 31D1     		bne	.L7
 170:app_state_auto.c ****         if (ctx->auto_flow && ctx->gps_target_set) {
 579              		.loc 1 170 0
 580 02de FB68     		ldr	r3, [r7, #12]
 581 02e0 9B79     		ldrb	r3, [r3, #6]	@ zero_extendqisi2
 582 02e2 002B     		cmp	r3, #0
 583 02e4 2CD0     		beq	.L43
 584              		.loc 1 170 0 is_stmt 0 discriminator 1
ARM GAS  C:\Users\JENNEW~1\AppData\Local\Temp\ccfmLJ2w.s 			page 15


 585 02e6 FB68     		ldr	r3, [r7, #12]
 586 02e8 93F83430 		ldrb	r3, [r3, #52]	@ zero_extendqisi2
 587 02ec 002B     		cmp	r3, #0
 588 02ee 27D0     		beq	.L43
 171:app_state_auto.c ****             UART_DEBUG_PutString("[AUTO_NO_LOCK] auto -> AUTO_ACQ_GPS\r\n");
 589              		.loc 1 171 0 is_stmt 1
 590 02f0 1248     		ldr	r0, .L44+40
 591 02f2 FFF7FEFF 		bl	UART_DEBUG_PutString
 172:app_state_auto.c ****             app_transition(ctx, AUTO_ACQ_GPS);
 592              		.loc 1 172 0
 593 02f6 0A21     		movs	r1, #10
 594 02f8 F868     		ldr	r0, [r7, #12]
 595 02fa FFF7FEFF 		bl	app_transition
 173:app_state_auto.c ****         }
 174:app_state_auto.c ****         return;
 596              		.loc 1 174 0
 597 02fe 00BF     		nop
 598 0300 1EE0     		b	.L43
 599              	.L38:
 600              	.LBB11:
  85:app_state_auto.c ****     }
 601              		.loc 1 85 0
 602 0302 00BF     		nop
 603 0304 1DE0     		b	.L7
 604              	.L39:
 605              	.LBE11:
 606              	.LBB12:
 103:app_state_auto.c ****     }
 607              		.loc 1 103 0
 608 0306 00BF     		nop
 609 0308 1BE0     		b	.L7
 610              	.L41:
 611              	.LBE12:
 612              	.LBB13:
 152:app_state_auto.c ****     }
 613              		.loc 1 152 0
 614 030a 00BF     		nop
 615 030c 19E0     		b	.L7
 616              	.L42:
 617              	.LBE13:
 618              	.LBB14:
 164:app_state_auto.c ****     }
 619              		.loc 1 164 0
 620 030e 00BF     		nop
 621 0310 17E0     		b	.L7
 622              	.L45:
 623 0312 00BF     		.align	2
 624              	.L44:
 625 0314 00000000 		.word	g_tick_ms
 626 0318 CDCC4C3D 		.word	1028443341
 627 031c 00000000 		.word	.LC0
 628 0320 18000000 		.word	.LC1
 629 0324 40000000 		.word	.LC2
 630 0328 00000000 		.word	last_pt_ms.8132
 631 032c 00000000 		.word	tag.8134
 632 0330 6C000000 		.word	.LC3
 633 0334 A8000000 		.word	.LC4
ARM GAS  C:\Users\JENNEW~1\AppData\Local\Temp\ccfmLJ2w.s 			page 16


 634 0338 D8000000 		.word	.LC5
 635 033c 0C010000 		.word	.LC6
 636              	.L43:
 637              	.LBE14:
 638              		.loc 1 174 0
 639 0340 00BF     		nop
 640              	.L7:
 175:app_state_auto.c ****     }
 176:app_state_auto.c ****     
 177:app_state_auto.c **** }
 641              		.loc 1 177 0
 642 0342 D437     		adds	r7, r7, #212
 643              		.cfi_def_cfa_offset 20
 644 0344 BD46     		mov	sp, r7
 645              		.cfi_def_cfa_register 13
 646              		@ sp needed
 647 0346 F0BD     		pop	{r4, r5, r6, r7, pc}
 648              		.cfi_endproc
 649              	.LFE67:
 650              		.size	app_auto_tick, .-app_auto_tick
 651              		.section	.rodata
 652 0132 0000     		.align	2
 653              	.LC7:
 654 0134 0D0A5B41 		.ascii	"\015\012[AUTO_HOME] slewing to origin  e=exit\015\012"
 654      55544F5F 
 654      484F4D45 
 654      5D20736C 
 654      6577696E 
 655 015d 3E2000   		.ascii	"> \000"
 656              		.align	2
 657              	.LC8:
 658 0160 6E6F206F 		.ascii	"no origin set (press '[' first)\000"
 658      72696769 
 658      6E207365 
 658      74202870 
 658      72657373 
 659              		.align	2
 660              	.LC9:
 661 0180 6E6F2074 		.ascii	"no telemetry (home aborted)\000"
 661      656C656D 
 661      65747279 
 661      2028686F 
 661      6D652061 
 662              		.section	.text.entry_auto_home,"ax",%progbits
 663              		.align	2
 664              		.global	entry_auto_home
 665              		.thumb
 666              		.thumb_func
 667              		.type	entry_auto_home, %function
 668              	entry_auto_home:
 669              	.LFB68:
 178:app_state_auto.c **** 
 179:app_state_auto.c **** 
 180:app_state_auto.c **** // %==========================================================================%
 181:app_state_auto.c **** // %                              AUTO_HOME                                   %
 182:app_state_auto.c **** // %==========================================================================%
 183:app_state_auto.c **** void entry_auto_home(app_ctx_t *ctx)
ARM GAS  C:\Users\JENNEW~1\AppData\Local\Temp\ccfmLJ2w.s 			page 17


 184:app_state_auto.c **** {
 670              		.loc 1 184 0
 671              		.cfi_startproc
 672              		@ args = 0, pretend = 0, frame = 16
 673              		@ frame_needed = 1, uses_anonymous_args = 0
 674 0000 80B5     		push	{r7, lr}
 675              		.cfi_def_cfa_offset 8
 676              		.cfi_offset 7, -8
 677              		.cfi_offset 14, -4
 678 0002 84B0     		sub	sp, sp, #16
 679              		.cfi_def_cfa_offset 24
 680 0004 00AF     		add	r7, sp, #0
 681              		.cfi_def_cfa_register 7
 682 0006 7860     		str	r0, [r7, #4]
 185:app_state_auto.c ****     UART_DEBUG_PutString("\r\n[AUTO_HOME] slewing to origin  e=exit\r\n> ");
 683              		.loc 1 185 0
 684 0008 2448     		ldr	r0, .L51
 685 000a FFF7FEFF 		bl	UART_DEBUG_PutString
 186:app_state_auto.c ****     // TODO: Cross verify if this is handled by entry validator.
 187:app_state_auto.c ****     // Error check: Do we have a software origin set?
 188:app_state_auto.c ****     if (!ctx->origin_set) {
 686              		.loc 1 188 0
 687 000e 7B68     		ldr	r3, [r7, #4]
 688 0010 93F86430 		ldrb	r3, [r3, #100]	@ zero_extendqisi2
 689 0014 002B     		cmp	r3, #0
 690 0016 09D1     		bne	.L47
 189:app_state_auto.c ****         app_raise_error(ctx, SEV_USER, "no origin set (press '[' first)");
 691              		.loc 1 189 0
 692 0018 214A     		ldr	r2, .L51+4
 693 001a 0021     		movs	r1, #0
 694 001c 7868     		ldr	r0, [r7, #4]
 695 001e FFF7FEFF 		bl	app_raise_error
 190:app_state_auto.c ****         app_transition(ctx, STBY_HOLD);
 696              		.loc 1 190 0
 697 0022 0621     		movs	r1, #6
 698 0024 7868     		ldr	r0, [r7, #4]
 699 0026 FFF7FEFF 		bl	app_transition
 191:app_state_auto.c ****         return;
 700              		.loc 1 191 0
 701 002a 33E0     		b	.L46
 702              	.L47:
 192:app_state_auto.c ****     }
 193:app_state_auto.c ****     // Error check: Do we have attitude telemetry from gimbal?
 194:app_state_auto.c ****     float pan, tilt;
 195:app_state_auto.c ****     if (!gimbal_pan_tilt_deg(ctx, &pan, &tilt)) {
 703              		.loc 1 195 0
 704 002c 07F10802 		add	r2, r7, #8
 705 0030 07F10C03 		add	r3, r7, #12
 706 0034 1946     		mov	r1, r3
 707 0036 7868     		ldr	r0, [r7, #4]
 708 0038 FFF7FEFF 		bl	gimbal_pan_tilt_deg
 709 003c 0346     		mov	r3, r0
 710 003e 002B     		cmp	r3, #0
 711 0040 09D1     		bne	.L49
 196:app_state_auto.c ****         app_raise_error(ctx, SEV_USER, "no telemetry (home aborted)");
 712              		.loc 1 196 0
 713 0042 184A     		ldr	r2, .L51+8
ARM GAS  C:\Users\JENNEW~1\AppData\Local\Temp\ccfmLJ2w.s 			page 18


 714 0044 0021     		movs	r1, #0
 715 0046 7868     		ldr	r0, [r7, #4]
 716 0048 FFF7FEFF 		bl	app_raise_error
 197:app_state_auto.c ****         app_transition(ctx, STBY_HOLD);
 717              		.loc 1 197 0
 718 004c 0621     		movs	r1, #6
 719 004e 7868     		ldr	r0, [r7, #4]
 720 0050 FFF7FEFF 		bl	app_transition
 198:app_state_auto.c ****         return;
 721              		.loc 1 198 0
 722 0054 1EE0     		b	.L46
 723              	.L49:
 199:app_state_auto.c ****     }
 200:app_state_auto.c ****     ctx->gimbal_last_rx_ms = g_tick_ms;
 724              		.loc 1 200 0
 725 0056 144B     		ldr	r3, .L51+12
 726 0058 1A68     		ldr	r2, [r3]
 727 005a 7B68     		ldr	r3, [r7, #4]
 728 005c 1A61     		str	r2, [r3, #16]
 201:app_state_auto.c ****     ctx->nudge_base_pan_deg  = pan;  // Init nudge reference
 729              		.loc 1 201 0
 730 005e FA68     		ldr	r2, [r7, #12]	@ float
 731 0060 7B68     		ldr	r3, [r7, #4]
 732 0062 C3F89020 		str	r2, [r3, #144]	@ float
 202:app_state_auto.c ****     ctx->nudge_base_tilt_deg = tilt;
 733              		.loc 1 202 0
 734 0066 BA68     		ldr	r2, [r7, #8]	@ float
 735 0068 7B68     		ldr	r3, [r7, #4]
 736 006a C3F89420 		str	r2, [r3, #148]	@ float
 203:app_state_auto.c ****     ctx->tgt_pan_deg         = ctx->origin_pan_deg;  // TODO: Do we actualy use these??
 737              		.loc 1 203 0
 738 006e 7B68     		ldr	r3, [r7, #4]
 739 0070 DA6D     		ldr	r2, [r3, #92]	@ float
 740 0072 7B68     		ldr	r3, [r7, #4]
 741 0074 C3F89820 		str	r2, [r3, #152]	@ float
 204:app_state_auto.c ****     ctx->tgt_tilt_deg        = ctx->origin_tilt_deg;
 742              		.loc 1 204 0
 743 0078 7B68     		ldr	r3, [r7, #4]
 744 007a 1A6E     		ldr	r2, [r3, #96]	@ float
 745 007c 7B68     		ldr	r3, [r7, #4]
 746 007e C3F89C20 		str	r2, [r3, #156]	@ float
 205:app_state_auto.c ****     ctx->nudge_hold          = 1u;  // Why are we triggering a nudge?
 747              		.loc 1 205 0
 748 0082 7B68     		ldr	r3, [r7, #4]
 749 0084 0122     		movs	r2, #1
 750 0086 83F88820 		strb	r2, [r3, #136]
 206:app_state_auto.c ****     ctx->nudge_start_ms      = g_tick_ms;
 751              		.loc 1 206 0
 752 008a 074B     		ldr	r3, .L51+12
 753 008c 1A68     		ldr	r2, [r3]
 754 008e 7B68     		ldr	r3, [r7, #4]
 755 0090 C3F88C20 		str	r2, [r3, #140]
 756              	.L46:
 207:app_state_auto.c **** }
 757              		.loc 1 207 0
 758 0094 1037     		adds	r7, r7, #16
 759              		.cfi_def_cfa_offset 8
ARM GAS  C:\Users\JENNEW~1\AppData\Local\Temp\ccfmLJ2w.s 			page 19


 760 0096 BD46     		mov	sp, r7
 761              		.cfi_def_cfa_register 13
 762              		@ sp needed
 763 0098 80BD     		pop	{r7, pc}
 764              	.L52:
 765 009a 00BF     		.align	2
 766              	.L51:
 767 009c 34010000 		.word	.LC7
 768 00a0 60010000 		.word	.LC8
 769 00a4 80010000 		.word	.LC9
 770 00a8 00000000 		.word	g_tick_ms
 771              		.cfi_endproc
 772              	.LFE68:
 773              		.size	entry_auto_home, .-entry_auto_home
 774              		.section	.text.exit_auto_home,"ax",%progbits
 775              		.align	2
 776              		.global	exit_auto_home
 777              		.thumb
 778              		.thumb_func
 779              		.type	exit_auto_home, %function
 780              	exit_auto_home:
 781              	.LFB69:
 208:app_state_auto.c **** 
 209:app_state_auto.c **** void exit_auto_home(app_ctx_t *ctx)
 210:app_state_auto.c **** {
 782              		.loc 1 210 0
 783              		.cfi_startproc
 784              		@ args = 0, pretend = 0, frame = 8
 785              		@ frame_needed = 1, uses_anonymous_args = 0
 786 0000 80B5     		push	{r7, lr}
 787              		.cfi_def_cfa_offset 8
 788              		.cfi_offset 7, -8
 789              		.cfi_offset 14, -4
 790 0002 82B0     		sub	sp, sp, #8
 791              		.cfi_def_cfa_offset 16
 792 0004 00AF     		add	r7, sp, #0
 793              		.cfi_def_cfa_register 7
 794 0006 7860     		str	r0, [r7, #4]
 211:app_state_auto.c ****     // Clear any nudge hold
 212:app_state_auto.c ****     ctx->nudge_hold = 0u;
 795              		.loc 1 212 0
 796 0008 7B68     		ldr	r3, [r7, #4]
 797 000a 0022     		movs	r2, #0
 798 000c 83F88820 		strb	r2, [r3, #136]
 213:app_state_auto.c ****     // Flush centroid after slew.
 214:app_state_auto.c ****     sbc_discard_centroid(STREAM_COARSE);
 799              		.loc 1 214 0
 800 0010 0020     		movs	r0, #0
 801 0012 FFF7FEFF 		bl	sbc_discard_centroid
 215:app_state_auto.c ****     // Reset return stby flag to default
 216:app_state_auto.c ****     ctx->home_return_stby = 0u;
 802              		.loc 1 216 0
 803 0016 7B68     		ldr	r3, [r7, #4]
 804 0018 0022     		movs	r2, #0
 805 001a DA71     		strb	r2, [r3, #7]
 217:app_state_auto.c **** }
 806              		.loc 1 217 0
ARM GAS  C:\Users\JENNEW~1\AppData\Local\Temp\ccfmLJ2w.s 			page 20


 807 001c 00BF     		nop
 808 001e 0837     		adds	r7, r7, #8
 809              		.cfi_def_cfa_offset 8
 810 0020 BD46     		mov	sp, r7
 811              		.cfi_def_cfa_register 13
 812              		@ sp needed
 813 0022 80BD     		pop	{r7, pc}
 814              		.cfi_endproc
 815              	.LFE69:
 816              		.size	exit_auto_home, .-exit_auto_home
 817              		.section	.text.key_auto_home,"ax",%progbits
 818              		.align	2
 819              		.global	key_auto_home
 820              		.thumb
 821              		.thumb_func
 822              		.type	key_auto_home, %function
 823              	key_auto_home:
 824              	.LFB70:
 218:app_state_auto.c **** 
 219:app_state_auto.c **** uint8_t key_auto_home(app_ctx_t *ctx, char k)
 220:app_state_auto.c **** {
 825              		.loc 1 220 0
 826              		.cfi_startproc
 827              		@ args = 0, pretend = 0, frame = 8
 828              		@ frame_needed = 1, uses_anonymous_args = 0
 829 0000 80B5     		push	{r7, lr}
 830              		.cfi_def_cfa_offset 8
 831              		.cfi_offset 7, -8
 832              		.cfi_offset 14, -4
 833 0002 82B0     		sub	sp, sp, #8
 834              		.cfi_def_cfa_offset 16
 835 0004 00AF     		add	r7, sp, #0
 836              		.cfi_def_cfa_register 7
 837 0006 7860     		str	r0, [r7, #4]
 838 0008 0B46     		mov	r3, r1
 839 000a FB70     		strb	r3, [r7, #3]
 221:app_state_auto.c ****     // Exit home with e
 222:app_state_auto.c ****     switch (k) {
 840              		.loc 1 222 0
 841 000c FB78     		ldrb	r3, [r7, #3]	@ zero_extendqisi2
 842 000e 652B     		cmp	r3, #101
 843 0010 05D1     		bne	.L58
 223:app_state_auto.c ****         case 'e': app_transition(ctx, STBY_HOLD); return 1;
 844              		.loc 1 223 0
 845 0012 0621     		movs	r1, #6
 846 0014 7868     		ldr	r0, [r7, #4]
 847 0016 FFF7FEFF 		bl	app_transition
 848 001a 0123     		movs	r3, #1
 849 001c 00E0     		b	.L57
 850              	.L58:
 224:app_state_auto.c ****         default:  return 0;
 851              		.loc 1 224 0
 852 001e 0023     		movs	r3, #0
 853              	.L57:
 225:app_state_auto.c ****     }
 226:app_state_auto.c **** }
 854              		.loc 1 226 0
ARM GAS  C:\Users\JENNEW~1\AppData\Local\Temp\ccfmLJ2w.s 			page 21


 855 0020 1846     		mov	r0, r3
 856 0022 0837     		adds	r7, r7, #8
 857              		.cfi_def_cfa_offset 8
 858 0024 BD46     		mov	sp, r7
 859              		.cfi_def_cfa_register 13
 860              		@ sp needed
 861 0026 80BD     		pop	{r7, pc}
 862              		.cfi_endproc
 863              	.LFE70:
 864              		.size	key_auto_home, .-key_auto_home
 865              		.global	__aeabi_fdiv
 866              		.section	.text.build_auto_home,"ax",%progbits
 867              		.align	2
 868              		.global	build_auto_home
 869              		.thumb
 870              		.thumb_func
 871              		.type	build_auto_home, %function
 872              	build_auto_home:
 873              	.LFB71:
 227:app_state_auto.c **** 
 228:app_state_auto.c **** void build_auto_home(const app_ctx_t *ctx, hamfly_control_t *out)
 229:app_state_auto.c **** {
 874              		.loc 1 229 0
 875              		.cfi_startproc
 876              		@ args = 0, pretend = 0, frame = 8
 877              		@ frame_needed = 1, uses_anonymous_args = 0
 878 0000 80B5     		push	{r7, lr}
 879              		.cfi_def_cfa_offset 8
 880              		.cfi_offset 7, -8
 881              		.cfi_offset 14, -4
 882 0002 82B0     		sub	sp, sp, #8
 883              		.cfi_def_cfa_offset 16
 884 0004 00AF     		add	r7, sp, #0
 885              		.cfi_def_cfa_register 7
 886 0006 7860     		str	r0, [r7, #4]
 887 0008 3960     		str	r1, [r7]
 230:app_state_auto.c ****     // Use absolute mode to point to saftware origin.
 231:app_state_auto.c ****     // Software origin defaults to gimbal origin.
 232:app_state_auto.c ****     out->kill      = 0u;
 888              		.loc 1 232 0
 889 000a 3B68     		ldr	r3, [r7]
 890 000c 0022     		movs	r2, #0
 891 000e 1A74     		strb	r2, [r3, #16]
 233:app_state_auto.c ****     out->roll_mode = HAMFLY_DEFER;
 892              		.loc 1 233 0
 893 0010 3B68     		ldr	r3, [r7]
 894 0012 0022     		movs	r2, #0
 895 0014 9A73     		strb	r2, [r3, #14]
 234:app_state_auto.c ****     out->roll      = 0.0f;
 896              		.loc 1 234 0
 897 0016 3B68     		ldr	r3, [r7]
 898 0018 4FF00002 		mov	r2, #0
 899 001c 9A60     		str	r2, [r3, #8]	@ float
 235:app_state_auto.c ****     out->pan_mode  = out->tilt_mode = HAMFLY_ABSOLUTE;
 900              		.loc 1 235 0
 901 001e 3B68     		ldr	r3, [r7]
 902 0020 0222     		movs	r2, #2
ARM GAS  C:\Users\JENNEW~1\AppData\Local\Temp\ccfmLJ2w.s 			page 22


 903 0022 5A73     		strb	r2, [r3, #13]
 904 0024 3B68     		ldr	r3, [r7]
 905 0026 5A7B     		ldrb	r2, [r3, #13]	@ zero_extendqisi2
 906 0028 3B68     		ldr	r3, [r7]
 907 002a 1A73     		strb	r2, [r3, #12]
 236:app_state_auto.c ****     out->pan  = DEG_TO_UNIT(ctx->tgt_pan_deg - ctx->nudge_base_pan_deg);
 908              		.loc 1 236 0
 909 002c 7B68     		ldr	r3, [r7, #4]
 910 002e D3F89820 		ldr	r2, [r3, #152]	@ float
 911 0032 7B68     		ldr	r3, [r7, #4]
 912 0034 D3F89030 		ldr	r3, [r3, #144]	@ float
 913 0038 1946     		mov	r1, r3
 914 003a 1046     		mov	r0, r2
 915 003c FFF7FEFF 		bl	__aeabi_fsub
 916 0040 0346     		mov	r3, r0
 917 0042 0B49     		ldr	r1, .L60
 918 0044 1846     		mov	r0, r3
 919 0046 FFF7FEFF 		bl	__aeabi_fdiv
 920 004a 0346     		mov	r3, r0
 921 004c 1A46     		mov	r2, r3
 922 004e 3B68     		ldr	r3, [r7]
 923 0050 1A60     		str	r2, [r3]	@ float
 237:app_state_auto.c ****     out->tilt = DEG_TO_UNIT(ctx->tgt_tilt_deg);
 924              		.loc 1 237 0
 925 0052 7B68     		ldr	r3, [r7, #4]
 926 0054 D3F89C30 		ldr	r3, [r3, #156]	@ float
 927 0058 0549     		ldr	r1, .L60
 928 005a 1846     		mov	r0, r3
 929 005c FFF7FEFF 		bl	__aeabi_fdiv
 930 0060 0346     		mov	r3, r0
 931 0062 1A46     		mov	r2, r3
 932 0064 3B68     		ldr	r3, [r7]
 933 0066 5A60     		str	r2, [r3, #4]	@ float
 238:app_state_auto.c **** }
 934              		.loc 1 238 0
 935 0068 00BF     		nop
 936 006a 0837     		adds	r7, r7, #8
 937              		.cfi_def_cfa_offset 8
 938 006c BD46     		mov	sp, r7
 939              		.cfi_def_cfa_register 13
 940              		@ sp needed
 941 006e 80BD     		pop	{r7, pc}
 942              	.L61:
 943              		.align	2
 944              	.L60:
 945 0070 00003443 		.word	1127481344
 946              		.cfi_endproc
 947              	.LFE71:
 948              		.size	build_auto_home, .-build_auto_home
 949              		.section	.rodata
 950              		.align	2
 951              	.LC10:
 952 019c 0D0A5B41 		.ascii	"\015\012[AUTO_HOLD] holding, watching for centroids"
 952      55544F5F 
 952      484F4C44 
 952      5D20686F 
 952      6C64696E 
ARM GAS  C:\Users\JENNEW~1\AppData\Local\Temp\ccfmLJ2w.s 			page 23


 953 01c9 0D0A3E20 		.ascii	"\015\012> \000"
 953      00
 954              		.section	.text.entry_auto_hold,"ax",%progbits
 955              		.align	2
 956              		.global	entry_auto_hold
 957              		.thumb
 958              		.thumb_func
 959              		.type	entry_auto_hold, %function
 960              	entry_auto_hold:
 961              	.LFB72:
 239:app_state_auto.c **** 
 240:app_state_auto.c **** // %==========================================================================%
 241:app_state_auto.c **** // %                              AUTO_HOLD                                   %
 242:app_state_auto.c **** // %==========================================================================%
 243:app_state_auto.c **** void entry_auto_hold(app_ctx_t *ctx)
 244:app_state_auto.c **** {
 962              		.loc 1 244 0
 963              		.cfi_startproc
 964              		@ args = 0, pretend = 0, frame = 8
 965              		@ frame_needed = 1, uses_anonymous_args = 0
 966 0000 80B5     		push	{r7, lr}
 967              		.cfi_def_cfa_offset 8
 968              		.cfi_offset 7, -8
 969              		.cfi_offset 14, -4
 970 0002 82B0     		sub	sp, sp, #8
 971              		.cfi_def_cfa_offset 16
 972 0004 00AF     		add	r7, sp, #0
 973              		.cfi_def_cfa_register 7
 974 0006 7860     		str	r0, [r7, #4]
 245:app_state_auto.c ****     // Start timer for how long we are in hold
 246:app_state_auto.c ****     ctx->auto_hold_entry_ms = g_tick_ms;
 975              		.loc 1 246 0
 976 0008 054B     		ldr	r3, .L63
 977 000a 1A68     		ldr	r2, [r3]
 978 000c 7B68     		ldr	r3, [r7, #4]
 979 000e 9A60     		str	r2, [r3, #8]
 247:app_state_auto.c ****     UART_DEBUG_PutString("\r\n[AUTO_HOLD] holding, watching for centroids\r\n> ");
 980              		.loc 1 247 0
 981 0010 0448     		ldr	r0, .L63+4
 982 0012 FFF7FEFF 		bl	UART_DEBUG_PutString
 248:app_state_auto.c **** }
 983              		.loc 1 248 0
 984 0016 00BF     		nop
 985 0018 0837     		adds	r7, r7, #8
 986              		.cfi_def_cfa_offset 8
 987 001a BD46     		mov	sp, r7
 988              		.cfi_def_cfa_register 13
 989              		@ sp needed
 990 001c 80BD     		pop	{r7, pc}
 991              	.L64:
 992 001e 00BF     		.align	2
 993              	.L63:
 994 0020 00000000 		.word	g_tick_ms
 995 0024 9C010000 		.word	.LC10
 996              		.cfi_endproc
 997              	.LFE72:
 998              		.size	entry_auto_hold, .-entry_auto_hold
ARM GAS  C:\Users\JENNEW~1\AppData\Local\Temp\ccfmLJ2w.s 			page 24


 999              		.section	.text.key_auto_hold,"ax",%progbits
 1000              		.align	2
 1001              		.global	key_auto_hold
 1002              		.thumb
 1003              		.thumb_func
 1004              		.type	key_auto_hold, %function
 1005              	key_auto_hold:
 1006              	.LFB73:
 249:app_state_auto.c **** 
 250:app_state_auto.c **** uint8_t key_auto_hold(app_ctx_t *ctx, char k)
 251:app_state_auto.c **** {
 1007              		.loc 1 251 0
 1008              		.cfi_startproc
 1009              		@ args = 0, pretend = 0, frame = 8
 1010              		@ frame_needed = 1, uses_anonymous_args = 0
 1011 0000 80B5     		push	{r7, lr}
 1012              		.cfi_def_cfa_offset 8
 1013              		.cfi_offset 7, -8
 1014              		.cfi_offset 14, -4
 1015 0002 82B0     		sub	sp, sp, #8
 1016              		.cfi_def_cfa_offset 16
 1017 0004 00AF     		add	r7, sp, #0
 1018              		.cfi_def_cfa_register 7
 1019 0006 7860     		str	r0, [r7, #4]
 1020 0008 0B46     		mov	r3, r1
 1021 000a FB70     		strb	r3, [r7, #3]
 252:app_state_auto.c ****     // Check if we are handling a nudge first
 253:app_state_auto.c ****     if (handle_nudge_key(ctx, k)) return 1;
 1022              		.loc 1 253 0
 1023 000c FB78     		ldrb	r3, [r7, #3]	@ zero_extendqisi2
 1024 000e 1946     		mov	r1, r3
 1025 0010 7868     		ldr	r0, [r7, #4]
 1026 0012 FFF7FEFF 		bl	handle_nudge_key
 1027 0016 0346     		mov	r3, r0
 1028 0018 002B     		cmp	r3, #0
 1029 001a 01D0     		beq	.L66
 1030              		.loc 1 253 0 is_stmt 0 discriminator 1
 1031 001c 0123     		movs	r3, #1
 1032 001e 00E0     		b	.L67
 1033              	.L66:
 254:app_state_auto.c ****     // Serial debug can exit
 255:app_state_auto.c ****     switch (k) {
 256:app_state_auto.c ****         default:  return 0;
 1034              		.loc 1 256 0 is_stmt 1
 1035 0020 0023     		movs	r3, #0
 1036              	.L67:
 257:app_state_auto.c ****     }
 258:app_state_auto.c **** }
 1037              		.loc 1 258 0
 1038 0022 1846     		mov	r0, r3
 1039 0024 0837     		adds	r7, r7, #8
 1040              		.cfi_def_cfa_offset 8
 1041 0026 BD46     		mov	sp, r7
 1042              		.cfi_def_cfa_register 13
 1043              		@ sp needed
 1044 0028 80BD     		pop	{r7, pc}
 1045              		.cfi_endproc
ARM GAS  C:\Users\JENNEW~1\AppData\Local\Temp\ccfmLJ2w.s 			page 25


 1046              	.LFE73:
 1047              		.size	key_auto_hold, .-key_auto_hold
 1048              		.global	__aeabi_fmul
 1049              		.global	__aeabi_fadd
 1050 002a 00BF     		.section	.text.gps_bearing_deg,"ax",%progbits
 1051              		.align	2
 1052              		.thumb
 1053              		.thumb_func
 1054              		.type	gps_bearing_deg, %function
 1055              	gps_bearing_deg:
 1056              	.LFB74:
 259:app_state_auto.c **** 
 260:app_state_auto.c **** // %==========================================================================%
 261:app_state_auto.c **** // %                        AUTO_ACQ_GPS + GPS math                           %
 262:app_state_auto.c **** // %==========================================================================%
 263:app_state_auto.c **** // Note: Keep in mind PSoC 5 LP has no FPU! This means we should avoid
 264:app_state_auto.c **** // floating-point arithmatic as much as possible. But this is not a speed 
 265:app_state_auto.c **** // concern yet so we will keep simulated floating point.
 266:app_state_auto.c **** 
 267:app_state_auto.c **** // TODO: The GPS math stub doesnt need to live here. HamflyAPI should introduce
 268:app_state_auto.c **** // a point at coordinate like function which takes in a target coordinate, and
 269:app_state_auto.c **** // uses its gps reading (if available) to point at another coordinate in user
 270:app_state_auto.c **** // selectable abs or majestic mode. THis would offload the bulk here to the API
 271:app_state_auto.c **** // at the expense of being blind to FP or intiger math.
 272:app_state_auto.c **** 
 273:app_state_auto.c **** // TODO: Currently we use bearing/elevation geometry, but we should move to
 274:app_state_auto.c **** // ECEF Vector math, however we first need to validate IMU data from the gimble
 275:app_state_auto.c **** // or get an external IMU.
 276:app_state_auto.c **** static float gps_bearing_deg(float lat1, float lon1, float lat2, float lon2)
 277:app_state_auto.c **** {
 1057              		.loc 1 277 0
 1058              		.cfi_startproc
 1059              		@ args = 0, pretend = 0, frame = 40
 1060              		@ frame_needed = 1, uses_anonymous_args = 0
 1061 0000 B0B5     		push	{r4, r5, r7, lr}
 1062              		.cfi_def_cfa_offset 16
 1063              		.cfi_offset 4, -16
 1064              		.cfi_offset 5, -12
 1065              		.cfi_offset 7, -8
 1066              		.cfi_offset 14, -4
 1067 0002 8AB0     		sub	sp, sp, #40
 1068              		.cfi_def_cfa_offset 56
 1069 0004 00AF     		add	r7, sp, #0
 1070              		.cfi_def_cfa_register 7
 1071 0006 F860     		str	r0, [r7, #12]	@ float
 1072 0008 B960     		str	r1, [r7, #8]	@ float
 1073 000a 7A60     		str	r2, [r7, #4]	@ float
 1074 000c 3B60     		str	r3, [r7]	@ float
 278:app_state_auto.c ****     // Calculates bearing between two points in degrees.
 279:app_state_auto.c ****     float la1 = lat1 * DEG_TO_RAD, la2 = lat2 * DEG_TO_RAD;
 1075              		.loc 1 279 0
 1076 000e 3749     		ldr	r1, .L73
 1077 0010 F868     		ldr	r0, [r7, #12]	@ float
 1078 0012 FFF7FEFF 		bl	__aeabi_fmul
 1079 0016 0346     		mov	r3, r0
 1080 0018 3B62     		str	r3, [r7, #32]	@ float
 1081 001a 3449     		ldr	r1, .L73
ARM GAS  C:\Users\JENNEW~1\AppData\Local\Temp\ccfmLJ2w.s 			page 26


 1082 001c 7868     		ldr	r0, [r7, #4]	@ float
 1083 001e FFF7FEFF 		bl	__aeabi_fmul
 1084 0022 0346     		mov	r3, r0
 1085 0024 FB61     		str	r3, [r7, #28]	@ float
 280:app_state_auto.c ****     float dlo = (lon2 - lon1) * DEG_TO_RAD;
 1086              		.loc 1 280 0
 1087 0026 B968     		ldr	r1, [r7, #8]	@ float
 1088 0028 3868     		ldr	r0, [r7]	@ float
 1089 002a FFF7FEFF 		bl	__aeabi_fsub
 1090 002e 0346     		mov	r3, r0
 1091 0030 2E49     		ldr	r1, .L73
 1092 0032 1846     		mov	r0, r3
 1093 0034 FFF7FEFF 		bl	__aeabi_fmul
 1094 0038 0346     		mov	r3, r0
 1095 003a BB61     		str	r3, [r7, #24]	@ float
 281:app_state_auto.c ****     float x   = sinf(dlo) * cosf(la2);
 1096              		.loc 1 281 0
 1097 003c B869     		ldr	r0, [r7, #24]	@ float
 1098 003e FFF7FEFF 		bl	sinf
 1099 0042 0446     		mov	r4, r0
 1100 0044 F869     		ldr	r0, [r7, #28]	@ float
 1101 0046 FFF7FEFF 		bl	cosf
 1102 004a 0346     		mov	r3, r0
 1103 004c 1946     		mov	r1, r3
 1104 004e 2046     		mov	r0, r4
 1105 0050 FFF7FEFF 		bl	__aeabi_fmul
 1106 0054 0346     		mov	r3, r0
 1107 0056 7B61     		str	r3, [r7, #20]	@ float
 282:app_state_auto.c ****     float y   = cosf(la1) * sinf(la2) - sinf(la1) * cosf(la2) * cosf(dlo);
 1108              		.loc 1 282 0
 1109 0058 386A     		ldr	r0, [r7, #32]	@ float
 1110 005a FFF7FEFF 		bl	cosf
 1111 005e 0446     		mov	r4, r0
 1112 0060 F869     		ldr	r0, [r7, #28]	@ float
 1113 0062 FFF7FEFF 		bl	sinf
 1114 0066 0346     		mov	r3, r0
 1115 0068 1946     		mov	r1, r3
 1116 006a 2046     		mov	r0, r4
 1117 006c FFF7FEFF 		bl	__aeabi_fmul
 1118 0070 0346     		mov	r3, r0
 1119 0072 1C46     		mov	r4, r3
 1120 0074 386A     		ldr	r0, [r7, #32]	@ float
 1121 0076 FFF7FEFF 		bl	sinf
 1122 007a 0546     		mov	r5, r0
 1123 007c F869     		ldr	r0, [r7, #28]	@ float
 1124 007e FFF7FEFF 		bl	cosf
 1125 0082 0346     		mov	r3, r0
 1126 0084 1946     		mov	r1, r3
 1127 0086 2846     		mov	r0, r5
 1128 0088 FFF7FEFF 		bl	__aeabi_fmul
 1129 008c 0346     		mov	r3, r0
 1130 008e 1D46     		mov	r5, r3
 1131 0090 B869     		ldr	r0, [r7, #24]	@ float
 1132 0092 FFF7FEFF 		bl	cosf
 1133 0096 0346     		mov	r3, r0
 1134 0098 1946     		mov	r1, r3
 1135 009a 2846     		mov	r0, r5
ARM GAS  C:\Users\JENNEW~1\AppData\Local\Temp\ccfmLJ2w.s 			page 27


 1136 009c FFF7FEFF 		bl	__aeabi_fmul
 1137 00a0 0346     		mov	r3, r0
 1138 00a2 1946     		mov	r1, r3
 1139 00a4 2046     		mov	r0, r4
 1140 00a6 FFF7FEFF 		bl	__aeabi_fsub
 1141 00aa 0346     		mov	r3, r0
 1142 00ac 3B61     		str	r3, [r7, #16]	@ float
 283:app_state_auto.c ****     float b   = atan2f(x, y) * RAD_TO_DEG;
 1143              		.loc 1 283 0
 1144 00ae 3969     		ldr	r1, [r7, #16]	@ float
 1145 00b0 7869     		ldr	r0, [r7, #20]	@ float
 1146 00b2 FFF7FEFF 		bl	atan2f
 1147 00b6 0346     		mov	r3, r0
 1148 00b8 0D49     		ldr	r1, .L73+4
 1149 00ba 1846     		mov	r0, r3
 1150 00bc FFF7FEFF 		bl	__aeabi_fmul
 1151 00c0 0346     		mov	r3, r0
 1152 00c2 7B62     		str	r3, [r7, #36]	@ float
 284:app_state_auto.c ****     if (b < 0.0f) b += 360.0f;
 1153              		.loc 1 284 0
 1154 00c4 4FF00001 		mov	r1, #0
 1155 00c8 786A     		ldr	r0, [r7, #36]	@ float
 1156 00ca FFF7FEFF 		bl	__aeabi_fcmplt
 1157 00ce 0346     		mov	r3, r0
 1158 00d0 002B     		cmp	r3, #0
 1159 00d2 05D0     		beq	.L69
 1160              		.loc 1 284 0 is_stmt 0 discriminator 1
 1161 00d4 0749     		ldr	r1, .L73+8
 1162 00d6 786A     		ldr	r0, [r7, #36]	@ float
 1163 00d8 FFF7FEFF 		bl	__aeabi_fadd
 1164 00dc 0346     		mov	r3, r0
 1165 00de 7B62     		str	r3, [r7, #36]	@ float
 1166              	.L69:
 285:app_state_auto.c ****     return b;  // 0 = North, clockwise
 1167              		.loc 1 285 0 is_stmt 1
 1168 00e0 7B6A     		ldr	r3, [r7, #36]	@ float
 286:app_state_auto.c **** }
 1169              		.loc 1 286 0
 1170 00e2 1846     		mov	r0, r3
 1171 00e4 2837     		adds	r7, r7, #40
 1172              		.cfi_def_cfa_offset 16
 1173 00e6 BD46     		mov	sp, r7
 1174              		.cfi_def_cfa_register 13
 1175              		@ sp needed
 1176 00e8 B0BD     		pop	{r4, r5, r7, pc}
 1177              	.L74:
 1178 00ea 00BF     		.align	2
 1179              	.L73:
 1180 00ec 98F98E3C 		.word	1016002968
 1181 00f0 E62E6542 		.word	1113927398
 1182 00f4 0000B443 		.word	1135869952
 1183              		.cfi_endproc
 1184              	.LFE74:
 1185              		.size	gps_bearing_deg, .-gps_bearing_deg
 1186              		.section	.text.gps_elev_deg,"ax",%progbits
 1187              		.align	2
 1188              		.thumb
ARM GAS  C:\Users\JENNEW~1\AppData\Local\Temp\ccfmLJ2w.s 			page 28


 1189              		.thumb_func
 1190              		.type	gps_elev_deg, %function
 1191              	gps_elev_deg:
 1192              	.LFB75:
 287:app_state_auto.c **** static float gps_elev_deg(float lat1, float lon1, float alt1_m,
 288:app_state_auto.c ****                           float lat2, float lon2, float alt2_m)
 289:app_state_auto.c **** {
 1193              		.loc 1 289 0
 1194              		.cfi_startproc
 1195              		@ args = 8, pretend = 0, frame = 40
 1196              		@ frame_needed = 1, uses_anonymous_args = 0
 1197 0000 B0B5     		push	{r4, r5, r7, lr}
 1198              		.cfi_def_cfa_offset 16
 1199              		.cfi_offset 4, -16
 1200              		.cfi_offset 5, -12
 1201              		.cfi_offset 7, -8
 1202              		.cfi_offset 14, -4
 1203 0002 8AB0     		sub	sp, sp, #40
 1204              		.cfi_def_cfa_offset 56
 1205 0004 00AF     		add	r7, sp, #0
 1206              		.cfi_def_cfa_register 7
 1207 0006 F860     		str	r0, [r7, #12]	@ float
 1208 0008 B960     		str	r1, [r7, #8]	@ float
 1209 000a 7A60     		str	r2, [r7, #4]	@ float
 1210 000c 3B60     		str	r3, [r7]	@ float
 290:app_state_auto.c ****     // COmputes elevation angle between two points in degrees.
 291:app_state_auto.c ****     float la1 = lat1 * DEG_TO_RAD, la2 = lat2 * DEG_TO_RAD;
 1211              		.loc 1 291 0
 1212 000e 5049     		ldr	r1, .L80
 1213 0010 F868     		ldr	r0, [r7, #12]	@ float
 1214 0012 FFF7FEFF 		bl	__aeabi_fmul
 1215 0016 0346     		mov	r3, r0
 1216 0018 3B62     		str	r3, [r7, #32]	@ float
 1217 001a 4D49     		ldr	r1, .L80
 1218 001c 3868     		ldr	r0, [r7]	@ float
 1219 001e FFF7FEFF 		bl	__aeabi_fmul
 1220 0022 0346     		mov	r3, r0
 1221 0024 FB61     		str	r3, [r7, #28]	@ float
 292:app_state_auto.c ****     float dlo = (lon2 - lon1) * DEG_TO_RAD;
 1222              		.loc 1 292 0
 1223 0026 B968     		ldr	r1, [r7, #8]	@ float
 1224 0028 B86B     		ldr	r0, [r7, #56]	@ float
 1225 002a FFF7FEFF 		bl	__aeabi_fsub
 1226 002e 0346     		mov	r3, r0
 1227 0030 4749     		ldr	r1, .L80
 1228 0032 1846     		mov	r0, r3
 1229 0034 FFF7FEFF 		bl	__aeabi_fmul
 1230 0038 0346     		mov	r3, r0
 1231 003a BB61     		str	r3, [r7, #24]	@ float
 293:app_state_auto.c ****     float dla = la2 - la1;
 1232              		.loc 1 293 0
 1233 003c 396A     		ldr	r1, [r7, #32]	@ float
 1234 003e F869     		ldr	r0, [r7, #28]	@ float
 1235 0040 FFF7FEFF 		bl	__aeabi_fsub
 1236 0044 0346     		mov	r3, r0
 1237 0046 7B61     		str	r3, [r7, #20]	@ float
 294:app_state_auto.c ****     float a   = sinf(dla * 0.5f) * sinf(dla * 0.5f)
ARM GAS  C:\Users\JENNEW~1\AppData\Local\Temp\ccfmLJ2w.s 			page 29


 1238              		.loc 1 294 0
 1239 0048 4FF07C51 		mov	r1, #1056964608
 1240 004c 7869     		ldr	r0, [r7, #20]	@ float
 1241 004e FFF7FEFF 		bl	__aeabi_fmul
 1242 0052 0346     		mov	r3, r0
 1243 0054 1846     		mov	r0, r3
 1244 0056 FFF7FEFF 		bl	sinf
 1245 005a 0446     		mov	r4, r0
 1246 005c 4FF07C51 		mov	r1, #1056964608
 1247 0060 7869     		ldr	r0, [r7, #20]	@ float
 1248 0062 FFF7FEFF 		bl	__aeabi_fmul
 1249 0066 0346     		mov	r3, r0
 1250 0068 1846     		mov	r0, r3
 1251 006a FFF7FEFF 		bl	sinf
 1252 006e 0346     		mov	r3, r0
 1253 0070 1946     		mov	r1, r3
 1254 0072 2046     		mov	r0, r4
 1255 0074 FFF7FEFF 		bl	__aeabi_fmul
 1256 0078 0346     		mov	r3, r0
 1257 007a 1C46     		mov	r4, r3
 295:app_state_auto.c ****               + cosf(la1) * cosf(la2) * sinf(dlo * 0.5f) * sinf(dlo * 0.5f);
 1258              		.loc 1 295 0
 1259 007c 386A     		ldr	r0, [r7, #32]	@ float
 1260 007e FFF7FEFF 		bl	cosf
 1261 0082 0546     		mov	r5, r0
 1262 0084 F869     		ldr	r0, [r7, #28]	@ float
 1263 0086 FFF7FEFF 		bl	cosf
 1264 008a 0346     		mov	r3, r0
 1265 008c 1946     		mov	r1, r3
 1266 008e 2846     		mov	r0, r5
 1267 0090 FFF7FEFF 		bl	__aeabi_fmul
 1268 0094 0346     		mov	r3, r0
 1269 0096 1D46     		mov	r5, r3
 1270 0098 4FF07C51 		mov	r1, #1056964608
 1271 009c B869     		ldr	r0, [r7, #24]	@ float
 1272 009e FFF7FEFF 		bl	__aeabi_fmul
 1273 00a2 0346     		mov	r3, r0
 1274 00a4 1846     		mov	r0, r3
 1275 00a6 FFF7FEFF 		bl	sinf
 1276 00aa 0346     		mov	r3, r0
 1277 00ac 1946     		mov	r1, r3
 1278 00ae 2846     		mov	r0, r5
 1279 00b0 FFF7FEFF 		bl	__aeabi_fmul
 1280 00b4 0346     		mov	r3, r0
 1281 00b6 1D46     		mov	r5, r3
 1282 00b8 4FF07C51 		mov	r1, #1056964608
 1283 00bc B869     		ldr	r0, [r7, #24]	@ float
 1284 00be FFF7FEFF 		bl	__aeabi_fmul
 1285 00c2 0346     		mov	r3, r0
 1286 00c4 1846     		mov	r0, r3
 1287 00c6 FFF7FEFF 		bl	sinf
 1288 00ca 0346     		mov	r3, r0
 1289 00cc 1946     		mov	r1, r3
 1290 00ce 2846     		mov	r0, r5
 1291 00d0 FFF7FEFF 		bl	__aeabi_fmul
 1292 00d4 0346     		mov	r3, r0
 294:app_state_auto.c ****     float a   = sinf(dla * 0.5f) * sinf(dla * 0.5f)
ARM GAS  C:\Users\JENNEW~1\AppData\Local\Temp\ccfmLJ2w.s 			page 30


 1293              		.loc 1 294 0
 1294 00d6 1946     		mov	r1, r3
 1295 00d8 2046     		mov	r0, r4
 1296 00da FFF7FEFF 		bl	__aeabi_fadd
 1297 00de 0346     		mov	r3, r0
 1298 00e0 3B61     		str	r3, [r7, #16]	@ float
 296:app_state_auto.c ****     float dist_m = 2.0f * GPS_EARTH_R_M * atan2f(sqrtf(a), sqrtf(1.0f - a));
 1299              		.loc 1 296 0
 1300 00e2 3869     		ldr	r0, [r7, #16]	@ float
 1301 00e4 FFF7FEFF 		bl	sqrtf
 1302 00e8 0446     		mov	r4, r0
 1303 00ea 3969     		ldr	r1, [r7, #16]	@ float
 1304 00ec 4FF07E50 		mov	r0, #1065353216
 1305 00f0 FFF7FEFF 		bl	__aeabi_fsub
 1306 00f4 0346     		mov	r3, r0
 1307 00f6 1846     		mov	r0, r3
 1308 00f8 FFF7FEFF 		bl	sqrtf
 1309 00fc 0346     		mov	r3, r0
 1310 00fe 1946     		mov	r1, r3
 1311 0100 2046     		mov	r0, r4
 1312 0102 FFF7FEFF 		bl	atan2f
 1313 0106 0346     		mov	r3, r0
 1314 0108 1249     		ldr	r1, .L80+4
 1315 010a 1846     		mov	r0, r3
 1316 010c FFF7FEFF 		bl	__aeabi_fmul
 1317 0110 0346     		mov	r3, r0
 1318 0112 7B62     		str	r3, [r7, #36]	@ float
 297:app_state_auto.c ****     if (dist_m < 1.0f) dist_m = 1.0f;  // guard div/0 at zero range
 1319              		.loc 1 297 0
 1320 0114 4FF07E51 		mov	r1, #1065353216
 1321 0118 786A     		ldr	r0, [r7, #36]	@ float
 1322 011a FFF7FEFF 		bl	__aeabi_fcmplt
 1323 011e 0346     		mov	r3, r0
 1324 0120 002B     		cmp	r3, #0
 1325 0122 02D0     		beq	.L76
 1326              		.loc 1 297 0 is_stmt 0 discriminator 1
 1327 0124 4FF07E53 		mov	r3, #1065353216
 1328 0128 7B62     		str	r3, [r7, #36]	@ float
 1329              	.L76:
 298:app_state_auto.c ****     return atan2f(alt2_m - alt1_m, dist_m) * RAD_TO_DEG;
 1330              		.loc 1 298 0 is_stmt 1
 1331 012a 7968     		ldr	r1, [r7, #4]	@ float
 1332 012c F86B     		ldr	r0, [r7, #60]	@ float
 1333 012e FFF7FEFF 		bl	__aeabi_fsub
 1334 0132 0346     		mov	r3, r0
 1335 0134 796A     		ldr	r1, [r7, #36]	@ float
 1336 0136 1846     		mov	r0, r3
 1337 0138 FFF7FEFF 		bl	atan2f
 1338 013c 0346     		mov	r3, r0
 1339 013e 0649     		ldr	r1, .L80+8
 1340 0140 1846     		mov	r0, r3
 1341 0142 FFF7FEFF 		bl	__aeabi_fmul
 1342 0146 0346     		mov	r3, r0
 299:app_state_auto.c **** }
 1343              		.loc 1 299 0
 1344 0148 1846     		mov	r0, r3
 1345 014a 2837     		adds	r7, r7, #40
ARM GAS  C:\Users\JENNEW~1\AppData\Local\Temp\ccfmLJ2w.s 			page 31


 1346              		.cfi_def_cfa_offset 16
 1347 014c BD46     		mov	sp, r7
 1348              		.cfi_def_cfa_register 13
 1349              		@ sp needed
 1350 014e B0BD     		pop	{r4, r5, r7, pc}
 1351              	.L81:
 1352              		.align	2
 1353              	.L80:
 1354 0150 98F98E3C 		.word	1016002968
 1355 0154 706D424B 		.word	1262644592
 1356 0158 E62E6542 		.word	1113927398
 1357              		.cfi_endproc
 1358              	.LFE75:
 1359              		.size	gps_elev_deg, .-gps_elev_deg
 1360              		.section	.text.gps_start_slew,"ax",%progbits
 1361              		.align	2
 1362              		.thumb
 1363              		.thumb_func
 1364              		.type	gps_start_slew, %function
 1365              	gps_start_slew:
 1366              	.LFB76:
 300:app_state_auto.c **** 
 301:app_state_auto.c **** // Copy the active target into the working copy and reset the slew.
 302:app_state_auto.c **** static void gps_start_slew(app_ctx_t *ctx)
 303:app_state_auto.c **** {
 1367              		.loc 1 303 0
 1368              		.cfi_startproc
 1369              		@ args = 0, pretend = 0, frame = 8
 1370              		@ frame_needed = 1, uses_anonymous_args = 0
 1371              		@ link register save eliminated.
 1372 0000 80B4     		push	{r7}
 1373              		.cfi_def_cfa_offset 4
 1374              		.cfi_offset 7, -4
 1375 0002 83B0     		sub	sp, sp, #12
 1376              		.cfi_def_cfa_offset 16
 1377 0004 00AF     		add	r7, sp, #0
 1378              		.cfi_def_cfa_register 7
 1379 0006 7860     		str	r0, [r7, #4]
 304:app_state_auto.c ****     ctx->gps_work_lat_raw = ctx->gps_target_lat_raw;
 1380              		.loc 1 304 0
 1381 0008 7B68     		ldr	r3, [r7, #4]
 1382 000a 9A6A     		ldr	r2, [r3, #40]
 1383 000c 7B68     		ldr	r3, [r7, #4]
 1384 000e 9A63     		str	r2, [r3, #56]
 305:app_state_auto.c ****     ctx->gps_work_lon_raw = ctx->gps_target_lon_raw;
 1385              		.loc 1 305 0
 1386 0010 7B68     		ldr	r3, [r7, #4]
 1387 0012 DA6A     		ldr	r2, [r3, #44]
 1388 0014 7B68     		ldr	r3, [r7, #4]
 1389 0016 DA63     		str	r2, [r3, #60]
 306:app_state_auto.c ****     ctx->gps_work_alt_mm  = ctx->gps_target_alt_mm;
 1390              		.loc 1 306 0
 1391 0018 7B68     		ldr	r3, [r7, #4]
 1392 001a 1A6B     		ldr	r2, [r3, #48]
 1393 001c 7B68     		ldr	r3, [r7, #4]
 1394 001e 1A64     		str	r2, [r3, #64]
 307:app_state_auto.c ****     // Clear flags to say: We are not settled and we have a new target.
ARM GAS  C:\Users\JENNEW~1\AppData\Local\Temp\ccfmLJ2w.s 			page 32


 308:app_state_auto.c ****     ctx->gps_settled      = 0u;
 1395              		.loc 1 308 0
 1396 0020 7B68     		ldr	r3, [r7, #4]
 1397 0022 0022     		movs	r2, #0
 1398 0024 83F84420 		strb	r2, [r3, #68]
 309:app_state_auto.c ****     ctx->gps_new_target   = 0u;
 1399              		.loc 1 309 0
 1400 0028 7B68     		ldr	r3, [r7, #4]
 1401 002a 0022     		movs	r2, #0
 1402 002c 83F83520 		strb	r2, [r3, #53]
 310:app_state_auto.c **** }
 1403              		.loc 1 310 0
 1404 0030 00BF     		nop
 1405 0032 0C37     		adds	r7, r7, #12
 1406              		.cfi_def_cfa_offset 4
 1407 0034 BD46     		mov	sp, r7
 1408              		.cfi_def_cfa_register 13
 1409              		@ sp needed
 1410 0036 80BC     		pop	{r7}
 1411              		.cfi_restore 7
 1412              		.cfi_def_cfa_offset 0
 1413 0038 7047     		bx	lr
 1414              		.cfi_endproc
 1415              	.LFE76:
 1416              		.size	gps_start_slew, .-gps_start_slew
 1417              		.global	__aeabi_i2f
 1418 003a 00BF     		.section	.text.gps_update_pointing,"ax",%progbits
 1419              		.align	2
 1420              		.thumb
 1421              		.thumb_func
 1422              		.type	gps_update_pointing, %function
 1423              	gps_update_pointing:
 1424              	.LFB77:
 311:app_state_auto.c **** 
 312:app_state_auto.c **** // Recompute abs_pan/tilt setpoints from the working copy + live gimbal GPS.
 313:app_state_auto.c **** // Overkill for now, but handles the gimble moving, this updates the target in
 314:app_state_auto.c **** // case previous computed absolute move is out of date. Important to have now
 315:app_state_auto.c **** // in case GPS quality degrades or improves during slew.
 316:app_state_auto.c **** static void gps_update_pointing(app_ctx_t *ctx)
 317:app_state_auto.c **** {
 1425              		.loc 1 317 0
 1426              		.cfi_startproc
 1427              		@ args = 0, pretend = 0, frame = 256
 1428              		@ frame_needed = 1, uses_anonymous_args = 0
 1429 0000 80B5     		push	{r7, lr}
 1430              		.cfi_def_cfa_offset 8
 1431              		.cfi_offset 7, -8
 1432              		.cfi_offset 14, -4
 1433 0002 C2B0     		sub	sp, sp, #264
 1434              		.cfi_def_cfa_offset 272
 1435 0004 02AF     		add	r7, sp, #8
 1436              		.cfi_def_cfa 7, 264
 1437 0006 7860     		str	r0, [r7, #4]
 318:app_state_auto.c ****     // TODO: Only give update if moved by 1 degree or more
 319:app_state_auto.c ****     // Get attitude and position
 320:app_state_auto.c ****     hamfly_telemetry_t st;
 321:app_state_auto.c ****     hamfly_get_telemetry(ctx->gimbal, &st);
ARM GAS  C:\Users\JENNEW~1\AppData\Local\Temp\ccfmLJ2w.s 			page 33


 1438              		.loc 1 321 0
 1439 0008 7B68     		ldr	r3, [r7, #4]
 1440 000a 1B68     		ldr	r3, [r3]
 1441 000c 07F10802 		add	r2, r7, #8
 1442 0010 1146     		mov	r1, r2
 1443 0012 1846     		mov	r0, r3
 1444 0014 FFF7FEFF 		bl	hamfly_get_telemetry
 322:app_state_auto.c ****     if (!st.gps_valid) return;
 1445              		.loc 1 322 0
 1446 0018 97F82630 		ldrb	r3, [r7, #38]	@ zero_extendqisi2
 1447 001c 83F00103 		eor	r3, r3, #1
 1448 0020 DBB2     		uxtb	r3, r3
 1449 0022 002B     		cmp	r3, #0
 1450 0024 54D1     		bne	.L86
 323:app_state_auto.c ****     // Load working target
 324:app_state_auto.c ****     float tlat = (float)ctx->gps_work_lat_raw * 1e-7f;
 1451              		.loc 1 324 0
 1452 0026 7B68     		ldr	r3, [r7, #4]
 1453 0028 9B6B     		ldr	r3, [r3, #56]
 1454 002a 1846     		mov	r0, r3
 1455 002c FFF7FEFF 		bl	__aeabi_i2f
 1456 0030 0346     		mov	r3, r0
 1457 0032 2A49     		ldr	r1, .L87
 1458 0034 1846     		mov	r0, r3
 1459 0036 FFF7FEFF 		bl	__aeabi_fmul
 1460 003a 0346     		mov	r3, r0
 1461 003c C7F8FC30 		str	r3, [r7, #252]	@ float
 325:app_state_auto.c ****     float tlon = (float)ctx->gps_work_lon_raw * 1e-7f;
 1462              		.loc 1 325 0
 1463 0040 7B68     		ldr	r3, [r7, #4]
 1464 0042 DB6B     		ldr	r3, [r3, #60]
 1465 0044 1846     		mov	r0, r3
 1466 0046 FFF7FEFF 		bl	__aeabi_i2f
 1467 004a 0346     		mov	r3, r0
 1468 004c 2349     		ldr	r1, .L87
 1469 004e 1846     		mov	r0, r3
 1470 0050 FFF7FEFF 		bl	__aeabi_fmul
 1471 0054 0346     		mov	r3, r0
 1472 0056 C7F8F830 		str	r3, [r7, #248]	@ float
 326:app_state_auto.c ****     float talt = (float)ctx->gps_work_alt_mm  * 0.001f;
 1473              		.loc 1 326 0
 1474 005a 7B68     		ldr	r3, [r7, #4]
 1475 005c 1B6C     		ldr	r3, [r3, #64]
 1476 005e 1846     		mov	r0, r3
 1477 0060 FFF7FEFF 		bl	__aeabi_i2f
 1478 0064 0346     		mov	r3, r0
 1479 0066 1E49     		ldr	r1, .L87+4
 1480 0068 1846     		mov	r0, r3
 1481 006a FFF7FEFF 		bl	__aeabi_fmul
 1482 006e 0346     		mov	r3, r0
 1483 0070 C7F8F430 		str	r3, [r7, #244]	@ float
 327:app_state_auto.c ****     // Update target
 328:app_state_auto.c ****     ctx->abs_pan_target  = DEG_TO_UNIT(
 1484              		.loc 1 328 0
 1485 0074 B86A     		ldr	r0, [r7, #40]	@ float
 1486 0076 F96A     		ldr	r1, [r7, #44]	@ float
 1487 0078 D7F8F830 		ldr	r3, [r7, #248]	@ float
ARM GAS  C:\Users\JENNEW~1\AppData\Local\Temp\ccfmLJ2w.s 			page 34


 1488 007c D7F8FC20 		ldr	r2, [r7, #252]	@ float
 1489 0080 FFF7FEFF 		bl	gps_bearing_deg
 1490 0084 0246     		mov	r2, r0
 1491 0086 BB6B     		ldr	r3, [r7, #56]	@ float
 1492 0088 1946     		mov	r1, r3
 1493 008a 1046     		mov	r0, r2
 1494 008c FFF7FEFF 		bl	__aeabi_fsub
 1495 0090 0346     		mov	r3, r0
 1496 0092 1449     		ldr	r1, .L87+8
 1497 0094 1846     		mov	r0, r3
 1498 0096 FFF7FEFF 		bl	__aeabi_fdiv
 1499 009a 0346     		mov	r3, r0
 1500 009c 1A46     		mov	r2, r3
 1501 009e 7B68     		ldr	r3, [r7, #4]
 1502 00a0 1A62     		str	r2, [r3, #32]	@ float
 329:app_state_auto.c ****         gps_bearing_deg(  st.gps_lat_deg, st.gps_lon_deg, tlat, tlon)
 330:app_state_auto.c ****                         - st.gps_heading_deg);
 331:app_state_auto.c ****     ctx->abs_tilt_target = DEG_TO_UNIT(
 1503              		.loc 1 331 0
 1504 00a2 B86A     		ldr	r0, [r7, #40]	@ float
 1505 00a4 F96A     		ldr	r1, [r7, #44]	@ float
 1506 00a6 3A6B     		ldr	r2, [r7, #48]	@ float
 1507 00a8 D7F8F430 		ldr	r3, [r7, #244]	@ float
 1508 00ac 0193     		str	r3, [sp, #4]	@ float
 1509 00ae D7F8F830 		ldr	r3, [r7, #248]	@ float
 1510 00b2 0093     		str	r3, [sp]	@ float
 1511 00b4 D7F8FC30 		ldr	r3, [r7, #252]	@ float
 1512 00b8 FFF7FEFF 		bl	gps_elev_deg
 1513 00bc 0346     		mov	r3, r0
 1514 00be 0949     		ldr	r1, .L87+8
 1515 00c0 1846     		mov	r0, r3
 1516 00c2 FFF7FEFF 		bl	__aeabi_fdiv
 1517 00c6 0346     		mov	r3, r0
 1518 00c8 1A46     		mov	r2, r3
 1519 00ca 7B68     		ldr	r3, [r7, #4]
 1520 00cc 5A62     		str	r2, [r3, #36]	@ float
 1521 00ce 00E0     		b	.L83
 1522              	.L86:
 322:app_state_auto.c ****     // Load working target
 1523              		.loc 1 322 0
 1524 00d0 00BF     		nop
 1525              	.L83:
 332:app_state_auto.c ****         gps_elev_deg(st.gps_lat_deg, st.gps_lon_deg, st.gps_alt_m, 
 333:app_state_auto.c ****                      tlat, tlon, talt));
 334:app_state_auto.c **** }
 1526              		.loc 1 334 0
 1527 00d2 07F58077 		add	r7, r7, #256
 1528              		.cfi_def_cfa_offset 8
 1529 00d6 BD46     		mov	sp, r7
 1530              		.cfi_def_cfa_register 13
 1531              		@ sp needed
 1532 00d8 80BD     		pop	{r7, pc}
 1533              	.L88:
 1534 00da 00BF     		.align	2
 1535              	.L87:
 1536 00dc 95BFD633 		.word	869711765
 1537 00e0 6F12833A 		.word	981668463
ARM GAS  C:\Users\JENNEW~1\AppData\Local\Temp\ccfmLJ2w.s 			page 35


 1538 00e4 00003443 		.word	1127481344
 1539              		.cfi_endproc
 1540              	.LFE77:
 1541              		.size	gps_update_pointing, .-gps_update_pointing
 1542              		.global	__aeabi_ui2f
 1543              		.global	__aeabi_fcmpgt
 1544              		.section	.rodata
 1545 01ce 0000     		.align	2
 1546              	.LC11:
 1547 01d0 5B415554 		.ascii	"[AUTO_ACQ_GPS] new target -> re-slew\015\012\000"
 1547      4F5F4143 
 1547      515F4750 
 1547      535D206E 
 1547      65772074 
 1548 01f7 00       		.align	2
 1549              	.LC12:
 1550 01f8 5B415554 		.ascii	"[AUTO_ACQ_GPS] settled -> AUTO_HOLD\015\012\000"
 1550      4F5F4143 
 1550      515F4750 
 1550      535D2073 
 1550      6574746C 
 1551              		.section	.text.gps_check_settle,"ax",%progbits
 1552              		.align	2
 1553              		.thumb
 1554              		.thumb_func
 1555              		.type	gps_check_settle, %function
 1556              	gps_check_settle:
 1557              	.LFB78:
 335:app_state_auto.c **** 
 336:app_state_auto.c **** // Take finite difference of attitude to tell when arrived at destination.
 337:app_state_auto.c **** // Checks for new target GPS coordinate while in progress, which triggers a 
 338:app_state_auto.c **** // restart of AUTO_ACQ_GPS.
 339:app_state_auto.c **** static void gps_check_settle(app_ctx_t *ctx)
 340:app_state_auto.c **** {
 1558              		.loc 1 340 0
 1559              		.cfi_startproc
 1560              		@ args = 0, pretend = 0, frame = 40
 1561              		@ frame_needed = 1, uses_anonymous_args = 0
 1562 0000 90B5     		push	{r4, r7, lr}
 1563              		.cfi_def_cfa_offset 12
 1564              		.cfi_offset 4, -12
 1565              		.cfi_offset 7, -8
 1566              		.cfi_offset 14, -4
 1567 0002 8BB0     		sub	sp, sp, #44
 1568              		.cfi_def_cfa_offset 56
 1569 0004 00AF     		add	r7, sp, #0
 1570              		.cfi_def_cfa_register 7
 1571 0006 7860     		str	r0, [r7, #4]
 341:app_state_auto.c ****     // Too fast? Dont judge.
 342:app_state_auto.c ****     uint32_t now = g_tick_ms;
 1572              		.loc 1 342 0
 1573 0008 6B4B     		ldr	r3, .L109
 1574 000a 1B68     		ldr	r3, [r3]
 1575 000c 3B62     		str	r3, [r7, #32]
 343:app_state_auto.c ****     if (now - ctx->gps_last_sample_ms < GPS_SETTLE_PERIOD_MS) return;
 1576              		.loc 1 343 0
 1577 000e 7B68     		ldr	r3, [r7, #4]
ARM GAS  C:\Users\JENNEW~1\AppData\Local\Temp\ccfmLJ2w.s 			page 36


 1578 0010 1B6D     		ldr	r3, [r3, #80]
 1579 0012 3A6A     		ldr	r2, [r7, #32]
 1580 0014 D31A     		subs	r3, r2, r3
 1581 0016 312B     		cmp	r3, #49
 1582 0018 40F2C780 		bls	.L107
 344:app_state_auto.c **** 
 345:app_state_auto.c ****     // no telemetry -> can't judge
 346:app_state_auto.c ****     float pan, tilt;
 347:app_state_auto.c ****     if (!gimbal_pan_tilt_deg(ctx, &pan, &tilt))
 1583              		.loc 1 347 0
 1584 001c 07F10802 		add	r2, r7, #8
 1585 0020 07F10C03 		add	r3, r7, #12
 1586 0024 1946     		mov	r1, r3
 1587 0026 7868     		ldr	r0, [r7, #4]
 1588 0028 FFF7FEFF 		bl	gimbal_pan_tilt_deg
 1589 002c 0346     		mov	r3, r0
 1590 002e 002B     		cmp	r3, #0
 1591 0030 00F0BD80 		beq	.L108
 348:app_state_auto.c ****     {
 349:app_state_auto.c ****         return;
 350:app_state_auto.c ****     } else {
 351:app_state_auto.c ****         ctx->gimbal_last_rx_ms = g_tick_ms;
 1592              		.loc 1 351 0
 1593 0034 604B     		ldr	r3, .L109
 1594 0036 1A68     		ldr	r2, [r3]
 1595 0038 7B68     		ldr	r3, [r7, #4]
 1596 003a 1A61     		str	r2, [r3, #16]
 352:app_state_auto.c ****     }
 353:app_state_auto.c **** 
 354:app_state_auto.c ****     float speed_dps = 1.0e9f;   // assume moving until we have a valid dt
 1597              		.loc 1 354 0
 1598 003c 5F4B     		ldr	r3, .L109+4
 1599 003e 7B62     		str	r3, [r7, #36]	@ float
 355:app_state_auto.c ****     if (ctx->gps_last_sample_ms != 0u) {
 1600              		.loc 1 355 0
 1601 0040 7B68     		ldr	r3, [r7, #4]
 1602 0042 1B6D     		ldr	r3, [r3, #80]
 1603 0044 002B     		cmp	r3, #0
 1604 0046 34D0     		beq	.L93
 1605              	.LBB15:
 356:app_state_auto.c ****         float dt = (float)(now - ctx->gps_last_sample_ms) * 0.001f;
 1606              		.loc 1 356 0
 1607 0048 7B68     		ldr	r3, [r7, #4]
 1608 004a 1B6D     		ldr	r3, [r3, #80]
 1609 004c 3A6A     		ldr	r2, [r7, #32]
 1610 004e D31A     		subs	r3, r2, r3
 1611 0050 1846     		mov	r0, r3
 1612 0052 FFF7FEFF 		bl	__aeabi_ui2f
 1613 0056 0346     		mov	r3, r0
 1614 0058 5949     		ldr	r1, .L109+8
 1615 005a 1846     		mov	r0, r3
 1616 005c FFF7FEFF 		bl	__aeabi_fmul
 1617 0060 0346     		mov	r3, r0
 1618 0062 FB61     		str	r3, [r7, #28]	@ float
 357:app_state_auto.c ****         if (dt > 0.0f)
 1619              		.loc 1 357 0
 1620 0064 4FF00001 		mov	r1, #0
ARM GAS  C:\Users\JENNEW~1\AppData\Local\Temp\ccfmLJ2w.s 			page 37


 1621 0068 F869     		ldr	r0, [r7, #28]	@ float
 1622 006a FFF7FEFF 		bl	__aeabi_fcmpgt
 1623 006e 0346     		mov	r3, r0
 1624 0070 002B     		cmp	r3, #0
 1625 0072 1ED0     		beq	.L93
 358:app_state_auto.c ****             speed_dps = (fabsf(pan  - ctx->gps_last_pan_deg) +
 1626              		.loc 1 358 0
 1627 0074 FA68     		ldr	r2, [r7, #12]	@ float
 1628 0076 7B68     		ldr	r3, [r7, #4]
 1629 0078 9B6C     		ldr	r3, [r3, #72]	@ float
 1630 007a 1946     		mov	r1, r3
 1631 007c 1046     		mov	r0, r2
 1632 007e FFF7FEFF 		bl	__aeabi_fsub
 1633 0082 0346     		mov	r3, r0
 1634 0084 23F00044 		bic	r4, r3, #-2147483648
 359:app_state_auto.c ****                          fabsf(tilt - ctx->gps_last_tilt_deg)) / dt;
 1635              		.loc 1 359 0
 1636 0088 BA68     		ldr	r2, [r7, #8]	@ float
 1637 008a 7B68     		ldr	r3, [r7, #4]
 1638 008c DB6C     		ldr	r3, [r3, #76]	@ float
 1639 008e 1946     		mov	r1, r3
 1640 0090 1046     		mov	r0, r2
 1641 0092 FFF7FEFF 		bl	__aeabi_fsub
 1642 0096 0346     		mov	r3, r0
 1643 0098 23F00043 		bic	r3, r3, #-2147483648
 358:app_state_auto.c ****             speed_dps = (fabsf(pan  - ctx->gps_last_pan_deg) +
 1644              		.loc 1 358 0
 1645 009c 1946     		mov	r1, r3
 1646 009e 2046     		mov	r0, r4
 1647 00a0 FFF7FEFF 		bl	__aeabi_fadd
 1648 00a4 0346     		mov	r3, r0
 1649 00a6 F969     		ldr	r1, [r7, #28]	@ float
 1650 00a8 1846     		mov	r0, r3
 1651 00aa FFF7FEFF 		bl	__aeabi_fdiv
 1652 00ae 0346     		mov	r3, r0
 1653 00b0 7B62     		str	r3, [r7, #36]	@ float
 1654              	.L93:
 1655              	.LBE15:
 360:app_state_auto.c ****     }
 361:app_state_auto.c ****     ctx->gps_last_pan_deg   = pan;
 1656              		.loc 1 361 0
 1657 00b2 FA68     		ldr	r2, [r7, #12]	@ float
 1658 00b4 7B68     		ldr	r3, [r7, #4]
 1659 00b6 9A64     		str	r2, [r3, #72]	@ float
 362:app_state_auto.c ****     ctx->gps_last_tilt_deg  = tilt;
 1660              		.loc 1 362 0
 1661 00b8 BA68     		ldr	r2, [r7, #8]	@ float
 1662 00ba 7B68     		ldr	r3, [r7, #4]
 1663 00bc DA64     		str	r2, [r3, #76]	@ float
 363:app_state_auto.c ****     ctx->gps_last_sample_ms = now;
 1664              		.loc 1 363 0
 1665 00be 7B68     		ldr	r3, [r7, #4]
 1666 00c0 3A6A     		ldr	r2, [r7, #32]
 1667 00c2 1A65     		str	r2, [r3, #80]
 364:app_state_auto.c **** 
 365:app_state_auto.c ****     /* Frame assumption: measured euler pan/tilt share the gimbal's ABSOLUTE
 366:app_state_auto.c ****        command reference. Validate on hardware; if frames differ, the low-speed
ARM GAS  C:\Users\JENNEW~1\AppData\Local\Temp\ccfmLJ2w.s 			page 38


 367:app_state_auto.c ****        gate still gives a usable settle proxy. */
 368:app_state_auto.c ****     float cmd_pan_deg  = UNIT_TO_DEG(ctx->abs_pan_target);
 1668              		.loc 1 368 0
 1669 00c4 7B68     		ldr	r3, [r7, #4]
 1670 00c6 1B6A     		ldr	r3, [r3, #32]	@ float
 1671 00c8 3E49     		ldr	r1, .L109+12
 1672 00ca 1846     		mov	r0, r3
 1673 00cc FFF7FEFF 		bl	__aeabi_fmul
 1674 00d0 0346     		mov	r3, r0
 1675 00d2 BB61     		str	r3, [r7, #24]	@ float
 369:app_state_auto.c ****     float cmd_tilt_deg = UNIT_TO_DEG(ctx->abs_tilt_target);
 1676              		.loc 1 369 0
 1677 00d4 7B68     		ldr	r3, [r7, #4]
 1678 00d6 5B6A     		ldr	r3, [r3, #36]	@ float
 1679 00d8 3A49     		ldr	r1, .L109+12
 1680 00da 1846     		mov	r0, r3
 1681 00dc FFF7FEFF 		bl	__aeabi_fmul
 1682 00e0 0346     		mov	r3, r0
 1683 00e2 7B61     		str	r3, [r7, #20]	@ float
 370:app_state_auto.c ****     uint8_t arrived = (fabsf(pan  - cmd_pan_deg)  < GPS_POINT_SETTLE_DEG) &&
 1684              		.loc 1 370 0
 1685 00e4 FB68     		ldr	r3, [r7, #12]	@ float
 1686 00e6 B969     		ldr	r1, [r7, #24]	@ float
 1687 00e8 1846     		mov	r0, r3
 1688 00ea FFF7FEFF 		bl	__aeabi_fsub
 1689 00ee 0346     		mov	r3, r0
 1690 00f0 23F00043 		bic	r3, r3, #-2147483648
 1691 00f4 4FF07C51 		mov	r1, #1056964608
 1692 00f8 1846     		mov	r0, r3
 1693 00fa FFF7FEFF 		bl	__aeabi_fcmplt
 1694 00fe 0346     		mov	r3, r0
 1695 0100 002B     		cmp	r3, #0
 1696 0102 11D0     		beq	.L95
 371:app_state_auto.c ****                       (fabsf(tilt - cmd_tilt_deg) < GPS_POINT_SETTLE_DEG);
 1697              		.loc 1 371 0 discriminator 1
 1698 0104 BB68     		ldr	r3, [r7, #8]	@ float
 1699 0106 7969     		ldr	r1, [r7, #20]	@ float
 1700 0108 1846     		mov	r0, r3
 1701 010a FFF7FEFF 		bl	__aeabi_fsub
 1702 010e 0346     		mov	r3, r0
 1703 0110 23F00043 		bic	r3, r3, #-2147483648
 370:app_state_auto.c ****     uint8_t arrived = (fabsf(pan  - cmd_pan_deg)  < GPS_POINT_SETTLE_DEG) &&
 1704              		.loc 1 370 0 discriminator 1
 1705 0114 4FF07C51 		mov	r1, #1056964608
 1706 0118 1846     		mov	r0, r3
 1707 011a FFF7FEFF 		bl	__aeabi_fcmplt
 1708 011e 0346     		mov	r3, r0
 1709 0120 002B     		cmp	r3, #0
 1710 0122 01D0     		beq	.L95
 370:app_state_auto.c ****     uint8_t arrived = (fabsf(pan  - cmd_pan_deg)  < GPS_POINT_SETTLE_DEG) &&
 1711              		.loc 1 370 0 is_stmt 0 discriminator 3
 1712 0124 0123     		movs	r3, #1
 1713 0126 00E0     		b	.L98
 1714              	.L95:
 370:app_state_auto.c ****     uint8_t arrived = (fabsf(pan  - cmd_pan_deg)  < GPS_POINT_SETTLE_DEG) &&
 1715              		.loc 1 370 0 discriminator 4
 1716 0128 0023     		movs	r3, #0
ARM GAS  C:\Users\JENNEW~1\AppData\Local\Temp\ccfmLJ2w.s 			page 39


 1717              	.L98:
 370:app_state_auto.c ****     uint8_t arrived = (fabsf(pan  - cmd_pan_deg)  < GPS_POINT_SETTLE_DEG) &&
 1718              		.loc 1 370 0 discriminator 6
 1719 012a FB74     		strb	r3, [r7, #19]
 372:app_state_auto.c ****     uint8_t slow    = (speed_dps < GPS_RATE_SETTLE_DPS);
 1720              		.loc 1 372 0 is_stmt 1 discriminator 6
 1721 012c 0123     		movs	r3, #1
 1722 012e 1C46     		mov	r4, r3
 1723 0130 4FF07E51 		mov	r1, #1065353216
 1724 0134 786A     		ldr	r0, [r7, #36]	@ float
 1725 0136 FFF7FEFF 		bl	__aeabi_fcmplt
 1726 013a 0346     		mov	r3, r0
 1727 013c 002B     		cmp	r3, #0
 1728 013e 01D1     		bne	.L99
 1729 0140 0023     		movs	r3, #0
 1730 0142 1C46     		mov	r4, r3
 1731              	.L99:
 1732 0144 E3B2     		uxtb	r3, r4
 1733 0146 BB74     		strb	r3, [r7, #18]
 373:app_state_auto.c ****     
 374:app_state_auto.c ****     // Catch new target flag
 375:app_state_auto.c ****     if (ctx->gps_new_target && (ctx->gps_settled || (arrived && slow))) {
 1734              		.loc 1 375 0 discriminator 6
 1735 0148 7B68     		ldr	r3, [r7, #4]
 1736 014a 93F83530 		ldrb	r3, [r3, #53]	@ zero_extendqisi2
 1737 014e 002B     		cmp	r3, #0
 1738 0150 14D0     		beq	.L100
 1739              		.loc 1 375 0 is_stmt 0 discriminator 1
 1740 0152 7B68     		ldr	r3, [r7, #4]
 1741 0154 93F84430 		ldrb	r3, [r3, #68]	@ zero_extendqisi2
 1742 0158 002B     		cmp	r3, #0
 1743 015a 05D1     		bne	.L101
 1744              		.loc 1 375 0 discriminator 2
 1745 015c FB7C     		ldrb	r3, [r7, #19]	@ zero_extendqisi2
 1746 015e 002B     		cmp	r3, #0
 1747 0160 0CD0     		beq	.L100
 1748              		.loc 1 375 0 discriminator 3
 1749 0162 BB7C     		ldrb	r3, [r7, #18]	@ zero_extendqisi2
 1750 0164 002B     		cmp	r3, #0
 1751 0166 09D0     		beq	.L100
 1752              	.L101:
 376:app_state_auto.c ****         UART_DEBUG_PutString("[AUTO_ACQ_GPS] new target -> re-slew\r\n");
 1753              		.loc 1 376 0 is_stmt 1
 1754 0168 1748     		ldr	r0, .L109+16
 1755 016a FFF7FEFF 		bl	UART_DEBUG_PutString
 377:app_state_auto.c ****         gps_start_slew(ctx);  // copies target->work, clears flag + settled
 1756              		.loc 1 377 0
 1757 016e 7868     		ldr	r0, [r7, #4]
 1758 0170 FFF7FEFF 		bl	gps_start_slew
 378:app_state_auto.c ****         gps_update_pointing(ctx);
 1759              		.loc 1 378 0
 1760 0174 7868     		ldr	r0, [r7, #4]
 1761 0176 FFF7FEFF 		bl	gps_update_pointing
 379:app_state_auto.c ****         return;
 1762              		.loc 1 379 0
 1763 017a 19E0     		b	.L89
 1764              	.L100:
ARM GAS  C:\Users\JENNEW~1\AppData\Local\Temp\ccfmLJ2w.s 			page 40


 380:app_state_auto.c ****     }
 381:app_state_auto.c ****     // Exit condition for valid finishing of GPS slew.
 382:app_state_auto.c ****     if (!ctx->gps_settled && arrived && slow) {
 1765              		.loc 1 382 0
 1766 017c 7B68     		ldr	r3, [r7, #4]
 1767 017e 93F84430 		ldrb	r3, [r3, #68]	@ zero_extendqisi2
 1768 0182 002B     		cmp	r3, #0
 1769 0184 14D1     		bne	.L89
 1770              		.loc 1 382 0 is_stmt 0 discriminator 1
 1771 0186 FB7C     		ldrb	r3, [r7, #19]	@ zero_extendqisi2
 1772 0188 002B     		cmp	r3, #0
 1773 018a 11D0     		beq	.L89
 1774              		.loc 1 382 0 discriminator 2
 1775 018c BB7C     		ldrb	r3, [r7, #18]	@ zero_extendqisi2
 1776 018e 002B     		cmp	r3, #0
 1777 0190 0ED0     		beq	.L89
 383:app_state_auto.c ****         ctx->gps_settled = 1u;
 1778              		.loc 1 383 0 is_stmt 1
 1779 0192 7B68     		ldr	r3, [r7, #4]
 1780 0194 0122     		movs	r2, #1
 1781 0196 83F84420 		strb	r2, [r3, #68]
 384:app_state_auto.c ****         UART_DEBUG_PutString("[AUTO_ACQ_GPS] settled -> AUTO_HOLD\r\n");
 1782              		.loc 1 384 0
 1783 019a 0C48     		ldr	r0, .L109+20
 1784 019c FFF7FEFF 		bl	UART_DEBUG_PutString
 385:app_state_auto.c ****         app_transition(ctx, AUTO_HOLD);
 1785              		.loc 1 385 0
 1786 01a0 0921     		movs	r1, #9
 1787 01a2 7868     		ldr	r0, [r7, #4]
 1788 01a4 FFF7FEFF 		bl	app_transition
 1789 01a8 02E0     		b	.L89
 1790              	.L107:
 343:app_state_auto.c **** 
 1791              		.loc 1 343 0
 1792 01aa 00BF     		nop
 1793 01ac 00E0     		b	.L89
 1794              	.L108:
 349:app_state_auto.c ****     } else {
 1795              		.loc 1 349 0
 1796 01ae 00BF     		nop
 1797              	.L89:
 386:app_state_auto.c ****     }
 387:app_state_auto.c **** }
 1798              		.loc 1 387 0
 1799 01b0 2C37     		adds	r7, r7, #44
 1800              		.cfi_def_cfa_offset 12
 1801 01b2 BD46     		mov	sp, r7
 1802              		.cfi_def_cfa_register 13
 1803              		@ sp needed
 1804 01b4 90BD     		pop	{r4, r7, pc}
 1805              	.L110:
 1806 01b6 00BF     		.align	2
 1807              	.L109:
 1808 01b8 00000000 		.word	g_tick_ms
 1809 01bc 286B6E4E 		.word	1315859240
 1810 01c0 6F12833A 		.word	981668463
 1811 01c4 00003443 		.word	1127481344
ARM GAS  C:\Users\JENNEW~1\AppData\Local\Temp\ccfmLJ2w.s 			page 41


 1812 01c8 D0010000 		.word	.LC11
 1813 01cc F8010000 		.word	.LC12
 1814              		.cfi_endproc
 1815              	.LFE78:
 1816              		.size	gps_check_settle, .-gps_check_settle
 1817              		.section	.rodata
 1818 021e 0000     		.align	2
 1819              	.LC13:
 1820 0220 0D0A5B41 		.ascii	"\015\012[AUTO_ACQ_GPS] no GPS target -> STBY_HOLD\015"
 1820      55544F5F 
 1820      4143515F 
 1820      4750535D 
 1820      206E6F20 
 1821 024c 0A00     		.ascii	"\012\000"
 1822 024e 0000     		.align	2
 1823              	.LC14:
 1824 0250 0D0A5B41 		.ascii	"\015\012[AUTO_ACQ_GPS] open-loop GPS pointing  e=ex"
 1824      55544F5F 
 1824      4143515F 
 1824      4750535D 
 1824      206F7065 
 1825 027d 69740D0A 		.ascii	"it\015\012> \000"
 1825      3E2000
 1826              		.section	.text.entry_auto_acq_gps,"ax",%progbits
 1827              		.align	2
 1828              		.global	entry_auto_acq_gps
 1829              		.thumb
 1830              		.thumb_func
 1831              		.type	entry_auto_acq_gps, %function
 1832              	entry_auto_acq_gps:
 1833              	.LFB79:
 388:app_state_auto.c **** 
 389:app_state_auto.c **** void entry_auto_acq_gps(app_ctx_t *ctx)
 390:app_state_auto.c **** {
 1834              		.loc 1 390 0
 1835              		.cfi_startproc
 1836              		@ args = 0, pretend = 0, frame = 8
 1837              		@ frame_needed = 1, uses_anonymous_args = 0
 1838 0000 80B5     		push	{r7, lr}
 1839              		.cfi_def_cfa_offset 8
 1840              		.cfi_offset 7, -8
 1841              		.cfi_offset 14, -4
 1842 0002 82B0     		sub	sp, sp, #8
 1843              		.cfi_def_cfa_offset 16
 1844 0004 00AF     		add	r7, sp, #0
 1845              		.cfi_def_cfa_register 7
 1846 0006 7860     		str	r0, [r7, #4]
 391:app_state_auto.c ****     // Check for GPS target. TODO: Is this hanlded seperately now?
 392:app_state_auto.c ****     if (!ctx->gps_target_set) {
 1847              		.loc 1 392 0
 1848 0008 7B68     		ldr	r3, [r7, #4]
 1849 000a 93F83430 		ldrb	r3, [r3, #52]	@ zero_extendqisi2
 1850 000e 002B     		cmp	r3, #0
 1851 0010 07D1     		bne	.L112
 393:app_state_auto.c ****         UART_DEBUG_PutString("\r\n[AUTO_ACQ_GPS] no GPS target -> STBY_HOLD\r\n");
 1852              		.loc 1 393 0
 1853 0012 0B48     		ldr	r0, .L114
ARM GAS  C:\Users\JENNEW~1\AppData\Local\Temp\ccfmLJ2w.s 			page 42


 1854 0014 FFF7FEFF 		bl	UART_DEBUG_PutString
 394:app_state_auto.c ****         app_transition(ctx, STBY_HOLD);
 1855              		.loc 1 394 0
 1856 0018 0621     		movs	r1, #6
 1857 001a 7868     		ldr	r0, [r7, #4]
 1858 001c FFF7FEFF 		bl	app_transition
 395:app_state_auto.c ****         return;
 1859              		.loc 1 395 0
 1860 0020 0BE0     		b	.L111
 1861              	.L112:
 396:app_state_auto.c ****     }
 397:app_state_auto.c ****     UART_DEBUG_PutString("\r\n[AUTO_ACQ_GPS] open-loop GPS pointing  e=exit\r\n> ");
 1862              		.loc 1 397 0
 1863 0022 0848     		ldr	r0, .L114+4
 1864 0024 FFF7FEFF 		bl	UART_DEBUG_PutString
 398:app_state_auto.c ****     // Set start flag.
 399:app_state_auto.c ****     ctx->gps_last_sample_ms = 0u;
 1865              		.loc 1 399 0
 1866 0028 7B68     		ldr	r3, [r7, #4]
 1867 002a 0022     		movs	r2, #0
 1868 002c 1A65     		str	r2, [r3, #80]
 400:app_state_auto.c ****     // Trigger flags that we are starting slew.
 401:app_state_auto.c ****     gps_start_slew(ctx);        // snap target -> work, start fresh
 1869              		.loc 1 401 0
 1870 002e 7868     		ldr	r0, [r7, #4]
 1871 0030 FFF7FEFF 		bl	gps_start_slew
 402:app_state_auto.c ****     // Get and use bearing for pointing math.
 403:app_state_auto.c ****     gps_update_pointing(ctx);   // initial bearing
 1872              		.loc 1 403 0
 1873 0034 7868     		ldr	r0, [r7, #4]
 1874 0036 FFF7FEFF 		bl	gps_update_pointing
 1875              	.L111:
 404:app_state_auto.c **** }
 1876              		.loc 1 404 0
 1877 003a 0837     		adds	r7, r7, #8
 1878              		.cfi_def_cfa_offset 8
 1879 003c BD46     		mov	sp, r7
 1880              		.cfi_def_cfa_register 13
 1881              		@ sp needed
 1882 003e 80BD     		pop	{r7, pc}
 1883              	.L115:
 1884              		.align	2
 1885              	.L114:
 1886 0040 20020000 		.word	.LC13
 1887 0044 50020000 		.word	.LC14
 1888              		.cfi_endproc
 1889              	.LFE79:
 1890              		.size	entry_auto_acq_gps, .-entry_auto_acq_gps
 1891              		.section	.text.exit_auto_acq_gps,"ax",%progbits
 1892              		.align	2
 1893              		.global	exit_auto_acq_gps
 1894              		.thumb
 1895              		.thumb_func
 1896              		.type	exit_auto_acq_gps, %function
 1897              	exit_auto_acq_gps:
 1898              	.LFB80:
 405:app_state_auto.c **** 
ARM GAS  C:\Users\JENNEW~1\AppData\Local\Temp\ccfmLJ2w.s 			page 43


 406:app_state_auto.c **** void exit_auto_acq_gps(app_ctx_t *ctx)
 407:app_state_auto.c **** {
 1899              		.loc 1 407 0
 1900              		.cfi_startproc
 1901              		@ args = 0, pretend = 0, frame = 8
 1902              		@ frame_needed = 1, uses_anonymous_args = 0
 1903 0000 80B5     		push	{r7, lr}
 1904              		.cfi_def_cfa_offset 8
 1905              		.cfi_offset 7, -8
 1906              		.cfi_offset 14, -4
 1907 0002 82B0     		sub	sp, sp, #8
 1908              		.cfi_def_cfa_offset 16
 1909 0004 00AF     		add	r7, sp, #0
 1910              		.cfi_def_cfa_register 7
 1911 0006 7860     		str	r0, [r7, #4]
 408:app_state_auto.c ****     // Flush centroid stream to avoid bounce on exit
 409:app_state_auto.c ****     sbc_discard_centroid(STREAM_COARSE);
 1912              		.loc 1 409 0
 1913 0008 0020     		movs	r0, #0
 1914 000a FFF7FEFF 		bl	sbc_discard_centroid
 410:app_state_auto.c ****     
 411:app_state_auto.c ****     // Set pointing direction as the new origin
 412:app_state_auto.c ****     if (ctx->gps_settled) set_origin(ctx, 1u);
 1915              		.loc 1 412 0
 1916 000e 7B68     		ldr	r3, [r7, #4]
 1917 0010 93F84430 		ldrb	r3, [r3, #68]	@ zero_extendqisi2
 1918 0014 002B     		cmp	r3, #0
 1919 0016 03D0     		beq	.L117
 1920              		.loc 1 412 0 is_stmt 0 discriminator 1
 1921 0018 0121     		movs	r1, #1
 1922 001a 7868     		ldr	r0, [r7, #4]
 1923 001c FFF7FEFF 		bl	set_origin
 1924              	.L117:
 413:app_state_auto.c ****     
 414:app_state_auto.c ****     // Reset target variables
 415:app_state_auto.c ****     ctx->abs_pan_target = ctx->abs_tilt_target = 0.0f;
 1925              		.loc 1 415 0 is_stmt 1
 1926 0020 7B68     		ldr	r3, [r7, #4]
 1927 0022 4FF00002 		mov	r2, #0
 1928 0026 5A62     		str	r2, [r3, #36]	@ float
 1929 0028 7B68     		ldr	r3, [r7, #4]
 1930 002a 5A6A     		ldr	r2, [r3, #36]	@ float
 1931 002c 7B68     		ldr	r3, [r7, #4]
 1932 002e 1A62     		str	r2, [r3, #32]	@ float
 416:app_state_auto.c **** }
 1933              		.loc 1 416 0
 1934 0030 00BF     		nop
 1935 0032 0837     		adds	r7, r7, #8
 1936              		.cfi_def_cfa_offset 8
 1937 0034 BD46     		mov	sp, r7
 1938              		.cfi_def_cfa_register 13
 1939              		@ sp needed
 1940 0036 80BD     		pop	{r7, pc}
 1941              		.cfi_endproc
 1942              	.LFE80:
 1943              		.size	exit_auto_acq_gps, .-exit_auto_acq_gps
 1944              		.section	.text.key_auto_acq_gps,"ax",%progbits
ARM GAS  C:\Users\JENNEW~1\AppData\Local\Temp\ccfmLJ2w.s 			page 44


 1945              		.align	2
 1946              		.global	key_auto_acq_gps
 1947              		.thumb
 1948              		.thumb_func
 1949              		.type	key_auto_acq_gps, %function
 1950              	key_auto_acq_gps:
 1951              	.LFB81:
 417:app_state_auto.c **** 
 418:app_state_auto.c **** uint8_t key_auto_acq_gps(app_ctx_t *ctx, char k)
 419:app_state_auto.c **** {
 1952              		.loc 1 419 0
 1953              		.cfi_startproc
 1954              		@ args = 0, pretend = 0, frame = 8
 1955              		@ frame_needed = 1, uses_anonymous_args = 0
 1956 0000 80B5     		push	{r7, lr}
 1957              		.cfi_def_cfa_offset 8
 1958              		.cfi_offset 7, -8
 1959              		.cfi_offset 14, -4
 1960 0002 82B0     		sub	sp, sp, #8
 1961              		.cfi_def_cfa_offset 16
 1962 0004 00AF     		add	r7, sp, #0
 1963              		.cfi_def_cfa_register 7
 1964 0006 7860     		str	r0, [r7, #4]
 1965 0008 0B46     		mov	r3, r1
 1966 000a FB70     		strb	r3, [r7, #3]
 420:app_state_auto.c ****     switch (k) {
 1967              		.loc 1 420 0
 1968 000c FB78     		ldrb	r3, [r7, #3]	@ zero_extendqisi2
 1969 000e 652B     		cmp	r3, #101
 1970 0010 05D1     		bne	.L122
 421:app_state_auto.c ****         case 'e': app_transition(ctx, STBY_HOLD); return 1;
 1971              		.loc 1 421 0
 1972 0012 0621     		movs	r1, #6
 1973 0014 7868     		ldr	r0, [r7, #4]
 1974 0016 FFF7FEFF 		bl	app_transition
 1975 001a 0123     		movs	r3, #1
 1976 001c 00E0     		b	.L121
 1977              	.L122:
 422:app_state_auto.c ****         default:  return 0;
 1978              		.loc 1 422 0
 1979 001e 0023     		movs	r3, #0
 1980              	.L121:
 423:app_state_auto.c ****     }
 424:app_state_auto.c **** }
 1981              		.loc 1 424 0
 1982 0020 1846     		mov	r0, r3
 1983 0022 0837     		adds	r7, r7, #8
 1984              		.cfi_def_cfa_offset 8
 1985 0024 BD46     		mov	sp, r7
 1986              		.cfi_def_cfa_register 13
 1987              		@ sp needed
 1988 0026 80BD     		pop	{r7, pc}
 1989              		.cfi_endproc
 1990              	.LFE81:
 1991              		.size	key_auto_acq_gps, .-key_auto_acq_gps
 1992              		.section	.text.build_auto_acq_gps,"ax",%progbits
 1993              		.align	2
ARM GAS  C:\Users\JENNEW~1\AppData\Local\Temp\ccfmLJ2w.s 			page 45


 1994              		.global	build_auto_acq_gps
 1995              		.thumb
 1996              		.thumb_func
 1997              		.type	build_auto_acq_gps, %function
 1998              	build_auto_acq_gps:
 1999              	.LFB82:
 425:app_state_auto.c **** 
 426:app_state_auto.c **** void build_auto_acq_gps(const app_ctx_t *ctx, hamfly_control_t *out)
 427:app_state_auto.c **** {
 2000              		.loc 1 427 0
 2001              		.cfi_startproc
 2002              		@ args = 0, pretend = 0, frame = 8
 2003              		@ frame_needed = 1, uses_anonymous_args = 0
 2004 0000 80B5     		push	{r7, lr}
 2005              		.cfi_def_cfa_offset 8
 2006              		.cfi_offset 7, -8
 2007              		.cfi_offset 14, -4
 2008 0002 82B0     		sub	sp, sp, #8
 2009              		.cfi_def_cfa_offset 16
 2010 0004 00AF     		add	r7, sp, #0
 2011              		.cfi_def_cfa_register 7
 2012 0006 7860     		str	r0, [r7, #4]
 2013 0008 3960     		str	r1, [r7]
 428:app_state_auto.c ****     out->kill      = 0u;
 2014              		.loc 1 428 0
 2015 000a 3B68     		ldr	r3, [r7]
 2016 000c 0022     		movs	r2, #0
 2017 000e 1A74     		strb	r2, [r3, #16]
 429:app_state_auto.c ****     out->roll_mode = HAMFLY_DEFER;
 2018              		.loc 1 429 0
 2019 0010 3B68     		ldr	r3, [r7]
 2020 0012 0022     		movs	r2, #0
 2021 0014 9A73     		strb	r2, [r3, #14]
 430:app_state_auto.c ****     out->roll      = 0.0f;
 2022              		.loc 1 430 0
 2023 0016 3B68     		ldr	r3, [r7]
 2024 0018 4FF00002 		mov	r2, #0
 2025 001c 9A60     		str	r2, [r3, #8]	@ float
 431:app_state_auto.c ****     out->pan_mode  = out->tilt_mode = HAMFLY_ABSOLUTE;  // TODO: Majestic? Needs testing of pointin
 2026              		.loc 1 431 0
 2027 001e 3B68     		ldr	r3, [r7]
 2028 0020 0222     		movs	r2, #2
 2029 0022 5A73     		strb	r2, [r3, #13]
 2030 0024 3B68     		ldr	r3, [r7]
 2031 0026 5A7B     		ldrb	r2, [r3, #13]	@ zero_extendqisi2
 2032 0028 3B68     		ldr	r3, [r7]
 2033 002a 1A73     		strb	r2, [r3, #12]
 432:app_state_auto.c ****     out->pan  = CLAMP(ctx->abs_pan_target,  -1.0f, 1.0f);
 2034              		.loc 1 432 0
 2035 002c 7B68     		ldr	r3, [r7, #4]
 2036 002e 1B6A     		ldr	r3, [r3, #32]	@ float
 2037 0030 1C49     		ldr	r1, .L144
 2038 0032 1846     		mov	r0, r3
 2039 0034 FFF7FEFF 		bl	__aeabi_fcmplt
 2040 0038 0346     		mov	r3, r0
 2041 003a 002B     		cmp	r3, #0
 2042 003c 01D0     		beq	.L140
ARM GAS  C:\Users\JENNEW~1\AppData\Local\Temp\ccfmLJ2w.s 			page 46


 2043              		.loc 1 432 0 is_stmt 0 discriminator 1
 2044 003e 194B     		ldr	r3, .L144
 2045 0040 0EE0     		b	.L126
 2046              	.L140:
 2047              		.loc 1 432 0 discriminator 2
 2048 0042 7B68     		ldr	r3, [r7, #4]
 2049 0044 1B6A     		ldr	r3, [r3, #32]	@ float
 2050 0046 4FF07E51 		mov	r1, #1065353216
 2051 004a 1846     		mov	r0, r3
 2052 004c FFF7FEFF 		bl	__aeabi_fcmpgt
 2053 0050 0346     		mov	r3, r0
 2054 0052 002B     		cmp	r3, #0
 2055 0054 02D0     		beq	.L141
 2056              		.loc 1 432 0 discriminator 4
 2057 0056 4FF07E53 		mov	r3, #1065353216
 2058 005a 01E0     		b	.L126
 2059              	.L141:
 2060              		.loc 1 432 0 discriminator 5
 2061 005c 7B68     		ldr	r3, [r7, #4]
 2062 005e 1B6A     		ldr	r3, [r3, #32]	@ float
 2063              	.L126:
 2064              		.loc 1 432 0 discriminator 8
 2065 0060 3A68     		ldr	r2, [r7]
 2066 0062 1360     		str	r3, [r2]	@ float
 433:app_state_auto.c ****     out->tilt = CLAMP(ctx->abs_tilt_target, -1.0f, 1.0f);
 2067              		.loc 1 433 0 is_stmt 1 discriminator 8
 2068 0064 7B68     		ldr	r3, [r7, #4]
 2069 0066 5B6A     		ldr	r3, [r3, #36]	@ float
 2070 0068 0E49     		ldr	r1, .L144
 2071 006a 1846     		mov	r0, r3
 2072 006c FFF7FEFF 		bl	__aeabi_fcmplt
 2073 0070 0346     		mov	r3, r0
 2074 0072 002B     		cmp	r3, #0
 2075 0074 01D0     		beq	.L142
 2076              		.loc 1 433 0 is_stmt 0 discriminator 1
 2077 0076 0B4B     		ldr	r3, .L144
 2078 0078 0EE0     		b	.L132
 2079              	.L142:
 2080              		.loc 1 433 0 discriminator 2
 2081 007a 7B68     		ldr	r3, [r7, #4]
 2082 007c 5B6A     		ldr	r3, [r3, #36]	@ float
 2083 007e 4FF07E51 		mov	r1, #1065353216
 2084 0082 1846     		mov	r0, r3
 2085 0084 FFF7FEFF 		bl	__aeabi_fcmpgt
 2086 0088 0346     		mov	r3, r0
 2087 008a 002B     		cmp	r3, #0
 2088 008c 02D0     		beq	.L143
 2089              		.loc 1 433 0 discriminator 4
 2090 008e 4FF07E53 		mov	r3, #1065353216
 2091 0092 01E0     		b	.L132
 2092              	.L143:
 2093              		.loc 1 433 0 discriminator 5
 2094 0094 7B68     		ldr	r3, [r7, #4]
 2095 0096 5B6A     		ldr	r3, [r3, #36]	@ float
 2096              	.L132:
 2097              		.loc 1 433 0 discriminator 8
 2098 0098 3A68     		ldr	r2, [r7]
ARM GAS  C:\Users\JENNEW~1\AppData\Local\Temp\ccfmLJ2w.s 			page 47


 2099 009a 5360     		str	r3, [r2, #4]	@ float
 434:app_state_auto.c **** }
 2100              		.loc 1 434 0 is_stmt 1 discriminator 8
 2101 009c 00BF     		nop
 2102 009e 0837     		adds	r7, r7, #8
 2103              		.cfi_def_cfa_offset 8
 2104 00a0 BD46     		mov	sp, r7
 2105              		.cfi_def_cfa_register 13
 2106              		@ sp needed
 2107 00a2 80BD     		pop	{r7, pc}
 2108              	.L145:
 2109              		.align	2
 2110              	.L144:
 2111 00a4 000080BF 		.word	-1082130432
 2112              		.cfi_endproc
 2113              	.LFE82:
 2114              		.size	build_auto_acq_gps, .-build_auto_acq_gps
 2115              		.section	.rodata
 2116              		.align	2
 2117              	.LC15:
 2118 0284 0D0A5B41 		.ascii	"\015\012[AUTO_ACQ_SPIRAL] placeholder (NI).\015\012"
 2118      55544F5F 
 2118      4143515F 
 2118      53504952 
 2118      414C5D20 
 2119 02ab 3E2000   		.ascii	"> \000"
 2120              		.section	.text.entry_auto_acq_spiral,"ax",%progbits
 2121              		.align	2
 2122              		.global	entry_auto_acq_spiral
 2123              		.thumb
 2124              		.thumb_func
 2125              		.type	entry_auto_acq_spiral, %function
 2126              	entry_auto_acq_spiral:
 2127              	.LFB83:
 435:app_state_auto.c **** 
 436:app_state_auto.c **** 
 437:app_state_auto.c **** // %==========================================================================%
 438:app_state_auto.c **** // %                           AUTO_ACQ_SPIRAL                                %
 439:app_state_auto.c **** // %==========================================================================%
 440:app_state_auto.c **** void entry_auto_acq_spiral(app_ctx_t *ctx)
 441:app_state_auto.c **** {
 2128              		.loc 1 441 0
 2129              		.cfi_startproc
 2130              		@ args = 0, pretend = 0, frame = 8
 2131              		@ frame_needed = 1, uses_anonymous_args = 0
 2132 0000 80B5     		push	{r7, lr}
 2133              		.cfi_def_cfa_offset 8
 2134              		.cfi_offset 7, -8
 2135              		.cfi_offset 14, -4
 2136 0002 82B0     		sub	sp, sp, #8
 2137              		.cfi_def_cfa_offset 16
 2138 0004 00AF     		add	r7, sp, #0
 2139              		.cfi_def_cfa_register 7
 2140 0006 7860     		str	r0, [r7, #4]
 442:app_state_auto.c ****     // Not implemented.
 443:app_state_auto.c ****     (void)ctx;
 444:app_state_auto.c ****     UART_DEBUG_PutString("\r\n[AUTO_ACQ_SPIRAL] placeholder (NI).\r\n> ");
ARM GAS  C:\Users\JENNEW~1\AppData\Local\Temp\ccfmLJ2w.s 			page 48


 2141              		.loc 1 444 0
 2142 0008 0348     		ldr	r0, .L147
 2143 000a FFF7FEFF 		bl	UART_DEBUG_PutString
 445:app_state_auto.c **** }
 2144              		.loc 1 445 0
 2145 000e 00BF     		nop
 2146 0010 0837     		adds	r7, r7, #8
 2147              		.cfi_def_cfa_offset 8
 2148 0012 BD46     		mov	sp, r7
 2149              		.cfi_def_cfa_register 13
 2150              		@ sp needed
 2151 0014 80BD     		pop	{r7, pc}
 2152              	.L148:
 2153 0016 00BF     		.align	2
 2154              	.L147:
 2155 0018 84020000 		.word	.LC15
 2156              		.cfi_endproc
 2157              	.LFE83:
 2158              		.size	entry_auto_acq_spiral, .-entry_auto_acq_spiral
 2159              		.section	.rodata
 2160 02ae 0000     		.align	2
 2161              	.LC16:
 2162 02b0 0D0A5B41 		.ascii	"\015\012[AUTO_TRACKING] closed-loop  e=exit\015\012"
 2162      55544F5F 
 2162      54524143 
 2162      4B494E47 
 2162      5D20636C 
 2163 02d7 3E2000   		.ascii	"> \000"
 2164              		.section	.text.entry_auto_tracking,"ax",%progbits
 2165              		.align	2
 2166              		.global	entry_auto_tracking
 2167              		.thumb
 2168              		.thumb_func
 2169              		.type	entry_auto_tracking, %function
 2170              	entry_auto_tracking:
 2171              	.LFB84:
 446:app_state_auto.c **** 
 447:app_state_auto.c **** // %==========================================================================%
 448:app_state_auto.c **** // %                            AUTO_TRACKING                                 %
 449:app_state_auto.c **** // %==========================================================================%
 450:app_state_auto.c **** void entry_auto_tracking(app_ctx_t *ctx)
 451:app_state_auto.c **** {
 2172              		.loc 1 451 0
 2173              		.cfi_startproc
 2174              		@ args = 0, pretend = 0, frame = 8
 2175              		@ frame_needed = 1, uses_anonymous_args = 0
 2176 0000 80B5     		push	{r7, lr}
 2177              		.cfi_def_cfa_offset 8
 2178              		.cfi_offset 7, -8
 2179              		.cfi_offset 14, -4
 2180 0002 82B0     		sub	sp, sp, #8
 2181              		.cfi_def_cfa_offset 16
 2182 0004 00AF     		add	r7, sp, #0
 2183              		.cfi_def_cfa_register 7
 2184 0006 7860     		str	r0, [r7, #4]
 452:app_state_auto.c ****     // Clear any old values for clean handover.
 453:app_state_auto.c ****     ctx->track_cx_last = 0;  // Clear last centroid value
ARM GAS  C:\Users\JENNEW~1\AppData\Local\Temp\ccfmLJ2w.s 			page 49


 2185              		.loc 1 453 0
 2186 0008 7B68     		ldr	r3, [r7, #4]
 2187 000a 0022     		movs	r2, #0
 2188 000c A3F85820 		strh	r2, [r3, #88]	@ movhi
 454:app_state_auto.c ****     ctx->track_cy_last = 0;
 2189              		.loc 1 454 0
 2190 0010 7B68     		ldr	r3, [r7, #4]
 2191 0012 0022     		movs	r2, #0
 2192 0014 A3F85A20 		strh	r2, [r3, #90]	@ movhi
 455:app_state_auto.c ****     UART_DEBUG_PutString("\r\n[AUTO_TRACKING] closed-loop  e=exit\r\n> ");
 2193              		.loc 1 455 0
 2194 0018 0348     		ldr	r0, .L150
 2195 001a FFF7FEFF 		bl	UART_DEBUG_PutString
 456:app_state_auto.c **** }
 2196              		.loc 1 456 0
 2197 001e 00BF     		nop
 2198 0020 0837     		adds	r7, r7, #8
 2199              		.cfi_def_cfa_offset 8
 2200 0022 BD46     		mov	sp, r7
 2201              		.cfi_def_cfa_register 13
 2202              		@ sp needed
 2203 0024 80BD     		pop	{r7, pc}
 2204              	.L151:
 2205 0026 00BF     		.align	2
 2206              	.L150:
 2207 0028 B0020000 		.word	.LC16
 2208              		.cfi_endproc
 2209              	.LFE84:
 2210              		.size	entry_auto_tracking, .-entry_auto_tracking
 2211              		.section	.text.key_auto_tracking,"ax",%progbits
 2212              		.align	2
 2213              		.global	key_auto_tracking
 2214              		.thumb
 2215              		.thumb_func
 2216              		.type	key_auto_tracking, %function
 2217              	key_auto_tracking:
 2218              	.LFB85:
 457:app_state_auto.c **** 
 458:app_state_auto.c **** uint8_t key_auto_tracking(app_ctx_t *ctx, char k)
 459:app_state_auto.c **** {
 2219              		.loc 1 459 0
 2220              		.cfi_startproc
 2221              		@ args = 0, pretend = 0, frame = 8
 2222              		@ frame_needed = 1, uses_anonymous_args = 0
 2223 0000 80B5     		push	{r7, lr}
 2224              		.cfi_def_cfa_offset 8
 2225              		.cfi_offset 7, -8
 2226              		.cfi_offset 14, -4
 2227 0002 82B0     		sub	sp, sp, #8
 2228              		.cfi_def_cfa_offset 16
 2229 0004 00AF     		add	r7, sp, #0
 2230              		.cfi_def_cfa_register 7
 2231 0006 7860     		str	r0, [r7, #4]
 2232 0008 0B46     		mov	r3, r1
 2233 000a FB70     		strb	r3, [r7, #3]
 460:app_state_auto.c ****     // TEMP: Debug exit to hold with e over serial.
 461:app_state_auto.c ****     switch (k) {
ARM GAS  C:\Users\JENNEW~1\AppData\Local\Temp\ccfmLJ2w.s 			page 50


 2234              		.loc 1 461 0
 2235 000c FB78     		ldrb	r3, [r7, #3]	@ zero_extendqisi2
 2236 000e 652B     		cmp	r3, #101
 2237 0010 05D1     		bne	.L156
 462:app_state_auto.c ****         case 'e': app_transition(ctx, STBY_HOLD); return 1;
 2238              		.loc 1 462 0
 2239 0012 0621     		movs	r1, #6
 2240 0014 7868     		ldr	r0, [r7, #4]
 2241 0016 FFF7FEFF 		bl	app_transition
 2242 001a 0123     		movs	r3, #1
 2243 001c 00E0     		b	.L155
 2244              	.L156:
 463:app_state_auto.c ****         default:  return 0;
 2245              		.loc 1 463 0
 2246 001e 0023     		movs	r3, #0
 2247              	.L155:
 464:app_state_auto.c ****     }
 465:app_state_auto.c **** }
 2248              		.loc 1 465 0
 2249 0020 1846     		mov	r0, r3
 2250 0022 0837     		adds	r7, r7, #8
 2251              		.cfi_def_cfa_offset 8
 2252 0024 BD46     		mov	sp, r7
 2253              		.cfi_def_cfa_register 13
 2254              		@ sp needed
 2255 0026 80BD     		pop	{r7, pc}
 2256              		.cfi_endproc
 2257              	.LFE85:
 2258              		.size	key_auto_tracking, .-key_auto_tracking
 2259              		.section	.text.build_auto_tracking,"ax",%progbits
 2260              		.align	2
 2261              		.global	build_auto_tracking
 2262              		.thumb
 2263              		.thumb_func
 2264              		.type	build_auto_tracking, %function
 2265              	build_auto_tracking:
 2266              	.LFB86:
 466:app_state_auto.c **** 
 467:app_state_auto.c **** void build_auto_tracking(const app_ctx_t *ctx, hamfly_control_t *out)
 468:app_state_auto.c **** {
 2267              		.loc 1 468 0
 2268              		.cfi_startproc
 2269              		@ args = 0, pretend = 0, frame = 16
 2270              		@ frame_needed = 1, uses_anonymous_args = 0
 2271 0000 80B5     		push	{r7, lr}
 2272              		.cfi_def_cfa_offset 8
 2273              		.cfi_offset 7, -8
 2274              		.cfi_offset 14, -4
 2275 0002 84B0     		sub	sp, sp, #16
 2276              		.cfi_def_cfa_offset 24
 2277 0004 00AF     		add	r7, sp, #0
 2278              		.cfi_def_cfa_register 7
 2279 0006 7860     		str	r0, [r7, #4]
 2280 0008 3960     		str	r1, [r7]
 469:app_state_auto.c ****     // Construct control packet from centroid error signal.
 470:app_state_auto.c ****     out->kill      = 0u;
 2281              		.loc 1 470 0
ARM GAS  C:\Users\JENNEW~1\AppData\Local\Temp\ccfmLJ2w.s 			page 51


 2282 000a 3B68     		ldr	r3, [r7]
 2283 000c 0022     		movs	r2, #0
 2284 000e 1A74     		strb	r2, [r3, #16]
 471:app_state_auto.c ****     out->roll_mode = HAMFLY_DEFER;  // No roll
 2285              		.loc 1 471 0
 2286 0010 3B68     		ldr	r3, [r7]
 2287 0012 0022     		movs	r2, #0
 2288 0014 9A73     		strb	r2, [r3, #14]
 472:app_state_auto.c ****     out->roll      = 0.0f;
 2289              		.loc 1 472 0
 2290 0016 3B68     		ldr	r3, [r7]
 2291 0018 4FF00002 		mov	r2, #0
 2292 001c 9A60     		str	r2, [r3, #8]	@ float
 473:app_state_auto.c ****     out->pan_mode  = out->tilt_mode = HAMFLY_RATE;  // Rate mode
 2293              		.loc 1 473 0
 2294 001e 3B68     		ldr	r3, [r7]
 2295 0020 0122     		movs	r2, #1
 2296 0022 5A73     		strb	r2, [r3, #13]
 2297 0024 3B68     		ldr	r3, [r7]
 2298 0026 5A7B     		ldrb	r2, [r3, #13]	@ zero_extendqisi2
 2299 0028 3B68     		ldr	r3, [r7]
 2300 002a 1A73     		strb	r2, [r3, #12]
 474:app_state_auto.c ****     float cx_mrad = (float)ctx->track_cx_last * 0.1f;  // 0.1 mrad to mrad
 2301              		.loc 1 474 0
 2302 002c 7B68     		ldr	r3, [r7, #4]
 2303 002e B3F95830 		ldrsh	r3, [r3, #88]
 2304 0032 1846     		mov	r0, r3
 2305 0034 FFF7FEFF 		bl	__aeabi_i2f
 2306 0038 0346     		mov	r3, r0
 2307 003a 3749     		ldr	r1, .L178
 2308 003c 1846     		mov	r0, r3
 2309 003e FFF7FEFF 		bl	__aeabi_fmul
 2310 0042 0346     		mov	r3, r0
 2311 0044 FB60     		str	r3, [r7, #12]	@ float
 475:app_state_auto.c ****     float cy_mrad = (float)ctx->track_cy_last * 0.1f;
 2312              		.loc 1 475 0
 2313 0046 7B68     		ldr	r3, [r7, #4]
 2314 0048 B3F95A30 		ldrsh	r3, [r3, #90]
 2315 004c 1846     		mov	r0, r3
 2316 004e FFF7FEFF 		bl	__aeabi_i2f
 2317 0052 0346     		mov	r3, r0
 2318 0054 3049     		ldr	r1, .L178
 2319 0056 1846     		mov	r0, r3
 2320 0058 FFF7FEFF 		bl	__aeabi_fmul
 2321 005c 0346     		mov	r3, r0
 2322 005e BB60     		str	r3, [r7, #8]	@ float
 476:app_state_auto.c ****     // Simple proportional gain linear feedback.
 477:app_state_auto.c ****     out->pan  =  CLAMP(ctx->track_kp * cx_mrad, -1.0f, 1.0f);  // TODO: Confirm direction
 2323              		.loc 1 477 0
 2324 0060 7B68     		ldr	r3, [r7, #4]
 2325 0062 5B6D     		ldr	r3, [r3, #84]	@ float
 2326 0064 F968     		ldr	r1, [r7, #12]	@ float
 2327 0066 1846     		mov	r0, r3
 2328 0068 FFF7FEFF 		bl	__aeabi_fmul
 2329 006c 0346     		mov	r3, r0
 2330 006e 2B49     		ldr	r1, .L178+4
 2331 0070 1846     		mov	r0, r3
ARM GAS  C:\Users\JENNEW~1\AppData\Local\Temp\ccfmLJ2w.s 			page 52


 2332 0072 FFF7FEFF 		bl	__aeabi_fcmplt
 2333 0076 0346     		mov	r3, r0
 2334 0078 002B     		cmp	r3, #0
 2335 007a 01D0     		beq	.L174
 2336              		.loc 1 477 0 is_stmt 0 discriminator 1
 2337 007c 274B     		ldr	r3, .L178+4
 2338 007e 18E0     		b	.L160
 2339              	.L174:
 2340              		.loc 1 477 0 discriminator 2
 2341 0080 7B68     		ldr	r3, [r7, #4]
 2342 0082 5B6D     		ldr	r3, [r3, #84]	@ float
 2343 0084 F968     		ldr	r1, [r7, #12]	@ float
 2344 0086 1846     		mov	r0, r3
 2345 0088 FFF7FEFF 		bl	__aeabi_fmul
 2346 008c 0346     		mov	r3, r0
 2347 008e 4FF07E51 		mov	r1, #1065353216
 2348 0092 1846     		mov	r0, r3
 2349 0094 FFF7FEFF 		bl	__aeabi_fcmpgt
 2350 0098 0346     		mov	r3, r0
 2351 009a 002B     		cmp	r3, #0
 2352 009c 02D0     		beq	.L175
 2353              		.loc 1 477 0 discriminator 4
 2354 009e 4FF07E53 		mov	r3, #1065353216
 2355 00a2 06E0     		b	.L160
 2356              	.L175:
 2357              		.loc 1 477 0 discriminator 5
 2358 00a4 7B68     		ldr	r3, [r7, #4]
 2359 00a6 5B6D     		ldr	r3, [r3, #84]	@ float
 2360 00a8 F968     		ldr	r1, [r7, #12]	@ float
 2361 00aa 1846     		mov	r0, r3
 2362 00ac FFF7FEFF 		bl	__aeabi_fmul
 2363 00b0 0346     		mov	r3, r0
 2364              	.L160:
 2365              		.loc 1 477 0 discriminator 8
 2366 00b2 3A68     		ldr	r2, [r7]
 2367 00b4 1360     		str	r3, [r2]	@ float
 478:app_state_auto.c ****     out->tilt = -CLAMP(ctx->track_kp * cy_mrad, -1.0f, 1.0f);  // +cy = up
 2368              		.loc 1 478 0 is_stmt 1 discriminator 8
 2369 00b6 7B68     		ldr	r3, [r7, #4]
 2370 00b8 5B6D     		ldr	r3, [r3, #84]	@ float
 2371 00ba B968     		ldr	r1, [r7, #8]	@ float
 2372 00bc 1846     		mov	r0, r3
 2373 00be FFF7FEFF 		bl	__aeabi_fmul
 2374 00c2 0346     		mov	r3, r0
 2375 00c4 1549     		ldr	r1, .L178+4
 2376 00c6 1846     		mov	r0, r3
 2377 00c8 FFF7FEFF 		bl	__aeabi_fcmplt
 2378 00cc 0346     		mov	r3, r0
 2379 00ce 002B     		cmp	r3, #0
 2380 00d0 02D0     		beq	.L176
 2381              		.loc 1 478 0 is_stmt 0 discriminator 1
 2382 00d2 4FF07E53 		mov	r3, #1065353216
 2383 00d6 19E0     		b	.L166
 2384              	.L176:
 2385              		.loc 1 478 0 discriminator 2
 2386 00d8 7B68     		ldr	r3, [r7, #4]
 2387 00da 5B6D     		ldr	r3, [r3, #84]	@ float
ARM GAS  C:\Users\JENNEW~1\AppData\Local\Temp\ccfmLJ2w.s 			page 53


 2388 00dc B968     		ldr	r1, [r7, #8]	@ float
 2389 00de 1846     		mov	r0, r3
 2390 00e0 FFF7FEFF 		bl	__aeabi_fmul
 2391 00e4 0346     		mov	r3, r0
 2392 00e6 4FF07E51 		mov	r1, #1065353216
 2393 00ea 1846     		mov	r0, r3
 2394 00ec FFF7FEFF 		bl	__aeabi_fcmpgt
 2395 00f0 0346     		mov	r3, r0
 2396 00f2 002B     		cmp	r3, #0
 2397 00f4 01D0     		beq	.L177
 2398              		.loc 1 478 0 discriminator 4
 2399 00f6 094B     		ldr	r3, .L178+4
 2400 00f8 08E0     		b	.L166
 2401              	.L177:
 2402              		.loc 1 478 0 discriminator 5
 2403 00fa 7B68     		ldr	r3, [r7, #4]
 2404 00fc 5B6D     		ldr	r3, [r3, #84]	@ float
 2405 00fe B968     		ldr	r1, [r7, #8]	@ float
 2406 0100 1846     		mov	r0, r3
 2407 0102 FFF7FEFF 		bl	__aeabi_fmul
 2408 0106 0346     		mov	r3, r0
 2409 0108 83F00043 		eor	r3, r3, #-2147483648
 2410              	.L166:
 2411              		.loc 1 478 0 discriminator 8
 2412 010c 3A68     		ldr	r2, [r7]
 2413 010e 5360     		str	r3, [r2, #4]	@ float
 479:app_state_auto.c **** }
 2414              		.loc 1 479 0 is_stmt 1 discriminator 8
 2415 0110 00BF     		nop
 2416 0112 1037     		adds	r7, r7, #16
 2417              		.cfi_def_cfa_offset 8
 2418 0114 BD46     		mov	sp, r7
 2419              		.cfi_def_cfa_register 13
 2420              		@ sp needed
 2421 0116 80BD     		pop	{r7, pc}
 2422              	.L179:
 2423              		.align	2
 2424              	.L178:
 2425 0118 CDCCCC3D 		.word	1036831949
 2426 011c 000080BF 		.word	-1082130432
 2427              		.cfi_endproc
 2428              	.LFE86:
 2429              		.size	build_auto_tracking, .-build_auto_tracking
 2430              		.section	.rodata
 2431 02da 0000     		.align	2
 2432              	.LC17:
 2433 02dc 0D0A5B41 		.ascii	"\015\012[AUTO_LOSS] centroid lost, holding. Waiting"
 2433      55544F5F 
 2433      4C4F5353 
 2433      5D206365 
 2433      6E74726F 
 2434 0309 20666F72 		.ascii	" for centroid return or user input.\015\012> \000"
 2434      2063656E 
 2434      74726F69 
 2434      64207265 
 2434      7475726E 
 2435              		.section	.text.entry_auto_loss,"ax",%progbits
ARM GAS  C:\Users\JENNEW~1\AppData\Local\Temp\ccfmLJ2w.s 			page 54


 2436              		.align	2
 2437              		.global	entry_auto_loss
 2438              		.thumb
 2439              		.thumb_func
 2440              		.type	entry_auto_loss, %function
 2441              	entry_auto_loss:
 2442              	.LFB87:
 480:app_state_auto.c **** 
 481:app_state_auto.c **** // %==========================================================================%
 482:app_state_auto.c **** // %                              AUTO_LOSS                                   %
 483:app_state_auto.c **** // %==========================================================================%
 484:app_state_auto.c **** void entry_auto_loss(app_ctx_t *ctx)
 485:app_state_auto.c **** {
 2443              		.loc 1 485 0
 2444              		.cfi_startproc
 2445              		@ args = 0, pretend = 0, frame = 8
 2446              		@ frame_needed = 1, uses_anonymous_args = 0
 2447 0000 80B5     		push	{r7, lr}
 2448              		.cfi_def_cfa_offset 8
 2449              		.cfi_offset 7, -8
 2450              		.cfi_offset 14, -4
 2451 0002 82B0     		sub	sp, sp, #8
 2452              		.cfi_def_cfa_offset 16
 2453 0004 00AF     		add	r7, sp, #0
 2454              		.cfi_def_cfa_register 7
 2455 0006 7860     		str	r0, [r7, #4]
 486:app_state_auto.c ****     // TODO: Loss should hold and wait. If packets re-commence go back to tracking,
 487:app_state_auto.c ****     // TODO: Let user trigger spiral search, GPS re-acq, or exit to STBY later.
 488:app_state_auto.c ****     (void)ctx;
 489:app_state_auto.c ****     UART_DEBUG_PutString("\r\n[AUTO_LOSS] centroid lost, holding. "
 2456              		.loc 1 489 0
 2457 0008 0348     		ldr	r0, .L181
 2458 000a FFF7FEFF 		bl	UART_DEBUG_PutString
 490:app_state_auto.c ****                          "Waiting for centroid return or user input.\r\n> ");
 491:app_state_auto.c **** }
 2459              		.loc 1 491 0
 2460 000e 00BF     		nop
 2461 0010 0837     		adds	r7, r7, #8
 2462              		.cfi_def_cfa_offset 8
 2463 0012 BD46     		mov	sp, r7
 2464              		.cfi_def_cfa_register 13
 2465              		@ sp needed
 2466 0014 80BD     		pop	{r7, pc}
 2467              	.L182:
 2468 0016 00BF     		.align	2
 2469              	.L181:
 2470 0018 DC020000 		.word	.LC17
 2471              		.cfi_endproc
 2472              	.LFE87:
 2473              		.size	entry_auto_loss, .-entry_auto_loss
 2474              		.section	.text.key_auto_loss,"ax",%progbits
 2475              		.align	2
 2476              		.global	key_auto_loss
 2477              		.thumb
 2478              		.thumb_func
 2479              		.type	key_auto_loss, %function
 2480              	key_auto_loss:
ARM GAS  C:\Users\JENNEW~1\AppData\Local\Temp\ccfmLJ2w.s 			page 55


 2481              	.LFB88:
 492:app_state_auto.c **** 
 493:app_state_auto.c **** uint8_t key_auto_loss(app_ctx_t *ctx, char k)
 494:app_state_auto.c **** {
 2482              		.loc 1 494 0
 2483              		.cfi_startproc
 2484              		@ args = 0, pretend = 0, frame = 8
 2485              		@ frame_needed = 1, uses_anonymous_args = 0
 2486 0000 80B5     		push	{r7, lr}
 2487              		.cfi_def_cfa_offset 8
 2488              		.cfi_offset 7, -8
 2489              		.cfi_offset 14, -4
 2490 0002 82B0     		sub	sp, sp, #8
 2491              		.cfi_def_cfa_offset 16
 2492 0004 00AF     		add	r7, sp, #0
 2493              		.cfi_def_cfa_register 7
 2494 0006 7860     		str	r0, [r7, #4]
 2495 0008 0B46     		mov	r3, r1
 2496 000a FB70     		strb	r3, [r7, #3]
 495:app_state_auto.c ****     if (handle_nudge_key(ctx, k)) return 1;
 2497              		.loc 1 495 0
 2498 000c FB78     		ldrb	r3, [r7, #3]	@ zero_extendqisi2
 2499 000e 1946     		mov	r1, r3
 2500 0010 7868     		ldr	r0, [r7, #4]
 2501 0012 FFF7FEFF 		bl	handle_nudge_key
 2502 0016 0346     		mov	r3, r0
 2503 0018 002B     		cmp	r3, #0
 2504 001a 01D0     		beq	.L184
 2505              		.loc 1 495 0 is_stmt 0 discriminator 1
 2506 001c 0123     		movs	r3, #1
 2507 001e 09E0     		b	.L185
 2508              	.L184:
 496:app_state_auto.c ****     switch (k) {  // Keep stationary, spiral search if requested.
 2509              		.loc 1 496 0 is_stmt 1
 2510 0020 FB78     		ldrb	r3, [r7, #3]	@ zero_extendqisi2
 2511 0022 332B     		cmp	r3, #51
 2512 0024 05D1     		bne	.L188
 497:app_state_auto.c ****         case '3': app_transition(ctx, AUTO_ACQ_SPIRAL); return 1;
 2513              		.loc 1 497 0
 2514 0026 0B21     		movs	r1, #11
 2515 0028 7868     		ldr	r0, [r7, #4]
 2516 002a FFF7FEFF 		bl	app_transition
 2517 002e 0123     		movs	r3, #1
 2518 0030 00E0     		b	.L185
 2519              	.L188:
 498:app_state_auto.c ****         default:  return 0;
 2520              		.loc 1 498 0
 2521 0032 0023     		movs	r3, #0
 2522              	.L185:
 499:app_state_auto.c ****     }
 500:app_state_auto.c **** }
 2523              		.loc 1 500 0
 2524 0034 1846     		mov	r0, r3
 2525 0036 0837     		adds	r7, r7, #8
 2526              		.cfi_def_cfa_offset 8
 2527 0038 BD46     		mov	sp, r7
 2528              		.cfi_def_cfa_register 13
ARM GAS  C:\Users\JENNEW~1\AppData\Local\Temp\ccfmLJ2w.s 			page 56


 2529              		@ sp needed
 2530 003a 80BD     		pop	{r7, pc}
 2531              		.cfi_endproc
 2532              	.LFE88:
 2533              		.size	key_auto_loss, .-key_auto_loss
 2534              		.section	.rodata
 2535 0331 000000   		.align	2
 2536              	.LC18:
 2537 0334 0D0A5B41 		.ascii	"\015\012[AUTO_NO_LOCK] acquisition failed  1=hold  "
 2537      55544F5F 
 2537      4E4F5F4C 
 2537      4F434B5D 
 2537      20616371 
 2538 0361 333D7265 		.ascii	"3=retry\015\012> \000"
 2538      7472790D 
 2538      0A3E2000 
 2539              		.section	.text.entry_auto_no_lock,"ax",%progbits
 2540              		.align	2
 2541              		.global	entry_auto_no_lock
 2542              		.thumb
 2543              		.thumb_func
 2544              		.type	entry_auto_no_lock, %function
 2545              	entry_auto_no_lock:
 2546              	.LFB89:
 501:app_state_auto.c **** 
 502:app_state_auto.c **** // %==========================================================================%
 503:app_state_auto.c **** // %                             AUTO_NO_LOCK                                 %
 504:app_state_auto.c **** // %==========================================================================%
 505:app_state_auto.c **** void entry_auto_no_lock(app_ctx_t *ctx)
 506:app_state_auto.c **** {
 2547              		.loc 1 506 0
 2548              		.cfi_startproc
 2549              		@ args = 0, pretend = 0, frame = 8
 2550              		@ frame_needed = 1, uses_anonymous_args = 0
 2551 0000 80B5     		push	{r7, lr}
 2552              		.cfi_def_cfa_offset 8
 2553              		.cfi_offset 7, -8
 2554              		.cfi_offset 14, -4
 2555 0002 82B0     		sub	sp, sp, #8
 2556              		.cfi_def_cfa_offset 16
 2557 0004 00AF     		add	r7, sp, #0
 2558              		.cfi_def_cfa_register 7
 2559 0006 7860     		str	r0, [r7, #4]
 507:app_state_auto.c ****     (void)ctx;
 508:app_state_auto.c ****     UART_DEBUG_PutString("\r\n[AUTO_NO_LOCK] acquisition failed  1=hold  3=retry\r\n> ");
 2560              		.loc 1 508 0
 2561 0008 0348     		ldr	r0, .L190
 2562 000a FFF7FEFF 		bl	UART_DEBUG_PutString
 509:app_state_auto.c **** }
 2563              		.loc 1 509 0
 2564 000e 00BF     		nop
 2565 0010 0837     		adds	r7, r7, #8
 2566              		.cfi_def_cfa_offset 8
 2567 0012 BD46     		mov	sp, r7
 2568              		.cfi_def_cfa_register 13
 2569              		@ sp needed
 2570 0014 80BD     		pop	{r7, pc}
ARM GAS  C:\Users\JENNEW~1\AppData\Local\Temp\ccfmLJ2w.s 			page 57


 2571              	.L191:
 2572 0016 00BF     		.align	2
 2573              	.L190:
 2574 0018 34030000 		.word	.LC18
 2575              		.cfi_endproc
 2576              	.LFE89:
 2577              		.size	entry_auto_no_lock, .-entry_auto_no_lock
 2578              		.section	.text.key_auto_no_lock,"ax",%progbits
 2579              		.align	2
 2580              		.global	key_auto_no_lock
 2581              		.thumb
 2582              		.thumb_func
 2583              		.type	key_auto_no_lock, %function
 2584              	key_auto_no_lock:
 2585              	.LFB90:
 510:app_state_auto.c **** 
 511:app_state_auto.c **** uint8_t key_auto_no_lock(app_ctx_t *ctx, char k)
 512:app_state_auto.c **** {
 2586              		.loc 1 512 0
 2587              		.cfi_startproc
 2588              		@ args = 0, pretend = 0, frame = 8
 2589              		@ frame_needed = 1, uses_anonymous_args = 0
 2590 0000 80B5     		push	{r7, lr}
 2591              		.cfi_def_cfa_offset 8
 2592              		.cfi_offset 7, -8
 2593              		.cfi_offset 14, -4
 2594 0002 82B0     		sub	sp, sp, #8
 2595              		.cfi_def_cfa_offset 16
 2596 0004 00AF     		add	r7, sp, #0
 2597              		.cfi_def_cfa_register 7
 2598 0006 7860     		str	r0, [r7, #4]
 2599 0008 0B46     		mov	r3, r1
 2600 000a FB70     		strb	r3, [r7, #3]
 513:app_state_auto.c ****     if (handle_nudge_key(ctx, k)) return 1;
 2601              		.loc 1 513 0
 2602 000c FB78     		ldrb	r3, [r7, #3]	@ zero_extendqisi2
 2603 000e 1946     		mov	r1, r3
 2604 0010 7868     		ldr	r0, [r7, #4]
 2605 0012 FFF7FEFF 		bl	handle_nudge_key
 2606 0016 0346     		mov	r3, r0
 2607 0018 002B     		cmp	r3, #0
 2608 001a 01D0     		beq	.L193
 2609              		.loc 1 513 0 is_stmt 0 discriminator 1
 2610 001c 0123     		movs	r3, #1
 2611 001e 09E0     		b	.L194
 2612              	.L193:
 514:app_state_auto.c ****     switch (k) {
 2613              		.loc 1 514 0 is_stmt 1
 2614 0020 FB78     		ldrb	r3, [r7, #3]	@ zero_extendqisi2
 2615 0022 332B     		cmp	r3, #51
 2616 0024 05D1     		bne	.L197
 515:app_state_auto.c ****         case '3': app_transition(ctx, AUTO_ACQ_SPIRAL); return 1;
 2617              		.loc 1 515 0
 2618 0026 0B21     		movs	r1, #11
 2619 0028 7868     		ldr	r0, [r7, #4]
 2620 002a FFF7FEFF 		bl	app_transition
 2621 002e 0123     		movs	r3, #1
ARM GAS  C:\Users\JENNEW~1\AppData\Local\Temp\ccfmLJ2w.s 			page 58


 2622 0030 00E0     		b	.L194
 2623              	.L197:
 516:app_state_auto.c ****         default:  return 0;
 2624              		.loc 1 516 0
 2625 0032 0023     		movs	r3, #0
 2626              	.L194:
 517:app_state_auto.c ****     }
 518:app_state_auto.c **** }
 2627              		.loc 1 518 0
 2628 0034 1846     		mov	r0, r3
 2629 0036 0837     		adds	r7, r7, #8
 2630              		.cfi_def_cfa_offset 8
 2631 0038 BD46     		mov	sp, r7
 2632              		.cfi_def_cfa_register 13
 2633              		@ sp needed
 2634 003a 80BD     		pop	{r7, pc}
 2635              		.cfi_endproc
 2636              	.LFE90:
 2637              		.size	key_auto_no_lock, .-key_auto_no_lock
 2638              		.bss
 2639              		.align	2
 2640              	last_pt_ms.8132:
 2641 0000 00000000 		.space	4
 2642              		.section	.rodata
 2643 036d 000000   		.align	2
 2644              	.LC19:
 2645 0370 4300     		.ascii	"C\000"
 2646 0372 0000     		.align	2
 2647              	.LC20:
 2648 0374 4600     		.ascii	"F\000"
 2649              		.data
 2650              		.align	2
 2651              		.type	tag.8134, %object
 2652              		.size	tag.8134, 8
 2653              	tag.8134:
 2654 0000 70030000 		.word	.LC19
 2655 0004 74030000 		.word	.LC20
 2656              		.text
 2657              	.Letext0:
 2658              		.file 2 "c:\\program files (x86)\\cypress\\psoc creator\\4.4\\psoc creator\\import\\gnu\\arm\\5.4.
 2659              		.file 3 "c:\\program files (x86)\\cypress\\psoc creator\\4.4\\psoc creator\\import\\gnu\\arm\\5.4.
 2660              		.file 4 "..\\..\\..\\HamFlyAPI\\src/hamfly_core_control.h"
 2661              		.file 5 "..\\..\\..\\HamFlyAPI\\src/hamfly_core_hal.h"
 2662              		.file 6 "..\\..\\..\\HamFlyAPI\\src/hamfly_core_telemetry.h"
 2663              		.file 7 "..\\..\\..\\HamFlyAPI\\src/hamfly_comm_rb.h"
 2664              		.file 8 "..\\..\\..\\HamFlyAPI\\src/hamfly_core_gimbal.h"
 2665              		.file 9 "joystick.h"
 2666              		.file 10 "app_ctx.h"
 2667              		.file 11 "sbc_comms.h"
 2668              		.file 12 "Generated_Source\\PSoC5/core_cm3.h"