ARM GAS  C:\Users\JENNEW~1\AppData\Local\Temp\ccyw7p3O.s 			page 1


   1              		.syntax unified
   2              		.cpu cortex-m3
   3              		.fpu softvfp
   4              		.eabi_attribute 20, 1
   5              		.eabi_attribute 21, 1
   6              		.eabi_attribute 23, 3
   7              		.eabi_attribute 24, 1
   8              		.eabi_attribute 25, 1
   9              		.eabi_attribute 26, 1
  10              		.eabi_attribute 30, 6
  11              		.eabi_attribute 34, 1
  12              		.eabi_attribute 18, 4
  13              		.thumb
  14              		.syntax unified
  15              		.file	"app_state_stby.c"
  16              		.text
  17              	.Ltext0:
  18              		.cfi_sections	.debug_frame
  19              		.section	.rodata
  20              		.align	2
  21              	.LC0:
  22 0000 0D0A5B53 		.ascii	"\015\012[STBY_DEFER] '1' hold, '2' manual, '3' auto"
  22      5442595F 
  22      44454645 
  22      525D2027 
  22      31272068 
  23 002d 2C20273F 		.ascii	", '?' help\015\012> \000"
  23      27206865 
  23      6C700D0A 
  23      3E2000
  24              		.section	.text.entry_stby_defer,"ax",%progbits
  25              		.align	2
  26              		.global	entry_stby_defer
  27              		.thumb
  28              		.thumb_func
  29              		.type	entry_stby_defer, %function
  30              	entry_stby_defer:
  31              	.LFB63:
  32              		.file 1 "app_state_stby.c"
   1:app_state_stby.c **** /* ========================================
   2:app_state_stby.c ****  *
   3:app_state_stby.c ****  * Copyright Hamish Johnson, 2026
   4:app_state_stby.c ****  * All Rights Reserved
   5:app_state_stby.c ****  * UNPUBLISHED, LICENSED SOFTWARE.
   6:app_state_stby.c ****  *
   7:app_state_stby.c ****  * CONFIDENTIAL AND PROPRIETARY INFORMATION
   8:app_state_stby.c ****  * WHICH IS THE PROPERTY OF 
   9:app_state_stby.c ****  * Quantum Internet Systems Lab (QISL),
  10:app_state_stby.c ****  * Department of Physics, SFU, Canada.
  11:app_state_stby.c ****  *
  12:app_state_stby.c ****  * Author: Hamish Johnson (2026)
  13:app_state_stby.c ****  *
  14:app_state_stby.c ****  * ========================================
  15:app_state_stby.c ****  *
  16:app_state_stby.c ****  * Parent STBY - For all standby states.
  17:app_state_stby.c **** */
  18:app_state_stby.c **** 
ARM GAS  C:\Users\JENNEW~1\AppData\Local\Temp\ccyw7p3O.s 			page 2


  19:app_state_stby.c **** #include "app_state_stby.h"
  20:app_state_stby.c **** #include <project.h>  // For UART
  21:app_state_stby.c **** 
  22:app_state_stby.c **** // STBY_DEFER %===============================================================%
  23:app_state_stby.c **** // On Enter: Print message, wait for user input.
  24:app_state_stby.c **** void entry_stby_defer(app_ctx_t *ctx)
  25:app_state_stby.c **** {
  33              		.loc 1 25 0
  34              		.cfi_startproc
  35              		@ args = 0, pretend = 0, frame = 8
  36              		@ frame_needed = 1, uses_anonymous_args = 0
  37 0000 80B5     		push	{r7, lr}
  38              		.cfi_def_cfa_offset 8
  39              		.cfi_offset 7, -8
  40              		.cfi_offset 14, -4
  41 0002 82B0     		sub	sp, sp, #8
  42              		.cfi_def_cfa_offset 16
  43 0004 00AF     		add	r7, sp, #0
  44              		.cfi_def_cfa_register 7
  45 0006 7860     		str	r0, [r7, #4]
  26:app_state_stby.c ****     (void)ctx;
  27:app_state_stby.c ****     UART_DEBUG_PutString("\r\n[STBY_DEFER] '1' hold, '2' manual, '3' auto,"
  46              		.loc 1 27 0
  47 0008 0348     		ldr	r0, .L2
  48 000a FFF7FEFF 		bl	UART_DEBUG_PutString
  28:app_state_stby.c ****                          " '?' help\r\n> ");
  29:app_state_stby.c **** }
  49              		.loc 1 29 0
  50 000e 00BF     		nop
  51 0010 0837     		adds	r7, r7, #8
  52              		.cfi_def_cfa_offset 8
  53 0012 BD46     		mov	sp, r7
  54              		.cfi_def_cfa_register 13
  55              		@ sp needed
  56 0014 80BD     		pop	{r7, pc}
  57              	.L3:
  58 0016 00BF     		.align	2
  59              	.L2:
  60 0018 00000000 		.word	.LC0
  61              		.cfi_endproc
  62              	.LFE63:
  63              		.size	entry_stby_defer, .-entry_stby_defer
  64              		.section	.rodata
  65              		.align	2
  66              	.LC1:
  67 003c 0D0A5B53 		.ascii	"\015\012[STBY_HOLD] rates zeroed\015\012> \000"
  67      5442595F 
  67      484F4C44 
  67      5D207261 
  67      74657320 
  68              		.section	.text.entry_stby_hold,"ax",%progbits
  69              		.align	2
  70              		.global	entry_stby_hold
  71              		.thumb
  72              		.thumb_func
  73              		.type	entry_stby_hold, %function
  74              	entry_stby_hold:
ARM GAS  C:\Users\JENNEW~1\AppData\Local\Temp\ccyw7p3O.s 			page 3


  75              	.LFB64:
  30:app_state_stby.c **** // On Exit: None
  31:app_state_stby.c **** 
  32:app_state_stby.c **** // STBY_HOLD %================================================================%
  33:app_state_stby.c **** // On Enter
  34:app_state_stby.c **** void entry_stby_hold(app_ctx_t *ctx)
  35:app_state_stby.c **** {
  76              		.loc 1 35 0
  77              		.cfi_startproc
  78              		@ args = 0, pretend = 0, frame = 8
  79              		@ frame_needed = 1, uses_anonymous_args = 0
  80 0000 80B5     		push	{r7, lr}
  81              		.cfi_def_cfa_offset 8
  82              		.cfi_offset 7, -8
  83              		.cfi_offset 14, -4
  84 0002 82B0     		sub	sp, sp, #8
  85              		.cfi_def_cfa_offset 16
  86 0004 00AF     		add	r7, sp, #0
  87              		.cfi_def_cfa_register 7
  88 0006 7860     		str	r0, [r7, #4]
  36:app_state_stby.c ****     (void)ctx;
  37:app_state_stby.c ****     UART_DEBUG_PutString("\r\n[STBY_HOLD] rates zeroed\r\n> ");
  89              		.loc 1 37 0
  90 0008 0348     		ldr	r0, .L5
  91 000a FFF7FEFF 		bl	UART_DEBUG_PutString
  38:app_state_stby.c **** }
  92              		.loc 1 38 0
  93 000e 00BF     		nop
  94 0010 0837     		adds	r7, r7, #8
  95              		.cfi_def_cfa_offset 8
  96 0012 BD46     		mov	sp, r7
  97              		.cfi_def_cfa_register 13
  98              		@ sp needed
  99 0014 80BD     		pop	{r7, pc}
 100              	.L6:
 101 0016 00BF     		.align	2
 102              	.L5:
 103 0018 3C000000 		.word	.LC1
 104              		.cfi_endproc
 105              	.LFE64:
 106              		.size	entry_stby_hold, .-entry_stby_hold
 107              		.text
 108              	.Letext0:
 109              		.file 2 "c:\\program files (x86)\\cypress\\psoc creator\\4.4\\psoc creator\\import\\gnu\\arm\\5.4.
 110              		.file 3 "c:\\program files (x86)\\cypress\\psoc creator\\4.4\\psoc creator\\import\\gnu\\arm\\5.4.
 111              		.file 4 "..\\..\\..\\HamFlyAPI\\src/hamfly_core_control.h"
 112              		.file 5 "..\\..\\..\\HamFlyAPI\\src/hamfly_core_hal.h"
 113              		.file 6 "..\\..\\..\\HamFlyAPI\\src/hamfly_core_telemetry.h"
 114              		.file 7 "..\\..\\..\\HamFlyAPI\\src/hamfly_comm_rb.h"
 115              		.file 8 "..\\..\\..\\HamFlyAPI\\src/hamfly_core_gimbal.h"
 116              		.file 9 "joystick.h"
 117              		.file 10 "app_ctx.h"
 118              		.file 11 "Generated_Source\\PSoC5/core_cm3.h"