ARM GAS  C:\Users\JENNEW~1\AppData\Local\Temp\ccTobH5m.s 			page 1


   1              		.syntax unified
   2              		.cpu cortex-m3
   3              		.fpu softvfp
   4              		.eabi_attribute 20, 1
   5              		.eabi_attribute 21, 1
   6              		.eabi_attribute 23, 3
   7              		.eabi_attribute 24, 1
   8              		.eabi_attribute 25, 1
   9              		.eabi_attribute 26, 1
  10              		.eabi_attribute 30, 6
  11              		.eabi_attribute 34, 1
  12              		.eabi_attribute 18, 4
  13              		.thumb
  14              		.syntax unified
  15              		.file	"app_statemachine.c"
  16              		.text
  17              	.Ltext0:
  18              		.cfi_sections	.debug_frame
  19              		.section	.rodata
  20              		.align	2
  21              		.type	parent_of, %object
  22              		.size	parent_of, 16
  23              	parent_of:
  24 0000 00       		.byte	0
  25 0001 00       		.byte	0
  26 0002 00       		.byte	0
  27 0003 00       		.byte	0
  28 0004 00       		.byte	0
  29 0005 01       		.byte	1
  30 0006 01       		.byte	1
  31 0007 02       		.byte	2
  32 0008 02       		.byte	2
  33 0009 03       		.byte	3
  34 000a 03       		.byte	3
  35 000b 03       		.byte	3
  36 000c 03       		.byte	3
  37 000d 03       		.byte	3
  38 000e 03       		.byte	3
  39 000f 04       		.byte	4
  40              		.align	2
  41              		.type	on_entry, %object
  42              		.size	on_entry, 64
  43              	on_entry:
  44 0010 00000000 		.space	4
  45 0014 00000000 		.word	0
  46 0018 00000000 		.word	0
  47 001c 00000000 		.word	0
  48 0020 00000000 		.word	0
  49 0024 00000000 		.word	entry_stby_defer
  50 0028 00000000 		.word	entry_stby_hold
  51 002c 00000000 		.word	entry_manu_joystick
  52 0030 00000000 		.word	0
  53 0034 00000000 		.word	0
  54 0038 00000000 		.word	0
  55 003c 00000000 		.word	0
  56 0040 00000000 		.word	entry_auto_test
  57 0044 00000000 		.word	0
ARM GAS  C:\Users\JENNEW~1\AppData\Local\Temp\ccTobH5m.s 			page 2


  58 0048 00000000 		.word	0
  59 004c 00000000 		.word	entry_error_active
  60              		.align	2
  61              		.type	on_exit, %object
  62              		.size	on_exit, 64
  63              	on_exit:
  64 0050 00000000 		.space	4
  65 0054 00000000 		.word	0
  66 0058 00000000 		.word	0
  67 005c 00000000 		.word	0
  68 0060 00000000 		.word	0
  69 0064 00000000 		.word	0
  70 0068 00000000 		.word	0
  71 006c 00000000 		.word	exit_manu_joystick
  72 0070 00000000 		.word	0
  73 0074 00000000 		.word	0
  74 0078 00000000 		.word	0
  75 007c 00000000 		.word	0
  76 0080 00000000 		.word	0
  77 0084 00000000 		.word	0
  78 0088 00000000 		.word	0
  79 008c 00000000 		.word	0
  80              		.align	2
  81              		.type	on_key, %object
  82              		.size	on_key, 64
  83              	on_key:
  84 0090 00000000 		.space	20
  84      00000000 
  84      00000000 
  84      00000000 
  84      00000000 
  85 00a4 00000000 		.word	0
  86 00a8 00000000 		.word	0
  87 00ac 00000000 		.word	key_manu_joystick
  88 00b0 00000000 		.word	0
  89 00b4 00000000 		.word	0
  90 00b8 00000000 		.word	0
  91 00bc 00000000 		.word	0
  92 00c0 00000000 		.word	0
  93 00c4 00000000 		.word	0
  94 00c8 00000000 		.word	0
  95 00cc 00000000 		.word	key_error_active
  96              		.align	2
  97              		.type	on_build, %object
  98              		.size	on_build, 64
  99              	on_build:
 100 00d0 00000000 		.space	20
 100      00000000 
 100      00000000 
 100      00000000 
 100      00000000 
 101 00e4 00000000 		.word	build_stby
 102 00e8 00000000 		.word	build_stby
 103 00ec 00000000 		.word	build_manu_joystick
 104 00f0 00000000 		.word	0
 105 00f4 00000000 		.word	0
 106 00f8 00000000 		.word	0
ARM GAS  C:\Users\JENNEW~1\AppData\Local\Temp\ccTobH5m.s 			page 3


 107 00fc 00000000 		.word	0
 108 0100 00000000 		.word	build_zero
 109 0104 00000000 		.word	0
 110 0108 00000000 		.word	0
 111 010c 00000000 		.word	build_error
 112              		.section	.text.depth_of,"ax",%progbits
 113              		.align	2
 114              		.thumb
 115              		.thumb_func
 116              		.type	depth_of, %function
 117              	depth_of:
 118              	.LFB64:
 119              		.file 1 "app_statemachine.c"
   1:app_statemachine.c **** /* ========================================
   2:app_statemachine.c ****  *
   3:app_statemachine.c ****  * Copyright Hamish Johnson, 2026
   4:app_statemachine.c ****  * All Rights Reserved
   5:app_statemachine.c ****  * UNPUBLISHED, LICENSED SOFTWARE.
   6:app_statemachine.c ****  *
   7:app_statemachine.c ****  * CONFIDENTIAL AND PROPRIETARY INFORMATION
   8:app_statemachine.c ****  * WHICH IS THE PROPERTY OF 
   9:app_statemachine.c ****  * Quantum Internet Systems Lab (QISL),
  10:app_statemachine.c ****  * Department of Physics, SFU, Canada.
  11:app_statemachine.c ****  *
  12:app_statemachine.c ****  * Author: Hamish Johnson (2026)
  13:app_statemachine.c ****  *
  14:app_statemachine.c ****  * ========================================
  15:app_statemachine.c ****  *
  16:app_statemachine.c ****  * HFSM engine: parent table, LCA walk, transition driver, error raiser.
  17:app_statemachine.c ****  *
  18:app_statemachine.c ****  *   ROOT
  19:app_statemachine.c ****  *   ├─ STBY ── STBY_DEFER (boot)   STBY_HOLD
  20:app_statemachine.c ****  *   ├─ MANU ── MANU_JOYSTICK       MANU_NUDGE*
  21:app_statemachine.c ****  *   ├─ AUTO ── AUTO_HOME*  ACQ_GPS*  ACQ_SPIRAL*
  22:app_statemachine.c ****  *   │          TRACKING*   LOSS*     NO_LOCK*
  23:app_statemachine.c ****  *   └─ ERROR ─ ERROR_ACTIVE
  24:app_statemachine.c ****  * 
  25:app_statemachine.c ****  *      * = declared, not yet implemented
  26:app_statemachine.c ****  *
  27:app_statemachine.c ****  * KEYMAP (keep in sync with the key_* handlers in section 5):
  28:app_statemachine.c ****  *   GLOBAL (any non-FATAL leaf):
  29:app_statemachine.c ****  *     k       soft kill -> STBY_HOLD
  30:app_statemachine.c ****  *     [       capture origin from telemetry
  31:app_statemachine.c ****  *     ?       help
  32:app_statemachine.c ****  *     Ctrl+R  clear FATAL latch -> STBY_HOLD
  33:app_statemachine.c ****  *   NAV (suppressed where leaf_traps_nav()==1):
  34:app_statemachine.c ****  *     1/2/3   STBY_HOLD / MANU_JOYSTICK / AUTO
  35:app_statemachine.c ****  *   MANU_JOYSTICK leaf:
  36:app_statemachine.c ****  *     r/a     RATE / ABSOLUTE      e  exit -> STBY_HOLD
  37:app_statemachine.c ****  *     ]       -> AUTO_HOME
  38:app_statemachine.c ****  *
  39:app_statemachine.c ****  * DISPATCH PRECEDENCE (app_dispatch_key):
  40:app_statemachine.c ****  *     FATAL-lockout  >  global  >  leaf  >  nav
  41:app_statemachine.c **** */
  42:app_statemachine.c **** 
  43:app_statemachine.c **** #include "app_statemachine.h"
  44:app_statemachine.c **** #include "hamfly.h"
ARM GAS  C:\Users\JENNEW~1\AppData\Local\Temp\ccTobH5m.s 			page 4


  45:app_statemachine.c **** #include "sbc_comms.h"
  46:app_statemachine.c **** #include "telemetry.h"
  47:app_statemachine.c **** #include <project.h>  // For UART
  48:app_statemachine.c **** #include <math.h>
  49:app_statemachine.c **** #include <string.h>
  50:app_statemachine.c **** #include <stdio.h>
  51:app_statemachine.c **** 
  52:app_statemachine.c **** // For timing, PSoC incremented with looptimer ISR.
  53:app_statemachine.c **** extern volatile uint32_t g_tick_ms;
  54:app_statemachine.c **** 
  55:app_statemachine.c **** // Hierarchy %================================================================%
  56:app_statemachine.c **** // Heirarchy allows shared entry/exit behaviour.
  57:app_statemachine.c **** // ROOT is the base of the walk.
  58:app_statemachine.c **** static const state_t parent_of[STATE_COUNT] = {
  59:app_statemachine.c ****     [ROOT]            = ROOT,  // Book keeping
  60:app_statemachine.c ****     [STBY]            = ROOT,  // Parent states
  61:app_statemachine.c ****     [MANU]            = ROOT,
  62:app_statemachine.c ****     [AUTO]            = ROOT,
  63:app_statemachine.c ****     [ERROR]           = ROOT,
  64:app_statemachine.c **** 
  65:app_statemachine.c ****     [STBY_DEFER]      = STBY,  // Two types of standby
  66:app_statemachine.c ****     [STBY_HOLD]       = STBY,
  67:app_statemachine.c **** 
  68:app_statemachine.c ****     [MANU_JOYSTICK]   = MANU,  // TODO: Fold into one manual state with both active.
  69:app_statemachine.c ****     [MANU_NUDGE]      = MANU,  //       Currently nudge works during joystick.
  70:app_statemachine.c **** 
  71:app_statemachine.c ****     [AUTO_HOME]       = AUTO,  // Go to 0, 0
  72:app_statemachine.c ****     [AUTO_ACQ_GPS]    = AUTO,  // Go to GPS vector pointing
  73:app_statemachine.c ****     [AUTO_ACQ_SPIRAL] = AUTO,  // Spiral search for lock
  74:app_statemachine.c ****     [AUTO_TRACKING]   = AUTO,  // Closed loop tracking
  75:app_statemachine.c ****     [AUTO_LOSS]       = AUTO,  // Loss of centeroiding packets
  76:app_statemachine.c ****     [AUTO_NO_LOCK]    = AUTO,  // No lock after ACQ attempts
  77:app_statemachine.c **** 
  78:app_statemachine.c ****     [ERROR_ACTIVE]    = ERROR,  // Error state. TODO: Severity levels.
  79:app_statemachine.c **** };
  80:app_statemachine.c **** 
  81:app_statemachine.c **** // Per-state hook tables %====================================================%
  82:app_statemachine.c **** // Forward declaration of state handlers.
  83:app_statemachine.c **** typedef void    (*state_fn_t)(app_ctx_t *);  // Entry and Exit handlers
  84:app_statemachine.c **** typedef uint8_t (*key_fn_t)  (app_ctx_t *, char);  // Input handlers
  85:app_statemachine.c **** typedef void    (*build_fn_t)(const app_ctx_t *, hamfly_control_t *); //Packet
  86:app_statemachine.c **** 
  87:app_statemachine.c **** // Entry handlers
  88:app_statemachine.c **** static void entry_stby_defer   (app_ctx_t *);
  89:app_statemachine.c **** static void entry_stby_hold    (app_ctx_t *);
  90:app_statemachine.c **** static void entry_manu_joystick(app_ctx_t *);
  91:app_statemachine.c **** static void entry_error_active (app_ctx_t *);
  92:app_statemachine.c **** 
  93:app_statemachine.c **** static void entry_auto_test(app_ctx_t *ctx);
  94:app_statemachine.c **** 
  95:app_statemachine.c **** // Exit handlers
  96:app_statemachine.c **** static void exit_manu_joystick (app_ctx_t *);
  97:app_statemachine.c **** 
  98:app_statemachine.c **** // Key handlers
  99:app_statemachine.c **** static uint8_t key_manu_joystick(app_ctx_t *, char);
 100:app_statemachine.c **** static uint8_t key_error_active (app_ctx_t *, char);
 101:app_statemachine.c **** 
ARM GAS  C:\Users\JENNEW~1\AppData\Local\Temp\ccTobH5m.s 			page 5


 102:app_statemachine.c **** // Packet building handlers
 103:app_statemachine.c **** static void build_zero         (const app_ctx_t *, hamfly_control_t *);
 104:app_statemachine.c **** static void build_stby         (const app_ctx_t *, hamfly_control_t *);
 105:app_statemachine.c **** static void build_manu_joystick(const app_ctx_t *, hamfly_control_t *);
 106:app_statemachine.c **** static void build_error        (const app_ctx_t *, hamfly_control_t *);
 107:app_statemachine.c **** // AUTO_* and MANU_NUDGE: NULL in the tables until implemented
 108:app_statemachine.c **** 
 109:app_statemachine.c **** static const state_fn_t on_entry[STATE_COUNT] = {
 110:app_statemachine.c ****     [STBY]            = NULL,   /* parent: shared STBY entry, if ever needed */
 111:app_statemachine.c ****     [MANU]            = NULL,   /* parent */
 112:app_statemachine.c ****     [AUTO]            = NULL,   /* parent */
 113:app_statemachine.c ****     [ERROR]           = NULL,   /* parent */
 114:app_statemachine.c ****     [STBY_DEFER]      = entry_stby_defer,
 115:app_statemachine.c ****     [STBY_HOLD]       = entry_stby_hold,
 116:app_statemachine.c ****     [MANU_JOYSTICK]   = entry_manu_joystick,
 117:app_statemachine.c ****     [MANU_NUDGE]      = NULL,   /* TODO */
 118:app_statemachine.c ****     [AUTO_HOME]       = NULL,   /* TODO */
 119:app_statemachine.c ****     [AUTO_ACQ_GPS]    = NULL,   /* TODO */
 120:app_statemachine.c ****     [AUTO_ACQ_SPIRAL] = NULL,   /* TODO */
 121:app_statemachine.c ****     [AUTO_TRACKING]   = entry_auto_test,  // Temp for testing
 122:app_statemachine.c ****     [AUTO_LOSS]       = NULL,   /* TODO */
 123:app_statemachine.c ****     [AUTO_NO_LOCK]    = NULL,   /* TODO */
 124:app_statemachine.c ****     [ERROR_ACTIVE]    = entry_error_active,
 125:app_statemachine.c **** };
 126:app_statemachine.c **** 
 127:app_statemachine.c **** static const state_fn_t on_exit[STATE_COUNT] = {
 128:app_statemachine.c ****     [STBY]            = NULL,   /* parent */
 129:app_statemachine.c ****     [MANU]            = NULL,   /* parent */
 130:app_statemachine.c ****     [AUTO]            = NULL,   /* parent */
 131:app_statemachine.c ****     [ERROR]           = NULL,   /* parent */
 132:app_statemachine.c ****     [STBY_DEFER]      = NULL,
 133:app_statemachine.c ****     [STBY_HOLD]       = NULL,
 134:app_statemachine.c ****     [MANU_JOYSTICK]   = exit_manu_joystick,
 135:app_statemachine.c ****     [MANU_NUDGE]      = NULL,   /* TODO */
 136:app_statemachine.c ****     [AUTO_HOME]       = NULL,   /* TODO */
 137:app_statemachine.c ****     [AUTO_ACQ_GPS]    = NULL,   /* TODO */
 138:app_statemachine.c ****     [AUTO_ACQ_SPIRAL] = NULL,   /* TODO */
 139:app_statemachine.c ****     [AUTO_TRACKING]   = NULL ,  
 140:app_statemachine.c ****     [AUTO_LOSS]       = NULL,   /* TODO */
 141:app_statemachine.c ****     [AUTO_NO_LOCK]    = NULL,   /* TODO */
 142:app_statemachine.c ****     [ERROR_ACTIVE]    = NULL,
 143:app_statemachine.c **** };
 144:app_statemachine.c **** 
 145:app_statemachine.c **** static const key_fn_t on_key[STATE_COUNT] = {
 146:app_statemachine.c ****     [STBY_DEFER]      = NULL,
 147:app_statemachine.c ****     [STBY_HOLD]       = NULL,
 148:app_statemachine.c ****     [MANU_JOYSTICK]   = key_manu_joystick,
 149:app_statemachine.c ****     [MANU_NUDGE]      = NULL,   /* TODO */
 150:app_statemachine.c ****     [AUTO_HOME]       = NULL,   /* TODO */
 151:app_statemachine.c ****     [AUTO_ACQ_GPS]    = NULL,   /* TODO */
 152:app_statemachine.c ****     [AUTO_ACQ_SPIRAL] = NULL,   /* TODO */
 153:app_statemachine.c ****     [AUTO_TRACKING]   = NULL,   /* TODO */
 154:app_statemachine.c ****     [AUTO_LOSS]       = NULL,   /* TODO */
 155:app_statemachine.c ****     [AUTO_NO_LOCK]    = NULL,   /* TODO */
 156:app_statemachine.c ****     [ERROR_ACTIVE]    = key_error_active,
 157:app_statemachine.c **** };
 158:app_statemachine.c **** 
ARM GAS  C:\Users\JENNEW~1\AppData\Local\Temp\ccTobH5m.s 			page 6


 159:app_statemachine.c **** static const build_fn_t on_build[STATE_COUNT] = {
 160:app_statemachine.c ****     [STBY_DEFER]      = build_stby,
 161:app_statemachine.c ****     [STBY_HOLD]       = build_stby,
 162:app_statemachine.c ****     [MANU_JOYSTICK]   = build_manu_joystick,
 163:app_statemachine.c ****     [MANU_NUDGE]      = NULL,   /* TODO */
 164:app_statemachine.c ****     [AUTO_HOME]       = NULL,   /* TODO */
 165:app_statemachine.c ****     [AUTO_ACQ_GPS]    = NULL,   /* TODO */
 166:app_statemachine.c ****     [AUTO_ACQ_SPIRAL] = NULL,   /* TODO */
 167:app_statemachine.c ****     [AUTO_TRACKING]   = build_zero,  // Temp for testing.
 168:app_statemachine.c ****     [AUTO_LOSS]       = NULL,   /* TODO */
 169:app_statemachine.c ****     [AUTO_NO_LOCK]    = NULL,   /* TODO */
 170:app_statemachine.c ****     [ERROR_ACTIVE]    = build_error,
 171:app_statemachine.c **** };
 172:app_statemachine.c **** 
 173:app_statemachine.c **** // Lowest common ancestor (LCA) walk %========================================%
 174:app_statemachine.c **** // For a given state, walk up its parents to ROOT, then walk down to incoming
 175:app_statemachine.c **** // state. Allows for heirarchical and shared entry/exit behaviour.
 176:app_statemachine.c **** static uint8_t depth_of(state_t s)
 177:app_statemachine.c **** {
 120              		.loc 1 177 0
 121              		.cfi_startproc
 122              		@ args = 0, pretend = 0, frame = 16
 123              		@ frame_needed = 1, uses_anonymous_args = 0
 124              		@ link register save eliminated.
 125 0000 80B4     		push	{r7}
 126              		.cfi_def_cfa_offset 4
 127              		.cfi_offset 7, -4
 128 0002 85B0     		sub	sp, sp, #20
 129              		.cfi_def_cfa_offset 24
 130 0004 00AF     		add	r7, sp, #0
 131              		.cfi_def_cfa_register 7
 132 0006 0346     		mov	r3, r0
 133 0008 FB71     		strb	r3, [r7, #7]
 178:app_statemachine.c ****     uint8_t d = 0;
 134              		.loc 1 178 0
 135 000a 0023     		movs	r3, #0
 136 000c FB73     		strb	r3, [r7, #15]
 179:app_statemachine.c ****     while (s != ROOT) { s = parent_of[s]; d++; }
 137              		.loc 1 179 0
 138 000e 06E0     		b	.L2
 139              	.L3:
 140              		.loc 1 179 0 is_stmt 0 discriminator 2
 141 0010 FB79     		ldrb	r3, [r7, #7]	@ zero_extendqisi2
 142 0012 074A     		ldr	r2, .L5
 143 0014 D35C     		ldrb	r3, [r2, r3]
 144 0016 FB71     		strb	r3, [r7, #7]
 145 0018 FB7B     		ldrb	r3, [r7, #15]	@ zero_extendqisi2
 146 001a 0133     		adds	r3, r3, #1
 147 001c FB73     		strb	r3, [r7, #15]
 148              	.L2:
 149              		.loc 1 179 0 discriminator 1
 150 001e FB79     		ldrb	r3, [r7, #7]	@ zero_extendqisi2
 151 0020 002B     		cmp	r3, #0
 152 0022 F5D1     		bne	.L3
 180:app_statemachine.c ****     return d;
 153              		.loc 1 180 0 is_stmt 1
 154 0024 FB7B     		ldrb	r3, [r7, #15]	@ zero_extendqisi2
ARM GAS  C:\Users\JENNEW~1\AppData\Local\Temp\ccTobH5m.s 			page 7


 181:app_statemachine.c **** }
 155              		.loc 1 181 0
 156 0026 1846     		mov	r0, r3
 157 0028 1437     		adds	r7, r7, #20
 158              		.cfi_def_cfa_offset 4
 159 002a BD46     		mov	sp, r7
 160              		.cfi_def_cfa_register 13
 161              		@ sp needed
 162 002c 80BC     		pop	{r7}
 163              		.cfi_restore 7
 164              		.cfi_def_cfa_offset 0
 165 002e 7047     		bx	lr
 166              	.L6:
 167              		.align	2
 168              	.L5:
 169 0030 00000000 		.word	parent_of
 170              		.cfi_endproc
 171              	.LFE64:
 172              		.size	depth_of, .-depth_of
 173              		.section	.text.lca,"ax",%progbits
 174              		.align	2
 175              		.thumb
 176              		.thumb_func
 177              		.type	lca, %function
 178              	lca:
 179              	.LFB65:
 182:app_statemachine.c **** 
 183:app_statemachine.c **** static state_t lca(state_t a, state_t b)
 184:app_statemachine.c **** {
 180              		.loc 1 184 0
 181              		.cfi_startproc
 182              		@ args = 0, pretend = 0, frame = 16
 183              		@ frame_needed = 1, uses_anonymous_args = 0
 184 0000 80B5     		push	{r7, lr}
 185              		.cfi_def_cfa_offset 8
 186              		.cfi_offset 7, -8
 187              		.cfi_offset 14, -4
 188 0002 84B0     		sub	sp, sp, #16
 189              		.cfi_def_cfa_offset 24
 190 0004 00AF     		add	r7, sp, #0
 191              		.cfi_def_cfa_register 7
 192 0006 0346     		mov	r3, r0
 193 0008 0A46     		mov	r2, r1
 194 000a FB71     		strb	r3, [r7, #7]
 195 000c 1346     		mov	r3, r2
 196 000e BB71     		strb	r3, [r7, #6]
 185:app_statemachine.c ****     uint8_t da = depth_of(a), db = depth_of(b);
 197              		.loc 1 185 0
 198 0010 FB79     		ldrb	r3, [r7, #7]	@ zero_extendqisi2
 199 0012 1846     		mov	r0, r3
 200 0014 FFF7FEFF 		bl	depth_of
 201 0018 0346     		mov	r3, r0
 202 001a FB73     		strb	r3, [r7, #15]
 203 001c BB79     		ldrb	r3, [r7, #6]	@ zero_extendqisi2
 204 001e 1846     		mov	r0, r3
 205 0020 FFF7FEFF 		bl	depth_of
 206 0024 0346     		mov	r3, r0
ARM GAS  C:\Users\JENNEW~1\AppData\Local\Temp\ccTobH5m.s 			page 8


 207 0026 BB73     		strb	r3, [r7, #14]
 186:app_statemachine.c ****     while (da > db) { a = parent_of[a]; da--; }
 208              		.loc 1 186 0
 209 0028 06E0     		b	.L8
 210              	.L9:
 211              		.loc 1 186 0 is_stmt 0 discriminator 2
 212 002a FB79     		ldrb	r3, [r7, #7]	@ zero_extendqisi2
 213 002c 134A     		ldr	r2, .L15
 214 002e D35C     		ldrb	r3, [r2, r3]
 215 0030 FB71     		strb	r3, [r7, #7]
 216 0032 FB7B     		ldrb	r3, [r7, #15]	@ zero_extendqisi2
 217 0034 013B     		subs	r3, r3, #1
 218 0036 FB73     		strb	r3, [r7, #15]
 219              	.L8:
 220              		.loc 1 186 0 discriminator 1
 221 0038 FA7B     		ldrb	r2, [r7, #15]	@ zero_extendqisi2
 222 003a BB7B     		ldrb	r3, [r7, #14]	@ zero_extendqisi2
 223 003c 9A42     		cmp	r2, r3
 224 003e F4D8     		bhi	.L9
 187:app_statemachine.c ****     while (db > da) { b = parent_of[b]; db--; }
 225              		.loc 1 187 0 is_stmt 1
 226 0040 06E0     		b	.L10
 227              	.L11:
 228              		.loc 1 187 0 is_stmt 0 discriminator 2
 229 0042 BB79     		ldrb	r3, [r7, #6]	@ zero_extendqisi2
 230 0044 0D4A     		ldr	r2, .L15
 231 0046 D35C     		ldrb	r3, [r2, r3]
 232 0048 BB71     		strb	r3, [r7, #6]
 233 004a BB7B     		ldrb	r3, [r7, #14]	@ zero_extendqisi2
 234 004c 013B     		subs	r3, r3, #1
 235 004e BB73     		strb	r3, [r7, #14]
 236              	.L10:
 237              		.loc 1 187 0 discriminator 1
 238 0050 BA7B     		ldrb	r2, [r7, #14]	@ zero_extendqisi2
 239 0052 FB7B     		ldrb	r3, [r7, #15]	@ zero_extendqisi2
 240 0054 9A42     		cmp	r2, r3
 241 0056 F4D8     		bhi	.L11
 188:app_statemachine.c ****     while (a != b)  { a = parent_of[a]; b = parent_of[b]; }
 242              		.loc 1 188 0 is_stmt 1
 243 0058 07E0     		b	.L12
 244              	.L13:
 245              		.loc 1 188 0 is_stmt 0 discriminator 2
 246 005a FB79     		ldrb	r3, [r7, #7]	@ zero_extendqisi2
 247 005c 074A     		ldr	r2, .L15
 248 005e D35C     		ldrb	r3, [r2, r3]
 249 0060 FB71     		strb	r3, [r7, #7]
 250 0062 BB79     		ldrb	r3, [r7, #6]	@ zero_extendqisi2
 251 0064 054A     		ldr	r2, .L15
 252 0066 D35C     		ldrb	r3, [r2, r3]
 253 0068 BB71     		strb	r3, [r7, #6]
 254              	.L12:
 255              		.loc 1 188 0 discriminator 1
 256 006a FA79     		ldrb	r2, [r7, #7]	@ zero_extendqisi2
 257 006c BB79     		ldrb	r3, [r7, #6]	@ zero_extendqisi2
 258 006e 9A42     		cmp	r2, r3
 259 0070 F3D1     		bne	.L13
 189:app_statemachine.c ****     return a;
ARM GAS  C:\Users\JENNEW~1\AppData\Local\Temp\ccTobH5m.s 			page 9


 260              		.loc 1 189 0 is_stmt 1
 261 0072 FB79     		ldrb	r3, [r7, #7]	@ zero_extendqisi2
 190:app_statemachine.c **** }
 262              		.loc 1 190 0
 263 0074 1846     		mov	r0, r3
 264 0076 1037     		adds	r7, r7, #16
 265              		.cfi_def_cfa_offset 8
 266 0078 BD46     		mov	sp, r7
 267              		.cfi_def_cfa_register 13
 268              		@ sp needed
 269 007a 80BD     		pop	{r7, pc}
 270              	.L16:
 271              		.align	2
 272              	.L15:
 273 007c 00000000 		.word	parent_of
 274              		.cfi_endproc
 275              	.LFE65:
 276              		.size	lca, .-lca
 277              		.section	.text.transition,"ax",%progbits
 278              		.align	2
 279              		.thumb
 280              		.thumb_func
 281              		.type	transition, %function
 282              	transition:
 283              	.LFB66:
 191:app_statemachine.c **** 
 192:app_statemachine.c **** // Transition driver %========================================================%
 193:app_statemachine.c **** // Walk src up to LCA (running on_exit), then LCA down to target (running
 194:app_statemachine.c **** // on_entry). Self-transitions are a no-op. ROOT is the absorbing root, so
 195:app_statemachine.c **** // any pair has an LCA.
 196:app_statemachine.c **** 
 197:app_statemachine.c **** // Transition workhorse %=====================================================%
 198:app_statemachine.c **** //
 199:app_statemachine.c **** static void transition(app_ctx_t *ctx, state_t target)
 200:app_statemachine.c **** {
 284              		.loc 1 200 0
 285              		.cfi_startproc
 286              		@ args = 0, pretend = 0, frame = 24
 287              		@ frame_needed = 1, uses_anonymous_args = 0
 288 0000 80B5     		push	{r7, lr}
 289              		.cfi_def_cfa_offset 8
 290              		.cfi_offset 7, -8
 291              		.cfi_offset 14, -4
 292 0002 86B0     		sub	sp, sp, #24
 293              		.cfi_def_cfa_offset 32
 294 0004 00AF     		add	r7, sp, #0
 295              		.cfi_def_cfa_register 7
 296 0006 7860     		str	r0, [r7, #4]
 297 0008 0B46     		mov	r3, r1
 298 000a FB70     		strb	r3, [r7, #3]
 201:app_statemachine.c ****     // Self transition handle.
 202:app_statemachine.c ****     state_t src = ctx->state;
 299              		.loc 1 202 0
 300 000c 7B68     		ldr	r3, [r7, #4]
 301 000e 1B79     		ldrb	r3, [r3, #4]
 302 0010 3B75     		strb	r3, [r7, #20]
 203:app_statemachine.c ****     if (target == src) return;
ARM GAS  C:\Users\JENNEW~1\AppData\Local\Temp\ccTobH5m.s 			page 10


 303              		.loc 1 203 0
 304 0012 FA78     		ldrb	r2, [r7, #3]	@ zero_extendqisi2
 305 0014 3B7D     		ldrb	r3, [r7, #20]	@ zero_extendqisi2
 306 0016 9A42     		cmp	r2, r3
 307 0018 5DD0     		beq	.L27
 204:app_statemachine.c ****     
 205:app_statemachine.c ****     // LCA walk.
 206:app_statemachine.c ****     state_t common = lca(src, target);
 308              		.loc 1 206 0
 309 001a FA78     		ldrb	r2, [r7, #3]	@ zero_extendqisi2
 310 001c 3B7D     		ldrb	r3, [r7, #20]	@ zero_extendqisi2
 311 001e 1146     		mov	r1, r2
 312 0020 1846     		mov	r0, r3
 313 0022 FFF7FEFF 		bl	lca
 314 0026 0346     		mov	r3, r0
 315 0028 FB74     		strb	r3, [r7, #19]
 316              	.LBB2:
 207:app_statemachine.c **** 
 208:app_statemachine.c ****     // Shared parents require no duplicate on_exit calls.
 209:app_statemachine.c ****     // Walk up path, running on_exit.
 210:app_statemachine.c ****     for (state_t s = src; s != common; s = parent_of[s]) {
 317              		.loc 1 210 0
 318 002a 3B7D     		ldrb	r3, [r7, #20]
 319 002c FB75     		strb	r3, [r7, #23]
 320 002e 0FE0     		b	.L20
 321              	.L22:
 211:app_statemachine.c ****         if (on_exit[s]) on_exit[s](ctx);
 322              		.loc 1 211 0
 323 0030 FB7D     		ldrb	r3, [r7, #23]	@ zero_extendqisi2
 324 0032 2B4A     		ldr	r2, .L28
 325 0034 52F82330 		ldr	r3, [r2, r3, lsl #2]
 326 0038 002B     		cmp	r3, #0
 327 003a 05D0     		beq	.L21
 328              		.loc 1 211 0 is_stmt 0 discriminator 1
 329 003c FB7D     		ldrb	r3, [r7, #23]	@ zero_extendqisi2
 330 003e 284A     		ldr	r2, .L28
 331 0040 52F82330 		ldr	r3, [r2, r3, lsl #2]
 332 0044 7868     		ldr	r0, [r7, #4]
 333 0046 9847     		blx	r3
 334              	.L21:
 210:app_statemachine.c ****         if (on_exit[s]) on_exit[s](ctx);
 335              		.loc 1 210 0 is_stmt 1 discriminator 2
 336 0048 FB7D     		ldrb	r3, [r7, #23]	@ zero_extendqisi2
 337 004a 264A     		ldr	r2, .L28+4
 338 004c D35C     		ldrb	r3, [r2, r3]
 339 004e FB75     		strb	r3, [r7, #23]
 340              	.L20:
 210:app_statemachine.c ****         if (on_exit[s]) on_exit[s](ctx);
 341              		.loc 1 210 0 is_stmt 0 discriminator 1
 342 0050 FA7D     		ldrb	r2, [r7, #23]	@ zero_extendqisi2
 343 0052 FB7C     		ldrb	r3, [r7, #19]	@ zero_extendqisi2
 344 0054 9A42     		cmp	r2, r3
 345 0056 EBD1     		bne	.L22
 346              	.LBE2:
 212:app_statemachine.c ****     }
 213:app_statemachine.c ****     
 214:app_statemachine.c ****     ctx->prev_leaf = src;  // Return to last state book-keeping.
ARM GAS  C:\Users\JENNEW~1\AppData\Local\Temp\ccTobH5m.s 			page 11


 347              		.loc 1 214 0 is_stmt 1
 348 0058 7B68     		ldr	r3, [r7, #4]
 349 005a 3A7D     		ldrb	r2, [r7, #20]
 350 005c 5A71     		strb	r2, [r3, #5]
 215:app_statemachine.c **** 
 216:app_statemachine.c ****     // Walk down the path, running on_entry.
 217:app_statemachine.c ****     state_t path[MAX_HFSM_DEPTH];
 218:app_statemachine.c ****     uint8_t n = 0;
 351              		.loc 1 218 0
 352 005e 0023     		movs	r3, #0
 353 0060 BB75     		strb	r3, [r7, #22]
 354              	.LBB3:
 219:app_statemachine.c ****     for (state_t s = target; s != common; s = parent_of[s]) {
 355              		.loc 1 219 0
 356 0062 FB78     		ldrb	r3, [r7, #3]
 357 0064 7B75     		strb	r3, [r7, #21]
 358 0066 0CE0     		b	.L23
 359              	.L24:
 220:app_statemachine.c ****         path[n++] = s;
 360              		.loc 1 220 0 discriminator 3
 361 0068 BB7D     		ldrb	r3, [r7, #22]	@ zero_extendqisi2
 362 006a 5A1C     		adds	r2, r3, #1
 363 006c BA75     		strb	r2, [r7, #22]
 364 006e 07F11802 		add	r2, r7, #24
 365 0072 1344     		add	r3, r3, r2
 366 0074 7A7D     		ldrb	r2, [r7, #21]
 367 0076 03F80C2C 		strb	r2, [r3, #-12]
 219:app_statemachine.c ****     for (state_t s = target; s != common; s = parent_of[s]) {
 368              		.loc 1 219 0 discriminator 3
 369 007a 7B7D     		ldrb	r3, [r7, #21]	@ zero_extendqisi2
 370 007c 194A     		ldr	r2, .L28+4
 371 007e D35C     		ldrb	r3, [r2, r3]
 372 0080 7B75     		strb	r3, [r7, #21]
 373              	.L23:
 219:app_statemachine.c ****     for (state_t s = target; s != common; s = parent_of[s]) {
 374              		.loc 1 219 0 is_stmt 0 discriminator 1
 375 0082 7A7D     		ldrb	r2, [r7, #21]	@ zero_extendqisi2
 376 0084 FB7C     		ldrb	r3, [r7, #19]	@ zero_extendqisi2
 377 0086 9A42     		cmp	r2, r3
 378 0088 EED1     		bne	.L24
 379              	.LBE3:
 221:app_statemachine.c ****     }
 222:app_statemachine.c ****     while (n--) {
 380              		.loc 1 222 0 is_stmt 1
 381 008a 17E0     		b	.L25
 382              	.L26:
 223:app_statemachine.c ****         if (on_entry[path[n]]) on_entry[path[n]](ctx);
 383              		.loc 1 223 0
 384 008c BB7D     		ldrb	r3, [r7, #22]	@ zero_extendqisi2
 385 008e 07F11802 		add	r2, r7, #24
 386 0092 1344     		add	r3, r3, r2
 387 0094 13F80C3C 		ldrb	r3, [r3, #-12]	@ zero_extendqisi2
 388 0098 1A46     		mov	r2, r3
 389 009a 134B     		ldr	r3, .L28+8
 390 009c 53F82230 		ldr	r3, [r3, r2, lsl #2]
 391 00a0 002B     		cmp	r3, #0
 392 00a2 0BD0     		beq	.L25
ARM GAS  C:\Users\JENNEW~1\AppData\Local\Temp\ccTobH5m.s 			page 12


 393              		.loc 1 223 0 is_stmt 0 discriminator 1
 394 00a4 BB7D     		ldrb	r3, [r7, #22]	@ zero_extendqisi2
 395 00a6 07F11802 		add	r2, r7, #24
 396 00aa 1344     		add	r3, r3, r2
 397 00ac 13F80C3C 		ldrb	r3, [r3, #-12]	@ zero_extendqisi2
 398 00b0 1A46     		mov	r2, r3
 399 00b2 0D4B     		ldr	r3, .L28+8
 400 00b4 53F82230 		ldr	r3, [r3, r2, lsl #2]
 401 00b8 7868     		ldr	r0, [r7, #4]
 402 00ba 9847     		blx	r3
 403              	.L25:
 222:app_statemachine.c ****         if (on_entry[path[n]]) on_entry[path[n]](ctx);
 404              		.loc 1 222 0 is_stmt 1
 405 00bc BB7D     		ldrb	r3, [r7, #22]	@ zero_extendqisi2
 406 00be 5A1E     		subs	r2, r3, #1
 407 00c0 BA75     		strb	r2, [r7, #22]
 408 00c2 002B     		cmp	r3, #0
 409 00c4 E2D1     		bne	.L26
 224:app_statemachine.c ****     }
 225:app_statemachine.c ****     
 226:app_statemachine.c ****     // Store new state.
 227:app_statemachine.c ****     ctx->state          = target;
 410              		.loc 1 227 0
 411 00c6 7B68     		ldr	r3, [r7, #4]
 412 00c8 FA78     		ldrb	r2, [r7, #3]
 413 00ca 1A71     		strb	r2, [r3, #4]
 228:app_statemachine.c ****     ctx->state_entry_ms = g_tick_ms;
 414              		.loc 1 228 0
 415 00cc 074B     		ldr	r3, .L28+12
 416 00ce 1A68     		ldr	r2, [r3]
 417 00d0 7B68     		ldr	r3, [r7, #4]
 418 00d2 DA62     		str	r2, [r3, #44]
 419 00d4 00E0     		b	.L17
 420              	.L27:
 203:app_statemachine.c ****     
 421              		.loc 1 203 0
 422 00d6 00BF     		nop
 423              	.L17:
 229:app_statemachine.c **** }
 424              		.loc 1 229 0
 425 00d8 1837     		adds	r7, r7, #24
 426              		.cfi_def_cfa_offset 8
 427 00da BD46     		mov	sp, r7
 428              		.cfi_def_cfa_register 13
 429              		@ sp needed
 430 00dc 80BD     		pop	{r7, pc}
 431              	.L29:
 432 00de 00BF     		.align	2
 433              	.L28:
 434 00e0 50000000 		.word	on_exit
 435 00e4 00000000 		.word	parent_of
 436 00e8 10000000 		.word	on_entry
 437 00ec 00000000 		.word	g_tick_ms
 438              		.cfi_endproc
 439              	.LFE66:
 440              		.size	transition, .-transition
 441              		.section	.text.app_start,"ax",%progbits
ARM GAS  C:\Users\JENNEW~1\AppData\Local\Temp\ccTobH5m.s 			page 13


 442              		.align	2
 443              		.global	app_start
 444              		.thumb
 445              		.thumb_func
 446              		.type	app_start, %function
 447              	app_start:
 448              	.LFB67:
 230:app_statemachine.c **** 
 231:app_statemachine.c **** // On boot.
 232:app_statemachine.c **** void app_start(app_ctx_t *ctx)
 233:app_statemachine.c **** {
 449              		.loc 1 233 0
 450              		.cfi_startproc
 451              		@ args = 0, pretend = 0, frame = 16
 452              		@ frame_needed = 1, uses_anonymous_args = 0
 453 0000 80B5     		push	{r7, lr}
 454              		.cfi_def_cfa_offset 8
 455              		.cfi_offset 7, -8
 456              		.cfi_offset 14, -4
 457 0002 84B0     		sub	sp, sp, #16
 458              		.cfi_def_cfa_offset 24
 459 0004 00AF     		add	r7, sp, #0
 460              		.cfi_def_cfa_register 7
 461 0006 7860     		str	r0, [r7, #4]
 234:app_statemachine.c ****     // Walk entry conditions from ROOT to the init state,
 235:app_statemachine.c ****     state_t target = ctx->state;
 462              		.loc 1 235 0
 463 0008 7B68     		ldr	r3, [r7, #4]
 464 000a 1B79     		ldrb	r3, [r3, #4]
 465 000c FB73     		strb	r3, [r7, #15]
 236:app_statemachine.c ****     ctx->state = ROOT;
 466              		.loc 1 236 0
 467 000e 7B68     		ldr	r3, [r7, #4]
 468 0010 0022     		movs	r2, #0
 469 0012 1A71     		strb	r2, [r3, #4]
 237:app_statemachine.c ****     transition(ctx, target);
 470              		.loc 1 237 0
 471 0014 FB7B     		ldrb	r3, [r7, #15]	@ zero_extendqisi2
 472 0016 1946     		mov	r1, r3
 473 0018 7868     		ldr	r0, [r7, #4]
 474 001a FFF7FEFF 		bl	transition
 238:app_statemachine.c **** }
 475              		.loc 1 238 0
 476 001e 00BF     		nop
 477 0020 1037     		adds	r7, r7, #16
 478              		.cfi_def_cfa_offset 8
 479 0022 BD46     		mov	sp, r7
 480              		.cfi_def_cfa_register 13
 481              		@ sp needed
 482 0024 80BD     		pop	{r7, pc}
 483              		.cfi_endproc
 484              	.LFE67:
 485              		.size	app_start, .-app_start
 486 0026 00BF     		.section	.rodata
 487              		.align	2
 488              	.LC0:
 489 0110 5B555345 		.ascii	"[USER] \000"
ARM GAS  C:\Users\JENNEW~1\AppData\Local\Temp\ccTobH5m.s 			page 14


 489      525D2000 
 490              		.align	2
 491              	.LC1:
 492 0118 0D0A00   		.ascii	"\015\012\000"
 493              		.section	.text.app_raise_error,"ax",%progbits
 494              		.align	2
 495              		.global	app_raise_error
 496              		.thumb
 497              		.thumb_func
 498              		.type	app_raise_error, %function
 499              	app_raise_error:
 500              	.LFB68:
 239:app_statemachine.c **** 
 240:app_statemachine.c **** // On error: Handles severity.
 241:app_statemachine.c **** void app_raise_error(app_ctx_t *ctx, err_sev_t sev, const char *msg)
 242:app_statemachine.c **** {
 501              		.loc 1 242 0
 502              		.cfi_startproc
 503              		@ args = 0, pretend = 0, frame = 16
 504              		@ frame_needed = 1, uses_anonymous_args = 0
 505 0000 80B5     		push	{r7, lr}
 506              		.cfi_def_cfa_offset 8
 507              		.cfi_offset 7, -8
 508              		.cfi_offset 14, -4
 509 0002 84B0     		sub	sp, sp, #16
 510              		.cfi_def_cfa_offset 24
 511 0004 00AF     		add	r7, sp, #0
 512              		.cfi_def_cfa_register 7
 513 0006 F860     		str	r0, [r7, #12]
 514 0008 0B46     		mov	r3, r1
 515 000a 7A60     		str	r2, [r7, #4]
 516 000c FB72     		strb	r3, [r7, #11]
 243:app_statemachine.c ****     // User error: Invalid request, do not change and notify user.
 244:app_statemachine.c ****     if (sev == SEV_USER) {
 517              		.loc 1 244 0
 518 000e FB7A     		ldrb	r3, [r7, #11]	@ zero_extendqisi2
 519 0010 002B     		cmp	r3, #0
 520 0012 09D1     		bne	.L32
 245:app_statemachine.c ****         UART_DEBUG_PutString("[USER] ");
 521              		.loc 1 245 0
 522 0014 1248     		ldr	r0, .L37
 523 0016 FFF7FEFF 		bl	UART_DEBUG_PutString
 246:app_statemachine.c ****         UART_DEBUG_PutString(msg);
 524              		.loc 1 246 0
 525 001a 7868     		ldr	r0, [r7, #4]
 526 001c FFF7FEFF 		bl	UART_DEBUG_PutString
 247:app_statemachine.c ****         UART_DEBUG_PutString("\r\n");
 527              		.loc 1 247 0
 528 0020 1048     		ldr	r0, .L37+4
 529 0022 FFF7FEFF 		bl	UART_DEBUG_PutString
 248:app_statemachine.c ****         return;
 530              		.loc 1 248 0
 531 0026 18E0     		b	.L31
 532              	.L32:
 249:app_statemachine.c ****     }
 250:app_statemachine.c ****     
 251:app_statemachine.c ****     // Fatal error flag.
ARM GAS  C:\Users\JENNEW~1\AppData\Local\Temp\ccTobH5m.s 			page 15


 252:app_statemachine.c ****     if (ctx->fatal_latched && sev != SEV_FATAL) return;
 533              		.loc 1 252 0
 534 0028 FB68     		ldr	r3, [r7, #12]
 535 002a 1B7B     		ldrb	r3, [r3, #12]	@ zero_extendqisi2
 536 002c 002B     		cmp	r3, #0
 537 002e 02D0     		beq	.L34
 538              		.loc 1 252 0 is_stmt 0 discriminator 1
 539 0030 FB7A     		ldrb	r3, [r7, #11]	@ zero_extendqisi2
 540 0032 032B     		cmp	r3, #3
 541 0034 10D1     		bne	.L36
 542              	.L34:
 253:app_statemachine.c ****     
 254:app_statemachine.c ****     ctx->err_sev = sev;
 543              		.loc 1 254 0 is_stmt 1
 544 0036 FB68     		ldr	r3, [r7, #12]
 545 0038 FA7A     		ldrb	r2, [r7, #11]
 546 003a 9A71     		strb	r2, [r3, #6]
 255:app_statemachine.c ****     ctx->err_msg = msg;
 547              		.loc 1 255 0
 548 003c FB68     		ldr	r3, [r7, #12]
 549 003e 7A68     		ldr	r2, [r7, #4]
 550 0040 9A60     		str	r2, [r3, #8]
 256:app_statemachine.c ****     if (sev == SEV_FATAL) ctx->fatal_latched = 1u;
 551              		.loc 1 256 0
 552 0042 FB7A     		ldrb	r3, [r7, #11]	@ zero_extendqisi2
 553 0044 032B     		cmp	r3, #3
 554 0046 02D1     		bne	.L35
 555              		.loc 1 256 0 is_stmt 0 discriminator 1
 556 0048 FB68     		ldr	r3, [r7, #12]
 557 004a 0122     		movs	r2, #1
 558 004c 1A73     		strb	r2, [r3, #12]
 559              	.L35:
 257:app_statemachine.c ****     
 258:app_statemachine.c ****     transition(ctx, ERROR_ACTIVE);  // Go to error state.
 560              		.loc 1 258 0 is_stmt 1
 561 004e 0F21     		movs	r1, #15
 562 0050 F868     		ldr	r0, [r7, #12]
 563 0052 FFF7FEFF 		bl	transition
 564 0056 00E0     		b	.L31
 565              	.L36:
 252:app_statemachine.c ****     
 566              		.loc 1 252 0
 567 0058 00BF     		nop
 568              	.L31:
 259:app_statemachine.c **** }
 569              		.loc 1 259 0
 570 005a 1037     		adds	r7, r7, #16
 571              		.cfi_def_cfa_offset 8
 572 005c BD46     		mov	sp, r7
 573              		.cfi_def_cfa_register 13
 574              		@ sp needed
 575 005e 80BD     		pop	{r7, pc}
 576              	.L38:
 577              		.align	2
 578              	.L37:
 579 0060 10010000 		.word	.LC0
 580 0064 18010000 		.word	.LC1
ARM GAS  C:\Users\JENNEW~1\AppData\Local\Temp\ccTobH5m.s 			page 16


 581              		.cfi_endproc
 582              	.LFE68:
 583              		.size	app_raise_error, .-app_raise_error
 584              		.section	.rodata
 585 011b 00       		.align	2
 586              	.LC2:
 587 011c 524F4F54 		.ascii	"ROOT\000"
 587      00
 588 0121 000000   		.align	2
 589              	.LC3:
 590 0124 53544259 		.ascii	"STBY\000"
 590      00
 591 0129 000000   		.align	2
 592              	.LC4:
 593 012c 4D414E55 		.ascii	"MANU\000"
 593      00
 594 0131 000000   		.align	2
 595              	.LC5:
 596 0134 4155544F 		.ascii	"AUTO\000"
 596      00
 597 0139 000000   		.align	2
 598              	.LC6:
 599 013c 4552524F 		.ascii	"ERROR\000"
 599      5200
 600 0142 0000     		.align	2
 601              	.LC7:
 602 0144 53544259 		.ascii	"STBY_DEFER\000"
 602      5F444546 
 602      455200
 603 014f 00       		.align	2
 604              	.LC8:
 605 0150 53544259 		.ascii	"STBY_HOLD\000"
 605      5F484F4C 
 605      4400
 606 015a 0000     		.align	2
 607              	.LC9:
 608 015c 4D414E55 		.ascii	"MANU_JOYSTICK\000"
 608      5F4A4F59 
 608      53544943 
 608      4B00
 609 016a 0000     		.align	2
 610              	.LC10:
 611 016c 4D414E55 		.ascii	"MANU_NUDGE\000"
 611      5F4E5544 
 611      474500
 612 0177 00       		.align	2
 613              	.LC11:
 614 0178 4155544F 		.ascii	"AUTO_HOME\000"
 614      5F484F4D 
 614      4500
 615 0182 0000     		.align	2
 616              	.LC12:
 617 0184 4155544F 		.ascii	"AUTO_ACQ_GPS\000"
 617      5F414351 
 617      5F475053 
 617      00
 618 0191 000000   		.align	2
ARM GAS  C:\Users\JENNEW~1\AppData\Local\Temp\ccTobH5m.s 			page 17


 619              	.LC13:
 620 0194 4155544F 		.ascii	"AUTO_ACQ_SPIRAL\000"
 620      5F414351 
 620      5F535049 
 620      52414C00 
 621              		.align	2
 622              	.LC14:
 623 01a4 4155544F 		.ascii	"AUTO_TRACKING\000"
 623      5F545241 
 623      434B494E 
 623      4700
 624 01b2 0000     		.align	2
 625              	.LC15:
 626 01b4 4155544F 		.ascii	"AUTO_LOSS\000"
 626      5F4C4F53 
 626      5300
 627 01be 0000     		.align	2
 628              	.LC16:
 629 01c0 4155544F 		.ascii	"AUTO_NO_LOCK\000"
 629      5F4E4F5F 
 629      4C4F434B 
 629      00
 630 01cd 000000   		.align	2
 631              	.LC17:
 632 01d0 4552524F 		.ascii	"ERROR_ACTIVE\000"
 632      525F4143 
 632      54495645 
 632      00
 633 01dd 000000   		.align	2
 634              		.type	state_names, %object
 635              		.size	state_names, 64
 636              	state_names:
 637 01e0 1C010000 		.word	.LC2
 638 01e4 24010000 		.word	.LC3
 639 01e8 2C010000 		.word	.LC4
 640 01ec 34010000 		.word	.LC5
 641 01f0 3C010000 		.word	.LC6
 642 01f4 44010000 		.word	.LC7
 643 01f8 50010000 		.word	.LC8
 644 01fc 5C010000 		.word	.LC9
 645 0200 6C010000 		.word	.LC10
 646 0204 78010000 		.word	.LC11
 647 0208 84010000 		.word	.LC12
 648 020c 94010000 		.word	.LC13
 649 0210 A4010000 		.word	.LC14
 650 0214 B4010000 		.word	.LC15
 651 0218 C0010000 		.word	.LC16
 652 021c D0010000 		.word	.LC17
 653              		.section	.text.app_state_name,"ax",%progbits
 654              		.align	2
 655              		.global	app_state_name
 656              		.thumb
 657              		.thumb_func
 658              		.type	app_state_name, %function
 659              	app_state_name:
 660              	.LFB69:
 260:app_statemachine.c **** 
ARM GAS  C:\Users\JENNEW~1\AppData\Local\Temp\ccTobH5m.s 			page 18


 261:app_statemachine.c **** // Lookup table for state names, used by serial monitor.
 262:app_statemachine.c **** static const char *const state_names[STATE_COUNT] = {
 263:app_statemachine.c ****     [ROOT] = "ROOT",
 264:app_statemachine.c ****     [STBY] = "STBY", [MANU] = "MANU", [AUTO] = "AUTO", [ERROR] = "ERROR",
 265:app_statemachine.c ****     [STBY_DEFER]      = "STBY_DEFER",
 266:app_statemachine.c ****     [STBY_HOLD]       = "STBY_HOLD",
 267:app_statemachine.c ****     [MANU_JOYSTICK]   = "MANU_JOYSTICK",
 268:app_statemachine.c ****     [MANU_NUDGE]      = "MANU_NUDGE",
 269:app_statemachine.c ****     [AUTO_HOME]       = "AUTO_HOME",
 270:app_statemachine.c ****     [AUTO_ACQ_GPS]    = "AUTO_ACQ_GPS",
 271:app_statemachine.c ****     [AUTO_ACQ_SPIRAL] = "AUTO_ACQ_SPIRAL",
 272:app_statemachine.c ****     [AUTO_TRACKING]   = "AUTO_TRACKING",
 273:app_statemachine.c ****     [AUTO_LOSS]       = "AUTO_LOSS",
 274:app_statemachine.c ****     [AUTO_NO_LOCK]    = "AUTO_NO_LOCK",
 275:app_statemachine.c ****     [ERROR_ACTIVE]    = "ERROR_ACTIVE",
 276:app_statemachine.c **** };
 277:app_statemachine.c **** 
 278:app_statemachine.c **** // Helper for serial monitor.
 279:app_statemachine.c **** const char *app_state_name(state_t s) { return state_names[s]; }
 661              		.loc 1 279 0
 662              		.cfi_startproc
 663              		@ args = 0, pretend = 0, frame = 8
 664              		@ frame_needed = 1, uses_anonymous_args = 0
 665              		@ link register save eliminated.
 666 0000 80B4     		push	{r7}
 667              		.cfi_def_cfa_offset 4
 668              		.cfi_offset 7, -4
 669 0002 83B0     		sub	sp, sp, #12
 670              		.cfi_def_cfa_offset 16
 671 0004 00AF     		add	r7, sp, #0
 672              		.cfi_def_cfa_register 7
 673 0006 0346     		mov	r3, r0
 674 0008 FB71     		strb	r3, [r7, #7]
 675              		.loc 1 279 0
 676 000a FB79     		ldrb	r3, [r7, #7]	@ zero_extendqisi2
 677 000c 034A     		ldr	r2, .L41
 678 000e 52F82330 		ldr	r3, [r2, r3, lsl #2]
 679 0012 1846     		mov	r0, r3
 680 0014 0C37     		adds	r7, r7, #12
 681              		.cfi_def_cfa_offset 4
 682 0016 BD46     		mov	sp, r7
 683              		.cfi_def_cfa_register 13
 684              		@ sp needed
 685 0018 80BC     		pop	{r7}
 686              		.cfi_restore 7
 687              		.cfi_def_cfa_offset 0
 688 001a 7047     		bx	lr
 689              	.L42:
 690              		.align	2
 691              	.L41:
 692 001c E0010000 		.word	state_names
 693              		.cfi_endproc
 694              	.LFE69:
 695              		.size	app_state_name, .-app_state_name
 696              		.section	.text.app_telem_tick,"ax",%progbits
 697              		.align	2
 698              		.global	app_telem_tick
ARM GAS  C:\Users\JENNEW~1\AppData\Local\Temp\ccTobH5m.s 			page 19


 699              		.thumb
 700              		.thumb_func
 701              		.type	app_telem_tick, %function
 702              	app_telem_tick:
 703              	.LFB70:
 280:app_statemachine.c **** 
 281:app_statemachine.c **** // Telemetry %===============================================================%
 282:app_statemachine.c **** void app_telem_tick(app_ctx_t *ctx)
 283:app_statemachine.c **** {
 704              		.loc 1 283 0
 705              		.cfi_startproc
 706              		@ args = 0, pretend = 0, frame = 8
 707              		@ frame_needed = 1, uses_anonymous_args = 0
 708 0000 80B5     		push	{r7, lr}
 709              		.cfi_def_cfa_offset 8
 710              		.cfi_offset 7, -8
 711              		.cfi_offset 14, -4
 712 0002 82B0     		sub	sp, sp, #8
 713              		.cfi_def_cfa_offset 16
 714 0004 00AF     		add	r7, sp, #0
 715              		.cfi_def_cfa_register 7
 716 0006 7860     		str	r0, [r7, #4]
 284:app_statemachine.c ****     // Do the telemetry grabs if gimble connected
 285:app_statemachine.c ****     if (!ctx->gimbal) return;
 717              		.loc 1 285 0
 718 0008 7B68     		ldr	r3, [r7, #4]
 719 000a 1B68     		ldr	r3, [r3]
 720 000c 002B     		cmp	r3, #0
 721 000e 2DD0     		beq	.L47
 286:app_statemachine.c **** 
 287:app_statemachine.c ****     static uint32_t last_hot_ms  = 0u;  // Hot is the Movi status
 288:app_statemachine.c ****     static uint32_t last_link_ms = 0u;  // Cold are all other sensors
 289:app_statemachine.c ****     if (g_tick_ms - last_hot_ms  >= CONTROL_PERIOD_MS) {  //  10 Hz
 722              		.loc 1 289 0
 723 0010 184B     		ldr	r3, .L48
 724 0012 1A68     		ldr	r2, [r3]
 725 0014 184B     		ldr	r3, .L48+4
 726 0016 1B68     		ldr	r3, [r3]
 727 0018 D31A     		subs	r3, r2, r3
 728 001a C72B     		cmp	r3, #199
 729 001c 06D9     		bls	.L46
 290:app_statemachine.c ****         last_hot_ms = g_tick_ms;
 730              		.loc 1 290 0
 731 001e 154B     		ldr	r3, .L48
 732 0020 1B68     		ldr	r3, [r3]
 733 0022 154A     		ldr	r2, .L48+4
 734 0024 1360     		str	r3, [r2]
 291:app_statemachine.c ****         telemetry_send_hot_sbc(ctx);
 735              		.loc 1 291 0
 736 0026 7868     		ldr	r0, [r7, #4]
 737 0028 FFF7FEFF 		bl	telemetry_send_hot_sbc
 738              	.L46:
 292:app_statemachine.c ****     }
 293:app_statemachine.c ****     if (g_tick_ms - last_link_ms >= DIAG_PERIOD_MS) {     //  1 Hz
 739              		.loc 1 293 0
 740 002c 114B     		ldr	r3, .L48
 741 002e 1A68     		ldr	r2, [r3]
ARM GAS  C:\Users\JENNEW~1\AppData\Local\Temp\ccTobH5m.s 			page 20


 742 0030 124B     		ldr	r3, .L48+8
 743 0032 1B68     		ldr	r3, [r3]
 744 0034 D31A     		subs	r3, r2, r3
 745 0036 41F28732 		movw	r2, #4999
 746 003a 9342     		cmp	r3, r2
 747 003c 17D9     		bls	.L43
 294:app_statemachine.c ****         last_link_ms = g_tick_ms;
 748              		.loc 1 294 0
 749 003e 0D4B     		ldr	r3, .L48
 750 0040 1B68     		ldr	r3, [r3]
 751 0042 0E4A     		ldr	r2, .L48+8
 752 0044 1360     		str	r3, [r2]
 295:app_statemachine.c ****         telemetry_send_link_sbc(ctx);
 753              		.loc 1 295 0
 754 0046 7868     		ldr	r0, [r7, #4]
 755 0048 FFF7FEFF 		bl	telemetry_send_link_sbc
 296:app_statemachine.c ****         telemetry_send_power_sbc(ctx);
 756              		.loc 1 296 0
 757 004c 7868     		ldr	r0, [r7, #4]
 758 004e FFF7FEFF 		bl	telemetry_send_power_sbc
 297:app_statemachine.c ****         telemetry_send_env_sbc(ctx);
 759              		.loc 1 297 0
 760 0052 7868     		ldr	r0, [r7, #4]
 761 0054 FFF7FEFF 		bl	telemetry_send_env_sbc
 298:app_statemachine.c ****         telemetry_send_gps_sbc(ctx);
 762              		.loc 1 298 0
 763 0058 7868     		ldr	r0, [r7, #4]
 764 005a FFF7FEFF 		bl	telemetry_send_gps_sbc
 299:app_statemachine.c ****         telemetry_send_baro_sbc(ctx);
 765              		.loc 1 299 0
 766 005e 7868     		ldr	r0, [r7, #4]
 767 0060 FFF7FEFF 		bl	telemetry_send_baro_sbc
 300:app_statemachine.c ****         telemetry_send_mag_sbc(ctx);
 768              		.loc 1 300 0
 769 0064 7868     		ldr	r0, [r7, #4]
 770 0066 FFF7FEFF 		bl	telemetry_send_mag_sbc
 771 006a 00E0     		b	.L43
 772              	.L47:
 285:app_statemachine.c **** 
 773              		.loc 1 285 0
 774 006c 00BF     		nop
 775              	.L43:
 301:app_statemachine.c ****     }
 302:app_statemachine.c **** }
 776              		.loc 1 302 0
 777 006e 0837     		adds	r7, r7, #8
 778              		.cfi_def_cfa_offset 8
 779 0070 BD46     		mov	sp, r7
 780              		.cfi_def_cfa_register 13
 781              		@ sp needed
 782 0072 80BD     		pop	{r7, pc}
 783              	.L49:
 784              		.align	2
 785              	.L48:
 786 0074 00000000 		.word	g_tick_ms
 787 0078 00000000 		.word	last_hot_ms.8100
 788 007c 04000000 		.word	last_link_ms.8101
ARM GAS  C:\Users\JENNEW~1\AppData\Local\Temp\ccTobH5m.s 			page 21


 789              		.cfi_endproc
 790              	.LFE70:
 791              		.size	app_telem_tick, .-app_telem_tick
 792              		.section	.rodata
 793              		.align	2
 794              	.LC18:
 795 0220 0D0A5B53 		.ascii	"\015\012[STBY_DEFER] '1' hold, '2' manual, '3' auto"
 795      5442595F 
 795      44454645 
 795      525D2027 
 795      31272068 
 796 024d 2C20273F 		.ascii	", '?' help\015\012> \000"
 796      27206865 
 796      6C700D0A 
 796      3E2000
 797              		.section	.text.entry_stby_defer,"ax",%progbits
 798              		.align	2
 799              		.thumb
 800              		.thumb_func
 801              		.type	entry_stby_defer, %function
 802              	entry_stby_defer:
 803              	.LFB71:
 303:app_statemachine.c **** 
 304:app_statemachine.c **** // %==========================================================================%
 305:app_statemachine.c **** // %                               Standby                                    %
 306:app_statemachine.c **** // %==========================================================================%
 307:app_statemachine.c **** 
 308:app_statemachine.c **** // STBY_DEFER %===============================================================%
 309:app_statemachine.c **** // On Enter: Print message, wait for user input.
 310:app_statemachine.c **** static void entry_stby_defer(app_ctx_t *ctx)
 311:app_statemachine.c **** {
 804              		.loc 1 311 0
 805              		.cfi_startproc
 806              		@ args = 0, pretend = 0, frame = 8
 807              		@ frame_needed = 1, uses_anonymous_args = 0
 808 0000 80B5     		push	{r7, lr}
 809              		.cfi_def_cfa_offset 8
 810              		.cfi_offset 7, -8
 811              		.cfi_offset 14, -4
 812 0002 82B0     		sub	sp, sp, #8
 813              		.cfi_def_cfa_offset 16
 814 0004 00AF     		add	r7, sp, #0
 815              		.cfi_def_cfa_register 7
 816 0006 7860     		str	r0, [r7, #4]
 312:app_statemachine.c ****     (void)ctx;
 313:app_statemachine.c ****     UART_DEBUG_PutString("\r\n[STBY_DEFER] '1' hold, '2' manual, '3' auto, '?' help\r\n> ");
 817              		.loc 1 313 0
 818 0008 0348     		ldr	r0, .L51
 819 000a FFF7FEFF 		bl	UART_DEBUG_PutString
 314:app_statemachine.c **** }
 820              		.loc 1 314 0
 821 000e 00BF     		nop
 822 0010 0837     		adds	r7, r7, #8
 823              		.cfi_def_cfa_offset 8
 824 0012 BD46     		mov	sp, r7
 825              		.cfi_def_cfa_register 13
 826              		@ sp needed
ARM GAS  C:\Users\JENNEW~1\AppData\Local\Temp\ccTobH5m.s 			page 22


 827 0014 80BD     		pop	{r7, pc}
 828              	.L52:
 829 0016 00BF     		.align	2
 830              	.L51:
 831 0018 20020000 		.word	.LC18
 832              		.cfi_endproc
 833              	.LFE71:
 834              		.size	entry_stby_defer, .-entry_stby_defer
 835              		.section	.rodata
 836              		.align	2
 837              	.LC19:
 838 025c 0D0A5B53 		.ascii	"\015\012[STBY_HOLD] rates zeroed\015\012> \000"
 838      5442595F 
 838      484F4C44 
 838      5D207261 
 838      74657320 
 839              		.section	.text.entry_stby_hold,"ax",%progbits
 840              		.align	2
 841              		.thumb
 842              		.thumb_func
 843              		.type	entry_stby_hold, %function
 844              	entry_stby_hold:
 845              	.LFB72:
 315:app_statemachine.c **** // On Exit: None
 316:app_statemachine.c **** 
 317:app_statemachine.c **** 
 318:app_statemachine.c **** // STBY_HOLD %================================================================%
 319:app_statemachine.c **** // On Enter
 320:app_statemachine.c **** static void entry_stby_hold(app_ctx_t *ctx)
 321:app_statemachine.c **** {
 846              		.loc 1 321 0
 847              		.cfi_startproc
 848              		@ args = 0, pretend = 0, frame = 8
 849              		@ frame_needed = 1, uses_anonymous_args = 0
 850 0000 80B5     		push	{r7, lr}
 851              		.cfi_def_cfa_offset 8
 852              		.cfi_offset 7, -8
 853              		.cfi_offset 14, -4
 854 0002 82B0     		sub	sp, sp, #8
 855              		.cfi_def_cfa_offset 16
 856 0004 00AF     		add	r7, sp, #0
 857              		.cfi_def_cfa_register 7
 858 0006 7860     		str	r0, [r7, #4]
 322:app_statemachine.c ****     (void)ctx;
 323:app_statemachine.c ****     UART_DEBUG_PutString("\r\n[STBY_HOLD] rates zeroed\r\n> ");
 859              		.loc 1 323 0
 860 0008 0348     		ldr	r0, .L54
 861 000a FFF7FEFF 		bl	UART_DEBUG_PutString
 324:app_statemachine.c **** }
 862              		.loc 1 324 0
 863 000e 00BF     		nop
 864 0010 0837     		adds	r7, r7, #8
 865              		.cfi_def_cfa_offset 8
 866 0012 BD46     		mov	sp, r7
 867              		.cfi_def_cfa_register 13
 868              		@ sp needed
 869 0014 80BD     		pop	{r7, pc}
ARM GAS  C:\Users\JENNEW~1\AppData\Local\Temp\ccTobH5m.s 			page 23


 870              	.L55:
 871 0016 00BF     		.align	2
 872              	.L54:
 873 0018 5C020000 		.word	.LC19
 874              		.cfi_endproc
 875              	.LFE72:
 876              		.size	entry_stby_hold, .-entry_stby_hold
 877              		.section	.rodata
 878 027b 00       		.align	2
 879              	.LC20:
 880 027c 0D0A5B4D 		.ascii	"\015\012[MANU] joystick=rate  nudge: numpad=fine  i"
 880      414E555D 
 880      206A6F79 
 880      73746963 
 880      6B3D7261 
 881 02a9 6A6B6C3D 		.ascii	"jkl=0.5  wasd=1  e=exit\015\012> \000"
 881      302E3520 
 881      20776173 
 881      643D3120 
 881      20653D65 
 882              		.section	.text.entry_manu_joystick,"ax",%progbits
 883              		.align	2
 884              		.thumb
 885              		.thumb_func
 886              		.type	entry_manu_joystick, %function
 887              	entry_manu_joystick:
 888              	.LFB73:
 325:app_statemachine.c **** // On Exit: None
 326:app_statemachine.c **** 
 327:app_statemachine.c **** 
 328:app_statemachine.c **** // %==========================================================================%
 329:app_statemachine.c **** // %                                Manual                                    %
 330:app_statemachine.c **** // %==========================================================================%
 331:app_statemachine.c **** 
 332:app_statemachine.c **** // MANU_JOYSTICK %============================================================%
 333:app_statemachine.c **** // On Enter: Enable joystick, print message.
 334:app_statemachine.c **** static void entry_manu_joystick(app_ctx_t *ctx)
 335:app_statemachine.c **** {
 889              		.loc 1 335 0
 890              		.cfi_startproc
 891              		@ args = 0, pretend = 0, frame = 8
 892              		@ frame_needed = 1, uses_anonymous_args = 0
 893 0000 80B5     		push	{r7, lr}
 894              		.cfi_def_cfa_offset 8
 895              		.cfi_offset 7, -8
 896              		.cfi_offset 14, -4
 897 0002 82B0     		sub	sp, sp, #8
 898              		.cfi_def_cfa_offset 16
 899 0004 00AF     		add	r7, sp, #0
 900              		.cfi_def_cfa_register 7
 901 0006 7860     		str	r0, [r7, #4]
 336:app_statemachine.c ****     // Rate default
 337:app_statemachine.c ****     ctx->ctrl_mode = HAMFLY_RATE;
 902              		.loc 1 337 0
 903 0008 7B68     		ldr	r3, [r7, #4]
 904 000a 0122     		movs	r2, #1
 905 000c 5A73     		strb	r2, [r3, #13]
ARM GAS  C:\Users\JENNEW~1\AppData\Local\Temp\ccTobH5m.s 			page 24


 338:app_statemachine.c ****      UART_DEBUG_PutString("\r\n[MANU] joystick=rate  nudge: numpad=fine  ijkl=0.5  wasd=1  e=exit\r
 906              		.loc 1 338 0
 907 000e 0348     		ldr	r0, .L57
 908 0010 FFF7FEFF 		bl	UART_DEBUG_PutString
 339:app_statemachine.c **** }
 909              		.loc 1 339 0
 910 0014 00BF     		nop
 911 0016 0837     		adds	r7, r7, #8
 912              		.cfi_def_cfa_offset 8
 913 0018 BD46     		mov	sp, r7
 914              		.cfi_def_cfa_register 13
 915              		@ sp needed
 916 001a 80BD     		pop	{r7, pc}
 917              	.L58:
 918              		.align	2
 919              	.L57:
 920 001c 7C020000 		.word	.LC20
 921              		.cfi_endproc
 922              	.LFE73:
 923              		.size	entry_manu_joystick, .-entry_manu_joystick
 924              		.section	.text.exit_manu_joystick,"ax",%progbits
 925              		.align	2
 926              		.thumb
 927              		.thumb_func
 928              		.type	exit_manu_joystick, %function
 929              	exit_manu_joystick:
 930              	.LFB74:
 340:app_statemachine.c **** // On Exit: Disable joystick, zero control mode.
 341:app_statemachine.c **** static void exit_manu_joystick(app_ctx_t *ctx)
 342:app_statemachine.c **** {
 931              		.loc 1 342 0
 932              		.cfi_startproc
 933              		@ args = 0, pretend = 0, frame = 8
 934              		@ frame_needed = 1, uses_anonymous_args = 0
 935              		@ link register save eliminated.
 936 0000 80B4     		push	{r7}
 937              		.cfi_def_cfa_offset 4
 938              		.cfi_offset 7, -4
 939 0002 83B0     		sub	sp, sp, #12
 940              		.cfi_def_cfa_offset 16
 941 0004 00AF     		add	r7, sp, #0
 942              		.cfi_def_cfa_register 7
 943 0006 7860     		str	r0, [r7, #4]
 343:app_statemachine.c ****     ctx->ctrl_mode = HAMFLY_DEFER;
 944              		.loc 1 343 0
 945 0008 7B68     		ldr	r3, [r7, #4]
 946 000a 0022     		movs	r2, #0
 947 000c 5A73     		strb	r2, [r3, #13]
 344:app_statemachine.c **** }
 948              		.loc 1 344 0
 949 000e 00BF     		nop
 950 0010 0C37     		adds	r7, r7, #12
 951              		.cfi_def_cfa_offset 4
 952 0012 BD46     		mov	sp, r7
 953              		.cfi_def_cfa_register 13
 954              		@ sp needed
 955 0014 80BC     		pop	{r7}
ARM GAS  C:\Users\JENNEW~1\AppData\Local\Temp\ccTobH5m.s 			page 25


 956              		.cfi_restore 7
 957              		.cfi_def_cfa_offset 0
 958 0016 7047     		bx	lr
 959              		.cfi_endproc
 960              	.LFE74:
 961              		.size	exit_manu_joystick, .-exit_manu_joystick
 962              		.section	.rodata
 963 02c5 000000   		.align	2
 964              	.LC21:
 965 02c8 0D0A5B41 		.ascii	"\015\012[AUTO] listening for centroid frames from P"
 965      55544F5D 
 965      206C6973 
 965      74656E69 
 965      6E672066 
 966 02f5 690D0A00 		.ascii	"i\015\012\000"
 967              		.section	.text.entry_auto_test,"ax",%progbits
 968              		.align	2
 969              		.thumb
 970              		.thumb_func
 971              		.type	entry_auto_test, %function
 972              	entry_auto_test:
 973              	.LFB75:
 345:app_statemachine.c **** 
 346:app_statemachine.c **** // %==========================================================================%
 347:app_statemachine.c **** // %                                 Auto                                     %
 348:app_statemachine.c **** // %==========================================================================%
 349:app_statemachine.c **** // AUTO_TRACKING placeholder: prints centroid frames received from the Pi.
 350:app_statemachine.c **** static void entry_auto_test(app_ctx_t *ctx)
 351:app_statemachine.c **** {
 974              		.loc 1 351 0
 975              		.cfi_startproc
 976              		@ args = 0, pretend = 0, frame = 8
 977              		@ frame_needed = 1, uses_anonymous_args = 0
 978 0000 80B5     		push	{r7, lr}
 979              		.cfi_def_cfa_offset 8
 980              		.cfi_offset 7, -8
 981              		.cfi_offset 14, -4
 982 0002 82B0     		sub	sp, sp, #8
 983              		.cfi_def_cfa_offset 16
 984 0004 00AF     		add	r7, sp, #0
 985              		.cfi_def_cfa_register 7
 986 0006 7860     		str	r0, [r7, #4]
 352:app_statemachine.c ****     (void)ctx;
 353:app_statemachine.c ****     UART_DEBUG_PutString("\r\n[AUTO] listening for centroid frames from Pi\r\n");
 987              		.loc 1 353 0
 988 0008 0348     		ldr	r0, .L61
 989 000a FFF7FEFF 		bl	UART_DEBUG_PutString
 354:app_statemachine.c **** }
 990              		.loc 1 354 0
 991 000e 00BF     		nop
 992 0010 0837     		adds	r7, r7, #8
 993              		.cfi_def_cfa_offset 8
 994 0012 BD46     		mov	sp, r7
 995              		.cfi_def_cfa_register 13
 996              		@ sp needed
 997 0014 80BD     		pop	{r7, pc}
 998              	.L62:
ARM GAS  C:\Users\JENNEW~1\AppData\Local\Temp\ccTobH5m.s 			page 26


 999 0016 00BF     		.align	2
 1000              	.L61:
 1001 0018 C8020000 		.word	.LC21
 1002              		.cfi_endproc
 1003              	.LFE75:
 1004              		.size	entry_auto_test, .-entry_auto_test
 1005              		.section	.rodata
 1006 02f9 000000   		.align	2
 1007              	.LC22:
 1008 02fc 5B534243 		.ascii	"[SBC:%s] t=%lu cx=%d cy=%d cxerr=%u cyerr=%u dt=%u "
 1008      3A25735D 
 1008      20743D25 
 1008      6C752063 
 1008      783D2564 
 1009 032f 72783D25 		.ascii	"rx=%lu unkMagic=%u crcErr=%u uartErr=%u\015\012\000"
 1009      6C752075 
 1009      6E6B4D61 
 1009      6769633D 
 1009      25752063 
 1010              		.section	.text.app_auto_tick,"ax",%progbits
 1011              		.align	2
 1012              		.global	app_auto_tick
 1013              		.thumb
 1014              		.thumb_func
 1015              		.type	app_auto_tick, %function
 1016              	app_auto_tick:
 1017              	.LFB76:
 355:app_statemachine.c **** 
 356:app_statemachine.c **** void app_auto_tick(app_ctx_t *ctx)
 357:app_statemachine.c **** {
 1018              		.loc 1 357 0
 1019              		.cfi_startproc
 1020              		@ args = 0, pretend = 0, frame = 176
 1021              		@ frame_needed = 1, uses_anonymous_args = 0
 1022 0000 F0B5     		push	{r4, r5, r6, r7, lr}
 1023              		.cfi_def_cfa_offset 20
 1024              		.cfi_offset 4, -20
 1025              		.cfi_offset 5, -16
 1026              		.cfi_offset 6, -12
 1027              		.cfi_offset 7, -8
 1028              		.cfi_offset 14, -4
 1029 0002 B7B0     		sub	sp, sp, #220
 1030              		.cfi_def_cfa_offset 240
 1031 0004 0AAF     		add	r7, sp, #40
 1032              		.cfi_def_cfa 7, 200
 1033 0006 F861     		str	r0, [r7, #28]
 358:app_statemachine.c ****     // Check we are actualy in tracking
 359:app_statemachine.c ****     if (ctx->state != AUTO_TRACKING) return;
 1034              		.loc 1 359 0
 1035 0008 FB69     		ldr	r3, [r7, #28]
 1036 000a 1B79     		ldrb	r3, [r3, #4]	@ zero_extendqisi2
 1037 000c 0C2B     		cmp	r3, #12
 1038 000e 5DD1     		bne	.L69
 1039              	.LBB4:
 360:app_statemachine.c ****     // Printing tag appropriate for the two hard coded centroiding input streams.
 361:app_statemachine.c ****     static const char *tag[STREAM_COUNTS] = { "C", "F" };
 362:app_statemachine.c **** 
ARM GAS  C:\Users\JENNEW~1\AppData\Local\Temp\ccTobH5m.s 			page 27


 363:app_statemachine.c ****     // For each stream
 364:app_statemachine.c ****     // TEMP: Print debug of what has been received.
 365:app_statemachine.c ****     for (uint8_t s = 0u; s < STREAM_COUNTS; s++) {
 1040              		.loc 1 365 0
 1041 0010 0023     		movs	r3, #0
 1042 0012 87F8AF30 		strb	r3, [r7, #175]
 1043 0016 54E0     		b	.L66
 1044              	.L68:
 1045              	.LBB5:
 366:app_statemachine.c ****         payload_centroid_t c;
 367:app_statemachine.c ****         if (sbc_get_centroid(s, &c)) {
 1046              		.loc 1 367 0
 1047 0018 07F1A002 		add	r2, r7, #160
 1048 001c 97F8AF30 		ldrb	r3, [r7, #175]	@ zero_extendqisi2
 1049 0020 1146     		mov	r1, r2
 1050 0022 1846     		mov	r0, r3
 1051 0024 FFF7FEFF 		bl	sbc_get_centroid
 1052 0028 0346     		mov	r3, r0
 1053 002a 002B     		cmp	r3, #0
 1054 002c 44D0     		beq	.L67
 1055              	.LBB6:
 368:app_statemachine.c ****             char b[128];
 369:app_statemachine.c ****             snprintf(b, sizeof b,
 1056              		.loc 1 369 0
 1057 002e 97F8AF30 		ldrb	r3, [r7, #175]	@ zero_extendqisi2
 1058 0032 284A     		ldr	r2, .L70
 1059 0034 52F82350 		ldr	r5, [r2, r3, lsl #2]
 370:app_statemachine.c ****                      "[SBC:%s] t=%lu cx=%d cy=%d cxerr=%u cyerr=%u "
 371:app_statemachine.c ****                      "dt=%u rx=%lu unkMagic=%u crcErr=%u uartErr=%u\r\n",
 372:app_statemachine.c ****                      tag[s],
 373:app_statemachine.c ****                      (unsigned long)c.t_ms, c.cx, c.cy, c.cxerr, c.cyerr,
 1060              		.loc 1 373 0
 1061 0038 D7F8A040 		ldr	r4, [r7, #160]
 1062 003c B7F9A430 		ldrsh	r3, [r7, #164]
 369:app_statemachine.c ****                      "[SBC:%s] t=%lu cx=%d cy=%d cxerr=%u cyerr=%u "
 1063              		.loc 1 369 0
 1064 0040 1E46     		mov	r6, r3
 1065              		.loc 1 373 0
 1066 0042 B7F9A630 		ldrsh	r3, [r7, #166]
 369:app_statemachine.c ****                      "[SBC:%s] t=%lu cx=%d cy=%d cxerr=%u cyerr=%u "
 1067              		.loc 1 369 0
 1068 0046 BB61     		str	r3, [r7, #24]
 1069              		.loc 1 373 0
 1070 0048 B7F8A830 		ldrh	r3, [r7, #168]
 369:app_statemachine.c ****                      "[SBC:%s] t=%lu cx=%d cy=%d cxerr=%u cyerr=%u "
 1071              		.loc 1 369 0
 1072 004c 7B61     		str	r3, [r7, #20]
 1073              		.loc 1 373 0
 1074 004e B7F8AA30 		ldrh	r3, [r7, #170]
 369:app_statemachine.c ****                      "[SBC:%s] t=%lu cx=%d cy=%d cxerr=%u cyerr=%u "
 1075              		.loc 1 369 0
 1076 0052 3B61     		str	r3, [r7, #16]
 374:app_statemachine.c ****                      sbc_last_centroid_dt_ms(s),
 1077              		.loc 1 374 0
 1078 0054 97F8AF30 		ldrb	r3, [r7, #175]	@ zero_extendqisi2
 1079 0058 1846     		mov	r0, r3
 1080 005a FFF7FEFF 		bl	sbc_last_centroid_dt_ms
ARM GAS  C:\Users\JENNEW~1\AppData\Local\Temp\ccTobH5m.s 			page 28


 1081 005e 0346     		mov	r3, r0
 369:app_statemachine.c ****                      "[SBC:%s] t=%lu cx=%d cy=%d cxerr=%u cyerr=%u "
 1082              		.loc 1 369 0
 1083 0060 FB60     		str	r3, [r7, #12]
 375:app_statemachine.c ****                      (unsigned long)sbc_rx_pkt_count(),
 1084              		.loc 1 375 0
 1085 0062 FFF7FEFF 		bl	sbc_rx_pkt_count
 1086 0066 B860     		str	r0, [r7, #8]
 376:app_statemachine.c ****                      sbc_unknown_magic(), sbc_crc_errors(), sbc_uart_errors());
 1087              		.loc 1 376 0
 1088 0068 FFF7FEFF 		bl	sbc_unknown_magic
 1089 006c 0346     		mov	r3, r0
 369:app_statemachine.c ****                      "[SBC:%s] t=%lu cx=%d cy=%d cxerr=%u cyerr=%u "
 1090              		.loc 1 369 0
 1091 006e 7B60     		str	r3, [r7, #4]
 1092              		.loc 1 376 0
 1093 0070 FFF7FEFF 		bl	sbc_crc_errors
 1094 0074 0346     		mov	r3, r0
 369:app_statemachine.c ****                      "[SBC:%s] t=%lu cx=%d cy=%d cxerr=%u cyerr=%u "
 1095              		.loc 1 369 0
 1096 0076 3B60     		str	r3, [r7]
 1097              		.loc 1 376 0
 1098 0078 FFF7FEFF 		bl	sbc_uart_errors
 1099 007c 0346     		mov	r3, r0
 369:app_statemachine.c ****                      "[SBC:%s] t=%lu cx=%d cy=%d cxerr=%u cyerr=%u "
 1100              		.loc 1 369 0
 1101 007e 07F12000 		add	r0, r7, #32
 1102 0082 0993     		str	r3, [sp, #36]
 1103 0084 3A68     		ldr	r2, [r7]
 1104 0086 0892     		str	r2, [sp, #32]
 1105 0088 7A68     		ldr	r2, [r7, #4]
 1106 008a 0792     		str	r2, [sp, #28]
 1107 008c BA68     		ldr	r2, [r7, #8]
 1108 008e 0692     		str	r2, [sp, #24]
 1109 0090 FA68     		ldr	r2, [r7, #12]
 1110 0092 0592     		str	r2, [sp, #20]
 1111 0094 3A69     		ldr	r2, [r7, #16]
 1112 0096 0492     		str	r2, [sp, #16]
 1113 0098 7A69     		ldr	r2, [r7, #20]
 1114 009a 0392     		str	r2, [sp, #12]
 1115 009c BB69     		ldr	r3, [r7, #24]
 1116 009e 0293     		str	r3, [sp, #8]
 1117 00a0 0196     		str	r6, [sp, #4]
 1118 00a2 0094     		str	r4, [sp]
 1119 00a4 2B46     		mov	r3, r5
 1120 00a6 0C4A     		ldr	r2, .L70+4
 1121 00a8 8021     		movs	r1, #128
 1122 00aa FFF7FEFF 		bl	snprintf
 377:app_statemachine.c ****             UART_DEBUG_PutString(b);
 1123              		.loc 1 377 0
 1124 00ae 07F12003 		add	r3, r7, #32
 1125 00b2 1846     		mov	r0, r3
 1126 00b4 FFF7FEFF 		bl	UART_DEBUG_PutString
 1127              	.L67:
 1128              	.LBE6:
 1129              	.LBE5:
 365:app_statemachine.c ****         payload_centroid_t c;
ARM GAS  C:\Users\JENNEW~1\AppData\Local\Temp\ccTobH5m.s 			page 29


 1130              		.loc 1 365 0 discriminator 2
 1131 00b8 97F8AF30 		ldrb	r3, [r7, #175]	@ zero_extendqisi2
 1132 00bc 0133     		adds	r3, r3, #1
 1133 00be 87F8AF30 		strb	r3, [r7, #175]
 1134              	.L66:
 1135 00c2 97F8AF30 		ldrb	r3, [r7, #175]	@ zero_extendqisi2
 1136 00c6 012B     		cmp	r3, #1
 1137 00c8 A6D9     		bls	.L68
 1138 00ca 00E0     		b	.L63
 1139              	.L69:
 1140              	.LBE4:
 359:app_statemachine.c ****     // Printing tag appropriate for the two hard coded centroiding input streams.
 1141              		.loc 1 359 0
 1142 00cc 00BF     		nop
 1143              	.L63:
 378:app_statemachine.c ****         }
 379:app_statemachine.c ****     }
 380:app_statemachine.c **** }
 1144              		.loc 1 380 0
 1145 00ce B437     		adds	r7, r7, #180
 1146              		.cfi_def_cfa_offset 20
 1147 00d0 BD46     		mov	sp, r7
 1148              		.cfi_def_cfa_register 13
 1149              		@ sp needed
 1150 00d2 F0BD     		pop	{r4, r5, r6, r7, pc}
 1151              	.L71:
 1152              		.align	2
 1153              	.L70:
 1154 00d4 00000000 		.word	tag.8120
 1155 00d8 FC020000 		.word	.LC22
 1156              		.cfi_endproc
 1157              	.LFE76:
 1158              		.size	app_auto_tick, .-app_auto_tick
 1159              		.section	.rodata
 1160 0359 000000   		.align	2
 1161              	.LC23:
 1162 035c 5741524E 		.ascii	"WARN\000"
 1162      00
 1163 0361 000000   		.align	2
 1164              	.LC24:
 1165 0364 534F4654 		.ascii	"SOFTWARE\000"
 1165      57415245 
 1165      00
 1166 036d 000000   		.align	2
 1167              	.LC25:
 1168 0370 46415441 		.ascii	"FATAL\000"
 1168      4C00
 1169 0376 0000     		.align	2
 1170              	.LC26:
 1171 0378 55534552 		.ascii	"USER\000"
 1171      00
 1172              		.section	.text.sev_str,"ax",%progbits
 1173              		.align	2
 1174              		.thumb
 1175              		.thumb_func
 1176              		.type	sev_str, %function
 1177              	sev_str:
ARM GAS  C:\Users\JENNEW~1\AppData\Local\Temp\ccTobH5m.s 			page 30


 1178              	.LFB77:
 381:app_statemachine.c **** 
 382:app_statemachine.c **** // %==========================================================================%
 383:app_statemachine.c **** // %                                 Error                                    %
 384:app_statemachine.c **** // %==========================================================================%
 385:app_statemachine.c **** static const char *sev_str(err_sev_t s)
 386:app_statemachine.c **** {
 1179              		.loc 1 386 0
 1180              		.cfi_startproc
 1181              		@ args = 0, pretend = 0, frame = 8
 1182              		@ frame_needed = 1, uses_anonymous_args = 0
 1183              		@ link register save eliminated.
 1184 0000 80B4     		push	{r7}
 1185              		.cfi_def_cfa_offset 4
 1186              		.cfi_offset 7, -4
 1187 0002 83B0     		sub	sp, sp, #12
 1188              		.cfi_def_cfa_offset 16
 1189 0004 00AF     		add	r7, sp, #0
 1190              		.cfi_def_cfa_register 7
 1191 0006 0346     		mov	r3, r0
 1192 0008 FB71     		strb	r3, [r7, #7]
 387:app_statemachine.c ****     switch (s) {
 1193              		.loc 1 387 0
 1194 000a FB79     		ldrb	r3, [r7, #7]	@ zero_extendqisi2
 1195 000c 022B     		cmp	r3, #2
 1196 000e 05D0     		beq	.L74
 1197 0010 032B     		cmp	r3, #3
 1198 0012 05D0     		beq	.L75
 1199 0014 012B     		cmp	r3, #1
 1200 0016 05D1     		bne	.L78
 388:app_statemachine.c ****         case SEV_WARN:     return "WARN";
 1201              		.loc 1 388 0
 1202 0018 054B     		ldr	r3, .L79
 1203 001a 04E0     		b	.L77
 1204              	.L74:
 389:app_statemachine.c ****         case SEV_SOFTWARE: return "SOFTWARE";
 1205              		.loc 1 389 0
 1206 001c 054B     		ldr	r3, .L79+4
 1207 001e 02E0     		b	.L77
 1208              	.L75:
 390:app_statemachine.c ****         case SEV_FATAL:    return "FATAL";
 1209              		.loc 1 390 0
 1210 0020 054B     		ldr	r3, .L79+8
 1211 0022 00E0     		b	.L77
 1212              	.L78:
 391:app_statemachine.c ****         default:           return "USER";
 1213              		.loc 1 391 0
 1214 0024 054B     		ldr	r3, .L79+12
 1215              	.L77:
 392:app_statemachine.c ****     }
 393:app_statemachine.c **** }
 1216              		.loc 1 393 0
 1217 0026 1846     		mov	r0, r3
 1218 0028 0C37     		adds	r7, r7, #12
 1219              		.cfi_def_cfa_offset 4
 1220 002a BD46     		mov	sp, r7
 1221              		.cfi_def_cfa_register 13
ARM GAS  C:\Users\JENNEW~1\AppData\Local\Temp\ccTobH5m.s 			page 31


 1222              		@ sp needed
 1223 002c 80BC     		pop	{r7}
 1224              		.cfi_restore 7
 1225              		.cfi_def_cfa_offset 0
 1226 002e 7047     		bx	lr
 1227              	.L80:
 1228              		.align	2
 1229              	.L79:
 1230 0030 5C030000 		.word	.LC23
 1231 0034 64030000 		.word	.LC24
 1232 0038 70030000 		.word	.LC25
 1233 003c 78030000 		.word	.LC26
 1234              		.cfi_endproc
 1235              	.LFE77:
 1236              		.size	sev_str, .-sev_str
 1237              		.section	.rodata
 1238 037d 000000   		.align	2
 1239              	.LC27:
 1240 0380 0D0A5B45 		.ascii	"\015\012[ERROR:\000"
 1240      52524F52 
 1240      3A00
 1241 038a 0000     		.align	2
 1242              	.LC28:
 1243 038c 5D2000   		.ascii	"] \000"
 1244 038f 00       		.align	2
 1245              	.LC29:
 1246 0390 286E6F20 		.ascii	"(no msg)\000"
 1246      6D736729 
 1246      00
 1247 0399 000000   		.align	2
 1248              	.LC30:
 1249 039c 0D0A4641 		.ascii	"\015\012FATAL latched. Power cycle or Ctrl+R to cle"
 1249      54414C20 
 1249      6C617463 
 1249      6865642E 
 1249      20506F77 
 1250 03c9 61722E0D 		.ascii	"ar.\015\012\000"
 1250      0A00
 1251 03cf 00       		.align	2
 1252              	.LC31:
 1253 03d0 0D0A416E 		.ascii	"\015\012Any key to acknowledge.\015\012\000"
 1253      79206B65 
 1253      7920746F 
 1253      2061636B 
 1253      6E6F776C 
 1254              		.section	.text.entry_error_active,"ax",%progbits
 1255              		.align	2
 1256              		.thumb
 1257              		.thumb_func
 1258              		.type	entry_error_active, %function
 1259              	entry_error_active:
 1260              	.LFB78:
 394:app_statemachine.c **** static void entry_error_active(app_ctx_t *ctx)
 395:app_statemachine.c **** {
 1261              		.loc 1 395 0
 1262              		.cfi_startproc
 1263              		@ args = 0, pretend = 0, frame = 8
ARM GAS  C:\Users\JENNEW~1\AppData\Local\Temp\ccTobH5m.s 			page 32


 1264              		@ frame_needed = 1, uses_anonymous_args = 0
 1265 0000 80B5     		push	{r7, lr}
 1266              		.cfi_def_cfa_offset 8
 1267              		.cfi_offset 7, -8
 1268              		.cfi_offset 14, -4
 1269 0002 82B0     		sub	sp, sp, #8
 1270              		.cfi_def_cfa_offset 16
 1271 0004 00AF     		add	r7, sp, #0
 1272              		.cfi_def_cfa_register 7
 1273 0006 7860     		str	r0, [r7, #4]
 396:app_statemachine.c ****     UART_DEBUG_PutString("\r\n[ERROR:");
 1274              		.loc 1 396 0
 1275 0008 1848     		ldr	r0, .L86
 1276 000a FFF7FEFF 		bl	UART_DEBUG_PutString
 397:app_statemachine.c ****     UART_DEBUG_PutString(sev_str(ctx->err_sev));
 1277              		.loc 1 397 0
 1278 000e 7B68     		ldr	r3, [r7, #4]
 1279 0010 9B79     		ldrb	r3, [r3, #6]	@ zero_extendqisi2
 1280 0012 1846     		mov	r0, r3
 1281 0014 FFF7FEFF 		bl	sev_str
 1282 0018 0346     		mov	r3, r0
 1283 001a 1846     		mov	r0, r3
 1284 001c FFF7FEFF 		bl	UART_DEBUG_PutString
 398:app_statemachine.c ****     UART_DEBUG_PutString("] ");
 1285              		.loc 1 398 0
 1286 0020 1348     		ldr	r0, .L86+4
 1287 0022 FFF7FEFF 		bl	UART_DEBUG_PutString
 399:app_statemachine.c ****     UART_DEBUG_PutString(ctx->err_msg ? ctx->err_msg : "(no msg)");
 1288              		.loc 1 399 0
 1289 0026 7B68     		ldr	r3, [r7, #4]
 1290 0028 9B68     		ldr	r3, [r3, #8]
 1291 002a 002B     		cmp	r3, #0
 1292 002c 02D0     		beq	.L82
 1293              		.loc 1 399 0 is_stmt 0 discriminator 1
 1294 002e 7B68     		ldr	r3, [r7, #4]
 1295 0030 9B68     		ldr	r3, [r3, #8]
 1296 0032 00E0     		b	.L83
 1297              	.L82:
 1298              		.loc 1 399 0 discriminator 2
 1299 0034 0F4B     		ldr	r3, .L86+8
 1300              	.L83:
 1301              		.loc 1 399 0 discriminator 4
 1302 0036 1846     		mov	r0, r3
 1303 0038 FFF7FEFF 		bl	UART_DEBUG_PutString
 400:app_statemachine.c ****     if (ctx->err_sev == SEV_FATAL && ctx->gimbal)
 1304              		.loc 1 400 0 is_stmt 1 discriminator 4
 1305 003c 7B68     		ldr	r3, [r7, #4]
 1306 003e 9B79     		ldrb	r3, [r3, #6]	@ zero_extendqisi2
 1307 0040 032B     		cmp	r3, #3
 1308 0042 0CD1     		bne	.L84
 1309              		.loc 1 400 0 is_stmt 0 discriminator 1
 1310 0044 7B68     		ldr	r3, [r7, #4]
 1311 0046 1B68     		ldr	r3, [r3]
 1312 0048 002B     		cmp	r3, #0
 1313 004a 08D0     		beq	.L84
 401:app_statemachine.c ****     {
 402:app_statemachine.c ****         hamfly_kill(ctx->gimbal);
ARM GAS  C:\Users\JENNEW~1\AppData\Local\Temp\ccTobH5m.s 			page 33


 1314              		.loc 1 402 0 is_stmt 1
 1315 004c 7B68     		ldr	r3, [r7, #4]
 1316 004e 1B68     		ldr	r3, [r3]
 1317 0050 1846     		mov	r0, r3
 1318 0052 FFF7FEFF 		bl	hamfly_kill
 403:app_statemachine.c ****         UART_DEBUG_PutString("\r\nFATAL latched. Power cycle or Ctrl+R to clear.\r\n");
 1319              		.loc 1 403 0
 1320 0056 0848     		ldr	r0, .L86+12
 1321 0058 FFF7FEFF 		bl	UART_DEBUG_PutString
 1322 005c 02E0     		b	.L85
 1323              	.L84:
 404:app_statemachine.c ****     }
 405:app_statemachine.c ****     else    UART_DEBUG_PutString("\r\nAny key to acknowledge.\r\n");
 1324              		.loc 1 405 0
 1325 005e 0748     		ldr	r0, .L86+16
 1326 0060 FFF7FEFF 		bl	UART_DEBUG_PutString
 1327              	.L85:
 406:app_statemachine.c **** }
 1328              		.loc 1 406 0
 1329 0064 00BF     		nop
 1330 0066 0837     		adds	r7, r7, #8
 1331              		.cfi_def_cfa_offset 8
 1332 0068 BD46     		mov	sp, r7
 1333              		.cfi_def_cfa_register 13
 1334              		@ sp needed
 1335 006a 80BD     		pop	{r7, pc}
 1336              	.L87:
 1337              		.align	2
 1338              	.L86:
 1339 006c 80030000 		.word	.LC27
 1340 0070 8C030000 		.word	.LC28
 1341 0074 90030000 		.word	.LC29
 1342 0078 9C030000 		.word	.LC30
 1343 007c D0030000 		.word	.LC31
 1344              		.cfi_endproc
 1345              	.LFE78:
 1346              		.size	entry_error_active, .-entry_error_active
 1347              		.section	.text.manu_pan_tilt_deg,"ax",%progbits
 1348              		.align	2
 1349              		.thumb
 1350              		.thumb_func
 1351              		.type	manu_pan_tilt_deg, %function
 1352              	manu_pan_tilt_deg:
 1353              	.LFB79:
 407:app_statemachine.c **** 
 408:app_statemachine.c **** // %==========================================================================%
 409:app_statemachine.c **** // %                             Key Handling                                 %
 410:app_statemachine.c **** // %==========================================================================%
 411:app_statemachine.c **** #define KEY_CTRL_R 0x12  // Reset ASCII code.
 412:app_statemachine.c **** 
 413:app_statemachine.c **** static uint8_t manu_pan_tilt_deg(const app_ctx_t *ctx, float *pan_deg, float *tilt_deg)
 414:app_statemachine.c **** {
 1354              		.loc 1 414 0
 1355              		.cfi_startproc
 1356              		@ args = 0, pretend = 0, frame = 256
 1357              		@ frame_needed = 1, uses_anonymous_args = 0
 1358 0000 80B5     		push	{r7, lr}
ARM GAS  C:\Users\JENNEW~1\AppData\Local\Temp\ccTobH5m.s 			page 34


 1359              		.cfi_def_cfa_offset 8
 1360              		.cfi_offset 7, -8
 1361              		.cfi_offset 14, -4
 1362 0002 C0B0     		sub	sp, sp, #256
 1363              		.cfi_def_cfa_offset 264
 1364 0004 00AF     		add	r7, sp, #0
 1365              		.cfi_def_cfa_register 7
 1366 0006 F860     		str	r0, [r7, #12]
 1367 0008 B960     		str	r1, [r7, #8]
 1368 000a 7A60     		str	r2, [r7, #4]
 415:app_statemachine.c ****     if (!ctx->gimbal) return 0u;
 1369              		.loc 1 415 0
 1370 000c FB68     		ldr	r3, [r7, #12]
 1371 000e 1B68     		ldr	r3, [r3]
 1372 0010 002B     		cmp	r3, #0
 1373 0012 01D1     		bne	.L89
 1374              		.loc 1 415 0 is_stmt 0 discriminator 1
 1375 0014 0023     		movs	r3, #0
 1376 0016 18E0     		b	.L92
 1377              	.L89:
 416:app_statemachine.c ****     hamfly_telemetry_t st;
 417:app_statemachine.c ****     hamfly_get_telemetry(ctx->gimbal, &st);
 1378              		.loc 1 417 0 is_stmt 1
 1379 0018 FB68     		ldr	r3, [r7, #12]
 1380 001a 1B68     		ldr	r3, [r3]
 1381 001c 07F11402 		add	r2, r7, #20
 1382 0020 1146     		mov	r1, r2
 1383 0022 1846     		mov	r0, r3
 1384 0024 FFF7FEFF 		bl	hamfly_get_telemetry
 418:app_statemachine.c ****     if (!st.valid) return 0u;
 1385              		.loc 1 418 0
 1386 0028 3B7D     		ldrb	r3, [r7, #20]	@ zero_extendqisi2
 1387 002a 83F00103 		eor	r3, r3, #1
 1388 002e DBB2     		uxtb	r3, r3
 1389 0030 002B     		cmp	r3, #0
 1390 0032 01D0     		beq	.L91
 1391              		.loc 1 418 0 is_stmt 0 discriminator 1
 1392 0034 0023     		movs	r3, #0
 1393 0036 08E0     		b	.L92
 1394              	.L91:
 419:app_statemachine.c ****     float roll_deg;                                   /* discarded */
 420:app_statemachine.c ****     return hamfly_telemetry_to_euler(&st, pan_deg, tilt_deg, &roll_deg);
 1395              		.loc 1 420 0 is_stmt 1
 1396 0038 07F11003 		add	r3, r7, #16
 1397 003c 07F11400 		add	r0, r7, #20
 1398 0040 7A68     		ldr	r2, [r7, #4]
 1399 0042 B968     		ldr	r1, [r7, #8]
 1400 0044 FFF7FEFF 		bl	hamfly_telemetry_to_euler
 1401 0048 0346     		mov	r3, r0
 1402              	.L92:
 421:app_statemachine.c **** }
 1403              		.loc 1 421 0 discriminator 1
 1404 004a 1846     		mov	r0, r3
 1405 004c 07F58077 		add	r7, r7, #256
 1406              		.cfi_def_cfa_offset 8
 1407 0050 BD46     		mov	sp, r7
 1408              		.cfi_def_cfa_register 13
ARM GAS  C:\Users\JENNEW~1\AppData\Local\Temp\ccTobH5m.s 			page 35


 1409              		@ sp needed
 1410 0052 80BD     		pop	{r7, pc}
 1411              		.cfi_endproc
 1412              	.LFE79:
 1413              		.size	manu_pan_tilt_deg, .-manu_pan_tilt_deg
 1414              		.section	.rodata
 1415              		.align	2
 1416              	.LC32:
 1417 03ec 6E6F2067 		.ascii	"no gimbal handle\000"
 1417      696D6261 
 1417      6C206861 
 1417      6E646C65 
 1417      00
 1418 03fd 000000   		.align	2
 1419              	.LC33:
 1420 0400 6E6F2074 		.ascii	"no telemetry (origin not set)\000"
 1420      656C656D 
 1420      65747279 
 1420      20286F72 
 1420      6967696E 
 1421 041e 0000     		.align	2
 1422              	.LC34:
 1423 0420 0D0A5B4F 		.ascii	"\015\012[ORIGIN] captured.\015\012\000"
 1423      52494749 
 1423      4E5D2063 
 1423      61707475 
 1423      7265642E 
 1424              		.section	.text.set_origin,"ax",%progbits
 1425              		.align	2
 1426              		.thumb
 1427              		.thumb_func
 1428              		.type	set_origin, %function
 1429              	set_origin:
 1430              	.LFB80:
 422:app_statemachine.c **** 
 423:app_statemachine.c **** /* Capture current gimbal attitude as the origin (global '['). */
 424:app_statemachine.c **** static void set_origin(app_ctx_t *ctx)
 425:app_statemachine.c **** {
 1431              		.loc 1 425 0
 1432              		.cfi_startproc
 1433              		@ args = 0, pretend = 0, frame = 16
 1434              		@ frame_needed = 1, uses_anonymous_args = 0
 1435 0000 80B5     		push	{r7, lr}
 1436              		.cfi_def_cfa_offset 8
 1437              		.cfi_offset 7, -8
 1438              		.cfi_offset 14, -4
 1439 0002 84B0     		sub	sp, sp, #16
 1440              		.cfi_def_cfa_offset 24
 1441 0004 00AF     		add	r7, sp, #0
 1442              		.cfi_def_cfa_register 7
 1443 0006 7860     		str	r0, [r7, #4]
 426:app_statemachine.c ****     if (!ctx->gimbal) { app_raise_error(ctx, SEV_USER, "no gimbal handle"); return; }
 1444              		.loc 1 426 0
 1445 0008 7B68     		ldr	r3, [r7, #4]
 1446 000a 1B68     		ldr	r3, [r3]
 1447 000c 002B     		cmp	r3, #0
 1448 000e 05D1     		bne	.L94
ARM GAS  C:\Users\JENNEW~1\AppData\Local\Temp\ccTobH5m.s 			page 36


 1449              		.loc 1 426 0 is_stmt 0 discriminator 1
 1450 0010 134A     		ldr	r2, .L98
 1451 0012 0021     		movs	r1, #0
 1452 0014 7868     		ldr	r0, [r7, #4]
 1453 0016 FFF7FEFF 		bl	app_raise_error
 1454 001a 1DE0     		b	.L93
 1455              	.L94:
 427:app_statemachine.c **** 
 428:app_statemachine.c ****     float pan, tilt;
 429:app_statemachine.c ****     if (!manu_pan_tilt_deg(ctx, &pan, &tilt)) {
 1456              		.loc 1 429 0 is_stmt 1
 1457 001c 07F10802 		add	r2, r7, #8
 1458 0020 07F10C03 		add	r3, r7, #12
 1459 0024 1946     		mov	r1, r3
 1460 0026 7868     		ldr	r0, [r7, #4]
 1461 0028 FFF7FEFF 		bl	manu_pan_tilt_deg
 1462 002c 0346     		mov	r3, r0
 1463 002e 002B     		cmp	r3, #0
 1464 0030 05D1     		bne	.L96
 430:app_statemachine.c ****         app_raise_error(ctx, SEV_USER, "no telemetry (origin not set)");
 1465              		.loc 1 430 0
 1466 0032 0C4A     		ldr	r2, .L98+4
 1467 0034 0021     		movs	r1, #0
 1468 0036 7868     		ldr	r0, [r7, #4]
 1469 0038 FFF7FEFF 		bl	app_raise_error
 431:app_statemachine.c ****         return;
 1470              		.loc 1 431 0
 1471 003c 0CE0     		b	.L93
 1472              	.L96:
 432:app_statemachine.c ****     }
 433:app_statemachine.c ****     ctx->origin_pan_deg  = pan;
 1473              		.loc 1 433 0
 1474 003e FA68     		ldr	r2, [r7, #12]	@ float
 1475 0040 7B68     		ldr	r3, [r7, #4]
 1476 0042 9A61     		str	r2, [r3, #24]	@ float
 434:app_statemachine.c ****     ctx->origin_tilt_deg = tilt;
 1477              		.loc 1 434 0
 1478 0044 BA68     		ldr	r2, [r7, #8]	@ float
 1479 0046 7B68     		ldr	r3, [r7, #4]
 1480 0048 DA61     		str	r2, [r3, #28]	@ float
 435:app_statemachine.c ****     ctx->origin_set = 1u;
 1481              		.loc 1 435 0
 1482 004a 7B68     		ldr	r3, [r7, #4]
 1483 004c 0122     		movs	r2, #1
 1484 004e 83F82020 		strb	r2, [r3, #32]
 436:app_statemachine.c ****     UART_DEBUG_PutString("\r\n[ORIGIN] captured.\r\n");
 1485              		.loc 1 436 0
 1486 0052 0548     		ldr	r0, .L98+8
 1487 0054 FFF7FEFF 		bl	UART_DEBUG_PutString
 1488              	.L93:
 437:app_statemachine.c **** }
 1489              		.loc 1 437 0
 1490 0058 1037     		adds	r7, r7, #16
 1491              		.cfi_def_cfa_offset 8
 1492 005a BD46     		mov	sp, r7
 1493              		.cfi_def_cfa_register 13
 1494              		@ sp needed
ARM GAS  C:\Users\JENNEW~1\AppData\Local\Temp\ccTobH5m.s 			page 37


 1495 005c 80BD     		pop	{r7, pc}
 1496              	.L99:
 1497 005e 00BF     		.align	2
 1498              	.L98:
 1499 0060 EC030000 		.word	.LC32
 1500 0064 00040000 		.word	.LC33
 1501 0068 20040000 		.word	.LC34
 1502              		.cfi_endproc
 1503              	.LFE80:
 1504              		.size	set_origin, .-set_origin
 1505              		.section	.rodata
 1506 0437 00       		.align	2
 1507              	.LC35:
 1508 0438 0D0A2D2D 		.ascii	"\015\012--- keys ---\015\012 1 hold   2 manual     "
 1508      2D206B65 
 1508      7973202D 
 1508      2D2D0D0A 
 1508      20312068 
 1509 045f 20203320 		.ascii	"  3 auto\015\012 x kill   [ set-origin   ? help\015"
 1509      6175746F 
 1509      0D0A2078 
 1509      206B696C 
 1509      6C202020 
 1510 0489 0A206520 		.ascii	"\012 e exit   ] home\015\012 (in MANU) numpad/ijkl/"
 1510      65786974 
 1510      2020205D 
 1510      20686F6D 
 1510      650D0A20 
 1511 04b3 77617364 		.ascii	"wasd nudge\015\012\000"
 1511      206E7564 
 1511      67650D0A 
 1511      00
 1512              		.section	.text.print_help,"ax",%progbits
 1513              		.align	2
 1514              		.thumb
 1515              		.thumb_func
 1516              		.type	print_help, %function
 1517              	print_help:
 1518              	.LFB81:
 438:app_statemachine.c **** 
 439:app_statemachine.c **** static void print_help(const app_ctx_t *ctx)
 440:app_statemachine.c **** {
 1519              		.loc 1 440 0
 1520              		.cfi_startproc
 1521              		@ args = 0, pretend = 0, frame = 8
 1522              		@ frame_needed = 1, uses_anonymous_args = 0
 1523 0000 80B5     		push	{r7, lr}
 1524              		.cfi_def_cfa_offset 8
 1525              		.cfi_offset 7, -8
 1526              		.cfi_offset 14, -4
 1527 0002 82B0     		sub	sp, sp, #8
 1528              		.cfi_def_cfa_offset 16
 1529 0004 00AF     		add	r7, sp, #0
 1530              		.cfi_def_cfa_register 7
 1531 0006 7860     		str	r0, [r7, #4]
 441:app_statemachine.c ****     (void)ctx;
 442:app_statemachine.c ****     UART_DEBUG_PutString(
ARM GAS  C:\Users\JENNEW~1\AppData\Local\Temp\ccTobH5m.s 			page 38


 1532              		.loc 1 442 0
 1533 0008 0348     		ldr	r0, .L101
 1534 000a FFF7FEFF 		bl	UART_DEBUG_PutString
 443:app_statemachine.c ****         "\r\n--- keys ---\r\n"
 444:app_statemachine.c ****         " 1 hold   2 manual       3 auto\r\n"
 445:app_statemachine.c ****         " x kill   [ set-origin   ? help\r\n"
 446:app_statemachine.c ****         " e exit   ] home\r\n"
 447:app_statemachine.c ****         " (in MANU) numpad/ijkl/wasd nudge\r\n");
 448:app_statemachine.c **** }
 1535              		.loc 1 448 0
 1536 000e 00BF     		nop
 1537 0010 0837     		adds	r7, r7, #8
 1538              		.cfi_def_cfa_offset 8
 1539 0012 BD46     		mov	sp, r7
 1540              		.cfi_def_cfa_register 13
 1541              		@ sp needed
 1542 0014 80BD     		pop	{r7, pc}
 1543              	.L102:
 1544 0016 00BF     		.align	2
 1545              	.L101:
 1546 0018 38040000 		.word	.LC35
 1547              		.cfi_endproc
 1548              	.LFE81:
 1549              		.size	print_help, .-print_help
 1550              		.section	.rodata
 1551              		.align	2
 1552              	.LC36:
 1553 04c0 0D0A4641 		.ascii	"\015\012FATAL cleared.\015\012\000"
 1553      54414C20 
 1553      636C6561 
 1553      7265642E 
 1553      0D0A00
 1554              		.section	.text.handle_global_key,"ax",%progbits
 1555              		.align	2
 1556              		.thumb
 1557              		.thumb_func
 1558              		.type	handle_global_key, %function
 1559              	handle_global_key:
 1560              	.LFB82:
 449:app_statemachine.c **** 
 450:app_statemachine.c **** /* ---- always-global keys (honored in every non-FATAL leaf) ------------- */
 451:app_statemachine.c **** static uint8_t handle_global_key(app_ctx_t *ctx, char k)
 452:app_statemachine.c **** {
 1561              		.loc 1 452 0
 1562              		.cfi_startproc
 1563              		@ args = 0, pretend = 0, frame = 8
 1564              		@ frame_needed = 1, uses_anonymous_args = 0
 1565 0000 80B5     		push	{r7, lr}
 1566              		.cfi_def_cfa_offset 8
 1567              		.cfi_offset 7, -8
 1568              		.cfi_offset 14, -4
 1569 0002 82B0     		sub	sp, sp, #8
 1570              		.cfi_def_cfa_offset 16
 1571 0004 00AF     		add	r7, sp, #0
 1572              		.cfi_def_cfa_register 7
 1573 0006 7860     		str	r0, [r7, #4]
 1574 0008 0B46     		mov	r3, r1
ARM GAS  C:\Users\JENNEW~1\AppData\Local\Temp\ccTobH5m.s 			page 39


 1575 000a FB70     		strb	r3, [r7, #3]
 453:app_statemachine.c ****     switch (k) {
 1576              		.loc 1 453 0
 1577 000c FB78     		ldrb	r3, [r7, #3]	@ zero_extendqisi2
 1578 000e 3F2B     		cmp	r3, #63
 1579 0010 33D0     		beq	.L105
 1580 0012 3F2B     		cmp	r3, #63
 1581 0014 02DC     		bgt	.L106
 1582 0016 122B     		cmp	r3, #18
 1583 0018 05D0     		beq	.L107
 1584 001a 33E0     		b	.L104
 1585              	.L106:
 1586 001c 5B2B     		cmp	r3, #91
 1587 001e 27D0     		beq	.L108
 1588 0020 782B     		cmp	r3, #120
 1589 0022 16D0     		beq	.L109
 1590 0024 2EE0     		b	.L104
 1591              	.L107:
 454:app_statemachine.c ****         case KEY_CTRL_R:                       /* clear FATAL latch */
 455:app_statemachine.c ****             if (ctx->fatal_latched) {
 1592              		.loc 1 455 0
 1593 0026 7B68     		ldr	r3, [r7, #4]
 1594 0028 1B7B     		ldrb	r3, [r3, #12]	@ zero_extendqisi2
 1595 002a 002B     		cmp	r3, #0
 1596 002c 0FD0     		beq	.L110
 456:app_statemachine.c ****                 ctx->fatal_latched = 0u;
 1597              		.loc 1 456 0
 1598 002e 7B68     		ldr	r3, [r7, #4]
 1599 0030 0022     		movs	r2, #0
 1600 0032 1A73     		strb	r2, [r3, #12]
 457:app_statemachine.c ****                 ctx->err_sev = SEV_USER;
 1601              		.loc 1 457 0
 1602 0034 7B68     		ldr	r3, [r7, #4]
 1603 0036 0022     		movs	r2, #0
 1604 0038 9A71     		strb	r2, [r3, #6]
 458:app_statemachine.c ****                 ctx->err_msg = NULL;
 1605              		.loc 1 458 0
 1606 003a 7B68     		ldr	r3, [r7, #4]
 1607 003c 0022     		movs	r2, #0
 1608 003e 9A60     		str	r2, [r3, #8]
 459:app_statemachine.c ****                 UART_DEBUG_PutString("\r\nFATAL cleared.\r\n");
 1609              		.loc 1 459 0
 1610 0040 1348     		ldr	r0, .L113
 1611 0042 FFF7FEFF 		bl	UART_DEBUG_PutString
 460:app_statemachine.c ****                 transition(ctx, STBY_HOLD);
 1612              		.loc 1 460 0
 1613 0046 0621     		movs	r1, #6
 1614 0048 7868     		ldr	r0, [r7, #4]
 1615 004a FFF7FEFF 		bl	transition
 1616              	.L110:
 461:app_statemachine.c ****             }
 462:app_statemachine.c ****             return 1;                          /* reserved key, always consumed */
 1617              		.loc 1 462 0
 1618 004e 0123     		movs	r3, #1
 1619 0050 19E0     		b	.L111
 1620              	.L109:
 463:app_statemachine.c ****         case 'x':                              /* soft kill */
ARM GAS  C:\Users\JENNEW~1\AppData\Local\Temp\ccTobH5m.s 			page 40


 464:app_statemachine.c ****             if (ctx->gimbal) hamfly_kill(ctx->gimbal);
 1621              		.loc 1 464 0
 1622 0052 7B68     		ldr	r3, [r7, #4]
 1623 0054 1B68     		ldr	r3, [r3]
 1624 0056 002B     		cmp	r3, #0
 1625 0058 04D0     		beq	.L112
 1626              		.loc 1 464 0 is_stmt 0 discriminator 1
 1627 005a 7B68     		ldr	r3, [r7, #4]
 1628 005c 1B68     		ldr	r3, [r3]
 1629 005e 1846     		mov	r0, r3
 1630 0060 FFF7FEFF 		bl	hamfly_kill
 1631              	.L112:
 465:app_statemachine.c ****             transition(ctx, STBY_HOLD);
 1632              		.loc 1 465 0 is_stmt 1
 1633 0064 0621     		movs	r1, #6
 1634 0066 7868     		ldr	r0, [r7, #4]
 1635 0068 FFF7FEFF 		bl	transition
 466:app_statemachine.c ****             return 1;
 1636              		.loc 1 466 0
 1637 006c 0123     		movs	r3, #1
 1638 006e 0AE0     		b	.L111
 1639              	.L108:
 467:app_statemachine.c ****         case '[': set_origin(ctx);  return 1;
 1640              		.loc 1 467 0
 1641 0070 7868     		ldr	r0, [r7, #4]
 1642 0072 FFF7FEFF 		bl	set_origin
 1643 0076 0123     		movs	r3, #1
 1644 0078 05E0     		b	.L111
 1645              	.L105:
 468:app_statemachine.c ****             case '?': print_help(ctx);  return 1;
 1646              		.loc 1 468 0
 1647 007a 7868     		ldr	r0, [r7, #4]
 1648 007c FFF7FEFF 		bl	print_help
 1649 0080 0123     		movs	r3, #1
 1650 0082 00E0     		b	.L111
 1651              	.L104:
 469:app_statemachine.c ****             default:  return 0;
 1652              		.loc 1 469 0
 1653 0084 0023     		movs	r3, #0
 1654              	.L111:
 470:app_statemachine.c ****     }
 471:app_statemachine.c **** }
 1655              		.loc 1 471 0
 1656 0086 1846     		mov	r0, r3
 1657 0088 0837     		adds	r7, r7, #8
 1658              		.cfi_def_cfa_offset 8
 1659 008a BD46     		mov	sp, r7
 1660              		.cfi_def_cfa_register 13
 1661              		@ sp needed
 1662 008c 80BD     		pop	{r7, pc}
 1663              	.L114:
 1664 008e 00BF     		.align	2
 1665              	.L113:
 1666 0090 C0040000 		.word	.LC36
 1667              		.cfi_endproc
 1668              	.LFE82:
 1669              		.size	handle_global_key, .-handle_global_key
ARM GAS  C:\Users\JENNEW~1\AppData\Local\Temp\ccTobH5m.s 			page 41


 1670              		.section	.text.leaf_traps_nav,"ax",%progbits
 1671              		.align	2
 1672              		.thumb
 1673              		.thumb_func
 1674              		.type	leaf_traps_nav, %function
 1675              	leaf_traps_nav:
 1676              	.LFB83:
 472:app_statemachine.c **** 
 473:app_statemachine.c **** /* ---- navigation keys (suppressed in trapping leaves) ------------------ */
 474:app_statemachine.c **** static uint8_t leaf_traps_nav(state_t s) { return (s == MANU_JOYSTICK); }
 1677              		.loc 1 474 0
 1678              		.cfi_startproc
 1679              		@ args = 0, pretend = 0, frame = 8
 1680              		@ frame_needed = 1, uses_anonymous_args = 0
 1681              		@ link register save eliminated.
 1682 0000 80B4     		push	{r7}
 1683              		.cfi_def_cfa_offset 4
 1684              		.cfi_offset 7, -4
 1685 0002 83B0     		sub	sp, sp, #12
 1686              		.cfi_def_cfa_offset 16
 1687 0004 00AF     		add	r7, sp, #0
 1688              		.cfi_def_cfa_register 7
 1689 0006 0346     		mov	r3, r0
 1690 0008 FB71     		strb	r3, [r7, #7]
 1691              		.loc 1 474 0
 1692 000a FB79     		ldrb	r3, [r7, #7]	@ zero_extendqisi2
 1693 000c 072B     		cmp	r3, #7
 1694 000e 0CBF     		ite	eq
 1695 0010 0123     		moveq	r3, #1
 1696 0012 0023     		movne	r3, #0
 1697 0014 DBB2     		uxtb	r3, r3
 1698 0016 1846     		mov	r0, r3
 1699 0018 0C37     		adds	r7, r7, #12
 1700              		.cfi_def_cfa_offset 4
 1701 001a BD46     		mov	sp, r7
 1702              		.cfi_def_cfa_register 13
 1703              		@ sp needed
 1704 001c 80BC     		pop	{r7}
 1705              		.cfi_restore 7
 1706              		.cfi_def_cfa_offset 0
 1707 001e 7047     		bx	lr
 1708              		.cfi_endproc
 1709              	.LFE83:
 1710              		.size	leaf_traps_nav, .-leaf_traps_nav
 1711              		.section	.text.handle_nav_key,"ax",%progbits
 1712              		.align	2
 1713              		.thumb
 1714              		.thumb_func
 1715              		.type	handle_nav_key, %function
 1716              	handle_nav_key:
 1717              	.LFB84:
 475:app_statemachine.c **** 
 476:app_statemachine.c **** static uint8_t handle_nav_key(app_ctx_t *ctx, char k)
 477:app_statemachine.c **** {
 1718              		.loc 1 477 0
 1719              		.cfi_startproc
 1720              		@ args = 0, pretend = 0, frame = 8
ARM GAS  C:\Users\JENNEW~1\AppData\Local\Temp\ccTobH5m.s 			page 42


 1721              		@ frame_needed = 1, uses_anonymous_args = 0
 1722 0000 80B5     		push	{r7, lr}
 1723              		.cfi_def_cfa_offset 8
 1724              		.cfi_offset 7, -8
 1725              		.cfi_offset 14, -4
 1726 0002 82B0     		sub	sp, sp, #8
 1727              		.cfi_def_cfa_offset 16
 1728 0004 00AF     		add	r7, sp, #0
 1729              		.cfi_def_cfa_register 7
 1730 0006 7860     		str	r0, [r7, #4]
 1731 0008 0B46     		mov	r3, r1
 1732 000a FB70     		strb	r3, [r7, #3]
 478:app_statemachine.c ****     switch (k) {
 1733              		.loc 1 478 0
 1734 000c FB78     		ldrb	r3, [r7, #3]	@ zero_extendqisi2
 1735 000e 322B     		cmp	r3, #50
 1736 0010 09D0     		beq	.L119
 1737 0012 332B     		cmp	r3, #51
 1738 0014 0DD0     		beq	.L120
 1739 0016 312B     		cmp	r3, #49
 1740 0018 11D1     		bne	.L123
 479:app_statemachine.c ****         case '1': transition(ctx, STBY_HOLD);     return 1;
 1741              		.loc 1 479 0
 1742 001a 0621     		movs	r1, #6
 1743 001c 7868     		ldr	r0, [r7, #4]
 1744 001e FFF7FEFF 		bl	transition
 1745 0022 0123     		movs	r3, #1
 1746 0024 0CE0     		b	.L122
 1747              	.L119:
 480:app_statemachine.c ****         case '2': transition(ctx, MANU_JOYSTICK); return 1;
 1748              		.loc 1 480 0
 1749 0026 0721     		movs	r1, #7
 1750 0028 7868     		ldr	r0, [r7, #4]
 1751 002a FFF7FEFF 		bl	transition
 1752 002e 0123     		movs	r3, #1
 1753 0030 06E0     		b	.L122
 1754              	.L120:
 481:app_statemachine.c ****         case '3': transition(ctx, AUTO_TRACKING); return 1;
 1755              		.loc 1 481 0
 1756 0032 0C21     		movs	r1, #12
 1757 0034 7868     		ldr	r0, [r7, #4]
 1758 0036 FFF7FEFF 		bl	transition
 1759 003a 0123     		movs	r3, #1
 1760 003c 00E0     		b	.L122
 1761              	.L123:
 482:app_statemachine.c ****         default:  return 0;
 1762              		.loc 1 482 0
 1763 003e 0023     		movs	r3, #0
 1764              	.L122:
 483:app_statemachine.c ****     }
 484:app_statemachine.c **** }
 1765              		.loc 1 484 0
 1766 0040 1846     		mov	r0, r3
 1767 0042 0837     		adds	r7, r7, #8
 1768              		.cfi_def_cfa_offset 8
 1769 0044 BD46     		mov	sp, r7
 1770              		.cfi_def_cfa_register 13
ARM GAS  C:\Users\JENNEW~1\AppData\Local\Temp\ccTobH5m.s 			page 43


 1771              		@ sp needed
 1772 0046 80BD     		pop	{r7, pc}
 1773              		.cfi_endproc
 1774              	.LFE84:
 1775              		.size	handle_nav_key, .-handle_nav_key
 1776              		.section	.text.key_error_active,"ax",%progbits
 1777              		.align	2
 1778              		.thumb
 1779              		.thumb_func
 1780              		.type	key_error_active, %function
 1781              	key_error_active:
 1782              	.LFB85:
 485:app_statemachine.c **** 
 486:app_statemachine.c **** /* ---- leaf-specific keys ----------------------------------------------- */
 487:app_statemachine.c **** static uint8_t key_error_active(app_ctx_t *ctx, char k)
 488:app_statemachine.c **** {
 1783              		.loc 1 488 0
 1784              		.cfi_startproc
 1785              		@ args = 0, pretend = 0, frame = 16
 1786              		@ frame_needed = 1, uses_anonymous_args = 0
 1787 0000 80B5     		push	{r7, lr}
 1788              		.cfi_def_cfa_offset 8
 1789              		.cfi_offset 7, -8
 1790              		.cfi_offset 14, -4
 1791 0002 84B0     		sub	sp, sp, #16
 1792              		.cfi_def_cfa_offset 24
 1793 0004 00AF     		add	r7, sp, #0
 1794              		.cfi_def_cfa_register 7
 1795 0006 7860     		str	r0, [r7, #4]
 1796 0008 0B46     		mov	r3, r1
 1797 000a FB70     		strb	r3, [r7, #3]
 489:app_statemachine.c ****     (void)k;
 490:app_statemachine.c ****     if (ctx->err_sev != SEV_FATAL) {            /* WARN/SOFTWARE ack */
 1798              		.loc 1 490 0
 1799 000c 7B68     		ldr	r3, [r7, #4]
 1800 000e 9B79     		ldrb	r3, [r3, #6]	@ zero_extendqisi2
 1801 0010 032B     		cmp	r3, #3
 1802 0012 0FD0     		beq	.L125
 1803              	.LBB7:
 491:app_statemachine.c ****         state_t back = (ctx->prev_leaf == ERROR_ACTIVE) ? STBY_HOLD : ctx->prev_leaf;
 1804              		.loc 1 491 0
 1805 0014 7B68     		ldr	r3, [r7, #4]
 1806 0016 5B79     		ldrb	r3, [r3, #5]	@ zero_extendqisi2
 1807 0018 0F2B     		cmp	r3, #15
 1808 001a 02D0     		beq	.L126
 1809              		.loc 1 491 0 is_stmt 0 discriminator 1
 1810 001c 7B68     		ldr	r3, [r7, #4]
 1811 001e 5B79     		ldrb	r3, [r3, #5]	@ zero_extendqisi2
 1812 0020 00E0     		b	.L127
 1813              	.L126:
 1814              		.loc 1 491 0 discriminator 2
 1815 0022 0623     		movs	r3, #6
 1816              	.L127:
 1817              		.loc 1 491 0 discriminator 4
 1818 0024 FB73     		strb	r3, [r7, #15]
 492:app_statemachine.c ****         transition(ctx, back);
 1819              		.loc 1 492 0 is_stmt 1 discriminator 4
ARM GAS  C:\Users\JENNEW~1\AppData\Local\Temp\ccTobH5m.s 			page 44


 1820 0026 FB7B     		ldrb	r3, [r7, #15]	@ zero_extendqisi2
 1821 0028 1946     		mov	r1, r3
 1822 002a 7868     		ldr	r0, [r7, #4]
 1823 002c FFF7FEFF 		bl	transition
 493:app_statemachine.c ****         return 1;
 1824              		.loc 1 493 0 discriminator 4
 1825 0030 0123     		movs	r3, #1
 1826 0032 00E0     		b	.L128
 1827              	.L125:
 1828              	.LBE7:
 494:app_statemachine.c ****     }
 495:app_statemachine.c ****     return 0;                                   /* FATAL: only Ctrl+R (handled in lockout) */
 1829              		.loc 1 495 0
 1830 0034 0023     		movs	r3, #0
 1831              	.L128:
 496:app_statemachine.c **** }
 1832              		.loc 1 496 0
 1833 0036 1846     		mov	r0, r3
 1834 0038 1037     		adds	r7, r7, #16
 1835              		.cfi_def_cfa_offset 8
 1836 003a BD46     		mov	sp, r7
 1837              		.cfi_def_cfa_register 13
 1838              		@ sp needed
 1839 003c 80BD     		pop	{r7, pc}
 1840              		.cfi_endproc
 1841              	.LFE85:
 1842              		.size	key_error_active, .-key_error_active
 1843 003e 00BF     		.section	.text.app_dispatch_key,"ax",%progbits
 1844              		.align	2
 1845              		.global	app_dispatch_key
 1846              		.thumb
 1847              		.thumb_func
 1848              		.type	app_dispatch_key, %function
 1849              	app_dispatch_key:
 1850              	.LFB86:
 497:app_statemachine.c **** 
 498:app_statemachine.c **** /* ---- public entry point ----------------------------------------------- */
 499:app_statemachine.c **** uint8_t app_dispatch_key(app_ctx_t *ctx, char key)
 500:app_statemachine.c **** {
 1851              		.loc 1 500 0
 1852              		.cfi_startproc
 1853              		@ args = 0, pretend = 0, frame = 16
 1854              		@ frame_needed = 1, uses_anonymous_args = 0
 1855 0000 80B5     		push	{r7, lr}
 1856              		.cfi_def_cfa_offset 8
 1857              		.cfi_offset 7, -8
 1858              		.cfi_offset 14, -4
 1859 0002 84B0     		sub	sp, sp, #16
 1860              		.cfi_def_cfa_offset 24
 1861 0004 00AF     		add	r7, sp, #0
 1862              		.cfi_def_cfa_register 7
 1863 0006 7860     		str	r0, [r7, #4]
 1864 0008 0B46     		mov	r3, r1
 1865 000a FB70     		strb	r3, [r7, #3]
 501:app_statemachine.c ****     if (ctx->state >= STATE_COUNT) return 0;          /* Patch 12 guard */
 1866              		.loc 1 501 0
 1867 000c 7B68     		ldr	r3, [r7, #4]
ARM GAS  C:\Users\JENNEW~1\AppData\Local\Temp\ccTobH5m.s 			page 45


 1868 000e 1B79     		ldrb	r3, [r3, #4]	@ zero_extendqisi2
 1869 0010 0F2B     		cmp	r3, #15
 1870 0012 01D9     		bls	.L130
 1871              		.loc 1 501 0 is_stmt 0 discriminator 1
 1872 0014 0023     		movs	r3, #0
 1873 0016 3DE0     		b	.L131
 1874              	.L130:
 502:app_statemachine.c **** 
 503:app_statemachine.c ****     if (ctx->fatal_latched)                            /* FATAL lockout */
 1875              		.loc 1 503 0 is_stmt 1
 1876 0018 7B68     		ldr	r3, [r7, #4]
 1877 001a 1B7B     		ldrb	r3, [r3, #12]	@ zero_extendqisi2
 1878 001c 002B     		cmp	r3, #0
 1879 001e 0BD0     		beq	.L132
 504:app_statemachine.c ****         return (key == KEY_CTRL_R) ? handle_global_key(ctx, key) : 0;
 1880              		.loc 1 504 0
 1881 0020 FB78     		ldrb	r3, [r7, #3]	@ zero_extendqisi2
 1882 0022 122B     		cmp	r3, #18
 1883 0024 06D1     		bne	.L133
 1884              		.loc 1 504 0 is_stmt 0 discriminator 1
 1885 0026 FB78     		ldrb	r3, [r7, #3]	@ zero_extendqisi2
 1886 0028 1946     		mov	r1, r3
 1887 002a 7868     		ldr	r0, [r7, #4]
 1888 002c FFF7FEFF 		bl	handle_global_key
 1889 0030 0346     		mov	r3, r0
 1890 0032 2FE0     		b	.L131
 1891              	.L133:
 1892              		.loc 1 504 0 discriminator 2
 1893 0034 0023     		movs	r3, #0
 1894 0036 2DE0     		b	.L131
 1895              	.L132:
 505:app_statemachine.c **** 
 506:app_statemachine.c ****     if (handle_global_key(ctx, key)) return 1;         /* k, [, ?, Ctrl+R */
 1896              		.loc 1 506 0 is_stmt 1
 1897 0038 FB78     		ldrb	r3, [r7, #3]	@ zero_extendqisi2
 1898 003a 1946     		mov	r1, r3
 1899 003c 7868     		ldr	r0, [r7, #4]
 1900 003e FFF7FEFF 		bl	handle_global_key
 1901 0042 0346     		mov	r3, r0
 1902 0044 002B     		cmp	r3, #0
 1903 0046 01D0     		beq	.L135
 1904              		.loc 1 506 0 is_stmt 0 discriminator 1
 1905 0048 0123     		movs	r3, #1
 1906 004a 23E0     		b	.L131
 1907              	.L135:
 507:app_statemachine.c **** 
 508:app_statemachine.c ****     key_fn_t f = on_key[ctx->state];
 1908              		.loc 1 508 0 is_stmt 1
 1909 004c 7B68     		ldr	r3, [r7, #4]
 1910 004e 1B79     		ldrb	r3, [r3, #4]	@ zero_extendqisi2
 1911 0050 1A46     		mov	r2, r3
 1912 0052 124B     		ldr	r3, .L138
 1913 0054 53F82230 		ldr	r3, [r3, r2, lsl #2]
 1914 0058 FB60     		str	r3, [r7, #12]
 509:app_statemachine.c ****     if (f && f(ctx, key)) return 1;                    /* leaf keys */
 1915              		.loc 1 509 0
 1916 005a FB68     		ldr	r3, [r7, #12]
ARM GAS  C:\Users\JENNEW~1\AppData\Local\Temp\ccTobH5m.s 			page 46


 1917 005c 002B     		cmp	r3, #0
 1918 005e 09D0     		beq	.L136
 1919              		.loc 1 509 0 is_stmt 0 discriminator 1
 1920 0060 FA78     		ldrb	r2, [r7, #3]	@ zero_extendqisi2
 1921 0062 FB68     		ldr	r3, [r7, #12]
 1922 0064 1146     		mov	r1, r2
 1923 0066 7868     		ldr	r0, [r7, #4]
 1924 0068 9847     		blx	r3
 1925 006a 0346     		mov	r3, r0
 1926 006c 002B     		cmp	r3, #0
 1927 006e 01D0     		beq	.L136
 1928              		.loc 1 509 0 discriminator 2
 1929 0070 0123     		movs	r3, #1
 1930 0072 0FE0     		b	.L131
 1931              	.L136:
 510:app_statemachine.c **** 
 511:app_statemachine.c ****     if (!leaf_traps_nav(ctx->state))                   /* nav, unless trapped */
 1932              		.loc 1 511 0 is_stmt 1
 1933 0074 7B68     		ldr	r3, [r7, #4]
 1934 0076 1B79     		ldrb	r3, [r3, #4]	@ zero_extendqisi2
 1935 0078 1846     		mov	r0, r3
 1936 007a FFF7FEFF 		bl	leaf_traps_nav
 1937 007e 0346     		mov	r3, r0
 1938 0080 002B     		cmp	r3, #0
 1939 0082 06D1     		bne	.L137
 512:app_statemachine.c ****         return handle_nav_key(ctx, key);
 1940              		.loc 1 512 0
 1941 0084 FB78     		ldrb	r3, [r7, #3]	@ zero_extendqisi2
 1942 0086 1946     		mov	r1, r3
 1943 0088 7868     		ldr	r0, [r7, #4]
 1944 008a FFF7FEFF 		bl	handle_nav_key
 1945 008e 0346     		mov	r3, r0
 1946 0090 00E0     		b	.L131
 1947              	.L137:
 513:app_statemachine.c **** 
 514:app_statemachine.c ****     return 0;
 1948              		.loc 1 514 0
 1949 0092 0023     		movs	r3, #0
 1950              	.L131:
 515:app_statemachine.c **** }
 1951              		.loc 1 515 0
 1952 0094 1846     		mov	r0, r3
 1953 0096 1037     		adds	r7, r7, #16
 1954              		.cfi_def_cfa_offset 8
 1955 0098 BD46     		mov	sp, r7
 1956              		.cfi_def_cfa_register 13
 1957              		@ sp needed
 1958 009a 80BD     		pop	{r7, pc}
 1959              	.L139:
 1960              		.align	2
 1961              	.L138:
 1962 009c 90000000 		.word	on_key
 1963              		.cfi_endproc
 1964              	.LFE86:
 1965              		.size	app_dispatch_key, .-app_dispatch_key
 1966              		.section	.text.build_zero,"ax",%progbits
 1967              		.align	2
ARM GAS  C:\Users\JENNEW~1\AppData\Local\Temp\ccTobH5m.s 			page 47


 1968              		.thumb
 1969              		.thumb_func
 1970              		.type	build_zero, %function
 1971              	build_zero:
 1972              	.LFB87:
 516:app_statemachine.c **** 
 517:app_statemachine.c **** // %==========================================================================%
 518:app_statemachine.c **** // %                       Gimbal Control Packet                              %
 519:app_statemachine.c **** // %==========================================================================%
 520:app_statemachine.c **** // Initialize empty packet.
 521:app_statemachine.c **** static void build_zero(const app_ctx_t *ctx, hamfly_control_t *out)
 522:app_statemachine.c **** {
 1973              		.loc 1 522 0
 1974              		.cfi_startproc
 1975              		@ args = 0, pretend = 0, frame = 8
 1976              		@ frame_needed = 1, uses_anonymous_args = 0
 1977 0000 80B5     		push	{r7, lr}
 1978              		.cfi_def_cfa_offset 8
 1979              		.cfi_offset 7, -8
 1980              		.cfi_offset 14, -4
 1981 0002 82B0     		sub	sp, sp, #8
 1982              		.cfi_def_cfa_offset 16
 1983 0004 00AF     		add	r7, sp, #0
 1984              		.cfi_def_cfa_register 7
 1985 0006 7860     		str	r0, [r7, #4]
 1986 0008 3960     		str	r1, [r7]
 523:app_statemachine.c ****     (void)ctx;
 524:app_statemachine.c ****     memset(out, 0, sizeof *out);
 1987              		.loc 1 524 0
 1988 000a 1422     		movs	r2, #20
 1989 000c 0021     		movs	r1, #0
 1990 000e 3868     		ldr	r0, [r7]
 1991 0010 FFF7FEFF 		bl	memset
 525:app_statemachine.c **** }
 1992              		.loc 1 525 0
 1993 0014 00BF     		nop
 1994 0016 0837     		adds	r7, r7, #8
 1995              		.cfi_def_cfa_offset 8
 1996 0018 BD46     		mov	sp, r7
 1997              		.cfi_def_cfa_register 13
 1998              		@ sp needed
 1999 001a 80BD     		pop	{r7, pc}
 2000              		.cfi_endproc
 2001              	.LFE87:
 2002              		.size	build_zero, .-build_zero
 2003              		.section	.text.build_stby,"ax",%progbits
 2004              		.align	2
 2005              		.thumb
 2006              		.thumb_func
 2007              		.type	build_stby, %function
 2008              	build_stby:
 2009              	.LFB88:
 526:app_statemachine.c **** // Build packet for STBY states: zero rates, defer mode.
 527:app_statemachine.c **** static void build_stby(const app_ctx_t *ctx, hamfly_control_t *out) {
 2010              		.loc 1 527 0
 2011              		.cfi_startproc
 2012              		@ args = 0, pretend = 0, frame = 8
ARM GAS  C:\Users\JENNEW~1\AppData\Local\Temp\ccTobH5m.s 			page 48


 2013              		@ frame_needed = 1, uses_anonymous_args = 0
 2014 0000 80B5     		push	{r7, lr}
 2015              		.cfi_def_cfa_offset 8
 2016              		.cfi_offset 7, -8
 2017              		.cfi_offset 14, -4
 2018 0002 82B0     		sub	sp, sp, #8
 2019              		.cfi_def_cfa_offset 16
 2020 0004 00AF     		add	r7, sp, #0
 2021              		.cfi_def_cfa_register 7
 2022 0006 7860     		str	r0, [r7, #4]
 2023 0008 3960     		str	r1, [r7]
 528:app_statemachine.c ****     build_zero(ctx, out);  // DEFERed, and disabled.
 2024              		.loc 1 528 0
 2025 000a 3968     		ldr	r1, [r7]
 2026 000c 7868     		ldr	r0, [r7, #4]
 2027 000e FFF7FEFF 		bl	build_zero
 529:app_statemachine.c **** }
 2028              		.loc 1 529 0
 2029 0012 00BF     		nop
 2030 0014 0837     		adds	r7, r7, #8
 2031              		.cfi_def_cfa_offset 8
 2032 0016 BD46     		mov	sp, r7
 2033              		.cfi_def_cfa_register 13
 2034              		@ sp needed
 2035 0018 80BD     		pop	{r7, pc}
 2036              		.cfi_endproc
 2037              	.LFE88:
 2038              		.size	build_stby, .-build_stby
 2039              		.global	__aeabi_fsub
 2040              		.global	__aeabi_fdiv
 2041 001a 00BF     		.section	.text.build_manu_joystick,"ax",%progbits
 2042              		.align	2
 2043              		.thumb
 2044              		.thumb_func
 2045              		.type	build_manu_joystick, %function
 2046              	build_manu_joystick:
 2047              	.LFB89:
 530:app_statemachine.c **** 
 531:app_statemachine.c **** // Build packet from joystick inputs.
 532:app_statemachine.c **** static void build_manu_joystick(const app_ctx_t *ctx, hamfly_control_t *out) {
 2048              		.loc 1 532 0
 2049              		.cfi_startproc
 2050              		@ args = 0, pretend = 0, frame = 8
 2051              		@ frame_needed = 1, uses_anonymous_args = 0
 2052 0000 80B5     		push	{r7, lr}
 2053              		.cfi_def_cfa_offset 8
 2054              		.cfi_offset 7, -8
 2055              		.cfi_offset 14, -4
 2056 0002 82B0     		sub	sp, sp, #8
 2057              		.cfi_def_cfa_offset 16
 2058 0004 00AF     		add	r7, sp, #0
 2059              		.cfi_def_cfa_register 7
 2060 0006 7860     		str	r0, [r7, #4]
 2061 0008 3960     		str	r1, [r7]
 533:app_statemachine.c ****     out->enable    = 1u;
 2062              		.loc 1 533 0
 2063 000a 3B68     		ldr	r3, [r7]
ARM GAS  C:\Users\JENNEW~1\AppData\Local\Temp\ccTobH5m.s 			page 49


 2064 000c 0122     		movs	r2, #1
 2065 000e DA73     		strb	r2, [r3, #15]
 534:app_statemachine.c ****     out->roll_mode = HAMFLY_DEFER;
 2066              		.loc 1 534 0
 2067 0010 3B68     		ldr	r3, [r7]
 2068 0012 0022     		movs	r2, #0
 2069 0014 9A73     		strb	r2, [r3, #14]
 535:app_statemachine.c ****     out->roll      = 0.0f;
 2070              		.loc 1 535 0
 2071 0016 3B68     		ldr	r3, [r7]
 2072 0018 4FF00002 		mov	r2, #0
 2073 001c 9A60     		str	r2, [r3, #8]	@ float
 536:app_statemachine.c ****     out->kill      = 0u;
 2074              		.loc 1 536 0
 2075 001e 3B68     		ldr	r3, [r7]
 2076 0020 0022     		movs	r2, #0
 2077 0022 1A74     		strb	r2, [r3, #16]
 537:app_statemachine.c ****     // Nudge vs joystick control mode
 538:app_statemachine.c ****     if (ctx->nudge_hold) {
 2078              		.loc 1 538 0
 2079 0024 7B68     		ldr	r3, [r7, #4]
 2080 0026 93F84430 		ldrb	r3, [r3, #68]	@ zero_extendqisi2
 2081 002a 002B     		cmp	r3, #0
 2082 002c 22D0     		beq	.L143
 539:app_statemachine.c ****         out->pan_mode = out->tilt_mode = HAMFLY_ABSOLUTE;
 2083              		.loc 1 539 0
 2084 002e 3B68     		ldr	r3, [r7]
 2085 0030 0222     		movs	r2, #2
 2086 0032 5A73     		strb	r2, [r3, #13]
 2087 0034 3B68     		ldr	r3, [r7]
 2088 0036 5A7B     		ldrb	r2, [r3, #13]	@ zero_extendqisi2
 2089 0038 3B68     		ldr	r3, [r7]
 2090 003a 1A73     		strb	r2, [r3, #12]
 540:app_statemachine.c ****         out->pan  = DEG_TO_UNIT(ctx->tgt_pan_deg - ctx->nudge_base_pan_deg); /* pan rebased -> rela
 2091              		.loc 1 540 0
 2092 003c 7B68     		ldr	r3, [r7, #4]
 2093 003e 5A6D     		ldr	r2, [r3, #84]	@ float
 2094 0040 7B68     		ldr	r3, [r7, #4]
 2095 0042 DB6C     		ldr	r3, [r3, #76]	@ float
 2096 0044 1946     		mov	r1, r3
 2097 0046 1046     		mov	r0, r2
 2098 0048 FFF7FEFF 		bl	__aeabi_fsub
 2099 004c 0346     		mov	r3, r0
 2100 004e 1449     		ldr	r1, .L146
 2101 0050 1846     		mov	r0, r3
 2102 0052 FFF7FEFF 		bl	__aeabi_fdiv
 2103 0056 0346     		mov	r3, r0
 2104 0058 1A46     		mov	r2, r3
 2105 005a 3B68     		ldr	r3, [r7]
 2106 005c 1A60     		str	r2, [r3]	@ float
 541:app_statemachine.c ****         out->tilt = DEG_TO_UNIT(ctx->tgt_tilt_deg);                          /* tilt true-absolute 
 2107              		.loc 1 541 0
 2108 005e 7B68     		ldr	r3, [r7, #4]
 2109 0060 9B6D     		ldr	r3, [r3, #88]	@ float
 2110 0062 0F49     		ldr	r1, .L146
 2111 0064 1846     		mov	r0, r3
 2112 0066 FFF7FEFF 		bl	__aeabi_fdiv
ARM GAS  C:\Users\JENNEW~1\AppData\Local\Temp\ccTobH5m.s 			page 50


 2113 006a 0346     		mov	r3, r0
 2114 006c 1A46     		mov	r2, r3
 2115 006e 3B68     		ldr	r3, [r7]
 2116 0070 5A60     		str	r2, [r3, #4]	@ float
 542:app_statemachine.c ****     } else {
 543:app_statemachine.c ****         out->pan_mode = out->tilt_mode = HAMFLY_RATE;
 544:app_statemachine.c ****         out->pan  =  ctx->cmd.u[CH_X];
 545:app_statemachine.c ****         out->tilt = -ctx->cmd.u[CH_Y];
 546:app_statemachine.c ****     }
 547:app_statemachine.c **** 
 548:app_statemachine.c **** }
 2117              		.loc 1 548 0
 2118 0072 10E0     		b	.L145
 2119              	.L143:
 543:app_statemachine.c ****         out->pan  =  ctx->cmd.u[CH_X];
 2120              		.loc 1 543 0
 2121 0074 3B68     		ldr	r3, [r7]
 2122 0076 0122     		movs	r2, #1
 2123 0078 5A73     		strb	r2, [r3, #13]
 2124 007a 3B68     		ldr	r3, [r7]
 2125 007c 5A7B     		ldrb	r2, [r3, #13]	@ zero_extendqisi2
 2126 007e 3B68     		ldr	r3, [r7]
 2127 0080 1A73     		strb	r2, [r3, #12]
 544:app_statemachine.c ****         out->tilt = -ctx->cmd.u[CH_Y];
 2128              		.loc 1 544 0
 2129 0082 7B68     		ldr	r3, [r7, #4]
 2130 0084 5A6B     		ldr	r2, [r3, #52]	@ float
 2131 0086 3B68     		ldr	r3, [r7]
 2132 0088 1A60     		str	r2, [r3]	@ float
 545:app_statemachine.c ****     }
 2133              		.loc 1 545 0
 2134 008a 7B68     		ldr	r3, [r7, #4]
 2135 008c 9B6B     		ldr	r3, [r3, #56]	@ float
 2136 008e 83F00042 		eor	r2, r3, #-2147483648
 2137 0092 3B68     		ldr	r3, [r7]
 2138 0094 5A60     		str	r2, [r3, #4]	@ float
 2139              	.L145:
 2140              		.loc 1 548 0
 2141 0096 00BF     		nop
 2142 0098 0837     		adds	r7, r7, #8
 2143              		.cfi_def_cfa_offset 8
 2144 009a BD46     		mov	sp, r7
 2145              		.cfi_def_cfa_register 13
 2146              		@ sp needed
 2147 009c 80BD     		pop	{r7, pc}
 2148              	.L147:
 2149 009e 00BF     		.align	2
 2150              	.L146:
 2151 00a0 00003443 		.word	1127481344
 2152              		.cfi_endproc
 2153              	.LFE89:
 2154              		.size	build_manu_joystick, .-build_manu_joystick
 2155              		.section	.text.build_error,"ax",%progbits
 2156              		.align	2
 2157              		.thumb
 2158              		.thumb_func
 2159              		.type	build_error, %function
ARM GAS  C:\Users\JENNEW~1\AppData\Local\Temp\ccTobH5m.s 			page 51


 2160              	build_error:
 2161              	.LFB90:
 549:app_statemachine.c **** 
 550:app_statemachine.c **** // Build packet for when in ERROR state
 551:app_statemachine.c **** static void build_error(const app_ctx_t *ctx, hamfly_control_t *out) {
 2162              		.loc 1 551 0
 2163              		.cfi_startproc
 2164              		@ args = 0, pretend = 0, frame = 8
 2165              		@ frame_needed = 1, uses_anonymous_args = 0
 2166 0000 80B5     		push	{r7, lr}
 2167              		.cfi_def_cfa_offset 8
 2168              		.cfi_offset 7, -8
 2169              		.cfi_offset 14, -4
 2170 0002 82B0     		sub	sp, sp, #8
 2171              		.cfi_def_cfa_offset 16
 2172 0004 00AF     		add	r7, sp, #0
 2173              		.cfi_def_cfa_register 7
 2174 0006 7860     		str	r0, [r7, #4]
 2175 0008 3960     		str	r1, [r7]
 552:app_statemachine.c ****     build_zero(ctx, out);
 2176              		.loc 1 552 0
 2177 000a 3968     		ldr	r1, [r7]
 2178 000c 7868     		ldr	r0, [r7, #4]
 2179 000e FFF7FEFF 		bl	build_zero
 553:app_statemachine.c ****     if (ctx->err_sev == SEV_FATAL) out->kill = 1u;
 2180              		.loc 1 553 0
 2181 0012 7B68     		ldr	r3, [r7, #4]
 2182 0014 9B79     		ldrb	r3, [r3, #6]	@ zero_extendqisi2
 2183 0016 032B     		cmp	r3, #3
 2184 0018 02D1     		bne	.L150
 2185              		.loc 1 553 0 is_stmt 0 discriminator 1
 2186 001a 3B68     		ldr	r3, [r7]
 2187 001c 0122     		movs	r2, #1
 2188 001e 1A74     		strb	r2, [r3, #16]
 2189              	.L150:
 554:app_statemachine.c **** }
 2190              		.loc 1 554 0 is_stmt 1
 2191 0020 00BF     		nop
 2192 0022 0837     		adds	r7, r7, #8
 2193              		.cfi_def_cfa_offset 8
 2194 0024 BD46     		mov	sp, r7
 2195              		.cfi_def_cfa_register 13
 2196              		@ sp needed
 2197 0026 80BD     		pop	{r7, pc}
 2198              		.cfi_endproc
 2199              	.LFE90:
 2200              		.size	build_error, .-build_error
 2201              		.section	.text.app_build_control,"ax",%progbits
 2202              		.align	2
 2203              		.global	app_build_control
 2204              		.thumb
 2205              		.thumb_func
 2206              		.type	app_build_control, %function
 2207              	app_build_control:
 2208              	.LFB91:
 555:app_statemachine.c **** 
 556:app_statemachine.c **** 
ARM GAS  C:\Users\JENNEW~1\AppData\Local\Temp\ccTobH5m.s 			page 52


 557:app_statemachine.c **** // Do build. For states without a build function returns zeroed packet.
 558:app_statemachine.c **** void app_build_control(const app_ctx_t *ctx, hamfly_control_t *out)
 559:app_statemachine.c **** {
 2209              		.loc 1 559 0
 2210              		.cfi_startproc
 2211              		@ args = 0, pretend = 0, frame = 16
 2212              		@ frame_needed = 1, uses_anonymous_args = 0
 2213 0000 80B5     		push	{r7, lr}
 2214              		.cfi_def_cfa_offset 8
 2215              		.cfi_offset 7, -8
 2216              		.cfi_offset 14, -4
 2217 0002 84B0     		sub	sp, sp, #16
 2218              		.cfi_def_cfa_offset 24
 2219 0004 00AF     		add	r7, sp, #0
 2220              		.cfi_def_cfa_register 7
 2221 0006 7860     		str	r0, [r7, #4]
 2222 0008 3960     		str	r1, [r7]
 560:app_statemachine.c ****     build_fn_t f = on_build[ctx->state];
 2223              		.loc 1 560 0
 2224 000a 7B68     		ldr	r3, [r7, #4]
 2225 000c 1B79     		ldrb	r3, [r3, #4]	@ zero_extendqisi2
 2226 000e 1A46     		mov	r2, r3
 2227 0010 094B     		ldr	r3, .L155
 2228 0012 53F82230 		ldr	r3, [r3, r2, lsl #2]
 2229 0016 FB60     		str	r3, [r7, #12]
 561:app_statemachine.c ****     if (f)  f(ctx, out);
 2230              		.loc 1 561 0
 2231 0018 FB68     		ldr	r3, [r7, #12]
 2232 001a 002B     		cmp	r3, #0
 2233 001c 04D0     		beq	.L152
 2234              		.loc 1 561 0 is_stmt 0 discriminator 1
 2235 001e FB68     		ldr	r3, [r7, #12]
 2236 0020 3968     		ldr	r1, [r7]
 2237 0022 7868     		ldr	r0, [r7, #4]
 2238 0024 9847     		blx	r3
 562:app_statemachine.c ****     else    build_zero(ctx, out);  // Safe default.
 563:app_statemachine.c **** }
 2239              		.loc 1 563 0 is_stmt 1 discriminator 1
 2240 0026 03E0     		b	.L154
 2241              	.L152:
 562:app_statemachine.c ****     else    build_zero(ctx, out);  // Safe default.
 2242              		.loc 1 562 0
 2243 0028 3968     		ldr	r1, [r7]
 2244 002a 7868     		ldr	r0, [r7, #4]
 2245 002c FFF7FEFF 		bl	build_zero
 2246              	.L154:
 2247              		.loc 1 563 0
 2248 0030 00BF     		nop
 2249 0032 1037     		adds	r7, r7, #16
 2250              		.cfi_def_cfa_offset 8
 2251 0034 BD46     		mov	sp, r7
 2252              		.cfi_def_cfa_register 13
 2253              		@ sp needed
 2254 0036 80BD     		pop	{r7, pc}
 2255              	.L156:
 2256              		.align	2
 2257              	.L155:
ARM GAS  C:\Users\JENNEW~1\AppData\Local\Temp\ccTobH5m.s 			page 53


 2258 0038 D0000000 		.word	on_build
 2259              		.cfi_endproc
 2260              	.LFE91:
 2261              		.size	app_build_control, .-app_build_control
 2262              		.section	.rodata
 2263 04d3 00       		.align	2
 2264              	.LC37:
 2265 04d4 6E6F2074 		.ascii	"no telemetry (nudge ignored).\000"
 2265      656C656D 
 2265      65747279 
 2265      20286E75 
 2265      64676520 
 2266 04f2 0000     		.align	2
 2267              	.LC38:
 2268 04f4 4E756467 		.ascii	"Nudging!\015\012\000"
 2268      696E6721 
 2268      0D0A00
 2269              		.global	__aeabi_fadd
 2270              		.global	__aeabi_fcmplt
 2271              		.global	__aeabi_fcmpgt
 2272              		.section	.text.nudge_apply,"ax",%progbits
 2273              		.align	2
 2274              		.thumb
 2275              		.thumb_func
 2276              		.type	nudge_apply, %function
 2277              	nudge_apply:
 2278              	.LFB92:
 564:app_statemachine.c **** 
 565:app_statemachine.c **** // TEMP: Nudge constants
 566:app_statemachine.c **** #define NUDGE_LSB_DEG     (180.0f/32767.0f)  /* ~0.00549°, one on-wire LSB */
 567:app_statemachine.c **** #define NUDGE_FINE_DEG    0.5f
 568:app_statemachine.c **** #define NUDGE_COARSE_DEG  1.0f
 569:app_statemachine.c **** #define NUDGE_SETTLE_DEG  0.05f   /* "arrived" tolerance */
 570:app_statemachine.c **** #define NUDGE_MIN_DWELL_MS 150u   /* hold long enough for the step to land */
 571:app_statemachine.c **** #define NUDGE_TIMEOUT_MS  2000u   /* give up if it never settles */
 572:app_statemachine.c **** // TEMP: Nudge handler
 573:app_statemachine.c **** static void nudge_apply(app_ctx_t *ctx, float dpan_deg, float dtilt_deg)
 574:app_statemachine.c **** {
 2279              		.loc 1 574 0
 2280              		.cfi_startproc
 2281              		@ args = 0, pretend = 0, frame = 24
 2282              		@ frame_needed = 1, uses_anonymous_args = 0
 2283 0000 90B5     		push	{r4, r7, lr}
 2284              		.cfi_def_cfa_offset 12
 2285              		.cfi_offset 4, -12
 2286              		.cfi_offset 7, -8
 2287              		.cfi_offset 14, -4
 2288 0002 87B0     		sub	sp, sp, #28
 2289              		.cfi_def_cfa_offset 40
 2290 0004 00AF     		add	r7, sp, #0
 2291              		.cfi_def_cfa_register 7
 2292 0006 F860     		str	r0, [r7, #12]
 2293 0008 B960     		str	r1, [r7, #8]	@ float
 2294 000a 7A60     		str	r2, [r7, #4]	@ float
 575:app_statemachine.c ****     if (!ctx->nudge_hold) {// Capture nudge baseline
 2295              		.loc 1 575 0
 2296 000c FB68     		ldr	r3, [r7, #12]
ARM GAS  C:\Users\JENNEW~1\AppData\Local\Temp\ccTobH5m.s 			page 54


 2297 000e 93F84430 		ldrb	r3, [r3, #68]	@ zero_extendqisi2
 2298 0012 002B     		cmp	r3, #0
 2299 0014 23D1     		bne	.L158
 2300              	.LBB8:
 576:app_statemachine.c ****         float p, t;
 577:app_statemachine.c ****         if (!manu_pan_tilt_deg(ctx, &p, &t)) {
 2301              		.loc 1 577 0
 2302 0016 07F11002 		add	r2, r7, #16
 2303 001a 07F11403 		add	r3, r7, #20
 2304 001e 1946     		mov	r1, r3
 2305 0020 F868     		ldr	r0, [r7, #12]
 2306 0022 FFF7FEFF 		bl	manu_pan_tilt_deg
 2307 0026 0346     		mov	r3, r0
 2308 0028 002B     		cmp	r3, #0
 2309 002a 05D1     		bne	.L159
 578:app_statemachine.c ****             app_raise_error(ctx, SEV_USER, "no telemetry (nudge ignored).");
 2310              		.loc 1 578 0
 2311 002c 574A     		ldr	r2, .L181
 2312 002e 0021     		movs	r1, #0
 2313 0030 F868     		ldr	r0, [r7, #12]
 2314 0032 FFF7FEFF 		bl	app_raise_error
 2315 0036 A6E0     		b	.L157
 2316              	.L159:
 579:app_statemachine.c ****             return;
 580:app_statemachine.c ****         }
 581:app_statemachine.c ****         UART_DEBUG_PutString("Nudging!\r\n");  // TODO: Verbose nudge print
 2317              		.loc 1 581 0
 2318 0038 5548     		ldr	r0, .L181+4
 2319 003a FFF7FEFF 		bl	UART_DEBUG_PutString
 582:app_statemachine.c ****         ctx->nudge_base_pan_deg  = p;
 2320              		.loc 1 582 0
 2321 003e 7A69     		ldr	r2, [r7, #20]	@ float
 2322 0040 FB68     		ldr	r3, [r7, #12]
 2323 0042 DA64     		str	r2, [r3, #76]	@ float
 583:app_statemachine.c ****         ctx->nudge_base_tilt_deg = t;
 2324              		.loc 1 583 0
 2325 0044 3A69     		ldr	r2, [r7, #16]	@ float
 2326 0046 FB68     		ldr	r3, [r7, #12]
 2327 0048 1A65     		str	r2, [r3, #80]	@ float
 584:app_statemachine.c ****         ctx->tgt_pan_deg  = p;
 2328              		.loc 1 584 0
 2329 004a 7A69     		ldr	r2, [r7, #20]	@ float
 2330 004c FB68     		ldr	r3, [r7, #12]
 2331 004e 5A65     		str	r2, [r3, #84]	@ float
 585:app_statemachine.c ****         ctx->tgt_tilt_deg = t;
 2332              		.loc 1 585 0
 2333 0050 3A69     		ldr	r2, [r7, #16]	@ float
 2334 0052 FB68     		ldr	r3, [r7, #12]
 2335 0054 9A65     		str	r2, [r3, #88]	@ float
 586:app_statemachine.c ****         ctx->nudge_hold = 1u;
 2336              		.loc 1 586 0
 2337 0056 FB68     		ldr	r3, [r7, #12]
 2338 0058 0122     		movs	r2, #1
 2339 005a 83F84420 		strb	r2, [r3, #68]
 2340              	.L158:
 2341              	.LBE8:
 587:app_statemachine.c ****     }
ARM GAS  C:\Users\JENNEW~1\AppData\Local\Temp\ccTobH5m.s 			page 55


 588:app_statemachine.c ****     ctx->tgt_pan_deg  = CLAMP(ctx->tgt_pan_deg  + dpan_deg,
 2342              		.loc 1 588 0
 2343 005e FB68     		ldr	r3, [r7, #12]
 2344 0060 5B6D     		ldr	r3, [r3, #84]	@ float
 2345 0062 B968     		ldr	r1, [r7, #8]	@ float
 2346 0064 1846     		mov	r0, r3
 2347 0066 FFF7FEFF 		bl	__aeabi_fadd
 2348 006a 0346     		mov	r3, r0
 2349 006c 1C46     		mov	r4, r3
 2350 006e FB68     		ldr	r3, [r7, #12]
 2351 0070 9B69     		ldr	r3, [r3, #24]	@ float
 2352 0072 4849     		ldr	r1, .L181+8
 2353 0074 1846     		mov	r0, r3
 2354 0076 FFF7FEFF 		bl	__aeabi_fsub
 2355 007a 0346     		mov	r3, r0
 2356 007c 1946     		mov	r1, r3
 2357 007e 2046     		mov	r0, r4
 2358 0080 FFF7FEFF 		bl	__aeabi_fcmplt
 2359 0084 0346     		mov	r3, r0
 2360 0086 002B     		cmp	r3, #0
 2361 0088 08D0     		beq	.L177
 2362              		.loc 1 588 0 is_stmt 0 discriminator 1
 2363 008a FB68     		ldr	r3, [r7, #12]
 2364 008c 9B69     		ldr	r3, [r3, #24]	@ float
 2365 008e 4149     		ldr	r1, .L181+8
 2366 0090 1846     		mov	r0, r3
 2367 0092 FFF7FEFF 		bl	__aeabi_fsub
 2368 0096 0346     		mov	r3, r0
 2369 0098 1A46     		mov	r2, r3
 2370 009a 26E0     		b	.L163
 2371              	.L177:
 2372              		.loc 1 588 0 discriminator 2
 2373 009c FB68     		ldr	r3, [r7, #12]
 2374 009e 5B6D     		ldr	r3, [r3, #84]	@ float
 2375 00a0 B968     		ldr	r1, [r7, #8]	@ float
 2376 00a2 1846     		mov	r0, r3
 2377 00a4 FFF7FEFF 		bl	__aeabi_fadd
 2378 00a8 0346     		mov	r3, r0
 2379 00aa 1C46     		mov	r4, r3
 2380 00ac FB68     		ldr	r3, [r7, #12]
 2381 00ae 9B69     		ldr	r3, [r3, #24]	@ float
 2382 00b0 3849     		ldr	r1, .L181+8
 2383 00b2 1846     		mov	r0, r3
 2384 00b4 FFF7FEFF 		bl	__aeabi_fadd
 2385 00b8 0346     		mov	r3, r0
 2386 00ba 1946     		mov	r1, r3
 2387 00bc 2046     		mov	r0, r4
 2388 00be FFF7FEFF 		bl	__aeabi_fcmpgt
 2389 00c2 0346     		mov	r3, r0
 2390 00c4 002B     		cmp	r3, #0
 2391 00c6 08D0     		beq	.L178
 2392              		.loc 1 588 0 discriminator 4
 2393 00c8 FB68     		ldr	r3, [r7, #12]
 2394 00ca 9B69     		ldr	r3, [r3, #24]	@ float
 2395 00cc 3149     		ldr	r1, .L181+8
 2396 00ce 1846     		mov	r0, r3
 2397 00d0 FFF7FEFF 		bl	__aeabi_fadd
ARM GAS  C:\Users\JENNEW~1\AppData\Local\Temp\ccTobH5m.s 			page 56


 2398 00d4 0346     		mov	r3, r0
 2399 00d6 1A46     		mov	r2, r3
 2400 00d8 07E0     		b	.L163
 2401              	.L178:
 2402              		.loc 1 588 0 discriminator 5
 2403 00da FB68     		ldr	r3, [r7, #12]
 2404 00dc 5B6D     		ldr	r3, [r3, #84]	@ float
 2405 00de B968     		ldr	r1, [r7, #8]	@ float
 2406 00e0 1846     		mov	r0, r3
 2407 00e2 FFF7FEFF 		bl	__aeabi_fadd
 2408 00e6 0346     		mov	r3, r0
 2409 00e8 1A46     		mov	r2, r3
 2410              	.L163:
 2411              		.loc 1 588 0 discriminator 8
 2412 00ea FB68     		ldr	r3, [r7, #12]
 2413 00ec 5A65     		str	r2, [r3, #84]	@ float
 589:app_statemachine.c ****                               ctx->origin_pan_deg  + LIMIT_PAN_MIN_DEG,
 590:app_statemachine.c ****                               ctx->origin_pan_deg  + LIMIT_PAN_MAX_DEG);
 591:app_statemachine.c ****     ctx->tgt_tilt_deg = CLAMP(ctx->tgt_tilt_deg + dtilt_deg,
 2414              		.loc 1 591 0 is_stmt 1 discriminator 8
 2415 00ee FB68     		ldr	r3, [r7, #12]
 2416 00f0 9B6D     		ldr	r3, [r3, #88]	@ float
 2417 00f2 7968     		ldr	r1, [r7, #4]	@ float
 2418 00f4 1846     		mov	r0, r3
 2419 00f6 FFF7FEFF 		bl	__aeabi_fadd
 2420 00fa 0346     		mov	r3, r0
 2421 00fc 1C46     		mov	r4, r3
 2422 00fe FB68     		ldr	r3, [r7, #12]
 2423 0100 DB69     		ldr	r3, [r3, #28]	@ float
 2424 0102 2549     		ldr	r1, .L181+12
 2425 0104 1846     		mov	r0, r3
 2426 0106 FFF7FEFF 		bl	__aeabi_fsub
 2427 010a 0346     		mov	r3, r0
 2428 010c 1946     		mov	r1, r3
 2429 010e 2046     		mov	r0, r4
 2430 0110 FFF7FEFF 		bl	__aeabi_fcmplt
 2431 0114 0346     		mov	r3, r0
 2432 0116 002B     		cmp	r3, #0
 2433 0118 08D0     		beq	.L179
 2434              		.loc 1 591 0 is_stmt 0 discriminator 1
 2435 011a FB68     		ldr	r3, [r7, #12]
 2436 011c DB69     		ldr	r3, [r3, #28]	@ float
 2437 011e 1E49     		ldr	r1, .L181+12
 2438 0120 1846     		mov	r0, r3
 2439 0122 FFF7FEFF 		bl	__aeabi_fsub
 2440 0126 0346     		mov	r3, r0
 2441 0128 1A46     		mov	r2, r3
 2442 012a 26E0     		b	.L169
 2443              	.L179:
 2444              		.loc 1 591 0 discriminator 2
 2445 012c FB68     		ldr	r3, [r7, #12]
 2446 012e 9B6D     		ldr	r3, [r3, #88]	@ float
 2447 0130 7968     		ldr	r1, [r7, #4]	@ float
 2448 0132 1846     		mov	r0, r3
 2449 0134 FFF7FEFF 		bl	__aeabi_fadd
 2450 0138 0346     		mov	r3, r0
 2451 013a 1C46     		mov	r4, r3
ARM GAS  C:\Users\JENNEW~1\AppData\Local\Temp\ccTobH5m.s 			page 57


 2452 013c FB68     		ldr	r3, [r7, #12]
 2453 013e DB69     		ldr	r3, [r3, #28]	@ float
 2454 0140 1549     		ldr	r1, .L181+12
 2455 0142 1846     		mov	r0, r3
 2456 0144 FFF7FEFF 		bl	__aeabi_fadd
 2457 0148 0346     		mov	r3, r0
 2458 014a 1946     		mov	r1, r3
 2459 014c 2046     		mov	r0, r4
 2460 014e FFF7FEFF 		bl	__aeabi_fcmpgt
 2461 0152 0346     		mov	r3, r0
 2462 0154 002B     		cmp	r3, #0
 2463 0156 08D0     		beq	.L180
 2464              		.loc 1 591 0 discriminator 4
 2465 0158 FB68     		ldr	r3, [r7, #12]
 2466 015a DB69     		ldr	r3, [r3, #28]	@ float
 2467 015c 0E49     		ldr	r1, .L181+12
 2468 015e 1846     		mov	r0, r3
 2469 0160 FFF7FEFF 		bl	__aeabi_fadd
 2470 0164 0346     		mov	r3, r0
 2471 0166 1A46     		mov	r2, r3
 2472 0168 07E0     		b	.L169
 2473              	.L180:
 2474              		.loc 1 591 0 discriminator 5
 2475 016a FB68     		ldr	r3, [r7, #12]
 2476 016c 9B6D     		ldr	r3, [r3, #88]	@ float
 2477 016e 7968     		ldr	r1, [r7, #4]	@ float
 2478 0170 1846     		mov	r0, r3
 2479 0172 FFF7FEFF 		bl	__aeabi_fadd
 2480 0176 0346     		mov	r3, r0
 2481 0178 1A46     		mov	r2, r3
 2482              	.L169:
 2483              		.loc 1 591 0 discriminator 8
 2484 017a FB68     		ldr	r3, [r7, #12]
 2485 017c 9A65     		str	r2, [r3, #88]	@ float
 592:app_statemachine.c ****                               ctx->origin_tilt_deg + LIMIT_TILT_MIN_DEG,
 593:app_statemachine.c ****                               ctx->origin_tilt_deg + LIMIT_TILT_MAX_DEG);
 594:app_statemachine.c ****     ctx->nudge_start_ms = g_tick_ms;  // Restart the dwell timer
 2486              		.loc 1 594 0 is_stmt 1 discriminator 8
 2487 017e 074B     		ldr	r3, .L181+16
 2488 0180 1A68     		ldr	r2, [r3]
 2489 0182 FB68     		ldr	r3, [r7, #12]
 2490 0184 9A64     		str	r2, [r3, #72]
 2491              	.L157:
 595:app_statemachine.c **** }
 2492              		.loc 1 595 0
 2493 0186 1C37     		adds	r7, r7, #28
 2494              		.cfi_def_cfa_offset 12
 2495 0188 BD46     		mov	sp, r7
 2496              		.cfi_def_cfa_register 13
 2497              		@ sp needed
 2498 018a 90BD     		pop	{r4, r7, pc}
 2499              	.L182:
 2500              		.align	2
 2501              	.L181:
 2502 018c D4040000 		.word	.LC37
 2503 0190 F4040000 		.word	.LC38
 2504 0194 0000F041 		.word	1106247680
ARM GAS  C:\Users\JENNEW~1\AppData\Local\Temp\ccTobH5m.s 			page 58


 2505 0198 0000A041 		.word	1101004800
 2506 019c 00000000 		.word	g_tick_ms
 2507              		.cfi_endproc
 2508              	.LFE92:
 2509              		.size	nudge_apply, .-nudge_apply
 2510              		.section	.text.key_manu_joystick,"ax",%progbits
 2511              		.align	2
 2512              		.thumb
 2513              		.thumb_func
 2514              		.type	key_manu_joystick, %function
 2515              	key_manu_joystick:
 2516              	.LFB93:
 596:app_statemachine.c **** 
 597:app_statemachine.c **** static uint8_t key_manu_joystick(app_ctx_t *ctx, char k)
 598:app_statemachine.c **** {
 2517              		.loc 1 598 0
 2518              		.cfi_startproc
 2519              		@ args = 0, pretend = 0, frame = 8
 2520              		@ frame_needed = 1, uses_anonymous_args = 0
 2521 0000 80B5     		push	{r7, lr}
 2522              		.cfi_def_cfa_offset 8
 2523              		.cfi_offset 7, -8
 2524              		.cfi_offset 14, -4
 2525 0002 82B0     		sub	sp, sp, #8
 2526              		.cfi_def_cfa_offset 16
 2527 0004 00AF     		add	r7, sp, #0
 2528              		.cfi_def_cfa_register 7
 2529 0006 7860     		str	r0, [r7, #4]
 2530 0008 0B46     		mov	r3, r1
 2531 000a FB70     		strb	r3, [r7, #3]
 599:app_statemachine.c ****     switch (k) {
 2532              		.loc 1 599 0
 2533 000c FB78     		ldrb	r3, [r7, #3]	@ zero_extendqisi2
 2534 000e 323B     		subs	r3, r3, #50
 2535 0010 452B     		cmp	r3, #69
 2536 0012 00F2FB80 		bhi	.L184
 2537 0016 01A2     		adr	r2, .L186
 2538 0018 52F823F0 		ldr	pc, [r2, r3, lsl #2]
 2539              		.p2align 2
 2540              	.L186:
 2541 001c 45010000 		.word	.L185+1
 2542 0020 0D020000 		.word	.L184+1
 2543 0024 55010000 		.word	.L187+1
 2544 0028 0D020000 		.word	.L184+1
 2545 002c 65010000 		.word	.L188+1
 2546 0030 0D020000 		.word	.L184+1
 2547 0034 35010000 		.word	.L189+1
 2548 0038 0D020000 		.word	.L184+1
 2549 003c 0D020000 		.word	.L184+1
 2550 0040 0D020000 		.word	.L184+1
 2551 0044 0D020000 		.word	.L184+1
 2552 0048 0D020000 		.word	.L184+1
 2553 004c 0D020000 		.word	.L184+1
 2554 0050 0D020000 		.word	.L184+1
 2555 0054 0D020000 		.word	.L184+1
 2556 0058 0D020000 		.word	.L184+1
 2557 005c 0D020000 		.word	.L184+1
ARM GAS  C:\Users\JENNEW~1\AppData\Local\Temp\ccTobH5m.s 			page 59


 2558 0060 0D020000 		.word	.L184+1
 2559 0064 0D020000 		.word	.L184+1
 2560 0068 0D020000 		.word	.L184+1
 2561 006c 0D020000 		.word	.L184+1
 2562 0070 0D020000 		.word	.L184+1
 2563 0074 0D020000 		.word	.L184+1
 2564 0078 0D020000 		.word	.L184+1
 2565 007c 0D020000 		.word	.L184+1
 2566 0080 0D020000 		.word	.L184+1
 2567 0084 0D020000 		.word	.L184+1
 2568 0088 0D020000 		.word	.L184+1
 2569 008c 0D020000 		.word	.L184+1
 2570 0090 0D020000 		.word	.L184+1
 2571 0094 0D020000 		.word	.L184+1
 2572 0098 0D020000 		.word	.L184+1
 2573 009c 0D020000 		.word	.L184+1
 2574 00a0 0D020000 		.word	.L184+1
 2575 00a4 0D020000 		.word	.L184+1
 2576 00a8 0D020000 		.word	.L184+1
 2577 00ac 0D020000 		.word	.L184+1
 2578 00b0 0D020000 		.word	.L184+1
 2579 00b4 0D020000 		.word	.L184+1
 2580 00b8 0D020000 		.word	.L184+1
 2581 00bc 0D020000 		.word	.L184+1
 2582 00c0 0D020000 		.word	.L184+1
 2583 00c4 0D020000 		.word	.L184+1
 2584 00c8 0D020000 		.word	.L184+1
 2585 00cc 0D020000 		.word	.L184+1
 2586 00d0 0D020000 		.word	.L184+1
 2587 00d4 0D020000 		.word	.L184+1
 2588 00d8 DF010000 		.word	.L190+1
 2589 00dc 0D020000 		.word	.L184+1
 2590 00e0 0D020000 		.word	.L184+1
 2591 00e4 EF010000 		.word	.L191+1
 2592 00e8 01020000 		.word	.L192+1
 2593 00ec 0D020000 		.word	.L184+1
 2594 00f0 0D020000 		.word	.L184+1
 2595 00f4 0D020000 		.word	.L184+1
 2596 00f8 75010000 		.word	.L193+1
 2597 00fc 99010000 		.word	.L194+1
 2598 0100 87010000 		.word	.L195+1
 2599 0104 AB010000 		.word	.L196+1
 2600 0108 0D020000 		.word	.L184+1
 2601 010c 0D020000 		.word	.L184+1
 2602 0110 0D020000 		.word	.L184+1
 2603 0114 0D020000 		.word	.L184+1
 2604 0118 0D020000 		.word	.L184+1
 2605 011c 0D020000 		.word	.L184+1
 2606 0120 CF010000 		.word	.L197+1
 2607 0124 0D020000 		.word	.L184+1
 2608 0128 0D020000 		.word	.L184+1
 2609 012c 0D020000 		.word	.L184+1
 2610 0130 BD010000 		.word	.L198+1
 2611              		.p2align 1
 2612              	.L189:
 600:app_statemachine.c ****         case '8': nudge_apply(ctx, 0,    +NUDGE_LSB_DEG);  return 1;  // Numpad
 2613              		.loc 1 600 0
ARM GAS  C:\Users\JENNEW~1\AppData\Local\Temp\ccTobH5m.s 			page 60


 2614 0134 384A     		ldr	r2, .L200
 2615 0136 4FF00001 		mov	r1, #0
 2616 013a 7868     		ldr	r0, [r7, #4]
 2617 013c FFF7FEFF 		bl	nudge_apply
 2618 0140 0123     		movs	r3, #1
 2619 0142 64E0     		b	.L199
 2620              	.L185:
 601:app_statemachine.c ****         case '2': nudge_apply(ctx, 0,    -NUDGE_LSB_DEG);  return 1;  // Numpad
 2621              		.loc 1 601 0
 2622 0144 354A     		ldr	r2, .L200+4
 2623 0146 4FF00001 		mov	r1, #0
 2624 014a 7868     		ldr	r0, [r7, #4]
 2625 014c FFF7FEFF 		bl	nudge_apply
 2626 0150 0123     		movs	r3, #1
 2627 0152 5CE0     		b	.L199
 2628              	.L187:
 602:app_statemachine.c ****         case '4': nudge_apply(ctx, -NUDGE_LSB_DEG,    0);  return 1;  // Numpad
 2629              		.loc 1 602 0
 2630 0154 4FF00002 		mov	r2, #0
 2631 0158 3049     		ldr	r1, .L200+4
 2632 015a 7868     		ldr	r0, [r7, #4]
 2633 015c FFF7FEFF 		bl	nudge_apply
 2634 0160 0123     		movs	r3, #1
 2635 0162 54E0     		b	.L199
 2636              	.L188:
 603:app_statemachine.c ****         case '6': nudge_apply(ctx, +NUDGE_LSB_DEG,    0);  return 1;  // Numpad
 2637              		.loc 1 603 0
 2638 0164 4FF00002 		mov	r2, #0
 2639 0168 2B49     		ldr	r1, .L200
 2640 016a 7868     		ldr	r0, [r7, #4]
 2641 016c FFF7FEFF 		bl	nudge_apply
 2642 0170 0123     		movs	r3, #1
 2643 0172 4CE0     		b	.L199
 2644              	.L193:
 604:app_statemachine.c **** 
 605:app_statemachine.c ****         case 'i': nudge_apply(ctx, 0,    +NUDGE_FINE_DEG);   return 1;  // ijkl
 2645              		.loc 1 605 0
 2646 0174 4FF07C52 		mov	r2, #1056964608
 2647 0178 4FF00001 		mov	r1, #0
 2648 017c 7868     		ldr	r0, [r7, #4]
 2649 017e FFF7FEFF 		bl	nudge_apply
 2650 0182 0123     		movs	r3, #1
 2651 0184 43E0     		b	.L199
 2652              	.L195:
 606:app_statemachine.c ****         case 'k': nudge_apply(ctx, 0,    -NUDGE_FINE_DEG);   return 1;  // ijkl
 2653              		.loc 1 606 0
 2654 0186 4FF03F42 		mov	r2, #-1090519040
 2655 018a 4FF00001 		mov	r1, #0
 2656 018e 7868     		ldr	r0, [r7, #4]
 2657 0190 FFF7FEFF 		bl	nudge_apply
 2658 0194 0123     		movs	r3, #1
 2659 0196 3AE0     		b	.L199
 2660              	.L194:
 607:app_statemachine.c ****         case 'j': nudge_apply(ctx, -NUDGE_FINE_DEG,   0);    return 1;  // ijkl
 2661              		.loc 1 607 0
 2662 0198 4FF00002 		mov	r2, #0
 2663 019c 4FF03F41 		mov	r1, #-1090519040
ARM GAS  C:\Users\JENNEW~1\AppData\Local\Temp\ccTobH5m.s 			page 61


 2664 01a0 7868     		ldr	r0, [r7, #4]
 2665 01a2 FFF7FEFF 		bl	nudge_apply
 2666 01a6 0123     		movs	r3, #1
 2667 01a8 31E0     		b	.L199
 2668              	.L196:
 608:app_statemachine.c ****         case 'l': nudge_apply(ctx, +NUDGE_FINE_DEG,   0);    return 1;  // ijkl
 2669              		.loc 1 608 0
 2670 01aa 4FF00002 		mov	r2, #0
 2671 01ae 4FF07C51 		mov	r1, #1056964608
 2672 01b2 7868     		ldr	r0, [r7, #4]
 2673 01b4 FFF7FEFF 		bl	nudge_apply
 2674 01b8 0123     		movs	r3, #1
 2675 01ba 28E0     		b	.L199
 2676              	.L198:
 609:app_statemachine.c **** 
 610:app_statemachine.c ****         case 'w': nudge_apply(ctx, 0,    +NUDGE_COARSE_DEG); return 1;  // wasd
 2677              		.loc 1 610 0
 2678 01bc 4FF07E52 		mov	r2, #1065353216
 2679 01c0 4FF00001 		mov	r1, #0
 2680 01c4 7868     		ldr	r0, [r7, #4]
 2681 01c6 FFF7FEFF 		bl	nudge_apply
 2682 01ca 0123     		movs	r3, #1
 2683 01cc 1FE0     		b	.L199
 2684              	.L197:
 611:app_statemachine.c ****         case 's': nudge_apply(ctx, 0,    -NUDGE_COARSE_DEG); return 1;  // wasd
 2685              		.loc 1 611 0
 2686 01ce 144A     		ldr	r2, .L200+8
 2687 01d0 4FF00001 		mov	r1, #0
 2688 01d4 7868     		ldr	r0, [r7, #4]
 2689 01d6 FFF7FEFF 		bl	nudge_apply
 2690 01da 0123     		movs	r3, #1
 2691 01dc 17E0     		b	.L199
 2692              	.L190:
 612:app_statemachine.c ****         case 'a': nudge_apply(ctx, -NUDGE_COARSE_DEG, 0);    return 1;  // wasd
 2693              		.loc 1 612 0
 2694 01de 4FF00002 		mov	r2, #0
 2695 01e2 0F49     		ldr	r1, .L200+8
 2696 01e4 7868     		ldr	r0, [r7, #4]
 2697 01e6 FFF7FEFF 		bl	nudge_apply
 2698 01ea 0123     		movs	r3, #1
 2699 01ec 0FE0     		b	.L199
 2700              	.L191:
 613:app_statemachine.c ****         case 'd': nudge_apply(ctx, +NUDGE_COARSE_DEG, 0);    return 1;  // wasd
 2701              		.loc 1 613 0
 2702 01ee 4FF00002 		mov	r2, #0
 2703 01f2 4FF07E51 		mov	r1, #1065353216
 2704 01f6 7868     		ldr	r0, [r7, #4]
 2705 01f8 FFF7FEFF 		bl	nudge_apply
 2706 01fc 0123     		movs	r3, #1
 2707 01fe 06E0     		b	.L199
 2708              	.L192:
 614:app_statemachine.c ****         case 'e': transition(ctx, STBY_HOLD);                return 1;  // Exit
 2709              		.loc 1 614 0
 2710 0200 0621     		movs	r1, #6
 2711 0202 7868     		ldr	r0, [r7, #4]
 2712 0204 FFF7FEFF 		bl	transition
 2713 0208 0123     		movs	r3, #1
ARM GAS  C:\Users\JENNEW~1\AppData\Local\Temp\ccTobH5m.s 			page 62


 2714 020a 00E0     		b	.L199
 2715              	.L184:
 615:app_statemachine.c ****         default:  return 0;
 2716              		.loc 1 615 0
 2717 020c 0023     		movs	r3, #0
 2718              	.L199:
 616:app_statemachine.c ****     }
 617:app_statemachine.c **** }
 2719              		.loc 1 617 0
 2720 020e 1846     		mov	r0, r3
 2721 0210 0837     		adds	r7, r7, #8
 2722              		.cfi_def_cfa_offset 8
 2723 0212 BD46     		mov	sp, r7
 2724              		.cfi_def_cfa_register 13
 2725              		@ sp needed
 2726 0214 80BD     		pop	{r7, pc}
 2727              	.L201:
 2728 0216 00BF     		.align	2
 2729              	.L200:
 2730 0218 6801B43B 		.word	1001652584
 2731 021c 6801B4BB 		.word	-1145831064
 2732 0220 000080BF 		.word	-1082130432
 2733              		.cfi_endproc
 2734              	.LFE93:
 2735              		.size	key_manu_joystick, .-key_manu_joystick
 2736              		.section	.text.app_manual_tick,"ax",%progbits
 2737              		.align	2
 2738              		.global	app_manual_tick
 2739              		.thumb
 2740              		.thumb_func
 2741              		.type	app_manual_tick, %function
 2742              	app_manual_tick:
 2743              	.LFB94:
 618:app_statemachine.c **** 
 619:app_statemachine.c **** // TEMP: Manual tick for nudge
 620:app_statemachine.c **** void app_manual_tick(app_ctx_t *ctx)
 621:app_statemachine.c **** {
 2744              		.loc 1 621 0
 2745              		.cfi_startproc
 2746              		@ args = 0, pretend = 0, frame = 24
 2747              		@ frame_needed = 1, uses_anonymous_args = 0
 2748 0000 80B5     		push	{r7, lr}
 2749              		.cfi_def_cfa_offset 8
 2750              		.cfi_offset 7, -8
 2751              		.cfi_offset 14, -4
 2752 0002 86B0     		sub	sp, sp, #24
 2753              		.cfi_def_cfa_offset 32
 2754 0004 00AF     		add	r7, sp, #0
 2755              		.cfi_def_cfa_register 7
 2756 0006 7860     		str	r0, [r7, #4]
 622:app_statemachine.c ****     if (ctx->state != MANU_JOYSTICK || !ctx->nudge_hold) return;
 2757              		.loc 1 622 0
 2758 0008 7B68     		ldr	r3, [r7, #4]
 2759 000a 1B79     		ldrb	r3, [r3, #4]	@ zero_extendqisi2
 2760 000c 072B     		cmp	r3, #7
 2761 000e 4CD1     		bne	.L217
 2762              		.loc 1 622 0 is_stmt 0 discriminator 1
ARM GAS  C:\Users\JENNEW~1\AppData\Local\Temp\ccTobH5m.s 			page 63


 2763 0010 7B68     		ldr	r3, [r7, #4]
 2764 0012 93F84430 		ldrb	r3, [r3, #68]	@ zero_extendqisi2
 2765 0016 002B     		cmp	r3, #0
 2766 0018 47D0     		beq	.L217
 623:app_statemachine.c ****     uint32_t elapsed = g_tick_ms - ctx->nudge_start_ms;
 2767              		.loc 1 623 0 is_stmt 1
 2768 001a 274B     		ldr	r3, .L219
 2769 001c 1A68     		ldr	r2, [r3]
 2770 001e 7B68     		ldr	r3, [r7, #4]
 2771 0020 9B6C     		ldr	r3, [r3, #72]
 2772 0022 D31A     		subs	r3, r2, r3
 2773 0024 3B61     		str	r3, [r7, #16]
 624:app_statemachine.c ****     if (elapsed < NUDGE_MIN_DWELL_MS) return;       /* let the step physically land */
 2774              		.loc 1 624 0
 2775 0026 3B69     		ldr	r3, [r7, #16]
 2776 0028 952B     		cmp	r3, #149
 2777 002a 40D9     		bls	.L218
 625:app_statemachine.c **** 
 626:app_statemachine.c ****     float p, t; uint8_t arrived = 0u;
 2778              		.loc 1 626 0
 2779 002c 0023     		movs	r3, #0
 2780 002e FB75     		strb	r3, [r7, #23]
 627:app_statemachine.c ****     if (manu_pan_tilt_deg(ctx, &p, &t))
 2781              		.loc 1 627 0
 2782 0030 07F10802 		add	r2, r7, #8
 2783 0034 07F10C03 		add	r3, r7, #12
 2784 0038 1946     		mov	r1, r3
 2785 003a 7868     		ldr	r0, [r7, #4]
 2786 003c FFF7FEFF 		bl	manu_pan_tilt_deg
 2787 0040 0346     		mov	r3, r0
 2788 0042 002B     		cmp	r3, #0
 2789 0044 25D0     		beq	.L207
 628:app_statemachine.c ****         arrived = (fabsf(p - ctx->tgt_pan_deg)  < NUDGE_SETTLE_DEG) &&
 2790              		.loc 1 628 0
 2791 0046 FA68     		ldr	r2, [r7, #12]	@ float
 2792 0048 7B68     		ldr	r3, [r7, #4]
 2793 004a 5B6D     		ldr	r3, [r3, #84]	@ float
 2794 004c 1946     		mov	r1, r3
 2795 004e 1046     		mov	r0, r2
 2796 0050 FFF7FEFF 		bl	__aeabi_fsub
 2797 0054 0346     		mov	r3, r0
 2798 0056 23F00043 		bic	r3, r3, #-2147483648
 2799 005a 1849     		ldr	r1, .L219+4
 2800 005c 1846     		mov	r0, r3
 2801 005e FFF7FEFF 		bl	__aeabi_fcmplt
 2802 0062 0346     		mov	r3, r0
 2803 0064 002B     		cmp	r3, #0
 2804 0066 12D0     		beq	.L208
 629:app_statemachine.c ****                   (fabsf(t - ctx->tgt_tilt_deg) < NUDGE_SETTLE_DEG);
 2805              		.loc 1 629 0 discriminator 1
 2806 0068 BA68     		ldr	r2, [r7, #8]	@ float
 2807 006a 7B68     		ldr	r3, [r7, #4]
 2808 006c 9B6D     		ldr	r3, [r3, #88]	@ float
 2809 006e 1946     		mov	r1, r3
 2810 0070 1046     		mov	r0, r2
 2811 0072 FFF7FEFF 		bl	__aeabi_fsub
 2812 0076 0346     		mov	r3, r0
ARM GAS  C:\Users\JENNEW~1\AppData\Local\Temp\ccTobH5m.s 			page 64


 2813 0078 23F00043 		bic	r3, r3, #-2147483648
 628:app_statemachine.c ****         arrived = (fabsf(p - ctx->tgt_pan_deg)  < NUDGE_SETTLE_DEG) &&
 2814              		.loc 1 628 0 discriminator 1
 2815 007c 0F49     		ldr	r1, .L219+4
 2816 007e 1846     		mov	r0, r3
 2817 0080 FFF7FEFF 		bl	__aeabi_fcmplt
 2818 0084 0346     		mov	r3, r0
 2819 0086 002B     		cmp	r3, #0
 2820 0088 01D0     		beq	.L208
 628:app_statemachine.c ****         arrived = (fabsf(p - ctx->tgt_pan_deg)  < NUDGE_SETTLE_DEG) &&
 2821              		.loc 1 628 0 is_stmt 0 discriminator 3
 2822 008a 0123     		movs	r3, #1
 2823 008c 00E0     		b	.L211
 2824              	.L208:
 628:app_statemachine.c ****         arrived = (fabsf(p - ctx->tgt_pan_deg)  < NUDGE_SETTLE_DEG) &&
 2825              		.loc 1 628 0 discriminator 4
 2826 008e 0023     		movs	r3, #0
 2827              	.L211:
 628:app_statemachine.c ****         arrived = (fabsf(p - ctx->tgt_pan_deg)  < NUDGE_SETTLE_DEG) &&
 2828              		.loc 1 628 0 discriminator 6
 2829 0090 FB75     		strb	r3, [r7, #23]
 2830              	.L207:
 630:app_statemachine.c ****     if (arrived || elapsed >= NUDGE_TIMEOUT_MS)
 2831              		.loc 1 630 0 is_stmt 1
 2832 0092 FB7D     		ldrb	r3, [r7, #23]	@ zero_extendqisi2
 2833 0094 002B     		cmp	r3, #0
 2834 0096 03D1     		bne	.L212
 2835              		.loc 1 630 0 is_stmt 0 discriminator 1
 2836 0098 3B69     		ldr	r3, [r7, #16]
 2837 009a B3F5FA6F 		cmp	r3, #2000
 2838 009e 07D3     		bcc	.L202
 2839              	.L212:
 631:app_statemachine.c ****         ctx->nudge_hold = 0u;                        /* rate=0 holds the new attitude */
 2840              		.loc 1 631 0 is_stmt 1
 2841 00a0 7B68     		ldr	r3, [r7, #4]
 2842 00a2 0022     		movs	r2, #0
 2843 00a4 83F84420 		strb	r2, [r3, #68]
 2844 00a8 02E0     		b	.L202
 2845              	.L217:
 622:app_statemachine.c ****     uint32_t elapsed = g_tick_ms - ctx->nudge_start_ms;
 2846              		.loc 1 622 0
 2847 00aa 00BF     		nop
 2848 00ac 00E0     		b	.L202
 2849              	.L218:
 624:app_statemachine.c **** 
 2850              		.loc 1 624 0
 2851 00ae 00BF     		nop
 2852              	.L202:
 632:app_statemachine.c **** }...
 2853              		.loc 1 632 0
 2854 00b0 1837     		adds	r7, r7, #24
 2855              		.cfi_def_cfa_offset 8
 2856 00b2 BD46     		mov	sp, r7
 2857              		.cfi_def_cfa_register 13
 2858              		@ sp needed
 2859 00b4 80BD     		pop	{r7, pc}
 2860              	.L220:
ARM GAS  C:\Users\JENNEW~1\AppData\Local\Temp\ccTobH5m.s 			page 65


 2861 00b6 00BF     		.align	2
 2862              	.L219:
 2863 00b8 00000000 		.word	g_tick_ms
 2864 00bc CDCC4C3D 		.word	1028443341
 2865              		.cfi_endproc
 2866              	.LFE94:
 2867              		.size	app_manual_tick, .-app_manual_tick
 2868              		.bss
 2869              		.align	2
 2870              	last_hot_ms.8100:
 2871 0000 00000000 		.space	4
 2872              		.align	2
 2873              	last_link_ms.8101:
 2874 0004 00000000 		.space	4
 2875              		.section	.rodata
 2876 04ff 00       		.align	2
 2877              	.LC39:
 2878 0500 4300     		.ascii	"C\000"
 2879 0502 0000     		.align	2
 2880              	.LC40:
 2881 0504 4600     		.ascii	"F\000"
 2882              		.data
 2883              		.align	2
 2884              		.type	tag.8120, %object
 2885              		.size	tag.8120, 8
 2886              	tag.8120:
 2887 0000 00050000 		.word	.LC39
 2888 0004 04050000 		.word	.LC40
 2889              		.text
 2890              	.Letext0:
 2891              		.file 2 "c:\\program files (x86)\\cypress\\psoc creator\\4.4\\psoc creator\\import\\gnu\\arm\\5.4.
 2892              		.file 3 "c:\\program files (x86)\\cypress\\psoc creator\\4.4\\psoc creator\\import\\gnu\\arm\\5.4.
 2893              		.file 4 "..\\..\\..\\HamFlyAPI\\src/hamfly_core_control.h"
 2894              		.file 5 "..\\..\\..\\HamFlyAPI\\src/hamfly_core_hal.h"
 2895              		.file 6 "..\\..\\..\\HamFlyAPI\\src/hamfly_core_telemetry.h"
 2896              		.file 7 "..\\..\\..\\HamFlyAPI\\src/hamfly_comm_rb.h"
 2897              		.file 8 "..\\..\\..\\HamFlyAPI\\src/hamfly_core_gimbal.h"
 2898              		.file 9 "joystick.h"
 2899              		.file 10 "app_ctx.h"
 2900              		.file 11 "sbc_comms.h"
 2901              		.file 12 "Generated_Source\\PSoC5/core_cm3.h"
 2902              		.section	.debug_info,"",%progbits
 2903              	.Ldebug_info0:
 2904 0000 1F130000 		.4byte	0x131f
 2905 0004 0400     		.2byte	0x4
 2906 0006 00000000 		.4byte	.Ldebug_abbrev0
 2907 000a 04       		.byte	0x4
 2908 000b 01       		.uleb128 0x1
 2909 000c 37060000 		.4byte	.LASF250
 2910 0010 0C       		.byte	0xc
 2911 0011 5A0A0000 		.4byte	.LASF251
 2912 0015 750C0000 		.4byte	.LASF252
 2913 0019 00000000 		.4byte	.Ldebug_ranges0+0
 2914 001d 00000000 		.4byte	0
 2915 0021 00000000 		.4byte	.Ldebug_line0
 2916 0025 02       		.uleb128 0x2
 2917 0026 01       		.byte	0x1
ARM GAS  C:\Users\JENNEW~1\AppData\Local\Temp\ccTobH5m.s 			page 66


 2918 0027 06       		.byte	0x6
 2919 0028 6F020000 		.4byte	.LASF0
 2920 002c 03       		.uleb128 0x3
 2921 002d 7E010000 		.4byte	.LASF2
 2922 0031 02       		.byte	0x2
 2923 0032 1D       		.byte	0x1d
 2924 0033 37000000 		.4byte	0x37
 2925 0037 02       		.uleb128 0x2
 2926 0038 01       		.byte	0x1
 2927 0039 08       		.byte	0x8
 2928 003a CA020000 		.4byte	.LASF1
 2929 003e 03       		.uleb128 0x3
 2930 003f FD090000 		.4byte	.LASF3
 2931 0043 02       		.byte	0x2
 2932 0044 29       		.byte	0x29
 2933 0045 49000000 		.4byte	0x49
 2934 0049 02       		.uleb128 0x2
 2935 004a 02       		.byte	0x2
 2936 004b 05       		.byte	0x5
 2937 004c B30A0000 		.4byte	.LASF4
 2938 0050 03       		.uleb128 0x3
 2939 0051 8A030000 		.4byte	.LASF5
 2940 0055 02       		.byte	0x2
 2941 0056 2B       		.byte	0x2b
 2942 0057 5B000000 		.4byte	0x5b
 2943 005b 02       		.uleb128 0x2
 2944 005c 02       		.byte	0x2
 2945 005d 07       		.byte	0x7
 2946 005e CE0B0000 		.4byte	.LASF6
 2947 0062 03       		.uleb128 0x3
 2948 0063 EE0B0000 		.4byte	.LASF7
 2949 0067 02       		.byte	0x2
 2950 0068 3F       		.byte	0x3f
 2951 0069 6D000000 		.4byte	0x6d
 2952 006d 02       		.uleb128 0x2
 2953 006e 04       		.byte	0x4
 2954 006f 05       		.byte	0x5
 2955 0070 D5010000 		.4byte	.LASF8
 2956 0074 03       		.uleb128 0x3
 2957 0075 D7060000 		.4byte	.LASF9
 2958 0079 02       		.byte	0x2
 2959 007a 41       		.byte	0x41
 2960 007b 7F000000 		.4byte	0x7f
 2961 007f 02       		.uleb128 0x2
 2962 0080 04       		.byte	0x4
 2963 0081 07       		.byte	0x7
 2964 0082 60050000 		.4byte	.LASF10
 2965 0086 02       		.uleb128 0x2
 2966 0087 08       		.byte	0x8
 2967 0088 05       		.byte	0x5
 2968 0089 F1060000 		.4byte	.LASF11
 2969 008d 02       		.uleb128 0x2
 2970 008e 08       		.byte	0x8
 2971 008f 07       		.byte	0x7
 2972 0090 2A090000 		.4byte	.LASF12
 2973 0094 04       		.uleb128 0x4
 2974 0095 04       		.byte	0x4
ARM GAS  C:\Users\JENNEW~1\AppData\Local\Temp\ccTobH5m.s 			page 67


 2975 0096 05       		.byte	0x5
 2976 0097 696E7400 		.ascii	"int\000"
 2977 009b 02       		.uleb128 0x2
 2978 009c 04       		.byte	0x4
 2979 009d 07       		.byte	0x7
 2980 009e B0070000 		.4byte	.LASF13
 2981 00a2 03       		.uleb128 0x3
 2982 00a3 7B020000 		.4byte	.LASF14
 2983 00a7 03       		.byte	0x3
 2984 00a8 18       		.byte	0x18
 2985 00a9 2C000000 		.4byte	0x2c
 2986 00ad 03       		.uleb128 0x3
 2987 00ae D40A0000 		.4byte	.LASF15
 2988 00b2 03       		.byte	0x3
 2989 00b3 20       		.byte	0x20
 2990 00b4 3E000000 		.4byte	0x3e
 2991 00b8 03       		.uleb128 0x3
 2992 00b9 7D090000 		.4byte	.LASF16
 2993 00bd 03       		.byte	0x3
 2994 00be 24       		.byte	0x24
 2995 00bf 50000000 		.4byte	0x50
 2996 00c3 03       		.uleb128 0x3
 2997 00c4 9E000000 		.4byte	.LASF17
 2998 00c8 03       		.byte	0x3
 2999 00c9 2C       		.byte	0x2c
 3000 00ca 62000000 		.4byte	0x62
 3001 00ce 03       		.uleb128 0x3
 3002 00cf 720B0000 		.4byte	.LASF18
 3003 00d3 03       		.byte	0x3
 3004 00d4 30       		.byte	0x30
 3005 00d5 74000000 		.4byte	0x74
 3006 00d9 02       		.uleb128 0x2
 3007 00da 04       		.byte	0x4
 3008 00db 04       		.byte	0x4
 3009 00dc 96070000 		.4byte	.LASF19
 3010 00e0 02       		.uleb128 0x2
 3011 00e1 08       		.byte	0x8
 3012 00e2 04       		.byte	0x4
 3013 00e3 5A070000 		.4byte	.LASF20
 3014 00e7 02       		.uleb128 0x2
 3015 00e8 01       		.byte	0x1
 3016 00e9 08       		.byte	0x8
 3017 00ea 43030000 		.4byte	.LASF21
 3018 00ee 02       		.uleb128 0x2
 3019 00ef 08       		.byte	0x8
 3020 00f0 04       		.byte	0x4
 3021 00f1 6E080000 		.4byte	.LASF22
 3022 00f5 02       		.uleb128 0x2
 3023 00f6 04       		.byte	0x4
 3024 00f7 07       		.byte	0x7
 3025 00f8 47000000 		.4byte	.LASF23
 3026 00fc 05       		.uleb128 0x5
 3027 00fd 04       		.byte	0x4
 3028 00fe 06       		.uleb128 0x6
 3029 00ff 04       		.byte	0x4
 3030 0100 04010000 		.4byte	0x104
 3031 0104 07       		.uleb128 0x7
ARM GAS  C:\Users\JENNEW~1\AppData\Local\Temp\ccTobH5m.s 			page 68


 3032 0105 E7000000 		.4byte	0xe7
 3033 0109 08       		.uleb128 0x8
 3034 010a CE000000 		.4byte	0xce
 3035 010e 08       		.uleb128 0x8
 3036 010f A2000000 		.4byte	0xa2
 3037 0113 08       		.uleb128 0x8
 3038 0114 B8000000 		.4byte	0xb8
 3039 0118 09       		.uleb128 0x9
 3040 0119 01       		.byte	0x1
 3041 011a 37000000 		.4byte	0x37
 3042 011e 04       		.byte	0x4
 3043 011f 1E       		.byte	0x1e
 3044 0120 3D010000 		.4byte	0x13d
 3045 0124 0A       		.uleb128 0xa
 3046 0125 000B0000 		.4byte	.LASF24
 3047 0129 00       		.byte	0
 3048 012a 0A       		.uleb128 0xa
 3049 012b 1D030000 		.4byte	.LASF25
 3050 012f 01       		.byte	0x1
 3051 0130 0A       		.uleb128 0xa
 3052 0131 53080000 		.4byte	.LASF26
 3053 0135 02       		.byte	0x2
 3054 0136 0A       		.uleb128 0xa
 3055 0137 41090000 		.4byte	.LASF27
 3056 013b 03       		.byte	0x3
 3057 013c 00       		.byte	0
 3058 013d 03       		.uleb128 0x3
 3059 013e FF060000 		.4byte	.LASF28
 3060 0142 04       		.byte	0x4
 3061 0143 2A       		.byte	0x2a
 3062 0144 18010000 		.4byte	0x118
 3063 0148 0B       		.uleb128 0xb
 3064 0149 14       		.byte	0x14
 3065 014a 04       		.byte	0x4
 3066 014b 2E       		.byte	0x2e
 3067 014c B1010000 		.4byte	0x1b1
 3068 0150 0C       		.uleb128 0xc
 3069 0151 70616E00 		.ascii	"pan\000"
 3070 0155 04       		.byte	0x4
 3071 0156 2F       		.byte	0x2f
 3072 0157 D9000000 		.4byte	0xd9
 3073 015b 00       		.byte	0
 3074 015c 0D       		.uleb128 0xd
 3075 015d DD090000 		.4byte	.LASF29
 3076 0161 04       		.byte	0x4
 3077 0162 30       		.byte	0x30
 3078 0163 D9000000 		.4byte	0xd9
 3079 0167 04       		.byte	0x4
 3080 0168 0D       		.uleb128 0xd
 3081 0169 E10B0000 		.4byte	.LASF30
 3082 016d 04       		.byte	0x4
 3083 016e 31       		.byte	0x31
 3084 016f D9000000 		.4byte	0xd9
 3085 0173 08       		.byte	0x8
 3086 0174 0D       		.uleb128 0xd
 3087 0175 01090000 		.4byte	.LASF31
 3088 0179 04       		.byte	0x4
ARM GAS  C:\Users\JENNEW~1\AppData\Local\Temp\ccTobH5m.s 			page 69


 3089 017a 32       		.byte	0x32
 3090 017b 3D010000 		.4byte	0x13d
 3091 017f 0C       		.byte	0xc
 3092 0180 0D       		.uleb128 0xd
 3093 0181 440A0000 		.4byte	.LASF32
 3094 0185 04       		.byte	0x4
 3095 0186 33       		.byte	0x33
 3096 0187 3D010000 		.4byte	0x13d
 3097 018b 0D       		.byte	0xd
 3098 018c 0D       		.uleb128 0xd
 3099 018d E6070000 		.4byte	.LASF33
 3100 0191 04       		.byte	0x4
 3101 0192 34       		.byte	0x34
 3102 0193 3D010000 		.4byte	0x13d
 3103 0197 0E       		.byte	0xe
 3104 0198 0D       		.uleb128 0xd
 3105 0199 37070000 		.4byte	.LASF34
 3106 019d 04       		.byte	0x4
 3107 019e 35       		.byte	0x35
 3108 019f A2000000 		.4byte	0xa2
 3109 01a3 0F       		.byte	0xf
 3110 01a4 0D       		.uleb128 0xd
 3111 01a5 290B0000 		.4byte	.LASF35
 3112 01a9 04       		.byte	0x4
 3113 01aa 36       		.byte	0x36
 3114 01ab A2000000 		.4byte	0xa2
 3115 01af 10       		.byte	0x10
 3116 01b0 00       		.byte	0
 3117 01b1 03       		.uleb128 0x3
 3118 01b2 E8000000 		.4byte	.LASF36
 3119 01b6 04       		.byte	0x4
 3120 01b7 37       		.byte	0x37
 3121 01b8 48010000 		.4byte	0x148
 3122 01bc 0B       		.uleb128 0xb
 3123 01bd 0C       		.byte	0xc
 3124 01be 05       		.byte	0x5
 3125 01bf 24       		.byte	0x24
 3126 01c0 E9010000 		.4byte	0x1e9
 3127 01c4 0C       		.uleb128 0xc
 3128 01c5 63747800 		.ascii	"ctx\000"
 3129 01c9 05       		.byte	0x5
 3130 01ca 25       		.byte	0x25
 3131 01cb FC000000 		.4byte	0xfc
 3132 01cf 00       		.byte	0
 3133 01d0 0D       		.uleb128 0xd
 3134 01d1 D7050000 		.4byte	.LASF37
 3135 01d5 05       		.byte	0x5
 3136 01d6 26       		.byte	0x26
 3137 01d7 F9010000 		.4byte	0x1f9
 3138 01db 04       		.byte	0x4
 3139 01dc 0D       		.uleb128 0xd
 3140 01dd A50B0000 		.4byte	.LASF38
 3141 01e1 05       		.byte	0x5
 3142 01e2 27       		.byte	0x27
 3143 01e3 0E020000 		.4byte	0x20e
 3144 01e7 08       		.byte	0x8
 3145 01e8 00       		.byte	0
ARM GAS  C:\Users\JENNEW~1\AppData\Local\Temp\ccTobH5m.s 			page 70


 3146 01e9 0E       		.uleb128 0xe
 3147 01ea F9010000 		.4byte	0x1f9
 3148 01ee 0F       		.uleb128 0xf
 3149 01ef FC000000 		.4byte	0xfc
 3150 01f3 0F       		.uleb128 0xf
 3151 01f4 A2000000 		.4byte	0xa2
 3152 01f8 00       		.byte	0
 3153 01f9 06       		.uleb128 0x6
 3154 01fa 04       		.byte	0x4
 3155 01fb E9010000 		.4byte	0x1e9
 3156 01ff 10       		.uleb128 0x10
 3157 0200 CE000000 		.4byte	0xce
 3158 0204 0E020000 		.4byte	0x20e
 3159 0208 0F       		.uleb128 0xf
 3160 0209 FC000000 		.4byte	0xfc
 3161 020d 00       		.byte	0
 3162 020e 06       		.uleb128 0x6
 3163 020f 04       		.byte	0x4
 3164 0210 FF010000 		.4byte	0x1ff
 3165 0214 03       		.uleb128 0x3
 3166 0215 B7080000 		.4byte	.LASF39
 3167 0219 05       		.byte	0x5
 3168 021a 28       		.byte	0x28
 3169 021b BC010000 		.4byte	0x1bc
 3170 021f 0B       		.uleb128 0xb
 3171 0220 EC       		.byte	0xec
 3172 0221 06       		.byte	0x6
 3173 0222 1F       		.byte	0x1f
 3174 0223 88050000 		.4byte	0x588
 3175 0227 0D       		.uleb128 0xd
 3176 0228 180B0000 		.4byte	.LASF40
 3177 022c 06       		.byte	0x6
 3178 022d 21       		.byte	0x21
 3179 022e 88050000 		.4byte	0x588
 3180 0232 00       		.byte	0
 3181 0233 0D       		.uleb128 0xd
 3182 0234 E2060000 		.4byte	.LASF41
 3183 0238 06       		.byte	0x6
 3184 0239 22       		.byte	0x22
 3185 023a D9000000 		.4byte	0xd9
 3186 023e 04       		.byte	0x4
 3187 023f 0D       		.uleb128 0xd
 3188 0240 B7030000 		.4byte	.LASF42
 3189 0244 06       		.byte	0x6
 3190 0245 23       		.byte	0x23
 3191 0246 D9000000 		.4byte	0xd9
 3192 024a 08       		.byte	0x8
 3193 024b 0D       		.uleb128 0xd
 3194 024c 97010000 		.4byte	.LASF43
 3195 0250 06       		.byte	0x6
 3196 0251 24       		.byte	0x24
 3197 0252 D9000000 		.4byte	0xd9
 3198 0256 0C       		.byte	0xc
 3199 0257 0D       		.uleb128 0xd
 3200 0258 6C010000 		.4byte	.LASF44
 3201 025c 06       		.byte	0x6
 3202 025d 25       		.byte	0x25
ARM GAS  C:\Users\JENNEW~1\AppData\Local\Temp\ccTobH5m.s 			page 71


 3203 025e D9000000 		.4byte	0xd9
 3204 0262 10       		.byte	0x10
 3205 0263 0D       		.uleb128 0xd
 3206 0264 75010000 		.4byte	.LASF45
 3207 0268 06       		.byte	0x6
 3208 0269 26       		.byte	0x26
 3209 026a D9000000 		.4byte	0xd9
 3210 026e 14       		.byte	0x14
 3211 026f 0D       		.uleb128 0xd
 3212 0270 2C020000 		.4byte	.LASF46
 3213 0274 06       		.byte	0x6
 3214 0275 27       		.byte	0x27
 3215 0276 D9000000 		.4byte	0xd9
 3216 027a 18       		.byte	0x18
 3217 027b 0D       		.uleb128 0xd
 3218 027c 10000000 		.4byte	.LASF47
 3219 0280 06       		.byte	0x6
 3220 0281 28       		.byte	0x28
 3221 0282 A2000000 		.4byte	0xa2
 3222 0286 1C       		.byte	0x1c
 3223 0287 0D       		.uleb128 0xd
 3224 0288 1F000000 		.4byte	.LASF48
 3225 028c 06       		.byte	0x6
 3226 028d 29       		.byte	0x29
 3227 028e A2000000 		.4byte	0xa2
 3228 0292 1D       		.byte	0x1d
 3229 0293 0D       		.uleb128 0xd
 3230 0294 2C010000 		.4byte	.LASF49
 3231 0298 06       		.byte	0x6
 3232 0299 2C       		.byte	0x2c
 3233 029a 88050000 		.4byte	0x588
 3234 029e 1E       		.byte	0x1e
 3235 029f 0D       		.uleb128 0xd
 3236 02a0 E50A0000 		.4byte	.LASF50
 3237 02a4 06       		.byte	0x6
 3238 02a5 2E       		.byte	0x2e
 3239 02a6 88050000 		.4byte	0x588
 3240 02aa 1F       		.byte	0x1f
 3241 02ab 0D       		.uleb128 0xd
 3242 02ac B5010000 		.4byte	.LASF51
 3243 02b0 06       		.byte	0x6
 3244 02b1 31       		.byte	0x31
 3245 02b2 D9000000 		.4byte	0xd9
 3246 02b6 20       		.byte	0x20
 3247 02b7 0D       		.uleb128 0xd
 3248 02b8 640C0000 		.4byte	.LASF52
 3249 02bc 06       		.byte	0x6
 3250 02bd 32       		.byte	0x32
 3251 02be D9000000 		.4byte	0xd9
 3252 02c2 24       		.byte	0x24
 3253 02c3 0D       		.uleb128 0xd
 3254 02c4 59020000 		.4byte	.LASF53
 3255 02c8 06       		.byte	0x6
 3256 02c9 33       		.byte	0x33
 3257 02ca D9000000 		.4byte	0xd9
 3258 02ce 28       		.byte	0x28
 3259 02cf 0D       		.uleb128 0xd
ARM GAS  C:\Users\JENNEW~1\AppData\Local\Temp\ccTobH5m.s 			page 72


 3260 02d0 28040000 		.4byte	.LASF54
 3261 02d4 06       		.byte	0x6
 3262 02d5 34       		.byte	0x34
 3263 02d6 D9000000 		.4byte	0xd9
 3264 02da 2C       		.byte	0x2c
 3265 02db 0D       		.uleb128 0xd
 3266 02dc 27070000 		.4byte	.LASF55
 3267 02e0 06       		.byte	0x6
 3268 02e1 36       		.byte	0x36
 3269 02e2 D9000000 		.4byte	0xd9
 3270 02e6 30       		.byte	0x30
 3271 02e7 0D       		.uleb128 0xd
 3272 02e8 79050000 		.4byte	.LASF56
 3273 02ec 06       		.byte	0x6
 3274 02ed 37       		.byte	0x37
 3275 02ee D9000000 		.4byte	0xd9
 3276 02f2 34       		.byte	0x34
 3277 02f3 0D       		.uleb128 0xd
 3278 02f4 70040000 		.4byte	.LASF57
 3279 02f8 06       		.byte	0x6
 3280 02f9 38       		.byte	0x38
 3281 02fa D9000000 		.4byte	0xd9
 3282 02fe 38       		.byte	0x38
 3283 02ff 0D       		.uleb128 0xd
 3284 0300 23050000 		.4byte	.LASF58
 3285 0304 06       		.byte	0x6
 3286 0305 39       		.byte	0x39
 3287 0306 D9000000 		.4byte	0xd9
 3288 030a 3C       		.byte	0x3c
 3289 030b 0D       		.uleb128 0xd
 3290 030c CB050000 		.4byte	.LASF59
 3291 0310 06       		.byte	0x6
 3292 0311 3B       		.byte	0x3b
 3293 0312 C3000000 		.4byte	0xc3
 3294 0316 40       		.byte	0x40
 3295 0317 0D       		.uleb128 0xd
 3296 0318 990B0000 		.4byte	.LASF60
 3297 031c 06       		.byte	0x6
 3298 031d 3C       		.byte	0x3c
 3299 031e C3000000 		.4byte	0xc3
 3300 0322 44       		.byte	0x44
 3301 0323 0D       		.uleb128 0xd
 3302 0324 FA070000 		.4byte	.LASF61
 3303 0328 06       		.byte	0x6
 3304 0329 41       		.byte	0x41
 3305 032a C3000000 		.4byte	0xc3
 3306 032e 48       		.byte	0x48
 3307 032f 0D       		.uleb128 0xd
 3308 0330 7B040000 		.4byte	.LASF62
 3309 0334 06       		.byte	0x6
 3310 0335 42       		.byte	0x42
 3311 0336 AD000000 		.4byte	0xad
 3312 033a 4C       		.byte	0x4c
 3313 033b 0D       		.uleb128 0xd
 3314 033c F1090000 		.4byte	.LASF63
 3315 0340 06       		.byte	0x6
 3316 0341 44       		.byte	0x44
ARM GAS  C:\Users\JENNEW~1\AppData\Local\Temp\ccTobH5m.s 			page 73


 3317 0342 AD000000 		.4byte	0xad
 3318 0346 4E       		.byte	0x4e
 3319 0347 0D       		.uleb128 0xd
 3320 0348 1F010000 		.4byte	.LASF64
 3321 034c 06       		.byte	0x6
 3322 034d 45       		.byte	0x45
 3323 034e B8000000 		.4byte	0xb8
 3324 0352 50       		.byte	0x50
 3325 0353 0D       		.uleb128 0xd
 3326 0354 E9010000 		.4byte	.LASF65
 3327 0358 06       		.byte	0x6
 3328 0359 46       		.byte	0x46
 3329 035a B8000000 		.4byte	0xb8
 3330 035e 52       		.byte	0x52
 3331 035f 0D       		.uleb128 0xd
 3332 0360 7A080000 		.4byte	.LASF66
 3333 0364 06       		.byte	0x6
 3334 0365 47       		.byte	0x47
 3335 0366 B8000000 		.4byte	0xb8
 3336 036a 54       		.byte	0x54
 3337 036b 0D       		.uleb128 0xd
 3338 036c 1E0B0000 		.4byte	.LASF67
 3339 0370 06       		.byte	0x6
 3340 0371 4A       		.byte	0x4a
 3341 0372 88050000 		.4byte	0x588
 3342 0376 56       		.byte	0x56
 3343 0377 0D       		.uleb128 0xd
 3344 0378 2A0C0000 		.4byte	.LASF68
 3345 037c 06       		.byte	0x6
 3346 037d 4E       		.byte	0x4e
 3347 037e D9000000 		.4byte	0xd9
 3348 0382 58       		.byte	0x58
 3349 0383 0D       		.uleb128 0xd
 3350 0384 B2090000 		.4byte	.LASF69
 3351 0388 06       		.byte	0x6
 3352 0389 52       		.byte	0x52
 3353 038a D9000000 		.4byte	0xd9
 3354 038e 5C       		.byte	0x5c
 3355 038f 0D       		.uleb128 0xd
 3356 0390 BD040000 		.4byte	.LASF70
 3357 0394 06       		.byte	0x6
 3358 0395 57       		.byte	0x57
 3359 0396 88050000 		.4byte	0x588
 3360 039a 60       		.byte	0x60
 3361 039b 0D       		.uleb128 0xd
 3362 039c 48030000 		.4byte	.LASF71
 3363 03a0 06       		.byte	0x6
 3364 03a1 58       		.byte	0x58
 3365 03a2 CE000000 		.4byte	0xce
 3366 03a6 64       		.byte	0x64
 3367 03a7 0D       		.uleb128 0xd
 3368 03a8 CC000000 		.4byte	.LASF72
 3369 03ac 06       		.byte	0x6
 3370 03ad 59       		.byte	0x59
 3371 03ae D9000000 		.4byte	0xd9
 3372 03b2 68       		.byte	0x68
 3373 03b3 0D       		.uleb128 0xd
ARM GAS  C:\Users\JENNEW~1\AppData\Local\Temp\ccTobH5m.s 			page 74


 3374 03b4 23080000 		.4byte	.LASF73
 3375 03b8 06       		.byte	0x6
 3376 03b9 5A       		.byte	0x5a
 3377 03ba D9000000 		.4byte	0xd9
 3378 03be 6C       		.byte	0x6c
 3379 03bf 0D       		.uleb128 0xd
 3380 03c0 59030000 		.4byte	.LASF74
 3381 03c4 06       		.byte	0x6
 3382 03c5 5B       		.byte	0x5b
 3383 03c6 D9000000 		.4byte	0xd9
 3384 03ca 70       		.byte	0x70
 3385 03cb 0D       		.uleb128 0xd
 3386 03cc 1B060000 		.4byte	.LASF75
 3387 03d0 06       		.byte	0x6
 3388 03d1 5F       		.byte	0x5f
 3389 03d2 D9000000 		.4byte	0xd9
 3390 03d6 74       		.byte	0x74
 3391 03d7 0D       		.uleb128 0xd
 3392 03d8 F0030000 		.4byte	.LASF76
 3393 03dc 06       		.byte	0x6
 3394 03dd 60       		.byte	0x60
 3395 03de D9000000 		.4byte	0xd9
 3396 03e2 78       		.byte	0x78
 3397 03e3 0D       		.uleb128 0xd
 3398 03e4 A5080000 		.4byte	.LASF77
 3399 03e8 06       		.byte	0x6
 3400 03e9 61       		.byte	0x61
 3401 03ea D9000000 		.4byte	0xd9
 3402 03ee 7C       		.byte	0x7c
 3403 03ef 0D       		.uleb128 0xd
 3404 03f0 F0080000 		.4byte	.LASF78
 3405 03f4 06       		.byte	0x6
 3406 03f5 65       		.byte	0x65
 3407 03f6 D9000000 		.4byte	0xd9
 3408 03fa 80       		.byte	0x80
 3409 03fb 0D       		.uleb128 0xd
 3410 03fc 15070000 		.4byte	.LASF79
 3411 0400 06       		.byte	0x6
 3412 0401 66       		.byte	0x66
 3413 0402 D9000000 		.4byte	0xd9
 3414 0406 84       		.byte	0x84
 3415 0407 0D       		.uleb128 0xd
 3416 0408 ED050000 		.4byte	.LASF80
 3417 040c 06       		.byte	0x6
 3418 040d 67       		.byte	0x67
 3419 040e D9000000 		.4byte	0xd9
 3420 0412 88       		.byte	0x88
 3421 0413 0D       		.uleb128 0xd
 3422 0414 A4090000 		.4byte	.LASF81
 3423 0418 06       		.byte	0x6
 3424 0419 6A       		.byte	0x6a
 3425 041a 88050000 		.4byte	0x588
 3426 041e 8C       		.byte	0x8c
 3427 041f 0D       		.uleb128 0xd
 3428 0420 CA090000 		.4byte	.LASF82
 3429 0424 06       		.byte	0x6
 3430 0425 6E       		.byte	0x6e
ARM GAS  C:\Users\JENNEW~1\AppData\Local\Temp\ccTobH5m.s 			page 75


 3431 0426 88050000 		.4byte	0x588
 3432 042a 8D       		.byte	0x8d
 3433 042b 0D       		.uleb128 0xd
 3434 042c E3030000 		.4byte	.LASF83
 3435 0430 06       		.byte	0x6
 3436 0431 6F       		.byte	0x6f
 3437 0432 88050000 		.4byte	0x588
 3438 0436 8E       		.byte	0x8e
 3439 0437 0D       		.uleb128 0xd
 3440 0438 66030000 		.4byte	.LASF84
 3441 043c 06       		.byte	0x6
 3442 043d 70       		.byte	0x70
 3443 043e 88050000 		.4byte	0x588
 3444 0442 8F       		.byte	0x8f
 3445 0443 0D       		.uleb128 0xd
 3446 0444 F9000000 		.4byte	.LASF85
 3447 0448 06       		.byte	0x6
 3448 0449 71       		.byte	0x71
 3449 044a 88050000 		.4byte	0x588
 3450 044e 90       		.byte	0x90
 3451 044f 0D       		.uleb128 0xd
 3452 0450 88010000 		.4byte	.LASF86
 3453 0454 06       		.byte	0x6
 3454 0455 72       		.byte	0x72
 3455 0456 D9000000 		.4byte	0xd9
 3456 045a 94       		.byte	0x94
 3457 045b 0D       		.uleb128 0xd
 3458 045c AC040000 		.4byte	.LASF87
 3459 0460 06       		.byte	0x6
 3460 0461 73       		.byte	0x73
 3461 0462 A2000000 		.4byte	0xa2
 3462 0466 98       		.byte	0x98
 3463 0467 0D       		.uleb128 0xd
 3464 0468 35020000 		.4byte	.LASF88
 3465 046c 06       		.byte	0x6
 3466 046d 74       		.byte	0x74
 3467 046e D9000000 		.4byte	0xd9
 3468 0472 9C       		.byte	0x9c
 3469 0473 0D       		.uleb128 0xd
 3470 0474 F80B0000 		.4byte	.LASF89
 3471 0478 06       		.byte	0x6
 3472 0479 75       		.byte	0x75
 3473 047a A2000000 		.4byte	0xa2
 3474 047e A0       		.byte	0xa0
 3475 047f 0D       		.uleb128 0xd
 3476 0480 5A090000 		.4byte	.LASF90
 3477 0484 06       		.byte	0x6
 3478 0485 76       		.byte	0x76
 3479 0486 AD000000 		.4byte	0xad
 3480 048a A2       		.byte	0xa2
 3481 048b 0D       		.uleb128 0xd
 3482 048c 45040000 		.4byte	.LASF91
 3483 0490 06       		.byte	0x6
 3484 0491 77       		.byte	0x77
 3485 0492 AD000000 		.4byte	0xad
 3486 0496 A4       		.byte	0xa4
 3487 0497 0D       		.uleb128 0xd
ARM GAS  C:\Users\JENNEW~1\AppData\Local\Temp\ccTobH5m.s 			page 76


 3488 0498 84050000 		.4byte	.LASF92
 3489 049c 06       		.byte	0x6
 3490 049d 78       		.byte	0x78
 3491 049e D9000000 		.4byte	0xd9
 3492 04a2 A8       		.byte	0xa8
 3493 04a3 0D       		.uleb128 0xd
 3494 04a4 6F070000 		.4byte	.LASF93
 3495 04a8 06       		.byte	0x6
 3496 04a9 79       		.byte	0x79
 3497 04aa AD000000 		.4byte	0xad
 3498 04ae AC       		.byte	0xac
 3499 04af 0D       		.uleb128 0xd
 3500 04b0 1C0A0000 		.4byte	.LASF94
 3501 04b4 06       		.byte	0x6
 3502 04b5 7A       		.byte	0x7a
 3503 04b6 AD000000 		.4byte	0xad
 3504 04ba AE       		.byte	0xae
 3505 04bb 0D       		.uleb128 0xd
 3506 04bc 07060000 		.4byte	.LASF95
 3507 04c0 06       		.byte	0x6
 3508 04c1 7B       		.byte	0x7b
 3509 04c2 AD000000 		.4byte	0xad
 3510 04c6 B0       		.byte	0xb0
 3511 04c7 0D       		.uleb128 0xd
 3512 04c8 51010000 		.4byte	.LASF96
 3513 04cc 06       		.byte	0x6
 3514 04cd 7C       		.byte	0x7c
 3515 04ce D9000000 		.4byte	0xd9
 3516 04d2 B4       		.byte	0xb4
 3517 04d3 0D       		.uleb128 0xd
 3518 04d4 13020000 		.4byte	.LASF97
 3519 04d8 06       		.byte	0x6
 3520 04d9 7D       		.byte	0x7d
 3521 04da AD000000 		.4byte	0xad
 3522 04de B8       		.byte	0xb8
 3523 04df 0D       		.uleb128 0xd
 3524 04e0 A3030000 		.4byte	.LASF98
 3525 04e4 06       		.byte	0x6
 3526 04e5 80       		.byte	0x80
 3527 04e6 88050000 		.4byte	0x588
 3528 04ea BA       		.byte	0xba
 3529 04eb 0D       		.uleb128 0xd
 3530 04ec 11080000 		.4byte	.LASF99
 3531 04f0 06       		.byte	0x6
 3532 04f1 81       		.byte	0x81
 3533 04f2 D9000000 		.4byte	0xd9
 3534 04f6 BC       		.byte	0xbc
 3535 04f7 0D       		.uleb128 0xd
 3536 04f8 17080000 		.4byte	.LASF100
 3537 04fc 06       		.byte	0x6
 3538 04fd 82       		.byte	0x82
 3539 04fe D9000000 		.4byte	0xd9
 3540 0502 C0       		.byte	0xc0
 3541 0503 0D       		.uleb128 0xd
 3542 0504 1D080000 		.4byte	.LASF101
 3543 0508 06       		.byte	0x6
 3544 0509 83       		.byte	0x83
ARM GAS  C:\Users\JENNEW~1\AppData\Local\Temp\ccTobH5m.s 			page 77


 3545 050a D9000000 		.4byte	0xd9
 3546 050e C4       		.byte	0xc4
 3547 050f 0D       		.uleb128 0xd
 3548 0510 95030000 		.4byte	.LASF102
 3549 0514 06       		.byte	0x6
 3550 0515 84       		.byte	0x84
 3551 0516 D9000000 		.4byte	0xd9
 3552 051a C8       		.byte	0xc8
 3553 051b 0D       		.uleb128 0xd
 3554 051c C50B0000 		.4byte	.LASF103
 3555 0520 06       		.byte	0x6
 3556 0521 85       		.byte	0x85
 3557 0522 D9000000 		.4byte	0xd9
 3558 0526 CC       		.byte	0xcc
 3559 0527 0D       		.uleb128 0xd
 3560 0528 FA040000 		.4byte	.LASF104
 3561 052c 06       		.byte	0x6
 3562 052d 86       		.byte	0x86
 3563 052e D9000000 		.4byte	0xd9
 3564 0532 D0       		.byte	0xd0
 3565 0533 0D       		.uleb128 0xd
 3566 0534 04050000 		.4byte	.LASF105
 3567 0538 06       		.byte	0x6
 3568 0539 87       		.byte	0x87
 3569 053a D9000000 		.4byte	0xd9
 3570 053e D4       		.byte	0xd4
 3571 053f 0D       		.uleb128 0xd
 3572 0540 0E050000 		.4byte	.LASF106
 3573 0544 06       		.byte	0x6
 3574 0545 88       		.byte	0x88
 3575 0546 D9000000 		.4byte	0xd9
 3576 054a D8       		.byte	0xd8
 3577 054b 0D       		.uleb128 0xd
 3578 054c F00A0000 		.4byte	.LASF107
 3579 0550 06       		.byte	0x6
 3580 0551 89       		.byte	0x89
 3581 0552 D9000000 		.4byte	0xd9
 3582 0556 DC       		.byte	0xdc
 3583 0557 0D       		.uleb128 0xd
 3584 0558 39000000 		.4byte	.LASF108
 3585 055c 06       		.byte	0x6
 3586 055d 94       		.byte	0x94
 3587 055e 88050000 		.4byte	0x588
 3588 0562 E0       		.byte	0xe0
 3589 0563 0D       		.uleb128 0xd
 3590 0564 170C0000 		.4byte	.LASF109
 3591 0568 06       		.byte	0x6
 3592 0569 95       		.byte	0x95
 3593 056a 88050000 		.4byte	0x588
 3594 056e E1       		.byte	0xe1
 3595 056f 0D       		.uleb128 0xd
 3596 0570 B1050000 		.4byte	.LASF110
 3597 0574 06       		.byte	0x6
 3598 0575 96       		.byte	0x96
 3599 0576 D9000000 		.4byte	0xd9
 3600 057a E4       		.byte	0xe4
 3601 057b 0D       		.uleb128 0xd
ARM GAS  C:\Users\JENNEW~1\AppData\Local\Temp\ccTobH5m.s 			page 78


 3602 057c 37050000 		.4byte	.LASF111
 3603 0580 06       		.byte	0x6
 3604 0581 97       		.byte	0x97
 3605 0582 AD000000 		.4byte	0xad
 3606 0586 E8       		.byte	0xe8
 3607 0587 00       		.byte	0
 3608 0588 02       		.uleb128 0x2
 3609 0589 01       		.byte	0x1
 3610 058a 02       		.byte	0x2
 3611 058b 17030000 		.4byte	.LASF112
 3612 058f 03       		.uleb128 0x3
 3613 0590 9E050000 		.4byte	.LASF113
 3614 0594 06       		.byte	0x6
 3615 0595 99       		.byte	0x99
 3616 0596 1F020000 		.4byte	0x21f
 3617 059a 11       		.uleb128 0x11
 3618 059b 0601     		.2byte	0x106
 3619 059d 07       		.byte	0x7
 3620 059e 22       		.byte	0x22
 3621 059f D7050000 		.4byte	0x5d7
 3622 05a3 0C       		.uleb128 0xc
 3623 05a4 62756600 		.ascii	"buf\000"
 3624 05a8 07       		.byte	0x7
 3625 05a9 23       		.byte	0x23
 3626 05aa E7050000 		.4byte	0x5e7
 3627 05ae 00       		.byte	0
 3628 05af 12       		.uleb128 0x12
 3629 05b0 4B020000 		.4byte	.LASF114
 3630 05b4 07       		.byte	0x7
 3631 05b5 24       		.byte	0x24
 3632 05b6 13010000 		.4byte	0x113
 3633 05ba 0001     		.2byte	0x100
 3634 05bc 12       		.uleb128 0x12
 3635 05bd 6A000000 		.4byte	.LASF115
 3636 05c1 07       		.byte	0x7
 3637 05c2 25       		.byte	0x25
 3638 05c3 13010000 		.4byte	0x113
 3639 05c7 0201     		.2byte	0x102
 3640 05c9 12       		.uleb128 0x12
 3641 05ca 340A0000 		.4byte	.LASF116
 3642 05ce 07       		.byte	0x7
 3643 05cf 26       		.byte	0x26
 3644 05d0 13010000 		.4byte	0x113
 3645 05d4 0401     		.2byte	0x104
 3646 05d6 00       		.byte	0
 3647 05d7 13       		.uleb128 0x13
 3648 05d8 0E010000 		.4byte	0x10e
 3649 05dc E7050000 		.4byte	0x5e7
 3650 05e0 14       		.uleb128 0x14
 3651 05e1 F5000000 		.4byte	0xf5
 3652 05e5 FF       		.byte	0xff
 3653 05e6 00       		.byte	0
 3654 05e7 08       		.uleb128 0x8
 3655 05e8 D7050000 		.4byte	0x5d7
 3656 05ec 03       		.uleb128 0x3
 3657 05ed AD020000 		.4byte	.LASF117
 3658 05f1 07       		.byte	0x7
ARM GAS  C:\Users\JENNEW~1\AppData\Local\Temp\ccTobH5m.s 			page 79


 3659 05f2 27       		.byte	0x27
 3660 05f3 9A050000 		.4byte	0x59a
 3661 05f7 0B       		.uleb128 0xb
 3662 05f8 18       		.byte	0x18
 3663 05f9 08       		.byte	0x8
 3664 05fa 2F       		.byte	0x2f
 3665 05fb 54060000 		.4byte	0x654
 3666 05ff 0D       		.uleb128 0xd
 3667 0600 480B0000 		.4byte	.LASF118
 3668 0604 08       		.byte	0x8
 3669 0605 30       		.byte	0x30
 3670 0606 CE000000 		.4byte	0xce
 3671 060a 00       		.byte	0
 3672 060b 0D       		.uleb128 0xd
 3673 060c A0010000 		.4byte	.LASF119
 3674 0610 08       		.byte	0x8
 3675 0611 31       		.byte	0x31
 3676 0612 CE000000 		.4byte	0xce
 3677 0616 04       		.byte	0x4
 3678 0617 0D       		.uleb128 0xd
 3679 0618 E5020000 		.4byte	.LASF120
 3680 061c 08       		.byte	0x8
 3681 061d 32       		.byte	0x32
 3682 061e CE000000 		.4byte	0xce
 3683 0622 08       		.byte	0x8
 3684 0623 0D       		.uleb128 0xd
 3685 0624 8D070000 		.4byte	.LASF121
 3686 0628 08       		.byte	0x8
 3687 0629 33       		.byte	0x33
 3688 062a CE000000 		.4byte	0xce
 3689 062e 0C       		.byte	0xc
 3690 062f 0D       		.uleb128 0xd
 3691 0630 60040000 		.4byte	.LASF122
 3692 0634 08       		.byte	0x8
 3693 0635 34       		.byte	0x34
 3694 0636 CE000000 		.4byte	0xce
 3695 063a 10       		.byte	0x10
 3696 063b 0D       		.uleb128 0xd
 3697 063c A9010000 		.4byte	.LASF123
 3698 0640 08       		.byte	0x8
 3699 0641 35       		.byte	0x35
 3700 0642 B8000000 		.4byte	0xb8
 3701 0646 14       		.byte	0x14
 3702 0647 0D       		.uleb128 0xd
 3703 0648 87040000 		.4byte	.LASF124
 3704 064c 08       		.byte	0x8
 3705 064d 36       		.byte	0x36
 3706 064e A2000000 		.4byte	0xa2
 3707 0652 16       		.byte	0x16
 3708 0653 00       		.byte	0
 3709 0654 03       		.uleb128 0x3
 3710 0655 01040000 		.4byte	.LASF125
 3711 0659 08       		.byte	0x8
 3712 065a 37       		.byte	0x37
 3713 065b F7050000 		.4byte	0x5f7
 3714 065f 11       		.uleb128 0x11
 3715 0660 8003     		.2byte	0x380
ARM GAS  C:\Users\JENNEW~1\AppData\Local\Temp\ccTobH5m.s 			page 80


 3716 0662 08       		.byte	0x8
 3717 0663 3E       		.byte	0x3e
 3718 0664 1C070000 		.4byte	0x71c
 3719 0668 0C       		.uleb128 0xc
 3720 0669 68616C00 		.ascii	"hal\000"
 3721 066d 08       		.byte	0x8
 3722 066e 3F       		.byte	0x3f
 3723 066f 14020000 		.4byte	0x214
 3724 0673 00       		.byte	0
 3725 0674 0C       		.uleb128 0xc
 3726 0675 63746C00 		.ascii	"ctl\000"
 3727 0679 08       		.byte	0x8
 3728 067a 40       		.byte	0x40
 3729 067b B1010000 		.4byte	0x1b1
 3730 067f 0C       		.byte	0xc
 3731 0680 0D       		.uleb128 0xd
 3732 0681 87080000 		.4byte	.LASF126
 3733 0685 08       		.byte	0x8
 3734 0686 41       		.byte	0x41
 3735 0687 8F050000 		.4byte	0x58f
 3736 068b 20       		.byte	0x20
 3737 068c 12       		.uleb128 0x12
 3738 068d 0D0B0000 		.4byte	.LASF127
 3739 0691 08       		.byte	0x8
 3740 0692 42       		.byte	0x42
 3741 0693 54060000 		.4byte	0x654
 3742 0697 0C01     		.2byte	0x10c
 3743 0699 12       		.uleb128 0x12
 3744 069a C5060000 		.4byte	.LASF128
 3745 069e 08       		.byte	0x8
 3746 069f 43       		.byte	0x43
 3747 06a0 EC050000 		.4byte	0x5ec
 3748 06a4 2401     		.2byte	0x124
 3749 06a6 12       		.uleb128 0x12
 3750 06a7 26020000 		.4byte	.LASF129
 3751 06ab 08       		.byte	0x8
 3752 06ac 44       		.byte	0x44
 3753 06ad EC050000 		.4byte	0x5ec
 3754 06b1 2A02     		.2byte	0x22a
 3755 06b3 12       		.uleb128 0x12
 3756 06b4 E0040000 		.4byte	.LASF130
 3757 06b8 08       		.byte	0x8
 3758 06b9 48       		.byte	0x48
 3759 06ba A2000000 		.4byte	0xa2
 3760 06be 3003     		.2byte	0x330
 3761 06c0 12       		.uleb128 0x12
 3762 06c1 7B0B0000 		.4byte	.LASF131
 3763 06c5 08       		.byte	0x8
 3764 06c6 4C       		.byte	0x4c
 3765 06c7 B8000000 		.4byte	0xb8
 3766 06cb 3203     		.2byte	0x332
 3767 06cd 12       		.uleb128 0x12
 3768 06ce 89000000 		.4byte	.LASF132
 3769 06d2 08       		.byte	0x8
 3770 06d3 4D       		.byte	0x4d
 3771 06d4 CE000000 		.4byte	0xce
 3772 06d8 3403     		.2byte	0x334
ARM GAS  C:\Users\JENNEW~1\AppData\Local\Temp\ccTobH5m.s 			page 81


 3773 06da 12       		.uleb128 0x12
 3774 06db DA000000 		.4byte	.LASF133
 3775 06df 08       		.byte	0x8
 3776 06e0 4E       		.byte	0x4e
 3777 06e1 88050000 		.4byte	0x588
 3778 06e5 3803     		.2byte	0x338
 3779 06e7 12       		.uleb128 0x12
 3780 06e8 96040000 		.4byte	.LASF134
 3781 06ec 08       		.byte	0x8
 3782 06ed 4F       		.byte	0x4f
 3783 06ee B8000000 		.4byte	0xb8
 3784 06f2 3A03     		.2byte	0x33a
 3785 06f4 12       		.uleb128 0x12
 3786 06f5 070A0000 		.4byte	.LASF135
 3787 06f9 08       		.byte	0x8
 3788 06fa 50       		.byte	0x50
 3789 06fb B8000000 		.4byte	0xb8
 3790 06ff 3C03     		.2byte	0x33c
 3791 0701 12       		.uleb128 0x12
 3792 0702 03020000 		.4byte	.LASF136
 3793 0706 08       		.byte	0x8
 3794 0707 51       		.byte	0x51
 3795 0708 1C070000 		.4byte	0x71c
 3796 070c 3E03     		.2byte	0x33e
 3797 070e 12       		.uleb128 0x12
 3798 070f 46070000 		.4byte	.LASF137
 3799 0713 08       		.byte	0x8
 3800 0714 54       		.byte	0x54
 3801 0715 A2000000 		.4byte	0xa2
 3802 0719 7E03     		.2byte	0x37e
 3803 071b 00       		.byte	0
 3804 071c 13       		.uleb128 0x13
 3805 071d A2000000 		.4byte	0xa2
 3806 0721 2C070000 		.4byte	0x72c
 3807 0725 14       		.uleb128 0x14
 3808 0726 F5000000 		.4byte	0xf5
 3809 072a 3F       		.byte	0x3f
 3810 072b 00       		.byte	0
 3811 072c 03       		.uleb128 0x3
 3812 072d 00000000 		.4byte	.LASF138
 3813 0731 08       		.byte	0x8
 3814 0732 56       		.byte	0x56
 3815 0733 5F060000 		.4byte	0x65f
 3816 0737 09       		.uleb128 0x9
 3817 0738 01       		.byte	0x1
 3818 0739 37000000 		.4byte	0x37
 3819 073d 09       		.byte	0x9
 3820 073e 38       		.byte	0x38
 3821 073f 56070000 		.4byte	0x756
 3822 0743 0A       		.uleb128 0xa
 3823 0744 FD050000 		.4byte	.LASF139
 3824 0748 00       		.byte	0
 3825 0749 0A       		.uleb128 0xa
 3826 074a C7030000 		.4byte	.LASF140
 3827 074e 01       		.byte	0x1
 3828 074f 0A       		.uleb128 0xa
 3829 0750 06080000 		.4byte	.LASF141
ARM GAS  C:\Users\JENNEW~1\AppData\Local\Temp\ccTobH5m.s 			page 82


 3830 0754 02       		.byte	0x2
 3831 0755 00       		.byte	0
 3832 0756 03       		.uleb128 0x3
 3833 0757 2F080000 		.4byte	.LASF142
 3834 075b 09       		.byte	0x9
 3835 075c 3C       		.byte	0x3c
 3836 075d 37070000 		.4byte	0x737
 3837 0761 0B       		.uleb128 0xb
 3838 0762 08       		.byte	0x8
 3839 0763 09       		.byte	0x9
 3840 0764 50       		.byte	0x50
 3841 0765 74070000 		.4byte	0x774
 3842 0769 0C       		.uleb128 0xc
 3843 076a 7500     		.ascii	"u\000"
 3844 076c 09       		.byte	0x9
 3845 076d 51       		.byte	0x51
 3846 076e 74070000 		.4byte	0x774
 3847 0772 00       		.byte	0
 3848 0773 00       		.byte	0
 3849 0774 13       		.uleb128 0x13
 3850 0775 D9000000 		.4byte	0xd9
 3851 0779 84070000 		.4byte	0x784
 3852 077d 14       		.uleb128 0x14
 3853 077e F5000000 		.4byte	0xf5
 3854 0782 01       		.byte	0x1
 3855 0783 00       		.byte	0
 3856 0784 03       		.uleb128 0x3
 3857 0785 FB0C0000 		.4byte	.LASF143
 3858 0789 09       		.byte	0x9
 3859 078a 52       		.byte	0x52
 3860 078b 61070000 		.4byte	0x761
 3861 078f 09       		.uleb128 0x9
 3862 0790 01       		.byte	0x1
 3863 0791 37000000 		.4byte	0x37
 3864 0795 0A       		.byte	0xa
 3865 0796 27       		.byte	0x27
 3866 0797 02080000 		.4byte	0x802
 3867 079b 0A       		.uleb128 0xa
 3868 079c 99000000 		.4byte	.LASF144
 3869 07a0 00       		.byte	0
 3870 07a1 0A       		.uleb128 0xa
 3871 07a2 700C0000 		.4byte	.LASF145
 3872 07a6 01       		.byte	0x1
 3873 07a7 0A       		.uleb128 0xa
 3874 07a8 A0080000 		.4byte	.LASF146
 3875 07ac 02       		.byte	0x2
 3876 07ad 0A       		.uleb128 0xa
 3877 07ae BD0A0000 		.4byte	.LASF147
 3878 07b2 03       		.byte	0x3
 3879 07b3 0A       		.uleb128 0xa
 3880 07b4 C5050000 		.4byte	.LASF148
 3881 07b8 04       		.byte	0x4
 3882 07b9 0A       		.uleb128 0xa
 3883 07ba DB070000 		.4byte	.LASF149
 3884 07be 05       		.byte	0x5
 3885 07bf 0A       		.uleb128 0xa
 3886 07c0 03030000 		.4byte	.LASF150
ARM GAS  C:\Users\JENNEW~1\AppData\Local\Temp\ccTobH5m.s 			page 83


 3887 07c4 06       		.byte	0x6
 3888 07c5 0A       		.uleb128 0xa
 3889 07c6 6F090000 		.4byte	.LASF151
 3890 07ca 07       		.byte	0x7
 3891 07cb 0A       		.uleb128 0xa
 3892 07cc 5F000000 		.4byte	.LASF152
 3893 07d0 08       		.byte	0x8
 3894 07d1 0A       		.uleb128 0xa
 3895 07d2 7F000000 		.4byte	.LASF153
 3896 07d6 09       		.byte	0x9
 3897 07d7 0A       		.uleb128 0xa
 3898 07d8 F6010000 		.4byte	.LASF154
 3899 07dc 0A       		.byte	0xa
 3900 07dd 0A       		.uleb128 0xa
 3901 07de C4080000 		.4byte	.LASF155
 3902 07e2 0B       		.byte	0xb
 3903 07e3 0A       		.uleb128 0xa
 3904 07e4 36010000 		.4byte	.LASF156
 3905 07e8 0C       		.byte	0xc
 3906 07e9 0A       		.uleb128 0xa
 3907 07ea 0D030000 		.4byte	.LASF157
 3908 07ee 0D       		.byte	0xd
 3909 07ef 0A       		.uleb128 0xa
 3910 07f0 D8020000 		.4byte	.LASF158
 3911 07f4 0E       		.byte	0xe
 3912 07f5 0A       		.uleb128 0xa
 3913 07f6 2E0B0000 		.4byte	.LASF159
 3914 07fa 0F       		.byte	0xf
 3915 07fb 0A       		.uleb128 0xa
 3916 07fc CB060000 		.4byte	.LASF160
 3917 0800 10       		.byte	0x10
 3918 0801 00       		.byte	0
 3919 0802 03       		.uleb128 0x3
 3920 0803 E60B0000 		.4byte	.LASF161
 3921 0807 0A       		.byte	0xa
 3922 0808 37       		.byte	0x37
 3923 0809 8F070000 		.4byte	0x78f
 3924 080d 09       		.uleb128 0x9
 3925 080e 01       		.byte	0x1
 3926 080f 37000000 		.4byte	0x37
 3927 0813 0A       		.byte	0xa
 3928 0814 3F       		.byte	0x3f
 3929 0815 32080000 		.4byte	0x832
 3930 0819 0A       		.uleb128 0xa
 3931 081a D7040000 		.4byte	.LASF162
 3932 081e 00       		.byte	0
 3933 081f 0A       		.uleb128 0xa
 3934 0820 50020000 		.4byte	.LASF163
 3935 0824 01       		.byte	0x1
 3936 0825 0A       		.uleb128 0xa
 3937 0826 44010000 		.4byte	.LASF164
 3938 082a 02       		.byte	0x2
 3939 082b 0A       		.uleb128 0xa
 3940 082c 8E090000 		.4byte	.LASF165
 3941 0830 03       		.byte	0x3
 3942 0831 00       		.byte	0
 3943 0832 03       		.uleb128 0x3
ARM GAS  C:\Users\JENNEW~1\AppData\Local\Temp\ccTobH5m.s 			page 84


 3944 0833 C2000000 		.4byte	.LASF166
 3945 0837 0A       		.byte	0xa
 3946 0838 44       		.byte	0x44
 3947 0839 0D080000 		.4byte	0x80d
 3948 083d 0B       		.uleb128 0xb
 3949 083e 5C       		.byte	0x5c
 3950 083f 0A       		.byte	0xa
 3951 0840 47       		.byte	0x47
 3952 0841 72090000 		.4byte	0x972
 3953 0845 0D       		.uleb128 0xd
 3954 0846 9F020000 		.4byte	.LASF167
 3955 084a 0A       		.byte	0xa
 3956 084b 49       		.byte	0x49
 3957 084c 72090000 		.4byte	0x972
 3958 0850 00       		.byte	0
 3959 0851 0D       		.uleb128 0xd
 3960 0852 13010000 		.4byte	.LASF168
 3961 0856 0A       		.byte	0xa
 3962 0857 4C       		.byte	0x4c
 3963 0858 02080000 		.4byte	0x802
 3964 085c 04       		.byte	0x4
 3965 085d 0D       		.uleb128 0xd
 3966 085e 8C020000 		.4byte	.LASF169
 3967 0862 0A       		.byte	0xa
 3968 0863 4D       		.byte	0x4d
 3969 0864 02080000 		.4byte	0x802
 3970 0868 05       		.byte	0x5
 3971 0869 0D       		.uleb128 0xd
 3972 086a 2F050000 		.4byte	.LASF170
 3973 086e 0A       		.byte	0xa
 3974 086f 50       		.byte	0x50
 3975 0870 32080000 		.4byte	0x832
 3976 0874 06       		.byte	0x6
 3977 0875 0D       		.uleb128 0xd
 3978 0876 86090000 		.4byte	.LASF171
 3979 087a 0A       		.byte	0xa
 3980 087b 51       		.byte	0x51
 3981 087c FE000000 		.4byte	0xfe
 3982 0880 08       		.byte	0x8
 3983 0881 0D       		.uleb128 0xd
 3984 0882 61070000 		.4byte	.LASF172
 3985 0886 0A       		.byte	0xa
 3986 0887 52       		.byte	0x52
 3987 0888 A2000000 		.4byte	0xa2
 3988 088c 0C       		.byte	0xc
 3989 088d 0D       		.uleb128 0xd
 3990 088e 09010000 		.4byte	.LASF173
 3991 0892 0A       		.byte	0xa
 3992 0893 55       		.byte	0x55
 3993 0894 3D010000 		.4byte	0x13d
 3994 0898 0D       		.byte	0xd
 3995 0899 0D       		.uleb128 0xd
 3996 089a 080C0000 		.4byte	.LASF174
 3997 089e 0A       		.byte	0xa
 3998 089f 58       		.byte	0x58
 3999 08a0 D9000000 		.4byte	0xd9
 4000 08a4 10       		.byte	0x10
ARM GAS  C:\Users\JENNEW~1\AppData\Local\Temp\ccTobH5m.s 			page 85


 4001 08a5 0D       		.uleb128 0xd
 4002 08a6 850A0000 		.4byte	.LASF175
 4003 08aa 0A       		.byte	0xa
 4004 08ab 59       		.byte	0x59
 4005 08ac D9000000 		.4byte	0xd9
 4006 08b0 14       		.byte	0x14
 4007 08b1 0D       		.uleb128 0xd
 4008 08b2 950A0000 		.4byte	.LASF176
 4009 08b6 0A       		.byte	0xa
 4010 08b7 5C       		.byte	0x5c
 4011 08b8 D9000000 		.4byte	0xd9
 4012 08bc 18       		.byte	0x18
 4013 08bd 0D       		.uleb128 0xd
 4014 08be C7040000 		.4byte	.LASF177
 4015 08c2 0A       		.byte	0xa
 4016 08c3 5D       		.byte	0x5d
 4017 08c4 D9000000 		.4byte	0xd9
 4018 08c8 1C       		.byte	0x1c
 4019 08c9 0D       		.uleb128 0xd
 4020 08ca DE010000 		.4byte	.LASF178
 4021 08ce 0A       		.byte	0xa
 4022 08cf 5E       		.byte	0x5e
 4023 08d0 A2000000 		.4byte	0xa2
 4024 08d4 20       		.byte	0x20
 4025 08d5 0D       		.uleb128 0xd
 4026 08d6 18050000 		.4byte	.LASF179
 4027 08da 0A       		.byte	0xa
 4028 08db 61       		.byte	0x61
 4029 08dc CE000000 		.4byte	0xce
 4030 08e0 24       		.byte	0x24
 4031 08e1 0D       		.uleb128 0xd
 4032 08e2 3B0B0000 		.4byte	.LASF180
 4033 08e6 0A       		.byte	0xa
 4034 08e7 62       		.byte	0x62
 4035 08e8 CE000000 		.4byte	0xce
 4036 08ec 28       		.byte	0x28
 4037 08ed 0D       		.uleb128 0xd
 4038 08ee A40A0000 		.4byte	.LASF181
 4039 08f2 0A       		.byte	0xa
 4040 08f3 63       		.byte	0x63
 4041 08f4 CE000000 		.4byte	0xce
 4042 08f8 2C       		.byte	0x2c
 4043 08f9 0D       		.uleb128 0xd
 4044 08fa BE090000 		.4byte	.LASF182
 4045 08fe 0A       		.byte	0xa
 4046 08ff 64       		.byte	0x64
 4047 0900 A2000000 		.4byte	0xa2
 4048 0904 30       		.byte	0x30
 4049 0905 0C       		.uleb128 0xc
 4050 0906 636D6400 		.ascii	"cmd\000"
 4051 090a 0A       		.byte	0xa
 4052 090b 67       		.byte	0x67
 4053 090c 84070000 		.4byte	0x784
 4054 0910 34       		.byte	0x34
 4055 0911 0D       		.uleb128 0xd
 4056 0912 19010000 		.4byte	.LASF183
 4057 0916 0A       		.byte	0xa
ARM GAS  C:\Users\JENNEW~1\AppData\Local\Temp\ccTobH5m.s 			page 86


 4058 0917 68       		.byte	0x68
 4059 0918 56070000 		.4byte	0x756
 4060 091c 3C       		.byte	0x3c
 4061 091d 0D       		.uleb128 0xd
 4062 091e 98090000 		.4byte	.LASF184
 4063 0922 0A       		.byte	0xa
 4064 0923 69       		.byte	0x69
 4065 0924 CE000000 		.4byte	0xce
 4066 0928 40       		.byte	0x40
 4067 0929 0D       		.uleb128 0xd
 4068 092a 050D0000 		.4byte	.LASF185
 4069 092e 0A       		.byte	0xa
 4070 092f 6C       		.byte	0x6c
 4071 0930 A2000000 		.4byte	0xa2
 4072 0934 44       		.byte	0x44
 4073 0935 0D       		.uleb128 0xd
 4074 0936 91080000 		.4byte	.LASF186
 4075 093a 0A       		.byte	0xa
 4076 093b 6D       		.byte	0x6d
 4077 093c CE000000 		.4byte	0xce
 4078 0940 48       		.byte	0x48
 4079 0941 0D       		.uleb128 0xd
 4080 0942 F0020000 		.4byte	.LASF187
 4081 0946 0A       		.byte	0xa
 4082 0947 6E       		.byte	0x6e
 4083 0948 D9000000 		.4byte	0xd9
 4084 094c 4C       		.byte	0x4c
 4085 094d 0D       		.uleb128 0xd
 4086 094e 450C0000 		.4byte	.LASF188
 4087 0952 0A       		.byte	0xa
 4088 0953 6F       		.byte	0x6f
 4089 0954 D9000000 		.4byte	0xd9
 4090 0958 50       		.byte	0x50
 4091 0959 0D       		.uleb128 0xd
 4092 095a E1050000 		.4byte	.LASF189
 4093 095e 0A       		.byte	0xa
 4094 095f 70       		.byte	0x70
 4095 0960 D9000000 		.4byte	0xd9
 4096 0964 54       		.byte	0x54
 4097 0965 0D       		.uleb128 0xd
 4098 0966 650B0000 		.4byte	.LASF190
 4099 096a 0A       		.byte	0xa
 4100 096b 71       		.byte	0x71
 4101 096c D9000000 		.4byte	0xd9
 4102 0970 58       		.byte	0x58
 4103 0971 00       		.byte	0
 4104 0972 06       		.uleb128 0x6
 4105 0973 04       		.byte	0x4
 4106 0974 2C070000 		.4byte	0x72c
 4107 0978 03       		.uleb128 0x3
 4108 0979 29030000 		.4byte	.LASF191
 4109 097d 0A       		.byte	0xa
 4110 097e 74       		.byte	0x74
 4111 097f 3D080000 		.4byte	0x83d
 4112 0983 0B       		.uleb128 0xb
 4113 0984 0C       		.byte	0xc
 4114 0985 0B       		.byte	0xb
ARM GAS  C:\Users\JENNEW~1\AppData\Local\Temp\ccTobH5m.s 			page 87


 4115 0986 33       		.byte	0x33
 4116 0987 C6090000 		.4byte	0x9c6
 4117 098b 0D       		.uleb128 0xd
 4118 098c 2F0A0000 		.4byte	.LASF192
 4119 0990 0B       		.byte	0xb
 4120 0991 34       		.byte	0x34
 4121 0992 CE000000 		.4byte	0xce
 4122 0996 00       		.byte	0
 4123 0997 0C       		.uleb128 0xc
 4124 0998 637800   		.ascii	"cx\000"
 4125 099b 0B       		.byte	0xb
 4126 099c 35       		.byte	0x35
 4127 099d AD000000 		.4byte	0xad
 4128 09a1 04       		.byte	0x4
 4129 09a2 0C       		.uleb128 0xc
 4130 09a3 637900   		.ascii	"cy\000"
 4131 09a6 0B       		.byte	0xb
 4132 09a7 35       		.byte	0x35
 4133 09a8 AD000000 		.4byte	0xad
 4134 09ac 06       		.byte	0x6
 4135 09ad 0D       		.uleb128 0xd
 4136 09ae 100D0000 		.4byte	.LASF193
 4137 09b2 0B       		.byte	0xb
 4138 09b3 36       		.byte	0x36
 4139 09b4 B8000000 		.4byte	0xb8
 4140 09b8 08       		.byte	0x8
 4141 09b9 0D       		.uleb128 0xd
 4142 09ba 98050000 		.4byte	.LASF194
 4143 09be 0B       		.byte	0xb
 4144 09bf 36       		.byte	0x36
 4145 09c0 B8000000 		.4byte	0xb8
 4146 09c4 0A       		.byte	0xa
 4147 09c5 00       		.byte	0
 4148 09c6 03       		.uleb128 0x3
 4149 09c7 C8070000 		.4byte	.LASF195
 4150 09cb 0B       		.byte	0xb
 4151 09cc 37       		.byte	0x37
 4152 09cd 83090000 		.4byte	0x983
 4153 09d1 03       		.uleb128 0x3
 4154 09d2 590C0000 		.4byte	.LASF196
 4155 09d6 01       		.byte	0x1
 4156 09d7 53       		.byte	0x53
 4157 09d8 DC090000 		.4byte	0x9dc
 4158 09dc 06       		.uleb128 0x6
 4159 09dd 04       		.byte	0x4
 4160 09de E2090000 		.4byte	0x9e2
 4161 09e2 0E       		.uleb128 0xe
 4162 09e3 ED090000 		.4byte	0x9ed
 4163 09e7 0F       		.uleb128 0xf
 4164 09e8 ED090000 		.4byte	0x9ed
 4165 09ec 00       		.byte	0
 4166 09ed 06       		.uleb128 0x6
 4167 09ee 04       		.byte	0x4
 4168 09ef 78090000 		.4byte	0x978
 4169 09f3 03       		.uleb128 0x3
 4170 09f4 A7070000 		.4byte	.LASF197
 4171 09f8 01       		.byte	0x1
ARM GAS  C:\Users\JENNEW~1\AppData\Local\Temp\ccTobH5m.s 			page 88


 4172 09f9 54       		.byte	0x54
 4173 09fa FE090000 		.4byte	0x9fe
 4174 09fe 06       		.uleb128 0x6
 4175 09ff 04       		.byte	0x4
 4176 0a00 040A0000 		.4byte	0xa04
 4177 0a04 10       		.uleb128 0x10
 4178 0a05 A2000000 		.4byte	0xa2
 4179 0a09 180A0000 		.4byte	0xa18
 4180 0a0d 0F       		.uleb128 0xf
 4181 0a0e ED090000 		.4byte	0x9ed
 4182 0a12 0F       		.uleb128 0xf
 4183 0a13 E7000000 		.4byte	0xe7
 4184 0a17 00       		.byte	0
 4185 0a18 03       		.uleb128 0x3
 4186 0a19 D4080000 		.4byte	.LASF198
 4187 0a1d 01       		.byte	0x1
 4188 0a1e 55       		.byte	0x55
 4189 0a1f 230A0000 		.4byte	0xa23
 4190 0a23 06       		.uleb128 0x6
 4191 0a24 04       		.byte	0x4
 4192 0a25 290A0000 		.4byte	0xa29
 4193 0a29 0E       		.uleb128 0xe
 4194 0a2a 390A0000 		.4byte	0xa39
 4195 0a2e 0F       		.uleb128 0xf
 4196 0a2f 390A0000 		.4byte	0xa39
 4197 0a33 0F       		.uleb128 0xf
 4198 0a34 440A0000 		.4byte	0xa44
 4199 0a38 00       		.byte	0
 4200 0a39 06       		.uleb128 0x6
 4201 0a3a 04       		.byte	0x4
 4202 0a3b 3F0A0000 		.4byte	0xa3f
 4203 0a3f 07       		.uleb128 0x7
 4204 0a40 78090000 		.4byte	0x978
 4205 0a44 06       		.uleb128 0x6
 4206 0a45 04       		.byte	0x4
 4207 0a46 B1010000 		.4byte	0x1b1
 4208 0a4a 15       		.uleb128 0x15
 4209 0a4b DC0A0000 		.4byte	.LASF199
 4210 0a4f 01       		.byte	0x1
 4211 0a50 B0       		.byte	0xb0
 4212 0a51 A2000000 		.4byte	0xa2
 4213 0a55 00000000 		.4byte	.LFB64
 4214 0a59 34000000 		.4byte	.LFE64-.LFB64
 4215 0a5d 01       		.uleb128 0x1
 4216 0a5e 9C       		.byte	0x9c
 4217 0a5f 7C0A0000 		.4byte	0xa7c
 4218 0a63 16       		.uleb128 0x16
 4219 0a64 7300     		.ascii	"s\000"
 4220 0a66 01       		.byte	0x1
 4221 0a67 B0       		.byte	0xb0
 4222 0a68 02080000 		.4byte	0x802
 4223 0a6c 02       		.uleb128 0x2
 4224 0a6d 91       		.byte	0x91
 4225 0a6e 6F       		.sleb128 -17
 4226 0a6f 17       		.uleb128 0x17
 4227 0a70 6400     		.ascii	"d\000"
 4228 0a72 01       		.byte	0x1
ARM GAS  C:\Users\JENNEW~1\AppData\Local\Temp\ccTobH5m.s 			page 89


 4229 0a73 B2       		.byte	0xb2
 4230 0a74 A2000000 		.4byte	0xa2
 4231 0a78 02       		.uleb128 0x2
 4232 0a79 91       		.byte	0x91
 4233 0a7a 77       		.sleb128 -9
 4234 0a7b 00       		.byte	0
 4235 0a7c 18       		.uleb128 0x18
 4236 0a7d 6C636100 		.ascii	"lca\000"
 4237 0a81 01       		.byte	0x1
 4238 0a82 B7       		.byte	0xb7
 4239 0a83 02080000 		.4byte	0x802
 4240 0a87 00000000 		.4byte	.LFB65
 4241 0a8b 80000000 		.4byte	.LFE65-.LFB65
 4242 0a8f 01       		.uleb128 0x1
 4243 0a90 9C       		.byte	0x9c
 4244 0a91 C80A0000 		.4byte	0xac8
 4245 0a95 16       		.uleb128 0x16
 4246 0a96 6100     		.ascii	"a\000"
 4247 0a98 01       		.byte	0x1
 4248 0a99 B7       		.byte	0xb7
 4249 0a9a 02080000 		.4byte	0x802
 4250 0a9e 02       		.uleb128 0x2
 4251 0a9f 91       		.byte	0x91
 4252 0aa0 6F       		.sleb128 -17
 4253 0aa1 16       		.uleb128 0x16
 4254 0aa2 6200     		.ascii	"b\000"
 4255 0aa4 01       		.byte	0x1
 4256 0aa5 B7       		.byte	0xb7
 4257 0aa6 02080000 		.4byte	0x802
 4258 0aaa 02       		.uleb128 0x2
 4259 0aab 91       		.byte	0x91
 4260 0aac 6E       		.sleb128 -18
 4261 0aad 17       		.uleb128 0x17
 4262 0aae 646100   		.ascii	"da\000"
 4263 0ab1 01       		.byte	0x1
 4264 0ab2 B9       		.byte	0xb9
 4265 0ab3 A2000000 		.4byte	0xa2
 4266 0ab7 02       		.uleb128 0x2
 4267 0ab8 91       		.byte	0x91
 4268 0ab9 77       		.sleb128 -9
 4269 0aba 17       		.uleb128 0x17
 4270 0abb 646200   		.ascii	"db\000"
 4271 0abe 01       		.byte	0x1
 4272 0abf B9       		.byte	0xb9
 4273 0ac0 A2000000 		.4byte	0xa2
 4274 0ac4 02       		.uleb128 0x2
 4275 0ac5 91       		.byte	0x91
 4276 0ac6 76       		.sleb128 -10
 4277 0ac7 00       		.byte	0
 4278 0ac8 19       		.uleb128 0x19
 4279 0ac9 2E000000 		.4byte	.LASF208
 4280 0acd 01       		.byte	0x1
 4281 0ace C7       		.byte	0xc7
 4282 0acf 00000000 		.4byte	.LFB66
 4283 0ad3 F0000000 		.4byte	.LFE66-.LFB66
 4284 0ad7 01       		.uleb128 0x1
 4285 0ad8 9C       		.byte	0x9c
ARM GAS  C:\Users\JENNEW~1\AppData\Local\Temp\ccTobH5m.s 			page 90


 4286 0ad9 600B0000 		.4byte	0xb60
 4287 0add 16       		.uleb128 0x16
 4288 0ade 63747800 		.ascii	"ctx\000"
 4289 0ae2 01       		.byte	0x1
 4290 0ae3 C7       		.byte	0xc7
 4291 0ae4 ED090000 		.4byte	0x9ed
 4292 0ae8 02       		.uleb128 0x2
 4293 0ae9 91       		.byte	0x91
 4294 0aea 64       		.sleb128 -28
 4295 0aeb 1A       		.uleb128 0x1a
 4296 0aec 72050000 		.4byte	.LASF200
 4297 0af0 01       		.byte	0x1
 4298 0af1 C7       		.byte	0xc7
 4299 0af2 02080000 		.4byte	0x802
 4300 0af6 02       		.uleb128 0x2
 4301 0af7 91       		.byte	0x91
 4302 0af8 63       		.sleb128 -29
 4303 0af9 17       		.uleb128 0x17
 4304 0afa 73726300 		.ascii	"src\000"
 4305 0afe 01       		.byte	0x1
 4306 0aff CA       		.byte	0xca
 4307 0b00 02080000 		.4byte	0x802
 4308 0b04 02       		.uleb128 0x2
 4309 0b05 91       		.byte	0x91
 4310 0b06 74       		.sleb128 -12
 4311 0b07 1B       		.uleb128 0x1b
 4312 0b08 44020000 		.4byte	.LASF201
 4313 0b0c 01       		.byte	0x1
 4314 0b0d CE       		.byte	0xce
 4315 0b0e 02080000 		.4byte	0x802
 4316 0b12 02       		.uleb128 0x2
 4317 0b13 91       		.byte	0x91
 4318 0b14 73       		.sleb128 -13
 4319 0b15 1B       		.uleb128 0x1b
 4320 0b16 A6000000 		.4byte	.LASF202
 4321 0b1a 01       		.byte	0x1
 4322 0b1b D9       		.byte	0xd9
 4323 0b1c 600B0000 		.4byte	0xb60
 4324 0b20 02       		.uleb128 0x2
 4325 0b21 91       		.byte	0x91
 4326 0b22 6C       		.sleb128 -20
 4327 0b23 17       		.uleb128 0x17
 4328 0b24 6E00     		.ascii	"n\000"
 4329 0b26 01       		.byte	0x1
 4330 0b27 DA       		.byte	0xda
 4331 0b28 A2000000 		.4byte	0xa2
 4332 0b2c 02       		.uleb128 0x2
 4333 0b2d 91       		.byte	0x91
 4334 0b2e 76       		.sleb128 -10
 4335 0b2f 1C       		.uleb128 0x1c
 4336 0b30 2A000000 		.4byte	.LBB2
 4337 0b34 2E000000 		.4byte	.LBE2-.LBB2
 4338 0b38 490B0000 		.4byte	0xb49
 4339 0b3c 17       		.uleb128 0x17
 4340 0b3d 7300     		.ascii	"s\000"
 4341 0b3f 01       		.byte	0x1
 4342 0b40 D2       		.byte	0xd2
ARM GAS  C:\Users\JENNEW~1\AppData\Local\Temp\ccTobH5m.s 			page 91


 4343 0b41 02080000 		.4byte	0x802
 4344 0b45 02       		.uleb128 0x2
 4345 0b46 91       		.byte	0x91
 4346 0b47 77       		.sleb128 -9
 4347 0b48 00       		.byte	0
 4348 0b49 1D       		.uleb128 0x1d
 4349 0b4a 62000000 		.4byte	.LBB3
 4350 0b4e 28000000 		.4byte	.LBE3-.LBB3
 4351 0b52 17       		.uleb128 0x17
 4352 0b53 7300     		.ascii	"s\000"
 4353 0b55 01       		.byte	0x1
 4354 0b56 DB       		.byte	0xdb
 4355 0b57 02080000 		.4byte	0x802
 4356 0b5b 02       		.uleb128 0x2
 4357 0b5c 91       		.byte	0x91
 4358 0b5d 75       		.sleb128 -11
 4359 0b5e 00       		.byte	0
 4360 0b5f 00       		.byte	0
 4361 0b60 13       		.uleb128 0x13
 4362 0b61 02080000 		.4byte	0x802
 4363 0b65 700B0000 		.4byte	0xb70
 4364 0b69 14       		.uleb128 0x14
 4365 0b6a F5000000 		.4byte	0xf5
 4366 0b6e 03       		.byte	0x3
 4367 0b6f 00       		.byte	0
 4368 0b70 1E       		.uleb128 0x1e
 4369 0b71 3A0A0000 		.4byte	.LASF203
 4370 0b75 01       		.byte	0x1
 4371 0b76 E8       		.byte	0xe8
 4372 0b77 00000000 		.4byte	.LFB67
 4373 0b7b 26000000 		.4byte	.LFE67-.LFB67
 4374 0b7f 01       		.uleb128 0x1
 4375 0b80 9C       		.byte	0x9c
 4376 0b81 A20B0000 		.4byte	0xba2
 4377 0b85 16       		.uleb128 0x16
 4378 0b86 63747800 		.ascii	"ctx\000"
 4379 0b8a 01       		.byte	0x1
 4380 0b8b E8       		.byte	0xe8
 4381 0b8c ED090000 		.4byte	0x9ed
 4382 0b90 02       		.uleb128 0x2
 4383 0b91 91       		.byte	0x91
 4384 0b92 6C       		.sleb128 -20
 4385 0b93 1B       		.uleb128 0x1b
 4386 0b94 72050000 		.4byte	.LASF200
 4387 0b98 01       		.byte	0x1
 4388 0b99 EB       		.byte	0xeb
 4389 0b9a 02080000 		.4byte	0x802
 4390 0b9e 02       		.uleb128 0x2
 4391 0b9f 91       		.byte	0x91
 4392 0ba0 77       		.sleb128 -9
 4393 0ba1 00       		.byte	0
 4394 0ba2 1E       		.uleb128 0x1e
 4395 0ba3 EA040000 		.4byte	.LASF204
 4396 0ba7 01       		.byte	0x1
 4397 0ba8 F1       		.byte	0xf1
 4398 0ba9 00000000 		.4byte	.LFB68
 4399 0bad 68000000 		.4byte	.LFE68-.LFB68
ARM GAS  C:\Users\JENNEW~1\AppData\Local\Temp\ccTobH5m.s 			page 92


 4400 0bb1 01       		.uleb128 0x1
 4401 0bb2 9C       		.byte	0x9c
 4402 0bb3 E20B0000 		.4byte	0xbe2
 4403 0bb7 16       		.uleb128 0x16
 4404 0bb8 63747800 		.ascii	"ctx\000"
 4405 0bbc 01       		.byte	0x1
 4406 0bbd F1       		.byte	0xf1
 4407 0bbe ED090000 		.4byte	0x9ed
 4408 0bc2 02       		.uleb128 0x2
 4409 0bc3 91       		.byte	0x91
 4410 0bc4 74       		.sleb128 -12
 4411 0bc5 16       		.uleb128 0x16
 4412 0bc6 73657600 		.ascii	"sev\000"
 4413 0bca 01       		.byte	0x1
 4414 0bcb F1       		.byte	0xf1
 4415 0bcc 32080000 		.4byte	0x832
 4416 0bd0 02       		.uleb128 0x2
 4417 0bd1 91       		.byte	0x91
 4418 0bd2 73       		.sleb128 -13
 4419 0bd3 16       		.uleb128 0x16
 4420 0bd4 6D736700 		.ascii	"msg\000"
 4421 0bd8 01       		.byte	0x1
 4422 0bd9 F1       		.byte	0xf1
 4423 0bda FE000000 		.4byte	0xfe
 4424 0bde 02       		.uleb128 0x2
 4425 0bdf 91       		.byte	0x91
 4426 0be0 6C       		.sleb128 -20
 4427 0be1 00       		.byte	0
 4428 0be2 1F       		.uleb128 0x1f
 4429 0be3 AB000000 		.4byte	.LASF228
 4430 0be7 01       		.byte	0x1
 4431 0be8 1701     		.2byte	0x117
 4432 0bea FE000000 		.4byte	0xfe
 4433 0bee 00000000 		.4byte	.LFB69
 4434 0bf2 20000000 		.4byte	.LFE69-.LFB69
 4435 0bf6 01       		.uleb128 0x1
 4436 0bf7 9C       		.byte	0x9c
 4437 0bf8 0A0C0000 		.4byte	0xc0a
 4438 0bfc 20       		.uleb128 0x20
 4439 0bfd 7300     		.ascii	"s\000"
 4440 0bff 01       		.byte	0x1
 4441 0c00 1701     		.2byte	0x117
 4442 0c02 02080000 		.4byte	0x802
 4443 0c06 02       		.uleb128 0x2
 4444 0c07 91       		.byte	0x91
 4445 0c08 77       		.sleb128 -9
 4446 0c09 00       		.byte	0
 4447 0c0a 21       		.uleb128 0x21
 4448 0c0b 50000000 		.4byte	.LASF205
 4449 0c0f 01       		.byte	0x1
 4450 0c10 1A01     		.2byte	0x11a
 4451 0c12 00000000 		.4byte	.LFB70
 4452 0c16 80000000 		.4byte	.LFE70-.LFB70
 4453 0c1a 01       		.uleb128 0x1
 4454 0c1b 9C       		.byte	0x9c
 4455 0c1c 540C0000 		.4byte	0xc54
 4456 0c20 20       		.uleb128 0x20
ARM GAS  C:\Users\JENNEW~1\AppData\Local\Temp\ccTobH5m.s 			page 93


 4457 0c21 63747800 		.ascii	"ctx\000"
 4458 0c25 01       		.byte	0x1
 4459 0c26 1A01     		.2byte	0x11a
 4460 0c28 ED090000 		.4byte	0x9ed
 4461 0c2c 02       		.uleb128 0x2
 4462 0c2d 91       		.byte	0x91
 4463 0c2e 74       		.sleb128 -12
 4464 0c2f 22       		.uleb128 0x22
 4465 0c30 4E0A0000 		.4byte	.LASF206
 4466 0c34 01       		.byte	0x1
 4467 0c35 1F01     		.2byte	0x11f
 4468 0c37 CE000000 		.4byte	0xce
 4469 0c3b 05       		.uleb128 0x5
 4470 0c3c 03       		.byte	0x3
 4471 0c3d 00000000 		.4byte	last_hot_ms.8100
 4472 0c41 22       		.uleb128 0x22
 4473 0c42 75030000 		.4byte	.LASF207
 4474 0c46 01       		.byte	0x1
 4475 0c47 2001     		.2byte	0x120
 4476 0c49 CE000000 		.4byte	0xce
 4477 0c4d 05       		.uleb128 0x5
 4478 0c4e 03       		.byte	0x3
 4479 0c4f 04000000 		.4byte	last_link_ms.8101
 4480 0c53 00       		.byte	0
 4481 0c54 23       		.uleb128 0x23
 4482 0c55 B9020000 		.4byte	.LASF209
 4483 0c59 01       		.byte	0x1
 4484 0c5a 3601     		.2byte	0x136
 4485 0c5c 00000000 		.4byte	.LFB71
 4486 0c60 1C000000 		.4byte	.LFE71-.LFB71
 4487 0c64 01       		.uleb128 0x1
 4488 0c65 9C       		.byte	0x9c
 4489 0c66 7A0C0000 		.4byte	0xc7a
 4490 0c6a 20       		.uleb128 0x20
 4491 0c6b 63747800 		.ascii	"ctx\000"
 4492 0c6f 01       		.byte	0x1
 4493 0c70 3601     		.2byte	0x136
 4494 0c72 ED090000 		.4byte	0x9ed
 4495 0c76 02       		.uleb128 0x2
 4496 0c77 91       		.byte	0x91
 4497 0c78 74       		.sleb128 -12
 4498 0c79 00       		.byte	0
 4499 0c7a 23       		.uleb128 0x23
 4500 0c7b 6F000000 		.4byte	.LASF210
 4501 0c7f 01       		.byte	0x1
 4502 0c80 4001     		.2byte	0x140
 4503 0c82 00000000 		.4byte	.LFB72
 4504 0c86 1C000000 		.4byte	.LFE72-.LFB72
 4505 0c8a 01       		.uleb128 0x1
 4506 0c8b 9C       		.byte	0x9c
 4507 0c8c A00C0000 		.4byte	0xca0
 4508 0c90 20       		.uleb128 0x20
 4509 0c91 63747800 		.ascii	"ctx\000"
 4510 0c95 01       		.byte	0x1
 4511 0c96 4001     		.2byte	0x140
 4512 0c98 ED090000 		.4byte	0x9ed
 4513 0c9c 02       		.uleb128 0x2
ARM GAS  C:\Users\JENNEW~1\AppData\Local\Temp\ccTobH5m.s 			page 94


 4514 0c9d 91       		.byte	0x91
 4515 0c9e 74       		.sleb128 -12
 4516 0c9f 00       		.byte	0
 4517 0ca0 23       		.uleb128 0x23
 4518 0ca1 C1010000 		.4byte	.LASF211
 4519 0ca5 01       		.byte	0x1
 4520 0ca6 4E01     		.2byte	0x14e
 4521 0ca8 00000000 		.4byte	.LFB73
 4522 0cac 20000000 		.4byte	.LFE73-.LFB73
 4523 0cb0 01       		.uleb128 0x1
 4524 0cb1 9C       		.byte	0x9c
 4525 0cb2 C60C0000 		.4byte	0xcc6
 4526 0cb6 20       		.uleb128 0x20
 4527 0cb7 63747800 		.ascii	"ctx\000"
 4528 0cbb 01       		.byte	0x1
 4529 0cbc 4E01     		.2byte	0x14e
 4530 0cbe ED090000 		.4byte	0x9ed
 4531 0cc2 02       		.uleb128 0x2
 4532 0cc3 91       		.byte	0x91
 4533 0cc4 74       		.sleb128 -12
 4534 0cc5 00       		.byte	0
 4535 0cc6 24       		.uleb128 0x24
 4536 0cc7 15040000 		.4byte	.LASF212
 4537 0ccb 01       		.byte	0x1
 4538 0ccc 5501     		.2byte	0x155
 4539 0cce 00000000 		.4byte	.LFB74
 4540 0cd2 18000000 		.4byte	.LFE74-.LFB74
 4541 0cd6 01       		.uleb128 0x1
 4542 0cd7 9C       		.byte	0x9c
 4543 0cd8 EC0C0000 		.4byte	0xcec
 4544 0cdc 20       		.uleb128 0x20
 4545 0cdd 63747800 		.ascii	"ctx\000"
 4546 0ce1 01       		.byte	0x1
 4547 0ce2 5501     		.2byte	0x155
 4548 0ce4 ED090000 		.4byte	0x9ed
 4549 0ce8 02       		.uleb128 0x2
 4550 0ce9 91       		.byte	0x91
 4551 0cea 74       		.sleb128 -12
 4552 0ceb 00       		.byte	0
 4553 0cec 23       		.uleb128 0x23
 4554 0ced 350C0000 		.4byte	.LASF213
 4555 0cf1 01       		.byte	0x1
 4556 0cf2 5E01     		.2byte	0x15e
 4557 0cf4 00000000 		.4byte	.LFB75
 4558 0cf8 1C000000 		.4byte	.LFE75-.LFB75
 4559 0cfc 01       		.uleb128 0x1
 4560 0cfd 9C       		.byte	0x9c
 4561 0cfe 120D0000 		.4byte	0xd12
 4562 0d02 20       		.uleb128 0x20
 4563 0d03 63747800 		.ascii	"ctx\000"
 4564 0d07 01       		.byte	0x1
 4565 0d08 5E01     		.2byte	0x15e
 4566 0d0a ED090000 		.4byte	0x9ed
 4567 0d0e 02       		.uleb128 0x2
 4568 0d0f 91       		.byte	0x91
 4569 0d10 74       		.sleb128 -12
 4570 0d11 00       		.byte	0
ARM GAS  C:\Users\JENNEW~1\AppData\Local\Temp\ccTobH5m.s 			page 95


 4571 0d12 21       		.uleb128 0x21
 4572 0d13 0A090000 		.4byte	.LASF214
 4573 0d17 01       		.byte	0x1
 4574 0d18 6401     		.2byte	0x164
 4575 0d1a 00000000 		.4byte	.LFB76
 4576 0d1e DC000000 		.4byte	.LFE76-.LFB76
 4577 0d22 01       		.uleb128 0x1
 4578 0d23 9C       		.byte	0x9c
 4579 0d24 910D0000 		.4byte	0xd91
 4580 0d28 20       		.uleb128 0x20
 4581 0d29 63747800 		.ascii	"ctx\000"
 4582 0d2d 01       		.byte	0x1
 4583 0d2e 6401     		.2byte	0x164
 4584 0d30 ED090000 		.4byte	0x9ed
 4585 0d34 03       		.uleb128 0x3
 4586 0d35 91       		.byte	0x91
 4587 0d36 D47E     		.sleb128 -172
 4588 0d38 25       		.uleb128 0x25
 4589 0d39 74616700 		.ascii	"tag\000"
 4590 0d3d 01       		.byte	0x1
 4591 0d3e 6901     		.2byte	0x169
 4592 0d40 910D0000 		.4byte	0xd91
 4593 0d44 05       		.uleb128 0x5
 4594 0d45 03       		.byte	0x3
 4595 0d46 00000000 		.4byte	tag.8120
 4596 0d4a 1D       		.uleb128 0x1d
 4597 0d4b 10000000 		.4byte	.LBB4
 4598 0d4f BC000000 		.4byte	.LBE4-.LBB4
 4599 0d53 25       		.uleb128 0x25
 4600 0d54 7300     		.ascii	"s\000"
 4601 0d56 01       		.byte	0x1
 4602 0d57 6D01     		.2byte	0x16d
 4603 0d59 A2000000 		.4byte	0xa2
 4604 0d5d 02       		.uleb128 0x2
 4605 0d5e 91       		.byte	0x91
 4606 0d5f 67       		.sleb128 -25
 4607 0d60 1D       		.uleb128 0x1d
 4608 0d61 18000000 		.4byte	.LBB5
 4609 0d65 A0000000 		.4byte	.LBE5-.LBB5
 4610 0d69 25       		.uleb128 0x25
 4611 0d6a 6300     		.ascii	"c\000"
 4612 0d6c 01       		.byte	0x1
 4613 0d6d 6E01     		.2byte	0x16e
 4614 0d6f C6090000 		.4byte	0x9c6
 4615 0d73 02       		.uleb128 0x2
 4616 0d74 91       		.byte	0x91
 4617 0d75 58       		.sleb128 -40
 4618 0d76 1D       		.uleb128 0x1d
 4619 0d77 2E000000 		.4byte	.LBB6
 4620 0d7b 8A000000 		.4byte	.LBE6-.LBB6
 4621 0d7f 25       		.uleb128 0x25
 4622 0d80 6200     		.ascii	"b\000"
 4623 0d82 01       		.byte	0x1
 4624 0d83 7001     		.2byte	0x170
 4625 0d85 A10D0000 		.4byte	0xda1
 4626 0d89 03       		.uleb128 0x3
 4627 0d8a 91       		.byte	0x91
ARM GAS  C:\Users\JENNEW~1\AppData\Local\Temp\ccTobH5m.s 			page 96


 4628 0d8b D87E     		.sleb128 -168
 4629 0d8d 00       		.byte	0
 4630 0d8e 00       		.byte	0
 4631 0d8f 00       		.byte	0
 4632 0d90 00       		.byte	0
 4633 0d91 13       		.uleb128 0x13
 4634 0d92 FE000000 		.4byte	0xfe
 4635 0d96 A10D0000 		.4byte	0xda1
 4636 0d9a 14       		.uleb128 0x14
 4637 0d9b F5000000 		.4byte	0xf5
 4638 0d9f 01       		.byte	0x1
 4639 0da0 00       		.byte	0
 4640 0da1 13       		.uleb128 0x13
 4641 0da2 E7000000 		.4byte	0xe7
 4642 0da6 B10D0000 		.4byte	0xdb1
 4643 0daa 14       		.uleb128 0x14
 4644 0dab F5000000 		.4byte	0xf5
 4645 0daf 7F       		.byte	0x7f
 4646 0db0 00       		.byte	0
 4647 0db1 26       		.uleb128 0x26
 4648 0db2 BA000000 		.4byte	.LASF215
 4649 0db6 01       		.byte	0x1
 4650 0db7 8101     		.2byte	0x181
 4651 0db9 FE000000 		.4byte	0xfe
 4652 0dbd 00000000 		.4byte	.LFB77
 4653 0dc1 40000000 		.4byte	.LFE77-.LFB77
 4654 0dc5 01       		.uleb128 0x1
 4655 0dc6 9C       		.byte	0x9c
 4656 0dc7 D90D0000 		.4byte	0xdd9
 4657 0dcb 20       		.uleb128 0x20
 4658 0dcc 7300     		.ascii	"s\000"
 4659 0dce 01       		.byte	0x1
 4660 0dcf 8101     		.2byte	0x181
 4661 0dd1 32080000 		.4byte	0x832
 4662 0dd5 02       		.uleb128 0x2
 4663 0dd6 91       		.byte	0x91
 4664 0dd7 77       		.sleb128 -9
 4665 0dd8 00       		.byte	0
 4666 0dd9 23       		.uleb128 0x23
 4667 0dda 4D050000 		.4byte	.LASF216
 4668 0dde 01       		.byte	0x1
 4669 0ddf 8A01     		.2byte	0x18a
 4670 0de1 00000000 		.4byte	.LFB78
 4671 0de5 80000000 		.4byte	.LFE78-.LFB78
 4672 0de9 01       		.uleb128 0x1
 4673 0dea 9C       		.byte	0x9c
 4674 0deb FF0D0000 		.4byte	0xdff
 4675 0def 20       		.uleb128 0x20
 4676 0df0 63747800 		.ascii	"ctx\000"
 4677 0df4 01       		.byte	0x1
 4678 0df5 8A01     		.2byte	0x18a
 4679 0df7 ED090000 		.4byte	0x9ed
 4680 0dfb 02       		.uleb128 0x2
 4681 0dfc 91       		.byte	0x91
 4682 0dfd 74       		.sleb128 -12
 4683 0dfe 00       		.byte	0
 4684 0dff 27       		.uleb128 0x27
ARM GAS  C:\Users\JENNEW~1\AppData\Local\Temp\ccTobH5m.s 			page 97


 4685 0e00 41080000 		.4byte	.LASF217
 4686 0e04 01       		.byte	0x1
 4687 0e05 9D01     		.2byte	0x19d
 4688 0e07 A2000000 		.4byte	0xa2
 4689 0e0b 00000000 		.4byte	.LFB79
 4690 0e0f 54000000 		.4byte	.LFE79-.LFB79
 4691 0e13 01       		.uleb128 0x1
 4692 0e14 9C       		.byte	0x9c
 4693 0e15 690E0000 		.4byte	0xe69
 4694 0e19 20       		.uleb128 0x20
 4695 0e1a 63747800 		.ascii	"ctx\000"
 4696 0e1e 01       		.byte	0x1
 4697 0e1f 9D01     		.2byte	0x19d
 4698 0e21 390A0000 		.4byte	0xa39
 4699 0e25 03       		.uleb128 0x3
 4700 0e26 91       		.byte	0x91
 4701 0e27 847E     		.sleb128 -252
 4702 0e29 28       		.uleb128 0x28
 4703 0e2a 3E070000 		.4byte	.LASF218
 4704 0e2e 01       		.byte	0x1
 4705 0e2f 9D01     		.2byte	0x19d
 4706 0e31 690E0000 		.4byte	0xe69
 4707 0e35 03       		.uleb128 0x3
 4708 0e36 91       		.byte	0x91
 4709 0e37 807E     		.sleb128 -256
 4710 0e39 28       		.uleb128 0x28
 4711 0e3a 83020000 		.4byte	.LASF219
 4712 0e3e 01       		.byte	0x1
 4713 0e3f 9D01     		.2byte	0x19d
 4714 0e41 690E0000 		.4byte	0xe69
 4715 0e45 03       		.uleb128 0x3
 4716 0e46 91       		.byte	0x91
 4717 0e47 FC7D     		.sleb128 -260
 4718 0e49 25       		.uleb128 0x25
 4719 0e4a 737400   		.ascii	"st\000"
 4720 0e4d 01       		.byte	0x1
 4721 0e4e A001     		.2byte	0x1a0
 4722 0e50 8F050000 		.4byte	0x58f
 4723 0e54 03       		.uleb128 0x3
 4724 0e55 91       		.byte	0x91
 4725 0e56 8C7E     		.sleb128 -244
 4726 0e58 22       		.uleb128 0x22
 4727 0e59 2E060000 		.4byte	.LASF220
 4728 0e5d 01       		.byte	0x1
 4729 0e5e A301     		.2byte	0x1a3
 4730 0e60 D9000000 		.4byte	0xd9
 4731 0e64 03       		.uleb128 0x3
 4732 0e65 91       		.byte	0x91
 4733 0e66 887E     		.sleb128 -248
 4734 0e68 00       		.byte	0
 4735 0e69 06       		.uleb128 0x6
 4736 0e6a 04       		.byte	0x4
 4737 0e6b D9000000 		.4byte	0xd9
 4738 0e6f 23       		.uleb128 0x23
 4739 0e70 63080000 		.4byte	.LASF221
 4740 0e74 01       		.byte	0x1
 4741 0e75 A801     		.2byte	0x1a8
ARM GAS  C:\Users\JENNEW~1\AppData\Local\Temp\ccTobH5m.s 			page 98


 4742 0e77 00000000 		.4byte	.LFB80
 4743 0e7b 6C000000 		.4byte	.LFE80-.LFB80
 4744 0e7f 01       		.uleb128 0x1
 4745 0e80 9C       		.byte	0x9c
 4746 0e81 B30E0000 		.4byte	0xeb3
 4747 0e85 20       		.uleb128 0x20
 4748 0e86 63747800 		.ascii	"ctx\000"
 4749 0e8a 01       		.byte	0x1
 4750 0e8b A801     		.2byte	0x1a8
 4751 0e8d ED090000 		.4byte	0x9ed
 4752 0e91 02       		.uleb128 0x2
 4753 0e92 91       		.byte	0x91
 4754 0e93 6C       		.sleb128 -20
 4755 0e94 25       		.uleb128 0x25
 4756 0e95 70616E00 		.ascii	"pan\000"
 4757 0e99 01       		.byte	0x1
 4758 0e9a AC01     		.2byte	0x1ac
 4759 0e9c D9000000 		.4byte	0xd9
 4760 0ea0 02       		.uleb128 0x2
 4761 0ea1 91       		.byte	0x91
 4762 0ea2 74       		.sleb128 -12
 4763 0ea3 22       		.uleb128 0x22
 4764 0ea4 DD090000 		.4byte	.LASF29
 4765 0ea8 01       		.byte	0x1
 4766 0ea9 AC01     		.2byte	0x1ac
 4767 0eab D9000000 		.4byte	0xd9
 4768 0eaf 02       		.uleb128 0x2
 4769 0eb0 91       		.byte	0x91
 4770 0eb1 70       		.sleb128 -16
 4771 0eb2 00       		.byte	0
 4772 0eb3 23       		.uleb128 0x23
 4773 0eb4 3A040000 		.4byte	.LASF222
 4774 0eb8 01       		.byte	0x1
 4775 0eb9 B701     		.2byte	0x1b7
 4776 0ebb 00000000 		.4byte	.LFB81
 4777 0ebf 1C000000 		.4byte	.LFE81-.LFB81
 4778 0ec3 01       		.uleb128 0x1
 4779 0ec4 9C       		.byte	0x9c
 4780 0ec5 D90E0000 		.4byte	0xed9
 4781 0ec9 20       		.uleb128 0x20
 4782 0eca 63747800 		.ascii	"ctx\000"
 4783 0ece 01       		.byte	0x1
 4784 0ecf B701     		.2byte	0x1b7
 4785 0ed1 390A0000 		.4byte	0xa39
 4786 0ed5 02       		.uleb128 0x2
 4787 0ed6 91       		.byte	0x91
 4788 0ed7 74       		.sleb128 -12
 4789 0ed8 00       		.byte	0
 4790 0ed9 27       		.uleb128 0x27
 4791 0eda 530B0000 		.4byte	.LASF223
 4792 0ede 01       		.byte	0x1
 4793 0edf C301     		.2byte	0x1c3
 4794 0ee1 A2000000 		.4byte	0xa2
 4795 0ee5 00000000 		.4byte	.LFB82
 4796 0ee9 94000000 		.4byte	.LFE82-.LFB82
 4797 0eed 01       		.uleb128 0x1
 4798 0eee 9C       		.byte	0x9c
ARM GAS  C:\Users\JENNEW~1\AppData\Local\Temp\ccTobH5m.s 			page 99


 4799 0eef 100F0000 		.4byte	0xf10
 4800 0ef3 20       		.uleb128 0x20
 4801 0ef4 63747800 		.ascii	"ctx\000"
 4802 0ef8 01       		.byte	0x1
 4803 0ef9 C301     		.2byte	0x1c3
 4804 0efb ED090000 		.4byte	0x9ed
 4805 0eff 02       		.uleb128 0x2
 4806 0f00 91       		.byte	0x91
 4807 0f01 74       		.sleb128 -12
 4808 0f02 20       		.uleb128 0x20
 4809 0f03 6B00     		.ascii	"k\000"
 4810 0f05 01       		.byte	0x1
 4811 0f06 C301     		.2byte	0x1c3
 4812 0f08 E7000000 		.4byte	0xe7
 4813 0f0c 02       		.uleb128 0x2
 4814 0f0d 91       		.byte	0x91
 4815 0f0e 73       		.sleb128 -13
 4816 0f0f 00       		.byte	0
 4817 0f10 26       		.uleb128 0x26
 4818 0f11 E2090000 		.4byte	.LASF224
 4819 0f15 01       		.byte	0x1
 4820 0f16 DA01     		.2byte	0x1da
 4821 0f18 A2000000 		.4byte	0xa2
 4822 0f1c 00000000 		.4byte	.LFB83
 4823 0f20 20000000 		.4byte	.LFE83-.LFB83
 4824 0f24 01       		.uleb128 0x1
 4825 0f25 9C       		.byte	0x9c
 4826 0f26 380F0000 		.4byte	0xf38
 4827 0f2a 20       		.uleb128 0x20
 4828 0f2b 7300     		.ascii	"s\000"
 4829 0f2d 01       		.byte	0x1
 4830 0f2e DA01     		.2byte	0x1da
 4831 0f30 02080000 		.4byte	0x802
 4832 0f34 02       		.uleb128 0x2
 4833 0f35 91       		.byte	0x91
 4834 0f36 77       		.sleb128 -9
 4835 0f37 00       		.byte	0
 4836 0f38 27       		.uleb128 0x27
 4837 0f39 760A0000 		.4byte	.LASF225
 4838 0f3d 01       		.byte	0x1
 4839 0f3e DC01     		.2byte	0x1dc
 4840 0f40 A2000000 		.4byte	0xa2
 4841 0f44 00000000 		.4byte	.LFB84
 4842 0f48 48000000 		.4byte	.LFE84-.LFB84
 4843 0f4c 01       		.uleb128 0x1
 4844 0f4d 9C       		.byte	0x9c
 4845 0f4e 6F0F0000 		.4byte	0xf6f
 4846 0f52 20       		.uleb128 0x20
 4847 0f53 63747800 		.ascii	"ctx\000"
 4848 0f57 01       		.byte	0x1
 4849 0f58 DC01     		.2byte	0x1dc
 4850 0f5a ED090000 		.4byte	0x9ed
 4851 0f5e 02       		.uleb128 0x2
 4852 0f5f 91       		.byte	0x91
 4853 0f60 74       		.sleb128 -12
 4854 0f61 20       		.uleb128 0x20
 4855 0f62 6B00     		.ascii	"k\000"
ARM GAS  C:\Users\JENNEW~1\AppData\Local\Temp\ccTobH5m.s 			page 100


 4856 0f64 01       		.byte	0x1
 4857 0f65 DC01     		.2byte	0x1dc
 4858 0f67 E7000000 		.4byte	0xe7
 4859 0f6b 02       		.uleb128 0x2
 4860 0f6c 91       		.byte	0x91
 4861 0f6d 73       		.sleb128 -13
 4862 0f6e 00       		.byte	0
 4863 0f6f 27       		.uleb128 0x27
 4864 0f70 DF080000 		.4byte	.LASF226
 4865 0f74 01       		.byte	0x1
 4866 0f75 E701     		.2byte	0x1e7
 4867 0f77 A2000000 		.4byte	0xa2
 4868 0f7b 00000000 		.4byte	.LFB85
 4869 0f7f 3E000000 		.4byte	.LFE85-.LFB85
 4870 0f83 01       		.uleb128 0x1
 4871 0f84 9C       		.byte	0x9c
 4872 0f85 BF0F0000 		.4byte	0xfbf
 4873 0f89 20       		.uleb128 0x20
 4874 0f8a 63747800 		.ascii	"ctx\000"
 4875 0f8e 01       		.byte	0x1
 4876 0f8f E701     		.2byte	0x1e7
 4877 0f91 ED090000 		.4byte	0x9ed
 4878 0f95 02       		.uleb128 0x2
 4879 0f96 91       		.byte	0x91
 4880 0f97 6C       		.sleb128 -20
 4881 0f98 20       		.uleb128 0x20
 4882 0f99 6B00     		.ascii	"k\000"
 4883 0f9b 01       		.byte	0x1
 4884 0f9c E701     		.2byte	0x1e7
 4885 0f9e E7000000 		.4byte	0xe7
 4886 0fa2 02       		.uleb128 0x2
 4887 0fa3 91       		.byte	0x91
 4888 0fa4 6B       		.sleb128 -21
 4889 0fa5 1D       		.uleb128 0x1d
 4890 0fa6 14000000 		.4byte	.LBB7
 4891 0faa 20000000 		.4byte	.LBE7-.LBB7
 4892 0fae 22       		.uleb128 0x22
 4893 0faf 48050000 		.4byte	.LASF227
 4894 0fb3 01       		.byte	0x1
 4895 0fb4 EB01     		.2byte	0x1eb
 4896 0fb6 02080000 		.4byte	0x802
 4897 0fba 02       		.uleb128 0x2
 4898 0fbb 91       		.byte	0x91
 4899 0fbc 77       		.sleb128 -9
 4900 0fbd 00       		.byte	0
 4901 0fbe 00       		.byte	0
 4902 0fbf 29       		.uleb128 0x29
 4903 0fc0 EA0C0000 		.4byte	.LASF229
 4904 0fc4 01       		.byte	0x1
 4905 0fc5 F301     		.2byte	0x1f3
 4906 0fc7 A2000000 		.4byte	0xa2
 4907 0fcb 00000000 		.4byte	.LFB86
 4908 0fcf A0000000 		.4byte	.LFE86-.LFB86
 4909 0fd3 01       		.uleb128 0x1
 4910 0fd4 9C       		.byte	0x9c
 4911 0fd5 05100000 		.4byte	0x1005
 4912 0fd9 20       		.uleb128 0x20
ARM GAS  C:\Users\JENNEW~1\AppData\Local\Temp\ccTobH5m.s 			page 101


 4913 0fda 63747800 		.ascii	"ctx\000"
 4914 0fde 01       		.byte	0x1
 4915 0fdf F301     		.2byte	0x1f3
 4916 0fe1 ED090000 		.4byte	0x9ed
 4917 0fe5 02       		.uleb128 0x2
 4918 0fe6 91       		.byte	0x91
 4919 0fe7 6C       		.sleb128 -20
 4920 0fe8 20       		.uleb128 0x20
 4921 0fe9 6B657900 		.ascii	"key\000"
 4922 0fed 01       		.byte	0x1
 4923 0fee F301     		.2byte	0x1f3
 4924 0ff0 E7000000 		.4byte	0xe7
 4925 0ff4 02       		.uleb128 0x2
 4926 0ff5 91       		.byte	0x91
 4927 0ff6 6B       		.sleb128 -21
 4928 0ff7 25       		.uleb128 0x25
 4929 0ff8 6600     		.ascii	"f\000"
 4930 0ffa 01       		.byte	0x1
 4931 0ffb FC01     		.2byte	0x1fc
 4932 0ffd F3090000 		.4byte	0x9f3
 4933 1001 02       		.uleb128 0x2
 4934 1002 91       		.byte	0x91
 4935 1003 74       		.sleb128 -12
 4936 1004 00       		.byte	0
 4937 1005 23       		.uleb128 0x23
 4938 1006 BD070000 		.4byte	.LASF230
 4939 100a 01       		.byte	0x1
 4940 100b 0902     		.2byte	0x209
 4941 100d 00000000 		.4byte	.LFB87
 4942 1011 1C000000 		.4byte	.LFE87-.LFB87
 4943 1015 01       		.uleb128 0x1
 4944 1016 9C       		.byte	0x9c
 4945 1017 3A100000 		.4byte	0x103a
 4946 101b 20       		.uleb128 0x20
 4947 101c 63747800 		.ascii	"ctx\000"
 4948 1020 01       		.byte	0x1
 4949 1021 0902     		.2byte	0x209
 4950 1023 390A0000 		.4byte	0xa39
 4951 1027 02       		.uleb128 0x2
 4952 1028 91       		.byte	0x91
 4953 1029 74       		.sleb128 -12
 4954 102a 20       		.uleb128 0x20
 4955 102b 6F757400 		.ascii	"out\000"
 4956 102f 01       		.byte	0x1
 4957 1030 0902     		.2byte	0x209
 4958 1032 440A0000 		.4byte	0xa44
 4959 1036 02       		.uleb128 0x2
 4960 1037 91       		.byte	0x91
 4961 1038 70       		.sleb128 -16
 4962 1039 00       		.byte	0
 4963 103a 23       		.uleb128 0x23
 4964 103b 9C070000 		.4byte	.LASF231
 4965 103f 01       		.byte	0x1
 4966 1040 0F02     		.2byte	0x20f
 4967 1042 00000000 		.4byte	.LFB88
 4968 1046 1A000000 		.4byte	.LFE88-.LFB88
 4969 104a 01       		.uleb128 0x1
ARM GAS  C:\Users\JENNEW~1\AppData\Local\Temp\ccTobH5m.s 			page 102


 4970 104b 9C       		.byte	0x9c
 4971 104c 6F100000 		.4byte	0x106f
 4972 1050 20       		.uleb128 0x20
 4973 1051 63747800 		.ascii	"ctx\000"
 4974 1055 01       		.byte	0x1
 4975 1056 0F02     		.2byte	0x20f
 4976 1058 390A0000 		.4byte	0xa39
 4977 105c 02       		.uleb128 0x2
 4978 105d 91       		.byte	0x91
 4979 105e 74       		.sleb128 -12
 4980 105f 20       		.uleb128 0x20
 4981 1060 6F757400 		.ascii	"out\000"
 4982 1064 01       		.byte	0x1
 4983 1065 0F02     		.2byte	0x20f
 4984 1067 440A0000 		.4byte	0xa44
 4985 106b 02       		.uleb128 0x2
 4986 106c 91       		.byte	0x91
 4987 106d 70       		.sleb128 -16
 4988 106e 00       		.byte	0
 4989 106f 23       		.uleb128 0x23
 4990 1070 B10B0000 		.4byte	.LASF232
 4991 1074 01       		.byte	0x1
 4992 1075 1402     		.2byte	0x214
 4993 1077 00000000 		.4byte	.LFB89
 4994 107b A4000000 		.4byte	.LFE89-.LFB89
 4995 107f 01       		.uleb128 0x1
 4996 1080 9C       		.byte	0x9c
 4997 1081 A4100000 		.4byte	0x10a4
 4998 1085 20       		.uleb128 0x20
 4999 1086 63747800 		.ascii	"ctx\000"
 5000 108a 01       		.byte	0x1
 5001 108b 1402     		.2byte	0x214
 5002 108d 390A0000 		.4byte	0xa39
 5003 1091 02       		.uleb128 0x2
 5004 1092 91       		.byte	0x91
 5005 1093 74       		.sleb128 -12
 5006 1094 20       		.uleb128 0x20
 5007 1095 6F757400 		.ascii	"out\000"
 5008 1099 01       		.byte	0x1
 5009 109a 1402     		.2byte	0x214
 5010 109c 440A0000 		.4byte	0xa44
 5011 10a0 02       		.uleb128 0x2
 5012 10a1 91       		.byte	0x91
 5013 10a2 70       		.sleb128 -16
 5014 10a3 00       		.byte	0
 5015 10a4 23       		.uleb128 0x23
 5016 10a5 63020000 		.4byte	.LASF233
 5017 10a9 01       		.byte	0x1
 5018 10aa 2702     		.2byte	0x227
 5019 10ac 00000000 		.4byte	.LFB90
 5020 10b0 28000000 		.4byte	.LFE90-.LFB90
 5021 10b4 01       		.uleb128 0x1
 5022 10b5 9C       		.byte	0x9c
 5023 10b6 D9100000 		.4byte	0x10d9
 5024 10ba 20       		.uleb128 0x20
 5025 10bb 63747800 		.ascii	"ctx\000"
 5026 10bf 01       		.byte	0x1
ARM GAS  C:\Users\JENNEW~1\AppData\Local\Temp\ccTobH5m.s 			page 103


 5027 10c0 2702     		.2byte	0x227
 5028 10c2 390A0000 		.4byte	0xa39
 5029 10c6 02       		.uleb128 0x2
 5030 10c7 91       		.byte	0x91
 5031 10c8 74       		.sleb128 -12
 5032 10c9 20       		.uleb128 0x20
 5033 10ca 6F757400 		.ascii	"out\000"
 5034 10ce 01       		.byte	0x1
 5035 10cf 2702     		.2byte	0x227
 5036 10d1 440A0000 		.4byte	0xa44
 5037 10d5 02       		.uleb128 0x2
 5038 10d6 91       		.byte	0x91
 5039 10d7 70       		.sleb128 -16
 5040 10d8 00       		.byte	0
 5041 10d9 21       		.uleb128 0x21
 5042 10da C20A0000 		.4byte	.LASF234
 5043 10de 01       		.byte	0x1
 5044 10df 2E02     		.2byte	0x22e
 5045 10e1 00000000 		.4byte	.LFB91
 5046 10e5 3C000000 		.4byte	.LFE91-.LFB91
 5047 10e9 01       		.uleb128 0x1
 5048 10ea 9C       		.byte	0x9c
 5049 10eb 1B110000 		.4byte	0x111b
 5050 10ef 20       		.uleb128 0x20
 5051 10f0 63747800 		.ascii	"ctx\000"
 5052 10f4 01       		.byte	0x1
 5053 10f5 2E02     		.2byte	0x22e
 5054 10f7 390A0000 		.4byte	0xa39
 5055 10fb 02       		.uleb128 0x2
 5056 10fc 91       		.byte	0x91
 5057 10fd 6C       		.sleb128 -20
 5058 10fe 20       		.uleb128 0x20
 5059 10ff 6F757400 		.ascii	"out\000"
 5060 1103 01       		.byte	0x1
 5061 1104 2E02     		.2byte	0x22e
 5062 1106 440A0000 		.4byte	0xa44
 5063 110a 02       		.uleb128 0x2
 5064 110b 91       		.byte	0x91
 5065 110c 68       		.sleb128 -24
 5066 110d 25       		.uleb128 0x25
 5067 110e 6600     		.ascii	"f\000"
 5068 1110 01       		.byte	0x1
 5069 1111 3002     		.2byte	0x230
 5070 1113 180A0000 		.4byte	0xa18
 5071 1117 02       		.uleb128 0x2
 5072 1118 91       		.byte	0x91
 5073 1119 74       		.sleb128 -12
 5074 111a 00       		.byte	0
 5075 111b 23       		.uleb128 0x23
 5076 111c 60010000 		.4byte	.LASF235
 5077 1120 01       		.byte	0x1
 5078 1121 3D02     		.2byte	0x23d
 5079 1123 00000000 		.4byte	.LFB92
 5080 1127 A0010000 		.4byte	.LFE92-.LFB92
 5081 112b 01       		.uleb128 0x1
 5082 112c 9C       		.byte	0x9c
 5083 112d 83110000 		.4byte	0x1183
ARM GAS  C:\Users\JENNEW~1\AppData\Local\Temp\ccTobH5m.s 			page 104


 5084 1131 20       		.uleb128 0x20
 5085 1132 63747800 		.ascii	"ctx\000"
 5086 1136 01       		.byte	0x1
 5087 1137 3D02     		.2byte	0x23d
 5088 1139 ED090000 		.4byte	0x9ed
 5089 113d 02       		.uleb128 0x2
 5090 113e 91       		.byte	0x91
 5091 113f 64       		.sleb128 -28
 5092 1140 28       		.uleb128 0x28
 5093 1141 900B0000 		.4byte	.LASF236
 5094 1145 01       		.byte	0x1
 5095 1146 3D02     		.2byte	0x23d
 5096 1148 D9000000 		.4byte	0xd9
 5097 114c 02       		.uleb128 0x2
 5098 114d 91       		.byte	0x91
 5099 114e 60       		.sleb128 -32
 5100 114f 28       		.uleb128 0x28
 5101 1150 D9030000 		.4byte	.LASF237
 5102 1154 01       		.byte	0x1
 5103 1155 3D02     		.2byte	0x23d
 5104 1157 D9000000 		.4byte	0xd9
 5105 115b 02       		.uleb128 0x2
 5106 115c 91       		.byte	0x91
 5107 115d 5C       		.sleb128 -36
 5108 115e 1D       		.uleb128 0x1d
 5109 115f 16000000 		.4byte	.LBB8
 5110 1163 48000000 		.4byte	.LBE8-.LBB8
 5111 1167 25       		.uleb128 0x25
 5112 1168 7000     		.ascii	"p\000"
 5113 116a 01       		.byte	0x1
 5114 116b 4002     		.2byte	0x240
 5115 116d D9000000 		.4byte	0xd9
 5116 1171 02       		.uleb128 0x2
 5117 1172 91       		.byte	0x91
 5118 1173 6C       		.sleb128 -20
 5119 1174 25       		.uleb128 0x25
 5120 1175 7400     		.ascii	"t\000"
 5121 1177 01       		.byte	0x1
 5122 1178 4002     		.2byte	0x240
 5123 117a D9000000 		.4byte	0xd9
 5124 117e 02       		.uleb128 0x2
 5125 117f 91       		.byte	0x91
 5126 1180 68       		.sleb128 -24
 5127 1181 00       		.byte	0
 5128 1182 00       		.byte	0
 5129 1183 27       		.uleb128 0x27
 5130 1184 18090000 		.4byte	.LASF238
 5131 1188 01       		.byte	0x1
 5132 1189 5502     		.2byte	0x255
 5133 118b A2000000 		.4byte	0xa2
 5134 118f 00000000 		.4byte	.LFB93
 5135 1193 24020000 		.4byte	.LFE93-.LFB93
 5136 1197 01       		.uleb128 0x1
 5137 1198 9C       		.byte	0x9c
 5138 1199 BA110000 		.4byte	0x11ba
 5139 119d 20       		.uleb128 0x20
 5140 119e 63747800 		.ascii	"ctx\000"
ARM GAS  C:\Users\JENNEW~1\AppData\Local\Temp\ccTobH5m.s 			page 105


 5141 11a2 01       		.byte	0x1
 5142 11a3 5502     		.2byte	0x255
 5143 11a5 ED090000 		.4byte	0x9ed
 5144 11a9 02       		.uleb128 0x2
 5145 11aa 91       		.byte	0x91
 5146 11ab 74       		.sleb128 -12
 5147 11ac 20       		.uleb128 0x20
 5148 11ad 6B00     		.ascii	"k\000"
 5149 11af 01       		.byte	0x1
 5150 11b0 5502     		.2byte	0x255
 5151 11b2 E7000000 		.4byte	0xe7
 5152 11b6 02       		.uleb128 0x2
 5153 11b7 91       		.byte	0x91
 5154 11b8 73       		.sleb128 -13
 5155 11b9 00       		.byte	0
 5156 11ba 21       		.uleb128 0x21
 5157 11bb 33030000 		.4byte	.LASF239
 5158 11bf 01       		.byte	0x1
 5159 11c0 6C02     		.2byte	0x26c
 5160 11c2 00000000 		.4byte	.LFB94
 5161 11c6 C0000000 		.4byte	.LFE94-.LFB94
 5162 11ca 01       		.uleb128 0x1
 5163 11cb 9C       		.byte	0x9c
 5164 11cc 18120000 		.4byte	0x1218
 5165 11d0 20       		.uleb128 0x20
 5166 11d1 63747800 		.ascii	"ctx\000"
 5167 11d5 01       		.byte	0x1
 5168 11d6 6C02     		.2byte	0x26c
 5169 11d8 ED090000 		.4byte	0x9ed
 5170 11dc 02       		.uleb128 0x2
 5171 11dd 91       		.byte	0x91
 5172 11de 64       		.sleb128 -28
 5173 11df 22       		.uleb128 0x22
 5174 11e0 D1030000 		.4byte	.LASF240
 5175 11e4 01       		.byte	0x1
 5176 11e5 6F02     		.2byte	0x26f
 5177 11e7 CE000000 		.4byte	0xce
 5178 11eb 02       		.uleb128 0x2
 5179 11ec 91       		.byte	0x91
 5180 11ed 70       		.sleb128 -16
 5181 11ee 25       		.uleb128 0x25
 5182 11ef 7000     		.ascii	"p\000"
 5183 11f1 01       		.byte	0x1
 5184 11f2 7202     		.2byte	0x272
 5185 11f4 D9000000 		.4byte	0xd9
 5186 11f8 02       		.uleb128 0x2
 5187 11f9 91       		.byte	0x91
 5188 11fa 6C       		.sleb128 -20
 5189 11fb 25       		.uleb128 0x25
 5190 11fc 7400     		.ascii	"t\000"
 5191 11fe 01       		.byte	0x1
 5192 11ff 7202     		.2byte	0x272
 5193 1201 D9000000 		.4byte	0xd9
 5194 1205 02       		.uleb128 0x2
 5195 1206 91       		.byte	0x91
 5196 1207 68       		.sleb128 -24
 5197 1208 22       		.uleb128 0x22
ARM GAS  C:\Users\JENNEW~1\AppData\Local\Temp\ccTobH5m.s 			page 106


 5198 1209 880B0000 		.4byte	.LASF241
 5199 120d 01       		.byte	0x1
 5200 120e 7202     		.2byte	0x272
 5201 1210 A2000000 		.4byte	0xa2
 5202 1214 02       		.uleb128 0x2
 5203 1215 91       		.byte	0x91
 5204 1216 77       		.sleb128 -9
 5205 1217 00       		.byte	0
 5206 1218 13       		.uleb128 0x13
 5207 1219 28120000 		.4byte	0x1228
 5208 121d 28120000 		.4byte	0x1228
 5209 1221 14       		.uleb128 0x14
 5210 1222 F5000000 		.4byte	0xf5
 5211 1226 0F       		.byte	0xf
 5212 1227 00       		.byte	0
 5213 1228 07       		.uleb128 0x7
 5214 1229 02080000 		.4byte	0x802
 5215 122d 1B       		.uleb128 0x1b
 5216 122e F0070000 		.4byte	.LASF242
 5217 1232 01       		.byte	0x1
 5218 1233 3A       		.byte	0x3a
 5219 1234 3E120000 		.4byte	0x123e
 5220 1238 05       		.uleb128 0x5
 5221 1239 03       		.byte	0x3
 5222 123a 00000000 		.4byte	parent_of
 5223 123e 07       		.uleb128 0x7
 5224 123f 18120000 		.4byte	0x1218
 5225 1243 13       		.uleb128 0x13
 5226 1244 53120000 		.4byte	0x1253
 5227 1248 53120000 		.4byte	0x1253
 5228 124c 14       		.uleb128 0x14
 5229 124d F5000000 		.4byte	0xf5
 5230 1251 0F       		.byte	0xf
 5231 1252 00       		.byte	0
 5232 1253 07       		.uleb128 0x7
 5233 1254 D1090000 		.4byte	0x9d1
 5234 1258 1B       		.uleb128 0x1b
 5235 1259 96020000 		.4byte	.LASF243
 5236 125d 01       		.byte	0x1
 5237 125e 6D       		.byte	0x6d
 5238 125f 69120000 		.4byte	0x1269
 5239 1263 05       		.uleb128 0x5
 5240 1264 03       		.byte	0x3
 5241 1265 10000000 		.4byte	on_entry
 5242 1269 07       		.uleb128 0x7
 5243 126a 43120000 		.4byte	0x1243
 5244 126e 1B       		.uleb128 0x1b
 5245 126f 82030000 		.4byte	.LASF244
 5246 1273 01       		.byte	0x1
 5247 1274 7F       		.byte	0x7f
 5248 1275 7F120000 		.4byte	0x127f
 5249 1279 05       		.uleb128 0x5
 5250 127a 03       		.byte	0x3
 5251 127b 50000000 		.4byte	on_exit
 5252 127f 07       		.uleb128 0x7
 5253 1280 43120000 		.4byte	0x1243
 5254 1284 13       		.uleb128 0x13
ARM GAS  C:\Users\JENNEW~1\AppData\Local\Temp\ccTobH5m.s 			page 107


 5255 1285 94120000 		.4byte	0x1294
 5256 1289 94120000 		.4byte	0x1294
 5257 128d 14       		.uleb128 0x14
 5258 128e F5000000 		.4byte	0xf5
 5259 1292 0F       		.byte	0xf
 5260 1293 00       		.byte	0
 5261 1294 07       		.uleb128 0x7
 5262 1295 F3090000 		.4byte	0x9f3
 5263 1299 1B       		.uleb128 0x1b
 5264 129a A6020000 		.4byte	.LASF245
 5265 129e 01       		.byte	0x1
 5266 129f 91       		.byte	0x91
 5267 12a0 AA120000 		.4byte	0x12aa
 5268 12a4 05       		.uleb128 0x5
 5269 12a5 03       		.byte	0x3
 5270 12a6 90000000 		.4byte	on_key
 5271 12aa 07       		.uleb128 0x7
 5272 12ab 84120000 		.4byte	0x1284
 5273 12af 13       		.uleb128 0x13
 5274 12b0 BF120000 		.4byte	0x12bf
 5275 12b4 BF120000 		.4byte	0x12bf
 5276 12b8 14       		.uleb128 0x14
 5277 12b9 F5000000 		.4byte	0xf5
 5278 12bd 0F       		.byte	0xf
 5279 12be 00       		.byte	0
 5280 12bf 07       		.uleb128 0x7
 5281 12c0 180A0000 		.4byte	0xa18
 5282 12c4 1B       		.uleb128 0x1b
 5283 12c5 6D0A0000 		.4byte	.LASF246
 5284 12c9 01       		.byte	0x1
 5285 12ca 9F       		.byte	0x9f
 5286 12cb D5120000 		.4byte	0x12d5
 5287 12cf 05       		.uleb128 0x5
 5288 12d0 03       		.byte	0x3
 5289 12d1 D0000000 		.4byte	on_build
 5290 12d5 07       		.uleb128 0x7
 5291 12d6 AF120000 		.4byte	0x12af
 5292 12da 13       		.uleb128 0x13
 5293 12db EA120000 		.4byte	0x12ea
 5294 12df EA120000 		.4byte	0x12ea
 5295 12e3 14       		.uleb128 0x14
 5296 12e4 F5000000 		.4byte	0xf5
 5297 12e8 0F       		.byte	0xf
 5298 12e9 00       		.byte	0
 5299 12ea 07       		.uleb128 0x7
 5300 12eb FE000000 		.4byte	0xfe
 5301 12ef 22       		.uleb128 0x22
 5302 12f0 54040000 		.4byte	.LASF247
 5303 12f4 01       		.byte	0x1
 5304 12f5 0601     		.2byte	0x106
 5305 12f7 01130000 		.4byte	0x1301
 5306 12fb 05       		.uleb128 0x5
 5307 12fc 03       		.byte	0x3
 5308 12fd E0010000 		.4byte	state_names
 5309 1301 07       		.uleb128 0x7
 5310 1302 DA120000 		.4byte	0x12da
 5311 1306 2A       		.uleb128 0x2a
ARM GAS  C:\Users\JENNEW~1\AppData\Local\Temp\ccTobH5m.s 			page 108


 5312 1307 80070000 		.4byte	.LASF248
 5313 130b 0C       		.byte	0xc
 5314 130c 1207     		.2byte	0x712
 5315 130e 12130000 		.4byte	0x1312
 5316 1312 08       		.uleb128 0x8
 5317 1313 C3000000 		.4byte	0xc3
 5318 1317 2B       		.uleb128 0x2b
 5319 1318 AD030000 		.4byte	.LASF249
 5320 131c 01       		.byte	0x1
 5321 131d 35       		.byte	0x35
 5322 131e 09010000 		.4byte	0x109
 5323 1322 00       		.byte	0
 5324              		.section	.debug_abbrev,"",%progbits
 5325              	.Ldebug_abbrev0:
 5326 0000 01       		.uleb128 0x1
 5327 0001 11       		.uleb128 0x11
 5328 0002 01       		.byte	0x1
 5329 0003 25       		.uleb128 0x25
 5330 0004 0E       		.uleb128 0xe
 5331 0005 13       		.uleb128 0x13
 5332 0006 0B       		.uleb128 0xb
 5333 0007 03       		.uleb128 0x3
 5334 0008 0E       		.uleb128 0xe
 5335 0009 1B       		.uleb128 0x1b
 5336 000a 0E       		.uleb128 0xe
 5337 000b 55       		.uleb128 0x55
 5338 000c 17       		.uleb128 0x17
 5339 000d 11       		.uleb128 0x11
 5340 000e 01       		.uleb128 0x1
 5341 000f 10       		.uleb128 0x10
 5342 0010 17       		.uleb128 0x17
 5343 0011 00       		.byte	0
 5344 0012 00       		.byte	0
 5345 0013 02       		.uleb128 0x2
 5346 0014 24       		.uleb128 0x24
 5347 0015 00       		.byte	0
 5348 0016 0B       		.uleb128 0xb
 5349 0017 0B       		.uleb128 0xb
 5350 0018 3E       		.uleb128 0x3e
 5351 0019 0B       		.uleb128 0xb
 5352 001a 03       		.uleb128 0x3
 5353 001b 0E       		.uleb128 0xe
 5354 001c 00       		.byte	0
 5355 001d 00       		.byte	0
 5356 001e 03       		.uleb128 0x3
 5357 001f 16       		.uleb128 0x16
 5358 0020 00       		.byte	0
 5359 0021 03       		.uleb128 0x3
 5360 0022 0E       		.uleb128 0xe
 5361 0023 3A       		.uleb128 0x3a
 5362 0024 0B       		.uleb128 0xb
 5363 0025 3B       		.uleb128 0x3b
 5364 0026 0B       		.uleb128 0xb
 5365 0027 49       		.uleb128 0x49
 5366 0028 13       		.uleb128 0x13
 5367 0029 00       		.byte	0
 5368 002a 00       		.byte	0
ARM GAS  C:\Users\JENNEW~1\AppData\Local\Temp\ccTobH5m.s 			page 109


 5369 002b 04       		.uleb128 0x4
 5370 002c 24       		.uleb128 0x24
 5371 002d 00       		.byte	0
 5372 002e 0B       		.uleb128 0xb
 5373 002f 0B       		.uleb128 0xb
 5374 0030 3E       		.uleb128 0x3e
 5375 0031 0B       		.uleb128 0xb
 5376 0032 03       		.uleb128 0x3
 5377 0033 08       		.uleb128 0x8
 5378 0034 00       		.byte	0
 5379 0035 00       		.byte	0
 5380 0036 05       		.uleb128 0x5
 5381 0037 0F       		.uleb128 0xf
 5382 0038 00       		.byte	0
 5383 0039 0B       		.uleb128 0xb
 5384 003a 0B       		.uleb128 0xb
 5385 003b 00       		.byte	0
 5386 003c 00       		.byte	0
 5387 003d 06       		.uleb128 0x6
 5388 003e 0F       		.uleb128 0xf
 5389 003f 00       		.byte	0
 5390 0040 0B       		.uleb128 0xb
 5391 0041 0B       		.uleb128 0xb
 5392 0042 49       		.uleb128 0x49
 5393 0043 13       		.uleb128 0x13
 5394 0044 00       		.byte	0
 5395 0045 00       		.byte	0
 5396 0046 07       		.uleb128 0x7
 5397 0047 26       		.uleb128 0x26
 5398 0048 00       		.byte	0
 5399 0049 49       		.uleb128 0x49
 5400 004a 13       		.uleb128 0x13
 5401 004b 00       		.byte	0
 5402 004c 00       		.byte	0
 5403 004d 08       		.uleb128 0x8
 5404 004e 35       		.uleb128 0x35
 5405 004f 00       		.byte	0
 5406 0050 49       		.uleb128 0x49
 5407 0051 13       		.uleb128 0x13
 5408 0052 00       		.byte	0
 5409 0053 00       		.byte	0
 5410 0054 09       		.uleb128 0x9
 5411 0055 04       		.uleb128 0x4
 5412 0056 01       		.byte	0x1
 5413 0057 0B       		.uleb128 0xb
 5414 0058 0B       		.uleb128 0xb
 5415 0059 49       		.uleb128 0x49
 5416 005a 13       		.uleb128 0x13
 5417 005b 3A       		.uleb128 0x3a
 5418 005c 0B       		.uleb128 0xb
 5419 005d 3B       		.uleb128 0x3b
 5420 005e 0B       		.uleb128 0xb
 5421 005f 01       		.uleb128 0x1
 5422 0060 13       		.uleb128 0x13
 5423 0061 00       		.byte	0
 5424 0062 00       		.byte	0
 5425 0063 0A       		.uleb128 0xa
ARM GAS  C:\Users\JENNEW~1\AppData\Local\Temp\ccTobH5m.s 			page 110


 5426 0064 28       		.uleb128 0x28
 5427 0065 00       		.byte	0
 5428 0066 03       		.uleb128 0x3
 5429 0067 0E       		.uleb128 0xe
 5430 0068 1C       		.uleb128 0x1c
 5431 0069 0B       		.uleb128 0xb
 5432 006a 00       		.byte	0
 5433 006b 00       		.byte	0
 5434 006c 0B       		.uleb128 0xb
 5435 006d 13       		.uleb128 0x13
 5436 006e 01       		.byte	0x1
 5437 006f 0B       		.uleb128 0xb
 5438 0070 0B       		.uleb128 0xb
 5439 0071 3A       		.uleb128 0x3a
 5440 0072 0B       		.uleb128 0xb
 5441 0073 3B       		.uleb128 0x3b
 5442 0074 0B       		.uleb128 0xb
 5443 0075 01       		.uleb128 0x1
 5444 0076 13       		.uleb128 0x13
 5445 0077 00       		.byte	0
 5446 0078 00       		.byte	0
 5447 0079 0C       		.uleb128 0xc
 5448 007a 0D       		.uleb128 0xd
 5449 007b 00       		.byte	0
 5450 007c 03       		.uleb128 0x3
 5451 007d 08       		.uleb128 0x8
 5452 007e 3A       		.uleb128 0x3a
 5453 007f 0B       		.uleb128 0xb
 5454 0080 3B       		.uleb128 0x3b
 5455 0081 0B       		.uleb128 0xb
 5456 0082 49       		.uleb128 0x49
 5457 0083 13       		.uleb128 0x13
 5458 0084 38       		.uleb128 0x38
 5459 0085 0B       		.uleb128 0xb
 5460 0086 00       		.byte	0
 5461 0087 00       		.byte	0
 5462 0088 0D       		.uleb128 0xd
 5463 0089 0D       		.uleb128 0xd
 5464 008a 00       		.byte	0
 5465 008b 03       		.uleb128 0x3
 5466 008c 0E       		.uleb128 0xe
 5467 008d 3A       		.uleb128 0x3a
 5468 008e 0B       		.uleb128 0xb
 5469 008f 3B       		.uleb128 0x3b
 5470 0090 0B       		.uleb128 0xb
 5471 0091 49       		.uleb128 0x49
 5472 0092 13       		.uleb128 0x13
 5473 0093 38       		.uleb128 0x38
 5474 0094 0B       		.uleb128 0xb
 5475 0095 00       		.byte	0
 5476 0096 00       		.byte	0
 5477 0097 0E       		.uleb128 0xe
 5478 0098 15       		.uleb128 0x15
 5479 0099 01       		.byte	0x1
 5480 009a 27       		.uleb128 0x27
 5481 009b 19       		.uleb128 0x19
 5482 009c 01       		.uleb128 0x1
ARM GAS  C:\Users\JENNEW~1\AppData\Local\Temp\ccTobH5m.s 			page 111


 5483 009d 13       		.uleb128 0x13
 5484 009e 00       		.byte	0
 5485 009f 00       		.byte	0
 5486 00a0 0F       		.uleb128 0xf
 5487 00a1 05       		.uleb128 0x5
 5488 00a2 00       		.byte	0
 5489 00a3 49       		.uleb128 0x49
 5490 00a4 13       		.uleb128 0x13
 5491 00a5 00       		.byte	0
 5492 00a6 00       		.byte	0
 5493 00a7 10       		.uleb128 0x10
 5494 00a8 15       		.uleb128 0x15
 5495 00a9 01       		.byte	0x1
 5496 00aa 27       		.uleb128 0x27
 5497 00ab 19       		.uleb128 0x19
 5498 00ac 49       		.uleb128 0x49
 5499 00ad 13       		.uleb128 0x13
 5500 00ae 01       		.uleb128 0x1
 5501 00af 13       		.uleb128 0x13
 5502 00b0 00       		.byte	0
 5503 00b1 00       		.byte	0
 5504 00b2 11       		.uleb128 0x11
 5505 00b3 13       		.uleb128 0x13
 5506 00b4 01       		.byte	0x1
 5507 00b5 0B       		.uleb128 0xb
 5508 00b6 05       		.uleb128 0x5
 5509 00b7 3A       		.uleb128 0x3a
 5510 00b8 0B       		.uleb128 0xb
 5511 00b9 3B       		.uleb128 0x3b
 5512 00ba 0B       		.uleb128 0xb
 5513 00bb 01       		.uleb128 0x1
 5514 00bc 13       		.uleb128 0x13
 5515 00bd 00       		.byte	0
 5516 00be 00       		.byte	0
 5517 00bf 12       		.uleb128 0x12
 5518 00c0 0D       		.uleb128 0xd
 5519 00c1 00       		.byte	0
 5520 00c2 03       		.uleb128 0x3
 5521 00c3 0E       		.uleb128 0xe
 5522 00c4 3A       		.uleb128 0x3a
 5523 00c5 0B       		.uleb128 0xb
 5524 00c6 3B       		.uleb128 0x3b
 5525 00c7 0B       		.uleb128 0xb
 5526 00c8 49       		.uleb128 0x49
 5527 00c9 13       		.uleb128 0x13
 5528 00ca 38       		.uleb128 0x38
 5529 00cb 05       		.uleb128 0x5
 5530 00cc 00       		.byte	0
 5531 00cd 00       		.byte	0
 5532 00ce 13       		.uleb128 0x13
 5533 00cf 01       		.uleb128 0x1
 5534 00d0 01       		.byte	0x1
 5535 00d1 49       		.uleb128 0x49
 5536 00d2 13       		.uleb128 0x13
 5537 00d3 01       		.uleb128 0x1
 5538 00d4 13       		.uleb128 0x13
 5539 00d5 00       		.byte	0
ARM GAS  C:\Users\JENNEW~1\AppData\Local\Temp\ccTobH5m.s 			page 112


 5540 00d6 00       		.byte	0
 5541 00d7 14       		.uleb128 0x14
 5542 00d8 21       		.uleb128 0x21
 5543 00d9 00       		.byte	0
 5544 00da 49       		.uleb128 0x49
 5545 00db 13       		.uleb128 0x13
 5546 00dc 2F       		.uleb128 0x2f
 5547 00dd 0B       		.uleb128 0xb
 5548 00de 00       		.byte	0
 5549 00df 00       		.byte	0
 5550 00e0 15       		.uleb128 0x15
 5551 00e1 2E       		.uleb128 0x2e
 5552 00e2 01       		.byte	0x1
 5553 00e3 03       		.uleb128 0x3
 5554 00e4 0E       		.uleb128 0xe
 5555 00e5 3A       		.uleb128 0x3a
 5556 00e6 0B       		.uleb128 0xb
 5557 00e7 3B       		.uleb128 0x3b
 5558 00e8 0B       		.uleb128 0xb
 5559 00e9 27       		.uleb128 0x27
 5560 00ea 19       		.uleb128 0x19
 5561 00eb 49       		.uleb128 0x49
 5562 00ec 13       		.uleb128 0x13
 5563 00ed 11       		.uleb128 0x11
 5564 00ee 01       		.uleb128 0x1
 5565 00ef 12       		.uleb128 0x12
 5566 00f0 06       		.uleb128 0x6
 5567 00f1 40       		.uleb128 0x40
 5568 00f2 18       		.uleb128 0x18
 5569 00f3 9742     		.uleb128 0x2117
 5570 00f5 19       		.uleb128 0x19
 5571 00f6 01       		.uleb128 0x1
 5572 00f7 13       		.uleb128 0x13
 5573 00f8 00       		.byte	0
 5574 00f9 00       		.byte	0
 5575 00fa 16       		.uleb128 0x16
 5576 00fb 05       		.uleb128 0x5
 5577 00fc 00       		.byte	0
 5578 00fd 03       		.uleb128 0x3
 5579 00fe 08       		.uleb128 0x8
 5580 00ff 3A       		.uleb128 0x3a
 5581 0100 0B       		.uleb128 0xb
 5582 0101 3B       		.uleb128 0x3b
 5583 0102 0B       		.uleb128 0xb
 5584 0103 49       		.uleb128 0x49
 5585 0104 13       		.uleb128 0x13
 5586 0105 02       		.uleb128 0x2
 5587 0106 18       		.uleb128 0x18
 5588 0107 00       		.byte	0
 5589 0108 00       		.byte	0
 5590 0109 17       		.uleb128 0x17
 5591 010a 34       		.uleb128 0x34
 5592 010b 00       		.byte	0
 5593 010c 03       		.uleb128 0x3
 5594 010d 08       		.uleb128 0x8
 5595 010e 3A       		.uleb128 0x3a
 5596 010f 0B       		.uleb128 0xb
ARM GAS  C:\Users\JENNEW~1\AppData\Local\Temp\ccTobH5m.s 			page 113


 5597 0110 3B       		.uleb128 0x3b
 5598 0111 0B       		.uleb128 0xb
 5599 0112 49       		.uleb128 0x49
 5600 0113 13       		.uleb128 0x13
 5601 0114 02       		.uleb128 0x2
 5602 0115 18       		.uleb128 0x18
 5603 0116 00       		.byte	0
 5604 0117 00       		.byte	0
 5605 0118 18       		.uleb128 0x18
 5606 0119 2E       		.uleb128 0x2e
 5607 011a 01       		.byte	0x1
 5608 011b 03       		.uleb128 0x3
 5609 011c 08       		.uleb128 0x8
 5610 011d 3A       		.uleb128 0x3a
 5611 011e 0B       		.uleb128 0xb
 5612 011f 3B       		.uleb128 0x3b
 5613 0120 0B       		.uleb128 0xb
 5614 0121 27       		.uleb128 0x27
 5615 0122 19       		.uleb128 0x19
 5616 0123 49       		.uleb128 0x49
 5617 0124 13       		.uleb128 0x13
 5618 0125 11       		.uleb128 0x11
 5619 0126 01       		.uleb128 0x1
 5620 0127 12       		.uleb128 0x12
 5621 0128 06       		.uleb128 0x6
 5622 0129 40       		.uleb128 0x40
 5623 012a 18       		.uleb128 0x18
 5624 012b 9642     		.uleb128 0x2116
 5625 012d 19       		.uleb128 0x19
 5626 012e 01       		.uleb128 0x1
 5627 012f 13       		.uleb128 0x13
 5628 0130 00       		.byte	0
 5629 0131 00       		.byte	0
 5630 0132 19       		.uleb128 0x19
 5631 0133 2E       		.uleb128 0x2e
 5632 0134 01       		.byte	0x1
 5633 0135 03       		.uleb128 0x3
 5634 0136 0E       		.uleb128 0xe
 5635 0137 3A       		.uleb128 0x3a
 5636 0138 0B       		.uleb128 0xb
 5637 0139 3B       		.uleb128 0x3b
 5638 013a 0B       		.uleb128 0xb
 5639 013b 27       		.uleb128 0x27
 5640 013c 19       		.uleb128 0x19
 5641 013d 11       		.uleb128 0x11
 5642 013e 01       		.uleb128 0x1
 5643 013f 12       		.uleb128 0x12
 5644 0140 06       		.uleb128 0x6
 5645 0141 40       		.uleb128 0x40
 5646 0142 18       		.uleb128 0x18
 5647 0143 9642     		.uleb128 0x2116
 5648 0145 19       		.uleb128 0x19
 5649 0146 01       		.uleb128 0x1
 5650 0147 13       		.uleb128 0x13
 5651 0148 00       		.byte	0
 5652 0149 00       		.byte	0
 5653 014a 1A       		.uleb128 0x1a
ARM GAS  C:\Users\JENNEW~1\AppData\Local\Temp\ccTobH5m.s 			page 114


 5654 014b 05       		.uleb128 0x5
 5655 014c 00       		.byte	0
 5656 014d 03       		.uleb128 0x3
 5657 014e 0E       		.uleb128 0xe
 5658 014f 3A       		.uleb128 0x3a
 5659 0150 0B       		.uleb128 0xb
 5660 0151 3B       		.uleb128 0x3b
 5661 0152 0B       		.uleb128 0xb
 5662 0153 49       		.uleb128 0x49
 5663 0154 13       		.uleb128 0x13
 5664 0155 02       		.uleb128 0x2
 5665 0156 18       		.uleb128 0x18
 5666 0157 00       		.byte	0
 5667 0158 00       		.byte	0
 5668 0159 1B       		.uleb128 0x1b
 5669 015a 34       		.uleb128 0x34
 5670 015b 00       		.byte	0
 5671 015c 03       		.uleb128 0x3
 5672 015d 0E       		.uleb128 0xe
 5673 015e 3A       		.uleb128 0x3a
 5674 015f 0B       		.uleb128 0xb
 5675 0160 3B       		.uleb128 0x3b
 5676 0161 0B       		.uleb128 0xb
 5677 0162 49       		.uleb128 0x49
 5678 0163 13       		.uleb128 0x13
 5679 0164 02       		.uleb128 0x2
 5680 0165 18       		.uleb128 0x18
 5681 0166 00       		.byte	0
 5682 0167 00       		.byte	0
 5683 0168 1C       		.uleb128 0x1c
 5684 0169 0B       		.uleb128 0xb
 5685 016a 01       		.byte	0x1
 5686 016b 11       		.uleb128 0x11
 5687 016c 01       		.uleb128 0x1
 5688 016d 12       		.uleb128 0x12
 5689 016e 06       		.uleb128 0x6
 5690 016f 01       		.uleb128 0x1
 5691 0170 13       		.uleb128 0x13
 5692 0171 00       		.byte	0
 5693 0172 00       		.byte	0
 5694 0173 1D       		.uleb128 0x1d
 5695 0174 0B       		.uleb128 0xb
 5696 0175 01       		.byte	0x1
 5697 0176 11       		.uleb128 0x11
 5698 0177 01       		.uleb128 0x1
 5699 0178 12       		.uleb128 0x12
 5700 0179 06       		.uleb128 0x6
 5701 017a 00       		.byte	0
 5702 017b 00       		.byte	0
 5703 017c 1E       		.uleb128 0x1e
 5704 017d 2E       		.uleb128 0x2e
 5705 017e 01       		.byte	0x1
 5706 017f 3F       		.uleb128 0x3f
 5707 0180 19       		.uleb128 0x19
 5708 0181 03       		.uleb128 0x3
 5709 0182 0E       		.uleb128 0xe
 5710 0183 3A       		.uleb128 0x3a
ARM GAS  C:\Users\JENNEW~1\AppData\Local\Temp\ccTobH5m.s 			page 115


 5711 0184 0B       		.uleb128 0xb
 5712 0185 3B       		.uleb128 0x3b
 5713 0186 0B       		.uleb128 0xb
 5714 0187 27       		.uleb128 0x27
 5715 0188 19       		.uleb128 0x19
 5716 0189 11       		.uleb128 0x11
 5717 018a 01       		.uleb128 0x1
 5718 018b 12       		.uleb128 0x12
 5719 018c 06       		.uleb128 0x6
 5720 018d 40       		.uleb128 0x40
 5721 018e 18       		.uleb128 0x18
 5722 018f 9642     		.uleb128 0x2116
 5723 0191 19       		.uleb128 0x19
 5724 0192 01       		.uleb128 0x1
 5725 0193 13       		.uleb128 0x13
 5726 0194 00       		.byte	0
 5727 0195 00       		.byte	0
 5728 0196 1F       		.uleb128 0x1f
 5729 0197 2E       		.uleb128 0x2e
 5730 0198 01       		.byte	0x1
 5731 0199 3F       		.uleb128 0x3f
 5732 019a 19       		.uleb128 0x19
 5733 019b 03       		.uleb128 0x3
 5734 019c 0E       		.uleb128 0xe
 5735 019d 3A       		.uleb128 0x3a
 5736 019e 0B       		.uleb128 0xb
 5737 019f 3B       		.uleb128 0x3b
 5738 01a0 05       		.uleb128 0x5
 5739 01a1 27       		.uleb128 0x27
 5740 01a2 19       		.uleb128 0x19
 5741 01a3 49       		.uleb128 0x49
 5742 01a4 13       		.uleb128 0x13
 5743 01a5 11       		.uleb128 0x11
 5744 01a6 01       		.uleb128 0x1
 5745 01a7 12       		.uleb128 0x12
 5746 01a8 06       		.uleb128 0x6
 5747 01a9 40       		.uleb128 0x40
 5748 01aa 18       		.uleb128 0x18
 5749 01ab 9742     		.uleb128 0x2117
 5750 01ad 19       		.uleb128 0x19
 5751 01ae 01       		.uleb128 0x1
 5752 01af 13       		.uleb128 0x13
 5753 01b0 00       		.byte	0
 5754 01b1 00       		.byte	0
 5755 01b2 20       		.uleb128 0x20
 5756 01b3 05       		.uleb128 0x5
 5757 01b4 00       		.byte	0
 5758 01b5 03       		.uleb128 0x3
 5759 01b6 08       		.uleb128 0x8
 5760 01b7 3A       		.uleb128 0x3a
 5761 01b8 0B       		.uleb128 0xb
 5762 01b9 3B       		.uleb128 0x3b
 5763 01ba 05       		.uleb128 0x5
 5764 01bb 49       		.uleb128 0x49
 5765 01bc 13       		.uleb128 0x13
 5766 01bd 02       		.uleb128 0x2
 5767 01be 18       		.uleb128 0x18
ARM GAS  C:\Users\JENNEW~1\AppData\Local\Temp\ccTobH5m.s 			page 116


 5768 01bf 00       		.byte	0
 5769 01c0 00       		.byte	0
 5770 01c1 21       		.uleb128 0x21
 5771 01c2 2E       		.uleb128 0x2e
 5772 01c3 01       		.byte	0x1
 5773 01c4 3F       		.uleb128 0x3f
 5774 01c5 19       		.uleb128 0x19
 5775 01c6 03       		.uleb128 0x3
 5776 01c7 0E       		.uleb128 0xe
 5777 01c8 3A       		.uleb128 0x3a
 5778 01c9 0B       		.uleb128 0xb
 5779 01ca 3B       		.uleb128 0x3b
 5780 01cb 05       		.uleb128 0x5
 5781 01cc 27       		.uleb128 0x27
 5782 01cd 19       		.uleb128 0x19
 5783 01ce 11       		.uleb128 0x11
 5784 01cf 01       		.uleb128 0x1
 5785 01d0 12       		.uleb128 0x12
 5786 01d1 06       		.uleb128 0x6
 5787 01d2 40       		.uleb128 0x40
 5788 01d3 18       		.uleb128 0x18
 5789 01d4 9642     		.uleb128 0x2116
 5790 01d6 19       		.uleb128 0x19
 5791 01d7 01       		.uleb128 0x1
 5792 01d8 13       		.uleb128 0x13
 5793 01d9 00       		.byte	0
 5794 01da 00       		.byte	0
 5795 01db 22       		.uleb128 0x22
 5796 01dc 34       		.uleb128 0x34
 5797 01dd 00       		.byte	0
 5798 01de 03       		.uleb128 0x3
 5799 01df 0E       		.uleb128 0xe
 5800 01e0 3A       		.uleb128 0x3a
 5801 01e1 0B       		.uleb128 0xb
 5802 01e2 3B       		.uleb128 0x3b
 5803 01e3 05       		.uleb128 0x5
 5804 01e4 49       		.uleb128 0x49
 5805 01e5 13       		.uleb128 0x13
 5806 01e6 02       		.uleb128 0x2
 5807 01e7 18       		.uleb128 0x18
 5808 01e8 00       		.byte	0
 5809 01e9 00       		.byte	0
 5810 01ea 23       		.uleb128 0x23
 5811 01eb 2E       		.uleb128 0x2e
 5812 01ec 01       		.byte	0x1
 5813 01ed 03       		.uleb128 0x3
 5814 01ee 0E       		.uleb128 0xe
 5815 01ef 3A       		.uleb128 0x3a
 5816 01f0 0B       		.uleb128 0xb
 5817 01f1 3B       		.uleb128 0x3b
 5818 01f2 05       		.uleb128 0x5
 5819 01f3 27       		.uleb128 0x27
 5820 01f4 19       		.uleb128 0x19
 5821 01f5 11       		.uleb128 0x11
 5822 01f6 01       		.uleb128 0x1
 5823 01f7 12       		.uleb128 0x12
 5824 01f8 06       		.uleb128 0x6
ARM GAS  C:\Users\JENNEW~1\AppData\Local\Temp\ccTobH5m.s 			page 117


 5825 01f9 40       		.uleb128 0x40
 5826 01fa 18       		.uleb128 0x18
 5827 01fb 9642     		.uleb128 0x2116
 5828 01fd 19       		.uleb128 0x19
 5829 01fe 01       		.uleb128 0x1
 5830 01ff 13       		.uleb128 0x13
 5831 0200 00       		.byte	0
 5832 0201 00       		.byte	0
 5833 0202 24       		.uleb128 0x24
 5834 0203 2E       		.uleb128 0x2e
 5835 0204 01       		.byte	0x1
 5836 0205 03       		.uleb128 0x3
 5837 0206 0E       		.uleb128 0xe
 5838 0207 3A       		.uleb128 0x3a
 5839 0208 0B       		.uleb128 0xb
 5840 0209 3B       		.uleb128 0x3b
 5841 020a 05       		.uleb128 0x5
 5842 020b 27       		.uleb128 0x27
 5843 020c 19       		.uleb128 0x19
 5844 020d 11       		.uleb128 0x11
 5845 020e 01       		.uleb128 0x1
 5846 020f 12       		.uleb128 0x12
 5847 0210 06       		.uleb128 0x6
 5848 0211 40       		.uleb128 0x40
 5849 0212 18       		.uleb128 0x18
 5850 0213 9742     		.uleb128 0x2117
 5851 0215 19       		.uleb128 0x19
 5852 0216 01       		.uleb128 0x1
 5853 0217 13       		.uleb128 0x13
 5854 0218 00       		.byte	0
 5855 0219 00       		.byte	0
 5856 021a 25       		.uleb128 0x25
 5857 021b 34       		.uleb128 0x34
 5858 021c 00       		.byte	0
 5859 021d 03       		.uleb128 0x3
 5860 021e 08       		.uleb128 0x8
 5861 021f 3A       		.uleb128 0x3a
 5862 0220 0B       		.uleb128 0xb
 5863 0221 3B       		.uleb128 0x3b
 5864 0222 05       		.uleb128 0x5
 5865 0223 49       		.uleb128 0x49
 5866 0224 13       		.uleb128 0x13
 5867 0225 02       		.uleb128 0x2
 5868 0226 18       		.uleb128 0x18
 5869 0227 00       		.byte	0
 5870 0228 00       		.byte	0
 5871 0229 26       		.uleb128 0x26
 5872 022a 2E       		.uleb128 0x2e
 5873 022b 01       		.byte	0x1
 5874 022c 03       		.uleb128 0x3
 5875 022d 0E       		.uleb128 0xe
 5876 022e 3A       		.uleb128 0x3a
 5877 022f 0B       		.uleb128 0xb
 5878 0230 3B       		.uleb128 0x3b
 5879 0231 05       		.uleb128 0x5
 5880 0232 27       		.uleb128 0x27
 5881 0233 19       		.uleb128 0x19
ARM GAS  C:\Users\JENNEW~1\AppData\Local\Temp\ccTobH5m.s 			page 118


 5882 0234 49       		.uleb128 0x49
 5883 0235 13       		.uleb128 0x13
 5884 0236 11       		.uleb128 0x11
 5885 0237 01       		.uleb128 0x1
 5886 0238 12       		.uleb128 0x12
 5887 0239 06       		.uleb128 0x6
 5888 023a 40       		.uleb128 0x40
 5889 023b 18       		.uleb128 0x18
 5890 023c 9742     		.uleb128 0x2117
 5891 023e 19       		.uleb128 0x19
 5892 023f 01       		.uleb128 0x1
 5893 0240 13       		.uleb128 0x13
 5894 0241 00       		.byte	0
 5895 0242 00       		.byte	0
 5896 0243 27       		.uleb128 0x27
 5897 0244 2E       		.uleb128 0x2e
 5898 0245 01       		.byte	0x1
 5899 0246 03       		.uleb128 0x3
 5900 0247 0E       		.uleb128 0xe
 5901 0248 3A       		.uleb128 0x3a
 5902 0249 0B       		.uleb128 0xb
 5903 024a 3B       		.uleb128 0x3b
 5904 024b 05       		.uleb128 0x5
 5905 024c 27       		.uleb128 0x27
 5906 024d 19       		.uleb128 0x19
 5907 024e 49       		.uleb128 0x49
 5908 024f 13       		.uleb128 0x13
 5909 0250 11       		.uleb128 0x11
 5910 0251 01       		.uleb128 0x1
 5911 0252 12       		.uleb128 0x12
 5912 0253 06       		.uleb128 0x6
 5913 0254 40       		.uleb128 0x40
 5914 0255 18       		.uleb128 0x18
 5915 0256 9642     		.uleb128 0x2116
 5916 0258 19       		.uleb128 0x19
 5917 0259 01       		.uleb128 0x1
 5918 025a 13       		.uleb128 0x13
 5919 025b 00       		.byte	0
 5920 025c 00       		.byte	0
 5921 025d 28       		.uleb128 0x28
 5922 025e 05       		.uleb128 0x5
 5923 025f 00       		.byte	0
 5924 0260 03       		.uleb128 0x3
 5925 0261 0E       		.uleb128 0xe
 5926 0262 3A       		.uleb128 0x3a
 5927 0263 0B       		.uleb128 0xb
 5928 0264 3B       		.uleb128 0x3b
 5929 0265 05       		.uleb128 0x5
 5930 0266 49       		.uleb128 0x49
 5931 0267 13       		.uleb128 0x13
 5932 0268 02       		.uleb128 0x2
 5933 0269 18       		.uleb128 0x18
 5934 026a 00       		.byte	0
 5935 026b 00       		.byte	0
 5936 026c 29       		.uleb128 0x29
 5937 026d 2E       		.uleb128 0x2e
 5938 026e 01       		.byte	0x1
ARM GAS  C:\Users\JENNEW~1\AppData\Local\Temp\ccTobH5m.s 			page 119


 5939 026f 3F       		.uleb128 0x3f
 5940 0270 19       		.uleb128 0x19
 5941 0271 03       		.uleb128 0x3
 5942 0272 0E       		.uleb128 0xe
 5943 0273 3A       		.uleb128 0x3a
 5944 0274 0B       		.uleb128 0xb
 5945 0275 3B       		.uleb128 0x3b
 5946 0276 05       		.uleb128 0x5
 5947 0277 27       		.uleb128 0x27
 5948 0278 19       		.uleb128 0x19
 5949 0279 49       		.uleb128 0x49
 5950 027a 13       		.uleb128 0x13
 5951 027b 11       		.uleb128 0x11
 5952 027c 01       		.uleb128 0x1
 5953 027d 12       		.uleb128 0x12
 5954 027e 06       		.uleb128 0x6
 5955 027f 40       		.uleb128 0x40
 5956 0280 18       		.uleb128 0x18
 5957 0281 9642     		.uleb128 0x2116
 5958 0283 19       		.uleb128 0x19
 5959 0284 01       		.uleb128 0x1
 5960 0285 13       		.uleb128 0x13
 5961 0286 00       		.byte	0
 5962 0287 00       		.byte	0
 5963 0288 2A       		.uleb128 0x2a
 5964 0289 34       		.uleb128 0x34
 5965 028a 00       		.byte	0
 5966 028b 03       		.uleb128 0x3
 5967 028c 0E       		.uleb128 0xe
 5968 028d 3A       		.uleb128 0x3a
 5969 028e 0B       		.uleb128 0xb
 5970 028f 3B       		.uleb128 0x3b
 5971 0290 05       		.uleb128 0x5
 5972 0291 49       		.uleb128 0x49
 5973 0292 13       		.uleb128 0x13
 5974 0293 3F       		.uleb128 0x3f
 5975 0294 19       		.uleb128 0x19
 5976 0295 3C       		.uleb128 0x3c
 5977 0296 19       		.uleb128 0x19
 5978 0297 00       		.byte	0
 5979 0298 00       		.byte	0
 5980 0299 2B       		.uleb128 0x2b
 5981 029a 34       		.uleb128 0x34
 5982 029b 00       		.byte	0
 5983 029c 03       		.uleb128 0x3
 5984 029d 0E       		.uleb128 0xe
 5985 029e 3A       		.uleb128 0x3a
 5986 029f 0B       		.uleb128 0xb
 5987 02a0 3B       		.uleb128 0x3b
 5988 02a1 0B       		.uleb128 0xb
 5989 02a2 49       		.uleb128 0x49
 5990 02a3 13       		.uleb128 0x13
 5991 02a4 3F       		.uleb128 0x3f
 5992 02a5 19       		.uleb128 0x19
 5993 02a6 3C       		.uleb128 0x3c
 5994 02a7 19       		.uleb128 0x19
 5995 02a8 00       		.byte	0
ARM GAS  C:\Users\JENNEW~1\AppData\Local\Temp\ccTobH5m.s 			page 120


 5996 02a9 00       		.byte	0
 5997 02aa 00       		.byte	0
 5998              		.section	.debug_aranges,"",%progbits
 5999 0000 0C010000 		.4byte	0x10c
 6000 0004 0200     		.2byte	0x2
 6001 0006 00000000 		.4byte	.Ldebug_info0
 6002 000a 04       		.byte	0x4
 6003 000b 00       		.byte	0
 6004 000c 0000     		.2byte	0
 6005 000e 0000     		.2byte	0
 6006 0010 00000000 		.4byte	.LFB64
 6007 0014 34000000 		.4byte	.LFE64-.LFB64
 6008 0018 00000000 		.4byte	.LFB65
 6009 001c 80000000 		.4byte	.LFE65-.LFB65
 6010 0020 00000000 		.4byte	.LFB66
 6011 0024 F0000000 		.4byte	.LFE66-.LFB66
 6012 0028 00000000 		.4byte	.LFB67
 6013 002c 26000000 		.4byte	.LFE67-.LFB67
 6014 0030 00000000 		.4byte	.LFB68
 6015 0034 68000000 		.4byte	.LFE68-.LFB68
 6016 0038 00000000 		.4byte	.LFB69
 6017 003c 20000000 		.4byte	.LFE69-.LFB69
 6018 0040 00000000 		.4byte	.LFB70
 6019 0044 80000000 		.4byte	.LFE70-.LFB70
 6020 0048 00000000 		.4byte	.LFB71
 6021 004c 1C000000 		.4byte	.LFE71-.LFB71
 6022 0050 00000000 		.4byte	.LFB72
 6023 0054 1C000000 		.4byte	.LFE72-.LFB72
 6024 0058 00000000 		.4byte	.LFB73
 6025 005c 20000000 		.4byte	.LFE73-.LFB73
 6026 0060 00000000 		.4byte	.LFB74
 6027 0064 18000000 		.4byte	.LFE74-.LFB74
 6028 0068 00000000 		.4byte	.LFB75
 6029 006c 1C000000 		.4byte	.LFE75-.LFB75
 6030 0070 00000000 		.4byte	.LFB76
 6031 0074 DC000000 		.4byte	.LFE76-.LFB76
 6032 0078 00000000 		.4byte	.LFB77
 6033 007c 40000000 		.4byte	.LFE77-.LFB77
 6034 0080 00000000 		.4byte	.LFB78
 6035 0084 80000000 		.4byte	.LFE78-.LFB78
 6036 0088 00000000 		.4byte	.LFB79
 6037 008c 54000000 		.4byte	.LFE79-.LFB79
 6038 0090 00000000 		.4byte	.LFB80
 6039 0094 6C000000 		.4byte	.LFE80-.LFB80
 6040 0098 00000000 		.4byte	.LFB81
 6041 009c 1C000000 		.4byte	.LFE81-.LFB81
 6042 00a0 00000000 		.4byte	.LFB82
 6043 00a4 94000000 		.4byte	.LFE82-.LFB82
 6044 00a8 00000000 		.4byte	.LFB83
 6045 00ac 20000000 		.4byte	.LFE83-.LFB83
 6046 00b0 00000000 		.4byte	.LFB84
 6047 00b4 48000000 		.4byte	.LFE84-.LFB84
 6048 00b8 00000000 		.4byte	.LFB85
 6049 00bc 3E000000 		.4byte	.LFE85-.LFB85
 6050 00c0 00000000 		.4byte	.LFB86
 6051 00c4 A0000000 		.4byte	.LFE86-.LFB86
 6052 00c8 00000000 		.4byte	.LFB87
ARM GAS  C:\Users\JENNEW~1\AppData\Local\Temp\ccTobH5m.s 			page 121


 6053 00cc 1C000000 		.4byte	.LFE87-.LFB87
 6054 00d0 00000000 		.4byte	.LFB88
 6055 00d4 1A000000 		.4byte	.LFE88-.LFB88
 6056 00d8 00000000 		.4byte	.LFB89
 6057 00dc A4000000 		.4byte	.LFE89-.LFB89
 6058 00e0 00000000 		.4byte	.LFB90
 6059 00e4 28000000 		.4byte	.LFE90-.LFB90
 6060 00e8 00000000 		.4byte	.LFB91
 6061 00ec 3C000000 		.4byte	.LFE91-.LFB91
 6062 00f0 00000000 		.4byte	.LFB92
 6063 00f4 A0010000 		.4byte	.LFE92-.LFB92
 6064 00f8 00000000 		.4byte	.LFB93
 6065 00fc 24020000 		.4byte	.LFE93-.LFB93
 6066 0100 00000000 		.4byte	.LFB94
 6067 0104 C0000000 		.4byte	.LFE94-.LFB94
 6068 0108 00000000 		.4byte	0
 6069 010c 00000000 		.4byte	0
 6070              		.section	.debug_ranges,"",%progbits
 6071              	.Ldebug_ranges0:
 6072 0000 00000000 		.4byte	.LFB64
 6073 0004 34000000 		.4byte	.LFE64
 6074 0008 00000000 		.4byte	.LFB65
 6075 000c 80000000 		.4byte	.LFE65
 6076 0010 00000000 		.4byte	.LFB66
 6077 0014 F0000000 		.4byte	.LFE66
 6078 0018 00000000 		.4byte	.LFB67
 6079 001c 26000000 		.4byte	.LFE67
 6080 0020 00000000 		.4byte	.LFB68
 6081 0024 68000000 		.4byte	.LFE68
 6082 0028 00000000 		.4byte	.LFB69
 6083 002c 20000000 		.4byte	.LFE69
 6084 0030 00000000 		.4byte	.LFB70
 6085 0034 80000000 		.4byte	.LFE70
 6086 0038 00000000 		.4byte	.LFB71
 6087 003c 1C000000 		.4byte	.LFE71
 6088 0040 00000000 		.4byte	.LFB72
 6089 0044 1C000000 		.4byte	.LFE72
 6090 0048 00000000 		.4byte	.LFB73
 6091 004c 20000000 		.4byte	.LFE73
 6092 0050 00000000 		.4byte	.LFB74
 6093 0054 18000000 		.4byte	.LFE74
 6094 0058 00000000 		.4byte	.LFB75
 6095 005c 1C000000 		.4byte	.LFE75
 6096 0060 00000000 		.4byte	.LFB76
 6097 0064 DC000000 		.4byte	.LFE76
 6098 0068 00000000 		.4byte	.LFB77
 6099 006c 40000000 		.4byte	.LFE77
 6100 0070 00000000 		.4byte	.LFB78
 6101 0074 80000000 		.4byte	.LFE78
 6102 0078 00000000 		.4byte	.LFB79
 6103 007c 54000000 		.4byte	.LFE79
 6104 0080 00000000 		.4byte	.LFB80
 6105 0084 6C000000 		.4byte	.LFE80
 6106 0088 00000000 		.4byte	.LFB81
 6107 008c 1C000000 		.4byte	.LFE81
 6108 0090 00000000 		.4byte	.LFB82
 6109 0094 94000000 		.4byte	.LFE82
ARM GAS  C:\Users\JENNEW~1\AppData\Local\Temp\ccTobH5m.s 			page 122


 6110 0098 00000000 		.4byte	.LFB83
 6111 009c 20000000 		.4byte	.LFE83
 6112 00a0 00000000 		.4byte	.LFB84
 6113 00a4 48000000 		.4byte	.LFE84
 6114 00a8 00000000 		.4byte	.LFB85
 6115 00ac 3E000000 		.4byte	.LFE85
 6116 00b0 00000000 		.4byte	.LFB86
 6117 00b4 A0000000 		.4byte	.LFE86
 6118 00b8 00000000 		.4byte	.LFB87
 6119 00bc 1C000000 		.4byte	.LFE87
 6120 00c0 00000000 		.4byte	.LFB88
 6121 00c4 1A000000 		.4byte	.LFE88
 6122 00c8 00000000 		.4byte	.LFB89
 6123 00cc A4000000 		.4byte	.LFE89
 6124 00d0 00000000 		.4byte	.LFB90
 6125 00d4 28000000 		.4byte	.LFE90
 6126 00d8 00000000 		.4byte	.LFB91
 6127 00dc 3C000000 		.4byte	.LFE91
 6128 00e0 00000000 		.4byte	.LFB92
 6129 00e4 A0010000 		.4byte	.LFE92
 6130 00e8 00000000 		.4byte	.LFB93
 6131 00ec 24020000 		.4byte	.LFE93
 6132 00f0 00000000 		.4byte	.LFB94
 6133 00f4 C0000000 		.4byte	.LFE94
 6134 00f8 00000000 		.4byte	0
 6135 00fc 00000000 		.4byte	0
 6136              		.section	.debug_line,"",%progbits
 6137              	.Ldebug_line0:
 6138 0000 5C060000 		.section	.debug_str,"MS",%progbits,1
 6138      02000102 
 6138      00000201 
 6138      FB0E0D00 
 6138      01010101 
 6139              	.LASF138:
 6140 0000 68616D66 		.ascii	"hamfly_gimbal_t\000"
 6140      6C795F67 
 6140      696D6261 
 6140      6C5F7400 
 6141              	.LASF47:
 6142 0010 67696D62 		.ascii	"gimbal_status1\000"
 6142      616C5F73 
 6142      74617475 
 6142      733100
 6143              	.LASF48:
 6144 001f 67696D62 		.ascii	"gimbal_status2\000"
 6144      616C5F73 
 6144      74617475 
 6144      733200
 6145              	.LASF208:
 6146 002e 7472616E 		.ascii	"transition\000"
 6146      73697469 
 6146      6F6E00
 6147              	.LASF108:
 6148 0039 73797365 		.ascii	"sysecho_valid\000"
 6148      63686F5F 
 6148      76616C69 
 6148      6400
ARM GAS  C:\Users\JENNEW~1\AppData\Local\Temp\ccTobH5m.s 			page 123


 6149              	.LASF23:
 6150 0047 73697A65 		.ascii	"sizetype\000"
 6150      74797065 
 6150      00
 6151              	.LASF205:
 6152 0050 6170705F 		.ascii	"app_telem_tick\000"
 6152      74656C65 
 6152      6D5F7469 
 6152      636B00
 6153              	.LASF152:
 6154 005f 4D414E55 		.ascii	"MANU_NUDGE\000"
 6154      5F4E5544 
 6154      474500
 6155              	.LASF115:
 6156 006a 7461696C 		.ascii	"tail\000"
 6156      00
 6157              	.LASF210:
 6158 006f 656E7472 		.ascii	"entry_stby_hold\000"
 6158      795F7374 
 6158      62795F68 
 6158      6F6C6400 
 6159              	.LASF153:
 6160 007f 4155544F 		.ascii	"AUTO_HOME\000"
 6160      5F484F4D 
 6160      4500
 6161              	.LASF132:
 6162 0089 70656E64 		.ascii	"pending_sent_ms\000"
 6162      696E675F 
 6162      73656E74 
 6162      5F6D7300 
 6163              	.LASF144:
 6164 0099 524F4F54 		.ascii	"ROOT\000"
 6164      00
 6165              	.LASF17:
 6166 009e 696E7433 		.ascii	"int32_t\000"
 6166      325F7400 
 6167              	.LASF202:
 6168 00a6 70617468 		.ascii	"path\000"
 6168      00
 6169              	.LASF228:
 6170 00ab 6170705F 		.ascii	"app_state_name\000"
 6170      73746174 
 6170      655F6E61 
 6170      6D6500
 6171              	.LASF215:
 6172 00ba 7365765F 		.ascii	"sev_str\000"
 6172      73747200 
 6173              	.LASF166:
 6174 00c2 6572725F 		.ascii	"err_sev_t\000"
 6174      7365765F 
 6174      7400
 6175              	.LASF72:
 6176 00cc 6174745F 		.ascii	"att_pitch_deg\000"
 6176      70697463 
 6176      685F6465 
 6176      6700
 6177              	.LASF133:
ARM GAS  C:\Users\JENNEW~1\AppData\Local\Temp\ccTobH5m.s 			page 124


 6178 00da 70656E64 		.ascii	"pending_ready\000"
 6178      696E675F 
 6178      72656164 
 6178      7900
 6179              	.LASF36:
 6180 00e8 68616D66 		.ascii	"hamfly_control_t\000"
 6180      6C795F63 
 6180      6F6E7472 
 6180      6F6C5F74 
 6180      00
 6181              	.LASF85:
 6182 00f9 666C6167 		.ascii	"flag_gps_locked\000"
 6182      5F677073 
 6182      5F6C6F63 
 6182      6B656400 
 6183              	.LASF173:
 6184 0109 6374726C 		.ascii	"ctrl_mode\000"
 6184      5F6D6F64 
 6184      6500
 6185              	.LASF168:
 6186 0113 73746174 		.ascii	"state\000"
 6186      6500
 6187              	.LASF183:
 6188 0119 73656E73 		.ascii	"sense\000"
 6188      6500
 6189              	.LASF64:
 6190 011f 6770735F 		.ascii	"gps_raw_hacc\000"
 6190      7261775F 
 6190      68616363 
 6190      00
 6191              	.LASF49:
 6192 012c 6770735F 		.ascii	"gps_valid\000"
 6192      76616C69 
 6192      6400
 6193              	.LASF156:
 6194 0136 4155544F 		.ascii	"AUTO_TRACKING\000"
 6194      5F545241 
 6194      434B494E 
 6194      4700
 6195              	.LASF164:
 6196 0144 5345565F 		.ascii	"SEV_SOFTWARE\000"
 6196      534F4654 
 6196      57415245 
 6196      00
 6197              	.LASF96:
 6198 0151 73797373 		.ascii	"sysstat_batt_a\000"
 6198      7461745F 
 6198      62617474 
 6198      5F6100
 6199              	.LASF235:
 6200 0160 6E756467 		.ascii	"nudge_apply\000"
 6200      655F6170 
 6200      706C7900 
 6201              	.LASF44:
 6202 016c 67696D62 		.ascii	"gimbal_i\000"
 6202      616C5F69 
 6202      00
ARM GAS  C:\Users\JENNEW~1\AppData\Local\Temp\ccTobH5m.s 			page 125


 6203              	.LASF45:
 6204 0175 67696D62 		.ascii	"gimbal_j\000"
 6204      616C5F6A 
 6204      00
 6205              	.LASF2:
 6206 017e 5F5F7569 		.ascii	"__uint8_t\000"
 6206      6E74385F 
 6206      7400
 6207              	.LASF86:
 6208 0188 73797373 		.ascii	"sysstat_batt_v\000"
 6208      7461745F 
 6208      62617474 
 6208      5F7600
 6209              	.LASF43:
 6210 0197 67696D62 		.ascii	"gimbal_r\000"
 6210      616C5F72 
 6210      00
 6211              	.LASF119:
 6212 01a0 74785F62 		.ascii	"tx_bytes\000"
 6212      79746573 
 6212      00
 6213              	.LASF123:
 6214 01a9 72786275 		.ascii	"rxbuf_drops\000"
 6214      665F6472 
 6214      6F707300 
 6215              	.LASF51:
 6216 01b5 6770735F 		.ascii	"gps_lat_deg\000"
 6216      6C61745F 
 6216      64656700 
 6217              	.LASF211:
 6218 01c1 656E7472 		.ascii	"entry_manu_joystick\000"
 6218      795F6D61 
 6218      6E755F6A 
 6218      6F797374 
 6218      69636B00 
 6219              	.LASF8:
 6220 01d5 6C6F6E67 		.ascii	"long int\000"
 6220      20696E74 
 6220      00
 6221              	.LASF178:
 6222 01de 6F726967 		.ascii	"origin_set\000"
 6222      696E5F73 
 6222      657400
 6223              	.LASF65:
 6224 01e9 6770735F 		.ascii	"gps_raw_vacc\000"
 6224      7261775F 
 6224      76616363 
 6224      00
 6225              	.LASF154:
 6226 01f6 4155544F 		.ascii	"AUTO_ACQ_GPS\000"
 6226      5F414351 
 6226      5F475053 
 6226      00
 6227              	.LASF136:
 6228 0203 70656E64 		.ascii	"pending_payload\000"
 6228      696E675F 
 6228      7061796C 
ARM GAS  C:\Users\JENNEW~1\AppData\Local\Temp\ccTobH5m.s 			page 126


 6228      6F616400 
 6229              	.LASF97:
 6230 0213 73797373 		.ascii	"sysstat_charge_mah\000"
 6230      7461745F 
 6230      63686172 
 6230      67655F6D 
 6230      616800
 6231              	.LASF129:
 6232 0226 74786275 		.ascii	"txbuf\000"
 6232      6600
 6233              	.LASF46:
 6234 022c 67696D62 		.ascii	"gimbal_k\000"
 6234      616C5F6B 
 6234      00
 6235              	.LASF88:
 6236 0235 73797373 		.ascii	"sysstat_temp_c\000"
 6236      7461745F 
 6236      74656D70 
 6236      5F6300
 6237              	.LASF201:
 6238 0244 636F6D6D 		.ascii	"common\000"
 6238      6F6E00
 6239              	.LASF114:
 6240 024b 68656164 		.ascii	"head\000"
 6240      00
 6241              	.LASF163:
 6242 0250 5345565F 		.ascii	"SEV_WARN\000"
 6242      5741524E 
 6242      00
 6243              	.LASF53:
 6244 0259 6770735F 		.ascii	"gps_alt_m\000"
 6244      616C745F 
 6244      6D00
 6245              	.LASF233:
 6246 0263 6275696C 		.ascii	"build_error\000"
 6246      645F6572 
 6246      726F7200 
 6247              	.LASF0:
 6248 026f 7369676E 		.ascii	"signed char\000"
 6248      65642063 
 6248      68617200 
 6249              	.LASF14:
 6250 027b 75696E74 		.ascii	"uint8_t\000"
 6250      385F7400 
 6251              	.LASF219:
 6252 0283 74696C74 		.ascii	"tilt_deg\000"
 6252      5F646567 
 6252      00
 6253              	.LASF169:
 6254 028c 70726576 		.ascii	"prev_leaf\000"
 6254      5F6C6561 
 6254      6600
 6255              	.LASF243:
 6256 0296 6F6E5F65 		.ascii	"on_entry\000"
 6256      6E747279 
 6256      00
 6257              	.LASF167:
ARM GAS  C:\Users\JENNEW~1\AppData\Local\Temp\ccTobH5m.s 			page 127


 6258 029f 67696D62 		.ascii	"gimbal\000"
 6258      616C00
 6259              	.LASF245:
 6260 02a6 6F6E5F6B 		.ascii	"on_key\000"
 6260      657900
 6261              	.LASF117:
 6262 02ad 68616D66 		.ascii	"hamfly_rb_t\000"
 6262      6C795F72 
 6262      625F7400 
 6263              	.LASF209:
 6264 02b9 656E7472 		.ascii	"entry_stby_defer\000"
 6264      795F7374 
 6264      62795F64 
 6264      65666572 
 6264      00
 6265              	.LASF1:
 6266 02ca 756E7369 		.ascii	"unsigned char\000"
 6266      676E6564 
 6266      20636861 
 6266      7200
 6267              	.LASF158:
 6268 02d8 4155544F 		.ascii	"AUTO_NO_LOCK\000"
 6268      5F4E4F5F 
 6268      4C4F434B 
 6268      00
 6269              	.LASF120:
 6270 02e5 72785F70 		.ascii	"rx_packets\000"
 6270      61636B65 
 6270      747300
 6271              	.LASF187:
 6272 02f0 6E756467 		.ascii	"nudge_base_pan_deg\000"
 6272      655F6261 
 6272      73655F70 
 6272      616E5F64 
 6272      656700
 6273              	.LASF150:
 6274 0303 53544259 		.ascii	"STBY_HOLD\000"
 6274      5F484F4C 
 6274      4400
 6275              	.LASF157:
 6276 030d 4155544F 		.ascii	"AUTO_LOSS\000"
 6276      5F4C4F53 
 6276      5300
 6277              	.LASF112:
 6278 0317 5F426F6F 		.ascii	"_Bool\000"
 6278      6C00
 6279              	.LASF25:
 6280 031d 48414D46 		.ascii	"HAMFLY_RATE\000"
 6280      4C595F52 
 6280      41544500 
 6281              	.LASF191:
 6282 0329 6170705F 		.ascii	"app_ctx_t\000"
 6282      6374785F 
 6282      7400
 6283              	.LASF239:
 6284 0333 6170705F 		.ascii	"app_manual_tick\000"
 6284      6D616E75 
ARM GAS  C:\Users\JENNEW~1\AppData\Local\Temp\ccTobH5m.s 			page 128


 6284      616C5F74 
 6284      69636B00 
 6285              	.LASF21:
 6286 0343 63686172 		.ascii	"char\000"
 6286      00
 6287              	.LASF71:
 6288 0348 6174745F 		.ascii	"att_timestamp_ms\000"
 6288      74696D65 
 6288      7374616D 
 6288      705F6D73 
 6288      00
 6289              	.LASF74:
 6290 0359 6174745F 		.ascii	"att_roll_deg\000"
 6290      726F6C6C 
 6290      5F646567 
 6290      00
 6291              	.LASF84:
 6292 0366 666C6167 		.ascii	"flag_radio_los\000"
 6292      5F726164 
 6292      696F5F6C 
 6292      6F7300
 6293              	.LASF207:
 6294 0375 6C617374 		.ascii	"last_link_ms\000"
 6294      5F6C696E 
 6294      6B5F6D73 
 6294      00
 6295              	.LASF244:
 6296 0382 6F6E5F65 		.ascii	"on_exit\000"
 6296      78697400 
 6297              	.LASF5:
 6298 038a 5F5F7569 		.ascii	"__uint16_t\000"
 6298      6E743136 
 6298      5F7400
 6299              	.LASF102:
 6300 0395 6D61675F 		.ascii	"mag_magnitude\000"
 6300      6D61676E 
 6300      69747564 
 6300      6500
 6301              	.LASF98:
 6302 03a3 6D61675F 		.ascii	"mag_valid\000"
 6302      76616C69 
 6302      6400
 6303              	.LASF249:
 6304 03ad 675F7469 		.ascii	"g_tick_ms\000"
 6304      636B5F6D 
 6304      7300
 6305              	.LASF42:
 6306 03b7 62617474 		.ascii	"battery_right_v\000"
 6306      6572795F 
 6306      72696768 
 6306      745F7600 
 6307              	.LASF140:
 6308 03c7 53454E53 		.ascii	"SENSE_MED\000"
 6308      455F4D45 
 6308      4400
 6309              	.LASF240:
 6310 03d1 656C6170 		.ascii	"elapsed\000"
ARM GAS  C:\Users\JENNEW~1\AppData\Local\Temp\ccTobH5m.s 			page 129


 6310      73656400 
 6311              	.LASF237:
 6312 03d9 6474696C 		.ascii	"dtilt_deg\000"
 6312      745F6465 
 6312      6700
 6313              	.LASF83:
 6314 03e3 666C6167 		.ascii	"flag_gps_los\000"
 6314      5F677073 
 6314      5F6C6F73 
 6314      00
 6315              	.LASF76:
 6316 03f0 6174745F 		.ascii	"att_yaw_rate_dps\000"
 6316      7961775F 
 6316      72617465 
 6316      5F647073 
 6316      00
 6317              	.LASF125:
 6318 0401 68616D66 		.ascii	"hamfly_statistics_t\000"
 6318      6C795F73 
 6318      74617469 
 6318      73746963 
 6318      735F7400 
 6319              	.LASF212:
 6320 0415 65786974 		.ascii	"exit_manu_joystick\000"
 6320      5F6D616E 
 6320      755F6A6F 
 6320      79737469 
 6320      636B00
 6321              	.LASF54:
 6322 0428 6770735F 		.ascii	"gps_ground_spd_ms\000"
 6322      67726F75 
 6322      6E645F73 
 6322      70645F6D 
 6322      7300
 6323              	.LASF222:
 6324 043a 7072696E 		.ascii	"print_help\000"
 6324      745F6865 
 6324      6C7000
 6325              	.LASF91:
 6326 0445 73797373 		.ascii	"sysstat_time_s\000"
 6326      7461745F 
 6326      74696D65 
 6326      5F7300
 6327              	.LASF247:
 6328 0454 73746174 		.ascii	"state_names\000"
 6328      655F6E61 
 6328      6D657300 
 6329              	.LASF122:
 6330 0460 72785F62 		.ascii	"rx_bad_checksum\000"
 6330      61645F63 
 6330      6865636B 
 6330      73756D00 
 6331              	.LASF57:
 6332 0470 6770735F 		.ascii	"gps_vacc_m\000"
 6332      76616363 
 6332      5F6D00
 6333              	.LASF62:
ARM GAS  C:\Users\JENNEW~1\AppData\Local\Temp\ccTobH5m.s 			page 130


 6334 047b 6770735F 		.ascii	"gps_raw_spd\000"
 6334      7261775F 
 6334      73706400 
 6335              	.LASF124:
 6336 0487 75617274 		.ascii	"uart_err_flags\000"
 6336      5F657272 
 6336      5F666C61 
 6336      677300
 6337              	.LASF134:
 6338 0496 70656E64 		.ascii	"pending_response_attr\000"
 6338      696E675F 
 6338      72657370 
 6338      6F6E7365 
 6338      5F617474 
 6339              	.LASF87:
 6340 04ac 73797373 		.ascii	"sysstat_gps_sats\000"
 6340      7461745F 
 6340      6770735F 
 6340      73617473 
 6340      00
 6341              	.LASF70:
 6342 04bd 6174745F 		.ascii	"att_valid\000"
 6342      76616C69 
 6342      6400
 6343              	.LASF177:
 6344 04c7 6F726967 		.ascii	"origin_tilt_deg\000"
 6344      696E5F74 
 6344      696C745F 
 6344      64656700 
 6345              	.LASF162:
 6346 04d7 5345565F 		.ascii	"SEV_USER\000"
 6346      55534552 
 6346      00
 6347              	.LASF130:
 6348 04e0 67696D62 		.ascii	"gimbal_id\000"
 6348      616C5F69 
 6348      6400
 6349              	.LASF204:
 6350 04ea 6170705F 		.ascii	"app_raise_error\000"
 6350      72616973 
 6350      655F6572 
 6350      726F7200 
 6351              	.LASF104:
 6352 04fa 6D61675F 		.ascii	"mag_off_x\000"
 6352      6F66665F 
 6352      7800
 6353              	.LASF105:
 6354 0504 6D61675F 		.ascii	"mag_off_y\000"
 6354      6F66665F 
 6354      7900
 6355              	.LASF106:
 6356 050e 6D61675F 		.ascii	"mag_off_z\000"
 6356      6F66665F 
 6356      7A00
 6357              	.LASF179:
 6358 0518 6C617374 		.ascii	"last_tx_ms\000"
 6358      5F74785F 
ARM GAS  C:\Users\JENNEW~1\AppData\Local\Temp\ccTobH5m.s 			page 131


 6358      6D7300
 6359              	.LASF58:
 6360 0523 6770735F 		.ascii	"gps_sacc_ms\000"
 6360      73616363 
 6360      5F6D7300 
 6361              	.LASF170:
 6362 052f 6572725F 		.ascii	"err_sev\000"
 6362      73657600 
 6363              	.LASF111:
 6364 0537 73797365 		.ascii	"sysecho_imu_rate\000"
 6364      63686F5F 
 6364      696D755F 
 6364      72617465 
 6364      00
 6365              	.LASF227:
 6366 0548 6261636B 		.ascii	"back\000"
 6366      00
 6367              	.LASF216:
 6368 054d 656E7472 		.ascii	"entry_error_active\000"
 6368      795F6572 
 6368      726F725F 
 6368      61637469 
 6368      766500
 6369              	.LASF10:
 6370 0560 6C6F6E67 		.ascii	"long unsigned int\000"
 6370      20756E73 
 6370      69676E65 
 6370      6420696E 
 6370      7400
 6371              	.LASF200:
 6372 0572 74617267 		.ascii	"target\000"
 6372      657400
 6373              	.LASF56:
 6374 0579 6770735F 		.ascii	"gps_hacc_m\000"
 6374      68616363 
 6374      5F6D00
 6375              	.LASF92:
 6376 0584 73797373 		.ascii	"sysstat_pressure_mb\000"
 6376      7461745F 
 6376      70726573 
 6376      73757265 
 6376      5F6D6200 
 6377              	.LASF194:
 6378 0598 63796572 		.ascii	"cyerr\000"
 6378      7200
 6379              	.LASF113:
 6380 059e 68616D66 		.ascii	"hamfly_telemetry_t\000"
 6380      6C795F74 
 6380      656C656D 
 6380      65747279 
 6380      5F7400
 6381              	.LASF110:
 6382 05b1 73797365 		.ascii	"sysecho_pressure_mb\000"
 6382      63686F5F 
 6382      70726573 
 6382      73757265 
 6382      5F6D6200 
ARM GAS  C:\Users\JENNEW~1\AppData\Local\Temp\ccTobH5m.s 			page 132


 6383              	.LASF148:
 6384 05c5 4552524F 		.ascii	"ERROR\000"
 6384      5200
 6385              	.LASF59:
 6386 05cb 6770735F 		.ascii	"gps_raw_lat\000"
 6386      7261775F 
 6386      6C617400 
 6387              	.LASF37:
 6388 05d7 75617274 		.ascii	"uart_putc\000"
 6388      5F707574 
 6388      6300
 6389              	.LASF189:
 6390 05e1 7467745F 		.ascii	"tgt_pan_deg\000"
 6390      70616E5F 
 6390      64656700 
 6391              	.LASF80:
 6392 05ed 6174745F 		.ascii	"att_yaw_err_deg\000"
 6392      7961775F 
 6392      6572725F 
 6392      64656700 
 6393              	.LASF139:
 6394 05fd 53454E53 		.ascii	"SENSE_LOW\000"
 6394      455F4C4F 
 6394      5700
 6395              	.LASF95:
 6396 0607 73797373 		.ascii	"sysstat_imu_latency\000"
 6396      7461745F 
 6396      696D755F 
 6396      6C617465 
 6396      6E637900 
 6397              	.LASF75:
 6398 061b 6174745F 		.ascii	"att_pitch_rate_dps\000"
 6398      70697463 
 6398      685F7261 
 6398      74655F64 
 6398      707300
 6399              	.LASF220:
 6400 062e 726F6C6C 		.ascii	"roll_deg\000"
 6400      5F646567 
 6400      00
 6401              	.LASF250:
 6402 0637 474E5520 		.ascii	"GNU C11 5.4.1 20160609 (release) [ARM/embedded-5-br"
 6402      43313120 
 6402      352E342E 
 6402      31203230 
 6402      31363036 
 6403 066a 616E6368 		.ascii	"anch revision 237715] -mcpu=cortex-m3 -mthumb -g -O"
 6403      20726576 
 6403      6973696F 
 6403      6E203233 
 6403      37373135 
 6404 069d 30202D66 		.ascii	"0 -ffunction-sections -ffat-lto-objects\000"
 6404      66756E63 
 6404      74696F6E 
 6404      2D736563 
 6404      74696F6E 
 6405              	.LASF128:
ARM GAS  C:\Users\JENNEW~1\AppData\Local\Temp\ccTobH5m.s 			page 133


 6406 06c5 72786275 		.ascii	"rxbuf\000"
 6406      6600
 6407              	.LASF160:
 6408 06cb 53544154 		.ascii	"STATE_COUNT\000"
 6408      455F434F 
 6408      554E5400 
 6409              	.LASF9:
 6410 06d7 5F5F7569 		.ascii	"__uint32_t\000"
 6410      6E743332 
 6410      5F7400
 6411              	.LASF41:
 6412 06e2 62617474 		.ascii	"battery_left_v\000"
 6412      6572795F 
 6412      6C656674 
 6412      5F7600
 6413              	.LASF11:
 6414 06f1 6C6F6E67 		.ascii	"long long int\000"
 6414      206C6F6E 
 6414      6720696E 
 6414      7400
 6415              	.LASF28:
 6416 06ff 68616D66 		.ascii	"hamfly_control_mode_t\000"
 6416      6C795F63 
 6416      6F6E7472 
 6416      6F6C5F6D 
 6416      6F64655F 
 6417              	.LASF79:
 6418 0715 6174745F 		.ascii	"att_pitch_err_deg\000"
 6418      70697463 
 6418      685F6572 
 6418      725F6465 
 6418      6700
 6419              	.LASF55:
 6420 0727 6770735F 		.ascii	"gps_heading_deg\000"
 6420      68656164 
 6420      696E675F 
 6420      64656700 
 6421              	.LASF34:
 6422 0737 656E6162 		.ascii	"enable\000"
 6422      6C6500
 6423              	.LASF218:
 6424 073e 70616E5F 		.ascii	"pan_deg\000"
 6424      64656700 
 6425              	.LASF137:
 6426 0746 70656E64 		.ascii	"pending_payload_len\000"
 6426      696E675F 
 6426      7061796C 
 6426      6F61645F 
 6426      6C656E00 
 6427              	.LASF20:
 6428 075a 646F7562 		.ascii	"double\000"
 6428      6C6500
 6429              	.LASF172:
 6430 0761 66617461 		.ascii	"fatal_latched\000"
 6430      6C5F6C61 
 6430      74636865 
 6430      6400
ARM GAS  C:\Users\JENNEW~1\AppData\Local\Temp\ccTobH5m.s 			page 134


 6431              	.LASF93:
 6432 076f 73797373 		.ascii	"sysstat_imu_rate\000"
 6432      7461745F 
 6432      696D755F 
 6432      72617465 
 6432      00
 6433              	.LASF248:
 6434 0780 49544D5F 		.ascii	"ITM_RxBuffer\000"
 6434      52784275 
 6434      66666572 
 6434      00
 6435              	.LASF121:
 6436 078d 72785F62 		.ascii	"rx_bytes\000"
 6436      79746573 
 6436      00
 6437              	.LASF19:
 6438 0796 666C6F61 		.ascii	"float\000"
 6438      7400
 6439              	.LASF231:
 6440 079c 6275696C 		.ascii	"build_stby\000"
 6440      645F7374 
 6440      627900
 6441              	.LASF197:
 6442 07a7 6B65795F 		.ascii	"key_fn_t\000"
 6442      666E5F74 
 6442      00
 6443              	.LASF13:
 6444 07b0 756E7369 		.ascii	"unsigned int\000"
 6444      676E6564 
 6444      20696E74 
 6444      00
 6445              	.LASF230:
 6446 07bd 6275696C 		.ascii	"build_zero\000"
 6446      645F7A65 
 6446      726F00
 6447              	.LASF195:
 6448 07c8 7061796C 		.ascii	"payload_centroid_t\000"
 6448      6F61645F 
 6448      63656E74 
 6448      726F6964 
 6448      5F7400
 6449              	.LASF149:
 6450 07db 53544259 		.ascii	"STBY_DEFER\000"
 6450      5F444546 
 6450      455200
 6451              	.LASF33:
 6452 07e6 726F6C6C 		.ascii	"roll_mode\000"
 6452      5F6D6F64 
 6452      6500
 6453              	.LASF242:
 6454 07f0 70617265 		.ascii	"parent_of\000"
 6454      6E745F6F 
 6454      6600
 6455              	.LASF61:
 6456 07fa 6770735F 		.ascii	"gps_raw_alt\000"
 6456      7261775F 
 6456      616C7400 
ARM GAS  C:\Users\JENNEW~1\AppData\Local\Temp\ccTobH5m.s 			page 135


 6457              	.LASF141:
 6458 0806 53454E53 		.ascii	"SENSE_HIGH\000"
 6458      455F4849 
 6458      474800
 6459              	.LASF99:
 6460 0811 6D61675F 		.ascii	"mag_x\000"
 6460      7800
 6461              	.LASF100:
 6462 0817 6D61675F 		.ascii	"mag_y\000"
 6462      7900
 6463              	.LASF101:
 6464 081d 6D61675F 		.ascii	"mag_z\000"
 6464      7A00
 6465              	.LASF73:
 6466 0823 6174745F 		.ascii	"att_yaw_deg\000"
 6466      7961775F 
 6466      64656700 
 6467              	.LASF142:
 6468 082f 6A6F795F 		.ascii	"joy_sensitivity_t\000"
 6468      73656E73 
 6468      69746976 
 6468      6974795F 
 6468      7400
 6469              	.LASF217:
 6470 0841 6D616E75 		.ascii	"manu_pan_tilt_deg\000"
 6470      5F70616E 
 6470      5F74696C 
 6470      745F6465 
 6470      6700
 6471              	.LASF26:
 6472 0853 48414D46 		.ascii	"HAMFLY_ABSOLUTE\000"
 6472      4C595F41 
 6472      42534F4C 
 6472      55544500 
 6473              	.LASF221:
 6474 0863 7365745F 		.ascii	"set_origin\000"
 6474      6F726967 
 6474      696E00
 6475              	.LASF22:
 6476 086e 6C6F6E67 		.ascii	"long double\000"
 6476      20646F75 
 6476      626C6500 
 6477              	.LASF66:
 6478 087a 6770735F 		.ascii	"gps_raw_sacc\000"
 6478      7261775F 
 6478      73616363 
 6478      00
 6479              	.LASF126:
 6480 0887 74656C65 		.ascii	"telemetry\000"
 6480      6D657472 
 6480      7900
 6481              	.LASF186:
 6482 0891 6E756467 		.ascii	"nudge_start_ms\000"
 6482      655F7374 
 6482      6172745F 
 6482      6D7300
 6483              	.LASF146:
ARM GAS  C:\Users\JENNEW~1\AppData\Local\Temp\ccTobH5m.s 			page 136


 6484 08a0 4D414E55 		.ascii	"MANU\000"
 6484      00
 6485              	.LASF77:
 6486 08a5 6174745F 		.ascii	"att_roll_rate_dps\000"
 6486      726F6C6C 
 6486      5F726174 
 6486      655F6470 
 6486      7300
 6487              	.LASF39:
 6488 08b7 68616D66 		.ascii	"hamfly_hal_t\000"
 6488      6C795F68 
 6488      616C5F74 
 6488      00
 6489              	.LASF155:
 6490 08c4 4155544F 		.ascii	"AUTO_ACQ_SPIRAL\000"
 6490      5F414351 
 6490      5F535049 
 6490      52414C00 
 6491              	.LASF198:
 6492 08d4 6275696C 		.ascii	"build_fn_t\000"
 6492      645F666E 
 6492      5F7400
 6493              	.LASF226:
 6494 08df 6B65795F 		.ascii	"key_error_active\000"
 6494      6572726F 
 6494      725F6163 
 6494      74697665 
 6494      00
 6495              	.LASF78:
 6496 08f0 6174745F 		.ascii	"att_roll_err_deg\000"
 6496      726F6C6C 
 6496      5F657272 
 6496      5F646567 
 6496      00
 6497              	.LASF31:
 6498 0901 70616E5F 		.ascii	"pan_mode\000"
 6498      6D6F6465 
 6498      00
 6499              	.LASF214:
 6500 090a 6170705F 		.ascii	"app_auto_tick\000"
 6500      6175746F 
 6500      5F746963 
 6500      6B00
 6501              	.LASF238:
 6502 0918 6B65795F 		.ascii	"key_manu_joystick\000"
 6502      6D616E75 
 6502      5F6A6F79 
 6502      73746963 
 6502      6B00
 6503              	.LASF12:
 6504 092a 6C6F6E67 		.ascii	"long long unsigned int\000"
 6504      206C6F6E 
 6504      6720756E 
 6504      7369676E 
 6504      65642069 
 6505              	.LASF27:
 6506 0941 48414D46 		.ascii	"HAMFLY_ABSOLUTE_MAJESTIC\000"
ARM GAS  C:\Users\JENNEW~1\AppData\Local\Temp\ccTobH5m.s 			page 137


 6506      4C595F41 
 6506      42534F4C 
 6506      5554455F 
 6506      4D414A45 
 6507              	.LASF90:
 6508 095a 73797373 		.ascii	"sysstat_status_flags\000"
 6508      7461745F 
 6508      73746174 
 6508      75735F66 
 6508      6C616773 
 6509              	.LASF151:
 6510 096f 4D414E55 		.ascii	"MANU_JOYSTICK\000"
 6510      5F4A4F59 
 6510      53544943 
 6510      4B00
 6511              	.LASF16:
 6512 097d 75696E74 		.ascii	"uint16_t\000"
 6512      31365F74 
 6512      00
 6513              	.LASF171:
 6514 0986 6572725F 		.ascii	"err_msg\000"
 6514      6D736700 
 6515              	.LASF165:
 6516 098e 5345565F 		.ascii	"SEV_FATAL\000"
 6516      46415441 
 6516      4C00
 6517              	.LASF184:
 6518 0998 696E7665 		.ascii	"invert_mask\000"
 6518      72745F6D 
 6518      61736B00 
 6519              	.LASF81:
 6520 09a4 73797373 		.ascii	"sysstat_valid\000"
 6520      7461745F 
 6520      76616C69 
 6520      6400
 6521              	.LASF69:
 6522 09b2 6261726F 		.ascii	"baro_roc_ms\000"
 6522      5F726F63 
 6522      5F6D7300 
 6523              	.LASF182:
 6524 09be 64696167 		.ascii	"diag_active\000"
 6524      5F616374 
 6524      69766500 
 6525              	.LASF82:
 6526 09ca 666C6167 		.ascii	"flag_compass_error\000"
 6526      5F636F6D 
 6526      70617373 
 6526      5F657272 
 6526      6F7200
 6527              	.LASF29:
 6528 09dd 74696C74 		.ascii	"tilt\000"
 6528      00
 6529              	.LASF224:
 6530 09e2 6C656166 		.ascii	"leaf_traps_nav\000"
 6530      5F747261 
 6530      70735F6E 
 6530      617600
ARM GAS  C:\Users\JENNEW~1\AppData\Local\Temp\ccTobH5m.s 			page 138


 6531              	.LASF63:
 6532 09f1 6770735F 		.ascii	"gps_raw_hdg\000"
 6532      7261775F 
 6532      68646700 
 6533              	.LASF3:
 6534 09fd 5F5F696E 		.ascii	"__int16_t\000"
 6534      7431365F 
 6534      7400
 6535              	.LASF135:
 6536 0a07 70656E64 		.ascii	"pending_response_len\000"
 6536      696E675F 
 6536      72657370 
 6536      6F6E7365 
 6536      5F6C656E 
 6537              	.LASF94:
 6538 0a1c 73797373 		.ascii	"sysstat_cam_status\000"
 6538      7461745F 
 6538      63616D5F 
 6538      73746174 
 6538      757300
 6539              	.LASF192:
 6540 0a2f 745F6D73 		.ascii	"t_ms\000"
 6540      00
 6541              	.LASF116:
 6542 0a34 64726F70 		.ascii	"drops\000"
 6542      7300
 6543              	.LASF203:
 6544 0a3a 6170705F 		.ascii	"app_start\000"
 6544      73746172 
 6544      7400
 6545              	.LASF32:
 6546 0a44 74696C74 		.ascii	"tilt_mode\000"
 6546      5F6D6F64 
 6546      6500
 6547              	.LASF206:
 6548 0a4e 6C617374 		.ascii	"last_hot_ms\000"
 6548      5F686F74 
 6548      5F6D7300 
 6549              	.LASF251:
 6550 0a5a 6170705F 		.ascii	"app_statemachine.c\000"
 6550      73746174 
 6550      656D6163 
 6550      68696E65 
 6550      2E6300
 6551              	.LASF246:
 6552 0a6d 6F6E5F62 		.ascii	"on_build\000"
 6552      75696C64 
 6552      00
 6553              	.LASF225:
 6554 0a76 68616E64 		.ascii	"handle_nav_key\000"
 6554      6C655F6E 
 6554      61765F6B 
 6554      657900
 6555              	.LASF175:
 6556 0a85 6162735F 		.ascii	"abs_tilt_target\000"
 6556      74696C74 
 6556      5F746172 
ARM GAS  C:\Users\JENNEW~1\AppData\Local\Temp\ccTobH5m.s 			page 139


 6556      67657400 
 6557              	.LASF176:
 6558 0a95 6F726967 		.ascii	"origin_pan_deg\000"
 6558      696E5F70 
 6558      616E5F64 
 6558      656700
 6559              	.LASF181:
 6560 0aa4 73746174 		.ascii	"state_entry_ms\000"
 6560      655F656E 
 6560      7472795F 
 6560      6D7300
 6561              	.LASF4:
 6562 0ab3 73686F72 		.ascii	"short int\000"
 6562      7420696E 
 6562      7400
 6563              	.LASF147:
 6564 0abd 4155544F 		.ascii	"AUTO\000"
 6564      00
 6565              	.LASF234:
 6566 0ac2 6170705F 		.ascii	"app_build_control\000"
 6566      6275696C 
 6566      645F636F 
 6566      6E74726F 
 6566      6C00
 6567              	.LASF15:
 6568 0ad4 696E7431 		.ascii	"int16_t\000"
 6568      365F7400 
 6569              	.LASF199:
 6570 0adc 64657074 		.ascii	"depth_of\000"
 6570      685F6F66 
 6570      00
 6571              	.LASF50:
 6572 0ae5 6770735F 		.ascii	"gps_locked\000"
 6572      6C6F636B 
 6572      656400
 6573              	.LASF107:
 6574 0af0 6D61675F 		.ascii	"mag_declination\000"
 6574      6465636C 
 6574      696E6174 
 6574      696F6E00 
 6575              	.LASF24:
 6576 0b00 48414D46 		.ascii	"HAMFLY_DEFER\000"
 6576      4C595F44 
 6576      45464552 
 6576      00
 6577              	.LASF127:
 6578 0b0d 73746174 		.ascii	"statistics\000"
 6578      69737469 
 6578      637300
 6579              	.LASF40:
 6580 0b18 76616C69 		.ascii	"valid\000"
 6580      6400
 6581              	.LASF67:
 6582 0b1e 6261726F 		.ascii	"baro_valid\000"
 6582      5F76616C 
 6582      696400
 6583              	.LASF35:
ARM GAS  C:\Users\JENNEW~1\AppData\Local\Temp\ccTobH5m.s 			page 140


 6584 0b29 6B696C6C 		.ascii	"kill\000"
 6584      00
 6585              	.LASF159:
 6586 0b2e 4552524F 		.ascii	"ERROR_ACTIVE\000"
 6586      525F4143 
 6586      54495645 
 6586      00
 6587              	.LASF180:
 6588 0b3b 6C617374 		.ascii	"last_diag_ms\000"
 6588      5F646961 
 6588      675F6D73 
 6588      00
 6589              	.LASF118:
 6590 0b48 74785F70 		.ascii	"tx_packets\000"
 6590      61636B65 
 6590      747300
 6591              	.LASF223:
 6592 0b53 68616E64 		.ascii	"handle_global_key\000"
 6592      6C655F67 
 6592      6C6F6261 
 6592      6C5F6B65 
 6592      7900
 6593              	.LASF190:
 6594 0b65 7467745F 		.ascii	"tgt_tilt_deg\000"
 6594      74696C74 
 6594      5F646567 
 6594      00
 6595              	.LASF18:
 6596 0b72 75696E74 		.ascii	"uint32_t\000"
 6596      33325F74 
 6596      00
 6597              	.LASF131:
 6598 0b7b 70656E64 		.ascii	"pending_attr\000"
 6598      696E675F 
 6598      61747472 
 6598      00
 6599              	.LASF241:
 6600 0b88 61727269 		.ascii	"arrived\000"
 6600      76656400 
 6601              	.LASF236:
 6602 0b90 6470616E 		.ascii	"dpan_deg\000"
 6602      5F646567 
 6602      00
 6603              	.LASF60:
 6604 0b99 6770735F 		.ascii	"gps_raw_lon\000"
 6604      7261775F 
 6604      6C6F6E00 
 6605              	.LASF38:
 6606 0ba5 6765745F 		.ascii	"get_tick_ms\000"
 6606      7469636B 
 6606      5F6D7300 
 6607              	.LASF232:
 6608 0bb1 6275696C 		.ascii	"build_manu_joystick\000"
 6608      645F6D61 
 6608      6E755F6A 
 6608      6F797374 
 6608      69636B00 
ARM GAS  C:\Users\JENNEW~1\AppData\Local\Temp\ccTobH5m.s 			page 141


 6609              	.LASF103:
 6610 0bc5 6D61675F 		.ascii	"mag_freq\000"
 6610      66726571 
 6610      00
 6611              	.LASF6:
 6612 0bce 73686F72 		.ascii	"short unsigned int\000"
 6612      7420756E 
 6612      7369676E 
 6612      65642069 
 6612      6E7400
 6613              	.LASF30:
 6614 0be1 726F6C6C 		.ascii	"roll\000"
 6614      00
 6615              	.LASF161:
 6616 0be6 73746174 		.ascii	"state_t\000"
 6616      655F7400 
 6617              	.LASF7:
 6618 0bee 5F5F696E 		.ascii	"__int32_t\000"
 6618      7433325F 
 6618      7400
 6619              	.LASF89:
 6620 0bf8 73797373 		.ascii	"sysstat_cpu_pct\000"
 6620      7461745F 
 6620      6370755F 
 6620      70637400 
 6621              	.LASF174:
 6622 0c08 6162735F 		.ascii	"abs_pan_target\000"
 6622      70616E5F 
 6622      74617267 
 6622      657400
 6623              	.LASF109:
 6624 0c17 73797365 		.ascii	"sysecho_gps_locked\000"
 6624      63686F5F 
 6624      6770735F 
 6624      6C6F636B 
 6624      656400
 6625              	.LASF68:
 6626 0c2a 6261726F 		.ascii	"baro_alt_m\000"
 6626      5F616C74 
 6626      5F6D00
 6627              	.LASF213:
 6628 0c35 656E7472 		.ascii	"entry_auto_test\000"
 6628      795F6175 
 6628      746F5F74 
 6628      65737400 
 6629              	.LASF188:
 6630 0c45 6E756467 		.ascii	"nudge_base_tilt_deg\000"
 6630      655F6261 
 6630      73655F74 
 6630      696C745F 
 6630      64656700 
 6631              	.LASF196:
 6632 0c59 73746174 		.ascii	"state_fn_t\000"
 6632      655F666E 
 6632      5F7400
 6633              	.LASF52:
 6634 0c64 6770735F 		.ascii	"gps_lon_deg\000"
ARM GAS  C:\Users\JENNEW~1\AppData\Local\Temp\ccTobH5m.s 			page 142


 6634      6C6F6E5F 
 6634      64656700 
 6635              	.LASF145:
 6636 0c70 53544259 		.ascii	"STBY\000"
 6636      00
 6637              	.LASF252:
 6638 0c75 433A5C55 		.ascii	"C:\\Users\\Jennewein\\Documents\\hamish-workspace\\"
 6638      73657273 
 6638      5C4A656E 
 6638      6E657765 
 6638      696E5C44 
 6639 0ca3 50536F43 		.ascii	"PSoC-Programs\\test_projects\\Proj07_hamflyAPI_stat"
 6639      2D50726F 
 6639      6772616D 
 6639      735C7465 
 6639      73745F70 
 6640 0cd4 654D6163 		.ascii	"eMachineUpgrade.cydsn\000"
 6640      68696E65 
 6640      55706772 
 6640      6164652E 
 6640      63796473 
 6641              	.LASF229:
 6642 0cea 6170705F 		.ascii	"app_dispatch_key\000"
 6642      64697370 
 6642      61746368 
 6642      5F6B6579 
 6642      00
 6643              	.LASF143:
 6644 0cfb 6A6F795F 		.ascii	"joy_cmd_t\000"
 6644      636D645F 
 6644      7400
 6645              	.LASF185:
 6646 0d05 6E756467 		.ascii	"nudge_hold\000"
 6646      655F686F 
 6646      6C6400
 6647              	.LASF193:
 6648 0d10 63786572 		.ascii	"cxerr\000"
 6648      7200
 6649              		.ident	"GCC: (GNU Tools for ARM Embedded Processors) 5.4.1 20160609 (release) [ARM/embedded-5-bran
