ARM GAS  C:\Users\JENNEW~1\AppData\Local\Temp\ccAtvZYd.s 			page 1


   1              		.syntax unified
   2              		.cpu cortex-m3
   3              		.fpu softvfp
   4              		.eabi_attribute 20, 1
   5              		.eabi_attribute 21, 1
   6              		.eabi_attribute 23, 3
   7              		.eabi_attribute 24, 1
   8              		.eabi_attribute 25, 1
   9              		.eabi_attribute 26, 1
  10              		.eabi_attribute 30, 6
  11              		.eabi_attribute 34, 1
  12              		.eabi_attribute 18, 4
  13              		.thumb
  14              		.syntax unified
  15              		.file	"app_statemachine.c"
  16              		.text
  17              	.Ltext0:
  18              		.cfi_sections	.debug_frame
  19              		.section	.rodata
  20              		.align	2
  21              		.type	parent_of, %object
  22              		.size	parent_of, 16
  23              	parent_of:
  24 0000 00       		.byte	0
  25 0001 00       		.byte	0
  26 0002 00       		.byte	0
  27 0003 00       		.byte	0
  28 0004 00       		.byte	0
  29 0005 01       		.byte	1
  30 0006 01       		.byte	1
  31 0007 02       		.byte	2
  32 0008 02       		.byte	2
  33 0009 03       		.byte	3
  34 000a 03       		.byte	3
  35 000b 03       		.byte	3
  36 000c 03       		.byte	3
  37 000d 03       		.byte	3
  38 000e 03       		.byte	3
  39 000f 04       		.byte	4
  40              		.align	2
  41              		.type	on_entry, %object
  42              		.size	on_entry, 64
  43              	on_entry:
  44 0010 00000000 		.space	4
  45 0014 00000000 		.word	0
  46 0018 00000000 		.word	0
  47 001c 00000000 		.word	0
  48 0020 00000000 		.word	0
  49 0024 00000000 		.word	entry_stby_defer
  50 0028 00000000 		.word	entry_stby_hold
  51 002c 00000000 		.word	entry_manu_joystick
  52 0030 00000000 		.word	0
  53 0034 00000000 		.word	0
  54 0038 00000000 		.word	0
  55 003c 00000000 		.word	0
  56 0040 00000000 		.word	0
  57 0044 00000000 		.word	0
ARM GAS  C:\Users\JENNEW~1\AppData\Local\Temp\ccAtvZYd.s 			page 2


  58 0048 00000000 		.word	0
  59 004c 00000000 		.word	entry_error_active
  60              		.align	2
  61              		.type	on_exit, %object
  62              		.size	on_exit, 64
  63              	on_exit:
  64 0050 00000000 		.space	4
  65 0054 00000000 		.word	0
  66 0058 00000000 		.word	0
  67 005c 00000000 		.word	0
  68 0060 00000000 		.word	0
  69 0064 00000000 		.word	0
  70 0068 00000000 		.word	0
  71 006c 00000000 		.word	exit_manu_joystick
  72 0070 00000000 		.word	0
  73 0074 00000000 		.word	0
  74 0078 00000000 		.word	0
  75 007c 00000000 		.word	0
  76 0080 00000000 		.word	0
  77 0084 00000000 		.word	0
  78 0088 00000000 		.word	0
  79 008c 00000000 		.word	0
  80              		.align	2
  81              		.type	on_key, %object
  82              		.size	on_key, 64
  83              	on_key:
  84 0090 00000000 		.space	20
  84      00000000 
  84      00000000 
  84      00000000 
  84      00000000 
  85 00a4 00000000 		.word	0
  86 00a8 00000000 		.word	0
  87 00ac 00000000 		.word	key_manu_joystick
  88 00b0 00000000 		.word	0
  89 00b4 00000000 		.word	0
  90 00b8 00000000 		.word	0
  91 00bc 00000000 		.word	0
  92 00c0 00000000 		.word	0
  93 00c4 00000000 		.word	0
  94 00c8 00000000 		.word	0
  95 00cc 00000000 		.word	key_error_active
  96              		.align	2
  97              		.type	on_build, %object
  98              		.size	on_build, 64
  99              	on_build:
 100 00d0 00000000 		.space	20
 100      00000000 
 100      00000000 
 100      00000000 
 100      00000000 
 101 00e4 00000000 		.word	build_stby
 102 00e8 00000000 		.word	build_stby
 103 00ec 00000000 		.word	build_manu_joystick
 104 00f0 00000000 		.word	0
 105 00f4 00000000 		.word	0
 106 00f8 00000000 		.word	0
ARM GAS  C:\Users\JENNEW~1\AppData\Local\Temp\ccAtvZYd.s 			page 3


 107 00fc 00000000 		.word	0
 108 0100 00000000 		.word	0
 109 0104 00000000 		.word	0
 110 0108 00000000 		.word	0
 111 010c 00000000 		.word	build_error
 112              		.section	.text.depth_of,"ax",%progbits
 113              		.align	2
 114              		.thumb
 115              		.thumb_func
 116              		.type	depth_of, %function
 117              	depth_of:
 118              	.LFB63:
 119              		.file 1 "app_statemachine.c"
   1:app_statemachine.c **** /* ========================================
   2:app_statemachine.c ****  *
   3:app_statemachine.c ****  * Copyright Hamish Johnson, 2026
   4:app_statemachine.c ****  * All Rights Reserved
   5:app_statemachine.c ****  * UNPUBLISHED, LICENSED SOFTWARE.
   6:app_statemachine.c ****  *
   7:app_statemachine.c ****  * CONFIDENTIAL AND PROPRIETARY INFORMATION
   8:app_statemachine.c ****  * WHICH IS THE PROPERTY OF 
   9:app_statemachine.c ****  * Quantum Internet Systems Lab (QISL),
  10:app_statemachine.c ****  * Department of Physics, SFU, Canada.
  11:app_statemachine.c ****  *
  12:app_statemachine.c ****  * Author: Hamish Johnson (2026)
  13:app_statemachine.c ****  *
  14:app_statemachine.c ****  * ========================================
  15:app_statemachine.c ****  *
  16:app_statemachine.c ****  * HFSM engine: parent table, LCA walk, transition driver, error raiser.
  17:app_statemachine.c ****  *
  18:app_statemachine.c ****  *   ROOT
  19:app_statemachine.c ****  *   ├─ STBY ── STBY_DEFER (boot)   STBY_HOLD
  20:app_statemachine.c ****  *   ├─ MANU ── MANU_JOYSTICK       MANU_NUDGE*
  21:app_statemachine.c ****  *   ├─ AUTO ── AUTO_HOME*  ACQ_GPS*  ACQ_SPIRAL*
  22:app_statemachine.c ****  *   │          TRACKING*   LOSS*     NO_LOCK*
  23:app_statemachine.c ****  *   └─ ERROR ─ ERROR_ACTIVE
  24:app_statemachine.c ****  * 
  25:app_statemachine.c ****  *      * = declared, not yet implemented
  26:app_statemachine.c ****  *
  27:app_statemachine.c ****  * KEYMAP (keep in sync with the key_* handlers in section 5):
  28:app_statemachine.c ****  *   GLOBAL (any non-FATAL leaf):
  29:app_statemachine.c ****  *     k       soft kill -> STBY_HOLD
  30:app_statemachine.c ****  *     [       capture origin from telemetry
  31:app_statemachine.c ****  *     ?       help
  32:app_statemachine.c ****  *     Ctrl+R  clear FATAL latch -> STBY_HOLD
  33:app_statemachine.c ****  *   NAV (suppressed where leaf_traps_nav()==1):
  34:app_statemachine.c ****  *     1/2/3   STBY_HOLD / MANU_JOYSTICK / AUTO
  35:app_statemachine.c ****  *   MANU_JOYSTICK leaf:
  36:app_statemachine.c ****  *     r/a     RATE / ABSOLUTE      e  exit -> STBY_HOLD
  37:app_statemachine.c ****  *     ]       -> AUTO_HOME
  38:app_statemachine.c ****  *
  39:app_statemachine.c ****  * DISPATCH PRECEDENCE (app_dispatch_key):
  40:app_statemachine.c ****  *     FATAL-lockout  >  global  >  leaf  >  nav
  41:app_statemachine.c **** */
  42:app_statemachine.c **** 
  43:app_statemachine.c **** #include "app_statemachine.h"
  44:app_statemachine.c **** #include "hamfly.h"
ARM GAS  C:\Users\JENNEW~1\AppData\Local\Temp\ccAtvZYd.s 			page 4


  45:app_statemachine.c **** #include <project.h>  // For UART
  46:app_statemachine.c **** #include <math.h>
  47:app_statemachine.c **** #include <string.h>
  48:app_statemachine.c **** 
  49:app_statemachine.c **** // For timing, PSoC incremented with looptimer ISR.
  50:app_statemachine.c **** extern volatile uint32_t g_tick_ms;
  51:app_statemachine.c **** extern uint8_t get_euler_deg(float *pan_deg_out, float *tilt_deg_out);
  52:app_statemachine.c **** 
  53:app_statemachine.c **** 
  54:app_statemachine.c **** // Hierarchy %================================================================%
  55:app_statemachine.c **** // Heirarchy allows shared entry/exit behaviour.
  56:app_statemachine.c **** // ROOT is the base of the walk.
  57:app_statemachine.c **** static const state_t parent_of[STATE_COUNT] = {
  58:app_statemachine.c ****     [ROOT]            = ROOT,  // Book keeping
  59:app_statemachine.c ****     [STBY]            = ROOT,  // Parent states
  60:app_statemachine.c ****     [MANU]            = ROOT,
  61:app_statemachine.c ****     [AUTO]            = ROOT,
  62:app_statemachine.c ****     [ERROR]           = ROOT,
  63:app_statemachine.c **** 
  64:app_statemachine.c ****     [STBY_DEFER]      = STBY,
  65:app_statemachine.c ****     [STBY_HOLD]       = STBY,
  66:app_statemachine.c **** 
  67:app_statemachine.c ****     [MANU_JOYSTICK]   = MANU,
  68:app_statemachine.c ****     [MANU_NUDGE]      = MANU,
  69:app_statemachine.c **** 
  70:app_statemachine.c ****     [AUTO_HOME]       = AUTO,
  71:app_statemachine.c ****     [AUTO_ACQ_GPS]    = AUTO,
  72:app_statemachine.c ****     [AUTO_ACQ_SPIRAL] = AUTO,
  73:app_statemachine.c ****     [AUTO_TRACKING]   = AUTO,
  74:app_statemachine.c ****     [AUTO_LOSS]       = AUTO,
  75:app_statemachine.c ****     [AUTO_NO_LOCK]    = AUTO,
  76:app_statemachine.c **** 
  77:app_statemachine.c ****     [ERROR_ACTIVE]    = ERROR,
  78:app_statemachine.c **** };
  79:app_statemachine.c **** 
  80:app_statemachine.c **** // Per-state hook tables %====================================================%
  81:app_statemachine.c **** // Forward declaration of state handlers.
  82:app_statemachine.c **** typedef void    (*state_fn_t)(app_ctx_t *);  // Entry and Exit handlers
  83:app_statemachine.c **** typedef uint8_t (*key_fn_t)  (app_ctx_t *, char);  // Input handlers
  84:app_statemachine.c **** typedef void    (*build_fn_t)(const app_ctx_t *, hamfly_control_t *); //Packet
  85:app_statemachine.c **** 
  86:app_statemachine.c **** // Entry handlers
  87:app_statemachine.c **** static void entry_stby_defer   (app_ctx_t *);
  88:app_statemachine.c **** static void entry_stby_hold    (app_ctx_t *);
  89:app_statemachine.c **** static void entry_manu_joystick(app_ctx_t *);
  90:app_statemachine.c **** static void entry_error_active (app_ctx_t *);
  91:app_statemachine.c **** 
  92:app_statemachine.c **** // Exit handlers
  93:app_statemachine.c **** static void exit_manu_joystick (app_ctx_t *);
  94:app_statemachine.c **** 
  95:app_statemachine.c **** // Key handlers
  96:app_statemachine.c **** static uint8_t key_manu_joystick(app_ctx_t *, char);
  97:app_statemachine.c **** static uint8_t key_error_active (app_ctx_t *, char);
  98:app_statemachine.c **** 
  99:app_statemachine.c **** // Packet building handlers
 100:app_statemachine.c **** static void build_zero         (const app_ctx_t *, hamfly_control_t *);
 101:app_statemachine.c **** static void build_stby         (const app_ctx_t *, hamfly_control_t *);
ARM GAS  C:\Users\JENNEW~1\AppData\Local\Temp\ccAtvZYd.s 			page 5


 102:app_statemachine.c **** static void build_manu_joystick(const app_ctx_t *, hamfly_control_t *);
 103:app_statemachine.c **** static void build_error        (const app_ctx_t *, hamfly_control_t *);
 104:app_statemachine.c **** // AUTO_* and MANU_NUDGE: NULL in the tables until implemented
 105:app_statemachine.c **** 
 106:app_statemachine.c **** static const state_fn_t on_entry[STATE_COUNT] = {
 107:app_statemachine.c ****     [STBY]            = NULL,   /* parent: shared STBY entry, if ever needed */
 108:app_statemachine.c ****     [MANU]            = NULL,   /* parent */
 109:app_statemachine.c ****     [AUTO]            = NULL,   /* parent */
 110:app_statemachine.c ****     [ERROR]           = NULL,   /* parent */
 111:app_statemachine.c ****     [STBY_DEFER]      = entry_stby_defer,
 112:app_statemachine.c ****     [STBY_HOLD]       = entry_stby_hold,
 113:app_statemachine.c ****     [MANU_JOYSTICK]   = entry_manu_joystick,
 114:app_statemachine.c ****     [MANU_NUDGE]      = NULL,   /* TODO */
 115:app_statemachine.c ****     [AUTO_HOME]       = NULL,   /* TODO */
 116:app_statemachine.c ****     [AUTO_ACQ_GPS]    = NULL,   /* TODO */
 117:app_statemachine.c ****     [AUTO_ACQ_SPIRAL] = NULL,   /* TODO */
 118:app_statemachine.c ****     [AUTO_TRACKING]   = NULL,   /* TODO */
 119:app_statemachine.c ****     [AUTO_LOSS]       = NULL,   /* TODO */
 120:app_statemachine.c ****     [AUTO_NO_LOCK]    = NULL,   /* TODO */
 121:app_statemachine.c ****     [ERROR_ACTIVE]    = entry_error_active,
 122:app_statemachine.c **** };
 123:app_statemachine.c **** 
 124:app_statemachine.c **** static const state_fn_t on_exit[STATE_COUNT] = {
 125:app_statemachine.c ****     [STBY]            = NULL,   /* parent */
 126:app_statemachine.c ****     [MANU]            = NULL,   /* parent */
 127:app_statemachine.c ****     [AUTO]            = NULL,   /* parent */
 128:app_statemachine.c ****     [ERROR]           = NULL,   /* parent */
 129:app_statemachine.c ****     [STBY_DEFER]      = NULL,
 130:app_statemachine.c ****     [STBY_HOLD]       = NULL,
 131:app_statemachine.c ****     [MANU_JOYSTICK]   = exit_manu_joystick,
 132:app_statemachine.c ****     [MANU_NUDGE]      = NULL,   /* TODO */
 133:app_statemachine.c ****     [AUTO_HOME]       = NULL,   /* TODO */
 134:app_statemachine.c ****     [AUTO_ACQ_GPS]    = NULL,   /* TODO */
 135:app_statemachine.c ****     [AUTO_ACQ_SPIRAL] = NULL,   /* TODO */
 136:app_statemachine.c ****     [AUTO_TRACKING]   = NULL,   /* TODO */
 137:app_statemachine.c ****     [AUTO_LOSS]       = NULL,   /* TODO */
 138:app_statemachine.c ****     [AUTO_NO_LOCK]    = NULL,   /* TODO */
 139:app_statemachine.c ****     [ERROR_ACTIVE]    = NULL,
 140:app_statemachine.c **** };
 141:app_statemachine.c **** 
 142:app_statemachine.c **** static const key_fn_t on_key[STATE_COUNT] = {
 143:app_statemachine.c ****     [STBY_DEFER]      = NULL,
 144:app_statemachine.c ****     [STBY_HOLD]       = NULL,
 145:app_statemachine.c ****     [MANU_JOYSTICK]   = key_manu_joystick,
 146:app_statemachine.c ****     [MANU_NUDGE]      = NULL,   /* TODO */
 147:app_statemachine.c ****     [AUTO_HOME]       = NULL,   /* TODO */
 148:app_statemachine.c ****     [AUTO_ACQ_GPS]    = NULL,   /* TODO */
 149:app_statemachine.c ****     [AUTO_ACQ_SPIRAL] = NULL,   /* TODO */
 150:app_statemachine.c ****     [AUTO_TRACKING]   = NULL,   /* TODO */
 151:app_statemachine.c ****     [AUTO_LOSS]       = NULL,   /* TODO */
 152:app_statemachine.c ****     [AUTO_NO_LOCK]    = NULL,   /* TODO */
 153:app_statemachine.c ****     [ERROR_ACTIVE]    = key_error_active,
 154:app_statemachine.c **** };
 155:app_statemachine.c **** 
 156:app_statemachine.c **** static const build_fn_t on_build[STATE_COUNT] = {
 157:app_statemachine.c ****     [STBY_DEFER]      = build_stby,
 158:app_statemachine.c ****     [STBY_HOLD]       = build_stby,
ARM GAS  C:\Users\JENNEW~1\AppData\Local\Temp\ccAtvZYd.s 			page 6


 159:app_statemachine.c ****     [MANU_JOYSTICK]   = build_manu_joystick,
 160:app_statemachine.c ****     [MANU_NUDGE]      = NULL,   /* TODO */
 161:app_statemachine.c ****     [AUTO_HOME]       = NULL,   /* TODO */
 162:app_statemachine.c ****     [AUTO_ACQ_GPS]    = NULL,   /* TODO */
 163:app_statemachine.c ****     [AUTO_ACQ_SPIRAL] = NULL,   /* TODO */
 164:app_statemachine.c ****     [AUTO_TRACKING]   = NULL,   /* TODO */
 165:app_statemachine.c ****     [AUTO_LOSS]       = NULL,   /* TODO */
 166:app_statemachine.c ****     [AUTO_NO_LOCK]    = NULL,   /* TODO */
 167:app_statemachine.c ****     [ERROR_ACTIVE]    = build_error,
 168:app_statemachine.c **** };
 169:app_statemachine.c **** 
 170:app_statemachine.c **** // Lowest common ancestor (LCA) walk %========================================%
 171:app_statemachine.c **** // For a given state, walk up its parents to ROOT, then walk down to incoming
 172:app_statemachine.c **** // state. Allows for heirarchical and shared entry/exit behaviour.
 173:app_statemachine.c **** static uint8_t depth_of(state_t s)
 174:app_statemachine.c **** {
 120              		.loc 1 174 0
 121              		.cfi_startproc
 122              		@ args = 0, pretend = 0, frame = 16
 123              		@ frame_needed = 1, uses_anonymous_args = 0
 124              		@ link register save eliminated.
 125 0000 80B4     		push	{r7}
 126              		.cfi_def_cfa_offset 4
 127              		.cfi_offset 7, -4
 128 0002 85B0     		sub	sp, sp, #20
 129              		.cfi_def_cfa_offset 24
 130 0004 00AF     		add	r7, sp, #0
 131              		.cfi_def_cfa_register 7
 132 0006 0346     		mov	r3, r0
 133 0008 FB71     		strb	r3, [r7, #7]
 175:app_statemachine.c ****     uint8_t d = 0;
 134              		.loc 1 175 0
 135 000a 0023     		movs	r3, #0
 136 000c FB73     		strb	r3, [r7, #15]
 176:app_statemachine.c ****     while (s != ROOT) { s = parent_of[s]; d++; }
 137              		.loc 1 176 0
 138 000e 06E0     		b	.L2
 139              	.L3:
 140              		.loc 1 176 0 is_stmt 0 discriminator 2
 141 0010 FB79     		ldrb	r3, [r7, #7]	@ zero_extendqisi2
 142 0012 074A     		ldr	r2, .L5
 143 0014 D35C     		ldrb	r3, [r2, r3]
 144 0016 FB71     		strb	r3, [r7, #7]
 145 0018 FB7B     		ldrb	r3, [r7, #15]	@ zero_extendqisi2
 146 001a 0133     		adds	r3, r3, #1
 147 001c FB73     		strb	r3, [r7, #15]
 148              	.L2:
 149              		.loc 1 176 0 discriminator 1
 150 001e FB79     		ldrb	r3, [r7, #7]	@ zero_extendqisi2
 151 0020 002B     		cmp	r3, #0
 152 0022 F5D1     		bne	.L3
 177:app_statemachine.c ****     return d;
 153              		.loc 1 177 0 is_stmt 1
 154 0024 FB7B     		ldrb	r3, [r7, #15]	@ zero_extendqisi2
 178:app_statemachine.c **** }
 155              		.loc 1 178 0
 156 0026 1846     		mov	r0, r3
ARM GAS  C:\Users\JENNEW~1\AppData\Local\Temp\ccAtvZYd.s 			page 7


 157 0028 1437     		adds	r7, r7, #20
 158              		.cfi_def_cfa_offset 4
 159 002a BD46     		mov	sp, r7
 160              		.cfi_def_cfa_register 13
 161              		@ sp needed
 162 002c 80BC     		pop	{r7}
 163              		.cfi_restore 7
 164              		.cfi_def_cfa_offset 0
 165 002e 7047     		bx	lr
 166              	.L6:
 167              		.align	2
 168              	.L5:
 169 0030 00000000 		.word	parent_of
 170              		.cfi_endproc
 171              	.LFE63:
 172              		.size	depth_of, .-depth_of
 173              		.section	.text.lca,"ax",%progbits
 174              		.align	2
 175              		.thumb
 176              		.thumb_func
 177              		.type	lca, %function
 178              	lca:
 179              	.LFB64:
 179:app_statemachine.c **** 
 180:app_statemachine.c **** static state_t lca(state_t a, state_t b)
 181:app_statemachine.c **** {
 180              		.loc 1 181 0
 181              		.cfi_startproc
 182              		@ args = 0, pretend = 0, frame = 16
 183              		@ frame_needed = 1, uses_anonymous_args = 0
 184 0000 80B5     		push	{r7, lr}
 185              		.cfi_def_cfa_offset 8
 186              		.cfi_offset 7, -8
 187              		.cfi_offset 14, -4
 188 0002 84B0     		sub	sp, sp, #16
 189              		.cfi_def_cfa_offset 24
 190 0004 00AF     		add	r7, sp, #0
 191              		.cfi_def_cfa_register 7
 192 0006 0346     		mov	r3, r0
 193 0008 0A46     		mov	r2, r1
 194 000a FB71     		strb	r3, [r7, #7]
 195 000c 1346     		mov	r3, r2
 196 000e BB71     		strb	r3, [r7, #6]
 182:app_statemachine.c ****     uint8_t da = depth_of(a), db = depth_of(b);
 197              		.loc 1 182 0
 198 0010 FB79     		ldrb	r3, [r7, #7]	@ zero_extendqisi2
 199 0012 1846     		mov	r0, r3
 200 0014 FFF7FEFF 		bl	depth_of
 201 0018 0346     		mov	r3, r0
 202 001a FB73     		strb	r3, [r7, #15]
 203 001c BB79     		ldrb	r3, [r7, #6]	@ zero_extendqisi2
 204 001e 1846     		mov	r0, r3
 205 0020 FFF7FEFF 		bl	depth_of
 206 0024 0346     		mov	r3, r0
 207 0026 BB73     		strb	r3, [r7, #14]
 183:app_statemachine.c ****     while (da > db) { a = parent_of[a]; da--; }
 208              		.loc 1 183 0
ARM GAS  C:\Users\JENNEW~1\AppData\Local\Temp\ccAtvZYd.s 			page 8


 209 0028 06E0     		b	.L8
 210              	.L9:
 211              		.loc 1 183 0 is_stmt 0 discriminator 2
 212 002a FB79     		ldrb	r3, [r7, #7]	@ zero_extendqisi2
 213 002c 134A     		ldr	r2, .L15
 214 002e D35C     		ldrb	r3, [r2, r3]
 215 0030 FB71     		strb	r3, [r7, #7]
 216 0032 FB7B     		ldrb	r3, [r7, #15]	@ zero_extendqisi2
 217 0034 013B     		subs	r3, r3, #1
 218 0036 FB73     		strb	r3, [r7, #15]
 219              	.L8:
 220              		.loc 1 183 0 discriminator 1
 221 0038 FA7B     		ldrb	r2, [r7, #15]	@ zero_extendqisi2
 222 003a BB7B     		ldrb	r3, [r7, #14]	@ zero_extendqisi2
 223 003c 9A42     		cmp	r2, r3
 224 003e F4D8     		bhi	.L9
 184:app_statemachine.c ****     while (db > da) { b = parent_of[b]; db--; }
 225              		.loc 1 184 0 is_stmt 1
 226 0040 06E0     		b	.L10
 227              	.L11:
 228              		.loc 1 184 0 is_stmt 0 discriminator 2
 229 0042 BB79     		ldrb	r3, [r7, #6]	@ zero_extendqisi2
 230 0044 0D4A     		ldr	r2, .L15
 231 0046 D35C     		ldrb	r3, [r2, r3]
 232 0048 BB71     		strb	r3, [r7, #6]
 233 004a BB7B     		ldrb	r3, [r7, #14]	@ zero_extendqisi2
 234 004c 013B     		subs	r3, r3, #1
 235 004e BB73     		strb	r3, [r7, #14]
 236              	.L10:
 237              		.loc 1 184 0 discriminator 1
 238 0050 BA7B     		ldrb	r2, [r7, #14]	@ zero_extendqisi2
 239 0052 FB7B     		ldrb	r3, [r7, #15]	@ zero_extendqisi2
 240 0054 9A42     		cmp	r2, r3
 241 0056 F4D8     		bhi	.L11
 185:app_statemachine.c ****     while (a != b)  { a = parent_of[a]; b = parent_of[b]; }
 242              		.loc 1 185 0 is_stmt 1
 243 0058 07E0     		b	.L12
 244              	.L13:
 245              		.loc 1 185 0 is_stmt 0 discriminator 2
 246 005a FB79     		ldrb	r3, [r7, #7]	@ zero_extendqisi2
 247 005c 074A     		ldr	r2, .L15
 248 005e D35C     		ldrb	r3, [r2, r3]
 249 0060 FB71     		strb	r3, [r7, #7]
 250 0062 BB79     		ldrb	r3, [r7, #6]	@ zero_extendqisi2
 251 0064 054A     		ldr	r2, .L15
 252 0066 D35C     		ldrb	r3, [r2, r3]
 253 0068 BB71     		strb	r3, [r7, #6]
 254              	.L12:
 255              		.loc 1 185 0 discriminator 1
 256 006a FA79     		ldrb	r2, [r7, #7]	@ zero_extendqisi2
 257 006c BB79     		ldrb	r3, [r7, #6]	@ zero_extendqisi2
 258 006e 9A42     		cmp	r2, r3
 259 0070 F3D1     		bne	.L13
 186:app_statemachine.c ****     return a;
 260              		.loc 1 186 0 is_stmt 1
 261 0072 FB79     		ldrb	r3, [r7, #7]	@ zero_extendqisi2
 187:app_statemachine.c **** }
ARM GAS  C:\Users\JENNEW~1\AppData\Local\Temp\ccAtvZYd.s 			page 9


 262              		.loc 1 187 0
 263 0074 1846     		mov	r0, r3
 264 0076 1037     		adds	r7, r7, #16
 265              		.cfi_def_cfa_offset 8
 266 0078 BD46     		mov	sp, r7
 267              		.cfi_def_cfa_register 13
 268              		@ sp needed
 269 007a 80BD     		pop	{r7, pc}
 270              	.L16:
 271              		.align	2
 272              	.L15:
 273 007c 00000000 		.word	parent_of
 274              		.cfi_endproc
 275              	.LFE64:
 276              		.size	lca, .-lca
 277              		.section	.text.transition,"ax",%progbits
 278              		.align	2
 279              		.thumb
 280              		.thumb_func
 281              		.type	transition, %function
 282              	transition:
 283              	.LFB65:
 188:app_statemachine.c **** 
 189:app_statemachine.c **** // Transition driver %========================================================%
 190:app_statemachine.c **** // Walk src up to LCA (running on_exit), then LCA down to target (running
 191:app_statemachine.c **** // on_entry). Self-transitions are a no-op. ROOT is the absorbing root, so
 192:app_statemachine.c **** // any pair has an LCA.
 193:app_statemachine.c **** 
 194:app_statemachine.c **** // Transition workhorse %=====================================================%
 195:app_statemachine.c **** //
 196:app_statemachine.c **** static void transition(app_ctx_t *ctx, state_t target)
 197:app_statemachine.c **** {
 284              		.loc 1 197 0
 285              		.cfi_startproc
 286              		@ args = 0, pretend = 0, frame = 24
 287              		@ frame_needed = 1, uses_anonymous_args = 0
 288 0000 80B5     		push	{r7, lr}
 289              		.cfi_def_cfa_offset 8
 290              		.cfi_offset 7, -8
 291              		.cfi_offset 14, -4
 292 0002 86B0     		sub	sp, sp, #24
 293              		.cfi_def_cfa_offset 32
 294 0004 00AF     		add	r7, sp, #0
 295              		.cfi_def_cfa_register 7
 296 0006 7860     		str	r0, [r7, #4]
 297 0008 0B46     		mov	r3, r1
 298 000a FB70     		strb	r3, [r7, #3]
 198:app_statemachine.c ****     // Self transition handle.
 199:app_statemachine.c ****     state_t src = ctx->state;
 299              		.loc 1 199 0
 300 000c 7B68     		ldr	r3, [r7, #4]
 301 000e 1B79     		ldrb	r3, [r3, #4]
 302 0010 3B75     		strb	r3, [r7, #20]
 200:app_statemachine.c ****     if (target == src) return;
 303              		.loc 1 200 0
 304 0012 FA78     		ldrb	r2, [r7, #3]	@ zero_extendqisi2
 305 0014 3B7D     		ldrb	r3, [r7, #20]	@ zero_extendqisi2
ARM GAS  C:\Users\JENNEW~1\AppData\Local\Temp\ccAtvZYd.s 			page 10


 306 0016 9A42     		cmp	r2, r3
 307 0018 5DD0     		beq	.L27
 201:app_statemachine.c ****     
 202:app_statemachine.c ****     // LCA walk.
 203:app_statemachine.c ****     state_t common = lca(src, target);
 308              		.loc 1 203 0
 309 001a FA78     		ldrb	r2, [r7, #3]	@ zero_extendqisi2
 310 001c 3B7D     		ldrb	r3, [r7, #20]	@ zero_extendqisi2
 311 001e 1146     		mov	r1, r2
 312 0020 1846     		mov	r0, r3
 313 0022 FFF7FEFF 		bl	lca
 314 0026 0346     		mov	r3, r0
 315 0028 FB74     		strb	r3, [r7, #19]
 316              	.LBB2:
 204:app_statemachine.c **** 
 205:app_statemachine.c ****     // Shared parents require no duplicate on_exit calls.
 206:app_statemachine.c ****     // Walk up path, running on_exit.
 207:app_statemachine.c ****     for (state_t s = src; s != common; s = parent_of[s]) {
 317              		.loc 1 207 0
 318 002a 3B7D     		ldrb	r3, [r7, #20]
 319 002c FB75     		strb	r3, [r7, #23]
 320 002e 0FE0     		b	.L20
 321              	.L22:
 208:app_statemachine.c ****         if (on_exit[s]) on_exit[s](ctx);
 322              		.loc 1 208 0
 323 0030 FB7D     		ldrb	r3, [r7, #23]	@ zero_extendqisi2
 324 0032 2B4A     		ldr	r2, .L28
 325 0034 52F82330 		ldr	r3, [r2, r3, lsl #2]
 326 0038 002B     		cmp	r3, #0
 327 003a 05D0     		beq	.L21
 328              		.loc 1 208 0 is_stmt 0 discriminator 1
 329 003c FB7D     		ldrb	r3, [r7, #23]	@ zero_extendqisi2
 330 003e 284A     		ldr	r2, .L28
 331 0040 52F82330 		ldr	r3, [r2, r3, lsl #2]
 332 0044 7868     		ldr	r0, [r7, #4]
 333 0046 9847     		blx	r3
 334              	.L21:
 207:app_statemachine.c ****         if (on_exit[s]) on_exit[s](ctx);
 335              		.loc 1 207 0 is_stmt 1 discriminator 2
 336 0048 FB7D     		ldrb	r3, [r7, #23]	@ zero_extendqisi2
 337 004a 264A     		ldr	r2, .L28+4
 338 004c D35C     		ldrb	r3, [r2, r3]
 339 004e FB75     		strb	r3, [r7, #23]
 340              	.L20:
 207:app_statemachine.c ****         if (on_exit[s]) on_exit[s](ctx);
 341              		.loc 1 207 0 is_stmt 0 discriminator 1
 342 0050 FA7D     		ldrb	r2, [r7, #23]	@ zero_extendqisi2
 343 0052 FB7C     		ldrb	r3, [r7, #19]	@ zero_extendqisi2
 344 0054 9A42     		cmp	r2, r3
 345 0056 EBD1     		bne	.L22
 346              	.LBE2:
 209:app_statemachine.c ****     }
 210:app_statemachine.c ****     
 211:app_statemachine.c ****     ctx->prev_leaf = src;  // Return to last state book-keeping.
 347              		.loc 1 211 0 is_stmt 1
 348 0058 7B68     		ldr	r3, [r7, #4]
 349 005a 3A7D     		ldrb	r2, [r7, #20]
ARM GAS  C:\Users\JENNEW~1\AppData\Local\Temp\ccAtvZYd.s 			page 11


 350 005c 5A71     		strb	r2, [r3, #5]
 212:app_statemachine.c **** 
 213:app_statemachine.c ****     // Walk down the path, running on_entry.
 214:app_statemachine.c ****     state_t path[MAX_HFSM_DEPTH];
 215:app_statemachine.c ****     uint8_t n = 0;
 351              		.loc 1 215 0
 352 005e 0023     		movs	r3, #0
 353 0060 BB75     		strb	r3, [r7, #22]
 354              	.LBB3:
 216:app_statemachine.c ****     for (state_t s = target; s != common; s = parent_of[s]) {
 355              		.loc 1 216 0
 356 0062 FB78     		ldrb	r3, [r7, #3]
 357 0064 7B75     		strb	r3, [r7, #21]
 358 0066 0CE0     		b	.L23
 359              	.L24:
 217:app_statemachine.c ****         path[n++] = s;
 360              		.loc 1 217 0 discriminator 3
 361 0068 BB7D     		ldrb	r3, [r7, #22]	@ zero_extendqisi2
 362 006a 5A1C     		adds	r2, r3, #1
 363 006c BA75     		strb	r2, [r7, #22]
 364 006e 07F11802 		add	r2, r7, #24
 365 0072 1344     		add	r3, r3, r2
 366 0074 7A7D     		ldrb	r2, [r7, #21]
 367 0076 03F80C2C 		strb	r2, [r3, #-12]
 216:app_statemachine.c ****     for (state_t s = target; s != common; s = parent_of[s]) {
 368              		.loc 1 216 0 discriminator 3
 369 007a 7B7D     		ldrb	r3, [r7, #21]	@ zero_extendqisi2
 370 007c 194A     		ldr	r2, .L28+4
 371 007e D35C     		ldrb	r3, [r2, r3]
 372 0080 7B75     		strb	r3, [r7, #21]
 373              	.L23:
 216:app_statemachine.c ****     for (state_t s = target; s != common; s = parent_of[s]) {
 374              		.loc 1 216 0 is_stmt 0 discriminator 1
 375 0082 7A7D     		ldrb	r2, [r7, #21]	@ zero_extendqisi2
 376 0084 FB7C     		ldrb	r3, [r7, #19]	@ zero_extendqisi2
 377 0086 9A42     		cmp	r2, r3
 378 0088 EED1     		bne	.L24
 379              	.LBE3:
 218:app_statemachine.c ****     }
 219:app_statemachine.c ****     while (n--) {
 380              		.loc 1 219 0 is_stmt 1
 381 008a 17E0     		b	.L25
 382              	.L26:
 220:app_statemachine.c ****         if (on_entry[path[n]]) on_entry[path[n]](ctx);
 383              		.loc 1 220 0
 384 008c BB7D     		ldrb	r3, [r7, #22]	@ zero_extendqisi2
 385 008e 07F11802 		add	r2, r7, #24
 386 0092 1344     		add	r3, r3, r2
 387 0094 13F80C3C 		ldrb	r3, [r3, #-12]	@ zero_extendqisi2
 388 0098 1A46     		mov	r2, r3
 389 009a 134B     		ldr	r3, .L28+8
 390 009c 53F82230 		ldr	r3, [r3, r2, lsl #2]
 391 00a0 002B     		cmp	r3, #0
 392 00a2 0BD0     		beq	.L25
 393              		.loc 1 220 0 is_stmt 0 discriminator 1
 394 00a4 BB7D     		ldrb	r3, [r7, #22]	@ zero_extendqisi2
 395 00a6 07F11802 		add	r2, r7, #24
ARM GAS  C:\Users\JENNEW~1\AppData\Local\Temp\ccAtvZYd.s 			page 12


 396 00aa 1344     		add	r3, r3, r2
 397 00ac 13F80C3C 		ldrb	r3, [r3, #-12]	@ zero_extendqisi2
 398 00b0 1A46     		mov	r2, r3
 399 00b2 0D4B     		ldr	r3, .L28+8
 400 00b4 53F82230 		ldr	r3, [r3, r2, lsl #2]
 401 00b8 7868     		ldr	r0, [r7, #4]
 402 00ba 9847     		blx	r3
 403              	.L25:
 219:app_statemachine.c ****         if (on_entry[path[n]]) on_entry[path[n]](ctx);
 404              		.loc 1 219 0 is_stmt 1
 405 00bc BB7D     		ldrb	r3, [r7, #22]	@ zero_extendqisi2
 406 00be 5A1E     		subs	r2, r3, #1
 407 00c0 BA75     		strb	r2, [r7, #22]
 408 00c2 002B     		cmp	r3, #0
 409 00c4 E2D1     		bne	.L26
 221:app_statemachine.c ****     }
 222:app_statemachine.c ****     
 223:app_statemachine.c ****     // Store new state.
 224:app_statemachine.c ****     ctx->state          = target;
 410              		.loc 1 224 0
 411 00c6 7B68     		ldr	r3, [r7, #4]
 412 00c8 FA78     		ldrb	r2, [r7, #3]
 413 00ca 1A71     		strb	r2, [r3, #4]
 225:app_statemachine.c ****     ctx->state_entry_ms = g_tick_ms;
 414              		.loc 1 225 0
 415 00cc 074B     		ldr	r3, .L28+12
 416 00ce 1A68     		ldr	r2, [r3]
 417 00d0 7B68     		ldr	r3, [r7, #4]
 418 00d2 DA62     		str	r2, [r3, #44]
 419 00d4 00E0     		b	.L17
 420              	.L27:
 200:app_statemachine.c ****     
 421              		.loc 1 200 0
 422 00d6 00BF     		nop
 423              	.L17:
 226:app_statemachine.c **** }
 424              		.loc 1 226 0
 425 00d8 1837     		adds	r7, r7, #24
 426              		.cfi_def_cfa_offset 8
 427 00da BD46     		mov	sp, r7
 428              		.cfi_def_cfa_register 13
 429              		@ sp needed
 430 00dc 80BD     		pop	{r7, pc}
 431              	.L29:
 432 00de 00BF     		.align	2
 433              	.L28:
 434 00e0 50000000 		.word	on_exit
 435 00e4 00000000 		.word	parent_of
 436 00e8 10000000 		.word	on_entry
 437 00ec 00000000 		.word	g_tick_ms
 438              		.cfi_endproc
 439              	.LFE65:
 440              		.size	transition, .-transition
 441              		.section	.text.app_start,"ax",%progbits
 442              		.align	2
 443              		.global	app_start
 444              		.thumb
ARM GAS  C:\Users\JENNEW~1\AppData\Local\Temp\ccAtvZYd.s 			page 13


 445              		.thumb_func
 446              		.type	app_start, %function
 447              	app_start:
 448              	.LFB66:
 227:app_statemachine.c **** 
 228:app_statemachine.c **** // On boot.
 229:app_statemachine.c **** void app_start(app_ctx_t *ctx)
 230:app_statemachine.c **** {
 449              		.loc 1 230 0
 450              		.cfi_startproc
 451              		@ args = 0, pretend = 0, frame = 16
 452              		@ frame_needed = 1, uses_anonymous_args = 0
 453 0000 80B5     		push	{r7, lr}
 454              		.cfi_def_cfa_offset 8
 455              		.cfi_offset 7, -8
 456              		.cfi_offset 14, -4
 457 0002 84B0     		sub	sp, sp, #16
 458              		.cfi_def_cfa_offset 24
 459 0004 00AF     		add	r7, sp, #0
 460              		.cfi_def_cfa_register 7
 461 0006 7860     		str	r0, [r7, #4]
 231:app_statemachine.c ****     // Walk entry conditions from ROOT to the init state,
 232:app_statemachine.c ****     state_t target = ctx->state;
 462              		.loc 1 232 0
 463 0008 7B68     		ldr	r3, [r7, #4]
 464 000a 1B79     		ldrb	r3, [r3, #4]
 465 000c FB73     		strb	r3, [r7, #15]
 233:app_statemachine.c ****     ctx->state = ROOT;
 466              		.loc 1 233 0
 467 000e 7B68     		ldr	r3, [r7, #4]
 468 0010 0022     		movs	r2, #0
 469 0012 1A71     		strb	r2, [r3, #4]
 234:app_statemachine.c ****     transition(ctx, target);
 470              		.loc 1 234 0
 471 0014 FB7B     		ldrb	r3, [r7, #15]	@ zero_extendqisi2
 472 0016 1946     		mov	r1, r3
 473 0018 7868     		ldr	r0, [r7, #4]
 474 001a FFF7FEFF 		bl	transition
 235:app_statemachine.c **** }
 475              		.loc 1 235 0
 476 001e 00BF     		nop
 477 0020 1037     		adds	r7, r7, #16
 478              		.cfi_def_cfa_offset 8
 479 0022 BD46     		mov	sp, r7
 480              		.cfi_def_cfa_register 13
 481              		@ sp needed
 482 0024 80BD     		pop	{r7, pc}
 483              		.cfi_endproc
 484              	.LFE66:
 485              		.size	app_start, .-app_start
 486 0026 00BF     		.section	.rodata
 487              		.align	2
 488              	.LC0:
 489 0110 5B555345 		.ascii	"[USER] \000"
 489      525D2000 
 490              		.align	2
 491              	.LC1:
ARM GAS  C:\Users\JENNEW~1\AppData\Local\Temp\ccAtvZYd.s 			page 14


 492 0118 0D0A00   		.ascii	"\015\012\000"
 493              		.section	.text.app_raise_error,"ax",%progbits
 494              		.align	2
 495              		.global	app_raise_error
 496              		.thumb
 497              		.thumb_func
 498              		.type	app_raise_error, %function
 499              	app_raise_error:
 500              	.LFB67:
 236:app_statemachine.c **** 
 237:app_statemachine.c **** // On error: Handles severity.
 238:app_statemachine.c **** void app_raise_error(app_ctx_t *ctx, err_sev_t sev, const char *msg)
 239:app_statemachine.c **** {
 501              		.loc 1 239 0
 502              		.cfi_startproc
 503              		@ args = 0, pretend = 0, frame = 16
 504              		@ frame_needed = 1, uses_anonymous_args = 0
 505 0000 80B5     		push	{r7, lr}
 506              		.cfi_def_cfa_offset 8
 507              		.cfi_offset 7, -8
 508              		.cfi_offset 14, -4
 509 0002 84B0     		sub	sp, sp, #16
 510              		.cfi_def_cfa_offset 24
 511 0004 00AF     		add	r7, sp, #0
 512              		.cfi_def_cfa_register 7
 513 0006 F860     		str	r0, [r7, #12]
 514 0008 0B46     		mov	r3, r1
 515 000a 7A60     		str	r2, [r7, #4]
 516 000c FB72     		strb	r3, [r7, #11]
 240:app_statemachine.c ****     // User error: Invalid request, do not change and notify user.
 241:app_statemachine.c ****     if (sev == SEV_USER) {
 517              		.loc 1 241 0
 518 000e FB7A     		ldrb	r3, [r7, #11]	@ zero_extendqisi2
 519 0010 002B     		cmp	r3, #0
 520 0012 09D1     		bne	.L32
 242:app_statemachine.c ****         UART_DEBUG_PutString("[USER] ");
 521              		.loc 1 242 0
 522 0014 1248     		ldr	r0, .L37
 523 0016 FFF7FEFF 		bl	UART_DEBUG_PutString
 243:app_statemachine.c ****         UART_DEBUG_PutString(msg);
 524              		.loc 1 243 0
 525 001a 7868     		ldr	r0, [r7, #4]
 526 001c FFF7FEFF 		bl	UART_DEBUG_PutString
 244:app_statemachine.c ****         UART_DEBUG_PutString("\r\n");
 527              		.loc 1 244 0
 528 0020 1048     		ldr	r0, .L37+4
 529 0022 FFF7FEFF 		bl	UART_DEBUG_PutString
 245:app_statemachine.c ****         return;
 530              		.loc 1 245 0
 531 0026 18E0     		b	.L31
 532              	.L32:
 246:app_statemachine.c ****     }
 247:app_statemachine.c ****     
 248:app_statemachine.c ****     // Fatal error flag.
 249:app_statemachine.c ****     if (ctx->fatal_latched && sev != SEV_FATAL) return;
 533              		.loc 1 249 0
 534 0028 FB68     		ldr	r3, [r7, #12]
ARM GAS  C:\Users\JENNEW~1\AppData\Local\Temp\ccAtvZYd.s 			page 15


 535 002a 1B7B     		ldrb	r3, [r3, #12]	@ zero_extendqisi2
 536 002c 002B     		cmp	r3, #0
 537 002e 02D0     		beq	.L34
 538              		.loc 1 249 0 is_stmt 0 discriminator 1
 539 0030 FB7A     		ldrb	r3, [r7, #11]	@ zero_extendqisi2
 540 0032 032B     		cmp	r3, #3
 541 0034 10D1     		bne	.L36
 542              	.L34:
 250:app_statemachine.c ****     
 251:app_statemachine.c ****     ctx->err_sev = sev;
 543              		.loc 1 251 0 is_stmt 1
 544 0036 FB68     		ldr	r3, [r7, #12]
 545 0038 FA7A     		ldrb	r2, [r7, #11]
 546 003a 9A71     		strb	r2, [r3, #6]
 252:app_statemachine.c ****     ctx->err_msg = msg;
 547              		.loc 1 252 0
 548 003c FB68     		ldr	r3, [r7, #12]
 549 003e 7A68     		ldr	r2, [r7, #4]
 550 0040 9A60     		str	r2, [r3, #8]
 253:app_statemachine.c ****     if (sev == SEV_FATAL) ctx->fatal_latched = 1u;
 551              		.loc 1 253 0
 552 0042 FB7A     		ldrb	r3, [r7, #11]	@ zero_extendqisi2
 553 0044 032B     		cmp	r3, #3
 554 0046 02D1     		bne	.L35
 555              		.loc 1 253 0 is_stmt 0 discriminator 1
 556 0048 FB68     		ldr	r3, [r7, #12]
 557 004a 0122     		movs	r2, #1
 558 004c 1A73     		strb	r2, [r3, #12]
 559              	.L35:
 254:app_statemachine.c ****     
 255:app_statemachine.c ****     transition(ctx, ERROR_ACTIVE);  // Go to error state.
 560              		.loc 1 255 0 is_stmt 1
 561 004e 0F21     		movs	r1, #15
 562 0050 F868     		ldr	r0, [r7, #12]
 563 0052 FFF7FEFF 		bl	transition
 564 0056 00E0     		b	.L31
 565              	.L36:
 249:app_statemachine.c ****     
 566              		.loc 1 249 0
 567 0058 00BF     		nop
 568              	.L31:
 256:app_statemachine.c **** }
 569              		.loc 1 256 0
 570 005a 1037     		adds	r7, r7, #16
 571              		.cfi_def_cfa_offset 8
 572 005c BD46     		mov	sp, r7
 573              		.cfi_def_cfa_register 13
 574              		@ sp needed
 575 005e 80BD     		pop	{r7, pc}
 576              	.L38:
 577              		.align	2
 578              	.L37:
 579 0060 10010000 		.word	.LC0
 580 0064 18010000 		.word	.LC1
 581              		.cfi_endproc
 582              	.LFE67:
 583              		.size	app_raise_error, .-app_raise_error
ARM GAS  C:\Users\JENNEW~1\AppData\Local\Temp\ccAtvZYd.s 			page 16


 584              		.section	.rodata
 585 011b 00       		.align	2
 586              	.LC2:
 587 011c 524F4F54 		.ascii	"ROOT\000"
 587      00
 588 0121 000000   		.align	2
 589              	.LC3:
 590 0124 53544259 		.ascii	"STBY\000"
 590      00
 591 0129 000000   		.align	2
 592              	.LC4:
 593 012c 4D414E55 		.ascii	"MANU\000"
 593      00
 594 0131 000000   		.align	2
 595              	.LC5:
 596 0134 4155544F 		.ascii	"AUTO\000"
 596      00
 597 0139 000000   		.align	2
 598              	.LC6:
 599 013c 4552524F 		.ascii	"ERROR\000"
 599      5200
 600 0142 0000     		.align	2
 601              	.LC7:
 602 0144 53544259 		.ascii	"STBY_DEFER\000"
 602      5F444546 
 602      455200
 603 014f 00       		.align	2
 604              	.LC8:
 605 0150 53544259 		.ascii	"STBY_HOLD\000"
 605      5F484F4C 
 605      4400
 606 015a 0000     		.align	2
 607              	.LC9:
 608 015c 4D414E55 		.ascii	"MANU_JOYSTICK\000"
 608      5F4A4F59 
 608      53544943 
 608      4B00
 609 016a 0000     		.align	2
 610              	.LC10:
 611 016c 4D414E55 		.ascii	"MANU_NUDGE\000"
 611      5F4E5544 
 611      474500
 612 0177 00       		.align	2
 613              	.LC11:
 614 0178 4155544F 		.ascii	"AUTO_HOME\000"
 614      5F484F4D 
 614      4500
 615 0182 0000     		.align	2
 616              	.LC12:
 617 0184 4155544F 		.ascii	"AUTO_ACQ_GPS\000"
 617      5F414351 
 617      5F475053 
 617      00
 618 0191 000000   		.align	2
 619              	.LC13:
 620 0194 4155544F 		.ascii	"AUTO_ACQ_SPIRAL\000"
 620      5F414351 
ARM GAS  C:\Users\JENNEW~1\AppData\Local\Temp\ccAtvZYd.s 			page 17


 620      5F535049 
 620      52414C00 
 621              		.align	2
 622              	.LC14:
 623 01a4 4155544F 		.ascii	"AUTO_TRACKING\000"
 623      5F545241 
 623      434B494E 
 623      4700
 624 01b2 0000     		.align	2
 625              	.LC15:
 626 01b4 4155544F 		.ascii	"AUTO_LOSS\000"
 626      5F4C4F53 
 626      5300
 627 01be 0000     		.align	2
 628              	.LC16:
 629 01c0 4155544F 		.ascii	"AUTO_NO_LOCK\000"
 629      5F4E4F5F 
 629      4C4F434B 
 629      00
 630 01cd 000000   		.align	2
 631              	.LC17:
 632 01d0 4552524F 		.ascii	"ERROR_ACTIVE\000"
 632      525F4143 
 632      54495645 
 632      00
 633 01dd 000000   		.align	2
 634              		.type	state_names, %object
 635              		.size	state_names, 64
 636              	state_names:
 637 01e0 1C010000 		.word	.LC2
 638 01e4 24010000 		.word	.LC3
 639 01e8 2C010000 		.word	.LC4
 640 01ec 34010000 		.word	.LC5
 641 01f0 3C010000 		.word	.LC6
 642 01f4 44010000 		.word	.LC7
 643 01f8 50010000 		.word	.LC8
 644 01fc 5C010000 		.word	.LC9
 645 0200 6C010000 		.word	.LC10
 646 0204 78010000 		.word	.LC11
 647 0208 84010000 		.word	.LC12
 648 020c 94010000 		.word	.LC13
 649 0210 A4010000 		.word	.LC14
 650 0214 B4010000 		.word	.LC15
 651 0218 C0010000 		.word	.LC16
 652 021c D0010000 		.word	.LC17
 653              		.section	.text.app_state_name,"ax",%progbits
 654              		.align	2
 655              		.global	app_state_name
 656              		.thumb
 657              		.thumb_func
 658              		.type	app_state_name, %function
 659              	app_state_name:
 660              	.LFB68:
 257:app_statemachine.c **** 
 258:app_statemachine.c **** // Lookup table for state names, used by serial monitor.
 259:app_statemachine.c **** static const char *const state_names[STATE_COUNT] = {
 260:app_statemachine.c ****     [ROOT] = "ROOT",
ARM GAS  C:\Users\JENNEW~1\AppData\Local\Temp\ccAtvZYd.s 			page 18


 261:app_statemachine.c ****     [STBY] = "STBY", [MANU] = "MANU", [AUTO] = "AUTO", [ERROR] = "ERROR",
 262:app_statemachine.c ****     [STBY_DEFER]      = "STBY_DEFER",
 263:app_statemachine.c ****     [STBY_HOLD]       = "STBY_HOLD",
 264:app_statemachine.c ****     [MANU_JOYSTICK]   = "MANU_JOYSTICK",
 265:app_statemachine.c ****     [MANU_NUDGE]      = "MANU_NUDGE",
 266:app_statemachine.c ****     [AUTO_HOME]       = "AUTO_HOME",
 267:app_statemachine.c ****     [AUTO_ACQ_GPS]    = "AUTO_ACQ_GPS",
 268:app_statemachine.c ****     [AUTO_ACQ_SPIRAL] = "AUTO_ACQ_SPIRAL",
 269:app_statemachine.c ****     [AUTO_TRACKING]   = "AUTO_TRACKING",
 270:app_statemachine.c ****     [AUTO_LOSS]       = "AUTO_LOSS",
 271:app_statemachine.c ****     [AUTO_NO_LOCK]    = "AUTO_NO_LOCK",
 272:app_statemachine.c ****     [ERROR_ACTIVE]    = "ERROR_ACTIVE",
 273:app_statemachine.c **** };
 274:app_statemachine.c **** 
 275:app_statemachine.c **** // Helper for serial monitor.
 276:app_statemachine.c **** const char *app_state_name(state_t s) { return state_names[s]; }
 661              		.loc 1 276 0
 662              		.cfi_startproc
 663              		@ args = 0, pretend = 0, frame = 8
 664              		@ frame_needed = 1, uses_anonymous_args = 0
 665              		@ link register save eliminated.
 666 0000 80B4     		push	{r7}
 667              		.cfi_def_cfa_offset 4
 668              		.cfi_offset 7, -4
 669 0002 83B0     		sub	sp, sp, #12
 670              		.cfi_def_cfa_offset 16
 671 0004 00AF     		add	r7, sp, #0
 672              		.cfi_def_cfa_register 7
 673 0006 0346     		mov	r3, r0
 674 0008 FB71     		strb	r3, [r7, #7]
 675              		.loc 1 276 0
 676 000a FB79     		ldrb	r3, [r7, #7]	@ zero_extendqisi2
 677 000c 034A     		ldr	r2, .L41
 678 000e 52F82330 		ldr	r3, [r2, r3, lsl #2]
 679 0012 1846     		mov	r0, r3
 680 0014 0C37     		adds	r7, r7, #12
 681              		.cfi_def_cfa_offset 4
 682 0016 BD46     		mov	sp, r7
 683              		.cfi_def_cfa_register 13
 684              		@ sp needed
 685 0018 80BC     		pop	{r7}
 686              		.cfi_restore 7
 687              		.cfi_def_cfa_offset 0
 688 001a 7047     		bx	lr
 689              	.L42:
 690              		.align	2
 691              	.L41:
 692 001c E0010000 		.word	state_names
 693              		.cfi_endproc
 694              	.LFE68:
 695              		.size	app_state_name, .-app_state_name
 696              		.section	.rodata
 697              		.align	2
 698              	.LC18:
 699 0220 0D0A5B53 		.ascii	"\015\012[STBY_DEFER] boot \342\200\224 '1' hold, '2"
 699      5442595F 
 699      44454645 
ARM GAS  C:\Users\JENNEW~1\AppData\Local\Temp\ccAtvZYd.s 			page 19


 699      525D2062 
 699      6F6F7420 
 700 0244 27206D61 		.ascii	"' manual, '3' auto, '?' help\015\012> \000"
 700      6E75616C 
 700      2C202733 
 700      27206175 
 700      746F2C20 
 701              		.section	.text.entry_stby_defer,"ax",%progbits
 702              		.align	2
 703              		.thumb
 704              		.thumb_func
 705              		.type	entry_stby_defer, %function
 706              	entry_stby_defer:
 707              	.LFB69:
 277:app_statemachine.c **** 
 278:app_statemachine.c **** // %==========================================================================%
 279:app_statemachine.c **** // %                               Standby                                    %
 280:app_statemachine.c **** // %==========================================================================%
 281:app_statemachine.c **** 
 282:app_statemachine.c **** // STBY_DEFER %===============================================================%
 283:app_statemachine.c **** // On Enter: Print message, wait for user input.
 284:app_statemachine.c **** static void entry_stby_defer(app_ctx_t *ctx)
 285:app_statemachine.c **** {
 708              		.loc 1 285 0
 709              		.cfi_startproc
 710              		@ args = 0, pretend = 0, frame = 8
 711              		@ frame_needed = 1, uses_anonymous_args = 0
 712 0000 80B5     		push	{r7, lr}
 713              		.cfi_def_cfa_offset 8
 714              		.cfi_offset 7, -8
 715              		.cfi_offset 14, -4
 716 0002 82B0     		sub	sp, sp, #8
 717              		.cfi_def_cfa_offset 16
 718 0004 00AF     		add	r7, sp, #0
 719              		.cfi_def_cfa_register 7
 720 0006 7860     		str	r0, [r7, #4]
 286:app_statemachine.c ****     (void)ctx;
 287:app_statemachine.c ****     UART_DEBUG_PutString("\r\n[STBY_DEFER] boot — '1' hold, '2' manual, '3' auto, '?' help\r\n> "
 721              		.loc 1 287 0
 722 0008 0348     		ldr	r0, .L44
 723 000a FFF7FEFF 		bl	UART_DEBUG_PutString
 288:app_statemachine.c **** }
 724              		.loc 1 288 0
 725 000e 00BF     		nop
 726 0010 0837     		adds	r7, r7, #8
 727              		.cfi_def_cfa_offset 8
 728 0012 BD46     		mov	sp, r7
 729              		.cfi_def_cfa_register 13
 730              		@ sp needed
 731 0014 80BD     		pop	{r7, pc}
 732              	.L45:
 733 0016 00BF     		.align	2
 734              	.L44:
 735 0018 20020000 		.word	.LC18
 736              		.cfi_endproc
 737              	.LFE69:
 738              		.size	entry_stby_defer, .-entry_stby_defer
ARM GAS  C:\Users\JENNEW~1\AppData\Local\Temp\ccAtvZYd.s 			page 20


 739              		.section	.rodata
 740 0265 000000   		.align	2
 741              	.LC19:
 742 0268 0D0A5B53 		.ascii	"\015\012[STBY_HOLD] rates zeroed\015\012> \000"
 742      5442595F 
 742      484F4C44 
 742      5D207261 
 742      74657320 
 743              		.section	.text.entry_stby_hold,"ax",%progbits
 744              		.align	2
 745              		.thumb
 746              		.thumb_func
 747              		.type	entry_stby_hold, %function
 748              	entry_stby_hold:
 749              	.LFB70:
 289:app_statemachine.c **** // On Exit: None
 290:app_statemachine.c **** 
 291:app_statemachine.c **** 
 292:app_statemachine.c **** // STBY_HOLD %================================================================%
 293:app_statemachine.c **** // On Enter
 294:app_statemachine.c **** static void entry_stby_hold(app_ctx_t *ctx)
 295:app_statemachine.c **** {
 750              		.loc 1 295 0
 751              		.cfi_startproc
 752              		@ args = 0, pretend = 0, frame = 8
 753              		@ frame_needed = 1, uses_anonymous_args = 0
 754 0000 80B5     		push	{r7, lr}
 755              		.cfi_def_cfa_offset 8
 756              		.cfi_offset 7, -8
 757              		.cfi_offset 14, -4
 758 0002 82B0     		sub	sp, sp, #8
 759              		.cfi_def_cfa_offset 16
 760 0004 00AF     		add	r7, sp, #0
 761              		.cfi_def_cfa_register 7
 762 0006 7860     		str	r0, [r7, #4]
 296:app_statemachine.c ****     (void)ctx;
 297:app_statemachine.c ****     UART_DEBUG_PutString("\r\n[STBY_HOLD] rates zeroed\r\n> ");
 763              		.loc 1 297 0
 764 0008 0348     		ldr	r0, .L47
 765 000a FFF7FEFF 		bl	UART_DEBUG_PutString
 298:app_statemachine.c **** }
 766              		.loc 1 298 0
 767 000e 00BF     		nop
 768 0010 0837     		adds	r7, r7, #8
 769              		.cfi_def_cfa_offset 8
 770 0012 BD46     		mov	sp, r7
 771              		.cfi_def_cfa_register 13
 772              		@ sp needed
 773 0014 80BD     		pop	{r7, pc}
 774              	.L48:
 775 0016 00BF     		.align	2
 776              	.L47:
 777 0018 68020000 		.word	.LC19
 778              		.cfi_endproc
 779              	.LFE70:
 780              		.size	entry_stby_hold, .-entry_stby_hold
 781              		.section	.rodata
ARM GAS  C:\Users\JENNEW~1\AppData\Local\Temp\ccAtvZYd.s 			page 21


 782 0287 00       		.align	2
 783              	.LC20:
 784 0288 0D0A5B4D 		.ascii	"\015\012[MANU] joystick=rate  nudge: numpad=fine  i"
 784      414E555D 
 784      206A6F79 
 784      73746963 
 784      6B3D7261 
 785 02b5 6A6B6C3D 		.ascii	"jkl=0.5  wasd=1  e=exit\015\012> \000"
 785      302E3520 
 785      20776173 
 785      643D3120 
 785      20653D65 
 786              		.section	.text.entry_manu_joystick,"ax",%progbits
 787              		.align	2
 788              		.thumb
 789              		.thumb_func
 790              		.type	entry_manu_joystick, %function
 791              	entry_manu_joystick:
 792              	.LFB71:
 299:app_statemachine.c **** // On Exit: None
 300:app_statemachine.c **** 
 301:app_statemachine.c **** 
 302:app_statemachine.c **** // %==========================================================================%
 303:app_statemachine.c **** // %                                Manual                                    %
 304:app_statemachine.c **** // %==========================================================================%
 305:app_statemachine.c **** 
 306:app_statemachine.c **** // MANU_JOYSTICK %============================================================%
 307:app_statemachine.c **** // On Enter: Enable joystick, print message.
 308:app_statemachine.c **** static void entry_manu_joystick(app_ctx_t *ctx)
 309:app_statemachine.c **** {
 793              		.loc 1 309 0
 794              		.cfi_startproc
 795              		@ args = 0, pretend = 0, frame = 8
 796              		@ frame_needed = 1, uses_anonymous_args = 0
 797 0000 80B5     		push	{r7, lr}
 798              		.cfi_def_cfa_offset 8
 799              		.cfi_offset 7, -8
 800              		.cfi_offset 14, -4
 801 0002 82B0     		sub	sp, sp, #8
 802              		.cfi_def_cfa_offset 16
 803 0004 00AF     		add	r7, sp, #0
 804              		.cfi_def_cfa_register 7
 805 0006 7860     		str	r0, [r7, #4]
 310:app_statemachine.c ****     // Rate default
 311:app_statemachine.c ****     ctx->ctrl_mode = HAMFLY_RATE;
 806              		.loc 1 311 0
 807 0008 7B68     		ldr	r3, [r7, #4]
 808 000a 0122     		movs	r2, #1
 809 000c 5A73     		strb	r2, [r3, #13]
 312:app_statemachine.c ****      UART_DEBUG_PutString("\r\n[MANU] joystick=rate  nudge: numpad=fine  ijkl=0.5  wasd=1  e=exit\r
 810              		.loc 1 312 0
 811 000e 0348     		ldr	r0, .L50
 812 0010 FFF7FEFF 		bl	UART_DEBUG_PutString
 313:app_statemachine.c **** }
 813              		.loc 1 313 0
 814 0014 00BF     		nop
 815 0016 0837     		adds	r7, r7, #8
ARM GAS  C:\Users\JENNEW~1\AppData\Local\Temp\ccAtvZYd.s 			page 22


 816              		.cfi_def_cfa_offset 8
 817 0018 BD46     		mov	sp, r7
 818              		.cfi_def_cfa_register 13
 819              		@ sp needed
 820 001a 80BD     		pop	{r7, pc}
 821              	.L51:
 822              		.align	2
 823              	.L50:
 824 001c 88020000 		.word	.LC20
 825              		.cfi_endproc
 826              	.LFE71:
 827              		.size	entry_manu_joystick, .-entry_manu_joystick
 828              		.section	.text.exit_manu_joystick,"ax",%progbits
 829              		.align	2
 830              		.thumb
 831              		.thumb_func
 832              		.type	exit_manu_joystick, %function
 833              	exit_manu_joystick:
 834              	.LFB72:
 314:app_statemachine.c **** // On Exit: Disable joystick, zero control mode.
 315:app_statemachine.c **** static void exit_manu_joystick(app_ctx_t *ctx)
 316:app_statemachine.c **** {
 835              		.loc 1 316 0
 836              		.cfi_startproc
 837              		@ args = 0, pretend = 0, frame = 8
 838              		@ frame_needed = 1, uses_anonymous_args = 0
 839              		@ link register save eliminated.
 840 0000 80B4     		push	{r7}
 841              		.cfi_def_cfa_offset 4
 842              		.cfi_offset 7, -4
 843 0002 83B0     		sub	sp, sp, #12
 844              		.cfi_def_cfa_offset 16
 845 0004 00AF     		add	r7, sp, #0
 846              		.cfi_def_cfa_register 7
 847 0006 7860     		str	r0, [r7, #4]
 317:app_statemachine.c ****     ctx->ctrl_mode = HAMFLY_DEFER;
 848              		.loc 1 317 0
 849 0008 7B68     		ldr	r3, [r7, #4]
 850 000a 0022     		movs	r2, #0
 851 000c 5A73     		strb	r2, [r3, #13]
 318:app_statemachine.c **** }
 852              		.loc 1 318 0
 853 000e 00BF     		nop
 854 0010 0C37     		adds	r7, r7, #12
 855              		.cfi_def_cfa_offset 4
 856 0012 BD46     		mov	sp, r7
 857              		.cfi_def_cfa_register 13
 858              		@ sp needed
 859 0014 80BC     		pop	{r7}
 860              		.cfi_restore 7
 861              		.cfi_def_cfa_offset 0
 862 0016 7047     		bx	lr
 863              		.cfi_endproc
 864              	.LFE72:
 865              		.size	exit_manu_joystick, .-exit_manu_joystick
 866              		.section	.rodata
 867 02d1 000000   		.align	2
ARM GAS  C:\Users\JENNEW~1\AppData\Local\Temp\ccAtvZYd.s 			page 23


 868              	.LC21:
 869 02d4 5741524E 		.ascii	"WARN\000"
 869      00
 870 02d9 000000   		.align	2
 871              	.LC22:
 872 02dc 534F4654 		.ascii	"SOFTWARE\000"
 872      57415245 
 872      00
 873 02e5 000000   		.align	2
 874              	.LC23:
 875 02e8 46415441 		.ascii	"FATAL\000"
 875      4C00
 876 02ee 0000     		.align	2
 877              	.LC24:
 878 02f0 55534552 		.ascii	"USER\000"
 878      00
 879              		.section	.text.sev_str,"ax",%progbits
 880              		.align	2
 881              		.thumb
 882              		.thumb_func
 883              		.type	sev_str, %function
 884              	sev_str:
 885              	.LFB73:
 319:app_statemachine.c **** 
 320:app_statemachine.c **** 
 321:app_statemachine.c **** // %==========================================================================%
 322:app_statemachine.c **** // %                                 Error                                    %
 323:app_statemachine.c **** // %==========================================================================%
 324:app_statemachine.c **** static const char *sev_str(err_sev_t s)
 325:app_statemachine.c **** {
 886              		.loc 1 325 0
 887              		.cfi_startproc
 888              		@ args = 0, pretend = 0, frame = 8
 889              		@ frame_needed = 1, uses_anonymous_args = 0
 890              		@ link register save eliminated.
 891 0000 80B4     		push	{r7}
 892              		.cfi_def_cfa_offset 4
 893              		.cfi_offset 7, -4
 894 0002 83B0     		sub	sp, sp, #12
 895              		.cfi_def_cfa_offset 16
 896 0004 00AF     		add	r7, sp, #0
 897              		.cfi_def_cfa_register 7
 898 0006 0346     		mov	r3, r0
 899 0008 FB71     		strb	r3, [r7, #7]
 326:app_statemachine.c ****     switch (s) {
 900              		.loc 1 326 0
 901 000a FB79     		ldrb	r3, [r7, #7]	@ zero_extendqisi2
 902 000c 022B     		cmp	r3, #2
 903 000e 05D0     		beq	.L55
 904 0010 032B     		cmp	r3, #3
 905 0012 05D0     		beq	.L56
 906 0014 012B     		cmp	r3, #1
 907 0016 05D1     		bne	.L59
 327:app_statemachine.c ****         case SEV_WARN:     return "WARN";
 908              		.loc 1 327 0
 909 0018 054B     		ldr	r3, .L60
 910 001a 04E0     		b	.L58
ARM GAS  C:\Users\JENNEW~1\AppData\Local\Temp\ccAtvZYd.s 			page 24


 911              	.L55:
 328:app_statemachine.c ****         case SEV_SOFTWARE: return "SOFTWARE";
 912              		.loc 1 328 0
 913 001c 054B     		ldr	r3, .L60+4
 914 001e 02E0     		b	.L58
 915              	.L56:
 329:app_statemachine.c ****         case SEV_FATAL:    return "FATAL";
 916              		.loc 1 329 0
 917 0020 054B     		ldr	r3, .L60+8
 918 0022 00E0     		b	.L58
 919              	.L59:
 330:app_statemachine.c ****         default:           return "USER";
 920              		.loc 1 330 0
 921 0024 054B     		ldr	r3, .L60+12
 922              	.L58:
 331:app_statemachine.c ****     }
 332:app_statemachine.c **** }
 923              		.loc 1 332 0
 924 0026 1846     		mov	r0, r3
 925 0028 0C37     		adds	r7, r7, #12
 926              		.cfi_def_cfa_offset 4
 927 002a BD46     		mov	sp, r7
 928              		.cfi_def_cfa_register 13
 929              		@ sp needed
 930 002c 80BC     		pop	{r7}
 931              		.cfi_restore 7
 932              		.cfi_def_cfa_offset 0
 933 002e 7047     		bx	lr
 934              	.L61:
 935              		.align	2
 936              	.L60:
 937 0030 D4020000 		.word	.LC21
 938 0034 DC020000 		.word	.LC22
 939 0038 E8020000 		.word	.LC23
 940 003c F0020000 		.word	.LC24
 941              		.cfi_endproc
 942              	.LFE73:
 943              		.size	sev_str, .-sev_str
 944              		.section	.rodata
 945 02f5 000000   		.align	2
 946              	.LC25:
 947 02f8 0D0A5B45 		.ascii	"\015\012[ERROR:\000"
 947      52524F52 
 947      3A00
 948 0302 0000     		.align	2
 949              	.LC26:
 950 0304 5D2000   		.ascii	"] \000"
 951 0307 00       		.align	2
 952              	.LC27:
 953 0308 286E6F20 		.ascii	"(no msg)\000"
 953      6D736729 
 953      00
 954 0311 000000   		.align	2
 955              	.LC28:
 956 0314 0D0A4641 		.ascii	"\015\012FATAL latched. Power cycle or Ctrl+R to cle"
 956      54414C20 
 956      6C617463 
ARM GAS  C:\Users\JENNEW~1\AppData\Local\Temp\ccAtvZYd.s 			page 25


 956      6865642E 
 956      20506F77 
 957 0341 61722E0D 		.ascii	"ar.\015\012\000"
 957      0A00
 958 0347 00       		.align	2
 959              	.LC29:
 960 0348 0D0A416E 		.ascii	"\015\012Any key to acknowledge.\015\012\000"
 960      79206B65 
 960      7920746F 
 960      2061636B 
 960      6E6F776C 
 961              		.section	.text.entry_error_active,"ax",%progbits
 962              		.align	2
 963              		.thumb
 964              		.thumb_func
 965              		.type	entry_error_active, %function
 966              	entry_error_active:
 967              	.LFB74:
 333:app_statemachine.c **** static void entry_error_active(app_ctx_t *ctx)
 334:app_statemachine.c **** {
 968              		.loc 1 334 0
 969              		.cfi_startproc
 970              		@ args = 0, pretend = 0, frame = 8
 971              		@ frame_needed = 1, uses_anonymous_args = 0
 972 0000 80B5     		push	{r7, lr}
 973              		.cfi_def_cfa_offset 8
 974              		.cfi_offset 7, -8
 975              		.cfi_offset 14, -4
 976 0002 82B0     		sub	sp, sp, #8
 977              		.cfi_def_cfa_offset 16
 978 0004 00AF     		add	r7, sp, #0
 979              		.cfi_def_cfa_register 7
 980 0006 7860     		str	r0, [r7, #4]
 335:app_statemachine.c ****     UART_DEBUG_PutString("\r\n[ERROR:");
 981              		.loc 1 335 0
 982 0008 1848     		ldr	r0, .L67
 983 000a FFF7FEFF 		bl	UART_DEBUG_PutString
 336:app_statemachine.c ****     UART_DEBUG_PutString(sev_str(ctx->err_sev));
 984              		.loc 1 336 0
 985 000e 7B68     		ldr	r3, [r7, #4]
 986 0010 9B79     		ldrb	r3, [r3, #6]	@ zero_extendqisi2
 987 0012 1846     		mov	r0, r3
 988 0014 FFF7FEFF 		bl	sev_str
 989 0018 0346     		mov	r3, r0
 990 001a 1846     		mov	r0, r3
 991 001c FFF7FEFF 		bl	UART_DEBUG_PutString
 337:app_statemachine.c ****     UART_DEBUG_PutString("] ");
 992              		.loc 1 337 0
 993 0020 1348     		ldr	r0, .L67+4
 994 0022 FFF7FEFF 		bl	UART_DEBUG_PutString
 338:app_statemachine.c ****     UART_DEBUG_PutString(ctx->err_msg ? ctx->err_msg : "(no msg)");
 995              		.loc 1 338 0
 996 0026 7B68     		ldr	r3, [r7, #4]
 997 0028 9B68     		ldr	r3, [r3, #8]
 998 002a 002B     		cmp	r3, #0
 999 002c 02D0     		beq	.L63
 1000              		.loc 1 338 0 is_stmt 0 discriminator 1
ARM GAS  C:\Users\JENNEW~1\AppData\Local\Temp\ccAtvZYd.s 			page 26


 1001 002e 7B68     		ldr	r3, [r7, #4]
 1002 0030 9B68     		ldr	r3, [r3, #8]
 1003 0032 00E0     		b	.L64
 1004              	.L63:
 1005              		.loc 1 338 0 discriminator 2
 1006 0034 0F4B     		ldr	r3, .L67+8
 1007              	.L64:
 1008              		.loc 1 338 0 discriminator 4
 1009 0036 1846     		mov	r0, r3
 1010 0038 FFF7FEFF 		bl	UART_DEBUG_PutString
 339:app_statemachine.c ****     if (ctx->err_sev == SEV_FATAL && ctx->gimbal)
 1011              		.loc 1 339 0 is_stmt 1 discriminator 4
 1012 003c 7B68     		ldr	r3, [r7, #4]
 1013 003e 9B79     		ldrb	r3, [r3, #6]	@ zero_extendqisi2
 1014 0040 032B     		cmp	r3, #3
 1015 0042 0CD1     		bne	.L65
 1016              		.loc 1 339 0 is_stmt 0 discriminator 1
 1017 0044 7B68     		ldr	r3, [r7, #4]
 1018 0046 1B68     		ldr	r3, [r3]
 1019 0048 002B     		cmp	r3, #0
 1020 004a 08D0     		beq	.L65
 340:app_statemachine.c ****     {
 341:app_statemachine.c ****         hamfly_kill(ctx->gimbal);
 1021              		.loc 1 341 0 is_stmt 1
 1022 004c 7B68     		ldr	r3, [r7, #4]
 1023 004e 1B68     		ldr	r3, [r3]
 1024 0050 1846     		mov	r0, r3
 1025 0052 FFF7FEFF 		bl	hamfly_kill
 342:app_statemachine.c ****         UART_DEBUG_PutString("\r\nFATAL latched. Power cycle or Ctrl+R to clear.\r\n");
 1026              		.loc 1 342 0
 1027 0056 0848     		ldr	r0, .L67+12
 1028 0058 FFF7FEFF 		bl	UART_DEBUG_PutString
 1029 005c 02E0     		b	.L66
 1030              	.L65:
 343:app_statemachine.c ****     }
 344:app_statemachine.c ****     else    UART_DEBUG_PutString("\r\nAny key to acknowledge.\r\n");
 1031              		.loc 1 344 0
 1032 005e 0748     		ldr	r0, .L67+16
 1033 0060 FFF7FEFF 		bl	UART_DEBUG_PutString
 1034              	.L66:
 345:app_statemachine.c **** }
 1035              		.loc 1 345 0
 1036 0064 00BF     		nop
 1037 0066 0837     		adds	r7, r7, #8
 1038              		.cfi_def_cfa_offset 8
 1039 0068 BD46     		mov	sp, r7
 1040              		.cfi_def_cfa_register 13
 1041              		@ sp needed
 1042 006a 80BD     		pop	{r7, pc}
 1043              	.L68:
 1044              		.align	2
 1045              	.L67:
 1046 006c F8020000 		.word	.LC25
 1047 0070 04030000 		.word	.LC26
 1048 0074 08030000 		.word	.LC27
 1049 0078 14030000 		.word	.LC28
 1050 007c 48030000 		.word	.LC29
ARM GAS  C:\Users\JENNEW~1\AppData\Local\Temp\ccAtvZYd.s 			page 27


 1051              		.cfi_endproc
 1052              	.LFE74:
 1053              		.size	entry_error_active, .-entry_error_active
 1054              		.section	.rodata
 1055              		.align	2
 1056              	.LC30:
 1057 0364 6E6F2067 		.ascii	"no gimbal handle\000"
 1057      696D6261 
 1057      6C206861 
 1057      6E646C65 
 1057      00
 1058 0375 000000   		.align	2
 1059              	.LC31:
 1060 0378 6E6F2074 		.ascii	"no telemetry - origin not set\000"
 1060      656C656D 
 1060      65747279 
 1060      202D206F 
 1060      72696769 
 1061              		.global	__aeabi_fmul
 1062              		.global	__aeabi_fsub
 1063              		.global	__aeabi_fadd
 1064              		.global	__aeabi_fcmpge
 1065              		.global	__aeabi_fcmple
 1066 0396 0000     		.align	2
 1067              	.LC32:
 1068 0398 0D0A5B4F 		.ascii	"\015\012[ORIGIN] captured\015\012\000"
 1068      52494749 
 1068      4E5D2063 
 1068      61707475 
 1068      7265640D 
 1069              		.section	.text.set_origin,"ax",%progbits
 1070              		.align	2
 1071              		.thumb
 1072              		.thumb_func
 1073              		.type	set_origin, %function
 1074              	set_origin:
 1075              	.LFB75:
 346:app_statemachine.c **** 
 347:app_statemachine.c **** // %==========================================================================%
 348:app_statemachine.c **** // %                             Key Handling                                 %
 349:app_statemachine.c **** // %==========================================================================%
 350:app_statemachine.c **** #define KEY_CTRL_R 0x12  // Reset ASCII code.
 351:app_statemachine.c **** 
 352:app_statemachine.c **** /* Capture current gimbal attitude as the origin (global '['). */
 353:app_statemachine.c **** static void set_origin(app_ctx_t *ctx)
 354:app_statemachine.c **** {
 1076              		.loc 1 354 0
 1077              		.cfi_startproc
 1078              		@ args = 0, pretend = 0, frame = 272
 1079              		@ frame_needed = 1, uses_anonymous_args = 0
 1080 0000 90B5     		push	{r4, r7, lr}
 1081              		.cfi_def_cfa_offset 12
 1082              		.cfi_offset 4, -12
 1083              		.cfi_offset 7, -8
 1084              		.cfi_offset 14, -4
 1085 0002 C5B0     		sub	sp, sp, #276
 1086              		.cfi_def_cfa_offset 288
ARM GAS  C:\Users\JENNEW~1\AppData\Local\Temp\ccAtvZYd.s 			page 28


 1087 0004 00AF     		add	r7, sp, #0
 1088              		.cfi_def_cfa_register 7
 1089 0006 3B1D     		adds	r3, r7, #4
 1090 0008 1860     		str	r0, [r3]
 355:app_statemachine.c ****     if (!ctx->gimbal) { app_raise_error(ctx, SEV_USER, "no gimbal handle"); return; }
 1091              		.loc 1 355 0
 1092 000a 3B1D     		adds	r3, r7, #4
 1093 000c 1B68     		ldr	r3, [r3]
 1094 000e 1B68     		ldr	r3, [r3]
 1095 0010 002B     		cmp	r3, #0
 1096 0012 06D1     		bne	.L70
 1097              		.loc 1 355 0 is_stmt 0 discriminator 1
 1098 0014 3B1D     		adds	r3, r7, #4
 1099 0016 634A     		ldr	r2, .L84
 1100 0018 0021     		movs	r1, #0
 1101 001a 1868     		ldr	r0, [r3]
 1102 001c FFF7FEFF 		bl	app_raise_error
 1103 0020 BCE0     		b	.L69
 1104              	.L70:
 356:app_statemachine.c **** 
 357:app_statemachine.c ****     hamfly_telemetry_t st;
 358:app_statemachine.c ****     hamfly_get_telemetry(ctx->gimbal, &st);
 1105              		.loc 1 358 0 is_stmt 1
 1106 0022 3B1D     		adds	r3, r7, #4
 1107 0024 1B68     		ldr	r3, [r3]
 1108 0026 1B68     		ldr	r3, [r3]
 1109 0028 07F10802 		add	r2, r7, #8
 1110 002c 1146     		mov	r1, r2
 1111 002e 1846     		mov	r0, r3
 1112 0030 FFF7FEFF 		bl	hamfly_get_telemetry
 359:app_statemachine.c ****     if (!st.valid) { app_raise_error(ctx, SEV_USER, "no telemetry - origin not set"); return; }
 1113              		.loc 1 359 0
 1114 0034 07F10803 		add	r3, r7, #8
 1115 0038 1B78     		ldrb	r3, [r3]	@ zero_extendqisi2
 1116 003a 83F00103 		eor	r3, r3, #1
 1117 003e DBB2     		uxtb	r3, r3
 1118 0040 002B     		cmp	r3, #0
 1119 0042 06D0     		beq	.L72
 1120              		.loc 1 359 0 is_stmt 0 discriminator 1
 1121 0044 3B1D     		adds	r3, r7, #4
 1122 0046 584A     		ldr	r2, .L84+4
 1123 0048 0021     		movs	r1, #0
 1124 004a 1868     		ldr	r0, [r3]
 1125 004c FFF7FEFF 		bl	app_raise_error
 1126 0050 A4E0     		b	.L69
 1127              	.L72:
 360:app_statemachine.c **** 
 361:app_statemachine.c ****     /* quaternion -> pan/tilt degrees (same math as main.c get_euler_deg) */
 362:app_statemachine.c ****     float r = st.gimbal_r, ii = st.gimbal_i, j = st.gimbal_j, kk = st.gimbal_k;
 1128              		.loc 1 362 0 is_stmt 1
 1129 0052 07F10803 		add	r3, r7, #8
 1130 0056 DB68     		ldr	r3, [r3, #12]	@ float
 1131 0058 C7F80C31 		str	r3, [r7, #268]	@ float
 1132 005c 07F10803 		add	r3, r7, #8
 1133 0060 1B69     		ldr	r3, [r3, #16]	@ float
 1134 0062 C7F80831 		str	r3, [r7, #264]	@ float
 1135 0066 07F10803 		add	r3, r7, #8
ARM GAS  C:\Users\JENNEW~1\AppData\Local\Temp\ccAtvZYd.s 			page 29


 1136 006a 5B69     		ldr	r3, [r3, #20]	@ float
 1137 006c C7F80431 		str	r3, [r7, #260]	@ float
 1138 0070 07F10803 		add	r3, r7, #8
 1139 0074 9B69     		ldr	r3, [r3, #24]	@ float
 1140 0076 C7F80031 		str	r3, [r7, #256]	@ float
 363:app_statemachine.c ****     float sinp = 2.0f * (r*j - kk*ii);
 1141              		.loc 1 363 0
 1142 007a D7F80411 		ldr	r1, [r7, #260]	@ float
 1143 007e D7F80C01 		ldr	r0, [r7, #268]	@ float
 1144 0082 FFF7FEFF 		bl	__aeabi_fmul
 1145 0086 0346     		mov	r3, r0
 1146 0088 1C46     		mov	r4, r3
 1147 008a D7F80811 		ldr	r1, [r7, #264]	@ float
 1148 008e D7F80001 		ldr	r0, [r7, #256]	@ float
 1149 0092 FFF7FEFF 		bl	__aeabi_fmul
 1150 0096 0346     		mov	r3, r0
 1151 0098 1946     		mov	r1, r3
 1152 009a 2046     		mov	r0, r4
 1153 009c FFF7FEFF 		bl	__aeabi_fsub
 1154 00a0 0346     		mov	r3, r0
 1155 00a2 1946     		mov	r1, r3
 1156 00a4 1846     		mov	r0, r3
 1157 00a6 FFF7FEFF 		bl	__aeabi_fadd
 1158 00aa 0346     		mov	r3, r0
 1159 00ac C7F8FC30 		str	r3, [r7, #252]	@ float
 364:app_statemachine.c ****     ctx->origin_tilt_deg = (sinp >=  1.0f) ?  90.0f :
 1160              		.loc 1 364 0
 1161 00b0 4FF07E51 		mov	r1, #1065353216
 1162 00b4 D7F8FC00 		ldr	r0, [r7, #252]	@ float
 1163 00b8 FFF7FEFF 		bl	__aeabi_fcmpge
 1164 00bc 0346     		mov	r3, r0
 1165 00be 002B     		cmp	r3, #0
 1166 00c0 01D0     		beq	.L82
 1167              		.loc 1 364 0 is_stmt 0 discriminator 1
 1168 00c2 3A4B     		ldr	r3, .L84+8
 1169 00c4 13E0     		b	.L75
 1170              	.L82:
 365:app_statemachine.c ****                            (sinp <= -1.0f) ? -90.0f :
 1171              		.loc 1 365 0 is_stmt 1
 1172 00c6 3A49     		ldr	r1, .L84+12
 1173 00c8 D7F8FC00 		ldr	r0, [r7, #252]	@ float
 1174 00cc FFF7FEFF 		bl	__aeabi_fcmple
 1175 00d0 0346     		mov	r3, r0
 1176 00d2 002B     		cmp	r3, #0
 1177 00d4 01D0     		beq	.L83
 1178              		.loc 1 365 0 is_stmt 0 discriminator 1
 1179 00d6 374B     		ldr	r3, .L84+16
 1180 00d8 09E0     		b	.L75
 1181              	.L83:
 366:app_statemachine.c ****                            asinf(sinp) * 57.2958f;
 1182              		.loc 1 366 0 is_stmt 1 discriminator 2
 1183 00da D7F8FC00 		ldr	r0, [r7, #252]	@ float
 1184 00de FFF7FEFF 		bl	asinf
 1185 00e2 0346     		mov	r3, r0
 365:app_statemachine.c ****                            (sinp <= -1.0f) ? -90.0f :
 1186              		.loc 1 365 0 discriminator 2
 1187 00e4 3449     		ldr	r1, .L84+20
ARM GAS  C:\Users\JENNEW~1\AppData\Local\Temp\ccAtvZYd.s 			page 30


 1188 00e6 1846     		mov	r0, r3
 1189 00e8 FFF7FEFF 		bl	__aeabi_fmul
 1190 00ec 0346     		mov	r3, r0
 1191              	.L75:
 364:app_statemachine.c ****     ctx->origin_tilt_deg = (sinp >=  1.0f) ?  90.0f :
 1192              		.loc 1 364 0 discriminator 2
 1193 00ee 3A1D     		adds	r2, r7, #4
 1194 00f0 1268     		ldr	r2, [r2]
 1195 00f2 D361     		str	r3, [r2, #28]	@ float
 367:app_statemachine.c ****     float siny = 2.0f * (r*kk + ii*j), cosy = 1.0f - 2.0f*(j*j + kk*kk);
 1196              		.loc 1 367 0 discriminator 2
 1197 00f4 D7F80011 		ldr	r1, [r7, #256]	@ float
 1198 00f8 D7F80C01 		ldr	r0, [r7, #268]	@ float
 1199 00fc FFF7FEFF 		bl	__aeabi_fmul
 1200 0100 0346     		mov	r3, r0
 1201 0102 1C46     		mov	r4, r3
 1202 0104 D7F80411 		ldr	r1, [r7, #260]	@ float
 1203 0108 D7F80801 		ldr	r0, [r7, #264]	@ float
 1204 010c FFF7FEFF 		bl	__aeabi_fmul
 1205 0110 0346     		mov	r3, r0
 1206 0112 1946     		mov	r1, r3
 1207 0114 2046     		mov	r0, r4
 1208 0116 FFF7FEFF 		bl	__aeabi_fadd
 1209 011a 0346     		mov	r3, r0
 1210 011c 1946     		mov	r1, r3
 1211 011e 1846     		mov	r0, r3
 1212 0120 FFF7FEFF 		bl	__aeabi_fadd
 1213 0124 0346     		mov	r3, r0
 1214 0126 C7F8F830 		str	r3, [r7, #248]	@ float
 1215 012a D7F80411 		ldr	r1, [r7, #260]	@ float
 1216 012e D7F80401 		ldr	r0, [r7, #260]	@ float
 1217 0132 FFF7FEFF 		bl	__aeabi_fmul
 1218 0136 0346     		mov	r3, r0
 1219 0138 1C46     		mov	r4, r3
 1220 013a D7F80011 		ldr	r1, [r7, #256]	@ float
 1221 013e D7F80001 		ldr	r0, [r7, #256]	@ float
 1222 0142 FFF7FEFF 		bl	__aeabi_fmul
 1223 0146 0346     		mov	r3, r0
 1224 0148 1946     		mov	r1, r3
 1225 014a 2046     		mov	r0, r4
 1226 014c FFF7FEFF 		bl	__aeabi_fadd
 1227 0150 0346     		mov	r3, r0
 1228 0152 1946     		mov	r1, r3
 1229 0154 1846     		mov	r0, r3
 1230 0156 FFF7FEFF 		bl	__aeabi_fadd
 1231 015a 0346     		mov	r3, r0
 1232 015c 1946     		mov	r1, r3
 1233 015e 4FF07E50 		mov	r0, #1065353216
 1234 0162 FFF7FEFF 		bl	__aeabi_fsub
 1235 0166 0346     		mov	r3, r0
 1236 0168 C7F8F430 		str	r3, [r7, #244]	@ float
 368:app_statemachine.c ****     ctx->origin_pan_deg = atan2f(siny, cosy) * 57.2958f;
 1237              		.loc 1 368 0 discriminator 2
 1238 016c D7F8F410 		ldr	r1, [r7, #244]	@ float
 1239 0170 D7F8F800 		ldr	r0, [r7, #248]	@ float
 1240 0174 FFF7FEFF 		bl	atan2f
 1241 0178 0346     		mov	r3, r0
ARM GAS  C:\Users\JENNEW~1\AppData\Local\Temp\ccAtvZYd.s 			page 31


 1242 017a 0F49     		ldr	r1, .L84+20
 1243 017c 1846     		mov	r0, r3
 1244 017e FFF7FEFF 		bl	__aeabi_fmul
 1245 0182 0346     		mov	r3, r0
 1246 0184 1A46     		mov	r2, r3
 1247 0186 3B1D     		adds	r3, r7, #4
 1248 0188 1B68     		ldr	r3, [r3]
 1249 018a 9A61     		str	r2, [r3, #24]	@ float
 369:app_statemachine.c ****     ctx->origin_set = 1u;
 1250              		.loc 1 369 0 discriminator 2
 1251 018c 3B1D     		adds	r3, r7, #4
 1252 018e 1B68     		ldr	r3, [r3]
 1253 0190 0122     		movs	r2, #1
 1254 0192 83F82020 		strb	r2, [r3, #32]
 370:app_statemachine.c ****     UART_DEBUG_PutString("\r\n[ORIGIN] captured\r\n");
 1255              		.loc 1 370 0 discriminator 2
 1256 0196 0948     		ldr	r0, .L84+24
 1257 0198 FFF7FEFF 		bl	UART_DEBUG_PutString
 1258              	.L69:
 371:app_statemachine.c **** }
 1259              		.loc 1 371 0
 1260 019c 07F58A77 		add	r7, r7, #276
 1261              		.cfi_def_cfa_offset 12
 1262 01a0 BD46     		mov	sp, r7
 1263              		.cfi_def_cfa_register 13
 1264              		@ sp needed
 1265 01a2 90BD     		pop	{r4, r7, pc}
 1266              	.L85:
 1267              		.align	2
 1268              	.L84:
 1269 01a4 64030000 		.word	.LC30
 1270 01a8 78030000 		.word	.LC31
 1271 01ac 0000B442 		.word	1119092736
 1272 01b0 000080BF 		.word	-1082130432
 1273 01b4 0000B4C2 		.word	-1028390912
 1274 01b8 E62E6542 		.word	1113927398
 1275 01bc 98030000 		.word	.LC32
 1276              		.cfi_endproc
 1277              	.LFE75:
 1278              		.size	set_origin, .-set_origin
 1279              		.section	.rodata
 1280 03ae 0000     		.align	2
 1281              	.LC33:
 1282 03b0 0D0A2D2D 		.ascii	"\015\012--- keys ---\015\012 1 hold   2 manual     "
 1282      2D206B65 
 1282      7973202D 
 1282      2D2D0D0A 
 1282      20312068 
 1283 03d7 20203320 		.ascii	"  3 auto\015\012 x kill   [ set-origin   ? help\015"
 1283      6175746F 
 1283      0D0A2078 
 1283      206B696C 
 1283      6C202020 
 1284 0401 0A202869 		.ascii	"\012 (in MANU) numpad/ijkl/wasd nudge\015\012 e exi"
 1284      6E204D41 
 1284      4E552920 
 1284      6E756D70 
ARM GAS  C:\Users\JENNEW~1\AppData\Local\Temp\ccAtvZYd.s 			page 32


 1284      61642F69 
 1285 042b 74202020 		.ascii	"t   ] home\015\012\000"
 1285      5D20686F 
 1285      6D650D0A 
 1285      00
 1286              		.section	.text.print_help,"ax",%progbits
 1287              		.align	2
 1288              		.thumb
 1289              		.thumb_func
 1290              		.type	print_help, %function
 1291              	print_help:
 1292              	.LFB76:
 372:app_statemachine.c **** 
 373:app_statemachine.c **** static void print_help(const app_ctx_t *ctx)
 374:app_statemachine.c **** {
 1293              		.loc 1 374 0
 1294              		.cfi_startproc
 1295              		@ args = 0, pretend = 0, frame = 8
 1296              		@ frame_needed = 1, uses_anonymous_args = 0
 1297 0000 80B5     		push	{r7, lr}
 1298              		.cfi_def_cfa_offset 8
 1299              		.cfi_offset 7, -8
 1300              		.cfi_offset 14, -4
 1301 0002 82B0     		sub	sp, sp, #8
 1302              		.cfi_def_cfa_offset 16
 1303 0004 00AF     		add	r7, sp, #0
 1304              		.cfi_def_cfa_register 7
 1305 0006 7860     		str	r0, [r7, #4]
 375:app_statemachine.c ****     (void)ctx;
 376:app_statemachine.c ****     UART_DEBUG_PutString(
 1306              		.loc 1 376 0
 1307 0008 0348     		ldr	r0, .L87
 1308 000a FFF7FEFF 		bl	UART_DEBUG_PutString
 377:app_statemachine.c ****         "\r\n--- keys ---\r\n"
 378:app_statemachine.c ****         " 1 hold   2 manual       3 auto\r\n"
 379:app_statemachine.c ****         " x kill   [ set-origin   ? help\r\n"
 380:app_statemachine.c ****         " (in MANU) numpad/ijkl/wasd nudge\r\n"
 381:app_statemachine.c ****         " e exit   ] home\r\n");
 382:app_statemachine.c **** }
 1309              		.loc 1 382 0
 1310 000e 00BF     		nop
 1311 0010 0837     		adds	r7, r7, #8
 1312              		.cfi_def_cfa_offset 8
 1313 0012 BD46     		mov	sp, r7
 1314              		.cfi_def_cfa_register 13
 1315              		@ sp needed
 1316 0014 80BD     		pop	{r7, pc}
 1317              	.L88:
 1318 0016 00BF     		.align	2
 1319              	.L87:
 1320 0018 B0030000 		.word	.LC33
 1321              		.cfi_endproc
 1322              	.LFE76:
 1323              		.size	print_help, .-print_help
 1324              		.section	.rodata
 1325              		.align	2
 1326              	.LC34:
ARM GAS  C:\Users\JENNEW~1\AppData\Local\Temp\ccAtvZYd.s 			page 33


 1327 0438 0D0A4641 		.ascii	"\015\012FATAL cleared.\015\012\000"
 1327      54414C20 
 1327      636C6561 
 1327      7265642E 
 1327      0D0A00
 1328              		.section	.text.handle_global_key,"ax",%progbits
 1329              		.align	2
 1330              		.thumb
 1331              		.thumb_func
 1332              		.type	handle_global_key, %function
 1333              	handle_global_key:
 1334              	.LFB77:
 383:app_statemachine.c **** 
 384:app_statemachine.c **** /* ---- always-global keys (honored in every non-FATAL leaf) ------------- */
 385:app_statemachine.c **** static uint8_t handle_global_key(app_ctx_t *ctx, char k)
 386:app_statemachine.c **** {
 1335              		.loc 1 386 0
 1336              		.cfi_startproc
 1337              		@ args = 0, pretend = 0, frame = 8
 1338              		@ frame_needed = 1, uses_anonymous_args = 0
 1339 0000 80B5     		push	{r7, lr}
 1340              		.cfi_def_cfa_offset 8
 1341              		.cfi_offset 7, -8
 1342              		.cfi_offset 14, -4
 1343 0002 82B0     		sub	sp, sp, #8
 1344              		.cfi_def_cfa_offset 16
 1345 0004 00AF     		add	r7, sp, #0
 1346              		.cfi_def_cfa_register 7
 1347 0006 7860     		str	r0, [r7, #4]
 1348 0008 0B46     		mov	r3, r1
 1349 000a FB70     		strb	r3, [r7, #3]
 387:app_statemachine.c ****     switch (k) {
 1350              		.loc 1 387 0
 1351 000c FB78     		ldrb	r3, [r7, #3]	@ zero_extendqisi2
 1352 000e 3F2B     		cmp	r3, #63
 1353 0010 33D0     		beq	.L91
 1354 0012 3F2B     		cmp	r3, #63
 1355 0014 02DC     		bgt	.L92
 1356 0016 122B     		cmp	r3, #18
 1357 0018 05D0     		beq	.L93
 1358 001a 33E0     		b	.L90
 1359              	.L92:
 1360 001c 5B2B     		cmp	r3, #91
 1361 001e 27D0     		beq	.L94
 1362 0020 782B     		cmp	r3, #120
 1363 0022 16D0     		beq	.L95
 1364 0024 2EE0     		b	.L90
 1365              	.L93:
 388:app_statemachine.c ****         case KEY_CTRL_R:                       /* clear FATAL latch */
 389:app_statemachine.c ****             if (ctx->fatal_latched) {
 1366              		.loc 1 389 0
 1367 0026 7B68     		ldr	r3, [r7, #4]
 1368 0028 1B7B     		ldrb	r3, [r3, #12]	@ zero_extendqisi2
 1369 002a 002B     		cmp	r3, #0
 1370 002c 0FD0     		beq	.L96
 390:app_statemachine.c ****                 ctx->fatal_latched = 0u;
 1371              		.loc 1 390 0
ARM GAS  C:\Users\JENNEW~1\AppData\Local\Temp\ccAtvZYd.s 			page 34


 1372 002e 7B68     		ldr	r3, [r7, #4]
 1373 0030 0022     		movs	r2, #0
 1374 0032 1A73     		strb	r2, [r3, #12]
 391:app_statemachine.c ****                 ctx->err_sev = SEV_USER;
 1375              		.loc 1 391 0
 1376 0034 7B68     		ldr	r3, [r7, #4]
 1377 0036 0022     		movs	r2, #0
 1378 0038 9A71     		strb	r2, [r3, #6]
 392:app_statemachine.c ****                 ctx->err_msg = NULL;
 1379              		.loc 1 392 0
 1380 003a 7B68     		ldr	r3, [r7, #4]
 1381 003c 0022     		movs	r2, #0
 1382 003e 9A60     		str	r2, [r3, #8]
 393:app_statemachine.c ****                 UART_DEBUG_PutString("\r\nFATAL cleared.\r\n");
 1383              		.loc 1 393 0
 1384 0040 1348     		ldr	r0, .L99
 1385 0042 FFF7FEFF 		bl	UART_DEBUG_PutString
 394:app_statemachine.c ****                 transition(ctx, STBY_HOLD);
 1386              		.loc 1 394 0
 1387 0046 0621     		movs	r1, #6
 1388 0048 7868     		ldr	r0, [r7, #4]
 1389 004a FFF7FEFF 		bl	transition
 1390              	.L96:
 395:app_statemachine.c ****             }
 396:app_statemachine.c ****             return 1;                          /* reserved key, always consumed */
 1391              		.loc 1 396 0
 1392 004e 0123     		movs	r3, #1
 1393 0050 19E0     		b	.L97
 1394              	.L95:
 397:app_statemachine.c ****         case 'x':                              /* soft kill */
 398:app_statemachine.c ****             if (ctx->gimbal) hamfly_kill(ctx->gimbal);
 1395              		.loc 1 398 0
 1396 0052 7B68     		ldr	r3, [r7, #4]
 1397 0054 1B68     		ldr	r3, [r3]
 1398 0056 002B     		cmp	r3, #0
 1399 0058 04D0     		beq	.L98
 1400              		.loc 1 398 0 is_stmt 0 discriminator 1
 1401 005a 7B68     		ldr	r3, [r7, #4]
 1402 005c 1B68     		ldr	r3, [r3]
 1403 005e 1846     		mov	r0, r3
 1404 0060 FFF7FEFF 		bl	hamfly_kill
 1405              	.L98:
 399:app_statemachine.c ****             transition(ctx, STBY_HOLD);
 1406              		.loc 1 399 0 is_stmt 1
 1407 0064 0621     		movs	r1, #6
 1408 0066 7868     		ldr	r0, [r7, #4]
 1409 0068 FFF7FEFF 		bl	transition
 400:app_statemachine.c ****             return 1;
 1410              		.loc 1 400 0
 1411 006c 0123     		movs	r3, #1
 1412 006e 0AE0     		b	.L97
 1413              	.L94:
 401:app_statemachine.c ****         case '[': set_origin(ctx);  return 1;
 1414              		.loc 1 401 0
 1415 0070 7868     		ldr	r0, [r7, #4]
 1416 0072 FFF7FEFF 		bl	set_origin
 1417 0076 0123     		movs	r3, #1
ARM GAS  C:\Users\JENNEW~1\AppData\Local\Temp\ccAtvZYd.s 			page 35


 1418 0078 05E0     		b	.L97
 1419              	.L91:
 402:app_statemachine.c ****             case '?': print_help(ctx);  return 1;
 1420              		.loc 1 402 0
 1421 007a 7868     		ldr	r0, [r7, #4]
 1422 007c FFF7FEFF 		bl	print_help
 1423 0080 0123     		movs	r3, #1
 1424 0082 00E0     		b	.L97
 1425              	.L90:
 403:app_statemachine.c ****             default:  return 0;
 1426              		.loc 1 403 0
 1427 0084 0023     		movs	r3, #0
 1428              	.L97:
 404:app_statemachine.c ****     }
 405:app_statemachine.c **** }
 1429              		.loc 1 405 0
 1430 0086 1846     		mov	r0, r3
 1431 0088 0837     		adds	r7, r7, #8
 1432              		.cfi_def_cfa_offset 8
 1433 008a BD46     		mov	sp, r7
 1434              		.cfi_def_cfa_register 13
 1435              		@ sp needed
 1436 008c 80BD     		pop	{r7, pc}
 1437              	.L100:
 1438 008e 00BF     		.align	2
 1439              	.L99:
 1440 0090 38040000 		.word	.LC34
 1441              		.cfi_endproc
 1442              	.LFE77:
 1443              		.size	handle_global_key, .-handle_global_key
 1444              		.section	.text.leaf_traps_nav,"ax",%progbits
 1445              		.align	2
 1446              		.thumb
 1447              		.thumb_func
 1448              		.type	leaf_traps_nav, %function
 1449              	leaf_traps_nav:
 1450              	.LFB78:
 406:app_statemachine.c **** 
 407:app_statemachine.c **** /* ---- navigation keys (suppressed in trapping leaves) ------------------ */
 408:app_statemachine.c **** static uint8_t leaf_traps_nav(state_t s) { return (s == MANU_JOYSTICK); }
 1451              		.loc 1 408 0
 1452              		.cfi_startproc
 1453              		@ args = 0, pretend = 0, frame = 8
 1454              		@ frame_needed = 1, uses_anonymous_args = 0
 1455              		@ link register save eliminated.
 1456 0000 80B4     		push	{r7}
 1457              		.cfi_def_cfa_offset 4
 1458              		.cfi_offset 7, -4
 1459 0002 83B0     		sub	sp, sp, #12
 1460              		.cfi_def_cfa_offset 16
 1461 0004 00AF     		add	r7, sp, #0
 1462              		.cfi_def_cfa_register 7
 1463 0006 0346     		mov	r3, r0
 1464 0008 FB71     		strb	r3, [r7, #7]
 1465              		.loc 1 408 0
 1466 000a FB79     		ldrb	r3, [r7, #7]	@ zero_extendqisi2
 1467 000c 072B     		cmp	r3, #7
ARM GAS  C:\Users\JENNEW~1\AppData\Local\Temp\ccAtvZYd.s 			page 36


 1468 000e 0CBF     		ite	eq
 1469 0010 0123     		moveq	r3, #1
 1470 0012 0023     		movne	r3, #0
 1471 0014 DBB2     		uxtb	r3, r3
 1472 0016 1846     		mov	r0, r3
 1473 0018 0C37     		adds	r7, r7, #12
 1474              		.cfi_def_cfa_offset 4
 1475 001a BD46     		mov	sp, r7
 1476              		.cfi_def_cfa_register 13
 1477              		@ sp needed
 1478 001c 80BC     		pop	{r7}
 1479              		.cfi_restore 7
 1480              		.cfi_def_cfa_offset 0
 1481 001e 7047     		bx	lr
 1482              		.cfi_endproc
 1483              	.LFE78:
 1484              		.size	leaf_traps_nav, .-leaf_traps_nav
 1485              		.section	.rodata
 1486 044b 00       		.align	2
 1487              	.LC35:
 1488 044c 4155544F 		.ascii	"AUTO not yet implemented\000"
 1488      206E6F74 
 1488      20796574 
 1488      20696D70 
 1488      6C656D65 
 1489              		.section	.text.handle_nav_key,"ax",%progbits
 1490              		.align	2
 1491              		.thumb
 1492              		.thumb_func
 1493              		.type	handle_nav_key, %function
 1494              	handle_nav_key:
 1495              	.LFB79:
 409:app_statemachine.c **** 
 410:app_statemachine.c **** static uint8_t handle_nav_key(app_ctx_t *ctx, char k)
 411:app_statemachine.c **** {
 1496              		.loc 1 411 0
 1497              		.cfi_startproc
 1498              		@ args = 0, pretend = 0, frame = 8
 1499              		@ frame_needed = 1, uses_anonymous_args = 0
 1500 0000 80B5     		push	{r7, lr}
 1501              		.cfi_def_cfa_offset 8
 1502              		.cfi_offset 7, -8
 1503              		.cfi_offset 14, -4
 1504 0002 82B0     		sub	sp, sp, #8
 1505              		.cfi_def_cfa_offset 16
 1506 0004 00AF     		add	r7, sp, #0
 1507              		.cfi_def_cfa_register 7
 1508 0006 7860     		str	r0, [r7, #4]
 1509 0008 0B46     		mov	r3, r1
 1510 000a FB70     		strb	r3, [r7, #3]
 412:app_statemachine.c ****     switch (k) {
 1511              		.loc 1 412 0
 1512 000c FB78     		ldrb	r3, [r7, #3]	@ zero_extendqisi2
 1513 000e 322B     		cmp	r3, #50
 1514 0010 09D0     		beq	.L105
 1515 0012 332B     		cmp	r3, #51
 1516 0014 0DD0     		beq	.L106
ARM GAS  C:\Users\JENNEW~1\AppData\Local\Temp\ccAtvZYd.s 			page 37


 1517 0016 312B     		cmp	r3, #49
 1518 0018 12D1     		bne	.L109
 413:app_statemachine.c ****         case '1': transition(ctx, STBY_HOLD);     return 1;
 1519              		.loc 1 413 0
 1520 001a 0621     		movs	r1, #6
 1521 001c 7868     		ldr	r0, [r7, #4]
 1522 001e FFF7FEFF 		bl	transition
 1523 0022 0123     		movs	r3, #1
 1524 0024 0DE0     		b	.L108
 1525              	.L105:
 414:app_statemachine.c ****         case '2': transition(ctx, MANU_JOYSTICK); return 1;
 1526              		.loc 1 414 0
 1527 0026 0721     		movs	r1, #7
 1528 0028 7868     		ldr	r0, [r7, #4]
 1529 002a FFF7FEFF 		bl	transition
 1530 002e 0123     		movs	r3, #1
 1531 0030 07E0     		b	.L108
 1532              	.L106:
 415:app_statemachine.c ****         case '3': app_raise_error(ctx, SEV_USER, "AUTO not yet implemented"); return 1;
 1533              		.loc 1 415 0
 1534 0032 064A     		ldr	r2, .L110
 1535 0034 0021     		movs	r1, #0
 1536 0036 7868     		ldr	r0, [r7, #4]
 1537 0038 FFF7FEFF 		bl	app_raise_error
 1538 003c 0123     		movs	r3, #1
 1539 003e 00E0     		b	.L108
 1540              	.L109:
 416:app_statemachine.c ****         default:  return 0;
 1541              		.loc 1 416 0
 1542 0040 0023     		movs	r3, #0
 1543              	.L108:
 417:app_statemachine.c ****     }
 418:app_statemachine.c **** }
 1544              		.loc 1 418 0
 1545 0042 1846     		mov	r0, r3
 1546 0044 0837     		adds	r7, r7, #8
 1547              		.cfi_def_cfa_offset 8
 1548 0046 BD46     		mov	sp, r7
 1549              		.cfi_def_cfa_register 13
 1550              		@ sp needed
 1551 0048 80BD     		pop	{r7, pc}
 1552              	.L111:
 1553 004a 00BF     		.align	2
 1554              	.L110:
 1555 004c 4C040000 		.word	.LC35
 1556              		.cfi_endproc
 1557              	.LFE79:
 1558              		.size	handle_nav_key, .-handle_nav_key
 1559              		.section	.text.key_error_active,"ax",%progbits
 1560              		.align	2
 1561              		.thumb
 1562              		.thumb_func
 1563              		.type	key_error_active, %function
 1564              	key_error_active:
 1565              	.LFB80:
 419:app_statemachine.c **** 
 420:app_statemachine.c **** /* ---- leaf-specific keys ----------------------------------------------- */
ARM GAS  C:\Users\JENNEW~1\AppData\Local\Temp\ccAtvZYd.s 			page 38


 421:app_statemachine.c **** static uint8_t key_error_active(app_ctx_t *ctx, char k)
 422:app_statemachine.c **** {
 1566              		.loc 1 422 0
 1567              		.cfi_startproc
 1568              		@ args = 0, pretend = 0, frame = 16
 1569              		@ frame_needed = 1, uses_anonymous_args = 0
 1570 0000 80B5     		push	{r7, lr}
 1571              		.cfi_def_cfa_offset 8
 1572              		.cfi_offset 7, -8
 1573              		.cfi_offset 14, -4
 1574 0002 84B0     		sub	sp, sp, #16
 1575              		.cfi_def_cfa_offset 24
 1576 0004 00AF     		add	r7, sp, #0
 1577              		.cfi_def_cfa_register 7
 1578 0006 7860     		str	r0, [r7, #4]
 1579 0008 0B46     		mov	r3, r1
 1580 000a FB70     		strb	r3, [r7, #3]
 423:app_statemachine.c ****     (void)k;
 424:app_statemachine.c ****     if (ctx->err_sev != SEV_FATAL) {            /* WARN/SOFTWARE ack */
 1581              		.loc 1 424 0
 1582 000c 7B68     		ldr	r3, [r7, #4]
 1583 000e 9B79     		ldrb	r3, [r3, #6]	@ zero_extendqisi2
 1584 0010 032B     		cmp	r3, #3
 1585 0012 0FD0     		beq	.L113
 1586              	.LBB4:
 425:app_statemachine.c ****         state_t back = (ctx->prev_leaf == ERROR_ACTIVE) ? STBY_HOLD : ctx->prev_leaf;
 1587              		.loc 1 425 0
 1588 0014 7B68     		ldr	r3, [r7, #4]
 1589 0016 5B79     		ldrb	r3, [r3, #5]	@ zero_extendqisi2
 1590 0018 0F2B     		cmp	r3, #15
 1591 001a 02D0     		beq	.L114
 1592              		.loc 1 425 0 is_stmt 0 discriminator 1
 1593 001c 7B68     		ldr	r3, [r7, #4]
 1594 001e 5B79     		ldrb	r3, [r3, #5]	@ zero_extendqisi2
 1595 0020 00E0     		b	.L115
 1596              	.L114:
 1597              		.loc 1 425 0 discriminator 2
 1598 0022 0623     		movs	r3, #6
 1599              	.L115:
 1600              		.loc 1 425 0 discriminator 4
 1601 0024 FB73     		strb	r3, [r7, #15]
 426:app_statemachine.c ****         transition(ctx, back);
 1602              		.loc 1 426 0 is_stmt 1 discriminator 4
 1603 0026 FB7B     		ldrb	r3, [r7, #15]	@ zero_extendqisi2
 1604 0028 1946     		mov	r1, r3
 1605 002a 7868     		ldr	r0, [r7, #4]
 1606 002c FFF7FEFF 		bl	transition
 427:app_statemachine.c ****         return 1;
 1607              		.loc 1 427 0 discriminator 4
 1608 0030 0123     		movs	r3, #1
 1609 0032 00E0     		b	.L116
 1610              	.L113:
 1611              	.LBE4:
 428:app_statemachine.c ****     }
 429:app_statemachine.c ****     return 0;                                   /* FATAL: only Ctrl+R (handled in lockout) */
 1612              		.loc 1 429 0
 1613 0034 0023     		movs	r3, #0
ARM GAS  C:\Users\JENNEW~1\AppData\Local\Temp\ccAtvZYd.s 			page 39


 1614              	.L116:
 430:app_statemachine.c **** }
 1615              		.loc 1 430 0
 1616 0036 1846     		mov	r0, r3
 1617 0038 1037     		adds	r7, r7, #16
 1618              		.cfi_def_cfa_offset 8
 1619 003a BD46     		mov	sp, r7
 1620              		.cfi_def_cfa_register 13
 1621              		@ sp needed
 1622 003c 80BD     		pop	{r7, pc}
 1623              		.cfi_endproc
 1624              	.LFE80:
 1625              		.size	key_error_active, .-key_error_active
 1626 003e 00BF     		.section	.text.app_dispatch_key,"ax",%progbits
 1627              		.align	2
 1628              		.global	app_dispatch_key
 1629              		.thumb
 1630              		.thumb_func
 1631              		.type	app_dispatch_key, %function
 1632              	app_dispatch_key:
 1633              	.LFB81:
 431:app_statemachine.c **** 
 432:app_statemachine.c **** /* ---- public entry point ----------------------------------------------- */
 433:app_statemachine.c **** uint8_t app_dispatch_key(app_ctx_t *ctx, char key)
 434:app_statemachine.c **** {
 1634              		.loc 1 434 0
 1635              		.cfi_startproc
 1636              		@ args = 0, pretend = 0, frame = 16
 1637              		@ frame_needed = 1, uses_anonymous_args = 0
 1638 0000 80B5     		push	{r7, lr}
 1639              		.cfi_def_cfa_offset 8
 1640              		.cfi_offset 7, -8
 1641              		.cfi_offset 14, -4
 1642 0002 84B0     		sub	sp, sp, #16
 1643              		.cfi_def_cfa_offset 24
 1644 0004 00AF     		add	r7, sp, #0
 1645              		.cfi_def_cfa_register 7
 1646 0006 7860     		str	r0, [r7, #4]
 1647 0008 0B46     		mov	r3, r1
 1648 000a FB70     		strb	r3, [r7, #3]
 435:app_statemachine.c ****     if (ctx->state >= STATE_COUNT) return 0;          /* Patch 12 guard */
 1649              		.loc 1 435 0
 1650 000c 7B68     		ldr	r3, [r7, #4]
 1651 000e 1B79     		ldrb	r3, [r3, #4]	@ zero_extendqisi2
 1652 0010 0F2B     		cmp	r3, #15
 1653 0012 01D9     		bls	.L118
 1654              		.loc 1 435 0 is_stmt 0 discriminator 1
 1655 0014 0023     		movs	r3, #0
 1656 0016 3DE0     		b	.L119
 1657              	.L118:
 436:app_statemachine.c **** 
 437:app_statemachine.c ****     if (ctx->fatal_latched)                            /* FATAL lockout */
 1658              		.loc 1 437 0 is_stmt 1
 1659 0018 7B68     		ldr	r3, [r7, #4]
 1660 001a 1B7B     		ldrb	r3, [r3, #12]	@ zero_extendqisi2
 1661 001c 002B     		cmp	r3, #0
 1662 001e 0BD0     		beq	.L120
ARM GAS  C:\Users\JENNEW~1\AppData\Local\Temp\ccAtvZYd.s 			page 40


 438:app_statemachine.c ****         return (key == KEY_CTRL_R) ? handle_global_key(ctx, key) : 0;
 1663              		.loc 1 438 0
 1664 0020 FB78     		ldrb	r3, [r7, #3]	@ zero_extendqisi2
 1665 0022 122B     		cmp	r3, #18
 1666 0024 06D1     		bne	.L121
 1667              		.loc 1 438 0 is_stmt 0 discriminator 1
 1668 0026 FB78     		ldrb	r3, [r7, #3]	@ zero_extendqisi2
 1669 0028 1946     		mov	r1, r3
 1670 002a 7868     		ldr	r0, [r7, #4]
 1671 002c FFF7FEFF 		bl	handle_global_key
 1672 0030 0346     		mov	r3, r0
 1673 0032 2FE0     		b	.L119
 1674              	.L121:
 1675              		.loc 1 438 0 discriminator 2
 1676 0034 0023     		movs	r3, #0
 1677 0036 2DE0     		b	.L119
 1678              	.L120:
 439:app_statemachine.c **** 
 440:app_statemachine.c ****     if (handle_global_key(ctx, key)) return 1;         /* k, [, ?, Ctrl+R */
 1679              		.loc 1 440 0 is_stmt 1
 1680 0038 FB78     		ldrb	r3, [r7, #3]	@ zero_extendqisi2
 1681 003a 1946     		mov	r1, r3
 1682 003c 7868     		ldr	r0, [r7, #4]
 1683 003e FFF7FEFF 		bl	handle_global_key
 1684 0042 0346     		mov	r3, r0
 1685 0044 002B     		cmp	r3, #0
 1686 0046 01D0     		beq	.L123
 1687              		.loc 1 440 0 is_stmt 0 discriminator 1
 1688 0048 0123     		movs	r3, #1
 1689 004a 23E0     		b	.L119
 1690              	.L123:
 441:app_statemachine.c **** 
 442:app_statemachine.c ****     key_fn_t f = on_key[ctx->state];
 1691              		.loc 1 442 0 is_stmt 1
 1692 004c 7B68     		ldr	r3, [r7, #4]
 1693 004e 1B79     		ldrb	r3, [r3, #4]	@ zero_extendqisi2
 1694 0050 1A46     		mov	r2, r3
 1695 0052 124B     		ldr	r3, .L126
 1696 0054 53F82230 		ldr	r3, [r3, r2, lsl #2]
 1697 0058 FB60     		str	r3, [r7, #12]
 443:app_statemachine.c ****     if (f && f(ctx, key)) return 1;                    /* leaf keys */
 1698              		.loc 1 443 0
 1699 005a FB68     		ldr	r3, [r7, #12]
 1700 005c 002B     		cmp	r3, #0
 1701 005e 09D0     		beq	.L124
 1702              		.loc 1 443 0 is_stmt 0 discriminator 1
 1703 0060 FA78     		ldrb	r2, [r7, #3]	@ zero_extendqisi2
 1704 0062 FB68     		ldr	r3, [r7, #12]
 1705 0064 1146     		mov	r1, r2
 1706 0066 7868     		ldr	r0, [r7, #4]
 1707 0068 9847     		blx	r3
 1708 006a 0346     		mov	r3, r0
 1709 006c 002B     		cmp	r3, #0
 1710 006e 01D0     		beq	.L124
 1711              		.loc 1 443 0 discriminator 2
 1712 0070 0123     		movs	r3, #1
 1713 0072 0FE0     		b	.L119
ARM GAS  C:\Users\JENNEW~1\AppData\Local\Temp\ccAtvZYd.s 			page 41


 1714              	.L124:
 444:app_statemachine.c **** 
 445:app_statemachine.c ****     if (!leaf_traps_nav(ctx->state))                   /* nav, unless trapped */
 1715              		.loc 1 445 0 is_stmt 1
 1716 0074 7B68     		ldr	r3, [r7, #4]
 1717 0076 1B79     		ldrb	r3, [r3, #4]	@ zero_extendqisi2
 1718 0078 1846     		mov	r0, r3
 1719 007a FFF7FEFF 		bl	leaf_traps_nav
 1720 007e 0346     		mov	r3, r0
 1721 0080 002B     		cmp	r3, #0
 1722 0082 06D1     		bne	.L125
 446:app_statemachine.c ****         return handle_nav_key(ctx, key);
 1723              		.loc 1 446 0
 1724 0084 FB78     		ldrb	r3, [r7, #3]	@ zero_extendqisi2
 1725 0086 1946     		mov	r1, r3
 1726 0088 7868     		ldr	r0, [r7, #4]
 1727 008a FFF7FEFF 		bl	handle_nav_key
 1728 008e 0346     		mov	r3, r0
 1729 0090 00E0     		b	.L119
 1730              	.L125:
 447:app_statemachine.c **** 
 448:app_statemachine.c ****     return 0;
 1731              		.loc 1 448 0
 1732 0092 0023     		movs	r3, #0
 1733              	.L119:
 449:app_statemachine.c **** }
 1734              		.loc 1 449 0
 1735 0094 1846     		mov	r0, r3
 1736 0096 1037     		adds	r7, r7, #16
 1737              		.cfi_def_cfa_offset 8
 1738 0098 BD46     		mov	sp, r7
 1739              		.cfi_def_cfa_register 13
 1740              		@ sp needed
 1741 009a 80BD     		pop	{r7, pc}
 1742              	.L127:
 1743              		.align	2
 1744              	.L126:
 1745 009c 90000000 		.word	on_key
 1746              		.cfi_endproc
 1747              	.LFE81:
 1748              		.size	app_dispatch_key, .-app_dispatch_key
 1749              		.section	.text.build_zero,"ax",%progbits
 1750              		.align	2
 1751              		.thumb
 1752              		.thumb_func
 1753              		.type	build_zero, %function
 1754              	build_zero:
 1755              	.LFB82:
 450:app_statemachine.c **** 
 451:app_statemachine.c **** // %==========================================================================%
 452:app_statemachine.c **** // %                       Gimbal Control Packet                              %
 453:app_statemachine.c **** // %==========================================================================%
 454:app_statemachine.c **** // Initialize empty packet.
 455:app_statemachine.c **** static void build_zero(const app_ctx_t *ctx, hamfly_control_t *out)
 456:app_statemachine.c **** {
 1756              		.loc 1 456 0
 1757              		.cfi_startproc
ARM GAS  C:\Users\JENNEW~1\AppData\Local\Temp\ccAtvZYd.s 			page 42


 1758              		@ args = 0, pretend = 0, frame = 8
 1759              		@ frame_needed = 1, uses_anonymous_args = 0
 1760 0000 80B5     		push	{r7, lr}
 1761              		.cfi_def_cfa_offset 8
 1762              		.cfi_offset 7, -8
 1763              		.cfi_offset 14, -4
 1764 0002 82B0     		sub	sp, sp, #8
 1765              		.cfi_def_cfa_offset 16
 1766 0004 00AF     		add	r7, sp, #0
 1767              		.cfi_def_cfa_register 7
 1768 0006 7860     		str	r0, [r7, #4]
 1769 0008 3960     		str	r1, [r7]
 457:app_statemachine.c ****     (void)ctx;
 458:app_statemachine.c ****     memset(out, 0, sizeof *out);
 1770              		.loc 1 458 0
 1771 000a 1422     		movs	r2, #20
 1772 000c 0021     		movs	r1, #0
 1773 000e 3868     		ldr	r0, [r7]
 1774 0010 FFF7FEFF 		bl	memset
 459:app_statemachine.c **** }
 1775              		.loc 1 459 0
 1776 0014 00BF     		nop
 1777 0016 0837     		adds	r7, r7, #8
 1778              		.cfi_def_cfa_offset 8
 1779 0018 BD46     		mov	sp, r7
 1780              		.cfi_def_cfa_register 13
 1781              		@ sp needed
 1782 001a 80BD     		pop	{r7, pc}
 1783              		.cfi_endproc
 1784              	.LFE82:
 1785              		.size	build_zero, .-build_zero
 1786              		.section	.text.build_stby,"ax",%progbits
 1787              		.align	2
 1788              		.thumb
 1789              		.thumb_func
 1790              		.type	build_stby, %function
 1791              	build_stby:
 1792              	.LFB83:
 460:app_statemachine.c **** // Build packet for STBY states: zero rates, defer mode.
 461:app_statemachine.c **** static void build_stby(const app_ctx_t *ctx, hamfly_control_t *out) {
 1793              		.loc 1 461 0
 1794              		.cfi_startproc
 1795              		@ args = 0, pretend = 0, frame = 8
 1796              		@ frame_needed = 1, uses_anonymous_args = 0
 1797 0000 80B5     		push	{r7, lr}
 1798              		.cfi_def_cfa_offset 8
 1799              		.cfi_offset 7, -8
 1800              		.cfi_offset 14, -4
 1801 0002 82B0     		sub	sp, sp, #8
 1802              		.cfi_def_cfa_offset 16
 1803 0004 00AF     		add	r7, sp, #0
 1804              		.cfi_def_cfa_register 7
 1805 0006 7860     		str	r0, [r7, #4]
 1806 0008 3960     		str	r1, [r7]
 462:app_statemachine.c ****     build_zero(ctx, out);  // DEFERed, and disabled.
 1807              		.loc 1 462 0
 1808 000a 3968     		ldr	r1, [r7]
ARM GAS  C:\Users\JENNEW~1\AppData\Local\Temp\ccAtvZYd.s 			page 43


 1809 000c 7868     		ldr	r0, [r7, #4]
 1810 000e FFF7FEFF 		bl	build_zero
 463:app_statemachine.c **** }
 1811              		.loc 1 463 0
 1812 0012 00BF     		nop
 1813 0014 0837     		adds	r7, r7, #8
 1814              		.cfi_def_cfa_offset 8
 1815 0016 BD46     		mov	sp, r7
 1816              		.cfi_def_cfa_register 13
 1817              		@ sp needed
 1818 0018 80BD     		pop	{r7, pc}
 1819              		.cfi_endproc
 1820              	.LFE83:
 1821              		.size	build_stby, .-build_stby
 1822              		.global	__aeabi_fdiv
 1823 001a 00BF     		.section	.text.build_manu_joystick,"ax",%progbits
 1824              		.align	2
 1825              		.thumb
 1826              		.thumb_func
 1827              		.type	build_manu_joystick, %function
 1828              	build_manu_joystick:
 1829              	.LFB84:
 464:app_statemachine.c **** 
 465:app_statemachine.c **** // Build packet from joystick inputs.
 466:app_statemachine.c **** static void build_manu_joystick(const app_ctx_t *ctx, hamfly_control_t *out) {
 1830              		.loc 1 466 0
 1831              		.cfi_startproc
 1832              		@ args = 0, pretend = 0, frame = 8
 1833              		@ frame_needed = 1, uses_anonymous_args = 0
 1834 0000 80B5     		push	{r7, lr}
 1835              		.cfi_def_cfa_offset 8
 1836              		.cfi_offset 7, -8
 1837              		.cfi_offset 14, -4
 1838 0002 82B0     		sub	sp, sp, #8
 1839              		.cfi_def_cfa_offset 16
 1840 0004 00AF     		add	r7, sp, #0
 1841              		.cfi_def_cfa_register 7
 1842 0006 7860     		str	r0, [r7, #4]
 1843 0008 3960     		str	r1, [r7]
 467:app_statemachine.c ****     out->enable    = 1u;
 1844              		.loc 1 467 0
 1845 000a 3B68     		ldr	r3, [r7]
 1846 000c 0122     		movs	r2, #1
 1847 000e DA73     		strb	r2, [r3, #15]
 468:app_statemachine.c ****     out->roll_mode = HAMFLY_DEFER;
 1848              		.loc 1 468 0
 1849 0010 3B68     		ldr	r3, [r7]
 1850 0012 0022     		movs	r2, #0
 1851 0014 9A73     		strb	r2, [r3, #14]
 469:app_statemachine.c ****     out->roll      = 0.0f;
 1852              		.loc 1 469 0
 1853 0016 3B68     		ldr	r3, [r7]
 1854 0018 4FF00002 		mov	r2, #0
 1855 001c 9A60     		str	r2, [r3, #8]	@ float
 470:app_statemachine.c ****     out->kill      = 0u;
 1856              		.loc 1 470 0
 1857 001e 3B68     		ldr	r3, [r7]
ARM GAS  C:\Users\JENNEW~1\AppData\Local\Temp\ccAtvZYd.s 			page 44


 1858 0020 0022     		movs	r2, #0
 1859 0022 1A74     		strb	r2, [r3, #16]
 471:app_statemachine.c ****     // Nudge vs joystick control mode
 472:app_statemachine.c ****     if (ctx->nudge_hold) {
 1860              		.loc 1 472 0
 1861 0024 7B68     		ldr	r3, [r7, #4]
 1862 0026 93F84430 		ldrb	r3, [r3, #68]	@ zero_extendqisi2
 1863 002a 002B     		cmp	r3, #0
 1864 002c 22D0     		beq	.L131
 473:app_statemachine.c ****         out->pan_mode = out->tilt_mode = HAMFLY_ABSOLUTE;
 1865              		.loc 1 473 0
 1866 002e 3B68     		ldr	r3, [r7]
 1867 0030 0222     		movs	r2, #2
 1868 0032 5A73     		strb	r2, [r3, #13]
 1869 0034 3B68     		ldr	r3, [r7]
 1870 0036 5A7B     		ldrb	r2, [r3, #13]	@ zero_extendqisi2
 1871 0038 3B68     		ldr	r3, [r7]
 1872 003a 1A73     		strb	r2, [r3, #12]
 474:app_statemachine.c ****         out->pan  = DEG_TO_UNIT(ctx->tgt_pan_deg - ctx->nudge_base_pan_deg); /* pan rebased -> rela
 1873              		.loc 1 474 0
 1874 003c 7B68     		ldr	r3, [r7, #4]
 1875 003e 5A6D     		ldr	r2, [r3, #84]	@ float
 1876 0040 7B68     		ldr	r3, [r7, #4]
 1877 0042 DB6C     		ldr	r3, [r3, #76]	@ float
 1878 0044 1946     		mov	r1, r3
 1879 0046 1046     		mov	r0, r2
 1880 0048 FFF7FEFF 		bl	__aeabi_fsub
 1881 004c 0346     		mov	r3, r0
 1882 004e 1449     		ldr	r1, .L134
 1883 0050 1846     		mov	r0, r3
 1884 0052 FFF7FEFF 		bl	__aeabi_fdiv
 1885 0056 0346     		mov	r3, r0
 1886 0058 1A46     		mov	r2, r3
 1887 005a 3B68     		ldr	r3, [r7]
 1888 005c 1A60     		str	r2, [r3]	@ float
 475:app_statemachine.c ****         out->tilt = DEG_TO_UNIT(ctx->tgt_tilt_deg);                          /* tilt true-absolute 
 1889              		.loc 1 475 0
 1890 005e 7B68     		ldr	r3, [r7, #4]
 1891 0060 9B6D     		ldr	r3, [r3, #88]	@ float
 1892 0062 0F49     		ldr	r1, .L134
 1893 0064 1846     		mov	r0, r3
 1894 0066 FFF7FEFF 		bl	__aeabi_fdiv
 1895 006a 0346     		mov	r3, r0
 1896 006c 1A46     		mov	r2, r3
 1897 006e 3B68     		ldr	r3, [r7]
 1898 0070 5A60     		str	r2, [r3, #4]	@ float
 476:app_statemachine.c ****     } else {
 477:app_statemachine.c ****         out->pan_mode = out->tilt_mode = HAMFLY_RATE;
 478:app_statemachine.c ****         out->pan  =  ctx->cmd.u[CH_X];
 479:app_statemachine.c ****         out->tilt = -ctx->cmd.u[CH_Y];
 480:app_statemachine.c ****     }
 481:app_statemachine.c **** 
 482:app_statemachine.c **** }
 1899              		.loc 1 482 0
 1900 0072 10E0     		b	.L133
 1901              	.L131:
 477:app_statemachine.c ****         out->pan  =  ctx->cmd.u[CH_X];
ARM GAS  C:\Users\JENNEW~1\AppData\Local\Temp\ccAtvZYd.s 			page 45


 1902              		.loc 1 477 0
 1903 0074 3B68     		ldr	r3, [r7]
 1904 0076 0122     		movs	r2, #1
 1905 0078 5A73     		strb	r2, [r3, #13]
 1906 007a 3B68     		ldr	r3, [r7]
 1907 007c 5A7B     		ldrb	r2, [r3, #13]	@ zero_extendqisi2
 1908 007e 3B68     		ldr	r3, [r7]
 1909 0080 1A73     		strb	r2, [r3, #12]
 478:app_statemachine.c ****         out->tilt = -ctx->cmd.u[CH_Y];
 1910              		.loc 1 478 0
 1911 0082 7B68     		ldr	r3, [r7, #4]
 1912 0084 5A6B     		ldr	r2, [r3, #52]	@ float
 1913 0086 3B68     		ldr	r3, [r7]
 1914 0088 1A60     		str	r2, [r3]	@ float
 479:app_statemachine.c ****     }
 1915              		.loc 1 479 0
 1916 008a 7B68     		ldr	r3, [r7, #4]
 1917 008c 9B6B     		ldr	r3, [r3, #56]	@ float
 1918 008e 83F00042 		eor	r2, r3, #-2147483648
 1919 0092 3B68     		ldr	r3, [r7]
 1920 0094 5A60     		str	r2, [r3, #4]	@ float
 1921              	.L133:
 1922              		.loc 1 482 0
 1923 0096 00BF     		nop
 1924 0098 0837     		adds	r7, r7, #8
 1925              		.cfi_def_cfa_offset 8
 1926 009a BD46     		mov	sp, r7
 1927              		.cfi_def_cfa_register 13
 1928              		@ sp needed
 1929 009c 80BD     		pop	{r7, pc}
 1930              	.L135:
 1931 009e 00BF     		.align	2
 1932              	.L134:
 1933 00a0 00003443 		.word	1127481344
 1934              		.cfi_endproc
 1935              	.LFE84:
 1936              		.size	build_manu_joystick, .-build_manu_joystick
 1937              		.section	.text.build_error,"ax",%progbits
 1938              		.align	2
 1939              		.thumb
 1940              		.thumb_func
 1941              		.type	build_error, %function
 1942              	build_error:
 1943              	.LFB85:
 483:app_statemachine.c **** 
 484:app_statemachine.c **** // Build packet for when in ERROR state
 485:app_statemachine.c **** static void build_error(const app_ctx_t *ctx, hamfly_control_t *out) {
 1944              		.loc 1 485 0
 1945              		.cfi_startproc
 1946              		@ args = 0, pretend = 0, frame = 8
 1947              		@ frame_needed = 1, uses_anonymous_args = 0
 1948 0000 80B5     		push	{r7, lr}
 1949              		.cfi_def_cfa_offset 8
 1950              		.cfi_offset 7, -8
 1951              		.cfi_offset 14, -4
 1952 0002 82B0     		sub	sp, sp, #8
 1953              		.cfi_def_cfa_offset 16
ARM GAS  C:\Users\JENNEW~1\AppData\Local\Temp\ccAtvZYd.s 			page 46


 1954 0004 00AF     		add	r7, sp, #0
 1955              		.cfi_def_cfa_register 7
 1956 0006 7860     		str	r0, [r7, #4]
 1957 0008 3960     		str	r1, [r7]
 486:app_statemachine.c ****     build_zero(ctx, out);
 1958              		.loc 1 486 0
 1959 000a 3968     		ldr	r1, [r7]
 1960 000c 7868     		ldr	r0, [r7, #4]
 1961 000e FFF7FEFF 		bl	build_zero
 487:app_statemachine.c ****     if (ctx->err_sev == SEV_FATAL) out->kill = 1u;
 1962              		.loc 1 487 0
 1963 0012 7B68     		ldr	r3, [r7, #4]
 1964 0014 9B79     		ldrb	r3, [r3, #6]	@ zero_extendqisi2
 1965 0016 032B     		cmp	r3, #3
 1966 0018 02D1     		bne	.L138
 1967              		.loc 1 487 0 is_stmt 0 discriminator 1
 1968 001a 3B68     		ldr	r3, [r7]
 1969 001c 0122     		movs	r2, #1
 1970 001e 1A74     		strb	r2, [r3, #16]
 1971              	.L138:
 488:app_statemachine.c **** }
 1972              		.loc 1 488 0 is_stmt 1
 1973 0020 00BF     		nop
 1974 0022 0837     		adds	r7, r7, #8
 1975              		.cfi_def_cfa_offset 8
 1976 0024 BD46     		mov	sp, r7
 1977              		.cfi_def_cfa_register 13
 1978              		@ sp needed
 1979 0026 80BD     		pop	{r7, pc}
 1980              		.cfi_endproc
 1981              	.LFE85:
 1982              		.size	build_error, .-build_error
 1983              		.section	.text.app_build_control,"ax",%progbits
 1984              		.align	2
 1985              		.global	app_build_control
 1986              		.thumb
 1987              		.thumb_func
 1988              		.type	app_build_control, %function
 1989              	app_build_control:
 1990              	.LFB86:
 489:app_statemachine.c **** 
 490:app_statemachine.c **** 
 491:app_statemachine.c **** // Do build. For states without a build function returns zeroed packet.
 492:app_statemachine.c **** void app_build_control(const app_ctx_t *ctx, hamfly_control_t *out)
 493:app_statemachine.c **** {
 1991              		.loc 1 493 0
 1992              		.cfi_startproc
 1993              		@ args = 0, pretend = 0, frame = 16
 1994              		@ frame_needed = 1, uses_anonymous_args = 0
 1995 0000 80B5     		push	{r7, lr}
 1996              		.cfi_def_cfa_offset 8
 1997              		.cfi_offset 7, -8
 1998              		.cfi_offset 14, -4
 1999 0002 84B0     		sub	sp, sp, #16
 2000              		.cfi_def_cfa_offset 24
 2001 0004 00AF     		add	r7, sp, #0
 2002              		.cfi_def_cfa_register 7
ARM GAS  C:\Users\JENNEW~1\AppData\Local\Temp\ccAtvZYd.s 			page 47


 2003 0006 7860     		str	r0, [r7, #4]
 2004 0008 3960     		str	r1, [r7]
 494:app_statemachine.c ****     build_fn_t f = on_build[ctx->state];
 2005              		.loc 1 494 0
 2006 000a 7B68     		ldr	r3, [r7, #4]
 2007 000c 1B79     		ldrb	r3, [r3, #4]	@ zero_extendqisi2
 2008 000e 1A46     		mov	r2, r3
 2009 0010 094B     		ldr	r3, .L143
 2010 0012 53F82230 		ldr	r3, [r3, r2, lsl #2]
 2011 0016 FB60     		str	r3, [r7, #12]
 495:app_statemachine.c ****     if (f)  f(ctx, out);
 2012              		.loc 1 495 0
 2013 0018 FB68     		ldr	r3, [r7, #12]
 2014 001a 002B     		cmp	r3, #0
 2015 001c 04D0     		beq	.L140
 2016              		.loc 1 495 0 is_stmt 0 discriminator 1
 2017 001e FB68     		ldr	r3, [r7, #12]
 2018 0020 3968     		ldr	r1, [r7]
 2019 0022 7868     		ldr	r0, [r7, #4]
 2020 0024 9847     		blx	r3
 496:app_statemachine.c ****     else    build_zero(ctx, out);  // Safe default.
 497:app_statemachine.c **** }
 2021              		.loc 1 497 0 is_stmt 1 discriminator 1
 2022 0026 03E0     		b	.L142
 2023              	.L140:
 496:app_statemachine.c ****     else    build_zero(ctx, out);  // Safe default.
 2024              		.loc 1 496 0
 2025 0028 3968     		ldr	r1, [r7]
 2026 002a 7868     		ldr	r0, [r7, #4]
 2027 002c FFF7FEFF 		bl	build_zero
 2028              	.L142:
 2029              		.loc 1 497 0
 2030 0030 00BF     		nop
 2031 0032 1037     		adds	r7, r7, #16
 2032              		.cfi_def_cfa_offset 8
 2033 0034 BD46     		mov	sp, r7
 2034              		.cfi_def_cfa_register 13
 2035              		@ sp needed
 2036 0036 80BD     		pop	{r7, pc}
 2037              	.L144:
 2038              		.align	2
 2039              	.L143:
 2040 0038 D0000000 		.word	on_build
 2041              		.cfi_endproc
 2042              	.LFE86:
 2043              		.size	app_build_control, .-app_build_control
 2044              		.section	.rodata
 2045 0465 000000   		.align	2
 2046              	.LC36:
 2047 0468 6E6F2074 		.ascii	"no telemetry - nudge ignored\000"
 2047      656C656D 
 2047      65747279 
 2047      202D206E 
 2047      75646765 
 2048              		.global	__aeabi_fcmplt
 2049              		.global	__aeabi_fcmpgt
 2050              		.section	.text.nudge_apply,"ax",%progbits
ARM GAS  C:\Users\JENNEW~1\AppData\Local\Temp\ccAtvZYd.s 			page 48


 2051              		.align	2
 2052              		.thumb
 2053              		.thumb_func
 2054              		.type	nudge_apply, %function
 2055              	nudge_apply:
 2056              	.LFB87:
 498:app_statemachine.c **** 
 499:app_statemachine.c **** // TEMP: Nudge constants
 500:app_statemachine.c **** #define NUDGE_LSB_DEG     (180.0f/32767.0f)  /* ~0.00549°, one on-wire LSB */
 501:app_statemachine.c **** #define NUDGE_FINE_DEG    0.5f
 502:app_statemachine.c **** #define NUDGE_COARSE_DEG  1.0f
 503:app_statemachine.c **** #define NUDGE_SETTLE_DEG  0.05f   /* "arrived" tolerance */
 504:app_statemachine.c **** #define NUDGE_MIN_DWELL_MS 150u   /* hold long enough for the step to land */
 505:app_statemachine.c **** #define NUDGE_TIMEOUT_MS  2000u   /* give up if it never settles */
 506:app_statemachine.c **** // TEMP: Nudge handler
 507:app_statemachine.c **** static void nudge_apply(app_ctx_t *ctx, float dpan_deg, float dtilt_deg)
 508:app_statemachine.c **** {
 2057              		.loc 1 508 0
 2058              		.cfi_startproc
 2059              		@ args = 0, pretend = 0, frame = 24
 2060              		@ frame_needed = 1, uses_anonymous_args = 0
 2061 0000 90B5     		push	{r4, r7, lr}
 2062              		.cfi_def_cfa_offset 12
 2063              		.cfi_offset 4, -12
 2064              		.cfi_offset 7, -8
 2065              		.cfi_offset 14, -4
 2066 0002 87B0     		sub	sp, sp, #28
 2067              		.cfi_def_cfa_offset 40
 2068 0004 00AF     		add	r7, sp, #0
 2069              		.cfi_def_cfa_register 7
 2070 0006 F860     		str	r0, [r7, #12]
 2071 0008 B960     		str	r1, [r7, #8]	@ float
 2072 000a 7A60     		str	r2, [r7, #4]	@ float
 509:app_statemachine.c ****     if (!ctx->nudge_hold) {                       /* episode start: capture baseline */
 2073              		.loc 1 509 0
 2074 000c FB68     		ldr	r3, [r7, #12]
 2075 000e 93F84430 		ldrb	r3, [r3, #68]	@ zero_extendqisi2
 2076 0012 002B     		cmp	r3, #0
 2077 0014 20D1     		bne	.L146
 2078              	.LBB5:
 510:app_statemachine.c ****         float p, t;
 511:app_statemachine.c ****         if (!get_euler_deg(&p, &t)) {
 2079              		.loc 1 511 0
 2080 0016 07F11002 		add	r2, r7, #16
 2081 001a 07F11403 		add	r3, r7, #20
 2082 001e 1146     		mov	r1, r2
 2083 0020 1846     		mov	r0, r3
 2084 0022 FFF7FEFF 		bl	get_euler_deg
 2085 0026 0346     		mov	r3, r0
 2086 0028 002B     		cmp	r3, #0
 2087 002a 05D1     		bne	.L147
 512:app_statemachine.c ****             app_raise_error(ctx, SEV_USER, "no telemetry - nudge ignored");
 2088              		.loc 1 512 0
 2089 002c 564A     		ldr	r2, .L169
 2090 002e 0021     		movs	r1, #0
 2091 0030 F868     		ldr	r0, [r7, #12]
 2092 0032 FFF7FEFF 		bl	app_raise_error
ARM GAS  C:\Users\JENNEW~1\AppData\Local\Temp\ccAtvZYd.s 			page 49


 2093 0036 A3E0     		b	.L145
 2094              	.L147:
 513:app_statemachine.c ****             return;
 514:app_statemachine.c ****         }
 515:app_statemachine.c ****         ctx->nudge_base_pan_deg  = p;
 2095              		.loc 1 515 0
 2096 0038 7A69     		ldr	r2, [r7, #20]	@ float
 2097 003a FB68     		ldr	r3, [r7, #12]
 2098 003c DA64     		str	r2, [r3, #76]	@ float
 516:app_statemachine.c ****         ctx->nudge_base_tilt_deg = t;
 2099              		.loc 1 516 0
 2100 003e 3A69     		ldr	r2, [r7, #16]	@ float
 2101 0040 FB68     		ldr	r3, [r7, #12]
 2102 0042 1A65     		str	r2, [r3, #80]	@ float
 517:app_statemachine.c ****         ctx->tgt_pan_deg  = p;
 2103              		.loc 1 517 0
 2104 0044 7A69     		ldr	r2, [r7, #20]	@ float
 2105 0046 FB68     		ldr	r3, [r7, #12]
 2106 0048 5A65     		str	r2, [r3, #84]	@ float
 518:app_statemachine.c ****         ctx->tgt_tilt_deg = t;
 2107              		.loc 1 518 0
 2108 004a 3A69     		ldr	r2, [r7, #16]	@ float
 2109 004c FB68     		ldr	r3, [r7, #12]
 2110 004e 9A65     		str	r2, [r3, #88]	@ float
 519:app_statemachine.c ****         ctx->nudge_hold = 1u;
 2111              		.loc 1 519 0
 2112 0050 FB68     		ldr	r3, [r7, #12]
 2113 0052 0122     		movs	r2, #1
 2114 0054 83F84420 		strb	r2, [r3, #68]
 2115              	.L146:
 2116              	.LBE5:
 520:app_statemachine.c ****     }
 521:app_statemachine.c ****     ctx->tgt_pan_deg  = CLAMP(ctx->tgt_pan_deg  + dpan_deg,
 2117              		.loc 1 521 0
 2118 0058 FB68     		ldr	r3, [r7, #12]
 2119 005a 5B6D     		ldr	r3, [r3, #84]	@ float
 2120 005c B968     		ldr	r1, [r7, #8]	@ float
 2121 005e 1846     		mov	r0, r3
 2122 0060 FFF7FEFF 		bl	__aeabi_fadd
 2123 0064 0346     		mov	r3, r0
 2124 0066 1C46     		mov	r4, r3
 2125 0068 FB68     		ldr	r3, [r7, #12]
 2126 006a 9B69     		ldr	r3, [r3, #24]	@ float
 2127 006c 4749     		ldr	r1, .L169+4
 2128 006e 1846     		mov	r0, r3
 2129 0070 FFF7FEFF 		bl	__aeabi_fsub
 2130 0074 0346     		mov	r3, r0
 2131 0076 1946     		mov	r1, r3
 2132 0078 2046     		mov	r0, r4
 2133 007a FFF7FEFF 		bl	__aeabi_fcmplt
 2134 007e 0346     		mov	r3, r0
 2135 0080 002B     		cmp	r3, #0
 2136 0082 08D0     		beq	.L165
 2137              		.loc 1 521 0 is_stmt 0 discriminator 1
 2138 0084 FB68     		ldr	r3, [r7, #12]
 2139 0086 9B69     		ldr	r3, [r3, #24]	@ float
 2140 0088 4049     		ldr	r1, .L169+4
ARM GAS  C:\Users\JENNEW~1\AppData\Local\Temp\ccAtvZYd.s 			page 50


 2141 008a 1846     		mov	r0, r3
 2142 008c FFF7FEFF 		bl	__aeabi_fsub
 2143 0090 0346     		mov	r3, r0
 2144 0092 1A46     		mov	r2, r3
 2145 0094 26E0     		b	.L151
 2146              	.L165:
 2147              		.loc 1 521 0 discriminator 2
 2148 0096 FB68     		ldr	r3, [r7, #12]
 2149 0098 5B6D     		ldr	r3, [r3, #84]	@ float
 2150 009a B968     		ldr	r1, [r7, #8]	@ float
 2151 009c 1846     		mov	r0, r3
 2152 009e FFF7FEFF 		bl	__aeabi_fadd
 2153 00a2 0346     		mov	r3, r0
 2154 00a4 1C46     		mov	r4, r3
 2155 00a6 FB68     		ldr	r3, [r7, #12]
 2156 00a8 9B69     		ldr	r3, [r3, #24]	@ float
 2157 00aa 3849     		ldr	r1, .L169+4
 2158 00ac 1846     		mov	r0, r3
 2159 00ae FFF7FEFF 		bl	__aeabi_fadd
 2160 00b2 0346     		mov	r3, r0
 2161 00b4 1946     		mov	r1, r3
 2162 00b6 2046     		mov	r0, r4
 2163 00b8 FFF7FEFF 		bl	__aeabi_fcmpgt
 2164 00bc 0346     		mov	r3, r0
 2165 00be 002B     		cmp	r3, #0
 2166 00c0 08D0     		beq	.L166
 2167              		.loc 1 521 0 discriminator 4
 2168 00c2 FB68     		ldr	r3, [r7, #12]
 2169 00c4 9B69     		ldr	r3, [r3, #24]	@ float
 2170 00c6 3149     		ldr	r1, .L169+4
 2171 00c8 1846     		mov	r0, r3
 2172 00ca FFF7FEFF 		bl	__aeabi_fadd
 2173 00ce 0346     		mov	r3, r0
 2174 00d0 1A46     		mov	r2, r3
 2175 00d2 07E0     		b	.L151
 2176              	.L166:
 2177              		.loc 1 521 0 discriminator 5
 2178 00d4 FB68     		ldr	r3, [r7, #12]
 2179 00d6 5B6D     		ldr	r3, [r3, #84]	@ float
 2180 00d8 B968     		ldr	r1, [r7, #8]	@ float
 2181 00da 1846     		mov	r0, r3
 2182 00dc FFF7FEFF 		bl	__aeabi_fadd
 2183 00e0 0346     		mov	r3, r0
 2184 00e2 1A46     		mov	r2, r3
 2185              	.L151:
 2186              		.loc 1 521 0 discriminator 8
 2187 00e4 FB68     		ldr	r3, [r7, #12]
 2188 00e6 5A65     		str	r2, [r3, #84]	@ float
 522:app_statemachine.c ****                               ctx->origin_pan_deg  + LIMIT_PAN_MIN_DEG,
 523:app_statemachine.c ****                               ctx->origin_pan_deg  + LIMIT_PAN_MAX_DEG);
 524:app_statemachine.c ****     ctx->tgt_tilt_deg = CLAMP(ctx->tgt_tilt_deg + dtilt_deg,
 2189              		.loc 1 524 0 is_stmt 1 discriminator 8
 2190 00e8 FB68     		ldr	r3, [r7, #12]
 2191 00ea 9B6D     		ldr	r3, [r3, #88]	@ float
 2192 00ec 7968     		ldr	r1, [r7, #4]	@ float
 2193 00ee 1846     		mov	r0, r3
 2194 00f0 FFF7FEFF 		bl	__aeabi_fadd
ARM GAS  C:\Users\JENNEW~1\AppData\Local\Temp\ccAtvZYd.s 			page 51


 2195 00f4 0346     		mov	r3, r0
 2196 00f6 1C46     		mov	r4, r3
 2197 00f8 FB68     		ldr	r3, [r7, #12]
 2198 00fa DB69     		ldr	r3, [r3, #28]	@ float
 2199 00fc 2449     		ldr	r1, .L169+8
 2200 00fe 1846     		mov	r0, r3
 2201 0100 FFF7FEFF 		bl	__aeabi_fsub
 2202 0104 0346     		mov	r3, r0
 2203 0106 1946     		mov	r1, r3
 2204 0108 2046     		mov	r0, r4
 2205 010a FFF7FEFF 		bl	__aeabi_fcmplt
 2206 010e 0346     		mov	r3, r0
 2207 0110 002B     		cmp	r3, #0
 2208 0112 08D0     		beq	.L167
 2209              		.loc 1 524 0 is_stmt 0 discriminator 1
 2210 0114 FB68     		ldr	r3, [r7, #12]
 2211 0116 DB69     		ldr	r3, [r3, #28]	@ float
 2212 0118 1D49     		ldr	r1, .L169+8
 2213 011a 1846     		mov	r0, r3
 2214 011c FFF7FEFF 		bl	__aeabi_fsub
 2215 0120 0346     		mov	r3, r0
 2216 0122 1A46     		mov	r2, r3
 2217 0124 26E0     		b	.L157
 2218              	.L167:
 2219              		.loc 1 524 0 discriminator 2
 2220 0126 FB68     		ldr	r3, [r7, #12]
 2221 0128 9B6D     		ldr	r3, [r3, #88]	@ float
 2222 012a 7968     		ldr	r1, [r7, #4]	@ float
 2223 012c 1846     		mov	r0, r3
 2224 012e FFF7FEFF 		bl	__aeabi_fadd
 2225 0132 0346     		mov	r3, r0
 2226 0134 1C46     		mov	r4, r3
 2227 0136 FB68     		ldr	r3, [r7, #12]
 2228 0138 DB69     		ldr	r3, [r3, #28]	@ float
 2229 013a 1549     		ldr	r1, .L169+8
 2230 013c 1846     		mov	r0, r3
 2231 013e FFF7FEFF 		bl	__aeabi_fadd
 2232 0142 0346     		mov	r3, r0
 2233 0144 1946     		mov	r1, r3
 2234 0146 2046     		mov	r0, r4
 2235 0148 FFF7FEFF 		bl	__aeabi_fcmpgt
 2236 014c 0346     		mov	r3, r0
 2237 014e 002B     		cmp	r3, #0
 2238 0150 08D0     		beq	.L168
 2239              		.loc 1 524 0 discriminator 4
 2240 0152 FB68     		ldr	r3, [r7, #12]
 2241 0154 DB69     		ldr	r3, [r3, #28]	@ float
 2242 0156 0E49     		ldr	r1, .L169+8
 2243 0158 1846     		mov	r0, r3
 2244 015a FFF7FEFF 		bl	__aeabi_fadd
 2245 015e 0346     		mov	r3, r0
 2246 0160 1A46     		mov	r2, r3
 2247 0162 07E0     		b	.L157
 2248              	.L168:
 2249              		.loc 1 524 0 discriminator 5
 2250 0164 FB68     		ldr	r3, [r7, #12]
 2251 0166 9B6D     		ldr	r3, [r3, #88]	@ float
ARM GAS  C:\Users\JENNEW~1\AppData\Local\Temp\ccAtvZYd.s 			page 52


 2252 0168 7968     		ldr	r1, [r7, #4]	@ float
 2253 016a 1846     		mov	r0, r3
 2254 016c FFF7FEFF 		bl	__aeabi_fadd
 2255 0170 0346     		mov	r3, r0
 2256 0172 1A46     		mov	r2, r3
 2257              	.L157:
 2258              		.loc 1 524 0 discriminator 8
 2259 0174 FB68     		ldr	r3, [r7, #12]
 2260 0176 9A65     		str	r2, [r3, #88]	@ float
 525:app_statemachine.c ****                               ctx->origin_tilt_deg + LIMIT_TILT_MIN_DEG,
 526:app_statemachine.c ****                               ctx->origin_tilt_deg + LIMIT_TILT_MAX_DEG);
 527:app_statemachine.c ****     ctx->nudge_start_ms = g_tick_ms;              /* restart dwell on every (accumulating) press */
 2261              		.loc 1 527 0 is_stmt 1 discriminator 8
 2262 0178 064B     		ldr	r3, .L169+12
 2263 017a 1A68     		ldr	r2, [r3]
 2264 017c FB68     		ldr	r3, [r7, #12]
 2265 017e 9A64     		str	r2, [r3, #72]
 2266              	.L145:
 528:app_statemachine.c **** }
 2267              		.loc 1 528 0
 2268 0180 1C37     		adds	r7, r7, #28
 2269              		.cfi_def_cfa_offset 12
 2270 0182 BD46     		mov	sp, r7
 2271              		.cfi_def_cfa_register 13
 2272              		@ sp needed
 2273 0184 90BD     		pop	{r4, r7, pc}
 2274              	.L170:
 2275 0186 00BF     		.align	2
 2276              	.L169:
 2277 0188 68040000 		.word	.LC36
 2278 018c 0000F041 		.word	1106247680
 2279 0190 0000A041 		.word	1101004800
 2280 0194 00000000 		.word	g_tick_ms
 2281              		.cfi_endproc
 2282              	.LFE87:
 2283              		.size	nudge_apply, .-nudge_apply
 2284              		.section	.text.key_manu_joystick,"ax",%progbits
 2285              		.align	2
 2286              		.thumb
 2287              		.thumb_func
 2288              		.type	key_manu_joystick, %function
 2289              	key_manu_joystick:
 2290              	.LFB88:
 529:app_statemachine.c **** 
 530:app_statemachine.c **** static uint8_t key_manu_joystick(app_ctx_t *ctx, char k)
 531:app_statemachine.c **** {
 2291              		.loc 1 531 0
 2292              		.cfi_startproc
 2293              		@ args = 0, pretend = 0, frame = 8
 2294              		@ frame_needed = 1, uses_anonymous_args = 0
 2295 0000 80B5     		push	{r7, lr}
 2296              		.cfi_def_cfa_offset 8
 2297              		.cfi_offset 7, -8
 2298              		.cfi_offset 14, -4
 2299 0002 82B0     		sub	sp, sp, #8
 2300              		.cfi_def_cfa_offset 16
 2301 0004 00AF     		add	r7, sp, #0
ARM GAS  C:\Users\JENNEW~1\AppData\Local\Temp\ccAtvZYd.s 			page 53


 2302              		.cfi_def_cfa_register 7
 2303 0006 7860     		str	r0, [r7, #4]
 2304 0008 0B46     		mov	r3, r1
 2305 000a FB70     		strb	r3, [r7, #3]
 532:app_statemachine.c ****     switch (k) {
 2306              		.loc 1 532 0
 2307 000c FB78     		ldrb	r3, [r7, #3]	@ zero_extendqisi2
 2308 000e 323B     		subs	r3, r3, #50
 2309 0010 452B     		cmp	r3, #69
 2310 0012 00F2FB80 		bhi	.L172
 2311 0016 01A2     		adr	r2, .L174
 2312 0018 52F823F0 		ldr	pc, [r2, r3, lsl #2]
 2313              		.p2align 2
 2314              	.L174:
 2315 001c 45010000 		.word	.L173+1
 2316 0020 0D020000 		.word	.L172+1
 2317 0024 55010000 		.word	.L175+1
 2318 0028 0D020000 		.word	.L172+1
 2319 002c 65010000 		.word	.L176+1
 2320 0030 0D020000 		.word	.L172+1
 2321 0034 35010000 		.word	.L177+1
 2322 0038 0D020000 		.word	.L172+1
 2323 003c 0D020000 		.word	.L172+1
 2324 0040 0D020000 		.word	.L172+1
 2325 0044 0D020000 		.word	.L172+1
 2326 0048 0D020000 		.word	.L172+1
 2327 004c 0D020000 		.word	.L172+1
 2328 0050 0D020000 		.word	.L172+1
 2329 0054 0D020000 		.word	.L172+1
 2330 0058 0D020000 		.word	.L172+1
 2331 005c 0D020000 		.word	.L172+1
 2332 0060 0D020000 		.word	.L172+1
 2333 0064 0D020000 		.word	.L172+1
 2334 0068 0D020000 		.word	.L172+1
 2335 006c 0D020000 		.word	.L172+1
 2336 0070 0D020000 		.word	.L172+1
 2337 0074 0D020000 		.word	.L172+1
 2338 0078 0D020000 		.word	.L172+1
 2339 007c 0D020000 		.word	.L172+1
 2340 0080 0D020000 		.word	.L172+1
 2341 0084 0D020000 		.word	.L172+1
 2342 0088 0D020000 		.word	.L172+1
 2343 008c 0D020000 		.word	.L172+1
 2344 0090 0D020000 		.word	.L172+1
 2345 0094 0D020000 		.word	.L172+1
 2346 0098 0D020000 		.word	.L172+1
 2347 009c 0D020000 		.word	.L172+1
 2348 00a0 0D020000 		.word	.L172+1
 2349 00a4 0D020000 		.word	.L172+1
 2350 00a8 0D020000 		.word	.L172+1
 2351 00ac 0D020000 		.word	.L172+1
 2352 00b0 0D020000 		.word	.L172+1
 2353 00b4 0D020000 		.word	.L172+1
 2354 00b8 0D020000 		.word	.L172+1
 2355 00bc 0D020000 		.word	.L172+1
 2356 00c0 0D020000 		.word	.L172+1
 2357 00c4 0D020000 		.word	.L172+1
ARM GAS  C:\Users\JENNEW~1\AppData\Local\Temp\ccAtvZYd.s 			page 54


 2358 00c8 0D020000 		.word	.L172+1
 2359 00cc 0D020000 		.word	.L172+1
 2360 00d0 0D020000 		.word	.L172+1
 2361 00d4 0D020000 		.word	.L172+1
 2362 00d8 DF010000 		.word	.L178+1
 2363 00dc 0D020000 		.word	.L172+1
 2364 00e0 0D020000 		.word	.L172+1
 2365 00e4 EF010000 		.word	.L179+1
 2366 00e8 01020000 		.word	.L180+1
 2367 00ec 0D020000 		.word	.L172+1
 2368 00f0 0D020000 		.word	.L172+1
 2369 00f4 0D020000 		.word	.L172+1
 2370 00f8 75010000 		.word	.L181+1
 2371 00fc 99010000 		.word	.L182+1
 2372 0100 87010000 		.word	.L183+1
 2373 0104 AB010000 		.word	.L184+1
 2374 0108 0D020000 		.word	.L172+1
 2375 010c 0D020000 		.word	.L172+1
 2376 0110 0D020000 		.word	.L172+1
 2377 0114 0D020000 		.word	.L172+1
 2378 0118 0D020000 		.word	.L172+1
 2379 011c 0D020000 		.word	.L172+1
 2380 0120 CF010000 		.word	.L185+1
 2381 0124 0D020000 		.word	.L172+1
 2382 0128 0D020000 		.word	.L172+1
 2383 012c 0D020000 		.word	.L172+1
 2384 0130 BD010000 		.word	.L186+1
 2385              		.p2align 1
 2386              	.L177:
 533:app_statemachine.c ****         case '8': nudge_apply(ctx, 0,                +NUDGE_LSB_DEG);    return 1;
 2387              		.loc 1 533 0
 2388 0134 384A     		ldr	r2, .L188
 2389 0136 4FF00001 		mov	r1, #0
 2390 013a 7868     		ldr	r0, [r7, #4]
 2391 013c FFF7FEFF 		bl	nudge_apply
 2392 0140 0123     		movs	r3, #1
 2393 0142 64E0     		b	.L187
 2394              	.L173:
 534:app_statemachine.c ****         case '2': nudge_apply(ctx, 0,                -NUDGE_LSB_DEG);    return 1;
 2395              		.loc 1 534 0
 2396 0144 354A     		ldr	r2, .L188+4
 2397 0146 4FF00001 		mov	r1, #0
 2398 014a 7868     		ldr	r0, [r7, #4]
 2399 014c FFF7FEFF 		bl	nudge_apply
 2400 0150 0123     		movs	r3, #1
 2401 0152 5CE0     		b	.L187
 2402              	.L175:
 535:app_statemachine.c ****         case '4': nudge_apply(ctx, -NUDGE_LSB_DEG,    0);                return 1;
 2403              		.loc 1 535 0
 2404 0154 4FF00002 		mov	r2, #0
 2405 0158 3049     		ldr	r1, .L188+4
 2406 015a 7868     		ldr	r0, [r7, #4]
 2407 015c FFF7FEFF 		bl	nudge_apply
 2408 0160 0123     		movs	r3, #1
 2409 0162 54E0     		b	.L187
 2410              	.L176:
 536:app_statemachine.c ****         case '6': nudge_apply(ctx, +NUDGE_LSB_DEG,    0);                return 1;
ARM GAS  C:\Users\JENNEW~1\AppData\Local\Temp\ccAtvZYd.s 			page 55


 2411              		.loc 1 536 0
 2412 0164 4FF00002 		mov	r2, #0
 2413 0168 2B49     		ldr	r1, .L188
 2414 016a 7868     		ldr	r0, [r7, #4]
 2415 016c FFF7FEFF 		bl	nudge_apply
 2416 0170 0123     		movs	r3, #1
 2417 0172 4CE0     		b	.L187
 2418              	.L181:
 537:app_statemachine.c ****         case 'i': nudge_apply(ctx, 0,                +NUDGE_FINE_DEG);   return 1;
 2419              		.loc 1 537 0
 2420 0174 4FF07C52 		mov	r2, #1056964608
 2421 0178 4FF00001 		mov	r1, #0
 2422 017c 7868     		ldr	r0, [r7, #4]
 2423 017e FFF7FEFF 		bl	nudge_apply
 2424 0182 0123     		movs	r3, #1
 2425 0184 43E0     		b	.L187
 2426              	.L183:
 538:app_statemachine.c ****         case 'k': nudge_apply(ctx, 0,                -NUDGE_FINE_DEG);   return 1;
 2427              		.loc 1 538 0
 2428 0186 4FF03F42 		mov	r2, #-1090519040
 2429 018a 4FF00001 		mov	r1, #0
 2430 018e 7868     		ldr	r0, [r7, #4]
 2431 0190 FFF7FEFF 		bl	nudge_apply
 2432 0194 0123     		movs	r3, #1
 2433 0196 3AE0     		b	.L187
 2434              	.L182:
 539:app_statemachine.c ****         case 'j': nudge_apply(ctx, -NUDGE_FINE_DEG,   0);                return 1;
 2435              		.loc 1 539 0
 2436 0198 4FF00002 		mov	r2, #0
 2437 019c 4FF03F41 		mov	r1, #-1090519040
 2438 01a0 7868     		ldr	r0, [r7, #4]
 2439 01a2 FFF7FEFF 		bl	nudge_apply
 2440 01a6 0123     		movs	r3, #1
 2441 01a8 31E0     		b	.L187
 2442              	.L184:
 540:app_statemachine.c ****         case 'l': nudge_apply(ctx, +NUDGE_FINE_DEG,   0);                return 1;
 2443              		.loc 1 540 0
 2444 01aa 4FF00002 		mov	r2, #0
 2445 01ae 4FF07C51 		mov	r1, #1056964608
 2446 01b2 7868     		ldr	r0, [r7, #4]
 2447 01b4 FFF7FEFF 		bl	nudge_apply
 2448 01b8 0123     		movs	r3, #1
 2449 01ba 28E0     		b	.L187
 2450              	.L186:
 541:app_statemachine.c ****         case 'w': nudge_apply(ctx, 0,                +NUDGE_COARSE_DEG); return 1;
 2451              		.loc 1 541 0
 2452 01bc 4FF07E52 		mov	r2, #1065353216
 2453 01c0 4FF00001 		mov	r1, #0
 2454 01c4 7868     		ldr	r0, [r7, #4]
 2455 01c6 FFF7FEFF 		bl	nudge_apply
 2456 01ca 0123     		movs	r3, #1
 2457 01cc 1FE0     		b	.L187
 2458              	.L185:
 542:app_statemachine.c ****         case 's': nudge_apply(ctx, 0,                -NUDGE_COARSE_DEG); return 1;
 2459              		.loc 1 542 0
 2460 01ce 144A     		ldr	r2, .L188+8
 2461 01d0 4FF00001 		mov	r1, #0
ARM GAS  C:\Users\JENNEW~1\AppData\Local\Temp\ccAtvZYd.s 			page 56


 2462 01d4 7868     		ldr	r0, [r7, #4]
 2463 01d6 FFF7FEFF 		bl	nudge_apply
 2464 01da 0123     		movs	r3, #1
 2465 01dc 17E0     		b	.L187
 2466              	.L178:
 543:app_statemachine.c ****         case 'a': nudge_apply(ctx, -NUDGE_COARSE_DEG, 0);               return 1;
 2467              		.loc 1 543 0
 2468 01de 4FF00002 		mov	r2, #0
 2469 01e2 0F49     		ldr	r1, .L188+8
 2470 01e4 7868     		ldr	r0, [r7, #4]
 2471 01e6 FFF7FEFF 		bl	nudge_apply
 2472 01ea 0123     		movs	r3, #1
 2473 01ec 0FE0     		b	.L187
 2474              	.L179:
 544:app_statemachine.c ****         case 'd': nudge_apply(ctx, +NUDGE_COARSE_DEG, 0);               return 1;
 2475              		.loc 1 544 0
 2476 01ee 4FF00002 		mov	r2, #0
 2477 01f2 4FF07E51 		mov	r1, #1065353216
 2478 01f6 7868     		ldr	r0, [r7, #4]
 2479 01f8 FFF7FEFF 		bl	nudge_apply
 2480 01fc 0123     		movs	r3, #1
 2481 01fe 06E0     		b	.L187
 2482              	.L180:
 545:app_statemachine.c ****         case 'e': transition(ctx, STBY_HOLD);                          return 1;
 2483              		.loc 1 545 0
 2484 0200 0621     		movs	r1, #6
 2485 0202 7868     		ldr	r0, [r7, #4]
 2486 0204 FFF7FEFF 		bl	transition
 2487 0208 0123     		movs	r3, #1
 2488 020a 00E0     		b	.L187
 2489              	.L172:
 546:app_statemachine.c ****         default:  return 0;
 2490              		.loc 1 546 0
 2491 020c 0023     		movs	r3, #0
 2492              	.L187:
 547:app_statemachine.c ****     }
 548:app_statemachine.c **** }
 2493              		.loc 1 548 0
 2494 020e 1846     		mov	r0, r3
 2495 0210 0837     		adds	r7, r7, #8
 2496              		.cfi_def_cfa_offset 8
 2497 0212 BD46     		mov	sp, r7
 2498              		.cfi_def_cfa_register 13
 2499              		@ sp needed
 2500 0214 80BD     		pop	{r7, pc}
 2501              	.L189:
 2502 0216 00BF     		.align	2
 2503              	.L188:
 2504 0218 6801B43B 		.word	1001652584
 2505 021c 6801B4BB 		.word	-1145831064
 2506 0220 000080BF 		.word	-1082130432
 2507              		.cfi_endproc
 2508              	.LFE88:
 2509              		.size	key_manu_joystick, .-key_manu_joystick
 2510              		.section	.text.app_manual_tick,"ax",%progbits
 2511              		.align	2
 2512              		.global	app_manual_tick
ARM GAS  C:\Users\JENNEW~1\AppData\Local\Temp\ccAtvZYd.s 			page 57


 2513              		.thumb
 2514              		.thumb_func
 2515              		.type	app_manual_tick, %function
 2516              	app_manual_tick:
 2517              	.LFB89:
 549:app_statemachine.c **** 
 550:app_statemachine.c **** // TEMP: Manual tick for nudge
 551:app_statemachine.c **** void app_manual_tick(app_ctx_t *ctx)
 552:app_statemachine.c **** {
 2518              		.loc 1 552 0
 2519              		.cfi_startproc
 2520              		@ args = 0, pretend = 0, frame = 24
 2521              		@ frame_needed = 1, uses_anonymous_args = 0
 2522 0000 80B5     		push	{r7, lr}
 2523              		.cfi_def_cfa_offset 8
 2524              		.cfi_offset 7, -8
 2525              		.cfi_offset 14, -4
 2526 0002 86B0     		sub	sp, sp, #24
 2527              		.cfi_def_cfa_offset 32
 2528 0004 00AF     		add	r7, sp, #0
 2529              		.cfi_def_cfa_register 7
 2530 0006 7860     		str	r0, [r7, #4]
 553:app_statemachine.c ****     if (ctx->state != MANU_JOYSTICK || !ctx->nudge_hold) return;
 2531              		.loc 1 553 0
 2532 0008 7B68     		ldr	r3, [r7, #4]
 2533 000a 1B79     		ldrb	r3, [r3, #4]	@ zero_extendqisi2
 2534 000c 072B     		cmp	r3, #7
 2535 000e 4CD1     		bne	.L205
 2536              		.loc 1 553 0 is_stmt 0 discriminator 1
 2537 0010 7B68     		ldr	r3, [r7, #4]
 2538 0012 93F84430 		ldrb	r3, [r3, #68]	@ zero_extendqisi2
 2539 0016 002B     		cmp	r3, #0
 2540 0018 47D0     		beq	.L205
 554:app_statemachine.c ****     uint32_t elapsed = g_tick_ms - ctx->nudge_start_ms;
 2541              		.loc 1 554 0 is_stmt 1
 2542 001a 274B     		ldr	r3, .L207
 2543 001c 1A68     		ldr	r2, [r3]
 2544 001e 7B68     		ldr	r3, [r7, #4]
 2545 0020 9B6C     		ldr	r3, [r3, #72]
 2546 0022 D31A     		subs	r3, r2, r3
 2547 0024 3B61     		str	r3, [r7, #16]
 555:app_statemachine.c ****     if (elapsed < NUDGE_MIN_DWELL_MS) return;       /* let the step physically land */
 2548              		.loc 1 555 0
 2549 0026 3B69     		ldr	r3, [r7, #16]
 2550 0028 952B     		cmp	r3, #149
 2551 002a 40D9     		bls	.L206
 556:app_statemachine.c **** 
 557:app_statemachine.c ****     float p, t; uint8_t arrived = 0u;
 2552              		.loc 1 557 0
 2553 002c 0023     		movs	r3, #0
 2554 002e FB75     		strb	r3, [r7, #23]
 558:app_statemachine.c ****     if (get_euler_deg(&p, &t))
 2555              		.loc 1 558 0
 2556 0030 07F10802 		add	r2, r7, #8
 2557 0034 07F10C03 		add	r3, r7, #12
 2558 0038 1146     		mov	r1, r2
 2559 003a 1846     		mov	r0, r3
ARM GAS  C:\Users\JENNEW~1\AppData\Local\Temp\ccAtvZYd.s 			page 58


 2560 003c FFF7FEFF 		bl	get_euler_deg
 2561 0040 0346     		mov	r3, r0
 2562 0042 002B     		cmp	r3, #0
 2563 0044 25D0     		beq	.L195
 559:app_statemachine.c ****         arrived = (fabsf(p - ctx->tgt_pan_deg)  < NUDGE_SETTLE_DEG) &&
 2564              		.loc 1 559 0
 2565 0046 FA68     		ldr	r2, [r7, #12]	@ float
 2566 0048 7B68     		ldr	r3, [r7, #4]
 2567 004a 5B6D     		ldr	r3, [r3, #84]	@ float
 2568 004c 1946     		mov	r1, r3
 2569 004e 1046     		mov	r0, r2
 2570 0050 FFF7FEFF 		bl	__aeabi_fsub
 2571 0054 0346     		mov	r3, r0
 2572 0056 23F00043 		bic	r3, r3, #-2147483648
 2573 005a 1849     		ldr	r1, .L207+4
 2574 005c 1846     		mov	r0, r3
 2575 005e FFF7FEFF 		bl	__aeabi_fcmplt
 2576 0062 0346     		mov	r3, r0
 2577 0064 002B     		cmp	r3, #0
 2578 0066 12D0     		beq	.L196
 560:app_statemachine.c ****                   (fabsf(t - ctx->tgt_tilt_deg) < NUDGE_SETTLE_DEG);
 2579              		.loc 1 560 0 discriminator 1
 2580 0068 BA68     		ldr	r2, [r7, #8]	@ float
 2581 006a 7B68     		ldr	r3, [r7, #4]
 2582 006c 9B6D     		ldr	r3, [r3, #88]	@ float
 2583 006e 1946     		mov	r1, r3
 2584 0070 1046     		mov	r0, r2
 2585 0072 FFF7FEFF 		bl	__aeabi_fsub
 2586 0076 0346     		mov	r3, r0
 2587 0078 23F00043 		bic	r3, r3, #-2147483648
 559:app_statemachine.c ****         arrived = (fabsf(p - ctx->tgt_pan_deg)  < NUDGE_SETTLE_DEG) &&
 2588              		.loc 1 559 0 discriminator 1
 2589 007c 0F49     		ldr	r1, .L207+4
 2590 007e 1846     		mov	r0, r3
 2591 0080 FFF7FEFF 		bl	__aeabi_fcmplt
 2592 0084 0346     		mov	r3, r0
 2593 0086 002B     		cmp	r3, #0
 2594 0088 01D0     		beq	.L196
 559:app_statemachine.c ****         arrived = (fabsf(p - ctx->tgt_pan_deg)  < NUDGE_SETTLE_DEG) &&
 2595              		.loc 1 559 0 is_stmt 0 discriminator 3
 2596 008a 0123     		movs	r3, #1
 2597 008c 00E0     		b	.L199
 2598              	.L196:
 559:app_statemachine.c ****         arrived = (fabsf(p - ctx->tgt_pan_deg)  < NUDGE_SETTLE_DEG) &&
 2599              		.loc 1 559 0 discriminator 4
 2600 008e 0023     		movs	r3, #0
 2601              	.L199:
 559:app_statemachine.c ****         arrived = (fabsf(p - ctx->tgt_pan_deg)  < NUDGE_SETTLE_DEG) &&
 2602              		.loc 1 559 0 discriminator 6
 2603 0090 FB75     		strb	r3, [r7, #23]
 2604              	.L195:
 561:app_statemachine.c ****     if (arrived || elapsed >= NUDGE_TIMEOUT_MS)
 2605              		.loc 1 561 0 is_stmt 1
 2606 0092 FB7D     		ldrb	r3, [r7, #23]	@ zero_extendqisi2
 2607 0094 002B     		cmp	r3, #0
 2608 0096 03D1     		bne	.L200
 2609              		.loc 1 561 0 is_stmt 0 discriminator 1
ARM GAS  C:\Users\JENNEW~1\AppData\Local\Temp\ccAtvZYd.s 			page 59


 2610 0098 3B69     		ldr	r3, [r7, #16]
 2611 009a B3F5FA6F 		cmp	r3, #2000
 2612 009e 07D3     		bcc	.L190
 2613              	.L200:
 562:app_statemachine.c ****         ctx->nudge_hold = 0u;                        /* rate=0 holds the new attitude */
 2614              		.loc 1 562 0 is_stmt 1
 2615 00a0 7B68     		ldr	r3, [r7, #4]
 2616 00a2 0022     		movs	r2, #0
 2617 00a4 83F84420 		strb	r2, [r3, #68]
 2618 00a8 02E0     		b	.L190
 2619              	.L205:
 553:app_statemachine.c ****     uint32_t elapsed = g_tick_ms - ctx->nudge_start_ms;
 2620              		.loc 1 553 0
 2621 00aa 00BF     		nop
 2622 00ac 00E0     		b	.L190
 2623              	.L206:
 555:app_statemachine.c **** 
 2624              		.loc 1 555 0
 2625 00ae 00BF     		nop
 2626              	.L190:
 563:app_statemachine.c **** }...
 2627              		.loc 1 563 0
 2628 00b0 1837     		adds	r7, r7, #24
 2629              		.cfi_def_cfa_offset 8
 2630 00b2 BD46     		mov	sp, r7
 2631              		.cfi_def_cfa_register 13
 2632              		@ sp needed
 2633 00b4 80BD     		pop	{r7, pc}
 2634              	.L208:
 2635 00b6 00BF     		.align	2
 2636              	.L207:
 2637 00b8 00000000 		.word	g_tick_ms
 2638 00bc CDCC4C3D 		.word	1028443341
 2639              		.cfi_endproc
 2640              	.LFE89:
 2641              		.size	app_manual_tick, .-app_manual_tick
 2642              		.text
 2643              	.Letext0:
 2644              		.file 2 "c:\\program files (x86)\\cypress\\psoc creator\\4.4\\psoc creator\\import\\gnu\\arm\\5.4.
 2645              		.file 3 "c:\\program files (x86)\\cypress\\psoc creator\\4.4\\psoc creator\\import\\gnu\\arm\\5.4.
 2646              		.file 4 "..\\..\\..\\HamFlyAPI\\src/hamfly_core_control.h"
 2647              		.file 5 "..\\..\\..\\HamFlyAPI\\src/hamfly_core_hal.h"
 2648              		.file 6 "..\\..\\..\\HamFlyAPI\\src/hamfly_core_telemetry.h"
 2649              		.file 7 "..\\..\\..\\HamFlyAPI\\src/hamfly_comm_rb.h"
 2650              		.file 8 "..\\..\\..\\HamFlyAPI\\src/hamfly_core_gimbal.h"
 2651              		.file 9 "joystick.h"
 2652              		.file 10 "app_ctx.h"
 2653              		.file 11 "Generated_Source\\PSoC5/core_cm3.h"
 2654              		.section	.debug_info,"",%progbits
 2655              	.Ldebug_info0:
 2656 0000 A7110000 		.4byte	0x11a7
 2657 0004 0400     		.2byte	0x4
 2658 0006 00000000 		.4byte	.Ldebug_abbrev0
 2659 000a 04       		.byte	0x4
 2660 000b 01       		.uleb128 0x1
 2661 000c 02010000 		.4byte	.LASF240
 2662 0010 0C       		.byte	0xc
ARM GAS  C:\Users\JENNEW~1\AppData\Local\Temp\ccAtvZYd.s 			page 60


 2663 0011 2C0A0000 		.4byte	.LASF241
 2664 0015 6E0B0000 		.4byte	.LASF242
 2665 0019 00000000 		.4byte	.Ldebug_ranges0+0
 2666 001d 00000000 		.4byte	0
 2667 0021 00000000 		.4byte	.Ldebug_line0
 2668 0025 02       		.uleb128 0x2
 2669 0026 01       		.byte	0x1
 2670 0027 06       		.byte	0x6
 2671 0028 B50A0000 		.4byte	.LASF0
 2672 002c 03       		.uleb128 0x3
 2673 002d 87080000 		.4byte	.LASF2
 2674 0031 02       		.byte	0x2
 2675 0032 1D       		.byte	0x1d
 2676 0033 37000000 		.4byte	0x37
 2677 0037 02       		.uleb128 0x2
 2678 0038 01       		.byte	0x1
 2679 0039 08       		.byte	0x8
 2680 003a D5090000 		.4byte	.LASF1
 2681 003e 03       		.uleb128 0x3
 2682 003f 7D060000 		.4byte	.LASF3
 2683 0043 02       		.byte	0x2
 2684 0044 29       		.byte	0x29
 2685 0045 49000000 		.4byte	0x49
 2686 0049 02       		.uleb128 0x2
 2687 004a 02       		.byte	0x2
 2688 004b 05       		.byte	0x5
 2689 004c BD070000 		.4byte	.LASF4
 2690 0050 03       		.uleb128 0x3
 2691 0051 40030000 		.4byte	.LASF5
 2692 0055 02       		.byte	0x2
 2693 0056 2B       		.byte	0x2b
 2694 0057 5B000000 		.4byte	0x5b
 2695 005b 02       		.uleb128 0x2
 2696 005c 02       		.byte	0x2
 2697 005d 07       		.byte	0x7
 2698 005e D80A0000 		.4byte	.LASF6
 2699 0062 03       		.uleb128 0x3
 2700 0063 DB000000 		.4byte	.LASF7
 2701 0067 02       		.byte	0x2
 2702 0068 3F       		.byte	0x3f
 2703 0069 6D000000 		.4byte	0x6d
 2704 006d 02       		.uleb128 0x2
 2705 006e 04       		.byte	0x4
 2706 006f 05       		.byte	0x5
 2707 0070 E3070000 		.4byte	.LASF8
 2708 0074 03       		.uleb128 0x3
 2709 0075 E3090000 		.4byte	.LASF9
 2710 0079 02       		.byte	0x2
 2711 007a 41       		.byte	0x41
 2712 007b 7F000000 		.4byte	0x7f
 2713 007f 02       		.uleb128 0x2
 2714 0080 04       		.byte	0x4
 2715 0081 07       		.byte	0x7
 2716 0082 50090000 		.4byte	.LASF10
 2717 0086 02       		.uleb128 0x2
 2718 0087 08       		.byte	0x8
 2719 0088 05       		.byte	0x5
ARM GAS  C:\Users\JENNEW~1\AppData\Local\Temp\ccAtvZYd.s 			page 61


 2720 0089 0B060000 		.4byte	.LASF11
 2721 008d 02       		.uleb128 0x2
 2722 008e 08       		.byte	0x8
 2723 008f 07       		.byte	0x7
 2724 0090 C5020000 		.4byte	.LASF12
 2725 0094 04       		.uleb128 0x4
 2726 0095 04       		.byte	0x4
 2727 0096 05       		.byte	0x5
 2728 0097 696E7400 		.ascii	"int\000"
 2729 009b 02       		.uleb128 0x2
 2730 009c 04       		.byte	0x4
 2731 009d 07       		.byte	0x7
 2732 009e AD000000 		.4byte	.LASF13
 2733 00a2 03       		.uleb128 0x3
 2734 00a3 97050000 		.4byte	.LASF14
 2735 00a7 03       		.byte	0x3
 2736 00a8 18       		.byte	0x18
 2737 00a9 2C000000 		.4byte	0x2c
 2738 00ad 03       		.uleb128 0x3
 2739 00ae BD020000 		.4byte	.LASF15
 2740 00b2 03       		.byte	0x3
 2741 00b3 20       		.byte	0x20
 2742 00b4 3E000000 		.4byte	0x3e
 2743 00b8 03       		.uleb128 0x3
 2744 00b9 62070000 		.4byte	.LASF16
 2745 00bd 03       		.byte	0x3
 2746 00be 24       		.byte	0x24
 2747 00bf 50000000 		.4byte	0x50
 2748 00c3 03       		.uleb128 0x3
 2749 00c4 7A090000 		.4byte	.LASF17
 2750 00c8 03       		.byte	0x3
 2751 00c9 2C       		.byte	0x2c
 2752 00ca 62000000 		.4byte	0x62
 2753 00ce 03       		.uleb128 0x3
 2754 00cf 65020000 		.4byte	.LASF18
 2755 00d3 03       		.byte	0x3
 2756 00d4 30       		.byte	0x30
 2757 00d5 74000000 		.4byte	0x74
 2758 00d9 02       		.uleb128 0x2
 2759 00da 04       		.byte	0x4
 2760 00db 04       		.byte	0x4
 2761 00dc A6020000 		.4byte	.LASF19
 2762 00e0 02       		.uleb128 0x2
 2763 00e1 08       		.byte	0x8
 2764 00e2 04       		.byte	0x4
 2765 00e3 5D0B0000 		.4byte	.LASF20
 2766 00e7 02       		.uleb128 0x2
 2767 00e8 01       		.byte	0x1
 2768 00e9 08       		.byte	0x8
 2769 00ea 16050000 		.4byte	.LASF21
 2770 00ee 02       		.uleb128 0x2
 2771 00ef 08       		.byte	0x8
 2772 00f0 04       		.byte	0x4
 2773 00f1 56070000 		.4byte	.LASF22
 2774 00f5 02       		.uleb128 0x2
 2775 00f6 04       		.byte	0x4
 2776 00f7 07       		.byte	0x7
ARM GAS  C:\Users\JENNEW~1\AppData\Local\Temp\ccAtvZYd.s 			page 62


 2777 00f8 2B090000 		.4byte	.LASF23
 2778 00fc 05       		.uleb128 0x5
 2779 00fd 04       		.byte	0x4
 2780 00fe 06       		.uleb128 0x6
 2781 00ff 04       		.byte	0x4
 2782 0100 04010000 		.4byte	0x104
 2783 0104 07       		.uleb128 0x7
 2784 0105 E7000000 		.4byte	0xe7
 2785 0109 08       		.uleb128 0x8
 2786 010a CE000000 		.4byte	0xce
 2787 010e 08       		.uleb128 0x8
 2788 010f A2000000 		.4byte	0xa2
 2789 0113 08       		.uleb128 0x8
 2790 0114 B8000000 		.4byte	0xb8
 2791 0118 09       		.uleb128 0x9
 2792 0119 01       		.byte	0x1
 2793 011a 37000000 		.4byte	0x37
 2794 011e 04       		.byte	0x4
 2795 011f 1E       		.byte	0x1e
 2796 0120 3D010000 		.4byte	0x13d
 2797 0124 0A       		.uleb128 0xa
 2798 0125 1F0A0000 		.4byte	.LASF24
 2799 0129 00       		.byte	0
 2800 012a 0A       		.uleb128 0xa
 2801 012b 0A020000 		.4byte	.LASF25
 2802 012f 01       		.byte	0x1
 2803 0130 0A       		.uleb128 0xa
 2804 0131 EA060000 		.4byte	.LASF26
 2805 0135 02       		.byte	0x2
 2806 0136 0A       		.uleb128 0xa
 2807 0137 EB0A0000 		.4byte	.LASF27
 2808 013b 03       		.byte	0x3
 2809 013c 00       		.byte	0
 2810 013d 03       		.uleb128 0x3
 2811 013e 2D040000 		.4byte	.LASF28
 2812 0142 04       		.byte	0x4
 2813 0143 2A       		.byte	0x2a
 2814 0144 18010000 		.4byte	0x118
 2815 0148 0B       		.uleb128 0xb
 2816 0149 14       		.byte	0x14
 2817 014a 04       		.byte	0x4
 2818 014b 2E       		.byte	0x2e
 2819 014c B1010000 		.4byte	0x1b1
 2820 0150 0C       		.uleb128 0xc
 2821 0151 70616E00 		.ascii	"pan\000"
 2822 0155 04       		.byte	0x4
 2823 0156 2F       		.byte	0x2f
 2824 0157 D9000000 		.4byte	0xd9
 2825 015b 00       		.byte	0
 2826 015c 0D       		.uleb128 0xd
 2827 015d B8020000 		.4byte	.LASF29
 2828 0161 04       		.byte	0x4
 2829 0162 30       		.byte	0x30
 2830 0163 D9000000 		.4byte	0xd9
 2831 0167 04       		.byte	0x4
 2832 0168 0D       		.uleb128 0xd
 2833 0169 92050000 		.4byte	.LASF30
ARM GAS  C:\Users\JENNEW~1\AppData\Local\Temp\ccAtvZYd.s 			page 63


 2834 016d 04       		.byte	0x4
 2835 016e 31       		.byte	0x31
 2836 016f D9000000 		.4byte	0xd9
 2837 0173 08       		.byte	0x8
 2838 0174 0D       		.uleb128 0xd
 2839 0175 EA030000 		.4byte	.LASF31
 2840 0179 04       		.byte	0x4
 2841 017a 32       		.byte	0x32
 2842 017b 3D010000 		.4byte	0x13d
 2843 017f 0C       		.byte	0xc
 2844 0180 0D       		.uleb128 0xd
 2845 0181 C0040000 		.4byte	.LASF32
 2846 0185 04       		.byte	0x4
 2847 0186 33       		.byte	0x33
 2848 0187 3D010000 		.4byte	0x13d
 2849 018b 0D       		.byte	0xd
 2850 018c 0D       		.uleb128 0xd
 2851 018d D7010000 		.4byte	.LASF33
 2852 0191 04       		.byte	0x4
 2853 0192 34       		.byte	0x34
 2854 0193 3D010000 		.4byte	0x13d
 2855 0197 0E       		.byte	0xe
 2856 0198 0D       		.uleb128 0xd
 2857 0199 84030000 		.4byte	.LASF34
 2858 019d 04       		.byte	0x4
 2859 019e 35       		.byte	0x35
 2860 019f A2000000 		.4byte	0xa2
 2861 01a3 0F       		.byte	0xf
 2862 01a4 0D       		.uleb128 0xd
 2863 01a5 BD010000 		.4byte	.LASF35
 2864 01a9 04       		.byte	0x4
 2865 01aa 36       		.byte	0x36
 2866 01ab A2000000 		.4byte	0xa2
 2867 01af 10       		.byte	0x10
 2868 01b0 00       		.byte	0
 2869 01b1 03       		.uleb128 0x3
 2870 01b2 34090000 		.4byte	.LASF36
 2871 01b6 04       		.byte	0x4
 2872 01b7 37       		.byte	0x37
 2873 01b8 48010000 		.4byte	0x148
 2874 01bc 0B       		.uleb128 0xb
 2875 01bd 0C       		.byte	0xc
 2876 01be 05       		.byte	0x5
 2877 01bf 24       		.byte	0x24
 2878 01c0 E9010000 		.4byte	0x1e9
 2879 01c4 0C       		.uleb128 0xc
 2880 01c5 63747800 		.ascii	"ctx\000"
 2881 01c9 05       		.byte	0x5
 2882 01ca 25       		.byte	0x25
 2883 01cb FC000000 		.4byte	0xfc
 2884 01cf 00       		.byte	0
 2885 01d0 0D       		.uleb128 0xd
 2886 01d1 9C020000 		.4byte	.LASF37
 2887 01d5 05       		.byte	0x5
 2888 01d6 26       		.byte	0x26
 2889 01d7 F9010000 		.4byte	0x1f9
 2890 01db 04       		.byte	0x4
ARM GAS  C:\Users\JENNEW~1\AppData\Local\Temp\ccAtvZYd.s 			page 64


 2891 01dc 0D       		.uleb128 0xd
 2892 01dd B1010000 		.4byte	.LASF38
 2893 01e1 05       		.byte	0x5
 2894 01e2 27       		.byte	0x27
 2895 01e3 0E020000 		.4byte	0x20e
 2896 01e7 08       		.byte	0x8
 2897 01e8 00       		.byte	0
 2898 01e9 0E       		.uleb128 0xe
 2899 01ea F9010000 		.4byte	0x1f9
 2900 01ee 0F       		.uleb128 0xf
 2901 01ef FC000000 		.4byte	0xfc
 2902 01f3 0F       		.uleb128 0xf
 2903 01f4 A2000000 		.4byte	0xa2
 2904 01f8 00       		.byte	0
 2905 01f9 06       		.uleb128 0x6
 2906 01fa 04       		.byte	0x4
 2907 01fb E9010000 		.4byte	0x1e9
 2908 01ff 10       		.uleb128 0x10
 2909 0200 CE000000 		.4byte	0xce
 2910 0204 0E020000 		.4byte	0x20e
 2911 0208 0F       		.uleb128 0xf
 2912 0209 FC000000 		.4byte	0xfc
 2913 020d 00       		.byte	0
 2914 020e 06       		.uleb128 0x6
 2915 020f 04       		.byte	0x4
 2916 0210 FF010000 		.4byte	0x1ff
 2917 0214 03       		.uleb128 0x3
 2918 0215 86000000 		.4byte	.LASF39
 2919 0219 05       		.byte	0x5
 2920 021a 28       		.byte	0x28
 2921 021b BC010000 		.4byte	0x1bc
 2922 021f 0B       		.uleb128 0xb
 2923 0220 EC       		.byte	0xec
 2924 0221 06       		.byte	0x6
 2925 0222 1F       		.byte	0x1f
 2926 0223 88050000 		.4byte	0x588
 2927 0227 0D       		.uleb128 0xd
 2928 0228 41060000 		.4byte	.LASF40
 2929 022c 06       		.byte	0x6
 2930 022d 21       		.byte	0x21
 2931 022e 88050000 		.4byte	0x588
 2932 0232 00       		.byte	0
 2933 0233 0D       		.uleb128 0xd
 2934 0234 A2010000 		.4byte	.LASF41
 2935 0238 06       		.byte	0x6
 2936 0239 22       		.byte	0x22
 2937 023a D9000000 		.4byte	0xd9
 2938 023e 04       		.byte	0x4
 2939 023f 0D       		.uleb128 0xd
 2940 0240 A8080000 		.4byte	.LASF42
 2941 0244 06       		.byte	0x6
 2942 0245 23       		.byte	0x23
 2943 0246 D9000000 		.4byte	0xd9
 2944 024a 08       		.byte	0x8
 2945 024b 0D       		.uleb128 0xd
 2946 024c 78050000 		.4byte	.LASF43
 2947 0250 06       		.byte	0x6
ARM GAS  C:\Users\JENNEW~1\AppData\Local\Temp\ccAtvZYd.s 			page 65


 2948 0251 24       		.byte	0x24
 2949 0252 D9000000 		.4byte	0xd9
 2950 0256 0C       		.byte	0xc
 2951 0257 0D       		.uleb128 0xd
 2952 0258 54050000 		.4byte	.LASF44
 2953 025c 06       		.byte	0x6
 2954 025d 25       		.byte	0x25
 2955 025e D9000000 		.4byte	0xd9
 2956 0262 10       		.byte	0x10
 2957 0263 0D       		.uleb128 0xd
 2958 0264 5D050000 		.4byte	.LASF45
 2959 0268 06       		.byte	0x6
 2960 0269 26       		.byte	0x26
 2961 026a D9000000 		.4byte	0xd9
 2962 026e 14       		.byte	0x14
 2963 026f 0D       		.uleb128 0xd
 2964 0270 66050000 		.4byte	.LASF46
 2965 0274 06       		.byte	0x6
 2966 0275 27       		.byte	0x27
 2967 0276 D9000000 		.4byte	0xd9
 2968 027a 18       		.byte	0x18
 2969 027b 0D       		.uleb128 0xd
 2970 027c 96070000 		.4byte	.LASF47
 2971 0280 06       		.byte	0x6
 2972 0281 28       		.byte	0x28
 2973 0282 A2000000 		.4byte	0xa2
 2974 0286 1C       		.byte	0x1c
 2975 0287 0D       		.uleb128 0xd
 2976 0288 A5070000 		.4byte	.LASF48
 2977 028c 06       		.byte	0x6
 2978 028d 29       		.byte	0x29
 2979 028e A2000000 		.4byte	0xa2
 2980 0292 1D       		.byte	0x1d
 2981 0293 0D       		.uleb128 0xd
 2982 0294 87060000 		.4byte	.LASF49
 2983 0298 06       		.byte	0x6
 2984 0299 2C       		.byte	0x2c
 2985 029a 88050000 		.4byte	0x588
 2986 029e 1E       		.byte	0x1e
 2987 029f 0D       		.uleb128 0xd
 2988 02a0 28060000 		.4byte	.LASF50
 2989 02a4 06       		.byte	0x6
 2990 02a5 2E       		.byte	0x2e
 2991 02a6 88050000 		.4byte	0x588
 2992 02aa 1F       		.byte	0x1f
 2993 02ab 0D       		.uleb128 0xd
 2994 02ac 7B080000 		.4byte	.LASF51
 2995 02b0 06       		.byte	0x6
 2996 02b1 31       		.byte	0x31
 2997 02b2 D9000000 		.4byte	0xd9
 2998 02b6 20       		.byte	0x20
 2999 02b7 0D       		.uleb128 0xd
 3000 02b8 60040000 		.4byte	.LASF52
 3001 02bc 06       		.byte	0x6
 3002 02bd 32       		.byte	0x32
 3003 02be D9000000 		.4byte	0xd9
 3004 02c2 24       		.byte	0x24
ARM GAS  C:\Users\JENNEW~1\AppData\Local\Temp\ccAtvZYd.s 			page 66


 3005 02c3 0D       		.uleb128 0xd
 3006 02c4 48080000 		.4byte	.LASF53
 3007 02c8 06       		.byte	0x6
 3008 02c9 33       		.byte	0x33
 3009 02ca D9000000 		.4byte	0xd9
 3010 02ce 28       		.byte	0x28
 3011 02cf 0D       		.uleb128 0xd
 3012 02d0 6E020000 		.4byte	.LASF54
 3013 02d4 06       		.byte	0x6
 3014 02d5 34       		.byte	0x34
 3015 02d6 D9000000 		.4byte	0xd9
 3016 02da 2C       		.byte	0x2c
 3017 02db 0D       		.uleb128 0xd
 3018 02dc 46070000 		.4byte	.LASF55
 3019 02e0 06       		.byte	0x6
 3020 02e1 36       		.byte	0x36
 3021 02e2 D9000000 		.4byte	0xd9
 3022 02e6 30       		.byte	0x30
 3023 02e7 0D       		.uleb128 0xd
 3024 02e8 B5040000 		.4byte	.LASF56
 3025 02ec 06       		.byte	0x6
 3026 02ed 37       		.byte	0x37
 3027 02ee D9000000 		.4byte	0xd9
 3028 02f2 34       		.byte	0x34
 3029 02f3 0D       		.uleb128 0xd
 3030 02f4 6C0A0000 		.4byte	.LASF57
 3031 02f8 06       		.byte	0x6
 3032 02f9 38       		.byte	0x38
 3033 02fa D9000000 		.4byte	0xd9
 3034 02fe 38       		.byte	0x38
 3035 02ff 0D       		.uleb128 0xd
 3036 0300 FA050000 		.4byte	.LASF58
 3037 0304 06       		.byte	0x6
 3038 0305 39       		.byte	0x39
 3039 0306 D9000000 		.4byte	0xd9
 3040 030a 3C       		.byte	0x3c
 3041 030b 0D       		.uleb128 0xd
 3042 030c 23000000 		.4byte	.LASF59
 3043 0310 06       		.byte	0x6
 3044 0311 3B       		.byte	0x3b
 3045 0312 C3000000 		.4byte	0xc3
 3046 0316 40       		.byte	0x40
 3047 0317 0D       		.uleb128 0xd
 3048 0318 040B0000 		.4byte	.LASF60
 3049 031c 06       		.byte	0x6
 3050 031d 3C       		.byte	0x3c
 3051 031e C3000000 		.4byte	0xc3
 3052 0322 44       		.byte	0x44
 3053 0323 0D       		.uleb128 0xd
 3054 0324 9E040000 		.4byte	.LASF61
 3055 0328 06       		.byte	0x6
 3056 0329 41       		.byte	0x41
 3057 032a C3000000 		.4byte	0xc3
 3058 032e 48       		.byte	0x48
 3059 032f 0D       		.uleb128 0xd
 3060 0330 33080000 		.4byte	.LASF62
 3061 0334 06       		.byte	0x6
ARM GAS  C:\Users\JENNEW~1\AppData\Local\Temp\ccAtvZYd.s 			page 67


 3062 0335 42       		.byte	0x42
 3063 0336 AD000000 		.4byte	0xad
 3064 033a 4C       		.byte	0x4c
 3065 033b 0D       		.uleb128 0xd
 3066 033c 14070000 		.4byte	.LASF63
 3067 0340 06       		.byte	0x6
 3068 0341 44       		.byte	0x44
 3069 0342 AD000000 		.4byte	0xad
 3070 0346 4E       		.byte	0x4e
 3071 0347 0D       		.uleb128 0xd
 3072 0348 CB0A0000 		.4byte	.LASF64
 3073 034c 06       		.byte	0x6
 3074 034d 45       		.byte	0x45
 3075 034e B8000000 		.4byte	0xb8
 3076 0352 50       		.byte	0x50
 3077 0353 0D       		.uleb128 0xd
 3078 0354 6D0C0000 		.4byte	.LASF65
 3079 0358 06       		.byte	0x6
 3080 0359 46       		.byte	0x46
 3081 035a B8000000 		.4byte	0xb8
 3082 035e 52       		.byte	0x52
 3083 035f 0D       		.uleb128 0xd
 3084 0360 20030000 		.4byte	.LASF66
 3085 0364 06       		.byte	0x6
 3086 0365 47       		.byte	0x47
 3087 0366 B8000000 		.4byte	0xb8
 3088 036a 54       		.byte	0x54
 3089 036b 0D       		.uleb128 0xd
 3090 036c 45090000 		.4byte	.LASF67
 3091 0370 06       		.byte	0x6
 3092 0371 4A       		.byte	0x4a
 3093 0372 88050000 		.4byte	0x588
 3094 0376 56       		.byte	0x56
 3095 0377 0D       		.uleb128 0xd
 3096 0378 280C0000 		.4byte	.LASF68
 3097 037c 06       		.byte	0x6
 3098 037d 4E       		.byte	0x4e
 3099 037e D9000000 		.4byte	0xd9
 3100 0382 58       		.byte	0x58
 3101 0383 0D       		.uleb128 0xd
 3102 0384 E6020000 		.4byte	.LASF69
 3103 0388 06       		.byte	0x6
 3104 0389 52       		.byte	0x52
 3105 038a D9000000 		.4byte	0xd9
 3106 038e 5C       		.byte	0x5c
 3107 038f 0D       		.uleb128 0xd
 3108 0390 3F0A0000 		.4byte	.LASF70
 3109 0394 06       		.byte	0x6
 3110 0395 57       		.byte	0x57
 3111 0396 88050000 		.4byte	0x588
 3112 039a 60       		.byte	0x60
 3113 039b 0D       		.uleb128 0xd
 3114 039c 73030000 		.4byte	.LASF71
 3115 03a0 06       		.byte	0x6
 3116 03a1 58       		.byte	0x58
 3117 03a2 CE000000 		.4byte	0xce
 3118 03a6 64       		.byte	0x64
ARM GAS  C:\Users\JENNEW~1\AppData\Local\Temp\ccAtvZYd.s 			page 68


 3119 03a7 0D       		.uleb128 0xd
 3120 03a8 00040000 		.4byte	.LASF72
 3121 03ac 06       		.byte	0x6
 3122 03ad 59       		.byte	0x59
 3123 03ae D9000000 		.4byte	0xd9
 3124 03b2 68       		.byte	0x68
 3125 03b3 0D       		.uleb128 0xd
 3126 03b4 43020000 		.4byte	.LASF73
 3127 03b8 06       		.byte	0x6
 3128 03b9 5A       		.byte	0x5a
 3129 03ba D9000000 		.4byte	0xd9
 3130 03be 6C       		.byte	0x6c
 3131 03bf 0D       		.uleb128 0xd
 3132 03c0 860A0000 		.4byte	.LASF74
 3133 03c4 06       		.byte	0x6
 3134 03c5 5B       		.byte	0x5b
 3135 03c6 D9000000 		.4byte	0xd9
 3136 03ca 70       		.byte	0x70
 3137 03cb 0D       		.uleb128 0xd
 3138 03cc 99090000 		.4byte	.LASF75
 3139 03d0 06       		.byte	0x6
 3140 03d1 5F       		.byte	0x5f
 3141 03d2 D9000000 		.4byte	0xd9
 3142 03d6 74       		.byte	0x74
 3143 03d7 0D       		.uleb128 0xd
 3144 03d8 82090000 		.4byte	.LASF76
 3145 03dc 06       		.byte	0x6
 3146 03dd 60       		.byte	0x60
 3147 03de D9000000 		.4byte	0xd9
 3148 03e2 78       		.byte	0x78
 3149 03e3 0D       		.uleb128 0xd
 3150 03e4 5B0C0000 		.4byte	.LASF77
 3151 03e8 06       		.byte	0x6
 3152 03e9 61       		.byte	0x61
 3153 03ea D9000000 		.4byte	0xd9
 3154 03ee 7C       		.byte	0x7c
 3155 03ef 0D       		.uleb128 0xd
 3156 03f0 1C0B0000 		.4byte	.LASF78
 3157 03f4 06       		.byte	0x6
 3158 03f5 65       		.byte	0x65
 3159 03f6 D9000000 		.4byte	0xd9
 3160 03fa 80       		.byte	0x80
 3161 03fb 0D       		.uleb128 0xd
 3162 03fc EE090000 		.4byte	.LASF79
 3163 0400 06       		.byte	0x6
 3164 0401 66       		.byte	0x66
 3165 0402 D9000000 		.4byte	0xd9
 3166 0406 84       		.byte	0x84
 3167 0407 0D       		.uleb128 0xd
 3168 0408 7E040000 		.4byte	.LASF80
 3169 040c 06       		.byte	0x6
 3170 040d 67       		.byte	0x67
 3171 040e D9000000 		.4byte	0xd9
 3172 0412 88       		.byte	0x88
 3173 0413 0D       		.uleb128 0xd
 3174 0414 56030000 		.4byte	.LASF81
 3175 0418 06       		.byte	0x6
ARM GAS  C:\Users\JENNEW~1\AppData\Local\Temp\ccAtvZYd.s 			page 69


 3176 0419 6A       		.byte	0x6a
 3177 041a 88050000 		.4byte	0x588
 3178 041e 8C       		.byte	0x8c
 3179 041f 0D       		.uleb128 0xd
 3180 0420 EE010000 		.4byte	.LASF82
 3181 0424 06       		.byte	0x6
 3182 0425 6E       		.byte	0x6e
 3183 0426 88050000 		.4byte	0x588
 3184 042a 8D       		.byte	0x8d
 3185 042b 0D       		.uleb128 0xd
 3186 042c AF060000 		.4byte	.LASF83
 3187 0430 06       		.byte	0x6
 3188 0431 6F       		.byte	0x6f
 3189 0432 88050000 		.4byte	0x588
 3190 0436 8E       		.byte	0x8e
 3191 0437 0D       		.uleb128 0xd
 3192 0438 64030000 		.4byte	.LASF84
 3193 043c 06       		.byte	0x6
 3194 043d 70       		.byte	0x70
 3195 043e 88050000 		.4byte	0x588
 3196 0442 8F       		.byte	0x8f
 3197 0443 0D       		.uleb128 0xd
 3198 0444 F10B0000 		.4byte	.LASF85
 3199 0448 06       		.byte	0x6
 3200 0449 71       		.byte	0x71
 3201 044a 88050000 		.4byte	0x588
 3202 044e 90       		.byte	0x90
 3203 044f 0D       		.uleb128 0xd
 3204 0450 EF080000 		.4byte	.LASF86
 3205 0454 06       		.byte	0x6
 3206 0455 72       		.byte	0x72
 3207 0456 D9000000 		.4byte	0xd9
 3208 045a 94       		.byte	0x94
 3209 045b 0D       		.uleb128 0xd
 3210 045c F1000000 		.4byte	.LASF87
 3211 0460 06       		.byte	0x6
 3212 0461 73       		.byte	0x73
 3213 0462 A2000000 		.4byte	0xa2
 3214 0466 98       		.byte	0x98
 3215 0467 0D       		.uleb128 0xd
 3216 0468 FA060000 		.4byte	.LASF88
 3217 046c 06       		.byte	0x6
 3218 046d 74       		.byte	0x74
 3219 046e D9000000 		.4byte	0xd9
 3220 0472 9C       		.byte	0x9c
 3221 0473 0D       		.uleb128 0xd
 3222 0474 3E000000 		.4byte	.LASF89
 3223 0478 06       		.byte	0x6
 3224 0479 75       		.byte	0x75
 3225 047a A2000000 		.4byte	0xa2
 3226 047e A0       		.byte	0xa0
 3227 047f 0D       		.uleb128 0xd
 3228 0480 C1030000 		.4byte	.LASF90
 3229 0484 06       		.byte	0x6
 3230 0485 76       		.byte	0x76
 3231 0486 AD000000 		.4byte	0xad
 3232 048a A2       		.byte	0xa2
ARM GAS  C:\Users\JENNEW~1\AppData\Local\Temp\ccAtvZYd.s 			page 70


 3233 048b 0D       		.uleb128 0xd
 3234 048c 000A0000 		.4byte	.LASF91
 3235 0490 06       		.byte	0x6
 3236 0491 77       		.byte	0x77
 3237 0492 AD000000 		.4byte	0xad
 3238 0496 A4       		.byte	0xa4
 3239 0497 0D       		.uleb128 0xd
 3240 0498 330C0000 		.4byte	.LASF92
 3241 049c 06       		.byte	0x6
 3242 049d 78       		.byte	0x78
 3243 049e D9000000 		.4byte	0xd9
 3244 04a2 A8       		.byte	0xa8
 3245 04a3 0D       		.uleb128 0xd
 3246 04a4 37050000 		.4byte	.LASF93
 3247 04a8 06       		.byte	0x6
 3248 04a9 79       		.byte	0x79
 3249 04aa AD000000 		.4byte	0xad
 3250 04ae AC       		.byte	0xac
 3251 04af 0D       		.uleb128 0xd
 3252 04b0 9E030000 		.4byte	.LASF94
 3253 04b4 06       		.byte	0x6
 3254 04b5 7A       		.byte	0x7a
 3255 04b6 AD000000 		.4byte	0xad
 3256 04ba AE       		.byte	0xae
 3257 04bb 0D       		.uleb128 0xd
 3258 04bc 470C0000 		.4byte	.LASF95
 3259 04c0 06       		.byte	0x6
 3260 04c1 7B       		.byte	0x7b
 3261 04c2 AD000000 		.4byte	0xad
 3262 04c6 B0       		.byte	0xb0
 3263 04c7 0D       		.uleb128 0xd
 3264 04c8 91080000 		.4byte	.LASF96
 3265 04cc 06       		.byte	0x6
 3266 04cd 7C       		.byte	0x7c
 3267 04ce D9000000 		.4byte	0xd9
 3268 04d2 B4       		.byte	0xb4
 3269 04d3 0D       		.uleb128 0xd
 3270 04d4 2D030000 		.4byte	.LASF97
 3271 04d8 06       		.byte	0x6
 3272 04d9 7D       		.byte	0x7d
 3273 04da AD000000 		.4byte	0xad
 3274 04de B8       		.byte	0xb8
 3275 04df 0D       		.uleb128 0xd
 3276 04e0 16020000 		.4byte	.LASF98
 3277 04e4 06       		.byte	0x6
 3278 04e5 80       		.byte	0x80
 3279 04e6 88050000 		.4byte	0x588
 3280 04ea BA       		.byte	0xba
 3281 04eb 0D       		.uleb128 0xd
 3282 04ec 90010000 		.4byte	.LASF99
 3283 04f0 06       		.byte	0x6
 3284 04f1 81       		.byte	0x81
 3285 04f2 D9000000 		.4byte	0xd9
 3286 04f6 BC       		.byte	0xbc
 3287 04f7 0D       		.uleb128 0xd
 3288 04f8 96010000 		.4byte	.LASF100
 3289 04fc 06       		.byte	0x6
ARM GAS  C:\Users\JENNEW~1\AppData\Local\Temp\ccAtvZYd.s 			page 71


 3290 04fd 82       		.byte	0x82
 3291 04fe D9000000 		.4byte	0xd9
 3292 0502 C0       		.byte	0xc0
 3293 0503 0D       		.uleb128 0xd
 3294 0504 9C010000 		.4byte	.LASF101
 3295 0508 06       		.byte	0x6
 3296 0509 83       		.byte	0x83
 3297 050a D9000000 		.4byte	0xd9
 3298 050e C4       		.byte	0xc4
 3299 050f 0D       		.uleb128 0xd
 3300 0510 930A0000 		.4byte	.LASF102
 3301 0514 06       		.byte	0x6
 3302 0515 84       		.byte	0x84
 3303 0516 D9000000 		.4byte	0xd9
 3304 051a C8       		.byte	0xc8
 3305 051b 0D       		.uleb128 0xd
 3306 051c 01020000 		.4byte	.LASF103
 3307 0520 06       		.byte	0x6
 3308 0521 85       		.byte	0x85
 3309 0522 D9000000 		.4byte	0xd9
 3310 0526 CC       		.byte	0xcc
 3311 0527 0D       		.uleb128 0xd
 3312 0528 DC050000 		.4byte	.LASF104
 3313 052c 06       		.byte	0x6
 3314 052d 86       		.byte	0x86
 3315 052e D9000000 		.4byte	0xd9
 3316 0532 D0       		.byte	0xd0
 3317 0533 0D       		.uleb128 0xd
 3318 0534 E6050000 		.4byte	.LASF105
 3319 0538 06       		.byte	0x6
 3320 0539 87       		.byte	0x87
 3321 053a D9000000 		.4byte	0xd9
 3322 053e D4       		.byte	0xd4
 3323 053f 0D       		.uleb128 0xd
 3324 0540 F0050000 		.4byte	.LASF106
 3325 0544 06       		.byte	0x6
 3326 0545 88       		.byte	0x88
 3327 0546 D9000000 		.4byte	0xd9
 3328 054a D8       		.byte	0xd8
 3329 054b 0D       		.uleb128 0xd
 3330 054c 86070000 		.4byte	.LASF107
 3331 0550 06       		.byte	0x6
 3332 0551 89       		.byte	0x89
 3333 0552 D9000000 		.4byte	0xd9
 3334 0556 DC       		.byte	0xdc
 3335 0557 0D       		.uleb128 0xd
 3336 0558 D6030000 		.4byte	.LASF108
 3337 055c 06       		.byte	0x6
 3338 055d 94       		.byte	0x94
 3339 055e 88050000 		.4byte	0x588
 3340 0562 E0       		.byte	0xe0
 3341 0563 0D       		.uleb128 0xd
 3342 0564 91060000 		.4byte	.LASF109
 3343 0568 06       		.byte	0x6
 3344 0569 95       		.byte	0x95
 3345 056a 88050000 		.4byte	0x588
 3346 056e E1       		.byte	0xe1
ARM GAS  C:\Users\JENNEW~1\AppData\Local\Temp\ccAtvZYd.s 			page 72


 3347 056f 0D       		.uleb128 0xd
 3348 0570 A10A0000 		.4byte	.LASF110
 3349 0574 06       		.byte	0x6
 3350 0575 96       		.byte	0x96
 3351 0576 D9000000 		.4byte	0xd9
 3352 057a E4       		.byte	0xe4
 3353 057b 0D       		.uleb128 0xd
 3354 057c 4F020000 		.4byte	.LASF111
 3355 0580 06       		.byte	0x6
 3356 0581 97       		.byte	0x97
 3357 0582 AD000000 		.4byte	0xad
 3358 0586 E8       		.byte	0xe8
 3359 0587 00       		.byte	0
 3360 0588 02       		.uleb128 0x2
 3361 0589 01       		.byte	0x1
 3362 058a 02       		.byte	0x2
 3363 058b 1C040000 		.4byte	.LASF112
 3364 058f 03       		.uleb128 0x3
 3365 0590 0A000000 		.4byte	.LASF113
 3366 0594 06       		.byte	0x6
 3367 0595 99       		.byte	0x99
 3368 0596 1F020000 		.4byte	0x21f
 3369 059a 11       		.uleb128 0x11
 3370 059b 0601     		.2byte	0x106
 3371 059d 07       		.byte	0x7
 3372 059e 22       		.byte	0x22
 3373 059f D7050000 		.4byte	0x5d7
 3374 05a3 0C       		.uleb128 0xc
 3375 05a4 62756600 		.ascii	"buf\000"
 3376 05a8 07       		.byte	0x7
 3377 05a9 23       		.byte	0x23
 3378 05aa E7050000 		.4byte	0x5e7
 3379 05ae 00       		.byte	0
 3380 05af 12       		.uleb128 0x12
 3381 05b0 D6000000 		.4byte	.LASF114
 3382 05b4 07       		.byte	0x7
 3383 05b5 24       		.byte	0x24
 3384 05b6 13010000 		.4byte	0x113
 3385 05ba 0001     		.2byte	0x100
 3386 05bc 12       		.uleb128 0x12
 3387 05bd 0F0A0000 		.4byte	.LASF115
 3388 05c1 07       		.byte	0x7
 3389 05c2 25       		.byte	0x25
 3390 05c3 13010000 		.4byte	0x113
 3391 05c7 0201     		.2byte	0x102
 3392 05c9 12       		.uleb128 0x12
 3393 05ca 8E040000 		.4byte	.LASF116
 3394 05ce 07       		.byte	0x7
 3395 05cf 26       		.byte	0x26
 3396 05d0 13010000 		.4byte	0x113
 3397 05d4 0401     		.2byte	0x104
 3398 05d6 00       		.byte	0
 3399 05d7 13       		.uleb128 0x13
 3400 05d8 0E010000 		.4byte	0x10e
 3401 05dc E7050000 		.4byte	0x5e7
 3402 05e0 14       		.uleb128 0x14
 3403 05e1 F5000000 		.4byte	0xf5
ARM GAS  C:\Users\JENNEW~1\AppData\Local\Temp\ccAtvZYd.s 			page 73


 3404 05e5 FF       		.byte	0xff
 3405 05e6 00       		.byte	0
 3406 05e7 08       		.uleb128 0x8
 3407 05e8 D7050000 		.4byte	0x5d7
 3408 05ec 03       		.uleb128 0x3
 3409 05ed D0050000 		.4byte	.LASF117
 3410 05f1 07       		.byte	0x7
 3411 05f2 27       		.byte	0x27
 3412 05f3 9A050000 		.4byte	0x59a
 3413 05f7 0B       		.uleb128 0xb
 3414 05f8 18       		.byte	0x18
 3415 05f9 08       		.byte	0x8
 3416 05fa 2F       		.byte	0x2f
 3417 05fb 54060000 		.4byte	0x654
 3418 05ff 0D       		.uleb128 0xd
 3419 0600 140A0000 		.4byte	.LASF118
 3420 0604 08       		.byte	0x8
 3421 0605 30       		.byte	0x30
 3422 0606 CE000000 		.4byte	0xce
 3423 060a 00       		.byte	0
 3424 060b 0D       		.uleb128 0xd
 3425 060c 47060000 		.4byte	.LASF119
 3426 0610 08       		.byte	0x8
 3427 0611 31       		.byte	0x31
 3428 0612 CE000000 		.4byte	0xce
 3429 0616 04       		.byte	0x4
 3430 0617 0D       		.uleb128 0xd
 3431 0618 55040000 		.4byte	.LASF120
 3432 061c 08       		.byte	0x8
 3433 061d 32       		.byte	0x32
 3434 061e CE000000 		.4byte	0xce
 3435 0622 08       		.byte	0x8
 3436 0623 0D       		.uleb128 0xd
 3437 0624 3F080000 		.4byte	.LASF121
 3438 0628 08       		.byte	0x8
 3439 0629 33       		.byte	0x33
 3440 062a CE000000 		.4byte	0xce
 3441 062e 0C       		.byte	0xc
 3442 062f 0D       		.uleb128 0xd
 3443 0630 9F050000 		.4byte	.LASF122
 3444 0634 08       		.byte	0x8
 3445 0635 34       		.byte	0x34
 3446 0636 CE000000 		.4byte	0xce
 3447 063a 10       		.byte	0x10
 3448 063b 0D       		.uleb128 0xd
 3449 063c 350B0000 		.4byte	.LASF123
 3450 0640 08       		.byte	0x8
 3451 0641 35       		.byte	0x35
 3452 0642 B8000000 		.4byte	0xb8
 3453 0646 14       		.byte	0x14
 3454 0647 0D       		.uleb128 0xd
 3455 0648 80020000 		.4byte	.LASF124
 3456 064c 08       		.byte	0x8
 3457 064d 36       		.byte	0x36
 3458 064e A2000000 		.4byte	0xa2
 3459 0652 16       		.byte	0x16
 3460 0653 00       		.byte	0
ARM GAS  C:\Users\JENNEW~1\AppData\Local\Temp\ccAtvZYd.s 			page 74


 3461 0654 03       		.uleb128 0x3
 3462 0655 490B0000 		.4byte	.LASF125
 3463 0659 08       		.byte	0x8
 3464 065a 37       		.byte	0x37
 3465 065b F7050000 		.4byte	0x5f7
 3466 065f 11       		.uleb128 0x11
 3467 0660 8003     		.2byte	0x380
 3468 0662 08       		.byte	0x8
 3469 0663 3E       		.byte	0x3e
 3470 0664 1C070000 		.4byte	0x71c
 3471 0668 0C       		.uleb128 0xc
 3472 0669 68616C00 		.ascii	"hal\000"
 3473 066d 08       		.byte	0x8
 3474 066e 3F       		.byte	0x3f
 3475 066f 14020000 		.4byte	0x214
 3476 0673 00       		.byte	0
 3477 0674 0C       		.uleb128 0xc
 3478 0675 63746C00 		.ascii	"ctl\000"
 3479 0679 08       		.byte	0x8
 3480 067a 40       		.byte	0x40
 3481 067b B1010000 		.4byte	0x1b1
 3482 067f 0C       		.byte	0xc
 3483 0680 0D       		.uleb128 0xd
 3484 0681 DC020000 		.4byte	.LASF126
 3485 0685 08       		.byte	0x8
 3486 0686 41       		.byte	0x41
 3487 0687 8F050000 		.4byte	0x58f
 3488 068b 20       		.byte	0x20
 3489 068c 12       		.uleb128 0x12
 3490 068d AA040000 		.4byte	.LASF127
 3491 0691 08       		.byte	0x8
 3492 0692 42       		.byte	0x42
 3493 0693 54060000 		.4byte	0x654
 3494 0697 0C01     		.2byte	0x10c
 3495 0699 12       		.uleb128 0x12
 3496 069a 7A0C0000 		.4byte	.LASF128
 3497 069e 08       		.byte	0x8
 3498 069f 43       		.byte	0x43
 3499 06a0 EC050000 		.4byte	0x5ec
 3500 06a4 2401     		.2byte	0x124
 3501 06a6 12       		.uleb128 0x12
 3502 06a7 98030000 		.4byte	.LASF129
 3503 06ab 08       		.byte	0x8
 3504 06ac 44       		.byte	0x44
 3505 06ad EC050000 		.4byte	0x5ec
 3506 06b1 2A02     		.2byte	0x22a
 3507 06b3 12       		.uleb128 0x12
 3508 06b4 640B0000 		.4byte	.LASF130
 3509 06b8 08       		.byte	0x8
 3510 06b9 48       		.byte	0x48
 3511 06ba A2000000 		.4byte	0xa2
 3512 06be 3003     		.2byte	0x330
 3513 06c0 12       		.uleb128 0x12
 3514 06c1 E1010000 		.4byte	.LASF131
 3515 06c5 08       		.byte	0x8
 3516 06c6 4C       		.byte	0x4c
 3517 06c7 B8000000 		.4byte	0xb8
ARM GAS  C:\Users\JENNEW~1\AppData\Local\Temp\ccAtvZYd.s 			page 75


 3518 06cb 3203     		.2byte	0x332
 3519 06cd 12       		.uleb128 0x12
 3520 06ce 20070000 		.4byte	.LASF132
 3521 06d2 08       		.byte	0x8
 3522 06d3 4D       		.byte	0x4d
 3523 06d4 CE000000 		.4byte	0xce
 3524 06d8 3403     		.2byte	0x334
 3525 06da 12       		.uleb128 0x12
 3526 06db 33060000 		.4byte	.LASF133
 3527 06df 08       		.byte	0x8
 3528 06e0 4E       		.byte	0x4e
 3529 06e1 88050000 		.4byte	0x588
 3530 06e5 3803     		.2byte	0x338
 3531 06e7 12       		.uleb128 0x12
 3532 06e8 30070000 		.4byte	.LASF134
 3533 06ec 08       		.byte	0x8
 3534 06ed 4F       		.byte	0x4f
 3535 06ee B8000000 		.4byte	0xb8
 3536 06f2 3A03     		.2byte	0x33a
 3537 06f4 12       		.uleb128 0x12
 3538 06f5 04080000 		.4byte	.LASF135
 3539 06f9 08       		.byte	0x8
 3540 06fa 50       		.byte	0x50
 3541 06fb B8000000 		.4byte	0xb8
 3542 06ff 3C03     		.2byte	0x33c
 3543 0701 12       		.uleb128 0x12
 3544 0702 61080000 		.4byte	.LASF136
 3545 0706 08       		.byte	0x8
 3546 0707 51       		.byte	0x51
 3547 0708 1C070000 		.4byte	0x71c
 3548 070c 3E03     		.2byte	0x33e
 3549 070e 12       		.uleb128 0x12
 3550 070f DF040000 		.4byte	.LASF137
 3551 0713 08       		.byte	0x8
 3552 0714 54       		.byte	0x54
 3553 0715 A2000000 		.4byte	0xa2
 3554 0719 7E03     		.2byte	0x37e
 3555 071b 00       		.byte	0
 3556 071c 13       		.uleb128 0x13
 3557 071d A2000000 		.4byte	0xa2
 3558 0721 2C070000 		.4byte	0x72c
 3559 0725 14       		.uleb128 0x14
 3560 0726 F5000000 		.4byte	0xf5
 3561 072a 3F       		.byte	0x3f
 3562 072b 00       		.byte	0
 3563 072c 03       		.uleb128 0x3
 3564 072d 490A0000 		.4byte	.LASF138
 3565 0731 08       		.byte	0x8
 3566 0732 56       		.byte	0x56
 3567 0733 5F060000 		.4byte	0x65f
 3568 0737 09       		.uleb128 0x9
 3569 0738 01       		.byte	0x1
 3570 0739 37000000 		.4byte	0x37
 3571 073d 09       		.byte	0x9
 3572 073e 38       		.byte	0x38
 3573 073f 56070000 		.4byte	0x756
 3574 0743 0A       		.uleb128 0xa
ARM GAS  C:\Users\JENNEW~1\AppData\Local\Temp\ccAtvZYd.s 			page 76


 3575 0744 C10A0000 		.4byte	.LASF139
 3576 0748 00       		.byte	0
 3577 0749 0A       		.uleb128 0xa
 3578 074a 7C070000 		.4byte	.LASF140
 3579 074e 01       		.byte	0x1
 3580 074f 0A       		.uleb128 0xa
 3581 0750 4B030000 		.4byte	.LASF141
 3582 0754 02       		.byte	0x2
 3583 0755 00       		.byte	0
 3584 0756 03       		.uleb128 0x3
 3585 0757 07030000 		.4byte	.LASF142
 3586 075b 09       		.byte	0x9
 3587 075c 3C       		.byte	0x3c
 3588 075d 37070000 		.4byte	0x737
 3589 0761 0B       		.uleb128 0xb
 3590 0762 08       		.byte	0x8
 3591 0763 09       		.byte	0x9
 3592 0764 50       		.byte	0x50
 3593 0765 74070000 		.4byte	0x774
 3594 0769 0C       		.uleb128 0xc
 3595 076a 7500     		.ascii	"u\000"
 3596 076c 09       		.byte	0x9
 3597 076d 51       		.byte	0x51
 3598 076e 74070000 		.4byte	0x774
 3599 0772 00       		.byte	0
 3600 0773 00       		.byte	0
 3601 0774 13       		.uleb128 0x13
 3602 0775 D9000000 		.4byte	0xd9
 3603 0779 84070000 		.4byte	0x784
 3604 077d 14       		.uleb128 0x14
 3605 077e F5000000 		.4byte	0xf5
 3606 0782 01       		.byte	0x1
 3607 0783 00       		.byte	0
 3608 0784 03       		.uleb128 0x3
 3609 0785 D3060000 		.4byte	.LASF143
 3610 0789 09       		.byte	0x9
 3611 078a 52       		.byte	0x52
 3612 078b 61070000 		.4byte	0x761
 3613 078f 09       		.uleb128 0x9
 3614 0790 01       		.byte	0x1
 3615 0791 37000000 		.4byte	0x37
 3616 0795 0A       		.byte	0xa
 3617 0796 22       		.byte	0x22
 3618 0797 02080000 		.4byte	0x802
 3619 079b 0A       		.uleb128 0xa
 3620 079c CB050000 		.4byte	.LASF144
 3621 07a0 00       		.byte	0
 3622 07a1 0A       		.uleb128 0xa
 3623 07a2 60020000 		.4byte	.LASF145
 3624 07a6 01       		.byte	0x1
 3625 07a7 0A       		.uleb128 0xa
 3626 07a8 010C0000 		.4byte	.LASF146
 3627 07ac 02       		.byte	0x2
 3628 07ad 0A       		.uleb128 0xa
 3629 07ae CA040000 		.4byte	.LASF147
 3630 07b2 03       		.byte	0x3
 3631 07b3 0A       		.uleb128 0xa
ARM GAS  C:\Users\JENNEW~1\AppData\Local\Temp\ccAtvZYd.s 			page 77


 3632 07b4 1D000000 		.4byte	.LASF148
 3633 07b8 04       		.byte	0x4
 3634 07b9 0A       		.uleb128 0xa
 3635 07ba F9070000 		.4byte	.LASF149
 3636 07be 05       		.byte	0x5
 3637 07bf 0A       		.uleb128 0xa
 3638 07c0 B8080000 		.4byte	.LASF150
 3639 07c4 06       		.byte	0x6
 3640 07c5 0A       		.uleb128 0xa
 3641 07c6 E30B0000 		.4byte	.LASF151
 3642 07ca 07       		.byte	0x7
 3643 07cb 0A       		.uleb128 0xa
 3644 07cc 1D0C0000 		.4byte	.LASF152
 3645 07d0 08       		.byte	0x8
 3646 07d1 0A       		.uleb128 0xa
 3647 07d2 93000000 		.4byte	.LASF153
 3648 07d6 09       		.byte	0x9
 3649 07d7 0A       		.uleb128 0xa
 3650 07d8 F3030000 		.4byte	.LASF154
 3651 07dc 0A       		.byte	0xa
 3652 07dd 0A       		.uleb128 0xa
 3653 07de C2080000 		.4byte	.LASF155
 3654 07e2 0B       		.byte	0xb
 3655 07e3 0A       		.uleb128 0xa
 3656 07e4 BC060000 		.4byte	.LASF156
 3657 07e8 0C       		.byte	0xc
 3658 07e9 0A       		.uleb128 0xa
 3659 07ea 62090000 		.4byte	.LASF157
 3660 07ee 0D       		.byte	0xd
 3661 07ef 0A       		.uleb128 0xa
 3662 07f0 FA020000 		.4byte	.LASF158
 3663 07f4 0E       		.byte	0xe
 3664 07f5 0A       		.uleb128 0xa
 3665 07f6 8B030000 		.4byte	.LASF159
 3666 07fa 0F       		.byte	0xf
 3667 07fb 0A       		.uleb128 0xa
 3668 07fc C7070000 		.4byte	.LASF160
 3669 0800 10       		.byte	0x10
 3670 0801 00       		.byte	0
 3671 0802 03       		.uleb128 0x3
 3672 0803 1B050000 		.4byte	.LASF161
 3673 0807 0A       		.byte	0xa
 3674 0808 32       		.byte	0x32
 3675 0809 8F070000 		.4byte	0x78f
 3676 080d 09       		.uleb128 0x9
 3677 080e 01       		.byte	0x1
 3678 080f 37000000 		.4byte	0x37
 3679 0813 0A       		.byte	0xa
 3680 0814 3A       		.byte	0x3a
 3681 0815 32080000 		.4byte	0x832
 3682 0819 0A       		.uleb128 0xa
 3683 081a CA060000 		.4byte	.LASF162
 3684 081e 00       		.byte	0
 3685 081f 0A       		.uleb128 0xa
 3686 0820 6F050000 		.4byte	.LASF163
 3687 0824 01       		.byte	0x1
 3688 0825 0A       		.uleb128 0xa
ARM GAS  C:\Users\JENNEW~1\AppData\Local\Temp\ccAtvZYd.s 			page 78


 3689 0826 19090000 		.4byte	.LASF164
 3690 082a 02       		.byte	0x2
 3691 082b 0A       		.uleb128 0xa
 3692 082c CD010000 		.4byte	.LASF165
 3693 0830 03       		.byte	0x3
 3694 0831 00       		.byte	0
 3695 0832 03       		.uleb128 0x3
 3696 0833 B6090000 		.4byte	.LASF166
 3697 0837 0A       		.byte	0xa
 3698 0838 3F       		.byte	0x3f
 3699 0839 0D080000 		.4byte	0x80d
 3700 083d 0B       		.uleb128 0xb
 3701 083e 5C       		.byte	0x5c
 3702 083f 0A       		.byte	0xa
 3703 0840 42       		.byte	0x42
 3704 0841 72090000 		.4byte	0x972
 3705 0845 0D       		.uleb128 0xd
 3706 0846 63060000 		.4byte	.LASF167
 3707 084a 0A       		.byte	0xa
 3708 084b 44       		.byte	0x44
 3709 084c 72090000 		.4byte	0x972
 3710 0850 00       		.byte	0
 3711 0851 0D       		.uleb128 0xd
 3712 0852 93090000 		.4byte	.LASF168
 3713 0856 0A       		.byte	0xa
 3714 0857 47       		.byte	0x47
 3715 0858 02080000 		.4byte	0x802
 3716 085c 04       		.byte	0x4
 3717 085d 0D       		.uleb128 0xd
 3718 085e CC000000 		.4byte	.LASF169
 3719 0862 0A       		.byte	0xa
 3720 0863 48       		.byte	0x48
 3721 0864 02080000 		.4byte	0x802
 3722 0868 05       		.byte	0x5
 3723 0869 0D       		.uleb128 0xd
 3724 086a F2020000 		.4byte	.LASF170
 3725 086e 0A       		.byte	0xa
 3726 086f 4B       		.byte	0x4b
 3727 0870 32080000 		.4byte	0x832
 3728 0874 06       		.byte	0x6
 3729 0875 0D       		.uleb128 0xd
 3730 0876 11090000 		.4byte	.LASF171
 3731 087a 0A       		.byte	0xa
 3732 087b 4C       		.byte	0x4c
 3733 087c FE000000 		.4byte	0xfe
 3734 0880 08       		.byte	0x8
 3735 0881 0D       		.uleb128 0xd
 3736 0882 E1080000 		.4byte	.LASF172
 3737 0886 0A       		.byte	0xa
 3738 0887 4D       		.byte	0x4d
 3739 0888 A2000000 		.4byte	0xa2
 3740 088c 0C       		.byte	0xc
 3741 088d 0D       		.uleb128 0xd
 3742 088e 00000000 		.4byte	.LASF173
 3743 0892 0A       		.byte	0xa
 3744 0893 50       		.byte	0x50
 3745 0894 3D010000 		.4byte	0x13d
ARM GAS  C:\Users\JENNEW~1\AppData\Local\Temp\ccAtvZYd.s 			page 79


 3746 0898 0D       		.byte	0xd
 3747 0899 0D       		.uleb128 0xd
 3748 089a 2F000000 		.4byte	.LASF174
 3749 089e 0A       		.byte	0xa
 3750 089f 53       		.byte	0x53
 3751 08a0 D9000000 		.4byte	0xd9
 3752 08a4 10       		.byte	0x10
 3753 08a5 0D       		.uleb128 0xd
 3754 08a6 B1030000 		.4byte	.LASF175
 3755 08aa 0A       		.byte	0xa
 3756 08ab 54       		.byte	0x54
 3757 08ac D9000000 		.4byte	0xd9
 3758 08b0 14       		.byte	0x14
 3759 08b1 0D       		.uleb128 0xd
 3760 08b2 52080000 		.4byte	.LASF176
 3761 08b6 0A       		.byte	0xa
 3762 08b7 57       		.byte	0x57
 3763 08b8 D9000000 		.4byte	0xd9
 3764 08bc 18       		.byte	0x18
 3765 08bd 0D       		.uleb128 0xd
 3766 08be 06050000 		.4byte	.LASF177
 3767 08c2 0A       		.byte	0xa
 3768 08c3 58       		.byte	0x58
 3769 08c4 D9000000 		.4byte	0xd9
 3770 08c8 1C       		.byte	0x1c
 3771 08c9 0D       		.uleb128 0xd
 3772 08ca 20020000 		.4byte	.LASF178
 3773 08ce 0A       		.byte	0xa
 3774 08cf 59       		.byte	0x59
 3775 08d0 A2000000 		.4byte	0xa2
 3776 08d4 20       		.byte	0x20
 3777 08d5 0D       		.uleb128 0xd
 3778 08d6 22040000 		.4byte	.LASF179
 3779 08da 0A       		.byte	0xa
 3780 08db 5C       		.byte	0x5c
 3781 08dc CE000000 		.4byte	0xce
 3782 08e0 24       		.byte	0x24
 3783 08e1 0D       		.uleb128 0xd
 3784 08e2 8F020000 		.4byte	.LASF180
 3785 08e6 0A       		.byte	0xa
 3786 08e7 5D       		.byte	0x5d
 3787 08e8 CE000000 		.4byte	0xce
 3788 08ec 28       		.byte	0x28
 3789 08ed 0D       		.uleb128 0xd
 3790 08ee 800C0000 		.4byte	.LASF181
 3791 08f2 0A       		.byte	0xa
 3792 08f3 5E       		.byte	0x5e
 3793 08f4 CE000000 		.4byte	0xce
 3794 08f8 2C       		.byte	0x2c
 3795 08f9 0D       		.uleb128 0xd
 3796 08fa AC020000 		.4byte	.LASF182
 3797 08fe 0A       		.byte	0xa
 3798 08ff 5F       		.byte	0x5f
 3799 0900 A2000000 		.4byte	0xa2
 3800 0904 30       		.byte	0x30
 3801 0905 0C       		.uleb128 0xc
 3802 0906 636D6400 		.ascii	"cmd\000"
ARM GAS  C:\Users\JENNEW~1\AppData\Local\Temp\ccAtvZYd.s 			page 80


 3803 090a 0A       		.byte	0xa
 3804 090b 62       		.byte	0x62
 3805 090c 84070000 		.4byte	0x784
 3806 0910 34       		.byte	0x34
 3807 0911 0D       		.uleb128 0xd
 3808 0912 E4030000 		.4byte	.LASF183
 3809 0916 0A       		.byte	0xa
 3810 0917 63       		.byte	0x63
 3811 0918 56070000 		.4byte	0x756
 3812 091c 3C       		.byte	0x3c
 3813 091d 0D       		.uleb128 0xd
 3814 091e 100B0000 		.4byte	.LASF184
 3815 0922 0A       		.byte	0xa
 3816 0923 64       		.byte	0x64
 3817 0924 CE000000 		.4byte	0xce
 3818 0928 40       		.byte	0x40
 3819 0929 0D       		.uleb128 0xd
 3820 092a C2010000 		.4byte	.LASF185
 3821 092e 0A       		.byte	0xa
 3822 092f 67       		.byte	0x67
 3823 0930 A2000000 		.4byte	0xa2
 3824 0934 44       		.byte	0x44
 3825 0935 0D       		.uleb128 0xd
 3826 0936 770A0000 		.4byte	.LASF186
 3827 093a 0A       		.byte	0xa
 3828 093b 68       		.byte	0x68
 3829 093c CE000000 		.4byte	0xce
 3830 0940 48       		.byte	0x48
 3831 0941 0D       		.uleb128 0xd
 3832 0942 590A0000 		.4byte	.LASF187
 3833 0946 0A       		.byte	0xa
 3834 0947 69       		.byte	0x69
 3835 0948 D9000000 		.4byte	0xd9
 3836 094c 4C       		.byte	0x4c
 3837 094d 0D       		.uleb128 0xd
 3838 094e 23050000 		.4byte	.LASF188
 3839 0952 0A       		.byte	0xa
 3840 0953 6A       		.byte	0x6a
 3841 0954 D9000000 		.4byte	0xd9
 3842 0958 50       		.byte	0x50
 3843 0959 0D       		.uleb128 0xd
 3844 095a 060C0000 		.4byte	.LASF189
 3845 095e 0A       		.byte	0xa
 3846 095f 6B       		.byte	0x6b
 3847 0960 D9000000 		.4byte	0xd9
 3848 0964 54       		.byte	0x54
 3849 0965 0D       		.uleb128 0xd
 3850 0966 DD060000 		.4byte	.LASF190
 3851 096a 0A       		.byte	0xa
 3852 096b 6C       		.byte	0x6c
 3853 096c D9000000 		.4byte	0xd9
 3854 0970 58       		.byte	0x58
 3855 0971 00       		.byte	0
 3856 0972 06       		.uleb128 0x6
 3857 0973 04       		.byte	0x4
 3858 0974 2C070000 		.4byte	0x72c
 3859 0978 03       		.uleb128 0x3
ARM GAS  C:\Users\JENNEW~1\AppData\Local\Temp\ccAtvZYd.s 			page 81


 3860 0979 AC090000 		.4byte	.LASF191
 3861 097d 0A       		.byte	0xa
 3862 097e 6F       		.byte	0x6f
 3863 097f 3D080000 		.4byte	0x83d
 3864 0983 03       		.uleb128 0x3
 3865 0984 A4060000 		.4byte	.LASF192
 3866 0988 01       		.byte	0x1
 3867 0989 52       		.byte	0x52
 3868 098a 8E090000 		.4byte	0x98e
 3869 098e 06       		.uleb128 0x6
 3870 098f 04       		.byte	0x4
 3871 0990 94090000 		.4byte	0x994
 3872 0994 0E       		.uleb128 0xe
 3873 0995 9F090000 		.4byte	0x99f
 3874 0999 0F       		.uleb128 0xf
 3875 099a 9F090000 		.4byte	0x99f
 3876 099e 00       		.byte	0
 3877 099f 06       		.uleb128 0x6
 3878 09a0 04       		.byte	0x4
 3879 09a1 78090000 		.4byte	0x978
 3880 09a5 03       		.uleb128 0x3
 3881 09a6 B4070000 		.4byte	.LASF193
 3882 09aa 01       		.byte	0x1
 3883 09ab 53       		.byte	0x53
 3884 09ac B0090000 		.4byte	0x9b0
 3885 09b0 06       		.uleb128 0x6
 3886 09b1 04       		.byte	0x4
 3887 09b2 B6090000 		.4byte	0x9b6
 3888 09b6 10       		.uleb128 0x10
 3889 09b7 A2000000 		.4byte	0xa2
 3890 09bb CA090000 		.4byte	0x9ca
 3891 09bf 0F       		.uleb128 0xf
 3892 09c0 9F090000 		.4byte	0x99f
 3893 09c4 0F       		.uleb128 0xf
 3894 09c5 E7000000 		.4byte	0xe7
 3895 09c9 00       		.byte	0
 3896 09ca 03       		.uleb128 0x3
 3897 09cb 28080000 		.4byte	.LASF194
 3898 09cf 01       		.byte	0x1
 3899 09d0 54       		.byte	0x54
 3900 09d1 D5090000 		.4byte	0x9d5
 3901 09d5 06       		.uleb128 0x6
 3902 09d6 04       		.byte	0x4
 3903 09d7 DB090000 		.4byte	0x9db
 3904 09db 0E       		.uleb128 0xe
 3905 09dc EB090000 		.4byte	0x9eb
 3906 09e0 0F       		.uleb128 0xf
 3907 09e1 EB090000 		.4byte	0x9eb
 3908 09e5 0F       		.uleb128 0xf
 3909 09e6 F6090000 		.4byte	0x9f6
 3910 09ea 00       		.byte	0
 3911 09eb 06       		.uleb128 0x6
 3912 09ec 04       		.byte	0x4
 3913 09ed F1090000 		.4byte	0x9f1
 3914 09f1 07       		.uleb128 0x7
 3915 09f2 78090000 		.4byte	0x978
 3916 09f6 06       		.uleb128 0x6
ARM GAS  C:\Users\JENNEW~1\AppData\Local\Temp\ccAtvZYd.s 			page 82


 3917 09f7 04       		.byte	0x4
 3918 09f8 B1010000 		.4byte	0x1b1
 3919 09fc 15       		.uleb128 0x15
 3920 09fd 5A060000 		.4byte	.LASF195
 3921 0a01 01       		.byte	0x1
 3922 0a02 AD       		.byte	0xad
 3923 0a03 A2000000 		.4byte	0xa2
 3924 0a07 00000000 		.4byte	.LFB63
 3925 0a0b 34000000 		.4byte	.LFE63-.LFB63
 3926 0a0f 01       		.uleb128 0x1
 3927 0a10 9C       		.byte	0x9c
 3928 0a11 2E0A0000 		.4byte	0xa2e
 3929 0a15 16       		.uleb128 0x16
 3930 0a16 7300     		.ascii	"s\000"
 3931 0a18 01       		.byte	0x1
 3932 0a19 AD       		.byte	0xad
 3933 0a1a 02080000 		.4byte	0x802
 3934 0a1e 02       		.uleb128 0x2
 3935 0a1f 91       		.byte	0x91
 3936 0a20 6F       		.sleb128 -17
 3937 0a21 17       		.uleb128 0x17
 3938 0a22 6400     		.ascii	"d\000"
 3939 0a24 01       		.byte	0x1
 3940 0a25 AF       		.byte	0xaf
 3941 0a26 A2000000 		.4byte	0xa2
 3942 0a2a 02       		.uleb128 0x2
 3943 0a2b 91       		.byte	0x91
 3944 0a2c 77       		.sleb128 -9
 3945 0a2d 00       		.byte	0
 3946 0a2e 18       		.uleb128 0x18
 3947 0a2f 6C636100 		.ascii	"lca\000"
 3948 0a33 01       		.byte	0x1
 3949 0a34 B4       		.byte	0xb4
 3950 0a35 02080000 		.4byte	0x802
 3951 0a39 00000000 		.4byte	.LFB64
 3952 0a3d 80000000 		.4byte	.LFE64-.LFB64
 3953 0a41 01       		.uleb128 0x1
 3954 0a42 9C       		.byte	0x9c
 3955 0a43 7A0A0000 		.4byte	0xa7a
 3956 0a47 16       		.uleb128 0x16
 3957 0a48 6100     		.ascii	"a\000"
 3958 0a4a 01       		.byte	0x1
 3959 0a4b B4       		.byte	0xb4
 3960 0a4c 02080000 		.4byte	0x802
 3961 0a50 02       		.uleb128 0x2
 3962 0a51 91       		.byte	0x91
 3963 0a52 6F       		.sleb128 -17
 3964 0a53 16       		.uleb128 0x16
 3965 0a54 6200     		.ascii	"b\000"
 3966 0a56 01       		.byte	0x1
 3967 0a57 B4       		.byte	0xb4
 3968 0a58 02080000 		.4byte	0x802
 3969 0a5c 02       		.uleb128 0x2
 3970 0a5d 91       		.byte	0x91
 3971 0a5e 6E       		.sleb128 -18
 3972 0a5f 17       		.uleb128 0x17
 3973 0a60 646100   		.ascii	"da\000"
ARM GAS  C:\Users\JENNEW~1\AppData\Local\Temp\ccAtvZYd.s 			page 83


 3974 0a63 01       		.byte	0x1
 3975 0a64 B6       		.byte	0xb6
 3976 0a65 A2000000 		.4byte	0xa2
 3977 0a69 02       		.uleb128 0x2
 3978 0a6a 91       		.byte	0x91
 3979 0a6b 77       		.sleb128 -9
 3980 0a6c 17       		.uleb128 0x17
 3981 0a6d 646200   		.ascii	"db\000"
 3982 0a70 01       		.byte	0x1
 3983 0a71 B6       		.byte	0xb6
 3984 0a72 A2000000 		.4byte	0xa2
 3985 0a76 02       		.uleb128 0x2
 3986 0a77 91       		.byte	0x91
 3987 0a78 76       		.sleb128 -10
 3988 0a79 00       		.byte	0
 3989 0a7a 19       		.uleb128 0x19
 3990 0a7b 120C0000 		.4byte	.LASF201
 3991 0a7f 01       		.byte	0x1
 3992 0a80 C4       		.byte	0xc4
 3993 0a81 00000000 		.4byte	.LFB65
 3994 0a85 F0000000 		.4byte	.LFE65-.LFB65
 3995 0a89 01       		.uleb128 0x1
 3996 0a8a 9C       		.byte	0x9c
 3997 0a8b 120B0000 		.4byte	0xb12
 3998 0a8f 16       		.uleb128 0x16
 3999 0a90 63747800 		.ascii	"ctx\000"
 4000 0a94 01       		.byte	0x1
 4001 0a95 C4       		.byte	0xc4
 4002 0a96 9F090000 		.4byte	0x99f
 4003 0a9a 02       		.uleb128 0x2
 4004 0a9b 91       		.byte	0x91
 4005 0a9c 64       		.sleb128 -28
 4006 0a9d 1A       		.uleb128 0x1a
 4007 0a9e 0E040000 		.4byte	.LASF196
 4008 0aa2 01       		.byte	0x1
 4009 0aa3 C4       		.byte	0xc4
 4010 0aa4 02080000 		.4byte	0x802
 4011 0aa8 02       		.uleb128 0x2
 4012 0aa9 91       		.byte	0x91
 4013 0aaa 63       		.sleb128 -29
 4014 0aab 17       		.uleb128 0x17
 4015 0aac 73726300 		.ascii	"src\000"
 4016 0ab0 01       		.byte	0x1
 4017 0ab1 C7       		.byte	0xc7
 4018 0ab2 02080000 		.4byte	0x802
 4019 0ab6 02       		.uleb128 0x2
 4020 0ab7 91       		.byte	0x91
 4021 0ab8 74       		.sleb128 -12
 4022 0ab9 1B       		.uleb128 0x1b
 4023 0aba 19030000 		.4byte	.LASF197
 4024 0abe 01       		.byte	0x1
 4025 0abf CB       		.byte	0xcb
 4026 0ac0 02080000 		.4byte	0x802
 4027 0ac4 02       		.uleb128 0x2
 4028 0ac5 91       		.byte	0x91
 4029 0ac6 73       		.sleb128 -13
 4030 0ac7 1B       		.uleb128 0x1b
ARM GAS  C:\Users\JENNEW~1\AppData\Local\Temp\ccAtvZYd.s 			page 84


 4031 0ac8 06060000 		.4byte	.LASF198
 4032 0acc 01       		.byte	0x1
 4033 0acd D6       		.byte	0xd6
 4034 0ace 120B0000 		.4byte	0xb12
 4035 0ad2 02       		.uleb128 0x2
 4036 0ad3 91       		.byte	0x91
 4037 0ad4 6C       		.sleb128 -20
 4038 0ad5 17       		.uleb128 0x17
 4039 0ad6 6E00     		.ascii	"n\000"
 4040 0ad8 01       		.byte	0x1
 4041 0ad9 D7       		.byte	0xd7
 4042 0ada A2000000 		.4byte	0xa2
 4043 0ade 02       		.uleb128 0x2
 4044 0adf 91       		.byte	0x91
 4045 0ae0 76       		.sleb128 -10
 4046 0ae1 1C       		.uleb128 0x1c
 4047 0ae2 2A000000 		.4byte	.LBB2
 4048 0ae6 2E000000 		.4byte	.LBE2-.LBB2
 4049 0aea FB0A0000 		.4byte	0xafb
 4050 0aee 17       		.uleb128 0x17
 4051 0aef 7300     		.ascii	"s\000"
 4052 0af1 01       		.byte	0x1
 4053 0af2 CF       		.byte	0xcf
 4054 0af3 02080000 		.4byte	0x802
 4055 0af7 02       		.uleb128 0x2
 4056 0af8 91       		.byte	0x91
 4057 0af9 77       		.sleb128 -9
 4058 0afa 00       		.byte	0
 4059 0afb 1D       		.uleb128 0x1d
 4060 0afc 62000000 		.4byte	.LBB3
 4061 0b00 28000000 		.4byte	.LBE3-.LBB3
 4062 0b04 17       		.uleb128 0x17
 4063 0b05 7300     		.ascii	"s\000"
 4064 0b07 01       		.byte	0x1
 4065 0b08 D8       		.byte	0xd8
 4066 0b09 02080000 		.4byte	0x802
 4067 0b0d 02       		.uleb128 0x2
 4068 0b0e 91       		.byte	0x91
 4069 0b0f 75       		.sleb128 -11
 4070 0b10 00       		.byte	0
 4071 0b11 00       		.byte	0
 4072 0b12 13       		.uleb128 0x13
 4073 0b13 02080000 		.4byte	0x802
 4074 0b17 220B0000 		.4byte	0xb22
 4075 0b1b 14       		.uleb128 0x14
 4076 0b1c F5000000 		.4byte	0xf5
 4077 0b20 03       		.byte	0x3
 4078 0b21 00       		.byte	0
 4079 0b22 1E       		.uleb128 0x1e
 4080 0b23 94040000 		.4byte	.LASF199
 4081 0b27 01       		.byte	0x1
 4082 0b28 E5       		.byte	0xe5
 4083 0b29 00000000 		.4byte	.LFB66
 4084 0b2d 26000000 		.4byte	.LFE66-.LFB66
 4085 0b31 01       		.uleb128 0x1
 4086 0b32 9C       		.byte	0x9c
 4087 0b33 540B0000 		.4byte	0xb54
ARM GAS  C:\Users\JENNEW~1\AppData\Local\Temp\ccAtvZYd.s 			page 85


 4088 0b37 16       		.uleb128 0x16
 4089 0b38 63747800 		.ascii	"ctx\000"
 4090 0b3c 01       		.byte	0x1
 4091 0b3d E5       		.byte	0xe5
 4092 0b3e 9F090000 		.4byte	0x99f
 4093 0b42 02       		.uleb128 0x2
 4094 0b43 91       		.byte	0x91
 4095 0b44 6C       		.sleb128 -20
 4096 0b45 1B       		.uleb128 0x1b
 4097 0b46 0E040000 		.4byte	.LASF196
 4098 0b4a 01       		.byte	0x1
 4099 0b4b E8       		.byte	0xe8
 4100 0b4c 02080000 		.4byte	0x802
 4101 0b50 02       		.uleb128 0x2
 4102 0b51 91       		.byte	0x91
 4103 0b52 77       		.sleb128 -9
 4104 0b53 00       		.byte	0
 4105 0b54 1E       		.uleb128 0x1e
 4106 0b55 9D000000 		.4byte	.LASF200
 4107 0b59 01       		.byte	0x1
 4108 0b5a EE       		.byte	0xee
 4109 0b5b 00000000 		.4byte	.LFB67
 4110 0b5f 68000000 		.4byte	.LFE67-.LFB67
 4111 0b63 01       		.uleb128 0x1
 4112 0b64 9C       		.byte	0x9c
 4113 0b65 940B0000 		.4byte	0xb94
 4114 0b69 16       		.uleb128 0x16
 4115 0b6a 63747800 		.ascii	"ctx\000"
 4116 0b6e 01       		.byte	0x1
 4117 0b6f EE       		.byte	0xee
 4118 0b70 9F090000 		.4byte	0x99f
 4119 0b74 02       		.uleb128 0x2
 4120 0b75 91       		.byte	0x91
 4121 0b76 74       		.sleb128 -12
 4122 0b77 16       		.uleb128 0x16
 4123 0b78 73657600 		.ascii	"sev\000"
 4124 0b7c 01       		.byte	0x1
 4125 0b7d EE       		.byte	0xee
 4126 0b7e 32080000 		.4byte	0x832
 4127 0b82 02       		.uleb128 0x2
 4128 0b83 91       		.byte	0x91
 4129 0b84 73       		.sleb128 -13
 4130 0b85 16       		.uleb128 0x16
 4131 0b86 6D736700 		.ascii	"msg\000"
 4132 0b8a 01       		.byte	0x1
 4133 0b8b EE       		.byte	0xee
 4134 0b8c FE000000 		.4byte	0xfe
 4135 0b90 02       		.uleb128 0x2
 4136 0b91 91       		.byte	0x91
 4137 0b92 6C       		.sleb128 -20
 4138 0b93 00       		.byte	0
 4139 0b94 1F       		.uleb128 0x1f
 4140 0b95 19060000 		.4byte	.LASF218
 4141 0b99 01       		.byte	0x1
 4142 0b9a 1401     		.2byte	0x114
 4143 0b9c FE000000 		.4byte	0xfe
 4144 0ba0 00000000 		.4byte	.LFB68
ARM GAS  C:\Users\JENNEW~1\AppData\Local\Temp\ccAtvZYd.s 			page 86


 4145 0ba4 20000000 		.4byte	.LFE68-.LFB68
 4146 0ba8 01       		.uleb128 0x1
 4147 0ba9 9C       		.byte	0x9c
 4148 0baa BC0B0000 		.4byte	0xbbc
 4149 0bae 20       		.uleb128 0x20
 4150 0baf 7300     		.ascii	"s\000"
 4151 0bb1 01       		.byte	0x1
 4152 0bb2 1401     		.2byte	0x114
 4153 0bb4 02080000 		.4byte	0x802
 4154 0bb8 02       		.uleb128 0x2
 4155 0bb9 91       		.byte	0x91
 4156 0bba 77       		.sleb128 -9
 4157 0bbb 00       		.byte	0
 4158 0bbc 21       		.uleb128 0x21
 4159 0bbd 6B070000 		.4byte	.LASF202
 4160 0bc1 01       		.byte	0x1
 4161 0bc2 1C01     		.2byte	0x11c
 4162 0bc4 00000000 		.4byte	.LFB69
 4163 0bc8 1C000000 		.4byte	.LFE69-.LFB69
 4164 0bcc 01       		.uleb128 0x1
 4165 0bcd 9C       		.byte	0x9c
 4166 0bce E20B0000 		.4byte	0xbe2
 4167 0bd2 20       		.uleb128 0x20
 4168 0bd3 63747800 		.ascii	"ctx\000"
 4169 0bd7 01       		.byte	0x1
 4170 0bd8 1C01     		.2byte	0x11c
 4171 0bda 9F090000 		.4byte	0x99f
 4172 0bde 02       		.uleb128 0x2
 4173 0bdf 91       		.byte	0x91
 4174 0be0 74       		.sleb128 -12
 4175 0be1 00       		.byte	0
 4176 0be2 21       		.uleb128 0x21
 4177 0be3 4E000000 		.4byte	.LASF203
 4178 0be7 01       		.byte	0x1
 4179 0be8 2601     		.2byte	0x126
 4180 0bea 00000000 		.4byte	.LFB70
 4181 0bee 1C000000 		.4byte	.LFE70-.LFB70
 4182 0bf2 01       		.uleb128 0x1
 4183 0bf3 9C       		.byte	0x9c
 4184 0bf4 080C0000 		.4byte	0xc08
 4185 0bf8 20       		.uleb128 0x20
 4186 0bf9 63747800 		.ascii	"ctx\000"
 4187 0bfd 01       		.byte	0x1
 4188 0bfe 2601     		.2byte	0x126
 4189 0c00 9F090000 		.4byte	0x99f
 4190 0c04 02       		.uleb128 0x2
 4191 0c05 91       		.byte	0x91
 4192 0c06 74       		.sleb128 -12
 4193 0c07 00       		.byte	0
 4194 0c08 21       		.uleb128 0x21
 4195 0c09 72000000 		.4byte	.LASF204
 4196 0c0d 01       		.byte	0x1
 4197 0c0e 3401     		.2byte	0x134
 4198 0c10 00000000 		.4byte	.LFB71
 4199 0c14 20000000 		.4byte	.LFE71-.LFB71
 4200 0c18 01       		.uleb128 0x1
 4201 0c19 9C       		.byte	0x9c
ARM GAS  C:\Users\JENNEW~1\AppData\Local\Temp\ccAtvZYd.s 			page 87


 4202 0c1a 2E0C0000 		.4byte	0xc2e
 4203 0c1e 20       		.uleb128 0x20
 4204 0c1f 63747800 		.ascii	"ctx\000"
 4205 0c23 01       		.byte	0x1
 4206 0c24 3401     		.2byte	0x134
 4207 0c26 9F090000 		.4byte	0x99f
 4208 0c2a 02       		.uleb128 0x2
 4209 0c2b 91       		.byte	0x91
 4210 0c2c 74       		.sleb128 -12
 4211 0c2d 00       		.byte	0
 4212 0c2e 22       		.uleb128 0x22
 4213 0c2f 2B020000 		.4byte	.LASF205
 4214 0c33 01       		.byte	0x1
 4215 0c34 3B01     		.2byte	0x13b
 4216 0c36 00000000 		.4byte	.LFB72
 4217 0c3a 18000000 		.4byte	.LFE72-.LFB72
 4218 0c3e 01       		.uleb128 0x1
 4219 0c3f 9C       		.byte	0x9c
 4220 0c40 540C0000 		.4byte	0xc54
 4221 0c44 20       		.uleb128 0x20
 4222 0c45 63747800 		.ascii	"ctx\000"
 4223 0c49 01       		.byte	0x1
 4224 0c4a 3B01     		.2byte	0x13b
 4225 0c4c 9F090000 		.4byte	0x99f
 4226 0c50 02       		.uleb128 0x2
 4227 0c51 91       		.byte	0x91
 4228 0c52 74       		.sleb128 -12
 4229 0c53 00       		.byte	0
 4230 0c54 23       		.uleb128 0x23
 4231 0c55 A0080000 		.4byte	.LASF206
 4232 0c59 01       		.byte	0x1
 4233 0c5a 4401     		.2byte	0x144
 4234 0c5c FE000000 		.4byte	0xfe
 4235 0c60 00000000 		.4byte	.LFB73
 4236 0c64 40000000 		.4byte	.LFE73-.LFB73
 4237 0c68 01       		.uleb128 0x1
 4238 0c69 9C       		.byte	0x9c
 4239 0c6a 7C0C0000 		.4byte	0xc7c
 4240 0c6e 20       		.uleb128 0x20
 4241 0c6f 7300     		.ascii	"s\000"
 4242 0c71 01       		.byte	0x1
 4243 0c72 4401     		.2byte	0x144
 4244 0c74 32080000 		.4byte	0x832
 4245 0c78 02       		.uleb128 0x2
 4246 0c79 91       		.byte	0x91
 4247 0c7a 77       		.sleb128 -9
 4248 0c7b 00       		.byte	0
 4249 0c7c 21       		.uleb128 0x21
 4250 0c7d F3040000 		.4byte	.LASF207
 4251 0c81 01       		.byte	0x1
 4252 0c82 4D01     		.2byte	0x14d
 4253 0c84 00000000 		.4byte	.LFB74
 4254 0c88 80000000 		.4byte	.LFE74-.LFB74
 4255 0c8c 01       		.uleb128 0x1
 4256 0c8d 9C       		.byte	0x9c
 4257 0c8e A20C0000 		.4byte	0xca2
 4258 0c92 20       		.uleb128 0x20
ARM GAS  C:\Users\JENNEW~1\AppData\Local\Temp\ccAtvZYd.s 			page 88


 4259 0c93 63747800 		.ascii	"ctx\000"
 4260 0c97 01       		.byte	0x1
 4261 0c98 4D01     		.2byte	0x14d
 4262 0c9a 9F090000 		.4byte	0x99f
 4263 0c9e 02       		.uleb128 0x2
 4264 0c9f 91       		.byte	0x91
 4265 0ca0 74       		.sleb128 -12
 4266 0ca1 00       		.byte	0
 4267 0ca2 21       		.uleb128 0x21
 4268 0ca3 AF050000 		.4byte	.LASF208
 4269 0ca7 01       		.byte	0x1
 4270 0ca8 6101     		.2byte	0x161
 4271 0caa 00000000 		.4byte	.LFB75
 4272 0cae C0010000 		.4byte	.LFE75-.LFB75
 4273 0cb2 01       		.uleb128 0x1
 4274 0cb3 9C       		.byte	0x9c
 4275 0cb4 3B0D0000 		.4byte	0xd3b
 4276 0cb8 20       		.uleb128 0x20
 4277 0cb9 63747800 		.ascii	"ctx\000"
 4278 0cbd 01       		.byte	0x1
 4279 0cbe 6101     		.2byte	0x161
 4280 0cc0 9F090000 		.4byte	0x99f
 4281 0cc4 03       		.uleb128 0x3
 4282 0cc5 91       		.byte	0x91
 4283 0cc6 E47D     		.sleb128 -284
 4284 0cc8 24       		.uleb128 0x24
 4285 0cc9 737400   		.ascii	"st\000"
 4286 0ccc 01       		.byte	0x1
 4287 0ccd 6501     		.2byte	0x165
 4288 0ccf 8F050000 		.4byte	0x58f
 4289 0cd3 03       		.uleb128 0x3
 4290 0cd4 91       		.byte	0x91
 4291 0cd5 E87D     		.sleb128 -280
 4292 0cd7 24       		.uleb128 0x24
 4293 0cd8 7200     		.ascii	"r\000"
 4294 0cda 01       		.byte	0x1
 4295 0cdb 6A01     		.2byte	0x16a
 4296 0cdd D9000000 		.4byte	0xd9
 4297 0ce1 02       		.uleb128 0x2
 4298 0ce2 91       		.byte	0x91
 4299 0ce3 6C       		.sleb128 -20
 4300 0ce4 24       		.uleb128 0x24
 4301 0ce5 696900   		.ascii	"ii\000"
 4302 0ce8 01       		.byte	0x1
 4303 0ce9 6A01     		.2byte	0x16a
 4304 0ceb D9000000 		.4byte	0xd9
 4305 0cef 02       		.uleb128 0x2
 4306 0cf0 91       		.byte	0x91
 4307 0cf1 68       		.sleb128 -24
 4308 0cf2 24       		.uleb128 0x24
 4309 0cf3 6A00     		.ascii	"j\000"
 4310 0cf5 01       		.byte	0x1
 4311 0cf6 6A01     		.2byte	0x16a
 4312 0cf8 D9000000 		.4byte	0xd9
 4313 0cfc 02       		.uleb128 0x2
 4314 0cfd 91       		.byte	0x91
 4315 0cfe 64       		.sleb128 -28
ARM GAS  C:\Users\JENNEW~1\AppData\Local\Temp\ccAtvZYd.s 			page 89


 4316 0cff 24       		.uleb128 0x24
 4317 0d00 6B6B00   		.ascii	"kk\000"
 4318 0d03 01       		.byte	0x1
 4319 0d04 6A01     		.2byte	0x16a
 4320 0d06 D9000000 		.4byte	0xd9
 4321 0d0a 02       		.uleb128 0x2
 4322 0d0b 91       		.byte	0x91
 4323 0d0c 60       		.sleb128 -32
 4324 0d0d 25       		.uleb128 0x25
 4325 0d0e 26090000 		.4byte	.LASF209
 4326 0d12 01       		.byte	0x1
 4327 0d13 6B01     		.2byte	0x16b
 4328 0d15 D9000000 		.4byte	0xd9
 4329 0d19 02       		.uleb128 0x2
 4330 0d1a 91       		.byte	0x91
 4331 0d1b 5C       		.sleb128 -36
 4332 0d1c 25       		.uleb128 0x25
 4333 0d1d 75090000 		.4byte	.LASF210
 4334 0d21 01       		.byte	0x1
 4335 0d22 6F01     		.2byte	0x16f
 4336 0d24 D9000000 		.4byte	0xd9
 4337 0d28 02       		.uleb128 0x2
 4338 0d29 91       		.byte	0x91
 4339 0d2a 58       		.sleb128 -40
 4340 0d2b 25       		.uleb128 0x25
 4341 0d2c CF040000 		.4byte	.LASF211
 4342 0d30 01       		.byte	0x1
 4343 0d31 6F01     		.2byte	0x16f
 4344 0d33 D9000000 		.4byte	0xd9
 4345 0d37 02       		.uleb128 0x2
 4346 0d38 91       		.byte	0x91
 4347 0d39 54       		.sleb128 -44
 4348 0d3a 00       		.byte	0
 4349 0d3b 21       		.uleb128 0x21
 4350 0d3c D4040000 		.4byte	.LASF212
 4351 0d40 01       		.byte	0x1
 4352 0d41 7501     		.2byte	0x175
 4353 0d43 00000000 		.4byte	.LFB76
 4354 0d47 1C000000 		.4byte	.LFE76-.LFB76
 4355 0d4b 01       		.uleb128 0x1
 4356 0d4c 9C       		.byte	0x9c
 4357 0d4d 610D0000 		.4byte	0xd61
 4358 0d51 20       		.uleb128 0x20
 4359 0d52 63747800 		.ascii	"ctx\000"
 4360 0d56 01       		.byte	0x1
 4361 0d57 7501     		.2byte	0x175
 4362 0d59 EB090000 		.4byte	0x9eb
 4363 0d5d 02       		.uleb128 0x2
 4364 0d5e 91       		.byte	0x91
 4365 0d5f 74       		.sleb128 -12
 4366 0d60 00       		.byte	0
 4367 0d61 26       		.uleb128 0x26
 4368 0d62 43040000 		.4byte	.LASF213
 4369 0d66 01       		.byte	0x1
 4370 0d67 8101     		.2byte	0x181
 4371 0d69 A2000000 		.4byte	0xa2
 4372 0d6d 00000000 		.4byte	.LFB77
ARM GAS  C:\Users\JENNEW~1\AppData\Local\Temp\ccAtvZYd.s 			page 90


 4373 0d71 94000000 		.4byte	.LFE77-.LFB77
 4374 0d75 01       		.uleb128 0x1
 4375 0d76 9C       		.byte	0x9c
 4376 0d77 980D0000 		.4byte	0xd98
 4377 0d7b 20       		.uleb128 0x20
 4378 0d7c 63747800 		.ascii	"ctx\000"
 4379 0d80 01       		.byte	0x1
 4380 0d81 8101     		.2byte	0x181
 4381 0d83 9F090000 		.4byte	0x99f
 4382 0d87 02       		.uleb128 0x2
 4383 0d88 91       		.byte	0x91
 4384 0d89 74       		.sleb128 -12
 4385 0d8a 20       		.uleb128 0x20
 4386 0d8b 6B00     		.ascii	"k\000"
 4387 0d8d 01       		.byte	0x1
 4388 0d8e 8101     		.2byte	0x181
 4389 0d90 E7000000 		.4byte	0xe7
 4390 0d94 02       		.uleb128 0x2
 4391 0d95 91       		.byte	0x91
 4392 0d96 73       		.sleb128 -13
 4393 0d97 00       		.byte	0
 4394 0d98 23       		.uleb128 0x23
 4395 0d99 19080000 		.4byte	.LASF214
 4396 0d9d 01       		.byte	0x1
 4397 0d9e 9801     		.2byte	0x198
 4398 0da0 A2000000 		.4byte	0xa2
 4399 0da4 00000000 		.4byte	.LFB78
 4400 0da8 20000000 		.4byte	.LFE78-.LFB78
 4401 0dac 01       		.uleb128 0x1
 4402 0dad 9C       		.byte	0x9c
 4403 0dae C00D0000 		.4byte	0xdc0
 4404 0db2 20       		.uleb128 0x20
 4405 0db3 7300     		.ascii	"s\000"
 4406 0db5 01       		.byte	0x1
 4407 0db6 9801     		.2byte	0x198
 4408 0db8 02080000 		.4byte	0x802
 4409 0dbc 02       		.uleb128 0x2
 4410 0dbd 91       		.byte	0x91
 4411 0dbe 77       		.sleb128 -9
 4412 0dbf 00       		.byte	0
 4413 0dc0 26       		.uleb128 0x26
 4414 0dc1 D2080000 		.4byte	.LASF215
 4415 0dc5 01       		.byte	0x1
 4416 0dc6 9A01     		.2byte	0x19a
 4417 0dc8 A2000000 		.4byte	0xa2
 4418 0dcc 00000000 		.4byte	.LFB79
 4419 0dd0 50000000 		.4byte	.LFE79-.LFB79
 4420 0dd4 01       		.uleb128 0x1
 4421 0dd5 9C       		.byte	0x9c
 4422 0dd6 F70D0000 		.4byte	0xdf7
 4423 0dda 20       		.uleb128 0x20
 4424 0ddb 63747800 		.ascii	"ctx\000"
 4425 0ddf 01       		.byte	0x1
 4426 0de0 9A01     		.2byte	0x19a
 4427 0de2 9F090000 		.4byte	0x99f
 4428 0de6 02       		.uleb128 0x2
 4429 0de7 91       		.byte	0x91
ARM GAS  C:\Users\JENNEW~1\AppData\Local\Temp\ccAtvZYd.s 			page 91


 4430 0de8 74       		.sleb128 -12
 4431 0de9 20       		.uleb128 0x20
 4432 0dea 6B00     		.ascii	"k\000"
 4433 0dec 01       		.byte	0x1
 4434 0ded 9A01     		.2byte	0x19a
 4435 0def E7000000 		.4byte	0xe7
 4436 0df3 02       		.uleb128 0x2
 4437 0df4 91       		.byte	0x91
 4438 0df5 73       		.sleb128 -13
 4439 0df6 00       		.byte	0
 4440 0df7 26       		.uleb128 0x26
 4441 0df8 BA050000 		.4byte	.LASF216
 4442 0dfc 01       		.byte	0x1
 4443 0dfd A501     		.2byte	0x1a5
 4444 0dff A2000000 		.4byte	0xa2
 4445 0e03 00000000 		.4byte	.LFB80
 4446 0e07 3E000000 		.4byte	.LFE80-.LFB80
 4447 0e0b 01       		.uleb128 0x1
 4448 0e0c 9C       		.byte	0x9c
 4449 0e0d 470E0000 		.4byte	0xe47
 4450 0e11 20       		.uleb128 0x20
 4451 0e12 63747800 		.ascii	"ctx\000"
 4452 0e16 01       		.byte	0x1
 4453 0e17 A501     		.2byte	0x1a5
 4454 0e19 9F090000 		.4byte	0x99f
 4455 0e1d 02       		.uleb128 0x2
 4456 0e1e 91       		.byte	0x91
 4457 0e1f 6C       		.sleb128 -20
 4458 0e20 20       		.uleb128 0x20
 4459 0e21 6B00     		.ascii	"k\000"
 4460 0e23 01       		.byte	0x1
 4461 0e24 A501     		.2byte	0x1a5
 4462 0e26 E7000000 		.4byte	0xe7
 4463 0e2a 02       		.uleb128 0x2
 4464 0e2b 91       		.byte	0x91
 4465 0e2c 6B       		.sleb128 -21
 4466 0e2d 1D       		.uleb128 0x1d
 4467 0e2e 14000000 		.4byte	.LBB4
 4468 0e32 20000000 		.4byte	.LBE4-.LBB4
 4469 0e36 25       		.uleb128 0x25
 4470 0e37 3E020000 		.4byte	.LASF217
 4471 0e3b 01       		.byte	0x1
 4472 0e3c A901     		.2byte	0x1a9
 4473 0e3e 02080000 		.4byte	0x802
 4474 0e42 02       		.uleb128 0x2
 4475 0e43 91       		.byte	0x91
 4476 0e44 77       		.sleb128 -9
 4477 0e45 00       		.byte	0
 4478 0e46 00       		.byte	0
 4479 0e47 27       		.uleb128 0x27
 4480 0e48 81050000 		.4byte	.LASF219
 4481 0e4c 01       		.byte	0x1
 4482 0e4d B101     		.2byte	0x1b1
 4483 0e4f A2000000 		.4byte	0xa2
 4484 0e53 00000000 		.4byte	.LFB81
 4485 0e57 A0000000 		.4byte	.LFE81-.LFB81
 4486 0e5b 01       		.uleb128 0x1
ARM GAS  C:\Users\JENNEW~1\AppData\Local\Temp\ccAtvZYd.s 			page 92


 4487 0e5c 9C       		.byte	0x9c
 4488 0e5d 8D0E0000 		.4byte	0xe8d
 4489 0e61 20       		.uleb128 0x20
 4490 0e62 63747800 		.ascii	"ctx\000"
 4491 0e66 01       		.byte	0x1
 4492 0e67 B101     		.2byte	0x1b1
 4493 0e69 9F090000 		.4byte	0x99f
 4494 0e6d 02       		.uleb128 0x2
 4495 0e6e 91       		.byte	0x91
 4496 0e6f 6C       		.sleb128 -20
 4497 0e70 20       		.uleb128 0x20
 4498 0e71 6B657900 		.ascii	"key\000"
 4499 0e75 01       		.byte	0x1
 4500 0e76 B101     		.2byte	0x1b1
 4501 0e78 E7000000 		.4byte	0xe7
 4502 0e7c 02       		.uleb128 0x2
 4503 0e7d 91       		.byte	0x91
 4504 0e7e 6B       		.sleb128 -21
 4505 0e7f 24       		.uleb128 0x24
 4506 0e80 6600     		.ascii	"f\000"
 4507 0e82 01       		.byte	0x1
 4508 0e83 BA01     		.2byte	0x1ba
 4509 0e85 A5090000 		.4byte	0x9a5
 4510 0e89 02       		.uleb128 0x2
 4511 0e8a 91       		.byte	0x91
 4512 0e8b 74       		.sleb128 -12
 4513 0e8c 00       		.byte	0
 4514 0e8d 21       		.uleb128 0x21
 4515 0e8e FE080000 		.4byte	.LASF220
 4516 0e92 01       		.byte	0x1
 4517 0e93 C701     		.2byte	0x1c7
 4518 0e95 00000000 		.4byte	.LFB82
 4519 0e99 1C000000 		.4byte	.LFE82-.LFB82
 4520 0e9d 01       		.uleb128 0x1
 4521 0e9e 9C       		.byte	0x9c
 4522 0e9f C20E0000 		.4byte	0xec2
 4523 0ea3 20       		.uleb128 0x20
 4524 0ea4 63747800 		.ascii	"ctx\000"
 4525 0ea8 01       		.byte	0x1
 4526 0ea9 C701     		.2byte	0x1c7
 4527 0eab EB090000 		.4byte	0x9eb
 4528 0eaf 02       		.uleb128 0x2
 4529 0eb0 91       		.byte	0x91
 4530 0eb1 74       		.sleb128 -12
 4531 0eb2 20       		.uleb128 0x20
 4532 0eb3 6F757400 		.ascii	"out\000"
 4533 0eb7 01       		.byte	0x1
 4534 0eb8 C701     		.2byte	0x1c7
 4535 0eba F6090000 		.4byte	0x9f6
 4536 0ebe 02       		.uleb128 0x2
 4537 0ebf 91       		.byte	0x91
 4538 0ec0 70       		.sleb128 -16
 4539 0ec1 00       		.byte	0
 4540 0ec2 21       		.uleb128 0x21
 4541 0ec3 09070000 		.4byte	.LASF221
 4542 0ec7 01       		.byte	0x1
 4543 0ec8 CD01     		.2byte	0x1cd
ARM GAS  C:\Users\JENNEW~1\AppData\Local\Temp\ccAtvZYd.s 			page 93


 4544 0eca 00000000 		.4byte	.LFB83
 4545 0ece 1A000000 		.4byte	.LFE83-.LFB83
 4546 0ed2 01       		.uleb128 0x1
 4547 0ed3 9C       		.byte	0x9c
 4548 0ed4 F70E0000 		.4byte	0xef7
 4549 0ed8 20       		.uleb128 0x20
 4550 0ed9 63747800 		.ascii	"ctx\000"
 4551 0edd 01       		.byte	0x1
 4552 0ede CD01     		.2byte	0x1cd
 4553 0ee0 EB090000 		.4byte	0x9eb
 4554 0ee4 02       		.uleb128 0x2
 4555 0ee5 91       		.byte	0x91
 4556 0ee6 74       		.sleb128 -12
 4557 0ee7 20       		.uleb128 0x20
 4558 0ee8 6F757400 		.ascii	"out\000"
 4559 0eec 01       		.byte	0x1
 4560 0eed CD01     		.2byte	0x1cd
 4561 0eef F6090000 		.4byte	0x9f6
 4562 0ef3 02       		.uleb128 0x2
 4563 0ef4 91       		.byte	0x91
 4564 0ef5 70       		.sleb128 -16
 4565 0ef6 00       		.byte	0
 4566 0ef7 21       		.uleb128 0x21
 4567 0ef8 5E000000 		.4byte	.LASF222
 4568 0efc 01       		.byte	0x1
 4569 0efd D201     		.2byte	0x1d2
 4570 0eff 00000000 		.4byte	.LFB84
 4571 0f03 A4000000 		.4byte	.LFE84-.LFB84
 4572 0f07 01       		.uleb128 0x1
 4573 0f08 9C       		.byte	0x9c
 4574 0f09 2C0F0000 		.4byte	0xf2c
 4575 0f0d 20       		.uleb128 0x20
 4576 0f0e 63747800 		.ascii	"ctx\000"
 4577 0f12 01       		.byte	0x1
 4578 0f13 D201     		.2byte	0x1d2
 4579 0f15 EB090000 		.4byte	0x9eb
 4580 0f19 02       		.uleb128 0x2
 4581 0f1a 91       		.byte	0x91
 4582 0f1b 74       		.sleb128 -12
 4583 0f1c 20       		.uleb128 0x20
 4584 0f1d 6F757400 		.ascii	"out\000"
 4585 0f21 01       		.byte	0x1
 4586 0f22 D201     		.2byte	0x1d2
 4587 0f24 F6090000 		.4byte	0x9f6
 4588 0f28 02       		.uleb128 0x2
 4589 0f29 91       		.byte	0x91
 4590 0f2a 70       		.sleb128 -16
 4591 0f2b 00       		.byte	0
 4592 0f2c 21       		.uleb128 0x21
 4593 0f2d 48050000 		.4byte	.LASF223
 4594 0f31 01       		.byte	0x1
 4595 0f32 E501     		.2byte	0x1e5
 4596 0f34 00000000 		.4byte	.LFB85
 4597 0f38 28000000 		.4byte	.LFE85-.LFB85
 4598 0f3c 01       		.uleb128 0x1
 4599 0f3d 9C       		.byte	0x9c
 4600 0f3e 610F0000 		.4byte	0xf61
ARM GAS  C:\Users\JENNEW~1\AppData\Local\Temp\ccAtvZYd.s 			page 94


 4601 0f42 20       		.uleb128 0x20
 4602 0f43 63747800 		.ascii	"ctx\000"
 4603 0f47 01       		.byte	0x1
 4604 0f48 E501     		.2byte	0x1e5
 4605 0f4a EB090000 		.4byte	0x9eb
 4606 0f4e 02       		.uleb128 0x2
 4607 0f4f 91       		.byte	0x91
 4608 0f50 74       		.sleb128 -12
 4609 0f51 20       		.uleb128 0x20
 4610 0f52 6F757400 		.ascii	"out\000"
 4611 0f56 01       		.byte	0x1
 4612 0f57 E501     		.2byte	0x1e5
 4613 0f59 F6090000 		.4byte	0x9f6
 4614 0f5d 02       		.uleb128 0x2
 4615 0f5e 91       		.byte	0x91
 4616 0f5f 70       		.sleb128 -16
 4617 0f60 00       		.byte	0
 4618 0f61 28       		.uleb128 0x28
 4619 0f62 BA000000 		.4byte	.LASF224
 4620 0f66 01       		.byte	0x1
 4621 0f67 EC01     		.2byte	0x1ec
 4622 0f69 00000000 		.4byte	.LFB86
 4623 0f6d 3C000000 		.4byte	.LFE86-.LFB86
 4624 0f71 01       		.uleb128 0x1
 4625 0f72 9C       		.byte	0x9c
 4626 0f73 A30F0000 		.4byte	0xfa3
 4627 0f77 20       		.uleb128 0x20
 4628 0f78 63747800 		.ascii	"ctx\000"
 4629 0f7c 01       		.byte	0x1
 4630 0f7d EC01     		.2byte	0x1ec
 4631 0f7f EB090000 		.4byte	0x9eb
 4632 0f83 02       		.uleb128 0x2
 4633 0f84 91       		.byte	0x91
 4634 0f85 6C       		.sleb128 -20
 4635 0f86 20       		.uleb128 0x20
 4636 0f87 6F757400 		.ascii	"out\000"
 4637 0f8b 01       		.byte	0x1
 4638 0f8c EC01     		.2byte	0x1ec
 4639 0f8e F6090000 		.4byte	0x9f6
 4640 0f92 02       		.uleb128 0x2
 4641 0f93 91       		.byte	0x91
 4642 0f94 68       		.sleb128 -24
 4643 0f95 24       		.uleb128 0x24
 4644 0f96 6600     		.ascii	"f\000"
 4645 0f98 01       		.byte	0x1
 4646 0f99 EE01     		.2byte	0x1ee
 4647 0f9b CA090000 		.4byte	0x9ca
 4648 0f9f 02       		.uleb128 0x2
 4649 0fa0 91       		.byte	0x91
 4650 0fa1 74       		.sleb128 -12
 4651 0fa2 00       		.byte	0
 4652 0fa3 21       		.uleb128 0x21
 4653 0fa4 C0090000 		.4byte	.LASF225
 4654 0fa8 01       		.byte	0x1
 4655 0fa9 FB01     		.2byte	0x1fb
 4656 0fab 00000000 		.4byte	.LFB87
 4657 0faf 98010000 		.4byte	.LFE87-.LFB87
ARM GAS  C:\Users\JENNEW~1\AppData\Local\Temp\ccAtvZYd.s 			page 95


 4658 0fb3 01       		.uleb128 0x1
 4659 0fb4 9C       		.byte	0x9c
 4660 0fb5 0B100000 		.4byte	0x100b
 4661 0fb9 20       		.uleb128 0x20
 4662 0fba 63747800 		.ascii	"ctx\000"
 4663 0fbe 01       		.byte	0x1
 4664 0fbf FB01     		.2byte	0x1fb
 4665 0fc1 9F090000 		.4byte	0x99f
 4666 0fc5 02       		.uleb128 0x2
 4667 0fc6 91       		.byte	0x91
 4668 0fc7 64       		.sleb128 -28
 4669 0fc8 29       		.uleb128 0x29
 4670 0fc9 6C090000 		.4byte	.LASF226
 4671 0fcd 01       		.byte	0x1
 4672 0fce FB01     		.2byte	0x1fb
 4673 0fd0 D9000000 		.4byte	0xd9
 4674 0fd4 02       		.uleb128 0x2
 4675 0fd5 91       		.byte	0x91
 4676 0fd6 60       		.sleb128 -32
 4677 0fd7 29       		.uleb128 0x29
 4678 0fd8 6A060000 		.4byte	.LASF227
 4679 0fdc 01       		.byte	0x1
 4680 0fdd FB01     		.2byte	0x1fb
 4681 0fdf D9000000 		.4byte	0xd9
 4682 0fe3 02       		.uleb128 0x2
 4683 0fe4 91       		.byte	0x91
 4684 0fe5 5C       		.sleb128 -36
 4685 0fe6 1D       		.uleb128 0x1d
 4686 0fe7 16000000 		.4byte	.LBB5
 4687 0feb 42000000 		.4byte	.LBE5-.LBB5
 4688 0fef 24       		.uleb128 0x24
 4689 0ff0 7000     		.ascii	"p\000"
 4690 0ff2 01       		.byte	0x1
 4691 0ff3 FE01     		.2byte	0x1fe
 4692 0ff5 D9000000 		.4byte	0xd9
 4693 0ff9 02       		.uleb128 0x2
 4694 0ffa 91       		.byte	0x91
 4695 0ffb 6C       		.sleb128 -20
 4696 0ffc 24       		.uleb128 0x24
 4697 0ffd 7400     		.ascii	"t\000"
 4698 0fff 01       		.byte	0x1
 4699 1000 FE01     		.2byte	0x1fe
 4700 1002 D9000000 		.4byte	0xd9
 4701 1006 02       		.uleb128 0x2
 4702 1007 91       		.byte	0x91
 4703 1008 68       		.sleb128 -24
 4704 1009 00       		.byte	0
 4705 100a 00       		.byte	0
 4706 100b 26       		.uleb128 0x26
 4707 100c 6C040000 		.4byte	.LASF228
 4708 1010 01       		.byte	0x1
 4709 1011 1202     		.2byte	0x212
 4710 1013 A2000000 		.4byte	0xa2
 4711 1017 00000000 		.4byte	.LFB88
 4712 101b 24020000 		.4byte	.LFE88-.LFB88
 4713 101f 01       		.uleb128 0x1
 4714 1020 9C       		.byte	0x9c
ARM GAS  C:\Users\JENNEW~1\AppData\Local\Temp\ccAtvZYd.s 			page 96


 4715 1021 42100000 		.4byte	0x1042
 4716 1025 20       		.uleb128 0x20
 4717 1026 63747800 		.ascii	"ctx\000"
 4718 102a 01       		.byte	0x1
 4719 102b 1202     		.2byte	0x212
 4720 102d 9F090000 		.4byte	0x99f
 4721 1031 02       		.uleb128 0x2
 4722 1032 91       		.byte	0x91
 4723 1033 74       		.sleb128 -12
 4724 1034 20       		.uleb128 0x20
 4725 1035 6B00     		.ascii	"k\000"
 4726 1037 01       		.byte	0x1
 4727 1038 1202     		.2byte	0x212
 4728 103a E7000000 		.4byte	0xe7
 4729 103e 02       		.uleb128 0x2
 4730 103f 91       		.byte	0x91
 4731 1040 73       		.sleb128 -13
 4732 1041 00       		.byte	0
 4733 1042 28       		.uleb128 0x28
 4734 1043 D3070000 		.4byte	.LASF229
 4735 1047 01       		.byte	0x1
 4736 1048 2702     		.2byte	0x227
 4737 104a 00000000 		.4byte	.LFB89
 4738 104e C0000000 		.4byte	.LFE89-.LFB89
 4739 1052 01       		.uleb128 0x1
 4740 1053 9C       		.byte	0x9c
 4741 1054 A0100000 		.4byte	0x10a0
 4742 1058 20       		.uleb128 0x20
 4743 1059 63747800 		.ascii	"ctx\000"
 4744 105d 01       		.byte	0x1
 4745 105e 2702     		.2byte	0x227
 4746 1060 9F090000 		.4byte	0x99f
 4747 1064 02       		.uleb128 0x2
 4748 1065 91       		.byte	0x91
 4749 1066 64       		.sleb128 -28
 4750 1067 25       		.uleb128 0x25
 4751 1068 410B0000 		.4byte	.LASF230
 4752 106c 01       		.byte	0x1
 4753 106d 2A02     		.2byte	0x22a
 4754 106f CE000000 		.4byte	0xce
 4755 1073 02       		.uleb128 0x2
 4756 1074 91       		.byte	0x91
 4757 1075 70       		.sleb128 -16
 4758 1076 24       		.uleb128 0x24
 4759 1077 7000     		.ascii	"p\000"
 4760 1079 01       		.byte	0x1
 4761 107a 2D02     		.2byte	0x22d
 4762 107c D9000000 		.4byte	0xd9
 4763 1080 02       		.uleb128 0x2
 4764 1081 91       		.byte	0x91
 4765 1082 6C       		.sleb128 -20
 4766 1083 24       		.uleb128 0x24
 4767 1084 7400     		.ascii	"t\000"
 4768 1086 01       		.byte	0x1
 4769 1087 2D02     		.2byte	0x22d
 4770 1089 D9000000 		.4byte	0xd9
 4771 108d 02       		.uleb128 0x2
ARM GAS  C:\Users\JENNEW~1\AppData\Local\Temp\ccAtvZYd.s 			page 97


 4772 108e 91       		.byte	0x91
 4773 108f 68       		.sleb128 -24
 4774 1090 25       		.uleb128 0x25
 4775 1091 2D0B0000 		.4byte	.LASF231
 4776 1095 01       		.byte	0x1
 4777 1096 2D02     		.2byte	0x22d
 4778 1098 A2000000 		.4byte	0xa2
 4779 109c 02       		.uleb128 0x2
 4780 109d 91       		.byte	0x91
 4781 109e 77       		.sleb128 -9
 4782 109f 00       		.byte	0
 4783 10a0 13       		.uleb128 0x13
 4784 10a1 B0100000 		.4byte	0x10b0
 4785 10a5 B0100000 		.4byte	0x10b0
 4786 10a9 14       		.uleb128 0x14
 4787 10aa F5000000 		.4byte	0xf5
 4788 10ae 0F       		.byte	0xf
 4789 10af 00       		.byte	0
 4790 10b0 07       		.uleb128 0x7
 4791 10b1 02080000 		.4byte	0x802
 4792 10b5 1B       		.uleb128 0x1b
 4793 10b6 71080000 		.4byte	.LASF232
 4794 10ba 01       		.byte	0x1
 4795 10bb 39       		.byte	0x39
 4796 10bc C6100000 		.4byte	0x10c6
 4797 10c0 05       		.uleb128 0x5
 4798 10c1 03       		.byte	0x3
 4799 10c2 00000000 		.4byte	parent_of
 4800 10c6 07       		.uleb128 0x7
 4801 10c7 A0100000 		.4byte	0x10a0
 4802 10cb 13       		.uleb128 0x13
 4803 10cc DB100000 		.4byte	0x10db
 4804 10d0 DB100000 		.4byte	0x10db
 4805 10d4 14       		.uleb128 0x14
 4806 10d5 F5000000 		.4byte	0xf5
 4807 10d9 0F       		.byte	0xf
 4808 10da 00       		.byte	0
 4809 10db 07       		.uleb128 0x7
 4810 10dc 83090000 		.4byte	0x983
 4811 10e0 1B       		.uleb128 0x1b
 4812 10e1 74060000 		.4byte	.LASF233
 4813 10e5 01       		.byte	0x1
 4814 10e6 6A       		.byte	0x6a
 4815 10e7 F1100000 		.4byte	0x10f1
 4816 10eb 05       		.uleb128 0x5
 4817 10ec 03       		.byte	0x3
 4818 10ed 10000000 		.4byte	on_entry
 4819 10f1 07       		.uleb128 0x7
 4820 10f2 CB100000 		.4byte	0x10cb
 4821 10f6 1B       		.uleb128 0x1b
 4822 10f7 09090000 		.4byte	.LASF234
 4823 10fb 01       		.byte	0x1
 4824 10fc 7C       		.byte	0x7c
 4825 10fd 07110000 		.4byte	0x1107
 4826 1101 05       		.uleb128 0x5
 4827 1102 03       		.byte	0x3
 4828 1103 50000000 		.4byte	on_exit
ARM GAS  C:\Users\JENNEW~1\AppData\Local\Temp\ccAtvZYd.s 			page 98


 4829 1107 07       		.uleb128 0x7
 4830 1108 CB100000 		.4byte	0x10cb
 4831 110c 13       		.uleb128 0x13
 4832 110d 1C110000 		.4byte	0x111c
 4833 1111 1C110000 		.4byte	0x111c
 4834 1115 14       		.uleb128 0x14
 4835 1116 F5000000 		.4byte	0xf5
 4836 111a 0F       		.byte	0xf
 4837 111b 00       		.byte	0
 4838 111c 07       		.uleb128 0x7
 4839 111d A5090000 		.4byte	0x9a5
 4840 1121 1B       		.uleb128 0x1b
 4841 1122 15040000 		.4byte	.LASF235
 4842 1126 01       		.byte	0x1
 4843 1127 8E       		.byte	0x8e
 4844 1128 32110000 		.4byte	0x1132
 4845 112c 05       		.uleb128 0x5
 4846 112d 03       		.byte	0x3
 4847 112e 90000000 		.4byte	on_key
 4848 1132 07       		.uleb128 0x7
 4849 1133 0C110000 		.4byte	0x110c
 4850 1137 13       		.uleb128 0x13
 4851 1138 47110000 		.4byte	0x1147
 4852 113c 47110000 		.4byte	0x1147
 4853 1140 14       		.uleb128 0x14
 4854 1141 F5000000 		.4byte	0xf5
 4855 1145 0F       		.byte	0xf
 4856 1146 00       		.byte	0
 4857 1147 07       		.uleb128 0x7
 4858 1148 CA090000 		.4byte	0x9ca
 4859 114c 1B       		.uleb128 0x1b
 4860 114d CC090000 		.4byte	.LASF236
 4861 1151 01       		.byte	0x1
 4862 1152 9C       		.byte	0x9c
 4863 1153 5D110000 		.4byte	0x115d
 4864 1157 05       		.uleb128 0x5
 4865 1158 03       		.byte	0x3
 4866 1159 D0000000 		.4byte	on_build
 4867 115d 07       		.uleb128 0x7
 4868 115e 37110000 		.4byte	0x1137
 4869 1162 13       		.uleb128 0x13
 4870 1163 72110000 		.4byte	0x1172
 4871 1167 72110000 		.4byte	0x1172
 4872 116b 14       		.uleb128 0x14
 4873 116c F5000000 		.4byte	0xf5
 4874 1170 0F       		.byte	0xf
 4875 1171 00       		.byte	0
 4876 1172 07       		.uleb128 0x7
 4877 1173 FE000000 		.4byte	0xfe
 4878 1177 25       		.uleb128 0x25
 4879 1178 E5000000 		.4byte	.LASF237
 4880 117c 01       		.byte	0x1
 4881 117d 0301     		.2byte	0x103
 4882 117f 89110000 		.4byte	0x1189
 4883 1183 05       		.uleb128 0x5
 4884 1184 03       		.byte	0x3
 4885 1185 E0010000 		.4byte	state_names
ARM GAS  C:\Users\JENNEW~1\AppData\Local\Temp\ccAtvZYd.s 			page 99


 4886 1189 07       		.uleb128 0x7
 4887 118a 62110000 		.4byte	0x1162
 4888 118e 2A       		.uleb128 0x2a
 4889 118f EC070000 		.4byte	.LASF238
 4890 1193 0B       		.byte	0xb
 4891 1194 1207     		.2byte	0x712
 4892 1196 9A110000 		.4byte	0x119a
 4893 119a 08       		.uleb128 0x8
 4894 119b C3000000 		.4byte	0xc3
 4895 119f 2B       		.uleb128 0x2b
 4896 11a0 50060000 		.4byte	.LASF239
 4897 11a4 01       		.byte	0x1
 4898 11a5 32       		.byte	0x32
 4899 11a6 09010000 		.4byte	0x109
 4900 11aa 00       		.byte	0
 4901              		.section	.debug_abbrev,"",%progbits
 4902              	.Ldebug_abbrev0:
 4903 0000 01       		.uleb128 0x1
 4904 0001 11       		.uleb128 0x11
 4905 0002 01       		.byte	0x1
 4906 0003 25       		.uleb128 0x25
 4907 0004 0E       		.uleb128 0xe
 4908 0005 13       		.uleb128 0x13
 4909 0006 0B       		.uleb128 0xb
 4910 0007 03       		.uleb128 0x3
 4911 0008 0E       		.uleb128 0xe
 4912 0009 1B       		.uleb128 0x1b
 4913 000a 0E       		.uleb128 0xe
 4914 000b 55       		.uleb128 0x55
 4915 000c 17       		.uleb128 0x17
 4916 000d 11       		.uleb128 0x11
 4917 000e 01       		.uleb128 0x1
 4918 000f 10       		.uleb128 0x10
 4919 0010 17       		.uleb128 0x17
 4920 0011 00       		.byte	0
 4921 0012 00       		.byte	0
 4922 0013 02       		.uleb128 0x2
 4923 0014 24       		.uleb128 0x24
 4924 0015 00       		.byte	0
 4925 0016 0B       		.uleb128 0xb
 4926 0017 0B       		.uleb128 0xb
 4927 0018 3E       		.uleb128 0x3e
 4928 0019 0B       		.uleb128 0xb
 4929 001a 03       		.uleb128 0x3
 4930 001b 0E       		.uleb128 0xe
 4931 001c 00       		.byte	0
 4932 001d 00       		.byte	0
 4933 001e 03       		.uleb128 0x3
 4934 001f 16       		.uleb128 0x16
 4935 0020 00       		.byte	0
 4936 0021 03       		.uleb128 0x3
 4937 0022 0E       		.uleb128 0xe
 4938 0023 3A       		.uleb128 0x3a
 4939 0024 0B       		.uleb128 0xb
 4940 0025 3B       		.uleb128 0x3b
 4941 0026 0B       		.uleb128 0xb
 4942 0027 49       		.uleb128 0x49
ARM GAS  C:\Users\JENNEW~1\AppData\Local\Temp\ccAtvZYd.s 			page 100


 4943 0028 13       		.uleb128 0x13
 4944 0029 00       		.byte	0
 4945 002a 00       		.byte	0
 4946 002b 04       		.uleb128 0x4
 4947 002c 24       		.uleb128 0x24
 4948 002d 00       		.byte	0
 4949 002e 0B       		.uleb128 0xb
 4950 002f 0B       		.uleb128 0xb
 4951 0030 3E       		.uleb128 0x3e
 4952 0031 0B       		.uleb128 0xb
 4953 0032 03       		.uleb128 0x3
 4954 0033 08       		.uleb128 0x8
 4955 0034 00       		.byte	0
 4956 0035 00       		.byte	0
 4957 0036 05       		.uleb128 0x5
 4958 0037 0F       		.uleb128 0xf
 4959 0038 00       		.byte	0
 4960 0039 0B       		.uleb128 0xb
 4961 003a 0B       		.uleb128 0xb
 4962 003b 00       		.byte	0
 4963 003c 00       		.byte	0
 4964 003d 06       		.uleb128 0x6
 4965 003e 0F       		.uleb128 0xf
 4966 003f 00       		.byte	0
 4967 0040 0B       		.uleb128 0xb
 4968 0041 0B       		.uleb128 0xb
 4969 0042 49       		.uleb128 0x49
 4970 0043 13       		.uleb128 0x13
 4971 0044 00       		.byte	0
 4972 0045 00       		.byte	0
 4973 0046 07       		.uleb128 0x7
 4974 0047 26       		.uleb128 0x26
 4975 0048 00       		.byte	0
 4976 0049 49       		.uleb128 0x49
 4977 004a 13       		.uleb128 0x13
 4978 004b 00       		.byte	0
 4979 004c 00       		.byte	0
 4980 004d 08       		.uleb128 0x8
 4981 004e 35       		.uleb128 0x35
 4982 004f 00       		.byte	0
 4983 0050 49       		.uleb128 0x49
 4984 0051 13       		.uleb128 0x13
 4985 0052 00       		.byte	0
 4986 0053 00       		.byte	0
 4987 0054 09       		.uleb128 0x9
 4988 0055 04       		.uleb128 0x4
 4989 0056 01       		.byte	0x1
 4990 0057 0B       		.uleb128 0xb
 4991 0058 0B       		.uleb128 0xb
 4992 0059 49       		.uleb128 0x49
 4993 005a 13       		.uleb128 0x13
 4994 005b 3A       		.uleb128 0x3a
 4995 005c 0B       		.uleb128 0xb
 4996 005d 3B       		.uleb128 0x3b
 4997 005e 0B       		.uleb128 0xb
 4998 005f 01       		.uleb128 0x1
 4999 0060 13       		.uleb128 0x13
ARM GAS  C:\Users\JENNEW~1\AppData\Local\Temp\ccAtvZYd.s 			page 101


 5000 0061 00       		.byte	0
 5001 0062 00       		.byte	0
 5002 0063 0A       		.uleb128 0xa
 5003 0064 28       		.uleb128 0x28
 5004 0065 00       		.byte	0
 5005 0066 03       		.uleb128 0x3
 5006 0067 0E       		.uleb128 0xe
 5007 0068 1C       		.uleb128 0x1c
 5008 0069 0B       		.uleb128 0xb
 5009 006a 00       		.byte	0
 5010 006b 00       		.byte	0
 5011 006c 0B       		.uleb128 0xb
 5012 006d 13       		.uleb128 0x13
 5013 006e 01       		.byte	0x1
 5014 006f 0B       		.uleb128 0xb
 5015 0070 0B       		.uleb128 0xb
 5016 0071 3A       		.uleb128 0x3a
 5017 0072 0B       		.uleb128 0xb
 5018 0073 3B       		.uleb128 0x3b
 5019 0074 0B       		.uleb128 0xb
 5020 0075 01       		.uleb128 0x1
 5021 0076 13       		.uleb128 0x13
 5022 0077 00       		.byte	0
 5023 0078 00       		.byte	0
 5024 0079 0C       		.uleb128 0xc
 5025 007a 0D       		.uleb128 0xd
 5026 007b 00       		.byte	0
 5027 007c 03       		.uleb128 0x3
 5028 007d 08       		.uleb128 0x8
 5029 007e 3A       		.uleb128 0x3a
 5030 007f 0B       		.uleb128 0xb
 5031 0080 3B       		.uleb128 0x3b
 5032 0081 0B       		.uleb128 0xb
 5033 0082 49       		.uleb128 0x49
 5034 0083 13       		.uleb128 0x13
 5035 0084 38       		.uleb128 0x38
 5036 0085 0B       		.uleb128 0xb
 5037 0086 00       		.byte	0
 5038 0087 00       		.byte	0
 5039 0088 0D       		.uleb128 0xd
 5040 0089 0D       		.uleb128 0xd
 5041 008a 00       		.byte	0
 5042 008b 03       		.uleb128 0x3
 5043 008c 0E       		.uleb128 0xe
 5044 008d 3A       		.uleb128 0x3a
 5045 008e 0B       		.uleb128 0xb
 5046 008f 3B       		.uleb128 0x3b
 5047 0090 0B       		.uleb128 0xb
 5048 0091 49       		.uleb128 0x49
 5049 0092 13       		.uleb128 0x13
 5050 0093 38       		.uleb128 0x38
 5051 0094 0B       		.uleb128 0xb
 5052 0095 00       		.byte	0
 5053 0096 00       		.byte	0
 5054 0097 0E       		.uleb128 0xe
 5055 0098 15       		.uleb128 0x15
 5056 0099 01       		.byte	0x1
ARM GAS  C:\Users\JENNEW~1\AppData\Local\Temp\ccAtvZYd.s 			page 102


 5057 009a 27       		.uleb128 0x27
 5058 009b 19       		.uleb128 0x19
 5059 009c 01       		.uleb128 0x1
 5060 009d 13       		.uleb128 0x13
 5061 009e 00       		.byte	0
 5062 009f 00       		.byte	0
 5063 00a0 0F       		.uleb128 0xf
 5064 00a1 05       		.uleb128 0x5
 5065 00a2 00       		.byte	0
 5066 00a3 49       		.uleb128 0x49
 5067 00a4 13       		.uleb128 0x13
 5068 00a5 00       		.byte	0
 5069 00a6 00       		.byte	0
 5070 00a7 10       		.uleb128 0x10
 5071 00a8 15       		.uleb128 0x15
 5072 00a9 01       		.byte	0x1
 5073 00aa 27       		.uleb128 0x27
 5074 00ab 19       		.uleb128 0x19
 5075 00ac 49       		.uleb128 0x49
 5076 00ad 13       		.uleb128 0x13
 5077 00ae 01       		.uleb128 0x1
 5078 00af 13       		.uleb128 0x13
 5079 00b0 00       		.byte	0
 5080 00b1 00       		.byte	0
 5081 00b2 11       		.uleb128 0x11
 5082 00b3 13       		.uleb128 0x13
 5083 00b4 01       		.byte	0x1
 5084 00b5 0B       		.uleb128 0xb
 5085 00b6 05       		.uleb128 0x5
 5086 00b7 3A       		.uleb128 0x3a
 5087 00b8 0B       		.uleb128 0xb
 5088 00b9 3B       		.uleb128 0x3b
 5089 00ba 0B       		.uleb128 0xb
 5090 00bb 01       		.uleb128 0x1
 5091 00bc 13       		.uleb128 0x13
 5092 00bd 00       		.byte	0
 5093 00be 00       		.byte	0
 5094 00bf 12       		.uleb128 0x12
 5095 00c0 0D       		.uleb128 0xd
 5096 00c1 00       		.byte	0
 5097 00c2 03       		.uleb128 0x3
 5098 00c3 0E       		.uleb128 0xe
 5099 00c4 3A       		.uleb128 0x3a
 5100 00c5 0B       		.uleb128 0xb
 5101 00c6 3B       		.uleb128 0x3b
 5102 00c7 0B       		.uleb128 0xb
 5103 00c8 49       		.uleb128 0x49
 5104 00c9 13       		.uleb128 0x13
 5105 00ca 38       		.uleb128 0x38
 5106 00cb 05       		.uleb128 0x5
 5107 00cc 00       		.byte	0
 5108 00cd 00       		.byte	0
 5109 00ce 13       		.uleb128 0x13
 5110 00cf 01       		.uleb128 0x1
 5111 00d0 01       		.byte	0x1
 5112 00d1 49       		.uleb128 0x49
 5113 00d2 13       		.uleb128 0x13
ARM GAS  C:\Users\JENNEW~1\AppData\Local\Temp\ccAtvZYd.s 			page 103


 5114 00d3 01       		.uleb128 0x1
 5115 00d4 13       		.uleb128 0x13
 5116 00d5 00       		.byte	0
 5117 00d6 00       		.byte	0
 5118 00d7 14       		.uleb128 0x14
 5119 00d8 21       		.uleb128 0x21
 5120 00d9 00       		.byte	0
 5121 00da 49       		.uleb128 0x49
 5122 00db 13       		.uleb128 0x13
 5123 00dc 2F       		.uleb128 0x2f
 5124 00dd 0B       		.uleb128 0xb
 5125 00de 00       		.byte	0
 5126 00df 00       		.byte	0
 5127 00e0 15       		.uleb128 0x15
 5128 00e1 2E       		.uleb128 0x2e
 5129 00e2 01       		.byte	0x1
 5130 00e3 03       		.uleb128 0x3
 5131 00e4 0E       		.uleb128 0xe
 5132 00e5 3A       		.uleb128 0x3a
 5133 00e6 0B       		.uleb128 0xb
 5134 00e7 3B       		.uleb128 0x3b
 5135 00e8 0B       		.uleb128 0xb
 5136 00e9 27       		.uleb128 0x27
 5137 00ea 19       		.uleb128 0x19
 5138 00eb 49       		.uleb128 0x49
 5139 00ec 13       		.uleb128 0x13
 5140 00ed 11       		.uleb128 0x11
 5141 00ee 01       		.uleb128 0x1
 5142 00ef 12       		.uleb128 0x12
 5143 00f0 06       		.uleb128 0x6
 5144 00f1 40       		.uleb128 0x40
 5145 00f2 18       		.uleb128 0x18
 5146 00f3 9742     		.uleb128 0x2117
 5147 00f5 19       		.uleb128 0x19
 5148 00f6 01       		.uleb128 0x1
 5149 00f7 13       		.uleb128 0x13
 5150 00f8 00       		.byte	0
 5151 00f9 00       		.byte	0
 5152 00fa 16       		.uleb128 0x16
 5153 00fb 05       		.uleb128 0x5
 5154 00fc 00       		.byte	0
 5155 00fd 03       		.uleb128 0x3
 5156 00fe 08       		.uleb128 0x8
 5157 00ff 3A       		.uleb128 0x3a
 5158 0100 0B       		.uleb128 0xb
 5159 0101 3B       		.uleb128 0x3b
 5160 0102 0B       		.uleb128 0xb
 5161 0103 49       		.uleb128 0x49
 5162 0104 13       		.uleb128 0x13
 5163 0105 02       		.uleb128 0x2
 5164 0106 18       		.uleb128 0x18
 5165 0107 00       		.byte	0
 5166 0108 00       		.byte	0
 5167 0109 17       		.uleb128 0x17
 5168 010a 34       		.uleb128 0x34
 5169 010b 00       		.byte	0
 5170 010c 03       		.uleb128 0x3
ARM GAS  C:\Users\JENNEW~1\AppData\Local\Temp\ccAtvZYd.s 			page 104


 5171 010d 08       		.uleb128 0x8
 5172 010e 3A       		.uleb128 0x3a
 5173 010f 0B       		.uleb128 0xb
 5174 0110 3B       		.uleb128 0x3b
 5175 0111 0B       		.uleb128 0xb
 5176 0112 49       		.uleb128 0x49
 5177 0113 13       		.uleb128 0x13
 5178 0114 02       		.uleb128 0x2
 5179 0115 18       		.uleb128 0x18
 5180 0116 00       		.byte	0
 5181 0117 00       		.byte	0
 5182 0118 18       		.uleb128 0x18
 5183 0119 2E       		.uleb128 0x2e
 5184 011a 01       		.byte	0x1
 5185 011b 03       		.uleb128 0x3
 5186 011c 08       		.uleb128 0x8
 5187 011d 3A       		.uleb128 0x3a
 5188 011e 0B       		.uleb128 0xb
 5189 011f 3B       		.uleb128 0x3b
 5190 0120 0B       		.uleb128 0xb
 5191 0121 27       		.uleb128 0x27
 5192 0122 19       		.uleb128 0x19
 5193 0123 49       		.uleb128 0x49
 5194 0124 13       		.uleb128 0x13
 5195 0125 11       		.uleb128 0x11
 5196 0126 01       		.uleb128 0x1
 5197 0127 12       		.uleb128 0x12
 5198 0128 06       		.uleb128 0x6
 5199 0129 40       		.uleb128 0x40
 5200 012a 18       		.uleb128 0x18
 5201 012b 9642     		.uleb128 0x2116
 5202 012d 19       		.uleb128 0x19
 5203 012e 01       		.uleb128 0x1
 5204 012f 13       		.uleb128 0x13
 5205 0130 00       		.byte	0
 5206 0131 00       		.byte	0
 5207 0132 19       		.uleb128 0x19
 5208 0133 2E       		.uleb128 0x2e
 5209 0134 01       		.byte	0x1
 5210 0135 03       		.uleb128 0x3
 5211 0136 0E       		.uleb128 0xe
 5212 0137 3A       		.uleb128 0x3a
 5213 0138 0B       		.uleb128 0xb
 5214 0139 3B       		.uleb128 0x3b
 5215 013a 0B       		.uleb128 0xb
 5216 013b 27       		.uleb128 0x27
 5217 013c 19       		.uleb128 0x19
 5218 013d 11       		.uleb128 0x11
 5219 013e 01       		.uleb128 0x1
 5220 013f 12       		.uleb128 0x12
 5221 0140 06       		.uleb128 0x6
 5222 0141 40       		.uleb128 0x40
 5223 0142 18       		.uleb128 0x18
 5224 0143 9642     		.uleb128 0x2116
 5225 0145 19       		.uleb128 0x19
 5226 0146 01       		.uleb128 0x1
 5227 0147 13       		.uleb128 0x13
ARM GAS  C:\Users\JENNEW~1\AppData\Local\Temp\ccAtvZYd.s 			page 105


 5228 0148 00       		.byte	0
 5229 0149 00       		.byte	0
 5230 014a 1A       		.uleb128 0x1a
 5231 014b 05       		.uleb128 0x5
 5232 014c 00       		.byte	0
 5233 014d 03       		.uleb128 0x3
 5234 014e 0E       		.uleb128 0xe
 5235 014f 3A       		.uleb128 0x3a
 5236 0150 0B       		.uleb128 0xb
 5237 0151 3B       		.uleb128 0x3b
 5238 0152 0B       		.uleb128 0xb
 5239 0153 49       		.uleb128 0x49
 5240 0154 13       		.uleb128 0x13
 5241 0155 02       		.uleb128 0x2
 5242 0156 18       		.uleb128 0x18
 5243 0157 00       		.byte	0
 5244 0158 00       		.byte	0
 5245 0159 1B       		.uleb128 0x1b
 5246 015a 34       		.uleb128 0x34
 5247 015b 00       		.byte	0
 5248 015c 03       		.uleb128 0x3
 5249 015d 0E       		.uleb128 0xe
 5250 015e 3A       		.uleb128 0x3a
 5251 015f 0B       		.uleb128 0xb
 5252 0160 3B       		.uleb128 0x3b
 5253 0161 0B       		.uleb128 0xb
 5254 0162 49       		.uleb128 0x49
 5255 0163 13       		.uleb128 0x13
 5256 0164 02       		.uleb128 0x2
 5257 0165 18       		.uleb128 0x18
 5258 0166 00       		.byte	0
 5259 0167 00       		.byte	0
 5260 0168 1C       		.uleb128 0x1c
 5261 0169 0B       		.uleb128 0xb
 5262 016a 01       		.byte	0x1
 5263 016b 11       		.uleb128 0x11
 5264 016c 01       		.uleb128 0x1
 5265 016d 12       		.uleb128 0x12
 5266 016e 06       		.uleb128 0x6
 5267 016f 01       		.uleb128 0x1
 5268 0170 13       		.uleb128 0x13
 5269 0171 00       		.byte	0
 5270 0172 00       		.byte	0
 5271 0173 1D       		.uleb128 0x1d
 5272 0174 0B       		.uleb128 0xb
 5273 0175 01       		.byte	0x1
 5274 0176 11       		.uleb128 0x11
 5275 0177 01       		.uleb128 0x1
 5276 0178 12       		.uleb128 0x12
 5277 0179 06       		.uleb128 0x6
 5278 017a 00       		.byte	0
 5279 017b 00       		.byte	0
 5280 017c 1E       		.uleb128 0x1e
 5281 017d 2E       		.uleb128 0x2e
 5282 017e 01       		.byte	0x1
 5283 017f 3F       		.uleb128 0x3f
 5284 0180 19       		.uleb128 0x19
ARM GAS  C:\Users\JENNEW~1\AppData\Local\Temp\ccAtvZYd.s 			page 106


 5285 0181 03       		.uleb128 0x3
 5286 0182 0E       		.uleb128 0xe
 5287 0183 3A       		.uleb128 0x3a
 5288 0184 0B       		.uleb128 0xb
 5289 0185 3B       		.uleb128 0x3b
 5290 0186 0B       		.uleb128 0xb
 5291 0187 27       		.uleb128 0x27
 5292 0188 19       		.uleb128 0x19
 5293 0189 11       		.uleb128 0x11
 5294 018a 01       		.uleb128 0x1
 5295 018b 12       		.uleb128 0x12
 5296 018c 06       		.uleb128 0x6
 5297 018d 40       		.uleb128 0x40
 5298 018e 18       		.uleb128 0x18
 5299 018f 9642     		.uleb128 0x2116
 5300 0191 19       		.uleb128 0x19
 5301 0192 01       		.uleb128 0x1
 5302 0193 13       		.uleb128 0x13
 5303 0194 00       		.byte	0
 5304 0195 00       		.byte	0
 5305 0196 1F       		.uleb128 0x1f
 5306 0197 2E       		.uleb128 0x2e
 5307 0198 01       		.byte	0x1
 5308 0199 3F       		.uleb128 0x3f
 5309 019a 19       		.uleb128 0x19
 5310 019b 03       		.uleb128 0x3
 5311 019c 0E       		.uleb128 0xe
 5312 019d 3A       		.uleb128 0x3a
 5313 019e 0B       		.uleb128 0xb
 5314 019f 3B       		.uleb128 0x3b
 5315 01a0 05       		.uleb128 0x5
 5316 01a1 27       		.uleb128 0x27
 5317 01a2 19       		.uleb128 0x19
 5318 01a3 49       		.uleb128 0x49
 5319 01a4 13       		.uleb128 0x13
 5320 01a5 11       		.uleb128 0x11
 5321 01a6 01       		.uleb128 0x1
 5322 01a7 12       		.uleb128 0x12
 5323 01a8 06       		.uleb128 0x6
 5324 01a9 40       		.uleb128 0x40
 5325 01aa 18       		.uleb128 0x18
 5326 01ab 9742     		.uleb128 0x2117
 5327 01ad 19       		.uleb128 0x19
 5328 01ae 01       		.uleb128 0x1
 5329 01af 13       		.uleb128 0x13
 5330 01b0 00       		.byte	0
 5331 01b1 00       		.byte	0
 5332 01b2 20       		.uleb128 0x20
 5333 01b3 05       		.uleb128 0x5
 5334 01b4 00       		.byte	0
 5335 01b5 03       		.uleb128 0x3
 5336 01b6 08       		.uleb128 0x8
 5337 01b7 3A       		.uleb128 0x3a
 5338 01b8 0B       		.uleb128 0xb
 5339 01b9 3B       		.uleb128 0x3b
 5340 01ba 05       		.uleb128 0x5
 5341 01bb 49       		.uleb128 0x49
ARM GAS  C:\Users\JENNEW~1\AppData\Local\Temp\ccAtvZYd.s 			page 107


 5342 01bc 13       		.uleb128 0x13
 5343 01bd 02       		.uleb128 0x2
 5344 01be 18       		.uleb128 0x18
 5345 01bf 00       		.byte	0
 5346 01c0 00       		.byte	0
 5347 01c1 21       		.uleb128 0x21
 5348 01c2 2E       		.uleb128 0x2e
 5349 01c3 01       		.byte	0x1
 5350 01c4 03       		.uleb128 0x3
 5351 01c5 0E       		.uleb128 0xe
 5352 01c6 3A       		.uleb128 0x3a
 5353 01c7 0B       		.uleb128 0xb
 5354 01c8 3B       		.uleb128 0x3b
 5355 01c9 05       		.uleb128 0x5
 5356 01ca 27       		.uleb128 0x27
 5357 01cb 19       		.uleb128 0x19
 5358 01cc 11       		.uleb128 0x11
 5359 01cd 01       		.uleb128 0x1
 5360 01ce 12       		.uleb128 0x12
 5361 01cf 06       		.uleb128 0x6
 5362 01d0 40       		.uleb128 0x40
 5363 01d1 18       		.uleb128 0x18
 5364 01d2 9642     		.uleb128 0x2116
 5365 01d4 19       		.uleb128 0x19
 5366 01d5 01       		.uleb128 0x1
 5367 01d6 13       		.uleb128 0x13
 5368 01d7 00       		.byte	0
 5369 01d8 00       		.byte	0
 5370 01d9 22       		.uleb128 0x22
 5371 01da 2E       		.uleb128 0x2e
 5372 01db 01       		.byte	0x1
 5373 01dc 03       		.uleb128 0x3
 5374 01dd 0E       		.uleb128 0xe
 5375 01de 3A       		.uleb128 0x3a
 5376 01df 0B       		.uleb128 0xb
 5377 01e0 3B       		.uleb128 0x3b
 5378 01e1 05       		.uleb128 0x5
 5379 01e2 27       		.uleb128 0x27
 5380 01e3 19       		.uleb128 0x19
 5381 01e4 11       		.uleb128 0x11
 5382 01e5 01       		.uleb128 0x1
 5383 01e6 12       		.uleb128 0x12
 5384 01e7 06       		.uleb128 0x6
 5385 01e8 40       		.uleb128 0x40
 5386 01e9 18       		.uleb128 0x18
 5387 01ea 9742     		.uleb128 0x2117
 5388 01ec 19       		.uleb128 0x19
 5389 01ed 01       		.uleb128 0x1
 5390 01ee 13       		.uleb128 0x13
 5391 01ef 00       		.byte	0
 5392 01f0 00       		.byte	0
 5393 01f1 23       		.uleb128 0x23
 5394 01f2 2E       		.uleb128 0x2e
 5395 01f3 01       		.byte	0x1
 5396 01f4 03       		.uleb128 0x3
 5397 01f5 0E       		.uleb128 0xe
 5398 01f6 3A       		.uleb128 0x3a
ARM GAS  C:\Users\JENNEW~1\AppData\Local\Temp\ccAtvZYd.s 			page 108


 5399 01f7 0B       		.uleb128 0xb
 5400 01f8 3B       		.uleb128 0x3b
 5401 01f9 05       		.uleb128 0x5
 5402 01fa 27       		.uleb128 0x27
 5403 01fb 19       		.uleb128 0x19
 5404 01fc 49       		.uleb128 0x49
 5405 01fd 13       		.uleb128 0x13
 5406 01fe 11       		.uleb128 0x11
 5407 01ff 01       		.uleb128 0x1
 5408 0200 12       		.uleb128 0x12
 5409 0201 06       		.uleb128 0x6
 5410 0202 40       		.uleb128 0x40
 5411 0203 18       		.uleb128 0x18
 5412 0204 9742     		.uleb128 0x2117
 5413 0206 19       		.uleb128 0x19
 5414 0207 01       		.uleb128 0x1
 5415 0208 13       		.uleb128 0x13
 5416 0209 00       		.byte	0
 5417 020a 00       		.byte	0
 5418 020b 24       		.uleb128 0x24
 5419 020c 34       		.uleb128 0x34
 5420 020d 00       		.byte	0
 5421 020e 03       		.uleb128 0x3
 5422 020f 08       		.uleb128 0x8
 5423 0210 3A       		.uleb128 0x3a
 5424 0211 0B       		.uleb128 0xb
 5425 0212 3B       		.uleb128 0x3b
 5426 0213 05       		.uleb128 0x5
 5427 0214 49       		.uleb128 0x49
 5428 0215 13       		.uleb128 0x13
 5429 0216 02       		.uleb128 0x2
 5430 0217 18       		.uleb128 0x18
 5431 0218 00       		.byte	0
 5432 0219 00       		.byte	0
 5433 021a 25       		.uleb128 0x25
 5434 021b 34       		.uleb128 0x34
 5435 021c 00       		.byte	0
 5436 021d 03       		.uleb128 0x3
 5437 021e 0E       		.uleb128 0xe
 5438 021f 3A       		.uleb128 0x3a
 5439 0220 0B       		.uleb128 0xb
 5440 0221 3B       		.uleb128 0x3b
 5441 0222 05       		.uleb128 0x5
 5442 0223 49       		.uleb128 0x49
 5443 0224 13       		.uleb128 0x13
 5444 0225 02       		.uleb128 0x2
 5445 0226 18       		.uleb128 0x18
 5446 0227 00       		.byte	0
 5447 0228 00       		.byte	0
 5448 0229 26       		.uleb128 0x26
 5449 022a 2E       		.uleb128 0x2e
 5450 022b 01       		.byte	0x1
 5451 022c 03       		.uleb128 0x3
 5452 022d 0E       		.uleb128 0xe
 5453 022e 3A       		.uleb128 0x3a
 5454 022f 0B       		.uleb128 0xb
 5455 0230 3B       		.uleb128 0x3b
ARM GAS  C:\Users\JENNEW~1\AppData\Local\Temp\ccAtvZYd.s 			page 109


 5456 0231 05       		.uleb128 0x5
 5457 0232 27       		.uleb128 0x27
 5458 0233 19       		.uleb128 0x19
 5459 0234 49       		.uleb128 0x49
 5460 0235 13       		.uleb128 0x13
 5461 0236 11       		.uleb128 0x11
 5462 0237 01       		.uleb128 0x1
 5463 0238 12       		.uleb128 0x12
 5464 0239 06       		.uleb128 0x6
 5465 023a 40       		.uleb128 0x40
 5466 023b 18       		.uleb128 0x18
 5467 023c 9642     		.uleb128 0x2116
 5468 023e 19       		.uleb128 0x19
 5469 023f 01       		.uleb128 0x1
 5470 0240 13       		.uleb128 0x13
 5471 0241 00       		.byte	0
 5472 0242 00       		.byte	0
 5473 0243 27       		.uleb128 0x27
 5474 0244 2E       		.uleb128 0x2e
 5475 0245 01       		.byte	0x1
 5476 0246 3F       		.uleb128 0x3f
 5477 0247 19       		.uleb128 0x19
 5478 0248 03       		.uleb128 0x3
 5479 0249 0E       		.uleb128 0xe
 5480 024a 3A       		.uleb128 0x3a
 5481 024b 0B       		.uleb128 0xb
 5482 024c 3B       		.uleb128 0x3b
 5483 024d 05       		.uleb128 0x5
 5484 024e 27       		.uleb128 0x27
 5485 024f 19       		.uleb128 0x19
 5486 0250 49       		.uleb128 0x49
 5487 0251 13       		.uleb128 0x13
 5488 0252 11       		.uleb128 0x11
 5489 0253 01       		.uleb128 0x1
 5490 0254 12       		.uleb128 0x12
 5491 0255 06       		.uleb128 0x6
 5492 0256 40       		.uleb128 0x40
 5493 0257 18       		.uleb128 0x18
 5494 0258 9642     		.uleb128 0x2116
 5495 025a 19       		.uleb128 0x19
 5496 025b 01       		.uleb128 0x1
 5497 025c 13       		.uleb128 0x13
 5498 025d 00       		.byte	0
 5499 025e 00       		.byte	0
 5500 025f 28       		.uleb128 0x28
 5501 0260 2E       		.uleb128 0x2e
 5502 0261 01       		.byte	0x1
 5503 0262 3F       		.uleb128 0x3f
 5504 0263 19       		.uleb128 0x19
 5505 0264 03       		.uleb128 0x3
 5506 0265 0E       		.uleb128 0xe
 5507 0266 3A       		.uleb128 0x3a
 5508 0267 0B       		.uleb128 0xb
 5509 0268 3B       		.uleb128 0x3b
 5510 0269 05       		.uleb128 0x5
 5511 026a 27       		.uleb128 0x27
 5512 026b 19       		.uleb128 0x19
ARM GAS  C:\Users\JENNEW~1\AppData\Local\Temp\ccAtvZYd.s 			page 110


 5513 026c 11       		.uleb128 0x11
 5514 026d 01       		.uleb128 0x1
 5515 026e 12       		.uleb128 0x12
 5516 026f 06       		.uleb128 0x6
 5517 0270 40       		.uleb128 0x40
 5518 0271 18       		.uleb128 0x18
 5519 0272 9642     		.uleb128 0x2116
 5520 0274 19       		.uleb128 0x19
 5521 0275 01       		.uleb128 0x1
 5522 0276 13       		.uleb128 0x13
 5523 0277 00       		.byte	0
 5524 0278 00       		.byte	0
 5525 0279 29       		.uleb128 0x29
 5526 027a 05       		.uleb128 0x5
 5527 027b 00       		.byte	0
 5528 027c 03       		.uleb128 0x3
 5529 027d 0E       		.uleb128 0xe
 5530 027e 3A       		.uleb128 0x3a
 5531 027f 0B       		.uleb128 0xb
 5532 0280 3B       		.uleb128 0x3b
 5533 0281 05       		.uleb128 0x5
 5534 0282 49       		.uleb128 0x49
 5535 0283 13       		.uleb128 0x13
 5536 0284 02       		.uleb128 0x2
 5537 0285 18       		.uleb128 0x18
 5538 0286 00       		.byte	0
 5539 0287 00       		.byte	0
 5540 0288 2A       		.uleb128 0x2a
 5541 0289 34       		.uleb128 0x34
 5542 028a 00       		.byte	0
 5543 028b 03       		.uleb128 0x3
 5544 028c 0E       		.uleb128 0xe
 5545 028d 3A       		.uleb128 0x3a
 5546 028e 0B       		.uleb128 0xb
 5547 028f 3B       		.uleb128 0x3b
 5548 0290 05       		.uleb128 0x5
 5549 0291 49       		.uleb128 0x49
 5550 0292 13       		.uleb128 0x13
 5551 0293 3F       		.uleb128 0x3f
 5552 0294 19       		.uleb128 0x19
 5553 0295 3C       		.uleb128 0x3c
 5554 0296 19       		.uleb128 0x19
 5555 0297 00       		.byte	0
 5556 0298 00       		.byte	0
 5557 0299 2B       		.uleb128 0x2b
 5558 029a 34       		.uleb128 0x34
 5559 029b 00       		.byte	0
 5560 029c 03       		.uleb128 0x3
 5561 029d 0E       		.uleb128 0xe
 5562 029e 3A       		.uleb128 0x3a
 5563 029f 0B       		.uleb128 0xb
 5564 02a0 3B       		.uleb128 0x3b
 5565 02a1 0B       		.uleb128 0xb
 5566 02a2 49       		.uleb128 0x49
 5567 02a3 13       		.uleb128 0x13
 5568 02a4 3F       		.uleb128 0x3f
 5569 02a5 19       		.uleb128 0x19
ARM GAS  C:\Users\JENNEW~1\AppData\Local\Temp\ccAtvZYd.s 			page 111


 5570 02a6 3C       		.uleb128 0x3c
 5571 02a7 19       		.uleb128 0x19
 5572 02a8 00       		.byte	0
 5573 02a9 00       		.byte	0
 5574 02aa 00       		.byte	0
 5575              		.section	.debug_aranges,"",%progbits
 5576 0000 EC000000 		.4byte	0xec
 5577 0004 0200     		.2byte	0x2
 5578 0006 00000000 		.4byte	.Ldebug_info0
 5579 000a 04       		.byte	0x4
 5580 000b 00       		.byte	0
 5581 000c 0000     		.2byte	0
 5582 000e 0000     		.2byte	0
 5583 0010 00000000 		.4byte	.LFB63
 5584 0014 34000000 		.4byte	.LFE63-.LFB63
 5585 0018 00000000 		.4byte	.LFB64
 5586 001c 80000000 		.4byte	.LFE64-.LFB64
 5587 0020 00000000 		.4byte	.LFB65
 5588 0024 F0000000 		.4byte	.LFE65-.LFB65
 5589 0028 00000000 		.4byte	.LFB66
 5590 002c 26000000 		.4byte	.LFE66-.LFB66
 5591 0030 00000000 		.4byte	.LFB67
 5592 0034 68000000 		.4byte	.LFE67-.LFB67
 5593 0038 00000000 		.4byte	.LFB68
 5594 003c 20000000 		.4byte	.LFE68-.LFB68
 5595 0040 00000000 		.4byte	.LFB69
 5596 0044 1C000000 		.4byte	.LFE69-.LFB69
 5597 0048 00000000 		.4byte	.LFB70
 5598 004c 1C000000 		.4byte	.LFE70-.LFB70
 5599 0050 00000000 		.4byte	.LFB71
 5600 0054 20000000 		.4byte	.LFE71-.LFB71
 5601 0058 00000000 		.4byte	.LFB72
 5602 005c 18000000 		.4byte	.LFE72-.LFB72
 5603 0060 00000000 		.4byte	.LFB73
 5604 0064 40000000 		.4byte	.LFE73-.LFB73
 5605 0068 00000000 		.4byte	.LFB74
 5606 006c 80000000 		.4byte	.LFE74-.LFB74
 5607 0070 00000000 		.4byte	.LFB75
 5608 0074 C0010000 		.4byte	.LFE75-.LFB75
 5609 0078 00000000 		.4byte	.LFB76
 5610 007c 1C000000 		.4byte	.LFE76-.LFB76
 5611 0080 00000000 		.4byte	.LFB77
 5612 0084 94000000 		.4byte	.LFE77-.LFB77
 5613 0088 00000000 		.4byte	.LFB78
 5614 008c 20000000 		.4byte	.LFE78-.LFB78
 5615 0090 00000000 		.4byte	.LFB79
 5616 0094 50000000 		.4byte	.LFE79-.LFB79
 5617 0098 00000000 		.4byte	.LFB80
 5618 009c 3E000000 		.4byte	.LFE80-.LFB80
 5619 00a0 00000000 		.4byte	.LFB81
 5620 00a4 A0000000 		.4byte	.LFE81-.LFB81
 5621 00a8 00000000 		.4byte	.LFB82
 5622 00ac 1C000000 		.4byte	.LFE82-.LFB82
 5623 00b0 00000000 		.4byte	.LFB83
 5624 00b4 1A000000 		.4byte	.LFE83-.LFB83
 5625 00b8 00000000 		.4byte	.LFB84
 5626 00bc A4000000 		.4byte	.LFE84-.LFB84
ARM GAS  C:\Users\JENNEW~1\AppData\Local\Temp\ccAtvZYd.s 			page 112


 5627 00c0 00000000 		.4byte	.LFB85
 5628 00c4 28000000 		.4byte	.LFE85-.LFB85
 5629 00c8 00000000 		.4byte	.LFB86
 5630 00cc 3C000000 		.4byte	.LFE86-.LFB86
 5631 00d0 00000000 		.4byte	.LFB87
 5632 00d4 98010000 		.4byte	.LFE87-.LFB87
 5633 00d8 00000000 		.4byte	.LFB88
 5634 00dc 24020000 		.4byte	.LFE88-.LFB88
 5635 00e0 00000000 		.4byte	.LFB89
 5636 00e4 C0000000 		.4byte	.LFE89-.LFB89
 5637 00e8 00000000 		.4byte	0
 5638 00ec 00000000 		.4byte	0
 5639              		.section	.debug_ranges,"",%progbits
 5640              	.Ldebug_ranges0:
 5641 0000 00000000 		.4byte	.LFB63
 5642 0004 34000000 		.4byte	.LFE63
 5643 0008 00000000 		.4byte	.LFB64
 5644 000c 80000000 		.4byte	.LFE64
 5645 0010 00000000 		.4byte	.LFB65
 5646 0014 F0000000 		.4byte	.LFE65
 5647 0018 00000000 		.4byte	.LFB66
 5648 001c 26000000 		.4byte	.LFE66
 5649 0020 00000000 		.4byte	.LFB67
 5650 0024 68000000 		.4byte	.LFE67
 5651 0028 00000000 		.4byte	.LFB68
 5652 002c 20000000 		.4byte	.LFE68
 5653 0030 00000000 		.4byte	.LFB69
 5654 0034 1C000000 		.4byte	.LFE69
 5655 0038 00000000 		.4byte	.LFB70
 5656 003c 1C000000 		.4byte	.LFE70
 5657 0040 00000000 		.4byte	.LFB71
 5658 0044 20000000 		.4byte	.LFE71
 5659 0048 00000000 		.4byte	.LFB72
 5660 004c 18000000 		.4byte	.LFE72
 5661 0050 00000000 		.4byte	.LFB73
 5662 0054 40000000 		.4byte	.LFE73
 5663 0058 00000000 		.4byte	.LFB74
 5664 005c 80000000 		.4byte	.LFE74
 5665 0060 00000000 		.4byte	.LFB75
 5666 0064 C0010000 		.4byte	.LFE75
 5667 0068 00000000 		.4byte	.LFB76
 5668 006c 1C000000 		.4byte	.LFE76
 5669 0070 00000000 		.4byte	.LFB77
 5670 0074 94000000 		.4byte	.LFE77
 5671 0078 00000000 		.4byte	.LFB78
 5672 007c 20000000 		.4byte	.LFE78
 5673 0080 00000000 		.4byte	.LFB79
 5674 0084 50000000 		.4byte	.LFE79
 5675 0088 00000000 		.4byte	.LFB80
 5676 008c 3E000000 		.4byte	.LFE80
 5677 0090 00000000 		.4byte	.LFB81
 5678 0094 A0000000 		.4byte	.LFE81
 5679 0098 00000000 		.4byte	.LFB82
 5680 009c 1C000000 		.4byte	.LFE82
 5681 00a0 00000000 		.4byte	.LFB83
 5682 00a4 1A000000 		.4byte	.LFE83
 5683 00a8 00000000 		.4byte	.LFB84
ARM GAS  C:\Users\JENNEW~1\AppData\Local\Temp\ccAtvZYd.s 			page 113


 5684 00ac A4000000 		.4byte	.LFE84
 5685 00b0 00000000 		.4byte	.LFB85
 5686 00b4 28000000 		.4byte	.LFE85
 5687 00b8 00000000 		.4byte	.LFB86
 5688 00bc 3C000000 		.4byte	.LFE86
 5689 00c0 00000000 		.4byte	.LFB87
 5690 00c4 98010000 		.4byte	.LFE87
 5691 00c8 00000000 		.4byte	.LFB88
 5692 00cc 24020000 		.4byte	.LFE88
 5693 00d0 00000000 		.4byte	.LFB89
 5694 00d4 C0000000 		.4byte	.LFE89
 5695 00d8 00000000 		.4byte	0
 5696 00dc 00000000 		.4byte	0
 5697              		.section	.debug_line,"",%progbits
 5698              	.Ldebug_line0:
 5699 0000 F2050000 		.section	.debug_str,"MS",%progbits,1
 5699      0200F201 
 5699      00000201 
 5699      FB0E0D00 
 5699      01010101 
 5700              	.LASF173:
 5701 0000 6374726C 		.ascii	"ctrl_mode\000"
 5701      5F6D6F64 
 5701      6500
 5702              	.LASF113:
 5703 000a 68616D66 		.ascii	"hamfly_telemetry_t\000"
 5703      6C795F74 
 5703      656C656D 
 5703      65747279 
 5703      5F7400
 5704              	.LASF148:
 5705 001d 4552524F 		.ascii	"ERROR\000"
 5705      5200
 5706              	.LASF59:
 5707 0023 6770735F 		.ascii	"gps_raw_lat\000"
 5707      7261775F 
 5707      6C617400 
 5708              	.LASF174:
 5709 002f 6162735F 		.ascii	"abs_pan_target\000"
 5709      70616E5F 
 5709      74617267 
 5709      657400
 5710              	.LASF89:
 5711 003e 73797373 		.ascii	"sysstat_cpu_pct\000"
 5711      7461745F 
 5711      6370755F 
 5711      70637400 
 5712              	.LASF203:
 5713 004e 656E7472 		.ascii	"entry_stby_hold\000"
 5713      795F7374 
 5713      62795F68 
 5713      6F6C6400 
 5714              	.LASF222:
 5715 005e 6275696C 		.ascii	"build_manu_joystick\000"
 5715      645F6D61 
 5715      6E755F6A 
 5715      6F797374 
ARM GAS  C:\Users\JENNEW~1\AppData\Local\Temp\ccAtvZYd.s 			page 114


 5715      69636B00 
 5716              	.LASF204:
 5717 0072 656E7472 		.ascii	"entry_manu_joystick\000"
 5717      795F6D61 
 5717      6E755F6A 
 5717      6F797374 
 5717      69636B00 
 5718              	.LASF39:
 5719 0086 68616D66 		.ascii	"hamfly_hal_t\000"
 5719      6C795F68 
 5719      616C5F74 
 5719      00
 5720              	.LASF153:
 5721 0093 4155544F 		.ascii	"AUTO_HOME\000"
 5721      5F484F4D 
 5721      4500
 5722              	.LASF200:
 5723 009d 6170705F 		.ascii	"app_raise_error\000"
 5723      72616973 
 5723      655F6572 
 5723      726F7200 
 5724              	.LASF13:
 5725 00ad 756E7369 		.ascii	"unsigned int\000"
 5725      676E6564 
 5725      20696E74 
 5725      00
 5726              	.LASF224:
 5727 00ba 6170705F 		.ascii	"app_build_control\000"
 5727      6275696C 
 5727      645F636F 
 5727      6E74726F 
 5727      6C00
 5728              	.LASF169:
 5729 00cc 70726576 		.ascii	"prev_leaf\000"
 5729      5F6C6561 
 5729      6600
 5730              	.LASF114:
 5731 00d6 68656164 		.ascii	"head\000"
 5731      00
 5732              	.LASF7:
 5733 00db 5F5F696E 		.ascii	"__int32_t\000"
 5733      7433325F 
 5733      7400
 5734              	.LASF237:
 5735 00e5 73746174 		.ascii	"state_names\000"
 5735      655F6E61 
 5735      6D657300 
 5736              	.LASF87:
 5737 00f1 73797373 		.ascii	"sysstat_gps_sats\000"
 5737      7461745F 
 5737      6770735F 
 5737      73617473 
 5737      00
 5738              	.LASF240:
 5739 0102 474E5520 		.ascii	"GNU C11 5.4.1 20160609 (release) [ARM/embedded-5-br"
 5739      43313120 
 5739      352E342E 
ARM GAS  C:\Users\JENNEW~1\AppData\Local\Temp\ccAtvZYd.s 			page 115


 5739      31203230 
 5739      31363036 
 5740 0135 616E6368 		.ascii	"anch revision 237715] -mcpu=cortex-m3 -mthumb -g -O"
 5740      20726576 
 5740      6973696F 
 5740      6E203233 
 5740      37373135 
 5741 0168 30202D66 		.ascii	"0 -ffunction-sections -ffat-lto-objects\000"
 5741      66756E63 
 5741      74696F6E 
 5741      2D736563 
 5741      74696F6E 
 5742              	.LASF99:
 5743 0190 6D61675F 		.ascii	"mag_x\000"
 5743      7800
 5744              	.LASF100:
 5745 0196 6D61675F 		.ascii	"mag_y\000"
 5745      7900
 5746              	.LASF101:
 5747 019c 6D61675F 		.ascii	"mag_z\000"
 5747      7A00
 5748              	.LASF41:
 5749 01a2 62617474 		.ascii	"battery_left_v\000"
 5749      6572795F 
 5749      6C656674 
 5749      5F7600
 5750              	.LASF38:
 5751 01b1 6765745F 		.ascii	"get_tick_ms\000"
 5751      7469636B 
 5751      5F6D7300 
 5752              	.LASF35:
 5753 01bd 6B696C6C 		.ascii	"kill\000"
 5753      00
 5754              	.LASF185:
 5755 01c2 6E756467 		.ascii	"nudge_hold\000"
 5755      655F686F 
 5755      6C6400
 5756              	.LASF165:
 5757 01cd 5345565F 		.ascii	"SEV_FATAL\000"
 5757      46415441 
 5757      4C00
 5758              	.LASF33:
 5759 01d7 726F6C6C 		.ascii	"roll_mode\000"
 5759      5F6D6F64 
 5759      6500
 5760              	.LASF131:
 5761 01e1 70656E64 		.ascii	"pending_attr\000"
 5761      696E675F 
 5761      61747472 
 5761      00
 5762              	.LASF82:
 5763 01ee 666C6167 		.ascii	"flag_compass_error\000"
 5763      5F636F6D 
 5763      70617373 
 5763      5F657272 
 5763      6F7200
 5764              	.LASF103:
ARM GAS  C:\Users\JENNEW~1\AppData\Local\Temp\ccAtvZYd.s 			page 116


 5765 0201 6D61675F 		.ascii	"mag_freq\000"
 5765      66726571 
 5765      00
 5766              	.LASF25:
 5767 020a 48414D46 		.ascii	"HAMFLY_RATE\000"
 5767      4C595F52 
 5767      41544500 
 5768              	.LASF98:
 5769 0216 6D61675F 		.ascii	"mag_valid\000"
 5769      76616C69 
 5769      6400
 5770              	.LASF178:
 5771 0220 6F726967 		.ascii	"origin_set\000"
 5771      696E5F73 
 5771      657400
 5772              	.LASF205:
 5773 022b 65786974 		.ascii	"exit_manu_joystick\000"
 5773      5F6D616E 
 5773      755F6A6F 
 5773      79737469 
 5773      636B00
 5774              	.LASF217:
 5775 023e 6261636B 		.ascii	"back\000"
 5775      00
 5776              	.LASF73:
 5777 0243 6174745F 		.ascii	"att_yaw_deg\000"
 5777      7961775F 
 5777      64656700 
 5778              	.LASF111:
 5779 024f 73797365 		.ascii	"sysecho_imu_rate\000"
 5779      63686F5F 
 5779      696D755F 
 5779      72617465 
 5779      00
 5780              	.LASF145:
 5781 0260 53544259 		.ascii	"STBY\000"
 5781      00
 5782              	.LASF18:
 5783 0265 75696E74 		.ascii	"uint32_t\000"
 5783      33325F74 
 5783      00
 5784              	.LASF54:
 5785 026e 6770735F 		.ascii	"gps_ground_spd_ms\000"
 5785      67726F75 
 5785      6E645F73 
 5785      70645F6D 
 5785      7300
 5786              	.LASF124:
 5787 0280 75617274 		.ascii	"uart_err_flags\000"
 5787      5F657272 
 5787      5F666C61 
 5787      677300
 5788              	.LASF180:
 5789 028f 6C617374 		.ascii	"last_diag_ms\000"
 5789      5F646961 
 5789      675F6D73 
 5789      00
ARM GAS  C:\Users\JENNEW~1\AppData\Local\Temp\ccAtvZYd.s 			page 117


 5790              	.LASF37:
 5791 029c 75617274 		.ascii	"uart_putc\000"
 5791      5F707574 
 5791      6300
 5792              	.LASF19:
 5793 02a6 666C6F61 		.ascii	"float\000"
 5793      7400
 5794              	.LASF182:
 5795 02ac 64696167 		.ascii	"diag_active\000"
 5795      5F616374 
 5795      69766500 
 5796              	.LASF29:
 5797 02b8 74696C74 		.ascii	"tilt\000"
 5797      00
 5798              	.LASF15:
 5799 02bd 696E7431 		.ascii	"int16_t\000"
 5799      365F7400 
 5800              	.LASF12:
 5801 02c5 6C6F6E67 		.ascii	"long long unsigned int\000"
 5801      206C6F6E 
 5801      6720756E 
 5801      7369676E 
 5801      65642069 
 5802              	.LASF126:
 5803 02dc 74656C65 		.ascii	"telemetry\000"
 5803      6D657472 
 5803      7900
 5804              	.LASF69:
 5805 02e6 6261726F 		.ascii	"baro_roc_ms\000"
 5805      5F726F63 
 5805      5F6D7300 
 5806              	.LASF170:
 5807 02f2 6572725F 		.ascii	"err_sev\000"
 5807      73657600 
 5808              	.LASF158:
 5809 02fa 4155544F 		.ascii	"AUTO_NO_LOCK\000"
 5809      5F4E4F5F 
 5809      4C4F434B 
 5809      00
 5810              	.LASF142:
 5811 0307 6A6F795F 		.ascii	"joy_sensitivity_t\000"
 5811      73656E73 
 5811      69746976 
 5811      6974795F 
 5811      7400
 5812              	.LASF197:
 5813 0319 636F6D6D 		.ascii	"common\000"
 5813      6F6E00
 5814              	.LASF66:
 5815 0320 6770735F 		.ascii	"gps_raw_sacc\000"
 5815      7261775F 
 5815      73616363 
 5815      00
 5816              	.LASF97:
 5817 032d 73797373 		.ascii	"sysstat_charge_mah\000"
 5817      7461745F 
 5817      63686172 
ARM GAS  C:\Users\JENNEW~1\AppData\Local\Temp\ccAtvZYd.s 			page 118


 5817      67655F6D 
 5817      616800
 5818              	.LASF5:
 5819 0340 5F5F7569 		.ascii	"__uint16_t\000"
 5819      6E743136 
 5819      5F7400
 5820              	.LASF141:
 5821 034b 53454E53 		.ascii	"SENSE_HIGH\000"
 5821      455F4849 
 5821      474800
 5822              	.LASF81:
 5823 0356 73797373 		.ascii	"sysstat_valid\000"
 5823      7461745F 
 5823      76616C69 
 5823      6400
 5824              	.LASF84:
 5825 0364 666C6167 		.ascii	"flag_radio_los\000"
 5825      5F726164 
 5825      696F5F6C 
 5825      6F7300
 5826              	.LASF71:
 5827 0373 6174745F 		.ascii	"att_timestamp_ms\000"
 5827      74696D65 
 5827      7374616D 
 5827      705F6D73 
 5827      00
 5828              	.LASF34:
 5829 0384 656E6162 		.ascii	"enable\000"
 5829      6C6500
 5830              	.LASF159:
 5831 038b 4552524F 		.ascii	"ERROR_ACTIVE\000"
 5831      525F4143 
 5831      54495645 
 5831      00
 5832              	.LASF129:
 5833 0398 74786275 		.ascii	"txbuf\000"
 5833      6600
 5834              	.LASF94:
 5835 039e 73797373 		.ascii	"sysstat_cam_status\000"
 5835      7461745F 
 5835      63616D5F 
 5835      73746174 
 5835      757300
 5836              	.LASF175:
 5837 03b1 6162735F 		.ascii	"abs_tilt_target\000"
 5837      74696C74 
 5837      5F746172 
 5837      67657400 
 5838              	.LASF90:
 5839 03c1 73797373 		.ascii	"sysstat_status_flags\000"
 5839      7461745F 
 5839      73746174 
 5839      75735F66 
 5839      6C616773 
 5840              	.LASF108:
 5841 03d6 73797365 		.ascii	"sysecho_valid\000"
 5841      63686F5F 
ARM GAS  C:\Users\JENNEW~1\AppData\Local\Temp\ccAtvZYd.s 			page 119


 5841      76616C69 
 5841      6400
 5842              	.LASF183:
 5843 03e4 73656E73 		.ascii	"sense\000"
 5843      6500
 5844              	.LASF31:
 5845 03ea 70616E5F 		.ascii	"pan_mode\000"
 5845      6D6F6465 
 5845      00
 5846              	.LASF154:
 5847 03f3 4155544F 		.ascii	"AUTO_ACQ_GPS\000"
 5847      5F414351 
 5847      5F475053 
 5847      00
 5848              	.LASF72:
 5849 0400 6174745F 		.ascii	"att_pitch_deg\000"
 5849      70697463 
 5849      685F6465 
 5849      6700
 5850              	.LASF196:
 5851 040e 74617267 		.ascii	"target\000"
 5851      657400
 5852              	.LASF235:
 5853 0415 6F6E5F6B 		.ascii	"on_key\000"
 5853      657900
 5854              	.LASF112:
 5855 041c 5F426F6F 		.ascii	"_Bool\000"
 5855      6C00
 5856              	.LASF179:
 5857 0422 6C617374 		.ascii	"last_tx_ms\000"
 5857      5F74785F 
 5857      6D7300
 5858              	.LASF28:
 5859 042d 68616D66 		.ascii	"hamfly_control_mode_t\000"
 5859      6C795F63 
 5859      6F6E7472 
 5859      6F6C5F6D 
 5859      6F64655F 
 5860              	.LASF213:
 5861 0443 68616E64 		.ascii	"handle_global_key\000"
 5861      6C655F67 
 5861      6C6F6261 
 5861      6C5F6B65 
 5861      7900
 5862              	.LASF120:
 5863 0455 72785F70 		.ascii	"rx_packets\000"
 5863      61636B65 
 5863      747300
 5864              	.LASF52:
 5865 0460 6770735F 		.ascii	"gps_lon_deg\000"
 5865      6C6F6E5F 
 5865      64656700 
 5866              	.LASF228:
 5867 046c 6B65795F 		.ascii	"key_manu_joystick\000"
 5867      6D616E75 
 5867      5F6A6F79 
 5867      73746963 
ARM GAS  C:\Users\JENNEW~1\AppData\Local\Temp\ccAtvZYd.s 			page 120


 5867      6B00
 5868              	.LASF80:
 5869 047e 6174745F 		.ascii	"att_yaw_err_deg\000"
 5869      7961775F 
 5869      6572725F 
 5869      64656700 
 5870              	.LASF116:
 5871 048e 64726F70 		.ascii	"drops\000"
 5871      7300
 5872              	.LASF199:
 5873 0494 6170705F 		.ascii	"app_start\000"
 5873      73746172 
 5873      7400
 5874              	.LASF61:
 5875 049e 6770735F 		.ascii	"gps_raw_alt\000"
 5875      7261775F 
 5875      616C7400 
 5876              	.LASF127:
 5877 04aa 73746174 		.ascii	"statistics\000"
 5877      69737469 
 5877      637300
 5878              	.LASF56:
 5879 04b5 6770735F 		.ascii	"gps_hacc_m\000"
 5879      68616363 
 5879      5F6D00
 5880              	.LASF32:
 5881 04c0 74696C74 		.ascii	"tilt_mode\000"
 5881      5F6D6F64 
 5881      6500
 5882              	.LASF147:
 5883 04ca 4155544F 		.ascii	"AUTO\000"
 5883      00
 5884              	.LASF211:
 5885 04cf 636F7379 		.ascii	"cosy\000"
 5885      00
 5886              	.LASF212:
 5887 04d4 7072696E 		.ascii	"print_help\000"
 5887      745F6865 
 5887      6C7000
 5888              	.LASF137:
 5889 04df 70656E64 		.ascii	"pending_payload_len\000"
 5889      696E675F 
 5889      7061796C 
 5889      6F61645F 
 5889      6C656E00 
 5890              	.LASF207:
 5891 04f3 656E7472 		.ascii	"entry_error_active\000"
 5891      795F6572 
 5891      726F725F 
 5891      61637469 
 5891      766500
 5892              	.LASF177:
 5893 0506 6F726967 		.ascii	"origin_tilt_deg\000"
 5893      696E5F74 
 5893      696C745F 
 5893      64656700 
 5894              	.LASF21:
ARM GAS  C:\Users\JENNEW~1\AppData\Local\Temp\ccAtvZYd.s 			page 121


 5895 0516 63686172 		.ascii	"char\000"
 5895      00
 5896              	.LASF161:
 5897 051b 73746174 		.ascii	"state_t\000"
 5897      655F7400 
 5898              	.LASF188:
 5899 0523 6E756467 		.ascii	"nudge_base_tilt_deg\000"
 5899      655F6261 
 5899      73655F74 
 5899      696C745F 
 5899      64656700 
 5900              	.LASF93:
 5901 0537 73797373 		.ascii	"sysstat_imu_rate\000"
 5901      7461745F 
 5901      696D755F 
 5901      72617465 
 5901      00
 5902              	.LASF223:
 5903 0548 6275696C 		.ascii	"build_error\000"
 5903      645F6572 
 5903      726F7200 
 5904              	.LASF44:
 5905 0554 67696D62 		.ascii	"gimbal_i\000"
 5905      616C5F69 
 5905      00
 5906              	.LASF45:
 5907 055d 67696D62 		.ascii	"gimbal_j\000"
 5907      616C5F6A 
 5907      00
 5908              	.LASF46:
 5909 0566 67696D62 		.ascii	"gimbal_k\000"
 5909      616C5F6B 
 5909      00
 5910              	.LASF163:
 5911 056f 5345565F 		.ascii	"SEV_WARN\000"
 5911      5741524E 
 5911      00
 5912              	.LASF43:
 5913 0578 67696D62 		.ascii	"gimbal_r\000"
 5913      616C5F72 
 5913      00
 5914              	.LASF219:
 5915 0581 6170705F 		.ascii	"app_dispatch_key\000"
 5915      64697370 
 5915      61746368 
 5915      5F6B6579 
 5915      00
 5916              	.LASF30:
 5917 0592 726F6C6C 		.ascii	"roll\000"
 5917      00
 5918              	.LASF14:
 5919 0597 75696E74 		.ascii	"uint8_t\000"
 5919      385F7400 
 5920              	.LASF122:
 5921 059f 72785F62 		.ascii	"rx_bad_checksum\000"
 5921      61645F63 
 5921      6865636B 
ARM GAS  C:\Users\JENNEW~1\AppData\Local\Temp\ccAtvZYd.s 			page 122


 5921      73756D00 
 5922              	.LASF208:
 5923 05af 7365745F 		.ascii	"set_origin\000"
 5923      6F726967 
 5923      696E00
 5924              	.LASF216:
 5925 05ba 6B65795F 		.ascii	"key_error_active\000"
 5925      6572726F 
 5925      725F6163 
 5925      74697665 
 5925      00
 5926              	.LASF144:
 5927 05cb 524F4F54 		.ascii	"ROOT\000"
 5927      00
 5928              	.LASF117:
 5929 05d0 68616D66 		.ascii	"hamfly_rb_t\000"
 5929      6C795F72 
 5929      625F7400 
 5930              	.LASF104:
 5931 05dc 6D61675F 		.ascii	"mag_off_x\000"
 5931      6F66665F 
 5931      7800
 5932              	.LASF105:
 5933 05e6 6D61675F 		.ascii	"mag_off_y\000"
 5933      6F66665F 
 5933      7900
 5934              	.LASF106:
 5935 05f0 6D61675F 		.ascii	"mag_off_z\000"
 5935      6F66665F 
 5935      7A00
 5936              	.LASF58:
 5937 05fa 6770735F 		.ascii	"gps_sacc_ms\000"
 5937      73616363 
 5937      5F6D7300 
 5938              	.LASF198:
 5939 0606 70617468 		.ascii	"path\000"
 5939      00
 5940              	.LASF11:
 5941 060b 6C6F6E67 		.ascii	"long long int\000"
 5941      206C6F6E 
 5941      6720696E 
 5941      7400
 5942              	.LASF218:
 5943 0619 6170705F 		.ascii	"app_state_name\000"
 5943      73746174 
 5943      655F6E61 
 5943      6D6500
 5944              	.LASF50:
 5945 0628 6770735F 		.ascii	"gps_locked\000"
 5945      6C6F636B 
 5945      656400
 5946              	.LASF133:
 5947 0633 70656E64 		.ascii	"pending_ready\000"
 5947      696E675F 
 5947      72656164 
 5947      7900
 5948              	.LASF40:
ARM GAS  C:\Users\JENNEW~1\AppData\Local\Temp\ccAtvZYd.s 			page 123


 5949 0641 76616C69 		.ascii	"valid\000"
 5949      6400
 5950              	.LASF119:
 5951 0647 74785F62 		.ascii	"tx_bytes\000"
 5951      79746573 
 5951      00
 5952              	.LASF239:
 5953 0650 675F7469 		.ascii	"g_tick_ms\000"
 5953      636B5F6D 
 5953      7300
 5954              	.LASF195:
 5955 065a 64657074 		.ascii	"depth_of\000"
 5955      685F6F66 
 5955      00
 5956              	.LASF167:
 5957 0663 67696D62 		.ascii	"gimbal\000"
 5957      616C00
 5958              	.LASF227:
 5959 066a 6474696C 		.ascii	"dtilt_deg\000"
 5959      745F6465 
 5959      6700
 5960              	.LASF233:
 5961 0674 6F6E5F65 		.ascii	"on_entry\000"
 5961      6E747279 
 5961      00
 5962              	.LASF3:
 5963 067d 5F5F696E 		.ascii	"__int16_t\000"
 5963      7431365F 
 5963      7400
 5964              	.LASF49:
 5965 0687 6770735F 		.ascii	"gps_valid\000"
 5965      76616C69 
 5965      6400
 5966              	.LASF109:
 5967 0691 73797365 		.ascii	"sysecho_gps_locked\000"
 5967      63686F5F 
 5967      6770735F 
 5967      6C6F636B 
 5967      656400
 5968              	.LASF192:
 5969 06a4 73746174 		.ascii	"state_fn_t\000"
 5969      655F666E 
 5969      5F7400
 5970              	.LASF83:
 5971 06af 666C6167 		.ascii	"flag_gps_los\000"
 5971      5F677073 
 5971      5F6C6F73 
 5971      00
 5972              	.LASF156:
 5973 06bc 4155544F 		.ascii	"AUTO_TRACKING\000"
 5973      5F545241 
 5973      434B494E 
 5973      4700
 5974              	.LASF162:
 5975 06ca 5345565F 		.ascii	"SEV_USER\000"
 5975      55534552 
 5975      00
ARM GAS  C:\Users\JENNEW~1\AppData\Local\Temp\ccAtvZYd.s 			page 124


 5976              	.LASF143:
 5977 06d3 6A6F795F 		.ascii	"joy_cmd_t\000"
 5977      636D645F 
 5977      7400
 5978              	.LASF190:
 5979 06dd 7467745F 		.ascii	"tgt_tilt_deg\000"
 5979      74696C74 
 5979      5F646567 
 5979      00
 5980              	.LASF26:
 5981 06ea 48414D46 		.ascii	"HAMFLY_ABSOLUTE\000"
 5981      4C595F41 
 5981      42534F4C 
 5981      55544500 
 5982              	.LASF88:
 5983 06fa 73797373 		.ascii	"sysstat_temp_c\000"
 5983      7461745F 
 5983      74656D70 
 5983      5F6300
 5984              	.LASF221:
 5985 0709 6275696C 		.ascii	"build_stby\000"
 5985      645F7374 
 5985      627900
 5986              	.LASF63:
 5987 0714 6770735F 		.ascii	"gps_raw_hdg\000"
 5987      7261775F 
 5987      68646700 
 5988              	.LASF132:
 5989 0720 70656E64 		.ascii	"pending_sent_ms\000"
 5989      696E675F 
 5989      73656E74 
 5989      5F6D7300 
 5990              	.LASF134:
 5991 0730 70656E64 		.ascii	"pending_response_attr\000"
 5991      696E675F 
 5991      72657370 
 5991      6F6E7365 
 5991      5F617474 
 5992              	.LASF55:
 5993 0746 6770735F 		.ascii	"gps_heading_deg\000"
 5993      68656164 
 5993      696E675F 
 5993      64656700 
 5994              	.LASF22:
 5995 0756 6C6F6E67 		.ascii	"long double\000"
 5995      20646F75 
 5995      626C6500 
 5996              	.LASF16:
 5997 0762 75696E74 		.ascii	"uint16_t\000"
 5997      31365F74 
 5997      00
 5998              	.LASF202:
 5999 076b 656E7472 		.ascii	"entry_stby_defer\000"
 5999      795F7374 
 5999      62795F64 
 5999      65666572 
 5999      00
ARM GAS  C:\Users\JENNEW~1\AppData\Local\Temp\ccAtvZYd.s 			page 125


 6000              	.LASF140:
 6001 077c 53454E53 		.ascii	"SENSE_MED\000"
 6001      455F4D45 
 6001      4400
 6002              	.LASF107:
 6003 0786 6D61675F 		.ascii	"mag_declination\000"
 6003      6465636C 
 6003      696E6174 
 6003      696F6E00 
 6004              	.LASF47:
 6005 0796 67696D62 		.ascii	"gimbal_status1\000"
 6005      616C5F73 
 6005      74617475 
 6005      733100
 6006              	.LASF48:
 6007 07a5 67696D62 		.ascii	"gimbal_status2\000"
 6007      616C5F73 
 6007      74617475 
 6007      733200
 6008              	.LASF193:
 6009 07b4 6B65795F 		.ascii	"key_fn_t\000"
 6009      666E5F74 
 6009      00
 6010              	.LASF4:
 6011 07bd 73686F72 		.ascii	"short int\000"
 6011      7420696E 
 6011      7400
 6012              	.LASF160:
 6013 07c7 53544154 		.ascii	"STATE_COUNT\000"
 6013      455F434F 
 6013      554E5400 
 6014              	.LASF229:
 6015 07d3 6170705F 		.ascii	"app_manual_tick\000"
 6015      6D616E75 
 6015      616C5F74 
 6015      69636B00 
 6016              	.LASF8:
 6017 07e3 6C6F6E67 		.ascii	"long int\000"
 6017      20696E74 
 6017      00
 6018              	.LASF238:
 6019 07ec 49544D5F 		.ascii	"ITM_RxBuffer\000"
 6019      52784275 
 6019      66666572 
 6019      00
 6020              	.LASF149:
 6021 07f9 53544259 		.ascii	"STBY_DEFER\000"
 6021      5F444546 
 6021      455200
 6022              	.LASF135:
 6023 0804 70656E64 		.ascii	"pending_response_len\000"
 6023      696E675F 
 6023      72657370 
 6023      6F6E7365 
 6023      5F6C656E 
 6024              	.LASF214:
 6025 0819 6C656166 		.ascii	"leaf_traps_nav\000"
ARM GAS  C:\Users\JENNEW~1\AppData\Local\Temp\ccAtvZYd.s 			page 126


 6025      5F747261 
 6025      70735F6E 
 6025      617600
 6026              	.LASF194:
 6027 0828 6275696C 		.ascii	"build_fn_t\000"
 6027      645F666E 
 6027      5F7400
 6028              	.LASF62:
 6029 0833 6770735F 		.ascii	"gps_raw_spd\000"
 6029      7261775F 
 6029      73706400 
 6030              	.LASF121:
 6031 083f 72785F62 		.ascii	"rx_bytes\000"
 6031      79746573 
 6031      00
 6032              	.LASF53:
 6033 0848 6770735F 		.ascii	"gps_alt_m\000"
 6033      616C745F 
 6033      6D00
 6034              	.LASF176:
 6035 0852 6F726967 		.ascii	"origin_pan_deg\000"
 6035      696E5F70 
 6035      616E5F64 
 6035      656700
 6036              	.LASF136:
 6037 0861 70656E64 		.ascii	"pending_payload\000"
 6037      696E675F 
 6037      7061796C 
 6037      6F616400 
 6038              	.LASF232:
 6039 0871 70617265 		.ascii	"parent_of\000"
 6039      6E745F6F 
 6039      6600
 6040              	.LASF51:
 6041 087b 6770735F 		.ascii	"gps_lat_deg\000"
 6041      6C61745F 
 6041      64656700 
 6042              	.LASF2:
 6043 0887 5F5F7569 		.ascii	"__uint8_t\000"
 6043      6E74385F 
 6043      7400
 6044              	.LASF96:
 6045 0891 73797373 		.ascii	"sysstat_batt_a\000"
 6045      7461745F 
 6045      62617474 
 6045      5F6100
 6046              	.LASF206:
 6047 08a0 7365765F 		.ascii	"sev_str\000"
 6047      73747200 
 6048              	.LASF42:
 6049 08a8 62617474 		.ascii	"battery_right_v\000"
 6049      6572795F 
 6049      72696768 
 6049      745F7600 
 6050              	.LASF150:
 6051 08b8 53544259 		.ascii	"STBY_HOLD\000"
 6051      5F484F4C 
ARM GAS  C:\Users\JENNEW~1\AppData\Local\Temp\ccAtvZYd.s 			page 127


 6051      4400
 6052              	.LASF155:
 6053 08c2 4155544F 		.ascii	"AUTO_ACQ_SPIRAL\000"
 6053      5F414351 
 6053      5F535049 
 6053      52414C00 
 6054              	.LASF215:
 6055 08d2 68616E64 		.ascii	"handle_nav_key\000"
 6055      6C655F6E 
 6055      61765F6B 
 6055      657900
 6056              	.LASF172:
 6057 08e1 66617461 		.ascii	"fatal_latched\000"
 6057      6C5F6C61 
 6057      74636865 
 6057      6400
 6058              	.LASF86:
 6059 08ef 73797373 		.ascii	"sysstat_batt_v\000"
 6059      7461745F 
 6059      62617474 
 6059      5F7600
 6060              	.LASF220:
 6061 08fe 6275696C 		.ascii	"build_zero\000"
 6061      645F7A65 
 6061      726F00
 6062              	.LASF234:
 6063 0909 6F6E5F65 		.ascii	"on_exit\000"
 6063      78697400 
 6064              	.LASF171:
 6065 0911 6572725F 		.ascii	"err_msg\000"
 6065      6D736700 
 6066              	.LASF164:
 6067 0919 5345565F 		.ascii	"SEV_SOFTWARE\000"
 6067      534F4654 
 6067      57415245 
 6067      00
 6068              	.LASF209:
 6069 0926 73696E70 		.ascii	"sinp\000"
 6069      00
 6070              	.LASF23:
 6071 092b 73697A65 		.ascii	"sizetype\000"
 6071      74797065 
 6071      00
 6072              	.LASF36:
 6073 0934 68616D66 		.ascii	"hamfly_control_t\000"
 6073      6C795F63 
 6073      6F6E7472 
 6073      6F6C5F74 
 6073      00
 6074              	.LASF67:
 6075 0945 6261726F 		.ascii	"baro_valid\000"
 6075      5F76616C 
 6075      696400
 6076              	.LASF10:
 6077 0950 6C6F6E67 		.ascii	"long unsigned int\000"
 6077      20756E73 
 6077      69676E65 
ARM GAS  C:\Users\JENNEW~1\AppData\Local\Temp\ccAtvZYd.s 			page 128


 6077      6420696E 
 6077      7400
 6078              	.LASF157:
 6079 0962 4155544F 		.ascii	"AUTO_LOSS\000"
 6079      5F4C4F53 
 6079      5300
 6080              	.LASF226:
 6081 096c 6470616E 		.ascii	"dpan_deg\000"
 6081      5F646567 
 6081      00
 6082              	.LASF210:
 6083 0975 73696E79 		.ascii	"siny\000"
 6083      00
 6084              	.LASF17:
 6085 097a 696E7433 		.ascii	"int32_t\000"
 6085      325F7400 
 6086              	.LASF76:
 6087 0982 6174745F 		.ascii	"att_yaw_rate_dps\000"
 6087      7961775F 
 6087      72617465 
 6087      5F647073 
 6087      00
 6088              	.LASF168:
 6089 0993 73746174 		.ascii	"state\000"
 6089      6500
 6090              	.LASF75:
 6091 0999 6174745F 		.ascii	"att_pitch_rate_dps\000"
 6091      70697463 
 6091      685F7261 
 6091      74655F64 
 6091      707300
 6092              	.LASF191:
 6093 09ac 6170705F 		.ascii	"app_ctx_t\000"
 6093      6374785F 
 6093      7400
 6094              	.LASF166:
 6095 09b6 6572725F 		.ascii	"err_sev_t\000"
 6095      7365765F 
 6095      7400
 6096              	.LASF225:
 6097 09c0 6E756467 		.ascii	"nudge_apply\000"
 6097      655F6170 
 6097      706C7900 
 6098              	.LASF236:
 6099 09cc 6F6E5F62 		.ascii	"on_build\000"
 6099      75696C64 
 6099      00
 6100              	.LASF1:
 6101 09d5 756E7369 		.ascii	"unsigned char\000"
 6101      676E6564 
 6101      20636861 
 6101      7200
 6102              	.LASF9:
 6103 09e3 5F5F7569 		.ascii	"__uint32_t\000"
 6103      6E743332 
 6103      5F7400
 6104              	.LASF79:
ARM GAS  C:\Users\JENNEW~1\AppData\Local\Temp\ccAtvZYd.s 			page 129


 6105 09ee 6174745F 		.ascii	"att_pitch_err_deg\000"
 6105      70697463 
 6105      685F6572 
 6105      725F6465 
 6105      6700
 6106              	.LASF91:
 6107 0a00 73797373 		.ascii	"sysstat_time_s\000"
 6107      7461745F 
 6107      74696D65 
 6107      5F7300
 6108              	.LASF115:
 6109 0a0f 7461696C 		.ascii	"tail\000"
 6109      00
 6110              	.LASF118:
 6111 0a14 74785F70 		.ascii	"tx_packets\000"
 6111      61636B65 
 6111      747300
 6112              	.LASF24:
 6113 0a1f 48414D46 		.ascii	"HAMFLY_DEFER\000"
 6113      4C595F44 
 6113      45464552 
 6113      00
 6114              	.LASF241:
 6115 0a2c 6170705F 		.ascii	"app_statemachine.c\000"
 6115      73746174 
 6115      656D6163 
 6115      68696E65 
 6115      2E6300
 6116              	.LASF70:
 6117 0a3f 6174745F 		.ascii	"att_valid\000"
 6117      76616C69 
 6117      6400
 6118              	.LASF138:
 6119 0a49 68616D66 		.ascii	"hamfly_gimbal_t\000"
 6119      6C795F67 
 6119      696D6261 
 6119      6C5F7400 
 6120              	.LASF187:
 6121 0a59 6E756467 		.ascii	"nudge_base_pan_deg\000"
 6121      655F6261 
 6121      73655F70 
 6121      616E5F64 
 6121      656700
 6122              	.LASF57:
 6123 0a6c 6770735F 		.ascii	"gps_vacc_m\000"
 6123      76616363 
 6123      5F6D00
 6124              	.LASF186:
 6125 0a77 6E756467 		.ascii	"nudge_start_ms\000"
 6125      655F7374 
 6125      6172745F 
 6125      6D7300
 6126              	.LASF74:
 6127 0a86 6174745F 		.ascii	"att_roll_deg\000"
 6127      726F6C6C 
 6127      5F646567 
 6127      00
ARM GAS  C:\Users\JENNEW~1\AppData\Local\Temp\ccAtvZYd.s 			page 130


 6128              	.LASF102:
 6129 0a93 6D61675F 		.ascii	"mag_magnitude\000"
 6129      6D61676E 
 6129      69747564 
 6129      6500
 6130              	.LASF110:
 6131 0aa1 73797365 		.ascii	"sysecho_pressure_mb\000"
 6131      63686F5F 
 6131      70726573 
 6131      73757265 
 6131      5F6D6200 
 6132              	.LASF0:
 6133 0ab5 7369676E 		.ascii	"signed char\000"
 6133      65642063 
 6133      68617200 
 6134              	.LASF139:
 6135 0ac1 53454E53 		.ascii	"SENSE_LOW\000"
 6135      455F4C4F 
 6135      5700
 6136              	.LASF64:
 6137 0acb 6770735F 		.ascii	"gps_raw_hacc\000"
 6137      7261775F 
 6137      68616363 
 6137      00
 6138              	.LASF6:
 6139 0ad8 73686F72 		.ascii	"short unsigned int\000"
 6139      7420756E 
 6139      7369676E 
 6139      65642069 
 6139      6E7400
 6140              	.LASF27:
 6141 0aeb 48414D46 		.ascii	"HAMFLY_ABSOLUTE_MAJESTIC\000"
 6141      4C595F41 
 6141      42534F4C 
 6141      5554455F 
 6141      4D414A45 
 6142              	.LASF60:
 6143 0b04 6770735F 		.ascii	"gps_raw_lon\000"
 6143      7261775F 
 6143      6C6F6E00 
 6144              	.LASF184:
 6145 0b10 696E7665 		.ascii	"invert_mask\000"
 6145      72745F6D 
 6145      61736B00 
 6146              	.LASF78:
 6147 0b1c 6174745F 		.ascii	"att_roll_err_deg\000"
 6147      726F6C6C 
 6147      5F657272 
 6147      5F646567 
 6147      00
 6148              	.LASF231:
 6149 0b2d 61727269 		.ascii	"arrived\000"
 6149      76656400 
 6150              	.LASF123:
 6151 0b35 72786275 		.ascii	"rxbuf_drops\000"
 6151      665F6472 
 6151      6F707300 
ARM GAS  C:\Users\JENNEW~1\AppData\Local\Temp\ccAtvZYd.s 			page 131


 6152              	.LASF230:
 6153 0b41 656C6170 		.ascii	"elapsed\000"
 6153      73656400 
 6154              	.LASF125:
 6155 0b49 68616D66 		.ascii	"hamfly_statistics_t\000"
 6155      6C795F73 
 6155      74617469 
 6155      73746963 
 6155      735F7400 
 6156              	.LASF20:
 6157 0b5d 646F7562 		.ascii	"double\000"
 6157      6C6500
 6158              	.LASF130:
 6159 0b64 67696D62 		.ascii	"gimbal_id\000"
 6159      616C5F69 
 6159      6400
 6160              	.LASF242:
 6161 0b6e 433A5C55 		.ascii	"C:\\Users\\Jennewein\\Documents\\hamish-workspace\\"
 6161      73657273 
 6161      5C4A656E 
 6161      6E657765 
 6161      696E5C44 
 6162 0b9c 50536F43 		.ascii	"PSoC-Programs\\test_projects\\Proj07_hamflyAPI_stat"
 6162      2D50726F 
 6162      6772616D 
 6162      735C7465 
 6162      73745F70 
 6163 0bcd 654D6163 		.ascii	"eMachineUpgrade.cydsn\000"
 6163      68696E65 
 6163      55706772 
 6163      6164652E 
 6163      63796473 
 6164              	.LASF151:
 6165 0be3 4D414E55 		.ascii	"MANU_JOYSTICK\000"
 6165      5F4A4F59 
 6165      53544943 
 6165      4B00
 6166              	.LASF85:
 6167 0bf1 666C6167 		.ascii	"flag_gps_locked\000"
 6167      5F677073 
 6167      5F6C6F63 
 6167      6B656400 
 6168              	.LASF146:
 6169 0c01 4D414E55 		.ascii	"MANU\000"
 6169      00
 6170              	.LASF189:
 6171 0c06 7467745F 		.ascii	"tgt_pan_deg\000"
 6171      70616E5F 
 6171      64656700 
 6172              	.LASF201:
 6173 0c12 7472616E 		.ascii	"transition\000"
 6173      73697469 
 6173      6F6E00
 6174              	.LASF152:
 6175 0c1d 4D414E55 		.ascii	"MANU_NUDGE\000"
 6175      5F4E5544 
 6175      474500
ARM GAS  C:\Users\JENNEW~1\AppData\Local\Temp\ccAtvZYd.s 			page 132


 6176              	.LASF68:
 6177 0c28 6261726F 		.ascii	"baro_alt_m\000"
 6177      5F616C74 
 6177      5F6D00
 6178              	.LASF92:
 6179 0c33 73797373 		.ascii	"sysstat_pressure_mb\000"
 6179      7461745F 
 6179      70726573 
 6179      73757265 
 6179      5F6D6200 
 6180              	.LASF95:
 6181 0c47 73797373 		.ascii	"sysstat_imu_latency\000"
 6181      7461745F 
 6181      696D755F 
 6181      6C617465 
 6181      6E637900 
 6182              	.LASF77:
 6183 0c5b 6174745F 		.ascii	"att_roll_rate_dps\000"
 6183      726F6C6C 
 6183      5F726174 
 6183      655F6470 
 6183      7300
 6184              	.LASF65:
 6185 0c6d 6770735F 		.ascii	"gps_raw_vacc\000"
 6185      7261775F 
 6185      76616363 
 6185      00
 6186              	.LASF128:
 6187 0c7a 72786275 		.ascii	"rxbuf\000"
 6187      6600
 6188              	.LASF181:
 6189 0c80 73746174 		.ascii	"state_entry_ms\000"
 6189      655F656E 
 6189      7472795F 
 6189      6D7300
 6190              		.ident	"GCC: (GNU Tools for ARM Embedded Processors) 5.4.1 20160609 (release) [ARM/embedded-5-bran
