ARM GAS  C:\Users\yoons\AppData\Local\Temp\ccXMuSxE.s 			page 1


   1              		.syntax unified
   2              		.cpu cortex-m3
   3              		.fpu softvfp
   4              		.eabi_attribute 20, 1
   5              		.eabi_attribute 21, 1
   6              		.eabi_attribute 23, 3
   7              		.eabi_attribute 24, 1
   8              		.eabi_attribute 25, 1
   9              		.eabi_attribute 26, 1
  10              		.eabi_attribute 30, 6
  11              		.eabi_attribute 34, 1
  12              		.eabi_attribute 18, 4
  13              		.thumb
  14              		.syntax unified
  15              		.file	"app_state_error.c"
  16              		.text
  17              	.Ltext0:
  18              		.cfi_sections	.debug_frame
  19              		.section	.rodata
  20              		.align	2
  21              	.LC0:
  22 0000 5741524E 		.ascii	"WARN\000"
  22      00
  23 0005 000000   		.align	2
  24              	.LC1:
  25 0008 534F4654 		.ascii	"SOFTWARE\000"
  25      57415245 
  25      00
  26 0011 000000   		.align	2
  27              	.LC2:
  28 0014 46415441 		.ascii	"FATAL\000"
  28      4C00
  29 001a 0000     		.align	2
  30              	.LC3:
  31 001c 55534552 		.ascii	"USER\000"
  31      00
  32              		.section	.text.sev_str,"ax",%progbits
  33              		.align	2
  34              		.thumb
  35              		.thumb_func
  36              		.type	sev_str, %function
  37              	sev_str:
  38              	.LFB63:
  39              		.file 1 "app_state_error.c"
   1:app_state_error.c **** /* ========================================
   2:app_state_error.c ****  *
   3:app_state_error.c ****  * Copyright Hamish Johnson, 2026
   4:app_state_error.c ****  * All Rights Reserved
   5:app_state_error.c ****  * UNPUBLISHED, LICENSED SOFTWARE.
   6:app_state_error.c ****  *
   7:app_state_error.c ****  * CONFIDENTIAL AND PROPRIETARY INFORMATION
   8:app_state_error.c ****  * WHICH IS THE PROPERTY OF 
   9:app_state_error.c ****  * Quantum Internet Systems Lab (QISL),
  10:app_state_error.c ****  * Department of Physics, SFU, Canada.
  11:app_state_error.c ****  *
  12:app_state_error.c ****  * Author: Hamish Johnson (2026)
  13:app_state_error.c ****  *
ARM GAS  C:\Users\yoons\AppData\Local\Temp\ccXMuSxE.s 			page 2


  14:app_state_error.c ****  * ========================================
  15:app_state_error.c ****  *
  16:app_state_error.c ****  * Parent ERROR - Save landing for errors.
  17:app_state_error.c **** */
  18:app_state_error.c **** 
  19:app_state_error.c **** #include "app_state_error.h"
  20:app_state_error.c **** #include "app_statemachine.h"   // app_transition, build_defer
  21:app_state_error.c **** #include "hamfly.h"             // hamfly_kill
  22:app_state_error.c **** #include <project.h>            // For UART
  23:app_state_error.c **** 
  24:app_state_error.c **** // Debug print helper
  25:app_state_error.c **** static const char *sev_str(err_sev_t s)
  26:app_state_error.c **** {
  40              		.loc 1 26 0
  41              		.cfi_startproc
  42              		@ args = 0, pretend = 0, frame = 8
  43              		@ frame_needed = 1, uses_anonymous_args = 0
  44              		@ link register save eliminated.
  45 0000 80B4     		push	{r7}
  46              		.cfi_def_cfa_offset 4
  47              		.cfi_offset 7, -4
  48 0002 83B0     		sub	sp, sp, #12
  49              		.cfi_def_cfa_offset 16
  50 0004 00AF     		add	r7, sp, #0
  51              		.cfi_def_cfa_register 7
  52 0006 0346     		mov	r3, r0
  53 0008 FB71     		strb	r3, [r7, #7]
  27:app_state_error.c ****     switch (s) {
  54              		.loc 1 27 0
  55 000a FB79     		ldrb	r3, [r7, #7]	@ zero_extendqisi2
  56 000c 022B     		cmp	r3, #2
  57 000e 05D0     		beq	.L3
  58 0010 032B     		cmp	r3, #3
  59 0012 05D0     		beq	.L4
  60 0014 012B     		cmp	r3, #1
  61 0016 05D1     		bne	.L7
  28:app_state_error.c ****         case SEV_WARN:     return "WARN";
  62              		.loc 1 28 0
  63 0018 054B     		ldr	r3, .L8
  64 001a 04E0     		b	.L6
  65              	.L3:
  29:app_state_error.c ****         case SEV_SOFTWARE: return "SOFTWARE";
  66              		.loc 1 29 0
  67 001c 054B     		ldr	r3, .L8+4
  68 001e 02E0     		b	.L6
  69              	.L4:
  30:app_state_error.c ****         case SEV_FATAL:    return "FATAL";
  70              		.loc 1 30 0
  71 0020 054B     		ldr	r3, .L8+8
  72 0022 00E0     		b	.L6
  73              	.L7:
  31:app_state_error.c ****         default:           return "USER";
  74              		.loc 1 31 0
  75 0024 054B     		ldr	r3, .L8+12
  76              	.L6:
  32:app_state_error.c ****     }
  33:app_state_error.c **** }
ARM GAS  C:\Users\yoons\AppData\Local\Temp\ccXMuSxE.s 			page 3


  77              		.loc 1 33 0
  78 0026 1846     		mov	r0, r3
  79 0028 0C37     		adds	r7, r7, #12
  80              		.cfi_def_cfa_offset 4
  81 002a BD46     		mov	sp, r7
  82              		.cfi_def_cfa_register 13
  83              		@ sp needed
  84 002c 80BC     		pop	{r7}
  85              		.cfi_restore 7
  86              		.cfi_def_cfa_offset 0
  87 002e 7047     		bx	lr
  88              	.L9:
  89              		.align	2
  90              	.L8:
  91 0030 00000000 		.word	.LC0
  92 0034 08000000 		.word	.LC1
  93 0038 14000000 		.word	.LC2
  94 003c 1C000000 		.word	.LC3
  95              		.cfi_endproc
  96              	.LFE63:
  97              		.size	sev_str, .-sev_str
  98              		.section	.rodata
  99 0021 000000   		.align	2
 100              	.LC4:
 101 0024 0D0A5B45 		.ascii	"\015\012[ERROR:\000"
 101      52524F52 
 101      3A00
 102 002e 0000     		.align	2
 103              	.LC5:
 104 0030 5D2000   		.ascii	"] \000"
 105 0033 00       		.align	2
 106              	.LC6:
 107 0034 286E6F20 		.ascii	"(no msg)\000"
 107      6D736729 
 107      00
 108 003d 000000   		.align	2
 109              	.LC7:
 110 0040 0D0A4641 		.ascii	"\015\012FATAL latched. Power cycle or Ctrl+R to cle"
 110      54414C20 
 110      6C617463 
 110      6865642E 
 110      20506F77 
 111 006d 61722E0D 		.ascii	"ar.\015\012\000"
 111      0A00
 112 0073 00       		.align	2
 113              	.LC8:
 114 0074 0D0A416E 		.ascii	"\015\012Any key to acknowledge.\015\012\000"
 114      79206B65 
 114      7920746F 
 114      2061636B 
 114      6E6F776C 
 115              		.section	.text.entry_error_active,"ax",%progbits
 116              		.align	2
 117              		.global	entry_error_active
 118              		.thumb
 119              		.thumb_func
 120              		.type	entry_error_active, %function
ARM GAS  C:\Users\yoons\AppData\Local\Temp\ccXMuSxE.s 			page 4


 121              	entry_error_active:
 122              	.LFB64:
  34:app_state_error.c **** 
  35:app_state_error.c **** // Print error and severity.
  36:app_state_error.c **** void entry_error_active(app_ctx_t *ctx)
  37:app_state_error.c **** {
 123              		.loc 1 37 0
 124              		.cfi_startproc
 125              		@ args = 0, pretend = 0, frame = 8
 126              		@ frame_needed = 1, uses_anonymous_args = 0
 127 0000 80B5     		push	{r7, lr}
 128              		.cfi_def_cfa_offset 8
 129              		.cfi_offset 7, -8
 130              		.cfi_offset 14, -4
 131 0002 82B0     		sub	sp, sp, #8
 132              		.cfi_def_cfa_offset 16
 133 0004 00AF     		add	r7, sp, #0
 134              		.cfi_def_cfa_register 7
 135 0006 7860     		str	r0, [r7, #4]
  38:app_state_error.c ****     UART_DEBUG_PutString("\r\n[ERROR:");
 136              		.loc 1 38 0
 137 0008 1848     		ldr	r0, .L15
 138 000a FFF7FEFF 		bl	UART_DEBUG_PutString
  39:app_state_error.c ****     UART_DEBUG_PutString(sev_str(ctx->err_sev));
 139              		.loc 1 39 0
 140 000e 7B68     		ldr	r3, [r7, #4]
 141 0010 9B79     		ldrb	r3, [r3, #6]	@ zero_extendqisi2
 142 0012 1846     		mov	r0, r3
 143 0014 FFF7FEFF 		bl	sev_str
 144 0018 0346     		mov	r3, r0
 145 001a 1846     		mov	r0, r3
 146 001c FFF7FEFF 		bl	UART_DEBUG_PutString
  40:app_state_error.c ****     UART_DEBUG_PutString("] ");
 147              		.loc 1 40 0
 148 0020 1348     		ldr	r0, .L15+4
 149 0022 FFF7FEFF 		bl	UART_DEBUG_PutString
  41:app_state_error.c ****     UART_DEBUG_PutString(ctx->err_msg ? ctx->err_msg : "(no msg)");
 150              		.loc 1 41 0
 151 0026 7B68     		ldr	r3, [r7, #4]
 152 0028 9B68     		ldr	r3, [r3, #8]
 153 002a 002B     		cmp	r3, #0
 154 002c 02D0     		beq	.L11
 155              		.loc 1 41 0 is_stmt 0 discriminator 1
 156 002e 7B68     		ldr	r3, [r7, #4]
 157 0030 9B68     		ldr	r3, [r3, #8]
 158 0032 00E0     		b	.L12
 159              	.L11:
 160              		.loc 1 41 0 discriminator 2
 161 0034 0F4B     		ldr	r3, .L15+8
 162              	.L12:
 163              		.loc 1 41 0 discriminator 4
 164 0036 1846     		mov	r0, r3
 165 0038 FFF7FEFF 		bl	UART_DEBUG_PutString
  42:app_state_error.c ****     if (ctx->err_sev == SEV_FATAL && ctx->gimbal)
 166              		.loc 1 42 0 is_stmt 1 discriminator 4
 167 003c 7B68     		ldr	r3, [r7, #4]
 168 003e 9B79     		ldrb	r3, [r3, #6]	@ zero_extendqisi2
ARM GAS  C:\Users\yoons\AppData\Local\Temp\ccXMuSxE.s 			page 5


 169 0040 032B     		cmp	r3, #3
 170 0042 0CD1     		bne	.L13
 171              		.loc 1 42 0 is_stmt 0 discriminator 1
 172 0044 7B68     		ldr	r3, [r7, #4]
 173 0046 1B68     		ldr	r3, [r3]
 174 0048 002B     		cmp	r3, #0
 175 004a 08D0     		beq	.L13
  43:app_state_error.c ****     {
  44:app_state_error.c ****         hamfly_kill(ctx->gimbal);
 176              		.loc 1 44 0 is_stmt 1
 177 004c 7B68     		ldr	r3, [r7, #4]
 178 004e 1B68     		ldr	r3, [r3]
 179 0050 1846     		mov	r0, r3
 180 0052 FFF7FEFF 		bl	hamfly_kill
  45:app_state_error.c ****         UART_DEBUG_PutString("\r\nFATAL latched. Power cycle or Ctrl+R to clear.\r\n");
 181              		.loc 1 45 0
 182 0056 0848     		ldr	r0, .L15+12
 183 0058 FFF7FEFF 		bl	UART_DEBUG_PutString
 184 005c 02E0     		b	.L14
 185              	.L13:
  46:app_state_error.c ****     }
  47:app_state_error.c ****     else    UART_DEBUG_PutString("\r\nAny key to acknowledge.\r\n");
 186              		.loc 1 47 0
 187 005e 0748     		ldr	r0, .L15+16
 188 0060 FFF7FEFF 		bl	UART_DEBUG_PutString
 189              	.L14:
  48:app_state_error.c **** }
 190              		.loc 1 48 0
 191 0064 00BF     		nop
 192 0066 0837     		adds	r7, r7, #8
 193              		.cfi_def_cfa_offset 8
 194 0068 BD46     		mov	sp, r7
 195              		.cfi_def_cfa_register 13
 196              		@ sp needed
 197 006a 80BD     		pop	{r7, pc}
 198              	.L16:
 199              		.align	2
 200              	.L15:
 201 006c 24000000 		.word	.LC4
 202 0070 30000000 		.word	.LC5
 203 0074 34000000 		.word	.LC6
 204 0078 40000000 		.word	.LC7
 205 007c 74000000 		.word	.LC8
 206              		.cfi_endproc
 207              	.LFE64:
 208              		.size	entry_error_active, .-entry_error_active
 209              		.section	.text.key_error_active,"ax",%progbits
 210              		.align	2
 211              		.global	key_error_active
 212              		.thumb
 213              		.thumb_func
 214              		.type	key_error_active, %function
 215              	key_error_active:
 216              	.LFB65:
  49:app_state_error.c **** 
  50:app_state_error.c **** // Fatal latch or allow return to previous state.
  51:app_state_error.c **** uint8_t key_error_active(app_ctx_t *ctx, char k)
ARM GAS  C:\Users\yoons\AppData\Local\Temp\ccXMuSxE.s 			page 6


  52:app_state_error.c **** {
 217              		.loc 1 52 0
 218              		.cfi_startproc
 219              		@ args = 0, pretend = 0, frame = 16
 220              		@ frame_needed = 1, uses_anonymous_args = 0
 221 0000 80B5     		push	{r7, lr}
 222              		.cfi_def_cfa_offset 8
 223              		.cfi_offset 7, -8
 224              		.cfi_offset 14, -4
 225 0002 84B0     		sub	sp, sp, #16
 226              		.cfi_def_cfa_offset 24
 227 0004 00AF     		add	r7, sp, #0
 228              		.cfi_def_cfa_register 7
 229 0006 7860     		str	r0, [r7, #4]
 230 0008 0B46     		mov	r3, r1
 231 000a FB70     		strb	r3, [r7, #3]
  53:app_state_error.c ****     (void)k;
  54:app_state_error.c ****     if (ctx->err_sev != SEV_FATAL) {            /* WARN/SOFTWARE ack */
 232              		.loc 1 54 0
 233 000c 7B68     		ldr	r3, [r7, #4]
 234 000e 9B79     		ldrb	r3, [r3, #6]	@ zero_extendqisi2
 235 0010 032B     		cmp	r3, #3
 236 0012 0FD0     		beq	.L18
 237              	.LBB2:
  55:app_state_error.c ****         state_t back = (ctx->prev_leaf == ERROR_ACTIVE) ? STBY_HOLD : ctx->prev_leaf;
 238              		.loc 1 55 0
 239 0014 7B68     		ldr	r3, [r7, #4]
 240 0016 5B79     		ldrb	r3, [r3, #5]	@ zero_extendqisi2
 241 0018 0E2B     		cmp	r3, #14
 242 001a 02D0     		beq	.L19
 243              		.loc 1 55 0 is_stmt 0 discriminator 1
 244 001c 7B68     		ldr	r3, [r7, #4]
 245 001e 5B79     		ldrb	r3, [r3, #5]	@ zero_extendqisi2
 246 0020 00E0     		b	.L20
 247              	.L19:
 248              		.loc 1 55 0 discriminator 2
 249 0022 0623     		movs	r3, #6
 250              	.L20:
 251              		.loc 1 55 0 discriminator 4
 252 0024 FB73     		strb	r3, [r7, #15]
  56:app_state_error.c ****         app_transition(ctx, back);
 253              		.loc 1 56 0 is_stmt 1 discriminator 4
 254 0026 FB7B     		ldrb	r3, [r7, #15]	@ zero_extendqisi2
 255 0028 1946     		mov	r1, r3
 256 002a 7868     		ldr	r0, [r7, #4]
 257 002c FFF7FEFF 		bl	app_transition
  57:app_state_error.c ****         return 1;
 258              		.loc 1 57 0 discriminator 4
 259 0030 0123     		movs	r3, #1
 260 0032 00E0     		b	.L21
 261              	.L18:
 262              	.LBE2:
  58:app_state_error.c ****     }
  59:app_state_error.c ****     return 0;                                   /* FATAL: only Ctrl+R (handled in lockout) */
 263              		.loc 1 59 0
 264 0034 0023     		movs	r3, #0
 265              	.L21:
ARM GAS  C:\Users\yoons\AppData\Local\Temp\ccXMuSxE.s 			page 7


  60:app_state_error.c **** }
 266              		.loc 1 60 0
 267 0036 1846     		mov	r0, r3
 268 0038 1037     		adds	r7, r7, #16
 269              		.cfi_def_cfa_offset 8
 270 003a BD46     		mov	sp, r7
 271              		.cfi_def_cfa_register 13
 272              		@ sp needed
 273 003c 80BD     		pop	{r7, pc}
 274              		.cfi_endproc
 275              	.LFE65:
 276              		.size	key_error_active, .-key_error_active
 277 003e 00BF     		.section	.text.build_error,"ax",%progbits
 278              		.align	2
 279              		.global	build_error
 280              		.thumb
 281              		.thumb_func
 282              		.type	build_error, %function
 283              	build_error:
 284              	.LFB66:
  61:app_state_error.c **** 
  62:app_state_error.c **** // Build packet for when in ERROR state.
  63:app_state_error.c **** // Defer on error, kill if fatal.
  64:app_state_error.c **** void build_error(const app_ctx_t *ctx, hamfly_control_t *out) {
 285              		.loc 1 64 0
 286              		.cfi_startproc
 287              		@ args = 0, pretend = 0, frame = 8
 288              		@ frame_needed = 1, uses_anonymous_args = 0
 289 0000 80B5     		push	{r7, lr}
 290              		.cfi_def_cfa_offset 8
 291              		.cfi_offset 7, -8
 292              		.cfi_offset 14, -4
 293 0002 82B0     		sub	sp, sp, #8
 294              		.cfi_def_cfa_offset 16
 295 0004 00AF     		add	r7, sp, #0
 296              		.cfi_def_cfa_register 7
 297 0006 7860     		str	r0, [r7, #4]
 298 0008 3960     		str	r1, [r7]
  65:app_state_error.c ****     build_defer(ctx, out);  // Error
 299              		.loc 1 65 0
 300 000a 3968     		ldr	r1, [r7]
 301 000c 7868     		ldr	r0, [r7, #4]
 302 000e FFF7FEFF 		bl	build_defer
  66:app_state_error.c ****     if (ctx->err_sev == SEV_FATAL) out->kill = 1u;
 303              		.loc 1 66 0
 304 0012 7B68     		ldr	r3, [r7, #4]
 305 0014 9B79     		ldrb	r3, [r3, #6]	@ zero_extendqisi2
 306 0016 032B     		cmp	r3, #3
 307 0018 02D1     		bne	.L24
 308              		.loc 1 66 0 is_stmt 0 discriminator 1
 309 001a 3B68     		ldr	r3, [r7]
 310 001c 0122     		movs	r2, #1
 311 001e 1A74     		strb	r2, [r3, #16]
 312              	.L24:
  67:app_state_error.c **** }
 313              		.loc 1 67 0 is_stmt 1
 314 0020 00BF     		nop
ARM GAS  C:\Users\yoons\AppData\Local\Temp\ccXMuSxE.s 			page 8


 315 0022 0837     		adds	r7, r7, #8
 316              		.cfi_def_cfa_offset 8
 317 0024 BD46     		mov	sp, r7
 318              		.cfi_def_cfa_register 13
 319              		@ sp needed
 320 0026 80BD     		pop	{r7, pc}
 321              		.cfi_endproc
 322              	.LFE66:
 323              		.size	build_error, .-build_error
 324              		.text
 325              	.Letext0:
 326              		.file 2 "c:\\program files (x86)\\cypress\\psoc creator\\4.4\\psoc creator\\import\\gnu\\arm\\5.4.
 327              		.file 3 "c:\\program files (x86)\\cypress\\psoc creator\\4.4\\psoc creator\\import\\gnu\\arm\\5.4.
 328              		.file 4 "..\\..\\..\\HamFlyAPI\\src/hamfly_core_control.h"
 329              		.file 5 "..\\..\\..\\HamFlyAPI\\src/hamfly_core_hal.h"
 330              		.file 6 "..\\..\\..\\HamFlyAPI\\src/hamfly_core_telemetry.h"
 331              		.file 7 "..\\..\\..\\HamFlyAPI\\src/hamfly_comm_rb.h"
 332              		.file 8 "..\\..\\..\\HamFlyAPI\\src/hamfly_core_gimbal.h"
 333              		.file 9 "joystick.h"
 334              		.file 10 "app_ctx.h"
 335              		.file 11 "Generated_Source\\PSoC5/core_cm3.h"