ARM GAS  C:\Users\JENNEW~1\AppData\Local\Temp\ccQfwmUf.s 			page 1


   1              		.syntax unified
   2              		.cpu cortex-m3
   3              		.fpu softvfp
   4              		.eabi_attribute 20, 1
   5              		.eabi_attribute 21, 1
   6              		.eabi_attribute 23, 3
   7              		.eabi_attribute 24, 1
   8              		.eabi_attribute 25, 1
   9              		.eabi_attribute 26, 1
  10              		.eabi_attribute 30, 6
  11              		.eabi_attribute 34, 1
  12              		.eabi_attribute 18, 4
  13              		.thumb
  14              		.syntax unified
  15              		.file	"app_ctx.c"
  16              		.text
  17              	.Ltext0:
  18              		.cfi_sections	.debug_frame
  19              		.section	.text.app_ctx_init,"ax",%progbits
  20              		.align	2
  21              		.global	app_ctx_init
  22              		.thumb
  23              		.thumb_func
  24              		.type	app_ctx_init, %function
  25              	app_ctx_init:
  26              	.LFB63:
  27              		.file 1 "app_ctx.c"
   1:app_ctx.c     **** /* ========================================
   2:app_ctx.c     ****  *  ... (same banner) ...
   3:app_ctx.c     ****  * Shared context initializer.
   4:app_ctx.c     **** */
   5:app_ctx.c     **** 
   6:app_ctx.c     **** #include "app_ctx.h"
   7:app_ctx.c     **** #include <string.h>
   8:app_ctx.c     **** 
   9:app_ctx.c     **** void app_ctx_init(app_ctx_t *ctx)
  10:app_ctx.c     **** {
  28              		.loc 1 10 0
  29              		.cfi_startproc
  30              		@ args = 0, pretend = 0, frame = 8
  31              		@ frame_needed = 1, uses_anonymous_args = 0
  32 0000 80B5     		push	{r7, lr}
  33              		.cfi_def_cfa_offset 8
  34              		.cfi_offset 7, -8
  35              		.cfi_offset 14, -4
  36 0002 82B0     		sub	sp, sp, #8
  37              		.cfi_def_cfa_offset 16
  38 0004 00AF     		add	r7, sp, #0
  39              		.cfi_def_cfa_register 7
  40 0006 7860     		str	r0, [r7, #4]
  11:app_ctx.c     ****     memset(ctx, 0, sizeof *ctx);
  41              		.loc 1 11 0
  42 0008 4422     		movs	r2, #68
  43 000a 0021     		movs	r1, #0
  44 000c 7868     		ldr	r0, [r7, #4]
  45 000e FFF7FEFF 		bl	memset
  12:app_ctx.c     ****     ctx->state         = STBY_DEFER;  // boot to defer
ARM GAS  C:\Users\JENNEW~1\AppData\Local\Temp\ccQfwmUf.s 			page 2


  46              		.loc 1 12 0
  47 0012 7B68     		ldr	r3, [r7, #4]
  48 0014 0522     		movs	r2, #5
  49 0016 1A71     		strb	r2, [r3, #4]
  13:app_ctx.c     ****     ctx->prev_leaf     = STBY_DEFER;  // boot to defer
  50              		.loc 1 13 0
  51 0018 7B68     		ldr	r3, [r7, #4]
  52 001a 0522     		movs	r2, #5
  53 001c 5A71     		strb	r2, [r3, #5]
  14:app_ctx.c     ****     ctx->ctrl_mode     = HAMFLY_DEFER;
  54              		.loc 1 14 0
  55 001e 7B68     		ldr	r3, [r7, #4]
  56 0020 0022     		movs	r2, #0
  57 0022 5A73     		strb	r2, [r3, #13]
  15:app_ctx.c     ****     ctx->sense         = SENSE_MED;
  58              		.loc 1 15 0
  59 0024 7B68     		ldr	r3, [r7, #4]
  60 0026 0122     		movs	r2, #1
  61 0028 83F83C20 		strb	r2, [r3, #60]
  16:app_ctx.c     ****     ctx->diag_active   = 1u;
  62              		.loc 1 16 0
  63 002c 7B68     		ldr	r3, [r7, #4]
  64 002e 0122     		movs	r2, #1
  65 0030 83F83020 		strb	r2, [r3, #48]
  17:app_ctx.c     ****     /* origin_set, fatal_latched, err_msg already 0/NULL from memset */
  18:app_ctx.c     **** }
  66              		.loc 1 18 0
  67 0034 00BF     		nop
  68 0036 0837     		adds	r7, r7, #8
  69              		.cfi_def_cfa_offset 8
  70 0038 BD46     		mov	sp, r7
  71              		.cfi_def_cfa_register 13
  72              		@ sp needed
  73 003a 80BD     		pop	{r7, pc}
  74              		.cfi_endproc
  75              	.LFE63:
  76              		.size	app_ctx_init, .-app_ctx_init
  77              		.text
  78              	.Letext0:
  79              		.file 2 "c:\\program files (x86)\\cypress\\psoc creator\\4.4\\psoc creator\\import\\gnu\\arm\\5.4.
  80              		.file 3 "c:\\program files (x86)\\cypress\\psoc creator\\4.4\\psoc creator\\import\\gnu\\arm\\5.4.
  81              		.file 4 "..\\..\\..\\HamFlyAPI\\src/hamfly_core_control.h"
  82              		.file 5 "..\\..\\..\\HamFlyAPI\\src/hamfly_core_hal.h"
  83              		.file 6 "..\\..\\..\\HamFlyAPI\\src/hamfly_core_telemetry.h"
  84              		.file 7 "..\\..\\..\\HamFlyAPI\\src/hamfly_comm_rb.h"
  85              		.file 8 "..\\..\\..\\HamFlyAPI\\src/hamfly_core_gimbal.h"
  86              		.file 9 "joystick.h"
  87              		.file 10 "app_ctx.h"
  88              		.file 11 "Generated_Source\\PSoC5/core_cm3.h"