ARM GAS  C:\Users\JENNEW~1\AppData\Local\Temp\ccI7hFDI.s 			page 1


   1              		.syntax unified
   2              		.cpu cortex-m3
   3              		.fpu softvfp
   4              		.eabi_attribute 20, 1
   5              		.eabi_attribute 21, 1
   6              		.eabi_attribute 23, 3
   7              		.eabi_attribute 24, 1
   8              		.eabi_attribute 25, 1
   9              		.eabi_attribute 26, 1
  10              		.eabi_attribute 30, 6
  11              		.eabi_attribute 34, 1
  12              		.eabi_attribute 18, 4
  13              		.thumb
  14              		.syntax unified
  15              		.file	"hamfly_core_telemetry.c"
  16              		.text
  17              	.Ltext0:
  18              		.cfi_sections	.debug_frame
  19              		.section	.text.rd_be32,"ax",%progbits
  20              		.align	2
  21              		.thumb
  22              		.thumb_func
  23              		.type	rd_be32, %function
  24              	rd_be32:
  25              	.LFB0:
  26              		.file 1 "..\\..\\..\\HamFlyAPI\\src\\hamfly_core_telemetry.c"
   1:..\..\..\HamFlyAPI\src/hamfly_core_telemetry.c **** /* SPDX-License-Identifier: Apache-2.0
   2:..\..\..\HamFlyAPI\src/hamfly_core_telemetry.c ****  *
   3:..\..\..\HamFlyAPI\src/hamfly_core_telemetry.c ****  * Copyright 2026 Hamish Johnson
   4:..\..\..\HamFlyAPI\src/hamfly_core_telemetry.c ****  * Quantum Information Systems Lab, SFU Physics
   5:..\..\..\HamFlyAPI\src/hamfly_core_telemetry.c ****  *
   6:..\..\..\HamFlyAPI\src/hamfly_core_telemetry.c ****  * Licensed under the Apache License, Version 2.0 (the "License");
   7:..\..\..\HamFlyAPI\src/hamfly_core_telemetry.c ****  * you may not use this file except in compliance with the License.
   8:..\..\..\HamFlyAPI\src/hamfly_core_telemetry.c ****  * You may obtain a copy of the License at
   9:..\..\..\HamFlyAPI\src/hamfly_core_telemetry.c ****  *
  10:..\..\..\HamFlyAPI\src/hamfly_core_telemetry.c ****  *     http://www.apache.org/licenses/LICENSE-2.0
  11:..\..\..\HamFlyAPI\src/hamfly_core_telemetry.c ****  *
  12:..\..\..\HamFlyAPI\src/hamfly_core_telemetry.c ****  * Unless required by applicable law or agreed to in writing, software
  13:..\..\..\HamFlyAPI\src/hamfly_core_telemetry.c ****  * distributed under the License is distributed on an "AS IS" BASIS,
  14:..\..\..\HamFlyAPI\src/hamfly_core_telemetry.c ****  * WITHOUT WARRANTIES OR CONDITIONS OF ANY KIND, either express or
  15:..\..\..\HamFlyAPI\src/hamfly_core_telemetry.c ****  * implied. See the License for the specific language governing
  16:..\..\..\HamFlyAPI\src/hamfly_core_telemetry.c ****  * permissions and limitations under the License.
  17:..\..\..\HamFlyAPI\src/hamfly_core_telemetry.c ****  */
  18:..\..\..\HamFlyAPI\src/hamfly_core_telemetry.c **** 
  19:..\..\..\HamFlyAPI\src/hamfly_core_telemetry.c **** #include "hamfly_core_telemetry.h"
  20:..\..\..\HamFlyAPI\src/hamfly_core_telemetry.c **** #include "hamfly_qx_protocol.h"
  21:..\..\..\HamFlyAPI\src/hamfly_core_telemetry.c **** #include <string.h>
  22:..\..\..\HamFlyAPI\src/hamfly_core_telemetry.c **** #include <stdint.h>
  23:..\..\..\HamFlyAPI\src/hamfly_core_telemetry.c **** #include <math.h>
  24:..\..\..\HamFlyAPI\src/hamfly_core_telemetry.c **** 
  25:..\..\..\HamFlyAPI\src/hamfly_core_telemetry.c **** // ============================================================================
  26:..\..\..\HamFlyAPI\src/hamfly_core_telemetry.c **** // Helpers: Big and Little Endian readers.
  27:..\..\..\HamFlyAPI\src/hamfly_core_telemetry.c **** // Used for attr 1, 4, 287 which are big-endian with no sub-index byte.
  28:..\..\..\HamFlyAPI\src/hamfly_core_telemetry.c **** // Attr 22 is little-endian with a 0x00 sub-index at offset 0, so use rd_le16.
  29:..\..\..\HamFlyAPI\src/hamfly_core_telemetry.c **** // ============================================================================
  30:..\..\..\HamFlyAPI\src/hamfly_core_telemetry.c **** 
  31:..\..\..\HamFlyAPI\src/hamfly_core_telemetry.c **** // Read big-endian int32 from buffer.
ARM GAS  C:\Users\JENNEW~1\AppData\Local\Temp\ccI7hFDI.s 			page 2


  32:..\..\..\HamFlyAPI\src/hamfly_core_telemetry.c **** static int32_t rd_be32(const uint8_t *p)
  33:..\..\..\HamFlyAPI\src/hamfly_core_telemetry.c **** {
  27              		.loc 1 33 0
  28              		.cfi_startproc
  29              		@ args = 0, pretend = 0, frame = 8
  30              		@ frame_needed = 1, uses_anonymous_args = 0
  31              		@ link register save eliminated.
  32 0000 80B4     		push	{r7}
  33              		.cfi_def_cfa_offset 4
  34              		.cfi_offset 7, -4
  35 0002 83B0     		sub	sp, sp, #12
  36              		.cfi_def_cfa_offset 16
  37 0004 00AF     		add	r7, sp, #0
  38              		.cfi_def_cfa_register 7
  39 0006 7860     		str	r0, [r7, #4]
  34:..\..\..\HamFlyAPI\src/hamfly_core_telemetry.c ****     return (int32_t)(  ((uint32_t)p[0] << 24)
  40              		.loc 1 34 0
  41 0008 7B68     		ldr	r3, [r7, #4]
  42 000a 1B78     		ldrb	r3, [r3]	@ zero_extendqisi2
  43 000c 1A06     		lsls	r2, r3, #24
  35:..\..\..\HamFlyAPI\src/hamfly_core_telemetry.c ****                      | ((uint32_t)p[1] << 16)
  44              		.loc 1 35 0
  45 000e 7B68     		ldr	r3, [r7, #4]
  46 0010 0133     		adds	r3, r3, #1
  47 0012 1B78     		ldrb	r3, [r3]	@ zero_extendqisi2
  48 0014 1B04     		lsls	r3, r3, #16
  49 0016 1A43     		orrs	r2, r2, r3
  36:..\..\..\HamFlyAPI\src/hamfly_core_telemetry.c ****                      | ((uint32_t)p[2] <<  8)
  50              		.loc 1 36 0
  51 0018 7B68     		ldr	r3, [r7, #4]
  52 001a 0233     		adds	r3, r3, #2
  53 001c 1B78     		ldrb	r3, [r3]	@ zero_extendqisi2
  54 001e 1B02     		lsls	r3, r3, #8
  55 0020 1343     		orrs	r3, r3, r2
  37:..\..\..\HamFlyAPI\src/hamfly_core_telemetry.c ****                      |  (uint32_t)p[3]);
  56              		.loc 1 37 0
  57 0022 7A68     		ldr	r2, [r7, #4]
  58 0024 0332     		adds	r2, r2, #3
  59 0026 1278     		ldrb	r2, [r2]	@ zero_extendqisi2
  60 0028 1343     		orrs	r3, r3, r2
  38:..\..\..\HamFlyAPI\src/hamfly_core_telemetry.c **** }
  61              		.loc 1 38 0
  62 002a 1846     		mov	r0, r3
  63 002c 0C37     		adds	r7, r7, #12
  64              		.cfi_def_cfa_offset 4
  65 002e BD46     		mov	sp, r7
  66              		.cfi_def_cfa_register 13
  67              		@ sp needed
  68 0030 80BC     		pop	{r7}
  69              		.cfi_restore 7
  70              		.cfi_def_cfa_offset 0
  71 0032 7047     		bx	lr
  72              		.cfi_endproc
  73              	.LFE0:
  74              		.size	rd_be32, .-rd_be32
  75              		.section	.text.rd_be16,"ax",%progbits
  76              		.align	2
ARM GAS  C:\Users\JENNEW~1\AppData\Local\Temp\ccI7hFDI.s 			page 3


  77              		.thumb
  78              		.thumb_func
  79              		.type	rd_be16, %function
  80              	rd_be16:
  81              	.LFB1:
  39:..\..\..\HamFlyAPI\src/hamfly_core_telemetry.c **** 
  40:..\..\..\HamFlyAPI\src/hamfly_core_telemetry.c **** // Read big-endian int16 from buffer.
  41:..\..\..\HamFlyAPI\src/hamfly_core_telemetry.c **** static int16_t rd_be16(const uint8_t *p)
  42:..\..\..\HamFlyAPI\src/hamfly_core_telemetry.c **** {
  82              		.loc 1 42 0
  83              		.cfi_startproc
  84              		@ args = 0, pretend = 0, frame = 8
  85              		@ frame_needed = 1, uses_anonymous_args = 0
  86              		@ link register save eliminated.
  87 0000 80B4     		push	{r7}
  88              		.cfi_def_cfa_offset 4
  89              		.cfi_offset 7, -4
  90 0002 83B0     		sub	sp, sp, #12
  91              		.cfi_def_cfa_offset 16
  92 0004 00AF     		add	r7, sp, #0
  93              		.cfi_def_cfa_register 7
  94 0006 7860     		str	r0, [r7, #4]
  43:..\..\..\HamFlyAPI\src/hamfly_core_telemetry.c ****     return (int16_t)(((uint16_t)p[0] << 8) | (uint16_t)p[1]);
  95              		.loc 1 43 0
  96 0008 7B68     		ldr	r3, [r7, #4]
  97 000a 1B78     		ldrb	r3, [r3]	@ zero_extendqisi2
  98 000c 1B02     		lsls	r3, r3, #8
  99 000e 1AB2     		sxth	r2, r3
 100 0010 7B68     		ldr	r3, [r7, #4]
 101 0012 0133     		adds	r3, r3, #1
 102 0014 1B78     		ldrb	r3, [r3]	@ zero_extendqisi2
 103 0016 1BB2     		sxth	r3, r3
 104 0018 1343     		orrs	r3, r3, r2
 105 001a 1BB2     		sxth	r3, r3
  44:..\..\..\HamFlyAPI\src/hamfly_core_telemetry.c **** }
 106              		.loc 1 44 0
 107 001c 1846     		mov	r0, r3
 108 001e 0C37     		adds	r7, r7, #12
 109              		.cfi_def_cfa_offset 4
 110 0020 BD46     		mov	sp, r7
 111              		.cfi_def_cfa_register 13
 112              		@ sp needed
 113 0022 80BC     		pop	{r7}
 114              		.cfi_restore 7
 115              		.cfi_def_cfa_offset 0
 116 0024 7047     		bx	lr
 117              		.cfi_endproc
 118              	.LFE1:
 119              		.size	rd_be16, .-rd_be16
 120 0026 00BF     		.section	.text.rd_be_u16,"ax",%progbits
 121              		.align	2
 122              		.thumb
 123              		.thumb_func
 124              		.type	rd_be_u16, %function
 125              	rd_be_u16:
 126              	.LFB2:
  45:..\..\..\HamFlyAPI\src/hamfly_core_telemetry.c **** 
ARM GAS  C:\Users\JENNEW~1\AppData\Local\Temp\ccI7hFDI.s 			page 4


  46:..\..\..\HamFlyAPI\src/hamfly_core_telemetry.c **** // Read big-endian uint16 from buffer (for unsigned fields).
  47:..\..\..\HamFlyAPI\src/hamfly_core_telemetry.c **** static uint16_t rd_be_u16(const uint8_t *p)
  48:..\..\..\HamFlyAPI\src/hamfly_core_telemetry.c **** {
 127              		.loc 1 48 0
 128              		.cfi_startproc
 129              		@ args = 0, pretend = 0, frame = 8
 130              		@ frame_needed = 1, uses_anonymous_args = 0
 131              		@ link register save eliminated.
 132 0000 80B4     		push	{r7}
 133              		.cfi_def_cfa_offset 4
 134              		.cfi_offset 7, -4
 135 0002 83B0     		sub	sp, sp, #12
 136              		.cfi_def_cfa_offset 16
 137 0004 00AF     		add	r7, sp, #0
 138              		.cfi_def_cfa_register 7
 139 0006 7860     		str	r0, [r7, #4]
  49:..\..\..\HamFlyAPI\src/hamfly_core_telemetry.c ****     return ((uint16_t)p[0] << 8) | (uint16_t)p[1];
 140              		.loc 1 49 0
 141 0008 7B68     		ldr	r3, [r7, #4]
 142 000a 1B78     		ldrb	r3, [r3]	@ zero_extendqisi2
 143 000c 1B02     		lsls	r3, r3, #8
 144 000e 1AB2     		sxth	r2, r3
 145 0010 7B68     		ldr	r3, [r7, #4]
 146 0012 0133     		adds	r3, r3, #1
 147 0014 1B78     		ldrb	r3, [r3]	@ zero_extendqisi2
 148 0016 1BB2     		sxth	r3, r3
 149 0018 1343     		orrs	r3, r3, r2
 150 001a 1BB2     		sxth	r3, r3
 151 001c 9BB2     		uxth	r3, r3
  50:..\..\..\HamFlyAPI\src/hamfly_core_telemetry.c **** }
 152              		.loc 1 50 0
 153 001e 1846     		mov	r0, r3
 154 0020 0C37     		adds	r7, r7, #12
 155              		.cfi_def_cfa_offset 4
 156 0022 BD46     		mov	sp, r7
 157              		.cfi_def_cfa_register 13
 158              		@ sp needed
 159 0024 80BC     		pop	{r7}
 160              		.cfi_restore 7
 161              		.cfi_def_cfa_offset 0
 162 0026 7047     		bx	lr
 163              		.cfi_endproc
 164              	.LFE2:
 165              		.size	rd_be_u16, .-rd_be_u16
 166              		.section	.text.rd_le16,"ax",%progbits
 167              		.align	2
 168              		.thumb
 169              		.thumb_func
 170              		.type	rd_le16, %function
 171              	rd_le16:
 172              	.LFB3:
  51:..\..\..\HamFlyAPI\src/hamfly_core_telemetry.c **** 
  52:..\..\..\HamFlyAPI\src/hamfly_core_telemetry.c **** // Read little-endian int16 from buffer.
  53:..\..\..\HamFlyAPI\src/hamfly_core_telemetry.c **** static int16_t rd_le16(const uint8_t *p)
  54:..\..\..\HamFlyAPI\src/hamfly_core_telemetry.c **** {
 173              		.loc 1 54 0
 174              		.cfi_startproc
ARM GAS  C:\Users\JENNEW~1\AppData\Local\Temp\ccI7hFDI.s 			page 5


 175              		@ args = 0, pretend = 0, frame = 16
 176              		@ frame_needed = 1, uses_anonymous_args = 0
 177 0000 80B5     		push	{r7, lr}
 178              		.cfi_def_cfa_offset 8
 179              		.cfi_offset 7, -8
 180              		.cfi_offset 14, -4
 181 0002 84B0     		sub	sp, sp, #16
 182              		.cfi_def_cfa_offset 24
 183 0004 00AF     		add	r7, sp, #0
 184              		.cfi_def_cfa_register 7
 185 0006 7860     		str	r0, [r7, #4]
  55:..\..\..\HamFlyAPI\src/hamfly_core_telemetry.c ****     int16_t v;
  56:..\..\..\HamFlyAPI\src/hamfly_core_telemetry.c ****     memcpy(&v, p, 2);
 186              		.loc 1 56 0
 187 0008 07F10E03 		add	r3, r7, #14
 188 000c 0222     		movs	r2, #2
 189 000e 7968     		ldr	r1, [r7, #4]
 190 0010 1846     		mov	r0, r3
 191 0012 FFF7FEFF 		bl	memcpy
  57:..\..\..\HamFlyAPI\src/hamfly_core_telemetry.c ****     return v;
 192              		.loc 1 57 0
 193 0016 B7F90E30 		ldrsh	r3, [r7, #14]
  58:..\..\..\HamFlyAPI\src/hamfly_core_telemetry.c **** }
 194              		.loc 1 58 0
 195 001a 1846     		mov	r0, r3
 196 001c 1037     		adds	r7, r7, #16
 197              		.cfi_def_cfa_offset 8
 198 001e BD46     		mov	sp, r7
 199              		.cfi_def_cfa_register 13
 200              		@ sp needed
 201 0020 80BD     		pop	{r7, pc}
 202              		.cfi_endproc
 203              	.LFE3:
 204              		.size	rd_le16, .-rd_le16
 205              		.global	__aeabi_fmul
 206              		.global	__aeabi_fadd
 207              		.global	__aeabi_fsub
 208              		.global	__aeabi_fcmpgt
 209              		.global	__aeabi_fcmplt
 210 0022 00BF     		.section	.text.hamfly_telemetry_to_euler,"ax",%progbits
 211              		.align	2
 212              		.global	hamfly_telemetry_to_euler
 213              		.thumb
 214              		.thumb_func
 215              		.type	hamfly_telemetry_to_euler, %function
 216              	hamfly_telemetry_to_euler:
 217              	.LFB4:
  59:..\..\..\HamFlyAPI\src/hamfly_core_telemetry.c **** 
  60:..\..\..\HamFlyAPI\src/hamfly_core_telemetry.c **** // ============================================================================
  61:..\..\..\HamFlyAPI\src/hamfly_core_telemetry.c **** // Hamfly Telemetry to Euler
  62:..\..\..\HamFlyAPI\src/hamfly_core_telemetry.c **** // ============================================================================
  63:..\..\..\HamFlyAPI\src/hamfly_core_telemetry.c **** // Converts the RIJK quaternion from attr 287 to Pan/Tilt/Roll Euler angles
  64:..\..\..\HamFlyAPI\src/hamfly_core_telemetry.c **** // using the ZYX rotation sequence (yaw → pitch → roll), which matches the
  65:..\..\..\HamFlyAPI\src/hamfly_core_telemetry.c **** // FreeflyAPI Euler convention (pan = yaw about Z, tilt = pitch about Y,
  66:..\..\..\HamFlyAPI\src/hamfly_core_telemetry.c **** // roll = rotation about X).
  67:..\..\..\HamFlyAPI\src/hamfly_core_telemetry.c **** //
  68:..\..\..\HamFlyAPI\src/hamfly_core_telemetry.c **** // RIJK → standard (w, x, y, z):
ARM GAS  C:\Users\JENNEW~1\AppData\Local\Temp\ccI7hFDI.s 			page 6


  69:..\..\..\HamFlyAPI\src/hamfly_core_telemetry.c **** //   w = gimbal_r,  x = gimbal_i,  y = gimbal_j,  z = gimbal_k
  70:..\..\..\HamFlyAPI\src/hamfly_core_telemetry.c **** //
  71:..\..\..\HamFlyAPI\src/hamfly_core_telemetry.c **** // Gimbal-lock guard: clamps the asinf argument to [-1, +1] before use.
  72:..\..\..\HamFlyAPI\src/hamfly_core_telemetry.c **** // ============================================================================
  73:..\..\..\HamFlyAPI\src/hamfly_core_telemetry.c **** uint8_t hamfly_telemetry_to_euler(const hamfly_telemetry_t *t,
  74:..\..\..\HamFlyAPI\src/hamfly_core_telemetry.c ****                                   float *pan_deg,
  75:..\..\..\HamFlyAPI\src/hamfly_core_telemetry.c ****                                   float *tilt_deg,
  76:..\..\..\HamFlyAPI\src/hamfly_core_telemetry.c ****                                   float *roll_deg)
  77:..\..\..\HamFlyAPI\src/hamfly_core_telemetry.c **** {
 218              		.loc 1 77 0
 219              		.cfi_startproc
 220              		@ args = 0, pretend = 0, frame = 40
 221              		@ frame_needed = 1, uses_anonymous_args = 0
 222 0000 B0B5     		push	{r4, r5, r7, lr}
 223              		.cfi_def_cfa_offset 16
 224              		.cfi_offset 4, -16
 225              		.cfi_offset 5, -12
 226              		.cfi_offset 7, -8
 227              		.cfi_offset 14, -4
 228 0002 8AB0     		sub	sp, sp, #40
 229              		.cfi_def_cfa_offset 56
 230 0004 00AF     		add	r7, sp, #0
 231              		.cfi_def_cfa_register 7
 232 0006 F860     		str	r0, [r7, #12]
 233 0008 B960     		str	r1, [r7, #8]
 234 000a 7A60     		str	r2, [r7, #4]
 235 000c 3B60     		str	r3, [r7]
  78:..\..\..\HamFlyAPI\src/hamfly_core_telemetry.c ****     if (!t || !t->valid) return 0u;
 236              		.loc 1 78 0
 237 000e FB68     		ldr	r3, [r7, #12]
 238 0010 002B     		cmp	r3, #0
 239 0012 06D0     		beq	.L10
 240              		.loc 1 78 0 is_stmt 0 discriminator 2
 241 0014 FB68     		ldr	r3, [r7, #12]
 242 0016 1B78     		ldrb	r3, [r3]	@ zero_extendqisi2
 243 0018 83F00103 		eor	r3, r3, #1
 244 001c DBB2     		uxtb	r3, r3
 245 001e 002B     		cmp	r3, #0
 246 0020 01D0     		beq	.L11
 247              	.L10:
 248              		.loc 1 78 0 discriminator 3
 249 0022 0023     		movs	r3, #0
 250 0024 CEE0     		b	.L12
 251              	.L11:
  79:..\..\..\HamFlyAPI\src/hamfly_core_telemetry.c **** 
  80:..\..\..\HamFlyAPI\src/hamfly_core_telemetry.c ****     static const float RAD2DEG = 180.0f / 3.14159265358979f;
  81:..\..\..\HamFlyAPI\src/hamfly_core_telemetry.c **** 
  82:..\..\..\HamFlyAPI\src/hamfly_core_telemetry.c ****     float w = t->gimbal_r;
 252              		.loc 1 82 0 is_stmt 1
 253 0026 FB68     		ldr	r3, [r7, #12]
 254 0028 DB68     		ldr	r3, [r3, #12]	@ float
 255 002a 3B62     		str	r3, [r7, #32]	@ float
  83:..\..\..\HamFlyAPI\src/hamfly_core_telemetry.c ****     float x = t->gimbal_i;
 256              		.loc 1 83 0
 257 002c FB68     		ldr	r3, [r7, #12]
 258 002e 1B69     		ldr	r3, [r3, #16]	@ float
 259 0030 FB61     		str	r3, [r7, #28]	@ float
ARM GAS  C:\Users\JENNEW~1\AppData\Local\Temp\ccI7hFDI.s 			page 7


  84:..\..\..\HamFlyAPI\src/hamfly_core_telemetry.c ****     float y = t->gimbal_j;
 260              		.loc 1 84 0
 261 0032 FB68     		ldr	r3, [r7, #12]
 262 0034 5B69     		ldr	r3, [r3, #20]	@ float
 263 0036 BB61     		str	r3, [r7, #24]	@ float
  85:..\..\..\HamFlyAPI\src/hamfly_core_telemetry.c ****     float z = t->gimbal_k;
 264              		.loc 1 85 0
 265 0038 FB68     		ldr	r3, [r7, #12]
 266 003a 9B69     		ldr	r3, [r3, #24]	@ float
 267 003c 7B61     		str	r3, [r7, #20]	@ float
  86:..\..\..\HamFlyAPI\src/hamfly_core_telemetry.c **** 
  87:..\..\..\HamFlyAPI\src/hamfly_core_telemetry.c ****     /* Pan (yaw, Z-axis) */
  88:..\..\..\HamFlyAPI\src/hamfly_core_telemetry.c ****     if (pan_deg)
 268              		.loc 1 88 0
 269 003e BB68     		ldr	r3, [r7, #8]
 270 0040 002B     		cmp	r3, #0
 271 0042 3FD0     		beq	.L13
  89:..\..\..\HamFlyAPI\src/hamfly_core_telemetry.c ****         *pan_deg  = atan2f(2.0f*(w*z + x*y), 1.0f - 2.0f*(y*y + z*z)) * RAD2DEG;
 272              		.loc 1 89 0
 273 0044 7969     		ldr	r1, [r7, #20]	@ float
 274 0046 386A     		ldr	r0, [r7, #32]	@ float
 275 0048 FFF7FEFF 		bl	__aeabi_fmul
 276 004c 0346     		mov	r3, r0
 277 004e 1C46     		mov	r4, r3
 278 0050 B969     		ldr	r1, [r7, #24]	@ float
 279 0052 F869     		ldr	r0, [r7, #28]	@ float
 280 0054 FFF7FEFF 		bl	__aeabi_fmul
 281 0058 0346     		mov	r3, r0
 282 005a 1946     		mov	r1, r3
 283 005c 2046     		mov	r0, r4
 284 005e FFF7FEFF 		bl	__aeabi_fadd
 285 0062 0346     		mov	r3, r0
 286 0064 1946     		mov	r1, r3
 287 0066 1846     		mov	r0, r3
 288 0068 FFF7FEFF 		bl	__aeabi_fadd
 289 006c 0346     		mov	r3, r0
 290 006e 1C46     		mov	r4, r3
 291 0070 B969     		ldr	r1, [r7, #24]	@ float
 292 0072 B869     		ldr	r0, [r7, #24]	@ float
 293 0074 FFF7FEFF 		bl	__aeabi_fmul
 294 0078 0346     		mov	r3, r0
 295 007a 1D46     		mov	r5, r3
 296 007c 7969     		ldr	r1, [r7, #20]	@ float
 297 007e 7869     		ldr	r0, [r7, #20]	@ float
 298 0080 FFF7FEFF 		bl	__aeabi_fmul
 299 0084 0346     		mov	r3, r0
 300 0086 1946     		mov	r1, r3
 301 0088 2846     		mov	r0, r5
 302 008a FFF7FEFF 		bl	__aeabi_fadd
 303 008e 0346     		mov	r3, r0
 304 0090 1946     		mov	r1, r3
 305 0092 1846     		mov	r0, r3
 306 0094 FFF7FEFF 		bl	__aeabi_fadd
 307 0098 0346     		mov	r3, r0
 308 009a 1946     		mov	r1, r3
 309 009c 4FF07E50 		mov	r0, #1065353216
 310 00a0 FFF7FEFF 		bl	__aeabi_fsub
ARM GAS  C:\Users\JENNEW~1\AppData\Local\Temp\ccI7hFDI.s 			page 8


 311 00a4 0346     		mov	r3, r0
 312 00a6 1946     		mov	r1, r3
 313 00a8 2046     		mov	r0, r4
 314 00aa FFF7FEFF 		bl	atan2f
 315 00ae 0246     		mov	r2, r0
 316 00b0 464B     		ldr	r3, .L23
 317 00b2 1B68     		ldr	r3, [r3]	@ float
 318 00b4 1946     		mov	r1, r3
 319 00b6 1046     		mov	r0, r2
 320 00b8 FFF7FEFF 		bl	__aeabi_fmul
 321 00bc 0346     		mov	r3, r0
 322 00be 1A46     		mov	r2, r3
 323 00c0 BB68     		ldr	r3, [r7, #8]
 324 00c2 1A60     		str	r2, [r3]	@ float
 325              	.L13:
  90:..\..\..\HamFlyAPI\src/hamfly_core_telemetry.c **** 
  91:..\..\..\HamFlyAPI\src/hamfly_core_telemetry.c ****     /* Tilt (pitch, Y-axis) — clamp to [-1, 1] to avoid NaN at gimbal lock. */
  92:..\..\..\HamFlyAPI\src/hamfly_core_telemetry.c ****     if (tilt_deg) {
 326              		.loc 1 92 0
 327 00c4 7B68     		ldr	r3, [r7, #4]
 328 00c6 002B     		cmp	r3, #0
 329 00c8 38D0     		beq	.L14
 330              	.LBB2:
  93:..\..\..\HamFlyAPI\src/hamfly_core_telemetry.c ****         float sin_tilt = 2.0f*(w*y - z*x);
 331              		.loc 1 93 0
 332 00ca B969     		ldr	r1, [r7, #24]	@ float
 333 00cc 386A     		ldr	r0, [r7, #32]	@ float
 334 00ce FFF7FEFF 		bl	__aeabi_fmul
 335 00d2 0346     		mov	r3, r0
 336 00d4 1C46     		mov	r4, r3
 337 00d6 F969     		ldr	r1, [r7, #28]	@ float
 338 00d8 7869     		ldr	r0, [r7, #20]	@ float
 339 00da FFF7FEFF 		bl	__aeabi_fmul
 340 00de 0346     		mov	r3, r0
 341 00e0 1946     		mov	r1, r3
 342 00e2 2046     		mov	r0, r4
 343 00e4 FFF7FEFF 		bl	__aeabi_fsub
 344 00e8 0346     		mov	r3, r0
 345 00ea 1946     		mov	r1, r3
 346 00ec 1846     		mov	r0, r3
 347 00ee FFF7FEFF 		bl	__aeabi_fadd
 348 00f2 0346     		mov	r3, r0
 349 00f4 7B62     		str	r3, [r7, #36]	@ float
  94:..\..\..\HamFlyAPI\src/hamfly_core_telemetry.c ****         if      (sin_tilt >  1.0f) sin_tilt =  1.0f;
 350              		.loc 1 94 0
 351 00f6 4FF07E51 		mov	r1, #1065353216
 352 00fa 786A     		ldr	r0, [r7, #36]	@ float
 353 00fc FFF7FEFF 		bl	__aeabi_fcmpgt
 354 0100 0346     		mov	r3, r0
 355 0102 002B     		cmp	r3, #0
 356 0104 03D0     		beq	.L22
 357              		.loc 1 94 0 is_stmt 0 discriminator 1
 358 0106 4FF07E53 		mov	r3, #1065353216
 359 010a 7B62     		str	r3, [r7, #36]	@ float
 360 010c 08E0     		b	.L17
 361              	.L22:
  95:..\..\..\HamFlyAPI\src/hamfly_core_telemetry.c ****         else if (sin_tilt < -1.0f) sin_tilt = -1.0f;
ARM GAS  C:\Users\JENNEW~1\AppData\Local\Temp\ccI7hFDI.s 			page 9


 362              		.loc 1 95 0 is_stmt 1
 363 010e 3049     		ldr	r1, .L23+4
 364 0110 786A     		ldr	r0, [r7, #36]	@ float
 365 0112 FFF7FEFF 		bl	__aeabi_fcmplt
 366 0116 0346     		mov	r3, r0
 367 0118 002B     		cmp	r3, #0
 368 011a 01D0     		beq	.L17
 369              		.loc 1 95 0 is_stmt 0 discriminator 1
 370 011c 2C4B     		ldr	r3, .L23+4
 371 011e 7B62     		str	r3, [r7, #36]	@ float
 372              	.L17:
  96:..\..\..\HamFlyAPI\src/hamfly_core_telemetry.c ****         *tilt_deg = asinf(sin_tilt) * RAD2DEG;
 373              		.loc 1 96 0 is_stmt 1
 374 0120 786A     		ldr	r0, [r7, #36]	@ float
 375 0122 FFF7FEFF 		bl	asinf
 376 0126 0246     		mov	r2, r0
 377 0128 284B     		ldr	r3, .L23
 378 012a 1B68     		ldr	r3, [r3]	@ float
 379 012c 1946     		mov	r1, r3
 380 012e 1046     		mov	r0, r2
 381 0130 FFF7FEFF 		bl	__aeabi_fmul
 382 0134 0346     		mov	r3, r0
 383 0136 1A46     		mov	r2, r3
 384 0138 7B68     		ldr	r3, [r7, #4]
 385 013a 1A60     		str	r2, [r3]	@ float
 386              	.L14:
 387              	.LBE2:
  97:..\..\..\HamFlyAPI\src/hamfly_core_telemetry.c ****     }
  98:..\..\..\HamFlyAPI\src/hamfly_core_telemetry.c **** 
  99:..\..\..\HamFlyAPI\src/hamfly_core_telemetry.c ****     /* Roll (X-axis) */
 100:..\..\..\HamFlyAPI\src/hamfly_core_telemetry.c ****     if (roll_deg)
 388              		.loc 1 100 0
 389 013c 3B68     		ldr	r3, [r7]
 390 013e 002B     		cmp	r3, #0
 391 0140 3FD0     		beq	.L19
 101:..\..\..\HamFlyAPI\src/hamfly_core_telemetry.c ****         *roll_deg = atan2f(2.0f*(w*x + y*z), 1.0f - 2.0f*(x*x + y*y)) * RAD2DEG;
 392              		.loc 1 101 0
 393 0142 F969     		ldr	r1, [r7, #28]	@ float
 394 0144 386A     		ldr	r0, [r7, #32]	@ float
 395 0146 FFF7FEFF 		bl	__aeabi_fmul
 396 014a 0346     		mov	r3, r0
 397 014c 1C46     		mov	r4, r3
 398 014e 7969     		ldr	r1, [r7, #20]	@ float
 399 0150 B869     		ldr	r0, [r7, #24]	@ float
 400 0152 FFF7FEFF 		bl	__aeabi_fmul
 401 0156 0346     		mov	r3, r0
 402 0158 1946     		mov	r1, r3
 403 015a 2046     		mov	r0, r4
 404 015c FFF7FEFF 		bl	__aeabi_fadd
 405 0160 0346     		mov	r3, r0
 406 0162 1946     		mov	r1, r3
 407 0164 1846     		mov	r0, r3
 408 0166 FFF7FEFF 		bl	__aeabi_fadd
 409 016a 0346     		mov	r3, r0
 410 016c 1C46     		mov	r4, r3
 411 016e F969     		ldr	r1, [r7, #28]	@ float
 412 0170 F869     		ldr	r0, [r7, #28]	@ float
ARM GAS  C:\Users\JENNEW~1\AppData\Local\Temp\ccI7hFDI.s 			page 10


 413 0172 FFF7FEFF 		bl	__aeabi_fmul
 414 0176 0346     		mov	r3, r0
 415 0178 1D46     		mov	r5, r3
 416 017a B969     		ldr	r1, [r7, #24]	@ float
 417 017c B869     		ldr	r0, [r7, #24]	@ float
 418 017e FFF7FEFF 		bl	__aeabi_fmul
 419 0182 0346     		mov	r3, r0
 420 0184 1946     		mov	r1, r3
 421 0186 2846     		mov	r0, r5
 422 0188 FFF7FEFF 		bl	__aeabi_fadd
 423 018c 0346     		mov	r3, r0
 424 018e 1946     		mov	r1, r3
 425 0190 1846     		mov	r0, r3
 426 0192 FFF7FEFF 		bl	__aeabi_fadd
 427 0196 0346     		mov	r3, r0
 428 0198 1946     		mov	r1, r3
 429 019a 4FF07E50 		mov	r0, #1065353216
 430 019e FFF7FEFF 		bl	__aeabi_fsub
 431 01a2 0346     		mov	r3, r0
 432 01a4 1946     		mov	r1, r3
 433 01a6 2046     		mov	r0, r4
 434 01a8 FFF7FEFF 		bl	atan2f
 435 01ac 0246     		mov	r2, r0
 436 01ae 074B     		ldr	r3, .L23
 437 01b0 1B68     		ldr	r3, [r3]	@ float
 438 01b2 1946     		mov	r1, r3
 439 01b4 1046     		mov	r0, r2
 440 01b6 FFF7FEFF 		bl	__aeabi_fmul
 441 01ba 0346     		mov	r3, r0
 442 01bc 1A46     		mov	r2, r3
 443 01be 3B68     		ldr	r3, [r7]
 444 01c0 1A60     		str	r2, [r3]	@ float
 445              	.L19:
 102:..\..\..\HamFlyAPI\src/hamfly_core_telemetry.c **** 
 103:..\..\..\HamFlyAPI\src/hamfly_core_telemetry.c ****     return 1u;
 446              		.loc 1 103 0
 447 01c2 0123     		movs	r3, #1
 448              	.L12:
 104:..\..\..\HamFlyAPI\src/hamfly_core_telemetry.c **** }
 449              		.loc 1 104 0
 450 01c4 1846     		mov	r0, r3
 451 01c6 2837     		adds	r7, r7, #40
 452              		.cfi_def_cfa_offset 16
 453 01c8 BD46     		mov	sp, r7
 454              		.cfi_def_cfa_register 13
 455              		@ sp needed
 456 01ca B0BD     		pop	{r4, r5, r7, pc}
 457              	.L24:
 458              		.align	2
 459              	.L23:
 460 01cc 00000000 		.word	RAD2DEG.6013
 461 01d0 000080BF 		.word	-1082130432
 462              		.cfi_endproc
 463              	.LFE4:
 464              		.size	hamfly_telemetry_to_euler, .-hamfly_telemetry_to_euler
 465              		.section	.text.hamfly_decode_qx287,"ax",%progbits
 466              		.align	2
ARM GAS  C:\Users\JENNEW~1\AppData\Local\Temp\ccI7hFDI.s 			page 11


 467              		.global	hamfly_decode_qx287
 468              		.thumb
 469              		.thumb_func
 470              		.type	hamfly_decode_qx287, %function
 471              	hamfly_decode_qx287:
 472              	.LFB5:
 105:..\..\..\HamFlyAPI\src/hamfly_core_telemetry.c **** 
 106:..\..\..\HamFlyAPI\src/hamfly_core_telemetry.c **** // ============================================================================
 107:..\..\..\HamFlyAPI\src/hamfly_core_telemetry.c **** // Hamfly Decode QX287
 108:..\..\..\HamFlyAPI\src/hamfly_core_telemetry.c **** // ============================================================================
 109:..\..\..\HamFlyAPI\src/hamfly_core_telemetry.c **** // Main telemetry parsing function. Reads from FreeFlyAPI.status which is
 110:..\..\..\HamFlyAPI\src/hamfly_core_telemetry.c **** // populated by the QX parser callback. Wrapping FreeflyAPI directly.
 111:..\..\..\HamFlyAPI\src/hamfly_core_telemetry.c **** void hamfly_decode_qx287(const uint8_t *p, uint16_t plen,
 112:..\..\..\HamFlyAPI\src/hamfly_core_telemetry.c ****                           hamfly_telemetry_t *dst)
 113:..\..\..\HamFlyAPI\src/hamfly_core_telemetry.c **** {
 473              		.loc 1 113 0
 474              		.cfi_startproc
 475              		@ args = 0, pretend = 0, frame = 16
 476              		@ frame_needed = 1, uses_anonymous_args = 0
 477              		@ link register save eliminated.
 478 0000 80B4     		push	{r7}
 479              		.cfi_def_cfa_offset 4
 480              		.cfi_offset 7, -4
 481 0002 85B0     		sub	sp, sp, #20
 482              		.cfi_def_cfa_offset 24
 483 0004 00AF     		add	r7, sp, #0
 484              		.cfi_def_cfa_register 7
 485 0006 F860     		str	r0, [r7, #12]
 486 0008 0B46     		mov	r3, r1
 487 000a 7A60     		str	r2, [r7, #4]
 488 000c 7B81     		strh	r3, [r7, #10]	@ movhi
 114:..\..\..\HamFlyAPI\src/hamfly_core_telemetry.c ****     (void)p; (void)plen;
 115:..\..\..\HamFlyAPI\src/hamfly_core_telemetry.c **** 
 116:..\..\..\HamFlyAPI\src/hamfly_core_telemetry.c ****     // Copy fields into the telemetry struct.
 117:..\..\..\HamFlyAPI\src/hamfly_core_telemetry.c ****     dst->battery_left_v   = FreeflyAPI.status.battery_v_left;
 489              		.loc 1 117 0
 490 000e 154B     		ldr	r3, .L26
 491 0010 9A6C     		ldr	r2, [r3, #72]	@ float
 492 0012 7B68     		ldr	r3, [r7, #4]
 493 0014 5A60     		str	r2, [r3, #4]	@ float
 118:..\..\..\HamFlyAPI\src/hamfly_core_telemetry.c ****     dst->battery_right_v  = FreeflyAPI.status.battery_v_right;
 494              		.loc 1 118 0
 495 0016 134B     		ldr	r3, .L26
 496 0018 DA6C     		ldr	r2, [r3, #76]	@ float
 497 001a 7B68     		ldr	r3, [r7, #4]
 498 001c 9A60     		str	r2, [r3, #8]	@ float
 119:..\..\..\HamFlyAPI\src/hamfly_core_telemetry.c ****     dst->gimbal_r         = FreeflyAPI.status.gimbal_r;
 499              		.loc 1 119 0
 500 001e 114B     		ldr	r3, .L26
 501 0020 1A6E     		ldr	r2, [r3, #96]	@ float
 502 0022 7B68     		ldr	r3, [r7, #4]
 503 0024 DA60     		str	r2, [r3, #12]	@ float
 120:..\..\..\HamFlyAPI\src/hamfly_core_telemetry.c ****     dst->gimbal_i         = FreeflyAPI.status.gimbal_i;
 504              		.loc 1 120 0
 505 0026 0F4B     		ldr	r3, .L26
 506 0028 5A6D     		ldr	r2, [r3, #84]	@ float
 507 002a 7B68     		ldr	r3, [r7, #4]
ARM GAS  C:\Users\JENNEW~1\AppData\Local\Temp\ccI7hFDI.s 			page 12


 508 002c 1A61     		str	r2, [r3, #16]	@ float
 121:..\..\..\HamFlyAPI\src/hamfly_core_telemetry.c ****     dst->gimbal_j         = FreeflyAPI.status.gimbal_j;
 509              		.loc 1 121 0
 510 002e 0D4B     		ldr	r3, .L26
 511 0030 9A6D     		ldr	r2, [r3, #88]	@ float
 512 0032 7B68     		ldr	r3, [r7, #4]
 513 0034 5A61     		str	r2, [r3, #20]	@ float
 122:..\..\..\HamFlyAPI\src/hamfly_core_telemetry.c ****     dst->gimbal_k         = FreeflyAPI.status.gimbal_k;
 514              		.loc 1 122 0
 515 0036 0B4B     		ldr	r3, .L26
 516 0038 DA6D     		ldr	r2, [r3, #92]	@ float
 517 003a 7B68     		ldr	r3, [r7, #4]
 518 003c 9A61     		str	r2, [r3, #24]	@ float
 123:..\..\..\HamFlyAPI\src/hamfly_core_telemetry.c ****     dst->gimbal_status1   = FreeflyAPI.status.gimbal_Status1;
 519              		.loc 1 123 0
 520 003e 094B     		ldr	r3, .L26
 521 0040 93F85020 		ldrb	r2, [r3, #80]	@ zero_extendqisi2
 522 0044 7B68     		ldr	r3, [r7, #4]
 523 0046 1A77     		strb	r2, [r3, #28]
 124:..\..\..\HamFlyAPI\src/hamfly_core_telemetry.c ****     dst->gimbal_status2   = FreeflyAPI.status.gimbal_Status2;
 524              		.loc 1 124 0
 525 0048 064B     		ldr	r3, .L26
 526 004a 93F85120 		ldrb	r2, [r3, #81]	@ zero_extendqisi2
 527 004e 7B68     		ldr	r3, [r7, #4]
 528 0050 5A77     		strb	r2, [r3, #29]
 125:..\..\..\HamFlyAPI\src/hamfly_core_telemetry.c ****     dst->valid            = true;
 529              		.loc 1 125 0
 530 0052 7B68     		ldr	r3, [r7, #4]
 531 0054 0122     		movs	r2, #1
 532 0056 1A70     		strb	r2, [r3]
 126:..\..\..\HamFlyAPI\src/hamfly_core_telemetry.c **** }
 533              		.loc 1 126 0
 534 0058 00BF     		nop
 535 005a 1437     		adds	r7, r7, #20
 536              		.cfi_def_cfa_offset 4
 537 005c BD46     		mov	sp, r7
 538              		.cfi_def_cfa_register 13
 539              		@ sp needed
 540 005e 80BC     		pop	{r7}
 541              		.cfi_restore 7
 542              		.cfi_def_cfa_offset 0
 543 0060 7047     		bx	lr
 544              	.L27:
 545 0062 00BF     		.align	2
 546              	.L26:
 547 0064 00000000 		.word	FreeflyAPI
 548              		.cfi_endproc
 549              	.LFE5:
 550              		.size	hamfly_decode_qx287, .-hamfly_decode_qx287
 551              		.global	__aeabi_i2f
 552              		.global	__aeabi_fdiv
 553              		.global	__aeabi_ui2f
 554              		.section	.text.hamfly_decode_gps,"ax",%progbits
 555              		.align	2
 556              		.global	hamfly_decode_gps
 557              		.thumb
 558              		.thumb_func
ARM GAS  C:\Users\JENNEW~1\AppData\Local\Temp\ccI7hFDI.s 			page 13


 559              		.type	hamfly_decode_gps, %function
 560              	hamfly_decode_gps:
 561              	.LFB6:
 127:..\..\..\HamFlyAPI\src/hamfly_core_telemetry.c **** 
 128:..\..\..\HamFlyAPI\src/hamfly_core_telemetry.c **** // ============================================================================
 129:..\..\..\HamFlyAPI\src/hamfly_core_telemetry.c **** // Hamfly Decode GPS [Hamfly Specific] -- attr 4
 130:..\..\..\HamFlyAPI\src/hamfly_core_telemetry.c **** // ============================================================================
 131:..\..\..\HamFlyAPI\src/hamfly_core_telemetry.c **** // Reads the raw bytes of the GPS payload and into telemetry struct fields:
 132:..\..\..\HamFlyAPI\src/hamfly_core_telemetry.c **** // 
 133:..\..\..\HamFlyAPI\src/hamfly_core_telemetry.c **** // Big-endian, no sub-index byte, 22 byte payload.
 134:..\..\..\HamFlyAPI\src/hamfly_core_telemetry.c **** // off  0-3  BE int32:  longitude    /1e7  deg
 135:..\..\..\HamFlyAPI\src/hamfly_core_telemetry.c **** // off  4-7  BE int32:  latitude     /1e7  deg
 136:..\..\..\HamFlyAPI\src/hamfly_core_telemetry.c **** // off  8-11 BE int32:  altitude     /1000 mm (WGS-84 ellipsoid)
 137:..\..\..\HamFlyAPI\src/hamfly_core_telemetry.c **** // off 12-13 BE int16:  ground speed /100  m/s
 138:..\..\..\HamFlyAPI\src/hamfly_core_telemetry.c **** // off 14-15 BE int16:  heading      /100  deg (confirmed, was /10)
 139:..\..\..\HamFlyAPI\src/hamfly_core_telemetry.c **** // off 16-17 BE uint16: HACC         /100  m
 140:..\..\..\HamFlyAPI\src/hamfly_core_telemetry.c **** // off 18-19 BE uint16: VACC         /100  m
 141:..\..\..\HamFlyAPI\src/hamfly_core_telemetry.c **** // off 20-21 BE uint16: SACC         /100  m/s
 142:..\..\..\HamFlyAPI\src/hamfly_core_telemetry.c **** // ============================================================================
 143:..\..\..\HamFlyAPI\src/hamfly_core_telemetry.c **** void hamfly_decode_gps(const uint8_t *p, uint16_t plen,
 144:..\..\..\HamFlyAPI\src/hamfly_core_telemetry.c ****                         hamfly_telemetry_t *dst)
 145:..\..\..\HamFlyAPI\src/hamfly_core_telemetry.c **** {
 562              		.loc 1 145 0
 563              		.cfi_startproc
 564              		@ args = 0, pretend = 0, frame = 40
 565              		@ frame_needed = 1, uses_anonymous_args = 0
 566 0000 80B5     		push	{r7, lr}
 567              		.cfi_def_cfa_offset 8
 568              		.cfi_offset 7, -8
 569              		.cfi_offset 14, -4
 570 0002 8AB0     		sub	sp, sp, #40
 571              		.cfi_def_cfa_offset 48
 572 0004 00AF     		add	r7, sp, #0
 573              		.cfi_def_cfa_register 7
 574 0006 F860     		str	r0, [r7, #12]
 575 0008 0B46     		mov	r3, r1
 576 000a 7A60     		str	r2, [r7, #4]
 577 000c 7B81     		strh	r3, [r7, #10]	@ movhi
 146:..\..\..\HamFlyAPI\src/hamfly_core_telemetry.c ****     if (plen < 22u) return;
 578              		.loc 1 146 0
 579 000e 7B89     		ldrh	r3, [r7, #10]
 580 0010 152B     		cmp	r3, #21
 581 0012 40F2BB80 		bls	.L31
 147:..\..\..\HamFlyAPI\src/hamfly_core_telemetry.c ****     // Decode to int.
 148:..\..\..\HamFlyAPI\src/hamfly_core_telemetry.c ****     int32_t  lon_raw  = rd_be32  (p +  0);
 582              		.loc 1 148 0
 583 0016 F868     		ldr	r0, [r7, #12]
 584 0018 FFF7FEFF 		bl	rd_be32
 585 001c 7862     		str	r0, [r7, #36]
 149:..\..\..\HamFlyAPI\src/hamfly_core_telemetry.c ****     int32_t  lat_raw  = rd_be32  (p +  4);
 586              		.loc 1 149 0
 587 001e FB68     		ldr	r3, [r7, #12]
 588 0020 0433     		adds	r3, r3, #4
 589 0022 1846     		mov	r0, r3
 590 0024 FFF7FEFF 		bl	rd_be32
 591 0028 3862     		str	r0, [r7, #32]
 150:..\..\..\HamFlyAPI\src/hamfly_core_telemetry.c ****     int32_t  alt_raw  = rd_be32  (p +  8);
ARM GAS  C:\Users\JENNEW~1\AppData\Local\Temp\ccI7hFDI.s 			page 14


 592              		.loc 1 150 0
 593 002a FB68     		ldr	r3, [r7, #12]
 594 002c 0833     		adds	r3, r3, #8
 595 002e 1846     		mov	r0, r3
 596 0030 FFF7FEFF 		bl	rd_be32
 597 0034 F861     		str	r0, [r7, #28]
 151:..\..\..\HamFlyAPI\src/hamfly_core_telemetry.c ****     int16_t  spd_raw  = rd_be16  (p + 12);
 598              		.loc 1 151 0
 599 0036 FB68     		ldr	r3, [r7, #12]
 600 0038 0C33     		adds	r3, r3, #12
 601 003a 1846     		mov	r0, r3
 602 003c FFF7FEFF 		bl	rd_be16
 603 0040 0346     		mov	r3, r0
 604 0042 7B83     		strh	r3, [r7, #26]	@ movhi
 152:..\..\..\HamFlyAPI\src/hamfly_core_telemetry.c ****     int16_t  hdg_raw  = rd_be16  (p + 14);
 605              		.loc 1 152 0
 606 0044 FB68     		ldr	r3, [r7, #12]
 607 0046 0E33     		adds	r3, r3, #14
 608 0048 1846     		mov	r0, r3
 609 004a FFF7FEFF 		bl	rd_be16
 610 004e 0346     		mov	r3, r0
 611 0050 3B83     		strh	r3, [r7, #24]	@ movhi
 153:..\..\..\HamFlyAPI\src/hamfly_core_telemetry.c ****     uint16_t hacc_raw = rd_be_u16(p + 16);
 612              		.loc 1 153 0
 613 0052 FB68     		ldr	r3, [r7, #12]
 614 0054 1033     		adds	r3, r3, #16
 615 0056 1846     		mov	r0, r3
 616 0058 FFF7FEFF 		bl	rd_be_u16
 617 005c 0346     		mov	r3, r0
 618 005e FB82     		strh	r3, [r7, #22]	@ movhi
 154:..\..\..\HamFlyAPI\src/hamfly_core_telemetry.c ****     uint16_t vacc_raw = rd_be_u16(p + 18);
 619              		.loc 1 154 0
 620 0060 FB68     		ldr	r3, [r7, #12]
 621 0062 1233     		adds	r3, r3, #18
 622 0064 1846     		mov	r0, r3
 623 0066 FFF7FEFF 		bl	rd_be_u16
 624 006a 0346     		mov	r3, r0
 625 006c BB82     		strh	r3, [r7, #20]	@ movhi
 155:..\..\..\HamFlyAPI\src/hamfly_core_telemetry.c ****     uint16_t sacc_raw = rd_be_u16(p + 20);
 626              		.loc 1 155 0
 627 006e FB68     		ldr	r3, [r7, #12]
 628 0070 1433     		adds	r3, r3, #20
 629 0072 1846     		mov	r0, r3
 630 0074 FFF7FEFF 		bl	rd_be_u16
 631 0078 0346     		mov	r3, r0
 632 007a 7B82     		strh	r3, [r7, #18]	@ movhi
 156:..\..\..\HamFlyAPI\src/hamfly_core_telemetry.c ****     // Save raw for debug and pointing math.
 157:..\..\..\HamFlyAPI\src/hamfly_core_telemetry.c ****     dst->gps_raw_lon  = lon_raw;
 633              		.loc 1 157 0
 634 007c 7B68     		ldr	r3, [r7, #4]
 635 007e 7A6A     		ldr	r2, [r7, #36]
 636 0080 5A64     		str	r2, [r3, #68]
 158:..\..\..\HamFlyAPI\src/hamfly_core_telemetry.c ****     dst->gps_raw_lat  = lat_raw;
 637              		.loc 1 158 0
 638 0082 7B68     		ldr	r3, [r7, #4]
 639 0084 3A6A     		ldr	r2, [r7, #32]
 640 0086 1A64     		str	r2, [r3, #64]
ARM GAS  C:\Users\JENNEW~1\AppData\Local\Temp\ccI7hFDI.s 			page 15


 159:..\..\..\HamFlyAPI\src/hamfly_core_telemetry.c ****     dst->gps_raw_alt  = alt_raw;
 641              		.loc 1 159 0
 642 0088 7B68     		ldr	r3, [r7, #4]
 643 008a FA69     		ldr	r2, [r7, #28]
 644 008c 9A64     		str	r2, [r3, #72]
 160:..\..\..\HamFlyAPI\src/hamfly_core_telemetry.c ****     dst->gps_raw_spd  = spd_raw;
 645              		.loc 1 160 0
 646 008e 7B68     		ldr	r3, [r7, #4]
 647 0090 7A8B     		ldrh	r2, [r7, #26]	@ movhi
 648 0092 A3F84C20 		strh	r2, [r3, #76]	@ movhi
 161:..\..\..\HamFlyAPI\src/hamfly_core_telemetry.c ****     dst->gps_raw_hdg  = hdg_raw;
 649              		.loc 1 161 0
 650 0096 7B68     		ldr	r3, [r7, #4]
 651 0098 3A8B     		ldrh	r2, [r7, #24]	@ movhi
 652 009a A3F84E20 		strh	r2, [r3, #78]	@ movhi
 162:..\..\..\HamFlyAPI\src/hamfly_core_telemetry.c ****     dst->gps_raw_hacc = hacc_raw;
 653              		.loc 1 162 0
 654 009e 7B68     		ldr	r3, [r7, #4]
 655 00a0 FA8A     		ldrh	r2, [r7, #22]	@ movhi
 656 00a2 A3F85020 		strh	r2, [r3, #80]	@ movhi
 163:..\..\..\HamFlyAPI\src/hamfly_core_telemetry.c ****     dst->gps_raw_vacc = vacc_raw;
 657              		.loc 1 163 0
 658 00a6 7B68     		ldr	r3, [r7, #4]
 659 00a8 BA8A     		ldrh	r2, [r7, #20]	@ movhi
 660 00aa A3F85220 		strh	r2, [r3, #82]	@ movhi
 164:..\..\..\HamFlyAPI\src/hamfly_core_telemetry.c ****     dst->gps_raw_sacc = sacc_raw;
 661              		.loc 1 164 0
 662 00ae 7B68     		ldr	r3, [r7, #4]
 663 00b0 7A8A     		ldrh	r2, [r7, #18]	@ movhi
 664 00b2 A3F85420 		strh	r2, [r3, #84]	@ movhi
 165:..\..\..\HamFlyAPI\src/hamfly_core_telemetry.c ****     // Decode float versions for display/logging only.
 166:..\..\..\HamFlyAPI\src/hamfly_core_telemetry.c ****     dst->gps_lon_deg       = (float)lon_raw  / 1e7f;
 665              		.loc 1 166 0
 666 00b6 786A     		ldr	r0, [r7, #36]
 667 00b8 FFF7FEFF 		bl	__aeabi_i2f
 668 00bc 0346     		mov	r3, r0
 669 00be 3549     		ldr	r1, .L32
 670 00c0 1846     		mov	r0, r3
 671 00c2 FFF7FEFF 		bl	__aeabi_fdiv
 672 00c6 0346     		mov	r3, r0
 673 00c8 1A46     		mov	r2, r3
 674 00ca 7B68     		ldr	r3, [r7, #4]
 675 00cc 5A62     		str	r2, [r3, #36]	@ float
 167:..\..\..\HamFlyAPI\src/hamfly_core_telemetry.c ****     dst->gps_lat_deg       = (float)lat_raw  / 1e7f;
 676              		.loc 1 167 0
 677 00ce 386A     		ldr	r0, [r7, #32]
 678 00d0 FFF7FEFF 		bl	__aeabi_i2f
 679 00d4 0346     		mov	r3, r0
 680 00d6 2F49     		ldr	r1, .L32
 681 00d8 1846     		mov	r0, r3
 682 00da FFF7FEFF 		bl	__aeabi_fdiv
 683 00de 0346     		mov	r3, r0
 684 00e0 1A46     		mov	r2, r3
 685 00e2 7B68     		ldr	r3, [r7, #4]
 686 00e4 1A62     		str	r2, [r3, #32]	@ float
 168:..\..\..\HamFlyAPI\src/hamfly_core_telemetry.c ****     dst->gps_alt_m         = (float)alt_raw  / 1000.0f;
 687              		.loc 1 168 0
ARM GAS  C:\Users\JENNEW~1\AppData\Local\Temp\ccI7hFDI.s 			page 16


 688 00e6 F869     		ldr	r0, [r7, #28]
 689 00e8 FFF7FEFF 		bl	__aeabi_i2f
 690 00ec 0346     		mov	r3, r0
 691 00ee 2A49     		ldr	r1, .L32+4
 692 00f0 1846     		mov	r0, r3
 693 00f2 FFF7FEFF 		bl	__aeabi_fdiv
 694 00f6 0346     		mov	r3, r0
 695 00f8 1A46     		mov	r2, r3
 696 00fa 7B68     		ldr	r3, [r7, #4]
 697 00fc 9A62     		str	r2, [r3, #40]	@ float
 169:..\..\..\HamFlyAPI\src/hamfly_core_telemetry.c ****     dst->gps_ground_spd_ms = (float)spd_raw  / 100.0f;
 698              		.loc 1 169 0
 699 00fe B7F91A30 		ldrsh	r3, [r7, #26]
 700 0102 1846     		mov	r0, r3
 701 0104 FFF7FEFF 		bl	__aeabi_i2f
 702 0108 0346     		mov	r3, r0
 703 010a 2449     		ldr	r1, .L32+8
 704 010c 1846     		mov	r0, r3
 705 010e FFF7FEFF 		bl	__aeabi_fdiv
 706 0112 0346     		mov	r3, r0
 707 0114 1A46     		mov	r2, r3
 708 0116 7B68     		ldr	r3, [r7, #4]
 709 0118 DA62     		str	r2, [r3, #44]	@ float
 170:..\..\..\HamFlyAPI\src/hamfly_core_telemetry.c ****     dst->gps_heading_deg   = (float)hdg_raw  / 100.0f;  /* was /10 */
 710              		.loc 1 170 0
 711 011a B7F91830 		ldrsh	r3, [r7, #24]
 712 011e 1846     		mov	r0, r3
 713 0120 FFF7FEFF 		bl	__aeabi_i2f
 714 0124 0346     		mov	r3, r0
 715 0126 1D49     		ldr	r1, .L32+8
 716 0128 1846     		mov	r0, r3
 717 012a FFF7FEFF 		bl	__aeabi_fdiv
 718 012e 0346     		mov	r3, r0
 719 0130 1A46     		mov	r2, r3
 720 0132 7B68     		ldr	r3, [r7, #4]
 721 0134 1A63     		str	r2, [r3, #48]	@ float
 171:..\..\..\HamFlyAPI\src/hamfly_core_telemetry.c ****     dst->gps_hacc_m        = (float)hacc_raw / 100.0f;
 722              		.loc 1 171 0
 723 0136 FB8A     		ldrh	r3, [r7, #22]
 724 0138 1846     		mov	r0, r3
 725 013a FFF7FEFF 		bl	__aeabi_ui2f
 726 013e 0346     		mov	r3, r0
 727 0140 1649     		ldr	r1, .L32+8
 728 0142 1846     		mov	r0, r3
 729 0144 FFF7FEFF 		bl	__aeabi_fdiv
 730 0148 0346     		mov	r3, r0
 731 014a 1A46     		mov	r2, r3
 732 014c 7B68     		ldr	r3, [r7, #4]
 733 014e 5A63     		str	r2, [r3, #52]	@ float
 172:..\..\..\HamFlyAPI\src/hamfly_core_telemetry.c ****     dst->gps_vacc_m        = (float)vacc_raw / 100.0f;
 734              		.loc 1 172 0
 735 0150 BB8A     		ldrh	r3, [r7, #20]
 736 0152 1846     		mov	r0, r3
 737 0154 FFF7FEFF 		bl	__aeabi_ui2f
 738 0158 0346     		mov	r3, r0
 739 015a 1049     		ldr	r1, .L32+8
 740 015c 1846     		mov	r0, r3
ARM GAS  C:\Users\JENNEW~1\AppData\Local\Temp\ccI7hFDI.s 			page 17


 741 015e FFF7FEFF 		bl	__aeabi_fdiv
 742 0162 0346     		mov	r3, r0
 743 0164 1A46     		mov	r2, r3
 744 0166 7B68     		ldr	r3, [r7, #4]
 745 0168 9A63     		str	r2, [r3, #56]	@ float
 173:..\..\..\HamFlyAPI\src/hamfly_core_telemetry.c ****     dst->gps_sacc_ms       = (float)sacc_raw / 100.0f;
 746              		.loc 1 173 0
 747 016a 7B8A     		ldrh	r3, [r7, #18]
 748 016c 1846     		mov	r0, r3
 749 016e FFF7FEFF 		bl	__aeabi_ui2f
 750 0172 0346     		mov	r3, r0
 751 0174 0949     		ldr	r1, .L32+8
 752 0176 1846     		mov	r0, r3
 753 0178 FFF7FEFF 		bl	__aeabi_fdiv
 754 017c 0346     		mov	r3, r0
 755 017e 1A46     		mov	r2, r3
 756 0180 7B68     		ldr	r3, [r7, #4]
 757 0182 DA63     		str	r2, [r3, #60]	@ float
 174:..\..\..\HamFlyAPI\src/hamfly_core_telemetry.c ****     dst->gps_valid         = true;
 758              		.loc 1 174 0
 759 0184 7B68     		ldr	r3, [r7, #4]
 760 0186 0122     		movs	r2, #1
 761 0188 9A77     		strb	r2, [r3, #30]
 762 018a 00E0     		b	.L28
 763              	.L31:
 146:..\..\..\HamFlyAPI\src/hamfly_core_telemetry.c ****     // Decode to int.
 764              		.loc 1 146 0
 765 018c 00BF     		nop
 766              	.L28:
 175:..\..\..\HamFlyAPI\src/hamfly_core_telemetry.c **** }
 767              		.loc 1 175 0
 768 018e 2837     		adds	r7, r7, #40
 769              		.cfi_def_cfa_offset 8
 770 0190 BD46     		mov	sp, r7
 771              		.cfi_def_cfa_register 13
 772              		@ sp needed
 773 0192 80BD     		pop	{r7, pc}
 774              	.L33:
 775              		.align	2
 776              	.L32:
 777 0194 8096184B 		.word	1259902592
 778 0198 00007A44 		.word	1148846080
 779 019c 0000C842 		.word	1120403456
 780              		.cfi_endproc
 781              	.LFE6:
 782              		.size	hamfly_decode_gps, .-hamfly_decode_gps
 783              		.section	.text.hamfly_decode_baro,"ax",%progbits
 784              		.align	2
 785              		.global	hamfly_decode_baro
 786              		.thumb
 787              		.thumb_func
 788              		.type	hamfly_decode_baro, %function
 789              	hamfly_decode_baro:
 790              	.LFB7:
 176:..\..\..\HamFlyAPI\src/hamfly_core_telemetry.c **** 
 177:..\..\..\HamFlyAPI\src/hamfly_core_telemetry.c **** // ============================================================================
 178:..\..\..\HamFlyAPI\src/hamfly_core_telemetry.c **** // Hamfly Decode Barometer [Hamfly Specific] -- attr 3
ARM GAS  C:\Users\JENNEW~1\AppData\Local\Temp\ccI7hFDI.s 			page 18


 179:..\..\..\HamFlyAPI\src/hamfly_core_telemetry.c **** // ============================================================================
 180:..\..\..\HamFlyAPI\src/hamfly_core_telemetry.c **** // Reads the raw bytes of the Barometer payload and into telemetry fields:
 181:..\..\..\HamFlyAPI\src/hamfly_core_telemetry.c **** // 
 182:..\..\..\HamFlyAPI\src/hamfly_core_telemetry.c **** // Little-endian, sub-index byte at off 0 (ignored), 5 byte payload.
 183:..\..\..\HamFlyAPI\src/hamfly_core_telemetry.c **** // off 1-2  LE int16: altitude      /10  m
 184:..\..\..\HamFlyAPI\src/hamfly_core_telemetry.c **** // off 3-4  LE int16: rate of climb /100 m/s
 185:..\..\..\HamFlyAPI\src/hamfly_core_telemetry.c **** // ============================================================================
 186:..\..\..\HamFlyAPI\src/hamfly_core_telemetry.c **** void hamfly_decode_baro(const uint8_t *p, uint16_t plen,
 187:..\..\..\HamFlyAPI\src/hamfly_core_telemetry.c ****                          hamfly_telemetry_t *dst)
 188:..\..\..\HamFlyAPI\src/hamfly_core_telemetry.c **** {
 791              		.loc 1 188 0
 792              		.cfi_startproc
 793              		@ args = 0, pretend = 0, frame = 16
 794              		@ frame_needed = 1, uses_anonymous_args = 0
 795 0000 80B5     		push	{r7, lr}
 796              		.cfi_def_cfa_offset 8
 797              		.cfi_offset 7, -8
 798              		.cfi_offset 14, -4
 799 0002 84B0     		sub	sp, sp, #16
 800              		.cfi_def_cfa_offset 24
 801 0004 00AF     		add	r7, sp, #0
 802              		.cfi_def_cfa_register 7
 803 0006 F860     		str	r0, [r7, #12]
 804 0008 0B46     		mov	r3, r1
 805 000a 7A60     		str	r2, [r7, #4]
 806 000c 7B81     		strh	r3, [r7, #10]	@ movhi
 189:..\..\..\HamFlyAPI\src/hamfly_core_telemetry.c ****     if (plen < 5u) return;
 807              		.loc 1 189 0
 808 000e 7B89     		ldrh	r3, [r7, #10]
 809 0010 042B     		cmp	r3, #4
 810 0012 28D9     		bls	.L37
 190:..\..\..\HamFlyAPI\src/hamfly_core_telemetry.c **** 
 191:..\..\..\HamFlyAPI\src/hamfly_core_telemetry.c ****     // Decode and populate.
 192:..\..\..\HamFlyAPI\src/hamfly_core_telemetry.c ****     dst->baro_alt_m  = (float)rd_le16(p + 1) / 10.0f;
 811              		.loc 1 192 0
 812 0014 FB68     		ldr	r3, [r7, #12]
 813 0016 0133     		adds	r3, r3, #1
 814 0018 1846     		mov	r0, r3
 815 001a FFF7FEFF 		bl	rd_le16
 816 001e 0346     		mov	r3, r0
 817 0020 1846     		mov	r0, r3
 818 0022 FFF7FEFF 		bl	__aeabi_i2f
 819 0026 0346     		mov	r3, r0
 820 0028 1149     		ldr	r1, .L38
 821 002a 1846     		mov	r0, r3
 822 002c FFF7FEFF 		bl	__aeabi_fdiv
 823 0030 0346     		mov	r3, r0
 824 0032 1A46     		mov	r2, r3
 825 0034 7B68     		ldr	r3, [r7, #4]
 826 0036 9A65     		str	r2, [r3, #88]	@ float
 193:..\..\..\HamFlyAPI\src/hamfly_core_telemetry.c ****     /* Scale changed /100 -> /1000. Previous gave -33 m/s at rest
 194:..\..\..\HamFlyAPI\src/hamfly_core_telemetry.c ****      * (implausible). Corrected gives -3.3 m/s. Awaiting lift test. */
 195:..\..\..\HamFlyAPI\src/hamfly_core_telemetry.c ****     dst->baro_roc_ms = (float)rd_le16(p + 3) / 1000.0f;
 827              		.loc 1 195 0
 828 0038 FB68     		ldr	r3, [r7, #12]
 829 003a 0333     		adds	r3, r3, #3
 830 003c 1846     		mov	r0, r3
ARM GAS  C:\Users\JENNEW~1\AppData\Local\Temp\ccI7hFDI.s 			page 19


 831 003e FFF7FEFF 		bl	rd_le16
 832 0042 0346     		mov	r3, r0
 833 0044 1846     		mov	r0, r3
 834 0046 FFF7FEFF 		bl	__aeabi_i2f
 835 004a 0346     		mov	r3, r0
 836 004c 0949     		ldr	r1, .L38+4
 837 004e 1846     		mov	r0, r3
 838 0050 FFF7FEFF 		bl	__aeabi_fdiv
 839 0054 0346     		mov	r3, r0
 840 0056 1A46     		mov	r2, r3
 841 0058 7B68     		ldr	r3, [r7, #4]
 842 005a DA65     		str	r2, [r3, #92]	@ float
 196:..\..\..\HamFlyAPI\src/hamfly_core_telemetry.c ****     dst->baro_valid  = true;
 843              		.loc 1 196 0
 844 005c 7B68     		ldr	r3, [r7, #4]
 845 005e 0122     		movs	r2, #1
 846 0060 83F85620 		strb	r2, [r3, #86]
 847 0064 00E0     		b	.L34
 848              	.L37:
 189:..\..\..\HamFlyAPI\src/hamfly_core_telemetry.c **** 
 849              		.loc 1 189 0
 850 0066 00BF     		nop
 851              	.L34:
 197:..\..\..\HamFlyAPI\src/hamfly_core_telemetry.c **** }
 852              		.loc 1 197 0
 853 0068 1037     		adds	r7, r7, #16
 854              		.cfi_def_cfa_offset 8
 855 006a BD46     		mov	sp, r7
 856              		.cfi_def_cfa_register 13
 857              		@ sp needed
 858 006c 80BD     		pop	{r7, pc}
 859              	.L39:
 860 006e 00BF     		.align	2
 861              	.L38:
 862 0070 00002041 		.word	1092616192
 863 0074 00007A44 		.word	1148846080
 864              		.cfi_endproc
 865              	.LFE7:
 866              		.size	hamfly_decode_baro, .-hamfly_decode_baro
 867              		.section	.text.hamfly_decode_attitude,"ax",%progbits
 868              		.align	2
 869              		.global	hamfly_decode_attitude
 870              		.thumb
 871              		.thumb_func
 872              		.type	hamfly_decode_attitude, %function
 873              	hamfly_decode_attitude:
 874              	.LFB8:
 198:..\..\..\HamFlyAPI\src/hamfly_core_telemetry.c **** 
 199:..\..\..\HamFlyAPI\src/hamfly_core_telemetry.c **** // ============================================================================
 200:..\..\..\HamFlyAPI\src/hamfly_core_telemetry.c **** // Hamfly Decode Attitude [Hamfly Specific] -- attr 22
 201:..\..\..\HamFlyAPI\src/hamfly_core_telemetry.c **** // ============================================================================
 202:..\..\..\HamFlyAPI\src/hamfly_core_telemetry.c **** // Reads the raw bytes of the Attitude payload and into telemetry fields:
 203:..\..\..\HamFlyAPI\src/hamfly_core_telemetry.c **** // 
 204:..\..\..\HamFlyAPI\src/hamfly_core_telemetry.c **** // Little-endian. off 0: state byte (0x00/0xFF) — ignored.
 205:..\..\..\HamFlyAPI\src/hamfly_core_telemetry.c **** // off 1-2  LE int16: Pitch /100 deg — confirmed vs iOS
 206:..\..\..\HamFlyAPI\src/hamfly_core_telemetry.c **** // off 3-4  LE int16: Yaw   /100 deg — confirmed vs iOS
 207:..\..\..\HamFlyAPI\src/hamfly_core_telemetry.c **** // off 5-6  LE int16: Roll  /100 deg — confirmed vs iOS
ARM GAS  C:\Users\JENNEW~1\AppData\Local\Temp\ccI7hFDI.s 			page 20


 208:..\..\..\HamFlyAPI\src/hamfly_core_telemetry.c **** // off 7-8  LE int16: unknown (was roll_err /10; unconfirmed)
 209:..\..\..\HamFlyAPI\src/hamfly_core_telemetry.c **** // off 9-14  LE int16 x3: rates /100 dps — updated per iOS layout
 210:..\..\..\HamFlyAPI\src/hamfly_core_telemetry.c **** //   TODO: verify rate values against iOS Charts screen.
 211:..\..\..\HamFlyAPI\src/hamfly_core_telemetry.c **** //   Previous decode placed rates at off 13-18 at /10.
 212:..\..\..\HamFlyAPI\src/hamfly_core_telemetry.c **** // ============================================================================
 213:..\..\..\HamFlyAPI\src/hamfly_core_telemetry.c **** void hamfly_decode_attitude(const uint8_t *p, uint16_t plen,
 214:..\..\..\HamFlyAPI\src/hamfly_core_telemetry.c ****                               hamfly_telemetry_t *dst)
 215:..\..\..\HamFlyAPI\src/hamfly_core_telemetry.c **** {
 875              		.loc 1 215 0
 876              		.cfi_startproc
 877              		@ args = 0, pretend = 0, frame = 16
 878              		@ frame_needed = 1, uses_anonymous_args = 0
 879 0000 80B5     		push	{r7, lr}
 880              		.cfi_def_cfa_offset 8
 881              		.cfi_offset 7, -8
 882              		.cfi_offset 14, -4
 883 0002 84B0     		sub	sp, sp, #16
 884              		.cfi_def_cfa_offset 24
 885 0004 00AF     		add	r7, sp, #0
 886              		.cfi_def_cfa_register 7
 887 0006 F860     		str	r0, [r7, #12]
 888 0008 0B46     		mov	r3, r1
 889 000a 7A60     		str	r2, [r7, #4]
 890 000c 7B81     		strh	r3, [r7, #10]	@ movhi
 216:..\..\..\HamFlyAPI\src/hamfly_core_telemetry.c ****     if (plen < 15u) return;
 891              		.loc 1 216 0
 892 000e 7B89     		ldrh	r3, [r7, #10]
 893 0010 0E2B     		cmp	r3, #14
 894 0012 40F28E80 		bls	.L43
 217:..\..\..\HamFlyAPI\src/hamfly_core_telemetry.c **** 
 218:..\..\..\HamFlyAPI\src/hamfly_core_telemetry.c ****     /* Angles — confirmed against iOS app. */
 219:..\..\..\HamFlyAPI\src/hamfly_core_telemetry.c ****     dst->att_pitch_deg  = (float)rd_le16(p +  1) / 100.0f;
 895              		.loc 1 219 0
 896 0016 FB68     		ldr	r3, [r7, #12]
 897 0018 0133     		adds	r3, r3, #1
 898 001a 1846     		mov	r0, r3
 899 001c FFF7FEFF 		bl	rd_le16
 900 0020 0346     		mov	r3, r0
 901 0022 1846     		mov	r0, r3
 902 0024 FFF7FEFF 		bl	__aeabi_i2f
 903 0028 0346     		mov	r3, r0
 904 002a 4449     		ldr	r1, .L44
 905 002c 1846     		mov	r0, r3
 906 002e FFF7FEFF 		bl	__aeabi_fdiv
 907 0032 0346     		mov	r3, r0
 908 0034 1A46     		mov	r2, r3
 909 0036 7B68     		ldr	r3, [r7, #4]
 910 0038 9A66     		str	r2, [r3, #104]	@ float
 220:..\..\..\HamFlyAPI\src/hamfly_core_telemetry.c ****     dst->att_yaw_deg    = (float)rd_le16(p +  3) / 100.0f;
 911              		.loc 1 220 0
 912 003a FB68     		ldr	r3, [r7, #12]
 913 003c 0333     		adds	r3, r3, #3
 914 003e 1846     		mov	r0, r3
 915 0040 FFF7FEFF 		bl	rd_le16
 916 0044 0346     		mov	r3, r0
 917 0046 1846     		mov	r0, r3
 918 0048 FFF7FEFF 		bl	__aeabi_i2f
ARM GAS  C:\Users\JENNEW~1\AppData\Local\Temp\ccI7hFDI.s 			page 21


 919 004c 0346     		mov	r3, r0
 920 004e 3B49     		ldr	r1, .L44
 921 0050 1846     		mov	r0, r3
 922 0052 FFF7FEFF 		bl	__aeabi_fdiv
 923 0056 0346     		mov	r3, r0
 924 0058 1A46     		mov	r2, r3
 925 005a 7B68     		ldr	r3, [r7, #4]
 926 005c DA66     		str	r2, [r3, #108]	@ float
 221:..\..\..\HamFlyAPI\src/hamfly_core_telemetry.c ****     dst->att_roll_deg   = (float)rd_le16(p +  5) / 100.0f;
 927              		.loc 1 221 0
 928 005e FB68     		ldr	r3, [r7, #12]
 929 0060 0533     		adds	r3, r3, #5
 930 0062 1846     		mov	r0, r3
 931 0064 FFF7FEFF 		bl	rd_le16
 932 0068 0346     		mov	r3, r0
 933 006a 1846     		mov	r0, r3
 934 006c FFF7FEFF 		bl	__aeabi_i2f
 935 0070 0346     		mov	r3, r0
 936 0072 3249     		ldr	r1, .L44
 937 0074 1846     		mov	r0, r3
 938 0076 FFF7FEFF 		bl	__aeabi_fdiv
 939 007a 0346     		mov	r3, r0
 940 007c 1A46     		mov	r2, r3
 941 007e 7B68     		ldr	r3, [r7, #4]
 942 0080 1A67     		str	r2, [r3, #112]	@ float
 222:..\..\..\HamFlyAPI\src/hamfly_core_telemetry.c **** 
 223:..\..\..\HamFlyAPI\src/hamfly_core_telemetry.c ****     /* off 7-8: purpose unconfirmed. Keep decoding as roll_err
 224:..\..\..\HamFlyAPI\src/hamfly_core_telemetry.c ****      * until next capture session resolves it. */
 225:..\..\..\HamFlyAPI\src/hamfly_core_telemetry.c ****     dst->att_roll_err_deg = (float)rd_le16(p + 7) / 10.0f;
 943              		.loc 1 225 0
 944 0082 FB68     		ldr	r3, [r7, #12]
 945 0084 0733     		adds	r3, r3, #7
 946 0086 1846     		mov	r0, r3
 947 0088 FFF7FEFF 		bl	rd_le16
 948 008c 0346     		mov	r3, r0
 949 008e 1846     		mov	r0, r3
 950 0090 FFF7FEFF 		bl	__aeabi_i2f
 951 0094 0346     		mov	r3, r0
 952 0096 2A49     		ldr	r1, .L44+4
 953 0098 1846     		mov	r0, r3
 954 009a FFF7FEFF 		bl	__aeabi_fdiv
 955 009e 0346     		mov	r3, r0
 956 00a0 1A46     		mov	r2, r3
 957 00a2 7B68     		ldr	r3, [r7, #4]
 958 00a4 C3F88020 		str	r2, [r3, #128]	@ float
 226:..\..\..\HamFlyAPI\src/hamfly_core_telemetry.c **** 
 227:..\..\..\HamFlyAPI\src/hamfly_core_telemetry.c ****     /* Rates: updated to off 9-14 /100 per confirmed iOS layout.
 228:..\..\..\HamFlyAPI\src/hamfly_core_telemetry.c ****      * TODO: verify values against iOS Charts screen. */
 229:..\..\..\HamFlyAPI\src/hamfly_core_telemetry.c ****     dst->att_pitch_rate_dps = (float)rd_le16(p +  9) / 100.0f;
 959              		.loc 1 229 0
 960 00a8 FB68     		ldr	r3, [r7, #12]
 961 00aa 0933     		adds	r3, r3, #9
 962 00ac 1846     		mov	r0, r3
 963 00ae FFF7FEFF 		bl	rd_le16
 964 00b2 0346     		mov	r3, r0
 965 00b4 1846     		mov	r0, r3
 966 00b6 FFF7FEFF 		bl	__aeabi_i2f
ARM GAS  C:\Users\JENNEW~1\AppData\Local\Temp\ccI7hFDI.s 			page 22


 967 00ba 0346     		mov	r3, r0
 968 00bc 1F49     		ldr	r1, .L44
 969 00be 1846     		mov	r0, r3
 970 00c0 FFF7FEFF 		bl	__aeabi_fdiv
 971 00c4 0346     		mov	r3, r0
 972 00c6 1A46     		mov	r2, r3
 973 00c8 7B68     		ldr	r3, [r7, #4]
 974 00ca 5A67     		str	r2, [r3, #116]	@ float
 230:..\..\..\HamFlyAPI\src/hamfly_core_telemetry.c ****     dst->att_yaw_rate_dps   = (float)rd_le16(p + 11) / 100.0f;
 975              		.loc 1 230 0
 976 00cc FB68     		ldr	r3, [r7, #12]
 977 00ce 0B33     		adds	r3, r3, #11
 978 00d0 1846     		mov	r0, r3
 979 00d2 FFF7FEFF 		bl	rd_le16
 980 00d6 0346     		mov	r3, r0
 981 00d8 1846     		mov	r0, r3
 982 00da FFF7FEFF 		bl	__aeabi_i2f
 983 00de 0346     		mov	r3, r0
 984 00e0 1649     		ldr	r1, .L44
 985 00e2 1846     		mov	r0, r3
 986 00e4 FFF7FEFF 		bl	__aeabi_fdiv
 987 00e8 0346     		mov	r3, r0
 988 00ea 1A46     		mov	r2, r3
 989 00ec 7B68     		ldr	r3, [r7, #4]
 990 00ee 9A67     		str	r2, [r3, #120]	@ float
 231:..\..\..\HamFlyAPI\src/hamfly_core_telemetry.c ****     dst->att_roll_rate_dps  = (float)rd_le16(p + 13) / 100.0f;
 991              		.loc 1 231 0
 992 00f0 FB68     		ldr	r3, [r7, #12]
 993 00f2 0D33     		adds	r3, r3, #13
 994 00f4 1846     		mov	r0, r3
 995 00f6 FFF7FEFF 		bl	rd_le16
 996 00fa 0346     		mov	r3, r0
 997 00fc 1846     		mov	r0, r3
 998 00fe FFF7FEFF 		bl	__aeabi_i2f
 999 0102 0346     		mov	r3, r0
 1000 0104 0D49     		ldr	r1, .L44
 1001 0106 1846     		mov	r0, r3
 1002 0108 FFF7FEFF 		bl	__aeabi_fdiv
 1003 010c 0346     		mov	r3, r0
 1004 010e 1A46     		mov	r2, r3
 1005 0110 7B68     		ldr	r3, [r7, #4]
 1006 0112 DA67     		str	r2, [r3, #124]	@ float
 232:..\..\..\HamFlyAPI\src/hamfly_core_telemetry.c **** 
 233:..\..\..\HamFlyAPI\src/hamfly_core_telemetry.c ****     /* pitch_err/yaw_err previously at off 9/11; now occupied by
 234:..\..\..\HamFlyAPI\src/hamfly_core_telemetry.c ****      * rates. Zeroed until layout is fully confirmed. */
 235:..\..\..\HamFlyAPI\src/hamfly_core_telemetry.c ****     dst->att_pitch_err_deg = 0.0f;
 1007              		.loc 1 235 0
 1008 0114 7B68     		ldr	r3, [r7, #4]
 1009 0116 4FF00002 		mov	r2, #0
 1010 011a C3F88420 		str	r2, [r3, #132]	@ float
 236:..\..\..\HamFlyAPI\src/hamfly_core_telemetry.c ****     dst->att_yaw_err_deg   = 0.0f;
 1011              		.loc 1 236 0
 1012 011e 7B68     		ldr	r3, [r7, #4]
 1013 0120 4FF00002 		mov	r2, #0
 1014 0124 C3F88820 		str	r2, [r3, #136]	@ float
 237:..\..\..\HamFlyAPI\src/hamfly_core_telemetry.c **** 
 238:..\..\..\HamFlyAPI\src/hamfly_core_telemetry.c ****     dst->att_valid = true;
ARM GAS  C:\Users\JENNEW~1\AppData\Local\Temp\ccI7hFDI.s 			page 23


 1015              		.loc 1 238 0
 1016 0128 7B68     		ldr	r3, [r7, #4]
 1017 012a 0122     		movs	r2, #1
 1018 012c 83F86020 		strb	r2, [r3, #96]
 1019 0130 00E0     		b	.L40
 1020              	.L43:
 216:..\..\..\HamFlyAPI\src/hamfly_core_telemetry.c **** 
 1021              		.loc 1 216 0
 1022 0132 00BF     		nop
 1023              	.L40:
 239:..\..\..\HamFlyAPI\src/hamfly_core_telemetry.c **** }
 1024              		.loc 1 239 0
 1025 0134 1037     		adds	r7, r7, #16
 1026              		.cfi_def_cfa_offset 8
 1027 0136 BD46     		mov	sp, r7
 1028              		.cfi_def_cfa_register 13
 1029              		@ sp needed
 1030 0138 80BD     		pop	{r7, pc}
 1031              	.L45:
 1032 013a 00BF     		.align	2
 1033              	.L44:
 1034 013c 0000C842 		.word	1120403456
 1035 0140 00002041 		.word	1092616192
 1036              		.cfi_endproc
 1037              	.LFE8:
 1038              		.size	hamfly_decode_attitude, .-hamfly_decode_attitude
 1039              		.section	.text.hamfly_decode_sysstat,"ax",%progbits
 1040              		.align	2
 1041              		.global	hamfly_decode_sysstat
 1042              		.thumb
 1043              		.thumb_func
 1044              		.type	hamfly_decode_sysstat, %function
 1045              	hamfly_decode_sysstat:
 1046              	.LFB9:
 240:..\..\..\HamFlyAPI\src/hamfly_core_telemetry.c **** 
 241:..\..\..\HamFlyAPI\src/hamfly_core_telemetry.c **** // ============================================================================
 242:..\..\..\HamFlyAPI\src/hamfly_core_telemetry.c **** // Hamfly Decode System Status [Hamfly Specific] -- attr 1
 243:..\..\..\HamFlyAPI\src/hamfly_core_telemetry.c **** // ============================================================================
 244:..\..\..\HamFlyAPI\src/hamfly_core_telemetry.c **** // Reads the raw bytes of the System Status payload and into telemetry fields:
 245:..\..\..\HamFlyAPI\src/hamfly_core_telemetry.c **** // 
 246:..\..\..\HamFlyAPI\src/hamfly_core_telemetry.c **** // Big-endian, no sub-index byte, 22 byte payload.
 247:..\..\..\HamFlyAPI\src/hamfly_core_telemetry.c **** // off 0-1   BE int16:  battery voltage /100 V
 248:..\..\..\HamFlyAPI\src/hamfly_core_telemetry.c **** // off 2     uint8:     GPS satellites
 249:..\..\..\HamFlyAPI\src/hamfly_core_telemetry.c **** // off 3     uint8:     temperature     /3   C
 250:..\..\..\HamFlyAPI\src/hamfly_core_telemetry.c **** // off 4     uint8:     CPU         %        %
 251:..\..\..\HamFlyAPI\src/hamfly_core_telemetry.c **** // off 5-6   BE int16:  status flags
 252:..\..\..\HamFlyAPI\src/hamfly_core_telemetry.c **** // off 7-8   BE int16:  time                 s
 253:..\..\..\HamFlyAPI\src/hamfly_core_telemetry.c **** // off 9-10  BE int16:  pressure        /10  mb
 254:..\..\..\HamFlyAPI\src/hamfly_core_telemetry.c **** // off 11-12 BE int16:  IMU rate
 255:..\..\..\HamFlyAPI\src/hamfly_core_telemetry.c **** // off 13-14 BE int16:  camera status
 256:..\..\..\HamFlyAPI\src/hamfly_core_telemetry.c **** // off 15    uint8:     reserved
 257:..\..\..\HamFlyAPI\src/hamfly_core_telemetry.c **** // off 16-17 BE int16:  IMU latency          us
 258:..\..\..\HamFlyAPI\src/hamfly_core_telemetry.c **** // off 18-19 BE int16:  battery current /100 A
 259:..\..\..\HamFlyAPI\src/hamfly_core_telemetry.c **** // off 20-21 BE int16:  charge used          mAh
 260:..\..\..\HamFlyAPI\src/hamfly_core_telemetry.c **** // ============================================================================
 261:..\..\..\HamFlyAPI\src/hamfly_core_telemetry.c **** void hamfly_decode_sysstat(const uint8_t *p, uint16_t plen,
 262:..\..\..\HamFlyAPI\src/hamfly_core_telemetry.c ****                              hamfly_telemetry_t *dst)
ARM GAS  C:\Users\JENNEW~1\AppData\Local\Temp\ccI7hFDI.s 			page 24


 263:..\..\..\HamFlyAPI\src/hamfly_core_telemetry.c **** {
 1047              		.loc 1 263 0
 1048              		.cfi_startproc
 1049              		@ args = 0, pretend = 0, frame = 16
 1050              		@ frame_needed = 1, uses_anonymous_args = 0
 1051 0000 80B5     		push	{r7, lr}
 1052              		.cfi_def_cfa_offset 8
 1053              		.cfi_offset 7, -8
 1054              		.cfi_offset 14, -4
 1055 0002 84B0     		sub	sp, sp, #16
 1056              		.cfi_def_cfa_offset 24
 1057 0004 00AF     		add	r7, sp, #0
 1058              		.cfi_def_cfa_register 7
 1059 0006 F860     		str	r0, [r7, #12]
 1060 0008 0B46     		mov	r3, r1
 1061 000a 7A60     		str	r2, [r7, #4]
 1062 000c 7B81     		strh	r3, [r7, #10]	@ movhi
 264:..\..\..\HamFlyAPI\src/hamfly_core_telemetry.c ****     if (plen < 22u) return;
 1063              		.loc 1 264 0
 1064 000e 7B89     		ldrh	r3, [r7, #10]
 1065 0010 152B     		cmp	r3, #21
 1066 0012 40F2CF80 		bls	.L49
 265:..\..\..\HamFlyAPI\src/hamfly_core_telemetry.c **** 
 266:..\..\..\HamFlyAPI\src/hamfly_core_telemetry.c ****     // Decode and populate.
 267:..\..\..\HamFlyAPI\src/hamfly_core_telemetry.c ****     dst->sysstat_batt_v       = (float)rd_be16(p +  0) / 100.0f;
 1067              		.loc 1 267 0
 1068 0016 F868     		ldr	r0, [r7, #12]
 1069 0018 FFF7FEFF 		bl	rd_be16
 1070 001c 0346     		mov	r3, r0
 1071 001e 1846     		mov	r0, r3
 1072 0020 FFF7FEFF 		bl	__aeabi_i2f
 1073 0024 0346     		mov	r3, r0
 1074 0026 6549     		ldr	r1, .L50
 1075 0028 1846     		mov	r0, r3
 1076 002a FFF7FEFF 		bl	__aeabi_fdiv
 1077 002e 0346     		mov	r3, r0
 1078 0030 1A46     		mov	r2, r3
 1079 0032 7B68     		ldr	r3, [r7, #4]
 1080 0034 C3F89420 		str	r2, [r3, #148]	@ float
 268:..\..\..\HamFlyAPI\src/hamfly_core_telemetry.c ****     dst->sysstat_gps_sats     = p[2];
 1081              		.loc 1 268 0
 1082 0038 FB68     		ldr	r3, [r7, #12]
 1083 003a 9A78     		ldrb	r2, [r3, #2]	@ zero_extendqisi2
 1084 003c 7B68     		ldr	r3, [r7, #4]
 1085 003e 83F89820 		strb	r2, [r3, #152]
 269:..\..\..\HamFlyAPI\src/hamfly_core_telemetry.c ****     dst->sysstat_temp_c       = (float)p[3] / 3.0f;
 1086              		.loc 1 269 0
 1087 0042 FB68     		ldr	r3, [r7, #12]
 1088 0044 0333     		adds	r3, r3, #3
 1089 0046 1B78     		ldrb	r3, [r3]	@ zero_extendqisi2
 1090 0048 1846     		mov	r0, r3
 1091 004a FFF7FEFF 		bl	__aeabi_ui2f
 1092 004e 0346     		mov	r3, r0
 1093 0050 5B49     		ldr	r1, .L50+4
 1094 0052 1846     		mov	r0, r3
 1095 0054 FFF7FEFF 		bl	__aeabi_fdiv
 1096 0058 0346     		mov	r3, r0
ARM GAS  C:\Users\JENNEW~1\AppData\Local\Temp\ccI7hFDI.s 			page 25


 1097 005a 1A46     		mov	r2, r3
 1098 005c 7B68     		ldr	r3, [r7, #4]
 1099 005e C3F89C20 		str	r2, [r3, #156]	@ float
 270:..\..\..\HamFlyAPI\src/hamfly_core_telemetry.c ****     dst->sysstat_cpu_pct      = p[4];
 1100              		.loc 1 270 0
 1101 0062 FB68     		ldr	r3, [r7, #12]
 1102 0064 1A79     		ldrb	r2, [r3, #4]	@ zero_extendqisi2
 1103 0066 7B68     		ldr	r3, [r7, #4]
 1104 0068 83F8A020 		strb	r2, [r3, #160]
 271:..\..\..\HamFlyAPI\src/hamfly_core_telemetry.c ****     dst->sysstat_status_flags = rd_be16(p +  5);
 1105              		.loc 1 271 0
 1106 006c FB68     		ldr	r3, [r7, #12]
 1107 006e 0533     		adds	r3, r3, #5
 1108 0070 1846     		mov	r0, r3
 1109 0072 FFF7FEFF 		bl	rd_be16
 1110 0076 0346     		mov	r3, r0
 1111 0078 1A46     		mov	r2, r3
 1112 007a 7B68     		ldr	r3, [r7, #4]
 1113 007c A3F8A220 		strh	r2, [r3, #162]	@ movhi
 272:..\..\..\HamFlyAPI\src/hamfly_core_telemetry.c ****     dst->sysstat_time_s       = rd_be16(p +  7);
 1114              		.loc 1 272 0
 1115 0080 FB68     		ldr	r3, [r7, #12]
 1116 0082 0733     		adds	r3, r3, #7
 1117 0084 1846     		mov	r0, r3
 1118 0086 FFF7FEFF 		bl	rd_be16
 1119 008a 0346     		mov	r3, r0
 1120 008c 1A46     		mov	r2, r3
 1121 008e 7B68     		ldr	r3, [r7, #4]
 1122 0090 A3F8A420 		strh	r2, [r3, #164]	@ movhi
 273:..\..\..\HamFlyAPI\src/hamfly_core_telemetry.c ****     dst->sysstat_pressure_mb  = (float)rd_be16(p +  9) / 10.0f;
 1123              		.loc 1 273 0
 1124 0094 FB68     		ldr	r3, [r7, #12]
 1125 0096 0933     		adds	r3, r3, #9
 1126 0098 1846     		mov	r0, r3
 1127 009a FFF7FEFF 		bl	rd_be16
 1128 009e 0346     		mov	r3, r0
 1129 00a0 1846     		mov	r0, r3
 1130 00a2 FFF7FEFF 		bl	__aeabi_i2f
 1131 00a6 0346     		mov	r3, r0
 1132 00a8 4649     		ldr	r1, .L50+8
 1133 00aa 1846     		mov	r0, r3
 1134 00ac FFF7FEFF 		bl	__aeabi_fdiv
 1135 00b0 0346     		mov	r3, r0
 1136 00b2 1A46     		mov	r2, r3
 1137 00b4 7B68     		ldr	r3, [r7, #4]
 1138 00b6 C3F8A820 		str	r2, [r3, #168]	@ float
 274:..\..\..\HamFlyAPI\src/hamfly_core_telemetry.c ****     dst->sysstat_imu_rate     = rd_be16(p + 11);
 1139              		.loc 1 274 0
 1140 00ba FB68     		ldr	r3, [r7, #12]
 1141 00bc 0B33     		adds	r3, r3, #11
 1142 00be 1846     		mov	r0, r3
 1143 00c0 FFF7FEFF 		bl	rd_be16
 1144 00c4 0346     		mov	r3, r0
 1145 00c6 1A46     		mov	r2, r3
 1146 00c8 7B68     		ldr	r3, [r7, #4]
 1147 00ca A3F8AC20 		strh	r2, [r3, #172]	@ movhi
 275:..\..\..\HamFlyAPI\src/hamfly_core_telemetry.c ****     dst->sysstat_cam_status   = rd_be16(p + 13);
ARM GAS  C:\Users\JENNEW~1\AppData\Local\Temp\ccI7hFDI.s 			page 26


 1148              		.loc 1 275 0
 1149 00ce FB68     		ldr	r3, [r7, #12]
 1150 00d0 0D33     		adds	r3, r3, #13
 1151 00d2 1846     		mov	r0, r3
 1152 00d4 FFF7FEFF 		bl	rd_be16
 1153 00d8 0346     		mov	r3, r0
 1154 00da 1A46     		mov	r2, r3
 1155 00dc 7B68     		ldr	r3, [r7, #4]
 1156 00de A3F8AE20 		strh	r2, [r3, #174]	@ movhi
 276:..\..\..\HamFlyAPI\src/hamfly_core_telemetry.c ****     /* off 15: reserved, skip */
 277:..\..\..\HamFlyAPI\src/hamfly_core_telemetry.c ****     dst->sysstat_imu_latency  = rd_be16(p + 16);
 1157              		.loc 1 277 0
 1158 00e2 FB68     		ldr	r3, [r7, #12]
 1159 00e4 1033     		adds	r3, r3, #16
 1160 00e6 1846     		mov	r0, r3
 1161 00e8 FFF7FEFF 		bl	rd_be16
 1162 00ec 0346     		mov	r3, r0
 1163 00ee 1A46     		mov	r2, r3
 1164 00f0 7B68     		ldr	r3, [r7, #4]
 1165 00f2 A3F8B020 		strh	r2, [r3, #176]	@ movhi
 278:..\..\..\HamFlyAPI\src/hamfly_core_telemetry.c ****     dst->sysstat_batt_a       = (float)rd_be16(p + 18) / 100.0f;
 1166              		.loc 1 278 0
 1167 00f6 FB68     		ldr	r3, [r7, #12]
 1168 00f8 1233     		adds	r3, r3, #18
 1169 00fa 1846     		mov	r0, r3
 1170 00fc FFF7FEFF 		bl	rd_be16
 1171 0100 0346     		mov	r3, r0
 1172 0102 1846     		mov	r0, r3
 1173 0104 FFF7FEFF 		bl	__aeabi_i2f
 1174 0108 0346     		mov	r3, r0
 1175 010a 2C49     		ldr	r1, .L50
 1176 010c 1846     		mov	r0, r3
 1177 010e FFF7FEFF 		bl	__aeabi_fdiv
 1178 0112 0346     		mov	r3, r0
 1179 0114 1A46     		mov	r2, r3
 1180 0116 7B68     		ldr	r3, [r7, #4]
 1181 0118 C3F8B420 		str	r2, [r3, #180]	@ float
 279:..\..\..\HamFlyAPI\src/hamfly_core_telemetry.c ****     dst->sysstat_charge_mah   = rd_be16(p + 20);
 1182              		.loc 1 279 0
 1183 011c FB68     		ldr	r3, [r7, #12]
 1184 011e 1433     		adds	r3, r3, #20
 1185 0120 1846     		mov	r0, r3
 1186 0122 FFF7FEFF 		bl	rd_be16
 1187 0126 0346     		mov	r3, r0
 1188 0128 1A46     		mov	r2, r3
 1189 012a 7B68     		ldr	r3, [r7, #4]
 1190 012c A3F8B820 		strh	r2, [r3, #184]	@ movhi
 280:..\..\..\HamFlyAPI\src/hamfly_core_telemetry.c ****     dst->sysstat_valid        = true;
 1191              		.loc 1 280 0
 1192 0130 7B68     		ldr	r3, [r7, #4]
 1193 0132 0122     		movs	r2, #1
 1194 0134 83F88C20 		strb	r2, [r3, #140]
 281:..\..\..\HamFlyAPI\src/hamfly_core_telemetry.c ****     /* Decode status flag booleans. Bit positions confirmed:
 282:..\..\..\HamFlyAPI\src/hamfly_core_telemetry.c ****      *   indoor  0x0065 — bit 3 clear (no GPS lock)
 283:..\..\..\HamFlyAPI\src/hamfly_core_telemetry.c ****      *   outdoor 0x006C — bit 3 set   (GPS locked)            */
 284:..\..\..\HamFlyAPI\src/hamfly_core_telemetry.c ****     dst->flag_compass_error = (dst->sysstat_status_flags & 0x01) != 0;
 1195              		.loc 1 284 0
ARM GAS  C:\Users\JENNEW~1\AppData\Local\Temp\ccI7hFDI.s 			page 27


 1196 0138 7B68     		ldr	r3, [r7, #4]
 1197 013a B3F9A230 		ldrsh	r3, [r3, #162]
 1198 013e 9BB2     		uxth	r3, r3
 1199 0140 03F00103 		and	r3, r3, #1
 1200 0144 002B     		cmp	r3, #0
 1201 0146 14BF     		ite	ne
 1202 0148 0123     		movne	r3, #1
 1203 014a 0023     		moveq	r3, #0
 1204 014c DAB2     		uxtb	r2, r3
 1205 014e 7B68     		ldr	r3, [r7, #4]
 1206 0150 83F88D20 		strb	r2, [r3, #141]
 285:..\..\..\HamFlyAPI\src/hamfly_core_telemetry.c ****     dst->flag_gps_los       = (dst->sysstat_status_flags & 0x02) != 0;
 1207              		.loc 1 285 0
 1208 0154 7B68     		ldr	r3, [r7, #4]
 1209 0156 B3F9A230 		ldrsh	r3, [r3, #162]
 1210 015a 9BB2     		uxth	r3, r3
 1211 015c 03F00203 		and	r3, r3, #2
 1212 0160 002B     		cmp	r3, #0
 1213 0162 14BF     		ite	ne
 1214 0164 0123     		movne	r3, #1
 1215 0166 0023     		moveq	r3, #0
 1216 0168 DAB2     		uxtb	r2, r3
 1217 016a 7B68     		ldr	r3, [r7, #4]
 1218 016c 83F88E20 		strb	r2, [r3, #142]
 286:..\..\..\HamFlyAPI\src/hamfly_core_telemetry.c ****     dst->flag_radio_los     = (dst->sysstat_status_flags & 0x04) != 0;
 1219              		.loc 1 286 0
 1220 0170 7B68     		ldr	r3, [r7, #4]
 1221 0172 B3F9A230 		ldrsh	r3, [r3, #162]
 1222 0176 9BB2     		uxth	r3, r3
 1223 0178 03F00403 		and	r3, r3, #4
 1224 017c 002B     		cmp	r3, #0
 1225 017e 14BF     		ite	ne
 1226 0180 0123     		movne	r3, #1
 1227 0182 0023     		moveq	r3, #0
 1228 0184 DAB2     		uxtb	r2, r3
 1229 0186 7B68     		ldr	r3, [r7, #4]
 1230 0188 83F88F20 		strb	r2, [r3, #143]
 287:..\..\..\HamFlyAPI\src/hamfly_core_telemetry.c ****     dst->flag_gps_locked    = (dst->sysstat_status_flags & 0x08) != 0;
 1231              		.loc 1 287 0
 1232 018c 7B68     		ldr	r3, [r7, #4]
 1233 018e B3F9A230 		ldrsh	r3, [r3, #162]
 1234 0192 9BB2     		uxth	r3, r3
 1235 0194 03F00803 		and	r3, r3, #8
 1236 0198 002B     		cmp	r3, #0
 1237 019a 14BF     		ite	ne
 1238 019c 0123     		movne	r3, #1
 1239 019e 0023     		moveq	r3, #0
 1240 01a0 DAB2     		uxtb	r2, r3
 1241 01a2 7B68     		ldr	r3, [r7, #4]
 1242 01a4 83F89020 		strb	r2, [r3, #144]
 288:..\..\..\HamFlyAPI\src/hamfly_core_telemetry.c ****     /* Propagate to GPS section for convenience. */
 289:..\..\..\HamFlyAPI\src/hamfly_core_telemetry.c ****     dst->gps_locked = dst->flag_gps_locked;
 1243              		.loc 1 289 0
 1244 01a8 7B68     		ldr	r3, [r7, #4]
 1245 01aa 93F89020 		ldrb	r2, [r3, #144]	@ zero_extendqisi2
 1246 01ae 7B68     		ldr	r3, [r7, #4]
 1247 01b0 DA77     		strb	r2, [r3, #31]
ARM GAS  C:\Users\JENNEW~1\AppData\Local\Temp\ccI7hFDI.s 			page 28


 1248 01b2 00E0     		b	.L46
 1249              	.L49:
 264:..\..\..\HamFlyAPI\src/hamfly_core_telemetry.c **** 
 1250              		.loc 1 264 0
 1251 01b4 00BF     		nop
 1252              	.L46:
 290:..\..\..\HamFlyAPI\src/hamfly_core_telemetry.c **** }
 1253              		.loc 1 290 0
 1254 01b6 1037     		adds	r7, r7, #16
 1255              		.cfi_def_cfa_offset 8
 1256 01b8 BD46     		mov	sp, r7
 1257              		.cfi_def_cfa_register 13
 1258              		@ sp needed
 1259 01ba 80BD     		pop	{r7, pc}
 1260              	.L51:
 1261              		.align	2
 1262              	.L50:
 1263 01bc 0000C842 		.word	1120403456
 1264 01c0 00004040 		.word	1077936128
 1265 01c4 00002041 		.word	1092616192
 1266              		.cfi_endproc
 1267              	.LFE9:
 1268              		.size	hamfly_decode_sysstat, .-hamfly_decode_sysstat
 1269              		.section	.text.hamfly_decode_mag,"ax",%progbits
 1270              		.align	2
 1271              		.global	hamfly_decode_mag
 1272              		.thumb
 1273              		.thumb_func
 1274              		.type	hamfly_decode_mag, %function
 1275              	hamfly_decode_mag:
 1276              	.LFB10:
 291:..\..\..\HamFlyAPI\src/hamfly_core_telemetry.c **** 
 292:..\..\..\HamFlyAPI\src/hamfly_core_telemetry.c **** // ============================================================================
 293:..\..\..\HamFlyAPI\src/hamfly_core_telemetry.c **** // Hamfly Decode Magnetometer [Hamfly Specific] -- attr 12
 294:..\..\..\HamFlyAPI\src/hamfly_core_telemetry.c **** // ============================================================================
 295:..\..\..\HamFlyAPI\src/hamfly_core_telemetry.c **** // Reads the raw bytes of the Magnetometer payload and into telemetry fields:
 296:..\..\..\HamFlyAPI\src/hamfly_core_telemetry.c **** // 
 297:..\..\..\HamFlyAPI\src/hamfly_core_telemetry.c **** // Little-endian, sub-index byte at off 0 (ignored), 19 byte payload.
 298:..\..\..\HamFlyAPI\src/hamfly_core_telemetry.c **** // off 1-2   LE int16:  X           /1000
 299:..\..\..\HamFlyAPI\src/hamfly_core_telemetry.c **** // off 3-4   LE int16:  Y           /1000
 300:..\..\..\HamFlyAPI\src/hamfly_core_telemetry.c **** // off 5-6   LE int16:  Z           /1000
 301:..\..\..\HamFlyAPI\src/hamfly_core_telemetry.c **** // off 7-8   LE int16:  magnitude   /100
 302:..\..\..\HamFlyAPI\src/hamfly_core_telemetry.c **** // off 9-10  LE int16:  frequency   /100
 303:..\..\..\HamFlyAPI\src/hamfly_core_telemetry.c **** // off 11-12 LE int16:  offset X    /1000
 304:..\..\..\HamFlyAPI\src/hamfly_core_telemetry.c **** // off 13-14 LE int16:  offset Y    /1000
 305:..\..\..\HamFlyAPI\src/hamfly_core_telemetry.c **** // off 15-16 LE int16:  offset Z    /1000
 306:..\..\..\HamFlyAPI\src/hamfly_core_telemetry.c **** // off 17-18 LE int16:  declination /10
 307:..\..\..\HamFlyAPI\src/hamfly_core_telemetry.c **** // ============================================================================
 308:..\..\..\HamFlyAPI\src/hamfly_core_telemetry.c **** void hamfly_decode_mag(const uint8_t *p, uint16_t plen,
 309:..\..\..\HamFlyAPI\src/hamfly_core_telemetry.c ****                         hamfly_telemetry_t *dst)
 310:..\..\..\HamFlyAPI\src/hamfly_core_telemetry.c **** {
 1277              		.loc 1 310 0
 1278              		.cfi_startproc
 1279              		@ args = 0, pretend = 0, frame = 16
 1280              		@ frame_needed = 1, uses_anonymous_args = 0
 1281 0000 80B5     		push	{r7, lr}
 1282              		.cfi_def_cfa_offset 8
ARM GAS  C:\Users\JENNEW~1\AppData\Local\Temp\ccI7hFDI.s 			page 29


 1283              		.cfi_offset 7, -8
 1284              		.cfi_offset 14, -4
 1285 0002 84B0     		sub	sp, sp, #16
 1286              		.cfi_def_cfa_offset 24
 1287 0004 00AF     		add	r7, sp, #0
 1288              		.cfi_def_cfa_register 7
 1289 0006 F860     		str	r0, [r7, #12]
 1290 0008 0B46     		mov	r3, r1
 1291 000a 7A60     		str	r2, [r7, #4]
 1292 000c 7B81     		strh	r3, [r7, #10]	@ movhi
 311:..\..\..\HamFlyAPI\src/hamfly_core_telemetry.c ****     if (plen < 19u) return;
 1293              		.loc 1 311 0
 1294 000e 7B89     		ldrh	r3, [r7, #10]
 1295 0010 122B     		cmp	r3, #18
 1296 0012 40F2B080 		bls	.L55
 312:..\..\..\HamFlyAPI\src/hamfly_core_telemetry.c **** 
 313:..\..\..\HamFlyAPI\src/hamfly_core_telemetry.c ****     // Decode and populate.
 314:..\..\..\HamFlyAPI\src/hamfly_core_telemetry.c ****     dst->mag_x           = (float)rd_le16(p +  1) / 1000.0f;
 1297              		.loc 1 314 0
 1298 0016 FB68     		ldr	r3, [r7, #12]
 1299 0018 0133     		adds	r3, r3, #1
 1300 001a 1846     		mov	r0, r3
 1301 001c FFF7FEFF 		bl	rd_le16
 1302 0020 0346     		mov	r3, r0
 1303 0022 1846     		mov	r0, r3
 1304 0024 FFF7FEFF 		bl	__aeabi_i2f
 1305 0028 0346     		mov	r3, r0
 1306 002a 5549     		ldr	r1, .L56
 1307 002c 1846     		mov	r0, r3
 1308 002e FFF7FEFF 		bl	__aeabi_fdiv
 1309 0032 0346     		mov	r3, r0
 1310 0034 1A46     		mov	r2, r3
 1311 0036 7B68     		ldr	r3, [r7, #4]
 1312 0038 C3F8BC20 		str	r2, [r3, #188]	@ float
 315:..\..\..\HamFlyAPI\src/hamfly_core_telemetry.c ****     dst->mag_y           = (float)rd_le16(p +  3) / 1000.0f;
 1313              		.loc 1 315 0
 1314 003c FB68     		ldr	r3, [r7, #12]
 1315 003e 0333     		adds	r3, r3, #3
 1316 0040 1846     		mov	r0, r3
 1317 0042 FFF7FEFF 		bl	rd_le16
 1318 0046 0346     		mov	r3, r0
 1319 0048 1846     		mov	r0, r3
 1320 004a FFF7FEFF 		bl	__aeabi_i2f
 1321 004e 0346     		mov	r3, r0
 1322 0050 4B49     		ldr	r1, .L56
 1323 0052 1846     		mov	r0, r3
 1324 0054 FFF7FEFF 		bl	__aeabi_fdiv
 1325 0058 0346     		mov	r3, r0
 1326 005a 1A46     		mov	r2, r3
 1327 005c 7B68     		ldr	r3, [r7, #4]
 1328 005e C3F8C020 		str	r2, [r3, #192]	@ float
 316:..\..\..\HamFlyAPI\src/hamfly_core_telemetry.c ****     dst->mag_z           = (float)rd_le16(p +  5) / 1000.0f;
 1329              		.loc 1 316 0
 1330 0062 FB68     		ldr	r3, [r7, #12]
 1331 0064 0533     		adds	r3, r3, #5
 1332 0066 1846     		mov	r0, r3
 1333 0068 FFF7FEFF 		bl	rd_le16
ARM GAS  C:\Users\JENNEW~1\AppData\Local\Temp\ccI7hFDI.s 			page 30


 1334 006c 0346     		mov	r3, r0
 1335 006e 1846     		mov	r0, r3
 1336 0070 FFF7FEFF 		bl	__aeabi_i2f
 1337 0074 0346     		mov	r3, r0
 1338 0076 4249     		ldr	r1, .L56
 1339 0078 1846     		mov	r0, r3
 1340 007a FFF7FEFF 		bl	__aeabi_fdiv
 1341 007e 0346     		mov	r3, r0
 1342 0080 1A46     		mov	r2, r3
 1343 0082 7B68     		ldr	r3, [r7, #4]
 1344 0084 C3F8C420 		str	r2, [r3, #196]	@ float
 317:..\..\..\HamFlyAPI\src/hamfly_core_telemetry.c ****     dst->mag_magnitude   = (float)rd_le16(p +  7) / 100.0f;
 1345              		.loc 1 317 0
 1346 0088 FB68     		ldr	r3, [r7, #12]
 1347 008a 0733     		adds	r3, r3, #7
 1348 008c 1846     		mov	r0, r3
 1349 008e FFF7FEFF 		bl	rd_le16
 1350 0092 0346     		mov	r3, r0
 1351 0094 1846     		mov	r0, r3
 1352 0096 FFF7FEFF 		bl	__aeabi_i2f
 1353 009a 0346     		mov	r3, r0
 1354 009c 3949     		ldr	r1, .L56+4
 1355 009e 1846     		mov	r0, r3
 1356 00a0 FFF7FEFF 		bl	__aeabi_fdiv
 1357 00a4 0346     		mov	r3, r0
 1358 00a6 1A46     		mov	r2, r3
 1359 00a8 7B68     		ldr	r3, [r7, #4]
 1360 00aa C3F8C820 		str	r2, [r3, #200]	@ float
 318:..\..\..\HamFlyAPI\src/hamfly_core_telemetry.c ****     dst->mag_freq        = (float)rd_le16(p +  9) / 100.0f;
 1361              		.loc 1 318 0
 1362 00ae FB68     		ldr	r3, [r7, #12]
 1363 00b0 0933     		adds	r3, r3, #9
 1364 00b2 1846     		mov	r0, r3
 1365 00b4 FFF7FEFF 		bl	rd_le16
 1366 00b8 0346     		mov	r3, r0
 1367 00ba 1846     		mov	r0, r3
 1368 00bc FFF7FEFF 		bl	__aeabi_i2f
 1369 00c0 0346     		mov	r3, r0
 1370 00c2 3049     		ldr	r1, .L56+4
 1371 00c4 1846     		mov	r0, r3
 1372 00c6 FFF7FEFF 		bl	__aeabi_fdiv
 1373 00ca 0346     		mov	r3, r0
 1374 00cc 1A46     		mov	r2, r3
 1375 00ce 7B68     		ldr	r3, [r7, #4]
 1376 00d0 C3F8CC20 		str	r2, [r3, #204]	@ float
 319:..\..\..\HamFlyAPI\src/hamfly_core_telemetry.c ****     dst->mag_off_x       = (float)rd_le16(p + 11) / 1000.0f;
 1377              		.loc 1 319 0
 1378 00d4 FB68     		ldr	r3, [r7, #12]
 1379 00d6 0B33     		adds	r3, r3, #11
 1380 00d8 1846     		mov	r0, r3
 1381 00da FFF7FEFF 		bl	rd_le16
 1382 00de 0346     		mov	r3, r0
 1383 00e0 1846     		mov	r0, r3
 1384 00e2 FFF7FEFF 		bl	__aeabi_i2f
 1385 00e6 0346     		mov	r3, r0
 1386 00e8 2549     		ldr	r1, .L56
 1387 00ea 1846     		mov	r0, r3
ARM GAS  C:\Users\JENNEW~1\AppData\Local\Temp\ccI7hFDI.s 			page 31


 1388 00ec FFF7FEFF 		bl	__aeabi_fdiv
 1389 00f0 0346     		mov	r3, r0
 1390 00f2 1A46     		mov	r2, r3
 1391 00f4 7B68     		ldr	r3, [r7, #4]
 1392 00f6 C3F8D020 		str	r2, [r3, #208]	@ float
 320:..\..\..\HamFlyAPI\src/hamfly_core_telemetry.c ****     dst->mag_off_y       = (float)rd_le16(p + 13) / 1000.0f;
 1393              		.loc 1 320 0
 1394 00fa FB68     		ldr	r3, [r7, #12]
 1395 00fc 0D33     		adds	r3, r3, #13
 1396 00fe 1846     		mov	r0, r3
 1397 0100 FFF7FEFF 		bl	rd_le16
 1398 0104 0346     		mov	r3, r0
 1399 0106 1846     		mov	r0, r3
 1400 0108 FFF7FEFF 		bl	__aeabi_i2f
 1401 010c 0346     		mov	r3, r0
 1402 010e 1C49     		ldr	r1, .L56
 1403 0110 1846     		mov	r0, r3
 1404 0112 FFF7FEFF 		bl	__aeabi_fdiv
 1405 0116 0346     		mov	r3, r0
 1406 0118 1A46     		mov	r2, r3
 1407 011a 7B68     		ldr	r3, [r7, #4]
 1408 011c C3F8D420 		str	r2, [r3, #212]	@ float
 321:..\..\..\HamFlyAPI\src/hamfly_core_telemetry.c ****     dst->mag_off_z       = (float)rd_le16(p + 15) / 1000.0f;
 1409              		.loc 1 321 0
 1410 0120 FB68     		ldr	r3, [r7, #12]
 1411 0122 0F33     		adds	r3, r3, #15
 1412 0124 1846     		mov	r0, r3
 1413 0126 FFF7FEFF 		bl	rd_le16
 1414 012a 0346     		mov	r3, r0
 1415 012c 1846     		mov	r0, r3
 1416 012e FFF7FEFF 		bl	__aeabi_i2f
 1417 0132 0346     		mov	r3, r0
 1418 0134 1249     		ldr	r1, .L56
 1419 0136 1846     		mov	r0, r3
 1420 0138 FFF7FEFF 		bl	__aeabi_fdiv
 1421 013c 0346     		mov	r3, r0
 1422 013e 1A46     		mov	r2, r3
 1423 0140 7B68     		ldr	r3, [r7, #4]
 1424 0142 C3F8D820 		str	r2, [r3, #216]	@ float
 322:..\..\..\HamFlyAPI\src/hamfly_core_telemetry.c ****     dst->mag_declination = (float)rd_le16(p + 17) / 10.0f;
 1425              		.loc 1 322 0
 1426 0146 FB68     		ldr	r3, [r7, #12]
 1427 0148 1133     		adds	r3, r3, #17
 1428 014a 1846     		mov	r0, r3
 1429 014c FFF7FEFF 		bl	rd_le16
 1430 0150 0346     		mov	r3, r0
 1431 0152 1846     		mov	r0, r3
 1432 0154 FFF7FEFF 		bl	__aeabi_i2f
 1433 0158 0346     		mov	r3, r0
 1434 015a 0B49     		ldr	r1, .L56+8
 1435 015c 1846     		mov	r0, r3
 1436 015e FFF7FEFF 		bl	__aeabi_fdiv
 1437 0162 0346     		mov	r3, r0
 1438 0164 1A46     		mov	r2, r3
 1439 0166 7B68     		ldr	r3, [r7, #4]
 1440 0168 C3F8DC20 		str	r2, [r3, #220]	@ float
 323:..\..\..\HamFlyAPI\src/hamfly_core_telemetry.c ****     dst->mag_valid       = true;
ARM GAS  C:\Users\JENNEW~1\AppData\Local\Temp\ccI7hFDI.s 			page 32


 1441              		.loc 1 323 0
 1442 016c 7B68     		ldr	r3, [r7, #4]
 1443 016e 0122     		movs	r2, #1
 1444 0170 83F8BA20 		strb	r2, [r3, #186]
 1445 0174 00E0     		b	.L52
 1446              	.L55:
 311:..\..\..\HamFlyAPI\src/hamfly_core_telemetry.c **** 
 1447              		.loc 1 311 0
 1448 0176 00BF     		nop
 1449              	.L52:
 324:..\..\..\HamFlyAPI\src/hamfly_core_telemetry.c **** }
 1450              		.loc 1 324 0
 1451 0178 1037     		adds	r7, r7, #16
 1452              		.cfi_def_cfa_offset 8
 1453 017a BD46     		mov	sp, r7
 1454              		.cfi_def_cfa_register 13
 1455              		@ sp needed
 1456 017c 80BD     		pop	{r7, pc}
 1457              	.L57:
 1458 017e 00BF     		.align	2
 1459              	.L56:
 1460 0180 00007A44 		.word	1148846080
 1461 0184 0000C842 		.word	1120403456
 1462 0188 00002041 		.word	1092616192
 1463              		.cfi_endproc
 1464              	.LFE10:
 1465              		.size	hamfly_decode_mag, .-hamfly_decode_mag
 1466              		.section	.text.hamfly_decode_sysecho,"ax",%progbits
 1467              		.align	2
 1468              		.global	hamfly_decode_sysecho
 1469              		.thumb
 1470              		.thumb_func
 1471              		.type	hamfly_decode_sysecho, %function
 1472              	hamfly_decode_sysecho:
 1473              	.LFB11:
 325:..\..\..\HamFlyAPI\src/hamfly_core_telemetry.c **** 
 326:..\..\..\HamFlyAPI\src/hamfly_core_telemetry.c **** // ============================================================================
 327:..\..\..\HamFlyAPI\src/hamfly_core_telemetry.c **** // Hamfly Decode System Echo [Hamfly Specific] -- attr 48
 328:..\..\..\HamFlyAPI\src/hamfly_core_telemetry.c **** // ============================================================================
 329:..\..\..\HamFlyAPI\src/hamfly_core_telemetry.c **** // Composite read-only status block. Mirrors several attr 1 and attr 4 fields.
 330:..\..\..\HamFlyAPI\src/hamfly_core_telemetry.c **** // Single round trip gives GPS lock state, rough position, pressure, IMU rate.
 331:..\..\..\HamFlyAPI\src/hamfly_core_telemetry.c **** //
 332:..\..\..\HamFlyAPI\src/hamfly_core_telemetry.c **** // off 0-7   GPS position bytes (mirrors attr 4 lon/lat when GPS locked).
 333:..\..\..\HamFlyAPI\src/hamfly_core_telemetry.c **** // off 8     status byte: 0x09 = GPS locked, 0xCB = no lock.
 334:..\..\..\HamFlyAPI\src/hamfly_core_telemetry.c **** // off 9-10  BE int16: pressure /10 mb (mirrors attr 1 off 9-10).
 335:..\..\..\HamFlyAPI\src/hamfly_core_telemetry.c **** // off 11-12 BE int16: IMU rate (mirrors attr 1 off 11-12).
 336:..\..\..\HamFlyAPI\src/hamfly_core_telemetry.c **** // off 13    always 0x00.
 337:..\..\..\HamFlyAPI\src/hamfly_core_telemetry.c **** // ============================================================================
 338:..\..\..\HamFlyAPI\src/hamfly_core_telemetry.c **** void hamfly_decode_sysecho(const uint8_t *p, uint16_t plen,
 339:..\..\..\HamFlyAPI\src/hamfly_core_telemetry.c ****                             hamfly_telemetry_t *dst)
 340:..\..\..\HamFlyAPI\src/hamfly_core_telemetry.c **** {
 1474              		.loc 1 340 0
 1475              		.cfi_startproc
 1476              		@ args = 0, pretend = 0, frame = 16
 1477              		@ frame_needed = 1, uses_anonymous_args = 0
 1478 0000 80B5     		push	{r7, lr}
 1479              		.cfi_def_cfa_offset 8
ARM GAS  C:\Users\JENNEW~1\AppData\Local\Temp\ccI7hFDI.s 			page 33


 1480              		.cfi_offset 7, -8
 1481              		.cfi_offset 14, -4
 1482 0002 84B0     		sub	sp, sp, #16
 1483              		.cfi_def_cfa_offset 24
 1484 0004 00AF     		add	r7, sp, #0
 1485              		.cfi_def_cfa_register 7
 1486 0006 F860     		str	r0, [r7, #12]
 1487 0008 0B46     		mov	r3, r1
 1488 000a 7A60     		str	r2, [r7, #4]
 1489 000c 7B81     		strh	r3, [r7, #10]	@ movhi
 341:..\..\..\HamFlyAPI\src/hamfly_core_telemetry.c ****     if (plen < 13u) return;
 1490              		.loc 1 341 0
 1491 000e 7B89     		ldrh	r3, [r7, #10]
 1492 0010 0C2B     		cmp	r3, #12
 1493 0012 2CD9     		bls	.L61
 342:..\..\..\HamFlyAPI\src/hamfly_core_telemetry.c ****     dst->sysecho_gps_locked  = (p[8] == 0x09u);
 1494              		.loc 1 342 0
 1495 0014 FB68     		ldr	r3, [r7, #12]
 1496 0016 0833     		adds	r3, r3, #8
 1497 0018 1B78     		ldrb	r3, [r3]	@ zero_extendqisi2
 1498 001a 092B     		cmp	r3, #9
 1499 001c 0CBF     		ite	eq
 1500 001e 0123     		moveq	r3, #1
 1501 0020 0023     		movne	r3, #0
 1502 0022 DAB2     		uxtb	r2, r3
 1503 0024 7B68     		ldr	r3, [r7, #4]
 1504 0026 83F8E120 		strb	r2, [r3, #225]
 343:..\..\..\HamFlyAPI\src/hamfly_core_telemetry.c ****     dst->sysecho_pressure_mb = (float)rd_be16(p +  9) / 10.0f;
 1505              		.loc 1 343 0
 1506 002a FB68     		ldr	r3, [r7, #12]
 1507 002c 0933     		adds	r3, r3, #9
 1508 002e 1846     		mov	r0, r3
 1509 0030 FFF7FEFF 		bl	rd_be16
 1510 0034 0346     		mov	r3, r0
 1511 0036 1846     		mov	r0, r3
 1512 0038 FFF7FEFF 		bl	__aeabi_i2f
 1513 003c 0346     		mov	r3, r0
 1514 003e 0E49     		ldr	r1, .L62
 1515 0040 1846     		mov	r0, r3
 1516 0042 FFF7FEFF 		bl	__aeabi_fdiv
 1517 0046 0346     		mov	r3, r0
 1518 0048 1A46     		mov	r2, r3
 1519 004a 7B68     		ldr	r3, [r7, #4]
 1520 004c C3F8E420 		str	r2, [r3, #228]	@ float
 344:..\..\..\HamFlyAPI\src/hamfly_core_telemetry.c ****     dst->sysecho_imu_rate    = rd_be16(p + 11);
 1521              		.loc 1 344 0
 1522 0050 FB68     		ldr	r3, [r7, #12]
 1523 0052 0B33     		adds	r3, r3, #11
 1524 0054 1846     		mov	r0, r3
 1525 0056 FFF7FEFF 		bl	rd_be16
 1526 005a 0346     		mov	r3, r0
 1527 005c 1A46     		mov	r2, r3
 1528 005e 7B68     		ldr	r3, [r7, #4]
 1529 0060 A3F8E820 		strh	r2, [r3, #232]	@ movhi
 345:..\..\..\HamFlyAPI\src/hamfly_core_telemetry.c ****     dst->sysecho_valid       = true;
 1530              		.loc 1 345 0
 1531 0064 7B68     		ldr	r3, [r7, #4]
ARM GAS  C:\Users\JENNEW~1\AppData\Local\Temp\ccI7hFDI.s 			page 34


 1532 0066 0122     		movs	r2, #1
 1533 0068 83F8E020 		strb	r2, [r3, #224]
 1534 006c 00E0     		b	.L58
 1535              	.L61:
 341:..\..\..\HamFlyAPI\src/hamfly_core_telemetry.c ****     dst->sysecho_gps_locked  = (p[8] == 0x09u);
 1536              		.loc 1 341 0
 1537 006e 00BF     		nop
 1538              	.L58:
 346:..\..\..\HamFlyAPI\src/hamfly_core_telemetry.c **** }
 1539              		.loc 1 346 0
 1540 0070 1037     		adds	r7, r7, #16
 1541              		.cfi_def_cfa_offset 8
 1542 0072 BD46     		mov	sp, r7
 1543              		.cfi_def_cfa_register 13
 1544              		@ sp needed
 1545 0074 80BD     		pop	{r7, pc}
 1546              	.L63:
 1547 0076 00BF     		.align	2
 1548              	.L62:
 1549 0078 00002041 		.word	1092616192
 1550              		.cfi_endproc
 1551              	.LFE11:
 1552              		.size	hamfly_decode_sysecho, .-hamfly_decode_sysecho
 1553              		.section	.rodata
 1554              		.align	2
 1555              		.type	RAD2DEG.6013, %object
 1556              		.size	RAD2DEG.6013, 4
 1557              	RAD2DEG.6013:
 1558 0000 E02E6542 		.word	1113927392
 1559              		.text
 1560              	.Letext0:
 1561              		.file 2 "c:\\program files (x86)\\cypress\\psoc creator\\4.4\\psoc creator\\import\\gnu\\arm\\5.4.
 1562              		.file 3 "c:\\program files (x86)\\cypress\\psoc creator\\4.4\\psoc creator\\import\\gnu\\arm\\5.4.
 1563              		.file 4 "..\\..\\..\\HamFlyAPI\\src\\hamfly_core_telemetry.h"
 1564              		.file 5 "..\\..\\..\\HamFlyAPI\\src\\hamfly_qx_app.h"
 1565              		.section	.debug_info,"",%progbits
 1566              	.Ldebug_info0:
 1567 0000 EE0A0000 		.4byte	0xaee
 1568 0004 0400     		.2byte	0x4
 1569 0006 00000000 		.4byte	.Ldebug_abbrev0
 1570 000a 04       		.byte	0x4
 1571 000b 01       		.uleb128 0x1
 1572 000c CC000000 		.4byte	.LASF180
 1573 0010 0C       		.byte	0xc
 1574 0011 DF060000 		.4byte	.LASF181
 1575 0015 510A0000 		.4byte	.LASF182
 1576 0019 00000000 		.4byte	.Ldebug_ranges0+0
 1577 001d 00000000 		.4byte	0
 1578 0021 00000000 		.4byte	.Ldebug_line0
 1579 0025 02       		.uleb128 0x2
 1580 0026 01       		.byte	0x1
 1581 0027 06       		.byte	0x6
 1582 0028 B8090000 		.4byte	.LASF0
 1583 002c 03       		.uleb128 0x3
 1584 002d AB070000 		.4byte	.LASF2
 1585 0031 02       		.byte	0x2
 1586 0032 1D       		.byte	0x1d
ARM GAS  C:\Users\JENNEW~1\AppData\Local\Temp\ccI7hFDI.s 			page 35


 1587 0033 37000000 		.4byte	0x37
 1588 0037 02       		.uleb128 0x2
 1589 0038 01       		.byte	0x1
 1590 0039 08       		.byte	0x8
 1591 003a D9080000 		.4byte	.LASF1
 1592 003e 03       		.uleb128 0x3
 1593 003f F6050000 		.4byte	.LASF3
 1594 0043 02       		.byte	0x2
 1595 0044 29       		.byte	0x29
 1596 0045 49000000 		.4byte	0x49
 1597 0049 02       		.uleb128 0x2
 1598 004a 02       		.byte	0x2
 1599 004b 05       		.byte	0x5
 1600 004c 2A070000 		.4byte	.LASF4
 1601 0050 03       		.uleb128 0x3
 1602 0051 1D030000 		.4byte	.LASF5
 1603 0055 02       		.byte	0x2
 1604 0056 2B       		.byte	0x2b
 1605 0057 5B000000 		.4byte	0x5b
 1606 005b 02       		.uleb128 0x2
 1607 005c 02       		.byte	0x2
 1608 005d 07       		.byte	0x7
 1609 005e D1090000 		.4byte	.LASF6
 1610 0062 03       		.uleb128 0x3
 1611 0063 8F000000 		.4byte	.LASF7
 1612 0067 02       		.byte	0x2
 1613 0068 3F       		.byte	0x3f
 1614 0069 6D000000 		.4byte	0x6d
 1615 006d 02       		.uleb128 0x2
 1616 006e 04       		.byte	0x4
 1617 006f 05       		.byte	0x5
 1618 0070 34070000 		.4byte	.LASF8
 1619 0074 03       		.uleb128 0x3
 1620 0075 E7080000 		.4byte	.LASF9
 1621 0079 02       		.byte	0x2
 1622 007a 41       		.byte	0x41
 1623 007b 7F000000 		.4byte	0x7f
 1624 007f 02       		.uleb128 0x2
 1625 0080 04       		.byte	0x4
 1626 0081 07       		.byte	0x7
 1627 0082 35080000 		.4byte	.LASF10
 1628 0086 02       		.uleb128 0x2
 1629 0087 08       		.byte	0x8
 1630 0088 05       		.byte	0x5
 1631 0089 69050000 		.4byte	.LASF11
 1632 008d 02       		.uleb128 0x2
 1633 008e 08       		.byte	0x8
 1634 008f 07       		.byte	0x7
 1635 0090 84020000 		.4byte	.LASF12
 1636 0094 04       		.uleb128 0x4
 1637 0095 04       		.byte	0x4
 1638 0096 05       		.byte	0x5
 1639 0097 696E7400 		.ascii	"int\000"
 1640 009b 02       		.uleb128 0x2
 1641 009c 04       		.byte	0x4
 1642 009d 07       		.byte	0x7
 1643 009e 82000000 		.4byte	.LASF13
ARM GAS  C:\Users\JENNEW~1\AppData\Local\Temp\ccI7hFDI.s 			page 36


 1644 00a2 03       		.uleb128 0x3
 1645 00a3 F9040000 		.4byte	.LASF14
 1646 00a7 03       		.byte	0x3
 1647 00a8 18       		.byte	0x18
 1648 00a9 2C000000 		.4byte	0x2c
 1649 00ad 03       		.uleb128 0x3
 1650 00ae 5E020000 		.4byte	.LASF15
 1651 00b2 03       		.byte	0x3
 1652 00b3 20       		.byte	0x20
 1653 00b4 3E000000 		.4byte	0x3e
 1654 00b8 03       		.uleb128 0x3
 1655 00b9 A8060000 		.4byte	.LASF16
 1656 00bd 03       		.byte	0x3
 1657 00be 24       		.byte	0x24
 1658 00bf 50000000 		.4byte	0x50
 1659 00c3 03       		.uleb128 0x3
 1660 00c4 81080000 		.4byte	.LASF17
 1661 00c8 03       		.byte	0x3
 1662 00c9 2C       		.byte	0x2c
 1663 00ca 62000000 		.4byte	0x62
 1664 00ce 03       		.uleb128 0x3
 1665 00cf 38020000 		.4byte	.LASF18
 1666 00d3 03       		.byte	0x3
 1667 00d4 30       		.byte	0x30
 1668 00d5 74000000 		.4byte	0x74
 1669 00d9 05       		.uleb128 0x5
 1670 00da EC       		.byte	0xec
 1671 00db 04       		.byte	0x4
 1672 00dc 1F       		.byte	0x1f
 1673 00dd 42040000 		.4byte	0x442
 1674 00e1 06       		.uleb128 0x6
 1675 00e2 88050000 		.4byte	.LASF19
 1676 00e6 04       		.byte	0x4
 1677 00e7 21       		.byte	0x21
 1678 00e8 42040000 		.4byte	0x442
 1679 00ec 00       		.byte	0
 1680 00ed 06       		.uleb128 0x6
 1681 00ee CA010000 		.4byte	.LASF20
 1682 00f2 04       		.byte	0x4
 1683 00f3 22       		.byte	0x22
 1684 00f4 49040000 		.4byte	0x449
 1685 00f8 04       		.byte	0x4
 1686 00f9 06       		.uleb128 0x6
 1687 00fa D8070000 		.4byte	.LASF21
 1688 00fe 04       		.byte	0x4
 1689 00ff 23       		.byte	0x23
 1690 0100 49040000 		.4byte	0x449
 1691 0104 08       		.byte	0x8
 1692 0105 06       		.uleb128 0x6
 1693 0106 EB040000 		.4byte	.LASF22
 1694 010a 04       		.byte	0x4
 1695 010b 24       		.byte	0x24
 1696 010c 49040000 		.4byte	0x449
 1697 0110 0C       		.byte	0xc
 1698 0111 06       		.uleb128 0x6
 1699 0112 CA040000 		.4byte	.LASF23
 1700 0116 04       		.byte	0x4
ARM GAS  C:\Users\JENNEW~1\AppData\Local\Temp\ccI7hFDI.s 			page 37


 1701 0117 25       		.byte	0x25
 1702 0118 49040000 		.4byte	0x449
 1703 011c 10       		.byte	0x10
 1704 011d 06       		.uleb128 0x6
 1705 011e D3040000 		.4byte	.LASF24
 1706 0122 04       		.byte	0x4
 1707 0123 26       		.byte	0x26
 1708 0124 49040000 		.4byte	0x449
 1709 0128 14       		.byte	0x14
 1710 0129 06       		.uleb128 0x6
 1711 012a DC040000 		.4byte	.LASF25
 1712 012e 04       		.byte	0x4
 1713 012f 27       		.byte	0x27
 1714 0130 49040000 		.4byte	0x449
 1715 0134 18       		.byte	0x18
 1716 0135 06       		.uleb128 0x6
 1717 0136 C1060000 		.4byte	.LASF26
 1718 013a 04       		.byte	0x4
 1719 013b 28       		.byte	0x28
 1720 013c A2000000 		.4byte	0xa2
 1721 0140 1C       		.byte	0x1c
 1722 0141 06       		.uleb128 0x6
 1723 0142 D0060000 		.4byte	.LASF27
 1724 0146 04       		.byte	0x4
 1725 0147 29       		.byte	0x29
 1726 0148 A2000000 		.4byte	0xa2
 1727 014c 1D       		.byte	0x1d
 1728 014d 06       		.uleb128 0x6
 1729 014e 00060000 		.4byte	.LASF28
 1730 0152 04       		.byte	0x4
 1731 0153 2C       		.byte	0x2c
 1732 0154 42040000 		.4byte	0x442
 1733 0158 1E       		.byte	0x1e
 1734 0159 06       		.uleb128 0x6
 1735 015a 77050000 		.4byte	.LASF29
 1736 015e 04       		.byte	0x4
 1737 015f 2E       		.byte	0x2e
 1738 0160 42040000 		.4byte	0x442
 1739 0164 1F       		.byte	0x1f
 1740 0165 06       		.uleb128 0x6
 1741 0166 9F070000 		.4byte	.LASF30
 1742 016a 04       		.byte	0x4
 1743 016b 31       		.byte	0x31
 1744 016c 49040000 		.4byte	0x449
 1745 0170 20       		.byte	0x20
 1746 0171 06       		.uleb128 0x6
 1747 0172 2F040000 		.4byte	.LASF31
 1748 0176 04       		.byte	0x4
 1749 0177 32       		.byte	0x32
 1750 0178 49040000 		.4byte	0x449
 1751 017c 24       		.byte	0x24
 1752 017d 06       		.uleb128 0x6
 1753 017e 85070000 		.4byte	.LASF32
 1754 0182 04       		.byte	0x4
 1755 0183 33       		.byte	0x33
 1756 0184 49040000 		.4byte	0x449
 1757 0188 28       		.byte	0x28
ARM GAS  C:\Users\JENNEW~1\AppData\Local\Temp\ccI7hFDI.s 			page 38


 1758 0189 06       		.uleb128 0x6
 1759 018a 41020000 		.4byte	.LASF33
 1760 018e 04       		.byte	0x4
 1761 018f 34       		.byte	0x34
 1762 0190 49040000 		.4byte	0x449
 1763 0194 2C       		.byte	0x2c
 1764 0195 06       		.uleb128 0x6
 1765 0196 8C060000 		.4byte	.LASF34
 1766 019a 04       		.byte	0x4
 1767 019b 36       		.byte	0x36
 1768 019c 49040000 		.4byte	0x449
 1769 01a0 30       		.byte	0x30
 1770 01a1 06       		.uleb128 0x6
 1771 01a2 5C040000 		.4byte	.LASF35
 1772 01a6 04       		.byte	0x4
 1773 01a7 37       		.byte	0x37
 1774 01a8 49040000 		.4byte	0x449
 1775 01ac 34       		.byte	0x34
 1776 01ad 06       		.uleb128 0x6
 1777 01ae 54090000 		.4byte	.LASF36
 1778 01b2 04       		.byte	0x4
 1779 01b3 38       		.byte	0x38
 1780 01b4 49040000 		.4byte	0x449
 1781 01b8 38       		.byte	0x38
 1782 01b9 06       		.uleb128 0x6
 1783 01ba 5D050000 		.4byte	.LASF37
 1784 01be 04       		.byte	0x4
 1785 01bf 39       		.byte	0x39
 1786 01c0 49040000 		.4byte	0x449
 1787 01c4 3C       		.byte	0x3c
 1788 01c5 06       		.uleb128 0x6
 1789 01c6 13000000 		.4byte	.LASF38
 1790 01ca 04       		.byte	0x4
 1791 01cb 3B       		.byte	0x3b
 1792 01cc C3000000 		.4byte	0xc3
 1793 01d0 40       		.byte	0x40
 1794 01d1 06       		.uleb128 0x6
 1795 01d2 EA090000 		.4byte	.LASF39
 1796 01d6 04       		.byte	0x4
 1797 01d7 3C       		.byte	0x3c
 1798 01d8 C3000000 		.4byte	0xc3
 1799 01dc 44       		.byte	0x44
 1800 01dd 06       		.uleb128 0x6
 1801 01de 50040000 		.4byte	.LASF40
 1802 01e2 04       		.byte	0x4
 1803 01e3 41       		.byte	0x41
 1804 01e4 C3000000 		.4byte	0xc3
 1805 01e8 48       		.byte	0x48
 1806 01e9 06       		.uleb128 0x6
 1807 01ea 79070000 		.4byte	.LASF41
 1808 01ee 04       		.byte	0x4
 1809 01ef 42       		.byte	0x42
 1810 01f0 AD000000 		.4byte	0xad
 1811 01f4 4C       		.byte	0x4c
 1812 01f5 06       		.uleb128 0x6
 1813 01f6 80060000 		.4byte	.LASF42
 1814 01fa 04       		.byte	0x4
ARM GAS  C:\Users\JENNEW~1\AppData\Local\Temp\ccI7hFDI.s 			page 39


 1815 01fb 44       		.byte	0x44
 1816 01fc AD000000 		.4byte	0xad
 1817 0200 4E       		.byte	0x4e
 1818 0201 06       		.uleb128 0x6
 1819 0202 C4090000 		.4byte	.LASF43
 1820 0206 04       		.byte	0x4
 1821 0207 45       		.byte	0x45
 1822 0208 B8000000 		.4byte	0xb8
 1823 020c 50       		.byte	0x50
 1824 020d 06       		.uleb128 0x6
 1825 020e 610B0000 		.4byte	.LASF44
 1826 0212 04       		.byte	0x4
 1827 0213 46       		.byte	0x46
 1828 0214 B8000000 		.4byte	0xb8
 1829 0218 52       		.byte	0x52
 1830 0219 06       		.uleb128 0x6
 1831 021a CF020000 		.4byte	.LASF45
 1832 021e 04       		.byte	0x4
 1833 021f 47       		.byte	0x47
 1834 0220 B8000000 		.4byte	0xb8
 1835 0224 54       		.byte	0x54
 1836 0225 06       		.uleb128 0x6
 1837 0226 2A080000 		.4byte	.LASF46
 1838 022a 04       		.byte	0x4
 1839 022b 4A       		.byte	0x4a
 1840 022c 42040000 		.4byte	0x442
 1841 0230 56       		.byte	0x56
 1842 0231 06       		.uleb128 0x6
 1843 0232 0E0B0000 		.4byte	.LASF47
 1844 0236 04       		.byte	0x4
 1845 0237 4E       		.byte	0x4e
 1846 0238 49040000 		.4byte	0x449
 1847 023c 58       		.byte	0x58
 1848 023d 06       		.uleb128 0x6
 1849 023e C3020000 		.4byte	.LASF48
 1850 0242 04       		.byte	0x4
 1851 0243 52       		.byte	0x52
 1852 0244 49040000 		.4byte	0x449
 1853 0248 5C       		.byte	0x5c
 1854 0249 06       		.uleb128 0x6
 1855 024a 34090000 		.4byte	.LASF49
 1856 024e 04       		.byte	0x4
 1857 024f 57       		.byte	0x57
 1858 0250 42040000 		.4byte	0x442
 1859 0254 60       		.byte	0x60
 1860 0255 06       		.uleb128 0x6
 1861 0256 53030000 		.4byte	.LASF50
 1862 025a 04       		.byte	0x4
 1863 025b 58       		.byte	0x58
 1864 025c CE000000 		.4byte	0xce
 1865 0260 64       		.byte	0x64
 1866 0261 06       		.uleb128 0x6
 1867 0262 F7030000 		.4byte	.LASF51
 1868 0266 04       		.byte	0x4
 1869 0267 59       		.byte	0x59
 1870 0268 49040000 		.4byte	0x449
 1871 026c 68       		.byte	0x68
ARM GAS  C:\Users\JENNEW~1\AppData\Local\Temp\ccI7hFDI.s 			page 40


 1872 026d 06       		.uleb128 0x6
 1873 026e 16020000 		.4byte	.LASF52
 1874 0272 04       		.byte	0x4
 1875 0273 5A       		.byte	0x5a
 1876 0274 49040000 		.4byte	0x449
 1877 0278 6C       		.byte	0x6c
 1878 0279 06       		.uleb128 0x6
 1879 027a 5F090000 		.4byte	.LASF53
 1880 027e 04       		.byte	0x4
 1881 027f 5B       		.byte	0x5b
 1882 0280 49040000 		.4byte	0x449
 1883 0284 70       		.byte	0x70
 1884 0285 06       		.uleb128 0x6
 1885 0286 B8080000 		.4byte	.LASF54
 1886 028a 04       		.byte	0x4
 1887 028b 5F       		.byte	0x5f
 1888 028c 49040000 		.4byte	0x449
 1889 0290 74       		.byte	0x74
 1890 0291 06       		.uleb128 0x6
 1891 0292 A7080000 		.4byte	.LASF55
 1892 0296 04       		.byte	0x4
 1893 0297 60       		.byte	0x60
 1894 0298 49040000 		.4byte	0x449
 1895 029c 78       		.byte	0x78
 1896 029d 06       		.uleb128 0x6
 1897 029e 410B0000 		.4byte	.LASF56
 1898 02a2 04       		.byte	0x4
 1899 02a3 61       		.byte	0x61
 1900 02a4 49040000 		.4byte	0x449
 1901 02a8 7C       		.byte	0x7c
 1902 02a9 06       		.uleb128 0x6
 1903 02aa 050A0000 		.4byte	.LASF57
 1904 02ae 04       		.byte	0x4
 1905 02af 65       		.byte	0x65
 1906 02b0 49040000 		.4byte	0x449
 1907 02b4 80       		.byte	0x80
 1908 02b5 06       		.uleb128 0x6
 1909 02b6 F2080000 		.4byte	.LASF58
 1910 02ba 04       		.byte	0x4
 1911 02bb 66       		.byte	0x66
 1912 02bc 49040000 		.4byte	0x449
 1913 02c0 84       		.byte	0x84
 1914 02c1 06       		.uleb128 0x6
 1915 02c2 3B040000 		.4byte	.LASF59
 1916 02c6 04       		.byte	0x4
 1917 02c7 67       		.byte	0x67
 1918 02c8 49040000 		.4byte	0x449
 1919 02cc 88       		.byte	0x88
 1920 02cd 06       		.uleb128 0x6
 1921 02ce 36030000 		.4byte	.LASF60
 1922 02d2 04       		.byte	0x4
 1923 02d3 6A       		.byte	0x6a
 1924 02d4 42040000 		.4byte	0x442
 1925 02d8 8C       		.byte	0x8c
 1926 02d9 06       		.uleb128 0x6
 1927 02da D9010000 		.4byte	.LASF61
 1928 02de 04       		.byte	0x4
ARM GAS  C:\Users\JENNEW~1\AppData\Local\Temp\ccI7hFDI.s 			page 41


 1929 02df 6E       		.byte	0x6e
 1930 02e0 42040000 		.4byte	0x442
 1931 02e4 8D       		.byte	0x8d
 1932 02e5 06       		.uleb128 0x6
 1933 02e6 51060000 		.4byte	.LASF62
 1934 02ea 04       		.byte	0x4
 1935 02eb 6F       		.byte	0x6f
 1936 02ec 42040000 		.4byte	0x442
 1937 02f0 8E       		.byte	0x8e
 1938 02f1 06       		.uleb128 0x6
 1939 02f2 44030000 		.4byte	.LASF63
 1940 02f6 04       		.byte	0x4
 1941 02f7 70       		.byte	0x70
 1942 02f8 42040000 		.4byte	0x442
 1943 02fc 8F       		.byte	0x8f
 1944 02fd 06       		.uleb128 0x6
 1945 02fe E60A0000 		.4byte	.LASF64
 1946 0302 04       		.byte	0x4
 1947 0303 71       		.byte	0x71
 1948 0304 42040000 		.4byte	0x442
 1949 0308 90       		.byte	0x90
 1950 0309 06       		.uleb128 0x6
 1951 030a 07080000 		.4byte	.LASF65
 1952 030e 04       		.byte	0x4
 1953 030f 72       		.byte	0x72
 1954 0310 49040000 		.4byte	0x449
 1955 0314 94       		.byte	0x94
 1956 0315 06       		.uleb128 0x6
 1957 0316 BB000000 		.4byte	.LASF66
 1958 031a 04       		.byte	0x4
 1959 031b 73       		.byte	0x73
 1960 031c A2000000 		.4byte	0xa2
 1961 0320 98       		.byte	0x98
 1962 0321 06       		.uleb128 0x6
 1963 0322 69060000 		.4byte	.LASF67
 1964 0326 04       		.byte	0x4
 1965 0327 74       		.byte	0x74
 1966 0328 49040000 		.4byte	0x449
 1967 032c 9C       		.byte	0x9c
 1968 032d 06       		.uleb128 0x6
 1969 032e 41000000 		.4byte	.LASF68
 1970 0332 04       		.byte	0x4
 1971 0333 75       		.byte	0x75
 1972 0334 A2000000 		.4byte	0xa2
 1973 0338 A0       		.byte	0xa0
 1974 0339 06       		.uleb128 0x6
 1975 033a B5030000 		.4byte	.LASF69
 1976 033e 04       		.byte	0x4
 1977 033f 76       		.byte	0x76
 1978 0340 AD000000 		.4byte	0xad
 1979 0344 A2       		.byte	0xa2
 1980 0345 06       		.uleb128 0x6
 1981 0346 04090000 		.4byte	.LASF70
 1982 034a 04       		.byte	0x4
 1983 034b 77       		.byte	0x77
 1984 034c AD000000 		.4byte	0xad
 1985 0350 A4       		.byte	0xa4
ARM GAS  C:\Users\JENNEW~1\AppData\Local\Temp\ccI7hFDI.s 			page 42


 1986 0351 06       		.uleb128 0x6
 1987 0352 190B0000 		.4byte	.LASF71
 1988 0356 04       		.byte	0x4
 1989 0357 78       		.byte	0x78
 1990 0358 49040000 		.4byte	0x449
 1991 035c A8       		.byte	0xa8
 1992 035d 06       		.uleb128 0x6
 1993 035e B9040000 		.4byte	.LASF72
 1994 0362 04       		.byte	0x4
 1995 0363 79       		.byte	0x79
 1996 0364 AD000000 		.4byte	0xad
 1997 0368 AC       		.byte	0xac
 1998 0369 06       		.uleb128 0x6
 1999 036a 91030000 		.4byte	.LASF73
 2000 036e 04       		.byte	0x4
 2001 036f 7A       		.byte	0x7a
 2002 0370 AD000000 		.4byte	0xad
 2003 0374 AE       		.byte	0xae
 2004 0375 06       		.uleb128 0x6
 2005 0376 2D0B0000 		.4byte	.LASF74
 2006 037a 04       		.byte	0x4
 2007 037b 7B       		.byte	0x7b
 2008 037c AD000000 		.4byte	0xad
 2009 0380 B0       		.byte	0xb0
 2010 0381 06       		.uleb128 0x6
 2011 0382 B5070000 		.4byte	.LASF75
 2012 0386 04       		.byte	0x4
 2013 0387 7C       		.byte	0x7c
 2014 0388 49040000 		.4byte	0x449
 2015 038c B4       		.byte	0xb4
 2016 038d 06       		.uleb128 0x6
 2017 038e DC020000 		.4byte	.LASF76
 2018 0392 04       		.byte	0x4
 2019 0393 7D       		.byte	0x7d
 2020 0394 AD000000 		.4byte	0xad
 2021 0398 B8       		.byte	0xb8
 2022 0399 06       		.uleb128 0x6
 2023 039a 0C020000 		.4byte	.LASF77
 2024 039e 04       		.byte	0x4
 2025 039f 80       		.byte	0x80
 2026 03a0 42040000 		.4byte	0x442
 2027 03a4 BA       		.byte	0xba
 2028 03a5 06       		.uleb128 0x6
 2029 03a6 B8010000 		.4byte	.LASF78
 2030 03aa 04       		.byte	0x4
 2031 03ab 81       		.byte	0x81
 2032 03ac 49040000 		.4byte	0x449
 2033 03b0 BC       		.byte	0xbc
 2034 03b1 06       		.uleb128 0x6
 2035 03b2 BE010000 		.4byte	.LASF79
 2036 03b6 04       		.byte	0x4
 2037 03b7 82       		.byte	0x82
 2038 03b8 49040000 		.4byte	0x449
 2039 03bc C0       		.byte	0xc0
 2040 03bd 06       		.uleb128 0x6
 2041 03be C4010000 		.4byte	.LASF80
 2042 03c2 04       		.byte	0x4
ARM GAS  C:\Users\JENNEW~1\AppData\Local\Temp\ccI7hFDI.s 			page 43


 2043 03c3 83       		.byte	0x83
 2044 03c4 49040000 		.4byte	0x449
 2045 03c8 C4       		.byte	0xc4
 2046 03c9 06       		.uleb128 0x6
 2047 03ca 86090000 		.4byte	.LASF81
 2048 03ce 04       		.byte	0x4
 2049 03cf 84       		.byte	0x84
 2050 03d0 49040000 		.4byte	0x449
 2051 03d4 C8       		.byte	0xc8
 2052 03d5 06       		.uleb128 0x6
 2053 03d6 EC010000 		.4byte	.LASF82
 2054 03da 04       		.byte	0x4
 2055 03db 85       		.byte	0x85
 2056 03dc 49040000 		.4byte	0x449
 2057 03e0 CC       		.byte	0xcc
 2058 03e1 06       		.uleb128 0x6
 2059 03e2 3F050000 		.4byte	.LASF83
 2060 03e6 04       		.byte	0x4
 2061 03e7 86       		.byte	0x86
 2062 03e8 49040000 		.4byte	0x449
 2063 03ec D0       		.byte	0xd0
 2064 03ed 06       		.uleb128 0x6
 2065 03ee 49050000 		.4byte	.LASF84
 2066 03f2 04       		.byte	0x4
 2067 03f3 87       		.byte	0x87
 2068 03f4 49040000 		.4byte	0x449
 2069 03f8 D4       		.byte	0xd4
 2070 03f9 06       		.uleb128 0x6
 2071 03fa 53050000 		.4byte	.LASF85
 2072 03fe 04       		.byte	0x4
 2073 03ff 88       		.byte	0x88
 2074 0400 49040000 		.4byte	0x449
 2075 0404 D8       		.byte	0xd8
 2076 0405 06       		.uleb128 0x6
 2077 0406 B1060000 		.4byte	.LASF86
 2078 040a 04       		.byte	0x4
 2079 040b 89       		.byte	0x89
 2080 040c 49040000 		.4byte	0x449
 2081 0410 DC       		.byte	0xdc
 2082 0411 06       		.uleb128 0x6
 2083 0412 CA030000 		.4byte	.LASF87
 2084 0416 04       		.byte	0x4
 2085 0417 94       		.byte	0x94
 2086 0418 42040000 		.4byte	0x442
 2087 041c E0       		.byte	0xe0
 2088 041d 06       		.uleb128 0x6
 2089 041e 0A060000 		.4byte	.LASF88
 2090 0422 04       		.byte	0x4
 2091 0423 95       		.byte	0x95
 2092 0424 42040000 		.4byte	0x442
 2093 0428 E1       		.byte	0xe1
 2094 0429 06       		.uleb128 0x6
 2095 042a A4090000 		.4byte	.LASF89
 2096 042e 04       		.byte	0x4
 2097 042f 96       		.byte	0x96
 2098 0430 49040000 		.4byte	0x449
 2099 0434 E4       		.byte	0xe4
ARM GAS  C:\Users\JENNEW~1\AppData\Local\Temp\ccI7hFDI.s 			page 44


 2100 0435 06       		.uleb128 0x6
 2101 0436 22020000 		.4byte	.LASF90
 2102 043a 04       		.byte	0x4
 2103 043b 97       		.byte	0x97
 2104 043c AD000000 		.4byte	0xad
 2105 0440 E8       		.byte	0xe8
 2106 0441 00       		.byte	0
 2107 0442 02       		.uleb128 0x2
 2108 0443 01       		.byte	0x1
 2109 0444 02       		.byte	0x2
 2110 0445 29040000 		.4byte	.LASF91
 2111 0449 02       		.uleb128 0x2
 2112 044a 04       		.byte	0x4
 2113 044b 04       		.byte	0x4
 2114 044c 53020000 		.4byte	.LASF92
 2115 0450 03       		.uleb128 0x3
 2116 0451 00000000 		.4byte	.LASF93
 2117 0455 04       		.byte	0x4
 2118 0456 99       		.byte	0x99
 2119 0457 D9000000 		.4byte	0xd9
 2120 045b 02       		.uleb128 0x2
 2121 045c 08       		.byte	0x8
 2122 045d 04       		.byte	0x4
 2123 045e 9C060000 		.4byte	.LASF94
 2124 0462 02       		.uleb128 0x2
 2125 0463 04       		.byte	0x4
 2126 0464 07       		.byte	0x7
 2127 0465 21080000 		.4byte	.LASF95
 2128 0469 02       		.uleb128 0x2
 2129 046a 01       		.byte	0x1
 2130 046b 08       		.byte	0x8
 2131 046c A2040000 		.4byte	.LASF96
 2132 0470 07       		.uleb128 0x7
 2133 0471 04       		.byte	0x4
 2134 0472 76040000 		.4byte	0x476
 2135 0476 08       		.uleb128 0x8
 2136 0477 09       		.uleb128 0x9
 2137 0478 01       		.byte	0x1
 2138 0479 37000000 		.4byte	0x37
 2139 047d 05       		.byte	0x5
 2140 047e 32       		.byte	0x32
 2141 047f 9C040000 		.4byte	0x49c
 2142 0483 0A       		.uleb128 0xa
 2143 0484 E5040000 		.4byte	.LASF97
 2144 0488 00       		.byte	0
 2145 0489 0A       		.uleb128 0xa
 2146 048a 66020000 		.4byte	.LASF98
 2147 048e 01       		.byte	0x1
 2148 048f 0A       		.uleb128 0xa
 2149 0490 47080000 		.4byte	.LASF99
 2150 0494 02       		.byte	0x2
 2151 0495 0A       		.uleb128 0xa
 2152 0496 50080000 		.4byte	.LASF100
 2153 049a 03       		.byte	0x3
 2154 049b 00       		.byte	0
 2155 049c 03       		.uleb128 0x3
 2156 049d D0050000 		.4byte	.LASF101
ARM GAS  C:\Users\JENNEW~1\AppData\Local\Temp\ccI7hFDI.s 			page 45


 2157 04a1 05       		.byte	0x5
 2158 04a2 37       		.byte	0x37
 2159 04a3 77040000 		.4byte	0x477
 2160 04a7 05       		.uleb128 0x5
 2161 04a8 08       		.byte	0x8
 2162 04a9 05       		.byte	0x5
 2163 04aa 5A       		.byte	0x5a
 2164 04ab C8040000 		.4byte	0x4c8
 2165 04af 06       		.uleb128 0x6
 2166 04b0 8B030000 		.4byte	.LASF102
 2167 04b4 05       		.byte	0x5
 2168 04b5 5B       		.byte	0x5b
 2169 04b6 49040000 		.4byte	0x449
 2170 04ba 00       		.byte	0
 2171 04bb 06       		.uleb128 0x6
 2172 04bc D4080000 		.4byte	.LASF103
 2173 04c0 05       		.byte	0x5
 2174 04c1 5C       		.byte	0x5c
 2175 04c2 9C040000 		.4byte	0x49c
 2176 04c6 04       		.byte	0x4
 2177 04c7 00       		.byte	0
 2178 04c8 03       		.uleb128 0x3
 2179 04c9 370A0000 		.4byte	.LASF104
 2180 04cd 05       		.byte	0x5
 2181 04ce 5D       		.byte	0x5d
 2182 04cf A7040000 		.4byte	0x4a7
 2183 04d3 09       		.uleb128 0x9
 2184 04d4 01       		.byte	0x1
 2185 04d5 37000000 		.4byte	0x37
 2186 04d9 05       		.byte	0x5
 2187 04da 5F       		.byte	0x5f
 2188 04db 22050000 		.4byte	0x522
 2189 04df 0A       		.uleb128 0xa
 2190 04e0 F60A0000 		.4byte	.LASF105
 2191 04e4 00       		.byte	0
 2192 04e5 0A       		.uleb128 0xa
 2193 04e6 1D060000 		.4byte	.LASF106
 2194 04ea 01       		.byte	0x1
 2195 04eb 0A       		.uleb128 0xa
 2196 04ec 32060000 		.4byte	.LASF107
 2197 04f0 02       		.byte	0x2
 2198 04f1 0A       		.uleb128 0xa
 2199 04f2 B1050000 		.4byte	.LASF108
 2200 04f6 03       		.byte	0x3
 2201 04f7 0A       		.uleb128 0xa
 2202 04f8 6C090000 		.4byte	.LASF109
 2203 04fc 04       		.byte	0x4
 2204 04fd 0A       		.uleb128 0xa
 2205 04fe 05040000 		.4byte	.LASF110
 2206 0502 05       		.byte	0x5
 2207 0503 0A       		.uleb128 0xa
 2208 0504 62080000 		.4byte	.LASF111
 2209 0508 06       		.byte	0x6
 2210 0509 0A       		.uleb128 0xa
 2211 050a D8030000 		.4byte	.LASF112
 2212 050e 07       		.byte	0x7
 2213 050f 0A       		.uleb128 0xa
ARM GAS  C:\Users\JENNEW~1\AppData\Local\Temp\ccI7hFDI.s 			page 46


 2214 0510 6A010000 		.4byte	.LASF113
 2215 0514 08       		.byte	0x8
 2216 0515 0A       		.uleb128 0xa
 2217 0516 C60A0000 		.4byte	.LASF114
 2218 051a 09       		.byte	0x9
 2219 051b 0A       		.uleb128 0xa
 2220 051c 1F050000 		.4byte	.LASF115
 2221 0520 0A       		.byte	0xa
 2222 0521 00       		.byte	0
 2223 0522 03       		.uleb128 0x3
 2224 0523 64030000 		.4byte	.LASF116
 2225 0527 05       		.byte	0x5
 2226 0528 6B       		.byte	0x6b
 2227 0529 D3040000 		.4byte	0x4d3
 2228 052d 05       		.uleb128 0x5
 2229 052e 3C       		.byte	0x3c
 2230 052f 05       		.byte	0x5
 2231 0530 6D       		.byte	0x6d
 2232 0531 DE050000 		.4byte	0x5de
 2233 0535 06       		.uleb128 0x6
 2234 0536 A5050000 		.4byte	.LASF117
 2235 053a 05       		.byte	0x5
 2236 053b 6E       		.byte	0x6e
 2237 053c A2000000 		.4byte	0xa2
 2238 0540 00       		.byte	0
 2239 0541 06       		.uleb128 0x6
 2240 0542 13090000 		.4byte	.LASF118
 2241 0546 05       		.byte	0x5
 2242 0547 6F       		.byte	0x6f
 2243 0548 A2000000 		.4byte	0xa2
 2244 054c 01       		.byte	0x1
 2245 054d 0B       		.uleb128 0xb
 2246 054e 70616E00 		.ascii	"pan\000"
 2247 0552 05       		.byte	0x5
 2248 0553 70       		.byte	0x70
 2249 0554 C8040000 		.4byte	0x4c8
 2250 0558 04       		.byte	0x4
 2251 0559 06       		.uleb128 0x6
 2252 055a 59020000 		.4byte	.LASF119
 2253 055e 05       		.byte	0x5
 2254 055f 71       		.byte	0x71
 2255 0560 C8040000 		.4byte	0x4c8
 2256 0564 0C       		.byte	0xc
 2257 0565 06       		.uleb128 0x6
 2258 0566 F4040000 		.4byte	.LASF120
 2259 056a 05       		.byte	0x5
 2260 056b 72       		.byte	0x72
 2261 056c C8040000 		.4byte	0x4c8
 2262 0570 14       		.byte	0x14
 2263 0571 06       		.uleb128 0x6
 2264 0572 82050000 		.4byte	.LASF121
 2265 0576 05       		.byte	0x5
 2266 0577 73       		.byte	0x73
 2267 0578 C8040000 		.4byte	0x4c8
 2268 057c 1C       		.byte	0x1c
 2269 057d 06       		.uleb128 0x6
 2270 057e 4B040000 		.4byte	.LASF122
ARM GAS  C:\Users\JENNEW~1\AppData\Local\Temp\ccI7hFDI.s 			page 47


 2271 0582 05       		.byte	0x5
 2272 0583 74       		.byte	0x74
 2273 0584 C8040000 		.4byte	0x4c8
 2274 0588 24       		.byte	0x24
 2275 0589 06       		.uleb128 0x6
 2276 058a 09030000 		.4byte	.LASF123
 2277 058e 05       		.byte	0x5
 2278 058f 75       		.byte	0x75
 2279 0590 C8040000 		.4byte	0x4c8
 2280 0594 2C       		.byte	0x2c
 2281 0595 06       		.uleb128 0x6
 2282 0596 51000000 		.4byte	.LASF124
 2283 059a 05       		.byte	0x5
 2284 059b 76       		.byte	0x76
 2285 059c A2000000 		.4byte	0xa2
 2286 05a0 34       		.byte	0x34
 2287 05a1 06       		.uleb128 0x6
 2288 05a2 A1000000 		.4byte	.LASF125
 2289 05a6 05       		.byte	0x5
 2290 05a7 77       		.byte	0x77
 2291 05a8 A2000000 		.4byte	0xa2
 2292 05ac 35       		.byte	0x35
 2293 05ad 06       		.uleb128 0x6
 2294 05ae 08050000 		.4byte	.LASF126
 2295 05b2 05       		.byte	0x5
 2296 05b3 78       		.byte	0x78
 2297 05b4 A2000000 		.4byte	0xa2
 2298 05b8 36       		.byte	0x36
 2299 05b9 06       		.uleb128 0x6
 2300 05ba 90010000 		.4byte	.LASF127
 2301 05be 05       		.byte	0x5
 2302 05bf 79       		.byte	0x79
 2303 05c0 A2000000 		.4byte	0xa2
 2304 05c4 37       		.byte	0x37
 2305 05c5 06       		.uleb128 0x6
 2306 05c6 160A0000 		.4byte	.LASF128
 2307 05ca 05       		.byte	0x5
 2308 05cb 7A       		.byte	0x7a
 2309 05cc A2000000 		.4byte	0xa2
 2310 05d0 38       		.byte	0x38
 2311 05d1 06       		.uleb128 0x6
 2312 05d2 EF020000 		.4byte	.LASF129
 2313 05d6 05       		.byte	0x5
 2314 05d7 7B       		.byte	0x7b
 2315 05d8 A2000000 		.4byte	0xa2
 2316 05dc 39       		.byte	0x39
 2317 05dd 00       		.byte	0
 2318 05de 03       		.uleb128 0x3
 2319 05df 59070000 		.4byte	.LASF130
 2320 05e3 05       		.byte	0x5
 2321 05e4 7C       		.byte	0x7c
 2322 05e5 2D050000 		.4byte	0x52d
 2323 05e9 05       		.uleb128 0x5
 2324 05ea 2C       		.byte	0x2c
 2325 05eb 05       		.byte	0x5
 2326 05ec 7E       		.byte	0x7e
 2327 05ed E2060000 		.4byte	0x6e2
ARM GAS  C:\Users\JENNEW~1\AppData\Local\Temp\ccI7hFDI.s 			page 48


 2328 05f1 06       		.uleb128 0x6
 2329 05f2 F5010000 		.4byte	.LASF131
 2330 05f6 05       		.byte	0x5
 2331 05f7 7F       		.byte	0x7f
 2332 05f8 49040000 		.4byte	0x449
 2333 05fc 00       		.byte	0
 2334 05fd 06       		.uleb128 0x6
 2335 05fe 5A010000 		.4byte	.LASF132
 2336 0602 05       		.byte	0x5
 2337 0603 80       		.byte	0x80
 2338 0604 49040000 		.4byte	0x449
 2339 0608 04       		.byte	0x4
 2340 0609 06       		.uleb128 0x6
 2341 060a 89080000 		.4byte	.LASF133
 2342 060e 05       		.byte	0x5
 2343 060f 81       		.byte	0x81
 2344 0610 A2000000 		.4byte	0xa2
 2345 0614 08       		.byte	0x8
 2346 0615 06       		.uleb128 0x6
 2347 0616 98080000 		.4byte	.LASF134
 2348 061a 05       		.byte	0x5
 2349 061b 82       		.byte	0x82
 2350 061c A2000000 		.4byte	0xa2
 2351 0620 09       		.byte	0x9
 2352 0621 06       		.uleb128 0x6
 2353 0622 CA040000 		.4byte	.LASF23
 2354 0626 05       		.byte	0x5
 2355 0627 83       		.byte	0x83
 2356 0628 49040000 		.4byte	0x449
 2357 062c 0C       		.byte	0xc
 2358 062d 06       		.uleb128 0x6
 2359 062e D3040000 		.4byte	.LASF24
 2360 0632 05       		.byte	0x5
 2361 0633 84       		.byte	0x84
 2362 0634 49040000 		.4byte	0x449
 2363 0638 10       		.byte	0x10
 2364 0639 06       		.uleb128 0x6
 2365 063a DC040000 		.4byte	.LASF25
 2366 063e 05       		.byte	0x5
 2367 063f 85       		.byte	0x85
 2368 0640 49040000 		.4byte	0x449
 2369 0644 14       		.byte	0x14
 2370 0645 06       		.uleb128 0x6
 2371 0646 EB040000 		.4byte	.LASF22
 2372 064a 05       		.byte	0x5
 2373 064b 86       		.byte	0x86
 2374 064c 49040000 		.4byte	0x449
 2375 0650 18       		.byte	0x18
 2376 0651 06       		.uleb128 0x6
 2377 0652 F6090000 		.4byte	.LASF135
 2378 0656 05       		.byte	0x5
 2379 0657 87       		.byte	0x87
 2380 0658 B8000000 		.4byte	0xb8
 2381 065c 1C       		.byte	0x1c
 2382 065d 06       		.uleb128 0x6
 2383 065e AA010000 		.4byte	.LASF136
 2384 0662 05       		.byte	0x5
ARM GAS  C:\Users\JENNEW~1\AppData\Local\Temp\ccI7hFDI.s 			page 49


 2385 0663 88       		.byte	0x88
 2386 0664 B8000000 		.4byte	0xb8
 2387 0668 1E       		.byte	0x1e
 2388 0669 06       		.uleb128 0x6
 2389 066a 530B0000 		.4byte	.LASF137
 2390 066e 05       		.byte	0x5
 2391 066f 89       		.byte	0x89
 2392 0670 B8000000 		.4byte	0xb8
 2393 0674 20       		.byte	0x20
 2394 0675 06       		.uleb128 0x6
 2395 0676 8F070000 		.4byte	.LASF138
 2396 067a 05       		.byte	0x5
 2397 067b 8A       		.byte	0x8a
 2398 067c 22050000 		.4byte	0x522
 2399 0680 22       		.byte	0x22
 2400 0681 06       		.uleb128 0x6
 2401 0682 0E030000 		.4byte	.LASF139
 2402 0686 05       		.byte	0x5
 2403 0687 8B       		.byte	0x8b
 2404 0688 22050000 		.4byte	0x522
 2405 068c 23       		.byte	0x23
 2406 068d 06       		.uleb128 0x6
 2407 068e 5E060000 		.4byte	.LASF140
 2408 0692 05       		.byte	0x5
 2409 0693 8C       		.byte	0x8c
 2410 0694 22050000 		.4byte	0x522
 2411 0698 24       		.byte	0x24
 2412 0699 06       		.uleb128 0x6
 2413 069a 16080000 		.4byte	.LASF141
 2414 069e 05       		.byte	0x5
 2415 069f 8D       		.byte	0x8d
 2416 06a0 A2000000 		.4byte	0xa2
 2417 06a4 25       		.byte	0x25
 2418 06a5 06       		.uleb128 0x6
 2419 06a6 ED070000 		.4byte	.LASF142
 2420 06aa 05       		.byte	0x5
 2421 06ab 8E       		.byte	0x8e
 2422 06ac A2000000 		.4byte	0xa2
 2423 06b0 26       		.byte	0x26
 2424 06b1 06       		.uleb128 0x6
 2425 06b2 6B020000 		.4byte	.LASF143
 2426 06b6 05       		.byte	0x5
 2427 06b7 8F       		.byte	0x8f
 2428 06b8 A2000000 		.4byte	0xa2
 2429 06bc 27       		.byte	0x27
 2430 06bd 06       		.uleb128 0x6
 2431 06be 67040000 		.4byte	.LASF144
 2432 06c2 05       		.byte	0x5
 2433 06c3 90       		.byte	0x90
 2434 06c4 A2000000 		.4byte	0xa2
 2435 06c8 28       		.byte	0x28
 2436 06c9 06       		.uleb128 0x6
 2437 06ca 28030000 		.4byte	.LASF145
 2438 06ce 05       		.byte	0x5
 2439 06cf 91       		.byte	0x91
 2440 06d0 A2000000 		.4byte	0xa2
 2441 06d4 29       		.byte	0x29
ARM GAS  C:\Users\JENNEW~1\AppData\Local\Temp\ccI7hFDI.s 			page 50


 2442 06d5 06       		.uleb128 0x6
 2443 06d6 A4030000 		.4byte	.LASF146
 2444 06da 05       		.byte	0x5
 2445 06db 92       		.byte	0x92
 2446 06dc A2000000 		.4byte	0xa2
 2447 06e0 2A       		.byte	0x2a
 2448 06e1 00       		.byte	0
 2449 06e2 03       		.uleb128 0x3
 2450 06e3 6A000000 		.4byte	.LASF147
 2451 06e7 05       		.byte	0x5
 2452 06e8 93       		.byte	0x93
 2453 06e9 E9050000 		.4byte	0x5e9
 2454 06ed 05       		.uleb128 0x5
 2455 06ee 74       		.byte	0x74
 2456 06ef 05       		.byte	0x5
 2457 06f0 95       		.byte	0x95
 2458 06f1 32070000 		.4byte	0x732
 2459 06f5 06       		.uleb128 0x6
 2460 06f6 E4090000 		.4byte	.LASF148
 2461 06fa 05       		.byte	0x5
 2462 06fb 96       		.byte	0x96
 2463 06fc 70040000 		.4byte	0x470
 2464 0700 00       		.byte	0
 2465 0701 06       		.uleb128 0x6
 2466 0702 33020000 		.4byte	.LASF149
 2467 0706 05       		.byte	0x5
 2468 0707 97       		.byte	0x97
 2469 0708 70040000 		.4byte	0x470
 2470 070c 04       		.byte	0x4
 2471 070d 06       		.uleb128 0x6
 2472 070e 94090000 		.4byte	.LASF150
 2473 0712 05       		.byte	0x5
 2474 0713 98       		.byte	0x98
 2475 0714 70040000 		.4byte	0x470
 2476 0718 08       		.byte	0x8
 2477 0719 06       		.uleb128 0x6
 2478 071a 7A000000 		.4byte	.LASF151
 2479 071e 05       		.byte	0x5
 2480 071f 99       		.byte	0x99
 2481 0720 DE050000 		.4byte	0x5de
 2482 0724 0C       		.byte	0xc
 2483 0725 06       		.uleb128 0x6
 2484 0726 01050000 		.4byte	.LASF152
 2485 072a 05       		.byte	0x5
 2486 072b 9A       		.byte	0x9a
 2487 072c E2060000 		.4byte	0x6e2
 2488 0730 48       		.byte	0x48
 2489 0731 00       		.byte	0
 2490 0732 03       		.uleb128 0x3
 2491 0733 18070000 		.4byte	.LASF153
 2492 0737 05       		.byte	0x5
 2493 0738 9B       		.byte	0x9b
 2494 0739 ED060000 		.4byte	0x6ed
 2495 073d 02       		.uleb128 0x2
 2496 073e 08       		.byte	0x8
 2497 073f 04       		.byte	0x4
 2498 0740 300A0000 		.4byte	.LASF154
ARM GAS  C:\Users\JENNEW~1\AppData\Local\Temp\ccI7hFDI.s 			page 51


 2499 0744 0C       		.uleb128 0xc
 2500 0745 EE050000 		.4byte	.LASF155
 2501 0749 01       		.byte	0x1
 2502 074a 20       		.byte	0x20
 2503 074b C3000000 		.4byte	0xc3
 2504 074f 00000000 		.4byte	.LFB0
 2505 0753 34000000 		.4byte	.LFE0-.LFB0
 2506 0757 01       		.uleb128 0x1
 2507 0758 9C       		.byte	0x9c
 2508 0759 6A070000 		.4byte	0x76a
 2509 075d 0D       		.uleb128 0xd
 2510 075e 7000     		.ascii	"p\000"
 2511 0760 01       		.byte	0x1
 2512 0761 20       		.byte	0x20
 2513 0762 6A070000 		.4byte	0x76a
 2514 0766 02       		.uleb128 0x2
 2515 0767 91       		.byte	0x91
 2516 0768 74       		.sleb128 -12
 2517 0769 00       		.byte	0
 2518 076a 07       		.uleb128 0x7
 2519 076b 04       		.byte	0x4
 2520 076c 70070000 		.4byte	0x770
 2521 0770 0E       		.uleb128 0xe
 2522 0771 A2000000 		.4byte	0xa2
 2523 0775 0C       		.uleb128 0xc
 2524 0776 9A040000 		.4byte	.LASF156
 2525 077a 01       		.byte	0x1
 2526 077b 29       		.byte	0x29
 2527 077c AD000000 		.4byte	0xad
 2528 0780 00000000 		.4byte	.LFB1
 2529 0784 26000000 		.4byte	.LFE1-.LFB1
 2530 0788 01       		.uleb128 0x1
 2531 0789 9C       		.byte	0x9c
 2532 078a 9B070000 		.4byte	0x79b
 2533 078e 0D       		.uleb128 0xd
 2534 078f 7000     		.ascii	"p\000"
 2535 0791 01       		.byte	0x1
 2536 0792 29       		.byte	0x29
 2537 0793 6A070000 		.4byte	0x76a
 2538 0797 02       		.uleb128 0x2
 2539 0798 91       		.byte	0x91
 2540 0799 74       		.sleb128 -12
 2541 079a 00       		.byte	0
 2542 079b 0C       		.uleb128 0xc
 2543 079c 0E070000 		.4byte	.LASF157
 2544 07a0 01       		.byte	0x1
 2545 07a1 2F       		.byte	0x2f
 2546 07a2 B8000000 		.4byte	0xb8
 2547 07a6 00000000 		.4byte	.LFB2
 2548 07aa 28000000 		.4byte	.LFE2-.LFB2
 2549 07ae 01       		.uleb128 0x1
 2550 07af 9C       		.byte	0x9c
 2551 07b0 C1070000 		.4byte	0x7c1
 2552 07b4 0D       		.uleb128 0xd
 2553 07b5 7000     		.ascii	"p\000"
 2554 07b7 01       		.byte	0x1
 2555 07b8 2F       		.byte	0x2f
ARM GAS  C:\Users\JENNEW~1\AppData\Local\Temp\ccI7hFDI.s 			page 52


 2556 07b9 6A070000 		.4byte	0x76a
 2557 07bd 02       		.uleb128 0x2
 2558 07be 91       		.byte	0x91
 2559 07bf 74       		.sleb128 -12
 2560 07c0 00       		.byte	0
 2561 07c1 0F       		.uleb128 0xf
 2562 07c2 04020000 		.4byte	.LASF158
 2563 07c6 01       		.byte	0x1
 2564 07c7 35       		.byte	0x35
 2565 07c8 AD000000 		.4byte	0xad
 2566 07cc 00000000 		.4byte	.LFB3
 2567 07d0 22000000 		.4byte	.LFE3-.LFB3
 2568 07d4 01       		.uleb128 0x1
 2569 07d5 9C       		.byte	0x9c
 2570 07d6 F3070000 		.4byte	0x7f3
 2571 07da 0D       		.uleb128 0xd
 2572 07db 7000     		.ascii	"p\000"
 2573 07dd 01       		.byte	0x1
 2574 07de 35       		.byte	0x35
 2575 07df 6A070000 		.4byte	0x76a
 2576 07e3 02       		.uleb128 0x2
 2577 07e4 91       		.byte	0x91
 2578 07e5 6C       		.sleb128 -20
 2579 07e6 10       		.uleb128 0x10
 2580 07e7 7600     		.ascii	"v\000"
 2581 07e9 01       		.byte	0x1
 2582 07ea 37       		.byte	0x37
 2583 07eb AD000000 		.4byte	0xad
 2584 07ef 02       		.uleb128 0x2
 2585 07f0 91       		.byte	0x91
 2586 07f1 76       		.sleb128 -10
 2587 07f2 00       		.byte	0
 2588 07f3 11       		.uleb128 0x11
 2589 07f4 80040000 		.4byte	.LASF183
 2590 07f8 01       		.byte	0x1
 2591 07f9 49       		.byte	0x49
 2592 07fa A2000000 		.4byte	0xa2
 2593 07fe 00000000 		.4byte	.LFB4
 2594 0802 D4010000 		.4byte	.LFE4-.LFB4
 2595 0806 01       		.uleb128 0x1
 2596 0807 9C       		.byte	0x9c
 2597 0808 9C080000 		.4byte	0x89c
 2598 080c 0D       		.uleb128 0xd
 2599 080d 7400     		.ascii	"t\000"
 2600 080f 01       		.byte	0x1
 2601 0810 49       		.byte	0x49
 2602 0811 9C080000 		.4byte	0x89c
 2603 0815 02       		.uleb128 0x2
 2604 0816 91       		.byte	0x91
 2605 0817 54       		.sleb128 -44
 2606 0818 12       		.uleb128 0x12
 2607 0819 49060000 		.4byte	.LASF159
 2608 081d 01       		.byte	0x1
 2609 081e 4A       		.byte	0x4a
 2610 081f A7080000 		.4byte	0x8a7
 2611 0823 02       		.uleb128 0x2
 2612 0824 91       		.byte	0x91
ARM GAS  C:\Users\JENNEW~1\AppData\Local\Temp\ccI7hFDI.s 			page 53


 2613 0825 50       		.sleb128 -48
 2614 0826 12       		.uleb128 0x12
 2615 0827 B1020000 		.4byte	.LASF160
 2616 082b 01       		.byte	0x1
 2617 082c 4B       		.byte	0x4b
 2618 082d A7080000 		.4byte	0x8a7
 2619 0831 02       		.uleb128 0x2
 2620 0832 91       		.byte	0x91
 2621 0833 4C       		.sleb128 -52
 2622 0834 12       		.uleb128 0x12
 2623 0835 21070000 		.4byte	.LASF161
 2624 0839 01       		.byte	0x1
 2625 083a 4C       		.byte	0x4c
 2626 083b A7080000 		.4byte	0x8a7
 2627 083f 02       		.uleb128 0x2
 2628 0840 91       		.byte	0x91
 2629 0841 48       		.sleb128 -56
 2630 0842 13       		.uleb128 0x13
 2631 0843 21040000 		.4byte	.LASF162
 2632 0847 01       		.byte	0x1
 2633 0848 50       		.byte	0x50
 2634 0849 AD080000 		.4byte	0x8ad
 2635 084d 05       		.uleb128 0x5
 2636 084e 03       		.byte	0x3
 2637 084f 00000000 		.4byte	RAD2DEG.6013
 2638 0853 10       		.uleb128 0x10
 2639 0854 7700     		.ascii	"w\000"
 2640 0856 01       		.byte	0x1
 2641 0857 52       		.byte	0x52
 2642 0858 49040000 		.4byte	0x449
 2643 085c 02       		.uleb128 0x2
 2644 085d 91       		.byte	0x91
 2645 085e 68       		.sleb128 -24
 2646 085f 10       		.uleb128 0x10
 2647 0860 7800     		.ascii	"x\000"
 2648 0862 01       		.byte	0x1
 2649 0863 53       		.byte	0x53
 2650 0864 49040000 		.4byte	0x449
 2651 0868 02       		.uleb128 0x2
 2652 0869 91       		.byte	0x91
 2653 086a 64       		.sleb128 -28
 2654 086b 10       		.uleb128 0x10
 2655 086c 7900     		.ascii	"y\000"
 2656 086e 01       		.byte	0x1
 2657 086f 54       		.byte	0x54
 2658 0870 49040000 		.4byte	0x449
 2659 0874 02       		.uleb128 0x2
 2660 0875 91       		.byte	0x91
 2661 0876 60       		.sleb128 -32
 2662 0877 10       		.uleb128 0x10
 2663 0878 7A00     		.ascii	"z\000"
 2664 087a 01       		.byte	0x1
 2665 087b 55       		.byte	0x55
 2666 087c 49040000 		.4byte	0x449
 2667 0880 02       		.uleb128 0x2
 2668 0881 91       		.byte	0x91
 2669 0882 5C       		.sleb128 -36
ARM GAS  C:\Users\JENNEW~1\AppData\Local\Temp\ccI7hFDI.s 			page 54


 2670 0883 14       		.uleb128 0x14
 2671 0884 CA000000 		.4byte	.LBB2
 2672 0888 72000000 		.4byte	.LBE2-.LBB2
 2673 088c 13       		.uleb128 0x13
 2674 088d 50070000 		.4byte	.LASF163
 2675 0891 01       		.byte	0x1
 2676 0892 5D       		.byte	0x5d
 2677 0893 49040000 		.4byte	0x449
 2678 0897 02       		.uleb128 0x2
 2679 0898 91       		.byte	0x91
 2680 0899 6C       		.sleb128 -20
 2681 089a 00       		.byte	0
 2682 089b 00       		.byte	0
 2683 089c 07       		.uleb128 0x7
 2684 089d 04       		.byte	0x4
 2685 089e A2080000 		.4byte	0x8a2
 2686 08a2 0E       		.uleb128 0xe
 2687 08a3 50040000 		.4byte	0x450
 2688 08a7 07       		.uleb128 0x7
 2689 08a8 04       		.byte	0x4
 2690 08a9 49040000 		.4byte	0x449
 2691 08ad 0E       		.uleb128 0xe
 2692 08ae 49040000 		.4byte	0x449
 2693 08b2 15       		.uleb128 0x15
 2694 08b3 C4070000 		.4byte	.LASF165
 2695 08b7 01       		.byte	0x1
 2696 08b8 6F       		.byte	0x6f
 2697 08b9 00000000 		.4byte	.LFB5
 2698 08bd 68000000 		.4byte	.LFE5-.LFB5
 2699 08c1 01       		.uleb128 0x1
 2700 08c2 9C       		.byte	0x9c
 2701 08c3 F0080000 		.4byte	0x8f0
 2702 08c7 0D       		.uleb128 0xd
 2703 08c8 7000     		.ascii	"p\000"
 2704 08ca 01       		.byte	0x1
 2705 08cb 6F       		.byte	0x6f
 2706 08cc 6A070000 		.4byte	0x76a
 2707 08d0 02       		.uleb128 0x2
 2708 08d1 91       		.byte	0x91
 2709 08d2 74       		.sleb128 -12
 2710 08d3 12       		.uleb128 0x12
 2711 08d4 E8070000 		.4byte	.LASF164
 2712 08d8 01       		.byte	0x1
 2713 08d9 6F       		.byte	0x6f
 2714 08da B8000000 		.4byte	0xb8
 2715 08de 02       		.uleb128 0x2
 2716 08df 91       		.byte	0x91
 2717 08e0 72       		.sleb128 -14
 2718 08e1 0D       		.uleb128 0xd
 2719 08e2 64737400 		.ascii	"dst\000"
 2720 08e6 01       		.byte	0x1
 2721 08e7 70       		.byte	0x70
 2722 08e8 F0080000 		.4byte	0x8f0
 2723 08ec 02       		.uleb128 0x2
 2724 08ed 91       		.byte	0x91
 2725 08ee 6C       		.sleb128 -20
 2726 08ef 00       		.byte	0
ARM GAS  C:\Users\JENNEW~1\AppData\Local\Temp\ccI7hFDI.s 			page 55


 2727 08f0 07       		.uleb128 0x7
 2728 08f1 04       		.byte	0x4
 2729 08f2 50040000 		.4byte	0x450
 2730 08f6 16       		.uleb128 0x16
 2731 08f7 2F000000 		.4byte	.LASF166
 2732 08fb 01       		.byte	0x1
 2733 08fc 8F       		.byte	0x8f
 2734 08fd 00000000 		.4byte	.LFB6
 2735 0901 A0010000 		.4byte	.LFE6-.LFB6
 2736 0905 01       		.uleb128 0x1
 2737 0906 9C       		.byte	0x9c
 2738 0907 A4090000 		.4byte	0x9a4
 2739 090b 0D       		.uleb128 0xd
 2740 090c 7000     		.ascii	"p\000"
 2741 090e 01       		.byte	0x1
 2742 090f 8F       		.byte	0x8f
 2743 0910 6A070000 		.4byte	0x76a
 2744 0914 02       		.uleb128 0x2
 2745 0915 91       		.byte	0x91
 2746 0916 5C       		.sleb128 -36
 2747 0917 12       		.uleb128 0x12
 2748 0918 E8070000 		.4byte	.LASF164
 2749 091c 01       		.byte	0x1
 2750 091d 8F       		.byte	0x8f
 2751 091e B8000000 		.4byte	0xb8
 2752 0922 02       		.uleb128 0x2
 2753 0923 91       		.byte	0x91
 2754 0924 5A       		.sleb128 -38
 2755 0925 0D       		.uleb128 0xd
 2756 0926 64737400 		.ascii	"dst\000"
 2757 092a 01       		.byte	0x1
 2758 092b 90       		.byte	0x90
 2759 092c F0080000 		.4byte	0x8f0
 2760 0930 02       		.uleb128 0x2
 2761 0931 91       		.byte	0x91
 2762 0932 54       		.sleb128 -44
 2763 0933 13       		.uleb128 0x13
 2764 0934 27000000 		.4byte	.LASF167
 2765 0938 01       		.byte	0x1
 2766 0939 94       		.byte	0x94
 2767 093a C3000000 		.4byte	0xc3
 2768 093e 02       		.uleb128 0x2
 2769 093f 91       		.byte	0x91
 2770 0940 74       		.sleb128 -12
 2771 0941 13       		.uleb128 0x13
 2772 0942 E6050000 		.4byte	.LASF168
 2773 0946 01       		.byte	0x1
 2774 0947 95       		.byte	0x95
 2775 0948 C3000000 		.4byte	0xc3
 2776 094c 02       		.uleb128 0x2
 2777 094d 91       		.byte	0x91
 2778 094e 70       		.sleb128 -16
 2779 094f 13       		.uleb128 0x13
 2780 0950 1F000000 		.4byte	.LASF169
 2781 0954 01       		.byte	0x1
 2782 0955 96       		.byte	0x96
 2783 0956 C3000000 		.4byte	0xc3
ARM GAS  C:\Users\JENNEW~1\AppData\Local\Temp\ccI7hFDI.s 			page 56


 2784 095a 02       		.uleb128 0x2
 2785 095b 91       		.byte	0x91
 2786 095c 6C       		.sleb128 -20
 2787 095d 13       		.uleb128 0x13
 2788 095e 99000000 		.4byte	.LASF170
 2789 0962 01       		.byte	0x1
 2790 0963 97       		.byte	0x97
 2791 0964 AD000000 		.4byte	0xad
 2792 0968 02       		.uleb128 0x2
 2793 0969 91       		.byte	0x91
 2794 096a 6A       		.sleb128 -22
 2795 096b 13       		.uleb128 0x13
 2796 096c 78060000 		.4byte	.LASF171
 2797 0970 01       		.byte	0x1
 2798 0971 98       		.byte	0x98
 2799 0972 AD000000 		.4byte	0xad
 2800 0976 02       		.uleb128 0x2
 2801 0977 91       		.byte	0x91
 2802 0978 68       		.sleb128 -24
 2803 0979 13       		.uleb128 0x13
 2804 097a BA020000 		.4byte	.LASF172
 2805 097e 01       		.byte	0x1
 2806 097f 99       		.byte	0x99
 2807 0980 B8000000 		.4byte	0xb8
 2808 0984 02       		.uleb128 0x2
 2809 0985 91       		.byte	0x91
 2810 0986 66       		.sleb128 -26
 2811 0987 13       		.uleb128 0x13
 2812 0988 82030000 		.4byte	.LASF173
 2813 098c 01       		.byte	0x1
 2814 098d 9A       		.byte	0x9a
 2815 098e B8000000 		.4byte	0xb8
 2816 0992 02       		.uleb128 0x2
 2817 0993 91       		.byte	0x91
 2818 0994 64       		.sleb128 -28
 2819 0995 13       		.uleb128 0x13
 2820 0996 CB080000 		.4byte	.LASF174
 2821 099a 01       		.byte	0x1
 2822 099b 9B       		.byte	0x9b
 2823 099c B8000000 		.4byte	0xb8
 2824 09a0 02       		.uleb128 0x2
 2825 09a1 91       		.byte	0x91
 2826 09a2 62       		.sleb128 -30
 2827 09a3 00       		.byte	0
 2828 09a4 16       		.uleb128 0x16
 2829 09a5 3D070000 		.4byte	.LASF175
 2830 09a9 01       		.byte	0x1
 2831 09aa BA       		.byte	0xba
 2832 09ab 00000000 		.4byte	.LFB7
 2833 09af 78000000 		.4byte	.LFE7-.LFB7
 2834 09b3 01       		.uleb128 0x1
 2835 09b4 9C       		.byte	0x9c
 2836 09b5 E2090000 		.4byte	0x9e2
 2837 09b9 0D       		.uleb128 0xd
 2838 09ba 7000     		.ascii	"p\000"
 2839 09bc 01       		.byte	0x1
 2840 09bd BA       		.byte	0xba
ARM GAS  C:\Users\JENNEW~1\AppData\Local\Temp\ccI7hFDI.s 			page 57


 2841 09be 6A070000 		.4byte	0x76a
 2842 09c2 02       		.uleb128 0x2
 2843 09c3 91       		.byte	0x91
 2844 09c4 74       		.sleb128 -12
 2845 09c5 12       		.uleb128 0x12
 2846 09c6 E8070000 		.4byte	.LASF164
 2847 09ca 01       		.byte	0x1
 2848 09cb BA       		.byte	0xba
 2849 09cc B8000000 		.4byte	0xb8
 2850 09d0 02       		.uleb128 0x2
 2851 09d1 91       		.byte	0x91
 2852 09d2 72       		.sleb128 -14
 2853 09d3 0D       		.uleb128 0xd
 2854 09d4 64737400 		.ascii	"dst\000"
 2855 09d8 01       		.byte	0x1
 2856 09d9 BB       		.byte	0xbb
 2857 09da F0080000 		.4byte	0x8f0
 2858 09de 02       		.uleb128 0x2
 2859 09df 91       		.byte	0x91
 2860 09e0 6C       		.sleb128 -20
 2861 09e1 00       		.byte	0
 2862 09e2 16       		.uleb128 0x16
 2863 09e3 8E050000 		.4byte	.LASF176
 2864 09e7 01       		.byte	0x1
 2865 09e8 D5       		.byte	0xd5
 2866 09e9 00000000 		.4byte	.LFB8
 2867 09ed 44010000 		.4byte	.LFE8-.LFB8
 2868 09f1 01       		.uleb128 0x1
 2869 09f2 9C       		.byte	0x9c
 2870 09f3 200A0000 		.4byte	0xa20
 2871 09f7 0D       		.uleb128 0xd
 2872 09f8 7000     		.ascii	"p\000"
 2873 09fa 01       		.byte	0x1
 2874 09fb D5       		.byte	0xd5
 2875 09fc 6A070000 		.4byte	0x76a
 2876 0a00 02       		.uleb128 0x2
 2877 0a01 91       		.byte	0x91
 2878 0a02 74       		.sleb128 -12
 2879 0a03 12       		.uleb128 0x12
 2880 0a04 E8070000 		.4byte	.LASF164
 2881 0a08 01       		.byte	0x1
 2882 0a09 D5       		.byte	0xd5
 2883 0a0a B8000000 		.4byte	0xb8
 2884 0a0e 02       		.uleb128 0x2
 2885 0a0f 91       		.byte	0x91
 2886 0a10 72       		.sleb128 -14
 2887 0a11 0D       		.uleb128 0xd
 2888 0a12 64737400 		.ascii	"dst\000"
 2889 0a16 01       		.byte	0x1
 2890 0a17 D6       		.byte	0xd6
 2891 0a18 F0080000 		.4byte	0x8f0
 2892 0a1c 02       		.uleb128 0x2
 2893 0a1d 91       		.byte	0x91
 2894 0a1e 6C       		.sleb128 -20
 2895 0a1f 00       		.byte	0
 2896 0a20 17       		.uleb128 0x17
 2897 0a21 9B020000 		.4byte	.LASF177
ARM GAS  C:\Users\JENNEW~1\AppData\Local\Temp\ccI7hFDI.s 			page 58


 2898 0a25 01       		.byte	0x1
 2899 0a26 0501     		.2byte	0x105
 2900 0a28 00000000 		.4byte	.LFB9
 2901 0a2c C8010000 		.4byte	.LFE9-.LFB9
 2902 0a30 01       		.uleb128 0x1
 2903 0a31 9C       		.byte	0x9c
 2904 0a32 620A0000 		.4byte	0xa62
 2905 0a36 18       		.uleb128 0x18
 2906 0a37 7000     		.ascii	"p\000"
 2907 0a39 01       		.byte	0x1
 2908 0a3a 0501     		.2byte	0x105
 2909 0a3c 6A070000 		.4byte	0x76a
 2910 0a40 02       		.uleb128 0x2
 2911 0a41 91       		.byte	0x91
 2912 0a42 74       		.sleb128 -12
 2913 0a43 19       		.uleb128 0x19
 2914 0a44 E8070000 		.4byte	.LASF164
 2915 0a48 01       		.byte	0x1
 2916 0a49 0501     		.2byte	0x105
 2917 0a4b B8000000 		.4byte	0xb8
 2918 0a4f 02       		.uleb128 0x2
 2919 0a50 91       		.byte	0x91
 2920 0a51 72       		.sleb128 -14
 2921 0a52 18       		.uleb128 0x18
 2922 0a53 64737400 		.ascii	"dst\000"
 2923 0a57 01       		.byte	0x1
 2924 0a58 0601     		.2byte	0x106
 2925 0a5a F0080000 		.4byte	0x8f0
 2926 0a5e 02       		.uleb128 0x2
 2927 0a5f 91       		.byte	0x91
 2928 0a60 6C       		.sleb128 -20
 2929 0a61 00       		.byte	0
 2930 0a62 17       		.uleb128 0x17
 2931 0a63 A7040000 		.4byte	.LASF178
 2932 0a67 01       		.byte	0x1
 2933 0a68 3401     		.2byte	0x134
 2934 0a6a 00000000 		.4byte	.LFB10
 2935 0a6e 8C010000 		.4byte	.LFE10-.LFB10
 2936 0a72 01       		.uleb128 0x1
 2937 0a73 9C       		.byte	0x9c
 2938 0a74 A40A0000 		.4byte	0xaa4
 2939 0a78 18       		.uleb128 0x18
 2940 0a79 7000     		.ascii	"p\000"
 2941 0a7b 01       		.byte	0x1
 2942 0a7c 3401     		.2byte	0x134
 2943 0a7e 6A070000 		.4byte	0x76a
 2944 0a82 02       		.uleb128 0x2
 2945 0a83 91       		.byte	0x91
 2946 0a84 74       		.sleb128 -12
 2947 0a85 19       		.uleb128 0x19
 2948 0a86 E8070000 		.4byte	.LASF164
 2949 0a8a 01       		.byte	0x1
 2950 0a8b 3401     		.2byte	0x134
 2951 0a8d B8000000 		.4byte	0xb8
 2952 0a91 02       		.uleb128 0x2
 2953 0a92 91       		.byte	0x91
 2954 0a93 72       		.sleb128 -14
ARM GAS  C:\Users\JENNEW~1\AppData\Local\Temp\ccI7hFDI.s 			page 59


 2955 0a94 18       		.uleb128 0x18
 2956 0a95 64737400 		.ascii	"dst\000"
 2957 0a99 01       		.byte	0x1
 2958 0a9a 3501     		.2byte	0x135
 2959 0a9c F0080000 		.4byte	0x8f0
 2960 0aa0 02       		.uleb128 0x2
 2961 0aa1 91       		.byte	0x91
 2962 0aa2 6C       		.sleb128 -20
 2963 0aa3 00       		.byte	0
 2964 0aa4 17       		.uleb128 0x17
 2965 0aa5 3E090000 		.4byte	.LASF179
 2966 0aa9 01       		.byte	0x1
 2967 0aaa 5201     		.2byte	0x152
 2968 0aac 00000000 		.4byte	.LFB11
 2969 0ab0 7C000000 		.4byte	.LFE11-.LFB11
 2970 0ab4 01       		.uleb128 0x1
 2971 0ab5 9C       		.byte	0x9c
 2972 0ab6 E60A0000 		.4byte	0xae6
 2973 0aba 18       		.uleb128 0x18
 2974 0abb 7000     		.ascii	"p\000"
 2975 0abd 01       		.byte	0x1
 2976 0abe 5201     		.2byte	0x152
 2977 0ac0 6A070000 		.4byte	0x76a
 2978 0ac4 02       		.uleb128 0x2
 2979 0ac5 91       		.byte	0x91
 2980 0ac6 74       		.sleb128 -12
 2981 0ac7 19       		.uleb128 0x19
 2982 0ac8 E8070000 		.4byte	.LASF164
 2983 0acc 01       		.byte	0x1
 2984 0acd 5201     		.2byte	0x152
 2985 0acf B8000000 		.4byte	0xb8
 2986 0ad3 02       		.uleb128 0x2
 2987 0ad4 91       		.byte	0x91
 2988 0ad5 72       		.sleb128 -14
 2989 0ad6 18       		.uleb128 0x18
 2990 0ad7 64737400 		.ascii	"dst\000"
 2991 0adb 01       		.byte	0x1
 2992 0adc 5301     		.2byte	0x153
 2993 0ade F0080000 		.4byte	0x8f0
 2994 0ae2 02       		.uleb128 0x2
 2995 0ae3 91       		.byte	0x91
 2996 0ae4 6C       		.sleb128 -20
 2997 0ae5 00       		.byte	0
 2998 0ae6 1A       		.uleb128 0x1a
 2999 0ae7 99090000 		.4byte	.LASF184
 3000 0aeb 05       		.byte	0x5
 3001 0aec A0       		.byte	0xa0
 3002 0aed 32070000 		.4byte	0x732
 3003 0af1 00       		.byte	0
 3004              		.section	.debug_abbrev,"",%progbits
 3005              	.Ldebug_abbrev0:
 3006 0000 01       		.uleb128 0x1
 3007 0001 11       		.uleb128 0x11
 3008 0002 01       		.byte	0x1
 3009 0003 25       		.uleb128 0x25
 3010 0004 0E       		.uleb128 0xe
 3011 0005 13       		.uleb128 0x13
ARM GAS  C:\Users\JENNEW~1\AppData\Local\Temp\ccI7hFDI.s 			page 60


 3012 0006 0B       		.uleb128 0xb
 3013 0007 03       		.uleb128 0x3
 3014 0008 0E       		.uleb128 0xe
 3015 0009 1B       		.uleb128 0x1b
 3016 000a 0E       		.uleb128 0xe
 3017 000b 55       		.uleb128 0x55
 3018 000c 17       		.uleb128 0x17
 3019 000d 11       		.uleb128 0x11
 3020 000e 01       		.uleb128 0x1
 3021 000f 10       		.uleb128 0x10
 3022 0010 17       		.uleb128 0x17
 3023 0011 00       		.byte	0
 3024 0012 00       		.byte	0
 3025 0013 02       		.uleb128 0x2
 3026 0014 24       		.uleb128 0x24
 3027 0015 00       		.byte	0
 3028 0016 0B       		.uleb128 0xb
 3029 0017 0B       		.uleb128 0xb
 3030 0018 3E       		.uleb128 0x3e
 3031 0019 0B       		.uleb128 0xb
 3032 001a 03       		.uleb128 0x3
 3033 001b 0E       		.uleb128 0xe
 3034 001c 00       		.byte	0
 3035 001d 00       		.byte	0
 3036 001e 03       		.uleb128 0x3
 3037 001f 16       		.uleb128 0x16
 3038 0020 00       		.byte	0
 3039 0021 03       		.uleb128 0x3
 3040 0022 0E       		.uleb128 0xe
 3041 0023 3A       		.uleb128 0x3a
 3042 0024 0B       		.uleb128 0xb
 3043 0025 3B       		.uleb128 0x3b
 3044 0026 0B       		.uleb128 0xb
 3045 0027 49       		.uleb128 0x49
 3046 0028 13       		.uleb128 0x13
 3047 0029 00       		.byte	0
 3048 002a 00       		.byte	0
 3049 002b 04       		.uleb128 0x4
 3050 002c 24       		.uleb128 0x24
 3051 002d 00       		.byte	0
 3052 002e 0B       		.uleb128 0xb
 3053 002f 0B       		.uleb128 0xb
 3054 0030 3E       		.uleb128 0x3e
 3055 0031 0B       		.uleb128 0xb
 3056 0032 03       		.uleb128 0x3
 3057 0033 08       		.uleb128 0x8
 3058 0034 00       		.byte	0
 3059 0035 00       		.byte	0
 3060 0036 05       		.uleb128 0x5
 3061 0037 13       		.uleb128 0x13
 3062 0038 01       		.byte	0x1
 3063 0039 0B       		.uleb128 0xb
 3064 003a 0B       		.uleb128 0xb
 3065 003b 3A       		.uleb128 0x3a
 3066 003c 0B       		.uleb128 0xb
 3067 003d 3B       		.uleb128 0x3b
 3068 003e 0B       		.uleb128 0xb
ARM GAS  C:\Users\JENNEW~1\AppData\Local\Temp\ccI7hFDI.s 			page 61


 3069 003f 01       		.uleb128 0x1
 3070 0040 13       		.uleb128 0x13
 3071 0041 00       		.byte	0
 3072 0042 00       		.byte	0
 3073 0043 06       		.uleb128 0x6
 3074 0044 0D       		.uleb128 0xd
 3075 0045 00       		.byte	0
 3076 0046 03       		.uleb128 0x3
 3077 0047 0E       		.uleb128 0xe
 3078 0048 3A       		.uleb128 0x3a
 3079 0049 0B       		.uleb128 0xb
 3080 004a 3B       		.uleb128 0x3b
 3081 004b 0B       		.uleb128 0xb
 3082 004c 49       		.uleb128 0x49
 3083 004d 13       		.uleb128 0x13
 3084 004e 38       		.uleb128 0x38
 3085 004f 0B       		.uleb128 0xb
 3086 0050 00       		.byte	0
 3087 0051 00       		.byte	0
 3088 0052 07       		.uleb128 0x7
 3089 0053 0F       		.uleb128 0xf
 3090 0054 00       		.byte	0
 3091 0055 0B       		.uleb128 0xb
 3092 0056 0B       		.uleb128 0xb
 3093 0057 49       		.uleb128 0x49
 3094 0058 13       		.uleb128 0x13
 3095 0059 00       		.byte	0
 3096 005a 00       		.byte	0
 3097 005b 08       		.uleb128 0x8
 3098 005c 15       		.uleb128 0x15
 3099 005d 00       		.byte	0
 3100 005e 27       		.uleb128 0x27
 3101 005f 19       		.uleb128 0x19
 3102 0060 00       		.byte	0
 3103 0061 00       		.byte	0
 3104 0062 09       		.uleb128 0x9
 3105 0063 04       		.uleb128 0x4
 3106 0064 01       		.byte	0x1
 3107 0065 0B       		.uleb128 0xb
 3108 0066 0B       		.uleb128 0xb
 3109 0067 49       		.uleb128 0x49
 3110 0068 13       		.uleb128 0x13
 3111 0069 3A       		.uleb128 0x3a
 3112 006a 0B       		.uleb128 0xb
 3113 006b 3B       		.uleb128 0x3b
 3114 006c 0B       		.uleb128 0xb
 3115 006d 01       		.uleb128 0x1
 3116 006e 13       		.uleb128 0x13
 3117 006f 00       		.byte	0
 3118 0070 00       		.byte	0
 3119 0071 0A       		.uleb128 0xa
 3120 0072 28       		.uleb128 0x28
 3121 0073 00       		.byte	0
 3122 0074 03       		.uleb128 0x3
 3123 0075 0E       		.uleb128 0xe
 3124 0076 1C       		.uleb128 0x1c
 3125 0077 0B       		.uleb128 0xb
ARM GAS  C:\Users\JENNEW~1\AppData\Local\Temp\ccI7hFDI.s 			page 62


 3126 0078 00       		.byte	0
 3127 0079 00       		.byte	0
 3128 007a 0B       		.uleb128 0xb
 3129 007b 0D       		.uleb128 0xd
 3130 007c 00       		.byte	0
 3131 007d 03       		.uleb128 0x3
 3132 007e 08       		.uleb128 0x8
 3133 007f 3A       		.uleb128 0x3a
 3134 0080 0B       		.uleb128 0xb
 3135 0081 3B       		.uleb128 0x3b
 3136 0082 0B       		.uleb128 0xb
 3137 0083 49       		.uleb128 0x49
 3138 0084 13       		.uleb128 0x13
 3139 0085 38       		.uleb128 0x38
 3140 0086 0B       		.uleb128 0xb
 3141 0087 00       		.byte	0
 3142 0088 00       		.byte	0
 3143 0089 0C       		.uleb128 0xc
 3144 008a 2E       		.uleb128 0x2e
 3145 008b 01       		.byte	0x1
 3146 008c 03       		.uleb128 0x3
 3147 008d 0E       		.uleb128 0xe
 3148 008e 3A       		.uleb128 0x3a
 3149 008f 0B       		.uleb128 0xb
 3150 0090 3B       		.uleb128 0x3b
 3151 0091 0B       		.uleb128 0xb
 3152 0092 27       		.uleb128 0x27
 3153 0093 19       		.uleb128 0x19
 3154 0094 49       		.uleb128 0x49
 3155 0095 13       		.uleb128 0x13
 3156 0096 11       		.uleb128 0x11
 3157 0097 01       		.uleb128 0x1
 3158 0098 12       		.uleb128 0x12
 3159 0099 06       		.uleb128 0x6
 3160 009a 40       		.uleb128 0x40
 3161 009b 18       		.uleb128 0x18
 3162 009c 9742     		.uleb128 0x2117
 3163 009e 19       		.uleb128 0x19
 3164 009f 01       		.uleb128 0x1
 3165 00a0 13       		.uleb128 0x13
 3166 00a1 00       		.byte	0
 3167 00a2 00       		.byte	0
 3168 00a3 0D       		.uleb128 0xd
 3169 00a4 05       		.uleb128 0x5
 3170 00a5 00       		.byte	0
 3171 00a6 03       		.uleb128 0x3
 3172 00a7 08       		.uleb128 0x8
 3173 00a8 3A       		.uleb128 0x3a
 3174 00a9 0B       		.uleb128 0xb
 3175 00aa 3B       		.uleb128 0x3b
 3176 00ab 0B       		.uleb128 0xb
 3177 00ac 49       		.uleb128 0x49
 3178 00ad 13       		.uleb128 0x13
 3179 00ae 02       		.uleb128 0x2
 3180 00af 18       		.uleb128 0x18
 3181 00b0 00       		.byte	0
 3182 00b1 00       		.byte	0
ARM GAS  C:\Users\JENNEW~1\AppData\Local\Temp\ccI7hFDI.s 			page 63


 3183 00b2 0E       		.uleb128 0xe
 3184 00b3 26       		.uleb128 0x26
 3185 00b4 00       		.byte	0
 3186 00b5 49       		.uleb128 0x49
 3187 00b6 13       		.uleb128 0x13
 3188 00b7 00       		.byte	0
 3189 00b8 00       		.byte	0
 3190 00b9 0F       		.uleb128 0xf
 3191 00ba 2E       		.uleb128 0x2e
 3192 00bb 01       		.byte	0x1
 3193 00bc 03       		.uleb128 0x3
 3194 00bd 0E       		.uleb128 0xe
 3195 00be 3A       		.uleb128 0x3a
 3196 00bf 0B       		.uleb128 0xb
 3197 00c0 3B       		.uleb128 0x3b
 3198 00c1 0B       		.uleb128 0xb
 3199 00c2 27       		.uleb128 0x27
 3200 00c3 19       		.uleb128 0x19
 3201 00c4 49       		.uleb128 0x49
 3202 00c5 13       		.uleb128 0x13
 3203 00c6 11       		.uleb128 0x11
 3204 00c7 01       		.uleb128 0x1
 3205 00c8 12       		.uleb128 0x12
 3206 00c9 06       		.uleb128 0x6
 3207 00ca 40       		.uleb128 0x40
 3208 00cb 18       		.uleb128 0x18
 3209 00cc 9642     		.uleb128 0x2116
 3210 00ce 19       		.uleb128 0x19
 3211 00cf 01       		.uleb128 0x1
 3212 00d0 13       		.uleb128 0x13
 3213 00d1 00       		.byte	0
 3214 00d2 00       		.byte	0
 3215 00d3 10       		.uleb128 0x10
 3216 00d4 34       		.uleb128 0x34
 3217 00d5 00       		.byte	0
 3218 00d6 03       		.uleb128 0x3
 3219 00d7 08       		.uleb128 0x8
 3220 00d8 3A       		.uleb128 0x3a
 3221 00d9 0B       		.uleb128 0xb
 3222 00da 3B       		.uleb128 0x3b
 3223 00db 0B       		.uleb128 0xb
 3224 00dc 49       		.uleb128 0x49
 3225 00dd 13       		.uleb128 0x13
 3226 00de 02       		.uleb128 0x2
 3227 00df 18       		.uleb128 0x18
 3228 00e0 00       		.byte	0
 3229 00e1 00       		.byte	0
 3230 00e2 11       		.uleb128 0x11
 3231 00e3 2E       		.uleb128 0x2e
 3232 00e4 01       		.byte	0x1
 3233 00e5 3F       		.uleb128 0x3f
 3234 00e6 19       		.uleb128 0x19
 3235 00e7 03       		.uleb128 0x3
 3236 00e8 0E       		.uleb128 0xe
 3237 00e9 3A       		.uleb128 0x3a
 3238 00ea 0B       		.uleb128 0xb
 3239 00eb 3B       		.uleb128 0x3b
ARM GAS  C:\Users\JENNEW~1\AppData\Local\Temp\ccI7hFDI.s 			page 64


 3240 00ec 0B       		.uleb128 0xb
 3241 00ed 27       		.uleb128 0x27
 3242 00ee 19       		.uleb128 0x19
 3243 00ef 49       		.uleb128 0x49
 3244 00f0 13       		.uleb128 0x13
 3245 00f1 11       		.uleb128 0x11
 3246 00f2 01       		.uleb128 0x1
 3247 00f3 12       		.uleb128 0x12
 3248 00f4 06       		.uleb128 0x6
 3249 00f5 40       		.uleb128 0x40
 3250 00f6 18       		.uleb128 0x18
 3251 00f7 9642     		.uleb128 0x2116
 3252 00f9 19       		.uleb128 0x19
 3253 00fa 01       		.uleb128 0x1
 3254 00fb 13       		.uleb128 0x13
 3255 00fc 00       		.byte	0
 3256 00fd 00       		.byte	0
 3257 00fe 12       		.uleb128 0x12
 3258 00ff 05       		.uleb128 0x5
 3259 0100 00       		.byte	0
 3260 0101 03       		.uleb128 0x3
 3261 0102 0E       		.uleb128 0xe
 3262 0103 3A       		.uleb128 0x3a
 3263 0104 0B       		.uleb128 0xb
 3264 0105 3B       		.uleb128 0x3b
 3265 0106 0B       		.uleb128 0xb
 3266 0107 49       		.uleb128 0x49
 3267 0108 13       		.uleb128 0x13
 3268 0109 02       		.uleb128 0x2
 3269 010a 18       		.uleb128 0x18
 3270 010b 00       		.byte	0
 3271 010c 00       		.byte	0
 3272 010d 13       		.uleb128 0x13
 3273 010e 34       		.uleb128 0x34
 3274 010f 00       		.byte	0
 3275 0110 03       		.uleb128 0x3
 3276 0111 0E       		.uleb128 0xe
 3277 0112 3A       		.uleb128 0x3a
 3278 0113 0B       		.uleb128 0xb
 3279 0114 3B       		.uleb128 0x3b
 3280 0115 0B       		.uleb128 0xb
 3281 0116 49       		.uleb128 0x49
 3282 0117 13       		.uleb128 0x13
 3283 0118 02       		.uleb128 0x2
 3284 0119 18       		.uleb128 0x18
 3285 011a 00       		.byte	0
 3286 011b 00       		.byte	0
 3287 011c 14       		.uleb128 0x14
 3288 011d 0B       		.uleb128 0xb
 3289 011e 01       		.byte	0x1
 3290 011f 11       		.uleb128 0x11
 3291 0120 01       		.uleb128 0x1
 3292 0121 12       		.uleb128 0x12
 3293 0122 06       		.uleb128 0x6
 3294 0123 00       		.byte	0
 3295 0124 00       		.byte	0
 3296 0125 15       		.uleb128 0x15
ARM GAS  C:\Users\JENNEW~1\AppData\Local\Temp\ccI7hFDI.s 			page 65


 3297 0126 2E       		.uleb128 0x2e
 3298 0127 01       		.byte	0x1
 3299 0128 3F       		.uleb128 0x3f
 3300 0129 19       		.uleb128 0x19
 3301 012a 03       		.uleb128 0x3
 3302 012b 0E       		.uleb128 0xe
 3303 012c 3A       		.uleb128 0x3a
 3304 012d 0B       		.uleb128 0xb
 3305 012e 3B       		.uleb128 0x3b
 3306 012f 0B       		.uleb128 0xb
 3307 0130 27       		.uleb128 0x27
 3308 0131 19       		.uleb128 0x19
 3309 0132 11       		.uleb128 0x11
 3310 0133 01       		.uleb128 0x1
 3311 0134 12       		.uleb128 0x12
 3312 0135 06       		.uleb128 0x6
 3313 0136 40       		.uleb128 0x40
 3314 0137 18       		.uleb128 0x18
 3315 0138 9742     		.uleb128 0x2117
 3316 013a 19       		.uleb128 0x19
 3317 013b 01       		.uleb128 0x1
 3318 013c 13       		.uleb128 0x13
 3319 013d 00       		.byte	0
 3320 013e 00       		.byte	0
 3321 013f 16       		.uleb128 0x16
 3322 0140 2E       		.uleb128 0x2e
 3323 0141 01       		.byte	0x1
 3324 0142 3F       		.uleb128 0x3f
 3325 0143 19       		.uleb128 0x19
 3326 0144 03       		.uleb128 0x3
 3327 0145 0E       		.uleb128 0xe
 3328 0146 3A       		.uleb128 0x3a
 3329 0147 0B       		.uleb128 0xb
 3330 0148 3B       		.uleb128 0x3b
 3331 0149 0B       		.uleb128 0xb
 3332 014a 27       		.uleb128 0x27
 3333 014b 19       		.uleb128 0x19
 3334 014c 11       		.uleb128 0x11
 3335 014d 01       		.uleb128 0x1
 3336 014e 12       		.uleb128 0x12
 3337 014f 06       		.uleb128 0x6
 3338 0150 40       		.uleb128 0x40
 3339 0151 18       		.uleb128 0x18
 3340 0152 9642     		.uleb128 0x2116
 3341 0154 19       		.uleb128 0x19
 3342 0155 01       		.uleb128 0x1
 3343 0156 13       		.uleb128 0x13
 3344 0157 00       		.byte	0
 3345 0158 00       		.byte	0
 3346 0159 17       		.uleb128 0x17
 3347 015a 2E       		.uleb128 0x2e
 3348 015b 01       		.byte	0x1
 3349 015c 3F       		.uleb128 0x3f
 3350 015d 19       		.uleb128 0x19
 3351 015e 03       		.uleb128 0x3
 3352 015f 0E       		.uleb128 0xe
 3353 0160 3A       		.uleb128 0x3a
ARM GAS  C:\Users\JENNEW~1\AppData\Local\Temp\ccI7hFDI.s 			page 66


 3354 0161 0B       		.uleb128 0xb
 3355 0162 3B       		.uleb128 0x3b
 3356 0163 05       		.uleb128 0x5
 3357 0164 27       		.uleb128 0x27
 3358 0165 19       		.uleb128 0x19
 3359 0166 11       		.uleb128 0x11
 3360 0167 01       		.uleb128 0x1
 3361 0168 12       		.uleb128 0x12
 3362 0169 06       		.uleb128 0x6
 3363 016a 40       		.uleb128 0x40
 3364 016b 18       		.uleb128 0x18
 3365 016c 9642     		.uleb128 0x2116
 3366 016e 19       		.uleb128 0x19
 3367 016f 01       		.uleb128 0x1
 3368 0170 13       		.uleb128 0x13
 3369 0171 00       		.byte	0
 3370 0172 00       		.byte	0
 3371 0173 18       		.uleb128 0x18
 3372 0174 05       		.uleb128 0x5
 3373 0175 00       		.byte	0
 3374 0176 03       		.uleb128 0x3
 3375 0177 08       		.uleb128 0x8
 3376 0178 3A       		.uleb128 0x3a
 3377 0179 0B       		.uleb128 0xb
 3378 017a 3B       		.uleb128 0x3b
 3379 017b 05       		.uleb128 0x5
 3380 017c 49       		.uleb128 0x49
 3381 017d 13       		.uleb128 0x13
 3382 017e 02       		.uleb128 0x2
 3383 017f 18       		.uleb128 0x18
 3384 0180 00       		.byte	0
 3385 0181 00       		.byte	0
 3386 0182 19       		.uleb128 0x19
 3387 0183 05       		.uleb128 0x5
 3388 0184 00       		.byte	0
 3389 0185 03       		.uleb128 0x3
 3390 0186 0E       		.uleb128 0xe
 3391 0187 3A       		.uleb128 0x3a
 3392 0188 0B       		.uleb128 0xb
 3393 0189 3B       		.uleb128 0x3b
 3394 018a 05       		.uleb128 0x5
 3395 018b 49       		.uleb128 0x49
 3396 018c 13       		.uleb128 0x13
 3397 018d 02       		.uleb128 0x2
 3398 018e 18       		.uleb128 0x18
 3399 018f 00       		.byte	0
 3400 0190 00       		.byte	0
 3401 0191 1A       		.uleb128 0x1a
 3402 0192 34       		.uleb128 0x34
 3403 0193 00       		.byte	0
 3404 0194 03       		.uleb128 0x3
 3405 0195 0E       		.uleb128 0xe
 3406 0196 3A       		.uleb128 0x3a
 3407 0197 0B       		.uleb128 0xb
 3408 0198 3B       		.uleb128 0x3b
 3409 0199 0B       		.uleb128 0xb
 3410 019a 49       		.uleb128 0x49
ARM GAS  C:\Users\JENNEW~1\AppData\Local\Temp\ccI7hFDI.s 			page 67


 3411 019b 13       		.uleb128 0x13
 3412 019c 3F       		.uleb128 0x3f
 3413 019d 19       		.uleb128 0x19
 3414 019e 3C       		.uleb128 0x3c
 3415 019f 19       		.uleb128 0x19
 3416 01a0 00       		.byte	0
 3417 01a1 00       		.byte	0
 3418 01a2 00       		.byte	0
 3419              		.section	.debug_aranges,"",%progbits
 3420 0000 74000000 		.4byte	0x74
 3421 0004 0200     		.2byte	0x2
 3422 0006 00000000 		.4byte	.Ldebug_info0
 3423 000a 04       		.byte	0x4
 3424 000b 00       		.byte	0
 3425 000c 0000     		.2byte	0
 3426 000e 0000     		.2byte	0
 3427 0010 00000000 		.4byte	.LFB0
 3428 0014 34000000 		.4byte	.LFE0-.LFB0
 3429 0018 00000000 		.4byte	.LFB1
 3430 001c 26000000 		.4byte	.LFE1-.LFB1
 3431 0020 00000000 		.4byte	.LFB2
 3432 0024 28000000 		.4byte	.LFE2-.LFB2
 3433 0028 00000000 		.4byte	.LFB3
 3434 002c 22000000 		.4byte	.LFE3-.LFB3
 3435 0030 00000000 		.4byte	.LFB4
 3436 0034 D4010000 		.4byte	.LFE4-.LFB4
 3437 0038 00000000 		.4byte	.LFB5
 3438 003c 68000000 		.4byte	.LFE5-.LFB5
 3439 0040 00000000 		.4byte	.LFB6
 3440 0044 A0010000 		.4byte	.LFE6-.LFB6
 3441 0048 00000000 		.4byte	.LFB7
 3442 004c 78000000 		.4byte	.LFE7-.LFB7
 3443 0050 00000000 		.4byte	.LFB8
 3444 0054 44010000 		.4byte	.LFE8-.LFB8
 3445 0058 00000000 		.4byte	.LFB9
 3446 005c C8010000 		.4byte	.LFE9-.LFB9
 3447 0060 00000000 		.4byte	.LFB10
 3448 0064 8C010000 		.4byte	.LFE10-.LFB10
 3449 0068 00000000 		.4byte	.LFB11
 3450 006c 7C000000 		.4byte	.LFE11-.LFB11
 3451 0070 00000000 		.4byte	0
 3452 0074 00000000 		.4byte	0
 3453              		.section	.debug_ranges,"",%progbits
 3454              	.Ldebug_ranges0:
 3455 0000 00000000 		.4byte	.LFB0
 3456 0004 34000000 		.4byte	.LFE0
 3457 0008 00000000 		.4byte	.LFB1
 3458 000c 26000000 		.4byte	.LFE1
 3459 0010 00000000 		.4byte	.LFB2
 3460 0014 28000000 		.4byte	.LFE2
 3461 0018 00000000 		.4byte	.LFB3
 3462 001c 22000000 		.4byte	.LFE3
 3463 0020 00000000 		.4byte	.LFB4
 3464 0024 D4010000 		.4byte	.LFE4
 3465 0028 00000000 		.4byte	.LFB5
 3466 002c 68000000 		.4byte	.LFE5
 3467 0030 00000000 		.4byte	.LFB6
ARM GAS  C:\Users\JENNEW~1\AppData\Local\Temp\ccI7hFDI.s 			page 68


 3468 0034 A0010000 		.4byte	.LFE6
 3469 0038 00000000 		.4byte	.LFB7
 3470 003c 78000000 		.4byte	.LFE7
 3471 0040 00000000 		.4byte	.LFB8
 3472 0044 44010000 		.4byte	.LFE8
 3473 0048 00000000 		.4byte	.LFB9
 3474 004c C8010000 		.4byte	.LFE9
 3475 0050 00000000 		.4byte	.LFB10
 3476 0054 8C010000 		.4byte	.LFE10
 3477 0058 00000000 		.4byte	.LFB11
 3478 005c 7C000000 		.4byte	.LFE11
 3479 0060 00000000 		.4byte	0
 3480 0064 00000000 		.4byte	0
 3481              		.section	.debug_line,"",%progbits
 3482              	.Ldebug_line0:
 3483 0000 F7020000 		.section	.debug_str,"MS",%progbits,1
 3483      02007001 
 3483      00000201 
 3483      FB0E0D00 
 3483      01010101 
 3484              	.LASF93:
 3485 0000 68616D66 		.ascii	"hamfly_telemetry_t\000"
 3485      6C795F74 
 3485      656C656D 
 3485      65747279 
 3485      5F7400
 3486              	.LASF38:
 3487 0013 6770735F 		.ascii	"gps_raw_lat\000"
 3487      7261775F 
 3487      6C617400 
 3488              	.LASF169:
 3489 001f 616C745F 		.ascii	"alt_raw\000"
 3489      72617700 
 3490              	.LASF167:
 3491 0027 6C6F6E5F 		.ascii	"lon_raw\000"
 3491      72617700 
 3492              	.LASF166:
 3493 002f 68616D66 		.ascii	"hamfly_decode_gps\000"
 3493      6C795F64 
 3493      65636F64 
 3493      655F6770 
 3493      7300
 3494              	.LASF68:
 3495 0041 73797373 		.ascii	"sysstat_cpu_pct\000"
 3495      7461745F 
 3495      6370755F 
 3495      70637400 
 3496              	.LASF124:
 3497 0051 66697A5F 		.ascii	"fiz_clearFaults_all_flag\000"
 3497      636C6561 
 3497      72466175 
 3497      6C74735F 
 3497      616C6C5F 
 3498              	.LASF147:
 3499 006a 66665F61 		.ascii	"ff_api_status_t\000"
 3499      70695F73 
 3499      74617475 
ARM GAS  C:\Users\JENNEW~1\AppData\Local\Temp\ccI7hFDI.s 			page 69


 3499      735F7400 
 3500              	.LASF151:
 3501 007a 636F6E74 		.ascii	"control\000"
 3501      726F6C00 
 3502              	.LASF13:
 3503 0082 756E7369 		.ascii	"unsigned int\000"
 3503      676E6564 
 3503      20696E74 
 3503      00
 3504              	.LASF7:
 3505 008f 5F5F696E 		.ascii	"__int32_t\000"
 3505      7433325F 
 3505      7400
 3506              	.LASF170:
 3507 0099 7370645F 		.ascii	"spd_raw\000"
 3507      72617700 
 3508              	.LASF125:
 3509 00a1 66697A5F 		.ascii	"fiz_autoCalStart_all_flag\000"
 3509      6175746F 
 3509      43616C53 
 3509      74617274 
 3509      5F616C6C 
 3510              	.LASF66:
 3511 00bb 73797373 		.ascii	"sysstat_gps_sats\000"
 3511      7461745F 
 3511      6770735F 
 3511      73617473 
 3511      00
 3512              	.LASF180:
 3513 00cc 474E5520 		.ascii	"GNU C11 5.4.1 20160609 (release) [ARM/embedded-5-br"
 3513      43313120 
 3513      352E342E 
 3513      31203230 
 3513      31363036 
 3514 00ff 616E6368 		.ascii	"anch revision 237715] -mcpu=cortex-m3 -mthumb -g -O"
 3514      20726576 
 3514      6973696F 
 3514      6E203233 
 3514      37373135 
 3515 0132 30202D66 		.ascii	"0 -ffunction-sections -ffat-lto-objects\000"
 3515      66756E63 
 3515      74696F6E 
 3515      2D736563 
 3515      74696F6E 
 3516              	.LASF132:
 3517 015a 62617474 		.ascii	"battery_v_right\000"
 3517      6572795F 
 3517      765F7269 
 3517      67687400 
 3518              	.LASF113:
 3519 016a 4C656E73 		.ascii	"Lens_AxisState_Auto_Cal_SensingTorque\000"
 3519      5F417869 
 3519      73537461 
 3519      74655F41 
 3519      75746F5F 
 3520              	.LASF127:
 3521 0190 66697A5F 		.ascii	"fiz_setSubRangeLim_F_flag\000"
ARM GAS  C:\Users\JENNEW~1\AppData\Local\Temp\ccI7hFDI.s 			page 70


 3521      73657453 
 3521      75625261 
 3521      6E67654C 
 3521      696D5F46 
 3522              	.LASF136:
 3523 01aa 69726973 		.ascii	"iris_position\000"
 3523      5F706F73 
 3523      6974696F 
 3523      6E00
 3524              	.LASF78:
 3525 01b8 6D61675F 		.ascii	"mag_x\000"
 3525      7800
 3526              	.LASF79:
 3527 01be 6D61675F 		.ascii	"mag_y\000"
 3527      7900
 3528              	.LASF80:
 3529 01c4 6D61675F 		.ascii	"mag_z\000"
 3529      7A00
 3530              	.LASF20:
 3531 01ca 62617474 		.ascii	"battery_left_v\000"
 3531      6572795F 
 3531      6C656674 
 3531      5F7600
 3532              	.LASF61:
 3533 01d9 666C6167 		.ascii	"flag_compass_error\000"
 3533      5F636F6D 
 3533      70617373 
 3533      5F657272 
 3533      6F7200
 3534              	.LASF82:
 3535 01ec 6D61675F 		.ascii	"mag_freq\000"
 3535      66726571 
 3535      00
 3536              	.LASF131:
 3537 01f5 62617474 		.ascii	"battery_v_left\000"
 3537      6572795F 
 3537      765F6C65 
 3537      667400
 3538              	.LASF158:
 3539 0204 72645F6C 		.ascii	"rd_le16\000"
 3539      65313600 
 3540              	.LASF77:
 3541 020c 6D61675F 		.ascii	"mag_valid\000"
 3541      76616C69 
 3541      6400
 3542              	.LASF52:
 3543 0216 6174745F 		.ascii	"att_yaw_deg\000"
 3543      7961775F 
 3543      64656700 
 3544              	.LASF90:
 3545 0222 73797365 		.ascii	"sysecho_imu_rate\000"
 3545      63686F5F 
 3545      696D755F 
 3545      72617465 
 3545      00
 3546              	.LASF149:
 3547 0233 73656E64 		.ascii	"send\000"
ARM GAS  C:\Users\JENNEW~1\AppData\Local\Temp\ccI7hFDI.s 			page 71


 3547      00
 3548              	.LASF18:
 3549 0238 75696E74 		.ascii	"uint32_t\000"
 3549      33325F74 
 3549      00
 3550              	.LASF33:
 3551 0241 6770735F 		.ascii	"gps_ground_spd_ms\000"
 3551      67726F75 
 3551      6E645F73 
 3551      70645F6D 
 3551      7300
 3552              	.LASF92:
 3553 0253 666C6F61 		.ascii	"float\000"
 3553      7400
 3554              	.LASF119:
 3555 0259 74696C74 		.ascii	"tilt\000"
 3555      00
 3556              	.LASF15:
 3557 025e 696E7431 		.ascii	"int16_t\000"
 3557      365F7400 
 3558              	.LASF98:
 3559 0266 52415445 		.ascii	"RATE\000"
 3559      00
 3560              	.LASF143:
 3561 026b 69726973 		.ascii	"iris_range_limits_active\000"
 3561      5F72616E 
 3561      67655F6C 
 3561      696D6974 
 3561      735F6163 
 3562              	.LASF12:
 3563 0284 6C6F6E67 		.ascii	"long long unsigned int\000"
 3563      206C6F6E 
 3563      6720756E 
 3563      7369676E 
 3563      65642069 
 3564              	.LASF177:
 3565 029b 68616D66 		.ascii	"hamfly_decode_sysstat\000"
 3565      6C795F64 
 3565      65636F64 
 3565      655F7379 
 3565      73737461 
 3566              	.LASF160:
 3567 02b1 74696C74 		.ascii	"tilt_deg\000"
 3567      5F646567 
 3567      00
 3568              	.LASF172:
 3569 02ba 68616363 		.ascii	"hacc_raw\000"
 3569      5F726177 
 3569      00
 3570              	.LASF48:
 3571 02c3 6261726F 		.ascii	"baro_roc_ms\000"
 3571      5F726F63 
 3571      5F6D7300 
 3572              	.LASF45:
 3573 02cf 6770735F 		.ascii	"gps_raw_sacc\000"
 3573      7261775F 
 3573      73616363 
ARM GAS  C:\Users\JENNEW~1\AppData\Local\Temp\ccI7hFDI.s 			page 72


 3573      00
 3574              	.LASF76:
 3575 02dc 73797373 		.ascii	"sysstat_charge_mah\000"
 3575      7461745F 
 3575      63686172 
 3575      67655F6D 
 3575      616800
 3576              	.LASF129:
 3577 02ef 66697A5F 		.ascii	"fiz_setSubRangeLim_Z_flag\000"
 3577      73657453 
 3577      75625261 
 3577      6E67654C 
 3577      696D5F5A 
 3578              	.LASF123:
 3579 0309 7A6F6F6D 		.ascii	"zoom\000"
 3579      00
 3580              	.LASF139:
 3581 030e 69726970 		.ascii	"iripi_rx_state\000"
 3581      695F7278 
 3581      5F737461 
 3581      746500
 3582              	.LASF5:
 3583 031d 5F5F7569 		.ascii	"__uint16_t\000"
 3583      6E743136 
 3583      5F7400
 3584              	.LASF145:
 3585 0328 63616D65 		.ascii	"camera_status\000"
 3585      72615F73 
 3585      74617475 
 3585      7300
 3586              	.LASF60:
 3587 0336 73797373 		.ascii	"sysstat_valid\000"
 3587      7461745F 
 3587      76616C69 
 3587      6400
 3588              	.LASF63:
 3589 0344 666C6167 		.ascii	"flag_radio_los\000"
 3589      5F726164 
 3589      696F5F6C 
 3589      6F7300
 3590              	.LASF50:
 3591 0353 6174745F 		.ascii	"att_timestamp_ms\000"
 3591      74696D65 
 3591      7374616D 
 3591      705F6D73 
 3591      00
 3592              	.LASF116:
 3593 0364 4C656E73 		.ascii	"Lens_Axipi_rx_state_General_e\000"
 3593      5F417869 
 3593      70695F72 
 3593      785F7374 
 3593      6174655F 
 3594              	.LASF173:
 3595 0382 76616363 		.ascii	"vacc_raw\000"
 3595      5F726177 
 3595      00
 3596              	.LASF102:
ARM GAS  C:\Users\JENNEW~1\AppData\Local\Temp\ccI7hFDI.s 			page 73


 3597 038b 76616C75 		.ascii	"value\000"
 3597      6500
 3598              	.LASF73:
 3599 0391 73797373 		.ascii	"sysstat_cam_status\000"
 3599      7461745F 
 3599      63616D5F 
 3599      73746174 
 3599      757300
 3600              	.LASF146:
 3601 03a4 63616D65 		.ascii	"camera_recording\000"
 3601      72615F72 
 3601      65636F72 
 3601      64696E67 
 3601      00
 3602              	.LASF69:
 3603 03b5 73797373 		.ascii	"sysstat_status_flags\000"
 3603      7461745F 
 3603      73746174 
 3603      75735F66 
 3603      6C616773 
 3604              	.LASF87:
 3605 03ca 73797365 		.ascii	"sysecho_valid\000"
 3605      63686F5F 
 3605      76616C69 
 3605      6400
 3606              	.LASF112:
 3607 03d8 4C656E73 		.ascii	"Lens_AxisState_Man_Cal_Set_Min\000"
 3607      5F417869 
 3607      73537461 
 3607      74655F4D 
 3607      616E5F43 
 3608              	.LASF51:
 3609 03f7 6174745F 		.ascii	"att_pitch_deg\000"
 3609      70697463 
 3609      685F6465 
 3609      6700
 3610              	.LASF110:
 3611 0405 4C656E73 		.ascii	"Lens_AxisState_Uncalibrated\000"
 3611      5F417869 
 3611      73537461 
 3611      74655F55 
 3611      6E63616C 
 3612              	.LASF162:
 3613 0421 52414432 		.ascii	"RAD2DEG\000"
 3613      44454700 
 3614              	.LASF91:
 3615 0429 5F426F6F 		.ascii	"_Bool\000"
 3615      6C00
 3616              	.LASF31:
 3617 042f 6770735F 		.ascii	"gps_lon_deg\000"
 3617      6C6F6E5F 
 3617      64656700 
 3618              	.LASF59:
 3619 043b 6174745F 		.ascii	"att_yaw_err_deg\000"
 3619      7961775F 
 3619      6572725F 
 3619      64656700 
ARM GAS  C:\Users\JENNEW~1\AppData\Local\Temp\ccI7hFDI.s 			page 74


 3620              	.LASF122:
 3621 044b 69726973 		.ascii	"iris\000"
 3621      00
 3622              	.LASF40:
 3623 0450 6770735F 		.ascii	"gps_raw_alt\000"
 3623      7261775F 
 3623      616C7400 
 3624              	.LASF35:
 3625 045c 6770735F 		.ascii	"gps_hacc_m\000"
 3625      68616363 
 3625      5F6D00
 3626              	.LASF144:
 3627 0467 7A6F6F6D 		.ascii	"zoom_range_limits_active\000"
 3627      5F72616E 
 3627      67655F6C 
 3627      696D6974 
 3627      735F6163 
 3628              	.LASF183:
 3629 0480 68616D66 		.ascii	"hamfly_telemetry_to_euler\000"
 3629      6C795F74 
 3629      656C656D 
 3629      65747279 
 3629      5F746F5F 
 3630              	.LASF156:
 3631 049a 72645F62 		.ascii	"rd_be16\000"
 3631      65313600 
 3632              	.LASF96:
 3633 04a2 63686172 		.ascii	"char\000"
 3633      00
 3634              	.LASF178:
 3635 04a7 68616D66 		.ascii	"hamfly_decode_mag\000"
 3635      6C795F64 
 3635      65636F64 
 3635      655F6D61 
 3635      6700
 3636              	.LASF72:
 3637 04b9 73797373 		.ascii	"sysstat_imu_rate\000"
 3637      7461745F 
 3637      696D755F 
 3637      72617465 
 3637      00
 3638              	.LASF23:
 3639 04ca 67696D62 		.ascii	"gimbal_i\000"
 3639      616C5F69 
 3639      00
 3640              	.LASF24:
 3641 04d3 67696D62 		.ascii	"gimbal_j\000"
 3641      616C5F6A 
 3641      00
 3642              	.LASF25:
 3643 04dc 67696D62 		.ascii	"gimbal_k\000"
 3643      616C5F6B 
 3643      00
 3644              	.LASF97:
 3645 04e5 44454645 		.ascii	"DEFER\000"
 3645      5200
 3646              	.LASF22:
ARM GAS  C:\Users\JENNEW~1\AppData\Local\Temp\ccI7hFDI.s 			page 75


 3647 04eb 67696D62 		.ascii	"gimbal_r\000"
 3647      616C5F72 
 3647      00
 3648              	.LASF120:
 3649 04f4 726F6C6C 		.ascii	"roll\000"
 3649      00
 3650              	.LASF14:
 3651 04f9 75696E74 		.ascii	"uint8_t\000"
 3651      385F7400 
 3652              	.LASF152:
 3653 0501 73746174 		.ascii	"status\000"
 3653      757300
 3654              	.LASF126:
 3655 0508 66697A5F 		.ascii	"fiz_record_button_flag\000"
 3655      7265636F 
 3655      72645F62 
 3655      7574746F 
 3655      6E5F666C 
 3656              	.LASF115:
 3657 051f 4C656E73 		.ascii	"Lens_AxisState_Auto_Cal_Set_Min\000"
 3657      5F417869 
 3657      73537461 
 3657      74655F41 
 3657      75746F5F 
 3658              	.LASF83:
 3659 053f 6D61675F 		.ascii	"mag_off_x\000"
 3659      6F66665F 
 3659      7800
 3660              	.LASF84:
 3661 0549 6D61675F 		.ascii	"mag_off_y\000"
 3661      6F66665F 
 3661      7900
 3662              	.LASF85:
 3663 0553 6D61675F 		.ascii	"mag_off_z\000"
 3663      6F66665F 
 3663      7A00
 3664              	.LASF37:
 3665 055d 6770735F 		.ascii	"gps_sacc_ms\000"
 3665      73616363 
 3665      5F6D7300 
 3666              	.LASF11:
 3667 0569 6C6F6E67 		.ascii	"long long int\000"
 3667      206C6F6E 
 3667      6720696E 
 3667      7400
 3668              	.LASF29:
 3669 0577 6770735F 		.ascii	"gps_locked\000"
 3669      6C6F636B 
 3669      656400
 3670              	.LASF121:
 3671 0582 666F6375 		.ascii	"focus\000"
 3671      7300
 3672              	.LASF19:
 3673 0588 76616C69 		.ascii	"valid\000"
 3673      6400
 3674              	.LASF176:
 3675 058e 68616D66 		.ascii	"hamfly_decode_attitude\000"
ARM GAS  C:\Users\JENNEW~1\AppData\Local\Temp\ccI7hFDI.s 			page 76


 3675      6C795F64 
 3675      65636F64 
 3675      655F6174 
 3675      74697475 
 3676              	.LASF117:
 3677 05a5 67696D62 		.ascii	"gimbal_kill\000"
 3677      616C5F6B 
 3677      696C6C00 
 3678              	.LASF108:
 3679 05b1 4C656E73 		.ascii	"Lens_AxisState_Move_to_Command\000"
 3679      5F417869 
 3679      73537461 
 3679      74655F4D 
 3679      6F76655F 
 3680              	.LASF101:
 3681 05d0 66665F61 		.ascii	"ff_api_control_type_e\000"
 3681      70695F63 
 3681      6F6E7472 
 3681      6F6C5F74 
 3681      7970655F 
 3682              	.LASF168:
 3683 05e6 6C61745F 		.ascii	"lat_raw\000"
 3683      72617700 
 3684              	.LASF155:
 3685 05ee 72645F62 		.ascii	"rd_be32\000"
 3685      65333200 
 3686              	.LASF3:
 3687 05f6 5F5F696E 		.ascii	"__int16_t\000"
 3687      7431365F 
 3687      7400
 3688              	.LASF28:
 3689 0600 6770735F 		.ascii	"gps_valid\000"
 3689      76616C69 
 3689      6400
 3690              	.LASF88:
 3691 060a 73797365 		.ascii	"sysecho_gps_locked\000"
 3691      63686F5F 
 3691      6770735F 
 3691      6C6F636B 
 3691      656400
 3692              	.LASF106:
 3693 061d 4C656E73 		.ascii	"Lens_AxisState_Reset\000"
 3693      5F417869 
 3693      73537461 
 3693      74655F52 
 3693      65736574 
 3694              	.LASF107:
 3695 0632 4C656E73 		.ascii	"Lens_AxisState_Faulted\000"
 3695      5F417869 
 3695      73537461 
 3695      74655F46 
 3695      61756C74 
 3696              	.LASF159:
 3697 0649 70616E5F 		.ascii	"pan_deg\000"
 3697      64656700 
 3698              	.LASF62:
 3699 0651 666C6167 		.ascii	"flag_gps_los\000"
ARM GAS  C:\Users\JENNEW~1\AppData\Local\Temp\ccI7hFDI.s 			page 77


 3699      5F677073 
 3699      5F6C6F73 
 3699      00
 3700              	.LASF140:
 3701 065e 7A6F6F6D 		.ascii	"zoom_state\000"
 3701      5F737461 
 3701      746500
 3702              	.LASF67:
 3703 0669 73797373 		.ascii	"sysstat_temp_c\000"
 3703      7461745F 
 3703      74656D70 
 3703      5F6300
 3704              	.LASF171:
 3705 0678 6864675F 		.ascii	"hdg_raw\000"
 3705      72617700 
 3706              	.LASF42:
 3707 0680 6770735F 		.ascii	"gps_raw_hdg\000"
 3707      7261775F 
 3707      68646700 
 3708              	.LASF34:
 3709 068c 6770735F 		.ascii	"gps_heading_deg\000"
 3709      68656164 
 3709      696E675F 
 3709      64656700 
 3710              	.LASF94:
 3711 069c 6C6F6E67 		.ascii	"long double\000"
 3711      20646F75 
 3711      626C6500 
 3712              	.LASF16:
 3713 06a8 75696E74 		.ascii	"uint16_t\000"
 3713      31365F74 
 3713      00
 3714              	.LASF86:
 3715 06b1 6D61675F 		.ascii	"mag_declination\000"
 3715      6465636C 
 3715      696E6174 
 3715      696F6E00 
 3716              	.LASF26:
 3717 06c1 67696D62 		.ascii	"gimbal_status1\000"
 3717      616C5F73 
 3717      74617475 
 3717      733100
 3718              	.LASF27:
 3719 06d0 67696D62 		.ascii	"gimbal_status2\000"
 3719      616C5F73 
 3719      74617475 
 3719      733200
 3720              	.LASF181:
 3721 06df 2E2E5C2E 		.ascii	"..\\..\\..\\HamFlyAPI\\src\\hamfly_core_telemetry.c"
 3721      2E5C2E2E 
 3721      5C48616D 
 3721      466C7941 
 3721      50495C73 
 3722 070d 00       		.ascii	"\000"
 3723              	.LASF157:
 3724 070e 72645F62 		.ascii	"rd_be_u16\000"
 3724      655F7531 
ARM GAS  C:\Users\JENNEW~1\AppData\Local\Temp\ccI7hFDI.s 			page 78


 3724      3600
 3725              	.LASF153:
 3726 0718 66665F61 		.ascii	"ff_api_t\000"
 3726      70695F74 
 3726      00
 3727              	.LASF161:
 3728 0721 726F6C6C 		.ascii	"roll_deg\000"
 3728      5F646567 
 3728      00
 3729              	.LASF4:
 3730 072a 73686F72 		.ascii	"short int\000"
 3730      7420696E 
 3730      7400
 3731              	.LASF8:
 3732 0734 6C6F6E67 		.ascii	"long int\000"
 3732      20696E74 
 3732      00
 3733              	.LASF175:
 3734 073d 68616D66 		.ascii	"hamfly_decode_baro\000"
 3734      6C795F64 
 3734      65636F64 
 3734      655F6261 
 3734      726F00
 3735              	.LASF163:
 3736 0750 73696E5F 		.ascii	"sin_tilt\000"
 3736      74696C74 
 3736      00
 3737              	.LASF130:
 3738 0759 66665F61 		.ascii	"ff_api_gimbal_and_fiz_control_t\000"
 3738      70695F67 
 3738      696D6261 
 3738      6C5F616E 
 3738      645F6669 
 3739              	.LASF41:
 3740 0779 6770735F 		.ascii	"gps_raw_spd\000"
 3740      7261775F 
 3740      73706400 
 3741              	.LASF32:
 3742 0785 6770735F 		.ascii	"gps_alt_m\000"
 3742      616C745F 
 3742      6D00
 3743              	.LASF138:
 3744 078f 666F6375 		.ascii	"focupi_rx_state\000"
 3744      70695F72 
 3744      785F7374 
 3744      61746500 
 3745              	.LASF30:
 3746 079f 6770735F 		.ascii	"gps_lat_deg\000"
 3746      6C61745F 
 3746      64656700 
 3747              	.LASF2:
 3748 07ab 5F5F7569 		.ascii	"__uint8_t\000"
 3748      6E74385F 
 3748      7400
 3749              	.LASF75:
 3750 07b5 73797373 		.ascii	"sysstat_batt_a\000"
 3750      7461745F 
ARM GAS  C:\Users\JENNEW~1\AppData\Local\Temp\ccI7hFDI.s 			page 79


 3750      62617474 
 3750      5F6100
 3751              	.LASF165:
 3752 07c4 68616D66 		.ascii	"hamfly_decode_qx287\000"
 3752      6C795F64 
 3752      65636F64 
 3752      655F7178 
 3752      32383700 
 3753              	.LASF21:
 3754 07d8 62617474 		.ascii	"battery_right_v\000"
 3754      6572795F 
 3754      72696768 
 3754      745F7600 
 3755              	.LASF164:
 3756 07e8 706C656E 		.ascii	"plen\000"
 3756      00
 3757              	.LASF142:
 3758 07ed 666F6375 		.ascii	"focus_range_limits_active\000"
 3758      735F7261 
 3758      6E67655F 
 3758      6C696D69 
 3758      74735F61 
 3759              	.LASF65:
 3760 0807 73797373 		.ascii	"sysstat_batt_v\000"
 3760      7461745F 
 3760      62617474 
 3760      5F7600
 3761              	.LASF141:
 3762 0816 66697A5F 		.ascii	"fiz_status\000"
 3762      73746174 
 3762      757300
 3763              	.LASF95:
 3764 0821 73697A65 		.ascii	"sizetype\000"
 3764      74797065 
 3764      00
 3765              	.LASF46:
 3766 082a 6261726F 		.ascii	"baro_valid\000"
 3766      5F76616C 
 3766      696400
 3767              	.LASF10:
 3768 0835 6C6F6E67 		.ascii	"long unsigned int\000"
 3768      20756E73 
 3768      69676E65 
 3768      6420696E 
 3768      7400
 3769              	.LASF99:
 3770 0847 4142534F 		.ascii	"ABSOLUTE\000"
 3770      4C555445 
 3770      00
 3771              	.LASF100:
 3772 0850 4142534F 		.ascii	"ABSOLUTE_MAJESTIC\000"
 3772      4C555445 
 3772      5F4D414A 
 3772      45535449 
 3772      4300
 3773              	.LASF111:
 3774 0862 4C656E73 		.ascii	"Lens_AxisState_Man_Cal_Set_Max\000"
ARM GAS  C:\Users\JENNEW~1\AppData\Local\Temp\ccI7hFDI.s 			page 80


 3774      5F417869 
 3774      73537461 
 3774      74655F4D 
 3774      616E5F43 
 3775              	.LASF17:
 3776 0881 696E7433 		.ascii	"int32_t\000"
 3776      325F7400 
 3777              	.LASF133:
 3778 0889 67696D62 		.ascii	"gimbal_Status1\000"
 3778      616C5F53 
 3778      74617475 
 3778      733100
 3779              	.LASF134:
 3780 0898 67696D62 		.ascii	"gimbal_Status2\000"
 3780      616C5F53 
 3780      74617475 
 3780      733200
 3781              	.LASF55:
 3782 08a7 6174745F 		.ascii	"att_yaw_rate_dps\000"
 3782      7961775F 
 3782      72617465 
 3782      5F647073 
 3782      00
 3783              	.LASF54:
 3784 08b8 6174745F 		.ascii	"att_pitch_rate_dps\000"
 3784      70697463 
 3784      685F7261 
 3784      74655F64 
 3784      707300
 3785              	.LASF174:
 3786 08cb 73616363 		.ascii	"sacc_raw\000"
 3786      5F726177 
 3786      00
 3787              	.LASF103:
 3788 08d4 74797065 		.ascii	"type\000"
 3788      00
 3789              	.LASF1:
 3790 08d9 756E7369 		.ascii	"unsigned char\000"
 3790      676E6564 
 3790      20636861 
 3790      7200
 3791              	.LASF9:
 3792 08e7 5F5F7569 		.ascii	"__uint32_t\000"
 3792      6E743332 
 3792      5F7400
 3793              	.LASF58:
 3794 08f2 6174745F 		.ascii	"att_pitch_err_deg\000"
 3794      70697463 
 3794      685F6572 
 3794      725F6465 
 3794      6700
 3795              	.LASF70:
 3796 0904 73797373 		.ascii	"sysstat_time_s\000"
 3796      7461745F 
 3796      74696D65 
 3796      5F7300
 3797              	.LASF118:
ARM GAS  C:\Users\JENNEW~1\AppData\Local\Temp\ccI7hFDI.s 			page 81


 3798 0913 67696D62 		.ascii	"gimbal_position_type_quaternions\000"
 3798      616C5F70 
 3798      6F736974 
 3798      696F6E5F 
 3798      74797065 
 3799              	.LASF49:
 3800 0934 6174745F 		.ascii	"att_valid\000"
 3800      76616C69 
 3800      6400
 3801              	.LASF179:
 3802 093e 68616D66 		.ascii	"hamfly_decode_sysecho\000"
 3802      6C795F64 
 3802      65636F64 
 3802      655F7379 
 3802      73656368 
 3803              	.LASF36:
 3804 0954 6770735F 		.ascii	"gps_vacc_m\000"
 3804      76616363 
 3804      5F6D00
 3805              	.LASF53:
 3806 095f 6174745F 		.ascii	"att_roll_deg\000"
 3806      726F6C6C 
 3806      5F646567 
 3806      00
 3807              	.LASF109:
 3808 096c 4C656E73 		.ascii	"Lens_AxisState_Calibrated\000"
 3808      5F417869 
 3808      73537461 
 3808      74655F43 
 3808      616C6962 
 3809              	.LASF81:
 3810 0986 6D61675F 		.ascii	"mag_magnitude\000"
 3810      6D61676E 
 3810      69747564 
 3810      6500
 3811              	.LASF150:
 3812 0994 72656376 		.ascii	"recv\000"
 3812      00
 3813              	.LASF184:
 3814 0999 46726565 		.ascii	"FreeflyAPI\000"
 3814      666C7941 
 3814      504900
 3815              	.LASF89:
 3816 09a4 73797365 		.ascii	"sysecho_pressure_mb\000"
 3816      63686F5F 
 3816      70726573 
 3816      73757265 
 3816      5F6D6200 
 3817              	.LASF0:
 3818 09b8 7369676E 		.ascii	"signed char\000"
 3818      65642063 
 3818      68617200 
 3819              	.LASF43:
 3820 09c4 6770735F 		.ascii	"gps_raw_hacc\000"
 3820      7261775F 
 3820      68616363 
 3820      00
ARM GAS  C:\Users\JENNEW~1\AppData\Local\Temp\ccI7hFDI.s 			page 82


 3821              	.LASF6:
 3822 09d1 73686F72 		.ascii	"short unsigned int\000"
 3822      7420756E 
 3822      7369676E 
 3822      65642069 
 3822      6E7400
 3823              	.LASF148:
 3824 09e4 62656769 		.ascii	"begin\000"
 3824      6E00
 3825              	.LASF39:
 3826 09ea 6770735F 		.ascii	"gps_raw_lon\000"
 3826      7261775F 
 3826      6C6F6E00 
 3827              	.LASF135:
 3828 09f6 666F6375 		.ascii	"focus_position\000"
 3828      735F706F 
 3828      73697469 
 3828      6F6E00
 3829              	.LASF57:
 3830 0a05 6174745F 		.ascii	"att_roll_err_deg\000"
 3830      726F6C6C 
 3830      5F657272 
 3830      5F646567 
 3830      00
 3831              	.LASF128:
 3832 0a16 66697A5F 		.ascii	"fiz_setSubRangeLim_I_flag\000"
 3832      73657453 
 3832      75625261 
 3832      6E67654C 
 3832      696D5F49 
 3833              	.LASF154:
 3834 0a30 646F7562 		.ascii	"double\000"
 3834      6C6500
 3835              	.LASF104:
 3836 0a37 66665F61 		.ascii	"ff_api_realtime_control_t\000"
 3836      70695F72 
 3836      65616C74 
 3836      696D655F 
 3836      636F6E74 
 3837              	.LASF182:
 3838 0a51 433A5C55 		.ascii	"C:\\Users\\Jennewein\\Documents\\hamish-workspace\\"
 3838      73657273 
 3838      5C4A656E 
 3838      6E657765 
 3838      696E5C44 
 3839 0a7f 50536F43 		.ascii	"PSoC-Programs\\test_projects\\Proj07_hamflyAPI_stat"
 3839      2D50726F 
 3839      6772616D 
 3839      735C7465 
 3839      73745F70 
 3840 0ab0 654D6163 		.ascii	"eMachineUpgrade.cydsn\000"
 3840      68696E65 
 3840      55706772 
 3840      6164652E 
 3840      63796473 
 3841              	.LASF114:
 3842 0ac6 4C656E73 		.ascii	"Lens_AxisState_Auto_Cal_Set_Max\000"
ARM GAS  C:\Users\JENNEW~1\AppData\Local\Temp\ccI7hFDI.s 			page 83


 3842      5F417869 
 3842      73537461 
 3842      74655F41 
 3842      75746F5F 
 3843              	.LASF64:
 3844 0ae6 666C6167 		.ascii	"flag_gps_locked\000"
 3844      5F677073 
 3844      5F6C6F63 
 3844      6B656400 
 3845              	.LASF105:
 3846 0af6 4C656E73 		.ascii	"Lens_AxisState_Disabled\000"
 3846      5F417869 
 3846      73537461 
 3846      74655F44 
 3846      69736162 
 3847              	.LASF47:
 3848 0b0e 6261726F 		.ascii	"baro_alt_m\000"
 3848      5F616C74 
 3848      5F6D00
 3849              	.LASF71:
 3850 0b19 73797373 		.ascii	"sysstat_pressure_mb\000"
 3850      7461745F 
 3850      70726573 
 3850      73757265 
 3850      5F6D6200 
 3851              	.LASF74:
 3852 0b2d 73797373 		.ascii	"sysstat_imu_latency\000"
 3852      7461745F 
 3852      696D755F 
 3852      6C617465 
 3852      6E637900 
 3853              	.LASF56:
 3854 0b41 6174745F 		.ascii	"att_roll_rate_dps\000"
 3854      726F6C6C 
 3854      5F726174 
 3854      655F6470 
 3854      7300
 3855              	.LASF137:
 3856 0b53 7A6F6F6D 		.ascii	"zoom_position\000"
 3856      5F706F73 
 3856      6974696F 
 3856      6E00
 3857              	.LASF44:
 3858 0b61 6770735F 		.ascii	"gps_raw_vacc\000"
 3858      7261775F 
 3858      76616363 
 3858      00
 3859              		.ident	"GCC: (GNU Tools for ARM Embedded Processors) 5.4.1 20160609 (release) [ARM/embedded-5-bran
