ARM GAS  C:\Users\JENNEW~1\AppData\Local\Temp\ccBYNzIK.s 			page 1


   1              		.syntax unified
   2              		.cpu cortex-m3
   3              		.fpu softvfp
   4              		.eabi_attribute 20, 1
   5              		.eabi_attribute 21, 1
   6              		.eabi_attribute 23, 3
   7              		.eabi_attribute 24, 1
   8              		.eabi_attribute 25, 1
   9              		.eabi_attribute 26, 1
  10              		.eabi_attribute 30, 6
  11              		.eabi_attribute 34, 1
  12              		.eabi_attribute 18, 4
  13              		.thumb
  14              		.syntax unified
  15              		.file	"hamfly_core_gimbal.c"
  16              		.text
  17              	.Ltext0:
  18              		.cfi_sections	.debug_frame
  19              		.section	.text.load_freefly_control,"ax",%progbits
  20              		.align	2
  21              		.thumb
  22              		.thumb_func
  23              		.type	load_freefly_control, %function
  24              	load_freefly_control:
  25              	.LFB0:
  26              		.file 1 "..\\..\\..\\HamFlyAPI\\src\\hamfly_core_gimbal.c"
   1:..\..\..\HamFlyAPI\src/hamfly_core_gimbal.c **** /* SPDX-License-Identifier: Apache-2.0
   2:..\..\..\HamFlyAPI\src/hamfly_core_gimbal.c ****  *
   3:..\..\..\HamFlyAPI\src/hamfly_core_gimbal.c ****  * Copyright 2026 Hamish Johnson
   4:..\..\..\HamFlyAPI\src/hamfly_core_gimbal.c ****  * Quantum Information Systems Lab, SFU Physics
   5:..\..\..\HamFlyAPI\src/hamfly_core_gimbal.c ****  *
   6:..\..\..\HamFlyAPI\src/hamfly_core_gimbal.c ****  * Licensed under the Apache License, Version 2.0 (the "License");
   7:..\..\..\HamFlyAPI\src/hamfly_core_gimbal.c ****  * you may not use this file except in compliance with the License.
   8:..\..\..\HamFlyAPI\src/hamfly_core_gimbal.c ****  * You may obtain a copy of the License at
   9:..\..\..\HamFlyAPI\src/hamfly_core_gimbal.c ****  *
  10:..\..\..\HamFlyAPI\src/hamfly_core_gimbal.c ****  *     http://www.apache.org/licenses/LICENSE-2.0
  11:..\..\..\HamFlyAPI\src/hamfly_core_gimbal.c ****  *
  12:..\..\..\HamFlyAPI\src/hamfly_core_gimbal.c ****  * Unless required by applicable law or agreed to in writing, software
  13:..\..\..\HamFlyAPI\src/hamfly_core_gimbal.c ****  * distributed under the License is distributed on an "AS IS" BASIS,
  14:..\..\..\HamFlyAPI\src/hamfly_core_gimbal.c ****  * WITHOUT WARRANTIES OR CONDITIONS OF ANY KIND, either express or
  15:..\..\..\HamFlyAPI\src/hamfly_core_gimbal.c ****  * implied. See the License for the specific language governing
  16:..\..\..\HamFlyAPI\src/hamfly_core_gimbal.c ****  * permissions and limitations under the License.
  17:..\..\..\HamFlyAPI\src/hamfly_core_gimbal.c ****  *
  18:..\..\..\HamFlyAPI\src/hamfly_core_gimbal.c ****  * ============================================================================
  19:..\..\..\HamFlyAPI\src/hamfly_core_gimbal.c ****  * Gimbal control functions.
  20:..\..\..\HamFlyAPI\src/hamfly_core_gimbal.c ****  */
  21:..\..\..\HamFlyAPI\src/hamfly_core_gimbal.c **** 
  22:..\..\..\HamFlyAPI\src/hamfly_core_gimbal.c **** 
  23:..\..\..\HamFlyAPI\src/hamfly_core_gimbal.c **** #include "hamfly_core_gimbal.h"
  24:..\..\..\HamFlyAPI\src/hamfly_core_gimbal.c **** #include "hamfly_core_telemetry.h"
  25:..\..\..\HamFlyAPI\src/hamfly_core_gimbal.c **** #include "hamfly_qx_protocol.h"
  26:..\..\..\HamFlyAPI\src/hamfly_core_gimbal.c **** #include "hamfly_qx_app.h"
  27:..\..\..\HamFlyAPI\src/hamfly_core_gimbal.c **** #include "hamfly.h"
  28:..\..\..\HamFlyAPI\src/hamfly_core_gimbal.c **** #include <string.h>
  29:..\..\..\HamFlyAPI\src/hamfly_core_gimbal.c **** #include <math.h>
  30:..\..\..\HamFlyAPI\src/hamfly_core_gimbal.c **** 
  31:..\..\..\HamFlyAPI\src/hamfly_core_gimbal.c **** #define HAMFLY_QX_PORT  (QX_COMMS_PORT_UART)
ARM GAS  C:\Users\JENNEW~1\AppData\Local\Temp\ccBYNzIK.s 			page 2


  32:..\..\..\HamFlyAPI\src/hamfly_core_gimbal.c **** 
  33:..\..\..\HamFlyAPI\src/hamfly_core_gimbal.c **** // ============================================================================
  34:..\..\..\HamFlyAPI\src/hamfly_core_gimbal.c **** // Internal helpers: load/save between hamfly_control_t and FreeflyAPI.control
  35:..\..\..\HamFlyAPI\src/hamfly_core_gimbal.c **** // ============================================================================
  36:..\..\..\HamFlyAPI\src/hamfly_core_gimbal.c **** 
  37:..\..\..\HamFlyAPI\src/hamfly_core_gimbal.c **** // Copy the control struct into the existing FreeflyAPI.control struct for Tx.
  38:..\..\..\HamFlyAPI\src/hamfly_core_gimbal.c **** static void load_freefly_control(const hamfly_control_t *ctl)
  39:..\..\..\HamFlyAPI\src/hamfly_core_gimbal.c **** {
  27              		.loc 1 39 0
  28              		.cfi_startproc
  29              		@ args = 0, pretend = 0, frame = 8
  30              		@ frame_needed = 1, uses_anonymous_args = 0
  31              		@ link register save eliminated.
  32 0000 80B4     		push	{r7}
  33              		.cfi_def_cfa_offset 4
  34              		.cfi_offset 7, -4
  35 0002 83B0     		sub	sp, sp, #12
  36              		.cfi_def_cfa_offset 16
  37 0004 00AF     		add	r7, sp, #0
  38              		.cfi_def_cfa_register 7
  39 0006 7860     		str	r0, [r7, #4]
  40:..\..\..\HamFlyAPI\src/hamfly_core_gimbal.c ****     FreeflyAPI.control.pan.value   = ctl->pan;
  40              		.loc 1 40 0
  41 0008 7B68     		ldr	r3, [r7, #4]
  42 000a 1B68     		ldr	r3, [r3]	@ float
  43 000c 0F4A     		ldr	r2, .L2
  44 000e 1361     		str	r3, [r2, #16]	@ float
  41:..\..\..\HamFlyAPI\src/hamfly_core_gimbal.c ****     FreeflyAPI.control.tilt.value  = ctl->tilt;
  45              		.loc 1 41 0
  46 0010 7B68     		ldr	r3, [r7, #4]
  47 0012 5B68     		ldr	r3, [r3, #4]	@ float
  48 0014 0D4A     		ldr	r2, .L2
  49 0016 9361     		str	r3, [r2, #24]	@ float
  42:..\..\..\HamFlyAPI\src/hamfly_core_gimbal.c ****     FreeflyAPI.control.roll.value  = ctl->roll;
  50              		.loc 1 42 0
  51 0018 7B68     		ldr	r3, [r7, #4]
  52 001a 9B68     		ldr	r3, [r3, #8]	@ float
  53 001c 0B4A     		ldr	r2, .L2
  54 001e 1362     		str	r3, [r2, #32]	@ float
  43:..\..\..\HamFlyAPI\src/hamfly_core_gimbal.c ****     FreeflyAPI.control.pan.type    = (ff_api_control_type_e)ctl->pan_mode;
  55              		.loc 1 43 0
  56 0020 7B68     		ldr	r3, [r7, #4]
  57 0022 1A7B     		ldrb	r2, [r3, #12]	@ zero_extendqisi2
  58 0024 094B     		ldr	r3, .L2
  59 0026 1A75     		strb	r2, [r3, #20]
  44:..\..\..\HamFlyAPI\src/hamfly_core_gimbal.c ****     FreeflyAPI.control.tilt.type   = (ff_api_control_type_e)ctl->tilt_mode;
  60              		.loc 1 44 0
  61 0028 7B68     		ldr	r3, [r7, #4]
  62 002a 5A7B     		ldrb	r2, [r3, #13]	@ zero_extendqisi2
  63 002c 074B     		ldr	r3, .L2
  64 002e 1A77     		strb	r2, [r3, #28]
  45:..\..\..\HamFlyAPI\src/hamfly_core_gimbal.c ****     FreeflyAPI.control.roll.type   = (ff_api_control_type_e)ctl->roll_mode;
  65              		.loc 1 45 0
  66 0030 7B68     		ldr	r3, [r7, #4]
  67 0032 9A7B     		ldrb	r2, [r3, #14]	@ zero_extendqisi2
  68 0034 054B     		ldr	r3, .L2
  69 0036 83F82420 		strb	r2, [r3, #36]
ARM GAS  C:\Users\JENNEW~1\AppData\Local\Temp\ccBYNzIK.s 			page 3


  46:..\..\..\HamFlyAPI\src/hamfly_core_gimbal.c ****     FreeflyAPI.control.gimbal_kill = ctl->kill;
  70              		.loc 1 46 0
  71 003a 7B68     		ldr	r3, [r7, #4]
  72 003c 1A7C     		ldrb	r2, [r3, #16]	@ zero_extendqisi2
  73 003e 034B     		ldr	r3, .L2
  74 0040 1A73     		strb	r2, [r3, #12]
  47:..\..\..\HamFlyAPI\src/hamfly_core_gimbal.c **** }
  75              		.loc 1 47 0
  76 0042 00BF     		nop
  77 0044 0C37     		adds	r7, r7, #12
  78              		.cfi_def_cfa_offset 4
  79 0046 BD46     		mov	sp, r7
  80              		.cfi_def_cfa_register 13
  81              		@ sp needed
  82 0048 80BC     		pop	{r7}
  83              		.cfi_restore 7
  84              		.cfi_def_cfa_offset 0
  85 004a 7047     		bx	lr
  86              	.L3:
  87              		.align	2
  88              	.L2:
  89 004c 00000000 		.word	FreeflyAPI
  90              		.cfi_endproc
  91              	.LFE0:
  92              		.size	load_freefly_control, .-load_freefly_control
  93              		.section	.text.copy_qx287_to_telemetry,"ax",%progbits
  94              		.align	2
  95              		.thumb
  96              		.thumb_func
  97              		.type	copy_qx287_to_telemetry, %function
  98              	copy_qx287_to_telemetry:
  99              	.LFB1:
  48:..\..\..\HamFlyAPI\src/hamfly_core_gimbal.c **** 
  49:..\..\..\HamFlyAPI\src/hamfly_core_gimbal.c **** // Copy the QX287 telemetry from FreeflyAPI.status into hamfly_telemetry_t.
  50:..\..\..\HamFlyAPI\src/hamfly_core_gimbal.c **** static void copy_qx287_to_telemetry(hamfly_telemetry_t *tel)
  51:..\..\..\HamFlyAPI\src/hamfly_core_gimbal.c **** {
 100              		.loc 1 51 0
 101              		.cfi_startproc
 102              		@ args = 0, pretend = 0, frame = 8
 103              		@ frame_needed = 1, uses_anonymous_args = 0
 104 0000 80B5     		push	{r7, lr}
 105              		.cfi_def_cfa_offset 8
 106              		.cfi_offset 7, -8
 107              		.cfi_offset 14, -4
 108 0002 82B0     		sub	sp, sp, #8
 109              		.cfi_def_cfa_offset 16
 110 0004 00AF     		add	r7, sp, #0
 111              		.cfi_def_cfa_register 7
 112 0006 7860     		str	r0, [r7, #4]
  52:..\..\..\HamFlyAPI\src/hamfly_core_gimbal.c ****     // 287 is already parsed into FreeflyAPI.status by the QX callback.
  53:..\..\..\HamFlyAPI\src/hamfly_core_gimbal.c ****     // hamfly_decode_qx287 reads it into hamfly_telemetry_t.
  54:..\..\..\HamFlyAPI\src/hamfly_core_gimbal.c ****     // TODO: Investigate removing this wrapper and use decode directly.
  55:..\..\..\HamFlyAPI\src/hamfly_core_gimbal.c ****     hamfly_decode_qx287(NULL, 0u, tel);
 113              		.loc 1 55 0
 114 0008 7A68     		ldr	r2, [r7, #4]
 115 000a 0021     		movs	r1, #0
 116 000c 0020     		movs	r0, #0
ARM GAS  C:\Users\JENNEW~1\AppData\Local\Temp\ccBYNzIK.s 			page 4


 117 000e FFF7FEFF 		bl	hamfly_decode_qx287
  56:..\..\..\HamFlyAPI\src/hamfly_core_gimbal.c **** }
 118              		.loc 1 56 0
 119 0012 00BF     		nop
 120 0014 0837     		adds	r7, r7, #8
 121              		.cfi_def_cfa_offset 8
 122 0016 BD46     		mov	sp, r7
 123              		.cfi_def_cfa_register 13
 124              		@ sp needed
 125 0018 80BD     		pop	{r7, pc}
 126              		.cfi_endproc
 127              	.LFE1:
 128              		.size	copy_qx287_to_telemetry, .-copy_qx287_to_telemetry
 129 001a 00BF     		.section	.text.drain_rb,"ax",%progbits
 130              		.align	2
 131              		.thumb
 132              		.thumb_func
 133              		.type	drain_rb, %function
 134              	drain_rb:
 135              	.LFB2:
  57:..\..\..\HamFlyAPI\src/hamfly_core_gimbal.c **** 
  58:..\..\..\HamFlyAPI\src/hamfly_core_gimbal.c **** // Drain the txbuf and send bytes into the HAL.
  59:..\..\..\HamFlyAPI\src/hamfly_core_gimbal.c **** static uint32_t drain_rb(hamfly_gimbal_t *g)
  60:..\..\..\HamFlyAPI\src/hamfly_core_gimbal.c **** {
 136              		.loc 1 60 0
 137              		.cfi_startproc
 138              		@ args = 0, pretend = 0, frame = 16
 139              		@ frame_needed = 1, uses_anonymous_args = 0
 140 0000 80B5     		push	{r7, lr}
 141              		.cfi_def_cfa_offset 8
 142              		.cfi_offset 7, -8
 143              		.cfi_offset 14, -4
 144 0002 84B0     		sub	sp, sp, #16
 145              		.cfi_def_cfa_offset 24
 146 0004 00AF     		add	r7, sp, #0
 147              		.cfi_def_cfa_register 7
 148 0006 7860     		str	r0, [r7, #4]
  61:..\..\..\HamFlyAPI\src/hamfly_core_gimbal.c ****     uint8_t  byte;
  62:..\..\..\HamFlyAPI\src/hamfly_core_gimbal.c ****     uint32_t sent = 0u;
 149              		.loc 1 62 0
 150 0008 0023     		movs	r3, #0
 151 000a FB60     		str	r3, [r7, #12]
  63:..\..\..\HamFlyAPI\src/hamfly_core_gimbal.c ****     while (hamfly_rb_pop(&g->txbuf, &byte)) {
 152              		.loc 1 63 0
 153 000c 09E0     		b	.L6
 154              	.L7:
  64:..\..\..\HamFlyAPI\src/hamfly_core_gimbal.c ****         g->hal.uart_putc(g->hal.ctx, byte);
 155              		.loc 1 64 0
 156 000e 7B68     		ldr	r3, [r7, #4]
 157 0010 5B68     		ldr	r3, [r3, #4]
 158 0012 7A68     		ldr	r2, [r7, #4]
 159 0014 1268     		ldr	r2, [r2]
 160 0016 F97A     		ldrb	r1, [r7, #11]	@ zero_extendqisi2
 161 0018 1046     		mov	r0, r2
 162 001a 9847     		blx	r3
  65:..\..\..\HamFlyAPI\src/hamfly_core_gimbal.c ****         sent++;
 163              		.loc 1 65 0
ARM GAS  C:\Users\JENNEW~1\AppData\Local\Temp\ccBYNzIK.s 			page 5


 164 001c FB68     		ldr	r3, [r7, #12]
 165 001e 0133     		adds	r3, r3, #1
 166 0020 FB60     		str	r3, [r7, #12]
 167              	.L6:
  63:..\..\..\HamFlyAPI\src/hamfly_core_gimbal.c ****     while (hamfly_rb_pop(&g->txbuf, &byte)) {
 168              		.loc 1 63 0
 169 0022 7B68     		ldr	r3, [r7, #4]
 170 0024 03F22A23 		addw	r3, r3, #554
 171 0028 07F10B02 		add	r2, r7, #11
 172 002c 1146     		mov	r1, r2
 173 002e 1846     		mov	r0, r3
 174 0030 FFF7FEFF 		bl	hamfly_rb_pop
 175 0034 0346     		mov	r3, r0
 176 0036 002B     		cmp	r3, #0
 177 0038 E9D1     		bne	.L7
  66:..\..\..\HamFlyAPI\src/hamfly_core_gimbal.c ****     }
  67:..\..\..\HamFlyAPI\src/hamfly_core_gimbal.c ****     return sent;
 178              		.loc 1 67 0
 179 003a FB68     		ldr	r3, [r7, #12]
  68:..\..\..\HamFlyAPI\src/hamfly_core_gimbal.c **** }
 180              		.loc 1 68 0
 181 003c 1846     		mov	r0, r3
 182 003e 1037     		adds	r7, r7, #16
 183              		.cfi_def_cfa_offset 8
 184 0040 BD46     		mov	sp, r7
 185              		.cfi_def_cfa_register 13
 186              		@ sp needed
 187 0042 80BD     		pop	{r7, pc}
 188              		.cfi_endproc
 189              	.LFE2:
 190              		.size	drain_rb, .-drain_rb
 191              		.section	.text.hamfly_init,"ax",%progbits
 192              		.align	2
 193              		.global	hamfly_init
 194              		.thumb
 195              		.thumb_func
 196              		.type	hamfly_init, %function
 197              	hamfly_init:
 198              	.LFB3:
  69:..\..\..\HamFlyAPI\src/hamfly_core_gimbal.c **** 
  70:..\..\..\HamFlyAPI\src/hamfly_core_gimbal.c **** // ============================================================================
  71:..\..\..\HamFlyAPI\src/hamfly_core_gimbal.c **** // Lifecycle helpers
  72:..\..\..\HamFlyAPI\src/hamfly_core_gimbal.c **** // ============================================================================
  73:..\..\..\HamFlyAPI\src/hamfly_core_gimbal.c **** 
  74:..\..\..\HamFlyAPI\src/hamfly_core_gimbal.c **** // Initialize gimbal struct with HAL, empty buffers and stats.
  75:..\..\..\HamFlyAPI\src/hamfly_core_gimbal.c **** void hamfly_init(hamfly_gimbal_t *g, const hamfly_hal_t *hal)
  76:..\..\..\HamFlyAPI\src/hamfly_core_gimbal.c **** {
 199              		.loc 1 76 0
 200              		.cfi_startproc
 201              		@ args = 0, pretend = 0, frame = 8
 202              		@ frame_needed = 1, uses_anonymous_args = 0
 203 0000 80B5     		push	{r7, lr}
 204              		.cfi_def_cfa_offset 8
 205              		.cfi_offset 7, -8
 206              		.cfi_offset 14, -4
 207 0002 82B0     		sub	sp, sp, #8
 208              		.cfi_def_cfa_offset 16
ARM GAS  C:\Users\JENNEW~1\AppData\Local\Temp\ccBYNzIK.s 			page 6


 209 0004 00AF     		add	r7, sp, #0
 210              		.cfi_def_cfa_register 7
 211 0006 7860     		str	r0, [r7, #4]
 212 0008 3960     		str	r1, [r7]
  77:..\..\..\HamFlyAPI\src/hamfly_core_gimbal.c ****     memset(g, 0, sizeof(*g));
 213              		.loc 1 77 0
 214 000a 4FF46072 		mov	r2, #896
 215 000e 0021     		movs	r1, #0
 216 0010 7868     		ldr	r0, [r7, #4]
 217 0012 FFF7FEFF 		bl	memset
  78:..\..\..\HamFlyAPI\src/hamfly_core_gimbal.c ****     g->hal       = *hal;
 218              		.loc 1 78 0
 219 0016 7B68     		ldr	r3, [r7, #4]
 220 0018 3A68     		ldr	r2, [r7]
 221 001a 07CA     		ldmia	r2, {r0, r1, r2}
 222 001c 83E80700 		stmia	r3, {r0, r1, r2}
  79:..\..\..\HamFlyAPI\src/hamfly_core_gimbal.c ****     g->gimbal_id = QX_DEV_ID_GIMBAL;
 223              		.loc 1 79 0
 224 0020 7B68     		ldr	r3, [r7, #4]
 225 0022 0222     		movs	r2, #2
 226 0024 83F83023 		strb	r2, [r3, #816]
  80:..\..\..\HamFlyAPI\src/hamfly_core_gimbal.c ****     hamfly_rb_init(&g->rxbuf);
 227              		.loc 1 80 0
 228 0028 7B68     		ldr	r3, [r7, #4]
 229 002a 03F59273 		add	r3, r3, #292
 230 002e 1846     		mov	r0, r3
 231 0030 FFF7FEFF 		bl	hamfly_rb_init
  81:..\..\..\HamFlyAPI\src/hamfly_core_gimbal.c ****     hamfly_rb_init(&g->txbuf);
 232              		.loc 1 81 0
 233 0034 7B68     		ldr	r3, [r7, #4]
 234 0036 03F22A23 		addw	r3, r3, #554
 235 003a 1846     		mov	r0, r3
 236 003c FFF7FEFF 		bl	hamfly_rb_init
  82:..\..\..\HamFlyAPI\src/hamfly_core_gimbal.c **** 
  83:..\..\..\HamFlyAPI\src/hamfly_core_gimbal.c ****     // Register as active instance for QX callbacks, if user wants to implement
  84:..\..\..\HamFlyAPI\src/hamfly_core_gimbal.c ****     // multiple gimbals in the future make this a list or map instead of a
  85:..\..\..\HamFlyAPI\src/hamfly_core_gimbal.c ****     // single pointer.
  86:..\..\..\HamFlyAPI\src/hamfly_core_gimbal.c ****     qx_active_gimbal_ptr = (void *)g;
 237              		.loc 1 86 0
 238 0040 044A     		ldr	r2, .L10
 239 0042 7B68     		ldr	r3, [r7, #4]
 240 0044 1360     		str	r3, [r2]
  87:..\..\..\HamFlyAPI\src/hamfly_core_gimbal.c **** 
  88:..\..\..\HamFlyAPI\src/hamfly_core_gimbal.c ****     // Start the FreeflyAPI 
  89:..\..\..\HamFlyAPI\src/hamfly_core_gimbal.c ****     // Registers the QX callback that updates FreeflyAPI.status
  90:..\..\..\HamFlyAPI\src/hamfly_core_gimbal.c ****     // and also initializes FreeflyAPI.control to zeros/DEFER.
  91:..\..\..\HamFlyAPI\src/hamfly_core_gimbal.c ****     FreeflyAPI.begin();
 241              		.loc 1 91 0
 242 0046 044B     		ldr	r3, .L10+4
 243 0048 1B68     		ldr	r3, [r3]
 244 004a 9847     		blx	r3
  92:..\..\..\HamFlyAPI\src/hamfly_core_gimbal.c **** }
 245              		.loc 1 92 0
 246 004c 00BF     		nop
 247 004e 0837     		adds	r7, r7, #8
 248              		.cfi_def_cfa_offset 8
 249 0050 BD46     		mov	sp, r7
ARM GAS  C:\Users\JENNEW~1\AppData\Local\Temp\ccBYNzIK.s 			page 7


 250              		.cfi_def_cfa_register 13
 251              		@ sp needed
 252 0052 80BD     		pop	{r7, pc}
 253              	.L11:
 254              		.align	2
 255              	.L10:
 256 0054 00000000 		.word	qx_active_gimbal_ptr
 257 0058 00000000 		.word	FreeflyAPI
 258              		.cfi_endproc
 259              	.LFE3:
 260              		.size	hamfly_init, .-hamfly_init
 261              		.section	.text.hamfly_reset,"ax",%progbits
 262              		.align	2
 263              		.global	hamfly_reset
 264              		.thumb
 265              		.thumb_func
 266              		.type	hamfly_reset, %function
 267              	hamfly_reset:
 268              	.LFB4:
  93:..\..\..\HamFlyAPI\src/hamfly_core_gimbal.c **** 
  94:..\..\..\HamFlyAPI\src/hamfly_core_gimbal.c **** // Reset gimbal struct to empty buffers and stats, but keep HAL and gimbal_id.
  95:..\..\..\HamFlyAPI\src/hamfly_core_gimbal.c **** void hamfly_reset(hamfly_gimbal_t *g)
  96:..\..\..\HamFlyAPI\src/hamfly_core_gimbal.c **** {
 269              		.loc 1 96 0
 270              		.cfi_startproc
 271              		@ args = 0, pretend = 0, frame = 8
 272              		@ frame_needed = 1, uses_anonymous_args = 0
 273 0000 80B5     		push	{r7, lr}
 274              		.cfi_def_cfa_offset 8
 275              		.cfi_offset 7, -8
 276              		.cfi_offset 14, -4
 277 0002 82B0     		sub	sp, sp, #8
 278              		.cfi_def_cfa_offset 16
 279 0004 00AF     		add	r7, sp, #0
 280              		.cfi_def_cfa_register 7
 281 0006 7860     		str	r0, [r7, #4]
  97:..\..\..\HamFlyAPI\src/hamfly_core_gimbal.c ****     if (!g) return;
 282              		.loc 1 97 0
 283 0008 7B68     		ldr	r3, [r7, #4]
 284 000a 002B     		cmp	r3, #0
 285 000c 33D0     		beq	.L15
  98:..\..\..\HamFlyAPI\src/hamfly_core_gimbal.c ****     hamfly_rb_clear(&g->rxbuf);
 286              		.loc 1 98 0
 287 000e 7B68     		ldr	r3, [r7, #4]
 288 0010 03F59273 		add	r3, r3, #292
 289 0014 1846     		mov	r0, r3
 290 0016 FFF7FEFF 		bl	hamfly_rb_clear
  99:..\..\..\HamFlyAPI\src/hamfly_core_gimbal.c ****     hamfly_rb_clear(&g->txbuf);
 291              		.loc 1 99 0
 292 001a 7B68     		ldr	r3, [r7, #4]
 293 001c 03F22A23 		addw	r3, r3, #554
 294 0020 1846     		mov	r0, r3
 295 0022 FFF7FEFF 		bl	hamfly_rb_clear
 100:..\..\..\HamFlyAPI\src/hamfly_core_gimbal.c ****     memset(&g->telemetry,  0, sizeof(g->telemetry));
 296              		.loc 1 100 0
 297 0026 7B68     		ldr	r3, [r7, #4]
 298 0028 2033     		adds	r3, r3, #32
ARM GAS  C:\Users\JENNEW~1\AppData\Local\Temp\ccBYNzIK.s 			page 8


 299 002a EC22     		movs	r2, #236
 300 002c 0021     		movs	r1, #0
 301 002e 1846     		mov	r0, r3
 302 0030 FFF7FEFF 		bl	memset
 101:..\..\..\HamFlyAPI\src/hamfly_core_gimbal.c ****     memset(&g->statistics, 0, sizeof(g->statistics));
 303              		.loc 1 101 0
 304 0034 7B68     		ldr	r3, [r7, #4]
 305 0036 03F58673 		add	r3, r3, #268
 306 003a 1822     		movs	r2, #24
 307 003c 0021     		movs	r1, #0
 308 003e 1846     		mov	r0, r3
 309 0040 FFF7FEFF 		bl	memset
 102:..\..\..\HamFlyAPI\src/hamfly_core_gimbal.c ****     g->pending_attr          = 0u;
 310              		.loc 1 102 0
 311 0044 7B68     		ldr	r3, [r7, #4]
 312 0046 0022     		movs	r2, #0
 313 0048 A3F83223 		strh	r2, [r3, #818]	@ movhi
 103:..\..\..\HamFlyAPI\src/hamfly_core_gimbal.c ****     g->pending_sent_ms       = 0u;
 314              		.loc 1 103 0
 315 004c 7B68     		ldr	r3, [r7, #4]
 316 004e 0022     		movs	r2, #0
 317 0050 C3F83423 		str	r2, [r3, #820]
 104:..\..\..\HamFlyAPI\src/hamfly_core_gimbal.c ****     g->pending_ready         = false;
 318              		.loc 1 104 0
 319 0054 7B68     		ldr	r3, [r7, #4]
 320 0056 0022     		movs	r2, #0
 321 0058 83F83823 		strb	r2, [r3, #824]
 105:..\..\..\HamFlyAPI\src/hamfly_core_gimbal.c ****     g->pending_response_attr = 0u;
 322              		.loc 1 105 0
 323 005c 7B68     		ldr	r3, [r7, #4]
 324 005e 0022     		movs	r2, #0
 325 0060 A3F83A23 		strh	r2, [r3, #826]	@ movhi
 106:..\..\..\HamFlyAPI\src/hamfly_core_gimbal.c ****     g->pending_response_len  = 0u;
 326              		.loc 1 106 0
 327 0064 7B68     		ldr	r3, [r7, #4]
 328 0066 0022     		movs	r2, #0
 329 0068 A3F83C23 		strh	r2, [r3, #828]	@ movhi
 107:..\..\..\HamFlyAPI\src/hamfly_core_gimbal.c ****     g->pending_payload_len   = 0u;
 330              		.loc 1 107 0
 331 006c 7B68     		ldr	r3, [r7, #4]
 332 006e 0022     		movs	r2, #0
 333 0070 83F87E23 		strb	r2, [r3, #894]
 334 0074 00E0     		b	.L12
 335              	.L15:
  97:..\..\..\HamFlyAPI\src/hamfly_core_gimbal.c ****     hamfly_rb_clear(&g->rxbuf);
 336              		.loc 1 97 0
 337 0076 00BF     		nop
 338              	.L12:
 108:..\..\..\HamFlyAPI\src/hamfly_core_gimbal.c **** }
 339              		.loc 1 108 0
 340 0078 0837     		adds	r7, r7, #8
 341              		.cfi_def_cfa_offset 8
 342 007a BD46     		mov	sp, r7
 343              		.cfi_def_cfa_register 13
 344              		@ sp needed
 345 007c 80BD     		pop	{r7, pc}
 346              		.cfi_endproc
ARM GAS  C:\Users\JENNEW~1\AppData\Local\Temp\ccBYNzIK.s 			page 9


 347              	.LFE4:
 348              		.size	hamfly_reset, .-hamfly_reset
 349 007e 00BF     		.section	.text.hamfly_clear_statistics,"ax",%progbits
 350              		.align	2
 351              		.global	hamfly_clear_statistics
 352              		.thumb
 353              		.thumb_func
 354              		.type	hamfly_clear_statistics, %function
 355              	hamfly_clear_statistics:
 356              	.LFB5:
 109:..\..\..\HamFlyAPI\src/hamfly_core_gimbal.c **** 
 110:..\..\..\HamFlyAPI\src/hamfly_core_gimbal.c **** // Clear just the statistics. Used so far for clearing test modes.
 111:..\..\..\HamFlyAPI\src/hamfly_core_gimbal.c **** void hamfly_clear_statistics(hamfly_gimbal_t *g)
 112:..\..\..\HamFlyAPI\src/hamfly_core_gimbal.c **** {
 357              		.loc 1 112 0
 358              		.cfi_startproc
 359              		@ args = 0, pretend = 0, frame = 8
 360              		@ frame_needed = 1, uses_anonymous_args = 0
 361 0000 80B5     		push	{r7, lr}
 362              		.cfi_def_cfa_offset 8
 363              		.cfi_offset 7, -8
 364              		.cfi_offset 14, -4
 365 0002 82B0     		sub	sp, sp, #8
 366              		.cfi_def_cfa_offset 16
 367 0004 00AF     		add	r7, sp, #0
 368              		.cfi_def_cfa_register 7
 369 0006 7860     		str	r0, [r7, #4]
 113:..\..\..\HamFlyAPI\src/hamfly_core_gimbal.c ****     if (!g) return;
 370              		.loc 1 113 0
 371 0008 7B68     		ldr	r3, [r7, #4]
 372 000a 002B     		cmp	r3, #0
 373 000c 08D0     		beq	.L19
 114:..\..\..\HamFlyAPI\src/hamfly_core_gimbal.c ****     memset(&g->statistics, 0, sizeof(g->statistics));
 374              		.loc 1 114 0
 375 000e 7B68     		ldr	r3, [r7, #4]
 376 0010 03F58673 		add	r3, r3, #268
 377 0014 1822     		movs	r2, #24
 378 0016 0021     		movs	r1, #0
 379 0018 1846     		mov	r0, r3
 380 001a FFF7FEFF 		bl	memset
 381 001e 00E0     		b	.L16
 382              	.L19:
 113:..\..\..\HamFlyAPI\src/hamfly_core_gimbal.c ****     if (!g) return;
 383              		.loc 1 113 0
 384 0020 00BF     		nop
 385              	.L16:
 115:..\..\..\HamFlyAPI\src/hamfly_core_gimbal.c **** }
 386              		.loc 1 115 0
 387 0022 0837     		adds	r7, r7, #8
 388              		.cfi_def_cfa_offset 8
 389 0024 BD46     		mov	sp, r7
 390              		.cfi_def_cfa_register 13
 391              		@ sp needed
 392 0026 80BD     		pop	{r7, pc}
 393              		.cfi_endproc
 394              	.LFE5:
 395              		.size	hamfly_clear_statistics, .-hamfly_clear_statistics
ARM GAS  C:\Users\JENNEW~1\AppData\Local\Temp\ccBYNzIK.s 			page 10


 396              		.section	.text.hamfly_on_rx_byte,"ax",%progbits
 397              		.align	2
 398              		.global	hamfly_on_rx_byte
 399              		.thumb
 400              		.thumb_func
 401              		.type	hamfly_on_rx_byte, %function
 402              	hamfly_on_rx_byte:
 403              	.LFB6:
 116:..\..\..\HamFlyAPI\src/hamfly_core_gimbal.c **** 
 117:..\..\..\HamFlyAPI\src/hamfly_core_gimbal.c **** // ============================================================================
 118:..\..\..\HamFlyAPI\src/hamfly_core_gimbal.c **** // ISR Helpers
 119:..\..\..\HamFlyAPI\src/hamfly_core_gimbal.c **** // ============================================================================
 120:..\..\..\HamFlyAPI\src/hamfly_core_gimbal.c **** 
 121:..\..\..\HamFlyAPI\src/hamfly_core_gimbal.c **** // ISR calls to push Rx bytes into the ring buffer.
 122:..\..\..\HamFlyAPI\src/hamfly_core_gimbal.c **** void hamfly_on_rx_byte(hamfly_gimbal_t *g, uint8_t b)
 123:..\..\..\HamFlyAPI\src/hamfly_core_gimbal.c **** {
 404              		.loc 1 123 0
 405              		.cfi_startproc
 406              		@ args = 0, pretend = 0, frame = 8
 407              		@ frame_needed = 1, uses_anonymous_args = 0
 408 0000 80B5     		push	{r7, lr}
 409              		.cfi_def_cfa_offset 8
 410              		.cfi_offset 7, -8
 411              		.cfi_offset 14, -4
 412 0002 82B0     		sub	sp, sp, #8
 413              		.cfi_def_cfa_offset 16
 414 0004 00AF     		add	r7, sp, #0
 415              		.cfi_def_cfa_register 7
 416 0006 7860     		str	r0, [r7, #4]
 417 0008 0B46     		mov	r3, r1
 418 000a FB70     		strb	r3, [r7, #3]
 124:..\..\..\HamFlyAPI\src/hamfly_core_gimbal.c ****     if (!g) return;
 419              		.loc 1 124 0
 420 000c 7B68     		ldr	r3, [r7, #4]
 421 000e 002B     		cmp	r3, #0
 422 0010 0FD0     		beq	.L23
 125:..\..\..\HamFlyAPI\src/hamfly_core_gimbal.c ****     (void)hamfly_rb_push(&g->rxbuf, b);
 423              		.loc 1 125 0
 424 0012 7B68     		ldr	r3, [r7, #4]
 425 0014 03F59273 		add	r3, r3, #292
 426 0018 FA78     		ldrb	r2, [r7, #3]	@ zero_extendqisi2
 427 001a 1146     		mov	r1, r2
 428 001c 1846     		mov	r0, r3
 429 001e FFF7FEFF 		bl	hamfly_rb_push
 126:..\..\..\HamFlyAPI\src/hamfly_core_gimbal.c ****     g->statistics.rxbuf_drops = g->rxbuf.drops;
 430              		.loc 1 126 0
 431 0022 7B68     		ldr	r3, [r7, #4]
 432 0024 B3F82832 		ldrh	r3, [r3, #552]	@ movhi
 433 0028 9AB2     		uxth	r2, r3
 434 002a 7B68     		ldr	r3, [r7, #4]
 435 002c A3F82021 		strh	r2, [r3, #288]	@ movhi
 436 0030 00E0     		b	.L20
 437              	.L23:
 124:..\..\..\HamFlyAPI\src/hamfly_core_gimbal.c ****     if (!g) return;
 438              		.loc 1 124 0
 439 0032 00BF     		nop
 440              	.L20:
ARM GAS  C:\Users\JENNEW~1\AppData\Local\Temp\ccBYNzIK.s 			page 11


 127:..\..\..\HamFlyAPI\src/hamfly_core_gimbal.c **** }
 441              		.loc 1 127 0
 442 0034 0837     		adds	r7, r7, #8
 443              		.cfi_def_cfa_offset 8
 444 0036 BD46     		mov	sp, r7
 445              		.cfi_def_cfa_register 13
 446              		@ sp needed
 447 0038 80BD     		pop	{r7, pc}
 448              		.cfi_endproc
 449              	.LFE6:
 450              		.size	hamfly_on_rx_byte, .-hamfly_on_rx_byte
 451 003a 00BF     		.section	.text.hamfly_on_uart_err_flags,"ax",%progbits
 452              		.align	2
 453              		.global	hamfly_on_uart_err_flags
 454              		.thumb
 455              		.thumb_func
 456              		.type	hamfly_on_uart_err_flags, %function
 457              	hamfly_on_uart_err_flags:
 458              	.LFB7:
 128:..\..\..\HamFlyAPI\src/hamfly_core_gimbal.c **** 
 129:..\..\..\HamFlyAPI\src/hamfly_core_gimbal.c **** // ISR calls to set UART error flags.
 130:..\..\..\HamFlyAPI\src/hamfly_core_gimbal.c **** void hamfly_on_uart_err_flags(hamfly_gimbal_t *g, uint8_t err_mask)
 131:..\..\..\HamFlyAPI\src/hamfly_core_gimbal.c **** {
 459              		.loc 1 131 0
 460              		.cfi_startproc
 461              		@ args = 0, pretend = 0, frame = 8
 462              		@ frame_needed = 1, uses_anonymous_args = 0
 463              		@ link register save eliminated.
 464 0000 80B4     		push	{r7}
 465              		.cfi_def_cfa_offset 4
 466              		.cfi_offset 7, -4
 467 0002 83B0     		sub	sp, sp, #12
 468              		.cfi_def_cfa_offset 16
 469 0004 00AF     		add	r7, sp, #0
 470              		.cfi_def_cfa_register 7
 471 0006 7860     		str	r0, [r7, #4]
 472 0008 0B46     		mov	r3, r1
 473 000a FB70     		strb	r3, [r7, #3]
 132:..\..\..\HamFlyAPI\src/hamfly_core_gimbal.c ****     if (!g) return;
 474              		.loc 1 132 0
 475 000c 7B68     		ldr	r3, [r7, #4]
 476 000e 002B     		cmp	r3, #0
 477 0010 09D0     		beq	.L27
 133:..\..\..\HamFlyAPI\src/hamfly_core_gimbal.c ****     g->statistics.uart_err_flags |= err_mask;
 478              		.loc 1 133 0
 479 0012 7B68     		ldr	r3, [r7, #4]
 480 0014 93F82221 		ldrb	r2, [r3, #290]	@ zero_extendqisi2
 481 0018 FB78     		ldrb	r3, [r7, #3]
 482 001a 1343     		orrs	r3, r3, r2
 483 001c DAB2     		uxtb	r2, r3
 484 001e 7B68     		ldr	r3, [r7, #4]
 485 0020 83F82221 		strb	r2, [r3, #290]
 486 0024 00E0     		b	.L24
 487              	.L27:
 132:..\..\..\HamFlyAPI\src/hamfly_core_gimbal.c ****     if (!g) return;
 488              		.loc 1 132 0
 489 0026 00BF     		nop
ARM GAS  C:\Users\JENNEW~1\AppData\Local\Temp\ccBYNzIK.s 			page 12


 490              	.L24:
 134:..\..\..\HamFlyAPI\src/hamfly_core_gimbal.c **** }
 491              		.loc 1 134 0
 492 0028 0C37     		adds	r7, r7, #12
 493              		.cfi_def_cfa_offset 4
 494 002a BD46     		mov	sp, r7
 495              		.cfi_def_cfa_register 13
 496              		@ sp needed
 497 002c 80BC     		pop	{r7}
 498              		.cfi_restore 7
 499              		.cfi_def_cfa_offset 0
 500 002e 7047     		bx	lr
 501              		.cfi_endproc
 502              	.LFE7:
 503              		.size	hamfly_on_uart_err_flags, .-hamfly_on_uart_err_flags
 504              		.section	.text.hamfly_pump,"ax",%progbits
 505              		.align	2
 506              		.global	hamfly_pump
 507              		.thumb
 508              		.thumb_func
 509              		.type	hamfly_pump, %function
 510              	hamfly_pump:
 511              	.LFB8:
 135:..\..\..\HamFlyAPI\src/hamfly_core_gimbal.c **** 
 136:..\..\..\HamFlyAPI\src/hamfly_core_gimbal.c **** // ============================================================================
 137:..\..\..\HamFlyAPI\src/hamfly_core_gimbal.c **** // Hamfly Pump: parse incoming bytes into telemetry and pending attr responses.
 138:..\..\..\HamFlyAPI\src/hamfly_core_gimbal.c **** // ============================================================================
 139:..\..\..\HamFlyAPI\src/hamfly_core_gimbal.c **** void hamfly_pump(hamfly_gimbal_t *g)
 140:..\..\..\HamFlyAPI\src/hamfly_core_gimbal.c **** {
 512              		.loc 1 140 0
 513              		.cfi_startproc
 514              		@ args = 0, pretend = 0, frame = 40
 515              		@ frame_needed = 1, uses_anonymous_args = 0
 516 0000 80B5     		push	{r7, lr}
 517              		.cfi_def_cfa_offset 8
 518              		.cfi_offset 7, -8
 519              		.cfi_offset 14, -4
 520 0002 8AB0     		sub	sp, sp, #40
 521              		.cfi_def_cfa_offset 48
 522 0004 00AF     		add	r7, sp, #0
 523              		.cfi_def_cfa_register 7
 524 0006 7860     		str	r0, [r7, #4]
 141:..\..\..\HamFlyAPI\src/hamfly_core_gimbal.c ****     if (!g) return;
 525              		.loc 1 141 0
 526 0008 7B68     		ldr	r3, [r7, #4]
 527 000a 002B     		cmp	r3, #0
 528 000c 00F02F81 		beq	.L48
 142:..\..\..\HamFlyAPI\src/hamfly_core_gimbal.c **** 
 143:..\..\..\HamFlyAPI\src/hamfly_core_gimbal.c ****     uint8_t  b;
 144:..\..\..\HamFlyAPI\src/hamfly_core_gimbal.c ****     // Snapshot in number of checksum failures so we can keep a running count.
 145:..\..\..\HamFlyAPI\src/hamfly_core_gimbal.c ****     uint32_t chkfail_before = QX_CommsPorts[HAMFLY_QX_PORT].ChkSumFail_cnt;
 529              		.loc 1 145 0
 530 0010 994B     		ldr	r3, .L50
 531 0012 D3F88030 		ldr	r3, [r3, #128]
 532 0016 7B62     		str	r3, [r7, #36]
 146:..\..\..\HamFlyAPI\src/hamfly_core_gimbal.c **** 
 147:..\..\..\HamFlyAPI\src/hamfly_core_gimbal.c ****     // While there are bytes in rxbuf, pop into address &b
ARM GAS  C:\Users\JENNEW~1\AppData\Local\Temp\ccBYNzIK.s 			page 13


 148:..\..\..\HamFlyAPI\src/hamfly_core_gimbal.c ****     while (hamfly_rb_pop(&g->rxbuf, &b)) {
 533              		.loc 1 148 0
 534 0018 02E1     		b	.L31
 535              	.L46:
 536              	.LBB2:
 149:..\..\..\HamFlyAPI\src/hamfly_core_gimbal.c ****         // Feed byte b into QX state machine until packet complete.
 150:..\..\..\HamFlyAPI\src/hamfly_core_gimbal.c ****         g->statistics.rx_bytes++;
 537              		.loc 1 150 0
 538 001a 7B68     		ldr	r3, [r7, #4]
 539 001c D3F81831 		ldr	r3, [r3, #280]
 540 0020 5A1C     		adds	r2, r3, #1
 541 0022 7B68     		ldr	r3, [r7, #4]
 542 0024 C3F81821 		str	r2, [r3, #280]
 151:..\..\..\HamFlyAPI\src/hamfly_core_gimbal.c ****         int got_packet = QX_StreamRxCharSM(HAMFLY_QX_PORT, (unsigned char)b);
 543              		.loc 1 151 0
 544 0028 FB7A     		ldrb	r3, [r7, #11]	@ zero_extendqisi2
 545 002a 1946     		mov	r1, r3
 546 002c 0020     		movs	r0, #0
 547 002e FFF7FEFF 		bl	QX_StreamRxCharSM
 548 0032 0346     		mov	r3, r0
 549 0034 3B62     		str	r3, [r7, #32]
 152:..\..\..\HamFlyAPI\src/hamfly_core_gimbal.c ****         
 153:..\..\..\HamFlyAPI\src/hamfly_core_gimbal.c ****         if (!got_packet) continue;  // Stops here unless complete packet.
 550              		.loc 1 153 0
 551 0036 3B6A     		ldr	r3, [r7, #32]
 552 0038 002B     		cmp	r3, #0
 553 003a 00D1     		bne	.L32
 554              		.loc 1 153 0 is_stmt 0 discriminator 1
 555 003c F0E0     		b	.L31
 556              	.L32:
 154:..\..\..\HamFlyAPI\src/hamfly_core_gimbal.c ****         
 155:..\..\..\HamFlyAPI\src/hamfly_core_gimbal.c ****         g->statistics.rx_packets++;  // Count a full packet.
 557              		.loc 1 155 0 is_stmt 1
 558 003e 7B68     		ldr	r3, [r7, #4]
 559 0040 D3F81431 		ldr	r3, [r3, #276]
 560 0044 5A1C     		adds	r2, r3, #1
 561 0046 7B68     		ldr	r3, [r7, #4]
 562 0048 C3F81421 		str	r2, [r3, #276]
 156:..\..\..\HamFlyAPI\src/hamfly_core_gimbal.c **** 
 157:..\..\..\HamFlyAPI\src/hamfly_core_gimbal.c ****         // Grab the packet data out of the QX state machine for parsing.
 158:..\..\..\HamFlyAPI\src/hamfly_core_gimbal.c ****         QX_CommsPort_t *port = &QX_CommsPorts[HAMFLY_QX_PORT];
 563              		.loc 1 158 0
 564 004c 8A4B     		ldr	r3, .L50
 565 004e FB61     		str	r3, [r7, #28]
 159:..\..\..\HamFlyAPI\src/hamfly_core_gimbal.c ****         uint16_t rxattr = (uint16_t)port->RxMsg.Header.Attrib;
 566              		.loc 1 159 0
 567 0050 FB69     		ldr	r3, [r7, #28]
 568 0052 1B69     		ldr	r3, [r3, #16]
 569 0054 7B83     		strh	r3, [r7, #26]	@ movhi
 160:..\..\..\HamFlyAPI\src/hamfly_core_gimbal.c ****         uint16_t rxlen  = (uint16_t)port->RxMsg.Header.MsgLength;
 570              		.loc 1 160 0
 571 0056 FB69     		ldr	r3, [r7, #28]
 572 0058 9B89     		ldrh	r3, [r3, #12]	@ movhi
 573 005a 3B83     		strh	r3, [r7, #24]	@ movhi
 161:..\..\..\HamFlyAPI\src/hamfly_core_gimbal.c ****         const uint8_t *pay = port->RxMsg.BufPayloadStart_p;
 574              		.loc 1 161 0
 575 005c FB69     		ldr	r3, [r7, #28]
ARM GAS  C:\Users\JENNEW~1\AppData\Local\Temp\ccBYNzIK.s 			page 14


 576 005e 1B6F     		ldr	r3, [r3, #112]
 577 0060 7B61     		str	r3, [r7, #20]
 162:..\..\..\HamFlyAPI\src/hamfly_core_gimbal.c **** 
 163:..\..\..\HamFlyAPI\src/hamfly_core_gimbal.c ****         // QX callback automatically decodes any QX287 telemetry in case.
 164:..\..\..\HamFlyAPI\src/hamfly_core_gimbal.c ****         // Take a moment to sync the 287 fields in case anything updated.
 165:..\..\..\HamFlyAPI\src/hamfly_core_gimbal.c ****         copy_qx287_to_telemetry(&g->telemetry);
 578              		.loc 1 165 0
 579 0062 7B68     		ldr	r3, [r7, #4]
 580 0064 2033     		adds	r3, r3, #32
 581 0066 1846     		mov	r0, r3
 582 0068 FFF7FEFF 		bl	copy_qx287_to_telemetry
 166:..\..\..\HamFlyAPI\src/hamfly_core_gimbal.c **** 
 167:..\..\..\HamFlyAPI\src/hamfly_core_gimbal.c ****         // Switch case for telemetry attributes I have decoded.
 168:..\..\..\HamFlyAPI\src/hamfly_core_gimbal.c ****         // Each attr needs an appropriate decode function to read the raw bytes
 169:..\..\..\HamFlyAPI\src/hamfly_core_gimbal.c ****         // into hamfly_telemetry_t.
 170:..\..\..\HamFlyAPI\src/hamfly_core_gimbal.c ****         // TODO: Implement doc of current progress sniffing and decoding telem.
 171:..\..\..\HamFlyAPI\src/hamfly_core_gimbal.c ****         if (pay) {
 583              		.loc 1 171 0
 584 006c 7B69     		ldr	r3, [r7, #20]
 585 006e 002B     		cmp	r3, #0
 586 0070 00F09F80 		beq	.L33
 172:..\..\..\HamFlyAPI\src/hamfly_core_gimbal.c ****             switch (rxattr) {
 587              		.loc 1 172 0
 588 0074 7B8B     		ldrh	r3, [r7, #26]
 589 0076 013B     		subs	r3, r3, #1
 590 0078 2F2B     		cmp	r3, #47
 591 007a 00F29980 		bhi	.L49
 592 007e 01A2     		adr	r2, .L36
 593 0080 52F823F0 		ldr	pc, [r2, r3, lsl #2]
 594              		.p2align 2
 595              	.L36:
 596 0084 7B010000 		.word	.L35+1
 597 0088 B1010000 		.word	.L49+1
 598 008c 57010000 		.word	.L37+1
 599 0090 45010000 		.word	.L38+1
 600 0094 B1010000 		.word	.L49+1
 601 0098 B1010000 		.word	.L49+1
 602 009c B1010000 		.word	.L49+1
 603 00a0 B1010000 		.word	.L49+1
 604 00a4 B1010000 		.word	.L49+1
 605 00a8 B1010000 		.word	.L49+1
 606 00ac B1010000 		.word	.L49+1
 607 00b0 8D010000 		.word	.L39+1
 608 00b4 B1010000 		.word	.L49+1
 609 00b8 B1010000 		.word	.L49+1
 610 00bc B1010000 		.word	.L49+1
 611 00c0 B1010000 		.word	.L49+1
 612 00c4 B1010000 		.word	.L49+1
 613 00c8 B1010000 		.word	.L49+1
 614 00cc B1010000 		.word	.L49+1
 615 00d0 B1010000 		.word	.L49+1
 616 00d4 B1010000 		.word	.L49+1
 617 00d8 69010000 		.word	.L40+1
 618 00dc B1010000 		.word	.L49+1
 619 00e0 B1010000 		.word	.L49+1
 620 00e4 B1010000 		.word	.L49+1
 621 00e8 B1010000 		.word	.L49+1
ARM GAS  C:\Users\JENNEW~1\AppData\Local\Temp\ccBYNzIK.s 			page 15


 622 00ec B1010000 		.word	.L49+1
 623 00f0 B1010000 		.word	.L49+1
 624 00f4 B1010000 		.word	.L49+1
 625 00f8 B1010000 		.word	.L49+1
 626 00fc B1010000 		.word	.L49+1
 627 0100 B1010000 		.word	.L49+1
 628 0104 B1010000 		.word	.L49+1
 629 0108 B1010000 		.word	.L49+1
 630 010c B1010000 		.word	.L49+1
 631 0110 B1010000 		.word	.L49+1
 632 0114 B1010000 		.word	.L49+1
 633 0118 B1010000 		.word	.L49+1
 634 011c B1010000 		.word	.L49+1
 635 0120 B1010000 		.word	.L49+1
 636 0124 B1010000 		.word	.L49+1
 637 0128 B1010000 		.word	.L49+1
 638 012c B1010000 		.word	.L49+1
 639 0130 B1010000 		.word	.L49+1
 640 0134 B1010000 		.word	.L49+1
 641 0138 B1010000 		.word	.L49+1
 642 013c B1010000 		.word	.L49+1
 643 0140 9F010000 		.word	.L41+1
 644              		.p2align 1
 645              	.L38:
 173:..\..\..\HamFlyAPI\src/hamfly_core_gimbal.c ****                 case 4u:  hamfly_decode_gps      (pay, rxlen, &g->telemetry);
 646              		.loc 1 173 0
 647 0144 7B68     		ldr	r3, [r7, #4]
 648 0146 03F12002 		add	r2, r3, #32
 649 014a 3B8B     		ldrh	r3, [r7, #24]
 650 014c 1946     		mov	r1, r3
 651 014e 7869     		ldr	r0, [r7, #20]
 652 0150 FFF7FEFF 		bl	hamfly_decode_gps
 174:..\..\..\HamFlyAPI\src/hamfly_core_gimbal.c ****                 break;
 653              		.loc 1 174 0
 654 0154 2DE0     		b	.L33
 655              	.L37:
 175:..\..\..\HamFlyAPI\src/hamfly_core_gimbal.c ****                 case 3u:  hamfly_decode_baro     (pay, rxlen, &g->telemetry);
 656              		.loc 1 175 0
 657 0156 7B68     		ldr	r3, [r7, #4]
 658 0158 03F12002 		add	r2, r3, #32
 659 015c 3B8B     		ldrh	r3, [r7, #24]
 660 015e 1946     		mov	r1, r3
 661 0160 7869     		ldr	r0, [r7, #20]
 662 0162 FFF7FEFF 		bl	hamfly_decode_baro
 176:..\..\..\HamFlyAPI\src/hamfly_core_gimbal.c ****                 break;
 663              		.loc 1 176 0
 664 0166 24E0     		b	.L33
 665              	.L40:
 177:..\..\..\HamFlyAPI\src/hamfly_core_gimbal.c ****                 case 22u: hamfly_decode_attitude (pay, rxlen, &g->telemetry);
 666              		.loc 1 177 0
 667 0168 7B68     		ldr	r3, [r7, #4]
 668 016a 03F12002 		add	r2, r3, #32
 669 016e 3B8B     		ldrh	r3, [r7, #24]
 670 0170 1946     		mov	r1, r3
 671 0172 7869     		ldr	r0, [r7, #20]
 672 0174 FFF7FEFF 		bl	hamfly_decode_attitude
 178:..\..\..\HamFlyAPI\src/hamfly_core_gimbal.c ****                 break;
ARM GAS  C:\Users\JENNEW~1\AppData\Local\Temp\ccBYNzIK.s 			page 16


 673              		.loc 1 178 0
 674 0178 1BE0     		b	.L33
 675              	.L35:
 179:..\..\..\HamFlyAPI\src/hamfly_core_gimbal.c ****                 case 1u:  hamfly_decode_sysstat  (pay, rxlen, &g->telemetry);
 676              		.loc 1 179 0
 677 017a 7B68     		ldr	r3, [r7, #4]
 678 017c 03F12002 		add	r2, r3, #32
 679 0180 3B8B     		ldrh	r3, [r7, #24]
 680 0182 1946     		mov	r1, r3
 681 0184 7869     		ldr	r0, [r7, #20]
 682 0186 FFF7FEFF 		bl	hamfly_decode_sysstat
 180:..\..\..\HamFlyAPI\src/hamfly_core_gimbal.c ****                 break;
 683              		.loc 1 180 0
 684 018a 12E0     		b	.L33
 685              	.L39:
 181:..\..\..\HamFlyAPI\src/hamfly_core_gimbal.c ****                 case 12u: hamfly_decode_mag      (pay, rxlen, &g->telemetry);
 686              		.loc 1 181 0
 687 018c 7B68     		ldr	r3, [r7, #4]
 688 018e 03F12002 		add	r2, r3, #32
 689 0192 3B8B     		ldrh	r3, [r7, #24]
 690 0194 1946     		mov	r1, r3
 691 0196 7869     		ldr	r0, [r7, #20]
 692 0198 FFF7FEFF 		bl	hamfly_decode_mag
 182:..\..\..\HamFlyAPI\src/hamfly_core_gimbal.c ****                 break;
 693              		.loc 1 182 0
 694 019c 09E0     		b	.L33
 695              	.L41:
 183:..\..\..\HamFlyAPI\src/hamfly_core_gimbal.c ****                 case 48u: hamfly_decode_sysecho  (pay, rxlen, &g->telemetry);
 696              		.loc 1 183 0
 697 019e 7B68     		ldr	r3, [r7, #4]
 698 01a0 03F12002 		add	r2, r3, #32
 699 01a4 3B8B     		ldrh	r3, [r7, #24]
 700 01a6 1946     		mov	r1, r3
 701 01a8 7869     		ldr	r0, [r7, #20]
 702 01aa FFF7FEFF 		bl	hamfly_decode_sysecho
 184:..\..\..\HamFlyAPI\src/hamfly_core_gimbal.c ****                 break;
 703              		.loc 1 184 0
 704 01ae 00E0     		b	.L33
 705              	.L49:
 185:..\..\..\HamFlyAPI\src/hamfly_core_gimbal.c ****                 default:
 186:..\..\..\HamFlyAPI\src/hamfly_core_gimbal.c ****                 break;
 706              		.loc 1 186 0
 707 01b0 00BF     		nop
 708              	.L33:
 187:..\..\..\HamFlyAPI\src/hamfly_core_gimbal.c ****             }
 188:..\..\..\HamFlyAPI\src/hamfly_core_gimbal.c ****         }
 189:..\..\..\HamFlyAPI\src/hamfly_core_gimbal.c **** 
 190:..\..\..\HamFlyAPI\src/hamfly_core_gimbal.c ****         // IF there is a pending attr AND it matches this packet's attr
 191:..\..\..\HamFlyAPI\src/hamfly_core_gimbal.c ****         // THEN capture this payload into the pending slot and mark ready.
 192:..\..\..\HamFlyAPI\src/hamfly_core_gimbal.c ****         if (g->pending_attr != 0u && rxattr == g->pending_attr) {
 709              		.loc 1 192 0
 710 01b2 7B68     		ldr	r3, [r7, #4]
 711 01b4 B3F83233 		ldrh	r3, [r3, #818]
 712 01b8 002B     		cmp	r3, #0
 713 01ba 31D0     		beq	.L31
 714              		.loc 1 192 0 is_stmt 0 discriminator 1
 715 01bc 7B68     		ldr	r3, [r7, #4]
ARM GAS  C:\Users\JENNEW~1\AppData\Local\Temp\ccBYNzIK.s 			page 17


 716 01be B3F83233 		ldrh	r3, [r3, #818]
 717 01c2 7A8B     		ldrh	r2, [r7, #26]
 718 01c4 9A42     		cmp	r2, r3
 719 01c6 2BD1     		bne	.L31
 720              	.LBB3:
 193:..\..\..\HamFlyAPI\src/hamfly_core_gimbal.c ****             // Populate pending response fields for debug.
 194:..\..\..\HamFlyAPI\src/hamfly_core_gimbal.c ****             g->pending_response_attr = rxattr;
 721              		.loc 1 194 0 is_stmt 1
 722 01c8 7B68     		ldr	r3, [r7, #4]
 723 01ca 7A8B     		ldrh	r2, [r7, #26]	@ movhi
 724 01cc A3F83A23 		strh	r2, [r3, #826]	@ movhi
 195:..\..\..\HamFlyAPI\src/hamfly_core_gimbal.c ****             g->pending_response_len  = rxlen;
 725              		.loc 1 195 0
 726 01d0 7B68     		ldr	r3, [r7, #4]
 727 01d2 3A8B     		ldrh	r2, [r7, #24]	@ movhi
 728 01d4 A3F83C23 		strh	r2, [r3, #828]	@ movhi
 196:..\..\..\HamFlyAPI\src/hamfly_core_gimbal.c ****             g->pending_ready         = true;
 729              		.loc 1 196 0
 730 01d8 7B68     		ldr	r3, [r7, #4]
 731 01da 0122     		movs	r2, #1
 732 01dc 83F83823 		strb	r2, [r3, #824]
 197:..\..\..\HamFlyAPI\src/hamfly_core_gimbal.c **** 
 198:..\..\..\HamFlyAPI\src/hamfly_core_gimbal.c ****             // Defensive programming, may be overkill.
 199:..\..\..\HamFlyAPI\src/hamfly_core_gimbal.c ****             // We assume buffers are max 32 bytes according to the FreeflyAPI
 200:..\..\..\HamFlyAPI\src/hamfly_core_gimbal.c ****             // docs, I have given 64 bytes in case, but if we somehow go beyond
 201:..\..\..\HamFlyAPI\src/hamfly_core_gimbal.c ****             // it clips the length.
 202:..\..\..\HamFlyAPI\src/hamfly_core_gimbal.c ****             uint8_t snap_len = (rxlen < (uint16_t)sizeof(g->pending_payload))
 733              		.loc 1 202 0
 734 01e0 3B8B     		ldrh	r3, [r7, #24]
 735 01e2 3F2B     		cmp	r3, #63
 736 01e4 02D8     		bhi	.L42
 737              		.loc 1 202 0 is_stmt 0 discriminator 1
 738 01e6 3B8B     		ldrh	r3, [r7, #24]	@ movhi
 739 01e8 DBB2     		uxtb	r3, r3
 740 01ea 00E0     		b	.L43
 741              	.L42:
 742              		.loc 1 202 0 discriminator 2
 743 01ec 4023     		movs	r3, #64
 744              	.L43:
 745              		.loc 1 202 0 discriminator 4
 746 01ee FB74     		strb	r3, [r7, #19]
 203:..\..\..\HamFlyAPI\src/hamfly_core_gimbal.c ****                                ? (uint8_t)rxlen
 204:..\..\..\HamFlyAPI\src/hamfly_core_gimbal.c ****                                : (uint8_t)sizeof(g->pending_payload);
 205:..\..\..\HamFlyAPI\src/hamfly_core_gimbal.c ****             // Check the payload is not null to avoid dereferencing a null 
 206:..\..\..\HamFlyAPI\src/hamfly_core_gimbal.c ****             // pointer if valid copies max snap_len bytes into the 
 207:..\..\..\HamFlyAPI\src/hamfly_core_gimbal.c ****             // pending_payload.
 208:..\..\..\HamFlyAPI\src/hamfly_core_gimbal.c ****             if (pay) memcpy(g->pending_payload, pay, snap_len);
 747              		.loc 1 208 0 is_stmt 1 discriminator 4
 748 01f0 7B69     		ldr	r3, [r7, #20]
 749 01f2 002B     		cmp	r3, #0
 750 01f4 08D0     		beq	.L44
 751              		.loc 1 208 0 is_stmt 0 discriminator 1
 752 01f6 7B68     		ldr	r3, [r7, #4]
 753 01f8 03F23E33 		addw	r3, r3, #830
 754 01fc FA7C     		ldrb	r2, [r7, #19]	@ zero_extendqisi2
 755 01fe 7969     		ldr	r1, [r7, #20]
 756 0200 1846     		mov	r0, r3
ARM GAS  C:\Users\JENNEW~1\AppData\Local\Temp\ccBYNzIK.s 			page 18


 757 0202 FFF7FEFF 		bl	memcpy
 758 0206 07E0     		b	.L45
 759              	.L44:
 209:..\..\..\HamFlyAPI\src/hamfly_core_gimbal.c ****             else     memset(g->pending_payload, 0,   snap_len);
 760              		.loc 1 209 0 is_stmt 1
 761 0208 7B68     		ldr	r3, [r7, #4]
 762 020a 03F23E33 		addw	r3, r3, #830
 763 020e FA7C     		ldrb	r2, [r7, #19]	@ zero_extendqisi2
 764 0210 0021     		movs	r1, #0
 765 0212 1846     		mov	r0, r3
 766 0214 FFF7FEFF 		bl	memset
 767              	.L45:
 210:..\..\..\HamFlyAPI\src/hamfly_core_gimbal.c ****             g->pending_payload_len = snap_len;
 768              		.loc 1 210 0
 769 0218 7B68     		ldr	r3, [r7, #4]
 770 021a FA7C     		ldrb	r2, [r7, #19]
 771 021c 83F87E23 		strb	r2, [r3, #894]
 772              	.L31:
 773              	.LBE3:
 774              	.LBE2:
 148:..\..\..\HamFlyAPI\src/hamfly_core_gimbal.c ****         // Feed byte b into QX state machine until packet complete.
 775              		.loc 1 148 0
 776 0220 7B68     		ldr	r3, [r7, #4]
 777 0222 03F59273 		add	r3, r3, #292
 778 0226 07F10B02 		add	r2, r7, #11
 779 022a 1146     		mov	r1, r2
 780 022c 1846     		mov	r0, r3
 781 022e FFF7FEFF 		bl	hamfly_rb_pop
 782 0232 0346     		mov	r3, r0
 783 0234 002B     		cmp	r3, #0
 784 0236 7FF4F0AE 		bne	.L46
 211:..\..\..\HamFlyAPI\src/hamfly_core_gimbal.c ****         }
 212:..\..\..\HamFlyAPI\src/hamfly_core_gimbal.c ****     }
 213:..\..\..\HamFlyAPI\src/hamfly_core_gimbal.c **** 
 214:..\..\..\HamFlyAPI\src/hamfly_core_gimbal.c ****     // Count number of checksum fails that have accumulated.
 215:..\..\..\HamFlyAPI\src/hamfly_core_gimbal.c ****     uint32_t chkfail_after = QX_CommsPorts[HAMFLY_QX_PORT].ChkSumFail_cnt;
 785              		.loc 1 215 0
 786 023a 0F4B     		ldr	r3, .L50
 787 023c D3F88030 		ldr	r3, [r3, #128]
 788 0240 FB60     		str	r3, [r7, #12]
 216:..\..\..\HamFlyAPI\src/hamfly_core_gimbal.c ****     if (chkfail_after > chkfail_before)
 789              		.loc 1 216 0
 790 0242 FA68     		ldr	r2, [r7, #12]
 791 0244 7B6A     		ldr	r3, [r7, #36]
 792 0246 9A42     		cmp	r2, r3
 793 0248 09D9     		bls	.L47
 217:..\..\..\HamFlyAPI\src/hamfly_core_gimbal.c ****         g->statistics.rx_bad_checksum += (chkfail_after - chkfail_before);
 794              		.loc 1 217 0
 795 024a 7B68     		ldr	r3, [r7, #4]
 796 024c D3F81C21 		ldr	r2, [r3, #284]
 797 0250 F968     		ldr	r1, [r7, #12]
 798 0252 7B6A     		ldr	r3, [r7, #36]
 799 0254 CB1A     		subs	r3, r1, r3
 800 0256 1A44     		add	r2, r2, r3
 801 0258 7B68     		ldr	r3, [r7, #4]
 802 025a C3F81C21 		str	r2, [r3, #284]
 803              	.L47:
ARM GAS  C:\Users\JENNEW~1\AppData\Local\Temp\ccBYNzIK.s 			page 19


 218:..\..\..\HamFlyAPI\src/hamfly_core_gimbal.c ****     // Count any drops from the ring buffer as well.
 219:..\..\..\HamFlyAPI\src/hamfly_core_gimbal.c ****     g->statistics.rxbuf_drops = g->rxbuf.drops;
 804              		.loc 1 219 0
 805 025e 7B68     		ldr	r3, [r7, #4]
 806 0260 B3F82832 		ldrh	r3, [r3, #552]	@ movhi
 807 0264 9AB2     		uxth	r2, r3
 808 0266 7B68     		ldr	r3, [r7, #4]
 809 0268 A3F82021 		strh	r2, [r3, #288]	@ movhi
 810 026c 00E0     		b	.L28
 811              	.L48:
 141:..\..\..\HamFlyAPI\src/hamfly_core_gimbal.c **** 
 812              		.loc 1 141 0
 813 026e 00BF     		nop
 814              	.L28:
 220:..\..\..\HamFlyAPI\src/hamfly_core_gimbal.c **** }
 815              		.loc 1 220 0
 816 0270 2837     		adds	r7, r7, #40
 817              		.cfi_def_cfa_offset 8
 818 0272 BD46     		mov	sp, r7
 819              		.cfi_def_cfa_register 13
 820              		@ sp needed
 821 0274 80BD     		pop	{r7, pc}
 822              	.L51:
 823 0276 00BF     		.align	2
 824              	.L50:
 825 0278 00000000 		.word	QX_CommsPorts
 826              		.cfi_endproc
 827              	.LFE8:
 828              		.size	hamfly_pump, .-hamfly_pump
 829              		.section	.text.hamfly_send_control,"ax",%progbits
 830              		.align	2
 831              		.global	hamfly_send_control
 832              		.thumb
 833              		.thumb_func
 834              		.type	hamfly_send_control, %function
 835              	hamfly_send_control:
 836              	.LFB9:
 221:..\..\..\HamFlyAPI\src/hamfly_core_gimbal.c **** 
 222:..\..\..\HamFlyAPI\src/hamfly_core_gimbal.c **** // ============================================================================
 223:..\..\..\HamFlyAPI\src/hamfly_core_gimbal.c **** // Hamfly Send Control: FreeFlyAPI QX277 send wrapper.
 224:..\..\..\HamFlyAPI\src/hamfly_core_gimbal.c **** // ============================================================================
 225:..\..\..\HamFlyAPI\src/hamfly_core_gimbal.c **** hamfly_result_t hamfly_send_control(hamfly_gimbal_t *g,
 226:..\..\..\HamFlyAPI\src/hamfly_core_gimbal.c ****                                      const hamfly_control_t *ctl)
 227:..\..\..\HamFlyAPI\src/hamfly_core_gimbal.c **** {
 837              		.loc 1 227 0
 838              		.cfi_startproc
 839              		@ args = 0, pretend = 0, frame = 16
 840              		@ frame_needed = 1, uses_anonymous_args = 0
 841 0000 B0B5     		push	{r4, r5, r7, lr}
 842              		.cfi_def_cfa_offset 16
 843              		.cfi_offset 4, -16
 844              		.cfi_offset 5, -12
 845              		.cfi_offset 7, -8
 846              		.cfi_offset 14, -4
 847 0002 84B0     		sub	sp, sp, #16
 848              		.cfi_def_cfa_offset 32
 849 0004 00AF     		add	r7, sp, #0
ARM GAS  C:\Users\JENNEW~1\AppData\Local\Temp\ccBYNzIK.s 			page 20


 850              		.cfi_def_cfa_register 7
 851 0006 7860     		str	r0, [r7, #4]
 852 0008 3960     		str	r1, [r7]
 228:..\..\..\HamFlyAPI\src/hamfly_core_gimbal.c ****     if (!g || !g->hal.uart_putc) return HAMFLY_ERR_UART;
 853              		.loc 1 228 0
 854 000a 7B68     		ldr	r3, [r7, #4]
 855 000c 002B     		cmp	r3, #0
 856 000e 03D0     		beq	.L53
 857              		.loc 1 228 0 is_stmt 0 discriminator 2
 858 0010 7B68     		ldr	r3, [r7, #4]
 859 0012 5B68     		ldr	r3, [r3, #4]
 860 0014 002B     		cmp	r3, #0
 861 0016 01D1     		bne	.L54
 862              	.L53:
 863              		.loc 1 228 0 discriminator 3
 864 0018 0123     		movs	r3, #1
 865 001a 29E0     		b	.L55
 866              	.L54:
 229:..\..\..\HamFlyAPI\src/hamfly_core_gimbal.c ****     // Load control frame from gimbal struct
 230:..\..\..\HamFlyAPI\src/hamfly_core_gimbal.c ****     load_freefly_control(ctl);
 867              		.loc 1 230 0 is_stmt 1
 868 001c 3868     		ldr	r0, [r7]
 869 001e FFF7FEFF 		bl	load_freefly_control
 231:..\..\..\HamFlyAPI\src/hamfly_core_gimbal.c ****     g->ctl = *ctl;
 870              		.loc 1 231 0
 871 0022 7B68     		ldr	r3, [r7, #4]
 872 0024 3A68     		ldr	r2, [r7]
 873 0026 03F10C04 		add	r4, r3, #12
 874 002a 1546     		mov	r5, r2
 875 002c 0FCD     		ldmia	r5!, {r0, r1, r2, r3}
 876 002e 0FC4     		stmia	r4!, {r0, r1, r2, r3}
 877 0030 2B68     		ldr	r3, [r5]
 878 0032 2360     		str	r3, [r4]
 232:..\..\..\HamFlyAPI\src/hamfly_core_gimbal.c ****     FreeflyAPI.send();
 879              		.loc 1 232 0
 880 0034 104B     		ldr	r3, .L56
 881 0036 5B68     		ldr	r3, [r3, #4]
 882 0038 9847     		blx	r3
 233:..\..\..\HamFlyAPI\src/hamfly_core_gimbal.c **** 
 234:..\..\..\HamFlyAPI\src/hamfly_core_gimbal.c ****     uint32_t sent = drain_rb(g);
 883              		.loc 1 234 0
 884 003a 7868     		ldr	r0, [r7, #4]
 885 003c FFF7FEFF 		bl	drain_rb
 886 0040 F860     		str	r0, [r7, #12]
 235:..\..\..\HamFlyAPI\src/hamfly_core_gimbal.c ****     g->statistics.tx_packets++;
 887              		.loc 1 235 0
 888 0042 7B68     		ldr	r3, [r7, #4]
 889 0044 D3F80C31 		ldr	r3, [r3, #268]
 890 0048 5A1C     		adds	r2, r3, #1
 891 004a 7B68     		ldr	r3, [r7, #4]
 892 004c C3F80C21 		str	r2, [r3, #268]
 236:..\..\..\HamFlyAPI\src/hamfly_core_gimbal.c ****     g->statistics.tx_bytes += sent;
 893              		.loc 1 236 0
 894 0050 7B68     		ldr	r3, [r7, #4]
 895 0052 D3F81021 		ldr	r2, [r3, #272]
 896 0056 FB68     		ldr	r3, [r7, #12]
 897 0058 1A44     		add	r2, r2, r3
ARM GAS  C:\Users\JENNEW~1\AppData\Local\Temp\ccBYNzIK.s 			page 21


 898 005a 7B68     		ldr	r3, [r7, #4]
 899 005c C3F81021 		str	r2, [r3, #272]
 237:..\..\..\HamFlyAPI\src/hamfly_core_gimbal.c **** 
 238:..\..\..\HamFlyAPI\src/hamfly_core_gimbal.c ****     return (g->statistics.uart_err_flags != 0u) ? HAMFLY_ERR_UART : HAMFLY_OK;
 900              		.loc 1 238 0
 901 0060 7B68     		ldr	r3, [r7, #4]
 902 0062 93F82231 		ldrb	r3, [r3, #290]	@ zero_extendqisi2
 903 0066 002B     		cmp	r3, #0
 904 0068 14BF     		ite	ne
 905 006a 0123     		movne	r3, #1
 906 006c 0023     		moveq	r3, #0
 907 006e DBB2     		uxtb	r3, r3
 908              	.L55:
 239:..\..\..\HamFlyAPI\src/hamfly_core_gimbal.c **** }
 909              		.loc 1 239 0
 910 0070 1846     		mov	r0, r3
 911 0072 1037     		adds	r7, r7, #16
 912              		.cfi_def_cfa_offset 16
 913 0074 BD46     		mov	sp, r7
 914              		.cfi_def_cfa_register 13
 915              		@ sp needed
 916 0076 B0BD     		pop	{r4, r5, r7, pc}
 917              	.L57:
 918              		.align	2
 919              	.L56:
 920 0078 00000000 		.word	FreeflyAPI
 921              		.cfi_endproc
 922              	.LFE9:
 923              		.size	hamfly_send_control, .-hamfly_send_control
 924              		.section	.text.hamfly_kill,"ax",%progbits
 925              		.align	2
 926              		.global	hamfly_kill
 927              		.thumb
 928              		.thumb_func
 929              		.type	hamfly_kill, %function
 930              	hamfly_kill:
 931              	.LFB10:
 240:..\..\..\HamFlyAPI\src/hamfly_core_gimbal.c **** 
 241:..\..\..\HamFlyAPI\src/hamfly_core_gimbal.c **** // ============================================================================
 242:..\..\..\HamFlyAPI\src/hamfly_core_gimbal.c **** // Hamfly Kill: Safely kill the gimbal.
 243:..\..\..\HamFlyAPI\src/hamfly_core_gimbal.c **** // ============================================================================
 244:..\..\..\HamFlyAPI\src/hamfly_core_gimbal.c **** void hamfly_kill(hamfly_gimbal_t *g)
 245:..\..\..\HamFlyAPI\src/hamfly_core_gimbal.c **** {
 932              		.loc 1 245 0
 933              		.cfi_startproc
 934              		@ args = 0, pretend = 0, frame = 32
 935              		@ frame_needed = 1, uses_anonymous_args = 0
 936 0000 B0B5     		push	{r4, r5, r7, lr}
 937              		.cfi_def_cfa_offset 16
 938              		.cfi_offset 4, -16
 939              		.cfi_offset 5, -12
 940              		.cfi_offset 7, -8
 941              		.cfi_offset 14, -4
 942 0002 88B0     		sub	sp, sp, #32
 943              		.cfi_def_cfa_offset 48
 944 0004 00AF     		add	r7, sp, #0
 945              		.cfi_def_cfa_register 7
ARM GAS  C:\Users\JENNEW~1\AppData\Local\Temp\ccBYNzIK.s 			page 22


 946 0006 7860     		str	r0, [r7, #4]
 246:..\..\..\HamFlyAPI\src/hamfly_core_gimbal.c ****     if (!g) return;
 947              		.loc 1 246 0
 948 0008 7B68     		ldr	r3, [r7, #4]
 949 000a 002B     		cmp	r3, #0
 950 000c 11D0     		beq	.L61
 247:..\..\..\HamFlyAPI\src/hamfly_core_gimbal.c ****     // Enable kill flag and send.
 248:..\..\..\HamFlyAPI\src/hamfly_core_gimbal.c ****     hamfly_control_t k = g->ctl;
 951              		.loc 1 248 0
 952 000e 7B68     		ldr	r3, [r7, #4]
 953 0010 07F10C04 		add	r4, r7, #12
 954 0014 03F10C05 		add	r5, r3, #12
 955 0018 0FCD     		ldmia	r5!, {r0, r1, r2, r3}
 956 001a 0FC4     		stmia	r4!, {r0, r1, r2, r3}
 957 001c 2B68     		ldr	r3, [r5]
 958 001e 2360     		str	r3, [r4]
 249:..\..\..\HamFlyAPI\src/hamfly_core_gimbal.c ****     k.kill = 1u;
 959              		.loc 1 249 0
 960 0020 0123     		movs	r3, #1
 961 0022 3B77     		strb	r3, [r7, #28]
 250:..\..\..\HamFlyAPI\src/hamfly_core_gimbal.c ****     (void)hamfly_send_control(g, &k);
 962              		.loc 1 250 0
 963 0024 07F10C03 		add	r3, r7, #12
 964 0028 1946     		mov	r1, r3
 965 002a 7868     		ldr	r0, [r7, #4]
 966 002c FFF7FEFF 		bl	hamfly_send_control
 967 0030 00E0     		b	.L58
 968              	.L61:
 246:..\..\..\HamFlyAPI\src/hamfly_core_gimbal.c ****     // Enable kill flag and send.
 969              		.loc 1 246 0
 970 0032 00BF     		nop
 971              	.L58:
 251:..\..\..\HamFlyAPI\src/hamfly_core_gimbal.c **** }
 972              		.loc 1 251 0
 973 0034 2037     		adds	r7, r7, #32
 974              		.cfi_def_cfa_offset 16
 975 0036 BD46     		mov	sp, r7
 976              		.cfi_def_cfa_register 13
 977              		@ sp needed
 978 0038 B0BD     		pop	{r4, r5, r7, pc}
 979              		.cfi_endproc
 980              	.LFE10:
 981              		.size	hamfly_kill, .-hamfly_kill
 982 003a 00BF     		.section	.text.hamfly_request_attr,"ax",%progbits
 983              		.align	2
 984              		.global	hamfly_request_attr
 985              		.thumb
 986              		.thumb_func
 987              		.type	hamfly_request_attr, %function
 988              	hamfly_request_attr:
 989              	.LFB11:
 252:..\..\..\HamFlyAPI\src/hamfly_core_gimbal.c **** 
 253:..\..\..\HamFlyAPI\src/hamfly_core_gimbal.c **** // ============================================================================
 254:..\..\..\HamFlyAPI\src/hamfly_core_gimbal.c **** // Hamfly Request Attribute: Request read of an attr ID.
 255:..\..\..\HamFlyAPI\src/hamfly_core_gimbal.c **** // ============================================================================
 256:..\..\..\HamFlyAPI\src/hamfly_core_gimbal.c **** hamfly_result_t hamfly_request_attr(hamfly_gimbal_t *g, uint16_t attr_id)
 257:..\..\..\HamFlyAPI\src/hamfly_core_gimbal.c **** {
ARM GAS  C:\Users\JENNEW~1\AppData\Local\Temp\ccBYNzIK.s 			page 23


 990              		.loc 1 257 0
 991              		.cfi_startproc
 992              		@ args = 0, pretend = 0, frame = 24
 993              		@ frame_needed = 1, uses_anonymous_args = 0
 994 0000 80B5     		push	{r7, lr}
 995              		.cfi_def_cfa_offset 8
 996              		.cfi_offset 7, -8
 997              		.cfi_offset 14, -4
 998 0002 88B0     		sub	sp, sp, #32
 999              		.cfi_def_cfa_offset 40
 1000 0004 02AF     		add	r7, sp, #8
 1001              		.cfi_def_cfa 7, 32
 1002 0006 7860     		str	r0, [r7, #4]
 1003 0008 0B46     		mov	r3, r1
 1004 000a 7B80     		strh	r3, [r7, #2]	@ movhi
 258:..\..\..\HamFlyAPI\src/hamfly_core_gimbal.c ****     // This function uses UART (nut just memory manipulation) so needs check.
 259:..\..\..\HamFlyAPI\src/hamfly_core_gimbal.c ****     if (!g || !g->hal.uart_putc) return HAMFLY_ERR_UART;
 1005              		.loc 1 259 0
 1006 000c 7B68     		ldr	r3, [r7, #4]
 1007 000e 002B     		cmp	r3, #0
 1008 0010 03D0     		beq	.L63
 1009              		.loc 1 259 0 is_stmt 0 discriminator 2
 1010 0012 7B68     		ldr	r3, [r7, #4]
 1011 0014 5B68     		ldr	r3, [r3, #4]
 1012 0016 002B     		cmp	r3, #0
 1013 0018 01D1     		bne	.L64
 1014              	.L63:
 1015              		.loc 1 259 0 discriminator 3
 1016 001a 0123     		movs	r3, #1
 1017 001c 3EE0     		b	.L66
 1018              	.L64:
 260:..\..\..\HamFlyAPI\src/hamfly_core_gimbal.c **** 
 261:..\..\..\HamFlyAPI\src/hamfly_core_gimbal.c ****     // Load safe defaults into QX packet.
 262:..\..\..\HamFlyAPI\src/hamfly_core_gimbal.c ****     QX_TxMsgOptions_t opts;
 263:..\..\..\HamFlyAPI\src/hamfly_core_gimbal.c ****     QX_InitTxOptions(&opts);
 1019              		.loc 1 263 0 is_stmt 1
 1020 001e 07F10C03 		add	r3, r7, #12
 1021 0022 1846     		mov	r0, r3
 1022 0024 FFF7FEFF 		bl	QX_InitTxOptions
 264:..\..\..\HamFlyAPI\src/hamfly_core_gimbal.c ****     opts.Target_Addr = (QX_DevId_e)g->gimbal_id;  // Set device ID.
 1023              		.loc 1 264 0
 1024 0028 7B68     		ldr	r3, [r7, #4]
 1025 002a 93F83033 		ldrb	r3, [r3, #816]	@ zero_extendqisi2
 1026 002e 3B74     		strb	r3, [r7, #16]
 265:..\..\..\HamFlyAPI\src/hamfly_core_gimbal.c ****     // Send the packet into the QX state machine to build the packet which
 266:..\..\..\HamFlyAPI\src/hamfly_core_gimbal.c ****     // gets pushed into the txbuf by the QX callback.
 267:..\..\..\HamFlyAPI\src/hamfly_core_gimbal.c ****     QX_SendPacket_Cli_Read(&QX_Clients[0], (uint32_t)attr_id,
 1027              		.loc 1 267 0
 1028 0030 7988     		ldrh	r1, [r7, #2]
 1029 0032 6B46     		mov	r3, sp
 1030 0034 07F11002 		add	r2, r7, #16
 1031 0038 1268     		ldr	r2, [r2]
 1032 003a 1046     		mov	r0, r2	@ movhi
 1033 003c 1880     		strh	r0, [r3]	@ movhi
 1034 003e 0233     		adds	r3, r3, #2
 1035 0040 120C     		lsrs	r2, r2, #16
 1036 0042 1A70     		strb	r2, [r3]
ARM GAS  C:\Users\JENNEW~1\AppData\Local\Temp\ccBYNzIK.s 			page 24


 1037 0044 FB68     		ldr	r3, [r7, #12]
 1038 0046 0022     		movs	r2, #0
 1039 0048 1648     		ldr	r0, .L67
 1040 004a FFF7FEFF 		bl	QX_SendPacket_Cli_Read
 268:..\..\..\HamFlyAPI\src/hamfly_core_gimbal.c ****                             HAMFLY_QX_PORT, opts);
 269:..\..\..\HamFlyAPI\src/hamfly_core_gimbal.c ****     
 270:..\..\..\HamFlyAPI\src/hamfly_core_gimbal.c ****     // Drain the txbuf into the HAL and count bytes sent.
 271:..\..\..\HamFlyAPI\src/hamfly_core_gimbal.c ****     uint32_t sent = drain_rb(g);
 1041              		.loc 1 271 0
 1042 004e 7868     		ldr	r0, [r7, #4]
 1043 0050 FFF7FEFF 		bl	drain_rb
 1044 0054 7861     		str	r0, [r7, #20]
 272:..\..\..\HamFlyAPI\src/hamfly_core_gimbal.c **** 
 273:..\..\..\HamFlyAPI\src/hamfly_core_gimbal.c ****     // Set pending atts for bookkeeping and wait for response.
 274:..\..\..\HamFlyAPI\src/hamfly_core_gimbal.c ****     g->pending_attr         = attr_id;
 1045              		.loc 1 274 0
 1046 0056 7B68     		ldr	r3, [r7, #4]
 1047 0058 7A88     		ldrh	r2, [r7, #2]	@ movhi
 1048 005a A3F83223 		strh	r2, [r3, #818]	@ movhi
 275:..\..\..\HamFlyAPI\src/hamfly_core_gimbal.c ****     g->pending_sent_ms      = 0u;   /* caller sets this from their tick */
 1049              		.loc 1 275 0
 1050 005e 7B68     		ldr	r3, [r7, #4]
 1051 0060 0022     		movs	r2, #0
 1052 0062 C3F83423 		str	r2, [r3, #820]
 276:..\..\..\HamFlyAPI\src/hamfly_core_gimbal.c ****     g->pending_ready        = false;
 1053              		.loc 1 276 0
 1054 0066 7B68     		ldr	r3, [r7, #4]
 1055 0068 0022     		movs	r2, #0
 1056 006a 83F83823 		strb	r2, [r3, #824]
 277:..\..\..\HamFlyAPI\src/hamfly_core_gimbal.c **** 
 278:..\..\..\HamFlyAPI\src/hamfly_core_gimbal.c ****     // Update stats.
 279:..\..\..\HamFlyAPI\src/hamfly_core_gimbal.c ****     g->statistics.tx_packets++;
 1057              		.loc 1 279 0
 1058 006e 7B68     		ldr	r3, [r7, #4]
 1059 0070 D3F80C31 		ldr	r3, [r3, #268]
 1060 0074 5A1C     		adds	r2, r3, #1
 1061 0076 7B68     		ldr	r3, [r7, #4]
 1062 0078 C3F80C21 		str	r2, [r3, #268]
 280:..\..\..\HamFlyAPI\src/hamfly_core_gimbal.c ****     g->statistics.tx_bytes += sent;
 1063              		.loc 1 280 0
 1064 007c 7B68     		ldr	r3, [r7, #4]
 1065 007e D3F81021 		ldr	r2, [r3, #272]
 1066 0082 7B69     		ldr	r3, [r7, #20]
 1067 0084 1A44     		add	r2, r2, r3
 1068 0086 7B68     		ldr	r3, [r7, #4]
 1069 0088 C3F81021 		str	r2, [r3, #272]
 281:..\..\..\HamFlyAPI\src/hamfly_core_gimbal.c **** 
 282:..\..\..\HamFlyAPI\src/hamfly_core_gimbal.c ****     // Return UART error if any occurred during this process.
 283:..\..\..\HamFlyAPI\src/hamfly_core_gimbal.c ****     return (g->statistics.uart_err_flags != 0u) ? HAMFLY_ERR_UART : HAMFLY_OK;
 1070              		.loc 1 283 0
 1071 008c 7B68     		ldr	r3, [r7, #4]
 1072 008e 93F82231 		ldrb	r3, [r3, #290]	@ zero_extendqisi2
 1073 0092 002B     		cmp	r3, #0
 1074 0094 14BF     		ite	ne
 1075 0096 0123     		movne	r3, #1
 1076 0098 0023     		moveq	r3, #0
 1077 009a DBB2     		uxtb	r3, r3
ARM GAS  C:\Users\JENNEW~1\AppData\Local\Temp\ccBYNzIK.s 			page 25


 1078              	.L66:
 284:..\..\..\HamFlyAPI\src/hamfly_core_gimbal.c **** }
 1079              		.loc 1 284 0 discriminator 1
 1080 009c 1846     		mov	r0, r3
 1081 009e 1837     		adds	r7, r7, #24
 1082              		.cfi_def_cfa_offset 8
 1083 00a0 BD46     		mov	sp, r7
 1084              		.cfi_def_cfa_register 13
 1085              		@ sp needed
 1086 00a2 80BD     		pop	{r7, pc}
 1087              	.L68:
 1088              		.align	2
 1089              	.L67:
 1090 00a4 00000000 		.word	QX_Clients
 1091              		.cfi_endproc
 1092              	.LFE11:
 1093              		.size	hamfly_request_attr, .-hamfly_request_attr
 1094              		.section	.text.hamfly_request_attr_capture,"ax",%progbits
 1095              		.align	2
 1096              		.global	hamfly_request_attr_capture
 1097              		.thumb
 1098              		.thumb_func
 1099              		.type	hamfly_request_attr_capture, %function
 1100              	hamfly_request_attr_capture:
 1101              	.LFB12:
 285:..\..\..\HamFlyAPI\src/hamfly_core_gimbal.c **** 
 286:..\..\..\HamFlyAPI\src/hamfly_core_gimbal.c **** // ============================================================================
 287:..\..\..\HamFlyAPI\src/hamfly_core_gimbal.c **** // Hamfly Capture Attribute Response: Request read of an attr ID + Raw bytes.
 288:..\..\..\HamFlyAPI\src/hamfly_core_gimbal.c **** // Helper for testing or logging exact bytes.
 289:..\..\..\HamFlyAPI\src/hamfly_core_gimbal.c **** // This is otherwise the same as hamfly_request_attr, for normal use keep with
 290:..\..\..\HamFlyAPI\src/hamfly_core_gimbal.c **** // hamfly_request_attr and use the parsed telemetry in hamfly_telemetry_t.
 291:..\..\..\HamFlyAPI\src/hamfly_core_gimbal.c **** // ============================================================================
 292:..\..\..\HamFlyAPI\src/hamfly_core_gimbal.c **** hamfly_result_t hamfly_request_attr_capture(hamfly_gimbal_t *g,
 293:..\..\..\HamFlyAPI\src/hamfly_core_gimbal.c ****                                               uint16_t attr_id,
 294:..\..\..\HamFlyAPI\src/hamfly_core_gimbal.c ****                                               uint8_t *user_txbuf,
 295:..\..\..\HamFlyAPI\src/hamfly_core_gimbal.c ****                                               uint8_t  user_txbuf_max,
 296:..\..\..\HamFlyAPI\src/hamfly_core_gimbal.c ****                                               uint8_t *tx_len_out)
 297:..\..\..\HamFlyAPI\src/hamfly_core_gimbal.c **** {
 1102              		.loc 1 297 0
 1103              		.cfi_startproc
 1104              		@ args = 4, pretend = 0, frame = 32
 1105              		@ frame_needed = 1, uses_anonymous_args = 0
 1106 0000 80B5     		push	{r7, lr}
 1107              		.cfi_def_cfa_offset 8
 1108              		.cfi_offset 7, -8
 1109              		.cfi_offset 14, -4
 1110 0002 8AB0     		sub	sp, sp, #40
 1111              		.cfi_def_cfa_offset 48
 1112 0004 02AF     		add	r7, sp, #8
 1113              		.cfi_def_cfa 7, 40
 1114 0006 F860     		str	r0, [r7, #12]
 1115 0008 7A60     		str	r2, [r7, #4]
 1116 000a 1A46     		mov	r2, r3
 1117 000c 0B46     		mov	r3, r1	@ movhi
 1118 000e 7B81     		strh	r3, [r7, #10]	@ movhi
 1119 0010 1346     		mov	r3, r2
 1120 0012 7B72     		strb	r3, [r7, #9]
ARM GAS  C:\Users\JENNEW~1\AppData\Local\Temp\ccBYNzIK.s 			page 26


 298:..\..\..\HamFlyAPI\src/hamfly_core_gimbal.c ****     // This function uses UART (nut just memory manipulation) so needs check.
 299:..\..\..\HamFlyAPI\src/hamfly_core_gimbal.c ****     if (!g || !g->hal.uart_putc) return HAMFLY_ERR_UART;
 1121              		.loc 1 299 0
 1122 0014 FB68     		ldr	r3, [r7, #12]
 1123 0016 002B     		cmp	r3, #0
 1124 0018 03D0     		beq	.L70
 1125              		.loc 1 299 0 is_stmt 0 discriminator 2
 1126 001a FB68     		ldr	r3, [r7, #12]
 1127 001c 5B68     		ldr	r3, [r3, #4]
 1128 001e 002B     		cmp	r3, #0
 1129 0020 01D1     		bne	.L71
 1130              	.L70:
 1131              		.loc 1 299 0 discriminator 3
 1132 0022 0123     		movs	r3, #1
 1133 0024 6AE0     		b	.L77
 1134              	.L71:
 300:..\..\..\HamFlyAPI\src/hamfly_core_gimbal.c **** 
 301:..\..\..\HamFlyAPI\src/hamfly_core_gimbal.c ****     // Load safe defaults into QX packet.
 302:..\..\..\HamFlyAPI\src/hamfly_core_gimbal.c ****     QX_TxMsgOptions_t opts;
 303:..\..\..\HamFlyAPI\src/hamfly_core_gimbal.c ****     QX_InitTxOptions(&opts);
 1135              		.loc 1 303 0 is_stmt 1
 1136 0026 07F11403 		add	r3, r7, #20
 1137 002a 1846     		mov	r0, r3
 1138 002c FFF7FEFF 		bl	QX_InitTxOptions
 304:..\..\..\HamFlyAPI\src/hamfly_core_gimbal.c ****     opts.Target_Addr = (QX_DevId_e)g->gimbal_id;  // Set device ID.
 1139              		.loc 1 304 0
 1140 0030 FB68     		ldr	r3, [r7, #12]
 1141 0032 93F83033 		ldrb	r3, [r3, #816]	@ zero_extendqisi2
 1142 0036 3B76     		strb	r3, [r7, #24]
 305:..\..\..\HamFlyAPI\src/hamfly_core_gimbal.c ****     // Send the packet into the QX state machine to build the packet which
 306:..\..\..\HamFlyAPI\src/hamfly_core_gimbal.c ****     // gets pushed into the txbuf by the QX callback.
 307:..\..\..\HamFlyAPI\src/hamfly_core_gimbal.c ****     QX_SendPacket_Cli_Read(&QX_Clients[0], (uint32_t)attr_id,
 1143              		.loc 1 307 0
 1144 0038 7989     		ldrh	r1, [r7, #10]
 1145 003a 6B46     		mov	r3, sp
 1146 003c 07F11802 		add	r2, r7, #24
 1147 0040 1268     		ldr	r2, [r2]
 1148 0042 1046     		mov	r0, r2	@ movhi
 1149 0044 1880     		strh	r0, [r3]	@ movhi
 1150 0046 0233     		adds	r3, r3, #2
 1151 0048 120C     		lsrs	r2, r2, #16
 1152 004a 1A70     		strb	r2, [r3]
 1153 004c 7B69     		ldr	r3, [r7, #20]
 1154 004e 0022     		movs	r2, #0
 1155 0050 2C48     		ldr	r0, .L78
 1156 0052 FFF7FEFF 		bl	QX_SendPacket_Cli_Read
 308:..\..\..\HamFlyAPI\src/hamfly_core_gimbal.c ****                             HAMFLY_QX_PORT, opts);
 309:..\..\..\HamFlyAPI\src/hamfly_core_gimbal.c **** 
 310:..\..\..\HamFlyAPI\src/hamfly_core_gimbal.c ****     uint8_t  byte;
 311:..\..\..\HamFlyAPI\src/hamfly_core_gimbal.c ****     uint32_t sent = 0u;
 1157              		.loc 1 311 0
 1158 0056 0023     		movs	r3, #0
 1159 0058 FB61     		str	r3, [r7, #28]
 312:..\..\..\HamFlyAPI\src/hamfly_core_gimbal.c ****     uint8_t  cap  = 0u;
 1160              		.loc 1 312 0
 1161 005a 0023     		movs	r3, #0
 1162 005c FB76     		strb	r3, [r7, #27]
ARM GAS  C:\Users\JENNEW~1\AppData\Local\Temp\ccBYNzIK.s 			page 27


 313:..\..\..\HamFlyAPI\src/hamfly_core_gimbal.c ****     // Drain the txbuf one by one and parse into user_txbuf.
 314:..\..\..\HamFlyAPI\src/hamfly_core_gimbal.c ****     while (hamfly_rb_pop(&g->txbuf, &byte)) {
 1163              		.loc 1 314 0
 1164 005e 18E0     		b	.L73
 1165              	.L75:
 315:..\..\..\HamFlyAPI\src/hamfly_core_gimbal.c ****         g->hal.uart_putc(g->hal.ctx, byte);
 1166              		.loc 1 315 0
 1167 0060 FB68     		ldr	r3, [r7, #12]
 1168 0062 5B68     		ldr	r3, [r3, #4]
 1169 0064 FA68     		ldr	r2, [r7, #12]
 1170 0066 1268     		ldr	r2, [r2]
 1171 0068 F97C     		ldrb	r1, [r7, #19]	@ zero_extendqisi2
 1172 006a 1046     		mov	r0, r2
 1173 006c 9847     		blx	r3
 316:..\..\..\HamFlyAPI\src/hamfly_core_gimbal.c ****         if (user_txbuf && cap < user_txbuf_max) user_txbuf[cap++] = byte;
 1174              		.loc 1 316 0
 1175 006e 7B68     		ldr	r3, [r7, #4]
 1176 0070 002B     		cmp	r3, #0
 1177 0072 0BD0     		beq	.L74
 1178              		.loc 1 316 0 is_stmt 0 discriminator 1
 1179 0074 FA7E     		ldrb	r2, [r7, #27]	@ zero_extendqisi2
 1180 0076 7B7A     		ldrb	r3, [r7, #9]	@ zero_extendqisi2
 1181 0078 9A42     		cmp	r2, r3
 1182 007a 07D2     		bcs	.L74
 1183              		.loc 1 316 0 discriminator 2
 1184 007c FB7E     		ldrb	r3, [r7, #27]	@ zero_extendqisi2
 1185 007e 5A1C     		adds	r2, r3, #1
 1186 0080 FA76     		strb	r2, [r7, #27]
 1187 0082 1A46     		mov	r2, r3
 1188 0084 7B68     		ldr	r3, [r7, #4]
 1189 0086 1344     		add	r3, r3, r2
 1190 0088 FA7C     		ldrb	r2, [r7, #19]	@ zero_extendqisi2
 1191 008a 1A70     		strb	r2, [r3]
 1192              	.L74:
 317:..\..\..\HamFlyAPI\src/hamfly_core_gimbal.c ****         sent++;
 1193              		.loc 1 317 0 is_stmt 1
 1194 008c FB69     		ldr	r3, [r7, #28]
 1195 008e 0133     		adds	r3, r3, #1
 1196 0090 FB61     		str	r3, [r7, #28]
 1197              	.L73:
 314:..\..\..\HamFlyAPI\src/hamfly_core_gimbal.c ****         g->hal.uart_putc(g->hal.ctx, byte);
 1198              		.loc 1 314 0
 1199 0092 FB68     		ldr	r3, [r7, #12]
 1200 0094 03F22A23 		addw	r3, r3, #554
 1201 0098 07F11302 		add	r2, r7, #19
 1202 009c 1146     		mov	r1, r2
 1203 009e 1846     		mov	r0, r3
 1204 00a0 FFF7FEFF 		bl	hamfly_rb_pop
 1205 00a4 0346     		mov	r3, r0
 1206 00a6 002B     		cmp	r3, #0
 1207 00a8 DAD1     		bne	.L75
 318:..\..\..\HamFlyAPI\src/hamfly_core_gimbal.c ****     }
 319:..\..\..\HamFlyAPI\src/hamfly_core_gimbal.c ****     if (tx_len_out) *tx_len_out = cap;
 1208              		.loc 1 319 0
 1209 00aa BB6A     		ldr	r3, [r7, #40]
 1210 00ac 002B     		cmp	r3, #0
 1211 00ae 02D0     		beq	.L76
ARM GAS  C:\Users\JENNEW~1\AppData\Local\Temp\ccBYNzIK.s 			page 28


 1212              		.loc 1 319 0 is_stmt 0 discriminator 1
 1213 00b0 BB6A     		ldr	r3, [r7, #40]
 1214 00b2 FA7E     		ldrb	r2, [r7, #27]
 1215 00b4 1A70     		strb	r2, [r3]
 1216              	.L76:
 320:..\..\..\HamFlyAPI\src/hamfly_core_gimbal.c **** 
 321:..\..\..\HamFlyAPI\src/hamfly_core_gimbal.c ****     // Set pending atts for bookkeeping and wait for response.
 322:..\..\..\HamFlyAPI\src/hamfly_core_gimbal.c ****     g->pending_attr    = attr_id;
 1217              		.loc 1 322 0 is_stmt 1
 1218 00b6 FB68     		ldr	r3, [r7, #12]
 1219 00b8 7A89     		ldrh	r2, [r7, #10]	@ movhi
 1220 00ba A3F83223 		strh	r2, [r3, #818]	@ movhi
 323:..\..\..\HamFlyAPI\src/hamfly_core_gimbal.c ****     g->pending_sent_ms = 0u;
 1221              		.loc 1 323 0
 1222 00be FB68     		ldr	r3, [r7, #12]
 1223 00c0 0022     		movs	r2, #0
 1224 00c2 C3F83423 		str	r2, [r3, #820]
 324:..\..\..\HamFlyAPI\src/hamfly_core_gimbal.c ****     g->pending_ready   = false;
 1225              		.loc 1 324 0
 1226 00c6 FB68     		ldr	r3, [r7, #12]
 1227 00c8 0022     		movs	r2, #0
 1228 00ca 83F83823 		strb	r2, [r3, #824]
 325:..\..\..\HamFlyAPI\src/hamfly_core_gimbal.c **** 
 326:..\..\..\HamFlyAPI\src/hamfly_core_gimbal.c ****     // Update stats.
 327:..\..\..\HamFlyAPI\src/hamfly_core_gimbal.c ****     g->statistics.tx_packets++;
 1229              		.loc 1 327 0
 1230 00ce FB68     		ldr	r3, [r7, #12]
 1231 00d0 D3F80C31 		ldr	r3, [r3, #268]
 1232 00d4 5A1C     		adds	r2, r3, #1
 1233 00d6 FB68     		ldr	r3, [r7, #12]
 1234 00d8 C3F80C21 		str	r2, [r3, #268]
 328:..\..\..\HamFlyAPI\src/hamfly_core_gimbal.c ****     g->statistics.tx_bytes += sent;
 1235              		.loc 1 328 0
 1236 00dc FB68     		ldr	r3, [r7, #12]
 1237 00de D3F81021 		ldr	r2, [r3, #272]
 1238 00e2 FB69     		ldr	r3, [r7, #28]
 1239 00e4 1A44     		add	r2, r2, r3
 1240 00e6 FB68     		ldr	r3, [r7, #12]
 1241 00e8 C3F81021 		str	r2, [r3, #272]
 329:..\..\..\HamFlyAPI\src/hamfly_core_gimbal.c **** 
 330:..\..\..\HamFlyAPI\src/hamfly_core_gimbal.c ****     // Return UART error if any occurred during this process.
 331:..\..\..\HamFlyAPI\src/hamfly_core_gimbal.c ****     return (g->statistics.uart_err_flags != 0u) ? HAMFLY_ERR_UART : HAMFLY_OK;
 1242              		.loc 1 331 0
 1243 00ec FB68     		ldr	r3, [r7, #12]
 1244 00ee 93F82231 		ldrb	r3, [r3, #290]	@ zero_extendqisi2
 1245 00f2 002B     		cmp	r3, #0
 1246 00f4 14BF     		ite	ne
 1247 00f6 0123     		movne	r3, #1
 1248 00f8 0023     		moveq	r3, #0
 1249 00fa DBB2     		uxtb	r3, r3
 1250              	.L77:
 332:..\..\..\HamFlyAPI\src/hamfly_core_gimbal.c **** }
 1251              		.loc 1 332 0 discriminator 1
 1252 00fc 1846     		mov	r0, r3
 1253 00fe 2037     		adds	r7, r7, #32
 1254              		.cfi_def_cfa_offset 8
 1255 0100 BD46     		mov	sp, r7
ARM GAS  C:\Users\JENNEW~1\AppData\Local\Temp\ccBYNzIK.s 			page 29


 1256              		.cfi_def_cfa_register 13
 1257              		@ sp needed
 1258 0102 80BD     		pop	{r7, pc}
 1259              	.L79:
 1260              		.align	2
 1261              	.L78:
 1262 0104 00000000 		.word	QX_Clients
 1263              		.cfi_endproc
 1264              	.LFE12:
 1265              		.size	hamfly_request_attr_capture, .-hamfly_request_attr_capture
 1266              		.section	.text.hamfly_write_attr_u8,"ax",%progbits
 1267              		.align	2
 1268              		.global	hamfly_write_attr_u8
 1269              		.thumb
 1270              		.thumb_func
 1271              		.type	hamfly_write_attr_u8, %function
 1272              	hamfly_write_attr_u8:
 1273              	.LFB13:
 333:..\..\..\HamFlyAPI\src/hamfly_core_gimbal.c **** 
 334:..\..\..\HamFlyAPI\src/hamfly_core_gimbal.c **** // ============================================================================
 335:..\..\..\HamFlyAPI\src/hamfly_core_gimbal.c **** // Hamfly Write Attribute U8: Request write of an attr ID with a single byte.
 336:..\..\..\HamFlyAPI\src/hamfly_core_gimbal.c **** // Handles single and two-byte varints for the attr ID by bypassing the QX
 337:..\..\..\HamFlyAPI\src/hamfly_core_gimbal.c **** // state machine and building the packet directly into the txbuf.
 338:..\..\..\HamFlyAPI\src/hamfly_core_gimbal.c **** // This is an extension, not part of the FreeflyAPI.
 339:..\..\..\HamFlyAPI\src/hamfly_core_gimbal.c **** //
 340:..\..\..\HamFlyAPI\src/hamfly_core_gimbal.c **** // Example usecases:
 341:..\..\..\HamFlyAPI\src/hamfly_core_gimbal.c **** //  - Request write of 0x01 to 382 to reset the heading.
 342:..\..\..\HamFlyAPI\src/hamfly_core_gimbal.c **** //  - Request write of a two-byte varint attr like 0x80 (set gimbal ID).
 343:..\..\..\HamFlyAPI\src/hamfly_core_gimbal.c **** //  
 344:..\..\..\HamFlyAPI\src/hamfly_core_gimbal.c **** // Issues:
 345:..\..\..\HamFlyAPI\src/hamfly_core_gimbal.c **** //  - Many of these are unconfirmed and only exist due to BLE sniffing.
 346:..\..\..\HamFlyAPI\src/hamfly_core_gimbal.c **** //  - Some appear to need more bytes, so moving to an array of bytes is needed. 
 347:..\..\..\HamFlyAPI\src/hamfly_core_gimbal.c **** // ============================================================================
 348:..\..\..\HamFlyAPI\src/hamfly_core_gimbal.c **** hamfly_result_t hamfly_write_attr_u8(hamfly_gimbal_t *g,
 349:..\..\..\HamFlyAPI\src/hamfly_core_gimbal.c ****                                       uint16_t attr_id,
 350:..\..\..\HamFlyAPI\src/hamfly_core_gimbal.c ****                                       uint8_t  value)
 351:..\..\..\HamFlyAPI\src/hamfly_core_gimbal.c **** {
 1274              		.loc 1 351 0
 1275              		.cfi_startproc
 1276              		@ args = 0, pretend = 0, frame = 32
 1277              		@ frame_needed = 1, uses_anonymous_args = 0
 1278 0000 80B5     		push	{r7, lr}
 1279              		.cfi_def_cfa_offset 8
 1280              		.cfi_offset 7, -8
 1281              		.cfi_offset 14, -4
 1282 0002 88B0     		sub	sp, sp, #32
 1283              		.cfi_def_cfa_offset 40
 1284 0004 00AF     		add	r7, sp, #0
 1285              		.cfi_def_cfa_register 7
 1286 0006 7860     		str	r0, [r7, #4]
 1287 0008 0B46     		mov	r3, r1
 1288 000a 7B80     		strh	r3, [r7, #2]	@ movhi
 1289 000c 1346     		mov	r3, r2
 1290 000e 7B70     		strb	r3, [r7, #1]
 352:..\..\..\HamFlyAPI\src/hamfly_core_gimbal.c ****     if (!g || !g->hal.uart_putc) return HAMFLY_ERR_UART;
 1291              		.loc 1 352 0
 1292 0010 7B68     		ldr	r3, [r7, #4]
ARM GAS  C:\Users\JENNEW~1\AppData\Local\Temp\ccBYNzIK.s 			page 30


 1293 0012 002B     		cmp	r3, #0
 1294 0014 03D0     		beq	.L81
 1295              		.loc 1 352 0 is_stmt 0 discriminator 2
 1296 0016 7B68     		ldr	r3, [r7, #4]
 1297 0018 5B68     		ldr	r3, [r3, #4]
 1298 001a 002B     		cmp	r3, #0
 1299 001c 01D1     		bne	.L82
 1300              	.L81:
 1301              		.loc 1 352 0 discriminator 3
 1302 001e 0123     		movs	r3, #1
 1303 0020 DCE0     		b	.L90
 1304              	.L82:
 353:..\..\..\HamFlyAPI\src/hamfly_core_gimbal.c **** 
 354:..\..\..\HamFlyAPI\src/hamfly_core_gimbal.c ****     uint8_t pkt[13];
 355:..\..\..\HamFlyAPI\src/hamfly_core_gimbal.c ****     uint8_t idx = 0u, i;
 1305              		.loc 1 355 0 is_stmt 1
 1306 0022 0023     		movs	r3, #0
 1307 0024 FB77     		strb	r3, [r7, #31]
 356:..\..\..\HamFlyAPI\src/hamfly_core_gimbal.c **** 
 357:..\..\..\HamFlyAPI\src/hamfly_core_gimbal.c ****     // Begin packet.
 358:..\..\..\HamFlyAPI\src/hamfly_core_gimbal.c ****     pkt[idx++] = 0x51u;  // Q
 1308              		.loc 1 358 0
 1309 0026 FB7F     		ldrb	r3, [r7, #31]	@ zero_extendqisi2
 1310 0028 5A1C     		adds	r2, r3, #1
 1311 002a FA77     		strb	r2, [r7, #31]
 1312 002c 07F12002 		add	r2, r7, #32
 1313 0030 1344     		add	r3, r3, r2
 1314 0032 5122     		movs	r2, #81
 1315 0034 03F8182C 		strb	r2, [r3, #-24]
 359:..\..\..\HamFlyAPI\src/hamfly_core_gimbal.c ****     pkt[idx++] = 0x58u;  // X
 1316              		.loc 1 359 0
 1317 0038 FB7F     		ldrb	r3, [r7, #31]	@ zero_extendqisi2
 1318 003a 5A1C     		adds	r2, r3, #1
 1319 003c FA77     		strb	r2, [r7, #31]
 1320 003e 07F12002 		add	r2, r7, #32
 1321 0042 1344     		add	r3, r3, r2
 1322 0044 5822     		movs	r2, #88
 1323 0046 03F8182C 		strb	r2, [r3, #-24]
 360:..\..\..\HamFlyAPI\src/hamfly_core_gimbal.c **** 
 361:..\..\..\HamFlyAPI\src/hamfly_core_gimbal.c ****     // Set attr ID as varint.
 362:..\..\..\HamFlyAPI\src/hamfly_core_gimbal.c ****     if (attr_id < 128u) {
 1324              		.loc 1 362 0
 1325 004a 7B88     		ldrh	r3, [r7, #2]
 1326 004c 7F2B     		cmp	r3, #127
 1327 004e 13D8     		bhi	.L84
 363:..\..\..\HamFlyAPI\src/hamfly_core_gimbal.c ****         pkt[idx++] = 0x07u;
 1328              		.loc 1 363 0
 1329 0050 FB7F     		ldrb	r3, [r7, #31]	@ zero_extendqisi2
 1330 0052 5A1C     		adds	r2, r3, #1
 1331 0054 FA77     		strb	r2, [r7, #31]
 1332 0056 07F12002 		add	r2, r7, #32
 1333 005a 1344     		add	r3, r3, r2
 1334 005c 0722     		movs	r2, #7
 1335 005e 03F8182C 		strb	r2, [r3, #-24]
 364:..\..\..\HamFlyAPI\src/hamfly_core_gimbal.c ****         pkt[idx++] = (uint8_t)attr_id;
 1336              		.loc 1 364 0
 1337 0062 FB7F     		ldrb	r3, [r7, #31]	@ zero_extendqisi2
ARM GAS  C:\Users\JENNEW~1\AppData\Local\Temp\ccBYNzIK.s 			page 31


 1338 0064 5A1C     		adds	r2, r3, #1
 1339 0066 FA77     		strb	r2, [r7, #31]
 1340 0068 7A88     		ldrh	r2, [r7, #2]	@ movhi
 1341 006a D2B2     		uxtb	r2, r2
 1342 006c 07F12001 		add	r1, r7, #32
 1343 0070 0B44     		add	r3, r3, r1
 1344 0072 03F8182C 		strb	r2, [r3, #-24]
 1345 0076 23E0     		b	.L85
 1346              	.L84:
 365:..\..\..\HamFlyAPI\src/hamfly_core_gimbal.c ****     } else {
 366:..\..\..\HamFlyAPI\src/hamfly_core_gimbal.c ****         pkt[idx++] = 0x08u;
 1347              		.loc 1 366 0
 1348 0078 FB7F     		ldrb	r3, [r7, #31]	@ zero_extendqisi2
 1349 007a 5A1C     		adds	r2, r3, #1
 1350 007c FA77     		strb	r2, [r7, #31]
 1351 007e 07F12002 		add	r2, r7, #32
 1352 0082 1344     		add	r3, r3, r2
 1353 0084 0822     		movs	r2, #8
 1354 0086 03F8182C 		strb	r2, [r3, #-24]
 367:..\..\..\HamFlyAPI\src/hamfly_core_gimbal.c ****         pkt[idx++] = (uint8_t)((attr_id & 0x7Fu) | 0x80u);
 1355              		.loc 1 367 0
 1356 008a FB7F     		ldrb	r3, [r7, #31]	@ zero_extendqisi2
 1357 008c 5A1C     		adds	r2, r3, #1
 1358 008e FA77     		strb	r2, [r7, #31]
 1359 0090 1946     		mov	r1, r3
 1360 0092 7B88     		ldrh	r3, [r7, #2]	@ movhi
 1361 0094 DBB2     		uxtb	r3, r3
 1362 0096 63F07F03 		orn	r3, r3, #127
 1363 009a DAB2     		uxtb	r2, r3
 1364 009c 07F12003 		add	r3, r7, #32
 1365 00a0 0B44     		add	r3, r3, r1
 1366 00a2 03F8182C 		strb	r2, [r3, #-24]
 368:..\..\..\HamFlyAPI\src/hamfly_core_gimbal.c ****         pkt[idx++] = (uint8_t)(attr_id >> 7u);
 1367              		.loc 1 368 0
 1368 00a6 FB7F     		ldrb	r3, [r7, #31]	@ zero_extendqisi2
 1369 00a8 5A1C     		adds	r2, r3, #1
 1370 00aa FA77     		strb	r2, [r7, #31]
 1371 00ac 1946     		mov	r1, r3
 1372 00ae 7B88     		ldrh	r3, [r7, #2]
 1373 00b0 DB09     		lsrs	r3, r3, #7
 1374 00b2 9BB2     		uxth	r3, r3
 1375 00b4 DAB2     		uxtb	r2, r3
 1376 00b6 07F12003 		add	r3, r7, #32
 1377 00ba 0B44     		add	r3, r3, r1
 1378 00bc 03F8182C 		strb	r2, [r3, #-24]
 1379              	.L85:
 369:..\..\..\HamFlyAPI\src/hamfly_core_gimbal.c ****     }
 370:..\..\..\HamFlyAPI\src/hamfly_core_gimbal.c ****     pkt[idx++] = 0x02u;  // Options byte -> write with no response
 1380              		.loc 1 370 0
 1381 00c0 FB7F     		ldrb	r3, [r7, #31]	@ zero_extendqisi2
 1382 00c2 5A1C     		adds	r2, r3, #1
 1383 00c4 FA77     		strb	r2, [r7, #31]
 1384 00c6 07F12002 		add	r2, r7, #32
 1385 00ca 1344     		add	r3, r3, r2
 1386 00cc 0222     		movs	r2, #2
 1387 00ce 03F8182C 		strb	r2, [r3, #-24]
 371:..\..\..\HamFlyAPI\src/hamfly_core_gimbal.c ****     pkt[idx++] = 0x0Au;  // SOURCE -> QX_DEV_ID_MOVI_API_CONTROLLER
ARM GAS  C:\Users\JENNEW~1\AppData\Local\Temp\ccBYNzIK.s 			page 32


 1388              		.loc 1 371 0
 1389 00d2 FB7F     		ldrb	r3, [r7, #31]	@ zero_extendqisi2
 1390 00d4 5A1C     		adds	r2, r3, #1
 1391 00d6 FA77     		strb	r2, [r7, #31]
 1392 00d8 07F12002 		add	r2, r7, #32
 1393 00dc 1344     		add	r3, r3, r2
 1394 00de 0A22     		movs	r2, #10
 1395 00e0 03F8182C 		strb	r2, [r3, #-24]
 372:..\..\..\HamFlyAPI\src/hamfly_core_gimbal.c ****     pkt[idx++] = (uint8_t)g->gimbal_id;
 1396              		.loc 1 372 0
 1397 00e4 FB7F     		ldrb	r3, [r7, #31]	@ zero_extendqisi2
 1398 00e6 5A1C     		adds	r2, r3, #1
 1399 00e8 FA77     		strb	r2, [r7, #31]
 1400 00ea 1946     		mov	r1, r3
 1401 00ec 7B68     		ldr	r3, [r7, #4]
 1402 00ee 93F83023 		ldrb	r2, [r3, #816]	@ zero_extendqisi2
 1403 00f2 07F12003 		add	r3, r7, #32
 1404 00f6 0B44     		add	r3, r3, r1
 1405 00f8 03F8182C 		strb	r2, [r3, #-24]
 373:..\..\..\HamFlyAPI\src/hamfly_core_gimbal.c ****     pkt[idx++] = 0x00u;  // Transmit request ID (TRID)
 1406              		.loc 1 373 0
 1407 00fc FB7F     		ldrb	r3, [r7, #31]	@ zero_extendqisi2
 1408 00fe 5A1C     		adds	r2, r3, #1
 1409 0100 FA77     		strb	r2, [r7, #31]
 1410 0102 07F12002 		add	r2, r7, #32
 1411 0106 1344     		add	r3, r3, r2
 1412 0108 0022     		movs	r2, #0
 1413 010a 03F8182C 		strb	r2, [r3, #-24]
 374:..\..\..\HamFlyAPI\src/hamfly_core_gimbal.c ****     pkt[idx++] = 0x00u;  // Receive request ID (RRID)
 1414              		.loc 1 374 0
 1415 010e FB7F     		ldrb	r3, [r7, #31]	@ zero_extendqisi2
 1416 0110 5A1C     		adds	r2, r3, #1
 1417 0112 FA77     		strb	r2, [r7, #31]
 1418 0114 07F12002 		add	r2, r7, #32
 1419 0118 1344     		add	r3, r3, r2
 1420 011a 0022     		movs	r2, #0
 1421 011c 03F8182C 		strb	r2, [r3, #-24]
 375:..\..\..\HamFlyAPI\src/hamfly_core_gimbal.c ****     pkt[idx++] = value;  // Byte you want to write
 1422              		.loc 1 375 0
 1423 0120 FB7F     		ldrb	r3, [r7, #31]	@ zero_extendqisi2
 1424 0122 5A1C     		adds	r2, r3, #1
 1425 0124 FA77     		strb	r2, [r7, #31]
 1426 0126 07F12002 		add	r2, r7, #32
 1427 012a 1344     		add	r3, r3, r2
 1428 012c 7A78     		ldrb	r2, [r7, #1]
 1429 012e 03F8182C 		strb	r2, [r3, #-24]
 376:..\..\..\HamFlyAPI\src/hamfly_core_gimbal.c **** 
 377:..\..\..\HamFlyAPI\src/hamfly_core_gimbal.c ****     // Append the checksum byte;
 378:..\..\..\HamFlyAPI\src/hamfly_core_gimbal.c ****     // The 8-bit inverted sum of all bytes after the header.
 379:..\..\..\HamFlyAPI\src/hamfly_core_gimbal.c ****     uint16_t sum = 0u;
 1430              		.loc 1 379 0
 1431 0132 0023     		movs	r3, #0
 1432 0134 BB83     		strh	r3, [r7, #28]	@ movhi
 380:..\..\..\HamFlyAPI\src/hamfly_core_gimbal.c ****     for (i = 3u; i < idx; i++) sum += pkt[i];
 1433              		.loc 1 380 0
 1434 0136 0323     		movs	r3, #3
 1435 0138 BB77     		strb	r3, [r7, #30]
ARM GAS  C:\Users\JENNEW~1\AppData\Local\Temp\ccBYNzIK.s 			page 33


 1436 013a 0CE0     		b	.L86
 1437              	.L87:
 1438              		.loc 1 380 0 is_stmt 0 discriminator 3
 1439 013c BB7F     		ldrb	r3, [r7, #30]	@ zero_extendqisi2
 1440 013e 07F12002 		add	r2, r7, #32
 1441 0142 1344     		add	r3, r3, r2
 1442 0144 13F8183C 		ldrb	r3, [r3, #-24]	@ zero_extendqisi2
 1443 0148 9AB2     		uxth	r2, r3
 1444 014a BB8B     		ldrh	r3, [r7, #28]	@ movhi
 1445 014c 1344     		add	r3, r3, r2
 1446 014e BB83     		strh	r3, [r7, #28]	@ movhi
 1447 0150 BB7F     		ldrb	r3, [r7, #30]	@ zero_extendqisi2
 1448 0152 0133     		adds	r3, r3, #1
 1449 0154 BB77     		strb	r3, [r7, #30]
 1450              	.L86:
 1451              		.loc 1 380 0 discriminator 1
 1452 0156 BA7F     		ldrb	r2, [r7, #30]	@ zero_extendqisi2
 1453 0158 FB7F     		ldrb	r3, [r7, #31]	@ zero_extendqisi2
 1454 015a 9A42     		cmp	r2, r3
 1455 015c EED3     		bcc	.L87
 381:..\..\..\HamFlyAPI\src/hamfly_core_gimbal.c ****     pkt[idx++] = (uint8_t)(255u - (sum & 0xFFu));
 1456              		.loc 1 381 0 is_stmt 1
 1457 015e FB7F     		ldrb	r3, [r7, #31]	@ zero_extendqisi2
 1458 0160 5A1C     		adds	r2, r3, #1
 1459 0162 FA77     		strb	r2, [r7, #31]
 1460 0164 1946     		mov	r1, r3
 1461 0166 BB8B     		ldrh	r3, [r7, #28]	@ movhi
 1462 0168 DBB2     		uxtb	r3, r3
 1463 016a DB43     		mvns	r3, r3
 1464 016c DAB2     		uxtb	r2, r3
 1465 016e 07F12003 		add	r3, r7, #32
 1466 0172 0B44     		add	r3, r3, r1
 1467 0174 03F8182C 		strb	r2, [r3, #-24]
 382:..\..\..\HamFlyAPI\src/hamfly_core_gimbal.c **** 
 383:..\..\..\HamFlyAPI\src/hamfly_core_gimbal.c ****     // Send packet to the UART.
 384:..\..\..\HamFlyAPI\src/hamfly_core_gimbal.c ****     uint32_t sent = 0u;
 1468              		.loc 1 384 0
 1469 0178 0023     		movs	r3, #0
 1470 017a BB61     		str	r3, [r7, #24]
 385:..\..\..\HamFlyAPI\src/hamfly_core_gimbal.c ****     for (i = 0u; i < idx; i++) {
 1471              		.loc 1 385 0
 1472 017c 0023     		movs	r3, #0
 1473 017e BB77     		strb	r3, [r7, #30]
 1474 0180 11E0     		b	.L88
 1475              	.L89:
 386:..\..\..\HamFlyAPI\src/hamfly_core_gimbal.c ****         g->hal.uart_putc(g->hal.ctx, pkt[i]);
 1476              		.loc 1 386 0 discriminator 3
 1477 0182 7B68     		ldr	r3, [r7, #4]
 1478 0184 5B68     		ldr	r3, [r3, #4]
 1479 0186 7A68     		ldr	r2, [r7, #4]
 1480 0188 1068     		ldr	r0, [r2]
 1481 018a BA7F     		ldrb	r2, [r7, #30]	@ zero_extendqisi2
 1482 018c 07F12001 		add	r1, r7, #32
 1483 0190 0A44     		add	r2, r2, r1
 1484 0192 12F8182C 		ldrb	r2, [r2, #-24]	@ zero_extendqisi2
 1485 0196 1146     		mov	r1, r2
 1486 0198 9847     		blx	r3
ARM GAS  C:\Users\JENNEW~1\AppData\Local\Temp\ccBYNzIK.s 			page 34


 387:..\..\..\HamFlyAPI\src/hamfly_core_gimbal.c ****         sent++;
 1487              		.loc 1 387 0 discriminator 3
 1488 019a BB69     		ldr	r3, [r7, #24]
 1489 019c 0133     		adds	r3, r3, #1
 1490 019e BB61     		str	r3, [r7, #24]
 385:..\..\..\HamFlyAPI\src/hamfly_core_gimbal.c ****     for (i = 0u; i < idx; i++) {
 1491              		.loc 1 385 0 discriminator 3
 1492 01a0 BB7F     		ldrb	r3, [r7, #30]	@ zero_extendqisi2
 1493 01a2 0133     		adds	r3, r3, #1
 1494 01a4 BB77     		strb	r3, [r7, #30]
 1495              	.L88:
 385:..\..\..\HamFlyAPI\src/hamfly_core_gimbal.c ****     for (i = 0u; i < idx; i++) {
 1496              		.loc 1 385 0 is_stmt 0 discriminator 1
 1497 01a6 BA7F     		ldrb	r2, [r7, #30]	@ zero_extendqisi2
 1498 01a8 FB7F     		ldrb	r3, [r7, #31]	@ zero_extendqisi2
 1499 01aa 9A42     		cmp	r2, r3
 1500 01ac E9D3     		bcc	.L89
 388:..\..\..\HamFlyAPI\src/hamfly_core_gimbal.c ****     }
 389:..\..\..\HamFlyAPI\src/hamfly_core_gimbal.c **** 
 390:..\..\..\HamFlyAPI\src/hamfly_core_gimbal.c ****     // Update stats.
 391:..\..\..\HamFlyAPI\src/hamfly_core_gimbal.c ****     g->statistics.tx_packets++;
 1501              		.loc 1 391 0 is_stmt 1
 1502 01ae 7B68     		ldr	r3, [r7, #4]
 1503 01b0 D3F80C31 		ldr	r3, [r3, #268]
 1504 01b4 5A1C     		adds	r2, r3, #1
 1505 01b6 7B68     		ldr	r3, [r7, #4]
 1506 01b8 C3F80C21 		str	r2, [r3, #268]
 392:..\..\..\HamFlyAPI\src/hamfly_core_gimbal.c ****     g->statistics.tx_bytes += sent;
 1507              		.loc 1 392 0
 1508 01bc 7B68     		ldr	r3, [r7, #4]
 1509 01be D3F81021 		ldr	r2, [r3, #272]
 1510 01c2 BB69     		ldr	r3, [r7, #24]
 1511 01c4 1A44     		add	r2, r2, r3
 1512 01c6 7B68     		ldr	r3, [r7, #4]
 1513 01c8 C3F81021 		str	r2, [r3, #272]
 393:..\..\..\HamFlyAPI\src/hamfly_core_gimbal.c **** 
 394:..\..\..\HamFlyAPI\src/hamfly_core_gimbal.c ****     // Return UART error if any occurred during this process.
 395:..\..\..\HamFlyAPI\src/hamfly_core_gimbal.c ****     return (g->statistics.uart_err_flags != 0u) ? HAMFLY_ERR_UART : HAMFLY_OK;
 1514              		.loc 1 395 0
 1515 01cc 7B68     		ldr	r3, [r7, #4]
 1516 01ce 93F82231 		ldrb	r3, [r3, #290]	@ zero_extendqisi2
 1517 01d2 002B     		cmp	r3, #0
 1518 01d4 14BF     		ite	ne
 1519 01d6 0123     		movne	r3, #1
 1520 01d8 0023     		moveq	r3, #0
 1521 01da DBB2     		uxtb	r3, r3
 1522              	.L90:
 396:..\..\..\HamFlyAPI\src/hamfly_core_gimbal.c **** }
 1523              		.loc 1 396 0 discriminator 1
 1524 01dc 1846     		mov	r0, r3
 1525 01de 2037     		adds	r7, r7, #32
 1526              		.cfi_def_cfa_offset 8
 1527 01e0 BD46     		mov	sp, r7
 1528              		.cfi_def_cfa_register 13
 1529              		@ sp needed
 1530 01e2 80BD     		pop	{r7, pc}
 1531              		.cfi_endproc
ARM GAS  C:\Users\JENNEW~1\AppData\Local\Temp\ccBYNzIK.s 			page 35


 1532              	.LFE13:
 1533              		.size	hamfly_write_attr_u8, .-hamfly_write_attr_u8
 1534              		.section	.text.hamfly_get_telemetry,"ax",%progbits
 1535              		.align	2
 1536              		.global	hamfly_get_telemetry
 1537              		.thumb
 1538              		.thumb_func
 1539              		.type	hamfly_get_telemetry, %function
 1540              	hamfly_get_telemetry:
 1541              	.LFB14:
 397:..\..\..\HamFlyAPI\src/hamfly_core_gimbal.c **** 
 398:..\..\..\HamFlyAPI\src/hamfly_core_gimbal.c **** // ============================================================================
 399:..\..\..\HamFlyAPI\src/hamfly_core_gimbal.c **** // Accessors for telemetry and statistics.
 400:..\..\..\HamFlyAPI\src/hamfly_core_gimbal.c **** // ============================================================================
 401:..\..\..\HamFlyAPI\src/hamfly_core_gimbal.c **** 
 402:..\..\..\HamFlyAPI\src/hamfly_core_gimbal.c **** // Get a copy of the telemetry struct.
 403:..\..\..\HamFlyAPI\src/hamfly_core_gimbal.c **** void hamfly_get_telemetry(hamfly_gimbal_t *g, hamfly_telemetry_t *out)
 404:..\..\..\HamFlyAPI\src/hamfly_core_gimbal.c **** {
 1542              		.loc 1 404 0
 1543              		.cfi_startproc
 1544              		@ args = 0, pretend = 0, frame = 8
 1545              		@ frame_needed = 1, uses_anonymous_args = 0
 1546 0000 80B5     		push	{r7, lr}
 1547              		.cfi_def_cfa_offset 8
 1548              		.cfi_offset 7, -8
 1549              		.cfi_offset 14, -4
 1550 0002 82B0     		sub	sp, sp, #8
 1551              		.cfi_def_cfa_offset 16
 1552 0004 00AF     		add	r7, sp, #0
 1553              		.cfi_def_cfa_register 7
 1554 0006 7860     		str	r0, [r7, #4]
 1555 0008 3960     		str	r1, [r7]
 405:..\..\..\HamFlyAPI\src/hamfly_core_gimbal.c ****     if (!g || !out) return;
 1556              		.loc 1 405 0
 1557 000a 7B68     		ldr	r3, [r7, #4]
 1558 000c 002B     		cmp	r3, #0
 1559 000e 0BD0     		beq	.L95
 1560              		.loc 1 405 0 is_stmt 0 discriminator 1
 1561 0010 3B68     		ldr	r3, [r7]
 1562 0012 002B     		cmp	r3, #0
 1563 0014 08D0     		beq	.L95
 406:..\..\..\HamFlyAPI\src/hamfly_core_gimbal.c ****     *out = g->telemetry;
 1564              		.loc 1 406 0 is_stmt 1
 1565 0016 3A68     		ldr	r2, [r7]
 1566 0018 7B68     		ldr	r3, [r7, #4]
 1567 001a 1046     		mov	r0, r2
 1568 001c 2033     		adds	r3, r3, #32
 1569 001e EC22     		movs	r2, #236
 1570 0020 1946     		mov	r1, r3
 1571 0022 FFF7FEFF 		bl	memcpy
 1572 0026 00E0     		b	.L91
 1573              	.L95:
 405:..\..\..\HamFlyAPI\src/hamfly_core_gimbal.c ****     if (!g || !out) return;
 1574              		.loc 1 405 0
 1575 0028 00BF     		nop
 1576              	.L91:
 407:..\..\..\HamFlyAPI\src/hamfly_core_gimbal.c **** }
ARM GAS  C:\Users\JENNEW~1\AppData\Local\Temp\ccBYNzIK.s 			page 36


 1577              		.loc 1 407 0
 1578 002a 0837     		adds	r7, r7, #8
 1579              		.cfi_def_cfa_offset 8
 1580 002c BD46     		mov	sp, r7
 1581              		.cfi_def_cfa_register 13
 1582              		@ sp needed
 1583 002e 80BD     		pop	{r7, pc}
 1584              		.cfi_endproc
 1585              	.LFE14:
 1586              		.size	hamfly_get_telemetry, .-hamfly_get_telemetry
 1587              		.section	.text.hamfly_get_statistics,"ax",%progbits
 1588              		.align	2
 1589              		.global	hamfly_get_statistics
 1590              		.thumb
 1591              		.thumb_func
 1592              		.type	hamfly_get_statistics, %function
 1593              	hamfly_get_statistics:
 1594              	.LFB15:
 408:..\..\..\HamFlyAPI\src/hamfly_core_gimbal.c **** 
 409:..\..\..\HamFlyAPI\src/hamfly_core_gimbal.c **** // Get a copy of the statistics struct with the latest ring buffer drops.
 410:..\..\..\HamFlyAPI\src/hamfly_core_gimbal.c **** void hamfly_get_statistics(hamfly_gimbal_t *g, hamfly_statistics_t *out)
 411:..\..\..\HamFlyAPI\src/hamfly_core_gimbal.c **** {
 1595              		.loc 1 411 0
 1596              		.cfi_startproc
 1597              		@ args = 0, pretend = 0, frame = 8
 1598              		@ frame_needed = 1, uses_anonymous_args = 0
 1599              		@ link register save eliminated.
 1600 0000 B0B4     		push	{r4, r5, r7}
 1601              		.cfi_def_cfa_offset 12
 1602              		.cfi_offset 4, -12
 1603              		.cfi_offset 5, -8
 1604              		.cfi_offset 7, -4
 1605 0002 83B0     		sub	sp, sp, #12
 1606              		.cfi_def_cfa_offset 24
 1607 0004 00AF     		add	r7, sp, #0
 1608              		.cfi_def_cfa_register 7
 1609 0006 7860     		str	r0, [r7, #4]
 1610 0008 3960     		str	r1, [r7]
 412:..\..\..\HamFlyAPI\src/hamfly_core_gimbal.c ****     if (!g || !out) return;
 1611              		.loc 1 412 0
 1612 000a 7B68     		ldr	r3, [r7, #4]
 1613 000c 002B     		cmp	r3, #0
 1614 000e 15D0     		beq	.L100
 1615              		.loc 1 412 0 is_stmt 0 discriminator 1
 1616 0010 3B68     		ldr	r3, [r7]
 1617 0012 002B     		cmp	r3, #0
 1618 0014 12D0     		beq	.L100
 413:..\..\..\HamFlyAPI\src/hamfly_core_gimbal.c ****     g->statistics.rxbuf_drops = g->rxbuf.drops;
 1619              		.loc 1 413 0 is_stmt 1
 1620 0016 7B68     		ldr	r3, [r7, #4]
 1621 0018 B3F82832 		ldrh	r3, [r3, #552]	@ movhi
 1622 001c 9AB2     		uxth	r2, r3
 1623 001e 7B68     		ldr	r3, [r7, #4]
 1624 0020 A3F82021 		strh	r2, [r3, #288]	@ movhi
 414:..\..\..\HamFlyAPI\src/hamfly_core_gimbal.c ****     *out = g->statistics;
 1625              		.loc 1 414 0
 1626 0024 3A68     		ldr	r2, [r7]
ARM GAS  C:\Users\JENNEW~1\AppData\Local\Temp\ccBYNzIK.s 			page 37


 1627 0026 7B68     		ldr	r3, [r7, #4]
 1628 0028 1546     		mov	r5, r2
 1629 002a 03F58674 		add	r4, r3, #268
 1630 002e 0FCC     		ldmia	r4!, {r0, r1, r2, r3}
 1631 0030 0FC5     		stmia	r5!, {r0, r1, r2, r3}
 1632 0032 94E80300 		ldmia	r4, {r0, r1}
 1633 0036 85E80300 		stmia	r5, {r0, r1}
 1634 003a 00E0     		b	.L96
 1635              	.L100:
 412:..\..\..\HamFlyAPI\src/hamfly_core_gimbal.c ****     if (!g || !out) return;
 1636              		.loc 1 412 0
 1637 003c 00BF     		nop
 1638              	.L96:
 415:..\..\..\HamFlyAPI\src/hamfly_core_gimbal.c **** }
 1639              		.loc 1 415 0
 1640 003e 0C37     		adds	r7, r7, #12
 1641              		.cfi_def_cfa_offset 12
 1642 0040 BD46     		mov	sp, r7
 1643              		.cfi_def_cfa_register 13
 1644              		@ sp needed
 1645 0042 B0BC     		pop	{r4, r5, r7}
 1646              		.cfi_restore 7
 1647              		.cfi_restore 5
 1648              		.cfi_restore 4
 1649              		.cfi_def_cfa_offset 0
 1650 0044 7047     		bx	lr
 1651              		.cfi_endproc
 1652              	.LFE15:
 1653              		.size	hamfly_get_statistics, .-hamfly_get_statistics
 1654 0046 00BF     		.section	.text.hamfly_control_init,"ax",%progbits
 1655              		.align	2
 1656              		.global	hamfly_control_init
 1657              		.thumb
 1658              		.thumb_func
 1659              		.type	hamfly_control_init, %function
 1660              	hamfly_control_init:
 1661              	.LFB16:
 416:..\..\..\HamFlyAPI\src/hamfly_core_gimbal.c **** 
 417:..\..\..\HamFlyAPI\src/hamfly_core_gimbal.c **** // ============================================================================
 418:..\..\..\HamFlyAPI\src/hamfly_core_gimbal.c **** // Hamfly Control Init: safe inert default for a new control struct.
 419:..\..\..\HamFlyAPI\src/hamfly_core_gimbal.c **** // ============================================================================
 420:..\..\..\HamFlyAPI\src/hamfly_core_gimbal.c **** void hamfly_control_init(hamfly_control_t *c)
 421:..\..\..\HamFlyAPI\src/hamfly_core_gimbal.c **** {
 1662              		.loc 1 421 0
 1663              		.cfi_startproc
 1664              		@ args = 0, pretend = 0, frame = 8
 1665              		@ frame_needed = 1, uses_anonymous_args = 0
 1666 0000 80B5     		push	{r7, lr}
 1667              		.cfi_def_cfa_offset 8
 1668              		.cfi_offset 7, -8
 1669              		.cfi_offset 14, -4
 1670 0002 82B0     		sub	sp, sp, #8
 1671              		.cfi_def_cfa_offset 16
 1672 0004 00AF     		add	r7, sp, #0
 1673              		.cfi_def_cfa_register 7
 1674 0006 7860     		str	r0, [r7, #4]
 422:..\..\..\HamFlyAPI\src/hamfly_core_gimbal.c ****     if (!c) return;
ARM GAS  C:\Users\JENNEW~1\AppData\Local\Temp\ccBYNzIK.s 			page 38


 1675              		.loc 1 422 0
 1676 0008 7B68     		ldr	r3, [r7, #4]
 1677 000a 002B     		cmp	r3, #0
 1678 000c 0ED0     		beq	.L104
 423:..\..\..\HamFlyAPI\src/hamfly_core_gimbal.c ****     memset(c, 0, sizeof(*c));
 1679              		.loc 1 423 0
 1680 000e 1422     		movs	r2, #20
 1681 0010 0021     		movs	r1, #0
 1682 0012 7868     		ldr	r0, [r7, #4]
 1683 0014 FFF7FEFF 		bl	memset
 424:..\..\..\HamFlyAPI\src/hamfly_core_gimbal.c ****     /* All axes DEFER, enable=0 (inert until app opts in), kill=0. */
 425:..\..\..\HamFlyAPI\src/hamfly_core_gimbal.c ****     c->pan_mode  = HAMFLY_DEFER;
 1684              		.loc 1 425 0
 1685 0018 7B68     		ldr	r3, [r7, #4]
 1686 001a 0022     		movs	r2, #0
 1687 001c 1A73     		strb	r2, [r3, #12]
 426:..\..\..\HamFlyAPI\src/hamfly_core_gimbal.c ****     c->tilt_mode = HAMFLY_DEFER;
 1688              		.loc 1 426 0
 1689 001e 7B68     		ldr	r3, [r7, #4]
 1690 0020 0022     		movs	r2, #0
 1691 0022 5A73     		strb	r2, [r3, #13]
 427:..\..\..\HamFlyAPI\src/hamfly_core_gimbal.c ****     c->roll_mode = HAMFLY_DEFER;
 1692              		.loc 1 427 0
 1693 0024 7B68     		ldr	r3, [r7, #4]
 1694 0026 0022     		movs	r2, #0
 1695 0028 9A73     		strb	r2, [r3, #14]
 1696 002a 00E0     		b	.L101
 1697              	.L104:
 422:..\..\..\HamFlyAPI\src/hamfly_core_gimbal.c ****     memset(c, 0, sizeof(*c));
 1698              		.loc 1 422 0
 1699 002c 00BF     		nop
 1700              	.L101:
 428:..\..\..\HamFlyAPI\src/hamfly_core_gimbal.c **** }
 1701              		.loc 1 428 0
 1702 002e 0837     		adds	r7, r7, #8
 1703              		.cfi_def_cfa_offset 8
 1704 0030 BD46     		mov	sp, r7
 1705              		.cfi_def_cfa_register 13
 1706              		@ sp needed
 1707 0032 80BD     		pop	{r7, pc}
 1708              		.cfi_endproc
 1709              	.LFE16:
 1710              		.size	hamfly_control_init, .-hamfly_control_init
 1711              		.section	.text.hamfly_is_killed,"ax",%progbits
 1712              		.align	2
 1713              		.global	hamfly_is_killed
 1714              		.thumb
 1715              		.thumb_func
 1716              		.type	hamfly_is_killed, %function
 1717              	hamfly_is_killed:
 1718              	.LFB17:
 429:..\..\..\HamFlyAPI\src/hamfly_core_gimbal.c **** 
 430:..\..\..\HamFlyAPI\src/hamfly_core_gimbal.c **** // ============================================================================
 431:..\..\..\HamFlyAPI\src/hamfly_core_gimbal.c **** // Hamfly Is Killed: report last commanded kill state.
 432:..\..\..\HamFlyAPI\src/hamfly_core_gimbal.c **** // ============================================================================
 433:..\..\..\HamFlyAPI\src/hamfly_core_gimbal.c **** uint8_t hamfly_is_killed(const hamfly_gimbal_t *g)
 434:..\..\..\HamFlyAPI\src/hamfly_core_gimbal.c **** {
ARM GAS  C:\Users\JENNEW~1\AppData\Local\Temp\ccBYNzIK.s 			page 39


 1719              		.loc 1 434 0
 1720              		.cfi_startproc
 1721              		@ args = 0, pretend = 0, frame = 8
 1722              		@ frame_needed = 1, uses_anonymous_args = 0
 1723              		@ link register save eliminated.
 1724 0000 80B4     		push	{r7}
 1725              		.cfi_def_cfa_offset 4
 1726              		.cfi_offset 7, -4
 1727 0002 83B0     		sub	sp, sp, #12
 1728              		.cfi_def_cfa_offset 16
 1729 0004 00AF     		add	r7, sp, #0
 1730              		.cfi_def_cfa_register 7
 1731 0006 7860     		str	r0, [r7, #4]
 435:..\..\..\HamFlyAPI\src/hamfly_core_gimbal.c ****     if (!g) return 0u;
 1732              		.loc 1 435 0
 1733 0008 7B68     		ldr	r3, [r7, #4]
 1734 000a 002B     		cmp	r3, #0
 1735 000c 01D1     		bne	.L106
 1736              		.loc 1 435 0 is_stmt 0 discriminator 1
 1737 000e 0023     		movs	r3, #0
 1738 0010 06E0     		b	.L107
 1739              	.L106:
 436:..\..\..\HamFlyAPI\src/hamfly_core_gimbal.c ****     return g->ctl.kill ? 1u : 0u;
 1740              		.loc 1 436 0 is_stmt 1
 1741 0012 7B68     		ldr	r3, [r7, #4]
 1742 0014 1B7F     		ldrb	r3, [r3, #28]	@ zero_extendqisi2
 1743 0016 002B     		cmp	r3, #0
 1744 0018 01D0     		beq	.L108
 1745              		.loc 1 436 0 is_stmt 0 discriminator 1
 1746 001a 0123     		movs	r3, #1
 1747 001c 00E0     		b	.L107
 1748              	.L108:
 1749              		.loc 1 436 0 discriminator 2
 1750 001e 0023     		movs	r3, #0
 1751              	.L107:
 437:..\..\..\HamFlyAPI\src/hamfly_core_gimbal.c **** }
 1752              		.loc 1 437 0 is_stmt 1
 1753 0020 1846     		mov	r0, r3
 1754 0022 0C37     		adds	r7, r7, #12
 1755              		.cfi_def_cfa_offset 4
 1756 0024 BD46     		mov	sp, r7
 1757              		.cfi_def_cfa_register 13
 1758              		@ sp needed
 1759 0026 80BC     		pop	{r7}
 1760              		.cfi_restore 7
 1761              		.cfi_def_cfa_offset 0
 1762 0028 7047     		bx	lr
 1763              		.cfi_endproc
 1764              	.LFE17:
 1765              		.size	hamfly_is_killed, .-hamfly_is_killed
 1766 002a 00BF     		.section	.text.hamfly_home,"ax",%progbits
 1767              		.align	2
 1768              		.global	hamfly_home
 1769              		.thumb
 1770              		.thumb_func
 1771              		.type	hamfly_home, %function
 1772              	hamfly_home:
ARM GAS  C:\Users\JENNEW~1\AppData\Local\Temp\ccBYNzIK.s 			page 40


 1773              	.LFB18:
 438:..\..\..\HamFlyAPI\src/hamfly_core_gimbal.c **** 
 439:..\..\..\HamFlyAPI\src/hamfly_core_gimbal.c **** // ============================================================================
 440:..\..\..\HamFlyAPI\src/hamfly_core_gimbal.c **** // Hamfly Home: Reset heading reference and baro home point.
 441:..\..\..\HamFlyAPI\src/hamfly_core_gimbal.c **** // ============================================================================
 442:..\..\..\HamFlyAPI\src/hamfly_core_gimbal.c **** hamfly_result_t hamfly_home(hamfly_gimbal_t *g)
 443:..\..\..\HamFlyAPI\src/hamfly_core_gimbal.c **** {
 1774              		.loc 1 443 0
 1775              		.cfi_startproc
 1776              		@ args = 0, pretend = 0, frame = 8
 1777              		@ frame_needed = 1, uses_anonymous_args = 0
 1778 0000 80B5     		push	{r7, lr}
 1779              		.cfi_def_cfa_offset 8
 1780              		.cfi_offset 7, -8
 1781              		.cfi_offset 14, -4
 1782 0002 82B0     		sub	sp, sp, #8
 1783              		.cfi_def_cfa_offset 16
 1784 0004 00AF     		add	r7, sp, #0
 1785              		.cfi_def_cfa_register 7
 1786 0006 7860     		str	r0, [r7, #4]
 444:..\..\..\HamFlyAPI\src/hamfly_core_gimbal.c ****     /* Attr 382 resets both:
 445:..\..\..\HamFlyAPI\src/hamfly_core_gimbal.c ****      *  - compass heading reference (North zeroing — unconfirmed)
 446:..\..\..\HamFlyAPI\src/hamfly_core_gimbal.c ****      *  - baro home reference (baro_alt_m reads ~0 after reset)
 447:..\..\..\HamFlyAPI\src/hamfly_core_gimbal.c ****      * GPS reference is unaffected (GPS is always absolute). */
 448:..\..\..\HamFlyAPI\src/hamfly_core_gimbal.c ****     return hamfly_write_attr_u8(g, HAMFLY_ATTR_HEADING_RESET, 0x01u);
 1787              		.loc 1 448 0
 1788 0008 0122     		movs	r2, #1
 1789 000a 4FF4BF71 		mov	r1, #382
 1790 000e 7868     		ldr	r0, [r7, #4]
 1791 0010 FFF7FEFF 		bl	hamfly_write_attr_u8
 1792 0014 0346     		mov	r3, r0
 449:..\..\..\HamFlyAPI\src/hamfly_core_gimbal.c **** }
 1793              		.loc 1 449 0
 1794 0016 1846     		mov	r0, r3
 1795 0018 0837     		adds	r7, r7, #8
 1796              		.cfi_def_cfa_offset 8
 1797 001a BD46     		mov	sp, r7
 1798              		.cfi_def_cfa_register 13
 1799              		@ sp needed
 1800 001c 80BD     		pop	{r7, pc}
 1801              		.cfi_endproc
 1802              	.LFE18:
 1803              		.size	hamfly_home, .-hamfly_home
 1804 001e 00BF     		.section	.text.hamfly_compass_cal_start,"ax",%progbits
 1805              		.align	2
 1806              		.global	hamfly_compass_cal_start
 1807              		.thumb
 1808              		.thumb_func
 1809              		.type	hamfly_compass_cal_start, %function
 1810              	hamfly_compass_cal_start:
 1811              	.LFB19:
 450:..\..\..\HamFlyAPI\src/hamfly_core_gimbal.c **** 
 451:..\..\..\HamFlyAPI\src/hamfly_core_gimbal.c **** // ============================================================================
 452:..\..\..\HamFlyAPI\src/hamfly_core_gimbal.c **** // Hamfly Compass Cal Start: Stub — attr not yet confirmed.
 453:..\..\..\HamFlyAPI\src/hamfly_core_gimbal.c **** // ============================================================================
 454:..\..\..\HamFlyAPI\src/hamfly_core_gimbal.c **** hamfly_result_t hamfly_compass_cal_start(hamfly_gimbal_t *g)
 455:..\..\..\HamFlyAPI\src/hamfly_core_gimbal.c **** {
ARM GAS  C:\Users\JENNEW~1\AppData\Local\Temp\ccBYNzIK.s 			page 41


 1812              		.loc 1 455 0
 1813              		.cfi_startproc
 1814              		@ args = 0, pretend = 0, frame = 8
 1815              		@ frame_needed = 1, uses_anonymous_args = 0
 1816              		@ link register save eliminated.
 1817 0000 80B4     		push	{r7}
 1818              		.cfi_def_cfa_offset 4
 1819              		.cfi_offset 7, -4
 1820 0002 83B0     		sub	sp, sp, #12
 1821              		.cfi_def_cfa_offset 16
 1822 0004 00AF     		add	r7, sp, #0
 1823              		.cfi_def_cfa_register 7
 1824 0006 7860     		str	r0, [r7, #4]
 456:..\..\..\HamFlyAPI\src/hamfly_core_gimbal.c ****     /* TODO: compass calibration attr/command not yet confirmed.
 457:..\..\..\HamFlyAPI\src/hamfly_core_gimbal.c ****      * Steps to determine:
 458:..\..\..\HamFlyAPI\src/hamfly_core_gimbal.c ****      *  1. Initiate calibration from iOS app while sniffing serial.
 459:..\..\..\HamFlyAPI\src/hamfly_core_gimbal.c ****      *  2. Identify the attr write that triggers the sequence.
 460:..\..\..\HamFlyAPI\src/hamfly_core_gimbal.c ****      *  3. Confirm with flag_compass_error clearing in sysstat.
 461:..\..\..\HamFlyAPI\src/hamfly_core_gimbal.c ****      * Implement once attr is confirmed. */
 462:..\..\..\HamFlyAPI\src/hamfly_core_gimbal.c ****     (void)g;
 463:..\..\..\HamFlyAPI\src/hamfly_core_gimbal.c ****     return HAMFLY_ERR_BAD_STATE;
 1825              		.loc 1 463 0
 1826 0008 0523     		movs	r3, #5
 464:..\..\..\HamFlyAPI\src/hamfly_core_gimbal.c **** }
 1827              		.loc 1 464 0
 1828 000a 1846     		mov	r0, r3
 1829 000c 0C37     		adds	r7, r7, #12
 1830              		.cfi_def_cfa_offset 4
 1831 000e BD46     		mov	sp, r7
 1832              		.cfi_def_cfa_register 13
 1833              		@ sp needed
 1834 0010 80BC     		pop	{r7}
 1835              		.cfi_restore 7
 1836              		.cfi_def_cfa_offset 0
 1837 0012 7047     		bx	lr
 1838              		.cfi_endproc
 1839              	.LFE19:
 1840              		.size	hamfly_compass_cal_start, .-hamfly_compass_cal_start
 1841              		.global	__aeabi_i2d
 1842              		.global	__aeabi_dmul
 1843              		.global	__aeabi_fsub
 1844              		.global	__aeabi_f2d
 1845              		.global	__aeabi_dadd
 1846              		.global	__aeabi_dcmplt
 1847              		.global	__aeabi_ddiv
 1848              		.global	__aeabi_d2f
 1849              		.global	__aeabi_dsub
 1850              		.global	__aeabi_dcmpge
 1851              		.section	.text.hamfly_calc_gps_pointing,"ax",%progbits
 1852              		.align	2
 1853              		.global	hamfly_calc_gps_pointing
 1854              		.thumb
 1855              		.thumb_func
 1856              		.type	hamfly_calc_gps_pointing, %function
 1857              	hamfly_calc_gps_pointing:
 1858              	.LFB20:
 465:..\..\..\HamFlyAPI\src/hamfly_core_gimbal.c **** 
ARM GAS  C:\Users\JENNEW~1\AppData\Local\Temp\ccBYNzIK.s 			page 42


 466:..\..\..\HamFlyAPI\src/hamfly_core_gimbal.c **** // ============================================================================
 467:..\..\..\HamFlyAPI\src/hamfly_core_gimbal.c **** // Hamfly Calc GPS Pointing: Flat-earth ENU pointing from platform to target.
 468:..\..\..\HamFlyAPI\src/hamfly_core_gimbal.c **** // ============================================================================
 469:..\..\..\HamFlyAPI\src/hamfly_core_gimbal.c **** // Uses double-precision intermediates for lat/lon conversion.
 470:..\..\..\HamFlyAPI\src/hamfly_core_gimbal.c **** // Flat-earth approximation valid for distances < ~10 km.
 471:..\..\..\HamFlyAPI\src/hamfly_core_gimbal.c **** // ============================================================================
 472:..\..\..\HamFlyAPI\src/hamfly_core_gimbal.c **** hamfly_result_t hamfly_calc_gps_pointing(
 473:..\..\..\HamFlyAPI\src/hamfly_core_gimbal.c ****     const hamfly_gps_coord_t *platform,
 474:..\..\..\HamFlyAPI\src/hamfly_core_gimbal.c ****     const hamfly_gps_coord_t *target,
 475:..\..\..\HamFlyAPI\src/hamfly_core_gimbal.c ****     float                     heading_offset_deg,
 476:..\..\..\HamFlyAPI\src/hamfly_core_gimbal.c ****     hamfly_pointing_t        *out,
 477:..\..\..\HamFlyAPI\src/hamfly_core_gimbal.c ****     hamfly_control_t         *ctl_out)
 478:..\..\..\HamFlyAPI\src/hamfly_core_gimbal.c **** {
 1859              		.loc 1 478 0
 1860              		.cfi_startproc
 1861              		@ args = 4, pretend = 0, frame = 104
 1862              		@ frame_needed = 1, uses_anonymous_args = 0
 1863 0000 B0B5     		push	{r4, r5, r7, lr}
 1864              		.cfi_def_cfa_offset 16
 1865              		.cfi_offset 4, -16
 1866              		.cfi_offset 5, -12
 1867              		.cfi_offset 7, -8
 1868              		.cfi_offset 14, -4
 1869 0002 9AB0     		sub	sp, sp, #104
 1870              		.cfi_def_cfa_offset 120
 1871 0004 00AF     		add	r7, sp, #0
 1872              		.cfi_def_cfa_register 7
 1873 0006 F860     		str	r0, [r7, #12]
 1874 0008 B960     		str	r1, [r7, #8]
 1875 000a 7A60     		str	r2, [r7, #4]	@ float
 1876 000c 3B60     		str	r3, [r7]
 479:..\..\..\HamFlyAPI\src/hamfly_core_gimbal.c ****     if (!platform || !target || !out) return HAMFLY_ERR_ENCODE;
 1877              		.loc 1 479 0
 1878 000e FB68     		ldr	r3, [r7, #12]
 1879 0010 002B     		cmp	r3, #0
 1880 0012 05D0     		beq	.L115
 1881              		.loc 1 479 0 is_stmt 0 discriminator 2
 1882 0014 BB68     		ldr	r3, [r7, #8]
 1883 0016 002B     		cmp	r3, #0
 1884 0018 02D0     		beq	.L115
 1885              		.loc 1 479 0 discriminator 4
 1886 001a 3B68     		ldr	r3, [r7]
 1887 001c 002B     		cmp	r3, #0
 1888 001e 01D1     		bne	.L116
 1889              	.L115:
 1890              		.loc 1 479 0 discriminator 5
 1891 0020 0223     		movs	r3, #2
 1892 0022 6AE1     		b	.L117
 1893              	.L116:
 480:..\..\..\HamFlyAPI\src/hamfly_core_gimbal.c **** 
 481:..\..\..\HamFlyAPI\src/hamfly_core_gimbal.c ****     /* Convert int32 lat/lon to radians (double precision).
 482:..\..\..\HamFlyAPI\src/hamfly_core_gimbal.c ****      * 1e-7 deg/count * pi/180 = pi/1.8e9                    */
 483:..\..\..\HamFlyAPI\src/hamfly_core_gimbal.c ****     static const double DEG2RAD = 3.14159265358979323846 / 180.0;
 484:..\..\..\HamFlyAPI\src/hamfly_core_gimbal.c ****     static const double R_EARTH = 6371000.0;  /* metres */
 485:..\..\..\HamFlyAPI\src/hamfly_core_gimbal.c **** 
 486:..\..\..\HamFlyAPI\src/hamfly_core_gimbal.c ****     double lat0_rad = (double)platform->lat_e7 * 1e-7 * DEG2RAD;
 1894              		.loc 1 486 0 is_stmt 1
ARM GAS  C:\Users\JENNEW~1\AppData\Local\Temp\ccBYNzIK.s 			page 43


 1895 0024 FB68     		ldr	r3, [r7, #12]
 1896 0026 1B68     		ldr	r3, [r3]
 1897 0028 1846     		mov	r0, r3
 1898 002a FFF7FEFF 		bl	__aeabi_i2d
 1899 002e 90A3     		adr	r3, .L130
 1900 0030 D3E90023 		ldrd	r2, [r3]
 1901 0034 FFF7FEFF 		bl	__aeabi_dmul
 1902 0038 0346     		mov	r3, r0
 1903 003a 0C46     		mov	r4, r1
 1904 003c 1846     		mov	r0, r3
 1905 003e 2146     		mov	r1, r4
 1906 0040 8F4B     		ldr	r3, .L130+16
 1907 0042 18CB     		ldmia	r3, {r3-r4}
 1908 0044 1A46     		mov	r2, r3
 1909 0046 2346     		mov	r3, r4
 1910 0048 FFF7FEFF 		bl	__aeabi_dmul
 1911 004c 0346     		mov	r3, r0
 1912 004e 0C46     		mov	r4, r1
 1913 0050 C7E91434 		strd	r3, [r7, #80]
 487:..\..\..\HamFlyAPI\src/hamfly_core_gimbal.c ****     double dLat_deg = (double)(target->lat_e7 - platform->lat_e7) * 1e-7;
 1914              		.loc 1 487 0
 1915 0054 BB68     		ldr	r3, [r7, #8]
 1916 0056 1A68     		ldr	r2, [r3]
 1917 0058 FB68     		ldr	r3, [r7, #12]
 1918 005a 1B68     		ldr	r3, [r3]
 1919 005c D31A     		subs	r3, r2, r3
 1920 005e 1846     		mov	r0, r3
 1921 0060 FFF7FEFF 		bl	__aeabi_i2d
 1922 0064 82A3     		adr	r3, .L130
 1923 0066 D3E90023 		ldrd	r2, [r3]
 1924 006a FFF7FEFF 		bl	__aeabi_dmul
 1925 006e 0346     		mov	r3, r0
 1926 0070 0C46     		mov	r4, r1
 1927 0072 C7E91234 		strd	r3, [r7, #72]
 488:..\..\..\HamFlyAPI\src/hamfly_core_gimbal.c ****     double dLon_deg = (double)(target->lon_e7 - platform->lon_e7) * 1e-7;
 1928              		.loc 1 488 0
 1929 0076 BB68     		ldr	r3, [r7, #8]
 1930 0078 5A68     		ldr	r2, [r3, #4]
 1931 007a FB68     		ldr	r3, [r7, #12]
 1932 007c 5B68     		ldr	r3, [r3, #4]
 1933 007e D31A     		subs	r3, r2, r3
 1934 0080 1846     		mov	r0, r3
 1935 0082 FFF7FEFF 		bl	__aeabi_i2d
 1936 0086 7AA3     		adr	r3, .L130
 1937 0088 D3E90023 		ldrd	r2, [r3]
 1938 008c FFF7FEFF 		bl	__aeabi_dmul
 1939 0090 0346     		mov	r3, r0
 1940 0092 0C46     		mov	r4, r1
 1941 0094 C7E91034 		strd	r3, [r7, #64]
 489:..\..\..\HamFlyAPI\src/hamfly_core_gimbal.c **** 
 490:..\..\..\HamFlyAPI\src/hamfly_core_gimbal.c ****     /* ENU components (metres). */
 491:..\..\..\HamFlyAPI\src/hamfly_core_gimbal.c ****     double E   = R_EARTH * dLon_deg * DEG2RAD * cos(lat0_rad);
 1942              		.loc 1 491 0
 1943 0098 7A4B     		ldr	r3, .L130+20
 1944 009a D3E90001 		ldrd	r0, [r3]
 1945 009e D7E91023 		ldrd	r2, [r7, #64]
 1946 00a2 FFF7FEFF 		bl	__aeabi_dmul
ARM GAS  C:\Users\JENNEW~1\AppData\Local\Temp\ccBYNzIK.s 			page 44


 1947 00a6 0346     		mov	r3, r0
 1948 00a8 0C46     		mov	r4, r1
 1949 00aa 1846     		mov	r0, r3
 1950 00ac 2146     		mov	r1, r4
 1951 00ae 744B     		ldr	r3, .L130+16
 1952 00b0 18CB     		ldmia	r3, {r3-r4}
 1953 00b2 1A46     		mov	r2, r3
 1954 00b4 2346     		mov	r3, r4
 1955 00b6 FFF7FEFF 		bl	__aeabi_dmul
 1956 00ba 0346     		mov	r3, r0
 1957 00bc 0C46     		mov	r4, r1
 1958 00be 2546     		mov	r5, r4
 1959 00c0 1C46     		mov	r4, r3
 1960 00c2 D7E91401 		ldrd	r0, [r7, #80]
 1961 00c6 FFF7FEFF 		bl	cos
 1962 00ca 0246     		mov	r2, r0
 1963 00cc 0B46     		mov	r3, r1
 1964 00ce 2046     		mov	r0, r4
 1965 00d0 2946     		mov	r1, r5
 1966 00d2 FFF7FEFF 		bl	__aeabi_dmul
 1967 00d6 0346     		mov	r3, r0
 1968 00d8 0C46     		mov	r4, r1
 1969 00da C7E90E34 		strd	r3, [r7, #56]
 492:..\..\..\HamFlyAPI\src/hamfly_core_gimbal.c ****     double N   = R_EARTH * dLat_deg * DEG2RAD;
 1970              		.loc 1 492 0
 1971 00de 694B     		ldr	r3, .L130+20
 1972 00e0 D3E90001 		ldrd	r0, [r3]
 1973 00e4 D7E91223 		ldrd	r2, [r7, #72]
 1974 00e8 FFF7FEFF 		bl	__aeabi_dmul
 1975 00ec 0346     		mov	r3, r0
 1976 00ee 0C46     		mov	r4, r1
 1977 00f0 1846     		mov	r0, r3
 1978 00f2 2146     		mov	r1, r4
 1979 00f4 624B     		ldr	r3, .L130+16
 1980 00f6 18CB     		ldmia	r3, {r3-r4}
 1981 00f8 1A46     		mov	r2, r3
 1982 00fa 2346     		mov	r3, r4
 1983 00fc FFF7FEFF 		bl	__aeabi_dmul
 1984 0100 0346     		mov	r3, r0
 1985 0102 0C46     		mov	r4, r1
 1986 0104 C7E90C34 		strd	r3, [r7, #48]
 493:..\..\..\HamFlyAPI\src/hamfly_core_gimbal.c ****     double U   = (double)(target->alt_baro_m - platform->alt_baro_m);
 1987              		.loc 1 493 0
 1988 0108 BB68     		ldr	r3, [r7, #8]
 1989 010a 9A68     		ldr	r2, [r3, #8]	@ float
 1990 010c FB68     		ldr	r3, [r7, #12]
 1991 010e 9B68     		ldr	r3, [r3, #8]	@ float
 1992 0110 1946     		mov	r1, r3
 1993 0112 1046     		mov	r0, r2
 1994 0114 FFF7FEFF 		bl	__aeabi_fsub
 1995 0118 0346     		mov	r3, r0
 1996 011a 1846     		mov	r0, r3
 1997 011c FFF7FEFF 		bl	__aeabi_f2d
 1998 0120 0346     		mov	r3, r0
 1999 0122 0C46     		mov	r4, r1
 2000 0124 C7E90A34 		strd	r3, [r7, #40]
 494:..\..\..\HamFlyAPI\src/hamfly_core_gimbal.c **** 
ARM GAS  C:\Users\JENNEW~1\AppData\Local\Temp\ccBYNzIK.s 			page 45


 495:..\..\..\HamFlyAPI\src/hamfly_core_gimbal.c ****     /* Horizontal distance. */
 496:..\..\..\HamFlyAPI\src/hamfly_core_gimbal.c ****     double d2d = sqrt(E * E + N * N);
 2001              		.loc 1 496 0
 2002 0128 D7E90E23 		ldrd	r2, [r7, #56]
 2003 012c D7E90E01 		ldrd	r0, [r7, #56]
 2004 0130 FFF7FEFF 		bl	__aeabi_dmul
 2005 0134 0346     		mov	r3, r0
 2006 0136 0C46     		mov	r4, r1
 2007 0138 2546     		mov	r5, r4
 2008 013a 1C46     		mov	r4, r3
 2009 013c D7E90C23 		ldrd	r2, [r7, #48]
 2010 0140 D7E90C01 		ldrd	r0, [r7, #48]
 2011 0144 FFF7FEFF 		bl	__aeabi_dmul
 2012 0148 0246     		mov	r2, r0
 2013 014a 0B46     		mov	r3, r1
 2014 014c 2046     		mov	r0, r4
 2015 014e 2946     		mov	r1, r5
 2016 0150 FFF7FEFF 		bl	__aeabi_dadd
 2017 0154 0346     		mov	r3, r0
 2018 0156 0C46     		mov	r4, r1
 2019 0158 1846     		mov	r0, r3
 2020 015a 2146     		mov	r1, r4
 2021 015c FFF7FEFF 		bl	sqrt
 2022 0160 C7E90801 		strd	r0, [r7, #32]
 497:..\..\..\HamFlyAPI\src/hamfly_core_gimbal.c **** 
 498:..\..\..\HamFlyAPI\src/hamfly_core_gimbal.c ****     /* Degenerate: platform and target are within 0.1 m horizontally. */
 499:..\..\..\HamFlyAPI\src/hamfly_core_gimbal.c ****     if (d2d < 0.1) return HAMFLY_ERR_ENCODE;
 2023              		.loc 1 499 0
 2024 0164 44A3     		adr	r3, .L130+8
 2025 0166 D3E90023 		ldrd	r2, [r3]
 2026 016a D7E90801 		ldrd	r0, [r7, #32]
 2027 016e FFF7FEFF 		bl	__aeabi_dcmplt
 2028 0172 0346     		mov	r3, r0
 2029 0174 002B     		cmp	r3, #0
 2030 0176 01D0     		beq	.L129
 2031              		.loc 1 499 0 is_stmt 0 discriminator 1
 2032 0178 0223     		movs	r3, #2
 2033 017a BEE0     		b	.L117
 2034              	.L129:
 500:..\..\..\HamFlyAPI\src/hamfly_core_gimbal.c **** 
 501:..\..\..\HamFlyAPI\src/hamfly_core_gimbal.c ****     /* Azimuth: atan2(E, N) gives bearing clockwise from North. */
 502:..\..\..\HamFlyAPI\src/hamfly_core_gimbal.c ****     double az_rad = atan2(E, N);
 2035              		.loc 1 502 0 is_stmt 1
 2036 017c D7E90C23 		ldrd	r2, [r7, #48]
 2037 0180 D7E90E01 		ldrd	r0, [r7, #56]
 2038 0184 FFF7FEFF 		bl	atan2
 2039 0188 C7E90601 		strd	r0, [r7, #24]
 503:..\..\..\HamFlyAPI\src/hamfly_core_gimbal.c ****     double az_deg = az_rad / DEG2RAD;
 2040              		.loc 1 503 0
 2041 018c 3C4B     		ldr	r3, .L130+16
 2042 018e 18CB     		ldmia	r3, {r3-r4}
 2043 0190 1A46     		mov	r2, r3
 2044 0192 2346     		mov	r3, r4
 2045 0194 D7E90601 		ldrd	r0, [r7, #24]
 2046 0198 FFF7FEFF 		bl	__aeabi_ddiv
 2047 019c 0346     		mov	r3, r0
 2048 019e 0C46     		mov	r4, r1
ARM GAS  C:\Users\JENNEW~1\AppData\Local\Temp\ccBYNzIK.s 			page 46


 2049 01a0 C7E91834 		strd	r3, [r7, #96]
 504:..\..\..\HamFlyAPI\src/hamfly_core_gimbal.c ****     if (az_deg < 0.0) az_deg += 360.0;
 2050              		.loc 1 504 0
 2051 01a4 4FF00002 		mov	r2, #0
 2052 01a8 4FF00003 		mov	r3, #0
 2053 01ac D7E91801 		ldrd	r0, [r7, #96]
 2054 01b0 FFF7FEFF 		bl	__aeabi_dcmplt
 2055 01b4 0346     		mov	r3, r0
 2056 01b6 002B     		cmp	r3, #0
 2057 01b8 0AD0     		beq	.L120
 2058              		.loc 1 504 0 is_stmt 0 discriminator 1
 2059 01ba 4FF00002 		mov	r2, #0
 2060 01be 324B     		ldr	r3, .L130+24
 2061 01c0 D7E91801 		ldrd	r0, [r7, #96]
 2062 01c4 FFF7FEFF 		bl	__aeabi_dadd
 2063 01c8 0346     		mov	r3, r0
 2064 01ca 0C46     		mov	r4, r1
 2065 01cc C7E91834 		strd	r3, [r7, #96]
 2066              	.L120:
 505:..\..\..\HamFlyAPI\src/hamfly_core_gimbal.c **** 
 506:..\..\..\HamFlyAPI\src/hamfly_core_gimbal.c ****     /* Elevation: angle above horizon. */
 507:..\..\..\HamFlyAPI\src/hamfly_core_gimbal.c ****     double el_deg = atan2(U, d2d) / DEG2RAD;
 2067              		.loc 1 507 0 is_stmt 1
 2068 01d0 D7E90823 		ldrd	r2, [r7, #32]
 2069 01d4 D7E90A01 		ldrd	r0, [r7, #40]
 2070 01d8 FFF7FEFF 		bl	atan2
 2071 01dc 284B     		ldr	r3, .L130+16
 2072 01de 18CB     		ldmia	r3, {r3-r4}
 2073 01e0 1A46     		mov	r2, r3
 2074 01e2 2346     		mov	r3, r4
 2075 01e4 FFF7FEFF 		bl	__aeabi_ddiv
 2076 01e8 0346     		mov	r3, r0
 2077 01ea 0C46     		mov	r4, r1
 2078 01ec C7E90434 		strd	r3, [r7, #16]
 508:..\..\..\HamFlyAPI\src/hamfly_core_gimbal.c **** 
 509:..\..\..\HamFlyAPI\src/hamfly_core_gimbal.c ****     /* Populate output. */
 510:..\..\..\HamFlyAPI\src/hamfly_core_gimbal.c ****     out->azimuth_deg   = (float)az_deg;
 2079              		.loc 1 510 0
 2080 01f0 D7E91801 		ldrd	r0, [r7, #96]
 2081 01f4 FFF7FEFF 		bl	__aeabi_d2f
 2082 01f8 0246     		mov	r2, r0
 2083 01fa 3B68     		ldr	r3, [r7]
 2084 01fc 1A60     		str	r2, [r3]	@ float
 511:..\..\..\HamFlyAPI\src/hamfly_core_gimbal.c ****     out->elevation_deg = (float)el_deg;
 2085              		.loc 1 511 0
 2086 01fe D7E90401 		ldrd	r0, [r7, #16]
 2087 0202 FFF7FEFF 		bl	__aeabi_d2f
 2088 0206 0246     		mov	r2, r0
 2089 0208 3B68     		ldr	r3, [r7]
 2090 020a 5A60     		str	r2, [r3, #4]	@ float
 512:..\..\..\HamFlyAPI\src/hamfly_core_gimbal.c ****     out->distance_m    = (float)d2d;
 2091              		.loc 1 512 0
 2092 020c D7E90801 		ldrd	r0, [r7, #32]
 2093 0210 FFF7FEFF 		bl	__aeabi_d2f
 2094 0214 0246     		mov	r2, r0
 2095 0216 3B68     		ldr	r3, [r7]
 2096 0218 9A60     		str	r2, [r3, #8]	@ float
ARM GAS  C:\Users\JENNEW~1\AppData\Local\Temp\ccBYNzIK.s 			page 47


 513:..\..\..\HamFlyAPI\src/hamfly_core_gimbal.c **** 
 514:..\..\..\HamFlyAPI\src/hamfly_core_gimbal.c ****     /* Optionally fill a control packet ready for hamfly_send_control(). */
 515:..\..\..\HamFlyAPI\src/hamfly_core_gimbal.c ****     if (ctl_out) {
 2097              		.loc 1 515 0
 2098 021a BB6F     		ldr	r3, [r7, #120]
 2099 021c 002B     		cmp	r3, #0
 2100 021e 6BD0     		beq	.L122
 2101              	.LBB4:
 516:..\..\..\HamFlyAPI\src/hamfly_core_gimbal.c ****         double pan_cmd = az_deg - (double)heading_offset_deg;
 2102              		.loc 1 516 0
 2103 0220 7868     		ldr	r0, [r7, #4]	@ float
 2104 0222 FFF7FEFF 		bl	__aeabi_f2d
 2105 0226 0346     		mov	r3, r0
 2106 0228 0C46     		mov	r4, r1
 2107 022a 1A46     		mov	r2, r3
 2108 022c 2346     		mov	r3, r4
 2109 022e D7E91801 		ldrd	r0, [r7, #96]
 2110 0232 FFF7FEFF 		bl	__aeabi_dsub
 2111 0236 0346     		mov	r3, r0
 2112 0238 0C46     		mov	r4, r1
 2113 023a C7E91634 		strd	r3, [r7, #88]
 517:..\..\..\HamFlyAPI\src/hamfly_core_gimbal.c ****         /* Normalise pan to [0, 360). */
 518:..\..\..\HamFlyAPI\src/hamfly_core_gimbal.c ****         while (pan_cmd <    0.0) pan_cmd += 360.0;
 2114              		.loc 1 518 0
 2115 023e 0AE0     		b	.L123
 2116              	.L124:
 2117              		.loc 1 518 0 is_stmt 0 discriminator 2
 2118 0240 4FF00002 		mov	r2, #0
 2119 0244 104B     		ldr	r3, .L130+24
 2120 0246 D7E91601 		ldrd	r0, [r7, #88]
 2121 024a FFF7FEFF 		bl	__aeabi_dadd
 2122 024e 0346     		mov	r3, r0
 2123 0250 0C46     		mov	r4, r1
 2124 0252 C7E91634 		strd	r3, [r7, #88]
 2125              	.L123:
 2126              		.loc 1 518 0 discriminator 1
 2127 0256 4FF00002 		mov	r2, #0
 2128 025a 4FF00003 		mov	r3, #0
 2129 025e D7E91601 		ldrd	r0, [r7, #88]
 2130 0262 FFF7FEFF 		bl	__aeabi_dcmplt
 2131 0266 0346     		mov	r3, r0
 2132 0268 002B     		cmp	r3, #0
 2133 026a E9D1     		bne	.L124
 519:..\..\..\HamFlyAPI\src/hamfly_core_gimbal.c ****         while (pan_cmd >= 360.0) pan_cmd -= 360.0;
 2134              		.loc 1 519 0 is_stmt 1
 2135 026c 19E0     		b	.L125
 2136              	.L131:
 2137 026e 00BF     		.align	3
 2138              	.L130:
 2139 0270 48AFBC9A 		.word	-1698910392
 2140 0274 F2D77A3E 		.word	1048238066
 2141 0278 9A999999 		.word	-1717986918
 2142 027c 9999B93F 		.word	1069128089
 2143 0280 00000000 		.word	DEG2RAD.6259
 2144 0284 08000000 		.word	R_EARTH.6260
 2145 0288 00807640 		.word	1081507840
 2146              	.L126:
ARM GAS  C:\Users\JENNEW~1\AppData\Local\Temp\ccBYNzIK.s 			page 48


 2147              		.loc 1 519 0 is_stmt 0 discriminator 2
 2148 028c 4FF00002 		mov	r2, #0
 2149 0290 1C4B     		ldr	r3, .L132
 2150 0292 D7E91601 		ldrd	r0, [r7, #88]
 2151 0296 FFF7FEFF 		bl	__aeabi_dsub
 2152 029a 0346     		mov	r3, r0
 2153 029c 0C46     		mov	r4, r1
 2154 029e C7E91634 		strd	r3, [r7, #88]
 2155              	.L125:
 2156              		.loc 1 519 0 discriminator 1
 2157 02a2 4FF00002 		mov	r2, #0
 2158 02a6 174B     		ldr	r3, .L132
 2159 02a8 D7E91601 		ldrd	r0, [r7, #88]
 2160 02ac FFF7FEFF 		bl	__aeabi_dcmpge
 2161 02b0 0346     		mov	r3, r0
 2162 02b2 002B     		cmp	r3, #0
 2163 02b4 EAD1     		bne	.L126
 520:..\..\..\HamFlyAPI\src/hamfly_core_gimbal.c **** 
 521:..\..\..\HamFlyAPI\src/hamfly_core_gimbal.c ****         ctl_out->pan       = (float)pan_cmd;
 2164              		.loc 1 521 0 is_stmt 1
 2165 02b6 D7E91601 		ldrd	r0, [r7, #88]
 2166 02ba FFF7FEFF 		bl	__aeabi_d2f
 2167 02be 0246     		mov	r2, r0
 2168 02c0 BB6F     		ldr	r3, [r7, #120]
 2169 02c2 1A60     		str	r2, [r3]	@ float
 522:..\..\..\HamFlyAPI\src/hamfly_core_gimbal.c ****         ctl_out->tilt      = (float)el_deg;
 2170              		.loc 1 522 0
 2171 02c4 D7E90401 		ldrd	r0, [r7, #16]
 2172 02c8 FFF7FEFF 		bl	__aeabi_d2f
 2173 02cc 0246     		mov	r2, r0
 2174 02ce BB6F     		ldr	r3, [r7, #120]
 2175 02d0 5A60     		str	r2, [r3, #4]	@ float
 523:..\..\..\HamFlyAPI\src/hamfly_core_gimbal.c ****         ctl_out->roll      = 0.0f;
 2176              		.loc 1 523 0
 2177 02d2 BB6F     		ldr	r3, [r7, #120]
 2178 02d4 4FF00002 		mov	r2, #0
 2179 02d8 9A60     		str	r2, [r3, #8]	@ float
 524:..\..\..\HamFlyAPI\src/hamfly_core_gimbal.c ****         ctl_out->pan_mode  = HAMFLY_ABSOLUTE;
 2180              		.loc 1 524 0
 2181 02da BB6F     		ldr	r3, [r7, #120]
 2182 02dc 0222     		movs	r2, #2
 2183 02de 1A73     		strb	r2, [r3, #12]
 525:..\..\..\HamFlyAPI\src/hamfly_core_gimbal.c ****         ctl_out->tilt_mode = HAMFLY_ABSOLUTE;
 2184              		.loc 1 525 0
 2185 02e0 BB6F     		ldr	r3, [r7, #120]
 2186 02e2 0222     		movs	r2, #2
 2187 02e4 5A73     		strb	r2, [r3, #13]
 526:..\..\..\HamFlyAPI\src/hamfly_core_gimbal.c ****         ctl_out->roll_mode = HAMFLY_DEFER;
 2188              		.loc 1 526 0
 2189 02e6 BB6F     		ldr	r3, [r7, #120]
 2190 02e8 0022     		movs	r2, #0
 2191 02ea 9A73     		strb	r2, [r3, #14]
 527:..\..\..\HamFlyAPI\src/hamfly_core_gimbal.c ****         ctl_out->enable    = 1u;  // TODO: Remove?
 2192              		.loc 1 527 0
 2193 02ec BB6F     		ldr	r3, [r7, #120]
 2194 02ee 0122     		movs	r2, #1
 2195 02f0 DA73     		strb	r2, [r3, #15]
ARM GAS  C:\Users\JENNEW~1\AppData\Local\Temp\ccBYNzIK.s 			page 49


 528:..\..\..\HamFlyAPI\src/hamfly_core_gimbal.c ****         ctl_out->kill      = 0u;
 2196              		.loc 1 528 0
 2197 02f2 BB6F     		ldr	r3, [r7, #120]
 2198 02f4 0022     		movs	r2, #0
 2199 02f6 1A74     		strb	r2, [r3, #16]
 2200              	.L122:
 2201              	.LBE4:
 529:..\..\..\HamFlyAPI\src/hamfly_core_gimbal.c ****     }
 530:..\..\..\HamFlyAPI\src/hamfly_core_gimbal.c **** 
 531:..\..\..\HamFlyAPI\src/hamfly_core_gimbal.c ****     return HAMFLY_OK;
 2202              		.loc 1 531 0
 2203 02f8 0023     		movs	r3, #0
 2204              	.L117:
 532:..\..\..\HamFlyAPI\src/hamfly_core_gimbal.c **** }...
 2205              		.loc 1 532 0
 2206 02fa 1846     		mov	r0, r3
 2207 02fc 6837     		adds	r7, r7, #104
 2208              		.cfi_def_cfa_offset 16
 2209 02fe BD46     		mov	sp, r7
 2210              		.cfi_def_cfa_register 13
 2211              		@ sp needed
 2212 0300 B0BD     		pop	{r4, r5, r7, pc}
 2213              	.L133:
 2214 0302 00BF     		.align	2
 2215              	.L132:
 2216 0304 00807640 		.word	1081507840
 2217              		.cfi_endproc
 2218              	.LFE20:
 2219              		.size	hamfly_calc_gps_pointing, .-hamfly_calc_gps_pointing
 2220              		.section	.rodata
 2221              		.align	3
 2222              		.type	DEG2RAD.6259, %object
 2223              		.size	DEG2RAD.6259, 8
 2224              	DEG2RAD.6259:
 2225 0000 399D52A2 		.word	-1571644103
 2226 0004 46DF913F 		.word	1066524486
 2227              		.align	3
 2228              		.type	R_EARTH.6260, %object
 2229              		.size	R_EARTH.6260, 8
 2230              	R_EARTH.6260:
 2231 0008 00000000 		.word	0
 2232 000c AE4D5841 		.word	1096306094
 2233              		.text
 2234              	.Letext0:
 2235              		.file 2 "c:\\program files (x86)\\cypress\\psoc creator\\4.4\\psoc creator\\import\\gnu\\arm\\5.4.
 2236              		.file 3 "c:\\program files (x86)\\cypress\\psoc creator\\4.4\\psoc creator\\import\\gnu\\arm\\5.4.
 2237              		.file 4 "..\\..\\..\\HamFlyAPI\\src\\hamfly_core_hal.h"
 2238              		.file 5 "..\\..\\..\\HamFlyAPI\\src\\hamfly_core_control.h"
 2239              		.file 6 "..\\..\\..\\HamFlyAPI\\src\\hamfly_core_telemetry.h"
 2240              		.file 7 "..\\..\\..\\HamFlyAPI\\src\\hamfly_comm_rb.h"
 2241              		.file 8 "..\\..\\..\\HamFlyAPI\\src\\hamfly_core_gimbal.h"
 2242              		.file 9 "..\\..\\..\\HamFlyAPI\\src\\hamfly_qx_app.h"
 2243              		.file 10 "..\\..\\..\\HamFlyAPI\\src\\hamfly_qx_protocol.h"
 2244              		.section	.debug_info,"",%progbits
 2245              	.Ldebug_info0:
 2246 0000 58150000 		.4byte	0x1558
 2247 0004 0400     		.2byte	0x4
ARM GAS  C:\Users\JENNEW~1\AppData\Local\Temp\ccBYNzIK.s 			page 50


 2248 0006 00000000 		.4byte	.Ldebug_abbrev0
 2249 000a 04       		.byte	0x4
 2250 000b 01       		.uleb128 0x1
 2251 000c 9D010000 		.4byte	.LASF335
 2252 0010 0C       		.byte	0xc
 2253 0011 C3080000 		.4byte	.LASF336
 2254 0015 C6120000 		.4byte	.LASF337
 2255 0019 00000000 		.4byte	.Ldebug_ranges0+0
 2256 001d 00000000 		.4byte	0
 2257 0021 00000000 		.4byte	.Ldebug_line0
 2258 0025 02       		.uleb128 0x2
 2259 0026 01       		.byte	0x1
 2260 0027 06       		.byte	0x6
 2261 0028 9A110000 		.4byte	.LASF0
 2262 002c 03       		.uleb128 0x3
 2263 002d 270E0000 		.4byte	.LASF2
 2264 0031 02       		.byte	0x2
 2265 0032 1D       		.byte	0x1d
 2266 0033 37000000 		.4byte	0x37
 2267 0037 02       		.uleb128 0x2
 2268 0038 01       		.byte	0x1
 2269 0039 08       		.byte	0x8
 2270 003a 03100000 		.4byte	.LASF1
 2271 003e 03       		.uleb128 0x3
 2272 003f 4F0A0000 		.4byte	.LASF3
 2273 0043 02       		.byte	0x2
 2274 0044 29       		.byte	0x29
 2275 0045 49000000 		.4byte	0x49
 2276 0049 02       		.uleb128 0x2
 2277 004a 02       		.byte	0x2
 2278 004b 05       		.byte	0x5
 2279 004c AA0C0000 		.4byte	.LASF4
 2280 0050 03       		.uleb128 0x3
 2281 0051 6B050000 		.4byte	.LASF5
 2282 0055 02       		.byte	0x2
 2283 0056 2B       		.byte	0x2b
 2284 0057 5B000000 		.4byte	0x5b
 2285 005b 02       		.uleb128 0x2
 2286 005c 02       		.byte	0x2
 2287 005d 07       		.byte	0x7
 2288 005e B9110000 		.4byte	.LASF6
 2289 0062 03       		.uleb128 0x3
 2290 0063 52010000 		.4byte	.LASF7
 2291 0067 02       		.byte	0x2
 2292 0068 3F       		.byte	0x3f
 2293 0069 6D000000 		.4byte	0x6d
 2294 006d 02       		.uleb128 0x2
 2295 006e 04       		.byte	0x4
 2296 006f 05       		.byte	0x5
 2297 0070 C70C0000 		.4byte	.LASF8
 2298 0074 03       		.uleb128 0x3
 2299 0075 11100000 		.4byte	.LASF9
 2300 0079 02       		.byte	0x2
 2301 007a 41       		.byte	0x41
 2302 007b 7F000000 		.4byte	0x7f
 2303 007f 02       		.uleb128 0x2
 2304 0080 04       		.byte	0x4
ARM GAS  C:\Users\JENNEW~1\AppData\Local\Temp\ccBYNzIK.s 			page 51


 2305 0081 07       		.byte	0x7
 2306 0082 EB0E0000 		.4byte	.LASF10
 2307 0086 02       		.uleb128 0x2
 2308 0087 08       		.byte	0x8
 2309 0088 05       		.byte	0x5
 2310 0089 9E090000 		.4byte	.LASF11
 2311 008d 02       		.uleb128 0x2
 2312 008e 08       		.byte	0x8
 2313 008f 07       		.byte	0x7
 2314 0090 D6040000 		.4byte	.LASF12
 2315 0094 04       		.uleb128 0x4
 2316 0095 04       		.byte	0x4
 2317 0096 05       		.byte	0x5
 2318 0097 696E7400 		.ascii	"int\000"
 2319 009b 02       		.uleb128 0x2
 2320 009c 04       		.byte	0x4
 2321 009d 07       		.byte	0x7
 2322 009e 07010000 		.4byte	.LASF13
 2323 00a2 03       		.uleb128 0x3
 2324 00a3 06080000 		.4byte	.LASF14
 2325 00a7 03       		.byte	0x3
 2326 00a8 18       		.byte	0x18
 2327 00a9 2C000000 		.4byte	0x2c
 2328 00ad 03       		.uleb128 0x3
 2329 00ae A7040000 		.4byte	.LASF15
 2330 00b2 03       		.byte	0x3
 2331 00b3 20       		.byte	0x20
 2332 00b4 3E000000 		.4byte	0x3e
 2333 00b8 03       		.uleb128 0x3
 2334 00b9 060C0000 		.4byte	.LASF16
 2335 00bd 03       		.byte	0x3
 2336 00be 24       		.byte	0x24
 2337 00bf 50000000 		.4byte	0x50
 2338 00c3 03       		.uleb128 0x3
 2339 00c4 780F0000 		.4byte	.LASF17
 2340 00c8 03       		.byte	0x3
 2341 00c9 2C       		.byte	0x2c
 2342 00ca 62000000 		.4byte	0x62
 2343 00ce 03       		.uleb128 0x3
 2344 00cf E8030000 		.4byte	.LASF18
 2345 00d3 03       		.byte	0x3
 2346 00d4 30       		.byte	0x30
 2347 00d5 74000000 		.4byte	0x74
 2348 00d9 05       		.uleb128 0x5
 2349 00da 0C       		.byte	0xc
 2350 00db 04       		.byte	0x4
 2351 00dc 24       		.byte	0x24
 2352 00dd 06010000 		.4byte	0x106
 2353 00e1 06       		.uleb128 0x6
 2354 00e2 63747800 		.ascii	"ctx\000"
 2355 00e6 04       		.byte	0x4
 2356 00e7 25       		.byte	0x25
 2357 00e8 06010000 		.4byte	0x106
 2358 00ec 00       		.byte	0
 2359 00ed 07       		.uleb128 0x7
 2360 00ee 1C040000 		.4byte	.LASF19
 2361 00f2 04       		.byte	0x4
ARM GAS  C:\Users\JENNEW~1\AppData\Local\Temp\ccBYNzIK.s 			page 52


 2362 00f3 26       		.byte	0x26
 2363 00f4 18010000 		.4byte	0x118
 2364 00f8 04       		.byte	0x4
 2365 00f9 07       		.uleb128 0x7
 2366 00fa CF020000 		.4byte	.LASF20
 2367 00fe 04       		.byte	0x4
 2368 00ff 27       		.byte	0x27
 2369 0100 2D010000 		.4byte	0x12d
 2370 0104 08       		.byte	0x8
 2371 0105 00       		.byte	0
 2372 0106 08       		.uleb128 0x8
 2373 0107 04       		.byte	0x4
 2374 0108 09       		.uleb128 0x9
 2375 0109 18010000 		.4byte	0x118
 2376 010d 0A       		.uleb128 0xa
 2377 010e 06010000 		.4byte	0x106
 2378 0112 0A       		.uleb128 0xa
 2379 0113 A2000000 		.4byte	0xa2
 2380 0117 00       		.byte	0
 2381 0118 0B       		.uleb128 0xb
 2382 0119 04       		.byte	0x4
 2383 011a 08010000 		.4byte	0x108
 2384 011e 0C       		.uleb128 0xc
 2385 011f CE000000 		.4byte	0xce
 2386 0123 2D010000 		.4byte	0x12d
 2387 0127 0A       		.uleb128 0xa
 2388 0128 06010000 		.4byte	0x106
 2389 012c 00       		.byte	0
 2390 012d 0B       		.uleb128 0xb
 2391 012e 04       		.byte	0x4
 2392 012f 1E010000 		.4byte	0x11e
 2393 0133 03       		.uleb128 0x3
 2394 0134 F2000000 		.4byte	.LASF21
 2395 0138 04       		.byte	0x4
 2396 0139 28       		.byte	0x28
 2397 013a D9000000 		.4byte	0xd9
 2398 013e 0D       		.uleb128 0xd
 2399 013f 01       		.byte	0x1
 2400 0140 37000000 		.4byte	0x37
 2401 0144 05       		.byte	0x5
 2402 0145 1E       		.byte	0x1e
 2403 0146 63010000 		.4byte	0x163
 2404 014a 0E       		.uleb128 0xe
 2405 014b 9C100000 		.4byte	.LASF22
 2406 014f 00       		.byte	0
 2407 0150 0E       		.uleb128 0xe
 2408 0151 6F030000 		.4byte	.LASF23
 2409 0155 01       		.byte	0x1
 2410 0156 0E       		.uleb128 0xe
 2411 0157 380B0000 		.4byte	.LASF24
 2412 015b 02       		.byte	0x2
 2413 015c 0E       		.uleb128 0xe
 2414 015d CC110000 		.4byte	.LASF25
 2415 0161 03       		.byte	0x3
 2416 0162 00       		.byte	0
 2417 0163 03       		.uleb128 0x3
 2418 0164 D7060000 		.4byte	.LASF26
ARM GAS  C:\Users\JENNEW~1\AppData\Local\Temp\ccBYNzIK.s 			page 53


 2419 0168 05       		.byte	0x5
 2420 0169 2A       		.byte	0x2a
 2421 016a 3E010000 		.4byte	0x13e
 2422 016e 05       		.uleb128 0x5
 2423 016f 14       		.byte	0x14
 2424 0170 05       		.byte	0x5
 2425 0171 2E       		.byte	0x2e
 2426 0172 D7010000 		.4byte	0x1d7
 2427 0176 06       		.uleb128 0x6
 2428 0177 70616E00 		.ascii	"pan\000"
 2429 017b 05       		.byte	0x5
 2430 017c 2F       		.byte	0x2f
 2431 017d D7010000 		.4byte	0x1d7
 2432 0181 00       		.byte	0
 2433 0182 07       		.uleb128 0x7
 2434 0183 A2040000 		.4byte	.LASF27
 2435 0187 05       		.byte	0x5
 2436 0188 30       		.byte	0x30
 2437 0189 D7010000 		.4byte	0x1d7
 2438 018d 04       		.byte	0x4
 2439 018e 07       		.uleb128 0x7
 2440 018f B9080000 		.4byte	.LASF28
 2441 0193 05       		.byte	0x5
 2442 0194 31       		.byte	0x31
 2443 0195 D7010000 		.4byte	0x1d7
 2444 0199 08       		.byte	0x8
 2445 019a 07       		.uleb128 0x7
 2446 019b 3A060000 		.4byte	.LASF29
 2447 019f 05       		.byte	0x5
 2448 01a0 32       		.byte	0x32
 2449 01a1 63010000 		.4byte	0x163
 2450 01a5 0C       		.byte	0xc
 2451 01a6 07       		.uleb128 0x7
 2452 01a7 50070000 		.4byte	.LASF30
 2453 01ab 05       		.byte	0x5
 2454 01ac 33       		.byte	0x33
 2455 01ad 63010000 		.4byte	0x163
 2456 01b1 0D       		.byte	0xd
 2457 01b2 07       		.uleb128 0x7
 2458 01b3 16030000 		.4byte	.LASF31
 2459 01b7 05       		.byte	0x5
 2460 01b8 34       		.byte	0x34
 2461 01b9 63010000 		.4byte	0x163
 2462 01bd 0E       		.byte	0xe
 2463 01be 07       		.uleb128 0x7
 2464 01bf C8050000 		.4byte	.LASF32
 2465 01c3 05       		.byte	0x5
 2466 01c4 35       		.byte	0x35
 2467 01c5 A2000000 		.4byte	0xa2
 2468 01c9 0F       		.byte	0xf
 2469 01ca 07       		.uleb128 0x7
 2470 01cb E5020000 		.4byte	.LASF33
 2471 01cf 05       		.byte	0x5
 2472 01d0 36       		.byte	0x36
 2473 01d1 A2000000 		.4byte	0xa2
 2474 01d5 10       		.byte	0x10
 2475 01d6 00       		.byte	0
ARM GAS  C:\Users\JENNEW~1\AppData\Local\Temp\ccBYNzIK.s 			page 54


 2476 01d7 02       		.uleb128 0x2
 2477 01d8 04       		.byte	0x4
 2478 01d9 04       		.byte	0x4
 2479 01da 48040000 		.4byte	.LASF34
 2480 01de 03       		.uleb128 0x3
 2481 01df CF0E0000 		.4byte	.LASF35
 2482 01e3 05       		.byte	0x5
 2483 01e4 37       		.byte	0x37
 2484 01e5 6E010000 		.4byte	0x16e
 2485 01e9 05       		.uleb128 0x5
 2486 01ea 0C       		.byte	0xc
 2487 01eb 05       		.byte	0x5
 2488 01ec 3C       		.byte	0x3c
 2489 01ed 16020000 		.4byte	0x216
 2490 01f1 07       		.uleb128 0x7
 2491 01f2 BE060000 		.4byte	.LASF36
 2492 01f6 05       		.byte	0x5
 2493 01f7 3D       		.byte	0x3d
 2494 01f8 C3000000 		.4byte	0xc3
 2495 01fc 00       		.byte	0
 2496 01fd 07       		.uleb128 0x7
 2497 01fe 00000000 		.4byte	.LASF37
 2498 0202 05       		.byte	0x5
 2499 0203 3E       		.byte	0x3e
 2500 0204 C3000000 		.4byte	0xc3
 2501 0208 04       		.byte	0x4
 2502 0209 07       		.uleb128 0x7
 2503 020a 52000000 		.4byte	.LASF38
 2504 020e 05       		.byte	0x5
 2505 020f 3F       		.byte	0x3f
 2506 0210 D7010000 		.4byte	0x1d7
 2507 0214 08       		.byte	0x8
 2508 0215 00       		.byte	0
 2509 0216 03       		.uleb128 0x3
 2510 0217 B40C0000 		.4byte	.LASF39
 2511 021b 05       		.byte	0x5
 2512 021c 40       		.byte	0x40
 2513 021d E9010000 		.4byte	0x1e9
 2514 0221 05       		.uleb128 0x5
 2515 0222 0C       		.byte	0xc
 2516 0223 05       		.byte	0x5
 2517 0224 43       		.byte	0x43
 2518 0225 4E020000 		.4byte	0x24e
 2519 0229 07       		.uleb128 0x7
 2520 022a 91010000 		.4byte	.LASF40
 2521 022e 05       		.byte	0x5
 2522 022f 44       		.byte	0x44
 2523 0230 D7010000 		.4byte	0x1d7
 2524 0234 00       		.byte	0
 2525 0235 07       		.uleb128 0x7
 2526 0236 89040000 		.4byte	.LASF41
 2527 023a 05       		.byte	0x5
 2528 023b 45       		.byte	0x45
 2529 023c D7010000 		.4byte	0x1d7
 2530 0240 04       		.byte	0x4
 2531 0241 07       		.uleb128 0x7
 2532 0242 15080000 		.4byte	.LASF42
ARM GAS  C:\Users\JENNEW~1\AppData\Local\Temp\ccBYNzIK.s 			page 55


 2533 0246 05       		.byte	0x5
 2534 0247 46       		.byte	0x46
 2535 0248 D7010000 		.4byte	0x1d7
 2536 024c 08       		.byte	0x8
 2537 024d 00       		.byte	0
 2538 024e 03       		.uleb128 0x3
 2539 024f EA020000 		.4byte	.LASF43
 2540 0253 05       		.byte	0x5
 2541 0254 47       		.byte	0x47
 2542 0255 21020000 		.4byte	0x221
 2543 0259 05       		.uleb128 0x5
 2544 025a EC       		.byte	0xec
 2545 025b 06       		.byte	0x6
 2546 025c 1F       		.byte	0x1f
 2547 025d C2050000 		.4byte	0x5c2
 2548 0261 07       		.uleb128 0x7
 2549 0262 C5090000 		.4byte	.LASF44
 2550 0266 06       		.byte	0x6
 2551 0267 21       		.byte	0x21
 2552 0268 C2050000 		.4byte	0x5c2
 2553 026c 00       		.byte	0
 2554 026d 07       		.uleb128 0x7
 2555 026e C0020000 		.4byte	.LASF45
 2556 0272 06       		.byte	0x6
 2557 0273 22       		.byte	0x22
 2558 0274 D7010000 		.4byte	0x1d7
 2559 0278 04       		.byte	0x4
 2560 0279 07       		.uleb128 0x7
 2561 027a 4E0E0000 		.4byte	.LASF46
 2562 027e 06       		.byte	0x6
 2563 027f 23       		.byte	0x23
 2564 0280 D7010000 		.4byte	0x1d7
 2565 0284 08       		.byte	0x8
 2566 0285 07       		.uleb128 0x7
 2567 0286 9C080000 		.4byte	.LASF47
 2568 028a 06       		.byte	0x6
 2569 028b 24       		.byte	0x24
 2570 028c D7010000 		.4byte	0x1d7
 2571 0290 0C       		.byte	0xc
 2572 0291 07       		.uleb128 0x7
 2573 0292 49080000 		.4byte	.LASF48
 2574 0296 06       		.byte	0x6
 2575 0297 25       		.byte	0x25
 2576 0298 D7010000 		.4byte	0x1d7
 2577 029c 10       		.byte	0x10
 2578 029d 07       		.uleb128 0x7
 2579 029e 52080000 		.4byte	.LASF49
 2580 02a2 06       		.byte	0x6
 2581 02a3 26       		.byte	0x26
 2582 02a4 D7010000 		.4byte	0x1d7
 2583 02a8 14       		.byte	0x14
 2584 02a9 07       		.uleb128 0x7
 2585 02aa 5B080000 		.4byte	.LASF50
 2586 02ae 06       		.byte	0x6
 2587 02af 27       		.byte	0x27
 2588 02b0 D7010000 		.4byte	0x1d7
 2589 02b4 18       		.byte	0x18
ARM GAS  C:\Users\JENNEW~1\AppData\Local\Temp\ccBYNzIK.s 			page 56


 2590 02b5 07       		.uleb128 0x7
 2591 02b6 260C0000 		.4byte	.LASF51
 2592 02ba 06       		.byte	0x6
 2593 02bb 28       		.byte	0x28
 2594 02bc A2000000 		.4byte	0xa2
 2595 02c0 1C       		.byte	0x1c
 2596 02c1 07       		.uleb128 0x7
 2597 02c2 350C0000 		.4byte	.LASF52
 2598 02c6 06       		.byte	0x6
 2599 02c7 29       		.byte	0x29
 2600 02c8 A2000000 		.4byte	0xa2
 2601 02cc 1D       		.byte	0x1d
 2602 02cd 07       		.uleb128 0x7
 2603 02ce 590A0000 		.4byte	.LASF53
 2604 02d2 06       		.byte	0x6
 2605 02d3 2C       		.byte	0x2c
 2606 02d4 C2050000 		.4byte	0x5c2
 2607 02d8 1E       		.byte	0x1e
 2608 02d9 07       		.uleb128 0x7
 2609 02da AC090000 		.4byte	.LASF54
 2610 02de 06       		.byte	0x6
 2611 02df 2E       		.byte	0x2e
 2612 02e0 C2050000 		.4byte	0x5c2
 2613 02e4 1F       		.byte	0x1f
 2614 02e5 07       		.uleb128 0x7
 2615 02e6 1B0E0000 		.4byte	.LASF55
 2616 02ea 06       		.byte	0x6
 2617 02eb 31       		.byte	0x31
 2618 02ec D7010000 		.4byte	0x1d7
 2619 02f0 20       		.byte	0x20
 2620 02f1 07       		.uleb128 0x7
 2621 02f2 F8060000 		.4byte	.LASF56
 2622 02f6 06       		.byte	0x6
 2623 02f7 32       		.byte	0x32
 2624 02f8 D7010000 		.4byte	0x1d7
 2625 02fc 24       		.byte	0x24
 2626 02fd 07       		.uleb128 0x7
 2627 02fe 970D0000 		.4byte	.LASF57
 2628 0302 06       		.byte	0x6
 2629 0303 33       		.byte	0x33
 2630 0304 D7010000 		.4byte	0x1d7
 2631 0308 28       		.byte	0x28
 2632 0309 07       		.uleb128 0x7
 2633 030a F1030000 		.4byte	.LASF58
 2634 030e 06       		.byte	0x6
 2635 030f 34       		.byte	0x34
 2636 0310 D7010000 		.4byte	0x1d7
 2637 0314 2C       		.byte	0x2c
 2638 0315 07       		.uleb128 0x7
 2639 0316 DC0B0000 		.4byte	.LASF59
 2640 031a 06       		.byte	0x6
 2641 031b 36       		.byte	0x36
 2642 031c D7010000 		.4byte	0x1d7
 2643 0320 30       		.byte	0x30
 2644 0321 07       		.uleb128 0x7
 2645 0322 45070000 		.4byte	.LASF60
 2646 0326 06       		.byte	0x6
ARM GAS  C:\Users\JENNEW~1\AppData\Local\Temp\ccBYNzIK.s 			page 57


 2647 0327 37       		.byte	0x37
 2648 0328 D7010000 		.4byte	0x1d7
 2649 032c 34       		.byte	0x34
 2650 032d 07       		.uleb128 0x7
 2651 032e F7100000 		.4byte	.LASF61
 2652 0332 06       		.byte	0x6
 2653 0333 38       		.byte	0x38
 2654 0334 D7010000 		.4byte	0x1d7
 2655 0338 38       		.byte	0x38
 2656 0339 07       		.uleb128 0x7
 2657 033a 92090000 		.4byte	.LASF62
 2658 033e 06       		.byte	0x6
 2659 033f 39       		.byte	0x39
 2660 0340 D7010000 		.4byte	0x1d7
 2661 0344 3C       		.byte	0x3c
 2662 0345 07       		.uleb128 0x7
 2663 0346 37000000 		.4byte	.LASF63
 2664 034a 06       		.byte	0x6
 2665 034b 3B       		.byte	0x3b
 2666 034c C3000000 		.4byte	0xc3
 2667 0350 40       		.byte	0x40
 2668 0351 07       		.uleb128 0x7
 2669 0352 EB110000 		.4byte	.LASF64
 2670 0356 06       		.byte	0x6
 2671 0357 3C       		.byte	0x3c
 2672 0358 C3000000 		.4byte	0xc3
 2673 035c 44       		.byte	0x44
 2674 035d 07       		.uleb128 0x7
 2675 035e 2E070000 		.4byte	.LASF65
 2676 0362 06       		.byte	0x6
 2677 0363 41       		.byte	0x41
 2678 0364 C3000000 		.4byte	0xc3
 2679 0368 48       		.byte	0x48
 2680 0369 07       		.uleb128 0x7
 2681 036a 730D0000 		.4byte	.LASF66
 2682 036e 06       		.byte	0x6
 2683 036f 42       		.byte	0x42
 2684 0370 AD000000 		.4byte	0xad
 2685 0374 4C       		.byte	0x4c
 2686 0375 07       		.uleb128 0x7
 2687 0376 6F0B0000 		.4byte	.LASF67
 2688 037a 06       		.byte	0x6
 2689 037b 44       		.byte	0x44
 2690 037c AD000000 		.4byte	0xad
 2691 0380 4E       		.byte	0x4e
 2692 0381 07       		.uleb128 0x7
 2693 0382 A6110000 		.4byte	.LASF68
 2694 0386 06       		.byte	0x6
 2695 0387 45       		.byte	0x45
 2696 0388 B8000000 		.4byte	0xb8
 2697 038c 50       		.byte	0x50
 2698 038d 07       		.uleb128 0x7
 2699 038e 3B140000 		.4byte	.LASF69
 2700 0392 06       		.byte	0x6
 2701 0393 46       		.byte	0x46
 2702 0394 B8000000 		.4byte	0xb8
 2703 0398 52       		.byte	0x52
ARM GAS  C:\Users\JENNEW~1\AppData\Local\Temp\ccBYNzIK.s 			page 58


 2704 0399 07       		.uleb128 0x7
 2705 039a 03050000 		.4byte	.LASF70
 2706 039e 06       		.byte	0x6
 2707 039f 47       		.byte	0x47
 2708 03a0 B8000000 		.4byte	0xb8
 2709 03a4 54       		.byte	0x54
 2710 03a5 07       		.uleb128 0x7
 2711 03a6 E00E0000 		.4byte	.LASF71
 2712 03aa 06       		.byte	0x6
 2713 03ab 4A       		.byte	0x4a
 2714 03ac C2050000 		.4byte	0x5c2
 2715 03b0 56       		.byte	0x56
 2716 03b1 07       		.uleb128 0x7
 2717 03b2 CF130000 		.4byte	.LASF72
 2718 03b6 06       		.byte	0x6
 2719 03b7 4E       		.byte	0x4e
 2720 03b8 D7010000 		.4byte	0x1d7
 2721 03bc 58       		.byte	0x58
 2722 03bd 07       		.uleb128 0x7
 2723 03be F7040000 		.4byte	.LASF73
 2724 03c2 06       		.byte	0x6
 2725 03c3 52       		.byte	0x52
 2726 03c4 D7010000 		.4byte	0x1d7
 2727 03c8 5C       		.byte	0x5c
 2728 03c9 07       		.uleb128 0x7
 2729 03ca A9100000 		.4byte	.LASF74
 2730 03ce 06       		.byte	0x6
 2731 03cf 57       		.byte	0x57
 2732 03d0 C2050000 		.4byte	0x5c2
 2733 03d4 60       		.byte	0x60
 2734 03d5 07       		.uleb128 0x7
 2735 03d6 B7050000 		.4byte	.LASF75
 2736 03da 06       		.byte	0x6
 2737 03db 58       		.byte	0x58
 2738 03dc CE000000 		.4byte	0xce
 2739 03e0 64       		.byte	0x64
 2740 03e1 07       		.uleb128 0x7
 2741 03e2 62060000 		.4byte	.LASF76
 2742 03e6 06       		.byte	0x6
 2743 03e7 59       		.byte	0x59
 2744 03e8 D7010000 		.4byte	0x1d7
 2745 03ec 68       		.byte	0x68
 2746 03ed 07       		.uleb128 0x7
 2747 03ee 9E030000 		.4byte	.LASF77
 2748 03f2 06       		.byte	0x6
 2749 03f3 5A       		.byte	0x5a
 2750 03f4 D7010000 		.4byte	0x1d7
 2751 03f8 6C       		.byte	0x6c
 2752 03f9 07       		.uleb128 0x7
 2753 03fa 16110000 		.4byte	.LASF78
 2754 03fe 06       		.byte	0x6
 2755 03ff 5B       		.byte	0x5b
 2756 0400 D7010000 		.4byte	0x1d7
 2757 0404 70       		.byte	0x70
 2758 0405 07       		.uleb128 0x7
 2759 0406 E30F0000 		.4byte	.LASF79
 2760 040a 06       		.byte	0x6
ARM GAS  C:\Users\JENNEW~1\AppData\Local\Temp\ccBYNzIK.s 			page 59


 2761 040b 5F       		.byte	0x5f
 2762 040c D7010000 		.4byte	0x1d7
 2763 0410 74       		.byte	0x74
 2764 0411 07       		.uleb128 0x7
 2765 0412 B20F0000 		.4byte	.LASF80
 2766 0416 06       		.byte	0x6
 2767 0417 60       		.byte	0x60
 2768 0418 D7010000 		.4byte	0x1d7
 2769 041c 78       		.byte	0x78
 2770 041d 07       		.uleb128 0x7
 2771 041e 1B140000 		.4byte	.LASF81
 2772 0422 06       		.byte	0x6
 2773 0423 61       		.byte	0x61
 2774 0424 D7010000 		.4byte	0x1d7
 2775 0428 7C       		.byte	0x7c
 2776 0429 07       		.uleb128 0x7
 2777 042a 1B120000 		.4byte	.LASF82
 2778 042e 06       		.byte	0x6
 2779 042f 65       		.byte	0x65
 2780 0430 D7010000 		.4byte	0x1d7
 2781 0434 80       		.byte	0x80
 2782 0435 07       		.uleb128 0x7
 2783 0436 23100000 		.4byte	.LASF83
 2784 043a 06       		.byte	0x6
 2785 043b 66       		.byte	0x66
 2786 043c D7010000 		.4byte	0x1d7
 2787 0440 84       		.byte	0x84
 2788 0441 07       		.uleb128 0x7
 2789 0442 04070000 		.4byte	.LASF84
 2790 0446 06       		.byte	0x6
 2791 0447 67       		.byte	0x67
 2792 0448 D7010000 		.4byte	0x1d7
 2793 044c 88       		.byte	0x88
 2794 044d 07       		.uleb128 0x7
 2795 044e 92050000 		.4byte	.LASF85
 2796 0452 06       		.byte	0x6
 2797 0453 6A       		.byte	0x6a
 2798 0454 C2050000 		.4byte	0x5c2
 2799 0458 8C       		.byte	0x8c
 2800 0459 07       		.uleb128 0x7
 2801 045a 44030000 		.4byte	.LASF86
 2802 045e 06       		.byte	0x6
 2803 045f 6E       		.byte	0x6e
 2804 0460 C2050000 		.4byte	0x5c2
 2805 0464 8D       		.byte	0x8d
 2806 0465 07       		.uleb128 0x7
 2807 0466 E10A0000 		.4byte	.LASF87
 2808 046a 06       		.byte	0x6
 2809 046b 6F       		.byte	0x6f
 2810 046c C2050000 		.4byte	0x5c2
 2811 0470 8E       		.byte	0x8e
 2812 0471 07       		.uleb128 0x7
 2813 0472 A8050000 		.4byte	.LASF88
 2814 0476 06       		.byte	0x6
 2815 0477 70       		.byte	0x70
 2816 0478 C2050000 		.4byte	0x5c2
 2817 047c 8F       		.byte	0x8f
ARM GAS  C:\Users\JENNEW~1\AppData\Local\Temp\ccBYNzIK.s 			page 60


 2818 047d 07       		.uleb128 0x7
 2819 047e 80130000 		.4byte	.LASF89
 2820 0482 06       		.byte	0x6
 2821 0483 71       		.byte	0x71
 2822 0484 C2050000 		.4byte	0x5c2
 2823 0488 90       		.byte	0x90
 2824 0489 07       		.uleb128 0x7
 2825 048a 8D0E0000 		.4byte	.LASF90
 2826 048e 06       		.byte	0x6
 2827 048f 72       		.byte	0x72
 2828 0490 D7010000 		.4byte	0x1d7
 2829 0494 94       		.byte	0x94
 2830 0495 07       		.uleb128 0x7
 2831 0496 8B080000 		.4byte	.LASF91
 2832 049a 06       		.byte	0x6
 2833 049b 73       		.byte	0x73
 2834 049c A2000000 		.4byte	0xa2
 2835 04a0 98       		.byte	0x98
 2836 04a1 07       		.uleb128 0x7
 2837 04a2 480B0000 		.4byte	.LASF92
 2838 04a6 06       		.byte	0x6
 2839 04a7 74       		.byte	0x74
 2840 04a8 D7010000 		.4byte	0x1d7
 2841 04ac 9C       		.byte	0x9c
 2842 04ad 07       		.uleb128 0x7
 2843 04ae 5D000000 		.4byte	.LASF93
 2844 04b2 06       		.byte	0x6
 2845 04b3 75       		.byte	0x75
 2846 04b4 A2000000 		.4byte	0xa2
 2847 04b8 A0       		.byte	0xa0
 2848 04b9 07       		.uleb128 0x7
 2849 04ba 17060000 		.4byte	.LASF94
 2850 04be 06       		.byte	0x6
 2851 04bf 76       		.byte	0x76
 2852 04c0 AD000000 		.4byte	0xad
 2853 04c4 A2       		.byte	0xa2
 2854 04c5 07       		.uleb128 0x7
 2855 04c6 4E100000 		.4byte	.LASF95
 2856 04ca 06       		.byte	0x6
 2857 04cb 77       		.byte	0x77
 2858 04cc AD000000 		.4byte	0xad
 2859 04d0 A4       		.byte	0xa4
 2860 04d1 07       		.uleb128 0x7
 2861 04d2 F3130000 		.4byte	.LASF96
 2862 04d6 06       		.byte	0x6
 2863 04d7 78       		.byte	0x78
 2864 04d8 D7010000 		.4byte	0x1d7
 2865 04dc A8       		.byte	0xa8
 2866 04dd 07       		.uleb128 0x7
 2867 04de 38080000 		.4byte	.LASF97
 2868 04e2 06       		.byte	0x6
 2869 04e3 79       		.byte	0x79
 2870 04e4 AD000000 		.4byte	0xad
 2871 04e8 AC       		.byte	0xac
 2872 04e9 07       		.uleb128 0x7
 2873 04ea EA050000 		.4byte	.LASF98
 2874 04ee 06       		.byte	0x6
ARM GAS  C:\Users\JENNEW~1\AppData\Local\Temp\ccBYNzIK.s 			page 61


 2875 04ef 7A       		.byte	0x7a
 2876 04f0 AD000000 		.4byte	0xad
 2877 04f4 AE       		.byte	0xae
 2878 04f5 07       		.uleb128 0x7
 2879 04f6 07140000 		.4byte	.LASF99
 2880 04fa 06       		.byte	0x6
 2881 04fb 7B       		.byte	0x7b
 2882 04fc AD000000 		.4byte	0xad
 2883 0500 B0       		.byte	0xb0
 2884 0501 07       		.uleb128 0x7
 2885 0502 310E0000 		.4byte	.LASF100
 2886 0506 06       		.byte	0x6
 2887 0507 7C       		.byte	0x7c
 2888 0508 D7010000 		.4byte	0x1d7
 2889 050c B4       		.byte	0xb4
 2890 050d 07       		.uleb128 0x7
 2891 050e 2A050000 		.4byte	.LASF101
 2892 0512 06       		.byte	0x6
 2893 0513 7D       		.byte	0x7d
 2894 0514 AD000000 		.4byte	0xad
 2895 0518 B8       		.byte	0xb8
 2896 0519 07       		.uleb128 0x7
 2897 051a 8B030000 		.4byte	.LASF102
 2898 051e 06       		.byte	0x6
 2899 051f 80       		.byte	0x80
 2900 0520 C2050000 		.4byte	0x5c2
 2901 0524 BA       		.byte	0xba
 2902 0525 07       		.uleb128 0x7
 2903 0526 AE020000 		.4byte	.LASF103
 2904 052a 06       		.byte	0x6
 2905 052b 81       		.byte	0x81
 2906 052c D7010000 		.4byte	0x1d7
 2907 0530 BC       		.byte	0xbc
 2908 0531 07       		.uleb128 0x7
 2909 0532 B4020000 		.4byte	.LASF104
 2910 0536 06       		.byte	0x6
 2911 0537 82       		.byte	0x82
 2912 0538 D7010000 		.4byte	0x1d7
 2913 053c C0       		.byte	0xc0
 2914 053d 07       		.uleb128 0x7
 2915 053e BA020000 		.4byte	.LASF105
 2916 0542 06       		.byte	0x6
 2917 0543 83       		.byte	0x83
 2918 0544 D7010000 		.4byte	0x1d7
 2919 0548 C4       		.byte	0xc4
 2920 0549 07       		.uleb128 0x7
 2921 054a 3D110000 		.4byte	.LASF106
 2922 054e 06       		.byte	0x6
 2923 054f 84       		.byte	0x84
 2924 0550 D7010000 		.4byte	0x1d7
 2925 0554 C8       		.byte	0xc8
 2926 0555 07       		.uleb128 0x7
 2927 0556 57030000 		.4byte	.LASF107
 2928 055a 06       		.byte	0x6
 2929 055b 85       		.byte	0x85
 2930 055c D7010000 		.4byte	0x1d7
 2931 0560 CC       		.byte	0xcc
ARM GAS  C:\Users\JENNEW~1\AppData\Local\Temp\ccBYNzIK.s 			page 62


 2932 0561 07       		.uleb128 0x7
 2933 0562 74090000 		.4byte	.LASF108
 2934 0566 06       		.byte	0x6
 2935 0567 86       		.byte	0x86
 2936 0568 D7010000 		.4byte	0x1d7
 2937 056c D0       		.byte	0xd0
 2938 056d 07       		.uleb128 0x7
 2939 056e 7E090000 		.4byte	.LASF109
 2940 0572 06       		.byte	0x6
 2941 0573 87       		.byte	0x87
 2942 0574 D7010000 		.4byte	0x1d7
 2943 0578 D4       		.byte	0xd4
 2944 0579 07       		.uleb128 0x7
 2945 057a 88090000 		.4byte	.LASF110
 2946 057e 06       		.byte	0x6
 2947 057f 88       		.byte	0x88
 2948 0580 D7010000 		.4byte	0x1d7
 2949 0584 D8       		.byte	0xd8
 2950 0585 07       		.uleb128 0x7
 2951 0586 0F0C0000 		.4byte	.LASF111
 2952 058a 06       		.byte	0x6
 2953 058b 89       		.byte	0x89
 2954 058c D7010000 		.4byte	0x1d7
 2955 0590 DC       		.byte	0xdc
 2956 0591 07       		.uleb128 0x7
 2957 0592 2C060000 		.4byte	.LASF112
 2958 0596 06       		.byte	0x6
 2959 0597 94       		.byte	0x94
 2960 0598 C2050000 		.4byte	0x5c2
 2961 059c E0       		.byte	0xe0
 2962 059d 07       		.uleb128 0x7
 2963 059e 7F0A0000 		.4byte	.LASF113
 2964 05a2 06       		.byte	0x6
 2965 05a3 95       		.byte	0x95
 2966 05a4 C2050000 		.4byte	0x5c2
 2967 05a8 E1       		.byte	0xe1
 2968 05a9 07       		.uleb128 0x7
 2969 05aa 86110000 		.4byte	.LASF114
 2970 05ae 06       		.byte	0x6
 2971 05af 96       		.byte	0x96
 2972 05b0 D7010000 		.4byte	0x1d7
 2973 05b4 E4       		.byte	0xe4
 2974 05b5 07       		.uleb128 0x7
 2975 05b6 AA030000 		.4byte	.LASF115
 2976 05ba 06       		.byte	0x6
 2977 05bb 97       		.byte	0x97
 2978 05bc AD000000 		.4byte	0xad
 2979 05c0 E8       		.byte	0xe8
 2980 05c1 00       		.byte	0
 2981 05c2 02       		.uleb128 0x2
 2982 05c3 01       		.byte	0x1
 2983 05c4 02       		.byte	0x2
 2984 05c5 B8060000 		.4byte	.LASF116
 2985 05c9 03       		.uleb128 0x3
 2986 05ca 07000000 		.4byte	.LASF117
 2987 05ce 06       		.byte	0x6
 2988 05cf 99       		.byte	0x99
ARM GAS  C:\Users\JENNEW~1\AppData\Local\Temp\ccBYNzIK.s 			page 63


 2989 05d0 59020000 		.4byte	0x259
 2990 05d4 0F       		.uleb128 0xf
 2991 05d5 0601     		.2byte	0x106
 2992 05d7 07       		.byte	0x7
 2993 05d8 22       		.byte	0x22
 2994 05d9 11060000 		.4byte	0x611
 2995 05dd 06       		.uleb128 0x6
 2996 05de 62756600 		.ascii	"buf\000"
 2997 05e2 07       		.byte	0x7
 2998 05e3 23       		.byte	0x23
 2999 05e4 2D060000 		.4byte	0x62d
 3000 05e8 00       		.byte	0
 3001 05e9 10       		.uleb128 0x10
 3002 05ea 4D010000 		.4byte	.LASF118
 3003 05ee 07       		.byte	0x7
 3004 05ef 24       		.byte	0x24
 3005 05f0 32060000 		.4byte	0x632
 3006 05f4 0001     		.2byte	0x100
 3007 05f6 10       		.uleb128 0x10
 3008 05f7 65100000 		.4byte	.LASF119
 3009 05fb 07       		.byte	0x7
 3010 05fc 25       		.byte	0x25
 3011 05fd 32060000 		.4byte	0x632
 3012 0601 0201     		.2byte	0x102
 3013 0603 10       		.uleb128 0x10
 3014 0604 14070000 		.4byte	.LASF120
 3015 0608 07       		.byte	0x7
 3016 0609 26       		.byte	0x26
 3017 060a 32060000 		.4byte	0x632
 3018 060e 0401     		.2byte	0x104
 3019 0610 00       		.byte	0
 3020 0611 11       		.uleb128 0x11
 3021 0612 28060000 		.4byte	0x628
 3022 0616 21060000 		.4byte	0x621
 3023 061a 12       		.uleb128 0x12
 3024 061b 21060000 		.4byte	0x621
 3025 061f FF       		.byte	0xff
 3026 0620 00       		.byte	0
 3027 0621 02       		.uleb128 0x2
 3028 0622 04       		.byte	0x4
 3029 0623 07       		.byte	0x7
 3030 0624 C60E0000 		.4byte	.LASF121
 3031 0628 13       		.uleb128 0x13
 3032 0629 A2000000 		.4byte	0xa2
 3033 062d 13       		.uleb128 0x13
 3034 062e 11060000 		.4byte	0x611
 3035 0632 13       		.uleb128 0x13
 3036 0633 B8000000 		.4byte	0xb8
 3037 0637 03       		.uleb128 0x3
 3038 0638 58090000 		.4byte	.LASF122
 3039 063c 07       		.byte	0x7
 3040 063d 27       		.byte	0x27
 3041 063e D4050000 		.4byte	0x5d4
 3042 0642 0D       		.uleb128 0xd
 3043 0643 01       		.byte	0x1
 3044 0644 37000000 		.4byte	0x37
 3045 0648 08       		.byte	0x8
ARM GAS  C:\Users\JENNEW~1\AppData\Local\Temp\ccBYNzIK.s 			page 64


 3046 0649 25       		.byte	0x25
 3047 064a 73060000 		.4byte	0x673
 3048 064e 0E       		.uleb128 0xe
 3049 064f BE0A0000 		.4byte	.LASF123
 3050 0653 00       		.byte	0
 3051 0654 0E       		.uleb128 0xe
 3052 0655 37120000 		.4byte	.LASF124
 3053 0659 01       		.byte	0x1
 3054 065a 0E       		.uleb128 0xe
 3055 065b C5060000 		.4byte	.LASF125
 3056 065f 02       		.byte	0x2
 3057 0660 0E       		.uleb128 0xe
 3058 0661 9A130000 		.4byte	.LASF126
 3059 0665 03       		.byte	0x3
 3060 0666 0E       		.uleb128 0xe
 3061 0667 36040000 		.4byte	.LASF127
 3062 066b 04       		.byte	0x4
 3063 066c 0E       		.uleb128 0xe
 3064 066d F7110000 		.4byte	.LASF128
 3065 0671 05       		.byte	0x5
 3066 0672 00       		.byte	0
 3067 0673 03       		.uleb128 0x3
 3068 0674 6D0C0000 		.4byte	.LASF129
 3069 0678 08       		.byte	0x8
 3070 0679 2C       		.byte	0x2c
 3071 067a 42060000 		.4byte	0x642
 3072 067e 05       		.uleb128 0x5
 3073 067f 18       		.byte	0x18
 3074 0680 08       		.byte	0x8
 3075 0681 2F       		.byte	0x2f
 3076 0682 DB060000 		.4byte	0x6db
 3077 0686 07       		.uleb128 0x7
 3078 0687 91100000 		.4byte	.LASF130
 3079 068b 08       		.byte	0x8
 3080 068c 30       		.byte	0x30
 3081 068d CE000000 		.4byte	0xce
 3082 0691 00       		.byte	0
 3083 0692 07       		.uleb128 0x7
 3084 0693 CB090000 		.4byte	.LASF131
 3085 0697 08       		.byte	0x8
 3086 0698 31       		.byte	0x31
 3087 0699 CE000000 		.4byte	0xce
 3088 069d 04       		.byte	0x4
 3089 069e 07       		.uleb128 0x7
 3090 069f ED060000 		.4byte	.LASF132
 3091 06a3 08       		.byte	0x8
 3092 06a4 32       		.byte	0x32
 3093 06a5 CE000000 		.4byte	0xce
 3094 06a9 08       		.byte	0x8
 3095 06aa 07       		.uleb128 0x7
 3096 06ab 7F0D0000 		.4byte	.LASF133
 3097 06af 08       		.byte	0x8
 3098 06b0 33       		.byte	0x33
 3099 06b1 CE000000 		.4byte	0xce
 3100 06b5 0C       		.byte	0xc
 3101 06b6 07       		.uleb128 0x7
 3102 06b7 F6080000 		.4byte	.LASF134
ARM GAS  C:\Users\JENNEW~1\AppData\Local\Temp\ccBYNzIK.s 			page 65


 3103 06bb 08       		.byte	0x8
 3104 06bc 34       		.byte	0x34
 3105 06bd CE000000 		.4byte	0xce
 3106 06c1 10       		.byte	0x10
 3107 06c2 07       		.uleb128 0x7
 3108 06c3 61120000 		.4byte	.LASF135
 3109 06c7 08       		.byte	0x8
 3110 06c8 35       		.byte	0x35
 3111 06c9 B8000000 		.4byte	0xb8
 3112 06cd 14       		.byte	0x14
 3113 06ce 07       		.uleb128 0x7
 3114 06cf 03040000 		.4byte	.LASF136
 3115 06d3 08       		.byte	0x8
 3116 06d4 36       		.byte	0x36
 3117 06d5 A2000000 		.4byte	0xa2
 3118 06d9 16       		.byte	0x16
 3119 06da 00       		.byte	0
 3120 06db 03       		.uleb128 0x3
 3121 06dc 6D120000 		.4byte	.LASF137
 3122 06e0 08       		.byte	0x8
 3123 06e1 37       		.byte	0x37
 3124 06e2 7E060000 		.4byte	0x67e
 3125 06e6 0F       		.uleb128 0xf
 3126 06e7 8003     		.2byte	0x380
 3127 06e9 08       		.byte	0x8
 3128 06ea 3E       		.byte	0x3e
 3129 06eb A3070000 		.4byte	0x7a3
 3130 06ef 06       		.uleb128 0x6
 3131 06f0 68616C00 		.ascii	"hal\000"
 3132 06f4 08       		.byte	0x8
 3133 06f5 3F       		.byte	0x3f
 3134 06f6 33010000 		.4byte	0x133
 3135 06fa 00       		.byte	0
 3136 06fb 06       		.uleb128 0x6
 3137 06fc 63746C00 		.ascii	"ctl\000"
 3138 0700 08       		.byte	0x8
 3139 0701 40       		.byte	0x40
 3140 0702 DE010000 		.4byte	0x1de
 3141 0706 0C       		.byte	0xc
 3142 0707 07       		.uleb128 0x7
 3143 0708 ED040000 		.4byte	.LASF138
 3144 070c 08       		.byte	0x8
 3145 070d 41       		.byte	0x41
 3146 070e C9050000 		.4byte	0x5c9
 3147 0712 20       		.byte	0x20
 3148 0713 10       		.uleb128 0x10
 3149 0714 3A070000 		.4byte	.LASF139
 3150 0718 08       		.byte	0x8
 3151 0719 42       		.byte	0x42
 3152 071a DB060000 		.4byte	0x6db
 3153 071e 0C01     		.2byte	0x10c
 3154 0720 10       		.uleb128 0x10
 3155 0721 48140000 		.4byte	.LASF140
 3156 0725 08       		.byte	0x8
 3157 0726 43       		.byte	0x43
 3158 0727 37060000 		.4byte	0x637
 3159 072b 2401     		.2byte	0x124
ARM GAS  C:\Users\JENNEW~1\AppData\Local\Temp\ccBYNzIK.s 			page 66


 3160 072d 10       		.uleb128 0x10
 3161 072e E4050000 		.4byte	.LASF141
 3162 0732 08       		.byte	0x8
 3163 0733 44       		.byte	0x44
 3164 0734 37060000 		.4byte	0x637
 3165 0738 2A02     		.2byte	0x22a
 3166 073a 10       		.uleb128 0x10
 3167 073b 88120000 		.4byte	.LASF142
 3168 073f 08       		.byte	0x8
 3169 0740 48       		.byte	0x48
 3170 0741 A2000000 		.4byte	0xa2
 3171 0745 3003     		.2byte	0x330
 3172 0747 10       		.uleb128 0x10
 3173 0748 20030000 		.4byte	.LASF143
 3174 074c 08       		.byte	0x8
 3175 074d 4C       		.byte	0x4c
 3176 074e B8000000 		.4byte	0xb8
 3177 0752 3203     		.2byte	0x332
 3178 0754 10       		.uleb128 0x10
 3179 0755 8E0B0000 		.4byte	.LASF144
 3180 0759 08       		.byte	0x8
 3181 075a 4D       		.byte	0x4d
 3182 075b CE000000 		.4byte	0xce
 3183 075f 3403     		.2byte	0x334
 3184 0761 10       		.uleb128 0x10
 3185 0762 B7090000 		.4byte	.LASF145
 3186 0766 08       		.byte	0x8
 3187 0767 4E       		.byte	0x4e
 3188 0768 C2050000 		.4byte	0x5c2
 3189 076c 3803     		.2byte	0x338
 3190 076e 10       		.uleb128 0x10
 3191 076f 9E0B0000 		.4byte	.LASF146
 3192 0773 08       		.byte	0x8
 3193 0774 4F       		.byte	0x4f
 3194 0775 B8000000 		.4byte	0xb8
 3195 0779 3A03     		.2byte	0x33a
 3196 077b 10       		.uleb128 0x10
 3197 077c 1E0D0000 		.4byte	.LASF147
 3198 0780 08       		.byte	0x8
 3199 0781 50       		.byte	0x50
 3200 0782 B8000000 		.4byte	0xb8
 3201 0786 3C03     		.2byte	0x33c
 3202 0788 10       		.uleb128 0x10
 3203 0789 FF0D0000 		.4byte	.LASF148
 3204 078d 08       		.byte	0x8
 3205 078e 51       		.byte	0x51
 3206 078f A3070000 		.4byte	0x7a3
 3207 0793 3E03     		.2byte	0x33e
 3208 0795 10       		.uleb128 0x10
 3209 0796 84070000 		.4byte	.LASF149
 3210 079a 08       		.byte	0x8
 3211 079b 54       		.byte	0x54
 3212 079c A2000000 		.4byte	0xa2
 3213 07a0 7E03     		.2byte	0x37e
 3214 07a2 00       		.byte	0
 3215 07a3 11       		.uleb128 0x11
 3216 07a4 A2000000 		.4byte	0xa2
ARM GAS  C:\Users\JENNEW~1\AppData\Local\Temp\ccBYNzIK.s 			page 67


 3217 07a8 B3070000 		.4byte	0x7b3
 3218 07ac 12       		.uleb128 0x12
 3219 07ad 21060000 		.4byte	0x621
 3220 07b1 3F       		.byte	0x3f
 3221 07b2 00       		.byte	0
 3222 07b3 03       		.uleb128 0x3
 3223 07b4 CB100000 		.4byte	.LASF150
 3224 07b8 08       		.byte	0x8
 3225 07b9 56       		.byte	0x56
 3226 07ba E6060000 		.4byte	0x6e6
 3227 07be 02       		.uleb128 0x2
 3228 07bf 08       		.byte	0x8
 3229 07c0 04       		.byte	0x4
 3230 07c1 EC0B0000 		.4byte	.LASF151
 3231 07c5 02       		.uleb128 0x2
 3232 07c6 01       		.byte	0x1
 3233 07c7 08       		.byte	0x8
 3234 07c8 01080000 		.4byte	.LASF152
 3235 07cc 0B       		.uleb128 0xb
 3236 07cd 04       		.byte	0x4
 3237 07ce D2070000 		.4byte	0x7d2
 3238 07d2 14       		.uleb128 0x14
 3239 07d3 0D       		.uleb128 0xd
 3240 07d4 01       		.byte	0x1
 3241 07d5 37000000 		.4byte	0x37
 3242 07d9 09       		.byte	0x9
 3243 07da 29       		.byte	0x29
 3244 07db EC070000 		.4byte	0x7ec
 3245 07df 0E       		.uleb128 0xe
 3246 07e0 3A0F0000 		.4byte	.LASF153
 3247 07e4 00       		.byte	0
 3248 07e5 0E       		.uleb128 0xe
 3249 07e6 180F0000 		.4byte	.LASF154
 3250 07ea 01       		.byte	0x1
 3251 07eb 00       		.byte	0
 3252 07ec 03       		.uleb128 0x3
 3253 07ed 64090000 		.4byte	.LASF155
 3254 07f1 09       		.byte	0x9
 3255 07f2 2C       		.byte	0x2c
 3256 07f3 D3070000 		.4byte	0x7d3
 3257 07f7 0D       		.uleb128 0xd
 3258 07f8 01       		.byte	0x1
 3259 07f9 37000000 		.4byte	0x37
 3260 07fd 09       		.byte	0x9
 3261 07fe 32       		.byte	0x32
 3262 07ff 1C080000 		.4byte	0x81c
 3263 0803 0E       		.uleb128 0xe
 3264 0804 5C010000 		.4byte	.LASF156
 3265 0808 00       		.byte	0
 3266 0809 0E       		.uleb128 0xe
 3267 080a AF040000 		.4byte	.LASF157
 3268 080e 01       		.byte	0x1
 3269 080f 0E       		.uleb128 0xe
 3270 0810 FD0E0000 		.4byte	.LASF158
 3271 0814 02       		.byte	0x2
 3272 0815 0E       		.uleb128 0xe
 3273 0816 060F0000 		.4byte	.LASF159
ARM GAS  C:\Users\JENNEW~1\AppData\Local\Temp\ccBYNzIK.s 			page 68


 3274 081a 03       		.byte	0x3
 3275 081b 00       		.byte	0
 3276 081c 03       		.uleb128 0x3
 3277 081d 100A0000 		.4byte	.LASF160
 3278 0821 09       		.byte	0x9
 3279 0822 37       		.byte	0x37
 3280 0823 F7070000 		.4byte	0x7f7
 3281 0827 05       		.uleb128 0x5
 3282 0828 08       		.byte	0x8
 3283 0829 09       		.byte	0x9
 3284 082a 5A       		.byte	0x5a
 3285 082b 48080000 		.4byte	0x848
 3286 082f 07       		.uleb128 0x7
 3287 0830 890C0000 		.4byte	.LASF161
 3288 0834 09       		.byte	0x9
 3289 0835 5B       		.byte	0x5b
 3290 0836 D7010000 		.4byte	0x1d7
 3291 083a 00       		.byte	0
 3292 083b 07       		.uleb128 0x7
 3293 083c F60F0000 		.4byte	.LASF162
 3294 0840 09       		.byte	0x9
 3295 0841 5C       		.byte	0x5c
 3296 0842 1C080000 		.4byte	0x81c
 3297 0846 04       		.byte	0x4
 3298 0847 00       		.byte	0
 3299 0848 03       		.uleb128 0x3
 3300 0849 9A120000 		.4byte	.LASF163
 3301 084d 09       		.byte	0x9
 3302 084e 5D       		.byte	0x5d
 3303 084f 27080000 		.4byte	0x827
 3304 0853 0D       		.uleb128 0xd
 3305 0854 01       		.byte	0x1
 3306 0855 37000000 		.4byte	0x37
 3307 0859 09       		.byte	0x9
 3308 085a 5F       		.byte	0x5f
 3309 085b A2080000 		.4byte	0x8a2
 3310 085f 0E       		.uleb128 0xe
 3311 0860 AA130000 		.4byte	.LASF164
 3312 0864 00       		.byte	0
 3313 0865 0E       		.uleb128 0xe
 3314 0866 920A0000 		.4byte	.LASF165
 3315 086a 01       		.byte	0x1
 3316 086b 0E       		.uleb128 0xe
 3317 086c A70A0000 		.4byte	.LASF166
 3318 0870 02       		.byte	0x2
 3319 0871 0E       		.uleb128 0xe
 3320 0872 F1090000 		.4byte	.LASF167
 3321 0876 03       		.byte	0x3
 3322 0877 0E       		.uleb128 0xe
 3323 0878 23110000 		.4byte	.LASF168
 3324 087c 04       		.byte	0x4
 3325 087d 0E       		.uleb128 0xe
 3326 087e 70060000 		.4byte	.LASF169
 3327 0882 05       		.byte	0x5
 3328 0883 0E       		.uleb128 0xe
 3329 0884 590F0000 		.4byte	.LASF170
 3330 0888 06       		.byte	0x6
ARM GAS  C:\Users\JENNEW~1\AppData\Local\Temp\ccBYNzIK.s 			page 69


 3331 0889 0E       		.uleb128 0xe
 3332 088a 43060000 		.4byte	.LASF171
 3333 088e 07       		.byte	0x7
 3334 088f 0E       		.uleb128 0xe
 3335 0890 3B020000 		.4byte	.LASF172
 3336 0894 08       		.byte	0x8
 3337 0895 0E       		.uleb128 0xe
 3338 0896 3B130000 		.4byte	.LASF173
 3339 089a 09       		.byte	0x9
 3340 089b 0E       		.uleb128 0xe
 3341 089c 33090000 		.4byte	.LASF174
 3342 08a0 0A       		.byte	0xa
 3343 08a1 00       		.byte	0
 3344 08a2 03       		.uleb128 0x3
 3345 08a3 4F0C0000 		.4byte	.LASF175
 3346 08a7 09       		.byte	0x9
 3347 08a8 6B       		.byte	0x6b
 3348 08a9 53080000 		.4byte	0x853
 3349 08ad 05       		.uleb128 0x5
 3350 08ae 3C       		.byte	0x3c
 3351 08af 09       		.byte	0x9
 3352 08b0 6D       		.byte	0x6d
 3353 08b1 5E090000 		.4byte	0x95e
 3354 08b5 07       		.uleb128 0x7
 3355 08b6 E5090000 		.4byte	.LASF176
 3356 08ba 09       		.byte	0x9
 3357 08bb 6E       		.byte	0x6e
 3358 08bc A2000000 		.4byte	0xa2
 3359 08c0 00       		.byte	0
 3360 08c1 07       		.uleb128 0x7
 3361 08c2 70100000 		.4byte	.LASF177
 3362 08c6 09       		.byte	0x9
 3363 08c7 6F       		.byte	0x6f
 3364 08c8 A2000000 		.4byte	0xa2
 3365 08cc 01       		.byte	0x1
 3366 08cd 06       		.uleb128 0x6
 3367 08ce 70616E00 		.ascii	"pan\000"
 3368 08d2 09       		.byte	0x9
 3369 08d3 70       		.byte	0x70
 3370 08d4 48080000 		.4byte	0x848
 3371 08d8 04       		.byte	0x4
 3372 08d9 07       		.uleb128 0x7
 3373 08da A2040000 		.4byte	.LASF27
 3374 08de 09       		.byte	0x9
 3375 08df 71       		.byte	0x71
 3376 08e0 48080000 		.4byte	0x848
 3377 08e4 0C       		.byte	0xc
 3378 08e5 07       		.uleb128 0x7
 3379 08e6 B9080000 		.4byte	.LASF28
 3380 08ea 09       		.byte	0x9
 3381 08eb 72       		.byte	0x72
 3382 08ec 48080000 		.4byte	0x848
 3383 08f0 14       		.byte	0x14
 3384 08f1 07       		.uleb128 0x7
 3385 08f2 4E140000 		.4byte	.LASF178
 3386 08f6 09       		.byte	0x9
 3387 08f7 73       		.byte	0x73
ARM GAS  C:\Users\JENNEW~1\AppData\Local\Temp\ccBYNzIK.s 			page 70


 3388 08f8 48080000 		.4byte	0x848
 3389 08fc 1C       		.byte	0x1c
 3390 08fd 07       		.uleb128 0x7
 3391 08fe 1A070000 		.4byte	.LASF179
 3392 0902 09       		.byte	0x9
 3393 0903 74       		.byte	0x74
 3394 0904 48080000 		.4byte	0x848
 3395 0908 24       		.byte	0x24
 3396 0909 07       		.uleb128 0x7
 3397 090a 57050000 		.4byte	.LASF180
 3398 090e 09       		.byte	0x9
 3399 090f 75       		.byte	0x75
 3400 0910 48080000 		.4byte	0x848
 3401 0914 2C       		.byte	0x2c
 3402 0915 07       		.uleb128 0x7
 3403 0916 6D000000 		.4byte	.LASF181
 3404 091a 09       		.byte	0x9
 3405 091b 76       		.byte	0x76
 3406 091c A2000000 		.4byte	0xa2
 3407 0920 34       		.byte	0x34
 3408 0921 07       		.uleb128 0x7
 3409 0922 77010000 		.4byte	.LASF182
 3410 0926 09       		.byte	0x9
 3411 0927 77       		.byte	0x77
 3412 0928 A2000000 		.4byte	0xa2
 3413 092c 35       		.byte	0x35
 3414 092d 07       		.uleb128 0x7
 3415 092e 06090000 		.4byte	.LASF183
 3416 0932 09       		.byte	0x9
 3417 0933 78       		.byte	0x78
 3418 0934 A2000000 		.4byte	0xa2
 3419 0938 36       		.byte	0x36
 3420 0939 07       		.uleb128 0x7
 3421 093a 86020000 		.4byte	.LASF184
 3422 093e 09       		.byte	0x9
 3423 093f 79       		.byte	0x79
 3424 0940 A2000000 		.4byte	0xa2
 3425 0944 37       		.byte	0x37
 3426 0945 07       		.uleb128 0x7
 3427 0946 47120000 		.4byte	.LASF185
 3428 094a 09       		.byte	0x9
 3429 094b 7A       		.byte	0x7a
 3430 094c A2000000 		.4byte	0xa2
 3431 0950 38       		.byte	0x38
 3432 0951 07       		.uleb128 0x7
 3433 0952 3D050000 		.4byte	.LASF186
 3434 0956 09       		.byte	0x9
 3435 0957 7B       		.byte	0x7b
 3436 0958 A2000000 		.4byte	0xa2
 3437 095c 39       		.byte	0x39
 3438 095d 00       		.byte	0
 3439 095e 03       		.uleb128 0x3
 3440 095f 330D0000 		.4byte	.LASF187
 3441 0963 09       		.byte	0x9
 3442 0964 7C       		.byte	0x7c
 3443 0965 AD080000 		.4byte	0x8ad
 3444 0969 05       		.uleb128 0x5
ARM GAS  C:\Users\JENNEW~1\AppData\Local\Temp\ccBYNzIK.s 			page 71


 3445 096a 2C       		.byte	0x2c
 3446 096b 09       		.byte	0x9
 3447 096c 7E       		.byte	0x7e
 3448 096d 620A0000 		.4byte	0xa62
 3449 0971 07       		.uleb128 0x7
 3450 0972 60030000 		.4byte	.LASF188
 3451 0976 09       		.byte	0x9
 3452 0977 7F       		.byte	0x7f
 3453 0978 D7010000 		.4byte	0x1d7
 3454 097c 00       		.byte	0
 3455 097d 07       		.uleb128 0x7
 3456 097e 2B020000 		.4byte	.LASF189
 3457 0982 09       		.byte	0x9
 3458 0983 80       		.byte	0x80
 3459 0984 D7010000 		.4byte	0x1d7
 3460 0988 04       		.byte	0x4
 3461 0989 07       		.uleb128 0x7
 3462 098a 940F0000 		.4byte	.LASF190
 3463 098e 09       		.byte	0x9
 3464 098f 81       		.byte	0x81
 3465 0990 A2000000 		.4byte	0xa2
 3466 0994 08       		.byte	0x8
 3467 0995 07       		.uleb128 0x7
 3468 0996 A30F0000 		.4byte	.LASF191
 3469 099a 09       		.byte	0x9
 3470 099b 82       		.byte	0x82
 3471 099c A2000000 		.4byte	0xa2
 3472 09a0 09       		.byte	0x9
 3473 09a1 07       		.uleb128 0x7
 3474 09a2 49080000 		.4byte	.LASF48
 3475 09a6 09       		.byte	0x9
 3476 09a7 83       		.byte	0x83
 3477 09a8 D7010000 		.4byte	0x1d7
 3478 09ac 0C       		.byte	0xc
 3479 09ad 07       		.uleb128 0x7
 3480 09ae 52080000 		.4byte	.LASF49
 3481 09b2 09       		.byte	0x9
 3482 09b3 84       		.byte	0x84
 3483 09b4 D7010000 		.4byte	0x1d7
 3484 09b8 10       		.byte	0x10
 3485 09b9 07       		.uleb128 0x7
 3486 09ba 5B080000 		.4byte	.LASF50
 3487 09be 09       		.byte	0x9
 3488 09bf 85       		.byte	0x85
 3489 09c0 D7010000 		.4byte	0x1d7
 3490 09c4 14       		.byte	0x14
 3491 09c5 07       		.uleb128 0x7
 3492 09c6 9C080000 		.4byte	.LASF47
 3493 09ca 09       		.byte	0x9
 3494 09cb 86       		.byte	0x86
 3495 09cc D7010000 		.4byte	0x1d7
 3496 09d0 18       		.byte	0x18
 3497 09d1 07       		.uleb128 0x7
 3498 09d2 0C120000 		.4byte	.LASF192
 3499 09d6 09       		.byte	0x9
 3500 09d7 87       		.byte	0x87
 3501 09d8 B8000000 		.4byte	0xb8
ARM GAS  C:\Users\JENNEW~1\AppData\Local\Temp\ccBYNzIK.s 			page 72


 3502 09dc 1C       		.byte	0x1c
 3503 09dd 07       		.uleb128 0x7
 3504 09de A0020000 		.4byte	.LASF193
 3505 09e2 09       		.byte	0x9
 3506 09e3 88       		.byte	0x88
 3507 09e4 B8000000 		.4byte	0xb8
 3508 09e8 1E       		.byte	0x1e
 3509 09e9 07       		.uleb128 0x7
 3510 09ea 2D140000 		.4byte	.LASF194
 3511 09ee 09       		.byte	0x9
 3512 09ef 89       		.byte	0x89
 3513 09f0 B8000000 		.4byte	0xb8
 3514 09f4 20       		.byte	0x20
 3515 09f5 07       		.uleb128 0x7
 3516 09f6 D40D0000 		.4byte	.LASF195
 3517 09fa 09       		.byte	0x9
 3518 09fb 8A       		.byte	0x8a
 3519 09fc A2080000 		.4byte	0x8a2
 3520 0a00 22       		.byte	0x22
 3521 0a01 07       		.uleb128 0x7
 3522 0a02 5C050000 		.4byte	.LASF196
 3523 0a06 09       		.byte	0x9
 3524 0a07 8B       		.byte	0x8b
 3525 0a08 A2080000 		.4byte	0x8a2
 3526 0a0c 23       		.byte	0x23
 3527 0a0d 07       		.uleb128 0x7
 3528 0a0e 2D0B0000 		.4byte	.LASF197
 3529 0a12 09       		.byte	0x9
 3530 0a13 8C       		.byte	0x8c
 3531 0a14 A2080000 		.4byte	0x8a2
 3532 0a18 24       		.byte	0x24
 3533 0a19 07       		.uleb128 0x7
 3534 0a1a BB0E0000 		.4byte	.LASF198
 3535 0a1e 09       		.byte	0x9
 3536 0a1f 8D       		.byte	0x8d
 3537 0a20 A2000000 		.4byte	0xa2
 3538 0a24 25       		.byte	0x25
 3539 0a25 07       		.uleb128 0x7
 3540 0a26 730E0000 		.4byte	.LASF199
 3541 0a2a 09       		.byte	0x9
 3542 0a2b 8E       		.byte	0x8e
 3543 0a2c A2000000 		.4byte	0xa2
 3544 0a30 26       		.byte	0x26
 3545 0a31 07       		.uleb128 0x7
 3546 0a32 BD040000 		.4byte	.LASF200
 3547 0a36 09       		.byte	0x9
 3548 0a37 8F       		.byte	0x8f
 3549 0a38 A2000000 		.4byte	0xa2
 3550 0a3c 27       		.byte	0x27
 3551 0a3d 07       		.uleb128 0x7
 3552 0a3e 5A070000 		.4byte	.LASF201
 3553 0a42 09       		.byte	0x9
 3554 0a43 90       		.byte	0x90
 3555 0a44 A2000000 		.4byte	0xa2
 3556 0a48 28       		.byte	0x28
 3557 0a49 07       		.uleb128 0x7
 3558 0a4a 76050000 		.4byte	.LASF202
ARM GAS  C:\Users\JENNEW~1\AppData\Local\Temp\ccBYNzIK.s 			page 73


 3559 0a4e 09       		.byte	0x9
 3560 0a4f 91       		.byte	0x91
 3561 0a50 A2000000 		.4byte	0xa2
 3562 0a54 29       		.byte	0x29
 3563 0a55 07       		.uleb128 0x7
 3564 0a56 06060000 		.4byte	.LASF203
 3565 0a5a 09       		.byte	0x9
 3566 0a5b 92       		.byte	0x92
 3567 0a5c A2000000 		.4byte	0xa2
 3568 0a60 2A       		.byte	0x2a
 3569 0a61 00       		.byte	0
 3570 0a62 03       		.uleb128 0x3
 3571 0a63 E2000000 		.4byte	.LASF204
 3572 0a67 09       		.byte	0x9
 3573 0a68 93       		.byte	0x93
 3574 0a69 69090000 		.4byte	0x969
 3575 0a6d 05       		.uleb128 0x5
 3576 0a6e 74       		.byte	0x74
 3577 0a6f 09       		.byte	0x9
 3578 0a70 95       		.byte	0x95
 3579 0a71 B20A0000 		.4byte	0xab2
 3580 0a75 07       		.uleb128 0x7
 3581 0a76 E5110000 		.4byte	.LASF205
 3582 0a7a 09       		.byte	0x9
 3583 0a7b 96       		.byte	0x96
 3584 0a7c CC070000 		.4byte	0x7cc
 3585 0a80 00       		.byte	0
 3586 0a81 07       		.uleb128 0x7
 3587 0a82 BB030000 		.4byte	.LASF206
 3588 0a86 09       		.byte	0x9
 3589 0a87 97       		.byte	0x97
 3590 0a88 CC070000 		.4byte	0x7cc
 3591 0a8c 04       		.byte	0x4
 3592 0a8d 07       		.uleb128 0x7
 3593 0a8e 70110000 		.4byte	.LASF207
 3594 0a92 09       		.byte	0x9
 3595 0a93 98       		.byte	0x98
 3596 0a94 CC070000 		.4byte	0x7cc
 3597 0a98 08       		.byte	0x8
 3598 0a99 07       		.uleb128 0x7
 3599 0a9a FF000000 		.4byte	.LASF208
 3600 0a9e 09       		.byte	0x9
 3601 0a9f 99       		.byte	0x99
 3602 0aa0 5E090000 		.4byte	0x95e
 3603 0aa4 0C       		.byte	0xc
 3604 0aa5 07       		.uleb128 0x7
 3605 0aa6 EF080000 		.4byte	.LASF209
 3606 0aaa 09       		.byte	0x9
 3607 0aab 9A       		.byte	0x9a
 3608 0aac 620A0000 		.4byte	0xa62
 3609 0ab0 48       		.byte	0x48
 3610 0ab1 00       		.byte	0
 3611 0ab2 03       		.uleb128 0x3
 3612 0ab3 A10C0000 		.4byte	.LASF210
 3613 0ab7 09       		.byte	0x9
 3614 0ab8 9B       		.byte	0x9b
 3615 0ab9 6D0A0000 		.4byte	0xa6d
ARM GAS  C:\Users\JENNEW~1\AppData\Local\Temp\ccBYNzIK.s 			page 74


 3616 0abd 0D       		.uleb128 0xd
 3617 0abe 01       		.byte	0x1
 3618 0abf 37000000 		.4byte	0x37
 3619 0ac3 0A       		.byte	0xa
 3620 0ac4 2F       		.byte	0x2f
 3621 0ac5 FA0A0000 		.4byte	0xafa
 3622 0ac9 0E       		.uleb128 0xe
 3623 0aca 22010000 		.4byte	.LASF211
 3624 0ace 00       		.byte	0
 3625 0acf 0E       		.uleb128 0xe
 3626 0ad0 CB030000 		.4byte	.LASF212
 3627 0ad4 01       		.byte	0x1
 3628 0ad5 0E       		.uleb128 0xe
 3629 0ad6 EE0C0000 		.4byte	.LASF213
 3630 0ada 02       		.byte	0x2
 3631 0adb 0E       		.uleb128 0xe
 3632 0adc 060D0000 		.4byte	.LASF214
 3633 0ae0 03       		.byte	0x3
 3634 0ae1 0E       		.uleb128 0xe
 3635 0ae2 A8000000 		.4byte	.LASF215
 3636 0ae6 04       		.byte	0x4
 3637 0ae7 0E       		.uleb128 0xe
 3638 0ae8 98070000 		.4byte	.LASF216
 3639 0aec 05       		.byte	0x5
 3640 0aed 0E       		.uleb128 0xe
 3641 0aee EE0A0000 		.4byte	.LASF217
 3642 0af2 06       		.byte	0x6
 3643 0af3 0E       		.uleb128 0xe
 3644 0af4 380A0000 		.4byte	.LASF218
 3645 0af8 07       		.byte	0x7
 3646 0af9 00       		.byte	0
 3647 0afa 03       		.uleb128 0x3
 3648 0afb CF050000 		.4byte	.LASF219
 3649 0aff 0A       		.byte	0xa
 3650 0b00 38       		.byte	0x38
 3651 0b01 BD0A0000 		.4byte	0xabd
 3652 0b05 0D       		.uleb128 0xd
 3653 0b06 01       		.byte	0x1
 3654 0b07 37000000 		.4byte	0x37
 3655 0b0b 0A       		.byte	0xa
 3656 0b0c 3A       		.byte	0x3a
 3657 0b0d 300B0000 		.4byte	0xb30
 3658 0b11 0E       		.uleb128 0xe
 3659 0b12 39010000 		.4byte	.LASF220
 3660 0b16 00       		.byte	0
 3661 0b17 0E       		.uleb128 0xe
 3662 0b18 C30F0000 		.4byte	.LASF221
 3663 0b1c 01       		.byte	0x1
 3664 0b1d 0E       		.uleb128 0xe
 3665 0b1e 75110000 		.4byte	.LASF222
 3666 0b22 02       		.byte	0x2
 3667 0b23 0E       		.uleb128 0xe
 3668 0b24 35100000 		.4byte	.LASF223
 3669 0b28 03       		.byte	0x3
 3670 0b29 0E       		.uleb128 0xe
 3671 0b2a 6D080000 		.4byte	.LASF224
 3672 0b2e 0A       		.byte	0xa
ARM GAS  C:\Users\JENNEW~1\AppData\Local\Temp\ccBYNzIK.s 			page 75


 3673 0b2f 00       		.byte	0
 3674 0b30 03       		.uleb128 0x3
 3675 0b31 4E040000 		.4byte	.LASF225
 3676 0b35 0A       		.byte	0xa
 3677 0b36 40       		.byte	0x40
 3678 0b37 050B0000 		.4byte	0xb05
 3679 0b3b 0D       		.uleb128 0xd
 3680 0b3c 01       		.byte	0x1
 3681 0b3d 37000000 		.4byte	0x37
 3682 0b41 0A       		.byte	0xa
 3683 0b42 42       		.byte	0x42
 3684 0b43 600B0000 		.4byte	0xb60
 3685 0b47 0E       		.uleb128 0xe
 3686 0b48 7B0B0000 		.4byte	.LASF226
 3687 0b4c 00       		.byte	0
 3688 0b4d 0E       		.uleb128 0xe
 3689 0b4e D4090000 		.4byte	.LASF227
 3690 0b52 01       		.byte	0x1
 3691 0b53 0E       		.uleb128 0xe
 3692 0b54 1D090000 		.4byte	.LASF228
 3693 0b58 02       		.byte	0x2
 3694 0b59 0E       		.uleb128 0xe
 3695 0b5a 86000000 		.4byte	.LASF229
 3696 0b5e 03       		.byte	0x3
 3697 0b5f 00       		.byte	0
 3698 0b60 03       		.uleb128 0x3
 3699 0b61 72040000 		.4byte	.LASF230
 3700 0b65 0A       		.byte	0xa
 3701 0b66 47       		.byte	0x47
 3702 0b67 3B0B0000 		.4byte	0xb3b
 3703 0b6b 0D       		.uleb128 0xd
 3704 0b6c 01       		.byte	0x1
 3705 0b6d 37000000 		.4byte	0x37
 3706 0b71 0A       		.byte	0xa
 3707 0b72 49       		.byte	0x49
 3708 0b73 9C0B0000 		.4byte	0xb9c
 3709 0b77 0E       		.uleb128 0xe
 3710 0b78 030B0000 		.4byte	.LASF231
 3711 0b7c 00       		.byte	0
 3712 0b7d 0E       		.uleb128 0xe
 3713 0b7e 10050000 		.4byte	.LASF232
 3714 0b82 01       		.byte	0x1
 3715 0b83 0E       		.uleb128 0xe
 3716 0b84 D6070000 		.4byte	.LASF233
 3717 0b88 02       		.byte	0x2
 3718 0b89 0E       		.uleb128 0xe
 3719 0b8a 69020000 		.4byte	.LASF234
 3720 0b8e 03       		.byte	0x3
 3721 0b8f 0E       		.uleb128 0xe
 3722 0b90 1A000000 		.4byte	.LASF235
 3723 0b94 04       		.byte	0x4
 3724 0b95 0E       		.uleb128 0xe
 3725 0b96 A10D0000 		.4byte	.LASF236
 3726 0b9a 05       		.byte	0x5
 3727 0b9b 00       		.byte	0
 3728 0b9c 03       		.uleb128 0x3
 3729 0b9d FC020000 		.4byte	.LASF237
ARM GAS  C:\Users\JENNEW~1\AppData\Local\Temp\ccBYNzIK.s 			page 76


 3730 0ba1 0A       		.byte	0xa
 3731 0ba2 50       		.byte	0x50
 3732 0ba3 6B0B0000 		.4byte	0xb6b
 3733 0ba7 05       		.uleb128 0x5
 3734 0ba8 07       		.byte	0x7
 3735 0ba9 0A       		.byte	0xa
 3736 0baa 61       		.byte	0x61
 3737 0bab 040C0000 		.4byte	0xc04
 3738 0baf 07       		.uleb128 0x7
 3739 0bb0 1F0C0000 		.4byte	.LASF238
 3740 0bb4 0A       		.byte	0xa
 3741 0bb5 62       		.byte	0x62
 3742 0bb6 A2000000 		.4byte	0xa2
 3743 0bba 00       		.byte	0
 3744 0bbb 07       		.uleb128 0x7
 3745 0bbc 2D030000 		.4byte	.LASF239
 3746 0bc0 0A       		.byte	0xa
 3747 0bc1 63       		.byte	0x63
 3748 0bc2 A2000000 		.4byte	0xa2
 3749 0bc6 01       		.byte	0x1
 3750 0bc7 07       		.uleb128 0x7
 3751 0bc8 DB100000 		.4byte	.LASF240
 3752 0bcc 0A       		.byte	0xa
 3753 0bcd 64       		.byte	0x64
 3754 0bce A2000000 		.4byte	0xa2
 3755 0bd2 02       		.byte	0x2
 3756 0bd3 07       		.uleb128 0x7
 3757 0bd4 B4120000 		.4byte	.LASF241
 3758 0bd8 0A       		.byte	0xa
 3759 0bd9 65       		.byte	0x65
 3760 0bda A2000000 		.4byte	0xa2
 3761 0bde 03       		.byte	0x3
 3762 0bdf 07       		.uleb128 0x7
 3763 0be0 7D0C0000 		.4byte	.LASF242
 3764 0be4 0A       		.byte	0xa
 3765 0be5 66       		.byte	0x66
 3766 0be6 300B0000 		.4byte	0xb30
 3767 0bea 04       		.byte	0x4
 3768 0beb 07       		.uleb128 0x7
 3769 0bec F3070000 		.4byte	.LASF243
 3770 0bf0 0A       		.byte	0xa
 3771 0bf1 67       		.byte	0x67
 3772 0bf2 300B0000 		.4byte	0xb30
 3773 0bf6 05       		.byte	0x5
 3774 0bf7 07       		.uleb128 0x7
 3775 0bf8 37030000 		.4byte	.LASF244
 3776 0bfc 0A       		.byte	0xa
 3777 0bfd 68       		.byte	0x68
 3778 0bfe 300B0000 		.4byte	0xb30
 3779 0c02 06       		.byte	0x6
 3780 0c03 00       		.byte	0
 3781 0c04 03       		.uleb128 0x3
 3782 0c05 280F0000 		.4byte	.LASF245
 3783 0c09 0A       		.byte	0xa
 3784 0c0a 69       		.byte	0x69
 3785 0c0b A70B0000 		.4byte	0xba7
 3786 0c0f 05       		.uleb128 0x5
ARM GAS  C:\Users\JENNEW~1\AppData\Local\Temp\ccBYNzIK.s 			page 77


 3787 0c10 14       		.byte	0x14
 3788 0c11 0A       		.byte	0xa
 3789 0c12 6B       		.byte	0x6b
 3790 0c13 C00C0000 		.4byte	0xcc0
 3791 0c17 07       		.uleb128 0x7
 3792 0c18 12040000 		.4byte	.LASF246
 3793 0c1c 0A       		.byte	0xa
 3794 0c1d 6C       		.byte	0x6c
 3795 0c1e B8000000 		.4byte	0xb8
 3796 0c22 00       		.byte	0
 3797 0c23 07       		.uleb128 0x7
 3798 0c24 E70C0000 		.4byte	.LASF247
 3799 0c28 0A       		.byte	0xa
 3800 0c29 6D       		.byte	0x6d
 3801 0c2a CE000000 		.4byte	0xce
 3802 0c2e 04       		.byte	0x4
 3803 0c2f 07       		.uleb128 0x7
 3804 0c30 53090000 		.4byte	.LASF248
 3805 0c34 0A       		.byte	0xa
 3806 0c35 6E       		.byte	0x6e
 3807 0c36 600B0000 		.4byte	0xb60
 3808 0c3a 08       		.byte	0x8
 3809 0c3b 07       		.uleb128 0x7
 3810 0c3c BC100000 		.4byte	.LASF249
 3811 0c40 0A       		.byte	0xa
 3812 0c41 6F       		.byte	0x6f
 3813 0c42 A2000000 		.4byte	0xa2
 3814 0c46 09       		.byte	0x9
 3815 0c47 07       		.uleb128 0x7
 3816 0c48 FD050000 		.4byte	.LASF250
 3817 0c4c 0A       		.byte	0xa
 3818 0c4d 70       		.byte	0x70
 3819 0c4e A2000000 		.4byte	0xa2
 3820 0c52 0A       		.byte	0xa
 3821 0c53 07       		.uleb128 0x7
 3822 0c54 1F0C0000 		.4byte	.LASF238
 3823 0c58 0A       		.byte	0xa
 3824 0c59 71       		.byte	0x71
 3825 0c5a A2000000 		.4byte	0xa2
 3826 0c5e 0B       		.byte	0xb
 3827 0c5f 07       		.uleb128 0x7
 3828 0c60 A5080000 		.4byte	.LASF251
 3829 0c64 0A       		.byte	0xa
 3830 0c65 72       		.byte	0x72
 3831 0c66 A2000000 		.4byte	0xa2
 3832 0c6a 0C       		.byte	0xc
 3833 0c6b 07       		.uleb128 0x7
 3834 0c6c AF080000 		.4byte	.LASF252
 3835 0c70 0A       		.byte	0xa
 3836 0c71 73       		.byte	0x73
 3837 0c72 A2000000 		.4byte	0xa2
 3838 0c76 0D       		.byte	0xd
 3839 0c77 07       		.uleb128 0x7
 3840 0c78 DB100000 		.4byte	.LASF240
 3841 0c7c 0A       		.byte	0xa
 3842 0c7d 74       		.byte	0x74
 3843 0c7e A2000000 		.4byte	0xa2
ARM GAS  C:\Users\JENNEW~1\AppData\Local\Temp\ccBYNzIK.s 			page 78


 3844 0c82 0E       		.byte	0xe
 3845 0c83 07       		.uleb128 0x7
 3846 0c84 B4120000 		.4byte	.LASF241
 3847 0c88 0A       		.byte	0xa
 3848 0c89 75       		.byte	0x75
 3849 0c8a A2000000 		.4byte	0xa2
 3850 0c8e 0F       		.byte	0xf
 3851 0c8f 07       		.uleb128 0x7
 3852 0c90 4D0F0000 		.4byte	.LASF253
 3853 0c94 0A       		.byte	0xa
 3854 0c95 76       		.byte	0x76
 3855 0c96 300B0000 		.4byte	0xb30
 3856 0c9a 10       		.byte	0x10
 3857 0c9b 07       		.uleb128 0x7
 3858 0c9c 7D0C0000 		.4byte	.LASF242
 3859 0ca0 0A       		.byte	0xa
 3860 0ca1 77       		.byte	0x77
 3861 0ca2 300B0000 		.4byte	0xb30
 3862 0ca6 11       		.byte	0x11
 3863 0ca7 07       		.uleb128 0x7
 3864 0ca8 F3070000 		.4byte	.LASF243
 3865 0cac 0A       		.byte	0xa
 3866 0cad 78       		.byte	0x78
 3867 0cae 300B0000 		.4byte	0xb30
 3868 0cb2 12       		.byte	0x12
 3869 0cb3 07       		.uleb128 0x7
 3870 0cb4 37030000 		.4byte	.LASF244
 3871 0cb8 0A       		.byte	0xa
 3872 0cb9 79       		.byte	0x79
 3873 0cba 300B0000 		.4byte	0xb30
 3874 0cbe 13       		.byte	0x13
 3875 0cbf 00       		.byte	0
 3876 0cc0 03       		.uleb128 0x3
 3877 0cc1 1F070000 		.4byte	.LASF254
 3878 0cc5 0A       		.byte	0xa
 3879 0cc6 7A       		.byte	0x7a
 3880 0cc7 0F0C0000 		.4byte	0xc0f
 3881 0ccb 05       		.uleb128 0x5
 3882 0ccc 74       		.byte	0x74
 3883 0ccd 0A       		.byte	0xa
 3884 0cce 7C       		.byte	0x7c
 3885 0ccf 7C0D0000 		.4byte	0xd7c
 3886 0cd3 07       		.uleb128 0x7
 3887 0cd4 97040000 		.4byte	.LASF255
 3888 0cd8 0A       		.byte	0xa
 3889 0cd9 7D       		.byte	0x7d
 3890 0cda 9C0B0000 		.4byte	0xb9c
 3891 0cde 00       		.byte	0
 3892 0cdf 07       		.uleb128 0x7
 3893 0ce0 BE070000 		.4byte	.LASF256
 3894 0ce4 0A       		.byte	0xa
 3895 0ce5 7E       		.byte	0x7e
 3896 0ce6 A2000000 		.4byte	0xa2
 3897 0cea 01       		.byte	0x1
 3898 0ceb 07       		.uleb128 0x7
 3899 0cec 1D0B0000 		.4byte	.LASF257
 3900 0cf0 0A       		.byte	0xa
ARM GAS  C:\Users\JENNEW~1\AppData\Local\Temp\ccBYNzIK.s 			page 79


 3901 0cf1 7F       		.byte	0x7f
 3902 0cf2 A2000000 		.4byte	0xa2
 3903 0cf6 02       		.byte	0x2
 3904 0cf7 07       		.uleb128 0x7
 3905 0cf8 D00C0000 		.4byte	.LASF258
 3906 0cfc 0A       		.byte	0xa
 3907 0cfd 80       		.byte	0x80
 3908 0cfe A2000000 		.4byte	0xa2
 3909 0d02 03       		.byte	0x3
 3910 0d03 07       		.uleb128 0x7
 3911 0d04 B0070000 		.4byte	.LASF259
 3912 0d08 0A       		.byte	0xa
 3913 0d09 81       		.byte	0x81
 3914 0d0a A2000000 		.4byte	0xa2
 3915 0d0e 04       		.byte	0x4
 3916 0d0f 07       		.uleb128 0x7
 3917 0d10 F80B0000 		.4byte	.LASF260
 3918 0d14 0A       		.byte	0xa
 3919 0d15 82       		.byte	0x82
 3920 0d16 A2000000 		.4byte	0xa2
 3921 0d1a 05       		.byte	0x5
 3922 0d1b 07       		.uleb128 0x7
 3923 0d1c 64080000 		.4byte	.LASF261
 3924 0d20 0A       		.byte	0xa
 3925 0d21 83       		.byte	0x83
 3926 0d22 EC070000 		.4byte	0x7ec
 3927 0d26 06       		.byte	0x6
 3928 0d27 07       		.uleb128 0x7
 3929 0d28 26040000 		.4byte	.LASF262
 3930 0d2c 0A       		.byte	0xa
 3931 0d2d 84       		.byte	0x84
 3932 0d2e C00C0000 		.4byte	0xcc0
 3933 0d32 08       		.byte	0x8
 3934 0d33 07       		.uleb128 0x7
 3935 0d34 0E080000 		.4byte	.LASF263
 3936 0d38 0A       		.byte	0xa
 3937 0d39 85       		.byte	0x85
 3938 0d3a 7C0D0000 		.4byte	0xd7c
 3939 0d3e 1C       		.byte	0x1c
 3940 0d3f 07       		.uleb128 0x7
 3941 0d40 84050000 		.4byte	.LASF264
 3942 0d44 0A       		.byte	0xa
 3943 0d45 86       		.byte	0x86
 3944 0d46 B8000000 		.4byte	0xb8
 3945 0d4a 62       		.byte	0x62
 3946 0d4b 07       		.uleb128 0x7
 3947 0d4c 14010000 		.4byte	.LASF265
 3948 0d50 0A       		.byte	0xa
 3949 0d51 87       		.byte	0x87
 3950 0d52 8C0D0000 		.4byte	0xd8c
 3951 0d56 64       		.byte	0x64
 3952 0d57 07       		.uleb128 0x7
 3953 0d58 66130000 		.4byte	.LASF266
 3954 0d5c 0A       		.byte	0xa
 3955 0d5d 88       		.byte	0x88
 3956 0d5e 8C0D0000 		.4byte	0xd8c
 3957 0d62 68       		.byte	0x68
ARM GAS  C:\Users\JENNEW~1\AppData\Local\Temp\ccBYNzIK.s 			page 80


 3958 0d63 07       		.uleb128 0x7
 3959 0d64 8F0C0000 		.4byte	.LASF267
 3960 0d68 0A       		.byte	0xa
 3961 0d69 89       		.byte	0x89
 3962 0d6a 8C0D0000 		.4byte	0xd8c
 3963 0d6e 6C       		.byte	0x6c
 3964 0d6f 07       		.uleb128 0x7
 3965 0d70 B3100000 		.4byte	.LASF268
 3966 0d74 0A       		.byte	0xa
 3967 0d75 8A       		.byte	0x8a
 3968 0d76 8C0D0000 		.4byte	0xd8c
 3969 0d7a 70       		.byte	0x70
 3970 0d7b 00       		.byte	0
 3971 0d7c 11       		.uleb128 0x11
 3972 0d7d A2000000 		.4byte	0xa2
 3973 0d81 8C0D0000 		.4byte	0xd8c
 3974 0d85 12       		.uleb128 0x12
 3975 0d86 21060000 		.4byte	0x621
 3976 0d8a 44       		.byte	0x44
 3977 0d8b 00       		.byte	0
 3978 0d8c 0B       		.uleb128 0xb
 3979 0d8d 04       		.byte	0x4
 3980 0d8e A2000000 		.4byte	0xa2
 3981 0d92 03       		.uleb128 0x3
 3982 0d93 EE100000 		.4byte	.LASF269
 3983 0d97 0A       		.byte	0xa
 3984 0d98 8B       		.byte	0x8b
 3985 0d99 CB0C0000 		.4byte	0xccb
 3986 0d9d 05       		.uleb128 0x5
 3987 0d9e 8C       		.byte	0x8c
 3988 0d9f 0A       		.byte	0xa
 3989 0da0 8D       		.byte	0x8d
 3990 0da1 060E0000 		.4byte	0xe06
 3991 0da5 07       		.uleb128 0x7
 3992 0da6 43000000 		.4byte	.LASF270
 3993 0daa 0A       		.byte	0xa
 3994 0dab 8E       		.byte	0x8e
 3995 0dac FA0A0000 		.4byte	0xafa
 3996 0db0 00       		.byte	0
 3997 0db1 07       		.uleb128 0x7
 3998 0db2 DD050000 		.4byte	.LASF271
 3999 0db6 0A       		.byte	0xa
 4000 0db7 8F       		.byte	0x8f
 4001 0db8 B8000000 		.4byte	0xb8
 4002 0dbc 02       		.byte	0x2
 4003 0dbd 07       		.uleb128 0x7
 4004 0dbe 6A100000 		.4byte	.LASF272
 4005 0dc2 0A       		.byte	0xa
 4006 0dc3 90       		.byte	0x90
 4007 0dc4 920D0000 		.4byte	0xd92
 4008 0dc8 04       		.byte	0x4
 4009 0dc9 07       		.uleb128 0x7
 4010 0dca C2130000 		.4byte	.LASF273
 4011 0dce 0A       		.byte	0xa
 4012 0dcf 91       		.byte	0x91
 4013 0dd0 CE000000 		.4byte	0xce
 4014 0dd4 78       		.byte	0x78
ARM GAS  C:\Users\JENNEW~1\AppData\Local\Temp\ccBYNzIK.s 			page 81


 4015 0dd5 07       		.uleb128 0x7
 4016 0dd6 0C030000 		.4byte	.LASF274
 4017 0dda 0A       		.byte	0xa
 4018 0ddb 92       		.byte	0x92
 4019 0ddc A2000000 		.4byte	0xa2
 4020 0de0 7C       		.byte	0x7c
 4021 0de1 07       		.uleb128 0x7
 4022 0de2 880D0000 		.4byte	.LASF275
 4023 0de6 0A       		.byte	0xa
 4024 0de7 93       		.byte	0x93
 4025 0de8 CE000000 		.4byte	0xce
 4026 0dec 80       		.byte	0x80
 4027 0ded 07       		.uleb128 0x7
 4028 0dee 90130000 		.4byte	.LASF276
 4029 0df2 0A       		.byte	0xa
 4030 0df3 94       		.byte	0x94
 4031 0df4 CE000000 		.4byte	0xce
 4032 0df8 84       		.byte	0x84
 4033 0df9 07       		.uleb128 0x7
 4034 0dfa 73070000 		.4byte	.LASF277
 4035 0dfe 0A       		.byte	0xa
 4036 0dff 95       		.byte	0x95
 4037 0e00 CE000000 		.4byte	0xce
 4038 0e04 88       		.byte	0x88
 4039 0e05 00       		.byte	0
 4040 0e06 03       		.uleb128 0x3
 4041 0e07 800F0000 		.4byte	.LASF278
 4042 0e0b 0A       		.byte	0xa
 4043 0e0c 96       		.byte	0x96
 4044 0e0d 9D0D0000 		.4byte	0xd9d
 4045 0e11 0C       		.uleb128 0xc
 4046 0e12 8C0D0000 		.4byte	0xd8c
 4047 0e16 200E0000 		.4byte	0xe20
 4048 0e1a 0A       		.uleb128 0xa
 4049 0e1b 200E0000 		.4byte	0xe20
 4050 0e1f 00       		.byte	0
 4051 0e20 0B       		.uleb128 0xb
 4052 0e21 04       		.byte	0x4
 4053 0e22 920D0000 		.4byte	0xd92
 4054 0e26 0B       		.uleb128 0xb
 4055 0e27 04       		.byte	0x4
 4056 0e28 110E0000 		.4byte	0xe11
 4057 0e2c 05       		.uleb128 0x5
 4058 0e2d 08       		.byte	0x8
 4059 0e2e 0A       		.byte	0xa
 4060 0e2f 9D       		.byte	0x9d
 4061 0e30 4D0E0000 		.4byte	0xe4d
 4062 0e34 07       		.uleb128 0x7
 4063 0e35 92120000 		.4byte	.LASF279
 4064 0e39 0A       		.byte	0xa
 4065 0e3a 9E       		.byte	0x9e
 4066 0e3b 300B0000 		.4byte	0xb30
 4067 0e3f 00       		.byte	0
 4068 0e40 07       		.uleb128 0x7
 4069 0e41 DB020000 		.4byte	.LASF280
 4070 0e45 0A       		.byte	0xa
 4071 0e46 9F       		.byte	0x9f
ARM GAS  C:\Users\JENNEW~1\AppData\Local\Temp\ccBYNzIK.s 			page 82


 4072 0e47 260E0000 		.4byte	0xe26
 4073 0e4b 04       		.byte	0x4
 4074 0e4c 00       		.byte	0
 4075 0e4d 03       		.uleb128 0x3
 4076 0e4e 0F0E0000 		.4byte	.LASF281
 4077 0e52 0A       		.byte	0xa
 4078 0e53 A0       		.byte	0xa0
 4079 0e54 2C0E0000 		.4byte	0xe2c
 4080 0e58 02       		.uleb128 0x2
 4081 0e59 08       		.byte	0x8
 4082 0e5a 04       		.byte	0x4
 4083 0e5b 81120000 		.4byte	.LASF282
 4084 0e5f 15       		.uleb128 0x15
 4085 0e60 C0000000 		.4byte	.LASF283
 4086 0e64 01       		.byte	0x1
 4087 0e65 26       		.byte	0x26
 4088 0e66 00000000 		.4byte	.LFB0
 4089 0e6a 50000000 		.4byte	.LFE0-.LFB0
 4090 0e6e 01       		.uleb128 0x1
 4091 0e6f 9C       		.byte	0x9c
 4092 0e70 830E0000 		.4byte	0xe83
 4093 0e74 16       		.uleb128 0x16
 4094 0e75 63746C00 		.ascii	"ctl\000"
 4095 0e79 01       		.byte	0x1
 4096 0e7a 26       		.byte	0x26
 4097 0e7b 830E0000 		.4byte	0xe83
 4098 0e7f 02       		.uleb128 0x2
 4099 0e80 91       		.byte	0x91
 4100 0e81 74       		.sleb128 -12
 4101 0e82 00       		.byte	0
 4102 0e83 0B       		.uleb128 0xb
 4103 0e84 04       		.byte	0x4
 4104 0e85 890E0000 		.4byte	0xe89
 4105 0e89 17       		.uleb128 0x17
 4106 0e8a DE010000 		.4byte	0x1de
 4107 0e8e 18       		.uleb128 0x18
 4108 0e8f 20080000 		.4byte	.LASF284
 4109 0e93 01       		.byte	0x1
 4110 0e94 32       		.byte	0x32
 4111 0e95 00000000 		.4byte	.LFB1
 4112 0e99 1A000000 		.4byte	.LFE1-.LFB1
 4113 0e9d 01       		.uleb128 0x1
 4114 0e9e 9C       		.byte	0x9c
 4115 0e9f B20E0000 		.4byte	0xeb2
 4116 0ea3 16       		.uleb128 0x16
 4117 0ea4 74656C00 		.ascii	"tel\000"
 4118 0ea8 01       		.byte	0x1
 4119 0ea9 32       		.byte	0x32
 4120 0eaa B20E0000 		.4byte	0xeb2
 4121 0eae 02       		.uleb128 0x2
 4122 0eaf 91       		.byte	0x91
 4123 0eb0 74       		.sleb128 -12
 4124 0eb1 00       		.byte	0
 4125 0eb2 0B       		.uleb128 0xb
 4126 0eb3 04       		.byte	0x4
 4127 0eb4 C9050000 		.4byte	0x5c9
 4128 0eb8 19       		.uleb128 0x19
ARM GAS  C:\Users\JENNEW~1\AppData\Local\Temp\ccBYNzIK.s 			page 83


 4129 0eb9 95030000 		.4byte	.LASF338
 4130 0ebd 01       		.byte	0x1
 4131 0ebe 3B       		.byte	0x3b
 4132 0ebf CE000000 		.4byte	0xce
 4133 0ec3 00000000 		.4byte	.LFB2
 4134 0ec7 44000000 		.4byte	.LFE2-.LFB2
 4135 0ecb 01       		.uleb128 0x1
 4136 0ecc 9C       		.byte	0x9c
 4137 0ecd FA0E0000 		.4byte	0xefa
 4138 0ed1 16       		.uleb128 0x16
 4139 0ed2 6700     		.ascii	"g\000"
 4140 0ed4 01       		.byte	0x1
 4141 0ed5 3B       		.byte	0x3b
 4142 0ed6 FA0E0000 		.4byte	0xefa
 4143 0eda 02       		.uleb128 0x2
 4144 0edb 91       		.byte	0x91
 4145 0edc 6C       		.sleb128 -20
 4146 0edd 1A       		.uleb128 0x1a
 4147 0ede D1070000 		.4byte	.LASF285
 4148 0ee2 01       		.byte	0x1
 4149 0ee3 3D       		.byte	0x3d
 4150 0ee4 A2000000 		.4byte	0xa2
 4151 0ee8 02       		.uleb128 0x2
 4152 0ee9 91       		.byte	0x91
 4153 0eea 73       		.sleb128 -13
 4154 0eeb 1A       		.uleb128 0x1a
 4155 0eec BE080000 		.4byte	.LASF286
 4156 0ef0 01       		.byte	0x1
 4157 0ef1 3E       		.byte	0x3e
 4158 0ef2 CE000000 		.4byte	0xce
 4159 0ef6 02       		.uleb128 0x2
 4160 0ef7 91       		.byte	0x91
 4161 0ef8 74       		.sleb128 -12
 4162 0ef9 00       		.byte	0
 4163 0efa 0B       		.uleb128 0xb
 4164 0efb 04       		.byte	0x4
 4165 0efc B3070000 		.4byte	0x7b3
 4166 0f00 1B       		.uleb128 0x1b
 4167 0f01 530D0000 		.4byte	.LASF287
 4168 0f05 01       		.byte	0x1
 4169 0f06 4B       		.byte	0x4b
 4170 0f07 00000000 		.4byte	.LFB3
 4171 0f0b 5C000000 		.4byte	.LFE3-.LFB3
 4172 0f0f 01       		.uleb128 0x1
 4173 0f10 9C       		.byte	0x9c
 4174 0f11 300F0000 		.4byte	0xf30
 4175 0f15 16       		.uleb128 0x16
 4176 0f16 6700     		.ascii	"g\000"
 4177 0f18 01       		.byte	0x1
 4178 0f19 4B       		.byte	0x4b
 4179 0f1a FA0E0000 		.4byte	0xefa
 4180 0f1e 02       		.uleb128 0x2
 4181 0f1f 91       		.byte	0x91
 4182 0f20 74       		.sleb128 -12
 4183 0f21 16       		.uleb128 0x16
 4184 0f22 68616C00 		.ascii	"hal\000"
 4185 0f26 01       		.byte	0x1
ARM GAS  C:\Users\JENNEW~1\AppData\Local\Temp\ccBYNzIK.s 			page 84


 4186 0f27 4B       		.byte	0x4b
 4187 0f28 300F0000 		.4byte	0xf30
 4188 0f2c 02       		.uleb128 0x2
 4189 0f2d 91       		.byte	0x91
 4190 0f2e 70       		.sleb128 -16
 4191 0f2f 00       		.byte	0
 4192 0f30 0B       		.uleb128 0xb
 4193 0f31 04       		.byte	0x4
 4194 0f32 360F0000 		.4byte	0xf36
 4195 0f36 17       		.uleb128 0x17
 4196 0f37 33010000 		.4byte	0x133
 4197 0f3b 1B       		.uleb128 0x1b
 4198 0f3c D5000000 		.4byte	.LASF288
 4199 0f40 01       		.byte	0x1
 4200 0f41 5F       		.byte	0x5f
 4201 0f42 00000000 		.4byte	.LFB4
 4202 0f46 7E000000 		.4byte	.LFE4-.LFB4
 4203 0f4a 01       		.uleb128 0x1
 4204 0f4b 9C       		.byte	0x9c
 4205 0f4c 5D0F0000 		.4byte	0xf5d
 4206 0f50 16       		.uleb128 0x16
 4207 0f51 6700     		.ascii	"g\000"
 4208 0f53 01       		.byte	0x1
 4209 0f54 5F       		.byte	0x5f
 4210 0f55 FA0E0000 		.4byte	0xefa
 4211 0f59 02       		.uleb128 0x2
 4212 0f5a 91       		.byte	0x91
 4213 0f5b 74       		.sleb128 -12
 4214 0f5c 00       		.byte	0
 4215 0f5d 1B       		.uleb128 0x1b
 4216 0f5e 8C060000 		.4byte	.LASF289
 4217 0f62 01       		.byte	0x1
 4218 0f63 6F       		.byte	0x6f
 4219 0f64 00000000 		.4byte	.LFB5
 4220 0f68 28000000 		.4byte	.LFE5-.LFB5
 4221 0f6c 01       		.uleb128 0x1
 4222 0f6d 9C       		.byte	0x9c
 4223 0f6e 7F0F0000 		.4byte	0xf7f
 4224 0f72 16       		.uleb128 0x16
 4225 0f73 6700     		.ascii	"g\000"
 4226 0f75 01       		.byte	0x1
 4227 0f76 6F       		.byte	0x6f
 4228 0f77 FA0E0000 		.4byte	0xefa
 4229 0f7b 02       		.uleb128 0x2
 4230 0f7c 91       		.byte	0x91
 4231 0f7d 74       		.sleb128 -12
 4232 0f7e 00       		.byte	0
 4233 0f7f 1B       		.uleb128 0x1b
 4234 0f80 260A0000 		.4byte	.LASF290
 4235 0f84 01       		.byte	0x1
 4236 0f85 7A       		.byte	0x7a
 4237 0f86 00000000 		.4byte	.LFB6
 4238 0f8a 3A000000 		.4byte	.LFE6-.LFB6
 4239 0f8e 01       		.uleb128 0x1
 4240 0f8f 9C       		.byte	0x9c
 4241 0f90 AD0F0000 		.4byte	0xfad
 4242 0f94 16       		.uleb128 0x16
ARM GAS  C:\Users\JENNEW~1\AppData\Local\Temp\ccBYNzIK.s 			page 85


 4243 0f95 6700     		.ascii	"g\000"
 4244 0f97 01       		.byte	0x1
 4245 0f98 7A       		.byte	0x7a
 4246 0f99 FA0E0000 		.4byte	0xefa
 4247 0f9d 02       		.uleb128 0x2
 4248 0f9e 91       		.byte	0x91
 4249 0f9f 74       		.sleb128 -12
 4250 0fa0 16       		.uleb128 0x16
 4251 0fa1 6200     		.ascii	"b\000"
 4252 0fa3 01       		.byte	0x1
 4253 0fa4 7A       		.byte	0x7a
 4254 0fa5 A2000000 		.4byte	0xa2
 4255 0fa9 02       		.uleb128 0x2
 4256 0faa 91       		.byte	0x91
 4257 0fab 73       		.sleb128 -13
 4258 0fac 00       		.byte	0
 4259 0fad 1C       		.uleb128 0x1c
 4260 0fae 59040000 		.4byte	.LASF291
 4261 0fb2 01       		.byte	0x1
 4262 0fb3 82       		.byte	0x82
 4263 0fb4 00000000 		.4byte	.LFB7
 4264 0fb8 30000000 		.4byte	.LFE7-.LFB7
 4265 0fbc 01       		.uleb128 0x1
 4266 0fbd 9C       		.byte	0x9c
 4267 0fbe DD0F0000 		.4byte	0xfdd
 4268 0fc2 16       		.uleb128 0x16
 4269 0fc3 6700     		.ascii	"g\000"
 4270 0fc5 01       		.byte	0x1
 4271 0fc6 82       		.byte	0x82
 4272 0fc7 FA0E0000 		.4byte	0xefa
 4273 0fcb 02       		.uleb128 0x2
 4274 0fcc 91       		.byte	0x91
 4275 0fcd 74       		.sleb128 -12
 4276 0fce 1D       		.uleb128 0x1d
 4277 0fcf 80040000 		.4byte	.LASF292
 4278 0fd3 01       		.byte	0x1
 4279 0fd4 82       		.byte	0x82
 4280 0fd5 A2000000 		.4byte	0xa2
 4281 0fd9 02       		.uleb128 0x2
 4282 0fda 91       		.byte	0x91
 4283 0fdb 73       		.sleb128 -13
 4284 0fdc 00       		.byte	0
 4285 0fdd 1B       		.uleb128 0x1b
 4286 0fde 9C000000 		.4byte	.LASF293
 4287 0fe2 01       		.byte	0x1
 4288 0fe3 8B       		.byte	0x8b
 4289 0fe4 00000000 		.4byte	.LFB8
 4290 0fe8 7C020000 		.4byte	.LFE8-.LFB8
 4291 0fec 01       		.uleb128 0x1
 4292 0fed 9C       		.byte	0x9c
 4293 0fee 8F100000 		.4byte	0x108f
 4294 0ff2 16       		.uleb128 0x16
 4295 0ff3 6700     		.ascii	"g\000"
 4296 0ff5 01       		.byte	0x1
 4297 0ff6 8B       		.byte	0x8b
 4298 0ff7 FA0E0000 		.4byte	0xefa
 4299 0ffb 02       		.uleb128 0x2
ARM GAS  C:\Users\JENNEW~1\AppData\Local\Temp\ccBYNzIK.s 			page 86


 4300 0ffc 91       		.byte	0x91
 4301 0ffd 54       		.sleb128 -44
 4302 0ffe 1E       		.uleb128 0x1e
 4303 0fff 6200     		.ascii	"b\000"
 4304 1001 01       		.byte	0x1
 4305 1002 8F       		.byte	0x8f
 4306 1003 A2000000 		.4byte	0xa2
 4307 1007 02       		.uleb128 0x2
 4308 1008 91       		.byte	0x91
 4309 1009 5B       		.sleb128 -37
 4310 100a 1A       		.uleb128 0x1a
 4311 100b E90D0000 		.4byte	.LASF294
 4312 100f 01       		.byte	0x1
 4313 1010 91       		.byte	0x91
 4314 1011 CE000000 		.4byte	0xce
 4315 1015 02       		.uleb128 0x2
 4316 1016 91       		.byte	0x91
 4317 1017 74       		.sleb128 -12
 4318 1018 1A       		.uleb128 0x1a
 4319 1019 72130000 		.4byte	.LASF295
 4320 101d 01       		.byte	0x1
 4321 101e D7       		.byte	0xd7
 4322 101f CE000000 		.4byte	0xce
 4323 1023 02       		.uleb128 0x2
 4324 1024 91       		.byte	0x91
 4325 1025 5C       		.sleb128 -36
 4326 1026 1F       		.uleb128 0x1f
 4327 1027 1A000000 		.4byte	.LBB2
 4328 102b 06020000 		.4byte	.LBE2-.LBB2
 4329 102f 1A       		.uleb128 0x1a
 4330 1030 2C120000 		.4byte	.LASF296
 4331 1034 01       		.byte	0x1
 4332 1035 97       		.byte	0x97
 4333 1036 94000000 		.4byte	0x94
 4334 103a 02       		.uleb128 0x2
 4335 103b 91       		.byte	0x91
 4336 103c 70       		.sleb128 -16
 4337 103d 1A       		.uleb128 0x1a
 4338 103e 8F0F0000 		.4byte	.LASF297
 4339 1042 01       		.byte	0x1
 4340 1043 9E       		.byte	0x9e
 4341 1044 8F100000 		.4byte	0x108f
 4342 1048 02       		.uleb128 0x2
 4343 1049 91       		.byte	0x91
 4344 104a 6C       		.sleb128 -20
 4345 104b 1A       		.uleb128 0x1a
 4346 104c F80D0000 		.4byte	.LASF298
 4347 1050 01       		.byte	0x1
 4348 1051 9F       		.byte	0x9f
 4349 1052 B8000000 		.4byte	0xb8
 4350 1056 02       		.uleb128 0x2
 4351 1057 91       		.byte	0x91
 4352 1058 6A       		.sleb128 -22
 4353 1059 1A       		.uleb128 0x1a
 4354 105a B3110000 		.4byte	.LASF299
 4355 105e 01       		.byte	0x1
 4356 105f A0       		.byte	0xa0
ARM GAS  C:\Users\JENNEW~1\AppData\Local\Temp\ccBYNzIK.s 			page 87


 4357 1060 B8000000 		.4byte	0xb8
 4358 1064 02       		.uleb128 0x2
 4359 1065 91       		.byte	0x91
 4360 1066 68       		.sleb128 -24
 4361 1067 1E       		.uleb128 0x1e
 4362 1068 70617900 		.ascii	"pay\000"
 4363 106c 01       		.byte	0x1
 4364 106d A1       		.byte	0xa1
 4365 106e 95100000 		.4byte	0x1095
 4366 1072 02       		.uleb128 0x2
 4367 1073 91       		.byte	0x91
 4368 1074 64       		.sleb128 -28
 4369 1075 1F       		.uleb128 0x1f
 4370 1076 C8010000 		.4byte	.LBB3
 4371 107a 58000000 		.4byte	.LBE3-.LBB3
 4372 107e 1A       		.uleb128 0x1a
 4373 107f AF060000 		.4byte	.LASF300
 4374 1083 01       		.byte	0x1
 4375 1084 CA       		.byte	0xca
 4376 1085 A2000000 		.4byte	0xa2
 4377 1089 02       		.uleb128 0x2
 4378 108a 91       		.byte	0x91
 4379 108b 63       		.sleb128 -29
 4380 108c 00       		.byte	0
 4381 108d 00       		.byte	0
 4382 108e 00       		.byte	0
 4383 108f 0B       		.uleb128 0xb
 4384 1090 04       		.byte	0x4
 4385 1091 060E0000 		.4byte	0xe06
 4386 1095 0B       		.uleb128 0xb
 4387 1096 04       		.byte	0x4
 4388 1097 9B100000 		.4byte	0x109b
 4389 109b 17       		.uleb128 0x17
 4390 109c A2000000 		.4byte	0xa2
 4391 10a0 20       		.uleb128 0x20
 4392 10a1 02110000 		.4byte	.LASF302
 4393 10a5 01       		.byte	0x1
 4394 10a6 E1       		.byte	0xe1
 4395 10a7 73060000 		.4byte	0x673
 4396 10ab 00000000 		.4byte	.LFB9
 4397 10af 7C000000 		.4byte	.LFE9-.LFB9
 4398 10b3 01       		.uleb128 0x1
 4399 10b4 9C       		.byte	0x9c
 4400 10b5 E2100000 		.4byte	0x10e2
 4401 10b9 16       		.uleb128 0x16
 4402 10ba 6700     		.ascii	"g\000"
 4403 10bc 01       		.byte	0x1
 4404 10bd E1       		.byte	0xe1
 4405 10be FA0E0000 		.4byte	0xefa
 4406 10c2 02       		.uleb128 0x2
 4407 10c3 91       		.byte	0x91
 4408 10c4 64       		.sleb128 -28
 4409 10c5 16       		.uleb128 0x16
 4410 10c6 63746C00 		.ascii	"ctl\000"
 4411 10ca 01       		.byte	0x1
 4412 10cb E2       		.byte	0xe2
 4413 10cc 830E0000 		.4byte	0xe83
ARM GAS  C:\Users\JENNEW~1\AppData\Local\Temp\ccBYNzIK.s 			page 88


 4414 10d0 02       		.uleb128 0x2
 4415 10d1 91       		.byte	0x91
 4416 10d2 60       		.sleb128 -32
 4417 10d3 1A       		.uleb128 0x1a
 4418 10d4 BE080000 		.4byte	.LASF286
 4419 10d8 01       		.byte	0x1
 4420 10d9 EA       		.byte	0xea
 4421 10da CE000000 		.4byte	0xce
 4422 10de 02       		.uleb128 0x2
 4423 10df 91       		.byte	0x91
 4424 10e0 6C       		.sleb128 -20
 4425 10e1 00       		.byte	0
 4426 10e2 1B       		.uleb128 0x1b
 4427 10e3 D00B0000 		.4byte	.LASF301
 4428 10e7 01       		.byte	0x1
 4429 10e8 F4       		.byte	0xf4
 4430 10e9 00000000 		.4byte	.LFB10
 4431 10ed 3A000000 		.4byte	.LFE10-.LFB10
 4432 10f1 01       		.uleb128 0x1
 4433 10f2 9C       		.byte	0x9c
 4434 10f3 10110000 		.4byte	0x1110
 4435 10f7 16       		.uleb128 0x16
 4436 10f8 6700     		.ascii	"g\000"
 4437 10fa 01       		.byte	0x1
 4438 10fb F4       		.byte	0xf4
 4439 10fc FA0E0000 		.4byte	0xefa
 4440 1100 02       		.uleb128 0x2
 4441 1101 91       		.byte	0x91
 4442 1102 54       		.sleb128 -44
 4443 1103 1E       		.uleb128 0x1e
 4444 1104 6B00     		.ascii	"k\000"
 4445 1106 01       		.byte	0x1
 4446 1107 F8       		.byte	0xf8
 4447 1108 DE010000 		.4byte	0x1de
 4448 110c 02       		.uleb128 0x2
 4449 110d 91       		.byte	0x91
 4450 110e 5C       		.sleb128 -36
 4451 110f 00       		.byte	0
 4452 1110 21       		.uleb128 0x21
 4453 1111 5F0D0000 		.4byte	.LASF303
 4454 1115 01       		.byte	0x1
 4455 1116 0001     		.2byte	0x100
 4456 1118 73060000 		.4byte	0x673
 4457 111c 00000000 		.4byte	.LFB11
 4458 1120 A8000000 		.4byte	.LFE11-.LFB11
 4459 1124 01       		.uleb128 0x1
 4460 1125 9C       		.byte	0x9c
 4461 1126 65110000 		.4byte	0x1165
 4462 112a 22       		.uleb128 0x22
 4463 112b 6700     		.ascii	"g\000"
 4464 112d 01       		.byte	0x1
 4465 112e 0001     		.2byte	0x100
 4466 1130 FA0E0000 		.4byte	0xefa
 4467 1134 02       		.uleb128 0x2
 4468 1135 91       		.byte	0x91
 4469 1136 64       		.sleb128 -28
 4470 1137 23       		.uleb128 0x23
ARM GAS  C:\Users\JENNEW~1\AppData\Local\Temp\ccBYNzIK.s 			page 89


 4471 1138 FB0F0000 		.4byte	.LASF304
 4472 113c 01       		.byte	0x1
 4473 113d 0001     		.2byte	0x100
 4474 113f B8000000 		.4byte	0xb8
 4475 1143 02       		.uleb128 0x2
 4476 1144 91       		.byte	0x91
 4477 1145 62       		.sleb128 -30
 4478 1146 24       		.uleb128 0x24
 4479 1147 E40D0000 		.4byte	.LASF305
 4480 114b 01       		.byte	0x1
 4481 114c 0601     		.2byte	0x106
 4482 114e 040C0000 		.4byte	0xc04
 4483 1152 02       		.uleb128 0x2
 4484 1153 91       		.byte	0x91
 4485 1154 6C       		.sleb128 -20
 4486 1155 24       		.uleb128 0x24
 4487 1156 BE080000 		.4byte	.LASF286
 4488 115a 01       		.byte	0x1
 4489 115b 0F01     		.2byte	0x10f
 4490 115d CE000000 		.4byte	0xce
 4491 1161 02       		.uleb128 0x2
 4492 1162 91       		.byte	0x91
 4493 1163 74       		.sleb128 -12
 4494 1164 00       		.byte	0
 4495 1165 21       		.uleb128 0x21
 4496 1166 B40B0000 		.4byte	.LASF306
 4497 116a 01       		.byte	0x1
 4498 116b 2401     		.2byte	0x124
 4499 116d 73060000 		.4byte	0x673
 4500 1171 00000000 		.4byte	.LFB12
 4501 1175 08010000 		.4byte	.LFE12-.LFB12
 4502 1179 01       		.uleb128 0x1
 4503 117a 9C       		.byte	0x9c
 4504 117b 05120000 		.4byte	0x1205
 4505 117f 22       		.uleb128 0x22
 4506 1180 6700     		.ascii	"g\000"
 4507 1182 01       		.byte	0x1
 4508 1183 2401     		.2byte	0x124
 4509 1185 FA0E0000 		.4byte	0xefa
 4510 1189 02       		.uleb128 0x2
 4511 118a 91       		.byte	0x91
 4512 118b 64       		.sleb128 -28
 4513 118c 23       		.uleb128 0x23
 4514 118d FB0F0000 		.4byte	.LASF304
 4515 1191 01       		.byte	0x1
 4516 1192 2501     		.2byte	0x125
 4517 1194 B8000000 		.4byte	0xb8
 4518 1198 02       		.uleb128 0x2
 4519 1199 91       		.byte	0x91
 4520 119a 62       		.sleb128 -30
 4521 119b 23       		.uleb128 0x23
 4522 119c C0030000 		.4byte	.LASF307
 4523 11a0 01       		.byte	0x1
 4524 11a1 2601     		.2byte	0x126
 4525 11a3 8C0D0000 		.4byte	0xd8c
 4526 11a7 02       		.uleb128 0x2
 4527 11a8 91       		.byte	0x91
ARM GAS  C:\Users\JENNEW~1\AppData\Local\Temp\ccBYNzIK.s 			page 90


 4528 11a9 5C       		.sleb128 -36
 4529 11aa 23       		.uleb128 0x23
 4530 11ab 600B0000 		.4byte	.LASF308
 4531 11af 01       		.byte	0x1
 4532 11b0 2701     		.2byte	0x127
 4533 11b2 A2000000 		.4byte	0xa2
 4534 11b6 02       		.uleb128 0x2
 4535 11b7 91       		.byte	0x91
 4536 11b8 61       		.sleb128 -31
 4537 11b9 23       		.uleb128 0x23
 4538 11ba A4060000 		.4byte	.LASF309
 4539 11be 01       		.byte	0x1
 4540 11bf 2801     		.2byte	0x128
 4541 11c1 8C0D0000 		.4byte	0xd8c
 4542 11c5 02       		.uleb128 0x2
 4543 11c6 91       		.byte	0x91
 4544 11c7 00       		.sleb128 0
 4545 11c8 24       		.uleb128 0x24
 4546 11c9 E40D0000 		.4byte	.LASF305
 4547 11cd 01       		.byte	0x1
 4548 11ce 2E01     		.2byte	0x12e
 4549 11d0 040C0000 		.4byte	0xc04
 4550 11d4 02       		.uleb128 0x2
 4551 11d5 91       		.byte	0x91
 4552 11d6 6C       		.sleb128 -20
 4553 11d7 24       		.uleb128 0x24
 4554 11d8 D1070000 		.4byte	.LASF285
 4555 11dc 01       		.byte	0x1
 4556 11dd 3601     		.2byte	0x136
 4557 11df A2000000 		.4byte	0xa2
 4558 11e3 02       		.uleb128 0x2
 4559 11e4 91       		.byte	0x91
 4560 11e5 6B       		.sleb128 -21
 4561 11e6 24       		.uleb128 0x24
 4562 11e7 BE080000 		.4byte	.LASF286
 4563 11eb 01       		.byte	0x1
 4564 11ec 3701     		.2byte	0x137
 4565 11ee CE000000 		.4byte	0xce
 4566 11f2 02       		.uleb128 0x2
 4567 11f3 91       		.byte	0x91
 4568 11f4 74       		.sleb128 -12
 4569 11f5 25       		.uleb128 0x25
 4570 11f6 63617000 		.ascii	"cap\000"
 4571 11fa 01       		.byte	0x1
 4572 11fb 3801     		.2byte	0x138
 4573 11fd A2000000 		.4byte	0xa2
 4574 1201 02       		.uleb128 0x2
 4575 1202 91       		.byte	0x91
 4576 1203 73       		.sleb128 -13
 4577 1204 00       		.byte	0
 4578 1205 21       		.uleb128 0x21
 4579 1206 5E0E0000 		.4byte	.LASF310
 4580 120a 01       		.byte	0x1
 4581 120b 5C01     		.2byte	0x15c
 4582 120d 73060000 		.4byte	0x673
 4583 1211 00000000 		.4byte	.LFB13
 4584 1215 E4010000 		.4byte	.LFE13-.LFB13
ARM GAS  C:\Users\JENNEW~1\AppData\Local\Temp\ccBYNzIK.s 			page 91


 4585 1219 01       		.uleb128 0x1
 4586 121a 9C       		.byte	0x9c
 4587 121b 94120000 		.4byte	0x1294
 4588 121f 22       		.uleb128 0x22
 4589 1220 6700     		.ascii	"g\000"
 4590 1222 01       		.byte	0x1
 4591 1223 5C01     		.2byte	0x15c
 4592 1225 FA0E0000 		.4byte	0xefa
 4593 1229 02       		.uleb128 0x2
 4594 122a 91       		.byte	0x91
 4595 122b 5C       		.sleb128 -36
 4596 122c 23       		.uleb128 0x23
 4597 122d FB0F0000 		.4byte	.LASF304
 4598 1231 01       		.byte	0x1
 4599 1232 5D01     		.2byte	0x15d
 4600 1234 B8000000 		.4byte	0xb8
 4601 1238 02       		.uleb128 0x2
 4602 1239 91       		.byte	0x91
 4603 123a 5A       		.sleb128 -38
 4604 123b 23       		.uleb128 0x23
 4605 123c 890C0000 		.4byte	.LASF161
 4606 1240 01       		.byte	0x1
 4607 1241 5E01     		.2byte	0x15e
 4608 1243 A2000000 		.4byte	0xa2
 4609 1247 02       		.uleb128 0x2
 4610 1248 91       		.byte	0x91
 4611 1249 59       		.sleb128 -39
 4612 124a 25       		.uleb128 0x25
 4613 124b 706B7400 		.ascii	"pkt\000"
 4614 124f 01       		.byte	0x1
 4615 1250 6201     		.2byte	0x162
 4616 1252 94120000 		.4byte	0x1294
 4617 1256 02       		.uleb128 0x2
 4618 1257 91       		.byte	0x91
 4619 1258 60       		.sleb128 -32
 4620 1259 25       		.uleb128 0x25
 4621 125a 69647800 		.ascii	"idx\000"
 4622 125e 01       		.byte	0x1
 4623 125f 6301     		.2byte	0x163
 4624 1261 A2000000 		.4byte	0xa2
 4625 1265 02       		.uleb128 0x2
 4626 1266 91       		.byte	0x91
 4627 1267 77       		.sleb128 -9
 4628 1268 25       		.uleb128 0x25
 4629 1269 6900     		.ascii	"i\000"
 4630 126b 01       		.byte	0x1
 4631 126c 6301     		.2byte	0x163
 4632 126e A2000000 		.4byte	0xa2
 4633 1272 02       		.uleb128 0x2
 4634 1273 91       		.byte	0x91
 4635 1274 76       		.sleb128 -10
 4636 1275 25       		.uleb128 0x25
 4637 1276 73756D00 		.ascii	"sum\000"
 4638 127a 01       		.byte	0x1
 4639 127b 7B01     		.2byte	0x17b
 4640 127d B8000000 		.4byte	0xb8
 4641 1281 02       		.uleb128 0x2
ARM GAS  C:\Users\JENNEW~1\AppData\Local\Temp\ccBYNzIK.s 			page 92


 4642 1282 91       		.byte	0x91
 4643 1283 74       		.sleb128 -12
 4644 1284 24       		.uleb128 0x24
 4645 1285 BE080000 		.4byte	.LASF286
 4646 1289 01       		.byte	0x1
 4647 128a 8001     		.2byte	0x180
 4648 128c CE000000 		.4byte	0xce
 4649 1290 02       		.uleb128 0x2
 4650 1291 91       		.byte	0x91
 4651 1292 70       		.sleb128 -16
 4652 1293 00       		.byte	0
 4653 1294 11       		.uleb128 0x11
 4654 1295 A2000000 		.4byte	0xa2
 4655 1299 A4120000 		.4byte	0x12a4
 4656 129d 12       		.uleb128 0x12
 4657 129e 21060000 		.4byte	0x621
 4658 12a2 0C       		.byte	0xc
 4659 12a3 00       		.byte	0
 4660 12a4 26       		.uleb128 0x26
 4661 12a5 62010000 		.4byte	.LASF311
 4662 12a9 01       		.byte	0x1
 4663 12aa 9301     		.2byte	0x193
 4664 12ac 00000000 		.4byte	.LFB14
 4665 12b0 30000000 		.4byte	.LFE14-.LFB14
 4666 12b4 01       		.uleb128 0x1
 4667 12b5 9C       		.byte	0x9c
 4668 12b6 D7120000 		.4byte	0x12d7
 4669 12ba 22       		.uleb128 0x22
 4670 12bb 6700     		.ascii	"g\000"
 4671 12bd 01       		.byte	0x1
 4672 12be 9301     		.2byte	0x193
 4673 12c0 FA0E0000 		.4byte	0xefa
 4674 12c4 02       		.uleb128 0x2
 4675 12c5 91       		.byte	0x91
 4676 12c6 74       		.sleb128 -12
 4677 12c7 22       		.uleb128 0x22
 4678 12c8 6F757400 		.ascii	"out\000"
 4679 12cc 01       		.byte	0x1
 4680 12cd 9301     		.2byte	0x193
 4681 12cf B20E0000 		.4byte	0xeb2
 4682 12d3 02       		.uleb128 0x2
 4683 12d4 91       		.byte	0x91
 4684 12d5 70       		.sleb128 -16
 4685 12d6 00       		.byte	0
 4686 12d7 27       		.uleb128 0x27
 4687 12d8 BE0D0000 		.4byte	.LASF312
 4688 12dc 01       		.byte	0x1
 4689 12dd 9A01     		.2byte	0x19a
 4690 12df 00000000 		.4byte	.LFB15
 4691 12e3 46000000 		.4byte	.LFE15-.LFB15
 4692 12e7 01       		.uleb128 0x1
 4693 12e8 9C       		.byte	0x9c
 4694 12e9 0A130000 		.4byte	0x130a
 4695 12ed 22       		.uleb128 0x22
 4696 12ee 6700     		.ascii	"g\000"
 4697 12f0 01       		.byte	0x1
 4698 12f1 9A01     		.2byte	0x19a
ARM GAS  C:\Users\JENNEW~1\AppData\Local\Temp\ccBYNzIK.s 			page 93


 4699 12f3 FA0E0000 		.4byte	0xefa
 4700 12f7 02       		.uleb128 0x2
 4701 12f8 91       		.byte	0x91
 4702 12f9 6C       		.sleb128 -20
 4703 12fa 22       		.uleb128 0x22
 4704 12fb 6F757400 		.ascii	"out\000"
 4705 12ff 01       		.byte	0x1
 4706 1300 9A01     		.2byte	0x19a
 4707 1302 0A130000 		.4byte	0x130a
 4708 1306 02       		.uleb128 0x2
 4709 1307 91       		.byte	0x91
 4710 1308 68       		.sleb128 -24
 4711 1309 00       		.byte	0
 4712 130a 0B       		.uleb128 0xb
 4713 130b 04       		.byte	0x4
 4714 130c DB060000 		.4byte	0x6db
 4715 1310 26       		.uleb128 0x26
 4716 1311 4B110000 		.4byte	.LASF313
 4717 1315 01       		.byte	0x1
 4718 1316 A401     		.2byte	0x1a4
 4719 1318 00000000 		.4byte	.LFB16
 4720 131c 34000000 		.4byte	.LFE16-.LFB16
 4721 1320 01       		.uleb128 0x1
 4722 1321 9C       		.byte	0x9c
 4723 1322 34130000 		.4byte	0x1334
 4724 1326 22       		.uleb128 0x22
 4725 1327 6300     		.ascii	"c\000"
 4726 1329 01       		.byte	0x1
 4727 132a A401     		.2byte	0x1a4
 4728 132c 34130000 		.4byte	0x1334
 4729 1330 02       		.uleb128 0x2
 4730 1331 91       		.byte	0x91
 4731 1332 74       		.sleb128 -12
 4732 1333 00       		.byte	0
 4733 1334 0B       		.uleb128 0xb
 4734 1335 04       		.byte	0x4
 4735 1336 DE010000 		.4byte	0x1de
 4736 133a 28       		.uleb128 0x28
 4737 133b 5F110000 		.4byte	.LASF314
 4738 133f 01       		.byte	0x1
 4739 1340 B101     		.2byte	0x1b1
 4740 1342 A2000000 		.4byte	0xa2
 4741 1346 00000000 		.4byte	.LFB17
 4742 134a 2A000000 		.4byte	.LFE17-.LFB17
 4743 134e 01       		.uleb128 0x1
 4744 134f 9C       		.byte	0x9c
 4745 1350 62130000 		.4byte	0x1362
 4746 1354 22       		.uleb128 0x22
 4747 1355 6700     		.ascii	"g\000"
 4748 1357 01       		.byte	0x1
 4749 1358 B101     		.2byte	0x1b1
 4750 135a 62130000 		.4byte	0x1362
 4751 135e 02       		.uleb128 0x2
 4752 135f 91       		.byte	0x91
 4753 1360 74       		.sleb128 -12
 4754 1361 00       		.byte	0
 4755 1362 0B       		.uleb128 0xb
ARM GAS  C:\Users\JENNEW~1\AppData\Local\Temp\ccBYNzIK.s 			page 94


 4756 1363 04       		.byte	0x4
 4757 1364 68130000 		.4byte	0x1368
 4758 1368 17       		.uleb128 0x17
 4759 1369 B3070000 		.4byte	0x7b3
 4760 136d 21       		.uleb128 0x21
 4761 136e 9C0E0000 		.4byte	.LASF315
 4762 1372 01       		.byte	0x1
 4763 1373 BA01     		.2byte	0x1ba
 4764 1375 73060000 		.4byte	0x673
 4765 1379 00000000 		.4byte	.LFB18
 4766 137d 1E000000 		.4byte	.LFE18-.LFB18
 4767 1381 01       		.uleb128 0x1
 4768 1382 9C       		.byte	0x9c
 4769 1383 95130000 		.4byte	0x1395
 4770 1387 22       		.uleb128 0x22
 4771 1388 6700     		.ascii	"g\000"
 4772 138a 01       		.byte	0x1
 4773 138b BA01     		.2byte	0x1ba
 4774 138d FA0E0000 		.4byte	0xefa
 4775 1391 02       		.uleb128 0x2
 4776 1392 91       		.byte	0x91
 4777 1393 74       		.sleb128 -12
 4778 1394 00       		.byte	0
 4779 1395 28       		.uleb128 0x28
 4780 1396 DA130000 		.4byte	.LASF316
 4781 139a 01       		.byte	0x1
 4782 139b C601     		.2byte	0x1c6
 4783 139d 73060000 		.4byte	0x673
 4784 13a1 00000000 		.4byte	.LFB19
 4785 13a5 14000000 		.4byte	.LFE19-.LFB19
 4786 13a9 01       		.uleb128 0x1
 4787 13aa 9C       		.byte	0x9c
 4788 13ab BD130000 		.4byte	0x13bd
 4789 13af 22       		.uleb128 0x22
 4790 13b0 6700     		.ascii	"g\000"
 4791 13b2 01       		.byte	0x1
 4792 13b3 C601     		.2byte	0x1c6
 4793 13b5 FA0E0000 		.4byte	0xefa
 4794 13b9 02       		.uleb128 0x2
 4795 13ba 91       		.byte	0x91
 4796 13bb 74       		.sleb128 -12
 4797 13bc 00       		.byte	0
 4798 13bd 21       		.uleb128 0x21
 4799 13be C80A0000 		.4byte	.LASF317
 4800 13c2 01       		.byte	0x1
 4801 13c3 D801     		.2byte	0x1d8
 4802 13c5 73060000 		.4byte	0x673
 4803 13c9 00000000 		.4byte	.LFB20
 4804 13cd 08030000 		.4byte	.LFE20-.LFB20
 4805 13d1 01       		.uleb128 0x1
 4806 13d2 9C       		.byte	0x9c
 4807 13d3 F9140000 		.4byte	0x14f9
 4808 13d7 23       		.uleb128 0x23
 4809 13d8 7B030000 		.4byte	.LASF318
 4810 13dc 01       		.byte	0x1
 4811 13dd D901     		.2byte	0x1d9
 4812 13df F9140000 		.4byte	0x14f9
ARM GAS  C:\Users\JENNEW~1\AppData\Local\Temp\ccBYNzIK.s 			page 95


 4813 13e3 03       		.uleb128 0x3
 4814 13e4 91       		.byte	0x91
 4815 13e5 947F     		.sleb128 -108
 4816 13e7 23       		.uleb128 0x23
 4817 13e8 630A0000 		.4byte	.LASF319
 4818 13ec 01       		.byte	0x1
 4819 13ed DA01     		.2byte	0x1da
 4820 13ef F9140000 		.4byte	0x14f9
 4821 13f3 03       		.uleb128 0x3
 4822 13f4 91       		.byte	0x91
 4823 13f5 907F     		.sleb128 -112
 4824 13f7 23       		.uleb128 0x23
 4825 13f8 A80E0000 		.4byte	.LASF320
 4826 13fc 01       		.byte	0x1
 4827 13fd DB01     		.2byte	0x1db
 4828 13ff D7010000 		.4byte	0x1d7
 4829 1403 03       		.uleb128 0x3
 4830 1404 91       		.byte	0x91
 4831 1405 8C7F     		.sleb128 -116
 4832 1407 22       		.uleb128 0x22
 4833 1408 6F757400 		.ascii	"out\000"
 4834 140c 01       		.byte	0x1
 4835 140d DC01     		.2byte	0x1dc
 4836 140f 04150000 		.4byte	0x1504
 4837 1413 03       		.uleb128 0x3
 4838 1414 91       		.byte	0x91
 4839 1415 887F     		.sleb128 -120
 4840 1417 23       		.uleb128 0x23
 4841 1418 5D100000 		.4byte	.LASF321
 4842 141c 01       		.byte	0x1
 4843 141d DD01     		.2byte	0x1dd
 4844 141f 34130000 		.4byte	0x1334
 4845 1423 02       		.uleb128 0x2
 4846 1424 91       		.byte	0x91
 4847 1425 00       		.sleb128 0
 4848 1426 24       		.uleb128 0x24
 4849 1427 61020000 		.4byte	.LASF322
 4850 142b 01       		.byte	0x1
 4851 142c E301     		.2byte	0x1e3
 4852 142e 0A150000 		.4byte	0x150a
 4853 1432 05       		.uleb128 0x5
 4854 1433 03       		.byte	0x3
 4855 1434 00000000 		.4byte	DEG2RAD.6259
 4856 1438 24       		.uleb128 0x24
 4857 1439 A0050000 		.4byte	.LASF323
 4858 143d 01       		.byte	0x1
 4859 143e E401     		.2byte	0x1e4
 4860 1440 0A150000 		.4byte	0x150a
 4861 1444 05       		.uleb128 0x5
 4862 1445 03       		.byte	0x3
 4863 1446 08000000 		.4byte	R_EARTH.6260
 4864 144a 24       		.uleb128 0x24
 4865 144b B4040000 		.4byte	.LASF324
 4866 144f 01       		.byte	0x1
 4867 1450 E601     		.2byte	0x1e6
 4868 1452 580E0000 		.4byte	0xe58
 4869 1456 02       		.uleb128 0x2
ARM GAS  C:\Users\JENNEW~1\AppData\Local\Temp\ccBYNzIK.s 			page 96


 4870 1457 91       		.byte	0x91
 4871 1458 58       		.sleb128 -40
 4872 1459 24       		.uleb128 0x24
 4873 145a 570B0000 		.4byte	.LASF325
 4874 145e 01       		.byte	0x1
 4875 145f E701     		.2byte	0x1e7
 4876 1461 580E0000 		.4byte	0xe58
 4877 1465 02       		.uleb128 0x2
 4878 1466 91       		.byte	0x91
 4879 1467 50       		.sleb128 -48
 4880 1468 24       		.uleb128 0x24
 4881 1469 2D040000 		.4byte	.LASF326
 4882 146d 01       		.byte	0x1
 4883 146e E801     		.2byte	0x1e8
 4884 1470 580E0000 		.4byte	0xe58
 4885 1474 02       		.uleb128 0x2
 4886 1475 91       		.byte	0x91
 4887 1476 48       		.sleb128 -56
 4888 1477 25       		.uleb128 0x25
 4889 1478 4500     		.ascii	"E\000"
 4890 147a 01       		.byte	0x1
 4891 147b EB01     		.2byte	0x1eb
 4892 147d 580E0000 		.4byte	0xe58
 4893 1481 02       		.uleb128 0x2
 4894 1482 91       		.byte	0x91
 4895 1483 40       		.sleb128 -64
 4896 1484 25       		.uleb128 0x25
 4897 1485 4E00     		.ascii	"N\000"
 4898 1487 01       		.byte	0x1
 4899 1488 EC01     		.2byte	0x1ec
 4900 148a 580E0000 		.4byte	0xe58
 4901 148e 03       		.uleb128 0x3
 4902 148f 91       		.byte	0x91
 4903 1490 B87F     		.sleb128 -72
 4904 1492 25       		.uleb128 0x25
 4905 1493 5500     		.ascii	"U\000"
 4906 1495 01       		.byte	0x1
 4907 1496 ED01     		.2byte	0x1ed
 4908 1498 580E0000 		.4byte	0xe58
 4909 149c 03       		.uleb128 0x3
 4910 149d 91       		.byte	0x91
 4911 149e B07F     		.sleb128 -80
 4912 14a0 25       		.uleb128 0x25
 4913 14a1 64326400 		.ascii	"d2d\000"
 4914 14a5 01       		.byte	0x1
 4915 14a6 F001     		.2byte	0x1f0
 4916 14a8 580E0000 		.4byte	0xe58
 4917 14ac 03       		.uleb128 0x3
 4918 14ad 91       		.byte	0x91
 4919 14ae A87F     		.sleb128 -88
 4920 14b0 24       		.uleb128 0x24
 4921 14b1 4B000000 		.4byte	.LASF327
 4922 14b5 01       		.byte	0x1
 4923 14b6 F601     		.2byte	0x1f6
 4924 14b8 580E0000 		.4byte	0xe58
 4925 14bc 03       		.uleb128 0x3
 4926 14bd 91       		.byte	0x91
ARM GAS  C:\Users\JENNEW~1\AppData\Local\Temp\ccBYNzIK.s 			page 97


 4927 14be A07F     		.sleb128 -96
 4928 14c0 24       		.uleb128 0x24
 4929 14c1 1C100000 		.4byte	.LASF328
 4930 14c5 01       		.byte	0x1
 4931 14c6 F701     		.2byte	0x1f7
 4932 14c8 580E0000 		.4byte	0xe58
 4933 14cc 02       		.uleb128 0x2
 4934 14cd 91       		.byte	0x91
 4935 14ce 68       		.sleb128 -24
 4936 14cf 24       		.uleb128 0x24
 4937 14d0 84030000 		.4byte	.LASF329
 4938 14d4 01       		.byte	0x1
 4939 14d5 FB01     		.2byte	0x1fb
 4940 14d7 580E0000 		.4byte	0xe58
 4941 14db 03       		.uleb128 0x3
 4942 14dc 91       		.byte	0x91
 4943 14dd 987F     		.sleb128 -104
 4944 14df 1F       		.uleb128 0x1f
 4945 14e0 20020000 		.4byte	.LBB4
 4946 14e4 D8000000 		.4byte	.LBE4-.LBB4
 4947 14e8 24       		.uleb128 0x24
 4948 14e9 DF0C0000 		.4byte	.LASF330
 4949 14ed 01       		.byte	0x1
 4950 14ee 0402     		.2byte	0x204
 4951 14f0 580E0000 		.4byte	0xe58
 4952 14f4 02       		.uleb128 0x2
 4953 14f5 91       		.byte	0x91
 4954 14f6 60       		.sleb128 -32
 4955 14f7 00       		.byte	0
 4956 14f8 00       		.byte	0
 4957 14f9 0B       		.uleb128 0xb
 4958 14fa 04       		.byte	0x4
 4959 14fb FF140000 		.4byte	0x14ff
 4960 14ff 17       		.uleb128 0x17
 4961 1500 16020000 		.4byte	0x216
 4962 1504 0B       		.uleb128 0xb
 4963 1505 04       		.byte	0x4
 4964 1506 4E020000 		.4byte	0x24e
 4965 150a 17       		.uleb128 0x17
 4966 150b 580E0000 		.4byte	0xe58
 4967 150f 29       		.uleb128 0x29
 4968 1510 440C0000 		.4byte	.LASF331
 4969 1514 09       		.byte	0x9
 4970 1515 A0       		.byte	0xa0
 4971 1516 B20A0000 		.4byte	0xab2
 4972 151a 29       		.uleb128 0x29
 4973 151b 6A0A0000 		.4byte	.LASF332
 4974 151f 09       		.byte	0x9
 4975 1520 A9       		.byte	0xa9
 4976 1521 06010000 		.4byte	0x106
 4977 1525 11       		.uleb128 0x11
 4978 1526 060E0000 		.4byte	0xe06
 4979 152a 35150000 		.4byte	0x1535
 4980 152e 12       		.uleb128 0x12
 4981 152f 21060000 		.4byte	0x621
 4982 1533 00       		.byte	0
 4983 1534 00       		.byte	0
ARM GAS  C:\Users\JENNEW~1\AppData\Local\Temp\ccBYNzIK.s 			page 98


 4984 1535 29       		.uleb128 0x29
 4985 1536 400E0000 		.4byte	.LASF333
 4986 153a 0A       		.byte	0xa
 4987 153b A5       		.byte	0xa5
 4988 153c 25150000 		.4byte	0x1525
 4989 1540 11       		.uleb128 0x11
 4990 1541 4D0E0000 		.4byte	0xe4d
 4991 1545 50150000 		.4byte	0x1550
 4992 1549 12       		.uleb128 0x12
 4993 154a 21060000 		.4byte	0x621
 4994 154e 00       		.byte	0
 4995 154f 00       		.byte	0
 4996 1550 29       		.uleb128 0x29
 4997 1551 5B130000 		.4byte	.LASF334
 4998 1555 0A       		.byte	0xa
 4999 1556 A7       		.byte	0xa7
 5000 1557 40150000 		.4byte	0x1540
 5001 155b 00       		.byte	0
 5002              		.section	.debug_abbrev,"",%progbits
 5003              	.Ldebug_abbrev0:
 5004 0000 01       		.uleb128 0x1
 5005 0001 11       		.uleb128 0x11
 5006 0002 01       		.byte	0x1
 5007 0003 25       		.uleb128 0x25
 5008 0004 0E       		.uleb128 0xe
 5009 0005 13       		.uleb128 0x13
 5010 0006 0B       		.uleb128 0xb
 5011 0007 03       		.uleb128 0x3
 5012 0008 0E       		.uleb128 0xe
 5013 0009 1B       		.uleb128 0x1b
 5014 000a 0E       		.uleb128 0xe
 5015 000b 55       		.uleb128 0x55
 5016 000c 17       		.uleb128 0x17
 5017 000d 11       		.uleb128 0x11
 5018 000e 01       		.uleb128 0x1
 5019 000f 10       		.uleb128 0x10
 5020 0010 17       		.uleb128 0x17
 5021 0011 00       		.byte	0
 5022 0012 00       		.byte	0
 5023 0013 02       		.uleb128 0x2
 5024 0014 24       		.uleb128 0x24
 5025 0015 00       		.byte	0
 5026 0016 0B       		.uleb128 0xb
 5027 0017 0B       		.uleb128 0xb
 5028 0018 3E       		.uleb128 0x3e
 5029 0019 0B       		.uleb128 0xb
 5030 001a 03       		.uleb128 0x3
 5031 001b 0E       		.uleb128 0xe
 5032 001c 00       		.byte	0
 5033 001d 00       		.byte	0
 5034 001e 03       		.uleb128 0x3
 5035 001f 16       		.uleb128 0x16
 5036 0020 00       		.byte	0
 5037 0021 03       		.uleb128 0x3
 5038 0022 0E       		.uleb128 0xe
 5039 0023 3A       		.uleb128 0x3a
 5040 0024 0B       		.uleb128 0xb
ARM GAS  C:\Users\JENNEW~1\AppData\Local\Temp\ccBYNzIK.s 			page 99


 5041 0025 3B       		.uleb128 0x3b
 5042 0026 0B       		.uleb128 0xb
 5043 0027 49       		.uleb128 0x49
 5044 0028 13       		.uleb128 0x13
 5045 0029 00       		.byte	0
 5046 002a 00       		.byte	0
 5047 002b 04       		.uleb128 0x4
 5048 002c 24       		.uleb128 0x24
 5049 002d 00       		.byte	0
 5050 002e 0B       		.uleb128 0xb
 5051 002f 0B       		.uleb128 0xb
 5052 0030 3E       		.uleb128 0x3e
 5053 0031 0B       		.uleb128 0xb
 5054 0032 03       		.uleb128 0x3
 5055 0033 08       		.uleb128 0x8
 5056 0034 00       		.byte	0
 5057 0035 00       		.byte	0
 5058 0036 05       		.uleb128 0x5
 5059 0037 13       		.uleb128 0x13
 5060 0038 01       		.byte	0x1
 5061 0039 0B       		.uleb128 0xb
 5062 003a 0B       		.uleb128 0xb
 5063 003b 3A       		.uleb128 0x3a
 5064 003c 0B       		.uleb128 0xb
 5065 003d 3B       		.uleb128 0x3b
 5066 003e 0B       		.uleb128 0xb
 5067 003f 01       		.uleb128 0x1
 5068 0040 13       		.uleb128 0x13
 5069 0041 00       		.byte	0
 5070 0042 00       		.byte	0
 5071 0043 06       		.uleb128 0x6
 5072 0044 0D       		.uleb128 0xd
 5073 0045 00       		.byte	0
 5074 0046 03       		.uleb128 0x3
 5075 0047 08       		.uleb128 0x8
 5076 0048 3A       		.uleb128 0x3a
 5077 0049 0B       		.uleb128 0xb
 5078 004a 3B       		.uleb128 0x3b
 5079 004b 0B       		.uleb128 0xb
 5080 004c 49       		.uleb128 0x49
 5081 004d 13       		.uleb128 0x13
 5082 004e 38       		.uleb128 0x38
 5083 004f 0B       		.uleb128 0xb
 5084 0050 00       		.byte	0
 5085 0051 00       		.byte	0
 5086 0052 07       		.uleb128 0x7
 5087 0053 0D       		.uleb128 0xd
 5088 0054 00       		.byte	0
 5089 0055 03       		.uleb128 0x3
 5090 0056 0E       		.uleb128 0xe
 5091 0057 3A       		.uleb128 0x3a
 5092 0058 0B       		.uleb128 0xb
 5093 0059 3B       		.uleb128 0x3b
 5094 005a 0B       		.uleb128 0xb
 5095 005b 49       		.uleb128 0x49
 5096 005c 13       		.uleb128 0x13
 5097 005d 38       		.uleb128 0x38
ARM GAS  C:\Users\JENNEW~1\AppData\Local\Temp\ccBYNzIK.s 			page 100


 5098 005e 0B       		.uleb128 0xb
 5099 005f 00       		.byte	0
 5100 0060 00       		.byte	0
 5101 0061 08       		.uleb128 0x8
 5102 0062 0F       		.uleb128 0xf
 5103 0063 00       		.byte	0
 5104 0064 0B       		.uleb128 0xb
 5105 0065 0B       		.uleb128 0xb
 5106 0066 00       		.byte	0
 5107 0067 00       		.byte	0
 5108 0068 09       		.uleb128 0x9
 5109 0069 15       		.uleb128 0x15
 5110 006a 01       		.byte	0x1
 5111 006b 27       		.uleb128 0x27
 5112 006c 19       		.uleb128 0x19
 5113 006d 01       		.uleb128 0x1
 5114 006e 13       		.uleb128 0x13
 5115 006f 00       		.byte	0
 5116 0070 00       		.byte	0
 5117 0071 0A       		.uleb128 0xa
 5118 0072 05       		.uleb128 0x5
 5119 0073 00       		.byte	0
 5120 0074 49       		.uleb128 0x49
 5121 0075 13       		.uleb128 0x13
 5122 0076 00       		.byte	0
 5123 0077 00       		.byte	0
 5124 0078 0B       		.uleb128 0xb
 5125 0079 0F       		.uleb128 0xf
 5126 007a 00       		.byte	0
 5127 007b 0B       		.uleb128 0xb
 5128 007c 0B       		.uleb128 0xb
 5129 007d 49       		.uleb128 0x49
 5130 007e 13       		.uleb128 0x13
 5131 007f 00       		.byte	0
 5132 0080 00       		.byte	0
 5133 0081 0C       		.uleb128 0xc
 5134 0082 15       		.uleb128 0x15
 5135 0083 01       		.byte	0x1
 5136 0084 27       		.uleb128 0x27
 5137 0085 19       		.uleb128 0x19
 5138 0086 49       		.uleb128 0x49
 5139 0087 13       		.uleb128 0x13
 5140 0088 01       		.uleb128 0x1
 5141 0089 13       		.uleb128 0x13
 5142 008a 00       		.byte	0
 5143 008b 00       		.byte	0
 5144 008c 0D       		.uleb128 0xd
 5145 008d 04       		.uleb128 0x4
 5146 008e 01       		.byte	0x1
 5147 008f 0B       		.uleb128 0xb
 5148 0090 0B       		.uleb128 0xb
 5149 0091 49       		.uleb128 0x49
 5150 0092 13       		.uleb128 0x13
 5151 0093 3A       		.uleb128 0x3a
 5152 0094 0B       		.uleb128 0xb
 5153 0095 3B       		.uleb128 0x3b
 5154 0096 0B       		.uleb128 0xb
ARM GAS  C:\Users\JENNEW~1\AppData\Local\Temp\ccBYNzIK.s 			page 101


 5155 0097 01       		.uleb128 0x1
 5156 0098 13       		.uleb128 0x13
 5157 0099 00       		.byte	0
 5158 009a 00       		.byte	0
 5159 009b 0E       		.uleb128 0xe
 5160 009c 28       		.uleb128 0x28
 5161 009d 00       		.byte	0
 5162 009e 03       		.uleb128 0x3
 5163 009f 0E       		.uleb128 0xe
 5164 00a0 1C       		.uleb128 0x1c
 5165 00a1 0B       		.uleb128 0xb
 5166 00a2 00       		.byte	0
 5167 00a3 00       		.byte	0
 5168 00a4 0F       		.uleb128 0xf
 5169 00a5 13       		.uleb128 0x13
 5170 00a6 01       		.byte	0x1
 5171 00a7 0B       		.uleb128 0xb
 5172 00a8 05       		.uleb128 0x5
 5173 00a9 3A       		.uleb128 0x3a
 5174 00aa 0B       		.uleb128 0xb
 5175 00ab 3B       		.uleb128 0x3b
 5176 00ac 0B       		.uleb128 0xb
 5177 00ad 01       		.uleb128 0x1
 5178 00ae 13       		.uleb128 0x13
 5179 00af 00       		.byte	0
 5180 00b0 00       		.byte	0
 5181 00b1 10       		.uleb128 0x10
 5182 00b2 0D       		.uleb128 0xd
 5183 00b3 00       		.byte	0
 5184 00b4 03       		.uleb128 0x3
 5185 00b5 0E       		.uleb128 0xe
 5186 00b6 3A       		.uleb128 0x3a
 5187 00b7 0B       		.uleb128 0xb
 5188 00b8 3B       		.uleb128 0x3b
 5189 00b9 0B       		.uleb128 0xb
 5190 00ba 49       		.uleb128 0x49
 5191 00bb 13       		.uleb128 0x13
 5192 00bc 38       		.uleb128 0x38
 5193 00bd 05       		.uleb128 0x5
 5194 00be 00       		.byte	0
 5195 00bf 00       		.byte	0
 5196 00c0 11       		.uleb128 0x11
 5197 00c1 01       		.uleb128 0x1
 5198 00c2 01       		.byte	0x1
 5199 00c3 49       		.uleb128 0x49
 5200 00c4 13       		.uleb128 0x13
 5201 00c5 01       		.uleb128 0x1
 5202 00c6 13       		.uleb128 0x13
 5203 00c7 00       		.byte	0
 5204 00c8 00       		.byte	0
 5205 00c9 12       		.uleb128 0x12
 5206 00ca 21       		.uleb128 0x21
 5207 00cb 00       		.byte	0
 5208 00cc 49       		.uleb128 0x49
 5209 00cd 13       		.uleb128 0x13
 5210 00ce 2F       		.uleb128 0x2f
 5211 00cf 0B       		.uleb128 0xb
ARM GAS  C:\Users\JENNEW~1\AppData\Local\Temp\ccBYNzIK.s 			page 102


 5212 00d0 00       		.byte	0
 5213 00d1 00       		.byte	0
 5214 00d2 13       		.uleb128 0x13
 5215 00d3 35       		.uleb128 0x35
 5216 00d4 00       		.byte	0
 5217 00d5 49       		.uleb128 0x49
 5218 00d6 13       		.uleb128 0x13
 5219 00d7 00       		.byte	0
 5220 00d8 00       		.byte	0
 5221 00d9 14       		.uleb128 0x14
 5222 00da 15       		.uleb128 0x15
 5223 00db 00       		.byte	0
 5224 00dc 27       		.uleb128 0x27
 5225 00dd 19       		.uleb128 0x19
 5226 00de 00       		.byte	0
 5227 00df 00       		.byte	0
 5228 00e0 15       		.uleb128 0x15
 5229 00e1 2E       		.uleb128 0x2e
 5230 00e2 01       		.byte	0x1
 5231 00e3 03       		.uleb128 0x3
 5232 00e4 0E       		.uleb128 0xe
 5233 00e5 3A       		.uleb128 0x3a
 5234 00e6 0B       		.uleb128 0xb
 5235 00e7 3B       		.uleb128 0x3b
 5236 00e8 0B       		.uleb128 0xb
 5237 00e9 27       		.uleb128 0x27
 5238 00ea 19       		.uleb128 0x19
 5239 00eb 11       		.uleb128 0x11
 5240 00ec 01       		.uleb128 0x1
 5241 00ed 12       		.uleb128 0x12
 5242 00ee 06       		.uleb128 0x6
 5243 00ef 40       		.uleb128 0x40
 5244 00f0 18       		.uleb128 0x18
 5245 00f1 9742     		.uleb128 0x2117
 5246 00f3 19       		.uleb128 0x19
 5247 00f4 01       		.uleb128 0x1
 5248 00f5 13       		.uleb128 0x13
 5249 00f6 00       		.byte	0
 5250 00f7 00       		.byte	0
 5251 00f8 16       		.uleb128 0x16
 5252 00f9 05       		.uleb128 0x5
 5253 00fa 00       		.byte	0
 5254 00fb 03       		.uleb128 0x3
 5255 00fc 08       		.uleb128 0x8
 5256 00fd 3A       		.uleb128 0x3a
 5257 00fe 0B       		.uleb128 0xb
 5258 00ff 3B       		.uleb128 0x3b
 5259 0100 0B       		.uleb128 0xb
 5260 0101 49       		.uleb128 0x49
 5261 0102 13       		.uleb128 0x13
 5262 0103 02       		.uleb128 0x2
 5263 0104 18       		.uleb128 0x18
 5264 0105 00       		.byte	0
 5265 0106 00       		.byte	0
 5266 0107 17       		.uleb128 0x17
 5267 0108 26       		.uleb128 0x26
 5268 0109 00       		.byte	0
ARM GAS  C:\Users\JENNEW~1\AppData\Local\Temp\ccBYNzIK.s 			page 103


 5269 010a 49       		.uleb128 0x49
 5270 010b 13       		.uleb128 0x13
 5271 010c 00       		.byte	0
 5272 010d 00       		.byte	0
 5273 010e 18       		.uleb128 0x18
 5274 010f 2E       		.uleb128 0x2e
 5275 0110 01       		.byte	0x1
 5276 0111 03       		.uleb128 0x3
 5277 0112 0E       		.uleb128 0xe
 5278 0113 3A       		.uleb128 0x3a
 5279 0114 0B       		.uleb128 0xb
 5280 0115 3B       		.uleb128 0x3b
 5281 0116 0B       		.uleb128 0xb
 5282 0117 27       		.uleb128 0x27
 5283 0118 19       		.uleb128 0x19
 5284 0119 11       		.uleb128 0x11
 5285 011a 01       		.uleb128 0x1
 5286 011b 12       		.uleb128 0x12
 5287 011c 06       		.uleb128 0x6
 5288 011d 40       		.uleb128 0x40
 5289 011e 18       		.uleb128 0x18
 5290 011f 9642     		.uleb128 0x2116
 5291 0121 19       		.uleb128 0x19
 5292 0122 01       		.uleb128 0x1
 5293 0123 13       		.uleb128 0x13
 5294 0124 00       		.byte	0
 5295 0125 00       		.byte	0
 5296 0126 19       		.uleb128 0x19
 5297 0127 2E       		.uleb128 0x2e
 5298 0128 01       		.byte	0x1
 5299 0129 03       		.uleb128 0x3
 5300 012a 0E       		.uleb128 0xe
 5301 012b 3A       		.uleb128 0x3a
 5302 012c 0B       		.uleb128 0xb
 5303 012d 3B       		.uleb128 0x3b
 5304 012e 0B       		.uleb128 0xb
 5305 012f 27       		.uleb128 0x27
 5306 0130 19       		.uleb128 0x19
 5307 0131 49       		.uleb128 0x49
 5308 0132 13       		.uleb128 0x13
 5309 0133 11       		.uleb128 0x11
 5310 0134 01       		.uleb128 0x1
 5311 0135 12       		.uleb128 0x12
 5312 0136 06       		.uleb128 0x6
 5313 0137 40       		.uleb128 0x40
 5314 0138 18       		.uleb128 0x18
 5315 0139 9642     		.uleb128 0x2116
 5316 013b 19       		.uleb128 0x19
 5317 013c 01       		.uleb128 0x1
 5318 013d 13       		.uleb128 0x13
 5319 013e 00       		.byte	0
 5320 013f 00       		.byte	0
 5321 0140 1A       		.uleb128 0x1a
 5322 0141 34       		.uleb128 0x34
 5323 0142 00       		.byte	0
 5324 0143 03       		.uleb128 0x3
 5325 0144 0E       		.uleb128 0xe
ARM GAS  C:\Users\JENNEW~1\AppData\Local\Temp\ccBYNzIK.s 			page 104


 5326 0145 3A       		.uleb128 0x3a
 5327 0146 0B       		.uleb128 0xb
 5328 0147 3B       		.uleb128 0x3b
 5329 0148 0B       		.uleb128 0xb
 5330 0149 49       		.uleb128 0x49
 5331 014a 13       		.uleb128 0x13
 5332 014b 02       		.uleb128 0x2
 5333 014c 18       		.uleb128 0x18
 5334 014d 00       		.byte	0
 5335 014e 00       		.byte	0
 5336 014f 1B       		.uleb128 0x1b
 5337 0150 2E       		.uleb128 0x2e
 5338 0151 01       		.byte	0x1
 5339 0152 3F       		.uleb128 0x3f
 5340 0153 19       		.uleb128 0x19
 5341 0154 03       		.uleb128 0x3
 5342 0155 0E       		.uleb128 0xe
 5343 0156 3A       		.uleb128 0x3a
 5344 0157 0B       		.uleb128 0xb
 5345 0158 3B       		.uleb128 0x3b
 5346 0159 0B       		.uleb128 0xb
 5347 015a 27       		.uleb128 0x27
 5348 015b 19       		.uleb128 0x19
 5349 015c 11       		.uleb128 0x11
 5350 015d 01       		.uleb128 0x1
 5351 015e 12       		.uleb128 0x12
 5352 015f 06       		.uleb128 0x6
 5353 0160 40       		.uleb128 0x40
 5354 0161 18       		.uleb128 0x18
 5355 0162 9642     		.uleb128 0x2116
 5356 0164 19       		.uleb128 0x19
 5357 0165 01       		.uleb128 0x1
 5358 0166 13       		.uleb128 0x13
 5359 0167 00       		.byte	0
 5360 0168 00       		.byte	0
 5361 0169 1C       		.uleb128 0x1c
 5362 016a 2E       		.uleb128 0x2e
 5363 016b 01       		.byte	0x1
 5364 016c 3F       		.uleb128 0x3f
 5365 016d 19       		.uleb128 0x19
 5366 016e 03       		.uleb128 0x3
 5367 016f 0E       		.uleb128 0xe
 5368 0170 3A       		.uleb128 0x3a
 5369 0171 0B       		.uleb128 0xb
 5370 0172 3B       		.uleb128 0x3b
 5371 0173 0B       		.uleb128 0xb
 5372 0174 27       		.uleb128 0x27
 5373 0175 19       		.uleb128 0x19
 5374 0176 11       		.uleb128 0x11
 5375 0177 01       		.uleb128 0x1
 5376 0178 12       		.uleb128 0x12
 5377 0179 06       		.uleb128 0x6
 5378 017a 40       		.uleb128 0x40
 5379 017b 18       		.uleb128 0x18
 5380 017c 9742     		.uleb128 0x2117
 5381 017e 19       		.uleb128 0x19
 5382 017f 01       		.uleb128 0x1
ARM GAS  C:\Users\JENNEW~1\AppData\Local\Temp\ccBYNzIK.s 			page 105


 5383 0180 13       		.uleb128 0x13
 5384 0181 00       		.byte	0
 5385 0182 00       		.byte	0
 5386 0183 1D       		.uleb128 0x1d
 5387 0184 05       		.uleb128 0x5
 5388 0185 00       		.byte	0
 5389 0186 03       		.uleb128 0x3
 5390 0187 0E       		.uleb128 0xe
 5391 0188 3A       		.uleb128 0x3a
 5392 0189 0B       		.uleb128 0xb
 5393 018a 3B       		.uleb128 0x3b
 5394 018b 0B       		.uleb128 0xb
 5395 018c 49       		.uleb128 0x49
 5396 018d 13       		.uleb128 0x13
 5397 018e 02       		.uleb128 0x2
 5398 018f 18       		.uleb128 0x18
 5399 0190 00       		.byte	0
 5400 0191 00       		.byte	0
 5401 0192 1E       		.uleb128 0x1e
 5402 0193 34       		.uleb128 0x34
 5403 0194 00       		.byte	0
 5404 0195 03       		.uleb128 0x3
 5405 0196 08       		.uleb128 0x8
 5406 0197 3A       		.uleb128 0x3a
 5407 0198 0B       		.uleb128 0xb
 5408 0199 3B       		.uleb128 0x3b
 5409 019a 0B       		.uleb128 0xb
 5410 019b 49       		.uleb128 0x49
 5411 019c 13       		.uleb128 0x13
 5412 019d 02       		.uleb128 0x2
 5413 019e 18       		.uleb128 0x18
 5414 019f 00       		.byte	0
 5415 01a0 00       		.byte	0
 5416 01a1 1F       		.uleb128 0x1f
 5417 01a2 0B       		.uleb128 0xb
 5418 01a3 01       		.byte	0x1
 5419 01a4 11       		.uleb128 0x11
 5420 01a5 01       		.uleb128 0x1
 5421 01a6 12       		.uleb128 0x12
 5422 01a7 06       		.uleb128 0x6
 5423 01a8 00       		.byte	0
 5424 01a9 00       		.byte	0
 5425 01aa 20       		.uleb128 0x20
 5426 01ab 2E       		.uleb128 0x2e
 5427 01ac 01       		.byte	0x1
 5428 01ad 3F       		.uleb128 0x3f
 5429 01ae 19       		.uleb128 0x19
 5430 01af 03       		.uleb128 0x3
 5431 01b0 0E       		.uleb128 0xe
 5432 01b1 3A       		.uleb128 0x3a
 5433 01b2 0B       		.uleb128 0xb
 5434 01b3 3B       		.uleb128 0x3b
 5435 01b4 0B       		.uleb128 0xb
 5436 01b5 27       		.uleb128 0x27
 5437 01b6 19       		.uleb128 0x19
 5438 01b7 49       		.uleb128 0x49
 5439 01b8 13       		.uleb128 0x13
ARM GAS  C:\Users\JENNEW~1\AppData\Local\Temp\ccBYNzIK.s 			page 106


 5440 01b9 11       		.uleb128 0x11
 5441 01ba 01       		.uleb128 0x1
 5442 01bb 12       		.uleb128 0x12
 5443 01bc 06       		.uleb128 0x6
 5444 01bd 40       		.uleb128 0x40
 5445 01be 18       		.uleb128 0x18
 5446 01bf 9642     		.uleb128 0x2116
 5447 01c1 19       		.uleb128 0x19
 5448 01c2 01       		.uleb128 0x1
 5449 01c3 13       		.uleb128 0x13
 5450 01c4 00       		.byte	0
 5451 01c5 00       		.byte	0
 5452 01c6 21       		.uleb128 0x21
 5453 01c7 2E       		.uleb128 0x2e
 5454 01c8 01       		.byte	0x1
 5455 01c9 3F       		.uleb128 0x3f
 5456 01ca 19       		.uleb128 0x19
 5457 01cb 03       		.uleb128 0x3
 5458 01cc 0E       		.uleb128 0xe
 5459 01cd 3A       		.uleb128 0x3a
 5460 01ce 0B       		.uleb128 0xb
 5461 01cf 3B       		.uleb128 0x3b
 5462 01d0 05       		.uleb128 0x5
 5463 01d1 27       		.uleb128 0x27
 5464 01d2 19       		.uleb128 0x19
 5465 01d3 49       		.uleb128 0x49
 5466 01d4 13       		.uleb128 0x13
 5467 01d5 11       		.uleb128 0x11
 5468 01d6 01       		.uleb128 0x1
 5469 01d7 12       		.uleb128 0x12
 5470 01d8 06       		.uleb128 0x6
 5471 01d9 40       		.uleb128 0x40
 5472 01da 18       		.uleb128 0x18
 5473 01db 9642     		.uleb128 0x2116
 5474 01dd 19       		.uleb128 0x19
 5475 01de 01       		.uleb128 0x1
 5476 01df 13       		.uleb128 0x13
 5477 01e0 00       		.byte	0
 5478 01e1 00       		.byte	0
 5479 01e2 22       		.uleb128 0x22
 5480 01e3 05       		.uleb128 0x5
 5481 01e4 00       		.byte	0
 5482 01e5 03       		.uleb128 0x3
 5483 01e6 08       		.uleb128 0x8
 5484 01e7 3A       		.uleb128 0x3a
 5485 01e8 0B       		.uleb128 0xb
 5486 01e9 3B       		.uleb128 0x3b
 5487 01ea 05       		.uleb128 0x5
 5488 01eb 49       		.uleb128 0x49
 5489 01ec 13       		.uleb128 0x13
 5490 01ed 02       		.uleb128 0x2
 5491 01ee 18       		.uleb128 0x18
 5492 01ef 00       		.byte	0
 5493 01f0 00       		.byte	0
 5494 01f1 23       		.uleb128 0x23
 5495 01f2 05       		.uleb128 0x5
 5496 01f3 00       		.byte	0
ARM GAS  C:\Users\JENNEW~1\AppData\Local\Temp\ccBYNzIK.s 			page 107


 5497 01f4 03       		.uleb128 0x3
 5498 01f5 0E       		.uleb128 0xe
 5499 01f6 3A       		.uleb128 0x3a
 5500 01f7 0B       		.uleb128 0xb
 5501 01f8 3B       		.uleb128 0x3b
 5502 01f9 05       		.uleb128 0x5
 5503 01fa 49       		.uleb128 0x49
 5504 01fb 13       		.uleb128 0x13
 5505 01fc 02       		.uleb128 0x2
 5506 01fd 18       		.uleb128 0x18
 5507 01fe 00       		.byte	0
 5508 01ff 00       		.byte	0
 5509 0200 24       		.uleb128 0x24
 5510 0201 34       		.uleb128 0x34
 5511 0202 00       		.byte	0
 5512 0203 03       		.uleb128 0x3
 5513 0204 0E       		.uleb128 0xe
 5514 0205 3A       		.uleb128 0x3a
 5515 0206 0B       		.uleb128 0xb
 5516 0207 3B       		.uleb128 0x3b
 5517 0208 05       		.uleb128 0x5
 5518 0209 49       		.uleb128 0x49
 5519 020a 13       		.uleb128 0x13
 5520 020b 02       		.uleb128 0x2
 5521 020c 18       		.uleb128 0x18
 5522 020d 00       		.byte	0
 5523 020e 00       		.byte	0
 5524 020f 25       		.uleb128 0x25
 5525 0210 34       		.uleb128 0x34
 5526 0211 00       		.byte	0
 5527 0212 03       		.uleb128 0x3
 5528 0213 08       		.uleb128 0x8
 5529 0214 3A       		.uleb128 0x3a
 5530 0215 0B       		.uleb128 0xb
 5531 0216 3B       		.uleb128 0x3b
 5532 0217 05       		.uleb128 0x5
 5533 0218 49       		.uleb128 0x49
 5534 0219 13       		.uleb128 0x13
 5535 021a 02       		.uleb128 0x2
 5536 021b 18       		.uleb128 0x18
 5537 021c 00       		.byte	0
 5538 021d 00       		.byte	0
 5539 021e 26       		.uleb128 0x26
 5540 021f 2E       		.uleb128 0x2e
 5541 0220 01       		.byte	0x1
 5542 0221 3F       		.uleb128 0x3f
 5543 0222 19       		.uleb128 0x19
 5544 0223 03       		.uleb128 0x3
 5545 0224 0E       		.uleb128 0xe
 5546 0225 3A       		.uleb128 0x3a
 5547 0226 0B       		.uleb128 0xb
 5548 0227 3B       		.uleb128 0x3b
 5549 0228 05       		.uleb128 0x5
 5550 0229 27       		.uleb128 0x27
 5551 022a 19       		.uleb128 0x19
 5552 022b 11       		.uleb128 0x11
 5553 022c 01       		.uleb128 0x1
ARM GAS  C:\Users\JENNEW~1\AppData\Local\Temp\ccBYNzIK.s 			page 108


 5554 022d 12       		.uleb128 0x12
 5555 022e 06       		.uleb128 0x6
 5556 022f 40       		.uleb128 0x40
 5557 0230 18       		.uleb128 0x18
 5558 0231 9642     		.uleb128 0x2116
 5559 0233 19       		.uleb128 0x19
 5560 0234 01       		.uleb128 0x1
 5561 0235 13       		.uleb128 0x13
 5562 0236 00       		.byte	0
 5563 0237 00       		.byte	0
 5564 0238 27       		.uleb128 0x27
 5565 0239 2E       		.uleb128 0x2e
 5566 023a 01       		.byte	0x1
 5567 023b 3F       		.uleb128 0x3f
 5568 023c 19       		.uleb128 0x19
 5569 023d 03       		.uleb128 0x3
 5570 023e 0E       		.uleb128 0xe
 5571 023f 3A       		.uleb128 0x3a
 5572 0240 0B       		.uleb128 0xb
 5573 0241 3B       		.uleb128 0x3b
 5574 0242 05       		.uleb128 0x5
 5575 0243 27       		.uleb128 0x27
 5576 0244 19       		.uleb128 0x19
 5577 0245 11       		.uleb128 0x11
 5578 0246 01       		.uleb128 0x1
 5579 0247 12       		.uleb128 0x12
 5580 0248 06       		.uleb128 0x6
 5581 0249 40       		.uleb128 0x40
 5582 024a 18       		.uleb128 0x18
 5583 024b 9742     		.uleb128 0x2117
 5584 024d 19       		.uleb128 0x19
 5585 024e 01       		.uleb128 0x1
 5586 024f 13       		.uleb128 0x13
 5587 0250 00       		.byte	0
 5588 0251 00       		.byte	0
 5589 0252 28       		.uleb128 0x28
 5590 0253 2E       		.uleb128 0x2e
 5591 0254 01       		.byte	0x1
 5592 0255 3F       		.uleb128 0x3f
 5593 0256 19       		.uleb128 0x19
 5594 0257 03       		.uleb128 0x3
 5595 0258 0E       		.uleb128 0xe
 5596 0259 3A       		.uleb128 0x3a
 5597 025a 0B       		.uleb128 0xb
 5598 025b 3B       		.uleb128 0x3b
 5599 025c 05       		.uleb128 0x5
 5600 025d 27       		.uleb128 0x27
 5601 025e 19       		.uleb128 0x19
 5602 025f 49       		.uleb128 0x49
 5603 0260 13       		.uleb128 0x13
 5604 0261 11       		.uleb128 0x11
 5605 0262 01       		.uleb128 0x1
 5606 0263 12       		.uleb128 0x12
 5607 0264 06       		.uleb128 0x6
 5608 0265 40       		.uleb128 0x40
 5609 0266 18       		.uleb128 0x18
 5610 0267 9742     		.uleb128 0x2117
ARM GAS  C:\Users\JENNEW~1\AppData\Local\Temp\ccBYNzIK.s 			page 109


 5611 0269 19       		.uleb128 0x19
 5612 026a 01       		.uleb128 0x1
 5613 026b 13       		.uleb128 0x13
 5614 026c 00       		.byte	0
 5615 026d 00       		.byte	0
 5616 026e 29       		.uleb128 0x29
 5617 026f 34       		.uleb128 0x34
 5618 0270 00       		.byte	0
 5619 0271 03       		.uleb128 0x3
 5620 0272 0E       		.uleb128 0xe
 5621 0273 3A       		.uleb128 0x3a
 5622 0274 0B       		.uleb128 0xb
 5623 0275 3B       		.uleb128 0x3b
 5624 0276 0B       		.uleb128 0xb
 5625 0277 49       		.uleb128 0x49
 5626 0278 13       		.uleb128 0x13
 5627 0279 3F       		.uleb128 0x3f
 5628 027a 19       		.uleb128 0x19
 5629 027b 3C       		.uleb128 0x3c
 5630 027c 19       		.uleb128 0x19
 5631 027d 00       		.byte	0
 5632 027e 00       		.byte	0
 5633 027f 00       		.byte	0
 5634              		.section	.debug_aranges,"",%progbits
 5635 0000 BC000000 		.4byte	0xbc
 5636 0004 0200     		.2byte	0x2
 5637 0006 00000000 		.4byte	.Ldebug_info0
 5638 000a 04       		.byte	0x4
 5639 000b 00       		.byte	0
 5640 000c 0000     		.2byte	0
 5641 000e 0000     		.2byte	0
 5642 0010 00000000 		.4byte	.LFB0
 5643 0014 50000000 		.4byte	.LFE0-.LFB0
 5644 0018 00000000 		.4byte	.LFB1
 5645 001c 1A000000 		.4byte	.LFE1-.LFB1
 5646 0020 00000000 		.4byte	.LFB2
 5647 0024 44000000 		.4byte	.LFE2-.LFB2
 5648 0028 00000000 		.4byte	.LFB3
 5649 002c 5C000000 		.4byte	.LFE3-.LFB3
 5650 0030 00000000 		.4byte	.LFB4
 5651 0034 7E000000 		.4byte	.LFE4-.LFB4
 5652 0038 00000000 		.4byte	.LFB5
 5653 003c 28000000 		.4byte	.LFE5-.LFB5
 5654 0040 00000000 		.4byte	.LFB6
 5655 0044 3A000000 		.4byte	.LFE6-.LFB6
 5656 0048 00000000 		.4byte	.LFB7
 5657 004c 30000000 		.4byte	.LFE7-.LFB7
 5658 0050 00000000 		.4byte	.LFB8
 5659 0054 7C020000 		.4byte	.LFE8-.LFB8
 5660 0058 00000000 		.4byte	.LFB9
 5661 005c 7C000000 		.4byte	.LFE9-.LFB9
 5662 0060 00000000 		.4byte	.LFB10
 5663 0064 3A000000 		.4byte	.LFE10-.LFB10
 5664 0068 00000000 		.4byte	.LFB11
 5665 006c A8000000 		.4byte	.LFE11-.LFB11
 5666 0070 00000000 		.4byte	.LFB12
 5667 0074 08010000 		.4byte	.LFE12-.LFB12
ARM GAS  C:\Users\JENNEW~1\AppData\Local\Temp\ccBYNzIK.s 			page 110


 5668 0078 00000000 		.4byte	.LFB13
 5669 007c E4010000 		.4byte	.LFE13-.LFB13
 5670 0080 00000000 		.4byte	.LFB14
 5671 0084 30000000 		.4byte	.LFE14-.LFB14
 5672 0088 00000000 		.4byte	.LFB15
 5673 008c 46000000 		.4byte	.LFE15-.LFB15
 5674 0090 00000000 		.4byte	.LFB16
 5675 0094 34000000 		.4byte	.LFE16-.LFB16
 5676 0098 00000000 		.4byte	.LFB17
 5677 009c 2A000000 		.4byte	.LFE17-.LFB17
 5678 00a0 00000000 		.4byte	.LFB18
 5679 00a4 1E000000 		.4byte	.LFE18-.LFB18
 5680 00a8 00000000 		.4byte	.LFB19
 5681 00ac 14000000 		.4byte	.LFE19-.LFB19
 5682 00b0 00000000 		.4byte	.LFB20
 5683 00b4 08030000 		.4byte	.LFE20-.LFB20
 5684 00b8 00000000 		.4byte	0
 5685 00bc 00000000 		.4byte	0
 5686              		.section	.debug_ranges,"",%progbits
 5687              	.Ldebug_ranges0:
 5688 0000 00000000 		.4byte	.LFB0
 5689 0004 50000000 		.4byte	.LFE0
 5690 0008 00000000 		.4byte	.LFB1
 5691 000c 1A000000 		.4byte	.LFE1
 5692 0010 00000000 		.4byte	.LFB2
 5693 0014 44000000 		.4byte	.LFE2
 5694 0018 00000000 		.4byte	.LFB3
 5695 001c 5C000000 		.4byte	.LFE3
 5696 0020 00000000 		.4byte	.LFB4
 5697 0024 7E000000 		.4byte	.LFE4
 5698 0028 00000000 		.4byte	.LFB5
 5699 002c 28000000 		.4byte	.LFE5
 5700 0030 00000000 		.4byte	.LFB6
 5701 0034 3A000000 		.4byte	.LFE6
 5702 0038 00000000 		.4byte	.LFB7
 5703 003c 30000000 		.4byte	.LFE7
 5704 0040 00000000 		.4byte	.LFB8
 5705 0044 7C020000 		.4byte	.LFE8
 5706 0048 00000000 		.4byte	.LFB9
 5707 004c 7C000000 		.4byte	.LFE9
 5708 0050 00000000 		.4byte	.LFB10
 5709 0054 3A000000 		.4byte	.LFE10
 5710 0058 00000000 		.4byte	.LFB11
 5711 005c A8000000 		.4byte	.LFE11
 5712 0060 00000000 		.4byte	.LFB12
 5713 0064 08010000 		.4byte	.LFE12
 5714 0068 00000000 		.4byte	.LFB13
 5715 006c E4010000 		.4byte	.LFE13
 5716 0070 00000000 		.4byte	.LFB14
 5717 0074 30000000 		.4byte	.LFE14
 5718 0078 00000000 		.4byte	.LFB15
 5719 007c 46000000 		.4byte	.LFE15
 5720 0080 00000000 		.4byte	.LFB16
 5721 0084 34000000 		.4byte	.LFE16
 5722 0088 00000000 		.4byte	.LFB17
 5723 008c 2A000000 		.4byte	.LFE17
 5724 0090 00000000 		.4byte	.LFB18
ARM GAS  C:\Users\JENNEW~1\AppData\Local\Temp\ccBYNzIK.s 			page 111


 5725 0094 1E000000 		.4byte	.LFE18
 5726 0098 00000000 		.4byte	.LFB19
 5727 009c 14000000 		.4byte	.LFE19
 5728 00a0 00000000 		.4byte	.LFB20
 5729 00a4 08030000 		.4byte	.LFE20
 5730 00a8 00000000 		.4byte	0
 5731 00ac 00000000 		.4byte	0
 5732              		.section	.debug_line,"",%progbits
 5733              	.Ldebug_line0:
 5734 0000 16050000 		.section	.debug_str,"MS",%progbits,1
 5734      0200DF01 
 5734      00000201 
 5734      FB0E0D00 
 5734      01010101 
 5735              	.LASF37:
 5736 0000 6C6F6E5F 		.ascii	"lon_e7\000"
 5736      653700
 5737              	.LASF117:
 5738 0007 68616D66 		.ascii	"hamfly_telemetry_t\000"
 5738      6C795F74 
 5738      656C656D 
 5738      65747279 
 5738      5F7400
 5739              	.LASF235:
 5740 001a 51585F50 		.ascii	"QX_PARSE_TYPE_WRITE_REL_SEND\000"
 5740      41525345 
 5740      5F545950 
 5740      455F5752 
 5740      4954455F 
 5741              	.LASF63:
 5742 0037 6770735F 		.ascii	"gps_raw_lat\000"
 5742      7261775F 
 5742      6C617400 
 5743              	.LASF270:
 5744 0043 52785374 		.ascii	"RxState\000"
 5744      61746500 
 5745              	.LASF327:
 5746 004b 617A5F72 		.ascii	"az_rad\000"
 5746      616400
 5747              	.LASF38:
 5748 0052 616C745F 		.ascii	"alt_baro_m\000"
 5748      6261726F 
 5748      5F6D00
 5749              	.LASF93:
 5750 005d 73797373 		.ascii	"sysstat_cpu_pct\000"
 5750      7461745F 
 5750      6370755F 
 5750      70637400 
 5751              	.LASF181:
 5752 006d 66697A5F 		.ascii	"fiz_clearFaults_all_flag\000"
 5752      636C6561 
 5752      72466175 
 5752      6C74735F 
 5752      616C6C5F 
 5753              	.LASF229:
 5754 0086 51585F4D 		.ascii	"QX_MSG_TYPE_WRITE_REL\000"
 5754      53475F54 
ARM GAS  C:\Users\JENNEW~1\AppData\Local\Temp\ccBYNzIK.s 			page 112


 5754      5950455F 
 5754      57524954 
 5754      455F5245 
 5755              	.LASF293:
 5756 009c 68616D66 		.ascii	"hamfly_pump\000"
 5756      6C795F70 
 5756      756D7000 
 5757              	.LASF215:
 5758 00a8 51585F52 		.ascii	"QX_RX_STATE_GET_QB_LEN0\000"
 5758      585F5354 
 5758      4154455F 
 5758      4745545F 
 5758      51425F4C 
 5759              	.LASF283:
 5760 00c0 6C6F6164 		.ascii	"load_freefly_control\000"
 5760      5F667265 
 5760      65666C79 
 5760      5F636F6E 
 5760      74726F6C 
 5761              	.LASF288:
 5762 00d5 68616D66 		.ascii	"hamfly_reset\000"
 5762      6C795F72 
 5762      65736574 
 5762      00
 5763              	.LASF204:
 5764 00e2 66665F61 		.ascii	"ff_api_status_t\000"
 5764      70695F73 
 5764      74617475 
 5764      735F7400 
 5765              	.LASF21:
 5766 00f2 68616D66 		.ascii	"hamfly_hal_t\000"
 5766      6C795F68 
 5766      616C5F74 
 5766      00
 5767              	.LASF208:
 5768 00ff 636F6E74 		.ascii	"control\000"
 5768      726F6C00 
 5769              	.LASF13:
 5770 0107 756E7369 		.ascii	"unsigned int\000"
 5770      676E6564 
 5770      20696E74 
 5770      00
 5771              	.LASF265:
 5772 0114 4D736742 		.ascii	"MsgBufStart_p\000"
 5772      75665374 
 5772      6172745F 
 5772      7000
 5773              	.LASF211:
 5774 0122 51585F52 		.ascii	"QX_RX_STATE_START_WAIT\000"
 5774      585F5354 
 5774      4154455F 
 5774      53544152 
 5774      545F5741 
 5775              	.LASF220:
 5776 0139 51585F44 		.ascii	"QX_DEV_ID_BROADCAST\000"
 5776      45565F49 
 5776      445F4252 
ARM GAS  C:\Users\JENNEW~1\AppData\Local\Temp\ccBYNzIK.s 			page 113


 5776      4F414443 
 5776      41535400 
 5777              	.LASF118:
 5778 014d 68656164 		.ascii	"head\000"
 5778      00
 5779              	.LASF7:
 5780 0152 5F5F696E 		.ascii	"__int32_t\000"
 5780      7433325F 
 5780      7400
 5781              	.LASF156:
 5782 015c 44454645 		.ascii	"DEFER\000"
 5782      5200
 5783              	.LASF311:
 5784 0162 68616D66 		.ascii	"hamfly_get_telemetry\000"
 5784      6C795F67 
 5784      65745F74 
 5784      656C656D 
 5784      65747279 
 5785              	.LASF182:
 5786 0177 66697A5F 		.ascii	"fiz_autoCalStart_all_flag\000"
 5786      6175746F 
 5786      43616C53 
 5786      74617274 
 5786      5F616C6C 
 5787              	.LASF40:
 5788 0191 617A696D 		.ascii	"azimuth_deg\000"
 5788      7574685F 
 5788      64656700 
 5789              	.LASF335:
 5790 019d 474E5520 		.ascii	"GNU C11 5.4.1 20160609 (release) [ARM/embedded-5-br"
 5790      43313120 
 5790      352E342E 
 5790      31203230 
 5790      31363036 
 5791 01d0 616E6368 		.ascii	"anch revision 237715] -mcpu=cortex-m3 -mthumb -g -O"
 5791      20726576 
 5791      6973696F 
 5791      6E203233 
 5791      37373135 
 5792 0203 30202D66 		.ascii	"0 -ffunction-sections -ffat-lto-objects\000"
 5792      66756E63 
 5792      74696F6E 
 5792      2D736563 
 5792      74696F6E 
 5793              	.LASF189:
 5794 022b 62617474 		.ascii	"battery_v_right\000"
 5794      6572795F 
 5794      765F7269 
 5794      67687400 
 5795              	.LASF172:
 5796 023b 4C656E73 		.ascii	"Lens_AxisState_Auto_Cal_SensingTorque\000"
 5796      5F417869 
 5796      73537461 
 5796      74655F41 
 5796      75746F5F 
 5797              	.LASF322:
 5798 0261 44454732 		.ascii	"DEG2RAD\000"
ARM GAS  C:\Users\JENNEW~1\AppData\Local\Temp\ccBYNzIK.s 			page 114


 5798      52414400 
 5799              	.LASF234:
 5800 0269 51585F50 		.ascii	"QX_PARSE_TYPE_WRITE_ABS_RECV\000"
 5800      41525345 
 5800      5F545950 
 5800      455F5752 
 5800      4954455F 
 5801              	.LASF184:
 5802 0286 66697A5F 		.ascii	"fiz_setSubRangeLim_F_flag\000"
 5802      73657453 
 5802      75625261 
 5802      6E67654C 
 5802      696D5F46 
 5803              	.LASF193:
 5804 02a0 69726973 		.ascii	"iris_position\000"
 5804      5F706F73 
 5804      6974696F 
 5804      6E00
 5805              	.LASF103:
 5806 02ae 6D61675F 		.ascii	"mag_x\000"
 5806      7800
 5807              	.LASF104:
 5808 02b4 6D61675F 		.ascii	"mag_y\000"
 5808      7900
 5809              	.LASF105:
 5810 02ba 6D61675F 		.ascii	"mag_z\000"
 5810      7A00
 5811              	.LASF45:
 5812 02c0 62617474 		.ascii	"battery_left_v\000"
 5812      6572795F 
 5812      6C656674 
 5812      5F7600
 5813              	.LASF20:
 5814 02cf 6765745F 		.ascii	"get_tick_ms\000"
 5814      7469636B 
 5814      5F6D7300 
 5815              	.LASF280:
 5816 02db 50617273 		.ascii	"Parser_CB\000"
 5816      65725F43 
 5816      4200
 5817              	.LASF33:
 5818 02e5 6B696C6C 		.ascii	"kill\000"
 5818      00
 5819              	.LASF43:
 5820 02ea 68616D66 		.ascii	"hamfly_pointing_t\000"
 5820      6C795F70 
 5820      6F696E74 
 5820      696E675F 
 5820      7400
 5821              	.LASF237:
 5822 02fc 51585F50 		.ascii	"QX_Parse_Type_e\000"
 5822      61727365 
 5822      5F547970 
 5822      655F6500 
 5823              	.LASF274:
 5824 030c 436F6E6E 		.ascii	"Connected\000"
 5824      65637465 
ARM GAS  C:\Users\JENNEW~1\AppData\Local\Temp\ccBYNzIK.s 			page 115


 5824      6400
 5825              	.LASF31:
 5826 0316 726F6C6C 		.ascii	"roll_mode\000"
 5826      5F6D6F64 
 5826      6500
 5827              	.LASF143:
 5828 0320 70656E64 		.ascii	"pending_attr\000"
 5828      696E675F 
 5828      61747472 
 5828      00
 5829              	.LASF239:
 5830 032d 7573655F 		.ascii	"use_CRC32\000"
 5830      43524333 
 5830      3200
 5831              	.LASF244:
 5832 0337 52657370 		.ascii	"RespReq_Addr\000"
 5832      5265715F 
 5832      41646472 
 5832      00
 5833              	.LASF86:
 5834 0344 666C6167 		.ascii	"flag_compass_error\000"
 5834      5F636F6D 
 5834      70617373 
 5834      5F657272 
 5834      6F7200
 5835              	.LASF107:
 5836 0357 6D61675F 		.ascii	"mag_freq\000"
 5836      66726571 
 5836      00
 5837              	.LASF188:
 5838 0360 62617474 		.ascii	"battery_v_left\000"
 5838      6572795F 
 5838      765F6C65 
 5838      667400
 5839              	.LASF23:
 5840 036f 48414D46 		.ascii	"HAMFLY_RATE\000"
 5840      4C595F52 
 5840      41544500 
 5841              	.LASF318:
 5842 037b 706C6174 		.ascii	"platform\000"
 5842      666F726D 
 5842      00
 5843              	.LASF329:
 5844 0384 656C5F64 		.ascii	"el_deg\000"
 5844      656700
 5845              	.LASF102:
 5846 038b 6D61675F 		.ascii	"mag_valid\000"
 5846      76616C69 
 5846      6400
 5847              	.LASF338:
 5848 0395 64726169 		.ascii	"drain_rb\000"
 5848      6E5F7262 
 5848      00
 5849              	.LASF77:
 5850 039e 6174745F 		.ascii	"att_yaw_deg\000"
 5850      7961775F 
 5850      64656700 
ARM GAS  C:\Users\JENNEW~1\AppData\Local\Temp\ccBYNzIK.s 			page 116


 5851              	.LASF115:
 5852 03aa 73797365 		.ascii	"sysecho_imu_rate\000"
 5852      63686F5F 
 5852      696D755F 
 5852      72617465 
 5852      00
 5853              	.LASF206:
 5854 03bb 73656E64 		.ascii	"send\000"
 5854      00
 5855              	.LASF307:
 5856 03c0 75736572 		.ascii	"user_txbuf\000"
 5856      5F747862 
 5856      756600
 5857              	.LASF212:
 5858 03cb 51585F52 		.ascii	"QX_RX_STATE_GET_PROTOCOL_VER\000"
 5858      585F5354 
 5858      4154455F 
 5858      4745545F 
 5858      50524F54 
 5859              	.LASF18:
 5860 03e8 75696E74 		.ascii	"uint32_t\000"
 5860      33325F74 
 5860      00
 5861              	.LASF58:
 5862 03f1 6770735F 		.ascii	"gps_ground_spd_ms\000"
 5862      67726F75 
 5862      6E645F73 
 5862      70645F6D 
 5862      7300
 5863              	.LASF136:
 5864 0403 75617274 		.ascii	"uart_err_flags\000"
 5864      5F657272 
 5864      5F666C61 
 5864      677300
 5865              	.LASF246:
 5866 0412 4D73674C 		.ascii	"MsgLength\000"
 5866      656E6774 
 5866      6800
 5867              	.LASF19:
 5868 041c 75617274 		.ascii	"uart_putc\000"
 5868      5F707574 
 5868      6300
 5869              	.LASF262:
 5870 0426 48656164 		.ascii	"Header\000"
 5870      657200
 5871              	.LASF326:
 5872 042d 644C6F6E 		.ascii	"dLon_deg\000"
 5872      5F646567 
 5872      00
 5873              	.LASF127:
 5874 0436 48414D46 		.ascii	"HAMFLY_ERR_NO_GPS\000"
 5874      4C595F45 
 5874      52525F4E 
 5874      4F5F4750 
 5874      5300
 5875              	.LASF34:
 5876 0448 666C6F61 		.ascii	"float\000"
ARM GAS  C:\Users\JENNEW~1\AppData\Local\Temp\ccBYNzIK.s 			page 117


 5876      7400
 5877              	.LASF225:
 5878 044e 51585F44 		.ascii	"QX_DevId_e\000"
 5878      65764964 
 5878      5F6500
 5879              	.LASF291:
 5880 0459 68616D66 		.ascii	"hamfly_on_uart_err_flags\000"
 5880      6C795F6F 
 5880      6E5F7561 
 5880      72745F65 
 5880      72725F66 
 5881              	.LASF230:
 5882 0472 51585F4D 		.ascii	"QX_Msg_Type_e\000"
 5882      73675F54 
 5882      7970655F 
 5882      6500
 5883              	.LASF292:
 5884 0480 6572725F 		.ascii	"err_mask\000"
 5884      6D61736B 
 5884      00
 5885              	.LASF41:
 5886 0489 656C6576 		.ascii	"elevation_deg\000"
 5886      6174696F 
 5886      6E5F6465 
 5886      6700
 5887              	.LASF255:
 5888 0497 50617273 		.ascii	"Parse_Type\000"
 5888      655F5479 
 5888      706500
 5889              	.LASF27:
 5890 04a2 74696C74 		.ascii	"tilt\000"
 5890      00
 5891              	.LASF15:
 5892 04a7 696E7431 		.ascii	"int16_t\000"
 5892      365F7400 
 5893              	.LASF157:
 5894 04af 52415445 		.ascii	"RATE\000"
 5894      00
 5895              	.LASF324:
 5896 04b4 6C617430 		.ascii	"lat0_rad\000"
 5896      5F726164 
 5896      00
 5897              	.LASF200:
 5898 04bd 69726973 		.ascii	"iris_range_limits_active\000"
 5898      5F72616E 
 5898      67655F6C 
 5898      696D6974 
 5898      735F6163 
 5899              	.LASF12:
 5900 04d6 6C6F6E67 		.ascii	"long long unsigned int\000"
 5900      206C6F6E 
 5900      6720756E 
 5900      7369676E 
 5900      65642069 
 5901              	.LASF138:
 5902 04ed 74656C65 		.ascii	"telemetry\000"
 5902      6D657472 
ARM GAS  C:\Users\JENNEW~1\AppData\Local\Temp\ccBYNzIK.s 			page 118


 5902      7900
 5903              	.LASF73:
 5904 04f7 6261726F 		.ascii	"baro_roc_ms\000"
 5904      5F726F63 
 5904      5F6D7300 
 5905              	.LASF70:
 5906 0503 6770735F 		.ascii	"gps_raw_sacc\000"
 5906      7261775F 
 5906      73616363 
 5906      00
 5907              	.LASF232:
 5908 0510 51585F50 		.ascii	"QX_PARSE_TYPE_CURVAL_RECV\000"
 5908      41525345 
 5908      5F545950 
 5908      455F4355 
 5908      5256414C 
 5909              	.LASF101:
 5910 052a 73797373 		.ascii	"sysstat_charge_mah\000"
 5910      7461745F 
 5910      63686172 
 5910      67655F6D 
 5910      616800
 5911              	.LASF186:
 5912 053d 66697A5F 		.ascii	"fiz_setSubRangeLim_Z_flag\000"
 5912      73657453 
 5912      75625261 
 5912      6E67654C 
 5912      696D5F5A 
 5913              	.LASF180:
 5914 0557 7A6F6F6D 		.ascii	"zoom\000"
 5914      00
 5915              	.LASF196:
 5916 055c 69726970 		.ascii	"iripi_rx_state\000"
 5916      695F7278 
 5916      5F737461 
 5916      746500
 5917              	.LASF5:
 5918 056b 5F5F7569 		.ascii	"__uint16_t\000"
 5918      6E743136 
 5918      5F7400
 5919              	.LASF202:
 5920 0576 63616D65 		.ascii	"camera_status\000"
 5920      72615F73 
 5920      74617475 
 5920      7300
 5921              	.LASF264:
 5922 0584 4D736742 		.ascii	"MsgBuf_MsgLen\000"
 5922      75665F4D 
 5922      73674C65 
 5922      6E00
 5923              	.LASF85:
 5924 0592 73797373 		.ascii	"sysstat_valid\000"
 5924      7461745F 
 5924      76616C69 
 5924      6400
 5925              	.LASF323:
 5926 05a0 525F4541 		.ascii	"R_EARTH\000"
ARM GAS  C:\Users\JENNEW~1\AppData\Local\Temp\ccBYNzIK.s 			page 119


 5926      52544800 
 5927              	.LASF88:
 5928 05a8 666C6167 		.ascii	"flag_radio_los\000"
 5928      5F726164 
 5928      696F5F6C 
 5928      6F7300
 5929              	.LASF75:
 5930 05b7 6174745F 		.ascii	"att_timestamp_ms\000"
 5930      74696D65 
 5930      7374616D 
 5930      705F6D73 
 5930      00
 5931              	.LASF32:
 5932 05c8 656E6162 		.ascii	"enable\000"
 5932      6C6500
 5933              	.LASF219:
 5934 05cf 51585F52 		.ascii	"QX_Rx_State_e\000"
 5934      785F5374 
 5934      6174655F 
 5934      6500
 5935              	.LASF271:
 5936 05dd 5278436E 		.ascii	"RxCntr\000"
 5936      747200
 5937              	.LASF141:
 5938 05e4 74786275 		.ascii	"txbuf\000"
 5938      6600
 5939              	.LASF98:
 5940 05ea 73797373 		.ascii	"sysstat_cam_status\000"
 5940      7461745F 
 5940      63616D5F 
 5940      73746174 
 5940      757300
 5941              	.LASF250:
 5942 05fd 41646443 		.ascii	"AddCRC32\000"
 5942      52433332 
 5942      00
 5943              	.LASF203:
 5944 0606 63616D65 		.ascii	"camera_recording\000"
 5944      72615F72 
 5944      65636F72 
 5944      64696E67 
 5944      00
 5945              	.LASF94:
 5946 0617 73797373 		.ascii	"sysstat_status_flags\000"
 5946      7461745F 
 5946      73746174 
 5946      75735F66 
 5946      6C616773 
 5947              	.LASF112:
 5948 062c 73797365 		.ascii	"sysecho_valid\000"
 5948      63686F5F 
 5948      76616C69 
 5948      6400
 5949              	.LASF29:
 5950 063a 70616E5F 		.ascii	"pan_mode\000"
 5950      6D6F6465 
 5950      00
ARM GAS  C:\Users\JENNEW~1\AppData\Local\Temp\ccBYNzIK.s 			page 120


 5951              	.LASF171:
 5952 0643 4C656E73 		.ascii	"Lens_AxisState_Man_Cal_Set_Min\000"
 5952      5F417869 
 5952      73537461 
 5952      74655F4D 
 5952      616E5F43 
 5953              	.LASF76:
 5954 0662 6174745F 		.ascii	"att_pitch_deg\000"
 5954      70697463 
 5954      685F6465 
 5954      6700
 5955              	.LASF169:
 5956 0670 4C656E73 		.ascii	"Lens_AxisState_Uncalibrated\000"
 5956      5F417869 
 5956      73537461 
 5956      74655F55 
 5956      6E63616C 
 5957              	.LASF289:
 5958 068c 68616D66 		.ascii	"hamfly_clear_statistics\000"
 5958      6C795F63 
 5958      6C656172 
 5958      5F737461 
 5958      74697374 
 5959              	.LASF309:
 5960 06a4 74785F6C 		.ascii	"tx_len_out\000"
 5960      656E5F6F 
 5960      757400
 5961              	.LASF300:
 5962 06af 736E6170 		.ascii	"snap_len\000"
 5962      5F6C656E 
 5962      00
 5963              	.LASF116:
 5964 06b8 5F426F6F 		.ascii	"_Bool\000"
 5964      6C00
 5965              	.LASF36:
 5966 06be 6C61745F 		.ascii	"lat_e7\000"
 5966      653700
 5967              	.LASF125:
 5968 06c5 48414D46 		.ascii	"HAMFLY_ERR_ENCODE\000"
 5968      4C595F45 
 5968      52525F45 
 5968      4E434F44 
 5968      4500
 5969              	.LASF26:
 5970 06d7 68616D66 		.ascii	"hamfly_control_mode_t\000"
 5970      6C795F63 
 5970      6F6E7472 
 5970      6F6C5F6D 
 5970      6F64655F 
 5971              	.LASF132:
 5972 06ed 72785F70 		.ascii	"rx_packets\000"
 5972      61636B65 
 5972      747300
 5973              	.LASF56:
 5974 06f8 6770735F 		.ascii	"gps_lon_deg\000"
 5974      6C6F6E5F 
 5974      64656700 
ARM GAS  C:\Users\JENNEW~1\AppData\Local\Temp\ccBYNzIK.s 			page 121


 5975              	.LASF84:
 5976 0704 6174745F 		.ascii	"att_yaw_err_deg\000"
 5976      7961775F 
 5976      6572725F 
 5976      64656700 
 5977              	.LASF120:
 5978 0714 64726F70 		.ascii	"drops\000"
 5978      7300
 5979              	.LASF179:
 5980 071a 69726973 		.ascii	"iris\000"
 5980      00
 5981              	.LASF254:
 5982 071f 51585F4D 		.ascii	"QX_MsgHeader_t\000"
 5982      73674865 
 5982      61646572 
 5982      5F7400
 5983              	.LASF65:
 5984 072e 6770735F 		.ascii	"gps_raw_alt\000"
 5984      7261775F 
 5984      616C7400 
 5985              	.LASF139:
 5986 073a 73746174 		.ascii	"statistics\000"
 5986      69737469 
 5986      637300
 5987              	.LASF60:
 5988 0745 6770735F 		.ascii	"gps_hacc_m\000"
 5988      68616363 
 5988      5F6D00
 5989              	.LASF30:
 5990 0750 74696C74 		.ascii	"tilt_mode\000"
 5990      5F6D6F64 
 5990      6500
 5991              	.LASF201:
 5992 075a 7A6F6F6D 		.ascii	"zoom_range_limits_active\000"
 5992      5F72616E 
 5992      67655F6C 
 5992      696D6974 
 5992      735F6163 
 5993              	.LASF277:
 5994 0773 6C617374 		.ascii	"last_rx_msg_time\000"
 5994      5F72785F 
 5994      6D73675F 
 5994      74696D65 
 5994      00
 5995              	.LASF149:
 5996 0784 70656E64 		.ascii	"pending_payload_len\000"
 5996      696E675F 
 5996      7061796C 
 5996      6F61645F 
 5996      6C656E00 
 5997              	.LASF216:
 5998 0798 51585F52 		.ascii	"QX_RX_STATE_GET_QB_LEN1\000"
 5998      585F5354 
 5998      4154455F 
 5998      4745545F 
 5998      51425F4C 
 5999              	.LASF259:
ARM GAS  C:\Users\JENNEW~1\AppData\Local\Temp\ccBYNzIK.s 			page 122


 6000 07b0 4174744E 		.ascii	"AttNotHandled\000"
 6000      6F744861 
 6000      6E646C65 
 6000      6400
 6001              	.LASF256:
 6002 07be 44697361 		.ascii	"DisableStdResponse\000"
 6002      626C6553 
 6002      74645265 
 6002      73706F6E 
 6002      736500
 6003              	.LASF285:
 6004 07d1 62797465 		.ascii	"byte\000"
 6004      00
 6005              	.LASF233:
 6006 07d6 51585F50 		.ascii	"QX_PARSE_TYPE_WRITE_ABS_SEND\000"
 6006      41525345 
 6006      5F545950 
 6006      455F5752 
 6006      4954455F 
 6007              	.LASF243:
 6008 07f3 5472616E 		.ascii	"TransReq_Addr\000"
 6008      73526571 
 6008      5F416464 
 6008      7200
 6009              	.LASF152:
 6010 0801 63686172 		.ascii	"char\000"
 6010      00
 6011              	.LASF14:
 6012 0806 75696E74 		.ascii	"uint8_t\000"
 6012      385F7400 
 6013              	.LASF263:
 6014 080e 4D736742 		.ascii	"MsgBuf\000"
 6014      756600
 6015              	.LASF42:
 6016 0815 64697374 		.ascii	"distance_m\000"
 6016      616E6365 
 6016      5F6D00
 6017              	.LASF284:
 6018 0820 636F7079 		.ascii	"copy_qx287_to_telemetry\000"
 6018      5F717832 
 6018      38375F74 
 6018      6F5F7465 
 6018      6C656D65 
 6019              	.LASF97:
 6020 0838 73797373 		.ascii	"sysstat_imu_rate\000"
 6020      7461745F 
 6020      696D755F 
 6020      72617465 
 6020      00
 6021              	.LASF48:
 6022 0849 67696D62 		.ascii	"gimbal_i\000"
 6022      616C5F69 
 6022      00
 6023              	.LASF49:
 6024 0852 67696D62 		.ascii	"gimbal_j\000"
 6024      616C5F6A 
 6024      00
ARM GAS  C:\Users\JENNEW~1\AppData\Local\Temp\ccBYNzIK.s 			page 123


 6025              	.LASF50:
 6026 085b 67696D62 		.ascii	"gimbal_k\000"
 6026      616C5F6B 
 6026      00
 6027              	.LASF261:
 6028 0864 436F6D6D 		.ascii	"CommPort\000"
 6028      506F7274 
 6028      00
 6029              	.LASF224:
 6030 086d 51585F44 		.ascii	"QX_DEV_ID_MOVI_API_CONTROLLER\000"
 6030      45565F49 
 6030      445F4D4F 
 6030      56495F41 
 6030      50495F43 
 6031              	.LASF91:
 6032 088b 73797373 		.ascii	"sysstat_gps_sats\000"
 6032      7461745F 
 6032      6770735F 
 6032      73617473 
 6032      00
 6033              	.LASF47:
 6034 089c 67696D62 		.ascii	"gimbal_r\000"
 6034      616C5F72 
 6034      00
 6035              	.LASF251:
 6036 08a5 46465F45 		.ascii	"FF_Ext_R0\000"
 6036      78745F52 
 6036      3000
 6037              	.LASF252:
 6038 08af 46465F45 		.ascii	"FF_Ext_R1\000"
 6038      78745F52 
 6038      3100
 6039              	.LASF28:
 6040 08b9 726F6C6C 		.ascii	"roll\000"
 6040      00
 6041              	.LASF286:
 6042 08be 73656E74 		.ascii	"sent\000"
 6042      00
 6043              	.LASF336:
 6044 08c3 2E2E5C2E 		.ascii	"..\\..\\..\\HamFlyAPI\\src\\hamfly_core_gimbal.c\000"
 6044      2E5C2E2E 
 6044      5C48616D 
 6044      466C7941 
 6044      50495C73 
 6045              	.LASF209:
 6046 08ef 73746174 		.ascii	"status\000"
 6046      757300
 6047              	.LASF134:
 6048 08f6 72785F62 		.ascii	"rx_bad_checksum\000"
 6048      61645F63 
 6048      6865636B 
 6048      73756D00 
 6049              	.LASF183:
 6050 0906 66697A5F 		.ascii	"fiz_record_button_flag\000"
 6050      7265636F 
 6050      72645F62 
 6050      7574746F 
ARM GAS  C:\Users\JENNEW~1\AppData\Local\Temp\ccBYNzIK.s 			page 124


 6050      6E5F666C 
 6051              	.LASF228:
 6052 091d 51585F4D 		.ascii	"QX_MSG_TYPE_WRITE_ABS\000"
 6052      53475F54 
 6052      5950455F 
 6052      57524954 
 6052      455F4142 
 6053              	.LASF174:
 6054 0933 4C656E73 		.ascii	"Lens_AxisState_Auto_Cal_Set_Min\000"
 6054      5F417869 
 6054      73537461 
 6054      74655F41 
 6054      75746F5F 
 6055              	.LASF248:
 6056 0953 54797065 		.ascii	"Type\000"
 6056      00
 6057              	.LASF122:
 6058 0958 68616D66 		.ascii	"hamfly_rb_t\000"
 6058      6C795F72 
 6058      625F7400 
 6059              	.LASF155:
 6060 0964 51585F43 		.ascii	"QX_Comms_Port_e\000"
 6060      6F6D6D73 
 6060      5F506F72 
 6060      745F6500 
 6061              	.LASF108:
 6062 0974 6D61675F 		.ascii	"mag_off_x\000"
 6062      6F66665F 
 6062      7800
 6063              	.LASF109:
 6064 097e 6D61675F 		.ascii	"mag_off_y\000"
 6064      6F66665F 
 6064      7900
 6065              	.LASF110:
 6066 0988 6D61675F 		.ascii	"mag_off_z\000"
 6066      6F66665F 
 6066      7A00
 6067              	.LASF62:
 6068 0992 6770735F 		.ascii	"gps_sacc_ms\000"
 6068      73616363 
 6068      5F6D7300 
 6069              	.LASF11:
 6070 099e 6C6F6E67 		.ascii	"long long int\000"
 6070      206C6F6E 
 6070      6720696E 
 6070      7400
 6071              	.LASF54:
 6072 09ac 6770735F 		.ascii	"gps_locked\000"
 6072      6C6F636B 
 6072      656400
 6073              	.LASF145:
 6074 09b7 70656E64 		.ascii	"pending_ready\000"
 6074      696E675F 
 6074      72656164 
 6074      7900
 6075              	.LASF44:
 6076 09c5 76616C69 		.ascii	"valid\000"
ARM GAS  C:\Users\JENNEW~1\AppData\Local\Temp\ccBYNzIK.s 			page 125


 6076      6400
 6077              	.LASF131:
 6078 09cb 74785F62 		.ascii	"tx_bytes\000"
 6078      79746573 
 6078      00
 6079              	.LASF227:
 6080 09d4 51585F4D 		.ascii	"QX_MSG_TYPE_READ\000"
 6080      53475F54 
 6080      5950455F 
 6080      52454144 
 6080      00
 6081              	.LASF176:
 6082 09e5 67696D62 		.ascii	"gimbal_kill\000"
 6082      616C5F6B 
 6082      696C6C00 
 6083              	.LASF167:
 6084 09f1 4C656E73 		.ascii	"Lens_AxisState_Move_to_Command\000"
 6084      5F417869 
 6084      73537461 
 6084      74655F4D 
 6084      6F76655F 
 6085              	.LASF160:
 6086 0a10 66665F61 		.ascii	"ff_api_control_type_e\000"
 6086      70695F63 
 6086      6F6E7472 
 6086      6F6C5F74 
 6086      7970655F 
 6087              	.LASF290:
 6088 0a26 68616D66 		.ascii	"hamfly_on_rx_byte\000"
 6088      6C795F6F 
 6088      6E5F7278 
 6088      5F627974 
 6088      6500
 6089              	.LASF218:
 6090 0a38 51585F52 		.ascii	"QX_RX_STATE_GET_CHKSUM\000"
 6090      585F5354 
 6090      4154455F 
 6090      4745545F 
 6090      43484B53 
 6091              	.LASF3:
 6092 0a4f 5F5F696E 		.ascii	"__int16_t\000"
 6092      7431365F 
 6092      7400
 6093              	.LASF53:
 6094 0a59 6770735F 		.ascii	"gps_valid\000"
 6094      76616C69 
 6094      6400
 6095              	.LASF319:
 6096 0a63 74617267 		.ascii	"target\000"
 6096      657400
 6097              	.LASF332:
 6098 0a6a 71785F61 		.ascii	"qx_active_gimbal_ptr\000"
 6098      63746976 
 6098      655F6769 
 6098      6D62616C 
 6098      5F707472 
 6099              	.LASF113:
ARM GAS  C:\Users\JENNEW~1\AppData\Local\Temp\ccBYNzIK.s 			page 126


 6100 0a7f 73797365 		.ascii	"sysecho_gps_locked\000"
 6100      63686F5F 
 6100      6770735F 
 6100      6C6F636B 
 6100      656400
 6101              	.LASF165:
 6102 0a92 4C656E73 		.ascii	"Lens_AxisState_Reset\000"
 6102      5F417869 
 6102      73537461 
 6102      74655F52 
 6102      65736574 
 6103              	.LASF166:
 6104 0aa7 4C656E73 		.ascii	"Lens_AxisState_Faulted\000"
 6104      5F417869 
 6104      73537461 
 6104      74655F46 
 6104      61756C74 
 6105              	.LASF123:
 6106 0abe 48414D46 		.ascii	"HAMFLY_OK\000"
 6106      4C595F4F 
 6106      4B00
 6107              	.LASF317:
 6108 0ac8 68616D66 		.ascii	"hamfly_calc_gps_pointing\000"
 6108      6C795F63 
 6108      616C635F 
 6108      6770735F 
 6108      706F696E 
 6109              	.LASF87:
 6110 0ae1 666C6167 		.ascii	"flag_gps_los\000"
 6110      5F677073 
 6110      5F6C6F73 
 6110      00
 6111              	.LASF217:
 6112 0aee 51585F52 		.ascii	"QX_RX_STATE_GET_DATA\000"
 6112      585F5354 
 6112      4154455F 
 6112      4745545F 
 6112      44415441 
 6113              	.LASF231:
 6114 0b03 51585F50 		.ascii	"QX_PARSE_TYPE_CURVAL_SEND\000"
 6114      41525345 
 6114      5F545950 
 6114      455F4355 
 6114      5256414C 
 6115              	.LASF257:
 6116 0b1d 52756E6E 		.ascii	"RunningChecksum\000"
 6116      696E6743 
 6116      6865636B 
 6116      73756D00 
 6117              	.LASF197:
 6118 0b2d 7A6F6F6D 		.ascii	"zoom_state\000"
 6118      5F737461 
 6118      746500
 6119              	.LASF24:
 6120 0b38 48414D46 		.ascii	"HAMFLY_ABSOLUTE\000"
 6120      4C595F41 
 6120      42534F4C 
ARM GAS  C:\Users\JENNEW~1\AppData\Local\Temp\ccBYNzIK.s 			page 127


 6120      55544500 
 6121              	.LASF92:
 6122 0b48 73797373 		.ascii	"sysstat_temp_c\000"
 6122      7461745F 
 6122      74656D70 
 6122      5F6300
 6123              	.LASF325:
 6124 0b57 644C6174 		.ascii	"dLat_deg\000"
 6124      5F646567 
 6124      00
 6125              	.LASF308:
 6126 0b60 75736572 		.ascii	"user_txbuf_max\000"
 6126      5F747862 
 6126      75665F6D 
 6126      617800
 6127              	.LASF67:
 6128 0b6f 6770735F 		.ascii	"gps_raw_hdg\000"
 6128      7261775F 
 6128      68646700 
 6129              	.LASF226:
 6130 0b7b 51585F4D 		.ascii	"QX_MSG_TYPE_CURVAL\000"
 6130      53475F54 
 6130      5950455F 
 6130      43555256 
 6130      414C00
 6131              	.LASF144:
 6132 0b8e 70656E64 		.ascii	"pending_sent_ms\000"
 6132      696E675F 
 6132      73656E74 
 6132      5F6D7300 
 6133              	.LASF146:
 6134 0b9e 70656E64 		.ascii	"pending_response_attr\000"
 6134      696E675F 
 6134      72657370 
 6134      6F6E7365 
 6134      5F617474 
 6135              	.LASF306:
 6136 0bb4 68616D66 		.ascii	"hamfly_request_attr_capture\000"
 6136      6C795F72 
 6136      65717565 
 6136      73745F61 
 6136      7474725F 
 6137              	.LASF301:
 6138 0bd0 68616D66 		.ascii	"hamfly_kill\000"
 6138      6C795F6B 
 6138      696C6C00 
 6139              	.LASF59:
 6140 0bdc 6770735F 		.ascii	"gps_heading_deg\000"
 6140      68656164 
 6140      696E675F 
 6140      64656700 
 6141              	.LASF151:
 6142 0bec 6C6F6E67 		.ascii	"long double\000"
 6142      20646F75 
 6142      626C6500 
 6143              	.LASF260:
 6144 0bf8 4C656761 		.ascii	"Legacy_Header\000"
ARM GAS  C:\Users\JENNEW~1\AppData\Local\Temp\ccBYNzIK.s 			page 128


 6144      63795F48 
 6144      65616465 
 6144      7200
 6145              	.LASF16:
 6146 0c06 75696E74 		.ascii	"uint16_t\000"
 6146      31365F74 
 6146      00
 6147              	.LASF111:
 6148 0c0f 6D61675F 		.ascii	"mag_declination\000"
 6148      6465636C 
 6148      696E6174 
 6148      696F6E00 
 6149              	.LASF238:
 6150 0c1f 46465F45 		.ascii	"FF_Ext\000"
 6150      787400
 6151              	.LASF51:
 6152 0c26 67696D62 		.ascii	"gimbal_status1\000"
 6152      616C5F73 
 6152      74617475 
 6152      733100
 6153              	.LASF52:
 6154 0c35 67696D62 		.ascii	"gimbal_status2\000"
 6154      616C5F73 
 6154      74617475 
 6154      733200
 6155              	.LASF331:
 6156 0c44 46726565 		.ascii	"FreeflyAPI\000"
 6156      666C7941 
 6156      504900
 6157              	.LASF175:
 6158 0c4f 4C656E73 		.ascii	"Lens_Axipi_rx_state_General_e\000"
 6158      5F417869 
 6158      70695F72 
 6158      785F7374 
 6158      6174655F 
 6159              	.LASF129:
 6160 0c6d 68616D66 		.ascii	"hamfly_result_t\000"
 6160      6C795F72 
 6160      6573756C 
 6160      745F7400 
 6161              	.LASF242:
 6162 0c7d 54617267 		.ascii	"Target_Addr\000"
 6162      65745F41 
 6162      64647200 
 6163              	.LASF161:
 6164 0c89 76616C75 		.ascii	"value\000"
 6164      6500
 6165              	.LASF267:
 6166 0c8f 42756650 		.ascii	"BufPayloadStart_p\000"
 6166      61796C6F 
 6166      61645374 
 6166      6172745F 
 6166      7000
 6167              	.LASF210:
 6168 0ca1 66665F61 		.ascii	"ff_api_t\000"
 6168      70695F74 
 6168      00
ARM GAS  C:\Users\JENNEW~1\AppData\Local\Temp\ccBYNzIK.s 			page 129


 6169              	.LASF4:
 6170 0caa 73686F72 		.ascii	"short int\000"
 6170      7420696E 
 6170      7400
 6171              	.LASF39:
 6172 0cb4 68616D66 		.ascii	"hamfly_gps_coord_t\000"
 6172      6C795F67 
 6172      70735F63 
 6172      6F6F7264 
 6172      5F7400
 6173              	.LASF8:
 6174 0cc7 6C6F6E67 		.ascii	"long int\000"
 6174      20696E74 
 6174      00
 6175              	.LASF258:
 6176 0cd0 43524333 		.ascii	"CRC32_Checksum\000"
 6176      325F4368 
 6176      65636B73 
 6176      756D00
 6177              	.LASF330:
 6178 0cdf 70616E5F 		.ascii	"pan_cmd\000"
 6178      636D6400 
 6179              	.LASF247:
 6180 0ce7 41747472 		.ascii	"Attrib\000"
 6180      696200
 6181              	.LASF213:
 6182 0cee 51585F52 		.ascii	"QX_RX_STATE_GET_QX_LEN0\000"
 6182      585F5354 
 6182      4154455F 
 6182      4745545F 
 6182      51585F4C 
 6183              	.LASF214:
 6184 0d06 51585F52 		.ascii	"QX_RX_STATE_GET_QX_LEN1\000"
 6184      585F5354 
 6184      4154455F 
 6184      4745545F 
 6184      51585F4C 
 6185              	.LASF147:
 6186 0d1e 70656E64 		.ascii	"pending_response_len\000"
 6186      696E675F 
 6186      72657370 
 6186      6F6E7365 
 6186      5F6C656E 
 6187              	.LASF187:
 6188 0d33 66665F61 		.ascii	"ff_api_gimbal_and_fiz_control_t\000"
 6188      70695F67 
 6188      696D6261 
 6188      6C5F616E 
 6188      645F6669 
 6189              	.LASF287:
 6190 0d53 68616D66 		.ascii	"hamfly_init\000"
 6190      6C795F69 
 6190      6E697400 
 6191              	.LASF303:
 6192 0d5f 68616D66 		.ascii	"hamfly_request_attr\000"
 6192      6C795F72 
 6192      65717565 
ARM GAS  C:\Users\JENNEW~1\AppData\Local\Temp\ccBYNzIK.s 			page 130


 6192      73745F61 
 6192      74747200 
 6193              	.LASF66:
 6194 0d73 6770735F 		.ascii	"gps_raw_spd\000"
 6194      7261775F 
 6194      73706400 
 6195              	.LASF133:
 6196 0d7f 72785F62 		.ascii	"rx_bytes\000"
 6196      79746573 
 6196      00
 6197              	.LASF275:
 6198 0d88 43686B53 		.ascii	"ChkSumFail_cnt\000"
 6198      756D4661 
 6198      696C5F63 
 6198      6E7400
 6199              	.LASF57:
 6200 0d97 6770735F 		.ascii	"gps_alt_m\000"
 6200      616C745F 
 6200      6D00
 6201              	.LASF236:
 6202 0da1 51585F50 		.ascii	"QX_PARSE_TYPE_WRITE_REL_RECV\000"
 6202      41525345 
 6202      5F545950 
 6202      455F5752 
 6202      4954455F 
 6203              	.LASF312:
 6204 0dbe 68616D66 		.ascii	"hamfly_get_statistics\000"
 6204      6C795F67 
 6204      65745F73 
 6204      74617469 
 6204      73746963 
 6205              	.LASF195:
 6206 0dd4 666F6375 		.ascii	"focupi_rx_state\000"
 6206      70695F72 
 6206      785F7374 
 6206      61746500 
 6207              	.LASF305:
 6208 0de4 6F707473 		.ascii	"opts\000"
 6208      00
 6209              	.LASF294:
 6210 0de9 63686B66 		.ascii	"chkfail_before\000"
 6210      61696C5F 
 6210      6265666F 
 6210      726500
 6211              	.LASF298:
 6212 0df8 72786174 		.ascii	"rxattr\000"
 6212      747200
 6213              	.LASF148:
 6214 0dff 70656E64 		.ascii	"pending_payload\000"
 6214      696E675F 
 6214      7061796C 
 6214      6F616400 
 6215              	.LASF281:
 6216 0e0f 51585F43 		.ascii	"QX_Client_t\000"
 6216      6C69656E 
 6216      745F7400 
 6217              	.LASF55:
ARM GAS  C:\Users\JENNEW~1\AppData\Local\Temp\ccBYNzIK.s 			page 131


 6218 0e1b 6770735F 		.ascii	"gps_lat_deg\000"
 6218      6C61745F 
 6218      64656700 
 6219              	.LASF2:
 6220 0e27 5F5F7569 		.ascii	"__uint8_t\000"
 6220      6E74385F 
 6220      7400
 6221              	.LASF100:
 6222 0e31 73797373 		.ascii	"sysstat_batt_a\000"
 6222      7461745F 
 6222      62617474 
 6222      5F6100
 6223              	.LASF333:
 6224 0e40 51585F43 		.ascii	"QX_CommsPorts\000"
 6224      6F6D6D73 
 6224      506F7274 
 6224      7300
 6225              	.LASF46:
 6226 0e4e 62617474 		.ascii	"battery_right_v\000"
 6226      6572795F 
 6226      72696768 
 6226      745F7600 
 6227              	.LASF310:
 6228 0e5e 68616D66 		.ascii	"hamfly_write_attr_u8\000"
 6228      6C795F77 
 6228      72697465 
 6228      5F617474 
 6228      725F7538 
 6229              	.LASF199:
 6230 0e73 666F6375 		.ascii	"focus_range_limits_active\000"
 6230      735F7261 
 6230      6E67655F 
 6230      6C696D69 
 6230      74735F61 
 6231              	.LASF90:
 6232 0e8d 73797373 		.ascii	"sysstat_batt_v\000"
 6232      7461745F 
 6232      62617474 
 6232      5F7600
 6233              	.LASF315:
 6234 0e9c 68616D66 		.ascii	"hamfly_home\000"
 6234      6C795F68 
 6234      6F6D6500 
 6235              	.LASF320:
 6236 0ea8 68656164 		.ascii	"heading_offset_deg\000"
 6236      696E675F 
 6236      6F666673 
 6236      65745F64 
 6236      656700
 6237              	.LASF198:
 6238 0ebb 66697A5F 		.ascii	"fiz_status\000"
 6238      73746174 
 6238      757300
 6239              	.LASF121:
 6240 0ec6 73697A65 		.ascii	"sizetype\000"
 6240      74797065 
 6240      00
ARM GAS  C:\Users\JENNEW~1\AppData\Local\Temp\ccBYNzIK.s 			page 132


 6241              	.LASF35:
 6242 0ecf 68616D66 		.ascii	"hamfly_control_t\000"
 6242      6C795F63 
 6242      6F6E7472 
 6242      6F6C5F74 
 6242      00
 6243              	.LASF71:
 6244 0ee0 6261726F 		.ascii	"baro_valid\000"
 6244      5F76616C 
 6244      696400
 6245              	.LASF10:
 6246 0eeb 6C6F6E67 		.ascii	"long unsigned int\000"
 6246      20756E73 
 6246      69676E65 
 6246      6420696E 
 6246      7400
 6247              	.LASF158:
 6248 0efd 4142534F 		.ascii	"ABSOLUTE\000"
 6248      4C555445 
 6248      00
 6249              	.LASF159:
 6250 0f06 4142534F 		.ascii	"ABSOLUTE_MAJESTIC\000"
 6250      4C555445 
 6250      5F4D414A 
 6250      45535449 
 6250      4300
 6251              	.LASF154:
 6252 0f18 51585F4E 		.ascii	"QX_NUM_OF_PORTS\000"
 6252      554D5F4F 
 6252      465F504F 
 6252      52545300 
 6253              	.LASF245:
 6254 0f28 51585F54 		.ascii	"QX_TxMsgOptions_t\000"
 6254      784D7367 
 6254      4F707469 
 6254      6F6E735F 
 6254      7400
 6255              	.LASF153:
 6256 0f3a 51585F43 		.ascii	"QX_COMMS_PORT_UART\000"
 6256      4F4D4D53 
 6256      5F504F52 
 6256      545F5541 
 6256      525400
 6257              	.LASF253:
 6258 0f4d 536F7572 		.ascii	"Source_Addr\000"
 6258      63655F41 
 6258      64647200 
 6259              	.LASF170:
 6260 0f59 4C656E73 		.ascii	"Lens_AxisState_Man_Cal_Set_Max\000"
 6260      5F417869 
 6260      73537461 
 6260      74655F4D 
 6260      616E5F43 
 6261              	.LASF17:
 6262 0f78 696E7433 		.ascii	"int32_t\000"
 6262      325F7400 
 6263              	.LASF278:
ARM GAS  C:\Users\JENNEW~1\AppData\Local\Temp\ccBYNzIK.s 			page 133


 6264 0f80 51585F43 		.ascii	"QX_CommsPort_t\000"
 6264      6F6D6D73 
 6264      506F7274 
 6264      5F7400
 6265              	.LASF297:
 6266 0f8f 706F7274 		.ascii	"port\000"
 6266      00
 6267              	.LASF190:
 6268 0f94 67696D62 		.ascii	"gimbal_Status1\000"
 6268      616C5F53 
 6268      74617475 
 6268      733100
 6269              	.LASF191:
 6270 0fa3 67696D62 		.ascii	"gimbal_Status2\000"
 6270      616C5F53 
 6270      74617475 
 6270      733200
 6271              	.LASF80:
 6272 0fb2 6174745F 		.ascii	"att_yaw_rate_dps\000"
 6272      7961775F 
 6272      72617465 
 6272      5F647073 
 6272      00
 6273              	.LASF221:
 6274 0fc3 51585F44 		.ascii	"QX_DEV_ID_WEDGE_LENS_CONTROLLER\000"
 6274      45565F49 
 6274      445F5745 
 6274      4447455F 
 6274      4C454E53 
 6275              	.LASF79:
 6276 0fe3 6174745F 		.ascii	"att_pitch_rate_dps\000"
 6276      70697463 
 6276      685F7261 
 6276      74655F64 
 6276      707300
 6277              	.LASF162:
 6278 0ff6 74797065 		.ascii	"type\000"
 6278      00
 6279              	.LASF304:
 6280 0ffb 61747472 		.ascii	"attr_id\000"
 6280      5F696400 
 6281              	.LASF1:
 6282 1003 756E7369 		.ascii	"unsigned char\000"
 6282      676E6564 
 6282      20636861 
 6282      7200
 6283              	.LASF9:
 6284 1011 5F5F7569 		.ascii	"__uint32_t\000"
 6284      6E743332 
 6284      5F7400
 6285              	.LASF328:
 6286 101c 617A5F64 		.ascii	"az_deg\000"
 6286      656700
 6287              	.LASF83:
 6288 1023 6174745F 		.ascii	"att_pitch_err_deg\000"
 6288      70697463 
 6288      685F6572 
ARM GAS  C:\Users\JENNEW~1\AppData\Local\Temp\ccBYNzIK.s 			page 134


 6288      725F6465 
 6288      6700
 6289              	.LASF223:
 6290 1035 51585F44 		.ascii	"QX_DEV_ID_GIMBAL_INT_FIZ\000"
 6290      45565F49 
 6290      445F4749 
 6290      4D42414C 
 6290      5F494E54 
 6291              	.LASF95:
 6292 104e 73797373 		.ascii	"sysstat_time_s\000"
 6292      7461745F 
 6292      74696D65 
 6292      5F7300
 6293              	.LASF321:
 6294 105d 63746C5F 		.ascii	"ctl_out\000"
 6294      6F757400 
 6295              	.LASF119:
 6296 1065 7461696C 		.ascii	"tail\000"
 6296      00
 6297              	.LASF272:
 6298 106a 52784D73 		.ascii	"RxMsg\000"
 6298      6700
 6299              	.LASF177:
 6300 1070 67696D62 		.ascii	"gimbal_position_type_quaternions\000"
 6300      616C5F70 
 6300      6F736974 
 6300      696F6E5F 
 6300      74797065 
 6301              	.LASF130:
 6302 1091 74785F70 		.ascii	"tx_packets\000"
 6302      61636B65 
 6302      747300
 6303              	.LASF22:
 6304 109c 48414D46 		.ascii	"HAMFLY_DEFER\000"
 6304      4C595F44 
 6304      45464552 
 6304      00
 6305              	.LASF74:
 6306 10a9 6174745F 		.ascii	"att_valid\000"
 6306      76616C69 
 6306      6400
 6307              	.LASF268:
 6308 10b3 4D736742 		.ascii	"MsgBuf_p\000"
 6308      75665F70 
 6308      00
 6309              	.LASF249:
 6310 10bc 4164644F 		.ascii	"AddOptionByte1\000"
 6310      7074696F 
 6310      6E427974 
 6310      653100
 6311              	.LASF150:
 6312 10cb 68616D66 		.ascii	"hamfly_gimbal_t\000"
 6312      6C795F67 
 6312      696D6261 
 6312      6C5F7400 
 6313              	.LASF240:
 6314 10db 52656D6F 		.ascii	"Remove_Addr_Fields\000"
ARM GAS  C:\Users\JENNEW~1\AppData\Local\Temp\ccBYNzIK.s 			page 135


 6314      76655F41 
 6314      6464725F 
 6314      4669656C 
 6314      647300
 6315              	.LASF269:
 6316 10ee 51585F4D 		.ascii	"QX_Msg_t\000"
 6316      73675F74 
 6316      00
 6317              	.LASF61:
 6318 10f7 6770735F 		.ascii	"gps_vacc_m\000"
 6318      76616363 
 6318      5F6D00
 6319              	.LASF302:
 6320 1102 68616D66 		.ascii	"hamfly_send_control\000"
 6320      6C795F73 
 6320      656E645F 
 6320      636F6E74 
 6320      726F6C00 
 6321              	.LASF78:
 6322 1116 6174745F 		.ascii	"att_roll_deg\000"
 6322      726F6C6C 
 6322      5F646567 
 6322      00
 6323              	.LASF168:
 6324 1123 4C656E73 		.ascii	"Lens_AxisState_Calibrated\000"
 6324      5F417869 
 6324      73537461 
 6324      74655F43 
 6324      616C6962 
 6325              	.LASF106:
 6326 113d 6D61675F 		.ascii	"mag_magnitude\000"
 6326      6D61676E 
 6326      69747564 
 6326      6500
 6327              	.LASF313:
 6328 114b 68616D66 		.ascii	"hamfly_control_init\000"
 6328      6C795F63 
 6328      6F6E7472 
 6328      6F6C5F69 
 6328      6E697400 
 6329              	.LASF314:
 6330 115f 68616D66 		.ascii	"hamfly_is_killed\000"
 6330      6C795F69 
 6330      735F6B69 
 6330      6C6C6564 
 6330      00
 6331              	.LASF207:
 6332 1170 72656376 		.ascii	"recv\000"
 6332      00
 6333              	.LASF222:
 6334 1175 51585F44 		.ascii	"QX_DEV_ID_GIMBAL\000"
 6334      45565F49 
 6334      445F4749 
 6334      4D42414C 
 6334      00
 6335              	.LASF114:
 6336 1186 73797365 		.ascii	"sysecho_pressure_mb\000"
ARM GAS  C:\Users\JENNEW~1\AppData\Local\Temp\ccBYNzIK.s 			page 136


 6336      63686F5F 
 6336      70726573 
 6336      73757265 
 6336      5F6D6200 
 6337              	.LASF0:
 6338 119a 7369676E 		.ascii	"signed char\000"
 6338      65642063 
 6338      68617200 
 6339              	.LASF68:
 6340 11a6 6770735F 		.ascii	"gps_raw_hacc\000"
 6340      7261775F 
 6340      68616363 
 6340      00
 6341              	.LASF299:
 6342 11b3 72786C65 		.ascii	"rxlen\000"
 6342      6E00
 6343              	.LASF6:
 6344 11b9 73686F72 		.ascii	"short unsigned int\000"
 6344      7420756E 
 6344      7369676E 
 6344      65642069 
 6344      6E7400
 6345              	.LASF25:
 6346 11cc 48414D46 		.ascii	"HAMFLY_ABSOLUTE_MAJESTIC\000"
 6346      4C595F41 
 6346      42534F4C 
 6346      5554455F 
 6346      4D414A45 
 6347              	.LASF205:
 6348 11e5 62656769 		.ascii	"begin\000"
 6348      6E00
 6349              	.LASF64:
 6350 11eb 6770735F 		.ascii	"gps_raw_lon\000"
 6350      7261775F 
 6350      6C6F6E00 
 6351              	.LASF128:
 6352 11f7 48414D46 		.ascii	"HAMFLY_ERR_BAD_STATE\000"
 6352      4C595F45 
 6352      52525F42 
 6352      41445F53 
 6352      54415445 
 6353              	.LASF192:
 6354 120c 666F6375 		.ascii	"focus_position\000"
 6354      735F706F 
 6354      73697469 
 6354      6F6E00
 6355              	.LASF82:
 6356 121b 6174745F 		.ascii	"att_roll_err_deg\000"
 6356      726F6C6C 
 6356      5F657272 
 6356      5F646567 
 6356      00
 6357              	.LASF296:
 6358 122c 676F745F 		.ascii	"got_packet\000"
 6358      7061636B 
 6358      657400
 6359              	.LASF124:
ARM GAS  C:\Users\JENNEW~1\AppData\Local\Temp\ccBYNzIK.s 			page 137


 6360 1237 48414D46 		.ascii	"HAMFLY_ERR_UART\000"
 6360      4C595F45 
 6360      52525F55 
 6360      41525400 
 6361              	.LASF185:
 6362 1247 66697A5F 		.ascii	"fiz_setSubRangeLim_I_flag\000"
 6362      73657453 
 6362      75625261 
 6362      6E67654C 
 6362      696D5F49 
 6363              	.LASF135:
 6364 1261 72786275 		.ascii	"rxbuf_drops\000"
 6364      665F6472 
 6364      6F707300 
 6365              	.LASF137:
 6366 126d 68616D66 		.ascii	"hamfly_statistics_t\000"
 6366      6C795F73 
 6366      74617469 
 6366      73746963 
 6366      735F7400 
 6367              	.LASF282:
 6368 1281 646F7562 		.ascii	"double\000"
 6368      6C6500
 6369              	.LASF142:
 6370 1288 67696D62 		.ascii	"gimbal_id\000"
 6370      616C5F69 
 6370      6400
 6371              	.LASF279:
 6372 1292 41646472 		.ascii	"Address\000"
 6372      65737300 
 6373              	.LASF163:
 6374 129a 66665F61 		.ascii	"ff_api_realtime_control_t\000"
 6374      70695F72 
 6374      65616C74 
 6374      696D655F 
 6374      636F6E74 
 6375              	.LASF241:
 6376 12b4 52656D6F 		.ascii	"Remove_Req_Fields\000"
 6376      76655F52 
 6376      65715F46 
 6376      69656C64 
 6376      7300
 6377              	.LASF337:
 6378 12c6 433A5C55 		.ascii	"C:\\Users\\Jennewein\\Documents\\hamish-workspace\\"
 6378      73657273 
 6378      5C4A656E 
 6378      6E657765 
 6378      696E5C44 
 6379 12f4 50536F43 		.ascii	"PSoC-Programs\\test_projects\\Proj07_hamflyAPI_stat"
 6379      2D50726F 
 6379      6772616D 
 6379      735C7465 
 6379      73745F70 
 6380 1325 654D6163 		.ascii	"eMachineUpgrade.cydsn\000"
 6380      68696E65 
 6380      55706772 
 6380      6164652E 
ARM GAS  C:\Users\JENNEW~1\AppData\Local\Temp\ccBYNzIK.s 			page 138


 6380      63796473 
 6381              	.LASF173:
 6382 133b 4C656E73 		.ascii	"Lens_AxisState_Auto_Cal_Set_Max\000"
 6382      5F417869 
 6382      73537461 
 6382      74655F41 
 6382      75746F5F 
 6383              	.LASF334:
 6384 135b 51585F43 		.ascii	"QX_Clients\000"
 6384      6C69656E 
 6384      747300
 6385              	.LASF266:
 6386 1366 4D736742 		.ascii	"MsgBufAtt_p\000"
 6386      75664174 
 6386      745F7000 
 6387              	.LASF295:
 6388 1372 63686B66 		.ascii	"chkfail_after\000"
 6388      61696C5F 
 6388      61667465 
 6388      7200
 6389              	.LASF89:
 6390 1380 666C6167 		.ascii	"flag_gps_locked\000"
 6390      5F677073 
 6390      5F6C6F63 
 6390      6B656400 
 6391              	.LASF276:
 6392 1390 6E6F6E5F 		.ascii	"non_Q_cnt\000"
 6392      515F636E 
 6392      7400
 6393              	.LASF126:
 6394 139a 48414D46 		.ascii	"HAMFLY_ERR_BUSY\000"
 6394      4C595F45 
 6394      52525F42 
 6394      55535900 
 6395              	.LASF164:
 6396 13aa 4C656E73 		.ascii	"Lens_AxisState_Disabled\000"
 6396      5F417869 
 6396      73537461 
 6396      74655F44 
 6396      69736162 
 6397              	.LASF273:
 6398 13c2 54696D65 		.ascii	"Timeout_Cntr\000"
 6398      6F75745F 
 6398      436E7472 
 6398      00
 6399              	.LASF72:
 6400 13cf 6261726F 		.ascii	"baro_alt_m\000"
 6400      5F616C74 
 6400      5F6D00
 6401              	.LASF316:
 6402 13da 68616D66 		.ascii	"hamfly_compass_cal_start\000"
 6402      6C795F63 
 6402      6F6D7061 
 6402      73735F63 
 6402      616C5F73 
 6403              	.LASF96:
 6404 13f3 73797373 		.ascii	"sysstat_pressure_mb\000"
ARM GAS  C:\Users\JENNEW~1\AppData\Local\Temp\ccBYNzIK.s 			page 139


 6404      7461745F 
 6404      70726573 
 6404      73757265 
 6404      5F6D6200 
 6405              	.LASF99:
 6406 1407 73797373 		.ascii	"sysstat_imu_latency\000"
 6406      7461745F 
 6406      696D755F 
 6406      6C617465 
 6406      6E637900 
 6407              	.LASF81:
 6408 141b 6174745F 		.ascii	"att_roll_rate_dps\000"
 6408      726F6C6C 
 6408      5F726174 
 6408      655F6470 
 6408      7300
 6409              	.LASF194:
 6410 142d 7A6F6F6D 		.ascii	"zoom_position\000"
 6410      5F706F73 
 6410      6974696F 
 6410      6E00
 6411              	.LASF69:
 6412 143b 6770735F 		.ascii	"gps_raw_vacc\000"
 6412      7261775F 
 6412      76616363 
 6412      00
 6413              	.LASF140:
 6414 1448 72786275 		.ascii	"rxbuf\000"
 6414      6600
 6415              	.LASF178:
 6416 144e 666F6375 		.ascii	"focus\000"
 6416      7300
 6417              		.ident	"GCC: (GNU Tools for ARM Embedded Processors) 5.4.1 20160609 (release) [ARM/embedded-5-bran
