ARM GAS  C:\Users\JENNEW~1\AppData\Local\Temp\ccBYNzIK.s 			page 1


   1              		.syntax unified
   2              		.cpu cortex-m3
   3              		.fpu softvfp
   4              		.eabi_attribute 20, 1
   5              		.eabi_attribute 21, 1
   6              		.eabi_attribute 23, 3
   7              		.eabi_attribute 24, 1
   8              		.eabi_attribute 25, 1
   9              		.eabi_attribute 26, 1
  10              		.eabi_attribute 30, 6
  11              		.eabi_attribute 34, 1
  12              		.eabi_attribute 18, 4
  13              		.thumb
  14              		.syntax unified
  15              		.file	"hamfly_core_gimbal.c"
  16              		.text
  17              	.Ltext0:
  18              		.cfi_sections	.debug_frame
  19              		.section	.text.load_freefly_control,"ax",%progbits
  20              		.align	2
  21              		.thumb
  22              		.thumb_func
  23              		.type	load_freefly_control, %function
  24              	load_freefly_control:
  25              	.LFB0:
  26              		.file 1 "..\\..\\..\\HamFlyAPI\\src\\hamfly_core_gimbal.c"
   1:..\..\..\HamFlyAPI\src/hamfly_core_gimbal.c **** /* SPDX-License-Identifier: Apache-2.0
   2:..\..\..\HamFlyAPI\src/hamfly_core_gimbal.c ****  *
   3:..\..\..\HamFlyAPI\src/hamfly_core_gimbal.c ****  * Copyright 2026 Hamish Johnson
   4:..\..\..\HamFlyAPI\src/hamfly_core_gimbal.c ****  * Quantum Information Systems Lab, SFU Physics
   5:..\..\..\HamFlyAPI\src/hamfly_core_gimbal.c ****  *
   6:..\..\..\HamFlyAPI\src/hamfly_core_gimbal.c ****  * Licensed under the Apache License, Version 2.0 (the "License");
   7:..\..\..\HamFlyAPI\src/hamfly_core_gimbal.c ****  * you may not use this file except in compliance with the License.
   8:..\..\..\HamFlyAPI\src/hamfly_core_gimbal.c ****  * You may obtain a copy of the License at
   9:..\..\..\HamFlyAPI\src/hamfly_core_gimbal.c ****  *
  10:..\..\..\HamFlyAPI\src/hamfly_core_gimbal.c ****  *     http://www.apache.org/licenses/LICENSE-2.0
  11:..\..\..\HamFlyAPI\src/hamfly_core_gimbal.c ****  *
  12:..\..\..\HamFlyAPI\src/hamfly_core_gimbal.c ****  * Unless required by applicable law or agreed to in writing, software
  13:..\..\..\HamFlyAPI\src/hamfly_core_gimbal.c ****  * distributed under the License is distributed on an "AS IS" BASIS,
  14:..\..\..\HamFlyAPI\src/hamfly_core_gimbal.c ****  * WITHOUT WARRANTIES OR CONDITIONS OF ANY KIND, either express or
  15:..\..\..\HamFlyAPI\src/hamfly_core_gimbal.c ****  * implied. See the License for the specific language governing
  16:..\..\..\HamFlyAPI\src/hamfly_core_gimbal.c ****  * permissions and limitations under the License.
  17:..\..\..\HamFlyAPI\src/hamfly_core_gimbal.c ****  *
  18:..\..\..\HamFlyAPI\src/hamfly_core_gimbal.c ****  * ============================================================================
  19:..\..\..\HamFlyAPI\src/hamfly_core_gimbal.c ****  * Gimbal control functions.
  20:..\..\..\HamFlyAPI\src/hamfly_core_gimbal.c ****  */
  21:..\..\..\HamFlyAPI\src/hamfly_core_gimbal.c **** 
  22:..\..\..\HamFlyAPI\src/hamfly_core_gimbal.c **** 
  23:..\..\..\HamFlyAPI\src/hamfly_core_gimbal.c **** #include "hamfly_core_gimbal.h"
  24:..\..\..\HamFlyAPI\src/hamfly_core_gimbal.c **** #include "hamfly_core_telemetry.h"
  25:..\..\..\HamFlyAPI\src/hamfly_core_gimbal.c **** #include "hamfly_qx_protocol.h"
  26:..\..\..\HamFlyAPI\src/hamfly_core_gimbal.c **** #include "hamfly_qx_app.h"
  27:..\..\..\HamFlyAPI\src/hamfly_core_gimbal.c **** #include "hamfly.h"
  28:..\..\..\HamFlyAPI\src/hamfly_core_gimbal.c **** #include <string.h>
  29:..\..\..\HamFlyAPI\src/hamfly_core_gimbal.c **** #include <math.h>
  30:..\..\..\HamFlyAPI\src/hamfly_core_gimbal.c **** 
  31:..\..\..\HamFlyAPI\src/hamfly_core_gimbal.c **** #define HAMFLY_QX_PORT  (QX_COMMS_PORT_UART)
ARM GAS  C:\Users\JENNEW~1\AppData\Local\Temp\ccBYNzIK.s 			page 2


  32:..\..\..\HamFlyAPI\src/hamfly_core_gimbal.c **** 
  33:..\..\..\HamFlyAPI\src/hamfly_core_gimbal.c **** // ============================================================================
  34:..\..\..\HamFlyAPI\src/hamfly_core_gimbal.c **** // Internal helpers: load/save between hamfly_control_t and FreeflyAPI.control
  35:..\..\..\HamFlyAPI\src/hamfly_core_gimbal.c **** // ============================================================================
  36:..\..\..\HamFlyAPI\src/hamfly_core_gimbal.c **** 
  37:..\..\..\HamFlyAPI\src/hamfly_core_gimbal.c **** // Copy the control struct into the existing FreeflyAPI.control struct for Tx.
  38:..\..\..\HamFlyAPI\src/hamfly_core_gimbal.c **** static void load_freefly_control(const hamfly_control_t *ctl)
  39:..\..\..\HamFlyAPI\src/hamfly_core_gimbal.c **** {
  27              		.loc 1 39 0
  28              		.cfi_startproc
  29              		@ args = 0, pretend = 0, frame = 8
  30              		@ frame_needed = 1, uses_anonymous_args = 0
  31              		@ link register save eliminated.
  32 0000 80B4     		push	{r7}
  33              		.cfi_def_cfa_offset 4
  34              		.cfi_offset 7, -4
  35 0002 83B0     		sub	sp, sp, #12
  36              		.cfi_def_cfa_offset 16
  37 0004 00AF     		add	r7, sp, #0
  38              		.cfi_def_cfa_register 7
  39 0006 7860     		str	r0, [r7, #4]
  40:..\..\..\HamFlyAPI\src/hamfly_core_gimbal.c ****     FreeflyAPI.control.pan.value   = ctl->pan;
  40              		.loc 1 40 0
  41 0008 7B68     		ldr	r3, [r7, #4]
  42 000a 1B68     		ldr	r3, [r3]	@ float
  43 000c 0F4A     		ldr	r2, .L2
  44 000e 1361     		str	r3, [r2, #16]	@ float
  41:..\..\..\HamFlyAPI\src/hamfly_core_gimbal.c ****     FreeflyAPI.control.tilt.value  = ctl->tilt;
  45              		.loc 1 41 0
  46 0010 7B68     		ldr	r3, [r7, #4]
  47 0012 5B68     		ldr	r3, [r3, #4]	@ float
  48 0014 0D4A     		ldr	r2, .L2
  49 0016 9361     		str	r3, [r2, #24]	@ float
  42:..\..\..\HamFlyAPI\src/hamfly_core_gimbal.c ****     FreeflyAPI.control.roll.value  = ctl->roll;
  50              		.loc 1 42 0
  51 0018 7B68     		ldr	r3, [r7, #4]
  52 001a 9B68     		ldr	r3, [r3, #8]	@ float
  53 001c 0B4A     		ldr	r2, .L2
  54 001e 1362     		str	r3, [r2, #32]	@ float
  43:..\..\..\HamFlyAPI\src/hamfly_core_gimbal.c ****     FreeflyAPI.control.pan.type    = (ff_api_control_type_e)ctl->pan_mode;
  55              		.loc 1 43 0
  56 0020 7B68     		ldr	r3, [r7, #4]
  57 0022 1A7B     		ldrb	r2, [r3, #12]	@ zero_extendqisi2
  58 0024 094B     		ldr	r3, .L2
  59 0026 1A75     		strb	r2, [r3, #20]
  44:..\..\..\HamFlyAPI\src/hamfly_core_gimbal.c ****     FreeflyAPI.control.tilt.type   = (ff_api_control_type_e)ctl->tilt_mode;
  60              		.loc 1 44 0
  61 0028 7B68     		ldr	r3, [r7, #4]
  62 002a 5A7B     		ldrb	r2, [r3, #13]	@ zero_extendqisi2
  63 002c 074B     		ldr	r3, .L2
  64 002e 1A77     		strb	r2, [r3, #28]
  45:..\..\..\HamFlyAPI\src/hamfly_core_gimbal.c ****     FreeflyAPI.control.roll.type   = (ff_api_control_type_e)ctl->roll_mode;
  65              		.loc 1 45 0
  66 0030 7B68     		ldr	r3, [r7, #4]
  67 0032 9A7B     		ldrb	r2, [r3, #14]	@ zero_extendqisi2
  68 0034 054B     		ldr	r3, .L2
  69 0036 83F82420 		strb	r2, [r3, #36]
ARM GAS  C:\Users\JENNEW~1\AppData\Local\Temp\ccBYNzIK.s 			page 3


  46:..\..\..\HamFlyAPI\src/hamfly_core_gimbal.c ****     FreeflyAPI.control.gimbal_kill = ctl->kill;
  70              		.loc 1 46 0
  71 003a 7B68     		ldr	r3, [r7, #4]
  72 003c 1A7C     		ldrb	r2, [r3, #16]	@ zero_extendqisi2
  73 003e 034B     		ldr	r3, .L2
  74 0040 1A73     		strb	r2, [r3, #12]
  47:..\..\..\HamFlyAPI\src/hamfly_core_gimbal.c **** }
  75              		.loc 1 47 0
  76 0042 00BF     		nop
  77 0044 0C37     		adds	r7, r7, #12
  78              		.cfi_def_cfa_offset 4
  79 0046 BD46     		mov	sp, r7
  80              		.cfi_def_cfa_register 13
  81              		@ sp needed
  82 0048 80BC     		pop	{r7}
  83              		.cfi_restore 7
  84              		.cfi_def_cfa_offset 0
  85 004a 7047     		bx	lr
  86              	.L3:
  87              		.align	2
  88              	.L2:
  89 004c 00000000 		.word	FreeflyAPI
  90              		.cfi_endproc
  91              	.LFE0:
  92              		.size	load_freefly_control, .-load_freefly_control
  93              		.section	.text.copy_qx287_to_telemetry,"ax",%progbits
  94              		.align	2
  95              		.thumb
  96              		.thumb_func
  97              		.type	copy_qx287_to_telemetry, %function
  98              	copy_qx287_to_telemetry:
  99              	.LFB1:
  48:..\..\..\HamFlyAPI\src/hamfly_core_gimbal.c **** 
  49:..\..\..\HamFlyAPI\src/hamfly_core_gimbal.c **** // Copy the QX287 telemetry from FreeflyAPI.status into hamfly_telemetry_t.
  50:..\..\..\HamFlyAPI\src/hamfly_core_gimbal.c **** static void copy_qx287_to_telemetry(hamfly_telemetry_t *tel)
  51:..\..\..\HamFlyAPI\src/hamfly_core_gimbal.c **** {
 100              		.loc 1 51 0
 101              		.cfi_startproc
 102              		@ args = 0, pretend = 0, frame = 8
 103              		@ frame_needed = 1, uses_anonymous_args = 0
 104 0000 80B5     		push	{r7, lr}
 105              		.cfi_def_cfa_offset 8
 106              		.cfi_offset 7, -8
 107              		.cfi_offset 14, -4
 108 0002 82B0     		sub	sp, sp, #8
 109              		.cfi_def_cfa_offset 16
 110 0004 00AF     		add	r7, sp, #0
 111              		.cfi_def_cfa_register 7
 112 0006 7860     		str	r0, [r7, #4]
  52:..\..\..\HamFlyAPI\src/hamfly_core_gimbal.c ****     // 287 is already parsed into FreeflyAPI.status by the QX callback.
  53:..\..\..\HamFlyAPI\src/hamfly_core_gimbal.c ****     // hamfly_decode_qx287 reads it into hamfly_telemetry_t.
  54:..\..\..\HamFlyAPI\src/hamfly_core_gimbal.c ****     // TODO: Investigate removing this wrapper and use decode directly.
  55:..\..\..\HamFlyAPI\src/hamfly_core_gimbal.c ****     hamfly_decode_qx287(NULL, 0u, tel);
 113              		.loc 1 55 0
 114 0008 7A68     		ldr	r2, [r7, #4]
 115 000a 0021     		movs	r1, #0
 116 000c 0020     		movs	r0, #0
ARM GAS  C:\Users\JENNEW~1\AppData\Local\Temp\ccBYNzIK.s 			page 4


 117 000e FFF7FEFF 		bl	hamfly_decode_qx287
  56:..\..\..\HamFlyAPI\src/hamfly_core_gimbal.c **** }
 118              		.loc 1 56 0
 119 0012 00BF     		nop
 120 0014 0837     		adds	r7, r7, #8
 121              		.cfi_def_cfa_offset 8
 122 0016 BD46     		mov	sp, r7
 123              		.cfi_def_cfa_register 13
 124              		@ sp needed
 125 0018 80BD     		pop	{r7, pc}
 126              		.cfi_endproc
 127              	.LFE1:
 128              		.size	copy_qx287_to_telemetry, .-copy_qx287_to_telemetry
 129 001a 00BF     		.section	.text.drain_rb,"ax",%progbits
 130              		.align	2
 131              		.thumb
 132              		.thumb_func
 133              		.type	drain_rb, %function
 134              	drain_rb:
 135              	.LFB2:
  57:..\..\..\HamFlyAPI\src/hamfly_core_gimbal.c **** 
  58:..\..\..\HamFlyAPI\src/hamfly_core_gimbal.c **** // Drain the txbuf and send bytes into the HAL.
  59:..\..\..\HamFlyAPI\src/hamfly_core_gimbal.c **** static uint32_t drain_rb(hamfly_gimbal_t *g)
  60:..\..\..\HamFlyAPI\src/hamfly_core_gimbal.c **** {
 136              		.loc 1 60 0
 137              		.cfi_startproc
 138              		@ args = 0, pretend = 0, frame = 16
 139              		@ frame_needed = 1, uses_anonymous_args = 0
 140 0000 80B5     		push	{r7, lr}
 141              		.cfi_def_cfa_offset 8
 142              		.cfi_offset 7, -8
 143              		.cfi_offset 14, -4
 144 0002 84B0     		sub	sp, sp, #16
 145              		.cfi_def_cfa_offset 24
 146 0004 00AF     		add	r7, sp, #0
 147              		.cfi_def_cfa_register 7
 148 0006 7860     		str	r0, [r7, #4]
  61:..\..\..\HamFlyAPI\src/hamfly_core_gimbal.c ****     uint8_t  byte;
  62:..\..\..\HamFlyAPI\src/hamfly_core_gimbal.c ****     uint32_t sent = 0u;
 149              		.loc 1 62 0
 150 0008 0023     		movs	r3, #0
 151 000a FB60     		str	r3, [r7, #12]
  63:..\..\..\HamFlyAPI\src/hamfly_core_gimbal.c ****     while (hamfly_rb_pop(&g->txbuf, &byte)) {
 152              		.loc 1 63 0
 153 000c 09E0     		b	.L6
 154              	.L7:
  64:..\..\..\HamFlyAPI\src/hamfly_core_gimbal.c ****         g->hal.uart_putc(g->hal.ctx, byte);
 155              		.loc 1 64 0
 156 000e 7B68     		ldr	r3, [r7, #4]
 157 0010 5B68     		ldr	r3, [r3, #4]
 158 0012 7A68     		ldr	r2, [r7, #4]
 159 0014 1268     		ldr	r2, [r2]
 160 0016 F97A     		ldrb	r1, [r7, #11]	@ zero_extendqisi2
 161 0018 1046     		mov	r0, r2
 162 001a 9847     		blx	r3
  65:..\..\..\HamFlyAPI\src/hamfly_core_gimbal.c ****         sent++;
 163              		.loc 1 65 0
ARM GAS  C:\Users\JENNEW~1\AppData\Local\Temp\ccBYNzIK.s 			page 5


 164 001c FB68     		ldr	r3, [r7, #12]
 165 001e 0133     		adds	r3, r3, #1
 166 0020 FB60     		str	r3, [r7, #12]
 167              	.L6:
  63:..\..\..\HamFlyAPI\src/hamfly_core_gimbal.c ****     while (hamfly_rb_pop(&g->txbuf, &byte)) {
 168              		.loc 1 63 0
 169 0022 7B68     		ldr	r3, [r7, #4]
 170 0024 03F22A23 		addw	r3, r3, #554
 171 0028 07F10B02 		add	r2, r7, #11
 172 002c 1146     		mov	r1, r2
 173 002e 1846     		mov	r0, r3
 174 0030 FFF7FEFF 		bl	hamfly_rb_pop
 175 0034 0346     		mov	r3, r0
 176 0036 002B     		cmp	r3, #0
 177 0038 E9D1     		bne	.L7
  66:..\..\..\HamFlyAPI\src/hamfly_core_gimbal.c ****     }
  67:..\..\..\HamFlyAPI\src/hamfly_core_gimbal.c ****     return sent;
 178              		.loc 1 67 0
 179 003a FB68     		ldr	r3, [r7, #12]
  68:..\..\..\HamFlyAPI\src/hamfly_core_gimbal.c **** }
 180              		.loc 1 68 0
 181 003c 1846     		mov	r0, r3
 182 003e 1037     		adds	r7, r7, #16
 183              		.cfi_def_cfa_offset 8
 184 0040 BD46     		mov	sp, r7
 185              		.cfi_def_cfa_register 13
 186              		@ sp needed
 187 0042 80BD     		pop	{r7, pc}
 188              		.cfi_endproc
 189              	.LFE2:
 190              		.size	drain_rb, .-drain_rb
 191              		.section	.text.hamfly_init,"ax",%progbits
 192              		.align	2
 193              		.global	hamfly_init
 194              		.thumb
 195              		.thumb_func
 196              		.type	hamfly_init, %function
 197              	hamfly_init:
 198              	.LFB3:
  69:..\..\..\HamFlyAPI\src/hamfly_core_gimbal.c **** 
  70:..\..\..\HamFlyAPI\src/hamfly_core_gimbal.c **** // ============================================================================
  71:..\..\..\HamFlyAPI\src/hamfly_core_gimbal.c **** // Lifecycle helpers
  72:..\..\..\HamFlyAPI\src/hamfly_core_gimbal.c **** // ============================================================================
  73:..\..\..\HamFlyAPI\src/hamfly_core_gimbal.c **** 
  74:..\..\..\HamFlyAPI\src/hamfly_core_gimbal.c **** // Initialize gimbal struct with HAL, empty buffers and stats.
  75:..\..\..\HamFlyAPI\src/hamfly_core_gimbal.c **** void hamfly_init(hamfly_gimbal_t *g, const hamfly_hal_t *hal)
  76:..\..\..\HamFlyAPI\src/hamfly_core_gimbal.c **** {
 199              		.loc 1 76 0
 200              		.cfi_startproc
 201              		@ args = 0, pretend = 0, frame = 8
 202              		@ frame_needed = 1, uses_anonymous_args = 0
 203 0000 80B5     		push	{r7, lr}
 204              		.cfi_def_cfa_offset 8
 205              		.cfi_offset 7, -8
 206              		.cfi_offset 14, -4
 207 0002 82B0     		sub	sp, sp, #8
 208              		.cfi_def_cfa_offset 16
ARM GAS  C:\Users\JENNEW~1\AppData\Local\Temp\ccBYNzIK.s 			page 6


 209 0004 00AF     		add	r7, sp, #0
 210              		.cfi_def_cfa_register 7
 211 0006 7860     		str	r0, [r7, #4]
 212 0008 3960     		str	r1, [r7]
  77:..\..\..\HamFlyAPI\src/hamfly_core_gimbal.c ****     memset(g, 0, sizeof(*g));
 213              		.loc 1 77 0
 214 000a 4FF46072 		mov	r2, #896
 215 000e 0021     		movs	r1, #0
 216 0010 7868     		ldr	r0, [r7, #4]
 217 0012 FFF7FEFF 		bl	memset
  78:..\..\..\HamFlyAPI\src/hamfly_core_gimbal.c ****     g->hal       = *hal;
 218              		.loc 1 78 0
 219 0016 7B68     		ldr	r3, [r7, #4]
 220 0018 3A68     		ldr	r2, [r7]
 221 001a 07CA     		ldmia	r2, {r0, r1, r2}
 222 001c 83E80700 		stmia	r3, {r0, r1, r2}
  79:..\..\..\HamFlyAPI\src/hamfly_core_gimbal.c ****     g->gimbal_id = QX_DEV_ID_GIMBAL;
 223              		.loc 1 79 0
 224 0020 7B68     		ldr	r3, [r7, #4]
 225 0022 0222     		movs	r2, #2
 226 0024 83F83023 		strb	r2, [r3, #816]
  80:..\..\..\HamFlyAPI\src/hamfly_core_gimbal.c ****     hamfly_rb_init(&g->rxbuf);
 227              		.loc 1 80 0
 228 0028 7B68     		ldr	r3, [r7, #4]
 229 002a 03F59273 		add	r3, r3, #292
 230 002e 1846     		mov	r0, r3
 231 0030 FFF7FEFF 		bl	hamfly_rb_init
  81:..\..\..\HamFlyAPI\src/hamfly_core_gimbal.c ****     hamfly_rb_init(&g->txbuf);
 232              		.loc 1 81 0
 233 0034 7B68     		ldr	r3, [r7, #4]
 234 0036 03F22A23 		addw	r3, r3, #554
 235 003a 1846     		mov	r0, r3
 236 003c FFF7FEFF 		bl	hamfly_rb_init
  82:..\..\..\HamFlyAPI\src/hamfly_core_gimbal.c **** 
  83:..\..\..\HamFlyAPI\src/hamfly_core_gimbal.c ****     // Register as active instance for QX callbacks, if user wants to implement
  84:..\..\..\HamFlyAPI\src/hamfly_core_gimbal.c ****     // multiple gimbals in the future make this a list or map instead of a
  85:..\..\..\HamFlyAPI\src/hamfly_core_gimbal.c ****     // single pointer.
  86:..\..\..\HamFlyAPI\src/hamfly_core_gimbal.c ****     qx_active_gimbal_ptr = (void *)g;
 237              		.loc 1 86 0
 238 0040 044A     		ldr	r2, .L10
 239 0042 7B68     		ldr	r3, [r7, #4]
 240 0044 1360     		str	r3, [r2]
  87:..\..\..\HamFlyAPI\src/hamfly_core_gimbal.c **** 
  88:..\..\..\HamFlyAPI\src/hamfly_core_gimbal.c ****     // Start the FreeflyAPI 
  89:..\..\..\HamFlyAPI\src/hamfly_core_gimbal.c ****     // Registers the QX callback that updates FreeflyAPI.status
  90:..\..\..\HamFlyAPI\src/hamfly_core_gimbal.c ****     // and also initializes FreeflyAPI.control to zeros/DEFER.
  91:..\..\..\HamFlyAPI\src/hamfly_core_gimbal.c ****     FreeflyAPI.begin();
 241              		.loc 1 91 0
 242 0046 044B     		ldr	r3, .L10+4
 243 0048 1B68     		ldr	r3, [r3]
 244 004a 9847     		blx	r3
  92:..\..\..\HamFlyAPI\src/hamfly_core_gimbal.c **** }
 245              		.loc 1 92 0
 246 004c 00BF     		nop
 247 004e 0837     		adds	r7, r7, #8
 248              		.cfi_def_cfa_offset 8
 249 0050 BD46     		mov	sp, r7
ARM GAS  C:\Users\JENNEW~1\AppData\Local\Temp\ccBYNzIK.s 			page 7


 250              		.cfi_def_cfa_register 13
 251              		@ sp needed
 252 0052 80BD     		pop	{r7, pc}
 253              	.L11:
 254              		.align	2
 255              	.L10:
 256 0054 00000000 		.word	qx_active_gimbal_ptr
 257 0058 00000000 		.word	FreeflyAPI
 258              		.cfi_endproc
 259              	.LFE3:
 260              		.size	hamfly_init, .-hamfly_init
 261              		.section	.text.hamfly_reset,"ax",%progbits
 262              		.align	2
 263              		.global	hamfly_reset
 264              		.thumb
 265              		.thumb_func
 266              		.type	hamfly_reset, %function
 267              	hamfly_reset:
 268              	.LFB4:
  93:..\..\..\HamFlyAPI\src/hamfly_core_gimbal.c **** 
  94:..\..\..\HamFlyAPI\src/hamfly_core_gimbal.c **** // Reset gimbal struct to empty buffers and stats, but keep HAL and gimbal_id.
  95:..\..\..\HamFlyAPI\src/hamfly_core_gimbal.c **** void hamfly_reset(hamfly_gimbal_t *g)
  96:..\..\..\HamFlyAPI\src/hamfly_core_gimbal.c **** {
 269              		.loc 1 96 0
 270              		.cfi_startproc
 271              		@ args = 0, pretend = 0, frame = 8
 272              		@ frame_needed = 1, uses_anonymous_args = 0
 273 0000 80B5     		push	{r7, lr}
 274              		.cfi_def_cfa_offset 8
 275              		.cfi_offset 7, -8
 276              		.cfi_offset 14, -4
 277 0002 82B0     		sub	sp, sp, #8
 278              		.cfi_def_cfa_offset 16
 279 0004 00AF     		add	r7, sp, #0
 280              		.cfi_def_cfa_register 7
 281 0006 7860     		str	r0, [r7, #4]
  97:..\..\..\HamFlyAPI\src/hamfly_core_gimbal.c ****     if (!g) return;
 282              		.loc 1 97 0
 283 0008 7B68     		ldr	r3, [r7, #4]
 284 000a 002B     		cmp	r3, #0
 285 000c 33D0     		beq	.L15
  98:..\..\..\HamFlyAPI\src/hamfly_core_gimbal.c ****     hamfly_rb_clear(&g->rxbuf);
 286              		.loc 1 98 0
 287 000e 7B68     		ldr	r3, [r7, #4]
 288 0010 03F59273 		add	r3, r3, #292
 289 0014 1846     		mov	r0, r3
 290 0016 FFF7FEFF 		bl	hamfly_rb_clear
  99:..\..\..\HamFlyAPI\src/hamfly_core_gimbal.c ****     hamfly_rb_clear(&g->txbuf);
 291              		.loc 1 99 0
 292 001a 7B68     		ldr	r3, [r7, #4]
 293 001c 03F22A23 		addw	r3, r3, #554
 294 0020 1846     		mov	r0, r3
 295 0022 FFF7FEFF 		bl	hamfly_rb_clear
 100:..\..\..\HamFlyAPI\src/hamfly_core_gimbal.c ****     memset(&g->telemetry,  0, sizeof(g->telemetry));
 296              		.loc 1 100 0
 297 0026 7B68     		ldr	r3, [r7, #4]
 298 0028 2033     		adds	r3, r3, #32
ARM GAS  C:\Users\JENNEW~1\AppData\Local\Temp\ccBYNzIK.s 			page 8


 299 002a EC22     		movs	r2, #236
 300 002c 0021     		movs	r1, #0
 301 002e 1846     		mov	r0, r3
 302 0030 FFF7FEFF 		bl	memset
 101:..\..\..\HamFlyAPI\src/hamfly_core_gimbal.c ****     memset(&g->statistics, 0, sizeof(g->statistics));
 303              		.loc 1 101 0
 304 0034 7B68     		ldr	r3, [r7, #4]
 305 0036 03F58673 		add	r3, r3, #268
 306 003a 1822     		movs	r2, #24
 307 003c 0021     		movs	r1, #0
 308 003e 1846     		mov	r0, r3
 309 0040 FFF7FEFF 		bl	memset
 102:..\..\..\HamFlyAPI\src/hamfly_core_gimbal.c ****     g->pending_attr          = 0u;
 310              		.loc 1 102 0
 311 0044 7B68     		ldr	r3, [r7, #4]
 312 0046 0022     		movs	r2, #0
 313 0048 A3F83223 		strh	r2, [r3, #818]	@ movhi
 103:..\..\..\HamFlyAPI\src/hamfly_core_gimbal.c ****     g->pending_sent_ms       = 0u;
 314              		.loc 1 103 0
 315 004c 7B68     		ldr	r3, [r7, #4]
 316 004e 0022     		movs	r2, #0
 317 0050 C3F83423 		str	r2, [r3, #820]
 104:..\..\..\HamFlyAPI\src/hamfly_core_gimbal.c ****     g->pending_ready         = false;
 318              		.loc 1 104 0
 319 0054 7B68     		ldr	r3, [r7, #4]
 320 0056 0022     		movs	r2, #0
 321 0058 83F83823 		strb	r2, [r3, #824]
 105:..\..\..\HamFlyAPI\src/hamfly_core_gimbal.c ****     g->pending_response_attr = 0u;
 322              		.loc 1 105 0
 323 005c 7B68     		ldr	r3, [r7, #4]
 324 005e 0022     		movs	r2, #0
 325 0060 A3F83A23 		strh	r2, [r3, #826]	@ movhi
 106:..\..\..\HamFlyAPI\src/hamfly_core_gimbal.c ****     g->pending_response_len  = 0u;
 326              		.loc 1 106 0
 327 0064 7B68     		ldr	r3, [r7, #4]
 328 0066 0022     		movs	r2, #0
 329 0068 A3F83C23 		strh	r2, [r3, #828]	@ movhi
 107:..\..\..\HamFlyAPI\src/hamfly_core_gimbal.c ****     g->pending_payload_len   = 0u;
 330              		.loc 1 107 0
 331 006c 7B68     		ldr	r3, [r7, #4]
 332 006e 0022     		movs	r2, #0
 333 0070 83F87E23 		strb	r2, [r3, #894]
 334 0074 00E0     		b	.L12
 335              	.L15:
  97:..\..\..\HamFlyAPI\src/hamfly_core_gimbal.c ****     hamfly_rb_clear(&g->rxbuf);
 336              		.loc 1 97 0
 337 0076 00BF     		nop
 338              	.L12:
 108:..\..\..\HamFlyAPI\src/hamfly_core_gimbal.c **** }
 339              		.loc 1 108 0
 340 0078 0837     		adds	r7, r7, #8
 341              		.cfi_def_cfa_offset 8
 342 007a BD46     		mov	sp, r7
 343              		.cfi_def_cfa_register 13
 344              		@ sp needed
 345 007c 80BD     		pop	{r7, pc}
 346              		.cfi_endproc
ARM GAS  C:\Users\JENNEW~1\AppData\Local\Temp\ccBYNzIK.s 			page 9


 347              	.LFE4:
 348              		.size	hamfly_reset, .-hamfly_reset
 349 007e 00BF     		.section	.text.hamfly_clear_statistics,"ax",%progbits
 350              		.align	2
 351              		.global	hamfly_clear_statistics
 352              		.thumb
 353              		.thumb_func
 354              		.type	hamfly_clear_statistics, %function
 355              	hamfly_clear_statistics:
 356              	.LFB5:
 109:..\..\..\HamFlyAPI\src/hamfly_core_gimbal.c **** 
 110:..\..\..\HamFlyAPI\src/hamfly_core_gimbal.c **** // Clear just the statistics. Used so far for clearing test modes.
 111:..\..\..\HamFlyAPI\src/hamfly_core_gimbal.c **** void hamfly_clear_statistics(hamfly_gimbal_t *g)
 112:..\..\..\HamFlyAPI\src/hamfly_core_gimbal.c **** {
 357              		.loc 1 112 0
 358              		.cfi_startproc
 359              		@ args = 0, pretend = 0, frame = 8
 360              		@ frame_needed = 1, uses_anonymous_args = 0
 361 0000 80B5     		push	{r7, lr}
 362              		.cfi_def_cfa_offset 8
 363              		.cfi_offset 7, -8
 364              		.cfi_offset 14, -4
 365 0002 82B0     		sub	sp, sp, #8
 366              		.cfi_def_cfa_offset 16
 367 0004 00AF     		add	r7, sp, #0
 368              		.cfi_def_cfa_register 7
 369 0006 7860     		str	r0, [r7, #4]
 113:..\..\..\HamFlyAPI\src/hamfly_core_gimbal.c ****     if (!g) return;
 370              		.loc 1 113 0
 371 0008 7B68     		ldr	r3, [r7, #4]
 372 000a 002B     		cmp	r3, #0
 373 000c 08D0     		beq	.L19
 114:..\..\..\HamFlyAPI\src/hamfly_core_gimbal.c ****     memset(&g->statistics, 0, sizeof(g->statistics));
 374              		.loc 1 114 0
 375 000e 7B68     		ldr	r3, [r7, #4]
 376 0010 03F58673 		add	r3, r3, #268
 377 0014 1822     		movs	r2, #24
 378 0016 0021     		movs	r1, #0
 379 0018 1846     		mov	r0, r3
 380 001a FFF7FEFF 		bl	memset
 381 001e 00E0     		b	.L16
 382              	.L19:
 113:..\..\..\HamFlyAPI\src/hamfly_core_gimbal.c ****     if (!g) return;
 383              		.loc 1 113 0
 384 0020 00BF     		nop
 385              	.L16:
 115:..\..\..\HamFlyAPI\src/hamfly_core_gimbal.c **** }
 386              		.loc 1 115 0
 387 0022 0837     		adds	r7, r7, #8
 388              		.cfi_def_cfa_offset 8
 389 0024 BD46     		mov	sp, r7
 390              		.cfi_def_cfa_register 13
 391              		@ sp needed
 392 0026 80BD     		pop	{r7, pc}
 393              		.cfi_endproc
 394              	.LFE5:
 395              		.size	hamfly_clear_statistics, .-hamfly_clear_statistics
ARM GAS  C:\Users\JENNEW~1\AppData\Local\Temp\ccBYNzIK.s 			page 10


 396              		.section	.text.hamfly_on_rx_byte,"ax",%progbits
 397              		.align	2
 398              		.global	hamfly_on_rx_byte
 399              		.thumb
 400              		.thumb_func
 401              		.type	hamfly_on_rx_byte, %function
 402              	hamfly_on_rx_byte:
 403              	.LFB6:
 116:..\..\..\HamFlyAPI\src/hamfly_core_gimbal.c **** 
 117:..\..\..\HamFlyAPI\src/hamfly_core_gimbal.c **** // ============================================================================
 118:..\..\..\HamFlyAPI\src/hamfly_core_gimbal.c **** // ISR Helpers
 119:..\..\..\HamFlyAPI\src/hamfly_core_gimbal.c **** // ============================================================================
 120:..\..\..\HamFlyAPI\src/hamfly_core_gimbal.c **** 
 121:..\..\..\HamFlyAPI\src/hamfly_core_gimbal.c **** // ISR calls to push Rx bytes into the ring buffer.
 122:..\..\..\HamFlyAPI\src/hamfly_core_gimbal.c **** void hamfly_on_rx_byte(hamfly_gimbal_t *g, uint8_t b)
 123:..\..\..\HamFlyAPI\src/hamfly_core_gimbal.c **** {
 404              		.loc 1 123 0
 405              		.cfi_startproc
 406              		@ args = 0, pretend = 0, frame = 8
 407              		@ frame_needed = 1, uses_anonymous_args = 0
 408 0000 80B5     		push	{r7, lr}
 409              		.cfi_def_cfa_offset 8
 410              		.cfi_offset 7, -8
 411              		.cfi_offset 14, -4
 412 0002 82B0     		sub	sp, sp, #8
 413              		.cfi_def_cfa_offset 16
 414 0004 00AF     		add	r7, sp, #0
 415              		.cfi_def_cfa_register 7
 416 0006 7860     		str	r0, [r7, #4]
 417 0008 0B46     		mov	r3, r1
 418 000a FB70     		strb	r3, [r7, #3]
 124:..\..\..\HamFlyAPI\src/hamfly_core_gimbal.c ****     if (!g) return;
 419              		.loc 1 124 0
 420 000c 7B68     		ldr	r3, [r7, #4]
 421 000e 002B     		cmp	r3, #0
 422 0010 0FD0     		beq	.L23
 125:..\..\..\HamFlyAPI\src/hamfly_core_gimbal.c ****     (void)hamfly_rb_push(&g->rxbuf, b);
 423              		.loc 1 125 0
 424 0012 7B68     		ldr	r3, [r7, #4]
 425 0014 03F59273 		add	r3, r3, #292
 426 0018 FA78     		ldrb	r2, [r7, #3]	@ zero_extendqisi2
 427 001a 1146     		mov	r1, r2
 428 001c 1846     		mov	r0, r3
 429 001e FFF7FEFF 		bl	hamfly_rb_push
 126:..\..\..\HamFlyAPI\src/hamfly_core_gimbal.c ****     g->statistics.rxbuf_drops = g->rxbuf.drops;
 430              		.loc 1 126 0
 431 0022 7B68     		ldr	r3, [r7, #4]
 432 0024 B3F82832 		ldrh	r3, [r3, #552]	@ movhi
 433 0028 9AB2     		uxth	r2, r3
 434 002a 7B68     		ldr	r3, [r7, #4]
 435 002c A3F82021 		strh	r2, [r3, #288]	@ movhi
 436 0030 00E0     		b	.L20
 437              	.L23:
 124:..\..\..\HamFlyAPI\src/hamfly_core_gimbal.c ****     if (!g) return;
 438              		.loc 1 124 0
 439 0032 00BF     		nop
 440              	.L20:
ARM GAS  C:\Users\JENNEW~1\AppData\Local\Temp\ccBYNzIK.s 			page 11


 127:..\..\..\HamFlyAPI\src/hamfly_core_gimbal.c **** }
 441              		.loc 1 127 0
 442 0034 0837     		adds	r7, r7, #8
 443              		.cfi_def_cfa_offset 8
 444 0036 BD46     		mov	sp, r7
 445              		.cfi_def_cfa_register 13
 446              		@ sp needed
 447 0038 80BD     		pop	{r7, pc}
 448              		.cfi_endproc
 449              	.LFE6:
 450              		.size	hamfly_on_rx_byte, .-hamfly_on_rx_byte
 451 003a 00BF     		.section	.text.hamfly_on_uart_err_flags,"ax",%progbits
 452              		.align	2
 453              		.global	hamfly_on_uart_err_flags
 454              		.thumb
 455              		.thumb_func
 456              		.type	hamfly_on_uart_err_flags, %function
 457              	hamfly_on_uart_err_flags:
 458              	.LFB7:
 128:..\..\..\HamFlyAPI\src/hamfly_core_gimbal.c **** 
 129:..\..\..\HamFlyAPI\src/hamfly_core_gimbal.c **** // ISR calls to set UART error flags.
 130:..\..\..\HamFlyAPI\src/hamfly_core_gimbal.c **** void hamfly_on_uart_err_flags(hamfly_gimbal_t *g, uint8_t err_mask)
 131:..\..\..\HamFlyAPI\src/hamfly_core_gimbal.c **** {
 459              		.loc 1 131 0
 460              		.cfi_startproc
 461              		@ args = 0, pretend = 0, frame = 8
 462              		@ frame_needed = 1, uses_anonymous_args = 0
 463              		@ link register save eliminated.
 464 0000 80B4     		push	{r7}
 465              		.cfi_def_cfa_offset 4
 466              		.cfi_offset 7, -4
 467 0002 83B0     		sub	sp, sp, #12
 468              		.cfi_def_cfa_offset 16
 469 0004 00AF     		add	r7, sp, #0
 470              		.cfi_def_cfa_register 7
 471 0006 7860     		str	r0, [r7, #4]
 472 0008 0B46     		mov	r3, r1
 473 000a FB70     		strb	r3, [r7, #3]
 132:..\..\..\HamFlyAPI\src/hamfly_core_gimbal.c ****     if (!g) return;
 474              		.loc 1 132 0
 475 000c 7B68     		ldr	r3, [r7, #4]
 476 000e 002B     		cmp	r3, #0
 477 0010 09D0     		beq	.L27
 133:..\..\..\HamFlyAPI\src/hamfly_core_gimbal.c ****     g->statistics.uart_err_flags |= err_mask;
 478              		.loc 1 133 0
 479 0012 7B68     		ldr	r3, [r7, #4]
 480 0014 93F82221 		ldrb	r2, [r3, #290]	@ zero_extendqisi2
 481 0018 FB78     		ldrb	r3, [r7, #3]
 482 001a 1343     		orrs	r3, r3, r2
 483 001c DAB2     		uxtb	r2, r3
 484 001e 7B68     		ldr	r3, [r7, #4]
 485 0020 83F82221 		strb	r2, [r3, #290]
 486 0024 00E0     		b	.L24
 487              	.L27:
 132:..\..\..\HamFlyAPI\src/hamfly_core_gimbal.c ****     if (!g) return;
 488              		.loc 1 132 0
 489 0026 00BF     		nop
ARM GAS  C:\Users\JENNEW~1\AppData\Local\Temp\ccBYNzIK.s 			page 12


 490              	.L24:
 134:..\..\..\HamFlyAPI\src/hamfly_core_gimbal.c **** }
 491              		.loc 1 134 0
 492 0028 0C37     		adds	r7, r7, #12
 493              		.cfi_def_cfa_offset 4
 494 002a BD46     		mov	sp, r7
 495              		.cfi_def_cfa_register 13
 496              		@ sp needed
 497 002c 80BC     		pop	{r7}
 498              		.cfi_restore 7
 499              		.cfi_def_cfa_offset 0
 500 002e 7047     		bx	lr
 501              		.cfi_endproc
 502              	.LFE7:
 503              		.size	hamfly_on_uart_err_flags, .-hamfly_on_uart_err_flags
 504              		.section	.text.hamfly_pump,"ax",%progbits
 505              		.align	2
 506              		.global	hamfly_pump
 507              		.thumb
 508              		.thumb_func
 509              		.type	hamfly_pump, %function
 510              	hamfly_pump:
 511              	.LFB8:
 135:..\..\..\HamFlyAPI\src/hamfly_core_gimbal.c **** 
 136:..\..\..\HamFlyAPI\src/hamfly_core_gimbal.c **** // ============================================================================
 137:..\..\..\HamFlyAPI\src/hamfly_core_gimbal.c **** // Hamfly Pump: parse incoming bytes into telemetry and pending attr responses.
 138:..\..\..\HamFlyAPI\src/hamfly_core_gimbal.c **** // ============================================================================
 139:..\..\..\HamFlyAPI\src/hamfly_core_gimbal.c **** void hamfly_pump(hamfly_gimbal_t *g)
 140:..\..\..\HamFlyAPI\src/hamfly_core_gimbal.c **** {
 512              		.loc 1 140 0
 513              		.cfi_startproc
 514              		@ args = 0, pretend = 0, frame = 40
 515              		@ frame_needed = 1, uses_anonymous_args = 0
 516 0000 80B5     		push	{r7, lr}
 517              		.cfi_def_cfa_offset 8
 518              		.cfi_offset 7, -8
 519              		.cfi_offset 14, -4
 520 0002 8AB0     		sub	sp, sp, #40
 521              		.cfi_def_cfa_offset 48
 522 0004 00AF     		add	r7, sp, #0
 523              		.cfi_def_cfa_register 7
 524 0006 7860     		str	r0, [r7, #4]
 141:..\..\..\HamFlyAPI\src/hamfly_core_gimbal.c ****     if (!g) return;
 525              		.loc 1 141 0
 526 0008 7B68     		ldr	r3, [r7, #4]
 527 000a 002B     		cmp	r3, #0
 528 000c 00F02F81 		beq	.L48
 142:..\..\..\HamFlyAPI\src/hamfly_core_gimbal.c **** 
 143:..\..\..\HamFlyAPI\src/hamfly_core_gimbal.c ****     uint8_t  b;
 144:..\..\..\HamFlyAPI\src/hamfly_core_gimbal.c ****     // Snapshot in number of checksum failures so we can keep a running count.
 145:..\..\..\HamFlyAPI\src/hamfly_core_gimbal.c ****     uint32_t chkfail_before = QX_CommsPorts[HAMFLY_QX_PORT].ChkSumFail_cnt;
 529              		.loc 1 145 0
 530 0010 994B     		ldr	r3, .L50
 531 0012 D3F88030 		ldr	r3, [r3, #128]
 532 0016 7B62     		str	r3, [r7, #36]
 146:..\..\..\HamFlyAPI\src/hamfly_core_gimbal.c **** 
 147:..\..\..\HamFlyAPI\src/hamfly_core_gimbal.c ****     // While there are bytes in rxbuf, pop into address &b
ARM GAS  C:\Users\JENNEW~1\AppData\Local\Temp\ccBYNzIK.s 			page 13


 148:..\..\..\HamFlyAPI\src/hamfly_core_gimbal.c ****     while (hamfly_rb_pop(&g->rxbuf, &b)) {
 533              		.loc 1 148 0
 534 0018 02E1     		b	.L31
 535              	.L46:
 536              	.LBB2:
 149:..\..\..\HamFlyAPI\src/hamfly_core_gimbal.c ****         // Feed byte b into QX state machine until packet complete.
 150:..\..\..\HamFlyAPI\src/hamfly_core_gimbal.c ****         g->statistics.rx_bytes++;
 537              		.loc 1 150 0
 538 001a 7B68     		ldr	r3, [r7, #4]
 539 001c D3F81831 		ldr	r3, [r3, #280]
 540 0020 5A1C     		adds	r2, r3, #1
 541 0022 7B68     		ldr	r3, [r7, #4]
 542 0024 C3F81821 		str	r2, [r3, #280]
 151:..\..\..\HamFlyAPI\src/hamfly_core_gimbal.c ****         int got_packet = QX_StreamRxCharSM(HAMFLY_QX_PORT, (unsigned char)b);
 543              		.loc 1 151 0
 544 0028 FB7A     		ldrb	r3, [r7, #11]	@ zero_extendqisi2
 545 002a 1946     		mov	r1, r3
 546 002c 0020     		movs	r0, #0
 547 002e FFF7FEFF 		bl	QX_StreamRxCharSM
 548 0032 0346     		mov	r3, r0
 549 0034 3B62     		str	r3, [r7, #32]
 152:..\..\..\HamFlyAPI\src/hamfly_core_gimbal.c ****         
 153:..\..\..\HamFlyAPI\src/hamfly_core_gimbal.c ****         if (!got_packet) continue;  // Stops here unless complete packet.
 550              		.loc 1 153 0
 551 0036 3B6A     		ldr	r3, [r7, #32]
 552 0038 002B     		cmp	r3, #0
 553 003a 00D1     		bne	.L32
 554              		.loc 1 153 0 is_stmt 0 discriminator 1
 555 003c F0E0     		b	.L31
 556              	.L32:
 154:..\..\..\HamFlyAPI\src/hamfly_core_gimbal.c ****         
 155:..\..\..\HamFlyAPI\src/hamfly_core_gimbal.c ****         g->statistics.rx_packets++;  // Count a full packet.
 557              		.loc 1 155 0 is_stmt 1
 558 003e 7B68     		ldr	r3, [r7, #4]
 559 0040 D3F81431 		ldr	r3, [r3, #276]
 560 0044 5A1C     		adds	r2, r3, #1
 561 0046 7B68     		ldr	r3, [r7, #4]
 562 0048 C3F81421 		str	r2, [r3, #276]
 156:..\..\..\HamFlyAPI\src/hamfly_core_gimbal.c **** 
 157:..\..\..\HamFlyAPI\src/hamfly_core_gimbal.c ****         // Grab the packet data out of the QX state machine for parsing.
 158:..\..\..\HamFlyAPI\src/hamfly_core_gimbal.c ****         QX_CommsPort_t *port = &QX_CommsPorts[HAMFLY_QX_PORT];
 563              		.loc 1 158 0
 564 004c 8A4B     		ldr	r3, .L50
 565 004e FB61     		str	r3, [r7, #28]
 159:..\..\..\HamFlyAPI\src/hamfly_core_gimbal.c ****         uint16_t rxattr = (uint16_t)port->RxMsg.Header.Attrib;
 566              		.loc 1 159 0
 567 0050 FB69     		ldr	r3, [r7, #28]
 568 0052 1B69     		ldr	r3, [r3, #16]
 569 0054 7B83     		strh	r3, [r7, #26]	@ movhi
 160:..\..\..\HamFlyAPI\src/hamfly_core_gimbal.c ****         uint16_t rxlen  = (uint16_t)port->RxMsg.Header.MsgLength;
 570              		.loc 1 160 0
 571 0056 FB69     		ldr	r3, [r7, #28]
 572 0058 9B89     		ldrh	r3, [r3, #12]	@ movhi
 573 005a 3B83     		strh	r3, [r7, #24]	@ movhi
 161:..\..\..\HamFlyAPI\src/hamfly_core_gimbal.c ****         const uint8_t *pay = port->RxMsg.BufPayloadStart_p;
 574              		.loc 1 161 0
 575 005c FB69     		ldr	r3, [r7, #28]
ARM GAS  C:\Users\JENNEW~1\AppData\Local\Temp\ccBYNzIK.s 			page 14


 576 005e 1B6F     		ldr	r3, [r3, #112]
 577 0060 7B61     		str	r3, [r7, #20]
 162:..\..\..\HamFlyAPI\src/hamfly_core_gimbal.c **** 
 163:..\..\..\HamFlyAPI\src/hamfly_core_gimbal.c ****         // QX callback automatically decodes any QX287 telemetry in case.
 164:..\..\..\HamFlyAPI\src/hamfly_core_gimbal.c ****         // Take a moment to sync the 287 fields in case anything updated.
 165:..\..\..\HamFlyAPI\src/hamfly_core_gimbal.c ****         copy_qx287_to_telemetry(&g->telemetry);
 578              		.loc 1 165 0
 579 0062 7B68     		ldr	r3, [r7, #4]
 580 0064 2033     		adds	r3, r3, #32
 581 0066 1846     		mov	r0, r3
 582 0068 FFF7FEFF 		bl	copy_qx287_to_telemetry
 166:..\..\..\HamFlyAPI\src/hamfly_core_gimbal.c **** 
 167:..\..\..\HamFlyAPI\src/hamfly_core_gimbal.c ****         // Switch case for telemetry attributes I have decoded.
 168:..\..\..\HamFlyAPI\src/hamfly_core_gimbal.c ****         // Each attr needs an appropriate decode function to read the raw bytes
 169:..\..\..\HamFlyAPI\src/hamfly_core_gimbal.c ****         // into hamfly_telemetry_t.
 170:..\..\..\HamFlyAPI\src/hamfly_core_gimbal.c ****         // TODO: Implement doc of current progress sniffing and decoding telem.
 171:..\..\..\HamFlyAPI\src/hamfly_core_gimbal.c ****         if (pay) {
 583              		.loc 1 171 0
 584 006c 7B69     		ldr	r3, [r7, #20]
 585 006e 002B     		cmp	r3, #0
 586 0070 00F09F80 		beq	.L33
 172:..\..\..\HamFlyAPI\src/hamfly_core_gimbal.c ****             switch (rxattr) {
 587              		.loc 1 172 0
 588 0074 7B8B     		ldrh	r3, [r7, #26]
 589 0076 013B     		subs	r3, r3, #1
 590 0078 2F2B     		cmp	r3, #47
 591 007a 00F29980 		bhi	.L49
 592 007e 01A2     		adr	r2, .L36
 593 0080 52F823F0 		ldr	pc, [r2, r3, lsl #2]
 594              		.p2align 2
 595              	.L36:
 596 0084 7B010000 		.word	.L35+1
 597 0088 B1010000 		.word	.L49+1
 598 008c 57010000 		.word	.L37+1
 599 0090 45010000 		.word	.L38+1
 600 0094 B1010000 		.word	.L49+1
 601 0098 B1010000 		.word	.L49+1
 602 009c B1010000 		.word	.L49+1
 603 00a0 B1010000 		.word	.L49+1
 604 00a4 B1010000 		.word	.L49+1
 605 00a8 B1010000 		.word	.L49+1
 606 00ac B1010000 		.word	.L49+1
 607 00b0 8D010000 		.word	.L39+1
 608 00b4 B1010000 		.word	.L49+1
 609 00b8 B1010000 		.word	.L49+1
 610 00bc B1010000 		.word	.L49+1
 611 00c0 B1010000 		.word	.L49+1
 612 00c4 B1010000 		.word	.L49+1
 613 00c8 B1010000 		.word	.L49+1
 614 00cc B1010000 		.word	.L49+1
 615 00d0 B1010000 		.word	.L49+1
 616 00d4 B1010000 		.word	.L49+1
 617 00d8 69010000 		.word	.L40+1
 618 00dc B1010000 		.word	.L49+1
 619 00e0 B1010000 		.word	.L49+1
 620 00e4 B1010000 		.word	.L49+1
 621 00e8 B1010000 		.word	.L49+1
ARM GAS  C:\Users\JENNEW~1\AppData\Local\Temp\ccBYNzIK.s 			page 15


 622 00ec B1010000 		.word	.L49+1
 623 00f0 B1010000 		.word	.L49+1
 624 00f4 B1010000 		.word	.L49+1
 625 00f8 B1010000 		.word	.L49+1
 626 00fc B1010000 		.word	.L49+1
 627 0100 B1010000 		.word	.L49+1
 628 0104 B1010000 		.word	.L49+1
 629 0108 B1010000 		.word	.L49+1
 630 010c B1010000 		.word	.L49+1
 631 0110 B1010000 		.word	.L49+1
 632 0114 B1010000 		.word	.L49+1
 633 0118 B1010000 		.word	.L49+1
 634 011c B1010000 		.word	.L49+1
 635 0120 B1010000 		.word	.L49+1
 636 0124 B1010000 		.word	.L49+1
 637 0128 B1010000 		.word	.L49+1
 638 012c B1010000 		.word	.L49+1
 639 0130 B1010000 		.word	.L49+1
 640 0134 B1010000 		.word	.L49+1
 641 0138 B1010000 		.word	.L49+1
 642 013c B1010000 		.word	.L49+1
 643 0140 9F010000 		.word	.L41+1
 644              		.p2align 1
 645              	.L38:
 173:..\..\..\HamFlyAPI\src/hamfly_core_gimbal.c ****                 case 4u:  hamfly_decode_gps      (pay, rxlen, &g->telemetry);
 646              		.loc 1 173 0
 647 0144 7B68     		ldr	r3, [r7, #4]
 648 0146 03F12002 		add	r2, r3, #32
 649 014a 3B8B     		ldrh	r3, [r7, #24]
 650 014c 1946     		mov	r1, r3
 651 014e 7869     		ldr	r0, [r7, #20]
 652 0150 FFF7FEFF 		bl	hamfly_decode_gps
 174:..\..\..\HamFlyAPI\src/hamfly_core_gimbal.c ****                 break;
 653              		.loc 1 174 0
 654 0154 2DE0     		b	.L33
 655              	.L37:
 175:..\..\..\HamFlyAPI\src/hamfly_core_gimbal.c ****                 case 3u:  hamfly_decode_baro     (pay, rxlen, &g->telemetry);
 656              		.loc 1 175 0
 657 0156 7B68     		ldr	r3, [r7, #4]
 658 0158 03F12002 		add	r2, r3, #32
 659 015c 3B8B     		ldrh	r3, [r7, #24]
 660 015e 1946     		mov	r1, r3
 661 0160 7869     		ldr	r0, [r7, #20]
 662 0162 FFF7FEFF 		bl	hamfly_decode_baro
 176:..\..\..\HamFlyAPI\src/hamfly_core_gimbal.c ****                 break;
 663              		.loc 1 176 0
 664 0166 24E0     		b	.L33
 665              	.L40:
 177:..\..\..\HamFlyAPI\src/hamfly_core_gimbal.c ****                 case 22u: hamfly_decode_attitude (pay, rxlen, &g->telemetry);
 666              		.loc 1 177 0
 667 0168 7B68     		ldr	r3, [r7, #4]
 668 016a 03F12002 		add	r2, r3, #32
 669 016e 3B8B     		ldrh	r3, [r7, #24]
 670 0170 1946     		mov	r1, r3
 671 0172 7869     		ldr	r0, [r7, #20]
 672 0174 FFF7FEFF 		bl	hamfly_decode_attitude
 178:..\..\..\HamFlyAPI\src/hamfly_core_gimbal.c ****                 break;
ARM GAS  C:\Users\JENNEW~1\AppData\Local\Temp\ccBYNzIK.s 			page 16


 673              		.loc 1 178 0
 674 0178 1BE0     		b	.L33
 675              	.L35:
 179:..\..\..\HamFlyAPI\src/hamfly_core_gimbal.c ****                 case 1u:  hamfly_decode_sysstat  (pay, rxlen, &g->telemetry);
 676              		.loc 1 179 0
 677 017a 7B68     		ldr	r3, [r7, #4]
 678 017c 03F12002 		add	r2, r3, #32
 679 0180 3B8B     		ldrh	r3, [r7, #24]
 680 0182 1946     		mov	r1, r3
 681 0184 7869     		ldr	r0, [r7, #20]
 682 0186 FFF7FEFF 		bl	hamfly_decode_sysstat
 180:..\..\..\HamFlyAPI\src/hamfly_core_gimbal.c ****                 break;
 683              		.loc 1 180 0
 684 018a 12E0     		b	.L33
 685              	.L39:
 181:..\..\..\HamFlyAPI\src/hamfly_core_gimbal.c ****                 case 12u: hamfly_decode_mag      (pay, rxlen, &g->telemetry);
 686              		.loc 1 181 0
 687 018c 7B68     		ldr	r3, [r7, #4]
 688 018e 03F12002 		add	r2, r3, #32
 689 0192 3B8B     		ldrh	r3, [r7, #24]
 690 0194 1946     		mov	r1, r3
 691 0196 7869     		ldr	r0, [r7, #20]
 692 0198 FFF7FEFF 		bl	hamfly_decode_mag
 182:..\..\..\HamFlyAPI\src/hamfly_core_gimbal.c ****                 break;
 693              		.loc 1 182 0
 694 019c 09E0     		b	.L33
 695              	.L41:
 183:..\..\..\HamFlyAPI\src/hamfly_core_gimbal.c ****                 case 48u: hamfly_decode_sysecho  (pay, rxlen, &g->telemetry);
 696              		.loc 1 183 0
 697 019e 7B68     		ldr	r3, [r7, #4]
 698 01a0 03F12002 		add	r2, r3, #32
 699 01a4 3B8B     		ldrh	r3, [r7, #24]
 700 01a6 1946     		mov	r1, r3
 701 01a8 7869     		ldr	r0, [r7, #20]
 702 01aa FFF7FEFF 		bl	hamfly_decode_sysecho
 184:..\..\..\HamFlyAPI\src/hamfly_core_gimbal.c ****                 break;
 703              		.loc 1 184 0
 704 01ae 00E0     		b	.L33
 705              	.L49:
 185:..\..\..\HamFlyAPI\src/hamfly_core_gimbal.c ****                 default:
 186:..\..\..\HamFlyAPI\src/hamfly_core_gimbal.c ****                 break;
 706              		.loc 1 186 0
 707 01b0 00BF     		nop
 708              	.L33:
 187:..\..\..\HamFlyAPI\src/hamfly_core_gimbal.c ****             }
 188:..\..\..\HamFlyAPI\src/hamfly_core_gimbal.c ****         }
 189:..\..\..\HamFlyAPI\src/hamfly_core_gimbal.c **** 
 190:..\..\..\HamFlyAPI\src/hamfly_core_gimbal.c ****         // IF there is a pending attr AND it matches this packet's attr
 191:..\..\..\HamFlyAPI\src/hamfly_core_gimbal.c ****         // THEN capture this payload into the pending slot and mark ready.
 192:..\..\..\HamFlyAPI\src/hamfly_core_gimbal.c ****         if (g->pending_attr != 0u && rxattr == g->pending_attr) {
 709              		.loc 1 192 0
 710 01b2 7B68     		ldr	r3, [r7, #4]
 711 01b4 B3F83233 		ldrh	r3, [r3, #818]
 712 01b8 002B     		cmp	r3, #0
 713 01ba 31D0     		beq	.L31
 714              		.loc 1 192 0 is_stmt 0 discriminator 1
 715 01bc 7B68     		ldr	r3, [r7, #4]
ARM GAS  C:\Users\JENNEW~1\AppData\Local\Temp\ccBYNzIK.s 			page 17


 716 01be B3F83233 		ldrh	r3, [r3, #818]
 717 01c2 7A8B     		ldrh	r2, [r7, #26]
 718 01c4 9A42     		cmp	r2, r3
 719 01c6 2BD1     		bne	.L31
 720              	.LBB3:
 193:..\..\..\HamFlyAPI\src/hamfly_core_gimbal.c ****             // Populate pending response fields for debug.
 194:..\..\..\HamFlyAPI\src/hamfly_core_gimbal.c ****             g->pending_response_attr = rxattr;
 721              		.loc 1 194 0 is_stmt 1
 722 01c8 7B68     		ldr	r3, [r7, #4]
 723 01ca 7A8B     		ldrh	r2, [r7, #26]	@ movhi
 724 01cc A3F83A23 		strh	r2, [r3, #826]	@ movhi
 195:..\..\..\HamFlyAPI\src/hamfly_core_gimbal.c ****             g->pending_response_len  = rxlen;
 725              		.loc 1 195 0
 726 01d0 7B68     		ldr	r3, [r7, #4]
 727 01d2 3A8B     		ldrh	r2, [r7, #24]	@ movhi
 728 01d4 A3F83C23 		strh	r2, [r3, #828]	@ movhi
 196:..\..\..\HamFlyAPI\src/hamfly_core_gimbal.c ****             g->pending_ready         = true;
 729              		.loc 1 196 0
 730 01d8 7B68     		ldr	r3, [r7, #4]
 731 01da 0122     		movs	r2, #1
 732 01dc 83F83823 		strb	r2, [r3, #824]
 197:..\..\..\HamFlyAPI\src/hamfly_core_gimbal.c **** 
 198:..\..\..\HamFlyAPI\src/hamfly_core_gimbal.c ****             // Defensive programming, may be overkill.
 199:..\..\..\HamFlyAPI\src/hamfly_core_gimbal.c ****             // We assume buffers are max 32 bytes according to the FreeflyAPI
 200:..\..\..\HamFlyAPI\src/hamfly_core_gimbal.c ****             // docs, I have given 64 bytes in case, but if we somehow go beyond
 201:..\..\..\HamFlyAPI\src/hamfly_core_gimbal.c ****             // it clips the length.
 202:..\..\..\HamFlyAPI\src/hamfly_core_gimbal.c ****             uint8_t snap_len = (rxlen < (uint16_t)sizeof(g->pending_payload))
 733              		.loc 1 202 0
 734 01e0 3B8B     		ldrh	r3, [r7, #24]
 735 01e2 3F2B     		cmp	r3, #63
 736 01e4 02D8     		bhi	.L42
 737              		.loc 1 202 0 is_stmt 0 discriminator 1
 738 01e6 3B8B     		ldrh	r3, [r7, #24]	@ movhi
 739 01e8 DBB2     		uxtb	r3, r3
 740 01ea 00E0     		b	.L43
 741              	.L42:
 742              		.loc 1 202 0 discriminator 2
 743 01ec 4023     		movs	r3, #64
 744              	.L43:
 745              		.loc 1 202 0 discriminator 4
 746 01ee FB74     		strb	r3, [r7, #19]
 203:..\..\..\HamFlyAPI\src/hamfly_core_gimbal.c ****                                ? (uint8_t)rxlen
 204:..\..\..\HamFlyAPI\src/hamfly_core_gimbal.c ****                                : (uint8_t)sizeof(g->pending_payload);
 205:..\..\..\HamFlyAPI\src/hamfly_core_gimbal.c ****             // Check the payload is not null to avoid dereferencing a null 
 206:..\..\..\HamFlyAPI\src/hamfly_core_gimbal.c ****             // pointer if valid copies max snap_len bytes into the 
 207:..\..\..\HamFlyAPI\src/hamfly_core_gimbal.c ****             // pending_payload.
 208:..\..\..\HamFlyAPI\src/hamfly_core_gimbal.c ****             if (pay) memcpy(g->pending_payload, pay, snap_len);
 747              		.loc 1 208 0 is_stmt 1 discriminator 4
 748 01f0 7B69     		ldr	r3, [r7, #20]
 749 01f2 002B     		cmp	r3, #0
 750 01f4 08D0     		beq	.L44
 751              		.loc 1 208 0 is_stmt 0 discriminator 1
 752 01f6 7B68     		ldr	r3, [r7, #4]
 753 01f8 03F23E33 		addw	r3, r3, #830
 754 01fc FA7C     		ldrb	r2, [r7, #19]	@ zero_extendqisi2
 755 01fe 7969     		ldr	r1, [r7, #20]
 756 0200 1846     		mov	r0, r3
ARM GAS  C:\Users\JENNEW~1\AppData\Local\Temp\ccBYNzIK.s 			page 18


 757 0202 FFF7FEFF 		bl	memcpy
 758 0206 07E0     		b	.L45
 759              	.L44:
 209:..\..\..\HamFlyAPI\src/hamfly_core_gimbal.c ****             else     memset(g->pending_payload, 0,   snap_len);
 760              		.loc 1 209 0 is_stmt 1
 761 0208 7B68     		ldr	r3, [r7, #4]
 762 020a 03F23E33 		addw	r3, r3, #830
 763 020e FA7C     		ldrb	r2, [r7, #19]	@ zero_extendqisi2
 764 0210 0021     		movs	r1, #0
 765 0212 1846     		mov	r0, r3
 766 0214 FFF7FEFF 		bl	memset
 767              	.L45:
 210:..\..\..\HamFlyAPI\src/hamfly_core_gimbal.c ****             g->pending_payload_len = snap_len;
 768              		.loc 1 210 0
 769 0218 7B68     		ldr	r3, [r7, #4]
 770 021a FA7C     		ldrb	r2, [r7, #19]
 771 021c 83F87E23 		strb	r2, [r3, #894]
 772              	.L31:
 773              	.LBE3:
 774              	.LBE2:
 148:..\..\..\HamFlyAPI\src/hamfly_core_gimbal.c ****         // Feed byte b into QX state machine until packet complete.
 775              		.loc 1 148 0
 776 0220 7B68     		ldr	r3, [r7, #4]
 777 0222 03F59273 		add	r3, r3, #292
 778 0226 07F10B02 		add	r2, r7, #11
 779 022a 1146     		mov	r1, r2
 780 022c 1846     		mov	r0, r3
 781 022e FFF7FEFF 		bl	hamfly_rb_pop
 782 0232 0346     		mov	r3, r0
 783 0234 002B     		cmp	r3, #0
 784 0236 7FF4F0AE 		bne	.L46
 211:..\..\..\HamFlyAPI\src/hamfly_core_gimbal.c ****         }
 212:..\..\..\HamFlyAPI\src/hamfly_core_gimbal.c ****     }
 213:..\..\..\HamFlyAPI\src/hamfly_core_gimbal.c **** 
 214:..\..\..\HamFlyAPI\src/hamfly_core_gimbal.c ****     // Count number of checksum fails that have accumulated.
 215:..\..\..\HamFlyAPI\src/hamfly_core_gimbal.c ****     uint32_t chkfail_after = QX_CommsPorts[HAMFLY_QX_PORT].ChkSumFail_cnt;
 785              		.loc 1 215 0
 786 023a 0F4B     		ldr	r3, .L50
 787 023c D3F88030 		ldr	r3, [r3, #128]
 788 0240 FB60     		str	r3, [r7, #12]
 216:..\..\..\HamFlyAPI\src/hamfly_core_gimbal.c ****     if (chkfail_after > chkfail_before)
 789              		.loc 1 216 0
 790 0242 FA68     		ldr	r2, [r7, #12]
 791 0244 7B6A     		ldr	r3, [r7, #36]
 792 0246 9A42     		cmp	r2, r3
 793 0248 09D9     		bls	.L47
 217:..\..\..\HamFlyAPI\src/hamfly_core_gimbal.c ****         g->statistics.rx_bad_checksum += (chkfail_after - chkfail_before);
 794              		.loc 1 217 0
 795 024a 7B68     		ldr	r3, [r7, #4]
 796 024c D3F81C21 		ldr	r2, [r3, #284]
 797 0250 F968     		ldr	r1, [r7, #12]
 798 0252 7B6A     		ldr	r3, [r7, #36]
 799 0254 CB1A     		subs	r3, r1, r3
 800 0256 1A44     		add	r2, r2, r3
 801 0258 7B68     		ldr	r3, [r7, #4]
 802 025a C3F81C21 		str	r2, [r3, #284]
 803              	.L47:
ARM GAS  C:\Users\JENNEW~1\AppData\Local\Temp\ccBYNzIK.s 			page 19


 218:..\..\..\HamFlyAPI\src/hamfly_core_gimbal.c ****     // Count any drops from the ring buffer as well.
 219:..\..\..\HamFlyAPI\src/hamfly_core_gimbal.c ****     g->statistics.rxbuf_drops = g->rxbuf.drops;
 804              		.loc 1 219 0
 805 025e 7B68     		ldr	r3, [r7, #4]
 806 0260 B3F82832 		ldrh	r3, [r3, #552]	@ movhi
 807 0264 9AB2     		uxth	r2, r3
 808 0266 7B68     		ldr	r3, [r7, #4]
 809 0268 A3F82021 		strh	r2, [r3, #288]	@ movhi
 810 026c 00E0     		b	.L28
 811              	.L48:
 141:..\..\..\HamFlyAPI\src/hamfly_core_gimbal.c **** 
 812              		.loc 1 141 0
 813 026e 00BF     		nop
 814              	.L28:
 220:..\..\..\HamFlyAPI\src/hamfly_core_gimbal.c **** }
 815              		.loc 1 220 0
 816 0270 2837     		adds	r7, r7, #40
 817              		.cfi_def_cfa_offset 8
 818 0272 BD46     		mov	sp, r7
 819              		.cfi_def_cfa_register 13
 820              		@ sp needed
 821 0274 80BD     		pop	{r7, pc}
 822              	.L51:
 823 0276 00BF     		.align	2
 824              	.L50:
 825 0278 00000000 		.word	QX_CommsPorts
 826              		.cfi_endproc
 827              	.LFE8:
 828              		.size	hamfly_pump, .-hamfly_pump
 829              		.section	.text.hamfly_send_control,"ax",%progbits
 830              		.align	2
 831              		.global	hamfly_send_control
 832              		.thumb
 833              		.thumb_func
 834              		.type	hamfly_send_control, %function
 835              	hamfly_send_control:
 836              	.LFB9:
 221:..\..\..\HamFlyAPI\src/hamfly_core_gimbal.c **** 
 222:..\..\..\HamFlyAPI\src/hamfly_core_gimbal.c **** // ============================================================================
 223:..\..\..\HamFlyAPI\src/hamfly_core_gimbal.c **** // Hamfly Send Control: FreeFlyAPI QX277 send wrapper.
 224:..\..\..\HamFlyAPI\src/hamfly_core_gimbal.c **** // ============================================================================
 225:..\..\..\HamFlyAPI\src/hamfly_core_gimbal.c **** hamfly_result_t hamfly_send_control(hamfly_gimbal_t *g,
 226:..\..\..\HamFlyAPI\src/hamfly_core_gimbal.c ****                                      const hamfly_control_t *ctl)
 227:..\..\..\HamFlyAPI\src/hamfly_core_gimbal.c **** {
 837              		.loc 1 227 0
 838              		.cfi_startproc
 839              		@ args = 0, pretend = 0, frame = 16
 840              		@ frame_needed = 1, uses_anonymous_args = 0
 841 0000 B0B5     		push	{r4, r5, r7, lr}
 842              		.cfi_def_cfa_offset 16
 843              		.cfi_offset 4, -16
 844              		.cfi_offset 5, -12
 845              		.cfi_offset 7, -8
 846              		.cfi_offset 14, -4
 847 0002 84B0     		sub	sp, sp, #16
 848              		.cfi_def_cfa_offset 32
 849 0004 00AF     		add	r7, sp, #0
ARM GAS  C:\Users\JENNEW~1\AppData\Local\Temp\ccBYNzIK.s 			page 20


 850              		.cfi_def_cfa_register 7
 851 0006 7860     		str	r0, [r7, #4]
 852 0008 3960     		str	r1, [r7]
 228:..\..\..\HamFlyAPI\src/hamfly_core_gimbal.c ****     if (!g || !g->hal.uart_putc) return HAMFLY_ERR_UART;
 853              		.loc 1 228 0
 854 000a 7B68     		ldr	r3, [r7, #4]
 855 000c 002B     		cmp	r3, #0
 856 000e 03D0     		beq	.L53
 857              		.loc 1 228 0 is_stmt 0 discriminator 2
 858 0010 7B68     		ldr	r3, [r7, #4]
 859 0012 5B68     		ldr	r3, [r3, #4]
 860 0014 002B     		cmp	r3, #0
 861 0016 01D1     		bne	.L54
 862              	.L53:
 863              		.loc 1 228 0 discriminator 3
 864 0018 0123     		movs	r3, #1
 865 001a 29E0     		b	.L55
 866              	.L54:
 229:..\..\..\HamFlyAPI\src/hamfly_core_gimbal.c ****     // Load control frame from gimbal struct
 230:..\..\..\HamFlyAPI\src/hamfly_core_gimbal.c ****     load_freefly_control(ctl);
 867              		.loc 1 230 0 is_stmt 1
 868 001c 3868     		ldr	r0, [r7]
 869 001e FFF7FEFF 		bl	load_freefly_control
 231:..\..\..\HamFlyAPI\src/hamfly_core_gimbal.c ****     g->ctl = *ctl;
 870              		.loc 1 231 0
 871 0022 7B68     		ldr	r3, [r7, #4]
 872 0024 3A68     		ldr	r2, [r7]
 873 0026 03F10C04 		add	r4, r3, #12
 874 002a 1546     		mov	r5, r2
 875 002c 0FCD     		ldmia	r5!, {r0, r1, r2, r3}
 876 002e 0FC4     		stmia	r4!, {r0, r1, r2, r3}
 877 0030 2B68     		ldr	r3, [r5]
 878 0032 2360     		str	r3, [r4]
 232:..\..\..\HamFlyAPI\src/hamfly_core_gimbal.c ****     FreeflyAPI.send();
 879              		.loc 1 232 0
 880 0034 104B     		ldr	r3, .L56
 881 0036 5B68     		ldr	r3, [r3, #4]
 882 0038 9847     		blx	r3
 233:..\..\..\HamFlyAPI\src/hamfly_core_gimbal.c **** 
 234:..\..\..\HamFlyAPI\src/hamfly_core_gimbal.c ****     uint32_t sent = drain_rb(g);
 883              		.loc 1 234 0
 884 003a 7868     		ldr	r0, [r7, #4]
 885 003c FFF7FEFF 		bl	drain_rb
 886 0040 F860     		str	r0, [r7, #12]
 235:..\..\..\HamFlyAPI\src/hamfly_core_gimbal.c ****     g->statistics.tx_packets++;
 887              		.loc 1 235 0
 888 0042 7B68     		ldr	r3, [r7, #4]
 889 0044 D3F80C31 		ldr	r3, [r3, #268]
 890 0048 5A1C     		adds	r2, r3, #1
 891 004a 7B68     		ldr	r3, [r7, #4]
 892 004c C3F80C21 		str	r2, [r3, #268]
 236:..\..\..\HamFlyAPI\src/hamfly_core_gimbal.c ****     g->statistics.tx_bytes += sent;
 893              		.loc 1 236 0
 894 0050 7B68     		ldr	r3, [r7, #4]
 895 0052 D3F81021 		ldr	r2, [r3, #272]
 896 0056 FB68     		ldr	r3, [r7, #12]
 897 0058 1A44     		add	r2, r2, r3
ARM GAS  C:\Users\JENNEW~1\AppData\Local\Temp\ccBYNzIK.s 			page 21


 898 005a 7B68     		ldr	r3, [r7, #4]
 899 005c C3F81021 		str	r2, [r3, #272]
 237:..\..\..\HamFlyAPI\src/hamfly_core_gimbal.c **** 
 238:..\..\..\HamFlyAPI\src/hamfly_core_gimbal.c ****     return (g->statistics.uart_err_flags != 0u) ? HAMFLY_ERR_UART : HAMFLY_OK;
 900              		.loc 1 238 0
 901 0060 7B68     		ldr	r3, [r7, #4]
 902 0062 93F82231 		ldrb	r3, [r3, #290]	@ zero_extendqisi2
 903 0066 002B     		cmp	r3, #0
 904 0068 14BF     		ite	ne
 905 006a 0123     		movne	r3, #1
 906 006c 0023     		moveq	r3, #0
 907 006e DBB2     		uxtb	r3, r3
 908              	.L55:
 239:..\..\..\HamFlyAPI\src/hamfly_core_gimbal.c **** }
 909              		.loc 1 239 0
 910 0070 1846     		mov	r0, r3
 911 0072 1037     		adds	r7, r7, #16
 912              		.cfi_def_cfa_offset 16
 913 0074 BD46     		mov	sp, r7
 914              		.cfi_def_cfa_register 13
 915              		@ sp needed
 916 0076 B0BD     		pop	{r4, r5, r7, pc}
 917              	.L57:
 918              		.align	2
 919              	.L56:
 920 0078 00000000 		.word	FreeflyAPI
 921              		.cfi_endproc
 922              	.LFE9:
 923              		.size	hamfly_send_control, .-hamfly_send_control
 924              		.section	.text.hamfly_kill,"ax",%progbits
 925              		.align	2
 926              		.global	hamfly_kill
 927              		.thumb
 928              		.thumb_func
 929              		.type	hamfly_kill, %function
 930              	hamfly_kill:
 931              	.LFB10:
 240:..\..\..\HamFlyAPI\src/hamfly_core_gimbal.c **** 
 241:..\..\..\HamFlyAPI\src/hamfly_core_gimbal.c **** // ============================================================================
 242:..\..\..\HamFlyAPI\src/hamfly_core_gimbal.c **** // Hamfly Kill: Safely kill the gimbal.
 243:..\..\..\HamFlyAPI\src/hamfly_core_gimbal.c **** // ============================================================================
 244:..\..\..\HamFlyAPI\src/hamfly_core_gimbal.c **** void hamfly_kill(hamfly_gimbal_t *g)
 245:..\..\..\HamFlyAPI\src/hamfly_core_gimbal.c **** {
 932              		.loc 1 245 0
 933              		.cfi_startproc
 934              		@ args = 0, pretend = 0, frame = 32
 935              		@ frame_needed = 1, uses_anonymous_args = 0
 936 0000 B0B5     		push	{r4, r5, r7, lr}
 937              		.cfi_def_cfa_offset 16
 938              		.cfi_offset 4, -16
 939              		.cfi_offset 5, -12
 940              		.cfi_offset 7, -8
 941              		.cfi_offset 14, -4
 942 0002 88B0     		sub	sp, sp, #32
 943              		.cfi_def_cfa_offset 48
 944 0004 00AF     		add	r7, sp, #0
 945              		.cfi_def_cfa_register 7
ARM GAS  C:\Users\JENNEW~1\AppData\Local\Temp\ccBYNzIK.s 			page 22


 946 0006 7860     		str	r0, [r7, #4]
 246:..\..\..\HamFlyAPI\src/hamfly_core_gimbal.c ****     if (!g) return;
 947              		.loc 1 246 0
 948 0008 7B68     		ldr	r3, [r7, #4]
 949 000a 002B     		cmp	r3, #0
 950 000c 11D0     		beq	.L61
 247:..\..\..\HamFlyAPI\src/hamfly_core_gimbal.c ****     // Enable kill flag and send.
 248:..\..\..\HamFlyAPI\src/hamfly_core_gimbal.c ****     hamfly_control_t k = g->ctl;
 951              		.loc 1 248 0
 952 000e 7B68     		ldr	r3, [r7, #4]
 953 0010 07F10C04 		add	r4, r7, #12
 954 0014 03F10C05 		add	r5, r3, #12
 955 0018 0FCD     		ldmia	r5!, {r0, r1, r2, r3}
 956 001a 0FC4     		stmia	r4!, {r0, r1, r2, r3}
 957 001c 2B68     		ldr	r3, [r5]
 958 001e 2360     		str	r3, [r4]
 249:..\..\..\HamFlyAPI\src/hamfly_core_gimbal.c ****     k.kill = 1u;
 959              		.loc 1 249 0
 960 0020 0123     		movs	r3, #1
 961 0022 3B77     		strb	r3, [r7, #28]
 250:..\..\..\HamFlyAPI\src/hamfly_core_gimbal.c ****     (void)hamfly_send_control(g, &k);
 962              		.loc 1 250 0
 963 0024 07F10C03 		add	r3, r7, #12
 964 0028 1946     		mov	r1, r3
 965 002a 7868     		ldr	r0, [r7, #4]
 966 002c FFF7FEFF 		bl	hamfly_send_control
 967 0030 00E0     		b	.L58
 968              	.L61:
 246:..\..\..\HamFlyAPI\src/hamfly_core_gimbal.c ****     // Enable kill flag and send.
 969              		.loc 1 246 0
 970 0032 00BF     		nop
 971              	.L58:
 251:..\..\..\HamFlyAPI\src/hamfly_core_gimbal.c **** }
 972              		.loc 1 251 0
 973 0034 2037     		adds	r7, r7, #32
 974              		.cfi_def_cfa_offset 16
 975 0036 BD46     		mov	sp, r7
 976              		.cfi_def_cfa_register 13
 977              		@ sp needed
 978 0038 B0BD     		pop	{r4, r5, r7, pc}
 979              		.cfi_endproc
 980              	.LFE10:
 981              		.size	hamfly_kill, .-hamfly_kill
 982 003a 00BF     		.section	.text.hamfly_request_attr,"ax",%progbits
 983              		.align	2
 984              		.global	hamfly_request_attr
 985              		.thumb
 986              		.thumb_func
 987              		.type	hamfly_request_attr, %function
 988              	hamfly_request_attr:
 989              	.LFB11:
 252:..\..\..\HamFlyAPI\src/hamfly_core_gimbal.c **** 
 253:..\..\..\HamFlyAPI\src/hamfly_core_gimbal.c **** // ============================================================================
 254:..\..\..\HamFlyAPI\src/hamfly_core_gimbal.c **** // Hamfly Request Attribute: Request read of an attr ID.
 255:..\..\..\HamFlyAPI\src/hamfly_core_gimbal.c **** // ============================================================================
 256:..\..\..\HamFlyAPI\src/hamfly_core_gimbal.c **** hamfly_result_t hamfly_request_attr(hamfly_gimbal_t *g, uint16_t attr_id)
 257:..\..\..\HamFlyAPI\src/hamfly_core_gimbal.c **** {
ARM GAS  C:\Users\JENNEW~1\AppData\Local\Temp\ccBYNzIK.s 			page 23


 990              		.loc 1 257 0
 991              		.cfi_startproc
 992              		@ args = 0, pretend = 0, frame = 24
 993              		@ frame_needed = 1, uses_anonymous_args = 0
 994 0000 80B5     		push	{r7, lr}
 995              		.cfi_def_cfa_offset 8
 996              		.cfi_offset 7, -8
 997              		.cfi_offset 14, -4
 998 0002 88B0     		sub	sp, sp, #32
 999              		.cfi_def_cfa_offset 40
 1000 0004 02AF     		add	r7, sp, #8
 1001              		.cfi_def_cfa 7, 32
 1002 0006 7860     		str	r0, [r7, #4]
 1003 0008 0B46     		mov	r3, r1
 1004 000a 7B80     		strh	r3, [r7, #2]	@ movhi
 258:..\..\..\HamFlyAPI\src/hamfly_core_gimbal.c ****     // This function uses UART (nut just memory manipulation) so needs check.
 259:..\..\..\HamFlyAPI\src/hamfly_core_gimbal.c ****     if (!g || !g->hal.uart_putc) return HAMFLY_ERR_UART;
 1005              		.loc 1 259 0
 1006 000c 7B68     		ldr	r3, [r7, #4]
 1007 000e 002B     		cmp	r3, #0
 1008 0010 03D0     		beq	.L63
 1009              		.loc 1 259 0 is_stmt 0 discriminator 2
 1010 0012 7B68     		ldr	r3, [r7, #4]
 1011 0014 5B68     		ldr	r3, [r3, #4]
 1012 0016 002B     		cmp	r3, #0
 1013 0018 01D1     		bne	.L64
 1014              	.L63:
 1015              		.loc 1 259 0 discriminator 3
 1016 001a 0123     		movs	r3, #1
 1017 001c 3EE0     		b	.L66
 1018              	.L64:
 260:..\..\..\HamFlyAPI\src/hamfly_core_gimbal.c **** 
 261:..\..\..\HamFlyAPI\src/hamfly_core_gimbal.c ****     // Load safe defaults into QX packet.
 262:..\..\..\HamFlyAPI\src/hamfly_core_gimbal.c ****     QX_TxMsgOptions_t opts;
 263:..\..\..\HamFlyAPI\src/hamfly_core_gimbal.c ****     QX_InitTxOptions(&opts);
 1019              		.loc 1 263 0 is_stmt 1
 1020 001e 07F10C03 		add	r3, r7, #12
 1021 0022 1846     		mov	r0, r3
 1022 0024 FFF7FEFF 		bl	QX_InitTxOptions
 264:..\..\..\HamFlyAPI\src/hamfly_core_gimbal.c ****     opts.Target_Addr = (QX_DevId_e)g->gimbal_id;  // Set device ID.
 1023              		.loc 1 264 0
 1024 0028 7B68     		ldr	r3, [r7, #4]
 1025 002a 93F83033 		ldrb	r3, [r3, #816]	@ zero_extendqisi2
 1026 002e 3B74     		strb	r3, [r7, #16]
 265:..\..\..\HamFlyAPI\src/hamfly_core_gimbal.c ****     // Send the packet into the QX state machine to build the packet which
 266:..\..\..\HamFlyAPI\src/hamfly_core_gimbal.c ****     // gets pushed into the txbuf by the QX callback.
 267:..\..\..\HamFlyAPI\src/hamfly_core_gimbal.c ****     QX_SendPacket_Cli_Read(&QX_Clients[0], (uint32_t)attr_id,
 1027              		.loc 1 267 0
 1028 0030 7988     		ldrh	r1, [r7, #2]
 1029 0032 6B46     		mov	r3, sp
 1030 0034 07F11002 		add	r2, r7, #16
 1031 0038 1268     		ldr	r2, [r2]
 1032 003a 1046     		mov	r0, r2	@ movhi
 1033 003c 1880     		strh	r0, [r3]	@ movhi
 1034 003e 0233     		adds	r3, r3, #2
 1035 0040 120C     		lsrs	r2, r2, #16
 1036 0042 1A70     		strb	r2, [r3]
ARM GAS  C:\Users\JENNEW~1\AppData\Local\Temp\ccBYNzIK.s 			page 24


 1037 0044 FB68     		ldr	r3, [r7, #12]
 1038 0046 0022     		movs	r2, #0
 1039 0048 1648     		ldr	r0, .L67
 1040 004a FFF7FEFF 		bl	QX_SendPacket_Cli_Read
 268:..\..\..\HamFlyAPI\src/hamfly_core_gimbal.c ****                             HAMFLY_QX_PORT, opts);
 269:..\..\..\HamFlyAPI\src/hamfly_core_gimbal.c ****     
 270:..\..\..\HamFlyAPI\src/hamfly_core_gimbal.c ****     // Drain the txbuf into the HAL and count bytes sent.
 271:..\..\..\HamFlyAPI\src/hamfly_core_gimbal.c ****     uint32_t sent = drain_rb(g);
 1041              		.loc 1 271 0
 1042 004e 7868     		ldr	r0, [r7, #4]
 1043 0050 FFF7FEFF 		bl	drain_rb
 1044 0054 7861     		str	r0, [r7, #20]
 272:..\..\..\HamFlyAPI\src/hamfly_core_gimbal.c **** 
 273:..\..\..\HamFlyAPI\src/hamfly_core_gimbal.c ****     // Set pending atts for bookkeeping and wait for response.
 274:..\..\..\HamFlyAPI\src/hamfly_core_gimbal.c ****     g->pending_attr         = attr_id;
 1045              		.loc 1 274 0
 1046 0056 7B68     		ldr	r3, [r7, #4]
 1047 0058 7A88     		ldrh	r2, [r7, #2]	@ movhi
 1048 005a A3F83223 		strh	r2, [r3, #818]	@ movhi
 275:..\..\..\HamFlyAPI\src/hamfly_core_gimbal.c ****     g->pending_sent_ms      = 0u;   /* caller sets this from their tick */
 1049              		.loc 1 275 0
 1050 005e 7B68     		ldr	r3, [r7, #4]
 1051 0060 0022     		movs	r2, #0
 1052 0062 C3F83423 		str	r2, [r3, #820]
 276:..\..\..\HamFlyAPI\src/hamfly_core_gimbal.c ****     g->pending_ready        = false;
 1053              		.loc 1 276 0
 1054 0066 7B68     		ldr	r3, [r7, #4]
 1055 0068 0022     		movs	r2, #0
 1056 006a 83F83823 		strb	r2, [r3, #824]
 277:..\..\..\HamFlyAPI\src/hamfly_core_gimbal.c **** 
 278:..\..\..\HamFlyAPI\src/hamfly_core_gimbal.c ****     // Update stats.
 279:..\..\..\HamFlyAPI\src/hamfly_core_gimbal.c ****     g->statistics.tx_packets++;
 1057              		.loc 1 279 0
 1058 006e 7B68     		ldr	r3, [r7, #4]
 1059 0070 D3F80C31 		ldr	r3, [r3, #268]
 1060 0074 5A1C     		adds	r2, r3, #1
 1061 0076 7B68     		ldr	r3, [r7, #4]
 1062 0078 C3F80C21 		str	r2, [r3, #268]
 280:..\..\..\HamFlyAPI\src/hamfly_core_gimbal.c ****     g->statistics.tx_bytes += sent;
 1063              		.loc 1 280 0
 1064 007c 7B68     		ldr	r3, [r7, #4]
 1065 007e D3F81021 		ldr	r2, [r3, #272]
 1066 0082 7B69     		ldr	r3, [r7, #20]
 1067 0084 1A44     		add	r2, r2, r3
 1068 0086 7B68     		ldr	r3, [r7, #4]
 1069 0088 C3F81021 		str	r2, [r3, #272]
 281:..\..\..\HamFlyAPI\src/hamfly_core_gimbal.c **** 
 282:..\..\..\HamFlyAPI\src/hamfly_core_gimbal.c ****     // Return UART error if any occurred during this process.
 283:..\..\..\HamFlyAPI\src/hamfly_core_gimbal.c ****     return (g->statistics.uart_err_flags != 0u) ? HAMFLY_ERR_UART : HAMFLY_OK;
 1070              		.loc 1 283 0
 1071 008c 7B68     		ldr	r3, [r7, #4]
 1072 008e 93F82231 		ldrb	r3, [r3, #290]	@ zero_extendqisi2
 1073 0092 002B     		cmp	r3, #0
 1074 0094 14BF     		ite	ne
 1075 0096 0123     		movne	r3, #1
 1076 0098 0023     		moveq	r3, #0
 1077 009a DBB2     		uxtb	r3, r3
ARM GAS  C:\Users\JENNEW~1\AppData\Local\Temp\ccBYNzIK.s 			page 25


 1078              	.L66:
 284:..\..\..\HamFlyAPI\src/hamfly_core_gimbal.c **** }
 1079              		.loc 1 284 0 discriminator 1
 1080 009c 1846     		mov	r0, r3
 1081 009e 1837     		adds	r7, r7, #24
 1082              		.cfi_def_cfa_offset 8
 1083 00a0 BD46     		mov	sp, r7
 1084              		.cfi_def_cfa_register 13
 1085              		@ sp needed
 1086 00a2 80BD     		pop	{r7, pc}
 1087              	.L68:
 1088              		.align	2
 1089              	.L67:
 1090 00a4 00000000 		.word	QX_Clients
 1091              		.cfi_endproc
 1092              	.LFE11:
 1093              		.size	hamfly_request_attr, .-hamfly_request_attr
 1094              		.section	.text.hamfly_request_attr_capture,"ax",%progbits
 1095              		.align	2
 1096              		.global	hamfly_request_attr_capture
 1097              		.thumb
 1098              		.thumb_func
 1099              		.type	hamfly_request_attr_capture, %function
 1100              	hamfly_request_attr_capture:
 1101              	.LFB12:
 285:..\..\..\HamFlyAPI\src/hamfly_core_gimbal.c **** 
 286:..\..\..\HamFlyAPI\src/hamfly_core_gimbal.c **** // ============================================================================
 287:..\..\..\HamFlyAPI\src/hamfly_core_gimbal.c **** // Hamfly Capture Attribute Response: Request read of an attr ID + Raw bytes.
 288:..\..\..\HamFlyAPI\src/hamfly_core_gimbal.c **** // Helper for testing or logging exact bytes.
 289:..\..\..\HamFlyAPI\src/hamfly_core_gimbal.c **** // This is otherwise the same as hamfly_request_attr, for normal use keep with
 290:..\..\..\HamFlyAPI\src/hamfly_core_gimbal.c **** // hamfly_request_attr and use the parsed telemetry in hamfly_telemetry_t.
 291:..\..\..\HamFlyAPI\src/hamfly_core_gimbal.c **** // ============================================================================
 292:..\..\..\HamFlyAPI\src/hamfly_core_gimbal.c **** hamfly_result_t hamfly_request_attr_capture(hamfly_gimbal_t *g,
 293:..\..\..\HamFlyAPI\src/hamfly_core_gimbal.c ****                                               uint16_t attr_id,
 294:..\..\..\HamFlyAPI\src/hamfly_core_gimbal.c ****                                               uint8_t *user_txbuf,
 295:..\..\..\HamFlyAPI\src/hamfly_core_gimbal.c ****                                               uint8_t  user_txbuf_max,
 296:..\..\..\HamFlyAPI\src/hamfly_core_gimbal.c ****                                               uint8_t *tx_len_out)
 297:..\..\..\HamFlyAPI\src/hamfly_core_gimbal.c **** {
 1102              		.loc 1 297 0
 1103              		.cfi_startproc
 1104              		@ args = 4, pretend = 0, frame = 32
 1105              		@ frame_needed = 1, uses_anonymous_args = 0
 1106 0000 80B5     		push	{r7, lr}
 1107              		.cfi_def_cfa_offset 8
 1108              		.cfi_offset 7, -8
 1109              		.cfi_offset 14, -4
 1110 0002 8AB0     		sub	sp, sp, #40
 1111              		.cfi_def_cfa_offset 48
 1112 0004 02AF     		add	r7, sp, #8
 1113              		.cfi_def_cfa 7, 40
 1114 0006 F860     		str	r0, [r7, #12]
 1115 0008 7A60     		str	r2, [r7, #4]
 1116 000a 1A46     		mov	r2, r3
 1117 000c 0B46     		mov	r3, r1	@ movhi
 1118 000e 7B81     		strh	r3, [r7, #10]	@ movhi
 1119 0010 1346     		mov	r3, r2
 1120 0012 7B72     		strb	r3, [r7, #9]
ARM GAS  C:\Users\JENNEW~1\AppData\Local\Temp\ccBYNzIK.s 			page 26


 298:..\..\..\HamFlyAPI\src/hamfly_core_gimbal.c ****     // This function uses UART (nut just memory manipulation) so needs check.
 299:..\..\..\HamFlyAPI\src/hamfly_core_gimbal.c ****     if (!g || !g->hal.uart_putc) return HAMFLY_ERR_UART;
 1121              		.loc 1 299 0
 1122 0014 FB68     		ldr	r3, [r7, #12]
 1123 0016 002B     		cmp	r3, #0
 1124 0018 03D0     		beq	.L70
 1125              		.loc 1 299 0 is_stmt 0 discriminator 2
 1126 001a FB68     		ldr	r3, [r7, #12]
 1127 001c 5B68     		ldr	r3, [r3, #4]
 1128 001e 002B     		cmp	r3, #0
 1129 0020 01D1     		bne	.L71
 1130              	.L70:
 1131              		.loc 1 299 0 discriminator 3
 1132 0022 0123     		movs	r3, #1
 1133 0024 6AE0     		b	.L77
 1134              	.L71:
 300:..\..\..\HamFlyAPI\src/hamfly_core_gimbal.c **** 
 301:..\..\..\HamFlyAPI\src/hamfly_core_gimbal.c ****     // Load safe defaults into QX packet.
 302:..\..\..\HamFlyAPI\src/hamfly_core_gimbal.c ****     QX_TxMsgOptions_t opts;
 303:..\..\..\HamFlyAPI\src/hamfly_core_gimbal.c ****     QX_InitTxOptions(&opts);
 1135              		.loc 1 303 0 is_stmt 1
 1136 0026 07F11403 		add	r3, r7, #20
 1137 002a 1846     		mov	r0, r3
 1138 002c FFF7FEFF 		bl	QX_InitTxOptions
 304:..\..\..\HamFlyAPI\src/hamfly_core_gimbal.c ****     opts.Target_Addr = (QX_DevId_e)g->gimbal_id;  // Set device ID.
 1139              		.loc 1 304 0
 1140 0030 FB68     		ldr	r3, [r7, #12]
 1141 0032 93F83033 		ldrb	r3, [r3, #816]	@ zero_extendqisi2
 1142 0036 3B76     		strb	r3, [r7, #24]
 305:..\..\..\HamFlyAPI\src/hamfly_core_gimbal.c ****     // Send the packet into the QX state machine to build the packet which
 306:..\..\..\HamFlyAPI\src/hamfly_core_gimbal.c ****     // gets pushed into the txbuf by the QX callback.
 307:..\..\..\HamFlyAPI\src/hamfly_core_gimbal.c ****     QX_SendPacket_Cli_Read(&QX_Clients[0], (uint32_t)attr_id,
 1143              		.loc 1 307 0
 1144 0038 7989     		ldrh	r1, [r7, #10]
 1145 003a 6B46     		mov	r3, sp
 1146 003c 07F11802 		add	r2, r7, #24
 1147 0040 1268     		ldr	r2, [r2]
 1148 0042 1046     		mov	r0, r2	@ movhi
 1149 0044 1880     		strh	r0, [r3]	@ movhi
 1150 0046 0233     		adds	r3, r3, #2
 1151 0048 120C     		lsrs	r2, r2, #16
 1152 004a 1A70     		strb	r2, [r3]
 1153 004c 7B69     		ldr	r3, [r7, #20]
 1154 004e 0022     		movs	r2, #0
 1155 0050 2C48     		ldr	r0, .L78
 1156 0052 FFF7FEFF 		bl	QX_SendPacket_Cli_Read
 308:..\..\..\HamFlyAPI\src/hamfly_core_gimbal.c ****                             HAMFLY_QX_PORT, opts);
 309:..\..\..\HamFlyAPI\src/hamfly_core_gimbal.c **** 
 310:..\..\..\HamFlyAPI\src/hamfly_core_gimbal.c ****     uint8_t  byte;
 311:..\..\..\HamFlyAPI\src/hamfly_core_gimbal.c ****     uint32_t sent = 0u;
 1157              		.loc 1 311 0
 1158 0056 0023     		movs	r3, #0
 1159 0058 FB61     		str	r3, [r7, #28]
 312:..\..\..\HamFlyAPI\src/hamfly_core_gimbal.c ****     uint8_t  cap  = 0u;
 1160              		.loc 1 312 0
 1161 005a 0023     		movs	r3, #0
 1162 005c FB76     		strb	r3, [r7, #27]
ARM GAS  C:\Users\JENNEW~1\AppData\Local\Temp\ccBYNzIK.s 			page 27


 313:..\..\..\HamFlyAPI\src/hamfly_core_gimbal.c ****     // Drain the txbuf one by one and parse into user_txbuf.
 314:..\..\..\HamFlyAPI\src/hamfly_core_gimbal.c ****     while (hamfly_rb_pop(&g->txbuf, &byte)) {
 1163              		.loc 1 314 0
 1164 005e 18E0     		b	.L73
 1165              	.L75:
 315:..\..\..\HamFlyAPI\src/hamfly_core_gimbal.c ****         g->hal.uart_putc(g->hal.ctx, byte);
 1166              		.loc 1 315 0
 1167 0060 FB68     		ldr	r3, [r7, #12]
 1168 0062 5B68     		ldr	r3, [r3, #4]
 1169 0064 FA68     		ldr	r2, [r7, #12]
 1170 0066 1268     		ldr	r2, [r2]
 1171 0068 F97C     		ldrb	r1, [r7, #19]	@ zero_extendqisi2
 1172 006a 1046     		mov	r0, r2
 1173 006c 9847     		blx	r3
 316:..\..\..\HamFlyAPI\src/hamfly_core_gimbal.c ****         if (user_txbuf && cap < user_txbuf_max) user_txbuf[cap++] = byte;
 1174              		.loc 1 316 0
 1175 006e 7B68     		ldr	r3, [r7, #4]
 1176 0070 002B     		cmp	r3, #0
 1177 0072 0BD0     		beq	.L74
 1178              		.loc 1 316 0 is_stmt 0 discriminator 1
 1179 0074 FA7E     		ldrb	r2, [r7, #27]	@ zero_extendqisi2
 1180 0076 7B7A     		ldrb	r3, [r7, #9]	@ zero_extendqisi2
 1181 0078 9A42     		cmp	r2, r3
 1182 007a 07D2     		bcs	.L74
 1183              		.loc 1 316 0 discriminator 2
 1184 007c FB7E     		ldrb	r3, [r7, #27]	@ zero_extendqisi2
 1185 007e 5A1C     		adds	r2, r3, #1
 1186 0080 FA76     		strb	r2, [r7, #27]
 1187 0082 1A46     		mov	r2, r3
 1188 0084 7B68     		ldr	r3, [r7, #4]
 1189 0086 1344     		add	r3, r3, r2
 1190 0088 FA7C     		ldrb	r2, [r7, #19]	@ zero_extendqisi2
 1191 008a 1A70     		strb	r2, [r3]
 1192              	.L74:
 317:..\..\..\HamFlyAPI\src/hamfly_core_gimbal.c ****         sent++;
 1193              		.loc 1 317 0 is_stmt 1
 1194 008c FB69     		ldr	r3, [r7, #28]
 1195 008e 0133     		adds	r3, r3, #1
 1196 0090 FB61     		str	r3, [r7, #28]
 1197              	.L73:
 314:..\..\..\HamFlyAPI\src/hamfly_core_gimbal.c ****         g->hal.uart_putc(g->hal.ctx, byte);
 1198              		.loc 1 314 0
 1199 0092 FB68     		ldr	r3, [r7, #12]
 1200 0094 03F22A23 		addw	r3, r3, #554
 1201 0098 07F11302 		add	r2, r7, #19
 1202 009c 1146     		mov	r1, r2
 1203 009e 1846     		mov	r0, r3
 1204 00a0 FFF7FEFF 		bl	hamfly_rb_pop
 1205 00a4 0346     		mov	r3, r0
 1206 00a6 002B     		cmp	r3, #0
 1207 00a8 DAD1     		bne	.L75
 318:..\..\..\HamFlyAPI\src/hamfly_core_gimbal.c ****     }
 319:..\..\..\HamFlyAPI\src/hamfly_core_gimbal.c ****     if (tx_len_out) *tx_len_out = cap;
 1208              		.loc 1 319 0
 1209 00aa BB6A     		ldr	r3, [r7, #40]
 1210 00ac 002B     		cmp	r3, #0
 1211 00ae 02D0     		beq	.L76
ARM GAS  C:\Users\JENNEW~1\AppData\Local\Temp\ccBYNzIK.s 			page 28


 1212              		.loc 1 319 0 is_stmt 0 discriminator 1
 1213 00b0 BB6A     		ldr	r3, [r7, #40]
 1214 00b2 FA7E     		ldrb	r2, [r7, #27]
 1215 00b4 1A70     		strb	r2, [r3]
 1216              	.L76:
 320:..\..\..\HamFlyAPI\src/hamfly_core_gimbal.c **** 
 321:..\..\..\HamFlyAPI\src/hamfly_core_gimbal.c ****     // Set pending atts for bookkeeping and wait for response.
 322:..\..\..\HamFlyAPI\src/hamfly_core_gimbal.c ****     g->pending_attr    = attr_id;
 1217              		.loc 1 322 0 is_stmt 1
 1218 00b6 FB68     		ldr	r3, [r7, #12]
 1219 00b8 7A89     		ldrh	r2, [r7, #10]	@ movhi
 1220 00ba A3F83223 		strh	r2, [r3, #818]	@ movhi
 323:..\..\..\HamFlyAPI\src/hamfly_core_gimbal.c ****     g->pending_sent_ms = 0u;
 1221              		.loc 1 323 0
 1222 00be FB68     		ldr	r3, [r7, #12]
 1223 00c0 0022     		movs	r2, #0
 1224 00c2 C3F83423 		str	r2, [r3, #820]
 324:..\..\..\HamFlyAPI\src/hamfly_core_gimbal.c ****     g->pending_ready   = false;
 1225              		.loc 1 324 0
 1226 00c6 FB68     		ldr	r3, [r7, #12]
 1227 00c8 0022     		movs	r2, #0
 1228 00ca 83F83823 		strb	r2, [r3, #824]
 325:..\..\..\HamFlyAPI\src/hamfly_core_gimbal.c **** 
 326:..\..\..\HamFlyAPI\src/hamfly_core_gimbal.c ****     // Update stats.
 327:..\..\..\HamFlyAPI\src/hamfly_core_gimbal.c ****     g->statistics.tx_packets++;
 1229              		.loc 1 327 0
 1230 00ce FB68     		ldr	r3, [r7, #12]
 1231 00d0 D3F80C31 		ldr	r3, [r3, #268]
 1232 00d4 5A1C     		adds	r2, r3, #1
 1233 00d6 FB68     		ldr	r3, [r7, #12]
 1234 00d8 C3F80C21 		str	r2, [r3, #268]
 328:..\..\..\HamFlyAPI\src/hamfly_core_gimbal.c ****     g->statistics.tx_bytes += sent;
 1235              		.loc 1 328 0
 1236 00dc FB68     		ldr	r3, [r7, #12]
 1237 00de D3F81021 		ldr	r2, [r3, #272]
 1238 00e2 FB69     		ldr	r3, [r7, #28]
 1239 00e4 1A44     		add	r2, r2, r3
 1240 00e6 FB68     		ldr	r3, [r7, #12]
 1241 00e8 C3F81021 		str	r2, [r3, #272]
 329:..\..\..\HamFlyAPI\src/hamfly_core_gimbal.c **** 
 330:..\..\..\HamFlyAPI\src/hamfly_core_gimbal.c ****     // Return UART error if any occurred during this process.
 331:..\..\..\HamFlyAPI\src/hamfly_core_gimbal.c ****     return (g->statistics.uart_err_flags != 0u) ? HAMFLY_ERR_UART : HAMFLY_OK;
 1242              		.loc 1 331 0
 1243 00ec FB68     		ldr	r3, [r7, #12]
 1244 00ee 93F82231 		ldrb	r3, [r3, #290]	@ zero_extendqisi2
 1245 00f2 002B     		cmp	r3, #0
 1246 00f4 14BF     		ite	ne
 1247 00f6 0123     		movne	r3, #1
 1248 00f8 0023     		moveq	r3, #0
 1249 00fa DBB2     		uxtb	r3, r3
 1250              	.L77:
 332:..\..\..\HamFlyAPI\src/hamfly_core_gimbal.c **** }
 1251              		.loc 1 332 0 discriminator 1
 1252 00fc 1846     		mov	r0, r3
 1253 00fe 2037     		adds	r7, r7, #32
 1254              		.cfi_def_cfa_offset 8
 1255 0100 BD46     		mov	sp, r7
ARM GAS  C:\Users\JENNEW~1\AppData\Local\Temp\ccBYNzIK.s 			page 29


 1256              		.cfi_def_cfa_register 13
 1257              		@ sp needed
 1258 0102 80BD     		pop	{r7, pc}
 1259              	.L79:
 1260              		.align	2
 1261              	.L78:
 1262 0104 00000000 		.word	QX_Clients
 1263              		.cfi_endproc
 1264              	.LFE12:
 1265              		.size	hamfly_request_attr_capture, .-hamfly_request_attr_capture
 1266              		.section	.text.hamfly_write_attr_u8,"ax",%progbits
 1267              		.align	2
 1268              		.global	hamfly_write_attr_u8
 1269              		.thumb
 1270              		.thumb_func
 1271              		.type	hamfly_write_attr_u8, %function
 1272              	hamfly_write_attr_u8:
 1273              	.LFB13:
 333:..\..\..\HamFlyAPI\src/hamfly_core_gimbal.c **** 
 334:..\..\..\HamFlyAPI\src/hamfly_core_gimbal.c **** // ============================================================================
 335:..\..\..\HamFlyAPI\src/hamfly_core_gimbal.c **** // Hamfly Write Attribute U8: Request write of an attr ID with a single byte.
 336:..\..\..\HamFlyAPI\src/hamfly_core_gimbal.c **** // Handles single and two-byte varints for the attr ID by bypassing the QX
 337:..\..\..\HamFlyAPI\src/hamfly_core_gimbal.c **** // state machine and building the packet directly into the txbuf.
 338:..\..\..\HamFlyAPI\src/hamfly_core_gimbal.c **** // This is an extension, not part of the FreeflyAPI.
 339:..\..\..\HamFlyAPI\src/hamfly_core_gimbal.c **** //
 340:..\..\..\HamFlyAPI\src/hamfly_core_gimbal.c **** // Example usecases:
 341:..\..\..\HamFlyAPI\src/hamfly_core_gimbal.c **** //  - Request write of 0x01 to 382 to reset the heading.
 342:..\..\..\HamFlyAPI\src/hamfly_core_gimbal.c **** //  - Request write of a two-byte varint attr like 0x80 (set gimbal ID).
 343:..\..\..\HamFlyAPI\src/hamfly_core_gimbal.c **** //  
 344:..\..\..\HamFlyAPI\src/hamfly_core_gimbal.c **** // Issues:
 345:..\..\..\HamFlyAPI\src/hamfly_core_gimbal.c **** //  - Many of these are unconfirmed and only exist due to BLE sniffing.
 346:..\..\..\HamFlyAPI\src/hamfly_core_gimbal.c **** //  - Some appear to need more bytes, so moving to an array of bytes is needed. 
 347:..\..\..\HamFlyAPI\src/hamfly_core_gimbal.c **** // ============================================================================
 348:..\..\..\HamFlyAPI\src/hamfly_core_gimbal.c **** hamfly_result_t hamfly_write_attr_u8(hamfly_gimbal_t *g,
 349:..\..\..\HamFlyAPI\src/hamfly_core_gimbal.c ****                                       uint16_t attr_id,
 350:..\..\..\HamFlyAPI\src/hamfly_core_gimbal.c ****                                       uint8_t  value)
 351:..\..\..\HamFlyAPI\src/hamfly_core_gimbal.c **** {
 1274              		.loc 1 351 0
 1275              		.cfi_startproc
 1276              		@ args = 0, pretend = 0, frame = 32
 1277              		@ frame_needed = 1, uses_anonymous_args = 0
 1278 0000 80B5     		push	{r7, lr}
 1279              		.cfi_def_cfa_offset 8
 1280              		.cfi_offset 7, -8
 1281              		.cfi_offset 14, -4
 1282 0002 88B0     		sub	sp, sp, #32
 1283              		.cfi_def_cfa_offset 40
 1284 0004 00AF     		add	r7, sp, #0
 1285              		.cfi_def_cfa_register 7
 1286 0006 7860     		str	r0, [r7, #4]
 1287 0008 0B46     		mov	r3, r1
 1288 000a 7B80     		strh	r3, [r7, #2]	@ movhi
 1289 000c 1346     		mov	r3, r2
 1290 000e 7B70     		strb	r3, [r7, #1]
 352:..\..\..\HamFlyAPI\src/hamfly_core_gimbal.c ****     if (!g || !g->hal.uart_putc) return HAMFLY_ERR_UART;
 1291              		.loc 1 352 0
 1292 0010 7B68     		ldr	r3, [r7, #4]
ARM GAS  C:\Users\JENNEW~1\AppData\Local\Temp\ccBYNzIK.s 			page 30


 1293 0012 002B     		cmp	r3, #0
 1294 0014 03D0     		beq	.L81
 1295              		.loc 1 352 0 is_stmt 0 discriminator 2
 1296 0016 7B68     		ldr	r3, [r7, #4]
 1297 0018 5B68     		ldr	r3, [r3, #4]
 1298 001a 002B     		cmp	r3, #0
 1299 001c 01D1     		bne	.L82
 1300              	.L81:
 1301              		.loc 1 352 0 discriminator 3
 1302 001e 0123     		movs	r3, #1
 1303 0020 DCE0     		b	.L90
 1304              	.L82:
 353:..\..\..\HamFlyAPI\src/hamfly_core_gimbal.c **** 
 354:..\..\..\HamFlyAPI\src/hamfly_core_gimbal.c ****     uint8_t pkt[13];
 355:..\..\..\HamFlyAPI\src/hamfly_core_gimbal.c ****     uint8_t idx = 0u, i;
 1305              		.loc 1 355 0 is_stmt 1
 1306 0022 0023     		movs	r3, #0
 1307 0024 FB77     		strb	r3, [r7, #31]
 356:..\..\..\HamFlyAPI\src/hamfly_core_gimbal.c **** 
 357:..\..\..\HamFlyAPI\src/hamfly_core_gimbal.c ****     // Begin packet.
 358:..\..\..\HamFlyAPI\src/hamfly_core_gimbal.c ****     pkt[idx++] = 0x51u;  // Q
 1308              		.loc 1 358 0
 1309 0026 FB7F     		ldrb	r3, [r7, #31]	@ zero_extendqisi2
 1310 0028 5A1C     		adds	r2, r3, #1
 1311 002a FA77     		strb	r2, [r7, #31]
 1312 002c 07F12002 		add	r2, r7, #32
 1313 0030 1344     		add	r3, r3, r2
 1314 0032 5122     		movs	r2, #81
 1315 0034 03F8182C 		strb	r2, [r3, #-24]
 359:..\..\..\HamFlyAPI\src/hamfly_core_gimbal.c ****     pkt[idx++] = 0x58u;  // X
 1316              		.loc 1 359 0
 1317 0038 FB7F     		ldrb	r3, [r7, #31]	@ zero_extendqisi2
 1318 003a 5A1C     		adds	r2, r3, #1
 1319 003c FA77     		strb	r2, [r7, #31]
 1320 003e 07F12002 		add	r2, r7, #32
 1321 0042 1344     		add	r3, r3, r2
 1322 0044 5822     		movs	r2, #88
 1323 0046 03F8182C 		strb	r2, [r3, #-24]
 360:..\..\..\HamFlyAPI\src/hamfly_core_gimbal.c **** 
 361:..\..\..\HamFlyAPI\src/hamfly_core_gimbal.c ****     // Set attr ID as varint.
 362:..\..\..\HamFlyAPI\src/hamfly_core_gimbal.c ****     if (attr_id < 128u) {
 1324              		.loc 1 362 0
 1325 004a 7B88     		ldrh	r3, [r7, #2]
 1326 004c 7F2B     		cmp	r3, #127
 1327 004e 13D8     		bhi	.L84
 363:..\..\..\HamFlyAPI\src/hamfly_core_gimbal.c ****         pkt[idx++] = 0x07u;
 1328              		.loc 1 363 0
 1329 0050 FB7F     		ldrb	r3, [r7, #31]	@ zero_extendqisi2
 1330 0052 5A1C     		adds	r2, r3, #1
 1331 0054 FA77     		strb	r2, [r7, #31]
 1332 0056 07F12002 		add	r2, r7, #32
 1333 005a 1344     		add	r3, r3, r2
 1334 005c 0722     		movs	r2, #7
 1335 005e 03F8182C 		strb	r2, [r3, #-24]
 364:..\..\..\HamFlyAPI\src/hamfly_core_gimbal.c ****         pkt[idx++] = (uint8_t)attr_id;
 1336              		.loc 1 364 0
 1337 0062 FB7F     		ldrb	r3, [r7, #31]	@ zero_extendqisi2
ARM GAS  C:\Users\JENNEW~1\AppData\Local\Temp\ccBYNzIK.s 			page 31


 1338 0064 5A1C     		adds	r2, r3, #1
 1339 0066 FA77     		strb	r2, [r7, #31]
 1340 0068 7A88     		ldrh	r2, [r7, #2]	@ movhi
 1341 006a D2B2     		uxtb	r2, r2
 1342 006c 07F12001 		add	r1, r7, #32
 1343 0070 0B44     		add	r3, r3, r1
 1344 0072 03F8182C 		strb	r2, [r3, #-24]
 1345 0076 23E0     		b	.L85
 1346              	.L84:
 365:..\..\..\HamFlyAPI\src/hamfly_core_gimbal.c ****     } else {
 366:..\..\..\HamFlyAPI\src/hamfly_core_gimbal.c ****         pkt[idx++] = 0x08u;
 1347              		.loc 1 366 0
 1348 0078 FB7F     		ldrb	r3, [r7, #31]	@ zero_extendqisi2
 1349 007a 5A1C     		adds	r2, r3, #1
 1350 007c FA77     		strb	r2, [r7, #31]
 1351 007e 07F12002 		add	r2, r7, #32
 1352 0082 1344     		add	r3, r3, r2
 1353 0084 0822     		movs	r2, #8
 1354 0086 03F8182C 		strb	r2, [r3, #-24]
 367:..\..\..\HamFlyAPI\src/hamfly_core_gimbal.c ****         pkt[idx++] = (uint8_t)((attr_id & 0x7Fu) | 0x80u);
 1355              		.loc 1 367 0
 1356 008a FB7F     		ldrb	r3, [r7, #31]	@ zero_extendqisi2
 1357 008c 5A1C     		adds	r2, r3, #1
 1358 008e FA77     		strb	r2, [r7, #31]
 1359 0090 1946     		mov	r1, r3
 1360 0092 7B88     		ldrh	r3, [r7, #2]	@ movhi
 1361 0094 DBB2     		uxtb	r3, r3
 1362 0096 63F07F03 		orn	r3, r3, #127
 1363 009a DAB2     		uxtb	r2, r3
 1364 009c 07F12003 		add	r3, r7, #32
 1365 00a0 0B44     		add	r3, r3, r1
 1366 00a2 03F8182C 		strb	r2, [r3, #-24]
 368:..\..\..\HamFlyAPI\src/hamfly_core_gimbal.c ****         pkt[idx++] = (uint8_t)(attr_id >> 7u);
 1367              		.loc 1 368 0
 1368 00a6 FB7F     		ldrb	r3, [r7, #31]	@ zero_extendqisi2
 1369 00a8 5A1C     		adds	r2, r3, #1
 1370 00aa FA77     		strb	r2, [r7, #31]
 1371 00ac 1946     		mov	r1, r3
 1372 00ae 7B88     		ldrh	r3, [r7, #2]
 1373 00b0 DB09     		lsrs	r3, r3, #7
 1374 00b2 9BB2     		uxth	r3, r3
 1375 00b4 DAB2     		uxtb	r2, r3
 1376 00b6 07F12003 		add	r3, r7, #32
 1377 00ba 0B44     		add	r3, r3, r1
 1378 00bc 03F8182C 		strb	r2, [r3, #-24]
 1379              	.L85:
 369:..\..\..\HamFlyAPI\src/hamfly_core_gimbal.c ****     }
 370:..\..\..\HamFlyAPI\src/hamfly_core_gimbal.c ****     pkt[idx++] = 0x02u;  // Options byte -> write with no response
 1380              		.loc 1 370 0
 1381 00c0 FB7F     		ldrb	r3, [r7, #31]	@ zero_extendqisi2
 1382 00c2 5A1C     		adds	r2, r3, #1
 1383 00c4 FA77     		strb	r2, [r7, #31]
 1384 00c6 07F12002 		add	r2, r7, #32
 1385 00ca 1344     		add	r3, r3, r2
 1386 00cc 0222     		movs	r2, #2
 1387 00ce 03F8182C 		strb	r2, [r3, #-24]
 371:..\..\..\HamFlyAPI\src/hamfly_core_gimbal.c ****     pkt[idx++] = 0x0Au;  // SOURCE -> QX_DEV_ID_MOVI_API_CONTROLLER
ARM GAS  C:\Users\JENNEW~1\AppData\Local\Temp\ccBYNzIK.s 			page 32


 1388              		.loc 1 371 0
 1389 00d2 FB7F     		ldrb	r3, [r7, #31]	@ zero_extendqisi2
 1390 00d4 5A1C     		adds	r2, r3, #1
 1391 00d6 FA77     		strb	r2, [r7, #31]
 1392 00d8 07F12002 		add	r2, r7, #32
 1393 00dc 1344     		add	r3, r3, r2
 1394 00de 0A22     		movs	r2, #10
 1395 00e0 03F8182C 		strb	r2, [r3, #-24]
 372:..\..\..\HamFlyAPI\src/hamfly_core_gimbal.c ****     pkt[idx++] = (uint8_t)g->gimbal_id;
 1396              		.loc 1 372 0
 1397 00e4 FB7F     		ldrb	r3, [r7, #31]	@ zero_extendqisi2
 1398 00e6 5A1C     		adds	r2, r3, #1
 1399 00e8 FA77     		strb	r2, [r7, #31]
 1400 00ea 1946     		mov	r1, r3
 1401 00ec 7B68     		ldr	r3, [r7, #4]
 1402 00ee 93F83023 		ldrb	r2, [r3, #816]	@ zero_extendqisi2
 1403 00f2 07F12003 		add	r3, r7, #32
 1404 00f6 0B44     		add	r3, r3, r1
 1405 00f8 03F8182C 		strb	r2, [r3, #-24]
 373:..\..\..\HamFlyAPI\src/hamfly_core_gimbal.c ****     pkt[idx++] = 0x00u;  // Transmit request ID (TRID)
 1406              		.loc 1 373 0
 1407 00fc FB7F     		ldrb	r3, [r7, #31]	@ zero_extendqisi2
 1408 00fe 5A1C     		adds	r2, r3, #1
 1409 0100 FA77     		strb	r2, [r7, #31]
 1410 0102 07F12002 		add	r2, r7, #32
 1411 0106 1344     		add	r3, r3, r2
 1412 0108 0022     		movs	r2, #0
 1413 010a 03F8182C 		strb	r2, [r3, #-24]
 374:..\..\..\HamFlyAPI\src/hamfly_core_gimbal.c ****     pkt[idx++] = 0x00u;  // Receive request ID (RRID)
 1414              		.loc 1 374 0
 1415 010e FB7F     		ldrb	r3, [r7, #31]	@ zero_extendqisi2
 1416 0110 5A1C     		adds	r2, r3, #1
 1417 0112 FA77     		strb	r2, [r7, #31]
 1418 0114 07F12002 		add	r2, r7, #32
 1419 0118 1344     		add	r3, r3, r2
 1420 011a 0022     		movs	r2, #0
 1421 011c 03F8182C 		strb	r2, [r3, #-24]
 375:..\..\..\HamFlyAPI\src/hamfly_core_gimbal.c ****     pkt[idx++] = value;  // Byte you want to write
 1422              		.loc 1 375 0
 1423 0120 FB7F     		ldrb	r3, [r7, #31]	@ zero_extendqisi2
 1424 0122 5A1C     		adds	r2, r3, #1
 1425 0124 FA77     		strb	r2, [r7, #31]
 1426 0126 07F12002 		add	r2, r7, #32
 1427 012a 1344     		add	r3, r3, r2
 1428 012c 7A78     		ldrb	r2, [r7, #1]
 1429 012e 03F8182C 		strb	r2, [r3, #-24]
 376:..\..\..\HamFlyAPI\src/hamfly_core_gimbal.c **** 
 377:..\..\..\HamFlyAPI\src/hamfly_core_gimbal.c ****     // Append the checksum byte;
 378:..\..\..\HamFlyAPI\src/hamfly_core_gimbal.c ****     // The 8-bit inverted sum of all bytes after the header.
 379:..\..\..\HamFlyAPI\src/hamfly_core_gimbal.c ****     uint16_t sum = 0u;
 1430              		.loc 1 379 0
 1431 0132 0023     		movs	r3, #0
 1432 0134 BB83     		strh	r3, [r7, #28]	@ movhi
 380:..\..\..\HamFlyAPI\src/hamfly_core_gimbal.c ****     for (i = 3u; i < idx; i++) sum += pkt[i];
 1433              		.loc 1 380 0
 1434 0136 0323     		movs	r3, #3
 1435 0138 BB77     		strb	r3, [r7, #30]
ARM GAS  C:\Users\JENNEW~1\AppData\Local\Temp\ccBYNzIK.s 			page 33


 1436 013a 0CE0     		b	.L86
 1437              	.L87:
 1438              		.loc 1 380 0 is_stmt 0 discriminator 3
 1439 013c BB7F     		ldrb	r3, [r7, #30]	@ zero_extendqisi2
 1440 013e 07F12002 		add	r2, r7, #32
 1441 0142 1344     		add	r3, r3, r2
 1442 0144 13F8183C 		ldrb	r3, [r3, #-24]	@ zero_extendqisi2
 1443 0148 9AB2     		uxth	r2, r3
 1444 014a BB8B     		ldrh	r3, [r7, #28]	@ movhi
 1445 014c 1344     		add	r3, r3, r2
 1446 014e BB83     		strh	r3, [r7, #28]	@ movhi
 1447 0150 BB7F     		ldrb	r3, [r7, #30]	@ zero_extendqisi2
 1448 0152 0133     		adds	r3, r3, #1
 1449 0154 BB77     		strb	r3, [r7, #30]
 1450              	.L86:
 1451              		.loc 1 380 0 discriminator 1
 1452 0156 BA7F     		ldrb	r2, [r7, #30]	@ zero_extendqisi2
 1453 0158 FB7F     		ldrb	r3, [r7, #31]	@ zero_extendqisi2
 1454 015a 9A42     		cmp	r2, r3
 1455 015c EED3     		bcc	.L87
 381:..\..\..\HamFlyAPI\src/hamfly_core_gimbal.c ****     pkt[idx++] = (uint8_t)(255u - (sum & 0xFFu));
 1456              		.loc 1 381 0 is_stmt 1
 1457 015e FB7F     		ldrb	r3, [r7, #31]	@ zero_extendqisi2
 1458 0160 5A1C     		adds	r2, r3, #1
 1459 0162 FA77     		strb	r2, [r7, #31]
 1460 0164 1946     		mov	r1, r3
 1461 0166 BB8B     		ldrh	r3, [r7, #28]	@ movhi
 1462 0168 DBB2     		uxtb	r3, r3
 1463 016a DB43     		mvns	r3, r3
 1464 016c DAB2     		uxtb	r2, r3
 1465 016e 07F12003 		add	r3, r7, #32
 1466 0172 0B44     		add	r3, r3, r1
 1467 0174 03F8182C 		strb	r2, [r3, #-24]
 382:..\..\..\HamFlyAPI\src/hamfly_core_gimbal.c **** 
 383:..\..\..\HamFlyAPI\src/hamfly_core_gimbal.c ****     // Send packet to the UART.
 384:..\..\..\HamFlyAPI\src/hamfly_core_gimbal.c ****     uint32_t sent = 0u;
 1468              		.loc 1 384 0
 1469 0178 0023     		movs	r3, #0
 1470 017a BB61     		str	r3, [r7, #24]
 385:..\..\..\HamFlyAPI\src/hamfly_core_gimbal.c ****     for (i = 0u; i < idx; i++) {
 1471              		.loc 1 385 0
 1472 017c 0023     		movs	r3, #0
 1473 017e BB77     		strb	r3, [r7, #30]
 1474 0180 11E0     		b	.L88
 1475              	.L89:
 386:..\..\..\HamFlyAPI\src/hamfly_core_gimbal.c ****         g->hal.uart_putc(g->hal.ctx, pkt[i]);
 1476              		.loc 1 386 0 discriminator 3
 1477 0182 7B68     		ldr	r3, [r7, #4]
 1478 0184 5B68     		ldr	r3, [r3, #4]
 1479 0186 7A68     		ldr	r2, [r7, #4]
 1480 0188 1068     		ldr	r0, [r2]
 1481 018a BA7F     		ldrb	r2, [r7, #30]	@ zero_extendqisi2
 1482 018c 07F12001 		add	r1, r7, #32
 1483 0190 0A44     		add	r2, r2, r1
 1484 0192 12F8182C 		ldrb	r2, [r2, #-24]	@ zero_extendqisi2
 1485 0196 1146     		mov	r1, r2
 1486 0198 9847     		blx	r3
ARM GAS  C:\Users\JENNEW~1\AppData\Local\Temp\ccBYNzIK.s 			page 34


 387:..\..\..\HamFlyAPI\src/hamfly_core_gimbal.c ****         sent++;
 1487              		.loc 1 387 0 discriminator 3
 1488 019a BB69     		ldr	r3, [r7, #24]
 1489 019c 0133     		adds	r3, r3, #1
 1490 019e BB61     		str	r3, [r7, #24]
 385:..\..\..\HamFlyAPI\src/hamfly_core_gimbal.c ****     for (i = 0u; i < idx; i++) {
 1491              		.loc 1 385 0 discriminator 3
 1492 01a0 BB7F     		ldrb	r3, [r7, #30]	@ zero_extendqisi2
 1493 01a2 0133     		adds	r3, r3, #1
 1494 01a4 BB77     		strb	r3, [r7, #30]
 1495              	.L88:
 385:..\..\..\HamFlyAPI\src/hamfly_core_gimbal.c ****     for (i = 0u; i < idx; i++) {
 1496              		.loc 1 385 0 is_stmt 0 discriminator 1
 1497 01a6 BA7F     		ldrb	r2, [r7, #30]	@ zero_extendqisi2
 1498 01a8 FB7F     		ldrb	r3, [r7, #31]	@ zero_extendqisi2
 1499 01aa 9A42     		cmp	r2, r3
 1500 01ac E9D3     		bcc	.L89
 388:..\..\..\HamFlyAPI\src/hamfly_core_gimbal.c ****     }
 389:..\..\..\HamFlyAPI\src/hamfly_core_gimbal.c **** 
 390:..\..\..\HamFlyAPI\src/hamfly_core_gimbal.c ****     // Update stats.
 391:..\..\..\HamFlyAPI\src/hamfly_core_gimbal.c ****     g->statistics.tx_packets++;
 1501              		.loc 1 391 0 is_stmt 1
 1502 01ae 7B68     		ldr	r3, [r7, #4]
 1503 01b0 D3F80C31 		ldr	r3, [r3, #268]
 1504 01b4 5A1C     		adds	r2, r3, #1
 1505 01b6 7B68     		ldr	r3, [r7, #4]
 1506 01b8 C3F80C21 		str	r2, [r3, #268]
 392:..\..\..\HamFlyAPI\src/hamfly_core_gimbal.c ****     g->statistics.tx_bytes += sent;
 1507              		.loc 1 392 0
 1508 01bc 7B68     		ldr	r3, [r7, #4]
 1509 01be D3F81021 		ldr	r2, [r3, #272]
 1510 01c2 BB69     		ldr	r3, [r7, #24]
 1511 01c4 1A44     		add	r2, r2, r3
 1512 01c6 7B68     		ldr	r3, [r7, #4]
 1513 01c8 C3F81021 		str	r2, [r3, #272]
 393:..\..\..\HamFlyAPI\src/hamfly_core_gimbal.c **** 
 394:..\..\..\HamFlyAPI\src/hamfly_core_gimbal.c ****     // Return UART error if any occurred during this process.
 395:..\..\..\HamFlyAPI\src/hamfly_core_gimbal.c ****     return (g->statistics.uart_err_flags != 0u) ? HAMFLY_ERR_UART : HAMFLY_OK;
 1514              		.loc 1 395 0
 1515 01cc 7B68     		ldr	r3, [r7, #4]
 1516 01ce 93F82231 		ldrb	r3, [r3, #290]	@ zero_extendqisi2
 1517 01d2 002B     		cmp	r3, #0
 1518 01d4 14BF     		ite	ne
 1519 01d6 0123     		movne	r3, #1
 1520 01d8 0023     		moveq	r3, #0
 1521 01da DBB2     		uxtb	r3, r3
 1522              	.L90:
 396:..\..\..\HamFlyAPI\src/hamfly_core_gimbal.c **** }
 1523              		.loc 1 396 0 discriminator 1
 1524 01dc 1846     		mov	r0, r3
 1525 01de 2037     		adds	r7, r7, #32
 1526              		.cfi_def_cfa_offset 8
 1527 01e0 BD46     		mov	sp, r7
 1528              		.cfi_def_cfa_register 13
 1529              		@ sp needed
 1530 01e2 80BD     		pop	{r7, pc}
 1531              		.cfi_endproc
ARM GAS  C:\Users\JENNEW~1\AppData\Local\Temp\ccBYNzIK.s 			page 35


 1532              	.LFE13:
 1533              		.size	hamfly_write_attr_u8, .-hamfly_write_attr_u8
 1534              		.section	.text.hamfly_get_telemetry,"ax",%progbits
 1535              		.align	2
 1536              		.global	hamfly_get_telemetry
 1537              		.thumb
 1538              		.thumb_func
 1539              		.type	hamfly_get_telemetry, %function
 1540              	hamfly_get_telemetry:
 1541              	.LFB14:
 397:..\..\..\HamFlyAPI\src/hamfly_core_gimbal.c **** 
 398:..\..\..\HamFlyAPI\src/hamfly_core_gimbal.c **** // ============================================================================
 399:..\..\..\HamFlyAPI\src/hamfly_core_gimbal.c **** // Accessors for telemetry and statistics.
 400:..\..\..\HamFlyAPI\src/hamfly_core_gimbal.c **** // ============================================================================
 401:..\..\..\HamFlyAPI\src/hamfly_core_gimbal.c **** 
 402:..\..\..\HamFlyAPI\src/hamfly_core_gimbal.c **** // Get a copy of the telemetry struct.
 403:..\..\..\HamFlyAPI\src/hamfly_core_gimbal.c **** void hamfly_get_telemetry(hamfly_gimbal_t *g, hamfly_telemetry_t *out)
 404:..\..\..\HamFlyAPI\src/hamfly_core_gimbal.c **** {
 1542              		.loc 1 404 0
 1543              		.cfi_startproc
 1544              		@ args = 0, pretend = 0, frame = 8
 1545              		@ frame_needed = 1, uses_anonymous_args = 0
 1546 0000 80B5     		push	{r7, lr}
 1547              		.cfi_def_cfa_offset 8
 1548              		.cfi_offset 7, -8
 1549              		.cfi_offset 14, -4
 1550 0002 82B0     		sub	sp, sp, #8
 1551              		.cfi_def_cfa_offset 16
 1552 0004 00AF     		add	r7, sp, #0
 1553              		.cfi_def_cfa_register 7
 1554 0006 7860     		str	r0, [r7, #4]
 1555 0008 3960     		str	r1, [r7]
 405:..\..\..\HamFlyAPI\src/hamfly_core_gimbal.c ****     if (!g || !out) return;
 1556              		.loc 1 405 0
 1557 000a 7B68     		ldr	r3, [r7, #4]
 1558 000c 002B     		cmp	r3, #0
 1559 000e 0BD0     		beq	.L95
 1560              		.loc 1 405 0 is_stmt 0 discriminator 1
 1561 0010 3B68     		ldr	r3, [r7]
 1562 0012 002B     		cmp	r3, #0
 1563 0014 08D0     		beq	.L95
 406:..\..\..\HamFlyAPI\src/hamfly_core_gimbal.c ****     *out = g->telemetry;
 1564              		.loc 1 406 0 is_stmt 1
 1565 0016 3A68     		ldr	r2, [r7]
 1566 0018 7B68     		ldr	r3, [r7, #4]
 1567 001a 1046     		mov	r0, r2
 1568 001c 2033     		adds	r3, r3, #32
 1569 001e EC22     		movs	r2, #236
 1570 0020 1946     		mov	r1, r3
 1571 0022 FFF7FEFF 		bl	memcpy
 1572 0026 00E0     		b	.L91
 1573              	.L95:
 405:..\..\..\HamFlyAPI\src/hamfly_core_gimbal.c ****     if (!g || !out) return;
 1574              		.loc 1 405 0
 1575 0028 00BF     		nop
 1576              	.L91:
 407:..\..\..\HamFlyAPI\src/hamfly_core_gimbal.c **** }
ARM GAS  C:\Users\JENNEW~1\AppData\Local\Temp\ccBYNzIK.s 			page 36


 1577              		.loc 1 407 0
 1578 002a 0837     		adds	r7, r7, #8
 1579              		.cfi_def_cfa_offset 8
 1580 002c BD46     		mov	sp, r7
 1581              		.cfi_def_cfa_register 13
 1582              		@ sp needed
 1583 002e 80BD     		pop	{r7, pc}
 1584              		.cfi_endproc
 1585              	.LFE14:
 1586              		.size	hamfly_get_telemetry, .-hamfly_get_telemetry
 1587              		.section	.text.hamfly_get_statistics,"ax",%progbits
 1588              		.align	2
 1589              		.global	hamfly_get_statistics
 1590              		.thumb
 1591              		.thumb_func
 1592              		.type	hamfly_get_statistics, %function
 1593              	hamfly_get_statistics:
 1594              	.LFB15:
 408:..\..\..\HamFlyAPI\src/hamfly_core_gimbal.c **** 
 409:..\..\..\HamFlyAPI\src/hamfly_core_gimbal.c **** // Get a copy of the statistics struct with the latest ring buffer drops.
 410:..\..\..\HamFlyAPI\src/hamfly_core_gimbal.c **** void hamfly_get_statistics(hamfly_gimbal_t *g, hamfly_statistics_t *out)
 411:..\..\..\HamFlyAPI\src/hamfly_core_gimbal.c **** {
 1595              		.loc 1 411 0
 1596              		.cfi_startproc
 1597              		@ args = 0, pretend = 0, frame = 8
 1598              		@ frame_needed = 1, uses_anonymous_args = 0
 1599              		@ link register save eliminated.
 1600 0000 B0B4     		push	{r4, r5, r7}
 1601              		.cfi_def_cfa_offset 12
 1602              		.cfi_offset 4, -12
 1603              		.cfi_offset 5, -8
 1604              		.cfi_offset 7, -4
 1605 0002 83B0     		sub	sp, sp, #12
 1606              		.cfi_def_cfa_offset 24
 1607 0004 00AF     		add	r7, sp, #0
 1608              		.cfi_def_cfa_register 7
 1609 0006 7860     		str	r0, [r7, #4]
 1610 0008 3960     		str	r1, [r7]
 412:..\..\..\HamFlyAPI\src/hamfly_core_gimbal.c ****     if (!g || !out) return;
 1611              		.loc 1 412 0
 1612 000a 7B68     		ldr	r3, [r7, #4]
 1613 000c 002B     		cmp	r3, #0
 1614 000e 15D0     		beq	.L100
 1615              		.loc 1 412 0 is_stmt 0 discriminator 1
 1616 0010 3B68     		ldr	r3, [r7]
 1617 0012 002B     		cmp	r3, #0
 1618 0014 12D0     		beq	.L100
 413:..\..\..\HamFlyAPI\src/hamfly_core_gimbal.c ****     g->statistics.rxbuf_drops = g->rxbuf.drops;
 1619              		.loc 1 413 0 is_stmt 1
 1620 0016 7B68     		ldr	r3, [r7, #4]
 1621 0018 B3F82832 		ldrh	r3, [r3, #552]	@ movhi
 1622 001c 9AB2     		uxth	r2, r3
 1623 001e 7B68     		ldr	r3, [r7, #4]
 1624 0020 A3F82021 		strh	r2, [r3, #288]	@ movhi
 414:..\..\..\HamFlyAPI\src/hamfly_core_gimbal.c ****     *out = g->statistics;
 1625              		.loc 1 414 0
 1626 0024 3A68     		ldr	r2, [r7]
ARM GAS  C:\Users\JENNEW~1\AppData\Local\Temp\ccBYNzIK.s 			page 37


 1627 0026 7B68     		ldr	r3, [r7, #4]
 1628 0028 1546     		mov	r5, r2
 1629 002a 03F58674 		add	r4, r3, #268
 1630 002e 0FCC     		ldmia	r4!, {r0, r1, r2, r3}
 1631 0030 0FC5     		stmia	r5!, {r0, r1, r2, r3}
 1632 0032 94E80300 		ldmia	r4, {r0, r1}
 1633 0036 85E80300 		stmia	r5, {r0, r1}
 1634 003a 00E0     		b	.L96
 1635              	.L100:
 412:..\..\..\HamFlyAPI\src/hamfly_core_gimbal.c ****     if (!g || !out) return;
 1636              		.loc 1 412 0
 1637 003c 00BF     		nop
 1638              	.L96:
 415:..\..\..\HamFlyAPI\src/hamfly_core_gimbal.c **** }
 1639              		.loc 1 415 0
 1640 003e 0C37     		adds	r7, r7, #12
 1641              		.cfi_def_cfa_offset 12
 1642 0040 BD46     		mov	sp, r7
 1643              		.cfi_def_cfa_register 13
 1644              		@ sp needed
 1645 0042 B0BC     		pop	{r4, r5, r7}
 1646              		.cfi_restore 7
 1647              		.cfi_restore 5
 1648              		.cfi_restore 4
 1649              		.cfi_def_cfa_offset 0
 1650 0044 7047     		bx	lr
 1651              		.cfi_endproc
 1652              	.LFE15:
 1653              		.size	hamfly_get_statistics, .-hamfly_get_statistics
 1654 0046 00BF     		.section	.text.hamfly_control_init,"ax",%progbits
 1655              		.align	2
 1656              		.global	hamfly_control_init
 1657              		.thumb
 1658              		.thumb_func
 1659              		.type	hamfly_control_init, %function
 1660              	hamfly_control_init:
 1661              	.LFB16:
 416:..\..\..\HamFlyAPI\src/hamfly_core_gimbal.c **** 
 417:..\..\..\HamFlyAPI\src/hamfly_core_gimbal.c **** // ============================================================================
 418:..\..\..\HamFlyAPI\src/hamfly_core_gimbal.c **** // Hamfly Control Init: safe inert default for a new control struct.
 419:..\..\..\HamFlyAPI\src/hamfly_core_gimbal.c **** // ============================================================================
 420:..\..\..\HamFlyAPI\src/hamfly_core_gimbal.c **** void hamfly_control_init(hamfly_control_t *c)
 421:..\..\..\HamFlyAPI\src/hamfly_core_gimbal.c **** {
 1662              		.loc 1 421 0
 1663              		.cfi_startproc
 1664              		@ args = 0, pretend = 0, frame = 8
 1665              		@ frame_needed = 1, uses_anonymous_args = 0
 1666 0000 80B5     		push	{r7, lr}
 1667              		.cfi_def_cfa_offset 8
 1668              		.cfi_offset 7, -8
 1669              		.cfi_offset 14, -4
 1670 0002 82B0     		sub	sp, sp, #8
 1671              		.cfi_def_cfa_offset 16
 1672 0004 00AF     		add	r7, sp, #0
 1673              		.cfi_def_cfa_register 7
 1674 0006 7860     		str	r0, [r7, #4]
 422:..\..\..\HamFlyAPI\src/hamfly_core_gimbal.c ****     if (!c) return;
ARM GAS  C:\Users\JENNEW~1\AppData\Local\Temp\ccBYNzIK.s 			page 38


 1675              		.loc 1 422 0
 1676 0008 7B68     		ldr	r3, [r7, #4]
 1677 000a 002B     		cmp	r3, #0
 1678 000c 0ED0     		beq	.L104
 423:..\..\..\HamFlyAPI\src/hamfly_core_gimbal.c ****     memset(c, 0, sizeof(*c));
 1679              		.loc 1 423 0
 1680 000e 1422     		movs	r2, #20
 1681 0010 0021     		movs	r1, #0
 1682 0012 7868     		ldr	r0, [r7, #4]
 1683 0014 FFF7FEFF 		bl	memset
 424:..\..\..\HamFlyAPI\src/hamfly_core_gimbal.c ****     /* All axes DEFER, enable=0 (inert until app opts in), kill=0. */
 425:..\..\..\HamFlyAPI\src/hamfly_core_gimbal.c ****     c->pan_mode  = HAMFLY_DEFER;
 1684              		.loc 1 425 0
 1685 0018 7B68     		ldr	r3, [r7, #4]
 1686 001a 0022     		movs	r2, #0
 1687 001c 1A73     		strb	r2, [r3, #12]
 426:..\..\..\HamFlyAPI\src/hamfly_core_gimbal.c ****     c->tilt_mode = HAMFLY_DEFER;
 1688              		.loc 1 426 0
 1689 001e 7B68     		ldr	r3, [r7, #4]
 1690 0020 0022     		movs	r2, #0
 1691 0022 5A73     		strb	r2, [r3, #13]
 427:..\..\..\HamFlyAPI\src/hamfly_core_gimbal.c ****     c->roll_mode = HAMFLY_DEFER;
 1692              		.loc 1 427 0
 1693 0024 7B68     		ldr	r3, [r7, #4]
 1694 0026 0022     		movs	r2, #0
 1695 0028 9A73     		strb	r2, [r3, #14]
 1696 002a 00E0     		b	.L101
 1697              	.L104:
 422:..\..\..\HamFlyAPI\src/hamfly_core_gimbal.c ****     memset(c, 0, sizeof(*c));
 1698              		.loc 1 422 0
 1699 002c 00BF     		nop
 1700              	.L101:
 428:..\..\..\HamFlyAPI\src/hamfly_core_gimbal.c **** }
 1701              		.loc 1 428 0
 1702 002e 0837     		adds	r7, r7, #8
 1703              		.cfi_def_cfa_offset 8
 1704 0030 BD46     		mov	sp, r7
 1705              		.cfi_def_cfa_register 13
 1706              		@ sp needed
 1707 0032 80BD     		pop	{r7, pc}
 1708              		.cfi_endproc
 1709              	.LFE16:
 1710              		.size	hamfly_control_init, .-hamfly_control_init
 1711              		.section	.text.hamfly_is_killed,"ax",%progbits
 1712              		.align	2
 1713              		.global	hamfly_is_killed
 1714              		.thumb
 1715              		.thumb_func
 1716              		.type	hamfly_is_killed, %function
 1717              	hamfly_is_killed:
 1718              	.LFB17:
 429:..\..\..\HamFlyAPI\src/hamfly_core_gimbal.c **** 
 430:..\..\..\HamFlyAPI\src/hamfly_core_gimbal.c **** // ============================================================================
 431:..\..\..\HamFlyAPI\src/hamfly_core_gimbal.c **** // Hamfly Is Killed: report last commanded kill state.
 432:..\..\..\HamFlyAPI\src/hamfly_core_gimbal.c **** // ============================================================================
 433:..\..\..\HamFlyAPI\src/hamfly_core_gimbal.c **** uint8_t hamfly_is_killed(const hamfly_gimbal_t *g)
 434:..\..\..\HamFlyAPI\src/hamfly_core_gimbal.c **** {
ARM GAS  C:\Users\JENNEW~1\AppData\Local\Temp\ccBYNzIK.s 			page 39


 1719              		.loc 1 434 0
 1720              		.cfi_startproc
 1721              		@ args = 0, pretend = 0, frame = 8
 1722              		@ frame_needed = 1, uses_anonymous_args = 0
 1723              		@ link register save eliminated.
 1724 0000 80B4     		push	{r7}
 1725              		.cfi_def_cfa_offset 4
 1726              		.cfi_offset 7, -4
 1727 0002 83B0     		sub	sp, sp, #12
 1728              		.cfi_def_cfa_offset 16
 1729 0004 00AF     		add	r7, sp, #0
 1730              		.cfi_def_cfa_register 7
 1731 0006 7860     		str	r0, [r7, #4]
 435:..\..\..\HamFlyAPI\src/hamfly_core_gimbal.c ****     if (!g) return 0u;
 1732              		.loc 1 435 0
 1733 0008 7B68     		ldr	r3, [r7, #4]
 1734 000a 002B     		cmp	r3, #0
 1735 000c 01D1     		bne	.L106
 1736              		.loc 1 435 0 is_stmt 0 discriminator 1
 1737 000e 0023     		movs	r3, #0
 1738 0010 06E0     		b	.L107
 1739              	.L106:
 436:..\..\..\HamFlyAPI\src/hamfly_core_gimbal.c ****     return g->ctl.kill ? 1u : 0u;
 1740              		.loc 1 436 0 is_stmt 1
 1741 0012 7B68     		ldr	r3, [r7, #4]
 1742 0014 1B7F     		ldrb	r3, [r3, #28]	@ zero_extendqisi2
 1743 0016 002B     		cmp	r3, #0
 1744 0018 01D0     		beq	.L108
 1745              		.loc 1 436 0 is_stmt 0 discriminator 1
 1746 001a 0123     		movs	r3, #1
 1747 001c 00E0     		b	.L107
 1748              	.L108:
 1749              		.loc 1 436 0 discriminator 2
 1750 001e 0023     		movs	r3, #0
 1751              	.L107:
 437:..\..\..\HamFlyAPI\src/hamfly_core_gimbal.c **** }
 1752              		.loc 1 437 0 is_stmt 1
 1753 0020 1846     		mov	r0, r3
 1754 0022 0C37     		adds	r7, r7, #12
 1755              		.cfi_def_cfa_offset 4
 1756 0024 BD46     		mov	sp, r7
 1757              		.cfi_def_cfa_register 13
 1758              		@ sp needed
 1759 0026 80BC     		pop	{r7}
 1760              		.cfi_restore 7
 1761              		.cfi_def_cfa_offset 0
 1762 0028 7047     		bx	lr
 1763              		.cfi_endproc
 1764              	.LFE17:
 1765              		.size	hamfly_is_killed, .-hamfly_is_killed
 1766 002a 00BF     		.section	.text.hamfly_home,"ax",%progbits
 1767              		.align	2
 1768              		.global	hamfly_home
 1769              		.thumb
 1770              		.thumb_func
 1771              		.type	hamfly_home, %function
 1772              	hamfly_home:
ARM GAS  C:\Users\JENNEW~1\AppData\Local\Temp\ccBYNzIK.s 			page 40


 1773              	.LFB18:
 438:..\..\..\HamFlyAPI\src/hamfly_core_gimbal.c **** 
 439:..\..\..\HamFlyAPI\src/hamfly_core_gimbal.c **** // ============================================================================
 440:..\..\..\HamFlyAPI\src/hamfly_core_gimbal.c **** // Hamfly Home: Reset heading reference and baro home point.
 441:..\..\..\HamFlyAPI\src/hamfly_core_gimbal.c **** // ============================================================================
 442:..\..\..\HamFlyAPI\src/hamfly_core_gimbal.c **** hamfly_result_t hamfly_home(hamfly_gimbal_t *g)
 443:..\..\..\HamFlyAPI\src/hamfly_core_gimbal.c **** {
 1774              		.loc 1 443 0
 1775              		.cfi_startproc
 1776              		@ args = 0, pretend = 0, frame = 8
 1777              		@ frame_needed = 1, uses_anonymous_args = 0
 1778 0000 80B5     		push	{r7, lr}
 1779              		.cfi_def_cfa_offset 8
 1780              		.cfi_offset 7, -8
 1781              		.cfi_offset 14, -4
 1782 0002 82B0     		sub	sp, sp, #8
 1783              		.cfi_def_cfa_offset 16
 1784 0004 00AF     		add	r7, sp, #0
 1785              		.cfi_def_cfa_register 7
 1786 0006 7860     		str	r0, [r7, #4]
 444:..\..\..\HamFlyAPI\src/hamfly_core_gimbal.c ****     /* Attr 382 resets both:
 445:..\..\..\HamFlyAPI\src/hamfly_core_gimbal.c ****      *  - compass heading reference (North zeroing — unconfirmed)
 446:..\..\..\HamFlyAPI\src/hamfly_core_gimbal.c ****      *  - baro home reference (baro_alt_m reads ~0 after reset)
 447:..\..\..\HamFlyAPI\src/hamfly_core_gimbal.c ****      * GPS reference is unaffected (GPS is always absolute). */
 448:..\..\..\HamFlyAPI\src/hamfly_core_gimbal.c ****     return hamfly_write_attr_u8(g, HAMFLY_ATTR_HEADING_RESET, 0x01u);
 1787              		.loc 1 448 0
 1788 0008 0122     		movs	r2, #1
 1789 000a 4FF4BF71 		mov	r1, #382
 1790 000e 7868     		ldr	r0, [r7, #4]
 1791 0010 FFF7FEFF 		bl	hamfly_write_attr_u8
 1792 0014 0346     		mov	r3, r0
 449:..\..\..\HamFlyAPI\src/hamfly_core_gimbal.c **** }
 1793              		.loc 1 449 0
 1794 0016 1846     		mov	r0, r3
 1795 0018 0837     		adds	r7, r7, #8
 1796              		.cfi_def_cfa_offset 8
 1797 001a BD46     		mov	sp, r7
 1798              		.cfi_def_cfa_register 13
 1799              		@ sp needed
 1800 001c 80BD     		pop	{r7, pc}
 1801              		.cfi_endproc
 1802              	.LFE18:
 1803              		.size	hamfly_home, .-hamfly_home
 1804 001e 00BF     		.section	.text.hamfly_compass_cal_start,"ax",%progbits
 1805              		.align	2
 1806              		.global	hamfly_compass_cal_start
 1807              		.thumb
 1808              		.thumb_func
 1809              		.type	hamfly_compass_cal_start, %function
 1810              	hamfly_compass_cal_start:
 1811              	.LFB19:
 450:..\..\..\HamFlyAPI\src/hamfly_core_gimbal.c **** 
 451:..\..\..\HamFlyAPI\src/hamfly_core_gimbal.c **** // ============================================================================
 452:..\..\..\HamFlyAPI\src/hamfly_core_gimbal.c **** // Hamfly Compass Cal Start: Stub — attr not yet confirmed.
 453:..\..\..\HamFlyAPI\src/hamfly_core_gimbal.c **** // ============================================================================
 454:..\..\..\HamFlyAPI\src/hamfly_core_gimbal.c **** hamfly_result_t hamfly_compass_cal_start(hamfly_gimbal_t *g)
 455:..\..\..\HamFlyAPI\src/hamfly_core_gimbal.c **** {
ARM GAS  C:\Users\JENNEW~1\AppData\Local\Temp\ccBYNzIK.s 			page 41


 1812              		.loc 1 455 0
 1813              		.cfi_startproc
 1814              		@ args = 0, pretend = 0, frame = 8
 1815              		@ frame_needed = 1, uses_anonymous_args = 0
 1816              		@ link register save eliminated.
 1817 0000 80B4     		push	{r7}
 1818              		.cfi_def_cfa_offset 4
 1819              		.cfi_offset 7, -4
 1820 0002 83B0     		sub	sp, sp, #12
 1821              		.cfi_def_cfa_offset 16
 1822 0004 00AF     		add	r7, sp, #0
 1823              		.cfi_def_cfa_register 7
 1824 0006 7860     		str	r0, [r7, #4]
 456:..\..\..\HamFlyAPI\src/hamfly_core_gimbal.c ****     /* TODO: compass calibration attr/command not yet confirmed.
 457:..\..\..\HamFlyAPI\src/hamfly_core_gimbal.c ****      * Steps to determine:
 458:..\..\..\HamFlyAPI\src/hamfly_core_gimbal.c ****      *  1. Initiate calibration from iOS app while sniffing serial.
 459:..\..\..\HamFlyAPI\src/hamfly_core_gimbal.c ****      *  2. Identify the attr write that triggers the sequence.
 460:..\..\..\HamFlyAPI\src/hamfly_core_gimbal.c ****      *  3. Confirm with flag_compass_error clearing in sysstat.
 461:..\..\..\HamFlyAPI\src/hamfly_core_gimbal.c ****      * Implement once attr is confirmed. */
 462:..\..\..\HamFlyAPI\src/hamfly_core_gimbal.c ****     (void)g;
 463:..\..\..\HamFlyAPI\src/hamfly_core_gimbal.c ****     return HAMFLY_ERR_BAD_STATE;
 1825              		.loc 1 463 0
 1826 0008 0523     		movs	r3, #5
 464:..\..\..\HamFlyAPI\src/hamfly_core_gimbal.c **** }
 1827              		.loc 1 464 0
 1828 000a 1846     		mov	r0, r3
 1829 000c 0C37     		adds	r7, r7, #12
 1830              		.cfi_def_cfa_offset 4
 1831 000e BD46     		mov	sp, r7
 1832              		.cfi_def_cfa_register 13
 1833              		@ sp needed
 1834 0010 80BC     		pop	{r7}
 1835              		.cfi_restore 7
 1836              		.cfi_def_cfa_offset 0
 1837 0012 7047     		bx	lr
 1838              		.cfi_endproc
 1839              	.LFE19:
 1840              		.size	hamfly_compass_cal_start, .-hamfly_compass_cal_start
 1841              		.global	__aeabi_i2d
 1842              		.global	__aeabi_dmul
 1843              		.global	__aeabi_fsub
 1844              		.global	__aeabi_f2d
 1845              		.global	__aeabi_dadd
 1846              		.global	__aeabi_dcmplt
 1847              		.global	__aeabi_ddiv
 1848              		.global	__aeabi_d2f
 1849              		.global	__aeabi_dsub
 1850              		.global	__aeabi_dcmpge
 1851              		.section	.text.hamfly_calc_gps_pointing,"ax",%progbits
 1852              		.align	2
 1853              		.global	hamfly_calc_gps_pointing
 1854              		.thumb
 1855              		.thumb_func
 1856              		.type	hamfly_calc_gps_pointing, %function
 1857              	hamfly_calc_gps_pointing:
 1858              	.LFB20:
 465:..\..\..\HamFlyAPI\src/hamfly_core_gimbal.c **** 
ARM GAS  C:\Users\JENNEW~1\AppData\Local\Temp\ccBYNzIK.s 			page 42


 466:..\..\..\HamFlyAPI\src/hamfly_core_gimbal.c **** // ============================================================================
 467:..\..\..\HamFlyAPI\src/hamfly_core_gimbal.c **** // Hamfly Calc GPS Pointing: Flat-earth ENU pointing from platform to target.
 468:..\..\..\HamFlyAPI\src/hamfly_core_gimbal.c **** // ============================================================================
 469:..\..\..\HamFlyAPI\src/hamfly_core_gimbal.c **** // Uses double-precision intermediates for lat/lon conversion.
 470:..\..\..\HamFlyAPI\src/hamfly_core_gimbal.c **** // Flat-earth approximation valid for distances < ~10 km.
 471:..\..\..\HamFlyAPI\src/hamfly_core_gimbal.c **** // ============================================================================
 472:..\..\..\HamFlyAPI\src/hamfly_core_gimbal.c **** hamfly_result_t hamfly_calc_gps_pointing(
 473:..\..\..\HamFlyAPI\src/hamfly_core_gimbal.c ****     const hamfly_gps_coord_t *platform,
 474:..\..\..\HamFlyAPI\src/hamfly_core_gimbal.c ****     const hamfly_gps_coord_t *target,
 475:..\..\..\HamFlyAPI\src/hamfly_core_gimbal.c ****     float                     heading_offset_deg,
 476:..\..\..\HamFlyAPI\src/hamfly_core_gimbal.c ****     hamfly_pointing_t        *out,
 477:..\..\..\HamFlyAPI\src/hamfly_core_gimbal.c ****     hamfly_control_t         *ctl_out)
 478:..\..\..\HamFlyAPI\src/hamfly_core_gimbal.c **** {
 1859              		.loc 1 478 0
 1860              		.cfi_startproc
 1861              		@ args = 4, pretend = 0, frame = 104
 1862              		@ frame_needed = 1, uses_anonymous_args = 0
 1863 0000 B0B5     		push	{r4, r5, r7, lr}
 1864              		.cfi_def_cfa_offset 16
 1865              		.cfi_offset 4, -16
 1866              		.cfi_offset 5, -12
 1867              		.cfi_offset 7, -8
 1868              		.cfi_offset 14, -4
 1869 0002 9AB0     		sub	sp, sp, #104
 1870              		.cfi_def_cfa_offset 120
 1871 0004 00AF     		add	r7, sp, #0
 1872              		.cfi_def_cfa_register 7
 1873 0006 F860     		str	r0, [r7, #12]
 1874 0008 B960     		str	r1, [r7, #8]
 1875 000a 7A60     		str	r2, [r7, #4]	@ float
 1876 000c 3B60     		str	r3, [r7]
 479:..\..\..\HamFlyAPI\src/hamfly_core_gimbal.c ****     if (!platform || !target || !out) return HAMFLY_ERR_ENCODE;
 1877              		.loc 1 479 0
 1878 000e FB68     		ldr	r3, [r7, #12]
 1879 0010 002B     		cmp	r3, #0
 1880 0012 05D0     		beq	.L115
 1881              		.loc 1 479 0 is_stmt 0 discriminator 2
 1882 0014 BB68     		ldr	r3, [r7, #8]
 1883 0016 002B     		cmp	r3, #0
 1884 0018 02D0     		beq	.L115
 1885              		.loc 1 479 0 discriminator 4
 1886 001a 3B68     		ldr	r3, [r7]
 1887 001c 002B     		cmp	r3, #0
 1888 001e 01D1     		bne	.L116
 1889              	.L115:
 1890              		.loc 1 479 0 discriminator 5
 1891 0020 0223     		movs	r3, #2
 1892 0022 6AE1     		b	.L117
 1893              	.L116:
 480:..\..\..\HamFlyAPI\src/hamfly_core_gimbal.c **** 
 481:..\..\..\HamFlyAPI\src/hamfly_core_gimbal.c ****     /* Convert int32 lat/lon to radians (double precision).
 482:..\..\..\HamFlyAPI\src/hamfly_core_gimbal.c ****      * 1e-7 deg/count * pi/180 = pi/1.8e9                    */
 483:..\..\..\HamFlyAPI\src/hamfly_core_gimbal.c ****     static const double DEG2RAD = 3.14159265358979323846 / 180.0;
 484:..\..\..\HamFlyAPI\src/hamfly_core_gimbal.c ****     static const double R_EARTH = 6371000.0;  /* metres */
 485:..\..\..\HamFlyAPI\src/hamfly_core_gimbal.c **** 
 486:..\..\..\HamFlyAPI\src/hamfly_core_gimbal.c ****     double lat0_rad = (double)platform->lat_e7 * 1e-7 * DEG2RAD;
 1894              		.loc 1 486 0 is_stmt 1
ARM GAS  C:\Users\JENNEW~1\AppData\Local\Temp\ccBYNzIK.s 			page 43


 1895 0024 FB68     		ldr	r3, [r7, #12]
 1896 0026 1B68     		ldr	r3, [r3]
 1897 0028 1846     		mov	r0, r3
 1898 002a FFF7FEFF 		bl	__aeabi_i2d
 1899 002e 90A3     		adr	r3, .L130
 1900 0030 D3E90023 		ldrd	r2, [r3]
 1901 0034 FFF7FEFF 		bl	__aeabi_dmul
 1902 0038 0346     		mov	r3, r0
 1903 003a 0C46     		mov	r4, r1
 1904 003c 1846     		mov	r0, r3
 1905 003e 2146     		mov	r1, r4
 1906 0040 8F4B     		ldr	r3, .L130+16
 1907 0042 18CB     		ldmia	r3, {r3-r4}
 1908 0044 1A46     		mov	r2, r3
 1909 0046 2346     		mov	r3, r4
 1910 0048 FFF7FEFF 		bl	__aeabi_dmul
 1911 004c 0346     		mov	r3, r0
 1912 004e 0C46     		mov	r4, r1
 1913 0050 C7E91434 		strd	r3, [r7, #80]
 487:..\..\..\HamFlyAPI\src/hamfly_core_gimbal.c ****     double dLat_deg = (double)(target->lat_e7 - platform->lat_e7) * 1e-7;
 1914              		.loc 1 487 0
 1915 0054 BB68     		ldr	r3, [r7, #8]
 1916 0056 1A68     		ldr	r2, [r3]
 1917 0058 FB68     		ldr	r3, [r7, #12]
 1918 005a 1B68     		ldr	r3, [r3]
 1919 005c D31A     		subs	r3, r2, r3
 1920 005e 1846     		mov	r0, r3
 1921 0060 FFF7FEFF 		bl	__aeabi_i2d
 1922 0064 82A3     		adr	r3, .L130
 1923 0066 D3E90023 		ldrd	r2, [r3]
 1924 006a FFF7FEFF 		bl	__aeabi_dmul
 1925 006e 0346     		mov	r3, r0
 1926 0070 0C46     		mov	r4, r1
 1927 0072 C7E91234 		strd	r3, [r7, #72]
 488:..\..\..\HamFlyAPI\src/hamfly_core_gimbal.c ****     double dLon_deg = (double)(target->lon_e7 - platform->lon_e7) * 1e-7;
 1928              		.loc 1 488 0
 1929 0076 BB68     		ldr	r3, [r7, #8]
 1930 0078 5A68     		ldr	r2, [r3, #4]
 1931 007a FB68     		ldr	r3, [r7, #12]
 1932 007c 5B68     		ldr	r3, [r3, #4]
 1933 007e D31A     		subs	r3, r2, r3
 1934 0080 1846     		mov	r0, r3
 1935 0082 FFF7FEFF 		bl	__aeabi_i2d
 1936 0086 7AA3     		adr	r3, .L130
 1937 0088 D3E90023 		ldrd	r2, [r3]
 1938 008c FFF7FEFF 		bl	__aeabi_dmul
 1939 0090 0346     		mov	r3, r0
 1940 0092 0C46     		mov	r4, r1
 1941 0094 C7E91034 		strd	r3, [r7, #64]
 489:..\..\..\HamFlyAPI\src/hamfly_core_gimbal.c **** 
 490:..\..\..\HamFlyAPI\src/hamfly_core_gimbal.c ****     /* ENU components (metres). */
 491:..\..\..\HamFlyAPI\src/hamfly_core_gimbal.c ****     double E   = R_EARTH * dLon_deg * DEG2RAD * cos(lat0_rad);
 1942              		.loc 1 491 0
 1943 0098 7A4B     		ldr	r3, .L130+20
 1944 009a D3E90001 		ldrd	r0, [r3]
 1945 009e D7E91023 		ldrd	r2, [r7, #64]
 1946 00a2 FFF7FEFF 		bl	__aeabi_dmul
ARM GAS  C:\Users\JENNEW~1\AppData\Local\Temp\ccBYNzIK.s 			page 44


 1947 00a6 0346     		mov	r3, r0
 1948 00a8 0C46     		mov	r4, r1
 1949 00aa 1846     		mov	r0, r3
 1950 00ac 2146     		mov	r1, r4
 1951 00ae 744B     		ldr	r3, .L130+16
 1952 00b0 18CB     		ldmia	r3, {r3-r4}
 1953 00b2 1A46     		mov	r2, r3
 1954 00b4 2346     		mov	r3, r4
 1955 00b6 FFF7FEFF 		bl	__aeabi_dmul
 1956 00ba 0346     		mov	r3, r0
 1957 00bc 0C46     		mov	r4, r1
 1958 00be 2546     		mov	r5, r4
 1959 00c0 1C46     		mov	r4, r3
 1960 00c2 D7E91401 		ldrd	r0, [r7, #80]
 1961 00c6 FFF7FEFF 		bl	cos
 1962 00ca 0246     		mov	r2, r0
 1963 00cc 0B46     		mov	r3, r1
 1964 00ce 2046     		mov	r0, r4
 1965 00d0 2946     		mov	r1, r5
 1966 00d2 FFF7FEFF 		bl	__aeabi_dmul
 1967 00d6 0346     		mov	r3, r0
 1968 00d8 0C46     		mov	r4, r1
 1969 00da C7E90E34 		strd	r3, [r7, #56]
 492:..\..\..\HamFlyAPI\src/hamfly_core_gimbal.c ****     double N   = R_EARTH * dLat_deg * DEG2RAD;
 1970              		.loc 1 492 0
 1971 00de 694B     		ldr	r3, .L130+20
 1972 00e0 D3E90001 		ldrd	r0, [r3]
 1973 00e4 D7E91223 		ldrd	r2, [r7, #72]
 1974 00e8 FFF7FEFF 		bl	__aeabi_dmul
 1975 00ec 0346     		mov	r3, r0
 1976 00ee 0C46     		mov	r4, r1
 1977 00f0 1846     		mov	r0, r3
 1978 00f2 2146     		mov	r1, r4
 1979 00f4 624B     		ldr	r3, .L130+16
 1980 00f6 18CB     		ldmia	r3, {r3-r4}
 1981 00f8 1A46     		mov	r2, r3
 1982 00fa 2346     		mov	r3, r4
 1983 00fc FFF7FEFF 		bl	__aeabi_dmul
 1984 0100 0346     		mov	r3, r0
 1985 0102 0C46     		mov	r4, r1
 1986 0104 C7E90C34 		strd	r3, [r7, #48]
 493:..\..\..\HamFlyAPI\src/hamfly_core_gimbal.c ****     double U   = (double)(target->alt_baro_m - platform->alt_baro_m);
 1987              		.loc 1 493 0
 1988 0108 BB68     		ldr	r3, [r7, #8]
 1989 010a 9A68     		ldr	r2, [r3, #8]	@ float
 1990 010c FB68     		ldr	r3, [r7, #12]
 1991 010e 9B68     		ldr	r3, [r3, #8]	@ float
 1992 0110 1946     		mov	r1, r3
 1993 0112 1046     		mov	r0, r2
 1994 0114 FFF7FEFF 		bl	__aeabi_fsub
 1995 0118 0346     		mov	r3, r0
 1996 011a 1846     		mov	r0, r3
 1997 011c FFF7FEFF 		bl	__aeabi_f2d
 1998 0120 0346     		mov	r3, r0
 1999 0122 0C46     		mov	r4, r1
 2000 0124 C7E90A34 		strd	r3, [r7, #40]
 494:..\..\..\HamFlyAPI\src/hamfly_core_gimbal.c **** 
ARM GAS  C:\Users\JENNEW~1\AppData\Local\Temp\ccBYNzIK.s 			page 45


 495:..\..\..\HamFlyAPI\src/hamfly_core_gimbal.c ****     /* Horizontal distance. */
 496:..\..\..\HamFlyAPI\src/hamfly_core_gimbal.c ****     double d2d = sqrt(E * E + N * N);
 2001              		.loc 1 496 0
 2002 0128 D7E90E23 		ldrd	r2, [r7, #56]
 2003 012c D7E90E01 		ldrd	r0, [r7, #56]
 2004 0130 FFF7FEFF 		bl	__aeabi_dmul
 2005 0134 0346     		mov	r3, r0
 2006 0136 0C46     		mov	r4, r1
 2007 0138 2546     		mov	r5, r4
 2008 013a 1C46     		mov	r4, r3
 2009 013c D7E90C23 		ldrd	r2, [r7, #48]
 2010 0140 D7E90C01 		ldrd	r0, [r7, #48]
 2011 0144 FFF7FEFF 		bl	__aeabi_dmul
 2012 0148 0246     		mov	r2, r0
 2013 014a 0B46     		mov	r3, r1
 2014 014c 2046     		mov	r0, r4
 2015 014e 2946     		mov	r1, r5
 2016 0150 FFF7FEFF 		bl	__aeabi_dadd
 2017 0154 0346     		mov	r3, r0
 2018 0156 0C46     		mov	r4, r1
 2019 0158 1846     		mov	r0, r3
 2020 015a 2146     		mov	r1, r4
 2021 015c FFF7FEFF 		bl	sqrt
 2022 0160 C7E90801 		strd	r0, [r7, #32]
 497:..\..\..\HamFlyAPI\src/hamfly_core_gimbal.c **** 
 498:..\..\..\HamFlyAPI\src/hamfly_core_gimbal.c ****     /* Degenerate: platform and target are within 0.1 m horizontally. */
 499:..\..\..\HamFlyAPI\src/hamfly_core_gimbal.c ****     if (d2d < 0.1) return HAMFLY_ERR_ENCODE;
 2023              		.loc 1 499 0
 2024 0164 44A3     		adr	r3, .L130+8
 2025 0166 D3E90023 		ldrd	r2, [r3]
 2026 016a D7E90801 		ldrd	r0, [r7, #32]
 2027 016e FFF7FEFF 		bl	__aeabi_dcmplt
 2028 0172 0346     		mov	r3, r0
 2029 0174 002B     		cmp	r3, #0
 2030 0176 01D0     		beq	.L129
 2031              		.loc 1 499 0 is_stmt 0 discriminator 1
 2032 0178 0223     		movs	r3, #2
 2033 017a BEE0     		b	.L117
 2034              	.L129:
 500:..\..\..\HamFlyAPI\src/hamfly_core_gimbal.c **** 
 501:..\..\..\HamFlyAPI\src/hamfly_core_gimbal.c ****     /* Azimuth: atan2(E, N) gives bearing clockwise from North. */
 502:..\..\..\HamFlyAPI\src/hamfly_core_gimbal.c ****     double az_rad = atan2(E, N);
 2035              		.loc 1 502 0 is_stmt 1
 2036 017c D7E90C23 		ldrd	r2, [r7, #48]
 2037 0180 D7E90E01 		ldrd	r0, [r7, #56]
 2038 0184 FFF7FEFF 		bl	atan2
 2039 0188 C7E90601 		strd	r0, [r7, #24]
 503:..\..\..\HamFlyAPI\src/hamfly_core_gimbal.c ****     double az_deg = az_rad / DEG2RAD;
 2040              		.loc 1 503 0
 2041 018c 3C4B     		ldr	r3, .L130+16
 2042 018e 18CB     		ldmia	r3, {r3-r4}
 2043 0190 1A46     		mov	r2, r3
 2044 0192 2346     		mov	r3, r4
 2045 0194 D7E90601 		ldrd	r0, [r7, #24]
 2046 0198 FFF7FEFF 		bl	__aeabi_ddiv
 2047 019c 0346     		mov	r3, r0
 2048 019e 0C46     		mov	r4, r1
ARM GAS  C:\Users\JENNEW~1\AppData\Local\Temp\ccBYNzIK.s 			page 46


 2049 01a0 C7E91834 		strd	r3, [r7, #96]
 504:..\..\..\HamFlyAPI\src/hamfly_core_gimbal.c ****     if (az_deg < 0.0) az_deg += 360.0;
 2050              		.loc 1 504 0
 2051 01a4 4FF00002 		mov	r2, #0
 2052 01a8 4FF00003 		mov	r3, #0
 2053 01ac D7E91801 		ldrd	r0, [r7, #96]
 2054 01b0 FFF7FEFF 		bl	__aeabi_dcmplt
 2055 01b4 0346     		mov	r3, r0
 2056 01b6 002B     		cmp	r3, #0
 2057 01b8 0AD0     		beq	.L120
 2058              		.loc 1 504 0 is_stmt 0 discriminator 1
 2059 01ba 4FF00002 		mov	r2, #0
 2060 01be 324B     		ldr	r3, .L130+24
 2061 01c0 D7E91801 		ldrd	r0, [r7, #96]
 2062 01c4 FFF7FEFF 		bl	__aeabi_dadd
 2063 01c8 0346     		mov	r3, r0
 2064 01ca 0C46     		mov	r4, r1
 2065 01cc C7E91834 		strd	r3, [r7, #96]
 2066              	.L120:
 505:..\..\..\HamFlyAPI\src/hamfly_core_gimbal.c **** 
 506:..\..\..\HamFlyAPI\src/hamfly_core_gimbal.c ****     /* Elevation: angle above horizon. */
 507:..\..\..\HamFlyAPI\src/hamfly_core_gimbal.c ****     double el_deg = atan2(U, d2d) / DEG2RAD;
 2067              		.loc 1 507 0 is_stmt 1
 2068 01d0 D7E90823 		ldrd	r2, [r7, #32]
 2069 01d4 D7E90A01 		ldrd	r0, [r7, #40]
 2070 01d8 FFF7FEFF 		bl	atan2
 2071 01dc 284B     		ldr	r3, .L130+16
 2072 01de 18CB     		ldmia	r3, {r3-r4}
 2073 01e0 1A46     		mov	r2, r3
 2074 01e2 2346     		mov	r3, r4
 2075 01e4 FFF7FEFF 		bl	__aeabi_ddiv
 2076 01e8 0346     		mov	r3, r0
 2077 01ea 0C46     		mov	r4, r1
 2078 01ec C7E90434 		strd	r3, [r7, #16]
 508:..\..\..\HamFlyAPI\src/hamfly_core_gimbal.c **** 
 509:..\..\..\HamFlyAPI\src/hamfly_core_gimbal.c ****     /* Populate output. */
 510:..\..\..\HamFlyAPI\src/hamfly_core_gimbal.c ****     out->azimuth_deg   = (float)az_deg;
 2079              		.loc 1 510 0
 2080 01f0 D7E91801 		ldrd	r0, [r7, #96]
 2081 01f4 FFF7FEFF 		bl	__aeabi_d2f
 2082 01f8 0246     		mov	r2, r0
 2083 01fa 3B68     		ldr	r3, [r7]
 2084 01fc 1A60     		str	r2, [r3]	@ float
 511:..\..\..\HamFlyAPI\src/hamfly_core_gimbal.c ****     out->elevation_deg = (float)el_deg;
 2085              		.loc 1 511 0
 2086 01fe D7E90401 		ldrd	r0, [r7, #16]
 2087 0202 FFF7FEFF 		bl	__aeabi_d2f
 2088 0206 0246     		mov	r2, r0
 2089 0208 3B68     		ldr	r3, [r7]
 2090 020a 5A60     		str	r2, [r3, #4]	@ float
 512:..\..\..\HamFlyAPI\src/hamfly_core_gimbal.c ****     out->distance_m    = (float)d2d;
 2091              		.loc 1 512 0
 2092 020c D7E90801 		ldrd	r0, [r7, #32]
 2093 0210 FFF7FEFF 		bl	__aeabi_d2f
 2094 0214 0246     		mov	r2, r0
 2095 0216 3B68     		ldr	r3, [r7]
 2096 0218 9A60     		str	r2, [r3, #8]	@ float
ARM GAS  C:\Users\JENNEW~1\AppData\Local\Temp\ccBYNzIK.s 			page 47


 513:..\..\..\HamFlyAPI\src/hamfly_core_gimbal.c **** 
 514:..\..\..\HamFlyAPI\src/hamfly_core_gimbal.c ****     /* Optionally fill a control packet ready for hamfly_send_control(). */
 515:..\..\..\HamFlyAPI\src/hamfly_core_gimbal.c ****     if (ctl_out) {
 2097              		.loc 1 515 0
 2098 021a BB6F     		ldr	r3, [r7, #120]
 2099 021c 002B     		cmp	r3, #0
 2100 021e 6BD0     		beq	.L122
 2101              	.LBB4:
 516:..\..\..\HamFlyAPI\src/hamfly_core_gimbal.c ****         double pan_cmd = az_deg - (double)heading_offset_deg;
 2102              		.loc 1 516 0
 2103 0220 7868     		ldr	r0, [r7, #4]	@ float
 2104 0222 FFF7FEFF 		bl	__aeabi_f2d
 2105 0226 0346     		mov	r3, r0
 2106 0228 0C46     		mov	r4, r1
 2107 022a 1A46     		mov	r2, r3
 2108 022c 2346     		mov	r3, r4
 2109 022e D7E91801 		ldrd	r0, [r7, #96]
 2110 0232 FFF7FEFF 		bl	__aeabi_dsub
 2111 0236 0346     		mov	r3, r0
 2112 0238 0C46     		mov	r4, r1
 2113 023a C7E91634 		strd	r3, [r7, #88]
 517:..\..\..\HamFlyAPI\src/hamfly_core_gimbal.c ****         /* Normalise pan to [0, 360). */
 518:..\..\..\HamFlyAPI\src/hamfly_core_gimbal.c ****         while (pan_cmd <    0.0) pan_cmd += 360.0;
 2114              		.loc 1 518 0
 2115 023e 0AE0     		b	.L123
 2116              	.L124:
 2117              		.loc 1 518 0 is_stmt 0 discriminator 2
 2118 0240 4FF00002 		mov	r2, #0
 2119 0244 104B     		ldr	r3, .L130+24
 2120 0246 D7E91601 		ldrd	r0, [r7, #88]
 2121 024a FFF7FEFF 		bl	__aeabi_dadd
 2122 024e 0346     		mov	r3, r0
 2123 0250 0C46     		mov	r4, r1
 2124 0252 C7E91634 		strd	r3, [r7, #88]
 2125              	.L123:
 2126              		.loc 1 518 0 discriminator 1
 2127 0256 4FF00002 		mov	r2, #0
 2128 025a 4FF00003 		mov	r3, #0
 2129 025e D7E91601 		ldrd	r0, [r7, #88]
 2130 0262 FFF7FEFF 		bl	__aeabi_dcmplt
 2131 0266 0346     		mov	r3, r0
 2132 0268 002B     		cmp	r3, #0
 2133 026a E9D1     		bne	.L124
 519:..\..\..\HamFlyAPI\src/hamfly_core_gimbal.c ****         while (pan_cmd >= 360.0) pan_cmd -= 360.0;
 2134              		.loc 1 519 0 is_stmt 1
 2135 026c 19E0     		b	.L125
 2136              	.L131:
 2137 026e 00BF     		.align	3
 2138              	.L130:
 2139 0270 48AFBC9A 		.word	-1698910392
 2140 0274 F2D77A3E 		.word	1048238066
 2141 0278 9A999999 		.word	-1717986918
 2142 027c 9999B93F 		.word	1069128089
 2143 0280 00000000 		.word	DEG2RAD.6259
 2144 0284 08000000 		.word	R_EARTH.6260
 2145 0288 00807640 		.word	1081507840
 2146              	.L126:
ARM GAS  C:\Users\JENNEW~1\AppData\Local\Temp\ccBYNzIK.s 			page 48


 2147              		.loc 1 519 0 is_stmt 0 discriminator 2
 2148 028c 4FF00002 		mov	r2, #0
 2149 0290 1C4B     		ldr	r3, .L132
 2150 0292 D7E91601 		ldrd	r0, [r7, #88]
 2151 0296 FFF7FEFF 		bl	__aeabi_dsub
 2152 029a 0346     		mov	r3, r0
 2153 029c 0C46     		mov	r4, r1
 2154 029e C7E91634 		strd	r3, [r7, #88]
 2155              	.L125:
 2156              		.loc 1 519 0 discriminator 1
 2157 02a2 4FF00002 		mov	r2, #0
 2158 02a6 174B     		ldr	r3, .L132
 2159 02a8 D7E91601 		ldrd	r0, [r7, #88]
 2160 02ac FFF7FEFF 		bl	__aeabi_dcmpge
 2161 02b0 0346     		mov	r3, r0
 2162 02b2 002B     		cmp	r3, #0
 2163 02b4 EAD1     		bne	.L126
 520:..\..\..\HamFlyAPI\src/hamfly_core_gimbal.c **** 
 521:..\..\..\HamFlyAPI\src/hamfly_core_gimbal.c ****         ctl_out->pan       = (float)pan_cmd;
 2164              		.loc 1 521 0 is_stmt 1
 2165 02b6 D7E91601 		ldrd	r0, [r7, #88]
 2166 02ba FFF7FEFF 		bl	__aeabi_d2f
 2167 02be 0246     		mov	r2, r0
 2168 02c0 BB6F     		ldr	r3, [r7, #120]
 2169 02c2 1A60     		str	r2, [r3]	@ float
 522:..\..\..\HamFlyAPI\src/hamfly_core_gimbal.c ****         ctl_out->tilt      = (float)el_deg;
 2170              		.loc 1 522 0
 2171 02c4 D7E90401 		ldrd	r0, [r7, #16]
 2172 02c8 FFF7FEFF 		bl	__aeabi_d2f
 2173 02cc 0246     		mov	r2, r0
 2174 02ce BB6F     		ldr	r3, [r7, #120]
 2175 02d0 5A60     		str	r2, [r3, #4]	@ float
 523:..\..\..\HamFlyAPI\src/hamfly_core_gimbal.c ****         ctl_out->roll      = 0.0f;
 2176              		.loc 1 523 0
 2177 02d2 BB6F     		ldr	r3, [r7, #120]
 2178 02d4 4FF00002 		mov	r2, #0
 2179 02d8 9A60     		str	r2, [r3, #8]	@ float
 524:..\..\..\HamFlyAPI\src/hamfly_core_gimbal.c ****         ctl_out->pan_mode  = HAMFLY_ABSOLUTE;
 2180              		.loc 1 524 0
 2181 02da BB6F     		ldr	r3, [r7, #120]
 2182 02dc 0222     		movs	r2, #2
 2183 02de 1A73     		strb	r2, [r3, #12]
 525:..\..\..\HamFlyAPI\src/hamfly_core_gimbal.c ****         ctl_out->tilt_mode = HAMFLY_ABSOLUTE;
 2184              		.loc 1 525 0
 2185 02e0 BB6F     		ldr	r3, [r7, #120]
 2186 02e2 0222     		movs	r2, #2
 2187 02e4 5A73     		strb	r2, [r3, #13]
 526:..\..\..\HamFlyAPI\src/hamfly_core_gimbal.c ****         ctl_out->roll_mode = HAMFLY_DEFER;
 2188              		.loc 1 526 0
 2189 02e6 BB6F     		ldr	r3, [r7, #120]
 2190 02e8 0022     		movs	r2, #0
 2191 02ea 9A73     		strb	r2, [r3, #14]
 527:..\..\..\HamFlyAPI\src/hamfly_core_gimbal.c ****         ctl_out->enable    = 1u;  // TODO: Remove?
 2192              		.loc 1 527 0
 2193 02ec BB6F     		ldr	r3, [r7, #120]
 2194 02ee 0122     		movs	r2, #1
 2195 02f0 DA73     		strb	r2, [r3, #15]
ARM GAS  C:\Users\JENNEW~1\AppData\Local\Temp\ccBYNzIK.s 			page 49


 528:..\..\..\HamFlyAPI\src/hamfly_core_gimbal.c ****         ctl_out->kill      = 0u;
 2196              		.loc 1 528 0
 2197 02f2 BB6F     		ldr	r3, [r7, #120]
 2198 02f4 0022     		movs	r2, #0
 2199 02f6 1A74     		strb	r2, [r3, #16]
 2200              	.L122:
 2201              	.LBE4:
 529:..\..\..\HamFlyAPI\src/hamfly_core_gimbal.c ****     }
 530:..\..\..\HamFlyAPI\src/hamfly_core_gimbal.c **** 
 531:..\..\..\HamFlyAPI\src/hamfly_core_gimbal.c ****     return HAMFLY_OK;
 2202              		.loc 1 531 0
 2203 02f8 0023     		movs	r3, #0
 2204              	.L117:
 532:..\..\..\HamFlyAPI\src/hamfly_core_gimbal.c **** }...
 2205              		.loc 1 532 0
 2206 02fa 1846     		mov	r0, r3
 2207 02fc 6837     		adds	r7, r7, #104
 2208              		.cfi_def_cfa_offset 16
 2209 02fe BD46     		mov	sp, r7
 2210              		.cfi_def_cfa_register 13
 2211              		@ sp needed
 2212 0300 B0BD     		pop	{r4, r5, r7, pc}
 2213              	.L133:
 2214 0302 00BF     		.align	2
 2215              	.L132:
 2216 0304 00807640 		.word	1081507840
 2217              		.cfi_endproc
 2218              	.LFE20:
 2219              		.size	hamfly_calc_gps_pointing, .-hamfly_calc_gps_pointing
 2220              		.section	.rodata
 2221              		.align	3
 2222              		.type	DEG2RAD.6259, %object
 2223              		.size	DEG2RAD.6259, 8
 2224              	DEG2RAD.6259:
 2225 0000 399D52A2 		.word	-1571644103
 2226 0004 46DF913F 		.word	1066524486
 2227              		.align	3
 2228              		.type	R_EARTH.6260, %object
 2229              		.size	R_EARTH.6260, 8
 2230              	R_EARTH.6260:
 2231 0008 00000000 		.word	0
 2232 000c AE4D5841 		.word	1096306094
 2233              		.text
 2234              	.Letext0:
 2235              		.file 2 "c:\\program files (x86)\\cypress\\psoc creator\\4.4\\psoc creator\\import\\gnu\\arm\\5.4.
 2236              		.file 3 "c:\\program files (x86)\\cypress\\psoc creator\\4.4\\psoc creator\\import\\gnu\\arm\\5.4.
 2237              		.file 4 "..\\..\\..\\HamFlyAPI\\src\\hamfly_core_hal.h"
 2238              		.file 5 "..\\..\\..\\HamFlyAPI\\src\\hamfly_core_control.h"
 2239              		.file 6 "..\\..\\..\\HamFlyAPI\\src\\hamfly_core_telemetry.h"
 2240              		.file 7 "..\\..\\..\\HamFlyAPI\\src\\hamfly_comm_rb.h"
 2241              		.file 8 "..\\..\\..\\HamFlyAPI\\src\\hamfly_core_gimbal.h"
 2242              		.file 9 "..\\..\\..\\HamFlyAPI\\src\\hamfly_qx_app.h"
 2243              		.file 10 "..\\..\\..\\HamFlyAPI\\src\\hamfly_qx_protocol.h"