ARM GAS  C:\Users\JENNEW~1\AppData\Local\Temp\ccI7hFDI.s 			page 1


   1              		.syntax unified
   2              		.cpu cortex-m3
   3              		.fpu softvfp
   4              		.eabi_attribute 20, 1
   5              		.eabi_attribute 21, 1
   6              		.eabi_attribute 23, 3
   7              		.eabi_attribute 24, 1
   8              		.eabi_attribute 25, 1
   9              		.eabi_attribute 26, 1
  10              		.eabi_attribute 30, 6
  11              		.eabi_attribute 34, 1
  12              		.eabi_attribute 18, 4
  13              		.thumb
  14              		.syntax unified
  15              		.file	"hamfly_core_telemetry.c"
  16              		.text
  17              	.Ltext0:
  18              		.cfi_sections	.debug_frame
  19              		.section	.text.rd_be32,"ax",%progbits
  20              		.align	2
  21              		.thumb
  22              		.thumb_func
  23              		.type	rd_be32, %function
  24              	rd_be32:
  25              	.LFB0:
  26              		.file 1 "..\\..\\..\\HamFlyAPI\\src\\hamfly_core_telemetry.c"
   1:..\..\..\HamFlyAPI\src/hamfly_core_telemetry.c **** /* SPDX-License-Identifier: Apache-2.0
   2:..\..\..\HamFlyAPI\src/hamfly_core_telemetry.c ****  *
   3:..\..\..\HamFlyAPI\src/hamfly_core_telemetry.c ****  * Copyright 2026 Hamish Johnson
   4:..\..\..\HamFlyAPI\src/hamfly_core_telemetry.c ****  * Quantum Information Systems Lab, SFU Physics
   5:..\..\..\HamFlyAPI\src/hamfly_core_telemetry.c ****  *
   6:..\..\..\HamFlyAPI\src/hamfly_core_telemetry.c ****  * Licensed under the Apache License, Version 2.0 (the "License");
   7:..\..\..\HamFlyAPI\src/hamfly_core_telemetry.c ****  * you may not use this file except in compliance with the License.
   8:..\..\..\HamFlyAPI\src/hamfly_core_telemetry.c ****  * You may obtain a copy of the License at
   9:..\..\..\HamFlyAPI\src/hamfly_core_telemetry.c ****  *
  10:..\..\..\HamFlyAPI\src/hamfly_core_telemetry.c ****  *     http://www.apache.org/licenses/LICENSE-2.0
  11:..\..\..\HamFlyAPI\src/hamfly_core_telemetry.c ****  *
  12:..\..\..\HamFlyAPI\src/hamfly_core_telemetry.c ****  * Unless required by applicable law or agreed to in writing, software
  13:..\..\..\HamFlyAPI\src/hamfly_core_telemetry.c ****  * distributed under the License is distributed on an "AS IS" BASIS,
  14:..\..\..\HamFlyAPI\src/hamfly_core_telemetry.c ****  * WITHOUT WARRANTIES OR CONDITIONS OF ANY KIND, either express or
  15:..\..\..\HamFlyAPI\src/hamfly_core_telemetry.c ****  * implied. See the License for the specific language governing
  16:..\..\..\HamFlyAPI\src/hamfly_core_telemetry.c ****  * permissions and limitations under the License.
  17:..\..\..\HamFlyAPI\src/hamfly_core_telemetry.c ****  */
  18:..\..\..\HamFlyAPI\src/hamfly_core_telemetry.c **** 
  19:..\..\..\HamFlyAPI\src/hamfly_core_telemetry.c **** #include "hamfly_core_telemetry.h"
  20:..\..\..\HamFlyAPI\src/hamfly_core_telemetry.c **** #include "hamfly_qx_protocol.h"
  21:..\..\..\HamFlyAPI\src/hamfly_core_telemetry.c **** #include <string.h>
  22:..\..\..\HamFlyAPI\src/hamfly_core_telemetry.c **** #include <stdint.h>
  23:..\..\..\HamFlyAPI\src/hamfly_core_telemetry.c **** #include <math.h>
  24:..\..\..\HamFlyAPI\src/hamfly_core_telemetry.c **** 
  25:..\..\..\HamFlyAPI\src/hamfly_core_telemetry.c **** // ============================================================================
  26:..\..\..\HamFlyAPI\src/hamfly_core_telemetry.c **** // Helpers: Big and Little Endian readers.
  27:..\..\..\HamFlyAPI\src/hamfly_core_telemetry.c **** // Used for attr 1, 4, 287 which are big-endian with no sub-index byte.
  28:..\..\..\HamFlyAPI\src/hamfly_core_telemetry.c **** // Attr 22 is little-endian with a 0x00 sub-index at offset 0, so use rd_le16.
  29:..\..\..\HamFlyAPI\src/hamfly_core_telemetry.c **** // ============================================================================
  30:..\..\..\HamFlyAPI\src/hamfly_core_telemetry.c **** 
  31:..\..\..\HamFlyAPI\src/hamfly_core_telemetry.c **** // Read big-endian int32 from buffer.
ARM GAS  C:\Users\JENNEW~1\AppData\Local\Temp\ccI7hFDI.s 			page 2


  32:..\..\..\HamFlyAPI\src/hamfly_core_telemetry.c **** static int32_t rd_be32(const uint8_t *p)
  33:..\..\..\HamFlyAPI\src/hamfly_core_telemetry.c **** {
  27              		.loc 1 33 0
  28              		.cfi_startproc
  29              		@ args = 0, pretend = 0, frame = 8
  30              		@ frame_needed = 1, uses_anonymous_args = 0
  31              		@ link register save eliminated.
  32 0000 80B4     		push	{r7}
  33              		.cfi_def_cfa_offset 4
  34              		.cfi_offset 7, -4
  35 0002 83B0     		sub	sp, sp, #12
  36              		.cfi_def_cfa_offset 16
  37 0004 00AF     		add	r7, sp, #0
  38              		.cfi_def_cfa_register 7
  39 0006 7860     		str	r0, [r7, #4]
  34:..\..\..\HamFlyAPI\src/hamfly_core_telemetry.c ****     return (int32_t)(  ((uint32_t)p[0] << 24)
  40              		.loc 1 34 0
  41 0008 7B68     		ldr	r3, [r7, #4]
  42 000a 1B78     		ldrb	r3, [r3]	@ zero_extendqisi2
  43 000c 1A06     		lsls	r2, r3, #24
  35:..\..\..\HamFlyAPI\src/hamfly_core_telemetry.c ****                      | ((uint32_t)p[1] << 16)
  44              		.loc 1 35 0
  45 000e 7B68     		ldr	r3, [r7, #4]
  46 0010 0133     		adds	r3, r3, #1
  47 0012 1B78     		ldrb	r3, [r3]	@ zero_extendqisi2
  48 0014 1B04     		lsls	r3, r3, #16
  49 0016 1A43     		orrs	r2, r2, r3
  36:..\..\..\HamFlyAPI\src/hamfly_core_telemetry.c ****                      | ((uint32_t)p[2] <<  8)
  50              		.loc 1 36 0
  51 0018 7B68     		ldr	r3, [r7, #4]
  52 001a 0233     		adds	r3, r3, #2
  53 001c 1B78     		ldrb	r3, [r3]	@ zero_extendqisi2
  54 001e 1B02     		lsls	r3, r3, #8
  55 0020 1343     		orrs	r3, r3, r2
  37:..\..\..\HamFlyAPI\src/hamfly_core_telemetry.c ****                      |  (uint32_t)p[3]);
  56              		.loc 1 37 0
  57 0022 7A68     		ldr	r2, [r7, #4]
  58 0024 0332     		adds	r2, r2, #3
  59 0026 1278     		ldrb	r2, [r2]	@ zero_extendqisi2
  60 0028 1343     		orrs	r3, r3, r2
  38:..\..\..\HamFlyAPI\src/hamfly_core_telemetry.c **** }
  61              		.loc 1 38 0
  62 002a 1846     		mov	r0, r3
  63 002c 0C37     		adds	r7, r7, #12
  64              		.cfi_def_cfa_offset 4
  65 002e BD46     		mov	sp, r7
  66              		.cfi_def_cfa_register 13
  67              		@ sp needed
  68 0030 80BC     		pop	{r7}
  69              		.cfi_restore 7
  70              		.cfi_def_cfa_offset 0
  71 0032 7047     		bx	lr
  72              		.cfi_endproc
  73              	.LFE0:
  74              		.size	rd_be32, .-rd_be32
  75              		.section	.text.rd_be16,"ax",%progbits
  76              		.align	2
ARM GAS  C:\Users\JENNEW~1\AppData\Local\Temp\ccI7hFDI.s 			page 3


  77              		.thumb
  78              		.thumb_func
  79              		.type	rd_be16, %function
  80              	rd_be16:
  81              	.LFB1:
  39:..\..\..\HamFlyAPI\src/hamfly_core_telemetry.c **** 
  40:..\..\..\HamFlyAPI\src/hamfly_core_telemetry.c **** // Read big-endian int16 from buffer.
  41:..\..\..\HamFlyAPI\src/hamfly_core_telemetry.c **** static int16_t rd_be16(const uint8_t *p)
  42:..\..\..\HamFlyAPI\src/hamfly_core_telemetry.c **** {
  82              		.loc 1 42 0
  83              		.cfi_startproc
  84              		@ args = 0, pretend = 0, frame = 8
  85              		@ frame_needed = 1, uses_anonymous_args = 0
  86              		@ link register save eliminated.
  87 0000 80B4     		push	{r7}
  88              		.cfi_def_cfa_offset 4
  89              		.cfi_offset 7, -4
  90 0002 83B0     		sub	sp, sp, #12
  91              		.cfi_def_cfa_offset 16
  92 0004 00AF     		add	r7, sp, #0
  93              		.cfi_def_cfa_register 7
  94 0006 7860     		str	r0, [r7, #4]
  43:..\..\..\HamFlyAPI\src/hamfly_core_telemetry.c ****     return (int16_t)(((uint16_t)p[0] << 8) | (uint16_t)p[1]);
  95              		.loc 1 43 0
  96 0008 7B68     		ldr	r3, [r7, #4]
  97 000a 1B78     		ldrb	r3, [r3]	@ zero_extendqisi2
  98 000c 1B02     		lsls	r3, r3, #8
  99 000e 1AB2     		sxth	r2, r3
 100 0010 7B68     		ldr	r3, [r7, #4]
 101 0012 0133     		adds	r3, r3, #1
 102 0014 1B78     		ldrb	r3, [r3]	@ zero_extendqisi2
 103 0016 1BB2     		sxth	r3, r3
 104 0018 1343     		orrs	r3, r3, r2
 105 001a 1BB2     		sxth	r3, r3
  44:..\..\..\HamFlyAPI\src/hamfly_core_telemetry.c **** }
 106              		.loc 1 44 0
 107 001c 1846     		mov	r0, r3
 108 001e 0C37     		adds	r7, r7, #12
 109              		.cfi_def_cfa_offset 4
 110 0020 BD46     		mov	sp, r7
 111              		.cfi_def_cfa_register 13
 112              		@ sp needed
 113 0022 80BC     		pop	{r7}
 114              		.cfi_restore 7
 115              		.cfi_def_cfa_offset 0
 116 0024 7047     		bx	lr
 117              		.cfi_endproc
 118              	.LFE1:
 119              		.size	rd_be16, .-rd_be16
 120 0026 00BF     		.section	.text.rd_be_u16,"ax",%progbits
 121              		.align	2
 122              		.thumb
 123              		.thumb_func
 124              		.type	rd_be_u16, %function
 125              	rd_be_u16:
 126              	.LFB2:
  45:..\..\..\HamFlyAPI\src/hamfly_core_telemetry.c **** 
ARM GAS  C:\Users\JENNEW~1\AppData\Local\Temp\ccI7hFDI.s 			page 4


  46:..\..\..\HamFlyAPI\src/hamfly_core_telemetry.c **** // Read big-endian uint16 from buffer (for unsigned fields).
  47:..\..\..\HamFlyAPI\src/hamfly_core_telemetry.c **** static uint16_t rd_be_u16(const uint8_t *p)
  48:..\..\..\HamFlyAPI\src/hamfly_core_telemetry.c **** {
 127              		.loc 1 48 0
 128              		.cfi_startproc
 129              		@ args = 0, pretend = 0, frame = 8
 130              		@ frame_needed = 1, uses_anonymous_args = 0
 131              		@ link register save eliminated.
 132 0000 80B4     		push	{r7}
 133              		.cfi_def_cfa_offset 4
 134              		.cfi_offset 7, -4
 135 0002 83B0     		sub	sp, sp, #12
 136              		.cfi_def_cfa_offset 16
 137 0004 00AF     		add	r7, sp, #0
 138              		.cfi_def_cfa_register 7
 139 0006 7860     		str	r0, [r7, #4]
  49:..\..\..\HamFlyAPI\src/hamfly_core_telemetry.c ****     return ((uint16_t)p[0] << 8) | (uint16_t)p[1];
 140              		.loc 1 49 0
 141 0008 7B68     		ldr	r3, [r7, #4]
 142 000a 1B78     		ldrb	r3, [r3]	@ zero_extendqisi2
 143 000c 1B02     		lsls	r3, r3, #8
 144 000e 1AB2     		sxth	r2, r3
 145 0010 7B68     		ldr	r3, [r7, #4]
 146 0012 0133     		adds	r3, r3, #1
 147 0014 1B78     		ldrb	r3, [r3]	@ zero_extendqisi2
 148 0016 1BB2     		sxth	r3, r3
 149 0018 1343     		orrs	r3, r3, r2
 150 001a 1BB2     		sxth	r3, r3
 151 001c 9BB2     		uxth	r3, r3
  50:..\..\..\HamFlyAPI\src/hamfly_core_telemetry.c **** }
 152              		.loc 1 50 0
 153 001e 1846     		mov	r0, r3
 154 0020 0C37     		adds	r7, r7, #12
 155              		.cfi_def_cfa_offset 4
 156 0022 BD46     		mov	sp, r7
 157              		.cfi_def_cfa_register 13
 158              		@ sp needed
 159 0024 80BC     		pop	{r7}
 160              		.cfi_restore 7
 161              		.cfi_def_cfa_offset 0
 162 0026 7047     		bx	lr
 163              		.cfi_endproc
 164              	.LFE2:
 165              		.size	rd_be_u16, .-rd_be_u16
 166              		.section	.text.rd_le16,"ax",%progbits
 167              		.align	2
 168              		.thumb
 169              		.thumb_func
 170              		.type	rd_le16, %function
 171              	rd_le16:
 172              	.LFB3:
  51:..\..\..\HamFlyAPI\src/hamfly_core_telemetry.c **** 
  52:..\..\..\HamFlyAPI\src/hamfly_core_telemetry.c **** // Read little-endian int16 from buffer.
  53:..\..\..\HamFlyAPI\src/hamfly_core_telemetry.c **** static int16_t rd_le16(const uint8_t *p)
  54:..\..\..\HamFlyAPI\src/hamfly_core_telemetry.c **** {
 173              		.loc 1 54 0
 174              		.cfi_startproc
ARM GAS  C:\Users\JENNEW~1\AppData\Local\Temp\ccI7hFDI.s 			page 5


 175              		@ args = 0, pretend = 0, frame = 16
 176              		@ frame_needed = 1, uses_anonymous_args = 0
 177 0000 80B5     		push	{r7, lr}
 178              		.cfi_def_cfa_offset 8
 179              		.cfi_offset 7, -8
 180              		.cfi_offset 14, -4
 181 0002 84B0     		sub	sp, sp, #16
 182              		.cfi_def_cfa_offset 24
 183 0004 00AF     		add	r7, sp, #0
 184              		.cfi_def_cfa_register 7
 185 0006 7860     		str	r0, [r7, #4]
  55:..\..\..\HamFlyAPI\src/hamfly_core_telemetry.c ****     int16_t v;
  56:..\..\..\HamFlyAPI\src/hamfly_core_telemetry.c ****     memcpy(&v, p, 2);
 186              		.loc 1 56 0
 187 0008 07F10E03 		add	r3, r7, #14
 188 000c 0222     		movs	r2, #2
 189 000e 7968     		ldr	r1, [r7, #4]
 190 0010 1846     		mov	r0, r3
 191 0012 FFF7FEFF 		bl	memcpy
  57:..\..\..\HamFlyAPI\src/hamfly_core_telemetry.c ****     return v;
 192              		.loc 1 57 0
 193 0016 B7F90E30 		ldrsh	r3, [r7, #14]
  58:..\..\..\HamFlyAPI\src/hamfly_core_telemetry.c **** }
 194              		.loc 1 58 0
 195 001a 1846     		mov	r0, r3
 196 001c 1037     		adds	r7, r7, #16
 197              		.cfi_def_cfa_offset 8
 198 001e BD46     		mov	sp, r7
 199              		.cfi_def_cfa_register 13
 200              		@ sp needed
 201 0020 80BD     		pop	{r7, pc}
 202              		.cfi_endproc
 203              	.LFE3:
 204              		.size	rd_le16, .-rd_le16
 205              		.global	__aeabi_fmul
 206              		.global	__aeabi_fadd
 207              		.global	__aeabi_fsub
 208              		.global	__aeabi_fcmpgt
 209              		.global	__aeabi_fcmplt
 210 0022 00BF     		.section	.text.hamfly_telemetry_to_euler,"ax",%progbits
 211              		.align	2
 212              		.global	hamfly_telemetry_to_euler
 213              		.thumb
 214              		.thumb_func
 215              		.type	hamfly_telemetry_to_euler, %function
 216              	hamfly_telemetry_to_euler:
 217              	.LFB4:
  59:..\..\..\HamFlyAPI\src/hamfly_core_telemetry.c **** 
  60:..\..\..\HamFlyAPI\src/hamfly_core_telemetry.c **** // ============================================================================
  61:..\..\..\HamFlyAPI\src/hamfly_core_telemetry.c **** // Hamfly Telemetry to Euler
  62:..\..\..\HamFlyAPI\src/hamfly_core_telemetry.c **** // ============================================================================
  63:..\..\..\HamFlyAPI\src/hamfly_core_telemetry.c **** // Converts the RIJK quaternion from attr 287 to Pan/Tilt/Roll Euler angles
  64:..\..\..\HamFlyAPI\src/hamfly_core_telemetry.c **** // using the ZYX rotation sequence (yaw → pitch → roll), which matches the
  65:..\..\..\HamFlyAPI\src/hamfly_core_telemetry.c **** // FreeflyAPI Euler convention (pan = yaw about Z, tilt = pitch about Y,
  66:..\..\..\HamFlyAPI\src/hamfly_core_telemetry.c **** // roll = rotation about X).
  67:..\..\..\HamFlyAPI\src/hamfly_core_telemetry.c **** //
  68:..\..\..\HamFlyAPI\src/hamfly_core_telemetry.c **** // RIJK → standard (w, x, y, z):
ARM GAS  C:\Users\JENNEW~1\AppData\Local\Temp\ccI7hFDI.s 			page 6


  69:..\..\..\HamFlyAPI\src/hamfly_core_telemetry.c **** //   w = gimbal_r,  x = gimbal_i,  y = gimbal_j,  z = gimbal_k
  70:..\..\..\HamFlyAPI\src/hamfly_core_telemetry.c **** //
  71:..\..\..\HamFlyAPI\src/hamfly_core_telemetry.c **** // Gimbal-lock guard: clamps the asinf argument to [-1, +1] before use.
  72:..\..\..\HamFlyAPI\src/hamfly_core_telemetry.c **** // ============================================================================
  73:..\..\..\HamFlyAPI\src/hamfly_core_telemetry.c **** uint8_t hamfly_telemetry_to_euler(const hamfly_telemetry_t *t,
  74:..\..\..\HamFlyAPI\src/hamfly_core_telemetry.c ****                                   float *pan_deg,
  75:..\..\..\HamFlyAPI\src/hamfly_core_telemetry.c ****                                   float *tilt_deg,
  76:..\..\..\HamFlyAPI\src/hamfly_core_telemetry.c ****                                   float *roll_deg)
  77:..\..\..\HamFlyAPI\src/hamfly_core_telemetry.c **** {
 218              		.loc 1 77 0
 219              		.cfi_startproc
 220              		@ args = 0, pretend = 0, frame = 40
 221              		@ frame_needed = 1, uses_anonymous_args = 0
 222 0000 B0B5     		push	{r4, r5, r7, lr}
 223              		.cfi_def_cfa_offset 16
 224              		.cfi_offset 4, -16
 225              		.cfi_offset 5, -12
 226              		.cfi_offset 7, -8
 227              		.cfi_offset 14, -4
 228 0002 8AB0     		sub	sp, sp, #40
 229              		.cfi_def_cfa_offset 56
 230 0004 00AF     		add	r7, sp, #0
 231              		.cfi_def_cfa_register 7
 232 0006 F860     		str	r0, [r7, #12]
 233 0008 B960     		str	r1, [r7, #8]
 234 000a 7A60     		str	r2, [r7, #4]
 235 000c 3B60     		str	r3, [r7]
  78:..\..\..\HamFlyAPI\src/hamfly_core_telemetry.c ****     if (!t || !t->valid) return 0u;
 236              		.loc 1 78 0
 237 000e FB68     		ldr	r3, [r7, #12]
 238 0010 002B     		cmp	r3, #0
 239 0012 06D0     		beq	.L10
 240              		.loc 1 78 0 is_stmt 0 discriminator 2
 241 0014 FB68     		ldr	r3, [r7, #12]
 242 0016 1B78     		ldrb	r3, [r3]	@ zero_extendqisi2
 243 0018 83F00103 		eor	r3, r3, #1
 244 001c DBB2     		uxtb	r3, r3
 245 001e 002B     		cmp	r3, #0
 246 0020 01D0     		beq	.L11
 247              	.L10:
 248              		.loc 1 78 0 discriminator 3
 249 0022 0023     		movs	r3, #0
 250 0024 CEE0     		b	.L12
 251              	.L11:
  79:..\..\..\HamFlyAPI\src/hamfly_core_telemetry.c **** 
  80:..\..\..\HamFlyAPI\src/hamfly_core_telemetry.c ****     static const float RAD2DEG = 180.0f / 3.14159265358979f;
  81:..\..\..\HamFlyAPI\src/hamfly_core_telemetry.c **** 
  82:..\..\..\HamFlyAPI\src/hamfly_core_telemetry.c ****     float w = t->gimbal_r;
 252              		.loc 1 82 0 is_stmt 1
 253 0026 FB68     		ldr	r3, [r7, #12]
 254 0028 DB68     		ldr	r3, [r3, #12]	@ float
 255 002a 3B62     		str	r3, [r7, #32]	@ float
  83:..\..\..\HamFlyAPI\src/hamfly_core_telemetry.c ****     float x = t->gimbal_i;
 256              		.loc 1 83 0
 257 002c FB68     		ldr	r3, [r7, #12]
 258 002e 1B69     		ldr	r3, [r3, #16]	@ float
 259 0030 FB61     		str	r3, [r7, #28]	@ float
ARM GAS  C:\Users\JENNEW~1\AppData\Local\Temp\ccI7hFDI.s 			page 7


  84:..\..\..\HamFlyAPI\src/hamfly_core_telemetry.c ****     float y = t->gimbal_j;
 260              		.loc 1 84 0
 261 0032 FB68     		ldr	r3, [r7, #12]
 262 0034 5B69     		ldr	r3, [r3, #20]	@ float
 263 0036 BB61     		str	r3, [r7, #24]	@ float
  85:..\..\..\HamFlyAPI\src/hamfly_core_telemetry.c ****     float z = t->gimbal_k;
 264              		.loc 1 85 0
 265 0038 FB68     		ldr	r3, [r7, #12]
 266 003a 9B69     		ldr	r3, [r3, #24]	@ float
 267 003c 7B61     		str	r3, [r7, #20]	@ float
  86:..\..\..\HamFlyAPI\src/hamfly_core_telemetry.c **** 
  87:..\..\..\HamFlyAPI\src/hamfly_core_telemetry.c ****     /* Pan (yaw, Z-axis) */
  88:..\..\..\HamFlyAPI\src/hamfly_core_telemetry.c ****     if (pan_deg)
 268              		.loc 1 88 0
 269 003e BB68     		ldr	r3, [r7, #8]
 270 0040 002B     		cmp	r3, #0
 271 0042 3FD0     		beq	.L13
  89:..\..\..\HamFlyAPI\src/hamfly_core_telemetry.c ****         *pan_deg  = atan2f(2.0f*(w*z + x*y), 1.0f - 2.0f*(y*y + z*z)) * RAD2DEG;
 272              		.loc 1 89 0
 273 0044 7969     		ldr	r1, [r7, #20]	@ float
 274 0046 386A     		ldr	r0, [r7, #32]	@ float
 275 0048 FFF7FEFF 		bl	__aeabi_fmul
 276 004c 0346     		mov	r3, r0
 277 004e 1C46     		mov	r4, r3
 278 0050 B969     		ldr	r1, [r7, #24]	@ float
 279 0052 F869     		ldr	r0, [r7, #28]	@ float
 280 0054 FFF7FEFF 		bl	__aeabi_fmul
 281 0058 0346     		mov	r3, r0
 282 005a 1946     		mov	r1, r3
 283 005c 2046     		mov	r0, r4
 284 005e FFF7FEFF 		bl	__aeabi_fadd
 285 0062 0346     		mov	r3, r0
 286 0064 1946     		mov	r1, r3
 287 0066 1846     		mov	r0, r3
 288 0068 FFF7FEFF 		bl	__aeabi_fadd
 289 006c 0346     		mov	r3, r0
 290 006e 1C46     		mov	r4, r3
 291 0070 B969     		ldr	r1, [r7, #24]	@ float
 292 0072 B869     		ldr	r0, [r7, #24]	@ float
 293 0074 FFF7FEFF 		bl	__aeabi_fmul
 294 0078 0346     		mov	r3, r0
 295 007a 1D46     		mov	r5, r3
 296 007c 7969     		ldr	r1, [r7, #20]	@ float
 297 007e 7869     		ldr	r0, [r7, #20]	@ float
 298 0080 FFF7FEFF 		bl	__aeabi_fmul
 299 0084 0346     		mov	r3, r0
 300 0086 1946     		mov	r1, r3
 301 0088 2846     		mov	r0, r5
 302 008a FFF7FEFF 		bl	__aeabi_fadd
 303 008e 0346     		mov	r3, r0
 304 0090 1946     		mov	r1, r3
 305 0092 1846     		mov	r0, r3
 306 0094 FFF7FEFF 		bl	__aeabi_fadd
 307 0098 0346     		mov	r3, r0
 308 009a 1946     		mov	r1, r3
 309 009c 4FF07E50 		mov	r0, #1065353216
 310 00a0 FFF7FEFF 		bl	__aeabi_fsub
ARM GAS  C:\Users\JENNEW~1\AppData\Local\Temp\ccI7hFDI.s 			page 8


 311 00a4 0346     		mov	r3, r0
 312 00a6 1946     		mov	r1, r3
 313 00a8 2046     		mov	r0, r4
 314 00aa FFF7FEFF 		bl	atan2f
 315 00ae 0246     		mov	r2, r0
 316 00b0 464B     		ldr	r3, .L23
 317 00b2 1B68     		ldr	r3, [r3]	@ float
 318 00b4 1946     		mov	r1, r3
 319 00b6 1046     		mov	r0, r2
 320 00b8 FFF7FEFF 		bl	__aeabi_fmul
 321 00bc 0346     		mov	r3, r0
 322 00be 1A46     		mov	r2, r3
 323 00c0 BB68     		ldr	r3, [r7, #8]
 324 00c2 1A60     		str	r2, [r3]	@ float
 325              	.L13:
  90:..\..\..\HamFlyAPI\src/hamfly_core_telemetry.c **** 
  91:..\..\..\HamFlyAPI\src/hamfly_core_telemetry.c ****     /* Tilt (pitch, Y-axis) — clamp to [-1, 1] to avoid NaN at gimbal lock. */
  92:..\..\..\HamFlyAPI\src/hamfly_core_telemetry.c ****     if (tilt_deg) {
 326              		.loc 1 92 0
 327 00c4 7B68     		ldr	r3, [r7, #4]
 328 00c6 002B     		cmp	r3, #0
 329 00c8 38D0     		beq	.L14
 330              	.LBB2:
  93:..\..\..\HamFlyAPI\src/hamfly_core_telemetry.c ****         float sin_tilt = 2.0f*(w*y - z*x);
 331              		.loc 1 93 0
 332 00ca B969     		ldr	r1, [r7, #24]	@ float
 333 00cc 386A     		ldr	r0, [r7, #32]	@ float
 334 00ce FFF7FEFF 		bl	__aeabi_fmul
 335 00d2 0346     		mov	r3, r0
 336 00d4 1C46     		mov	r4, r3
 337 00d6 F969     		ldr	r1, [r7, #28]	@ float
 338 00d8 7869     		ldr	r0, [r7, #20]	@ float
 339 00da FFF7FEFF 		bl	__aeabi_fmul
 340 00de 0346     		mov	r3, r0
 341 00e0 1946     		mov	r1, r3
 342 00e2 2046     		mov	r0, r4
 343 00e4 FFF7FEFF 		bl	__aeabi_fsub
 344 00e8 0346     		mov	r3, r0
 345 00ea 1946     		mov	r1, r3
 346 00ec 1846     		mov	r0, r3
 347 00ee FFF7FEFF 		bl	__aeabi_fadd
 348 00f2 0346     		mov	r3, r0
 349 00f4 7B62     		str	r3, [r7, #36]	@ float
  94:..\..\..\HamFlyAPI\src/hamfly_core_telemetry.c ****         if      (sin_tilt >  1.0f) sin_tilt =  1.0f;
 350              		.loc 1 94 0
 351 00f6 4FF07E51 		mov	r1, #1065353216
 352 00fa 786A     		ldr	r0, [r7, #36]	@ float
 353 00fc FFF7FEFF 		bl	__aeabi_fcmpgt
 354 0100 0346     		mov	r3, r0
 355 0102 002B     		cmp	r3, #0
 356 0104 03D0     		beq	.L22
 357              		.loc 1 94 0 is_stmt 0 discriminator 1
 358 0106 4FF07E53 		mov	r3, #1065353216
 359 010a 7B62     		str	r3, [r7, #36]	@ float
 360 010c 08E0     		b	.L17
 361              	.L22:
  95:..\..\..\HamFlyAPI\src/hamfly_core_telemetry.c ****         else if (sin_tilt < -1.0f) sin_tilt = -1.0f;
ARM GAS  C:\Users\JENNEW~1\AppData\Local\Temp\ccI7hFDI.s 			page 9


 362              		.loc 1 95 0 is_stmt 1
 363 010e 3049     		ldr	r1, .L23+4
 364 0110 786A     		ldr	r0, [r7, #36]	@ float
 365 0112 FFF7FEFF 		bl	__aeabi_fcmplt
 366 0116 0346     		mov	r3, r0
 367 0118 002B     		cmp	r3, #0
 368 011a 01D0     		beq	.L17
 369              		.loc 1 95 0 is_stmt 0 discriminator 1
 370 011c 2C4B     		ldr	r3, .L23+4
 371 011e 7B62     		str	r3, [r7, #36]	@ float
 372              	.L17:
  96:..\..\..\HamFlyAPI\src/hamfly_core_telemetry.c ****         *tilt_deg = asinf(sin_tilt) * RAD2DEG;
 373              		.loc 1 96 0 is_stmt 1
 374 0120 786A     		ldr	r0, [r7, #36]	@ float
 375 0122 FFF7FEFF 		bl	asinf
 376 0126 0246     		mov	r2, r0
 377 0128 284B     		ldr	r3, .L23
 378 012a 1B68     		ldr	r3, [r3]	@ float
 379 012c 1946     		mov	r1, r3
 380 012e 1046     		mov	r0, r2
 381 0130 FFF7FEFF 		bl	__aeabi_fmul
 382 0134 0346     		mov	r3, r0
 383 0136 1A46     		mov	r2, r3
 384 0138 7B68     		ldr	r3, [r7, #4]
 385 013a 1A60     		str	r2, [r3]	@ float
 386              	.L14:
 387              	.LBE2:
  97:..\..\..\HamFlyAPI\src/hamfly_core_telemetry.c ****     }
  98:..\..\..\HamFlyAPI\src/hamfly_core_telemetry.c **** 
  99:..\..\..\HamFlyAPI\src/hamfly_core_telemetry.c ****     /* Roll (X-axis) */
 100:..\..\..\HamFlyAPI\src/hamfly_core_telemetry.c ****     if (roll_deg)
 388              		.loc 1 100 0
 389 013c 3B68     		ldr	r3, [r7]
 390 013e 002B     		cmp	r3, #0
 391 0140 3FD0     		beq	.L19
 101:..\..\..\HamFlyAPI\src/hamfly_core_telemetry.c ****         *roll_deg = atan2f(2.0f*(w*x + y*z), 1.0f - 2.0f*(x*x + y*y)) * RAD2DEG;
 392              		.loc 1 101 0
 393 0142 F969     		ldr	r1, [r7, #28]	@ float
 394 0144 386A     		ldr	r0, [r7, #32]	@ float
 395 0146 FFF7FEFF 		bl	__aeabi_fmul
 396 014a 0346     		mov	r3, r0
 397 014c 1C46     		mov	r4, r3
 398 014e 7969     		ldr	r1, [r7, #20]	@ float
 399 0150 B869     		ldr	r0, [r7, #24]	@ float
 400 0152 FFF7FEFF 		bl	__aeabi_fmul
 401 0156 0346     		mov	r3, r0
 402 0158 1946     		mov	r1, r3
 403 015a 2046     		mov	r0, r4
 404 015c FFF7FEFF 		bl	__aeabi_fadd
 405 0160 0346     		mov	r3, r0
 406 0162 1946     		mov	r1, r3
 407 0164 1846     		mov	r0, r3
 408 0166 FFF7FEFF 		bl	__aeabi_fadd
 409 016a 0346     		mov	r3, r0
 410 016c 1C46     		mov	r4, r3
 411 016e F969     		ldr	r1, [r7, #28]	@ float
 412 0170 F869     		ldr	r0, [r7, #28]	@ float
ARM GAS  C:\Users\JENNEW~1\AppData\Local\Temp\ccI7hFDI.s 			page 10


 413 0172 FFF7FEFF 		bl	__aeabi_fmul
 414 0176 0346     		mov	r3, r0
 415 0178 1D46     		mov	r5, r3
 416 017a B969     		ldr	r1, [r7, #24]	@ float
 417 017c B869     		ldr	r0, [r7, #24]	@ float
 418 017e FFF7FEFF 		bl	__aeabi_fmul
 419 0182 0346     		mov	r3, r0
 420 0184 1946     		mov	r1, r3
 421 0186 2846     		mov	r0, r5
 422 0188 FFF7FEFF 		bl	__aeabi_fadd
 423 018c 0346     		mov	r3, r0
 424 018e 1946     		mov	r1, r3
 425 0190 1846     		mov	r0, r3
 426 0192 FFF7FEFF 		bl	__aeabi_fadd
 427 0196 0346     		mov	r3, r0
 428 0198 1946     		mov	r1, r3
 429 019a 4FF07E50 		mov	r0, #1065353216
 430 019e FFF7FEFF 		bl	__aeabi_fsub
 431 01a2 0346     		mov	r3, r0
 432 01a4 1946     		mov	r1, r3
 433 01a6 2046     		mov	r0, r4
 434 01a8 FFF7FEFF 		bl	atan2f
 435 01ac 0246     		mov	r2, r0
 436 01ae 074B     		ldr	r3, .L23
 437 01b0 1B68     		ldr	r3, [r3]	@ float
 438 01b2 1946     		mov	r1, r3
 439 01b4 1046     		mov	r0, r2
 440 01b6 FFF7FEFF 		bl	__aeabi_fmul
 441 01ba 0346     		mov	r3, r0
 442 01bc 1A46     		mov	r2, r3
 443 01be 3B68     		ldr	r3, [r7]
 444 01c0 1A60     		str	r2, [r3]	@ float
 445              	.L19:
 102:..\..\..\HamFlyAPI\src/hamfly_core_telemetry.c **** 
 103:..\..\..\HamFlyAPI\src/hamfly_core_telemetry.c ****     return 1u;
 446              		.loc 1 103 0
 447 01c2 0123     		movs	r3, #1
 448              	.L12:
 104:..\..\..\HamFlyAPI\src/hamfly_core_telemetry.c **** }
 449              		.loc 1 104 0
 450 01c4 1846     		mov	r0, r3
 451 01c6 2837     		adds	r7, r7, #40
 452              		.cfi_def_cfa_offset 16
 453 01c8 BD46     		mov	sp, r7
 454              		.cfi_def_cfa_register 13
 455              		@ sp needed
 456 01ca B0BD     		pop	{r4, r5, r7, pc}
 457              	.L24:
 458              		.align	2
 459              	.L23:
 460 01cc 00000000 		.word	RAD2DEG.6013
 461 01d0 000080BF 		.word	-1082130432
 462              		.cfi_endproc
 463              	.LFE4:
 464              		.size	hamfly_telemetry_to_euler, .-hamfly_telemetry_to_euler
 465              		.section	.text.hamfly_decode_qx287,"ax",%progbits
 466              		.align	2
ARM GAS  C:\Users\JENNEW~1\AppData\Local\Temp\ccI7hFDI.s 			page 11


 467              		.global	hamfly_decode_qx287
 468              		.thumb
 469              		.thumb_func
 470              		.type	hamfly_decode_qx287, %function
 471              	hamfly_decode_qx287:
 472              	.LFB5:
 105:..\..\..\HamFlyAPI\src/hamfly_core_telemetry.c **** 
 106:..\..\..\HamFlyAPI\src/hamfly_core_telemetry.c **** // ============================================================================
 107:..\..\..\HamFlyAPI\src/hamfly_core_telemetry.c **** // Hamfly Decode QX287
 108:..\..\..\HamFlyAPI\src/hamfly_core_telemetry.c **** // ============================================================================
 109:..\..\..\HamFlyAPI\src/hamfly_core_telemetry.c **** // Main telemetry parsing function. Reads from FreeFlyAPI.status which is
 110:..\..\..\HamFlyAPI\src/hamfly_core_telemetry.c **** // populated by the QX parser callback. Wrapping FreeflyAPI directly.
 111:..\..\..\HamFlyAPI\src/hamfly_core_telemetry.c **** void hamfly_decode_qx287(const uint8_t *p, uint16_t plen,
 112:..\..\..\HamFlyAPI\src/hamfly_core_telemetry.c ****                           hamfly_telemetry_t *dst)
 113:..\..\..\HamFlyAPI\src/hamfly_core_telemetry.c **** {
 473              		.loc 1 113 0
 474              		.cfi_startproc
 475              		@ args = 0, pretend = 0, frame = 16
 476              		@ frame_needed = 1, uses_anonymous_args = 0
 477              		@ link register save eliminated.
 478 0000 80B4     		push	{r7}
 479              		.cfi_def_cfa_offset 4
 480              		.cfi_offset 7, -4
 481 0002 85B0     		sub	sp, sp, #20
 482              		.cfi_def_cfa_offset 24
 483 0004 00AF     		add	r7, sp, #0
 484              		.cfi_def_cfa_register 7
 485 0006 F860     		str	r0, [r7, #12]
 486 0008 0B46     		mov	r3, r1
 487 000a 7A60     		str	r2, [r7, #4]
 488 000c 7B81     		strh	r3, [r7, #10]	@ movhi
 114:..\..\..\HamFlyAPI\src/hamfly_core_telemetry.c ****     (void)p; (void)plen;
 115:..\..\..\HamFlyAPI\src/hamfly_core_telemetry.c **** 
 116:..\..\..\HamFlyAPI\src/hamfly_core_telemetry.c ****     // Copy fields into the telemetry struct.
 117:..\..\..\HamFlyAPI\src/hamfly_core_telemetry.c ****     dst->battery_left_v   = FreeflyAPI.status.battery_v_left;
 489              		.loc 1 117 0
 490 000e 154B     		ldr	r3, .L26
 491 0010 9A6C     		ldr	r2, [r3, #72]	@ float
 492 0012 7B68     		ldr	r3, [r7, #4]
 493 0014 5A60     		str	r2, [r3, #4]	@ float
 118:..\..\..\HamFlyAPI\src/hamfly_core_telemetry.c ****     dst->battery_right_v  = FreeflyAPI.status.battery_v_right;
 494              		.loc 1 118 0
 495 0016 134B     		ldr	r3, .L26
 496 0018 DA6C     		ldr	r2, [r3, #76]	@ float
 497 001a 7B68     		ldr	r3, [r7, #4]
 498 001c 9A60     		str	r2, [r3, #8]	@ float
 119:..\..\..\HamFlyAPI\src/hamfly_core_telemetry.c ****     dst->gimbal_r         = FreeflyAPI.status.gimbal_r;
 499              		.loc 1 119 0
 500 001e 114B     		ldr	r3, .L26
 501 0020 1A6E     		ldr	r2, [r3, #96]	@ float
 502 0022 7B68     		ldr	r3, [r7, #4]
 503 0024 DA60     		str	r2, [r3, #12]	@ float
 120:..\..\..\HamFlyAPI\src/hamfly_core_telemetry.c ****     dst->gimbal_i         = FreeflyAPI.status.gimbal_i;
 504              		.loc 1 120 0
 505 0026 0F4B     		ldr	r3, .L26
 506 0028 5A6D     		ldr	r2, [r3, #84]	@ float
 507 002a 7B68     		ldr	r3, [r7, #4]
ARM GAS  C:\Users\JENNEW~1\AppData\Local\Temp\ccI7hFDI.s 			page 12


 508 002c 1A61     		str	r2, [r3, #16]	@ float
 121:..\..\..\HamFlyAPI\src/hamfly_core_telemetry.c ****     dst->gimbal_j         = FreeflyAPI.status.gimbal_j;
 509              		.loc 1 121 0
 510 002e 0D4B     		ldr	r3, .L26
 511 0030 9A6D     		ldr	r2, [r3, #88]	@ float
 512 0032 7B68     		ldr	r3, [r7, #4]
 513 0034 5A61     		str	r2, [r3, #20]	@ float
 122:..\..\..\HamFlyAPI\src/hamfly_core_telemetry.c ****     dst->gimbal_k         = FreeflyAPI.status.gimbal_k;
 514              		.loc 1 122 0
 515 0036 0B4B     		ldr	r3, .L26
 516 0038 DA6D     		ldr	r2, [r3, #92]	@ float
 517 003a 7B68     		ldr	r3, [r7, #4]
 518 003c 9A61     		str	r2, [r3, #24]	@ float
 123:..\..\..\HamFlyAPI\src/hamfly_core_telemetry.c ****     dst->gimbal_status1   = FreeflyAPI.status.gimbal_Status1;
 519              		.loc 1 123 0
 520 003e 094B     		ldr	r3, .L26
 521 0040 93F85020 		ldrb	r2, [r3, #80]	@ zero_extendqisi2
 522 0044 7B68     		ldr	r3, [r7, #4]
 523 0046 1A77     		strb	r2, [r3, #28]
 124:..\..\..\HamFlyAPI\src/hamfly_core_telemetry.c ****     dst->gimbal_status2   = FreeflyAPI.status.gimbal_Status2;
 524              		.loc 1 124 0
 525 0048 064B     		ldr	r3, .L26
 526 004a 93F85120 		ldrb	r2, [r3, #81]	@ zero_extendqisi2
 527 004e 7B68     		ldr	r3, [r7, #4]
 528 0050 5A77     		strb	r2, [r3, #29]
 125:..\..\..\HamFlyAPI\src/hamfly_core_telemetry.c ****     dst->valid            = true;
 529              		.loc 1 125 0
 530 0052 7B68     		ldr	r3, [r7, #4]
 531 0054 0122     		movs	r2, #1
 532 0056 1A70     		strb	r2, [r3]
 126:..\..\..\HamFlyAPI\src/hamfly_core_telemetry.c **** }
 533              		.loc 1 126 0
 534 0058 00BF     		nop
 535 005a 1437     		adds	r7, r7, #20
 536              		.cfi_def_cfa_offset 4
 537 005c BD46     		mov	sp, r7
 538              		.cfi_def_cfa_register 13
 539              		@ sp needed
 540 005e 80BC     		pop	{r7}
 541              		.cfi_restore 7
 542              		.cfi_def_cfa_offset 0
 543 0060 7047     		bx	lr
 544              	.L27:
 545 0062 00BF     		.align	2
 546              	.L26:
 547 0064 00000000 		.word	FreeflyAPI
 548              		.cfi_endproc
 549              	.LFE5:
 550              		.size	hamfly_decode_qx287, .-hamfly_decode_qx287
 551              		.global	__aeabi_i2f
 552              		.global	__aeabi_fdiv
 553              		.global	__aeabi_ui2f
 554              		.section	.text.hamfly_decode_gps,"ax",%progbits
 555              		.align	2
 556              		.global	hamfly_decode_gps
 557              		.thumb
 558              		.thumb_func
ARM GAS  C:\Users\JENNEW~1\AppData\Local\Temp\ccI7hFDI.s 			page 13


 559              		.type	hamfly_decode_gps, %function
 560              	hamfly_decode_gps:
 561              	.LFB6:
 127:..\..\..\HamFlyAPI\src/hamfly_core_telemetry.c **** 
 128:..\..\..\HamFlyAPI\src/hamfly_core_telemetry.c **** // ============================================================================
 129:..\..\..\HamFlyAPI\src/hamfly_core_telemetry.c **** // Hamfly Decode GPS [Hamfly Specific] -- attr 4
 130:..\..\..\HamFlyAPI\src/hamfly_core_telemetry.c **** // ============================================================================
 131:..\..\..\HamFlyAPI\src/hamfly_core_telemetry.c **** // Reads the raw bytes of the GPS payload and into telemetry struct fields:
 132:..\..\..\HamFlyAPI\src/hamfly_core_telemetry.c **** // 
 133:..\..\..\HamFlyAPI\src/hamfly_core_telemetry.c **** // Big-endian, no sub-index byte, 22 byte payload.
 134:..\..\..\HamFlyAPI\src/hamfly_core_telemetry.c **** // off  0-3  BE int32:  longitude    /1e7  deg
 135:..\..\..\HamFlyAPI\src/hamfly_core_telemetry.c **** // off  4-7  BE int32:  latitude     /1e7  deg
 136:..\..\..\HamFlyAPI\src/hamfly_core_telemetry.c **** // off  8-11 BE int32:  altitude     /1000 mm (WGS-84 ellipsoid)
 137:..\..\..\HamFlyAPI\src/hamfly_core_telemetry.c **** // off 12-13 BE int16:  ground speed /100  m/s
 138:..\..\..\HamFlyAPI\src/hamfly_core_telemetry.c **** // off 14-15 BE int16:  heading      /100  deg (confirmed, was /10)
 139:..\..\..\HamFlyAPI\src/hamfly_core_telemetry.c **** // off 16-17 BE uint16: HACC         /100  m
 140:..\..\..\HamFlyAPI\src/hamfly_core_telemetry.c **** // off 18-19 BE uint16: VACC         /100  m
 141:..\..\..\HamFlyAPI\src/hamfly_core_telemetry.c **** // off 20-21 BE uint16: SACC         /100  m/s
 142:..\..\..\HamFlyAPI\src/hamfly_core_telemetry.c **** // ============================================================================
 143:..\..\..\HamFlyAPI\src/hamfly_core_telemetry.c **** void hamfly_decode_gps(const uint8_t *p, uint16_t plen,
 144:..\..\..\HamFlyAPI\src/hamfly_core_telemetry.c ****                         hamfly_telemetry_t *dst)
 145:..\..\..\HamFlyAPI\src/hamfly_core_telemetry.c **** {
 562              		.loc 1 145 0
 563              		.cfi_startproc
 564              		@ args = 0, pretend = 0, frame = 40
 565              		@ frame_needed = 1, uses_anonymous_args = 0
 566 0000 80B5     		push	{r7, lr}
 567              		.cfi_def_cfa_offset 8
 568              		.cfi_offset 7, -8
 569              		.cfi_offset 14, -4
 570 0002 8AB0     		sub	sp, sp, #40
 571              		.cfi_def_cfa_offset 48
 572 0004 00AF     		add	r7, sp, #0
 573              		.cfi_def_cfa_register 7
 574 0006 F860     		str	r0, [r7, #12]
 575 0008 0B46     		mov	r3, r1
 576 000a 7A60     		str	r2, [r7, #4]
 577 000c 7B81     		strh	r3, [r7, #10]	@ movhi
 146:..\..\..\HamFlyAPI\src/hamfly_core_telemetry.c ****     if (plen < 22u) return;
 578              		.loc 1 146 0
 579 000e 7B89     		ldrh	r3, [r7, #10]
 580 0010 152B     		cmp	r3, #21
 581 0012 40F2BB80 		bls	.L31
 147:..\..\..\HamFlyAPI\src/hamfly_core_telemetry.c ****     // Decode to int.
 148:..\..\..\HamFlyAPI\src/hamfly_core_telemetry.c ****     int32_t  lon_raw  = rd_be32  (p +  0);
 582              		.loc 1 148 0
 583 0016 F868     		ldr	r0, [r7, #12]
 584 0018 FFF7FEFF 		bl	rd_be32
 585 001c 7862     		str	r0, [r7, #36]
 149:..\..\..\HamFlyAPI\src/hamfly_core_telemetry.c ****     int32_t  lat_raw  = rd_be32  (p +  4);
 586              		.loc 1 149 0
 587 001e FB68     		ldr	r3, [r7, #12]
 588 0020 0433     		adds	r3, r3, #4
 589 0022 1846     		mov	r0, r3
 590 0024 FFF7FEFF 		bl	rd_be32
 591 0028 3862     		str	r0, [r7, #32]
 150:..\..\..\HamFlyAPI\src/hamfly_core_telemetry.c ****     int32_t  alt_raw  = rd_be32  (p +  8);
ARM GAS  C:\Users\JENNEW~1\AppData\Local\Temp\ccI7hFDI.s 			page 14


 592              		.loc 1 150 0
 593 002a FB68     		ldr	r3, [r7, #12]
 594 002c 0833     		adds	r3, r3, #8
 595 002e 1846     		mov	r0, r3
 596 0030 FFF7FEFF 		bl	rd_be32
 597 0034 F861     		str	r0, [r7, #28]
 151:..\..\..\HamFlyAPI\src/hamfly_core_telemetry.c ****     int16_t  spd_raw  = rd_be16  (p + 12);
 598              		.loc 1 151 0
 599 0036 FB68     		ldr	r3, [r7, #12]
 600 0038 0C33     		adds	r3, r3, #12
 601 003a 1846     		mov	r0, r3
 602 003c FFF7FEFF 		bl	rd_be16
 603 0040 0346     		mov	r3, r0
 604 0042 7B83     		strh	r3, [r7, #26]	@ movhi
 152:..\..\..\HamFlyAPI\src/hamfly_core_telemetry.c ****     int16_t  hdg_raw  = rd_be16  (p + 14);
 605              		.loc 1 152 0
 606 0044 FB68     		ldr	r3, [r7, #12]
 607 0046 0E33     		adds	r3, r3, #14
 608 0048 1846     		mov	r0, r3
 609 004a FFF7FEFF 		bl	rd_be16
 610 004e 0346     		mov	r3, r0
 611 0050 3B83     		strh	r3, [r7, #24]	@ movhi
 153:..\..\..\HamFlyAPI\src/hamfly_core_telemetry.c ****     uint16_t hacc_raw = rd_be_u16(p + 16);
 612              		.loc 1 153 0
 613 0052 FB68     		ldr	r3, [r7, #12]
 614 0054 1033     		adds	r3, r3, #16
 615 0056 1846     		mov	r0, r3
 616 0058 FFF7FEFF 		bl	rd_be_u16
 617 005c 0346     		mov	r3, r0
 618 005e FB82     		strh	r3, [r7, #22]	@ movhi
 154:..\..\..\HamFlyAPI\src/hamfly_core_telemetry.c ****     uint16_t vacc_raw = rd_be_u16(p + 18);
 619              		.loc 1 154 0
 620 0060 FB68     		ldr	r3, [r7, #12]
 621 0062 1233     		adds	r3, r3, #18
 622 0064 1846     		mov	r0, r3
 623 0066 FFF7FEFF 		bl	rd_be_u16
 624 006a 0346     		mov	r3, r0
 625 006c BB82     		strh	r3, [r7, #20]	@ movhi
 155:..\..\..\HamFlyAPI\src/hamfly_core_telemetry.c ****     uint16_t sacc_raw = rd_be_u16(p + 20);
 626              		.loc 1 155 0
 627 006e FB68     		ldr	r3, [r7, #12]
 628 0070 1433     		adds	r3, r3, #20
 629 0072 1846     		mov	r0, r3
 630 0074 FFF7FEFF 		bl	rd_be_u16
 631 0078 0346     		mov	r3, r0
 632 007a 7B82     		strh	r3, [r7, #18]	@ movhi
 156:..\..\..\HamFlyAPI\src/hamfly_core_telemetry.c ****     // Save raw for debug and pointing math.
 157:..\..\..\HamFlyAPI\src/hamfly_core_telemetry.c ****     dst->gps_raw_lon  = lon_raw;
 633              		.loc 1 157 0
 634 007c 7B68     		ldr	r3, [r7, #4]
 635 007e 7A6A     		ldr	r2, [r7, #36]
 636 0080 5A64     		str	r2, [r3, #68]
 158:..\..\..\HamFlyAPI\src/hamfly_core_telemetry.c ****     dst->gps_raw_lat  = lat_raw;
 637              		.loc 1 158 0
 638 0082 7B68     		ldr	r3, [r7, #4]
 639 0084 3A6A     		ldr	r2, [r7, #32]
 640 0086 1A64     		str	r2, [r3, #64]
ARM GAS  C:\Users\JENNEW~1\AppData\Local\Temp\ccI7hFDI.s 			page 15


 159:..\..\..\HamFlyAPI\src/hamfly_core_telemetry.c ****     dst->gps_raw_alt  = alt_raw;
 641              		.loc 1 159 0
 642 0088 7B68     		ldr	r3, [r7, #4]
 643 008a FA69     		ldr	r2, [r7, #28]
 644 008c 9A64     		str	r2, [r3, #72]
 160:..\..\..\HamFlyAPI\src/hamfly_core_telemetry.c ****     dst->gps_raw_spd  = spd_raw;
 645              		.loc 1 160 0
 646 008e 7B68     		ldr	r3, [r7, #4]
 647 0090 7A8B     		ldrh	r2, [r7, #26]	@ movhi
 648 0092 A3F84C20 		strh	r2, [r3, #76]	@ movhi
 161:..\..\..\HamFlyAPI\src/hamfly_core_telemetry.c ****     dst->gps_raw_hdg  = hdg_raw;
 649              		.loc 1 161 0
 650 0096 7B68     		ldr	r3, [r7, #4]
 651 0098 3A8B     		ldrh	r2, [r7, #24]	@ movhi
 652 009a A3F84E20 		strh	r2, [r3, #78]	@ movhi
 162:..\..\..\HamFlyAPI\src/hamfly_core_telemetry.c ****     dst->gps_raw_hacc = hacc_raw;
 653              		.loc 1 162 0
 654 009e 7B68     		ldr	r3, [r7, #4]
 655 00a0 FA8A     		ldrh	r2, [r7, #22]	@ movhi
 656 00a2 A3F85020 		strh	r2, [r3, #80]	@ movhi
 163:..\..\..\HamFlyAPI\src/hamfly_core_telemetry.c ****     dst->gps_raw_vacc = vacc_raw;
 657              		.loc 1 163 0
 658 00a6 7B68     		ldr	r3, [r7, #4]
 659 00a8 BA8A     		ldrh	r2, [r7, #20]	@ movhi
 660 00aa A3F85220 		strh	r2, [r3, #82]	@ movhi
 164:..\..\..\HamFlyAPI\src/hamfly_core_telemetry.c ****     dst->gps_raw_sacc = sacc_raw;
 661              		.loc 1 164 0
 662 00ae 7B68     		ldr	r3, [r7, #4]
 663 00b0 7A8A     		ldrh	r2, [r7, #18]	@ movhi
 664 00b2 A3F85420 		strh	r2, [r3, #84]	@ movhi
 165:..\..\..\HamFlyAPI\src/hamfly_core_telemetry.c ****     // Decode float versions for display/logging only.
 166:..\..\..\HamFlyAPI\src/hamfly_core_telemetry.c ****     dst->gps_lon_deg       = (float)lon_raw  / 1e7f;
 665              		.loc 1 166 0
 666 00b6 786A     		ldr	r0, [r7, #36]
 667 00b8 FFF7FEFF 		bl	__aeabi_i2f
 668 00bc 0346     		mov	r3, r0
 669 00be 3549     		ldr	r1, .L32
 670 00c0 1846     		mov	r0, r3
 671 00c2 FFF7FEFF 		bl	__aeabi_fdiv
 672 00c6 0346     		mov	r3, r0
 673 00c8 1A46     		mov	r2, r3
 674 00ca 7B68     		ldr	r3, [r7, #4]
 675 00cc 5A62     		str	r2, [r3, #36]	@ float
 167:..\..\..\HamFlyAPI\src/hamfly_core_telemetry.c ****     dst->gps_lat_deg       = (float)lat_raw  / 1e7f;
 676              		.loc 1 167 0
 677 00ce 386A     		ldr	r0, [r7, #32]
 678 00d0 FFF7FEFF 		bl	__aeabi_i2f
 679 00d4 0346     		mov	r3, r0
 680 00d6 2F49     		ldr	r1, .L32
 681 00d8 1846     		mov	r0, r3
 682 00da FFF7FEFF 		bl	__aeabi_fdiv
 683 00de 0346     		mov	r3, r0
 684 00e0 1A46     		mov	r2, r3
 685 00e2 7B68     		ldr	r3, [r7, #4]
 686 00e4 1A62     		str	r2, [r3, #32]	@ float
 168:..\..\..\HamFlyAPI\src/hamfly_core_telemetry.c ****     dst->gps_alt_m         = (float)alt_raw  / 1000.0f;
 687              		.loc 1 168 0
ARM GAS  C:\Users\JENNEW~1\AppData\Local\Temp\ccI7hFDI.s 			page 16


 688 00e6 F869     		ldr	r0, [r7, #28]
 689 00e8 FFF7FEFF 		bl	__aeabi_i2f
 690 00ec 0346     		mov	r3, r0
 691 00ee 2A49     		ldr	r1, .L32+4
 692 00f0 1846     		mov	r0, r3
 693 00f2 FFF7FEFF 		bl	__aeabi_fdiv
 694 00f6 0346     		mov	r3, r0
 695 00f8 1A46     		mov	r2, r3
 696 00fa 7B68     		ldr	r3, [r7, #4]
 697 00fc 9A62     		str	r2, [r3, #40]	@ float
 169:..\..\..\HamFlyAPI\src/hamfly_core_telemetry.c ****     dst->gps_ground_spd_ms = (float)spd_raw  / 100.0f;
 698              		.loc 1 169 0
 699 00fe B7F91A30 		ldrsh	r3, [r7, #26]
 700 0102 1846     		mov	r0, r3
 701 0104 FFF7FEFF 		bl	__aeabi_i2f
 702 0108 0346     		mov	r3, r0
 703 010a 2449     		ldr	r1, .L32+8
 704 010c 1846     		mov	r0, r3
 705 010e FFF7FEFF 		bl	__aeabi_fdiv
 706 0112 0346     		mov	r3, r0
 707 0114 1A46     		mov	r2, r3
 708 0116 7B68     		ldr	r3, [r7, #4]
 709 0118 DA62     		str	r2, [r3, #44]	@ float
 170:..\..\..\HamFlyAPI\src/hamfly_core_telemetry.c ****     dst->gps_heading_deg   = (float)hdg_raw  / 100.0f;  /* was /10 */
 710              		.loc 1 170 0
 711 011a B7F91830 		ldrsh	r3, [r7, #24]
 712 011e 1846     		mov	r0, r3
 713 0120 FFF7FEFF 		bl	__aeabi_i2f
 714 0124 0346     		mov	r3, r0
 715 0126 1D49     		ldr	r1, .L32+8
 716 0128 1846     		mov	r0, r3
 717 012a FFF7FEFF 		bl	__aeabi_fdiv
 718 012e 0346     		mov	r3, r0
 719 0130 1A46     		mov	r2, r3
 720 0132 7B68     		ldr	r3, [r7, #4]
 721 0134 1A63     		str	r2, [r3, #48]	@ float
 171:..\..\..\HamFlyAPI\src/hamfly_core_telemetry.c ****     dst->gps_hacc_m        = (float)hacc_raw / 100.0f;
 722              		.loc 1 171 0
 723 0136 FB8A     		ldrh	r3, [r7, #22]
 724 0138 1846     		mov	r0, r3
 725 013a FFF7FEFF 		bl	__aeabi_ui2f
 726 013e 0346     		mov	r3, r0
 727 0140 1649     		ldr	r1, .L32+8
 728 0142 1846     		mov	r0, r3
 729 0144 FFF7FEFF 		bl	__aeabi_fdiv
 730 0148 0346     		mov	r3, r0
 731 014a 1A46     		mov	r2, r3
 732 014c 7B68     		ldr	r3, [r7, #4]
 733 014e 5A63     		str	r2, [r3, #52]	@ float
 172:..\..\..\HamFlyAPI\src/hamfly_core_telemetry.c ****     dst->gps_vacc_m        = (float)vacc_raw / 100.0f;
 734              		.loc 1 172 0
 735 0150 BB8A     		ldrh	r3, [r7, #20]
 736 0152 1846     		mov	r0, r3
 737 0154 FFF7FEFF 		bl	__aeabi_ui2f
 738 0158 0346     		mov	r3, r0
 739 015a 1049     		ldr	r1, .L32+8
 740 015c 1846     		mov	r0, r3
ARM GAS  C:\Users\JENNEW~1\AppData\Local\Temp\ccI7hFDI.s 			page 17


 741 015e FFF7FEFF 		bl	__aeabi_fdiv
 742 0162 0346     		mov	r3, r0
 743 0164 1A46     		mov	r2, r3
 744 0166 7B68     		ldr	r3, [r7, #4]
 745 0168 9A63     		str	r2, [r3, #56]	@ float
 173:..\..\..\HamFlyAPI\src/hamfly_core_telemetry.c ****     dst->gps_sacc_ms       = (float)sacc_raw / 100.0f;
 746              		.loc 1 173 0
 747 016a 7B8A     		ldrh	r3, [r7, #18]
 748 016c 1846     		mov	r0, r3
 749 016e FFF7FEFF 		bl	__aeabi_ui2f
 750 0172 0346     		mov	r3, r0
 751 0174 0949     		ldr	r1, .L32+8
 752 0176 1846     		mov	r0, r3
 753 0178 FFF7FEFF 		bl	__aeabi_fdiv
 754 017c 0346     		mov	r3, r0
 755 017e 1A46     		mov	r2, r3
 756 0180 7B68     		ldr	r3, [r7, #4]
 757 0182 DA63     		str	r2, [r3, #60]	@ float
 174:..\..\..\HamFlyAPI\src/hamfly_core_telemetry.c ****     dst->gps_valid         = true;
 758              		.loc 1 174 0
 759 0184 7B68     		ldr	r3, [r7, #4]
 760 0186 0122     		movs	r2, #1
 761 0188 9A77     		strb	r2, [r3, #30]
 762 018a 00E0     		b	.L28
 763              	.L31:
 146:..\..\..\HamFlyAPI\src/hamfly_core_telemetry.c ****     // Decode to int.
 764              		.loc 1 146 0
 765 018c 00BF     		nop
 766              	.L28:
 175:..\..\..\HamFlyAPI\src/hamfly_core_telemetry.c **** }
 767              		.loc 1 175 0
 768 018e 2837     		adds	r7, r7, #40
 769              		.cfi_def_cfa_offset 8
 770 0190 BD46     		mov	sp, r7
 771              		.cfi_def_cfa_register 13
 772              		@ sp needed
 773 0192 80BD     		pop	{r7, pc}
 774              	.L33:
 775              		.align	2
 776              	.L32:
 777 0194 8096184B 		.word	1259902592
 778 0198 00007A44 		.word	1148846080
 779 019c 0000C842 		.word	1120403456
 780              		.cfi_endproc
 781              	.LFE6:
 782              		.size	hamfly_decode_gps, .-hamfly_decode_gps
 783              		.section	.text.hamfly_decode_baro,"ax",%progbits
 784              		.align	2
 785              		.global	hamfly_decode_baro
 786              		.thumb
 787              		.thumb_func
 788              		.type	hamfly_decode_baro, %function
 789              	hamfly_decode_baro:
 790              	.LFB7:
 176:..\..\..\HamFlyAPI\src/hamfly_core_telemetry.c **** 
 177:..\..\..\HamFlyAPI\src/hamfly_core_telemetry.c **** // ============================================================================
 178:..\..\..\HamFlyAPI\src/hamfly_core_telemetry.c **** // Hamfly Decode Barometer [Hamfly Specific] -- attr 3
ARM GAS  C:\Users\JENNEW~1\AppData\Local\Temp\ccI7hFDI.s 			page 18


 179:..\..\..\HamFlyAPI\src/hamfly_core_telemetry.c **** // ============================================================================
 180:..\..\..\HamFlyAPI\src/hamfly_core_telemetry.c **** // Reads the raw bytes of the Barometer payload and into telemetry fields:
 181:..\..\..\HamFlyAPI\src/hamfly_core_telemetry.c **** // 
 182:..\..\..\HamFlyAPI\src/hamfly_core_telemetry.c **** // Little-endian, sub-index byte at off 0 (ignored), 5 byte payload.
 183:..\..\..\HamFlyAPI\src/hamfly_core_telemetry.c **** // off 1-2  LE int16: altitude      /10  m
 184:..\..\..\HamFlyAPI\src/hamfly_core_telemetry.c **** // off 3-4  LE int16: rate of climb /100 m/s
 185:..\..\..\HamFlyAPI\src/hamfly_core_telemetry.c **** // ============================================================================
 186:..\..\..\HamFlyAPI\src/hamfly_core_telemetry.c **** void hamfly_decode_baro(const uint8_t *p, uint16_t plen,
 187:..\..\..\HamFlyAPI\src/hamfly_core_telemetry.c ****                          hamfly_telemetry_t *dst)
 188:..\..\..\HamFlyAPI\src/hamfly_core_telemetry.c **** {
 791              		.loc 1 188 0
 792              		.cfi_startproc
 793              		@ args = 0, pretend = 0, frame = 16
 794              		@ frame_needed = 1, uses_anonymous_args = 0
 795 0000 80B5     		push	{r7, lr}
 796              		.cfi_def_cfa_offset 8
 797              		.cfi_offset 7, -8
 798              		.cfi_offset 14, -4
 799 0002 84B0     		sub	sp, sp, #16
 800              		.cfi_def_cfa_offset 24
 801 0004 00AF     		add	r7, sp, #0
 802              		.cfi_def_cfa_register 7
 803 0006 F860     		str	r0, [r7, #12]
 804 0008 0B46     		mov	r3, r1
 805 000a 7A60     		str	r2, [r7, #4]
 806 000c 7B81     		strh	r3, [r7, #10]	@ movhi
 189:..\..\..\HamFlyAPI\src/hamfly_core_telemetry.c ****     if (plen < 5u) return;
 807              		.loc 1 189 0
 808 000e 7B89     		ldrh	r3, [r7, #10]
 809 0010 042B     		cmp	r3, #4
 810 0012 28D9     		bls	.L37
 190:..\..\..\HamFlyAPI\src/hamfly_core_telemetry.c **** 
 191:..\..\..\HamFlyAPI\src/hamfly_core_telemetry.c ****     // Decode and populate.
 192:..\..\..\HamFlyAPI\src/hamfly_core_telemetry.c ****     dst->baro_alt_m  = (float)rd_le16(p + 1) / 10.0f;
 811              		.loc 1 192 0
 812 0014 FB68     		ldr	r3, [r7, #12]
 813 0016 0133     		adds	r3, r3, #1
 814 0018 1846     		mov	r0, r3
 815 001a FFF7FEFF 		bl	rd_le16
 816 001e 0346     		mov	r3, r0
 817 0020 1846     		mov	r0, r3
 818 0022 FFF7FEFF 		bl	__aeabi_i2f
 819 0026 0346     		mov	r3, r0
 820 0028 1149     		ldr	r1, .L38
 821 002a 1846     		mov	r0, r3
 822 002c FFF7FEFF 		bl	__aeabi_fdiv
 823 0030 0346     		mov	r3, r0
 824 0032 1A46     		mov	r2, r3
 825 0034 7B68     		ldr	r3, [r7, #4]
 826 0036 9A65     		str	r2, [r3, #88]	@ float
 193:..\..\..\HamFlyAPI\src/hamfly_core_telemetry.c ****     /* Scale changed /100 -> /1000. Previous gave -33 m/s at rest
 194:..\..\..\HamFlyAPI\src/hamfly_core_telemetry.c ****      * (implausible). Corrected gives -3.3 m/s. Awaiting lift test. */
 195:..\..\..\HamFlyAPI\src/hamfly_core_telemetry.c ****     dst->baro_roc_ms = (float)rd_le16(p + 3) / 1000.0f;
 827              		.loc 1 195 0
 828 0038 FB68     		ldr	r3, [r7, #12]
 829 003a 0333     		adds	r3, r3, #3
 830 003c 1846     		mov	r0, r3
ARM GAS  C:\Users\JENNEW~1\AppData\Local\Temp\ccI7hFDI.s 			page 19


 831 003e FFF7FEFF 		bl	rd_le16
 832 0042 0346     		mov	r3, r0
 833 0044 1846     		mov	r0, r3
 834 0046 FFF7FEFF 		bl	__aeabi_i2f
 835 004a 0346     		mov	r3, r0
 836 004c 0949     		ldr	r1, .L38+4
 837 004e 1846     		mov	r0, r3
 838 0050 FFF7FEFF 		bl	__aeabi_fdiv
 839 0054 0346     		mov	r3, r0
 840 0056 1A46     		mov	r2, r3
 841 0058 7B68     		ldr	r3, [r7, #4]
 842 005a DA65     		str	r2, [r3, #92]	@ float
 196:..\..\..\HamFlyAPI\src/hamfly_core_telemetry.c ****     dst->baro_valid  = true;
 843              		.loc 1 196 0
 844 005c 7B68     		ldr	r3, [r7, #4]
 845 005e 0122     		movs	r2, #1
 846 0060 83F85620 		strb	r2, [r3, #86]
 847 0064 00E0     		b	.L34
 848              	.L37:
 189:..\..\..\HamFlyAPI\src/hamfly_core_telemetry.c **** 
 849              		.loc 1 189 0
 850 0066 00BF     		nop
 851              	.L34:
 197:..\..\..\HamFlyAPI\src/hamfly_core_telemetry.c **** }
 852              		.loc 1 197 0
 853 0068 1037     		adds	r7, r7, #16
 854              		.cfi_def_cfa_offset 8
 855 006a BD46     		mov	sp, r7
 856              		.cfi_def_cfa_register 13
 857              		@ sp needed
 858 006c 80BD     		pop	{r7, pc}
 859              	.L39:
 860 006e 00BF     		.align	2
 861              	.L38:
 862 0070 00002041 		.word	1092616192
 863 0074 00007A44 		.word	1148846080
 864              		.cfi_endproc
 865              	.LFE7:
 866              		.size	hamfly_decode_baro, .-hamfly_decode_baro
 867              		.section	.text.hamfly_decode_attitude,"ax",%progbits
 868              		.align	2
 869              		.global	hamfly_decode_attitude
 870              		.thumb
 871              		.thumb_func
 872              		.type	hamfly_decode_attitude, %function
 873              	hamfly_decode_attitude:
 874              	.LFB8:
 198:..\..\..\HamFlyAPI\src/hamfly_core_telemetry.c **** 
 199:..\..\..\HamFlyAPI\src/hamfly_core_telemetry.c **** // ============================================================================
 200:..\..\..\HamFlyAPI\src/hamfly_core_telemetry.c **** // Hamfly Decode Attitude [Hamfly Specific] -- attr 22
 201:..\..\..\HamFlyAPI\src/hamfly_core_telemetry.c **** // ============================================================================
 202:..\..\..\HamFlyAPI\src/hamfly_core_telemetry.c **** // Reads the raw bytes of the Attitude payload and into telemetry fields:
 203:..\..\..\HamFlyAPI\src/hamfly_core_telemetry.c **** // 
 204:..\..\..\HamFlyAPI\src/hamfly_core_telemetry.c **** // Little-endian. off 0: state byte (0x00/0xFF) — ignored.
 205:..\..\..\HamFlyAPI\src/hamfly_core_telemetry.c **** // off 1-2  LE int16: Pitch /100 deg — confirmed vs iOS
 206:..\..\..\HamFlyAPI\src/hamfly_core_telemetry.c **** // off 3-4  LE int16: Yaw   /100 deg — confirmed vs iOS
 207:..\..\..\HamFlyAPI\src/hamfly_core_telemetry.c **** // off 5-6  LE int16: Roll  /100 deg — confirmed vs iOS
ARM GAS  C:\Users\JENNEW~1\AppData\Local\Temp\ccI7hFDI.s 			page 20


 208:..\..\..\HamFlyAPI\src/hamfly_core_telemetry.c **** // off 7-8  LE int16: unknown (was roll_err /10; unconfirmed)
 209:..\..\..\HamFlyAPI\src/hamfly_core_telemetry.c **** // off 9-14  LE int16 x3: rates /100 dps — updated per iOS layout
 210:..\..\..\HamFlyAPI\src/hamfly_core_telemetry.c **** //   TODO: verify rate values against iOS Charts screen.
 211:..\..\..\HamFlyAPI\src/hamfly_core_telemetry.c **** //   Previous decode placed rates at off 13-18 at /10.
 212:..\..\..\HamFlyAPI\src/hamfly_core_telemetry.c **** // ============================================================================
 213:..\..\..\HamFlyAPI\src/hamfly_core_telemetry.c **** void hamfly_decode_attitude(const uint8_t *p, uint16_t plen,
 214:..\..\..\HamFlyAPI\src/hamfly_core_telemetry.c ****                               hamfly_telemetry_t *dst)
 215:..\..\..\HamFlyAPI\src/hamfly_core_telemetry.c **** {
 875              		.loc 1 215 0
 876              		.cfi_startproc
 877              		@ args = 0, pretend = 0, frame = 16
 878              		@ frame_needed = 1, uses_anonymous_args = 0
 879 0000 80B5     		push	{r7, lr}
 880              		.cfi_def_cfa_offset 8
 881              		.cfi_offset 7, -8
 882              		.cfi_offset 14, -4
 883 0002 84B0     		sub	sp, sp, #16
 884              		.cfi_def_cfa_offset 24
 885 0004 00AF     		add	r7, sp, #0
 886              		.cfi_def_cfa_register 7
 887 0006 F860     		str	r0, [r7, #12]
 888 0008 0B46     		mov	r3, r1
 889 000a 7A60     		str	r2, [r7, #4]
 890 000c 7B81     		strh	r3, [r7, #10]	@ movhi
 216:..\..\..\HamFlyAPI\src/hamfly_core_telemetry.c ****     if (plen < 15u) return;
 891              		.loc 1 216 0
 892 000e 7B89     		ldrh	r3, [r7, #10]
 893 0010 0E2B     		cmp	r3, #14
 894 0012 40F28E80 		bls	.L43
 217:..\..\..\HamFlyAPI\src/hamfly_core_telemetry.c **** 
 218:..\..\..\HamFlyAPI\src/hamfly_core_telemetry.c ****     /* Angles — confirmed against iOS app. */
 219:..\..\..\HamFlyAPI\src/hamfly_core_telemetry.c ****     dst->att_pitch_deg  = (float)rd_le16(p +  1) / 100.0f;
 895              		.loc 1 219 0
 896 0016 FB68     		ldr	r3, [r7, #12]
 897 0018 0133     		adds	r3, r3, #1
 898 001a 1846     		mov	r0, r3
 899 001c FFF7FEFF 		bl	rd_le16
 900 0020 0346     		mov	r3, r0
 901 0022 1846     		mov	r0, r3
 902 0024 FFF7FEFF 		bl	__aeabi_i2f
 903 0028 0346     		mov	r3, r0
 904 002a 4449     		ldr	r1, .L44
 905 002c 1846     		mov	r0, r3
 906 002e FFF7FEFF 		bl	__aeabi_fdiv
 907 0032 0346     		mov	r3, r0
 908 0034 1A46     		mov	r2, r3
 909 0036 7B68     		ldr	r3, [r7, #4]
 910 0038 9A66     		str	r2, [r3, #104]	@ float
 220:..\..\..\HamFlyAPI\src/hamfly_core_telemetry.c ****     dst->att_yaw_deg    = (float)rd_le16(p +  3) / 100.0f;
 911              		.loc 1 220 0
 912 003a FB68     		ldr	r3, [r7, #12]
 913 003c 0333     		adds	r3, r3, #3
 914 003e 1846     		mov	r0, r3
 915 0040 FFF7FEFF 		bl	rd_le16
 916 0044 0346     		mov	r3, r0
 917 0046 1846     		mov	r0, r3
 918 0048 FFF7FEFF 		bl	__aeabi_i2f
ARM GAS  C:\Users\JENNEW~1\AppData\Local\Temp\ccI7hFDI.s 			page 21


 919 004c 0346     		mov	r3, r0
 920 004e 3B49     		ldr	r1, .L44
 921 0050 1846     		mov	r0, r3
 922 0052 FFF7FEFF 		bl	__aeabi_fdiv
 923 0056 0346     		mov	r3, r0
 924 0058 1A46     		mov	r2, r3
 925 005a 7B68     		ldr	r3, [r7, #4]
 926 005c DA66     		str	r2, [r3, #108]	@ float
 221:..\..\..\HamFlyAPI\src/hamfly_core_telemetry.c ****     dst->att_roll_deg   = (float)rd_le16(p +  5) / 100.0f;
 927              		.loc 1 221 0
 928 005e FB68     		ldr	r3, [r7, #12]
 929 0060 0533     		adds	r3, r3, #5
 930 0062 1846     		mov	r0, r3
 931 0064 FFF7FEFF 		bl	rd_le16
 932 0068 0346     		mov	r3, r0
 933 006a 1846     		mov	r0, r3
 934 006c FFF7FEFF 		bl	__aeabi_i2f
 935 0070 0346     		mov	r3, r0
 936 0072 3249     		ldr	r1, .L44
 937 0074 1846     		mov	r0, r3
 938 0076 FFF7FEFF 		bl	__aeabi_fdiv
 939 007a 0346     		mov	r3, r0
 940 007c 1A46     		mov	r2, r3
 941 007e 7B68     		ldr	r3, [r7, #4]
 942 0080 1A67     		str	r2, [r3, #112]	@ float
 222:..\..\..\HamFlyAPI\src/hamfly_core_telemetry.c **** 
 223:..\..\..\HamFlyAPI\src/hamfly_core_telemetry.c ****     /* off 7-8: purpose unconfirmed. Keep decoding as roll_err
 224:..\..\..\HamFlyAPI\src/hamfly_core_telemetry.c ****      * until next capture session resolves it. */
 225:..\..\..\HamFlyAPI\src/hamfly_core_telemetry.c ****     dst->att_roll_err_deg = (float)rd_le16(p + 7) / 10.0f;
 943              		.loc 1 225 0
 944 0082 FB68     		ldr	r3, [r7, #12]
 945 0084 0733     		adds	r3, r3, #7
 946 0086 1846     		mov	r0, r3
 947 0088 FFF7FEFF 		bl	rd_le16
 948 008c 0346     		mov	r3, r0
 949 008e 1846     		mov	r0, r3
 950 0090 FFF7FEFF 		bl	__aeabi_i2f
 951 0094 0346     		mov	r3, r0
 952 0096 2A49     		ldr	r1, .L44+4
 953 0098 1846     		mov	r0, r3
 954 009a FFF7FEFF 		bl	__aeabi_fdiv
 955 009e 0346     		mov	r3, r0
 956 00a0 1A46     		mov	r2, r3
 957 00a2 7B68     		ldr	r3, [r7, #4]
 958 00a4 C3F88020 		str	r2, [r3, #128]	@ float
 226:..\..\..\HamFlyAPI\src/hamfly_core_telemetry.c **** 
 227:..\..\..\HamFlyAPI\src/hamfly_core_telemetry.c ****     /* Rates: updated to off 9-14 /100 per confirmed iOS layout.
 228:..\..\..\HamFlyAPI\src/hamfly_core_telemetry.c ****      * TODO: verify values against iOS Charts screen. */
 229:..\..\..\HamFlyAPI\src/hamfly_core_telemetry.c ****     dst->att_pitch_rate_dps = (float)rd_le16(p +  9) / 100.0f;
 959              		.loc 1 229 0
 960 00a8 FB68     		ldr	r3, [r7, #12]
 961 00aa 0933     		adds	r3, r3, #9
 962 00ac 1846     		mov	r0, r3
 963 00ae FFF7FEFF 		bl	rd_le16
 964 00b2 0346     		mov	r3, r0
 965 00b4 1846     		mov	r0, r3
 966 00b6 FFF7FEFF 		bl	__aeabi_i2f
ARM GAS  C:\Users\JENNEW~1\AppData\Local\Temp\ccI7hFDI.s 			page 22


 967 00ba 0346     		mov	r3, r0
 968 00bc 1F49     		ldr	r1, .L44
 969 00be 1846     		mov	r0, r3
 970 00c0 FFF7FEFF 		bl	__aeabi_fdiv
 971 00c4 0346     		mov	r3, r0
 972 00c6 1A46     		mov	r2, r3
 973 00c8 7B68     		ldr	r3, [r7, #4]
 974 00ca 5A67     		str	r2, [r3, #116]	@ float
 230:..\..\..\HamFlyAPI\src/hamfly_core_telemetry.c ****     dst->att_yaw_rate_dps   = (float)rd_le16(p + 11) / 100.0f;
 975              		.loc 1 230 0
 976 00cc FB68     		ldr	r3, [r7, #12]
 977 00ce 0B33     		adds	r3, r3, #11
 978 00d0 1846     		mov	r0, r3
 979 00d2 FFF7FEFF 		bl	rd_le16
 980 00d6 0346     		mov	r3, r0
 981 00d8 1846     		mov	r0, r3
 982 00da FFF7FEFF 		bl	__aeabi_i2f
 983 00de 0346     		mov	r3, r0
 984 00e0 1649     		ldr	r1, .L44
 985 00e2 1846     		mov	r0, r3
 986 00e4 FFF7FEFF 		bl	__aeabi_fdiv
 987 00e8 0346     		mov	r3, r0
 988 00ea 1A46     		mov	r2, r3
 989 00ec 7B68     		ldr	r3, [r7, #4]
 990 00ee 9A67     		str	r2, [r3, #120]	@ float
 231:..\..\..\HamFlyAPI\src/hamfly_core_telemetry.c ****     dst->att_roll_rate_dps  = (float)rd_le16(p + 13) / 100.0f;
 991              		.loc 1 231 0
 992 00f0 FB68     		ldr	r3, [r7, #12]
 993 00f2 0D33     		adds	r3, r3, #13
 994 00f4 1846     		mov	r0, r3
 995 00f6 FFF7FEFF 		bl	rd_le16
 996 00fa 0346     		mov	r3, r0
 997 00fc 1846     		mov	r0, r3
 998 00fe FFF7FEFF 		bl	__aeabi_i2f
 999 0102 0346     		mov	r3, r0
 1000 0104 0D49     		ldr	r1, .L44
 1001 0106 1846     		mov	r0, r3
 1002 0108 FFF7FEFF 		bl	__aeabi_fdiv
 1003 010c 0346     		mov	r3, r0
 1004 010e 1A46     		mov	r2, r3
 1005 0110 7B68     		ldr	r3, [r7, #4]
 1006 0112 DA67     		str	r2, [r3, #124]	@ float
 232:..\..\..\HamFlyAPI\src/hamfly_core_telemetry.c **** 
 233:..\..\..\HamFlyAPI\src/hamfly_core_telemetry.c ****     /* pitch_err/yaw_err previously at off 9/11; now occupied by
 234:..\..\..\HamFlyAPI\src/hamfly_core_telemetry.c ****      * rates. Zeroed until layout is fully confirmed. */
 235:..\..\..\HamFlyAPI\src/hamfly_core_telemetry.c ****     dst->att_pitch_err_deg = 0.0f;
 1007              		.loc 1 235 0
 1008 0114 7B68     		ldr	r3, [r7, #4]
 1009 0116 4FF00002 		mov	r2, #0
 1010 011a C3F88420 		str	r2, [r3, #132]	@ float
 236:..\..\..\HamFlyAPI\src/hamfly_core_telemetry.c ****     dst->att_yaw_err_deg   = 0.0f;
 1011              		.loc 1 236 0
 1012 011e 7B68     		ldr	r3, [r7, #4]
 1013 0120 4FF00002 		mov	r2, #0
 1014 0124 C3F88820 		str	r2, [r3, #136]	@ float
 237:..\..\..\HamFlyAPI\src/hamfly_core_telemetry.c **** 
 238:..\..\..\HamFlyAPI\src/hamfly_core_telemetry.c ****     dst->att_valid = true;
ARM GAS  C:\Users\JENNEW~1\AppData\Local\Temp\ccI7hFDI.s 			page 23


 1015              		.loc 1 238 0
 1016 0128 7B68     		ldr	r3, [r7, #4]
 1017 012a 0122     		movs	r2, #1
 1018 012c 83F86020 		strb	r2, [r3, #96]
 1019 0130 00E0     		b	.L40
 1020              	.L43:
 216:..\..\..\HamFlyAPI\src/hamfly_core_telemetry.c **** 
 1021              		.loc 1 216 0
 1022 0132 00BF     		nop
 1023              	.L40:
 239:..\..\..\HamFlyAPI\src/hamfly_core_telemetry.c **** }
 1024              		.loc 1 239 0
 1025 0134 1037     		adds	r7, r7, #16
 1026              		.cfi_def_cfa_offset 8
 1027 0136 BD46     		mov	sp, r7
 1028              		.cfi_def_cfa_register 13
 1029              		@ sp needed
 1030 0138 80BD     		pop	{r7, pc}
 1031              	.L45:
 1032 013a 00BF     		.align	2
 1033              	.L44:
 1034 013c 0000C842 		.word	1120403456
 1035 0140 00002041 		.word	1092616192
 1036              		.cfi_endproc
 1037              	.LFE8:
 1038              		.size	hamfly_decode_attitude, .-hamfly_decode_attitude
 1039              		.section	.text.hamfly_decode_sysstat,"ax",%progbits
 1040              		.align	2
 1041              		.global	hamfly_decode_sysstat
 1042              		.thumb
 1043              		.thumb_func
 1044              		.type	hamfly_decode_sysstat, %function
 1045              	hamfly_decode_sysstat:
 1046              	.LFB9:
 240:..\..\..\HamFlyAPI\src/hamfly_core_telemetry.c **** 
 241:..\..\..\HamFlyAPI\src/hamfly_core_telemetry.c **** // ============================================================================
 242:..\..\..\HamFlyAPI\src/hamfly_core_telemetry.c **** // Hamfly Decode System Status [Hamfly Specific] -- attr 1
 243:..\..\..\HamFlyAPI\src/hamfly_core_telemetry.c **** // ============================================================================
 244:..\..\..\HamFlyAPI\src/hamfly_core_telemetry.c **** // Reads the raw bytes of the System Status payload and into telemetry fields:
 245:..\..\..\HamFlyAPI\src/hamfly_core_telemetry.c **** // 
 246:..\..\..\HamFlyAPI\src/hamfly_core_telemetry.c **** // Big-endian, no sub-index byte, 22 byte payload.
 247:..\..\..\HamFlyAPI\src/hamfly_core_telemetry.c **** // off 0-1   BE int16:  battery voltage /100 V
 248:..\..\..\HamFlyAPI\src/hamfly_core_telemetry.c **** // off 2     uint8:     GPS satellites
 249:..\..\..\HamFlyAPI\src/hamfly_core_telemetry.c **** // off 3     uint8:     temperature     /3   C
 250:..\..\..\HamFlyAPI\src/hamfly_core_telemetry.c **** // off 4     uint8:     CPU         %        %
 251:..\..\..\HamFlyAPI\src/hamfly_core_telemetry.c **** // off 5-6   BE int16:  status flags
 252:..\..\..\HamFlyAPI\src/hamfly_core_telemetry.c **** // off 7-8   BE int16:  time                 s
 253:..\..\..\HamFlyAPI\src/hamfly_core_telemetry.c **** // off 9-10  BE int16:  pressure        /10  mb
 254:..\..\..\HamFlyAPI\src/hamfly_core_telemetry.c **** // off 11-12 BE int16:  IMU rate
 255:..\..\..\HamFlyAPI\src/hamfly_core_telemetry.c **** // off 13-14 BE int16:  camera status
 256:..\..\..\HamFlyAPI\src/hamfly_core_telemetry.c **** // off 15    uint8:     reserved
 257:..\..\..\HamFlyAPI\src/hamfly_core_telemetry.c **** // off 16-17 BE int16:  IMU latency          us
 258:..\..\..\HamFlyAPI\src/hamfly_core_telemetry.c **** // off 18-19 BE int16:  battery current /100 A
 259:..\..\..\HamFlyAPI\src/hamfly_core_telemetry.c **** // off 20-21 BE int16:  charge used          mAh
 260:..\..\..\HamFlyAPI\src/hamfly_core_telemetry.c **** // ============================================================================
 261:..\..\..\HamFlyAPI\src/hamfly_core_telemetry.c **** void hamfly_decode_sysstat(const uint8_t *p, uint16_t plen,
 262:..\..\..\HamFlyAPI\src/hamfly_core_telemetry.c ****                              hamfly_telemetry_t *dst)
ARM GAS  C:\Users\JENNEW~1\AppData\Local\Temp\ccI7hFDI.s 			page 24


 263:..\..\..\HamFlyAPI\src/hamfly_core_telemetry.c **** {
 1047              		.loc 1 263 0
 1048              		.cfi_startproc
 1049              		@ args = 0, pretend = 0, frame = 16
 1050              		@ frame_needed = 1, uses_anonymous_args = 0
 1051 0000 80B5     		push	{r7, lr}
 1052              		.cfi_def_cfa_offset 8
 1053              		.cfi_offset 7, -8
 1054              		.cfi_offset 14, -4
 1055 0002 84B0     		sub	sp, sp, #16
 1056              		.cfi_def_cfa_offset 24
 1057 0004 00AF     		add	r7, sp, #0
 1058              		.cfi_def_cfa_register 7
 1059 0006 F860     		str	r0, [r7, #12]
 1060 0008 0B46     		mov	r3, r1
 1061 000a 7A60     		str	r2, [r7, #4]
 1062 000c 7B81     		strh	r3, [r7, #10]	@ movhi
 264:..\..\..\HamFlyAPI\src/hamfly_core_telemetry.c ****     if (plen < 22u) return;
 1063              		.loc 1 264 0
 1064 000e 7B89     		ldrh	r3, [r7, #10]
 1065 0010 152B     		cmp	r3, #21
 1066 0012 40F2CF80 		bls	.L49
 265:..\..\..\HamFlyAPI\src/hamfly_core_telemetry.c **** 
 266:..\..\..\HamFlyAPI\src/hamfly_core_telemetry.c ****     // Decode and populate.
 267:..\..\..\HamFlyAPI\src/hamfly_core_telemetry.c ****     dst->sysstat_batt_v       = (float)rd_be16(p +  0) / 100.0f;
 1067              		.loc 1 267 0
 1068 0016 F868     		ldr	r0, [r7, #12]
 1069 0018 FFF7FEFF 		bl	rd_be16
 1070 001c 0346     		mov	r3, r0
 1071 001e 1846     		mov	r0, r3
 1072 0020 FFF7FEFF 		bl	__aeabi_i2f
 1073 0024 0346     		mov	r3, r0
 1074 0026 6549     		ldr	r1, .L50
 1075 0028 1846     		mov	r0, r3
 1076 002a FFF7FEFF 		bl	__aeabi_fdiv
 1077 002e 0346     		mov	r3, r0
 1078 0030 1A46     		mov	r2, r3
 1079 0032 7B68     		ldr	r3, [r7, #4]
 1080 0034 C3F89420 		str	r2, [r3, #148]	@ float
 268:..\..\..\HamFlyAPI\src/hamfly_core_telemetry.c ****     dst->sysstat_gps_sats     = p[2];
 1081              		.loc 1 268 0
 1082 0038 FB68     		ldr	r3, [r7, #12]
 1083 003a 9A78     		ldrb	r2, [r3, #2]	@ zero_extendqisi2
 1084 003c 7B68     		ldr	r3, [r7, #4]
 1085 003e 83F89820 		strb	r2, [r3, #152]
 269:..\..\..\HamFlyAPI\src/hamfly_core_telemetry.c ****     dst->sysstat_temp_c       = (float)p[3] / 3.0f;
 1086              		.loc 1 269 0
 1087 0042 FB68     		ldr	r3, [r7, #12]
 1088 0044 0333     		adds	r3, r3, #3
 1089 0046 1B78     		ldrb	r3, [r3]	@ zero_extendqisi2
 1090 0048 1846     		mov	r0, r3
 1091 004a FFF7FEFF 		bl	__aeabi_ui2f
 1092 004e 0346     		mov	r3, r0
 1093 0050 5B49     		ldr	r1, .L50+4
 1094 0052 1846     		mov	r0, r3
 1095 0054 FFF7FEFF 		bl	__aeabi_fdiv
 1096 0058 0346     		mov	r3, r0
ARM GAS  C:\Users\JENNEW~1\AppData\Local\Temp\ccI7hFDI.s 			page 25


 1097 005a 1A46     		mov	r2, r3
 1098 005c 7B68     		ldr	r3, [r7, #4]
 1099 005e C3F89C20 		str	r2, [r3, #156]	@ float
 270:..\..\..\HamFlyAPI\src/hamfly_core_telemetry.c ****     dst->sysstat_cpu_pct      = p[4];
 1100              		.loc 1 270 0
 1101 0062 FB68     		ldr	r3, [r7, #12]
 1102 0064 1A79     		ldrb	r2, [r3, #4]	@ zero_extendqisi2
 1103 0066 7B68     		ldr	r3, [r7, #4]
 1104 0068 83F8A020 		strb	r2, [r3, #160]
 271:..\..\..\HamFlyAPI\src/hamfly_core_telemetry.c ****     dst->sysstat_status_flags = rd_be16(p +  5);
 1105              		.loc 1 271 0
 1106 006c FB68     		ldr	r3, [r7, #12]
 1107 006e 0533     		adds	r3, r3, #5
 1108 0070 1846     		mov	r0, r3
 1109 0072 FFF7FEFF 		bl	rd_be16
 1110 0076 0346     		mov	r3, r0
 1111 0078 1A46     		mov	r2, r3
 1112 007a 7B68     		ldr	r3, [r7, #4]
 1113 007c A3F8A220 		strh	r2, [r3, #162]	@ movhi
 272:..\..\..\HamFlyAPI\src/hamfly_core_telemetry.c ****     dst->sysstat_time_s       = rd_be16(p +  7);
 1114              		.loc 1 272 0
 1115 0080 FB68     		ldr	r3, [r7, #12]
 1116 0082 0733     		adds	r3, r3, #7
 1117 0084 1846     		mov	r0, r3
 1118 0086 FFF7FEFF 		bl	rd_be16
 1119 008a 0346     		mov	r3, r0
 1120 008c 1A46     		mov	r2, r3
 1121 008e 7B68     		ldr	r3, [r7, #4]
 1122 0090 A3F8A420 		strh	r2, [r3, #164]	@ movhi
 273:..\..\..\HamFlyAPI\src/hamfly_core_telemetry.c ****     dst->sysstat_pressure_mb  = (float)rd_be16(p +  9) / 10.0f;
 1123              		.loc 1 273 0
 1124 0094 FB68     		ldr	r3, [r7, #12]
 1125 0096 0933     		adds	r3, r3, #9
 1126 0098 1846     		mov	r0, r3
 1127 009a FFF7FEFF 		bl	rd_be16
 1128 009e 0346     		mov	r3, r0
 1129 00a0 1846     		mov	r0, r3
 1130 00a2 FFF7FEFF 		bl	__aeabi_i2f
 1131 00a6 0346     		mov	r3, r0
 1132 00a8 4649     		ldr	r1, .L50+8
 1133 00aa 1846     		mov	r0, r3
 1134 00ac FFF7FEFF 		bl	__aeabi_fdiv
 1135 00b0 0346     		mov	r3, r0
 1136 00b2 1A46     		mov	r2, r3
 1137 00b4 7B68     		ldr	r3, [r7, #4]
 1138 00b6 C3F8A820 		str	r2, [r3, #168]	@ float
 274:..\..\..\HamFlyAPI\src/hamfly_core_telemetry.c ****     dst->sysstat_imu_rate     = rd_be16(p + 11);
 1139              		.loc 1 274 0
 1140 00ba FB68     		ldr	r3, [r7, #12]
 1141 00bc 0B33     		adds	r3, r3, #11
 1142 00be 1846     		mov	r0, r3
 1143 00c0 FFF7FEFF 		bl	rd_be16
 1144 00c4 0346     		mov	r3, r0
 1145 00c6 1A46     		mov	r2, r3
 1146 00c8 7B68     		ldr	r3, [r7, #4]
 1147 00ca A3F8AC20 		strh	r2, [r3, #172]	@ movhi
 275:..\..\..\HamFlyAPI\src/hamfly_core_telemetry.c ****     dst->sysstat_cam_status   = rd_be16(p + 13);
ARM GAS  C:\Users\JENNEW~1\AppData\Local\Temp\ccI7hFDI.s 			page 26


 1148              		.loc 1 275 0
 1149 00ce FB68     		ldr	r3, [r7, #12]
 1150 00d0 0D33     		adds	r3, r3, #13
 1151 00d2 1846     		mov	r0, r3
 1152 00d4 FFF7FEFF 		bl	rd_be16
 1153 00d8 0346     		mov	r3, r0
 1154 00da 1A46     		mov	r2, r3
 1155 00dc 7B68     		ldr	r3, [r7, #4]
 1156 00de A3F8AE20 		strh	r2, [r3, #174]	@ movhi
 276:..\..\..\HamFlyAPI\src/hamfly_core_telemetry.c ****     /* off 15: reserved, skip */
 277:..\..\..\HamFlyAPI\src/hamfly_core_telemetry.c ****     dst->sysstat_imu_latency  = rd_be16(p + 16);
 1157              		.loc 1 277 0
 1158 00e2 FB68     		ldr	r3, [r7, #12]
 1159 00e4 1033     		adds	r3, r3, #16
 1160 00e6 1846     		mov	r0, r3
 1161 00e8 FFF7FEFF 		bl	rd_be16
 1162 00ec 0346     		mov	r3, r0
 1163 00ee 1A46     		mov	r2, r3
 1164 00f0 7B68     		ldr	r3, [r7, #4]
 1165 00f2 A3F8B020 		strh	r2, [r3, #176]	@ movhi
 278:..\..\..\HamFlyAPI\src/hamfly_core_telemetry.c ****     dst->sysstat_batt_a       = (float)rd_be16(p + 18) / 100.0f;
 1166              		.loc 1 278 0
 1167 00f6 FB68     		ldr	r3, [r7, #12]
 1168 00f8 1233     		adds	r3, r3, #18
 1169 00fa 1846     		mov	r0, r3
 1170 00fc FFF7FEFF 		bl	rd_be16
 1171 0100 0346     		mov	r3, r0
 1172 0102 1846     		mov	r0, r3
 1173 0104 FFF7FEFF 		bl	__aeabi_i2f
 1174 0108 0346     		mov	r3, r0
 1175 010a 2C49     		ldr	r1, .L50
 1176 010c 1846     		mov	r0, r3
 1177 010e FFF7FEFF 		bl	__aeabi_fdiv
 1178 0112 0346     		mov	r3, r0
 1179 0114 1A46     		mov	r2, r3
 1180 0116 7B68     		ldr	r3, [r7, #4]
 1181 0118 C3F8B420 		str	r2, [r3, #180]	@ float
 279:..\..\..\HamFlyAPI\src/hamfly_core_telemetry.c ****     dst->sysstat_charge_mah   = rd_be16(p + 20);
 1182              		.loc 1 279 0
 1183 011c FB68     		ldr	r3, [r7, #12]
 1184 011e 1433     		adds	r3, r3, #20
 1185 0120 1846     		mov	r0, r3
 1186 0122 FFF7FEFF 		bl	rd_be16
 1187 0126 0346     		mov	r3, r0
 1188 0128 1A46     		mov	r2, r3
 1189 012a 7B68     		ldr	r3, [r7, #4]
 1190 012c A3F8B820 		strh	r2, [r3, #184]	@ movhi
 280:..\..\..\HamFlyAPI\src/hamfly_core_telemetry.c ****     dst->sysstat_valid        = true;
 1191              		.loc 1 280 0
 1192 0130 7B68     		ldr	r3, [r7, #4]
 1193 0132 0122     		movs	r2, #1
 1194 0134 83F88C20 		strb	r2, [r3, #140]
 281:..\..\..\HamFlyAPI\src/hamfly_core_telemetry.c ****     /* Decode status flag booleans. Bit positions confirmed:
 282:..\..\..\HamFlyAPI\src/hamfly_core_telemetry.c ****      *   indoor  0x0065 — bit 3 clear (no GPS lock)
 283:..\..\..\HamFlyAPI\src/hamfly_core_telemetry.c ****      *   outdoor 0x006C — bit 3 set   (GPS locked)            */
 284:..\..\..\HamFlyAPI\src/hamfly_core_telemetry.c ****     dst->flag_compass_error = (dst->sysstat_status_flags & 0x01) != 0;
 1195              		.loc 1 284 0
ARM GAS  C:\Users\JENNEW~1\AppData\Local\Temp\ccI7hFDI.s 			page 27


 1196 0138 7B68     		ldr	r3, [r7, #4]
 1197 013a B3F9A230 		ldrsh	r3, [r3, #162]
 1198 013e 9BB2     		uxth	r3, r3
 1199 0140 03F00103 		and	r3, r3, #1
 1200 0144 002B     		cmp	r3, #0
 1201 0146 14BF     		ite	ne
 1202 0148 0123     		movne	r3, #1
 1203 014a 0023     		moveq	r3, #0
 1204 014c DAB2     		uxtb	r2, r3
 1205 014e 7B68     		ldr	r3, [r7, #4]
 1206 0150 83F88D20 		strb	r2, [r3, #141]
 285:..\..\..\HamFlyAPI\src/hamfly_core_telemetry.c ****     dst->flag_gps_los       = (dst->sysstat_status_flags & 0x02) != 0;
 1207              		.loc 1 285 0
 1208 0154 7B68     		ldr	r3, [r7, #4]
 1209 0156 B3F9A230 		ldrsh	r3, [r3, #162]
 1210 015a 9BB2     		uxth	r3, r3
 1211 015c 03F00203 		and	r3, r3, #2
 1212 0160 002B     		cmp	r3, #0
 1213 0162 14BF     		ite	ne
 1214 0164 0123     		movne	r3, #1
 1215 0166 0023     		moveq	r3, #0
 1216 0168 DAB2     		uxtb	r2, r3
 1217 016a 7B68     		ldr	r3, [r7, #4]
 1218 016c 83F88E20 		strb	r2, [r3, #142]
 286:..\..\..\HamFlyAPI\src/hamfly_core_telemetry.c ****     dst->flag_radio_los     = (dst->sysstat_status_flags & 0x04) != 0;
 1219              		.loc 1 286 0
 1220 0170 7B68     		ldr	r3, [r7, #4]
 1221 0172 B3F9A230 		ldrsh	r3, [r3, #162]
 1222 0176 9BB2     		uxth	r3, r3
 1223 0178 03F00403 		and	r3, r3, #4
 1224 017c 002B     		cmp	r3, #0
 1225 017e 14BF     		ite	ne
 1226 0180 0123     		movne	r3, #1
 1227 0182 0023     		moveq	r3, #0
 1228 0184 DAB2     		uxtb	r2, r3
 1229 0186 7B68     		ldr	r3, [r7, #4]
 1230 0188 83F88F20 		strb	r2, [r3, #143]
 287:..\..\..\HamFlyAPI\src/hamfly_core_telemetry.c ****     dst->flag_gps_locked    = (dst->sysstat_status_flags & 0x08) != 0;
 1231              		.loc 1 287 0
 1232 018c 7B68     		ldr	r3, [r7, #4]
 1233 018e B3F9A230 		ldrsh	r3, [r3, #162]
 1234 0192 9BB2     		uxth	r3, r3
 1235 0194 03F00803 		and	r3, r3, #8
 1236 0198 002B     		cmp	r3, #0
 1237 019a 14BF     		ite	ne
 1238 019c 0123     		movne	r3, #1
 1239 019e 0023     		moveq	r3, #0
 1240 01a0 DAB2     		uxtb	r2, r3
 1241 01a2 7B68     		ldr	r3, [r7, #4]
 1242 01a4 83F89020 		strb	r2, [r3, #144]
 288:..\..\..\HamFlyAPI\src/hamfly_core_telemetry.c ****     /* Propagate to GPS section for convenience. */
 289:..\..\..\HamFlyAPI\src/hamfly_core_telemetry.c ****     dst->gps_locked = dst->flag_gps_locked;
 1243              		.loc 1 289 0
 1244 01a8 7B68     		ldr	r3, [r7, #4]
 1245 01aa 93F89020 		ldrb	r2, [r3, #144]	@ zero_extendqisi2
 1246 01ae 7B68     		ldr	r3, [r7, #4]
 1247 01b0 DA77     		strb	r2, [r3, #31]
ARM GAS  C:\Users\JENNEW~1\AppData\Local\Temp\ccI7hFDI.s 			page 28


 1248 01b2 00E0     		b	.L46
 1249              	.L49:
 264:..\..\..\HamFlyAPI\src/hamfly_core_telemetry.c **** 
 1250              		.loc 1 264 0
 1251 01b4 00BF     		nop
 1252              	.L46:
 290:..\..\..\HamFlyAPI\src/hamfly_core_telemetry.c **** }
 1253              		.loc 1 290 0
 1254 01b6 1037     		adds	r7, r7, #16
 1255              		.cfi_def_cfa_offset 8
 1256 01b8 BD46     		mov	sp, r7
 1257              		.cfi_def_cfa_register 13
 1258              		@ sp needed
 1259 01ba 80BD     		pop	{r7, pc}
 1260              	.L51:
 1261              		.align	2
 1262              	.L50:
 1263 01bc 0000C842 		.word	1120403456
 1264 01c0 00004040 		.word	1077936128
 1265 01c4 00002041 		.word	1092616192
 1266              		.cfi_endproc
 1267              	.LFE9:
 1268              		.size	hamfly_decode_sysstat, .-hamfly_decode_sysstat
 1269              		.section	.text.hamfly_decode_mag,"ax",%progbits
 1270              		.align	2
 1271              		.global	hamfly_decode_mag
 1272              		.thumb
 1273              		.thumb_func
 1274              		.type	hamfly_decode_mag, %function
 1275              	hamfly_decode_mag:
 1276              	.LFB10:
 291:..\..\..\HamFlyAPI\src/hamfly_core_telemetry.c **** 
 292:..\..\..\HamFlyAPI\src/hamfly_core_telemetry.c **** // ============================================================================
 293:..\..\..\HamFlyAPI\src/hamfly_core_telemetry.c **** // Hamfly Decode Magnetometer [Hamfly Specific] -- attr 12
 294:..\..\..\HamFlyAPI\src/hamfly_core_telemetry.c **** // ============================================================================
 295:..\..\..\HamFlyAPI\src/hamfly_core_telemetry.c **** // Reads the raw bytes of the Magnetometer payload and into telemetry fields:
 296:..\..\..\HamFlyAPI\src/hamfly_core_telemetry.c **** // 
 297:..\..\..\HamFlyAPI\src/hamfly_core_telemetry.c **** // Little-endian, sub-index byte at off 0 (ignored), 19 byte payload.
 298:..\..\..\HamFlyAPI\src/hamfly_core_telemetry.c **** // off 1-2   LE int16:  X           /1000
 299:..\..\..\HamFlyAPI\src/hamfly_core_telemetry.c **** // off 3-4   LE int16:  Y           /1000
 300:..\..\..\HamFlyAPI\src/hamfly_core_telemetry.c **** // off 5-6   LE int16:  Z           /1000
 301:..\..\..\HamFlyAPI\src/hamfly_core_telemetry.c **** // off 7-8   LE int16:  magnitude   /100
 302:..\..\..\HamFlyAPI\src/hamfly_core_telemetry.c **** // off 9-10  LE int16:  frequency   /100
 303:..\..\..\HamFlyAPI\src/hamfly_core_telemetry.c **** // off 11-12 LE int16:  offset X    /1000
 304:..\..\..\HamFlyAPI\src/hamfly_core_telemetry.c **** // off 13-14 LE int16:  offset Y    /1000
 305:..\..\..\HamFlyAPI\src/hamfly_core_telemetry.c **** // off 15-16 LE int16:  offset Z    /1000
 306:..\..\..\HamFlyAPI\src/hamfly_core_telemetry.c **** // off 17-18 LE int16:  declination /10
 307:..\..\..\HamFlyAPI\src/hamfly_core_telemetry.c **** // ============================================================================
 308:..\..\..\HamFlyAPI\src/hamfly_core_telemetry.c **** void hamfly_decode_mag(const uint8_t *p, uint16_t plen,
 309:..\..\..\HamFlyAPI\src/hamfly_core_telemetry.c ****                         hamfly_telemetry_t *dst)
 310:..\..\..\HamFlyAPI\src/hamfly_core_telemetry.c **** {
 1277              		.loc 1 310 0
 1278              		.cfi_startproc
 1279              		@ args = 0, pretend = 0, frame = 16
 1280              		@ frame_needed = 1, uses_anonymous_args = 0
 1281 0000 80B5     		push	{r7, lr}
 1282              		.cfi_def_cfa_offset 8
ARM GAS  C:\Users\JENNEW~1\AppData\Local\Temp\ccI7hFDI.s 			page 29


 1283              		.cfi_offset 7, -8
 1284              		.cfi_offset 14, -4
 1285 0002 84B0     		sub	sp, sp, #16
 1286              		.cfi_def_cfa_offset 24
 1287 0004 00AF     		add	r7, sp, #0
 1288              		.cfi_def_cfa_register 7
 1289 0006 F860     		str	r0, [r7, #12]
 1290 0008 0B46     		mov	r3, r1
 1291 000a 7A60     		str	r2, [r7, #4]
 1292 000c 7B81     		strh	r3, [r7, #10]	@ movhi
 311:..\..\..\HamFlyAPI\src/hamfly_core_telemetry.c ****     if (plen < 19u) return;
 1293              		.loc 1 311 0
 1294 000e 7B89     		ldrh	r3, [r7, #10]
 1295 0010 122B     		cmp	r3, #18
 1296 0012 40F2B080 		bls	.L55
 312:..\..\..\HamFlyAPI\src/hamfly_core_telemetry.c **** 
 313:..\..\..\HamFlyAPI\src/hamfly_core_telemetry.c ****     // Decode and populate.
 314:..\..\..\HamFlyAPI\src/hamfly_core_telemetry.c ****     dst->mag_x           = (float)rd_le16(p +  1) / 1000.0f;
 1297              		.loc 1 314 0
 1298 0016 FB68     		ldr	r3, [r7, #12]
 1299 0018 0133     		adds	r3, r3, #1
 1300 001a 1846     		mov	r0, r3
 1301 001c FFF7FEFF 		bl	rd_le16
 1302 0020 0346     		mov	r3, r0
 1303 0022 1846     		mov	r0, r3
 1304 0024 FFF7FEFF 		bl	__aeabi_i2f
 1305 0028 0346     		mov	r3, r0
 1306 002a 5549     		ldr	r1, .L56
 1307 002c 1846     		mov	r0, r3
 1308 002e FFF7FEFF 		bl	__aeabi_fdiv
 1309 0032 0346     		mov	r3, r0
 1310 0034 1A46     		mov	r2, r3
 1311 0036 7B68     		ldr	r3, [r7, #4]
 1312 0038 C3F8BC20 		str	r2, [r3, #188]	@ float
 315:..\..\..\HamFlyAPI\src/hamfly_core_telemetry.c ****     dst->mag_y           = (float)rd_le16(p +  3) / 1000.0f;
 1313              		.loc 1 315 0
 1314 003c FB68     		ldr	r3, [r7, #12]
 1315 003e 0333     		adds	r3, r3, #3
 1316 0040 1846     		mov	r0, r3
 1317 0042 FFF7FEFF 		bl	rd_le16
 1318 0046 0346     		mov	r3, r0
 1319 0048 1846     		mov	r0, r3
 1320 004a FFF7FEFF 		bl	__aeabi_i2f
 1321 004e 0346     		mov	r3, r0
 1322 0050 4B49     		ldr	r1, .L56
 1323 0052 1846     		mov	r0, r3
 1324 0054 FFF7FEFF 		bl	__aeabi_fdiv
 1325 0058 0346     		mov	r3, r0
 1326 005a 1A46     		mov	r2, r3
 1327 005c 7B68     		ldr	r3, [r7, #4]
 1328 005e C3F8C020 		str	r2, [r3, #192]	@ float
 316:..\..\..\HamFlyAPI\src/hamfly_core_telemetry.c ****     dst->mag_z           = (float)rd_le16(p +  5) / 1000.0f;
 1329              		.loc 1 316 0
 1330 0062 FB68     		ldr	r3, [r7, #12]
 1331 0064 0533     		adds	r3, r3, #5
 1332 0066 1846     		mov	r0, r3
 1333 0068 FFF7FEFF 		bl	rd_le16
ARM GAS  C:\Users\JENNEW~1\AppData\Local\Temp\ccI7hFDI.s 			page 30


 1334 006c 0346     		mov	r3, r0
 1335 006e 1846     		mov	r0, r3
 1336 0070 FFF7FEFF 		bl	__aeabi_i2f
 1337 0074 0346     		mov	r3, r0
 1338 0076 4249     		ldr	r1, .L56
 1339 0078 1846     		mov	r0, r3
 1340 007a FFF7FEFF 		bl	__aeabi_fdiv
 1341 007e 0346     		mov	r3, r0
 1342 0080 1A46     		mov	r2, r3
 1343 0082 7B68     		ldr	r3, [r7, #4]
 1344 0084 C3F8C420 		str	r2, [r3, #196]	@ float
 317:..\..\..\HamFlyAPI\src/hamfly_core_telemetry.c ****     dst->mag_magnitude   = (float)rd_le16(p +  7) / 100.0f;
 1345              		.loc 1 317 0
 1346 0088 FB68     		ldr	r3, [r7, #12]
 1347 008a 0733     		adds	r3, r3, #7
 1348 008c 1846     		mov	r0, r3
 1349 008e FFF7FEFF 		bl	rd_le16
 1350 0092 0346     		mov	r3, r0
 1351 0094 1846     		mov	r0, r3
 1352 0096 FFF7FEFF 		bl	__aeabi_i2f
 1353 009a 0346     		mov	r3, r0
 1354 009c 3949     		ldr	r1, .L56+4
 1355 009e 1846     		mov	r0, r3
 1356 00a0 FFF7FEFF 		bl	__aeabi_fdiv
 1357 00a4 0346     		mov	r3, r0
 1358 00a6 1A46     		mov	r2, r3
 1359 00a8 7B68     		ldr	r3, [r7, #4]
 1360 00aa C3F8C820 		str	r2, [r3, #200]	@ float
 318:..\..\..\HamFlyAPI\src/hamfly_core_telemetry.c ****     dst->mag_freq        = (float)rd_le16(p +  9) / 100.0f;
 1361              		.loc 1 318 0
 1362 00ae FB68     		ldr	r3, [r7, #12]
 1363 00b0 0933     		adds	r3, r3, #9
 1364 00b2 1846     		mov	r0, r3
 1365 00b4 FFF7FEFF 		bl	rd_le16
 1366 00b8 0346     		mov	r3, r0
 1367 00ba 1846     		mov	r0, r3
 1368 00bc FFF7FEFF 		bl	__aeabi_i2f
 1369 00c0 0346     		mov	r3, r0
 1370 00c2 3049     		ldr	r1, .L56+4
 1371 00c4 1846     		mov	r0, r3
 1372 00c6 FFF7FEFF 		bl	__aeabi_fdiv
 1373 00ca 0346     		mov	r3, r0
 1374 00cc 1A46     		mov	r2, r3
 1375 00ce 7B68     		ldr	r3, [r7, #4]
 1376 00d0 C3F8CC20 		str	r2, [r3, #204]	@ float
 319:..\..\..\HamFlyAPI\src/hamfly_core_telemetry.c ****     dst->mag_off_x       = (float)rd_le16(p + 11) / 1000.0f;
 1377              		.loc 1 319 0
 1378 00d4 FB68     		ldr	r3, [r7, #12]
 1379 00d6 0B33     		adds	r3, r3, #11
 1380 00d8 1846     		mov	r0, r3
 1381 00da FFF7FEFF 		bl	rd_le16
 1382 00de 0346     		mov	r3, r0
 1383 00e0 1846     		mov	r0, r3
 1384 00e2 FFF7FEFF 		bl	__aeabi_i2f
 1385 00e6 0346     		mov	r3, r0
 1386 00e8 2549     		ldr	r1, .L56
 1387 00ea 1846     		mov	r0, r3
ARM GAS  C:\Users\JENNEW~1\AppData\Local\Temp\ccI7hFDI.s 			page 31


 1388 00ec FFF7FEFF 		bl	__aeabi_fdiv
 1389 00f0 0346     		mov	r3, r0
 1390 00f2 1A46     		mov	r2, r3
 1391 00f4 7B68     		ldr	r3, [r7, #4]
 1392 00f6 C3F8D020 		str	r2, [r3, #208]	@ float
 320:..\..\..\HamFlyAPI\src/hamfly_core_telemetry.c ****     dst->mag_off_y       = (float)rd_le16(p + 13) / 1000.0f;
 1393              		.loc 1 320 0
 1394 00fa FB68     		ldr	r3, [r7, #12]
 1395 00fc 0D33     		adds	r3, r3, #13
 1396 00fe 1846     		mov	r0, r3
 1397 0100 FFF7FEFF 		bl	rd_le16
 1398 0104 0346     		mov	r3, r0
 1399 0106 1846     		mov	r0, r3
 1400 0108 FFF7FEFF 		bl	__aeabi_i2f
 1401 010c 0346     		mov	r3, r0
 1402 010e 1C49     		ldr	r1, .L56
 1403 0110 1846     		mov	r0, r3
 1404 0112 FFF7FEFF 		bl	__aeabi_fdiv
 1405 0116 0346     		mov	r3, r0
 1406 0118 1A46     		mov	r2, r3
 1407 011a 7B68     		ldr	r3, [r7, #4]
 1408 011c C3F8D420 		str	r2, [r3, #212]	@ float
 321:..\..\..\HamFlyAPI\src/hamfly_core_telemetry.c ****     dst->mag_off_z       = (float)rd_le16(p + 15) / 1000.0f;
 1409              		.loc 1 321 0
 1410 0120 FB68     		ldr	r3, [r7, #12]
 1411 0122 0F33     		adds	r3, r3, #15
 1412 0124 1846     		mov	r0, r3
 1413 0126 FFF7FEFF 		bl	rd_le16
 1414 012a 0346     		mov	r3, r0
 1415 012c 1846     		mov	r0, r3
 1416 012e FFF7FEFF 		bl	__aeabi_i2f
 1417 0132 0346     		mov	r3, r0
 1418 0134 1249     		ldr	r1, .L56
 1419 0136 1846     		mov	r0, r3
 1420 0138 FFF7FEFF 		bl	__aeabi_fdiv
 1421 013c 0346     		mov	r3, r0
 1422 013e 1A46     		mov	r2, r3
 1423 0140 7B68     		ldr	r3, [r7, #4]
 1424 0142 C3F8D820 		str	r2, [r3, #216]	@ float
 322:..\..\..\HamFlyAPI\src/hamfly_core_telemetry.c ****     dst->mag_declination = (float)rd_le16(p + 17) / 10.0f;
 1425              		.loc 1 322 0
 1426 0146 FB68     		ldr	r3, [r7, #12]
 1427 0148 1133     		adds	r3, r3, #17
 1428 014a 1846     		mov	r0, r3
 1429 014c FFF7FEFF 		bl	rd_le16
 1430 0150 0346     		mov	r3, r0
 1431 0152 1846     		mov	r0, r3
 1432 0154 FFF7FEFF 		bl	__aeabi_i2f
 1433 0158 0346     		mov	r3, r0
 1434 015a 0B49     		ldr	r1, .L56+8
 1435 015c 1846     		mov	r0, r3
 1436 015e FFF7FEFF 		bl	__aeabi_fdiv
 1437 0162 0346     		mov	r3, r0
 1438 0164 1A46     		mov	r2, r3
 1439 0166 7B68     		ldr	r3, [r7, #4]
 1440 0168 C3F8DC20 		str	r2, [r3, #220]	@ float
 323:..\..\..\HamFlyAPI\src/hamfly_core_telemetry.c ****     dst->mag_valid       = true;
ARM GAS  C:\Users\JENNEW~1\AppData\Local\Temp\ccI7hFDI.s 			page 32


 1441              		.loc 1 323 0
 1442 016c 7B68     		ldr	r3, [r7, #4]
 1443 016e 0122     		movs	r2, #1
 1444 0170 83F8BA20 		strb	r2, [r3, #186]
 1445 0174 00E0     		b	.L52
 1446              	.L55:
 311:..\..\..\HamFlyAPI\src/hamfly_core_telemetry.c **** 
 1447              		.loc 1 311 0
 1448 0176 00BF     		nop
 1449              	.L52:
 324:..\..\..\HamFlyAPI\src/hamfly_core_telemetry.c **** }
 1450              		.loc 1 324 0
 1451 0178 1037     		adds	r7, r7, #16
 1452              		.cfi_def_cfa_offset 8
 1453 017a BD46     		mov	sp, r7
 1454              		.cfi_def_cfa_register 13
 1455              		@ sp needed
 1456 017c 80BD     		pop	{r7, pc}
 1457              	.L57:
 1458 017e 00BF     		.align	2
 1459              	.L56:
 1460 0180 00007A44 		.word	1148846080
 1461 0184 0000C842 		.word	1120403456
 1462 0188 00002041 		.word	1092616192
 1463              		.cfi_endproc
 1464              	.LFE10:
 1465              		.size	hamfly_decode_mag, .-hamfly_decode_mag
 1466              		.section	.text.hamfly_decode_sysecho,"ax",%progbits
 1467              		.align	2
 1468              		.global	hamfly_decode_sysecho
 1469              		.thumb
 1470              		.thumb_func
 1471              		.type	hamfly_decode_sysecho, %function
 1472              	hamfly_decode_sysecho:
 1473              	.LFB11:
 325:..\..\..\HamFlyAPI\src/hamfly_core_telemetry.c **** 
 326:..\..\..\HamFlyAPI\src/hamfly_core_telemetry.c **** // ============================================================================
 327:..\..\..\HamFlyAPI\src/hamfly_core_telemetry.c **** // Hamfly Decode System Echo [Hamfly Specific] -- attr 48
 328:..\..\..\HamFlyAPI\src/hamfly_core_telemetry.c **** // ============================================================================
 329:..\..\..\HamFlyAPI\src/hamfly_core_telemetry.c **** // Composite read-only status block. Mirrors several attr 1 and attr 4 fields.
 330:..\..\..\HamFlyAPI\src/hamfly_core_telemetry.c **** // Single round trip gives GPS lock state, rough position, pressure, IMU rate.
 331:..\..\..\HamFlyAPI\src/hamfly_core_telemetry.c **** //
 332:..\..\..\HamFlyAPI\src/hamfly_core_telemetry.c **** // off 0-7   GPS position bytes (mirrors attr 4 lon/lat when GPS locked).
 333:..\..\..\HamFlyAPI\src/hamfly_core_telemetry.c **** // off 8     status byte: 0x09 = GPS locked, 0xCB = no lock.
 334:..\..\..\HamFlyAPI\src/hamfly_core_telemetry.c **** // off 9-10  BE int16: pressure /10 mb (mirrors attr 1 off 9-10).
 335:..\..\..\HamFlyAPI\src/hamfly_core_telemetry.c **** // off 11-12 BE int16: IMU rate (mirrors attr 1 off 11-12).
 336:..\..\..\HamFlyAPI\src/hamfly_core_telemetry.c **** // off 13    always 0x00.
 337:..\..\..\HamFlyAPI\src/hamfly_core_telemetry.c **** // ============================================================================
 338:..\..\..\HamFlyAPI\src/hamfly_core_telemetry.c **** void hamfly_decode_sysecho(const uint8_t *p, uint16_t plen,
 339:..\..\..\HamFlyAPI\src/hamfly_core_telemetry.c ****                             hamfly_telemetry_t *dst)
 340:..\..\..\HamFlyAPI\src/hamfly_core_telemetry.c **** {
 1474              		.loc 1 340 0
 1475              		.cfi_startproc
 1476              		@ args = 0, pretend = 0, frame = 16
 1477              		@ frame_needed = 1, uses_anonymous_args = 0
 1478 0000 80B5     		push	{r7, lr}
 1479              		.cfi_def_cfa_offset 8
ARM GAS  C:\Users\JENNEW~1\AppData\Local\Temp\ccI7hFDI.s 			page 33


 1480              		.cfi_offset 7, -8
 1481              		.cfi_offset 14, -4
 1482 0002 84B0     		sub	sp, sp, #16
 1483              		.cfi_def_cfa_offset 24
 1484 0004 00AF     		add	r7, sp, #0
 1485              		.cfi_def_cfa_register 7
 1486 0006 F860     		str	r0, [r7, #12]
 1487 0008 0B46     		mov	r3, r1
 1488 000a 7A60     		str	r2, [r7, #4]
 1489 000c 7B81     		strh	r3, [r7, #10]	@ movhi
 341:..\..\..\HamFlyAPI\src/hamfly_core_telemetry.c ****     if (plen < 13u) return;
 1490              		.loc 1 341 0
 1491 000e 7B89     		ldrh	r3, [r7, #10]
 1492 0010 0C2B     		cmp	r3, #12
 1493 0012 2CD9     		bls	.L61
 342:..\..\..\HamFlyAPI\src/hamfly_core_telemetry.c ****     dst->sysecho_gps_locked  = (p[8] == 0x09u);
 1494              		.loc 1 342 0
 1495 0014 FB68     		ldr	r3, [r7, #12]
 1496 0016 0833     		adds	r3, r3, #8
 1497 0018 1B78     		ldrb	r3, [r3]	@ zero_extendqisi2
 1498 001a 092B     		cmp	r3, #9
 1499 001c 0CBF     		ite	eq
 1500 001e 0123     		moveq	r3, #1
 1501 0020 0023     		movne	r3, #0
 1502 0022 DAB2     		uxtb	r2, r3
 1503 0024 7B68     		ldr	r3, [r7, #4]
 1504 0026 83F8E120 		strb	r2, [r3, #225]
 343:..\..\..\HamFlyAPI\src/hamfly_core_telemetry.c ****     dst->sysecho_pressure_mb = (float)rd_be16(p +  9) / 10.0f;
 1505              		.loc 1 343 0
 1506 002a FB68     		ldr	r3, [r7, #12]
 1507 002c 0933     		adds	r3, r3, #9
 1508 002e 1846     		mov	r0, r3
 1509 0030 FFF7FEFF 		bl	rd_be16
 1510 0034 0346     		mov	r3, r0
 1511 0036 1846     		mov	r0, r3
 1512 0038 FFF7FEFF 		bl	__aeabi_i2f
 1513 003c 0346     		mov	r3, r0
 1514 003e 0E49     		ldr	r1, .L62
 1515 0040 1846     		mov	r0, r3
 1516 0042 FFF7FEFF 		bl	__aeabi_fdiv
 1517 0046 0346     		mov	r3, r0
 1518 0048 1A46     		mov	r2, r3
 1519 004a 7B68     		ldr	r3, [r7, #4]
 1520 004c C3F8E420 		str	r2, [r3, #228]	@ float
 344:..\..\..\HamFlyAPI\src/hamfly_core_telemetry.c ****     dst->sysecho_imu_rate    = rd_be16(p + 11);
 1521              		.loc 1 344 0
 1522 0050 FB68     		ldr	r3, [r7, #12]
 1523 0052 0B33     		adds	r3, r3, #11
 1524 0054 1846     		mov	r0, r3
 1525 0056 FFF7FEFF 		bl	rd_be16
 1526 005a 0346     		mov	r3, r0
 1527 005c 1A46     		mov	r2, r3
 1528 005e 7B68     		ldr	r3, [r7, #4]
 1529 0060 A3F8E820 		strh	r2, [r3, #232]	@ movhi
 345:..\..\..\HamFlyAPI\src/hamfly_core_telemetry.c ****     dst->sysecho_valid       = true;
 1530              		.loc 1 345 0
 1531 0064 7B68     		ldr	r3, [r7, #4]
ARM GAS  C:\Users\JENNEW~1\AppData\Local\Temp\ccI7hFDI.s 			page 34


 1532 0066 0122     		movs	r2, #1
 1533 0068 83F8E020 		strb	r2, [r3, #224]
 1534 006c 00E0     		b	.L58
 1535              	.L61:
 341:..\..\..\HamFlyAPI\src/hamfly_core_telemetry.c ****     dst->sysecho_gps_locked  = (p[8] == 0x09u);
 1536              		.loc 1 341 0
 1537 006e 00BF     		nop
 1538              	.L58:
 346:..\..\..\HamFlyAPI\src/hamfly_core_telemetry.c **** }
 1539              		.loc 1 346 0
 1540 0070 1037     		adds	r7, r7, #16
 1541              		.cfi_def_cfa_offset 8
 1542 0072 BD46     		mov	sp, r7
 1543              		.cfi_def_cfa_register 13
 1544              		@ sp needed
 1545 0074 80BD     		pop	{r7, pc}
 1546              	.L63:
 1547 0076 00BF     		.align	2
 1548              	.L62:
 1549 0078 00002041 		.word	1092616192
 1550              		.cfi_endproc
 1551              	.LFE11:
 1552              		.size	hamfly_decode_sysecho, .-hamfly_decode_sysecho
 1553              		.section	.rodata
 1554              		.align	2
 1555              		.type	RAD2DEG.6013, %object
 1556              		.size	RAD2DEG.6013, 4
 1557              	RAD2DEG.6013:
 1558 0000 E02E6542 		.word	1113927392
 1559              		.text
 1560              	.Letext0:
 1561              		.file 2 "c:\\program files (x86)\\cypress\\psoc creator\\4.4\\psoc creator\\import\\gnu\\arm\\5.4.
 1562              		.file 3 "c:\\program files (x86)\\cypress\\psoc creator\\4.4\\psoc creator\\import\\gnu\\arm\\5.4.
 1563              		.file 4 "..\\..\\..\\HamFlyAPI\\src\\hamfly_core_telemetry.h"
 1564              		.file 5 "..\\..\\..\\HamFlyAPI\\src\\hamfly_qx_app.h"