ARM GAS  C:\Users\yoons\AppData\Local\Temp\ccF1npoi.s 			page 1


   1              		.syntax unified
   2              		.cpu cortex-m3
   3              		.fpu softvfp
   4              		.eabi_attribute 20, 1
   5              		.eabi_attribute 21, 1
   6              		.eabi_attribute 23, 3
   7              		.eabi_attribute 24, 1
   8              		.eabi_attribute 25, 1
   9              		.eabi_attribute 26, 1
  10              		.eabi_attribute 30, 6
  11              		.eabi_attribute 34, 1
  12              		.eabi_attribute 18, 4
  13              		.thumb
  14              		.syntax unified
  15              		.file	"main.c"
  16              		.text
  17              	.Ltext0:
  18              		.cfi_sections	.debug_frame
  19              		.section	.text._hamfly_psoc5_putc,"ax",%progbits
  20              		.align	2
  21              		.thumb
  22              		.thumb_func
  23              		.type	_hamfly_psoc5_putc, %function
  24              	_hamfly_psoc5_putc:
  25              	.LFB64:
  26              		.file 1 "..\\..\\..\\HamFlyAPI\\platform/hamfly_platform_psoc5.h"
   1:..\..\..\HamFlyAPI\platform/hamfly_platform_psoc5.h **** /* SPDX-License-Identifier: Apache-2.0
   2:..\..\..\HamFlyAPI\platform/hamfly_platform_psoc5.h ****  *
   3:..\..\..\HamFlyAPI\platform/hamfly_platform_psoc5.h ****  * Copyright 2026 Hamish Johnson
   4:..\..\..\HamFlyAPI\platform/hamfly_platform_psoc5.h ****  * Quantum Information Systems Lab, SFU Physics
   5:..\..\..\HamFlyAPI\platform/hamfly_platform_psoc5.h ****  *
   6:..\..\..\HamFlyAPI\platform/hamfly_platform_psoc5.h ****  * Licensed under the Apache License, Version 2.0 (the "License");
   7:..\..\..\HamFlyAPI\platform/hamfly_platform_psoc5.h ****  * you may not use this file except in compliance with the License.
   8:..\..\..\HamFlyAPI\platform/hamfly_platform_psoc5.h ****  * You may obtain a copy of the License at
   9:..\..\..\HamFlyAPI\platform/hamfly_platform_psoc5.h ****  *
  10:..\..\..\HamFlyAPI\platform/hamfly_platform_psoc5.h ****  *     http://www.apache.org/licenses/LICENSE-2.0
  11:..\..\..\HamFlyAPI\platform/hamfly_platform_psoc5.h ****  *
  12:..\..\..\HamFlyAPI\platform/hamfly_platform_psoc5.h ****  * Unless required by applicable law or agreed to in writing, software
  13:..\..\..\HamFlyAPI\platform/hamfly_platform_psoc5.h ****  * distributed under the License is distributed on an "AS IS" BASIS,
  14:..\..\..\HamFlyAPI\platform/hamfly_platform_psoc5.h ****  * WITHOUT WARRANTIES OR CONDITIONS OF ANY KIND, either express or
  15:..\..\..\HamFlyAPI\platform/hamfly_platform_psoc5.h ****  * implied. See the License for the specific language governing
  16:..\..\..\HamFlyAPI\platform/hamfly_platform_psoc5.h ****  * permissions and limitations under the License.
  17:..\..\..\HamFlyAPI\platform/hamfly_platform_psoc5.h ****  * 
  18:..\..\..\HamFlyAPI\platform/hamfly_platform_psoc5.h ****  * ============================================================================
  19:..\..\..\HamFlyAPI\platform/hamfly_platform_psoc5.h ****  * PSoC 5 LP concrete implementation of hamfly_hal_t.
  20:..\..\..\HamFlyAPI\platform/hamfly_platform_psoc5.h ****  * Only file in HamflyAPI that includes <project.h>.
  21:..\..\..\HamFlyAPI\platform/hamfly_platform_psoc5.h ****  */
  22:..\..\..\HamFlyAPI\platform/hamfly_platform_psoc5.h **** 
  23:..\..\..\HamFlyAPI\platform/hamfly_platform_psoc5.h **** #ifndef HAMFLY_PLATFORM_PSOC5_H
  24:..\..\..\HamFlyAPI\platform/hamfly_platform_psoc5.h **** #define HAMFLY_PLATFORM_PSOC5_H
  25:..\..\..\HamFlyAPI\platform/hamfly_platform_psoc5.h **** 
  26:..\..\..\HamFlyAPI\platform/hamfly_platform_psoc5.h **** #include "hamfly_core_hal.h"
  27:..\..\..\HamFlyAPI\platform/hamfly_platform_psoc5.h **** #include "project.h"  // PSoC creator specific from its UDB registrations.
  28:..\..\..\HamFlyAPI\platform/hamfly_platform_psoc5.h **** 
  29:..\..\..\HamFlyAPI\platform/hamfly_platform_psoc5.h **** // PUTC functions assumes a UART UDB called "UART_MOVI" is present in the PSoC
  30:..\..\..\HamFlyAPI\platform/hamfly_platform_psoc5.h **** // 5 design.
  31:..\..\..\HamFlyAPI\platform/hamfly_platform_psoc5.h **** static void _hamfly_psoc5_putc(void *ctx, uint8_t b)
ARM GAS  C:\Users\yoons\AppData\Local\Temp\ccF1npoi.s 			page 2


  32:..\..\..\HamFlyAPI\platform/hamfly_platform_psoc5.h **** {
  27              		.loc 1 32 0
  28              		.cfi_startproc
  29              		@ args = 0, pretend = 0, frame = 8
  30              		@ frame_needed = 1, uses_anonymous_args = 0
  31 0000 80B5     		push	{r7, lr}
  32              		.cfi_def_cfa_offset 8
  33              		.cfi_offset 7, -8
  34              		.cfi_offset 14, -4
  35 0002 82B0     		sub	sp, sp, #8
  36              		.cfi_def_cfa_offset 16
  37 0004 00AF     		add	r7, sp, #0
  38              		.cfi_def_cfa_register 7
  39 0006 7860     		str	r0, [r7, #4]
  40 0008 0B46     		mov	r3, r1
  41 000a FB70     		strb	r3, [r7, #3]
  33:..\..\..\HamFlyAPI\platform/hamfly_platform_psoc5.h ****     (void)ctx;
  34:..\..\..\HamFlyAPI\platform/hamfly_platform_psoc5.h ****     UART_MOVI_PutChar((char)b);
  42              		.loc 1 34 0
  43 000c FB78     		ldrb	r3, [r7, #3]	@ zero_extendqisi2
  44 000e 1846     		mov	r0, r3
  45 0010 FFF7FEFF 		bl	UART_MOVI_PutChar
  35:..\..\..\HamFlyAPI\platform/hamfly_platform_psoc5.h **** }
  46              		.loc 1 35 0
  47 0014 00BF     		nop
  48 0016 0837     		adds	r7, r7, #8
  49              		.cfi_def_cfa_offset 8
  50 0018 BD46     		mov	sp, r7
  51              		.cfi_def_cfa_register 13
  52              		@ sp needed
  53 001a 80BD     		pop	{r7, pc}
  54              		.cfi_endproc
  55              	.LFE64:
  56              		.size	_hamfly_psoc5_putc, .-_hamfly_psoc5_putc
  57              		.bss
  58              		.align	2
  59              	g_movi:
  60 0000 00000000 		.space	896
  60      00000000 
  60      00000000 
  60      00000000 
  60      00000000 
  61              		.global	g_tick_ms
  62              		.align	2
  63              		.type	g_tick_ms, %object
  64              		.size	g_tick_ms, 4
  65              	g_tick_ms:
  66 0380 00000000 		.space	4
  67              		.section	.text.psoc_get_tick,"ax",%progbits
  68              		.align	2
  69              		.thumb
  70              		.thumb_func
  71              		.type	psoc_get_tick, %function
  72              	psoc_get_tick:
  73              	.LFB66:
  74              		.file 2 "main.c"
   1:main.c        **** /* ========================================
ARM GAS  C:\Users\yoons\AppData\Local\Temp\ccF1npoi.s 			page 3


   2:main.c        ****  *
   3:main.c        ****  * Copyright Hamish Johnson, 2026
   4:main.c        ****  * All Rights Reserved
   5:main.c        ****  * UNPUBLISHED, LICENSED SOFTWARE.
   6:main.c        ****  *
   7:main.c        ****  * CONFIDENTIAL AND PROPRIETARY INFORMATION
   8:main.c        ****  * WHICH IS THE PROPERTY OF 
   9:main.c        ****  * Quantum Internet Systems Lab (QISL),
  10:main.c        ****  * Department of Physics, SFU, Canada.
  11:main.c        ****  *
  12:main.c        ****  * Author: Hamish Johnson (2026)
  13:main.c        ****  *
  14:main.c        ****  * ========================================
  15:main.c        ****  *
  16:main.c        ****  * Uses HamflyAPI (hamfly.h) for all gimbal communication.
  17:main.c        ****  *
  18:main.c        ****  * Modes:
  19:main.c        ****  *   STANDBY   passive; pump runs; 1 Hz status if telemetry valid.
  20:main.c        ****  *             Set boresight origin here before entering other modes.
  21:main.c        ****  *   JOYSTICK  10 Hz QX277 TX.  Joystick (rate) and numpad presets
  22:main.c        ****  *             share the mode — preset executes, settles to within
  23:main.c        ****  *             PRESET_SETTLE_DEG of target (or PRESET_SETTLE_MS
  24:main.c        ****  *             timeout), then joystick resumes automatically.
  25:main.c        ****  *   NUDGE     keyboard-driven absolute accumulation for beam-profiler
  26:main.c        ****  *             calibration.  Each keypress adds a fixed step to the
  27:main.c        ****  *             accumulated pan/tilt target, clamped to software limits.
  28:main.c        ****  *             Current accumulated position prints after every step.
  29:main.c        ****  *             No joystick input in this mode.
  30:main.c        ****  *
  31:main.c        ****  *   t  exit to STANDBY     
  32:main.c        ****  *   x  kill + exit
  33:main.c        ****  */
  34:main.c        **** 
  35:main.c        **** #include <project.h>
  36:main.c        **** #include <stdio.h>
  37:main.c        **** #include <math.h>
  38:main.c        **** #include <string.h>
  39:main.c        **** 
  40:main.c        **** // Gimbal stuff
  41:main.c        **** #include "hamfly.h"
  42:main.c        **** #include "hamfly_platform_psoc5.h"
  43:main.c        **** 
  44:main.c        **** // Implementation specific stuff
  45:main.c        **** #include "adc_balanced.h"
  46:main.c        **** #include "joystick.h"
  47:main.c        **** #include "debug_pins.h"
  48:main.c        **** 
  49:main.c        **** // PSoC state machine stuff
  50:main.c        **** #include "psoc_eeprom.h"
  51:main.c        **** #include "app_ctx.h"
  52:main.c        **** #include "app_statemachine.h"
  53:main.c        **** 
  54:main.c        **** // Rasp Pi communications stuff
  55:main.c        **** #include "sbc_comms.h"
  56:main.c        **** #include "telemetry.h"
  57:main.c        **** 
  58:main.c        **** #define TX_BUF_SIZE           160u
ARM GAS  C:\Users\yoons\AppData\Local\Temp\ccF1npoi.s 			page 4


  59:main.c        **** 
  60:main.c        **** // Soft limits relative to origin (degrees)
  61:main.c        **** // Origin set by pressing '[' in any mode
  62:main.c        **** // Nudge config
  63:main.c        **** #define NUDGE_RATE              0.5f
  64:main.c        **** #define NUDGE_TIME_SMALL        50u   // ms
  65:main.c        **** #define NUDGE_TIME_LARGE        200u  // ms
  66:main.c        **** 
  67:main.c        **** // Utilities
  68:main.c        **** #define FALSE  0u
  69:main.c        **** #define TRUE   1u
  70:main.c        **** 
  71:main.c        **** // State machine states %=====================================================%
  72:main.c        **** 
  73:main.c        **** // Gimbal config and HAL
  74:main.c        **** static hamfly_gimbal_t g_movi;
  75:main.c        **** volatile uint32_t      g_tick_ms = 0u;
  76:main.c        **** 
  77:main.c        **** static uint32_t psoc_get_tick(void *ctx)
  78:main.c        **** {
  75              		.loc 2 78 0
  76              		.cfi_startproc
  77              		@ args = 0, pretend = 0, frame = 8
  78              		@ frame_needed = 1, uses_anonymous_args = 0
  79              		@ link register save eliminated.
  80 0000 80B4     		push	{r7}
  81              		.cfi_def_cfa_offset 4
  82              		.cfi_offset 7, -4
  83 0002 83B0     		sub	sp, sp, #12
  84              		.cfi_def_cfa_offset 16
  85 0004 00AF     		add	r7, sp, #0
  86              		.cfi_def_cfa_register 7
  87 0006 7860     		str	r0, [r7, #4]
  79:main.c        ****     (void)ctx;
  80:main.c        ****     return g_tick_ms;
  88              		.loc 2 80 0
  89 0008 034B     		ldr	r3, .L4
  90 000a 1B68     		ldr	r3, [r3]
  81:main.c        **** }
  91              		.loc 2 81 0
  92 000c 1846     		mov	r0, r3
  93 000e 0C37     		adds	r7, r7, #12
  94              		.cfi_def_cfa_offset 4
  95 0010 BD46     		mov	sp, r7
  96              		.cfi_def_cfa_register 13
  97              		@ sp needed
  98 0012 80BC     		pop	{r7}
  99              		.cfi_restore 7
 100              		.cfi_def_cfa_offset 0
 101 0014 7047     		bx	lr
 102              	.L5:
 103 0016 00BF     		.align	2
 104              	.L4:
 105 0018 00000000 		.word	g_tick_ms
 106              		.cfi_endproc
 107              	.LFE66:
 108              		.size	psoc_get_tick, .-psoc_get_tick
ARM GAS  C:\Users\yoons\AppData\Local\Temp\ccF1npoi.s 			page 5


 109              		.section	.rodata
 110              		.align	2
 111              		.type	MOVI_HAL, %object
 112              		.size	MOVI_HAL, 12
 113              	MOVI_HAL:
 114 0000 00000000 		.word	0
 115 0004 00000000 		.word	_hamfly_psoc5_putc
 116 0008 00000000 		.word	psoc_get_tick
 117              		.section	.text.isr_rx_movi_Handler,"ax",%progbits
 118              		.align	2
 119              		.global	isr_rx_movi_Handler
 120              		.thumb
 121              		.thumb_func
 122              		.type	isr_rx_movi_Handler, %function
 123              	isr_rx_movi_Handler:
 124              	.LFB67:
  82:main.c        **** static const hamfly_hal_t MOVI_HAL = {
  83:main.c        ****     .ctx         = NULL,
  84:main.c        ****     .uart_putc   = _hamfly_psoc5_putc,   // exposed by the header
  85:main.c        ****     .get_tick_ms = psoc_get_tick,
  86:main.c        **** };
  87:main.c        **** 
  88:main.c        **** // ISRs %=====================================================================%
  89:main.c        **** CY_ISR(isr_rx_movi_Handler)
  90:main.c        **** {
 125              		.loc 2 90 0
 126              		.cfi_startproc
 127              		@ args = 0, pretend = 0, frame = 8
 128              		@ frame_needed = 1, uses_anonymous_args = 0
 129 0000 80B5     		push	{r7, lr}
 130              		.cfi_def_cfa_offset 8
 131              		.cfi_offset 7, -8
 132              		.cfi_offset 14, -4
 133 0002 82B0     		sub	sp, sp, #8
 134              		.cfi_def_cfa_offset 16
 135 0004 00AF     		add	r7, sp, #0
 136              		.cfi_def_cfa_register 7
 137              	.L9:
  91:main.c        ****     uint8_t st;
  92:main.c        ****     do {
  93:main.c        ****         st = UART_MOVI_RXSTATUS_REG;
 138              		.loc 2 93 0
 139 0006 114B     		ldr	r3, .L10
 140 0008 1B78     		ldrb	r3, [r3]
 141 000a FB71     		strb	r3, [r7, #7]
  94:main.c        ****         if (st & (UART_MOVI_RX_STS_BREAK     |
 142              		.loc 2 94 0
 143 000c FB79     		ldrb	r3, [r7, #7]	@ zero_extendqisi2
 144 000e 03F01E03 		and	r3, r3, #30
 145 0012 002B     		cmp	r3, #0
 146 0014 04D0     		beq	.L7
  95:main.c        ****                   UART_MOVI_RX_STS_PAR_ERROR |
  96:main.c        ****                   UART_MOVI_RX_STS_STOP_ERROR|
  97:main.c        ****                   UART_MOVI_RX_STS_OVERRUN))
  98:main.c        ****             hamfly_on_uart_err_flags(&g_movi, st);
 147              		.loc 2 98 0
 148 0016 FB79     		ldrb	r3, [r7, #7]	@ zero_extendqisi2
ARM GAS  C:\Users\yoons\AppData\Local\Temp\ccF1npoi.s 			page 6


 149 0018 1946     		mov	r1, r3
 150 001a 0D48     		ldr	r0, .L10+4
 151 001c FFF7FEFF 		bl	hamfly_on_uart_err_flags
 152              	.L7:
  99:main.c        ****         if (st & UART_MOVI_RX_STS_FIFO_NOTEMPTY)
 153              		.loc 2 99 0
 154 0020 FB79     		ldrb	r3, [r7, #7]	@ zero_extendqisi2
 155 0022 03F02003 		and	r3, r3, #32
 156 0026 002B     		cmp	r3, #0
 157 0028 06D0     		beq	.L8
 100:main.c        ****             hamfly_on_rx_byte(&g_movi, UART_MOVI_RXDATA_REG);
 158              		.loc 2 100 0
 159 002a 0A4B     		ldr	r3, .L10+8
 160 002c 1B78     		ldrb	r3, [r3]
 161 002e DBB2     		uxtb	r3, r3
 162 0030 1946     		mov	r1, r3
 163 0032 0748     		ldr	r0, .L10+4
 164 0034 FFF7FEFF 		bl	hamfly_on_rx_byte
 165              	.L8:
 101:main.c        ****     } while (st & UART_MOVI_RX_STS_FIFO_NOTEMPTY);
 166              		.loc 2 101 0
 167 0038 FB79     		ldrb	r3, [r7, #7]	@ zero_extendqisi2
 168 003a 03F02003 		and	r3, r3, #32
 169 003e 002B     		cmp	r3, #0
 170 0040 E1D1     		bne	.L9
 102:main.c        **** }
 171              		.loc 2 102 0
 172 0042 00BF     		nop
 173 0044 0837     		adds	r7, r7, #8
 174              		.cfi_def_cfa_offset 8
 175 0046 BD46     		mov	sp, r7
 176              		.cfi_def_cfa_register 13
 177              		@ sp needed
 178 0048 80BD     		pop	{r7, pc}
 179              	.L11:
 180 004a 00BF     		.align	2
 181              	.L10:
 182 004c 6B640040 		.word	1073767531
 183 0050 00000000 		.word	g_movi
 184 0054 4F640040 		.word	1073767503
 185              		.cfi_endproc
 186              	.LFE67:
 187              		.size	isr_rx_movi_Handler, .-isr_rx_movi_Handler
 188              		.section	.text.isr_Looptimer_Handler,"ax",%progbits
 189              		.align	2
 190              		.global	isr_Looptimer_Handler
 191              		.thumb
 192              		.thumb_func
 193              		.type	isr_Looptimer_Handler, %function
 194              	isr_Looptimer_Handler:
 195              	.LFB68:
 103:main.c        **** 
 104:main.c        **** CY_ISR(isr_Looptimer_Handler)
 105:main.c        **** {
 196              		.loc 2 105 0
 197              		.cfi_startproc
 198              		@ args = 0, pretend = 0, frame = 0
ARM GAS  C:\Users\yoons\AppData\Local\Temp\ccF1npoi.s 			page 7


 199              		@ frame_needed = 1, uses_anonymous_args = 0
 200 0000 80B5     		push	{r7, lr}
 201              		.cfi_def_cfa_offset 8
 202              		.cfi_offset 7, -8
 203              		.cfi_offset 14, -4
 204 0002 00AF     		add	r7, sp, #0
 205              		.cfi_def_cfa_register 7
 106:main.c        ****     g_tick_ms++;
 206              		.loc 2 106 0
 207 0004 044B     		ldr	r3, .L13
 208 0006 1B68     		ldr	r3, [r3]
 209 0008 0133     		adds	r3, r3, #1
 210 000a 034A     		ldr	r2, .L13
 211 000c 1360     		str	r3, [r2]
 107:main.c        ****     Looptimer_ReadStatusRegister();
 212              		.loc 2 107 0
 213 000e FFF7FEFF 		bl	Looptimer_ReadStatusRegister
 108:main.c        **** }
 214              		.loc 2 108 0
 215 0012 00BF     		nop
 216 0014 80BD     		pop	{r7, pc}
 217              	.L14:
 218 0016 00BF     		.align	2
 219              	.L13:
 220 0018 00000000 		.word	g_tick_ms
 221              		.cfi_endproc
 222              	.LFE68:
 223              		.size	isr_Looptimer_Handler, .-isr_Looptimer_Handler
 224              		.section	.text.isr_rx_sbc_Handler,"ax",%progbits
 225              		.align	2
 226              		.global	isr_rx_sbc_Handler
 227              		.thumb
 228              		.thumb_func
 229              		.type	isr_rx_sbc_Handler, %function
 230              	isr_rx_sbc_Handler:
 231              	.LFB69:
 109:main.c        **** 
 110:main.c        **** // For Raspberry Pi communications
 111:main.c        **** CY_ISR(isr_rx_sbc_Handler)
 112:main.c        **** {
 232              		.loc 2 112 0
 233              		.cfi_startproc
 234              		@ args = 0, pretend = 0, frame = 8
 235              		@ frame_needed = 1, uses_anonymous_args = 0
 236 0000 80B5     		push	{r7, lr}
 237              		.cfi_def_cfa_offset 8
 238              		.cfi_offset 7, -8
 239              		.cfi_offset 14, -4
 240 0002 82B0     		sub	sp, sp, #8
 241              		.cfi_def_cfa_offset 16
 242 0004 00AF     		add	r7, sp, #0
 243              		.cfi_def_cfa_register 7
 244              	.L18:
 113:main.c        ****     uint8_t st;
 114:main.c        ****     do {
 115:main.c        ****         st = UART_SBC_RXSTATUS_REG;
 245              		.loc 2 115 0
ARM GAS  C:\Users\yoons\AppData\Local\Temp\ccF1npoi.s 			page 8


 246 0006 104B     		ldr	r3, .L19
 247 0008 1B78     		ldrb	r3, [r3]
 248 000a FB71     		strb	r3, [r7, #7]
 116:main.c        ****         if (st & (UART_SBC_RX_STS_BREAK     |
 249              		.loc 2 116 0
 250 000c FB79     		ldrb	r3, [r7, #7]	@ zero_extendqisi2
 251 000e 03F01E03 		and	r3, r3, #30
 252 0012 002B     		cmp	r3, #0
 253 0014 03D0     		beq	.L16
 117:main.c        ****                   UART_SBC_RX_STS_PAR_ERROR |
 118:main.c        ****                   UART_SBC_RX_STS_STOP_ERROR|
 119:main.c        ****                   UART_SBC_RX_STS_OVERRUN))
 120:main.c        ****             sbc_on_uart_err_flags(st);
 254              		.loc 2 120 0
 255 0016 FB79     		ldrb	r3, [r7, #7]	@ zero_extendqisi2
 256 0018 1846     		mov	r0, r3
 257 001a FFF7FEFF 		bl	sbc_on_uart_err_flags
 258              	.L16:
 121:main.c        ****         if (st & UART_SBC_RX_STS_FIFO_NOTEMPTY)
 259              		.loc 2 121 0
 260 001e FB79     		ldrb	r3, [r7, #7]	@ zero_extendqisi2
 261 0020 03F02003 		and	r3, r3, #32
 262 0024 002B     		cmp	r3, #0
 263 0026 05D0     		beq	.L17
 122:main.c        ****             sbc_on_rx_byte(UART_SBC_RXDATA_REG);
 264              		.loc 2 122 0
 265 0028 084B     		ldr	r3, .L19+4
 266 002a 1B78     		ldrb	r3, [r3]
 267 002c DBB2     		uxtb	r3, r3
 268 002e 1846     		mov	r0, r3
 269 0030 FFF7FEFF 		bl	sbc_on_rx_byte
 270              	.L17:
 123:main.c        ****     } while (st & UART_SBC_RX_STS_FIFO_NOTEMPTY);
 271              		.loc 2 123 0
 272 0034 FB79     		ldrb	r3, [r7, #7]	@ zero_extendqisi2
 273 0036 03F02003 		and	r3, r3, #32
 274 003a 002B     		cmp	r3, #0
 275 003c E3D1     		bne	.L18
 124:main.c        **** }
 276              		.loc 2 124 0
 277 003e 00BF     		nop
 278 0040 0837     		adds	r7, r7, #8
 279              		.cfi_def_cfa_offset 8
 280 0042 BD46     		mov	sp, r7
 281              		.cfi_def_cfa_register 13
 282              		@ sp needed
 283 0044 80BD     		pop	{r7, pc}
 284              	.L20:
 285 0046 00BF     		.align	2
 286              	.L19:
 287 0048 68650040 		.word	1073767784
 288 004c 4C640040 		.word	1073767500
 289              		.cfi_endproc
 290              	.LFE69:
 291              		.size	isr_rx_sbc_Handler, .-isr_rx_sbc_Handler
 292              		.global	__aeabi_fcmplt
 293              		.global	__aeabi_f2iz
ARM GAS  C:\Users\yoons\AppData\Local\Temp\ccF1npoi.s 			page 9


 294              		.global	__aeabi_i2f
 295              		.global	__aeabi_fsub
 296              		.global	__aeabi_fmul
 297              		.section	.text.decomp,"ax",%progbits
 298              		.align	2
 299              		.thumb
 300              		.thumb_func
 301              		.type	decomp, %function
 302              	decomp:
 303              	.LFB70:
 125:main.c        **** 
 126:main.c        **** // Helper Functions  %========================================================%
 127:main.c        **** static void decomp(float val, int16_t *i_out, int16_t *f_out, char *sign)
 128:main.c        **** {
 304              		.loc 2 128 0
 305              		.cfi_startproc
 306              		@ args = 0, pretend = 0, frame = 16
 307              		@ frame_needed = 1, uses_anonymous_args = 0
 308 0000 80B5     		push	{r7, lr}
 309              		.cfi_def_cfa_offset 8
 310              		.cfi_offset 7, -8
 311              		.cfi_offset 14, -4
 312 0002 84B0     		sub	sp, sp, #16
 313              		.cfi_def_cfa_offset 24
 314 0004 00AF     		add	r7, sp, #0
 315              		.cfi_def_cfa_register 7
 316 0006 F860     		str	r0, [r7, #12]	@ float
 317 0008 B960     		str	r1, [r7, #8]
 318 000a 7A60     		str	r2, [r7, #4]
 319 000c 3B60     		str	r3, [r7]
 129:main.c        ****     *sign  = (val < 0.0f) ? '-' : ' ';
 320              		.loc 2 129 0
 321 000e 4FF00001 		mov	r1, #0
 322 0012 F868     		ldr	r0, [r7, #12]	@ float
 323 0014 FFF7FEFF 		bl	__aeabi_fcmplt
 324 0018 0346     		mov	r3, r0
 325 001a 002B     		cmp	r3, #0
 326 001c 01D0     		beq	.L30
 327              		.loc 2 129 0 is_stmt 0 discriminator 1
 328 001e 2D22     		movs	r2, #45
 329 0020 00E0     		b	.L24
 330              	.L30:
 331              		.loc 2 129 0 discriminator 2
 332 0022 2022     		movs	r2, #32
 333              	.L24:
 334              		.loc 2 129 0 discriminator 4
 335 0024 3B68     		ldr	r3, [r7]
 336 0026 1A70     		strb	r2, [r3]
 130:main.c        ****     if (val < 0.0f) val = -val;
 337              		.loc 2 130 0 is_stmt 1 discriminator 4
 338 0028 4FF00001 		mov	r1, #0
 339 002c F868     		ldr	r0, [r7, #12]	@ float
 340 002e FFF7FEFF 		bl	__aeabi_fcmplt
 341 0032 0346     		mov	r3, r0
 342 0034 002B     		cmp	r3, #0
 343 0036 03D0     		beq	.L25
 344              		.loc 2 130 0 is_stmt 0 discriminator 1
ARM GAS  C:\Users\yoons\AppData\Local\Temp\ccF1npoi.s 			page 10


 345 0038 FB68     		ldr	r3, [r7, #12]
 346 003a 83F00043 		eor	r3, r3, #-2147483648
 347 003e FB60     		str	r3, [r7, #12]	@ float
 348              	.L25:
 131:main.c        ****     *i_out = (int16_t)val;
 349              		.loc 2 131 0 is_stmt 1
 350 0040 F868     		ldr	r0, [r7, #12]	@ float
 351 0042 FFF7FEFF 		bl	__aeabi_f2iz
 352 0046 0346     		mov	r3, r0
 353 0048 1AB2     		sxth	r2, r3
 354 004a BB68     		ldr	r3, [r7, #8]
 355 004c 1A80     		strh	r2, [r3]	@ movhi
 132:main.c        ****     *f_out = (int16_t)((val - (float)*i_out) * 100.0f);
 356              		.loc 2 132 0
 357 004e BB68     		ldr	r3, [r7, #8]
 358 0050 B3F90030 		ldrsh	r3, [r3]
 359 0054 1846     		mov	r0, r3
 360 0056 FFF7FEFF 		bl	__aeabi_i2f
 361 005a 0346     		mov	r3, r0
 362 005c 1946     		mov	r1, r3
 363 005e F868     		ldr	r0, [r7, #12]	@ float
 364 0060 FFF7FEFF 		bl	__aeabi_fsub
 365 0064 0346     		mov	r3, r0
 366 0066 0F49     		ldr	r1, .L32
 367 0068 1846     		mov	r0, r3
 368 006a FFF7FEFF 		bl	__aeabi_fmul
 369 006e 0346     		mov	r3, r0
 370 0070 1846     		mov	r0, r3
 371 0072 FFF7FEFF 		bl	__aeabi_f2iz
 372 0076 0346     		mov	r3, r0
 373 0078 1AB2     		sxth	r2, r3
 374 007a 7B68     		ldr	r3, [r7, #4]
 375 007c 1A80     		strh	r2, [r3]	@ movhi
 133:main.c        ****     if (*f_out < 0) *f_out = -*f_out;
 376              		.loc 2 133 0
 377 007e 7B68     		ldr	r3, [r7, #4]
 378 0080 B3F90030 		ldrsh	r3, [r3]
 379 0084 002B     		cmp	r3, #0
 380 0086 08DA     		bge	.L31
 381              		.loc 2 133 0 is_stmt 0 discriminator 1
 382 0088 7B68     		ldr	r3, [r7, #4]
 383 008a B3F90030 		ldrsh	r3, [r3]
 384 008e 9BB2     		uxth	r3, r3
 385 0090 5B42     		negs	r3, r3
 386 0092 9BB2     		uxth	r3, r3
 387 0094 1AB2     		sxth	r2, r3
 388 0096 7B68     		ldr	r3, [r7, #4]
 389 0098 1A80     		strh	r2, [r3]	@ movhi
 390              	.L31:
 134:main.c        **** }
 391              		.loc 2 134 0 is_stmt 1
 392 009a 00BF     		nop
 393 009c 1037     		adds	r7, r7, #16
 394              		.cfi_def_cfa_offset 8
 395 009e BD46     		mov	sp, r7
 396              		.cfi_def_cfa_register 13
 397              		@ sp needed
ARM GAS  C:\Users\yoons\AppData\Local\Temp\ccF1npoi.s 			page 11


 398 00a0 80BD     		pop	{r7, pc}
 399              	.L33:
 400 00a2 00BF     		.align	2
 401              	.L32:
 402 00a4 0000C842 		.word	1120403456
 403              		.cfi_endproc
 404              	.LFE70:
 405              		.size	decomp, .-decomp
 406              		.section	.rodata
 407              		.align	2
 408              	.LC0:
 409 000c 0D0A5B43 		.ascii	"\015\012[CAL] Move joystick full range then press '"
 409      414C5D20 
 409      4D6F7665 
 409      206A6F79 
 409      73746963 
 410 0039 63270D0A 		.ascii	"c'\015\012\000"
 410      00
 411 003e 0000     		.align	2
 412              	.LC1:
 413 0040 0D0A5B43 		.ascii	"\015\012[CAL] Hold center...\015\012\000"
 413      414C5D20 
 413      486F6C64 
 413      2063656E 
 413      7465722E 
 414 0059 000000   		.align	2
 415              	.LC2:
 416 005c 0D0A5B43 		.ascii	"\015\012[CAL] Press 'c' to save, 'x' to cancel\015\012"
 416      414C5D20 
 416      50726573 
 416      73202763 
 416      2720746F 
 417 0086 00       		.ascii	"\000"
 418 0087 00       		.align	2
 419              	.LC3:
 420 0088 5B43414C 		.ascii	"[CAL] Saved to EEPROM\015\012\000"
 420      5D205361 
 420      76656420 
 420      746F2045 
 420      4550524F 
 421              		.align	2
 422              	.LC4:
 423 00a0 5B43414C 		.ascii	"[CAL] EEPROM save FAILED\015\012\000"
 423      5D204545 
 423      50524F4D 
 423      20736176 
 423      65204641 
 424 00bb 00       		.align	2
 425              	.LC5:
 426 00bc 5B43414C 		.ascii	"[CAL] sizeof(joy_cal_t)=%u\015\012\000"
 426      5D207369 
 426      7A656F66 
 426      286A6F79 
 426      5F63616C 
 427 00d9 000000   		.align	2
 428              	.LC6:
 429 00dc 5B43414C 		.ascii	"[CAL] Cancelled\015\012\000"
ARM GAS  C:\Users\yoons\AppData\Local\Temp\ccF1npoi.s 			page 12


 429      5D204361 
 429      6E63656C 
 429      6C65640D 
 429      0A00
 430              		.section	.text.cal_prompt,"ax",%progbits
 431              		.align	2
 432              		.thumb
 433              		.thumb_func
 434              		.type	cal_prompt, %function
 435              	cal_prompt:
 436              	.LFB71:
 135:main.c        **** 
 136:main.c        **** // Joystick calibration printer
 137:main.c        **** static void cal_prompt(joy_cal_state_t prev, joy_cal_state_t now)
 138:main.c        **** {
 437              		.loc 2 138 0
 438              		.cfi_startproc
 439              		@ args = 0, pretend = 0, frame = 72
 440              		@ frame_needed = 1, uses_anonymous_args = 0
 441 0000 80B5     		push	{r7, lr}
 442              		.cfi_def_cfa_offset 8
 443              		.cfi_offset 7, -8
 444              		.cfi_offset 14, -4
 445 0002 92B0     		sub	sp, sp, #72
 446              		.cfi_def_cfa_offset 80
 447 0004 00AF     		add	r7, sp, #0
 448              		.cfi_def_cfa_register 7
 449 0006 0346     		mov	r3, r0
 450 0008 0A46     		mov	r2, r1
 451 000a FB71     		strb	r3, [r7, #7]
 452 000c 1346     		mov	r3, r2
 453 000e BB71     		strb	r3, [r7, #6]
 139:main.c        ****     if (prev == now) return;
 454              		.loc 2 139 0
 455 0010 FA79     		ldrb	r2, [r7, #7]	@ zero_extendqisi2
 456 0012 BB79     		ldrb	r3, [r7, #6]	@ zero_extendqisi2
 457 0014 9A42     		cmp	r2, r3
 458 0016 3DD0     		beq	.L43
 140:main.c        ****     if (now == JOY_CAL_RANGE_CAPTURE)
 459              		.loc 2 140 0
 460 0018 BB79     		ldrb	r3, [r7, #6]	@ zero_extendqisi2
 461 001a 012B     		cmp	r3, #1
 462 001c 03D1     		bne	.L37
 141:main.c        ****         UART_DEBUG_PutString("\r\n[CAL] Move joystick full range then press 'c'\r\n");
 463              		.loc 2 141 0
 464 001e 1F48     		ldr	r0, .L44
 465 0020 FFF7FEFF 		bl	UART_DEBUG_PutString
 466 0024 37E0     		b	.L34
 467              	.L37:
 142:main.c        ****     else if (now == JOY_CAL_CENTER_CAPTURE)
 468              		.loc 2 142 0
 469 0026 BB79     		ldrb	r3, [r7, #6]	@ zero_extendqisi2
 470 0028 022B     		cmp	r3, #2
 471 002a 03D1     		bne	.L38
 143:main.c        ****         UART_DEBUG_PutString("\r\n[CAL] Hold center...\r\n");
 472              		.loc 2 143 0
 473 002c 1C48     		ldr	r0, .L44+4
ARM GAS  C:\Users\yoons\AppData\Local\Temp\ccF1npoi.s 			page 13


 474 002e FFF7FEFF 		bl	UART_DEBUG_PutString
 475 0032 30E0     		b	.L34
 476              	.L38:
 144:main.c        ****     else if (now == JOY_CAL_CONFIRM_SAVE)
 477              		.loc 2 144 0
 478 0034 BB79     		ldrb	r3, [r7, #6]	@ zero_extendqisi2
 479 0036 032B     		cmp	r3, #3
 480 0038 03D1     		bne	.L39
 145:main.c        ****         UART_DEBUG_PutString("\r\n[CAL] Press 'c' to save, 'x' to cancel\r\n");
 481              		.loc 2 145 0
 482 003a 1A48     		ldr	r0, .L44+8
 483 003c FFF7FEFF 		bl	UART_DEBUG_PutString
 484 0040 29E0     		b	.L34
 485              	.L39:
 146:main.c        ****     else if (now == JOY_CAL_OFF && prev == JOY_CAL_CONFIRM_SAVE) {
 486              		.loc 2 146 0
 487 0042 BB79     		ldrb	r3, [r7, #6]	@ zero_extendqisi2
 488 0044 002B     		cmp	r3, #0
 489 0046 1BD1     		bne	.L40
 490              		.loc 2 146 0 is_stmt 0 discriminator 1
 491 0048 FB79     		ldrb	r3, [r7, #7]	@ zero_extendqisi2
 492 004a 032B     		cmp	r3, #3
 493 004c 18D1     		bne	.L40
 147:main.c        ****         if (joystick_save())
 494              		.loc 2 147 0 is_stmt 1
 495 004e FFF7FEFF 		bl	joystick_save
 496 0052 0346     		mov	r3, r0
 497 0054 002B     		cmp	r3, #0
 498 0056 03D0     		beq	.L41
 148:main.c        ****             UART_DEBUG_PutString("[CAL] Saved to EEPROM\r\n");
 499              		.loc 2 148 0
 500 0058 1348     		ldr	r0, .L44+12
 501 005a FFF7FEFF 		bl	UART_DEBUG_PutString
 147:main.c        ****         if (joystick_save())
 502              		.loc 2 147 0
 503 005e 1AE0     		b	.L34
 504              	.L41:
 505              	.LBB2:
 149:main.c        ****         else
 150:main.c        ****         {
 151:main.c        ****             UART_DEBUG_PutString("[CAL] EEPROM save FAILED\r\n");
 506              		.loc 2 151 0
 507 0060 1248     		ldr	r0, .L44+16
 508 0062 FFF7FEFF 		bl	UART_DEBUG_PutString
 152:main.c        ****             char dbuf[64];
 153:main.c        ****             sprintf(dbuf, "[CAL] sizeof(joy_cal_t)=%u\r\n",
 509              		.loc 2 153 0
 510 0066 07F10803 		add	r3, r7, #8
 511 006a 0E22     		movs	r2, #14
 512 006c 1049     		ldr	r1, .L44+20
 513 006e 1846     		mov	r0, r3
 514 0070 FFF7FEFF 		bl	sprintf
 154:main.c        ****                     (unsigned)sizeof(joy_cal_t));
 155:main.c        ****             UART_DEBUG_PutString(dbuf);
 515              		.loc 2 155 0
 516 0074 07F10803 		add	r3, r7, #8
 517 0078 1846     		mov	r0, r3
ARM GAS  C:\Users\yoons\AppData\Local\Temp\ccF1npoi.s 			page 14


 518 007a FFF7FEFF 		bl	UART_DEBUG_PutString
 519              	.LBE2:
 147:main.c        ****             UART_DEBUG_PutString("[CAL] Saved to EEPROM\r\n");
 520              		.loc 2 147 0
 521 007e 0AE0     		b	.L34
 522              	.L40:
 156:main.c        ****         }
 157:main.c        ****     }
 158:main.c        ****     else if (now == JOY_CAL_OFF && prev != JOY_CAL_OFF)
 523              		.loc 2 158 0
 524 0080 BB79     		ldrb	r3, [r7, #6]	@ zero_extendqisi2
 525 0082 002B     		cmp	r3, #0
 526 0084 07D1     		bne	.L34
 527              		.loc 2 158 0 is_stmt 0 discriminator 1
 528 0086 FB79     		ldrb	r3, [r7, #7]	@ zero_extendqisi2
 529 0088 002B     		cmp	r3, #0
 530 008a 04D0     		beq	.L34
 159:main.c        ****         UART_DEBUG_PutString("[CAL] Cancelled\r\n");
 531              		.loc 2 159 0 is_stmt 1
 532 008c 0948     		ldr	r0, .L44+24
 533 008e FFF7FEFF 		bl	UART_DEBUG_PutString
 534 0092 00E0     		b	.L34
 535              	.L43:
 139:main.c        ****     if (now == JOY_CAL_RANGE_CAPTURE)
 536              		.loc 2 139 0
 537 0094 00BF     		nop
 538              	.L34:
 160:main.c        **** }
 539              		.loc 2 160 0
 540 0096 4837     		adds	r7, r7, #72
 541              		.cfi_def_cfa_offset 8
 542 0098 BD46     		mov	sp, r7
 543              		.cfi_def_cfa_register 13
 544              		@ sp needed
 545 009a 80BD     		pop	{r7, pc}
 546              	.L45:
 547              		.align	2
 548              	.L44:
 549 009c 0C000000 		.word	.LC0
 550 00a0 40000000 		.word	.LC1
 551 00a4 5C000000 		.word	.LC2
 552 00a8 88000000 		.word	.LC3
 553 00ac A0000000 		.word	.LC4
 554 00b0 BC000000 		.word	.LC5
 555 00b4 DC000000 		.word	.LC6
 556              		.cfi_endproc
 557              	.LFE71:
 558              		.size	cal_prompt, .-cal_prompt
 559              		.section	.rodata
 560 00ee 0000     		.align	2
 561              	.LC7:
 562 00f0 52415445 		.ascii	"RATE\000"
 562      00
 563 00f5 000000   		.align	2
 564              	.LC8:
 565 00f8 41425320 		.ascii	"ABS \000"
 565      00
ARM GAS  C:\Users\yoons\AppData\Local\Temp\ccF1npoi.s 			page 15


 566 00fd 000000   		.align	2
 567              	.LC9:
 568 0100 44454652 		.ascii	"DEFR\000"
 568      00
 569              		.section	.text.mode_str,"ax",%progbits
 570              		.align	2
 571              		.thumb
 572              		.thumb_func
 573              		.type	mode_str, %function
 574              	mode_str:
 575              	.LFB72:
 161:main.c        **** 
 162:main.c        ****  
 163:main.c        **** // Enum translator for Movi 
 164:main.c        **** static const char *mode_str(hamfly_control_mode_t m)
 165:main.c        **** {
 576              		.loc 2 165 0
 577              		.cfi_startproc
 578              		@ args = 0, pretend = 0, frame = 8
 579              		@ frame_needed = 1, uses_anonymous_args = 0
 580              		@ link register save eliminated.
 581 0000 80B4     		push	{r7}
 582              		.cfi_def_cfa_offset 4
 583              		.cfi_offset 7, -4
 584 0002 83B0     		sub	sp, sp, #12
 585              		.cfi_def_cfa_offset 16
 586 0004 00AF     		add	r7, sp, #0
 587              		.cfi_def_cfa_register 7
 588 0006 0346     		mov	r3, r0
 589 0008 FB71     		strb	r3, [r7, #7]
 166:main.c        ****     switch (m) {
 590              		.loc 2 166 0
 591 000a FB79     		ldrb	r3, [r7, #7]	@ zero_extendqisi2
 592 000c 012B     		cmp	r3, #1
 593 000e 02D0     		beq	.L48
 594 0010 022B     		cmp	r3, #2
 595 0012 02D0     		beq	.L49
 596 0014 03E0     		b	.L51
 597              	.L48:
 167:main.c        ****         case HAMFLY_RATE:     return "RATE";
 598              		.loc 2 167 0
 599 0016 054B     		ldr	r3, .L52
 600 0018 02E0     		b	.L50
 601              	.L49:
 168:main.c        ****         case HAMFLY_ABSOLUTE: return "ABS ";
 602              		.loc 2 168 0
 603 001a 054B     		ldr	r3, .L52+4
 604 001c 00E0     		b	.L50
 605              	.L51:
 169:main.c        ****         default:              return "DEFR";
 606              		.loc 2 169 0
 607 001e 054B     		ldr	r3, .L52+8
 608              	.L50:
 170:main.c        ****     }
 171:main.c        **** }
 609              		.loc 2 171 0
 610 0020 1846     		mov	r0, r3
ARM GAS  C:\Users\yoons\AppData\Local\Temp\ccF1npoi.s 			page 16


 611 0022 0C37     		adds	r7, r7, #12
 612              		.cfi_def_cfa_offset 4
 613 0024 BD46     		mov	sp, r7
 614              		.cfi_def_cfa_register 13
 615              		@ sp needed
 616 0026 80BC     		pop	{r7}
 617              		.cfi_restore 7
 618              		.cfi_def_cfa_offset 0
 619 0028 7047     		bx	lr
 620              	.L53:
 621 002a 00BF     		.align	2
 622              	.L52:
 623 002c F0000000 		.word	.LC7
 624 0030 F8000000 		.word	.LC8
 625 0034 00010000 		.word	.LC9
 626              		.cfi_endproc
 627              	.LFE72:
 628              		.size	mode_str, .-mode_str
 629              		.section	.rodata
 630 0105 000000   		.align	2
 631              	.LC10:
 632 0108 20206F66 		.ascii	"  off%02u:\000"
 632      66253032 
 632      753A00
 633 0113 00       		.align	2
 634              	.LC11:
 635 0114 20253032 		.ascii	" %02X\000"
 635      5800
 636 011a 0000     		.align	2
 637              	.LC12:
 638 011c 0D0A00   		.ascii	"\015\012\000"
 639              		.section	.text.print_hex_dump,"ax",%progbits
 640              		.align	2
 641              		.thumb
 642              		.thumb_func
 643              		.type	print_hex_dump, %function
 644              	print_hex_dump:
 645              	.LFB73:
 172:main.c        **** 
 173:main.c        **** static void print_hex_dump(const uint8_t *p, uint8_t plen)
 174:main.c        **** {
 646              		.loc 2 174 0
 647              		.cfi_startproc
 648              		@ args = 0, pretend = 0, frame = 176
 649              		@ frame_needed = 1, uses_anonymous_args = 0
 650 0000 80B5     		push	{r7, lr}
 651              		.cfi_def_cfa_offset 8
 652              		.cfi_offset 7, -8
 653              		.cfi_offset 14, -4
 654 0002 ACB0     		sub	sp, sp, #176
 655              		.cfi_def_cfa_offset 184
 656 0004 00AF     		add	r7, sp, #0
 657              		.cfi_def_cfa_register 7
 658 0006 7860     		str	r0, [r7, #4]
 659 0008 0B46     		mov	r3, r1
 660 000a FB70     		strb	r3, [r7, #3]
 175:main.c        ****     char buf[TX_BUF_SIZE];
ARM GAS  C:\Users\yoons\AppData\Local\Temp\ccF1npoi.s 			page 17


 176:main.c        ****     uint8_t row, col;
 177:main.c        ****     for (row = 0u; row < plen; row += 8u) {
 661              		.loc 2 177 0
 662 000c 0023     		movs	r3, #0
 663 000e 87F8AF30 		strb	r3, [r7, #175]
 664 0012 55E0     		b	.L55
 665              	.L59:
 666              	.LBB3:
 178:main.c        ****         char *bp = buf;
 667              		.loc 2 178 0
 668 0014 07F10803 		add	r3, r7, #8
 669 0018 C7F8A830 		str	r3, [r7, #168]
 179:main.c        ****         bp += sprintf(bp, "  off%02u:", (unsigned)row);
 670              		.loc 2 179 0
 671 001c 97F8AF30 		ldrb	r3, [r7, #175]	@ zero_extendqisi2
 672 0020 1A46     		mov	r2, r3
 673 0022 2C49     		ldr	r1, .L60
 674 0024 D7F8A800 		ldr	r0, [r7, #168]
 675 0028 FFF7FEFF 		bl	sprintf
 676 002c 0346     		mov	r3, r0
 677 002e 1A46     		mov	r2, r3
 678 0030 D7F8A830 		ldr	r3, [r7, #168]
 679 0034 1344     		add	r3, r3, r2
 680 0036 C7F8A830 		str	r3, [r7, #168]
 180:main.c        ****         for (col = 0u; col < 8u && (row+col) < plen; col++)
 681              		.loc 2 180 0
 682 003a 0023     		movs	r3, #0
 683 003c 87F8AE30 		strb	r3, [r7, #174]
 684 0040 1AE0     		b	.L56
 685              	.L58:
 181:main.c        ****             bp += sprintf(bp, " %02X", (unsigned)p[row+col]);
 686              		.loc 2 181 0 discriminator 4
 687 0042 97F8AF20 		ldrb	r2, [r7, #175]	@ zero_extendqisi2
 688 0046 97F8AE30 		ldrb	r3, [r7, #174]	@ zero_extendqisi2
 689 004a 1344     		add	r3, r3, r2
 690 004c 1A46     		mov	r2, r3
 691 004e 7B68     		ldr	r3, [r7, #4]
 692 0050 1344     		add	r3, r3, r2
 693 0052 1B78     		ldrb	r3, [r3]	@ zero_extendqisi2
 694 0054 1A46     		mov	r2, r3
 695 0056 2049     		ldr	r1, .L60+4
 696 0058 D7F8A800 		ldr	r0, [r7, #168]
 697 005c FFF7FEFF 		bl	sprintf
 698 0060 0346     		mov	r3, r0
 699 0062 1A46     		mov	r2, r3
 700 0064 D7F8A830 		ldr	r3, [r7, #168]
 701 0068 1344     		add	r3, r3, r2
 702 006a C7F8A830 		str	r3, [r7, #168]
 180:main.c        ****         for (col = 0u; col < 8u && (row+col) < plen; col++)
 703              		.loc 2 180 0 discriminator 4
 704 006e 97F8AE30 		ldrb	r3, [r7, #174]	@ zero_extendqisi2
 705 0072 0133     		adds	r3, r3, #1
 706 0074 87F8AE30 		strb	r3, [r7, #174]
 707              	.L56:
 180:main.c        ****         for (col = 0u; col < 8u && (row+col) < plen; col++)
 708              		.loc 2 180 0 is_stmt 0 discriminator 1
 709 0078 97F8AE30 		ldrb	r3, [r7, #174]	@ zero_extendqisi2
ARM GAS  C:\Users\yoons\AppData\Local\Temp\ccF1npoi.s 			page 18


 710 007c 072B     		cmp	r3, #7
 711 007e 07D8     		bhi	.L57
 180:main.c        ****         for (col = 0u; col < 8u && (row+col) < plen; col++)
 712              		.loc 2 180 0 discriminator 3
 713 0080 97F8AF20 		ldrb	r2, [r7, #175]	@ zero_extendqisi2
 714 0084 97F8AE30 		ldrb	r3, [r7, #174]	@ zero_extendqisi2
 715 0088 1A44     		add	r2, r2, r3
 716 008a FB78     		ldrb	r3, [r7, #3]	@ zero_extendqisi2
 717 008c 9A42     		cmp	r2, r3
 718 008e D8DB     		blt	.L58
 719              	.L57:
 182:main.c        ****         bp += sprintf(bp, "\r\n");
 720              		.loc 2 182 0 is_stmt 1 discriminator 2
 721 0090 D7F8A830 		ldr	r3, [r7, #168]
 722 0094 114A     		ldr	r2, .L60+8
 723 0096 1188     		ldrh	r1, [r2]	@ unaligned
 724 0098 9278     		ldrb	r2, [r2, #2]
 725 009a 1980     		strh	r1, [r3]	@ unaligned
 726 009c 9A70     		strb	r2, [r3, #2]
 727 009e 0223     		movs	r3, #2
 728 00a0 1A46     		mov	r2, r3
 729 00a2 D7F8A830 		ldr	r3, [r7, #168]
 730 00a6 1344     		add	r3, r3, r2
 731 00a8 C7F8A830 		str	r3, [r7, #168]
 183:main.c        ****         UART_DEBUG_PutString(buf);
 732              		.loc 2 183 0 discriminator 2
 733 00ac 07F10803 		add	r3, r7, #8
 734 00b0 1846     		mov	r0, r3
 735 00b2 FFF7FEFF 		bl	UART_DEBUG_PutString
 736              	.LBE3:
 177:main.c        ****         char *bp = buf;
 737              		.loc 2 177 0 discriminator 2
 738 00b6 97F8AF30 		ldrb	r3, [r7, #175]
 739 00ba 0833     		adds	r3, r3, #8
 740 00bc 87F8AF30 		strb	r3, [r7, #175]
 741              	.L55:
 177:main.c        ****         char *bp = buf;
 742              		.loc 2 177 0 is_stmt 0 discriminator 1
 743 00c0 97F8AF20 		ldrb	r2, [r7, #175]	@ zero_extendqisi2
 744 00c4 FB78     		ldrb	r3, [r7, #3]	@ zero_extendqisi2
 745 00c6 9A42     		cmp	r2, r3
 746 00c8 A4D3     		bcc	.L59
 184:main.c        ****     }
 185:main.c        **** }
 747              		.loc 2 185 0 is_stmt 1
 748 00ca 00BF     		nop
 749 00cc B037     		adds	r7, r7, #176
 750              		.cfi_def_cfa_offset 8
 751 00ce BD46     		mov	sp, r7
 752              		.cfi_def_cfa_register 13
 753              		@ sp needed
 754 00d0 80BD     		pop	{r7, pc}
 755              	.L61:
 756 00d2 00BF     		.align	2
 757              	.L60:
 758 00d4 08010000 		.word	.LC10
 759 00d8 14010000 		.word	.LC11
ARM GAS  C:\Users\yoons\AppData\Local\Temp\ccF1npoi.s 			page 19


 760 00dc 1C010000 		.word	.LC12
 761              		.cfi_endproc
 762              	.LFE73:
 763              		.size	print_hex_dump, .-print_hex_dump
 764              		.section	.rodata
 765 011f 00       		.align	2
 766              	.LC13:
 767 0120 0D0A3D3D 		.ascii	"\015\012=== Gimbal Control  PSoC 5LP ===\015\012\000"
 767      3D204769 
 767      6D62616C 
 767      20436F6E 
 767      74726F6C 
 768 0145 000000   		.align	2
 769              	.LC14:
 770 0148 5B496E69 		.ascii	"[Init] Pi comms ready\015\012\000"
 770      745D2050 
 770      6920636F 
 770      6D6D7320 
 770      72656164 
 771              		.align	2
 772              	.LC15:
 773 0160 5B496E69 		.ascii	"[Init] Gimbal UART ready\015\012\000"
 773      745D2047 
 773      696D6261 
 773      6C205541 
 773      52542072 
 774 017b 00       		.align	2
 775              	.LC16:
 776 017c 5B496E69 		.ascii	"[Init] No saved cal, using defaults.\015\012\000"
 776      745D204E 
 776      6F207361 
 776      76656420 
 776      63616C2C 
 777 01a3 00       		.align	2
 778              	.LC17:
 779 01a4 5B496E69 		.ascii	"[Init] Loaded cal from EEPROM.\015\012\000"
 779      745D204C 
 779      6F616465 
 779      64206361 
 779      6C206672 
 780 01c5 000000   		.align	2
 781              	.LC18:
 782 01c8 5B496E69 		.ascii	"[Init] ADC + Joystick ready!\015\012\000"
 782      745D2041 
 782      4443202B 
 782      204A6F79 
 782      73746963 
 783 01e7 00       		.align	2
 784              	.LC19:
 785 01e8 5B496E69 		.ascii	"[Init] Ready  Mode: STANDBY.\015\012\000"
 785      745D2052 
 785      65616479 
 785      20204D6F 
 785      64653A20 
 786 0207 00       		.align	2
 787              	.LC20:
 788 0208 5B256C75 		.ascii	"[%lu] state=%s pan=%c%d.%02d tilt=%c%d.%02d\015\012"
ARM GAS  C:\Users\yoons\AppData\Local\Temp\ccF1npoi.s 			page 20


 788      5D207374 
 788      6174653D 
 788      25732070 
 788      616E3D25 
 789 0235 00       		.ascii	"\000"
 790              		.section	.text.main,"ax",%progbits
 791              		.align	2
 792              		.global	main
 793              		.thumb
 794              		.thumb_func
 795              		.type	main, %function
 796              	main:
 797              	.LFB74:
 186:main.c        **** 
 187:main.c        **** /* =========================================================================
 188:main.c        ****  * main
 189:main.c        ****  * ========================================================================= */
 190:main.c        **** int main(void)
 191:main.c        **** {
 798              		.loc 2 191 0
 799              		.cfi_startproc
 800              		@ args = 0, pretend = 0, frame = 376
 801              		@ frame_needed = 1, uses_anonymous_args = 0
 802 0000 F0B5     		push	{r4, r5, r6, r7, lr}
 803              		.cfi_def_cfa_offset 20
 804              		.cfi_offset 4, -20
 805              		.cfi_offset 5, -16
 806              		.cfi_offset 6, -12
 807              		.cfi_offset 7, -8
 808              		.cfi_offset 14, -4
 809 0002 E7B0     		sub	sp, sp, #412
 810              		.cfi_def_cfa_offset 432
 811 0004 08AF     		add	r7, sp, #32
 812              		.cfi_def_cfa 7, 400
 192:main.c        ****     char tx[TX_BUF_SIZE];  // Tx buffer for serial monitor
 193:main.c        ****     
 194:main.c        ****     // Initialize states
 195:main.c        ****     hamfly_control_t      ctl;  // Control packet object
 196:main.c        ****     app_ctx_t             ctx;  // Shared context for state machine
 197:main.c        ****     // Default values
 198:main.c        ****     app_ctx_init(&ctx);
 813              		.loc 2 198 0
 814 0006 07F12803 		add	r3, r7, #40
 815 000a 1846     		mov	r0, r3
 816 000c FFF7FEFF 		bl	app_ctx_init
 199:main.c        ****     memset(&ctl, 0, sizeof ctl);
 817              		.loc 2 199 0
 818 0010 07F1B803 		add	r3, r7, #184
 819 0014 1422     		movs	r2, #20
 820 0016 0021     		movs	r1, #0
 821 0018 1846     		mov	r0, r3
 822 001a FFF7FEFF 		bl	memset
 823              	.LBB4:
 200:main.c        ****     
 201:main.c        ****     // Default Joystick calibration as fallback to eeprom
 202:main.c        ****     joy_cal_t defaults;
 203:main.c        ****     for (uint8_t i = 0u; i < (uint8_t)N_CH; i++) {
ARM GAS  C:\Users\yoons\AppData\Local\Temp\ccF1npoi.s 			page 21


 824              		.loc 2 203 0
 825 001e 0023     		movs	r3, #0
 826 0020 87F87731 		strb	r3, [r7, #375]
 827 0024 1BE0     		b	.L63
 828              	.L64:
 204:main.c        ****         defaults.minv[i]   = 0;
 829              		.loc 2 204 0 discriminator 3
 830 0026 97F87721 		ldrb	r2, [r7, #375]	@ zero_extendqisi2
 831 002a 07F11803 		add	r3, r7, #24
 832 002e 0021     		movs	r1, #0
 833 0030 23F81210 		strh	r1, [r3, r2, lsl #1]	@ movhi
 205:main.c        ****         defaults.maxv[i]   = 255;
 834              		.loc 2 205 0 discriminator 3
 835 0034 97F87731 		ldrb	r3, [r7, #375]	@ zero_extendqisi2
 836 0038 07F11802 		add	r2, r7, #24
 837 003c 5B00     		lsls	r3, r3, #1
 838 003e 1344     		add	r3, r3, r2
 839 0040 FF22     		movs	r2, #255
 840 0042 9A80     		strh	r2, [r3, #4]	@ movhi
 206:main.c        ****         defaults.center[i] = 128;
 841              		.loc 2 206 0 discriminator 3
 842 0044 97F87721 		ldrb	r2, [r7, #375]	@ zero_extendqisi2
 843 0048 07F11803 		add	r3, r7, #24
 844 004c 0432     		adds	r2, r2, #4
 845 004e 8021     		movs	r1, #128
 846 0050 23F81210 		strh	r1, [r3, r2, lsl #1]	@ movhi
 203:main.c        ****         defaults.minv[i]   = 0;
 847              		.loc 2 203 0 discriminator 3
 848 0054 97F87731 		ldrb	r3, [r7, #375]	@ zero_extendqisi2
 849 0058 0133     		adds	r3, r3, #1
 850 005a 87F87731 		strb	r3, [r7, #375]
 851              	.L63:
 203:main.c        ****         defaults.minv[i]   = 0;
 852              		.loc 2 203 0 is_stmt 0 discriminator 1
 853 005e 97F87731 		ldrb	r3, [r7, #375]	@ zero_extendqisi2
 854 0062 012B     		cmp	r3, #1
 855 0064 DFD9     		bls	.L64
 856              	.LBE4:
 207:main.c        ****     }
 208:main.c        ****     defaults.valid = 0u;
 857              		.loc 2 208 0 is_stmt 1
 858 0066 07F11803 		add	r3, r7, #24
 859 006a 0022     		movs	r2, #0
 860 006c 1A73     		strb	r2, [r3, #12]
 209:main.c        **** 
 210:main.c        **** 
 211:main.c        ****     // Initialize hardware %==================================================%
 212:main.c        ****     CyGlobalIntEnable;  // PSoC API enable.
 861              		.loc 2 212 0
 862              		.syntax unified
 863              	@ 212 "main.c" 1
 864 006e 62B6     		CPSIE   i
 865              	@ 0 "" 2
 213:main.c        ****     
 214:main.c        ****     // Start serial monitor comms.
 215:main.c        ****     UART_DEBUG_Start();
 866              		.loc 2 215 0
ARM GAS  C:\Users\yoons\AppData\Local\Temp\ccF1npoi.s 			page 22


 867              		.thumb
 868              		.syntax unified
 869 0070 FFF7FEFF 		bl	UART_DEBUG_Start
 216:main.c        ****     UART_DEBUG_PutString("\r\n=== Gimbal Control  PSoC 5LP ===\r\n");
 870              		.loc 2 216 0
 871 0074 9748     		ldr	r0, .L73
 872 0076 FFF7FEFF 		bl	UART_DEBUG_PutString
 217:main.c        ****     
 218:main.c        ****     // Start Raspberry Pi comms.
 219:main.c        ****     UART_SBC_Start();
 873              		.loc 2 219 0
 874 007a FFF7FEFF 		bl	UART_SBC_Start
 220:main.c        ****     UART_SBC_ClearRxBuffer();
 875              		.loc 2 220 0
 876 007e FFF7FEFF 		bl	UART_SBC_ClearRxBuffer
 221:main.c        ****     UART_SBC_ClearTxBuffer();
 877              		.loc 2 221 0
 878 0082 FFF7FEFF 		bl	UART_SBC_ClearTxBuffer
 222:main.c        ****     sbc_init();
 879              		.loc 2 222 0
 880 0086 FFF7FEFF 		bl	sbc_init
 223:main.c        ****     isr_rx_sbc_StartEx(isr_rx_sbc_Handler);
 881              		.loc 2 223 0
 882 008a 9348     		ldr	r0, .L73+4
 883 008c FFF7FEFF 		bl	isr_rx_sbc_StartEx
 224:main.c        ****     UART_DEBUG_PutString("[Init] Pi comms ready\r\n");
 884              		.loc 2 224 0
 885 0090 9248     		ldr	r0, .L73+8
 886 0092 FFF7FEFF 		bl	UART_DEBUG_PutString
 225:main.c        ****     
 226:main.c        ****     // Start Movi comms
 227:main.c        ****     UART_MOVI_Start();
 887              		.loc 2 227 0
 888 0096 FFF7FEFF 		bl	UART_MOVI_Start
 228:main.c        ****     UART_MOVI_ClearRxBuffer();
 889              		.loc 2 228 0
 890 009a FFF7FEFF 		bl	UART_MOVI_ClearRxBuffer
 229:main.c        ****     UART_MOVI_ClearTxBuffer();
 891              		.loc 2 229 0
 892 009e FFF7FEFF 		bl	UART_MOVI_ClearTxBuffer
 230:main.c        ****     
 231:main.c        ****     // Initialize movi object and give to context
 232:main.c        ****     hamfly_init(&g_movi, &MOVI_HAL);
 893              		.loc 2 232 0
 894 00a2 8F49     		ldr	r1, .L73+12
 895 00a4 8F48     		ldr	r0, .L73+16
 896 00a6 FFF7FEFF 		bl	hamfly_init
 233:main.c        ****     ctx.gimbal = &g_movi;
 897              		.loc 2 233 0
 898 00aa 07F12803 		add	r3, r7, #40
 899 00ae 8D4A     		ldr	r2, .L73+16
 900 00b0 1A60     		str	r2, [r3]
 234:main.c        ****     isr_rx_movi_StartEx(isr_rx_movi_Handler);  // Rx handler
 901              		.loc 2 234 0
 902 00b2 8D48     		ldr	r0, .L73+20
 903 00b4 FFF7FEFF 		bl	isr_rx_movi_StartEx
 235:main.c        ****     UART_DEBUG_PutString("[Init] Gimbal UART ready\r\n");
ARM GAS  C:\Users\yoons\AppData\Local\Temp\ccF1npoi.s 			page 23


 904              		.loc 2 235 0
 905 00b8 8C48     		ldr	r0, .L73+24
 906 00ba FFF7FEFF 		bl	UART_DEBUG_PutString
 236:main.c        ****     
 237:main.c        ****     // Load joystick calibration from eeprom
 238:main.c        ****     psoc_eeprom_init();
 907              		.loc 2 238 0
 908 00be FFF7FEFF 		bl	psoc_eeprom_init
 239:main.c        ****     if (!joystick_load(ctx.invert_mask)) {
 909              		.loc 2 239 0
 910 00c2 07F12803 		add	r3, r7, #40
 911 00c6 5B6F     		ldr	r3, [r3, #116]
 912 00c8 1846     		mov	r0, r3
 913 00ca FFF7FEFF 		bl	joystick_load
 914 00ce 0346     		mov	r3, r0
 915 00d0 002B     		cmp	r3, #0
 916 00d2 13D1     		bne	.L65
 240:main.c        ****         UART_DEBUG_PutString("[Init] No saved cal, using defaults.\r\n");
 917              		.loc 2 240 0
 918 00d4 8648     		ldr	r0, .L73+28
 919 00d6 FFF7FEFF 		bl	UART_DEBUG_PutString
 241:main.c        ****         joystick_init(&defaults, ctx.invert_mask);
 920              		.loc 2 241 0
 921 00da 07F12803 		add	r3, r7, #40
 922 00de 5A6F     		ldr	r2, [r3, #116]
 923 00e0 07F11803 		add	r3, r7, #24
 924 00e4 1146     		mov	r1, r2
 925 00e6 1846     		mov	r0, r3
 926 00e8 FFF7FEFF 		bl	joystick_init
 242:main.c        ****         joystick_set_sensitivity(ctx.sense);
 927              		.loc 2 242 0
 928 00ec 07F12803 		add	r3, r7, #40
 929 00f0 93F87030 		ldrb	r3, [r3, #112]	@ zero_extendqisi2
 930 00f4 1846     		mov	r0, r3
 931 00f6 FFF7FEFF 		bl	joystick_set_sensitivity
 932 00fa 02E0     		b	.L66
 933              	.L65:
 243:main.c        ****     } else {
 244:main.c        ****         UART_DEBUG_PutString("[Init] Loaded cal from EEPROM.\r\n");
 934              		.loc 2 244 0
 935 00fc 7D48     		ldr	r0, .L73+32
 936 00fe FFF7FEFF 		bl	UART_DEBUG_PutString
 937              	.L66:
 245:main.c        ****     }
 246:main.c        ****     
 247:main.c        ****     // Initialize joystick ADC
 248:main.c        ****     adc_balanced_init();
 938              		.loc 2 248 0
 939 0102 FFF7FEFF 		bl	adc_balanced_init
 249:main.c        ****     UART_DEBUG_PutString("[Init] ADC + Joystick ready!\r\n");
 940              		.loc 2 249 0
 941 0106 7C48     		ldr	r0, .L73+36
 942 0108 FFF7FEFF 		bl	UART_DEBUG_PutString
 250:main.c        **** 
 251:main.c        ****     // Initialize looptimer
 252:main.c        ****     Looptimer_Start();
 943              		.loc 2 252 0
ARM GAS  C:\Users\yoons\AppData\Local\Temp\ccF1npoi.s 			page 24


 944 010c FFF7FEFF 		bl	Looptimer_Start
 253:main.c        ****     isr_Looptimer_StartEx(isr_Looptimer_Handler);
 945              		.loc 2 253 0
 946 0110 7A48     		ldr	r0, .L73+40
 947 0112 FFF7FEFF 		bl	isr_Looptimer_StartEx
 254:main.c        ****     UART_DEBUG_PutString("[Init] Ready  Mode: STANDBY.\r\n");
 948              		.loc 2 254 0
 949 0116 7A48     		ldr	r0, .L73+44
 950 0118 FFF7FEFF 		bl	UART_DEBUG_PutString
 255:main.c        **** 
 256:main.c        ****     // Fire state machine "on entry" function
 257:main.c        ****     app_start(&ctx);
 951              		.loc 2 257 0
 952 011c 07F12803 		add	r3, r7, #40
 953 0120 1846     		mov	r0, r3
 954 0122 FFF7FEFF 		bl	app_start
 955              	.L72:
 956              	.LBB5:
 258:main.c        ****     
 259:main.c        ****     // %======================================================================%
 260:main.c        ****     // Main Loop %============================================================%
 261:main.c        ****     // %======================================================================%
 262:main.c        ****     for (;;)
 263:main.c        ****     {
 264:main.c        ****         DPIN_LOOP_TOGGLE();  // Toggle debug pin
 957              		.loc 2 264 0
 958 0126 FFF7FEFF 		bl	Pin_Debug_SuperLoop_Read
 959 012a 0346     		mov	r3, r0
 960 012c 83F00103 		eor	r3, r3, #1
 961 0130 DBB2     		uxtb	r3, r3
 962 0132 1846     		mov	r0, r3
 963 0134 FFF7FEFF 		bl	Pin_Debug_SuperLoop_Write
 265:main.c        ****         uint32_t  now = g_tick_ms;
 964              		.loc 2 265 0
 965 0138 724B     		ldr	r3, .L73+48
 966 013a 1B68     		ldr	r3, [r3]
 967 013c C7F87031 		str	r3, [r7, #368]
 266:main.c        ****         // Get serial monitor input.
 267:main.c        ****         uint8_t ch = (uint8_t)UART_DEBUG_GetChar();
 968              		.loc 2 267 0
 969 0140 FFF7FEFF 		bl	UART_DEBUG_GetChar
 970 0144 0346     		mov	r3, r0
 971 0146 87F86F31 		strb	r3, [r7, #367]
 268:main.c        ****         // Handle joystick and common keys
 269:main.c        ****         // 'app_dispatch_key' handles the state machine input logic
 270:main.c        ****         if (ch) {
 972              		.loc 2 270 0
 973 014a 97F86F31 		ldrb	r3, [r7, #367]	@ zero_extendqisi2
 974 014e 002B     		cmp	r3, #0
 975 0150 12D0     		beq	.L67
 271:main.c        ****             if (joystick_cal_state() != JOY_CAL_OFF)
 976              		.loc 2 271 0
 977 0152 FFF7FEFF 		bl	joystick_cal_state
 978 0156 0346     		mov	r3, r0
 979 0158 002B     		cmp	r3, #0
 980 015a 05D0     		beq	.L68
 272:main.c        ****                 joystick_on_key(ch);
ARM GAS  C:\Users\yoons\AppData\Local\Temp\ccF1npoi.s 			page 25


 981              		.loc 2 272 0
 982 015c 97F86F31 		ldrb	r3, [r7, #367]	@ zero_extendqisi2
 983 0160 1846     		mov	r0, r3
 984 0162 FFF7FEFF 		bl	joystick_on_key
 985 0166 07E0     		b	.L67
 986              	.L68:
 273:main.c        ****             else
 274:main.c        ****                 app_dispatch_key(&ctx, ch);
 987              		.loc 2 274 0
 988 0168 97F86F21 		ldrb	r2, [r7, #367]	@ zero_extendqisi2
 989 016c 07F12803 		add	r3, r7, #40
 990 0170 1146     		mov	r1, r2
 991 0172 1846     		mov	r0, r3
 992 0174 FFF7FEFF 		bl	app_dispatch_key
 993              	.L67:
 275:main.c        ****         }
 276:main.c        ****         
 277:main.c        ****         // Always pump gimbal Rx
 278:main.c        ****         hamfly_pump(&g_movi);
 994              		.loc 2 278 0
 995 0178 5A48     		ldr	r0, .L73+16
 996 017a FFF7FEFF 		bl	hamfly_pump
 279:main.c        ****         telemetry_pump(&ctx);
 997              		.loc 2 279 0
 998 017e 07F12803 		add	r3, r7, #40
 999 0182 1846     		mov	r0, r3
 1000 0184 FFF7FEFF 		bl	telemetry_pump
 280:main.c        ****         
 281:main.c        ****         // Always read joystick
 282:main.c        ****         int16_t counts[N_CH];
 283:main.c        ****         if (adc_balanced_poll_frame(counts))
 1001              		.loc 2 283 0
 1002 0188 07F11403 		add	r3, r7, #20
 1003 018c 1846     		mov	r0, r3
 1004 018e FFF7FEFF 		bl	adc_balanced_poll_frame
 1005 0192 0346     		mov	r3, r0
 1006 0194 002B     		cmp	r3, #0
 1007 0196 0AD0     		beq	.L69
 284:main.c        ****         {
 285:main.c        ****             joystick_on_sample(counts);
 1008              		.loc 2 285 0
 1009 0198 07F11403 		add	r3, r7, #20
 1010 019c 1846     		mov	r0, r3
 1011 019e FFF7FEFF 		bl	joystick_on_sample
 286:main.c        ****             joystick_get_cmd(&ctx.cmd);
 1012              		.loc 2 286 0
 1013 01a2 07F12803 		add	r3, r7, #40
 1014 01a6 6833     		adds	r3, r3, #104
 1015 01a8 1846     		mov	r0, r3
 1016 01aa FFF7FEFF 		bl	joystick_get_cmd
 1017              	.L69:
 287:main.c        ****         }
 288:main.c        ****         
 289:main.c        ****         // Always run on tick definition
 290:main.c        ****         // These are by state but only run when in the given state
 291:main.c        ****         // Per state logiv before making acontrol packet or telem etc.
 292:main.c        ****         app_manual_tick(&ctx);  // For MANU substates
ARM GAS  C:\Users\yoons\AppData\Local\Temp\ccF1npoi.s 			page 26


 1018              		.loc 2 292 0
 1019 01ae 07F12803 		add	r3, r7, #40
 1020 01b2 1846     		mov	r0, r3
 1021 01b4 FFF7FEFF 		bl	app_manual_tick
 293:main.c        ****         app_auto_tick(&ctx);  // For AUTO substates
 1022              		.loc 2 293 0
 1023 01b8 07F12803 		add	r3, r7, #40
 1024 01bc 1846     		mov	r0, r3
 1025 01be FFF7FEFF 		bl	app_auto_tick
 294:main.c        ****         
 295:main.c        ****         app_telem_tick(&ctx);  // Telemetry getting and scheduling
 1026              		.loc 2 295 0
 1027 01c2 07F12803 		add	r3, r7, #40
 1028 01c6 1846     		mov	r0, r3
 1029 01c8 FFF7FEFF 		bl	app_telem_tick
 296:main.c        ****         app_sbc_tick(&ctx);  // SBC communications processing
 1030              		.loc 2 296 0
 1031 01cc 07F12803 		add	r3, r7, #40
 1032 01d0 1846     		mov	r0, r3
 1033 01d2 FFF7FEFF 		bl	app_sbc_tick
 297:main.c        ****         
 298:main.c        ****         // At 'CONTROL_PERIOD_MS' build and send control packet
 299:main.c        ****         // app_build_control handles the state of the state machine
 300:main.c        ****         if ((now - ctx.last_tx_ms) >= CONTROL_PERIOD_MS) {
 1034              		.loc 2 300 0
 1035 01d6 07F12803 		add	r3, r7, #40
 1036 01da 9B6D     		ldr	r3, [r3, #88]
 1037 01dc D7F87021 		ldr	r2, [r7, #368]
 1038 01e0 D31A     		subs	r3, r2, r3
 1039 01e2 632B     		cmp	r3, #99
 1040 01e4 12D9     		bls	.L70
 301:main.c        ****             ctx.last_tx_ms = now;
 1041              		.loc 2 301 0
 1042 01e6 07F12803 		add	r3, r7, #40
 1043 01ea D7F87021 		ldr	r2, [r7, #368]
 1044 01ee 9A65     		str	r2, [r3, #88]
 302:main.c        ****             app_build_control(&ctx, &ctl);
 1045              		.loc 2 302 0
 1046 01f0 07F1B802 		add	r2, r7, #184
 1047 01f4 07F12803 		add	r3, r7, #40
 1048 01f8 1146     		mov	r1, r2
 1049 01fa 1846     		mov	r0, r3
 1050 01fc FFF7FEFF 		bl	app_build_control
 303:main.c        ****             hamfly_send_control(&g_movi, &ctl);
 1051              		.loc 2 303 0
 1052 0200 07F1B803 		add	r3, r7, #184
 1053 0204 1946     		mov	r1, r3
 1054 0206 3748     		ldr	r0, .L73+16
 1055 0208 FFF7FEFF 		bl	hamfly_send_control
 1056              	.L70:
 304:main.c        ****         }
 305:main.c        ****         
 306:main.c        ****         // At 'DIAG_PERIOD_MS' share telemetry to monitor
 307:main.c        ****         if (ctx.diag_active && (now - ctx.last_diag_ms) >= DIAG_PERIOD_MS) {
 1057              		.loc 2 307 0
 1058 020c 07F12803 		add	r3, r7, #40
 1059 0210 93F86430 		ldrb	r3, [r3, #100]	@ zero_extendqisi2
ARM GAS  C:\Users\yoons\AppData\Local\Temp\ccF1npoi.s 			page 27


 1060 0214 002B     		cmp	r3, #0
 1061 0216 86D0     		beq	.L72
 1062              		.loc 2 307 0 is_stmt 0 discriminator 1
 1063 0218 07F12803 		add	r3, r7, #40
 1064 021c DB6D     		ldr	r3, [r3, #92]
 1065 021e D7F87021 		ldr	r2, [r7, #368]
 1066 0222 D31A     		subs	r3, r2, r3
 1067 0224 41F28732 		movw	r2, #4999
 1068 0228 9342     		cmp	r3, r2
 1069 022a 7FF67CAF 		bls	.L72
 1070              	.LBB6:
 308:main.c        ****             ctx.last_diag_ms = now;
 1071              		.loc 2 308 0 is_stmt 1
 1072 022e 07F12803 		add	r3, r7, #40
 1073 0232 D7F87021 		ldr	r2, [r7, #368]
 1074 0236 DA65     		str	r2, [r3, #92]
 309:main.c        ****             int16_t pi, pf, ti, tf; char ps, ts;
 310:main.c        ****             decomp(ctx.cmd.u[CH_X], &pi, &pf, &ps);
 1075              		.loc 2 310 0
 1076 0238 07F12803 		add	r3, r7, #40
 1077 023c 986E     		ldr	r0, [r3, #104]	@ float
 1078 023e 07F10B03 		add	r3, r7, #11
 1079 0242 07F11002 		add	r2, r7, #16
 1080 0246 07F11201 		add	r1, r7, #18
 1081 024a FFF7FEFF 		bl	decomp
 311:main.c        ****             decomp(ctx.cmd.u[CH_Y], &ti, &tf, &ts);
 1082              		.loc 2 311 0
 1083 024e 07F12803 		add	r3, r7, #40
 1084 0252 D86E     		ldr	r0, [r3, #108]	@ float
 1085 0254 07F10A03 		add	r3, r7, #10
 1086 0258 07F10C02 		add	r2, r7, #12
 1087 025c 07F10E01 		add	r1, r7, #14
 1088 0260 FFF7FEFF 		bl	decomp
 312:main.c        ****             snprintf(tx, sizeof tx,
 1089              		.loc 2 312 0
 1090 0264 07F12803 		add	r3, r7, #40
 1091 0268 1B79     		ldrb	r3, [r3, #4]	@ zero_extendqisi2
 1092 026a 1846     		mov	r0, r3
 1093 026c FFF7FEFF 		bl	app_state_name
 1094 0270 0246     		mov	r2, r0
 1095 0272 07F10B03 		add	r3, r7, #11
 1096 0276 1B78     		ldrb	r3, [r3]	@ zero_extendqisi2
 1097 0278 1946     		mov	r1, r3
 1098 027a 07F11203 		add	r3, r7, #18
 1099 027e B3F90030 		ldrsh	r3, [r3]
 1100 0282 1C46     		mov	r4, r3
 1101 0284 07F11003 		add	r3, r7, #16
 1102 0288 B3F90030 		ldrsh	r3, [r3]
 1103 028c 1D46     		mov	r5, r3
 1104 028e 07F10A03 		add	r3, r7, #10
 1105 0292 1B78     		ldrb	r3, [r3]	@ zero_extendqisi2
 1106 0294 1E46     		mov	r6, r3
 1107 0296 07F10E03 		add	r3, r7, #14
 1108 029a B3F90030 		ldrsh	r3, [r3]
 1109 029e 7B60     		str	r3, [r7, #4]
 1110 02a0 07F10C03 		add	r3, r7, #12
 1111 02a4 B3F90030 		ldrsh	r3, [r3]
ARM GAS  C:\Users\yoons\AppData\Local\Temp\ccF1npoi.s 			page 28


 1112 02a8 07F1CC00 		add	r0, r7, #204
 1113 02ac 0693     		str	r3, [sp, #24]
 1114 02ae 7B68     		ldr	r3, [r7, #4]
 1115 02b0 0593     		str	r3, [sp, #20]
 1116 02b2 0496     		str	r6, [sp, #16]
 1117 02b4 0395     		str	r5, [sp, #12]
 1118 02b6 0294     		str	r4, [sp, #8]
 1119 02b8 0191     		str	r1, [sp, #4]
 1120 02ba 0092     		str	r2, [sp]
 1121 02bc D7F87031 		ldr	r3, [r7, #368]
 1122 02c0 114A     		ldr	r2, .L73+52
 1123 02c2 A021     		movs	r1, #160
 1124 02c4 FFF7FEFF 		bl	snprintf
 313:main.c        ****                      "[%lu] state=%s pan=%c%d.%02d tilt=%c%d.%02d\r\n",
 314:main.c        ****                      (unsigned long)now,
 315:main.c        ****                      app_state_name(ctx.state),
 316:main.c        ****                      ps, pi, pf, ts, ti, tf);
 317:main.c        ****             UART_DEBUG_PutString(tx);
 1125              		.loc 2 317 0
 1126 02c8 07F1CC03 		add	r3, r7, #204
 1127 02cc 1846     		mov	r0, r3
 1128 02ce FFF7FEFF 		bl	UART_DEBUG_PutString
 1129              	.LBE6:
 1130              	.LBE5:
 318:main.c        ****         }
 319:main.c        ****     }
 1131              		.loc 2 319 0
 1132 02d2 28E7     		b	.L72
 1133              	.L74:
 1134              		.align	2
 1135              	.L73:
 1136 02d4 20010000 		.word	.LC13
 1137 02d8 00000000 		.word	isr_rx_sbc_Handler
 1138 02dc 48010000 		.word	.LC14
 1139 02e0 00000000 		.word	MOVI_HAL
 1140 02e4 00000000 		.word	g_movi
 1141 02e8 00000000 		.word	isr_rx_movi_Handler
 1142 02ec 60010000 		.word	.LC15
 1143 02f0 7C010000 		.word	.LC16
 1144 02f4 A4010000 		.word	.LC17
 1145 02f8 C8010000 		.word	.LC18
 1146 02fc 00000000 		.word	isr_Looptimer_Handler
 1147 0300 E8010000 		.word	.LC19
 1148 0304 00000000 		.word	g_tick_ms
 1149 0308 08020000 		.word	.LC20
 1150              		.cfi_endproc
 1151              	.LFE74:
 1152              		.size	main, .-main
 1153              		.text
 1154              	.Letext0:
 1155              		.file 3 "c:\\program files (x86)\\cypress\\psoc creator\\4.4\\psoc creator\\import\\gnu\\arm\\5.4.
 1156              		.file 4 "c:\\program files (x86)\\cypress\\psoc creator\\4.4\\psoc creator\\import\\gnu\\arm\\5.4.
 1157              		.file 5 "Generated_Source\\PSoC5/cytypes.h"
 1158              		.file 6 "..\\..\\..\\HamFlyAPI\\src/hamfly_core_hal.h"
 1159              		.file 7 "..\\..\\..\\HamFlyAPI\\src/hamfly_core_control.h"
 1160              		.file 8 "..\\..\\..\\HamFlyAPI\\src/hamfly_core_telemetry.h"
 1161              		.file 9 "..\\..\\..\\HamFlyAPI\\src/hamfly_comm_rb.h"
ARM GAS  C:\Users\yoons\AppData\Local\Temp\ccF1npoi.s 			page 29


 1162              		.file 10 "..\\..\\..\\HamFlyAPI\\src/hamfly_core_gimbal.h"
 1163              		.file 11 "joystick.h"
 1164              		.file 12 "app_ctx.h"
 1165              		.file 13 "Generated_Source\\PSoC5/core_cm3.h"