ARM GAS  C:\Users\JENNEW~1\AppData\Local\Temp\ccZvpWcs.s 			page 1


   1              		.syntax unified
   2              		.cpu cortex-m3
   3              		.fpu softvfp
   4              		.eabi_attribute 20, 1
   5              		.eabi_attribute 21, 1
   6              		.eabi_attribute 23, 3
   7              		.eabi_attribute 24, 1
   8              		.eabi_attribute 25, 1
   9              		.eabi_attribute 26, 1
  10              		.eabi_attribute 30, 6
  11              		.eabi_attribute 34, 1
  12              		.eabi_attribute 18, 4
  13              		.thumb
  14              		.syntax unified
  15              		.file	"pi_comms.c"
  16              		.text
  17              	.Ltext0:
  18              		.cfi_sections	.debug_frame
  19              		.section	.rodata
  20              		.align	2
  21              		.type	crc8_table, %object
  22              		.size	crc8_table, 256
  23              	crc8_table:
  24 0000 00       		.byte	0
  25 0001 07       		.byte	7
  26 0002 0E       		.byte	14
  27 0003 09       		.byte	9
  28 0004 1C       		.byte	28
  29 0005 1B       		.byte	27
  30 0006 12       		.byte	18
  31 0007 15       		.byte	21
  32 0008 38       		.byte	56
  33 0009 3F       		.byte	63
  34 000a 36       		.byte	54
  35 000b 31       		.byte	49
  36 000c 24       		.byte	36
  37 000d 23       		.byte	35
  38 000e 2A       		.byte	42
  39 000f 2D       		.byte	45
  40 0010 70       		.byte	112
  41 0011 77       		.byte	119
  42 0012 7E       		.byte	126
  43 0013 79       		.byte	121
  44 0014 6C       		.byte	108
  45 0015 6B       		.byte	107
  46 0016 62       		.byte	98
  47 0017 65       		.byte	101
  48 0018 48       		.byte	72
  49 0019 4F       		.byte	79
  50 001a 46       		.byte	70
  51 001b 41       		.byte	65
  52 001c 54       		.byte	84
  53 001d 53       		.byte	83
  54 001e 5A       		.byte	90
  55 001f 5D       		.byte	93
  56 0020 E0       		.byte	-32
  57 0021 E7       		.byte	-25
ARM GAS  C:\Users\JENNEW~1\AppData\Local\Temp\ccZvpWcs.s 			page 2


  58 0022 EE       		.byte	-18
  59 0023 E9       		.byte	-23
  60 0024 FC       		.byte	-4
  61 0025 FB       		.byte	-5
  62 0026 F2       		.byte	-14
  63 0027 F5       		.byte	-11
  64 0028 D8       		.byte	-40
  65 0029 DF       		.byte	-33
  66 002a D6       		.byte	-42
  67 002b D1       		.byte	-47
  68 002c C4       		.byte	-60
  69 002d C3       		.byte	-61
  70 002e CA       		.byte	-54
  71 002f CD       		.byte	-51
  72 0030 90       		.byte	-112
  73 0031 97       		.byte	-105
  74 0032 9E       		.byte	-98
  75 0033 99       		.byte	-103
  76 0034 8C       		.byte	-116
  77 0035 8B       		.byte	-117
  78 0036 82       		.byte	-126
  79 0037 85       		.byte	-123
  80 0038 A8       		.byte	-88
  81 0039 AF       		.byte	-81
  82 003a A6       		.byte	-90
  83 003b A1       		.byte	-95
  84 003c B4       		.byte	-76
  85 003d B3       		.byte	-77
  86 003e BA       		.byte	-70
  87 003f BD       		.byte	-67
  88 0040 C7       		.byte	-57
  89 0041 C0       		.byte	-64
  90 0042 C9       		.byte	-55
  91 0043 CE       		.byte	-50
  92 0044 DB       		.byte	-37
  93 0045 DC       		.byte	-36
  94 0046 D5       		.byte	-43
  95 0047 D2       		.byte	-46
  96 0048 FF       		.byte	-1
  97 0049 F8       		.byte	-8
  98 004a F1       		.byte	-15
  99 004b F6       		.byte	-10
 100 004c E3       		.byte	-29
 101 004d E4       		.byte	-28
 102 004e ED       		.byte	-19
 103 004f EA       		.byte	-22
 104 0050 B7       		.byte	-73
 105 0051 B0       		.byte	-80
 106 0052 B9       		.byte	-71
 107 0053 BE       		.byte	-66
 108 0054 AB       		.byte	-85
 109 0055 AC       		.byte	-84
 110 0056 A5       		.byte	-91
 111 0057 A2       		.byte	-94
 112 0058 8F       		.byte	-113
 113 0059 88       		.byte	-120
 114 005a 81       		.byte	-127
ARM GAS  C:\Users\JENNEW~1\AppData\Local\Temp\ccZvpWcs.s 			page 3


 115 005b 86       		.byte	-122
 116 005c 93       		.byte	-109
 117 005d 94       		.byte	-108
 118 005e 9D       		.byte	-99
 119 005f 9A       		.byte	-102
 120 0060 27       		.byte	39
 121 0061 20       		.byte	32
 122 0062 29       		.byte	41
 123 0063 2E       		.byte	46
 124 0064 3B       		.byte	59
 125 0065 3C       		.byte	60
 126 0066 35       		.byte	53
 127 0067 32       		.byte	50
 128 0068 1F       		.byte	31
 129 0069 18       		.byte	24
 130 006a 11       		.byte	17
 131 006b 16       		.byte	22
 132 006c 03       		.byte	3
 133 006d 04       		.byte	4
 134 006e 0D       		.byte	13
 135 006f 0A       		.byte	10
 136 0070 57       		.byte	87
 137 0071 50       		.byte	80
 138 0072 59       		.byte	89
 139 0073 5E       		.byte	94
 140 0074 4B       		.byte	75
 141 0075 4C       		.byte	76
 142 0076 45       		.byte	69
 143 0077 42       		.byte	66
 144 0078 6F       		.byte	111
 145 0079 68       		.byte	104
 146 007a 61       		.byte	97
 147 007b 66       		.byte	102
 148 007c 73       		.byte	115
 149 007d 74       		.byte	116
 150 007e 7D       		.byte	125
 151 007f 7A       		.byte	122
 152 0080 89       		.byte	-119
 153 0081 8E       		.byte	-114
 154 0082 87       		.byte	-121
 155 0083 80       		.byte	-128
 156 0084 95       		.byte	-107
 157 0085 92       		.byte	-110
 158 0086 9B       		.byte	-101
 159 0087 9C       		.byte	-100
 160 0088 B1       		.byte	-79
 161 0089 B6       		.byte	-74
 162 008a BF       		.byte	-65
 163 008b B8       		.byte	-72
 164 008c AD       		.byte	-83
 165 008d AA       		.byte	-86
 166 008e A3       		.byte	-93
 167 008f A4       		.byte	-92
 168 0090 F9       		.byte	-7
 169 0091 FE       		.byte	-2
 170 0092 F7       		.byte	-9
 171 0093 F0       		.byte	-16
ARM GAS  C:\Users\JENNEW~1\AppData\Local\Temp\ccZvpWcs.s 			page 4


 172 0094 E5       		.byte	-27
 173 0095 E2       		.byte	-30
 174 0096 EB       		.byte	-21
 175 0097 EC       		.byte	-20
 176 0098 C1       		.byte	-63
 177 0099 C6       		.byte	-58
 178 009a CF       		.byte	-49
 179 009b C8       		.byte	-56
 180 009c DD       		.byte	-35
 181 009d DA       		.byte	-38
 182 009e D3       		.byte	-45
 183 009f D4       		.byte	-44
 184 00a0 69       		.byte	105
 185 00a1 6E       		.byte	110
 186 00a2 67       		.byte	103
 187 00a3 60       		.byte	96
 188 00a4 75       		.byte	117
 189 00a5 72       		.byte	114
 190 00a6 7B       		.byte	123
 191 00a7 7C       		.byte	124
 192 00a8 51       		.byte	81
 193 00a9 56       		.byte	86
 194 00aa 5F       		.byte	95
 195 00ab 58       		.byte	88
 196 00ac 4D       		.byte	77
 197 00ad 4A       		.byte	74
 198 00ae 43       		.byte	67
 199 00af 44       		.byte	68
 200 00b0 19       		.byte	25
 201 00b1 1E       		.byte	30
 202 00b2 17       		.byte	23
 203 00b3 10       		.byte	16
 204 00b4 05       		.byte	5
 205 00b5 02       		.byte	2
 206 00b6 0B       		.byte	11
 207 00b7 0C       		.byte	12
 208 00b8 21       		.byte	33
 209 00b9 26       		.byte	38
 210 00ba 2F       		.byte	47
 211 00bb 28       		.byte	40
 212 00bc 3D       		.byte	61
 213 00bd 3A       		.byte	58
 214 00be 33       		.byte	51
 215 00bf 34       		.byte	52
 216 00c0 4E       		.byte	78
 217 00c1 49       		.byte	73
 218 00c2 40       		.byte	64
 219 00c3 47       		.byte	71
 220 00c4 52       		.byte	82
 221 00c5 55       		.byte	85
 222 00c6 5C       		.byte	92
 223 00c7 5B       		.byte	91
 224 00c8 76       		.byte	118
 225 00c9 71       		.byte	113
 226 00ca 78       		.byte	120
 227 00cb 7F       		.byte	127
 228 00cc 6A       		.byte	106
ARM GAS  C:\Users\JENNEW~1\AppData\Local\Temp\ccZvpWcs.s 			page 5


 229 00cd 6D       		.byte	109
 230 00ce 64       		.byte	100
 231 00cf 63       		.byte	99
 232 00d0 3E       		.byte	62
 233 00d1 39       		.byte	57
 234 00d2 30       		.byte	48
 235 00d3 37       		.byte	55
 236 00d4 22       		.byte	34
 237 00d5 25       		.byte	37
 238 00d6 2C       		.byte	44
 239 00d7 2B       		.byte	43
 240 00d8 06       		.byte	6
 241 00d9 01       		.byte	1
 242 00da 08       		.byte	8
 243 00db 0F       		.byte	15
 244 00dc 1A       		.byte	26
 245 00dd 1D       		.byte	29
 246 00de 14       		.byte	20
 247 00df 13       		.byte	19
 248 00e0 AE       		.byte	-82
 249 00e1 A9       		.byte	-87
 250 00e2 A0       		.byte	-96
 251 00e3 A7       		.byte	-89
 252 00e4 B2       		.byte	-78
 253 00e5 B5       		.byte	-75
 254 00e6 BC       		.byte	-68
 255 00e7 BB       		.byte	-69
 256 00e8 96       		.byte	-106
 257 00e9 91       		.byte	-111
 258 00ea 98       		.byte	-104
 259 00eb 9F       		.byte	-97
 260 00ec 8A       		.byte	-118
 261 00ed 8D       		.byte	-115
 262 00ee 84       		.byte	-124
 263 00ef 83       		.byte	-125
 264 00f0 DE       		.byte	-34
 265 00f1 D9       		.byte	-39
 266 00f2 D0       		.byte	-48
 267 00f3 D7       		.byte	-41
 268 00f4 C2       		.byte	-62
 269 00f5 C5       		.byte	-59
 270 00f6 CC       		.byte	-52
 271 00f7 CB       		.byte	-53
 272 00f8 E6       		.byte	-26
 273 00f9 E1       		.byte	-31
 274 00fa E8       		.byte	-24
 275 00fb EF       		.byte	-17
 276 00fc FA       		.byte	-6
 277 00fd FD       		.byte	-3
 278 00fe F4       		.byte	-12
 279 00ff F3       		.byte	-13
 280              		.bss
 281              	s_state:
 282 0000 00       		.space	1
 283              	s_type:
 284 0001 00       		.space	1
 285              	s_len:
ARM GAS  C:\Users\JENNEW~1\AppData\Local\Temp\ccZvpWcs.s 			page 6


 286 0002 00       		.space	1
 287              	s_idx:
 288 0003 00       		.space	1
 289              		.align	2
 290              	s_buf:
 291 0004 00000000 		.space	64
 291      00000000 
 291      00000000 
 291      00000000 
 291      00000000 
 292              		.align	2
 293              	s_centroid:
 294 0044 00000000 		.space	12
 294      00000000 
 294      00000000 
 295              	s_fresh:
 296 0050 00       		.space	1
 297 0051 000000   		.align	2
 298              	s_last_rx_ms:
 299 0054 00000000 		.space	4
 300              		.align	1
 301              	s_crc_err:
 302 0058 0000     		.space	2
 303              		.align	1
 304              	s_uart_err:
 305 005a 0000     		.space	2
 306              		.align	1
 307              	s_unknown_magic:
 308 005c 0000     		.space	2
 309 005e 0000     		.align	2
 310              	s_rx_pkt_count:
 311 0060 00000000 		.space	4
 312              		.align	1
 313              	s_last_centroid_dt_ms:
 314 0064 0000     		.space	2
 315              		.section	.text.pi_init,"ax",%progbits
 316              		.align	2
 317              		.global	pi_init
 318              		.thumb
 319              		.thumb_func
 320              		.type	pi_init, %function
 321              	pi_init:
 322              	.LFB63:
 323              		.file 1 "pi_comms.c"
   1:pi_comms.c    **** /* ========================================
   2:pi_comms.c    ****  *
   3:pi_comms.c    ****  * Copyright Hamish Johnson, 2026
   4:pi_comms.c    ****  * All Rights Reserved
   5:pi_comms.c    ****  * UNPUBLISHED, LICENSED SOFTWARE.
   6:pi_comms.c    ****  *
   7:pi_comms.c    ****  * CONFIDENTIAL AND PROPRIETARY INFORMATION
   8:pi_comms.c    ****  * WHICH IS THE PROPERTY OF 
   9:pi_comms.c    ****  * Quantum Internet Systems Lab (QISL),
  10:pi_comms.c    ****  * Department of Physics, SFU, Canada.
  11:pi_comms.c    ****  *
  12:pi_comms.c    ****  * Author: Hamish Johnson (2026)
  13:pi_comms.c    ****  *
ARM GAS  C:\Users\JENNEW~1\AppData\Local\Temp\ccZvpWcs.s 			page 7


  14:pi_comms.c    ****  * ========================================
  15:pi_comms.c    ****  *
  16:pi_comms.c    ****  * This code is for inter-device communications with a Raspberry Pi over UART.
  17:pi_comms.c    **** */
  18:pi_comms.c    **** 
  19:pi_comms.c    **** #include "pi_comms.h"
  20:pi_comms.c    **** #include <string.h>
  21:pi_comms.c    **** #include <project.h>
  22:pi_comms.c    **** 
  23:pi_comms.c    **** extern volatile uint32_t g_tick_ms;   /* defined in main.c, as MOVI uses */
  24:pi_comms.c    **** 
  25:pi_comms.c    **** // Copied for Pi software codebase
  26:pi_comms.c    **** static const uint8_t crc8_table[256] = {
  27:pi_comms.c    ****     0x00,0x07,0x0E,0x09,0x1C,0x1B,0x12,0x15,
  28:pi_comms.c    ****     0x38,0x3F,0x36,0x31,0x24,0x23,0x2A,0x2D,
  29:pi_comms.c    ****     0x70,0x77,0x7E,0x79,0x6C,0x6B,0x62,0x65,
  30:pi_comms.c    ****     0x48,0x4F,0x46,0x41,0x54,0x53,0x5A,0x5D,
  31:pi_comms.c    ****     0xE0,0xE7,0xEE,0xE9,0xFC,0xFB,0xF2,0xF5,
  32:pi_comms.c    ****     0xD8,0xDF,0xD6,0xD1,0xC4,0xC3,0xCA,0xCD,
  33:pi_comms.c    ****     0x90,0x97,0x9E,0x99,0x8C,0x8B,0x82,0x85,
  34:pi_comms.c    ****     0xA8,0xAF,0xA6,0xA1,0xB4,0xB3,0xBA,0xBD,
  35:pi_comms.c    ****     0xC7,0xC0,0xC9,0xCE,0xDB,0xDC,0xD5,0xD2,
  36:pi_comms.c    ****     0xFF,0xF8,0xF1,0xF6,0xE3,0xE4,0xED,0xEA,
  37:pi_comms.c    ****     0xB7,0xB0,0xB9,0xBE,0xAB,0xAC,0xA5,0xA2,
  38:pi_comms.c    ****     0x8F,0x88,0x81,0x86,0x93,0x94,0x9D,0x9A,
  39:pi_comms.c    ****     0x27,0x20,0x29,0x2E,0x3B,0x3C,0x35,0x32,
  40:pi_comms.c    ****     0x1F,0x18,0x11,0x16,0x03,0x04,0x0D,0x0A,
  41:pi_comms.c    ****     0x57,0x50,0x59,0x5E,0x4B,0x4C,0x45,0x42,
  42:pi_comms.c    ****     0x6F,0x68,0x61,0x66,0x73,0x74,0x7D,0x7A,
  43:pi_comms.c    ****     0x89,0x8E,0x87,0x80,0x95,0x92,0x9B,0x9C,
  44:pi_comms.c    ****     0xB1,0xB6,0xBF,0xB8,0xAD,0xAA,0xA3,0xA4,
  45:pi_comms.c    ****     0xF9,0xFE,0xF7,0xF0,0xE5,0xE2,0xEB,0xEC,
  46:pi_comms.c    ****     0xC1,0xC6,0xCF,0xC8,0xDD,0xDA,0xD3,0xD4,
  47:pi_comms.c    ****     0x69,0x6E,0x67,0x60,0x75,0x72,0x7B,0x7C,
  48:pi_comms.c    ****     0x51,0x56,0x5F,0x58,0x4D,0x4A,0x43,0x44,
  49:pi_comms.c    ****     0x19,0x1E,0x17,0x10,0x05,0x02,0x0B,0x0C,
  50:pi_comms.c    ****     0x21,0x26,0x2F,0x28,0x3D,0x3A,0x33,0x34,
  51:pi_comms.c    ****     0x4E,0x49,0x40,0x47,0x52,0x55,0x5C,0x5B,
  52:pi_comms.c    ****     0x76,0x71,0x78,0x7F,0x6A,0x6D,0x64,0x63,
  53:pi_comms.c    ****     0x3E,0x39,0x30,0x37,0x22,0x25,0x2C,0x2B,
  54:pi_comms.c    ****     0x06,0x01,0x08,0x0F,0x1A,0x1D,0x14,0x13,
  55:pi_comms.c    ****     0xAE,0xA9,0xA0,0xA7,0xB2,0xB5,0xBC,0xBB,
  56:pi_comms.c    ****     0x96,0x91,0x98,0x9F,0x8A,0x8D,0x84,0x83,
  57:pi_comms.c    ****     0xDE,0xD9,0xD0,0xD7,0xC2,0xC5,0xCC,0xCB,
  58:pi_comms.c    ****     0xE6,0xE1,0xE8,0xEF,0xFA,0xFD,0xF4,0xF3,
  59:pi_comms.c    **** };
  60:pi_comms.c    **** 
  61:pi_comms.c    **** #define PI_CENTROID_LEN  12u   // uint32 t_ms + 2*int16 + 2*uint16
  62:pi_comms.c    **** #define PI_RX_MAX        64u
  63:pi_comms.c    **** 
  64:pi_comms.c    **** static enum { S_MAGIC, S_TYPE, S_LEN, S_PAYLOAD, S_CRC } s_state = S_MAGIC;
  65:pi_comms.c    **** static uint8_t              s_type;
  66:pi_comms.c    **** static uint8_t              s_len;
  67:pi_comms.c    **** static uint8_t              s_idx;
  68:pi_comms.c    **** static uint8_t              s_buf[PI_RX_MAX];
  69:pi_comms.c    **** static payload_centroid_t   s_centroid;
  70:pi_comms.c    **** static volatile uint8_t     s_fresh = 0u;
ARM GAS  C:\Users\JENNEW~1\AppData\Local\Temp\ccZvpWcs.s 			page 8


  71:pi_comms.c    **** 
  72:pi_comms.c    **** static uint32_t s_last_rx_ms          = 0u;
  73:pi_comms.c    **** static uint16_t s_crc_err             = 0u;
  74:pi_comms.c    **** static uint16_t s_uart_err            = 0u;
  75:pi_comms.c    **** static uint16_t s_unknown_magic       = 0u;
  76:pi_comms.c    **** static uint32_t s_rx_pkt_count        = 0u;
  77:pi_comms.c    **** static uint16_t s_last_centroid_dt_ms = 0u;
  78:pi_comms.c    **** 
  79:pi_comms.c    **** void pi_init(void)
  80:pi_comms.c    **** {
 324              		.loc 1 80 0
 325              		.cfi_startproc
 326              		@ args = 0, pretend = 0, frame = 0
 327              		@ frame_needed = 1, uses_anonymous_args = 0
 328              		@ link register save eliminated.
 329 0000 80B4     		push	{r7}
 330              		.cfi_def_cfa_offset 4
 331              		.cfi_offset 7, -4
 332 0002 00AF     		add	r7, sp, #0
 333              		.cfi_def_cfa_register 7
  81:pi_comms.c    ****     s_state = S_MAGIC;
 334              		.loc 1 81 0
 335 0004 104B     		ldr	r3, .L2
 336 0006 0022     		movs	r2, #0
 337 0008 1A70     		strb	r2, [r3]
  82:pi_comms.c    ****     s_idx = 0u;
 338              		.loc 1 82 0
 339 000a 104B     		ldr	r3, .L2+4
 340 000c 0022     		movs	r2, #0
 341 000e 1A70     		strb	r2, [r3]
  83:pi_comms.c    ****     s_fresh = 0u;
 342              		.loc 1 83 0
 343 0010 0F4B     		ldr	r3, .L2+8
 344 0012 0022     		movs	r2, #0
 345 0014 1A70     		strb	r2, [r3]
  84:pi_comms.c    ****     s_last_rx_ms = 0u;
 346              		.loc 1 84 0
 347 0016 0F4B     		ldr	r3, .L2+12
 348 0018 0022     		movs	r2, #0
 349 001a 1A60     		str	r2, [r3]
  85:pi_comms.c    ****     s_crc_err = s_uart_err = s_unknown_magic = 0u;
 350              		.loc 1 85 0
 351 001c 0E4B     		ldr	r3, .L2+16
 352 001e 0022     		movs	r2, #0
 353 0020 1A80     		strh	r2, [r3]	@ movhi
 354 0022 0D4B     		ldr	r3, .L2+16
 355 0024 1A88     		ldrh	r2, [r3]
 356 0026 0D4B     		ldr	r3, .L2+20
 357 0028 1A80     		strh	r2, [r3]	@ movhi
 358 002a 0C4B     		ldr	r3, .L2+20
 359 002c 1A88     		ldrh	r2, [r3]
 360 002e 0C4B     		ldr	r3, .L2+24
 361 0030 1A80     		strh	r2, [r3]	@ movhi
  86:pi_comms.c    ****     s_rx_pkt_count = 0u;
 362              		.loc 1 86 0
 363 0032 0C4B     		ldr	r3, .L2+28
 364 0034 0022     		movs	r2, #0
ARM GAS  C:\Users\JENNEW~1\AppData\Local\Temp\ccZvpWcs.s 			page 9


 365 0036 1A60     		str	r2, [r3]
  87:pi_comms.c    ****     s_last_centroid_dt_ms = 0u;
 366              		.loc 1 87 0
 367 0038 0B4B     		ldr	r3, .L2+32
 368 003a 0022     		movs	r2, #0
 369 003c 1A80     		strh	r2, [r3]	@ movhi
  88:pi_comms.c    **** }
 370              		.loc 1 88 0
 371 003e 00BF     		nop
 372 0040 BD46     		mov	sp, r7
 373              		.cfi_def_cfa_register 13
 374              		@ sp needed
 375 0042 80BC     		pop	{r7}
 376              		.cfi_restore 7
 377              		.cfi_def_cfa_offset 0
 378 0044 7047     		bx	lr
 379              	.L3:
 380 0046 00BF     		.align	2
 381              	.L2:
 382 0048 00000000 		.word	s_state
 383 004c 03000000 		.word	s_idx
 384 0050 50000000 		.word	s_fresh
 385 0054 54000000 		.word	s_last_rx_ms
 386 0058 5C000000 		.word	s_unknown_magic
 387 005c 5A000000 		.word	s_uart_err
 388 0060 58000000 		.word	s_crc_err
 389 0064 60000000 		.word	s_rx_pkt_count
 390 0068 64000000 		.word	s_last_centroid_dt_ms
 391              		.cfi_endproc
 392              	.LFE63:
 393              		.size	pi_init, .-pi_init
 394              		.section	.text.decode_centroid,"ax",%progbits
 395              		.align	2
 396              		.thumb
 397              		.thumb_func
 398              		.type	decode_centroid, %function
 399              	decode_centroid:
 400              	.LFB64:
  89:pi_comms.c    **** 
  90:pi_comms.c    **** static void decode_centroid(const uint8_t *p)
  91:pi_comms.c    **** {
 401              		.loc 1 91 0
 402              		.cfi_startproc
 403              		@ args = 0, pretend = 0, frame = 16
 404              		@ frame_needed = 1, uses_anonymous_args = 0
 405 0000 80B5     		push	{r7, lr}
 406              		.cfi_def_cfa_offset 8
 407              		.cfi_offset 7, -8
 408              		.cfi_offset 14, -4
 409 0002 84B0     		sub	sp, sp, #16
 410              		.cfi_def_cfa_offset 24
 411 0004 00AF     		add	r7, sp, #0
 412              		.cfi_def_cfa_register 7
 413 0006 7860     		str	r0, [r7, #4]
  92:pi_comms.c    ****     uint32_t now = g_tick_ms;
 414              		.loc 1 92 0
 415 0008 204B     		ldr	r3, .L8
ARM GAS  C:\Users\JENNEW~1\AppData\Local\Temp\ccZvpWcs.s 			page 10


 416 000a 1B68     		ldr	r3, [r3]
 417 000c FB60     		str	r3, [r7, #12]
  93:pi_comms.c    ****     if (s_last_rx_ms != 0u) {
 418              		.loc 1 93 0
 419 000e 204B     		ldr	r3, .L8+4
 420 0010 1B68     		ldr	r3, [r3]
 421 0012 002B     		cmp	r3, #0
 422 0014 0FD0     		beq	.L5
 423              	.LBB2:
  94:pi_comms.c    ****         uint32_t dt = now - s_last_rx_ms;
 424              		.loc 1 94 0
 425 0016 1E4B     		ldr	r3, .L8+4
 426 0018 1B68     		ldr	r3, [r3]
 427 001a FA68     		ldr	r2, [r7, #12]
 428 001c D31A     		subs	r3, r2, r3
 429 001e BB60     		str	r3, [r7, #8]
  95:pi_comms.c    ****         s_last_centroid_dt_ms = (dt > 0xFFFFu) ? 0xFFFFu : (uint16_t)dt;
 430              		.loc 1 95 0
 431 0020 BB68     		ldr	r3, [r7, #8]
 432 0022 B3F5803F 		cmp	r3, #65536
 433 0026 02D2     		bcs	.L6
 434              		.loc 1 95 0 is_stmt 0 discriminator 1
 435 0028 BB68     		ldr	r3, [r7, #8]
 436 002a 9BB2     		uxth	r3, r3
 437 002c 01E0     		b	.L7
 438              	.L6:
 439              		.loc 1 95 0 discriminator 2
 440 002e 4FF6FF73 		movw	r3, #65535
 441              	.L7:
 442              		.loc 1 95 0 discriminator 4
 443 0032 184A     		ldr	r2, .L8+8
 444 0034 1380     		strh	r3, [r2]	@ movhi
 445              	.L5:
 446              	.LBE2:
  96:pi_comms.c    ****     }
  97:pi_comms.c    ****     memcpy(&s_centroid.t_ms,  p +  0, 4);
 447              		.loc 1 97 0 is_stmt 1
 448 0036 0422     		movs	r2, #4
 449 0038 7968     		ldr	r1, [r7, #4]
 450 003a 1748     		ldr	r0, .L8+12
 451 003c FFF7FEFF 		bl	memcpy
  98:pi_comms.c    ****     memcpy(&s_centroid.cx,    p +  4, 2);
 452              		.loc 1 98 0
 453 0040 7B68     		ldr	r3, [r7, #4]
 454 0042 0433     		adds	r3, r3, #4
 455 0044 0222     		movs	r2, #2
 456 0046 1946     		mov	r1, r3
 457 0048 1448     		ldr	r0, .L8+16
 458 004a FFF7FEFF 		bl	memcpy
  99:pi_comms.c    ****     memcpy(&s_centroid.cy,    p +  6, 2);
 459              		.loc 1 99 0
 460 004e 7B68     		ldr	r3, [r7, #4]
 461 0050 0633     		adds	r3, r3, #6
 462 0052 0222     		movs	r2, #2
 463 0054 1946     		mov	r1, r3
 464 0056 1248     		ldr	r0, .L8+20
 465 0058 FFF7FEFF 		bl	memcpy
ARM GAS  C:\Users\JENNEW~1\AppData\Local\Temp\ccZvpWcs.s 			page 11


 100:pi_comms.c    ****     memcpy(&s_centroid.cxerr, p +  8, 2);
 466              		.loc 1 100 0
 467 005c 7B68     		ldr	r3, [r7, #4]
 468 005e 0833     		adds	r3, r3, #8
 469 0060 0222     		movs	r2, #2
 470 0062 1946     		mov	r1, r3
 471 0064 0F48     		ldr	r0, .L8+24
 472 0066 FFF7FEFF 		bl	memcpy
 101:pi_comms.c    ****     memcpy(&s_centroid.cyerr, p + 10, 2);
 473              		.loc 1 101 0
 474 006a 7B68     		ldr	r3, [r7, #4]
 475 006c 0A33     		adds	r3, r3, #10
 476 006e 0222     		movs	r2, #2
 477 0070 1946     		mov	r1, r3
 478 0072 0D48     		ldr	r0, .L8+28
 479 0074 FFF7FEFF 		bl	memcpy
 102:pi_comms.c    ****     s_fresh = 1u;
 480              		.loc 1 102 0
 481 0078 0C4B     		ldr	r3, .L8+32
 482 007a 0122     		movs	r2, #1
 483 007c 1A70     		strb	r2, [r3]
 103:pi_comms.c    ****     s_last_rx_ms = now;
 484              		.loc 1 103 0
 485 007e 044A     		ldr	r2, .L8+4
 486 0080 FB68     		ldr	r3, [r7, #12]
 487 0082 1360     		str	r3, [r2]
 104:pi_comms.c    **** }
 488              		.loc 1 104 0
 489 0084 00BF     		nop
 490 0086 1037     		adds	r7, r7, #16
 491              		.cfi_def_cfa_offset 8
 492 0088 BD46     		mov	sp, r7
 493              		.cfi_def_cfa_register 13
 494              		@ sp needed
 495 008a 80BD     		pop	{r7, pc}
 496              	.L9:
 497              		.align	2
 498              	.L8:
 499 008c 00000000 		.word	g_tick_ms
 500 0090 54000000 		.word	s_last_rx_ms
 501 0094 64000000 		.word	s_last_centroid_dt_ms
 502 0098 44000000 		.word	s_centroid
 503 009c 48000000 		.word	s_centroid+4
 504 00a0 4A000000 		.word	s_centroid+6
 505 00a4 4C000000 		.word	s_centroid+8
 506 00a8 4E000000 		.word	s_centroid+10
 507 00ac 50000000 		.word	s_fresh
 508              		.cfi_endproc
 509              	.LFE64:
 510              		.size	decode_centroid, .-decode_centroid
 511              		.section	.text.pi_on_rx_byte,"ax",%progbits
 512              		.align	2
 513              		.global	pi_on_rx_byte
 514              		.thumb
 515              		.thumb_func
 516              		.type	pi_on_rx_byte, %function
 517              	pi_on_rx_byte:
ARM GAS  C:\Users\JENNEW~1\AppData\Local\Temp\ccZvpWcs.s 			page 12


 518              	.LFB65:
 105:pi_comms.c    **** 
 106:pi_comms.c    **** void pi_on_rx_byte(uint8_t b)
 107:pi_comms.c    **** {
 519              		.loc 1 107 0
 520              		.cfi_startproc
 521              		@ args = 0, pretend = 0, frame = 16
 522              		@ frame_needed = 1, uses_anonymous_args = 0
 523 0000 80B5     		push	{r7, lr}
 524              		.cfi_def_cfa_offset 8
 525              		.cfi_offset 7, -8
 526              		.cfi_offset 14, -4
 527 0002 84B0     		sub	sp, sp, #16
 528              		.cfi_def_cfa_offset 24
 529 0004 00AF     		add	r7, sp, #0
 530              		.cfi_def_cfa_register 7
 531 0006 0346     		mov	r3, r0
 532 0008 FB71     		strb	r3, [r7, #7]
 108:pi_comms.c    ****     // Parse incoming bytes according to expected packet structure.
 109:pi_comms.c    ****     switch (s_state) {
 533              		.loc 1 109 0
 534 000a 504B     		ldr	r3, .L35
 535 000c 1B78     		ldrb	r3, [r3]	@ zero_extendqisi2
 536 000e 042B     		cmp	r3, #4
 537 0010 00F29880 		bhi	.L32
 538 0014 01A2     		adr	r2, .L13
 539 0016 52F823F0 		ldr	pc, [r2, r3, lsl #2]
 540 001a 00BF     		.p2align 2
 541              	.L13:
 542 001c 31000000 		.word	.L12+1
 543 0020 4D000000 		.word	.L14+1
 544 0024 5B000000 		.word	.L15+1
 545 0028 8F000000 		.word	.L16+1
 546 002c B7000000 		.word	.L17+1
 547              		.p2align 1
 548              	.L12:
 110:pi_comms.c    ****         case S_MAGIC:
 111:pi_comms.c    ****             if (b == PI_MAGIC) s_state = S_TYPE;
 549              		.loc 1 111 0
 550 0030 FB79     		ldrb	r3, [r7, #7]	@ zero_extendqisi2
 551 0032 AB2B     		cmp	r3, #171
 552 0034 03D1     		bne	.L18
 553              		.loc 1 111 0 is_stmt 0 discriminator 1
 554 0036 454B     		ldr	r3, .L35
 555 0038 0122     		movs	r2, #1
 556 003a 1A70     		strb	r2, [r3]
 112:pi_comms.c    ****             else               s_unknown_magic++;  // Measure of noise
 113:pi_comms.c    ****             break;
 557              		.loc 1 113 0 is_stmt 1 discriminator 1
 558 003c 82E0     		b	.L11
 559              	.L18:
 112:pi_comms.c    ****             else               s_unknown_magic++;  // Measure of noise
 560              		.loc 1 112 0
 561 003e 444B     		ldr	r3, .L35+4
 562 0040 1B88     		ldrh	r3, [r3]
 563 0042 0133     		adds	r3, r3, #1
 564 0044 9AB2     		uxth	r2, r3
ARM GAS  C:\Users\JENNEW~1\AppData\Local\Temp\ccZvpWcs.s 			page 13


 565 0046 424B     		ldr	r3, .L35+4
 566 0048 1A80     		strh	r2, [r3]	@ movhi
 567              		.loc 1 113 0
 568 004a 7BE0     		b	.L11
 569              	.L14:
 114:pi_comms.c    ****         case S_TYPE:
 115:pi_comms.c    ****             s_type  = b;
 570              		.loc 1 115 0
 571 004c 414A     		ldr	r2, .L35+8
 572 004e FB79     		ldrb	r3, [r7, #7]
 573 0050 1370     		strb	r3, [r2]
 116:pi_comms.c    ****             s_state = S_LEN;
 574              		.loc 1 116 0
 575 0052 3E4B     		ldr	r3, .L35
 576 0054 0222     		movs	r2, #2
 577 0056 1A70     		strb	r2, [r3]
 117:pi_comms.c    ****             break;
 578              		.loc 1 117 0
 579 0058 74E0     		b	.L11
 580              	.L15:
 118:pi_comms.c    ****         case S_LEN:
 119:pi_comms.c    ****             s_len = b;
 581              		.loc 1 119 0
 582 005a 3F4A     		ldr	r2, .L35+12
 583 005c FB79     		ldrb	r3, [r7, #7]
 584 005e 1370     		strb	r3, [r2]
 120:pi_comms.c    ****             if (s_len > PI_RX_MAX) s_state = S_MAGIC;  // Bad len -> resync
 585              		.loc 1 120 0
 586 0060 3D4B     		ldr	r3, .L35+12
 587 0062 1B78     		ldrb	r3, [r3]	@ zero_extendqisi2
 588 0064 402B     		cmp	r3, #64
 589 0066 03D9     		bls	.L20
 590              		.loc 1 120 0 is_stmt 0 discriminator 1
 591 0068 384B     		ldr	r3, .L35
 592 006a 0022     		movs	r2, #0
 593 006c 1A70     		strb	r2, [r3]
 121:pi_comms.c    ****             else if (s_len == 0u)  s_state = S_CRC;    // 0-byte payload legal
 122:pi_comms.c    ****             else { s_idx = 0u; s_state = S_PAYLOAD; }
 123:pi_comms.c    ****             break;
 594              		.loc 1 123 0 is_stmt 1 discriminator 1
 595 006e 69E0     		b	.L11
 596              	.L20:
 121:pi_comms.c    ****             else if (s_len == 0u)  s_state = S_CRC;    // 0-byte payload legal
 597              		.loc 1 121 0
 598 0070 394B     		ldr	r3, .L35+12
 599 0072 1B78     		ldrb	r3, [r3]	@ zero_extendqisi2
 600 0074 002B     		cmp	r3, #0
 601 0076 03D1     		bne	.L22
 121:pi_comms.c    ****             else if (s_len == 0u)  s_state = S_CRC;    // 0-byte payload legal
 602              		.loc 1 121 0 is_stmt 0 discriminator 1
 603 0078 344B     		ldr	r3, .L35
 604 007a 0422     		movs	r2, #4
 605 007c 1A70     		strb	r2, [r3]
 606              		.loc 1 123 0 is_stmt 1 discriminator 1
 607 007e 61E0     		b	.L11
 608              	.L22:
 122:pi_comms.c    ****             break;
ARM GAS  C:\Users\JENNEW~1\AppData\Local\Temp\ccZvpWcs.s 			page 14


 609              		.loc 1 122 0
 610 0080 364B     		ldr	r3, .L35+16
 611 0082 0022     		movs	r2, #0
 612 0084 1A70     		strb	r2, [r3]
 613 0086 314B     		ldr	r3, .L35
 614 0088 0322     		movs	r2, #3
 615 008a 1A70     		strb	r2, [r3]
 616              		.loc 1 123 0
 617 008c 5AE0     		b	.L11
 618              	.L16:
 124:pi_comms.c    ****         case S_PAYLOAD:
 125:pi_comms.c    ****             s_buf[s_idx++] = b;
 619              		.loc 1 125 0
 620 008e 334B     		ldr	r3, .L35+16
 621 0090 1B78     		ldrb	r3, [r3]	@ zero_extendqisi2
 622 0092 5A1C     		adds	r2, r3, #1
 623 0094 D1B2     		uxtb	r1, r2
 624 0096 314A     		ldr	r2, .L35+16
 625 0098 1170     		strb	r1, [r2]
 626 009a 1946     		mov	r1, r3
 627 009c 304A     		ldr	r2, .L35+20
 628 009e FB79     		ldrb	r3, [r7, #7]
 629 00a0 5354     		strb	r3, [r2, r1]
 126:pi_comms.c    ****             if (s_idx >= s_len) s_state = S_CRC;
 630              		.loc 1 126 0
 631 00a2 2E4B     		ldr	r3, .L35+16
 632 00a4 1A78     		ldrb	r2, [r3]	@ zero_extendqisi2
 633 00a6 2C4B     		ldr	r3, .L35+12
 634 00a8 1B78     		ldrb	r3, [r3]	@ zero_extendqisi2
 635 00aa 9A42     		cmp	r2, r3
 636 00ac 49D3     		bcc	.L33
 637              		.loc 1 126 0 is_stmt 0 discriminator 1
 638 00ae 274B     		ldr	r3, .L35
 639 00b0 0422     		movs	r2, #4
 640 00b2 1A70     		strb	r2, [r3]
 127:pi_comms.c    ****             break;
 641              		.loc 1 127 0 is_stmt 1 discriminator 1
 642 00b4 45E0     		b	.L33
 643              	.L17:
 644              	.LBB3:
 128:pi_comms.c    ****         case S_CRC: {
 129:pi_comms.c    ****             // CRC over TYPE + LEN + PAYLOAD
 130:pi_comms.c    ****             uint8_t calc = crc8_table[s_type];
 645              		.loc 1 130 0
 646 00b6 274B     		ldr	r3, .L35+8
 647 00b8 1B78     		ldrb	r3, [r3]	@ zero_extendqisi2
 648 00ba 1A46     		mov	r2, r3
 649 00bc 294B     		ldr	r3, .L35+24
 650 00be 9B5C     		ldrb	r3, [r3, r2]
 651 00c0 FB73     		strb	r3, [r7, #15]
 131:pi_comms.c    ****             calc = crc8_table[calc ^ s_len];
 652              		.loc 1 131 0
 653 00c2 254B     		ldr	r3, .L35+12
 654 00c4 1A78     		ldrb	r2, [r3]	@ zero_extendqisi2
 655 00c6 FB7B     		ldrb	r3, [r7, #15]
 656 00c8 5340     		eors	r3, r3, r2
 657 00ca DBB2     		uxtb	r3, r3
ARM GAS  C:\Users\JENNEW~1\AppData\Local\Temp\ccZvpWcs.s 			page 15


 658 00cc 1A46     		mov	r2, r3
 659 00ce 254B     		ldr	r3, .L35+24
 660 00d0 9B5C     		ldrb	r3, [r3, r2]
 661 00d2 FB73     		strb	r3, [r7, #15]
 662              	.LBB4:
 132:pi_comms.c    ****             for (uint8_t i = 0u; i < s_len; i++)
 663              		.loc 1 132 0
 664 00d4 0023     		movs	r3, #0
 665 00d6 BB73     		strb	r3, [r7, #14]
 666 00d8 0CE0     		b	.L24
 667              	.L25:
 133:pi_comms.c    ****                 calc = crc8_table[calc ^ s_buf[i]];
 668              		.loc 1 133 0 discriminator 3
 669 00da BB7B     		ldrb	r3, [r7, #14]	@ zero_extendqisi2
 670 00dc 204A     		ldr	r2, .L35+20
 671 00de D25C     		ldrb	r2, [r2, r3]	@ zero_extendqisi2
 672 00e0 FB7B     		ldrb	r3, [r7, #15]
 673 00e2 5340     		eors	r3, r3, r2
 674 00e4 DBB2     		uxtb	r3, r3
 675 00e6 1A46     		mov	r2, r3
 676 00e8 1E4B     		ldr	r3, .L35+24
 677 00ea 9B5C     		ldrb	r3, [r3, r2]
 678 00ec FB73     		strb	r3, [r7, #15]
 132:pi_comms.c    ****             for (uint8_t i = 0u; i < s_len; i++)
 679              		.loc 1 132 0 discriminator 3
 680 00ee BB7B     		ldrb	r3, [r7, #14]	@ zero_extendqisi2
 681 00f0 0133     		adds	r3, r3, #1
 682 00f2 BB73     		strb	r3, [r7, #14]
 683              	.L24:
 132:pi_comms.c    ****             for (uint8_t i = 0u; i < s_len; i++)
 684              		.loc 1 132 0 is_stmt 0 discriminator 1
 685 00f4 184B     		ldr	r3, .L35+12
 686 00f6 1B78     		ldrb	r3, [r3]	@ zero_extendqisi2
 687 00f8 BA7B     		ldrb	r2, [r7, #14]	@ zero_extendqisi2
 688 00fa 9A42     		cmp	r2, r3
 689 00fc EDD3     		bcc	.L25
 690              	.LBE4:
 134:pi_comms.c    **** 
 135:pi_comms.c    ****             if (calc == b) {
 691              		.loc 1 135 0 is_stmt 1
 692 00fe FA7B     		ldrb	r2, [r7, #15]	@ zero_extendqisi2
 693 0100 FB79     		ldrb	r3, [r7, #7]	@ zero_extendqisi2
 694 0102 9A42     		cmp	r2, r3
 695 0104 11D1     		bne	.L26
 136:pi_comms.c    ****                 s_rx_pkt_count++;
 696              		.loc 1 136 0
 697 0106 184B     		ldr	r3, .L35+28
 698 0108 1B68     		ldr	r3, [r3]
 699 010a 0133     		adds	r3, r3, #1
 700 010c 164A     		ldr	r2, .L35+28
 701 010e 1360     		str	r3, [r2]
 137:pi_comms.c    ****                 // Process payload bytes according to type.
 138:pi_comms.c    ****                 switch (s_type) {
 702              		.loc 1 138 0
 703 0110 104B     		ldr	r3, .L35+8
 704 0112 1B78     		ldrb	r3, [r3]	@ zero_extendqisi2
 705 0114 012B     		cmp	r3, #1
ARM GAS  C:\Users\JENNEW~1\AppData\Local\Temp\ccZvpWcs.s 			page 16


 706 0116 00D0     		beq	.L28
 139:pi_comms.c    ****                     case PKT_CENTROID:
 140:pi_comms.c    ****                         if (s_len == PI_CENTROID_LEN) decode_centroid(s_buf);
 141:pi_comms.c    ****                         break;
 142:pi_comms.c    ****                     default: break;
 707              		.loc 1 142 0
 708 0118 0FE0     		b	.L31
 709              	.L28:
 140:pi_comms.c    ****                         break;
 710              		.loc 1 140 0
 711 011a 0F4B     		ldr	r3, .L35+12
 712 011c 1B78     		ldrb	r3, [r3]	@ zero_extendqisi2
 713 011e 0C2B     		cmp	r3, #12
 714 0120 0AD1     		bne	.L34
 140:pi_comms.c    ****                         break;
 715              		.loc 1 140 0 is_stmt 0 discriminator 1
 716 0122 0F48     		ldr	r0, .L35+20
 717 0124 FFF7FEFF 		bl	decode_centroid
 141:pi_comms.c    ****                     default: break;
 718              		.loc 1 141 0 is_stmt 1 discriminator 1
 719 0128 06E0     		b	.L34
 720              	.L26:
 143:pi_comms.c    ****                 }
 144:pi_comms.c    ****             } else {
 145:pi_comms.c    ****                 s_crc_err++;
 721              		.loc 1 145 0
 722 012a 104B     		ldr	r3, .L35+32
 723 012c 1B88     		ldrh	r3, [r3]
 724 012e 0133     		adds	r3, r3, #1
 725 0130 9AB2     		uxth	r2, r3
 726 0132 0E4B     		ldr	r3, .L35+32
 727 0134 1A80     		strh	r2, [r3]	@ movhi
 728 0136 00E0     		b	.L31
 729              	.L34:
 141:pi_comms.c    ****                     default: break;
 730              		.loc 1 141 0
 731 0138 00BF     		nop
 732              	.L31:
 146:pi_comms.c    ****             }
 147:pi_comms.c    ****             s_state = S_MAGIC;
 733              		.loc 1 147 0
 734 013a 044B     		ldr	r3, .L35
 735 013c 0022     		movs	r2, #0
 736 013e 1A70     		strb	r2, [r3]
 148:pi_comms.c    ****             break;
 737              		.loc 1 148 0
 738 0140 00E0     		b	.L11
 739              	.L33:
 740              	.LBE3:
 127:pi_comms.c    ****         case S_CRC: {
 741              		.loc 1 127 0
 742 0142 00BF     		nop
 743              	.L11:
 744              	.L32:
 149:pi_comms.c    ****         }
 150:pi_comms.c    ****     }
 151:pi_comms.c    **** }
ARM GAS  C:\Users\JENNEW~1\AppData\Local\Temp\ccZvpWcs.s 			page 17


 745              		.loc 1 151 0
 746 0144 00BF     		nop
 747 0146 1037     		adds	r7, r7, #16
 748              		.cfi_def_cfa_offset 8
 749 0148 BD46     		mov	sp, r7
 750              		.cfi_def_cfa_register 13
 751              		@ sp needed
 752 014a 80BD     		pop	{r7, pc}
 753              	.L36:
 754              		.align	2
 755              	.L35:
 756 014c 00000000 		.word	s_state
 757 0150 5C000000 		.word	s_unknown_magic
 758 0154 01000000 		.word	s_type
 759 0158 02000000 		.word	s_len
 760 015c 03000000 		.word	s_idx
 761 0160 04000000 		.word	s_buf
 762 0164 00000000 		.word	crc8_table
 763 0168 60000000 		.word	s_rx_pkt_count
 764 016c 58000000 		.word	s_crc_err
 765              		.cfi_endproc
 766              	.LFE65:
 767              		.size	pi_on_rx_byte, .-pi_on_rx_byte
 768              		.section	.text.pi_on_uart_err_flags,"ax",%progbits
 769              		.align	2
 770              		.global	pi_on_uart_err_flags
 771              		.thumb
 772              		.thumb_func
 773              		.type	pi_on_uart_err_flags, %function
 774              	pi_on_uart_err_flags:
 775              	.LFB66:
 152:pi_comms.c    **** 
 153:pi_comms.c    **** void pi_on_uart_err_flags(uint8_t flags)
 154:pi_comms.c    **** {
 776              		.loc 1 154 0
 777              		.cfi_startproc
 778              		@ args = 0, pretend = 0, frame = 8
 779              		@ frame_needed = 1, uses_anonymous_args = 0
 780              		@ link register save eliminated.
 781 0000 80B4     		push	{r7}
 782              		.cfi_def_cfa_offset 4
 783              		.cfi_offset 7, -4
 784 0002 83B0     		sub	sp, sp, #12
 785              		.cfi_def_cfa_offset 16
 786 0004 00AF     		add	r7, sp, #0
 787              		.cfi_def_cfa_register 7
 788 0006 0346     		mov	r3, r0
 789 0008 FB71     		strb	r3, [r7, #7]
 155:pi_comms.c    ****     (void)flags;
 156:pi_comms.c    ****     s_uart_err++;
 790              		.loc 1 156 0
 791 000a 074B     		ldr	r3, .L38
 792 000c 1B88     		ldrh	r3, [r3]
 793 000e 0133     		adds	r3, r3, #1
 794 0010 9AB2     		uxth	r2, r3
 795 0012 054B     		ldr	r3, .L38
 796 0014 1A80     		strh	r2, [r3]	@ movhi
ARM GAS  C:\Users\JENNEW~1\AppData\Local\Temp\ccZvpWcs.s 			page 18


 157:pi_comms.c    ****     s_state = S_MAGIC;        /* drop the in-progress frame, resync */
 797              		.loc 1 157 0
 798 0016 054B     		ldr	r3, .L38+4
 799 0018 0022     		movs	r2, #0
 800 001a 1A70     		strb	r2, [r3]
 158:pi_comms.c    **** }
 801              		.loc 1 158 0
 802 001c 00BF     		nop
 803 001e 0C37     		adds	r7, r7, #12
 804              		.cfi_def_cfa_offset 4
 805 0020 BD46     		mov	sp, r7
 806              		.cfi_def_cfa_register 13
 807              		@ sp needed
 808 0022 80BC     		pop	{r7}
 809              		.cfi_restore 7
 810              		.cfi_def_cfa_offset 0
 811 0024 7047     		bx	lr
 812              	.L39:
 813 0026 00BF     		.align	2
 814              	.L38:
 815 0028 5A000000 		.word	s_uart_err
 816 002c 00000000 		.word	s_state
 817              		.cfi_endproc
 818              	.LFE66:
 819              		.size	pi_on_uart_err_flags, .-pi_on_uart_err_flags
 820              		.section	.text.pi_get_centroid,"ax",%progbits
 821              		.align	2
 822              		.global	pi_get_centroid
 823              		.thumb
 824              		.thumb_func
 825              		.type	pi_get_centroid, %function
 826              	pi_get_centroid:
 827              	.LFB67:
 159:pi_comms.c    **** 
 160:pi_comms.c    **** uint8_t pi_get_centroid(payload_centroid_t *out)
 161:pi_comms.c    **** {
 828              		.loc 1 161 0
 829              		.cfi_startproc
 830              		@ args = 0, pretend = 0, frame = 16
 831              		@ frame_needed = 1, uses_anonymous_args = 0
 832 0000 80B5     		push	{r7, lr}
 833              		.cfi_def_cfa_offset 8
 834              		.cfi_offset 7, -8
 835              		.cfi_offset 14, -4
 836 0002 84B0     		sub	sp, sp, #16
 837              		.cfi_def_cfa_offset 24
 838 0004 00AF     		add	r7, sp, #0
 839              		.cfi_def_cfa_register 7
 840 0006 7860     		str	r0, [r7, #4]
 162:pi_comms.c    ****     uint8_t got = 0u;
 841              		.loc 1 162 0
 842 0008 0023     		movs	r3, #0
 843 000a FB73     		strb	r3, [r7, #15]
 163:pi_comms.c    ****     uint8_t ist = CyEnterCriticalSection();
 844              		.loc 1 163 0
 845 000c FFF7FEFF 		bl	CyEnterCriticalSection
 846 0010 0346     		mov	r3, r0
ARM GAS  C:\Users\JENNEW~1\AppData\Local\Temp\ccZvpWcs.s 			page 19


 847 0012 BB73     		strb	r3, [r7, #14]
 164:pi_comms.c    ****     if (s_fresh) { *out = s_centroid; s_fresh = 0u; got = 1u; }
 848              		.loc 1 164 0
 849 0014 0B4B     		ldr	r3, .L43
 850 0016 1B78     		ldrb	r3, [r3]
 851 0018 DBB2     		uxtb	r3, r3
 852 001a 002B     		cmp	r3, #0
 853 001c 09D0     		beq	.L41
 854              		.loc 1 164 0 is_stmt 0 discriminator 1
 855 001e 7B68     		ldr	r3, [r7, #4]
 856 0020 094A     		ldr	r2, .L43+4
 857 0022 07CA     		ldmia	r2, {r0, r1, r2}
 858 0024 83E80700 		stmia	r3, {r0, r1, r2}
 859 0028 064B     		ldr	r3, .L43
 860 002a 0022     		movs	r2, #0
 861 002c 1A70     		strb	r2, [r3]
 862 002e 0123     		movs	r3, #1
 863 0030 FB73     		strb	r3, [r7, #15]
 864              	.L41:
 165:pi_comms.c    ****     CyExitCriticalSection(ist);
 865              		.loc 1 165 0 is_stmt 1
 866 0032 BB7B     		ldrb	r3, [r7, #14]	@ zero_extendqisi2
 867 0034 1846     		mov	r0, r3
 868 0036 FFF7FEFF 		bl	CyExitCriticalSection
 166:pi_comms.c    ****     return got;
 869              		.loc 1 166 0
 870 003a FB7B     		ldrb	r3, [r7, #15]	@ zero_extendqisi2
 167:pi_comms.c    **** }
 871              		.loc 1 167 0
 872 003c 1846     		mov	r0, r3
 873 003e 1037     		adds	r7, r7, #16
 874              		.cfi_def_cfa_offset 8
 875 0040 BD46     		mov	sp, r7
 876              		.cfi_def_cfa_register 13
 877              		@ sp needed
 878 0042 80BD     		pop	{r7, pc}
 879              	.L44:
 880              		.align	2
 881              	.L43:
 882 0044 50000000 		.word	s_fresh
 883 0048 44000000 		.word	s_centroid
 884              		.cfi_endproc
 885              	.LFE67:
 886              		.size	pi_get_centroid, .-pi_get_centroid
 887              		.section	.text.pi_unknown_magic,"ax",%progbits
 888              		.align	2
 889              		.global	pi_unknown_magic
 890              		.thumb
 891              		.thumb_func
 892              		.type	pi_unknown_magic, %function
 893              	pi_unknown_magic:
 894              	.LFB68:
 168:pi_comms.c    **** 
 169:pi_comms.c    **** uint16_t pi_unknown_magic(void)       { return s_unknown_magic; }
 895              		.loc 1 169 0
 896              		.cfi_startproc
 897              		@ args = 0, pretend = 0, frame = 0
ARM GAS  C:\Users\JENNEW~1\AppData\Local\Temp\ccZvpWcs.s 			page 20


 898              		@ frame_needed = 1, uses_anonymous_args = 0
 899              		@ link register save eliminated.
 900 0000 80B4     		push	{r7}
 901              		.cfi_def_cfa_offset 4
 902              		.cfi_offset 7, -4
 903 0002 00AF     		add	r7, sp, #0
 904              		.cfi_def_cfa_register 7
 905              		.loc 1 169 0
 906 0004 024B     		ldr	r3, .L47
 907 0006 1B88     		ldrh	r3, [r3]
 908 0008 1846     		mov	r0, r3
 909 000a BD46     		mov	sp, r7
 910              		.cfi_def_cfa_register 13
 911              		@ sp needed
 912 000c 80BC     		pop	{r7}
 913              		.cfi_restore 7
 914              		.cfi_def_cfa_offset 0
 915 000e 7047     		bx	lr
 916              	.L48:
 917              		.align	2
 918              	.L47:
 919 0010 5C000000 		.word	s_unknown_magic
 920              		.cfi_endproc
 921              	.LFE68:
 922              		.size	pi_unknown_magic, .-pi_unknown_magic
 923              		.section	.text.pi_rx_pkt_count,"ax",%progbits
 924              		.align	2
 925              		.global	pi_rx_pkt_count
 926              		.thumb
 927              		.thumb_func
 928              		.type	pi_rx_pkt_count, %function
 929              	pi_rx_pkt_count:
 930              	.LFB69:
 170:pi_comms.c    **** uint32_t pi_rx_pkt_count(void)        { return s_rx_pkt_count; }
 931              		.loc 1 170 0
 932              		.cfi_startproc
 933              		@ args = 0, pretend = 0, frame = 0
 934              		@ frame_needed = 1, uses_anonymous_args = 0
 935              		@ link register save eliminated.
 936 0000 80B4     		push	{r7}
 937              		.cfi_def_cfa_offset 4
 938              		.cfi_offset 7, -4
 939 0002 00AF     		add	r7, sp, #0
 940              		.cfi_def_cfa_register 7
 941              		.loc 1 170 0
 942 0004 024B     		ldr	r3, .L51
 943 0006 1B68     		ldr	r3, [r3]
 944 0008 1846     		mov	r0, r3
 945 000a BD46     		mov	sp, r7
 946              		.cfi_def_cfa_register 13
 947              		@ sp needed
 948 000c 80BC     		pop	{r7}
 949              		.cfi_restore 7
 950              		.cfi_def_cfa_offset 0
 951 000e 7047     		bx	lr
 952              	.L52:
 953              		.align	2
ARM GAS  C:\Users\JENNEW~1\AppData\Local\Temp\ccZvpWcs.s 			page 21


 954              	.L51:
 955 0010 60000000 		.word	s_rx_pkt_count
 956              		.cfi_endproc
 957              	.LFE69:
 958              		.size	pi_rx_pkt_count, .-pi_rx_pkt_count
 959              		.section	.text.pi_last_centroid_dt_ms,"ax",%progbits
 960              		.align	2
 961              		.global	pi_last_centroid_dt_ms
 962              		.thumb
 963              		.thumb_func
 964              		.type	pi_last_centroid_dt_ms, %function
 965              	pi_last_centroid_dt_ms:
 966              	.LFB70:
 171:pi_comms.c    **** uint16_t pi_last_centroid_dt_ms(void) { return s_last_centroid_dt_ms; }
 967              		.loc 1 171 0
 968              		.cfi_startproc
 969              		@ args = 0, pretend = 0, frame = 0
 970              		@ frame_needed = 1, uses_anonymous_args = 0
 971              		@ link register save eliminated.
 972 0000 80B4     		push	{r7}
 973              		.cfi_def_cfa_offset 4
 974              		.cfi_offset 7, -4
 975 0002 00AF     		add	r7, sp, #0
 976              		.cfi_def_cfa_register 7
 977              		.loc 1 171 0
 978 0004 024B     		ldr	r3, .L55
 979 0006 1B88     		ldrh	r3, [r3]
 980 0008 1846     		mov	r0, r3
 981 000a BD46     		mov	sp, r7
 982              		.cfi_def_cfa_register 13
 983              		@ sp needed
 984 000c 80BC     		pop	{r7}
 985              		.cfi_restore 7
 986              		.cfi_def_cfa_offset 0
 987 000e 7047     		bx	lr
 988              	.L56:
 989              		.align	2
 990              	.L55:
 991 0010 64000000 		.word	s_last_centroid_dt_ms
 992              		.cfi_endproc
 993              	.LFE70:
 994              		.size	pi_last_centroid_dt_ms, .-pi_last_centroid_dt_ms
 995              		.section	.text.pi_last_rx_ms,"ax",%progbits
 996              		.align	2
 997              		.global	pi_last_rx_ms
 998              		.thumb
 999              		.thumb_func
 1000              		.type	pi_last_rx_ms, %function
 1001              	pi_last_rx_ms:
 1002              	.LFB71:
 172:pi_comms.c    **** 
 173:pi_comms.c    **** uint32_t pi_last_rx_ms(void) { return s_last_rx_ms; }
 1003              		.loc 1 173 0
 1004              		.cfi_startproc
 1005              		@ args = 0, pretend = 0, frame = 0
 1006              		@ frame_needed = 1, uses_anonymous_args = 0
 1007              		@ link register save eliminated.
ARM GAS  C:\Users\JENNEW~1\AppData\Local\Temp\ccZvpWcs.s 			page 22


 1008 0000 80B4     		push	{r7}
 1009              		.cfi_def_cfa_offset 4
 1010              		.cfi_offset 7, -4
 1011 0002 00AF     		add	r7, sp, #0
 1012              		.cfi_def_cfa_register 7
 1013              		.loc 1 173 0
 1014 0004 024B     		ldr	r3, .L59
 1015 0006 1B68     		ldr	r3, [r3]
 1016 0008 1846     		mov	r0, r3
 1017 000a BD46     		mov	sp, r7
 1018              		.cfi_def_cfa_register 13
 1019              		@ sp needed
 1020 000c 80BC     		pop	{r7}
 1021              		.cfi_restore 7
 1022              		.cfi_def_cfa_offset 0
 1023 000e 7047     		bx	lr
 1024              	.L60:
 1025              		.align	2
 1026              	.L59:
 1027 0010 54000000 		.word	s_last_rx_ms
 1028              		.cfi_endproc
 1029              	.LFE71:
 1030              		.size	pi_last_rx_ms, .-pi_last_rx_ms
 1031              		.section	.text.pi_crc_errors,"ax",%progbits
 1032              		.align	2
 1033              		.global	pi_crc_errors
 1034              		.thumb
 1035              		.thumb_func
 1036              		.type	pi_crc_errors, %function
 1037              	pi_crc_errors:
 1038              	.LFB72:
 174:pi_comms.c    **** uint16_t pi_crc_errors(void) { return s_crc_err; }
 1039              		.loc 1 174 0
 1040              		.cfi_startproc
 1041              		@ args = 0, pretend = 0, frame = 0
 1042              		@ frame_needed = 1, uses_anonymous_args = 0
 1043              		@ link register save eliminated.
 1044 0000 80B4     		push	{r7}
 1045              		.cfi_def_cfa_offset 4
 1046              		.cfi_offset 7, -4
 1047 0002 00AF     		add	r7, sp, #0
 1048              		.cfi_def_cfa_register 7
 1049              		.loc 1 174 0
 1050 0004 024B     		ldr	r3, .L63
 1051 0006 1B88     		ldrh	r3, [r3]
 1052 0008 1846     		mov	r0, r3
 1053 000a BD46     		mov	sp, r7
 1054              		.cfi_def_cfa_register 13
 1055              		@ sp needed
 1056 000c 80BC     		pop	{r7}
 1057              		.cfi_restore 7
 1058              		.cfi_def_cfa_offset 0
 1059 000e 7047     		bx	lr
 1060              	.L64:
 1061              		.align	2
 1062              	.L63:
 1063 0010 58000000 		.word	s_crc_err
ARM GAS  C:\Users\JENNEW~1\AppData\Local\Temp\ccZvpWcs.s 			page 23


 1064              		.cfi_endproc
 1065              	.LFE72:
 1066              		.size	pi_crc_errors, .-pi_crc_errors
 1067              		.section	.text.pi_uart_errors,"ax",%progbits
 1068              		.align	2
 1069              		.global	pi_uart_errors
 1070              		.thumb
 1071              		.thumb_func
 1072              		.type	pi_uart_errors, %function
 1073              	pi_uart_errors:
 1074              	.LFB73:
 175:pi_comms.c    **** uint16_t pi_uart_errors(void) { return s_uart_err; }
 1075              		.loc 1 175 0
 1076              		.cfi_startproc
 1077              		@ args = 0, pretend = 0, frame = 0
 1078              		@ frame_needed = 1, uses_anonymous_args = 0
 1079              		@ link register save eliminated.
 1080 0000 80B4     		push	{r7}
 1081              		.cfi_def_cfa_offset 4
 1082              		.cfi_offset 7, -4
 1083 0002 00AF     		add	r7, sp, #0
 1084              		.cfi_def_cfa_register 7
 1085              		.loc 1 175 0
 1086 0004 024B     		ldr	r3, .L67
 1087 0006 1B88     		ldrh	r3, [r3]
 1088 0008 1846     		mov	r0, r3
 1089 000a BD46     		mov	sp, r7
 1090              		.cfi_def_cfa_register 13
 1091              		@ sp needed
 1092 000c 80BC     		pop	{r7}
 1093              		.cfi_restore 7
 1094              		.cfi_def_cfa_offset 0
 1095 000e 7047     		bx	lr
 1096              	.L68:
 1097              		.align	2
 1098              	.L67:
 1099 0010 5A000000 		.word	s_uart_err
 1100              		.cfi_endproc
 1101              	.LFE73:
 1102              		.size	pi_uart_errors, .-pi_uart_errors
 1103              		.section	.text.pi_send_frame,"ax",%progbits
 1104              		.align	2
 1105              		.global	pi_send_frame
 1106              		.thumb
 1107              		.thumb_func
 1108              		.type	pi_send_frame, %function
 1109              	pi_send_frame:
 1110              	.LFB74:
 176:pi_comms.c    **** 
 177:pi_comms.c    **** void pi_send_frame(uint8_t type, const uint8_t *payload, uint8_t len)
 178:pi_comms.c    **** {
 1111              		.loc 1 178 0
 1112              		.cfi_startproc
 1113              		@ args = 0, pretend = 0, frame = 16
 1114              		@ frame_needed = 1, uses_anonymous_args = 0
 1115 0000 80B5     		push	{r7, lr}
 1116              		.cfi_def_cfa_offset 8
ARM GAS  C:\Users\JENNEW~1\AppData\Local\Temp\ccZvpWcs.s 			page 24


 1117              		.cfi_offset 7, -8
 1118              		.cfi_offset 14, -4
 1119 0002 84B0     		sub	sp, sp, #16
 1120              		.cfi_def_cfa_offset 24
 1121 0004 00AF     		add	r7, sp, #0
 1122              		.cfi_def_cfa_register 7
 1123 0006 0346     		mov	r3, r0
 1124 0008 3960     		str	r1, [r7]
 1125 000a FB71     		strb	r3, [r7, #7]
 1126 000c 1346     		mov	r3, r2
 1127 000e BB71     		strb	r3, [r7, #6]
 179:pi_comms.c    ****     UART_PI_PutChar(PI_MAGIC);  // Magic byte
 1128              		.loc 1 179 0
 1129 0010 AB20     		movs	r0, #171
 1130 0012 FFF7FEFF 		bl	UART_PI_PutChar
 180:pi_comms.c    ****     UART_PI_PutChar(type);      // Type byte
 1131              		.loc 1 180 0
 1132 0016 FB79     		ldrb	r3, [r7, #7]	@ zero_extendqisi2
 1133 0018 1846     		mov	r0, r3
 1134 001a FFF7FEFF 		bl	UART_PI_PutChar
 181:pi_comms.c    ****     UART_PI_PutChar(len);       // Length byte
 1135              		.loc 1 181 0
 1136 001e BB79     		ldrb	r3, [r7, #6]	@ zero_extendqisi2
 1137 0020 1846     		mov	r0, r3
 1138 0022 FFF7FEFF 		bl	UART_PI_PutChar
 182:pi_comms.c    ****     uint8_t crc = crc8_table[type];
 1139              		.loc 1 182 0
 1140 0026 FB79     		ldrb	r3, [r7, #7]	@ zero_extendqisi2
 1141 0028 174A     		ldr	r2, .L72
 1142 002a D35C     		ldrb	r3, [r2, r3]
 1143 002c FB73     		strb	r3, [r7, #15]
 183:pi_comms.c    ****     crc = crc8_table[crc ^ len];// Start CRC
 1144              		.loc 1 183 0
 1145 002e FA7B     		ldrb	r2, [r7, #15]
 1146 0030 BB79     		ldrb	r3, [r7, #6]
 1147 0032 5340     		eors	r3, r3, r2
 1148 0034 DBB2     		uxtb	r3, r3
 1149 0036 1A46     		mov	r2, r3
 1150 0038 134B     		ldr	r3, .L72
 1151 003a 9B5C     		ldrb	r3, [r3, r2]
 1152 003c FB73     		strb	r3, [r7, #15]
 1153              	.LBB5:
 184:pi_comms.c    ****     for (uint8_t i = 0u; i < len; i++) {
 1154              		.loc 1 184 0
 1155 003e 0023     		movs	r3, #0
 1156 0040 BB73     		strb	r3, [r7, #14]
 1157 0042 14E0     		b	.L70
 1158              	.L71:
 185:pi_comms.c    ****         UART_PI_PutChar(payload[i]);  // Put payload and compute CRC
 1159              		.loc 1 185 0 discriminator 3
 1160 0044 BB7B     		ldrb	r3, [r7, #14]	@ zero_extendqisi2
 1161 0046 3A68     		ldr	r2, [r7]
 1162 0048 1344     		add	r3, r3, r2
 1163 004a 1B78     		ldrb	r3, [r3]	@ zero_extendqisi2
 1164 004c 1846     		mov	r0, r3
 1165 004e FFF7FEFF 		bl	UART_PI_PutChar
 186:pi_comms.c    ****         crc = crc8_table[crc ^ payload[i]];
ARM GAS  C:\Users\JENNEW~1\AppData\Local\Temp\ccZvpWcs.s 			page 25


 1166              		.loc 1 186 0 discriminator 3
 1167 0052 BB7B     		ldrb	r3, [r7, #14]	@ zero_extendqisi2
 1168 0054 3A68     		ldr	r2, [r7]
 1169 0056 1344     		add	r3, r3, r2
 1170 0058 1A78     		ldrb	r2, [r3]	@ zero_extendqisi2
 1171 005a FB7B     		ldrb	r3, [r7, #15]
 1172 005c 5340     		eors	r3, r3, r2
 1173 005e DBB2     		uxtb	r3, r3
 1174 0060 1A46     		mov	r2, r3
 1175 0062 094B     		ldr	r3, .L72
 1176 0064 9B5C     		ldrb	r3, [r3, r2]
 1177 0066 FB73     		strb	r3, [r7, #15]
 184:pi_comms.c    ****     for (uint8_t i = 0u; i < len; i++) {
 1178              		.loc 1 184 0 discriminator 3
 1179 0068 BB7B     		ldrb	r3, [r7, #14]	@ zero_extendqisi2
 1180 006a 0133     		adds	r3, r3, #1
 1181 006c BB73     		strb	r3, [r7, #14]
 1182              	.L70:
 184:pi_comms.c    ****     for (uint8_t i = 0u; i < len; i++) {
 1183              		.loc 1 184 0 is_stmt 0 discriminator 1
 1184 006e BA7B     		ldrb	r2, [r7, #14]	@ zero_extendqisi2
 1185 0070 BB79     		ldrb	r3, [r7, #6]	@ zero_extendqisi2
 1186 0072 9A42     		cmp	r2, r3
 1187 0074 E6D3     		bcc	.L71
 1188              	.LBE5:
 187:pi_comms.c    ****     }
 188:pi_comms.c    ****     UART_PI_PutChar(crc);       // Put CRC
 1189              		.loc 1 188 0 is_stmt 1
 1190 0076 FB7B     		ldrb	r3, [r7, #15]	@ zero_extendqisi2
 1191 0078 1846     		mov	r0, r3
 1192 007a FFF7FEFF 		bl	UART_PI_PutChar
 189:pi_comms.c    **** }
 1193              		.loc 1 189 0
 1194 007e 00BF     		nop
 1195 0080 1037     		adds	r7, r7, #16
 1196              		.cfi_def_cfa_offset 8
 1197 0082 BD46     		mov	sp, r7
 1198              		.cfi_def_cfa_register 13
 1199              		@ sp needed
 1200 0084 80BD     		pop	{r7, pc}
 1201              	.L73:
 1202 0086 00BF     		.align	2
 1203              	.L72:
 1204 0088 00000000 		.word	crc8_table
 1205              		.cfi_endproc
 1206              	.LFE74:
 1207              		.size	pi_send_frame, .-pi_send_frame
 1208              		.text
 1209              	.Letext0:
 1210              		.file 2 "c:\\program files (x86)\\cypress\\psoc creator\\4.4\\psoc creator\\import\\gnu\\arm\\5.4.
 1211              		.file 3 "c:\\program files (x86)\\cypress\\psoc creator\\4.4\\psoc creator\\import\\gnu\\arm\\5.4.
 1212              		.file 4 "pi_comms.h"
 1213              		.file 5 "Generated_Source\\PSoC5/core_cm3.h"