ARM GAS  C:\Users\JENNEW~1\AppData\Local\Temp\ccQ6CogY.s 			page 1


   1              		.syntax unified
   2              		.cpu cortex-m3
   3              		.fpu softvfp
   4              		.eabi_attribute 20, 1
   5              		.eabi_attribute 21, 1
   6              		.eabi_attribute 23, 3
   7              		.eabi_attribute 24, 1
   8              		.eabi_attribute 25, 1
   9              		.eabi_attribute 26, 1
  10              		.eabi_attribute 30, 6
  11              		.eabi_attribute 34, 1
  12              		.eabi_attribute 18, 4
  13              		.thumb
  14              		.syntax unified
  15              		.file	"sbc_comms.c"
  16              		.text
  17              	.Ltext0:
  18              		.cfi_sections	.debug_frame
  19              		.section	.rodata
  20              		.align	2
  21              		.type	crc8_table, %object
  22              		.size	crc8_table, 256
  23              	crc8_table:
  24 0000 00       		.byte	0
  25 0001 07       		.byte	7
  26 0002 0E       		.byte	14
  27 0003 09       		.byte	9
  28 0004 1C       		.byte	28
  29 0005 1B       		.byte	27
  30 0006 12       		.byte	18
  31 0007 15       		.byte	21
  32 0008 38       		.byte	56
  33 0009 3F       		.byte	63
  34 000a 36       		.byte	54
  35 000b 31       		.byte	49
  36 000c 24       		.byte	36
  37 000d 23       		.byte	35
  38 000e 2A       		.byte	42
  39 000f 2D       		.byte	45
  40 0010 70       		.byte	112
  41 0011 77       		.byte	119
  42 0012 7E       		.byte	126
  43 0013 79       		.byte	121
  44 0014 6C       		.byte	108
  45 0015 6B       		.byte	107
  46 0016 62       		.byte	98
  47 0017 65       		.byte	101
  48 0018 48       		.byte	72
  49 0019 4F       		.byte	79
  50 001a 46       		.byte	70
  51 001b 41       		.byte	65
  52 001c 54       		.byte	84
  53 001d 53       		.byte	83
  54 001e 5A       		.byte	90
  55 001f 5D       		.byte	93
  56 0020 E0       		.byte	-32
  57 0021 E7       		.byte	-25
ARM GAS  C:\Users\JENNEW~1\AppData\Local\Temp\ccQ6CogY.s 			page 2


  58 0022 EE       		.byte	-18
  59 0023 E9       		.byte	-23
  60 0024 FC       		.byte	-4
  61 0025 FB       		.byte	-5
  62 0026 F2       		.byte	-14
  63 0027 F5       		.byte	-11
  64 0028 D8       		.byte	-40
  65 0029 DF       		.byte	-33
  66 002a D6       		.byte	-42
  67 002b D1       		.byte	-47
  68 002c C4       		.byte	-60
  69 002d C3       		.byte	-61
  70 002e CA       		.byte	-54
  71 002f CD       		.byte	-51
  72 0030 90       		.byte	-112
  73 0031 97       		.byte	-105
  74 0032 9E       		.byte	-98
  75 0033 99       		.byte	-103
  76 0034 8C       		.byte	-116
  77 0035 8B       		.byte	-117
  78 0036 82       		.byte	-126
  79 0037 85       		.byte	-123
  80 0038 A8       		.byte	-88
  81 0039 AF       		.byte	-81
  82 003a A6       		.byte	-90
  83 003b A1       		.byte	-95
  84 003c B4       		.byte	-76
  85 003d B3       		.byte	-77
  86 003e BA       		.byte	-70
  87 003f BD       		.byte	-67
  88 0040 C7       		.byte	-57
  89 0041 C0       		.byte	-64
  90 0042 C9       		.byte	-55
  91 0043 CE       		.byte	-50
  92 0044 DB       		.byte	-37
  93 0045 DC       		.byte	-36
  94 0046 D5       		.byte	-43
  95 0047 D2       		.byte	-46
  96 0048 FF       		.byte	-1
  97 0049 F8       		.byte	-8
  98 004a F1       		.byte	-15
  99 004b F6       		.byte	-10
 100 004c E3       		.byte	-29
 101 004d E4       		.byte	-28
 102 004e ED       		.byte	-19
 103 004f EA       		.byte	-22
 104 0050 B7       		.byte	-73
 105 0051 B0       		.byte	-80
 106 0052 B9       		.byte	-71
 107 0053 BE       		.byte	-66
 108 0054 AB       		.byte	-85
 109 0055 AC       		.byte	-84
 110 0056 A5       		.byte	-91
 111 0057 A2       		.byte	-94
 112 0058 8F       		.byte	-113
 113 0059 88       		.byte	-120
 114 005a 81       		.byte	-127
ARM GAS  C:\Users\JENNEW~1\AppData\Local\Temp\ccQ6CogY.s 			page 3


 115 005b 86       		.byte	-122
 116 005c 93       		.byte	-109
 117 005d 94       		.byte	-108
 118 005e 9D       		.byte	-99
 119 005f 9A       		.byte	-102
 120 0060 27       		.byte	39
 121 0061 20       		.byte	32
 122 0062 29       		.byte	41
 123 0063 2E       		.byte	46
 124 0064 3B       		.byte	59
 125 0065 3C       		.byte	60
 126 0066 35       		.byte	53
 127 0067 32       		.byte	50
 128 0068 1F       		.byte	31
 129 0069 18       		.byte	24
 130 006a 11       		.byte	17
 131 006b 16       		.byte	22
 132 006c 03       		.byte	3
 133 006d 04       		.byte	4
 134 006e 0D       		.byte	13
 135 006f 0A       		.byte	10
 136 0070 57       		.byte	87
 137 0071 50       		.byte	80
 138 0072 59       		.byte	89
 139 0073 5E       		.byte	94
 140 0074 4B       		.byte	75
 141 0075 4C       		.byte	76
 142 0076 45       		.byte	69
 143 0077 42       		.byte	66
 144 0078 6F       		.byte	111
 145 0079 68       		.byte	104
 146 007a 61       		.byte	97
 147 007b 66       		.byte	102
 148 007c 73       		.byte	115
 149 007d 74       		.byte	116
 150 007e 7D       		.byte	125
 151 007f 7A       		.byte	122
 152 0080 89       		.byte	-119
 153 0081 8E       		.byte	-114
 154 0082 87       		.byte	-121
 155 0083 80       		.byte	-128
 156 0084 95       		.byte	-107
 157 0085 92       		.byte	-110
 158 0086 9B       		.byte	-101
 159 0087 9C       		.byte	-100
 160 0088 B1       		.byte	-79
 161 0089 B6       		.byte	-74
 162 008a BF       		.byte	-65
 163 008b B8       		.byte	-72
 164 008c AD       		.byte	-83
 165 008d AA       		.byte	-86
 166 008e A3       		.byte	-93
 167 008f A4       		.byte	-92
 168 0090 F9       		.byte	-7
 169 0091 FE       		.byte	-2
 170 0092 F7       		.byte	-9
 171 0093 F0       		.byte	-16
ARM GAS  C:\Users\JENNEW~1\AppData\Local\Temp\ccQ6CogY.s 			page 4


 172 0094 E5       		.byte	-27
 173 0095 E2       		.byte	-30
 174 0096 EB       		.byte	-21
 175 0097 EC       		.byte	-20
 176 0098 C1       		.byte	-63
 177 0099 C6       		.byte	-58
 178 009a CF       		.byte	-49
 179 009b C8       		.byte	-56
 180 009c DD       		.byte	-35
 181 009d DA       		.byte	-38
 182 009e D3       		.byte	-45
 183 009f D4       		.byte	-44
 184 00a0 69       		.byte	105
 185 00a1 6E       		.byte	110
 186 00a2 67       		.byte	103
 187 00a3 60       		.byte	96
 188 00a4 75       		.byte	117
 189 00a5 72       		.byte	114
 190 00a6 7B       		.byte	123
 191 00a7 7C       		.byte	124
 192 00a8 51       		.byte	81
 193 00a9 56       		.byte	86
 194 00aa 5F       		.byte	95
 195 00ab 58       		.byte	88
 196 00ac 4D       		.byte	77
 197 00ad 4A       		.byte	74
 198 00ae 43       		.byte	67
 199 00af 44       		.byte	68
 200 00b0 19       		.byte	25
 201 00b1 1E       		.byte	30
 202 00b2 17       		.byte	23
 203 00b3 10       		.byte	16
 204 00b4 05       		.byte	5
 205 00b5 02       		.byte	2
 206 00b6 0B       		.byte	11
 207 00b7 0C       		.byte	12
 208 00b8 21       		.byte	33
 209 00b9 26       		.byte	38
 210 00ba 2F       		.byte	47
 211 00bb 28       		.byte	40
 212 00bc 3D       		.byte	61
 213 00bd 3A       		.byte	58
 214 00be 33       		.byte	51
 215 00bf 34       		.byte	52
 216 00c0 4E       		.byte	78
 217 00c1 49       		.byte	73
 218 00c2 40       		.byte	64
 219 00c3 47       		.byte	71
 220 00c4 52       		.byte	82
 221 00c5 55       		.byte	85
 222 00c6 5C       		.byte	92
 223 00c7 5B       		.byte	91
 224 00c8 76       		.byte	118
 225 00c9 71       		.byte	113
 226 00ca 78       		.byte	120
 227 00cb 7F       		.byte	127
 228 00cc 6A       		.byte	106
ARM GAS  C:\Users\JENNEW~1\AppData\Local\Temp\ccQ6CogY.s 			page 5


 229 00cd 6D       		.byte	109
 230 00ce 64       		.byte	100
 231 00cf 63       		.byte	99
 232 00d0 3E       		.byte	62
 233 00d1 39       		.byte	57
 234 00d2 30       		.byte	48
 235 00d3 37       		.byte	55
 236 00d4 22       		.byte	34
 237 00d5 25       		.byte	37
 238 00d6 2C       		.byte	44
 239 00d7 2B       		.byte	43
 240 00d8 06       		.byte	6
 241 00d9 01       		.byte	1
 242 00da 08       		.byte	8
 243 00db 0F       		.byte	15
 244 00dc 1A       		.byte	26
 245 00dd 1D       		.byte	29
 246 00de 14       		.byte	20
 247 00df 13       		.byte	19
 248 00e0 AE       		.byte	-82
 249 00e1 A9       		.byte	-87
 250 00e2 A0       		.byte	-96
 251 00e3 A7       		.byte	-89
 252 00e4 B2       		.byte	-78
 253 00e5 B5       		.byte	-75
 254 00e6 BC       		.byte	-68
 255 00e7 BB       		.byte	-69
 256 00e8 96       		.byte	-106
 257 00e9 91       		.byte	-111
 258 00ea 98       		.byte	-104
 259 00eb 9F       		.byte	-97
 260 00ec 8A       		.byte	-118
 261 00ed 8D       		.byte	-115
 262 00ee 84       		.byte	-124
 263 00ef 83       		.byte	-125
 264 00f0 DE       		.byte	-34
 265 00f1 D9       		.byte	-39
 266 00f2 D0       		.byte	-48
 267 00f3 D7       		.byte	-41
 268 00f4 C2       		.byte	-62
 269 00f5 C5       		.byte	-59
 270 00f6 CC       		.byte	-52
 271 00f7 CB       		.byte	-53
 272 00f8 E6       		.byte	-26
 273 00f9 E1       		.byte	-31
 274 00fa E8       		.byte	-24
 275 00fb EF       		.byte	-17
 276 00fc FA       		.byte	-6
 277 00fd FD       		.byte	-3
 278 00fe F4       		.byte	-12
 279 00ff F3       		.byte	-13
 280              		.bss
 281              	sbc_rx_state:
 282 0000 00       		.space	1
 283              	s_type:
 284 0001 00       		.space	1
 285              	s_len:
ARM GAS  C:\Users\JENNEW~1\AppData\Local\Temp\ccQ6CogY.s 			page 6


 286 0002 00       		.space	1
 287              	s_idx:
 288 0003 00       		.space	1
 289              		.align	2
 290              	s_buf:
 291 0004 00000000 		.space	64
 291      00000000 
 291      00000000 
 291      00000000 
 291      00000000 
 292              		.align	2
 293              	s_centroid:
 294 0044 00000000 		.space	24
 294      00000000 
 294      00000000 
 294      00000000 
 294      00000000 
 295              	s_fresh_bits:
 296 005c 00       		.space	1
 297 005d 000000   		.align	2
 298              	s_last_rx_ms:
 299 0060 00000000 		.space	8
 299      00000000 
 300              		.align	2
 301              	s_last_centroid_dt_ms:
 302 0068 00000000 		.space	4
 303              		.align	1
 304              	s_crc_err:
 305 006c 0000     		.space	2
 306              		.align	1
 307              	s_uart_err:
 308 006e 0000     		.space	2
 309              		.align	1
 310              	s_unknown_magic:
 311 0070 0000     		.space	2
 312 0072 0000     		.align	2
 313              	s_rx_pkt_count:
 314 0074 00000000 		.space	4
 315              		.section	.text.sbc_init,"ax",%progbits
 316              		.align	2
 317              		.global	sbc_init
 318              		.thumb
 319              		.thumb_func
 320              		.type	sbc_init, %function
 321              	sbc_init:
 322              	.LFB63:
 323              		.file 1 "sbc_comms.c"
   1:sbc_comms.c   **** /* ========================================
   2:sbc_comms.c   ****  *
   3:sbc_comms.c   ****  * Copyright Hamish Johnson, 2026
   4:sbc_comms.c   ****  * All Rights Reserved
   5:sbc_comms.c   ****  * UNPUBLISHED, LICENSED SOFTWARE.
   6:sbc_comms.c   ****  *
   7:sbc_comms.c   ****  * CONFIDENTIAL AND PROPRIETARY INFORMATION
   8:sbc_comms.c   ****  * WHICH IS THE PROPERTY OF 
   9:sbc_comms.c   ****  * Quantum Internet Systems Lab (QISL),
  10:sbc_comms.c   ****  * Department of Physics, SFU, Canada.
ARM GAS  C:\Users\JENNEW~1\AppData\Local\Temp\ccQ6CogY.s 			page 7


  11:sbc_comms.c   ****  *
  12:sbc_comms.c   ****  * Author: Hamish Johnson (2026)
  13:sbc_comms.c   ****  *
  14:sbc_comms.c   ****  * ========================================
  15:sbc_comms.c   ****  *
  16:sbc_comms.c   ****  * This code is for inter-device communications with a Raspberry Pi over UART.
  17:sbc_comms.c   **** */
  18:sbc_comms.c   **** 
  19:sbc_comms.c   **** #include "sbc_comms.h"
  20:sbc_comms.c   **** #include <string.h>
  21:sbc_comms.c   **** #include <project.h>
  22:sbc_comms.c   **** 
  23:sbc_comms.c   **** extern volatile uint32_t g_tick_ms;  // PSoC ms timer
  24:sbc_comms.c   **** 
  25:sbc_comms.c   **** // Copied for Pi software codebase
  26:sbc_comms.c   **** // We use a Cyclic Redundancy Check (CRC).
  27:sbc_comms.c   **** // The CRC takes the whole message as one binary number, divides it by 0x07
  28:sbc_comms.c   **** // using XOR operations to be left with the remainder. A table is used instead
  29:sbc_comms.c   **** // of computing each of the possible bit-wise division operations.
  30:sbc_comms.c   **** static const uint8_t crc8_table[256] = {
  31:sbc_comms.c   ****     0x00,0x07,0x0E,0x09,0x1C,0x1B,0x12,0x15,
  32:sbc_comms.c   ****     0x38,0x3F,0x36,0x31,0x24,0x23,0x2A,0x2D,
  33:sbc_comms.c   ****     0x70,0x77,0x7E,0x79,0x6C,0x6B,0x62,0x65,
  34:sbc_comms.c   ****     0x48,0x4F,0x46,0x41,0x54,0x53,0x5A,0x5D,
  35:sbc_comms.c   ****     0xE0,0xE7,0xEE,0xE9,0xFC,0xFB,0xF2,0xF5,
  36:sbc_comms.c   ****     0xD8,0xDF,0xD6,0xD1,0xC4,0xC3,0xCA,0xCD,
  37:sbc_comms.c   ****     0x90,0x97,0x9E,0x99,0x8C,0x8B,0x82,0x85,
  38:sbc_comms.c   ****     0xA8,0xAF,0xA6,0xA1,0xB4,0xB3,0xBA,0xBD,
  39:sbc_comms.c   ****     0xC7,0xC0,0xC9,0xCE,0xDB,0xDC,0xD5,0xD2,
  40:sbc_comms.c   ****     0xFF,0xF8,0xF1,0xF6,0xE3,0xE4,0xED,0xEA,
  41:sbc_comms.c   ****     0xB7,0xB0,0xB9,0xBE,0xAB,0xAC,0xA5,0xA2,
  42:sbc_comms.c   ****     0x8F,0x88,0x81,0x86,0x93,0x94,0x9D,0x9A,
  43:sbc_comms.c   ****     0x27,0x20,0x29,0x2E,0x3B,0x3C,0x35,0x32,
  44:sbc_comms.c   ****     0x1F,0x18,0x11,0x16,0x03,0x04,0x0D,0x0A,
  45:sbc_comms.c   ****     0x57,0x50,0x59,0x5E,0x4B,0x4C,0x45,0x42,
  46:sbc_comms.c   ****     0x6F,0x68,0x61,0x66,0x73,0x74,0x7D,0x7A,
  47:sbc_comms.c   ****     0x89,0x8E,0x87,0x80,0x95,0x92,0x9B,0x9C,
  48:sbc_comms.c   ****     0xB1,0xB6,0xBF,0xB8,0xAD,0xAA,0xA3,0xA4,
  49:sbc_comms.c   ****     0xF9,0xFE,0xF7,0xF0,0xE5,0xE2,0xEB,0xEC,
  50:sbc_comms.c   ****     0xC1,0xC6,0xCF,0xC8,0xDD,0xDA,0xD3,0xD4,
  51:sbc_comms.c   ****     0x69,0x6E,0x67,0x60,0x75,0x72,0x7B,0x7C,
  52:sbc_comms.c   ****     0x51,0x56,0x5F,0x58,0x4D,0x4A,0x43,0x44,
  53:sbc_comms.c   ****     0x19,0x1E,0x17,0x10,0x05,0x02,0x0B,0x0C,
  54:sbc_comms.c   ****     0x21,0x26,0x2F,0x28,0x3D,0x3A,0x33,0x34,
  55:sbc_comms.c   ****     0x4E,0x49,0x40,0x47,0x52,0x55,0x5C,0x5B,
  56:sbc_comms.c   ****     0x76,0x71,0x78,0x7F,0x6A,0x6D,0x64,0x63,
  57:sbc_comms.c   ****     0x3E,0x39,0x30,0x37,0x22,0x25,0x2C,0x2B,
  58:sbc_comms.c   ****     0x06,0x01,0x08,0x0F,0x1A,0x1D,0x14,0x13,
  59:sbc_comms.c   ****     0xAE,0xA9,0xA0,0xA7,0xB2,0xB5,0xBC,0xBB,
  60:sbc_comms.c   ****     0x96,0x91,0x98,0x9F,0x8A,0x8D,0x84,0x83,
  61:sbc_comms.c   ****     0xDE,0xD9,0xD0,0xD7,0xC2,0xC5,0xCC,0xCB,
  62:sbc_comms.c   ****     0xE6,0xE1,0xE8,0xEF,0xFA,0xFD,0xF4,0xF3,
  63:sbc_comms.c   **** };
  64:sbc_comms.c   **** 
  65:sbc_comms.c   **** #define SBC_CENTROID_LEN  12u   // uint32 t_ms + 2*int16 + 2*uint16
  66:sbc_comms.c   **** #define SBC_RX_MAX        64u
  67:sbc_comms.c   **** 
ARM GAS  C:\Users\JENNEW~1\AppData\Local\Temp\ccQ6CogY.s 			page 8


  68:sbc_comms.c   **** // Packet parser section enum, initialized to magic byte
  69:sbc_comms.c   **** // Expects:
  70:sbc_comms.c   **** // [MAGIC] [TYPE] [LEN] ... [PAYLOAD] ... [CRC]
  71:sbc_comms.c   **** static enum { S_MAGIC, S_TYPE, S_LEN, S_PAYLOAD, S_CRC } sbc_rx_state = S_MAGIC;
  72:sbc_comms.c   **** static uint8_t              s_type;  // Type loaded into here
  73:sbc_comms.c   **** static uint8_t              s_len;   // Length loaded into here
  74:sbc_comms.c   **** static uint8_t              s_idx;
  75:sbc_comms.c   **** static uint8_t              s_buf[SBC_RX_MAX];  // Payload parsed into here!
  76:sbc_comms.c   **** // Per centroid stream
  77:sbc_comms.c   **** static payload_centroid_t   s_centroid[STREAM_COUNTS];  // Payload per centroid
  78:sbc_comms.c   **** static volatile uint8_t     s_fresh_bits;  // bit 0 for coarse and bit 1 for fine
  79:sbc_comms.c   **** static uint32_t             s_last_rx_ms[STREAM_COUNTS];
  80:sbc_comms.c   **** static uint16_t             s_last_centroid_dt_ms[STREAM_COUNTS];
  81:sbc_comms.c   **** // Global telemetry for communications.
  82:sbc_comms.c   **** static uint16_t s_crc_err             = 0u;  // inter-device communications.
  83:sbc_comms.c   **** static uint16_t s_uart_err            = 0u;
  84:sbc_comms.c   **** static uint16_t s_unknown_magic       = 0u;
  85:sbc_comms.c   **** static uint32_t s_rx_pkt_count        = 0u;
  86:sbc_comms.c   **** 
  87:sbc_comms.c   **** void sbc_init(void)
  88:sbc_comms.c   **** {
 324              		.loc 1 88 0
 325              		.cfi_startproc
 326              		@ args = 0, pretend = 0, frame = 8
 327              		@ frame_needed = 1, uses_anonymous_args = 0
 328              		@ link register save eliminated.
 329 0000 80B4     		push	{r7}
 330              		.cfi_def_cfa_offset 4
 331              		.cfi_offset 7, -4
 332 0002 83B0     		sub	sp, sp, #12
 333              		.cfi_def_cfa_offset 16
 334 0004 00AF     		add	r7, sp, #0
 335              		.cfi_def_cfa_register 7
  89:sbc_comms.c   ****     // Initialize parameters for SBC communications.
  90:sbc_comms.c   ****     sbc_rx_state    = S_MAGIC;
 336              		.loc 1 90 0
 337 0006 164B     		ldr	r3, .L4
 338 0008 0022     		movs	r2, #0
 339 000a 1A70     		strb	r2, [r3]
  91:sbc_comms.c   ****     s_idx          = 0u;
 340              		.loc 1 91 0
 341 000c 154B     		ldr	r3, .L4+4
 342 000e 0022     		movs	r2, #0
 343 0010 1A70     		strb	r2, [r3]
  92:sbc_comms.c   ****     s_fresh_bits   = 0u;
 344              		.loc 1 92 0
 345 0012 154B     		ldr	r3, .L4+8
 346 0014 0022     		movs	r2, #0
 347 0016 1A70     		strb	r2, [r3]
  93:sbc_comms.c   ****     s_crc_err      = 0u;
 348              		.loc 1 93 0
 349 0018 144B     		ldr	r3, .L4+12
 350 001a 0022     		movs	r2, #0
 351 001c 1A80     		strh	r2, [r3]	@ movhi
  94:sbc_comms.c   ****     s_uart_err     = 0u;
 352              		.loc 1 94 0
 353 001e 144B     		ldr	r3, .L4+16
ARM GAS  C:\Users\JENNEW~1\AppData\Local\Temp\ccQ6CogY.s 			page 9


 354 0020 0022     		movs	r2, #0
 355 0022 1A80     		strh	r2, [r3]	@ movhi
  95:sbc_comms.c   ****     s_unknown_magic = 0u;
 356              		.loc 1 95 0
 357 0024 134B     		ldr	r3, .L4+20
 358 0026 0022     		movs	r2, #0
 359 0028 1A80     		strh	r2, [r3]	@ movhi
  96:sbc_comms.c   ****     s_rx_pkt_count = 0u;
 360              		.loc 1 96 0
 361 002a 134B     		ldr	r3, .L4+24
 362 002c 0022     		movs	r2, #0
 363 002e 1A60     		str	r2, [r3]
 364              	.LBB2:
  97:sbc_comms.c   ****     // Init each of the N centroid streams
  98:sbc_comms.c   ****     for (uint8_t i = 0u; i < STREAM_COUNTS; i++) {
 365              		.loc 1 98 0
 366 0030 0023     		movs	r3, #0
 367 0032 FB71     		strb	r3, [r7, #7]
 368 0034 0CE0     		b	.L2
 369              	.L3:
  99:sbc_comms.c   ****         s_last_rx_ms[i]          = 0u;
 370              		.loc 1 99 0 discriminator 3
 371 0036 FB79     		ldrb	r3, [r7, #7]	@ zero_extendqisi2
 372 0038 104A     		ldr	r2, .L4+28
 373 003a 0021     		movs	r1, #0
 374 003c 42F82310 		str	r1, [r2, r3, lsl #2]
 100:sbc_comms.c   ****         s_last_centroid_dt_ms[i] = 0u;
 375              		.loc 1 100 0 discriminator 3
 376 0040 FB79     		ldrb	r3, [r7, #7]	@ zero_extendqisi2
 377 0042 0F4A     		ldr	r2, .L4+32
 378 0044 0021     		movs	r1, #0
 379 0046 22F81310 		strh	r1, [r2, r3, lsl #1]	@ movhi
  98:sbc_comms.c   ****         s_last_rx_ms[i]          = 0u;
 380              		.loc 1 98 0 discriminator 3
 381 004a FB79     		ldrb	r3, [r7, #7]	@ zero_extendqisi2
 382 004c 0133     		adds	r3, r3, #1
 383 004e FB71     		strb	r3, [r7, #7]
 384              	.L2:
  98:sbc_comms.c   ****         s_last_rx_ms[i]          = 0u;
 385              		.loc 1 98 0 is_stmt 0 discriminator 1
 386 0050 FB79     		ldrb	r3, [r7, #7]	@ zero_extendqisi2
 387 0052 012B     		cmp	r3, #1
 388 0054 EFD9     		bls	.L3
 389              	.LBE2:
 101:sbc_comms.c   ****     }
 102:sbc_comms.c   **** }
 390              		.loc 1 102 0 is_stmt 1
 391 0056 00BF     		nop
 392 0058 0C37     		adds	r7, r7, #12
 393              		.cfi_def_cfa_offset 4
 394 005a BD46     		mov	sp, r7
 395              		.cfi_def_cfa_register 13
 396              		@ sp needed
 397 005c 80BC     		pop	{r7}
 398              		.cfi_restore 7
 399              		.cfi_def_cfa_offset 0
 400 005e 7047     		bx	lr
ARM GAS  C:\Users\JENNEW~1\AppData\Local\Temp\ccQ6CogY.s 			page 10


 401              	.L5:
 402              		.align	2
 403              	.L4:
 404 0060 00000000 		.word	sbc_rx_state
 405 0064 03000000 		.word	s_idx
 406 0068 5C000000 		.word	s_fresh_bits
 407 006c 6C000000 		.word	s_crc_err
 408 0070 6E000000 		.word	s_uart_err
 409 0074 70000000 		.word	s_unknown_magic
 410 0078 74000000 		.word	s_rx_pkt_count
 411 007c 60000000 		.word	s_last_rx_ms
 412 0080 68000000 		.word	s_last_centroid_dt_ms
 413              		.cfi_endproc
 414              	.LFE63:
 415              		.size	sbc_init, .-sbc_init
 416              		.section	.text.decode_centroid,"ax",%progbits
 417              		.align	2
 418              		.thumb
 419              		.thumb_func
 420              		.type	decode_centroid, %function
 421              	decode_centroid:
 422              	.LFB64:
 103:sbc_comms.c   **** 
 104:sbc_comms.c   **** static void decode_centroid(uint8_t stream, const uint8_t *p)
 105:sbc_comms.c   **** {
 423              		.loc 1 105 0
 424              		.cfi_startproc
 425              		@ args = 0, pretend = 0, frame = 16
 426              		@ frame_needed = 1, uses_anonymous_args = 0
 427 0000 80B5     		push	{r7, lr}
 428              		.cfi_def_cfa_offset 8
 429              		.cfi_offset 7, -8
 430              		.cfi_offset 14, -4
 431 0002 84B0     		sub	sp, sp, #16
 432              		.cfi_def_cfa_offset 24
 433 0004 00AF     		add	r7, sp, #0
 434              		.cfi_def_cfa_register 7
 435 0006 0346     		mov	r3, r0
 436 0008 3960     		str	r1, [r7]
 437 000a FB71     		strb	r3, [r7, #7]
 106:sbc_comms.c   ****     // Store time since last centroid arrived.
 107:sbc_comms.c   ****     uint32_t now = g_tick_ms;
 438              		.loc 1 107 0
 439 000c 3C4B     		ldr	r3, .L10
 440 000e 1B68     		ldr	r3, [r3]
 441 0010 FB60     		str	r3, [r7, #12]
 108:sbc_comms.c   ****     if (s_last_rx_ms[stream] != 0u) {
 442              		.loc 1 108 0
 443 0012 FB79     		ldrb	r3, [r7, #7]	@ zero_extendqisi2
 444 0014 3B4A     		ldr	r2, .L10+4
 445 0016 52F82330 		ldr	r3, [r2, r3, lsl #2]
 446 001a 002B     		cmp	r3, #0
 447 001c 13D0     		beq	.L7
 448              	.LBB3:
 109:sbc_comms.c   ****         uint32_t dt = now - s_last_rx_ms[stream];
 449              		.loc 1 109 0
 450 001e FB79     		ldrb	r3, [r7, #7]	@ zero_extendqisi2
ARM GAS  C:\Users\JENNEW~1\AppData\Local\Temp\ccQ6CogY.s 			page 11


 451 0020 384A     		ldr	r2, .L10+4
 452 0022 52F82330 		ldr	r3, [r2, r3, lsl #2]
 453 0026 FA68     		ldr	r2, [r7, #12]
 454 0028 D31A     		subs	r3, r2, r3
 455 002a BB60     		str	r3, [r7, #8]
 110:sbc_comms.c   ****         s_last_centroid_dt_ms[stream] = (dt > 0xFFFFu)  // Clamp to uint16
 456              		.loc 1 110 0
 457 002c FB79     		ldrb	r3, [r7, #7]	@ zero_extendqisi2
 458 002e BA68     		ldr	r2, [r7, #8]
 459 0030 B2F5803F 		cmp	r2, #65536
 460 0034 02D2     		bcs	.L8
 461              		.loc 1 110 0 is_stmt 0 discriminator 1
 462 0036 BA68     		ldr	r2, [r7, #8]
 463 0038 92B2     		uxth	r2, r2
 464 003a 01E0     		b	.L9
 465              	.L8:
 466              		.loc 1 110 0 discriminator 2
 467 003c 4FF6FF72 		movw	r2, #65535
 468              	.L9:
 469              		.loc 1 110 0 discriminator 4
 470 0040 3149     		ldr	r1, .L10+8
 471 0042 21F81320 		strh	r2, [r1, r3, lsl #1]	@ movhi
 472              	.L7:
 473              	.LBE3:
 111:sbc_comms.c   ****                                       ? 0xFFFFu         // Max to 65 seconds
 112:sbc_comms.c   ****                                       : (uint16_t)dt;   // Cast down
 113:sbc_comms.c   ****     }
 114:sbc_comms.c   ****     // COpy into array of centroid structs
 115:sbc_comms.c   ****     memcpy(&s_centroid[stream].t_ms,  p +  0, 4);
 474              		.loc 1 115 0 is_stmt 1
 475 0046 FA79     		ldrb	r2, [r7, #7]	@ zero_extendqisi2
 476 0048 1346     		mov	r3, r2
 477 004a 5B00     		lsls	r3, r3, #1
 478 004c 1344     		add	r3, r3, r2
 479 004e 9B00     		lsls	r3, r3, #2
 480 0050 2E4A     		ldr	r2, .L10+12
 481 0052 1344     		add	r3, r3, r2
 482 0054 0422     		movs	r2, #4
 483 0056 3968     		ldr	r1, [r7]
 484 0058 1846     		mov	r0, r3
 485 005a FFF7FEFF 		bl	memcpy
 116:sbc_comms.c   ****     memcpy(&s_centroid[stream].cx,    p +  4, 2);
 486              		.loc 1 116 0
 487 005e FA79     		ldrb	r2, [r7, #7]	@ zero_extendqisi2
 488 0060 1346     		mov	r3, r2
 489 0062 5B00     		lsls	r3, r3, #1
 490 0064 1344     		add	r3, r3, r2
 491 0066 9B00     		lsls	r3, r3, #2
 492 0068 284A     		ldr	r2, .L10+12
 493 006a 1344     		add	r3, r3, r2
 494 006c 181D     		adds	r0, r3, #4
 495 006e 3B68     		ldr	r3, [r7]
 496 0070 0433     		adds	r3, r3, #4
 497 0072 0222     		movs	r2, #2
 498 0074 1946     		mov	r1, r3
 499 0076 FFF7FEFF 		bl	memcpy
 117:sbc_comms.c   ****     memcpy(&s_centroid[stream].cy,    p +  6, 2);
ARM GAS  C:\Users\JENNEW~1\AppData\Local\Temp\ccQ6CogY.s 			page 12


 500              		.loc 1 117 0
 501 007a FA79     		ldrb	r2, [r7, #7]	@ zero_extendqisi2
 502 007c 1346     		mov	r3, r2
 503 007e 5B00     		lsls	r3, r3, #1
 504 0080 1344     		add	r3, r3, r2
 505 0082 9B00     		lsls	r3, r3, #2
 506 0084 214A     		ldr	r2, .L10+12
 507 0086 1344     		add	r3, r3, r2
 508 0088 981D     		adds	r0, r3, #6
 509 008a 3B68     		ldr	r3, [r7]
 510 008c 0633     		adds	r3, r3, #6
 511 008e 0222     		movs	r2, #2
 512 0090 1946     		mov	r1, r3
 513 0092 FFF7FEFF 		bl	memcpy
 118:sbc_comms.c   ****     memcpy(&s_centroid[stream].cxerr, p +  8, 2);
 514              		.loc 1 118 0
 515 0096 FA79     		ldrb	r2, [r7, #7]	@ zero_extendqisi2
 516 0098 1346     		mov	r3, r2
 517 009a 5B00     		lsls	r3, r3, #1
 518 009c 1344     		add	r3, r3, r2
 519 009e 9B00     		lsls	r3, r3, #2
 520 00a0 0833     		adds	r3, r3, #8
 521 00a2 1A4A     		ldr	r2, .L10+12
 522 00a4 9818     		adds	r0, r3, r2
 523 00a6 3B68     		ldr	r3, [r7]
 524 00a8 0833     		adds	r3, r3, #8
 525 00aa 0222     		movs	r2, #2
 526 00ac 1946     		mov	r1, r3
 527 00ae FFF7FEFF 		bl	memcpy
 119:sbc_comms.c   ****     memcpy(&s_centroid[stream].cyerr, p + 10, 2);
 528              		.loc 1 119 0
 529 00b2 FA79     		ldrb	r2, [r7, #7]	@ zero_extendqisi2
 530 00b4 1346     		mov	r3, r2
 531 00b6 5B00     		lsls	r3, r3, #1
 532 00b8 1344     		add	r3, r3, r2
 533 00ba 9B00     		lsls	r3, r3, #2
 534 00bc 0833     		adds	r3, r3, #8
 535 00be 134A     		ldr	r2, .L10+12
 536 00c0 1344     		add	r3, r3, r2
 537 00c2 981C     		adds	r0, r3, #2
 538 00c4 3B68     		ldr	r3, [r7]
 539 00c6 0A33     		adds	r3, r3, #10
 540 00c8 0222     		movs	r2, #2
 541 00ca 1946     		mov	r1, r3
 542 00cc FFF7FEFF 		bl	memcpy
 120:sbc_comms.c   ****     // Pip freshness into the streams byte
 121:sbc_comms.c   ****     s_fresh_bits |= (uint8_t)(1u << stream);
 543              		.loc 1 121 0
 544 00d0 FB79     		ldrb	r3, [r7, #7]	@ zero_extendqisi2
 545 00d2 0122     		movs	r2, #1
 546 00d4 02FA03F3 		lsl	r3, r2, r3
 547 00d8 5AB2     		sxtb	r2, r3
 548 00da 0D4B     		ldr	r3, .L10+16
 549 00dc 1B78     		ldrb	r3, [r3]
 550 00de DBB2     		uxtb	r3, r3
 551 00e0 5BB2     		sxtb	r3, r3
 552 00e2 1343     		orrs	r3, r3, r2
ARM GAS  C:\Users\JENNEW~1\AppData\Local\Temp\ccQ6CogY.s 			page 13


 553 00e4 5BB2     		sxtb	r3, r3
 554 00e6 DAB2     		uxtb	r2, r3
 555 00e8 094B     		ldr	r3, .L10+16
 556 00ea 1A70     		strb	r2, [r3]
 122:sbc_comms.c   ****     s_last_rx_ms[stream] = now;  // Update last heard from
 557              		.loc 1 122 0
 558 00ec FB79     		ldrb	r3, [r7, #7]	@ zero_extendqisi2
 559 00ee 0549     		ldr	r1, .L10+4
 560 00f0 FA68     		ldr	r2, [r7, #12]
 561 00f2 41F82320 		str	r2, [r1, r3, lsl #2]
 123:sbc_comms.c   **** }
 562              		.loc 1 123 0
 563 00f6 00BF     		nop
 564 00f8 1037     		adds	r7, r7, #16
 565              		.cfi_def_cfa_offset 8
 566 00fa BD46     		mov	sp, r7
 567              		.cfi_def_cfa_register 13
 568              		@ sp needed
 569 00fc 80BD     		pop	{r7, pc}
 570              	.L11:
 571 00fe 00BF     		.align	2
 572              	.L10:
 573 0100 00000000 		.word	g_tick_ms
 574 0104 60000000 		.word	s_last_rx_ms
 575 0108 68000000 		.word	s_last_centroid_dt_ms
 576 010c 44000000 		.word	s_centroid
 577 0110 5C000000 		.word	s_fresh_bits
 578              		.cfi_endproc
 579              	.LFE64:
 580              		.size	decode_centroid, .-decode_centroid
 581              		.section	.text.sbc_on_rx_byte,"ax",%progbits
 582              		.align	2
 583              		.global	sbc_on_rx_byte
 584              		.thumb
 585              		.thumb_func
 586              		.type	sbc_on_rx_byte, %function
 587              	sbc_on_rx_byte:
 588              	.LFB65:
 124:sbc_comms.c   **** 
 125:sbc_comms.c   **** // Incoming byte parser!
 126:sbc_comms.c   **** // Parses each part of the packet structure,
 127:sbc_comms.c   **** // then calls the apropriate decoder!
 128:sbc_comms.c   **** void sbc_on_rx_byte(uint8_t b)
 129:sbc_comms.c   **** {
 589              		.loc 1 129 0
 590              		.cfi_startproc
 591              		@ args = 0, pretend = 0, frame = 16
 592              		@ frame_needed = 1, uses_anonymous_args = 0
 593 0000 80B5     		push	{r7, lr}
 594              		.cfi_def_cfa_offset 8
 595              		.cfi_offset 7, -8
 596              		.cfi_offset 14, -4
 597 0002 84B0     		sub	sp, sp, #16
 598              		.cfi_def_cfa_offset 24
 599 0004 00AF     		add	r7, sp, #0
 600              		.cfi_def_cfa_register 7
 601 0006 0346     		mov	r3, r0
ARM GAS  C:\Users\JENNEW~1\AppData\Local\Temp\ccQ6CogY.s 			page 14


 602 0008 FB71     		strb	r3, [r7, #7]
 130:sbc_comms.c   ****     // Parse incoming bytes according to expected packet structure.
 131:sbc_comms.c   ****     switch (sbc_rx_state) {
 603              		.loc 1 131 0
 604 000a 574B     		ldr	r3, .L40
 605 000c 1B78     		ldrb	r3, [r3]	@ zero_extendqisi2
 606 000e 042B     		cmp	r3, #4
 607 0010 00F2A680 		bhi	.L36
 608 0014 01A2     		adr	r2, .L15
 609 0016 52F823F0 		ldr	pc, [r2, r3, lsl #2]
 610 001a 00BF     		.p2align 2
 611              	.L15:
 612 001c 31000000 		.word	.L14+1
 613 0020 4D000000 		.word	.L16+1
 614 0024 5B000000 		.word	.L17+1
 615 0028 8F000000 		.word	.L18+1
 616 002c B7000000 		.word	.L19+1
 617              		.p2align 1
 618              	.L14:
 132:sbc_comms.c   ****         case S_MAGIC:
 133:sbc_comms.c   ****             if (b == SBC_MAGIC){
 619              		.loc 1 133 0
 620 0030 FB79     		ldrb	r3, [r7, #7]	@ zero_extendqisi2
 621 0032 AB2B     		cmp	r3, #171
 622 0034 03D1     		bne	.L20
 134:sbc_comms.c   ****                 sbc_rx_state = S_TYPE;  // Move to type parsing
 623              		.loc 1 134 0
 624 0036 4C4B     		ldr	r3, .L40
 625 0038 0122     		movs	r2, #1
 626 003a 1A70     		strb	r2, [r3]
 135:sbc_comms.c   ****             } else {
 136:sbc_comms.c   ****                 s_unknown_magic++;  // Measure of noise
 137:sbc_comms.c   ****             }
 138:sbc_comms.c   ****             break;
 627              		.loc 1 138 0
 628 003c 90E0     		b	.L13
 629              	.L20:
 136:sbc_comms.c   ****             }
 630              		.loc 1 136 0
 631 003e 4B4B     		ldr	r3, .L40+4
 632 0040 1B88     		ldrh	r3, [r3]
 633 0042 0133     		adds	r3, r3, #1
 634 0044 9AB2     		uxth	r2, r3
 635 0046 494B     		ldr	r3, .L40+4
 636 0048 1A80     		strh	r2, [r3]	@ movhi
 637              		.loc 1 138 0
 638 004a 89E0     		b	.L13
 639              	.L16:
 139:sbc_comms.c   ****         case S_TYPE:
 140:sbc_comms.c   ****             s_type = b;  // Save bye as type
 640              		.loc 1 140 0
 641 004c 484A     		ldr	r2, .L40+8
 642 004e FB79     		ldrb	r3, [r7, #7]
 643 0050 1370     		strb	r3, [r2]
 141:sbc_comms.c   ****             sbc_rx_state = S_LEN;  // Move to length parsing
 644              		.loc 1 141 0
 645 0052 454B     		ldr	r3, .L40
ARM GAS  C:\Users\JENNEW~1\AppData\Local\Temp\ccQ6CogY.s 			page 15


 646 0054 0222     		movs	r2, #2
 647 0056 1A70     		strb	r2, [r3]
 142:sbc_comms.c   ****             break;
 648              		.loc 1 142 0
 649 0058 82E0     		b	.L13
 650              	.L17:
 143:sbc_comms.c   ****         case S_LEN:
 144:sbc_comms.c   ****             s_len = b;
 651              		.loc 1 144 0
 652 005a 464A     		ldr	r2, .L40+12
 653 005c FB79     		ldrb	r3, [r7, #7]
 654 005e 1370     		strb	r3, [r2]
 145:sbc_comms.c   ****             if (s_len > SBC_RX_MAX) {
 655              		.loc 1 145 0
 656 0060 444B     		ldr	r3, .L40+12
 657 0062 1B78     		ldrb	r3, [r3]	@ zero_extendqisi2
 658 0064 402B     		cmp	r3, #64
 659 0066 03D9     		bls	.L22
 146:sbc_comms.c   ****                 sbc_rx_state = S_MAGIC;  // Bad len -> resync
 660              		.loc 1 146 0
 661 0068 3F4B     		ldr	r3, .L40
 662 006a 0022     		movs	r2, #0
 663 006c 1A70     		strb	r2, [r3]
 147:sbc_comms.c   ****             } else if (s_len == 0u) {
 148:sbc_comms.c   ****                 sbc_rx_state = S_CRC;    // 0-byte payload legal
 149:sbc_comms.c   ****             } else {
 150:sbc_comms.c   ****                 s_idx = 0u;               // Reset to start of payload
 151:sbc_comms.c   ****                 sbc_rx_state = S_PAYLOAD;  // Move to payload parsing
 152:sbc_comms.c   ****             }
 153:sbc_comms.c   ****             break;
 664              		.loc 1 153 0
 665 006e 77E0     		b	.L13
 666              	.L22:
 147:sbc_comms.c   ****             } else if (s_len == 0u) {
 667              		.loc 1 147 0
 668 0070 404B     		ldr	r3, .L40+12
 669 0072 1B78     		ldrb	r3, [r3]	@ zero_extendqisi2
 670 0074 002B     		cmp	r3, #0
 671 0076 03D1     		bne	.L24
 148:sbc_comms.c   ****             } else {
 672              		.loc 1 148 0
 673 0078 3B4B     		ldr	r3, .L40
 674 007a 0422     		movs	r2, #4
 675 007c 1A70     		strb	r2, [r3]
 676              		.loc 1 153 0
 677 007e 6FE0     		b	.L13
 678              	.L24:
 150:sbc_comms.c   ****                 sbc_rx_state = S_PAYLOAD;  // Move to payload parsing
 679              		.loc 1 150 0
 680 0080 3D4B     		ldr	r3, .L40+16
 681 0082 0022     		movs	r2, #0
 682 0084 1A70     		strb	r2, [r3]
 151:sbc_comms.c   ****             }
 683              		.loc 1 151 0
 684 0086 384B     		ldr	r3, .L40
 685 0088 0322     		movs	r2, #3
 686 008a 1A70     		strb	r2, [r3]
ARM GAS  C:\Users\JENNEW~1\AppData\Local\Temp\ccQ6CogY.s 			page 16


 687              		.loc 1 153 0
 688 008c 68E0     		b	.L13
 689              	.L18:
 154:sbc_comms.c   ****         case S_PAYLOAD:
 155:sbc_comms.c   ****             s_buf[s_idx++] = b;  // Load bytes into buffer
 690              		.loc 1 155 0
 691 008e 3A4B     		ldr	r3, .L40+16
 692 0090 1B78     		ldrb	r3, [r3]	@ zero_extendqisi2
 693 0092 5A1C     		adds	r2, r3, #1
 694 0094 D1B2     		uxtb	r1, r2
 695 0096 384A     		ldr	r2, .L40+16
 696 0098 1170     		strb	r1, [r2]
 697 009a 1946     		mov	r1, r3
 698 009c 374A     		ldr	r2, .L40+20
 699 009e FB79     		ldrb	r3, [r7, #7]
 700 00a0 5354     		strb	r3, [r2, r1]
 156:sbc_comms.c   ****             if (s_idx >= s_len){
 701              		.loc 1 156 0
 702 00a2 354B     		ldr	r3, .L40+16
 703 00a4 1A78     		ldrb	r2, [r3]	@ zero_extendqisi2
 704 00a6 334B     		ldr	r3, .L40+12
 705 00a8 1B78     		ldrb	r3, [r3]	@ zero_extendqisi2
 706 00aa 9A42     		cmp	r2, r3
 707 00ac 57D3     		bcc	.L37
 157:sbc_comms.c   ****                 sbc_rx_state = S_CRC;  // Move to CRC when reached tot length
 708              		.loc 1 157 0
 709 00ae 2E4B     		ldr	r3, .L40
 710 00b0 0422     		movs	r2, #4
 711 00b2 1A70     		strb	r2, [r3]
 158:sbc_comms.c   ****             }
 159:sbc_comms.c   ****             break;
 712              		.loc 1 159 0
 713 00b4 53E0     		b	.L37
 714              	.L19:
 715              	.LBB4:
 160:sbc_comms.c   ****         case S_CRC: {
 161:sbc_comms.c   ****             // CRC over TYPE + LEN + PAYLOAD
 162:sbc_comms.c   ****             // byte-wise XOR then CRC lookup.
 163:sbc_comms.c   ****             uint8_t calc = crc8_table[s_type];  // On type
 716              		.loc 1 163 0
 717 00b6 2E4B     		ldr	r3, .L40+8
 718 00b8 1B78     		ldrb	r3, [r3]	@ zero_extendqisi2
 719 00ba 1A46     		mov	r2, r3
 720 00bc 304B     		ldr	r3, .L40+24
 721 00be 9B5C     		ldrb	r3, [r3, r2]
 722 00c0 FB73     		strb	r3, [r7, #15]
 164:sbc_comms.c   ****             calc = crc8_table[calc ^ s_len];    // On length
 723              		.loc 1 164 0
 724 00c2 2C4B     		ldr	r3, .L40+12
 725 00c4 1A78     		ldrb	r2, [r3]	@ zero_extendqisi2
 726 00c6 FB7B     		ldrb	r3, [r7, #15]
 727 00c8 5340     		eors	r3, r3, r2
 728 00ca DBB2     		uxtb	r3, r3
 729 00cc 1A46     		mov	r2, r3
 730 00ce 2C4B     		ldr	r3, .L40+24
 731 00d0 9B5C     		ldrb	r3, [r3, r2]
 732 00d2 FB73     		strb	r3, [r7, #15]
ARM GAS  C:\Users\JENNEW~1\AppData\Local\Temp\ccQ6CogY.s 			page 17


 733              	.LBB5:
 165:sbc_comms.c   ****             for (uint8_t i = 0u; i < s_len; i++)// Over payload
 734              		.loc 1 165 0
 735 00d4 0023     		movs	r3, #0
 736 00d6 BB73     		strb	r3, [r7, #14]
 737 00d8 0CE0     		b	.L26
 738              	.L27:
 166:sbc_comms.c   ****                 calc = crc8_table[calc ^ s_buf[i]];
 739              		.loc 1 166 0 discriminator 3
 740 00da BB7B     		ldrb	r3, [r7, #14]	@ zero_extendqisi2
 741 00dc 274A     		ldr	r2, .L40+20
 742 00de D25C     		ldrb	r2, [r2, r3]	@ zero_extendqisi2
 743 00e0 FB7B     		ldrb	r3, [r7, #15]
 744 00e2 5340     		eors	r3, r3, r2
 745 00e4 DBB2     		uxtb	r3, r3
 746 00e6 1A46     		mov	r2, r3
 747 00e8 254B     		ldr	r3, .L40+24
 748 00ea 9B5C     		ldrb	r3, [r3, r2]
 749 00ec FB73     		strb	r3, [r7, #15]
 165:sbc_comms.c   ****             for (uint8_t i = 0u; i < s_len; i++)// Over payload
 750              		.loc 1 165 0 discriminator 3
 751 00ee BB7B     		ldrb	r3, [r7, #14]	@ zero_extendqisi2
 752 00f0 0133     		adds	r3, r3, #1
 753 00f2 BB73     		strb	r3, [r7, #14]
 754              	.L26:
 165:sbc_comms.c   ****             for (uint8_t i = 0u; i < s_len; i++)// Over payload
 755              		.loc 1 165 0 is_stmt 0 discriminator 1
 756 00f4 1F4B     		ldr	r3, .L40+12
 757 00f6 1B78     		ldrb	r3, [r3]	@ zero_extendqisi2
 758 00f8 BA7B     		ldrb	r2, [r7, #14]	@ zero_extendqisi2
 759 00fa 9A42     		cmp	r2, r3
 760 00fc EDD3     		bcc	.L27
 761              	.LBE5:
 167:sbc_comms.c   **** 
 168:sbc_comms.c   ****             // Verify checksum, if good then decode!
 169:sbc_comms.c   ****             if (calc == b) {
 762              		.loc 1 169 0 is_stmt 1
 763 00fe FA7B     		ldrb	r2, [r7, #15]	@ zero_extendqisi2
 764 0100 FB79     		ldrb	r3, [r7, #7]	@ zero_extendqisi2
 765 0102 9A42     		cmp	r2, r3
 766 0104 1DD1     		bne	.L28
 170:sbc_comms.c   ****                 s_rx_pkt_count++;
 767              		.loc 1 170 0
 768 0106 1F4B     		ldr	r3, .L40+28
 769 0108 1B68     		ldr	r3, [r3]
 770 010a 0133     		adds	r3, r3, #1
 771 010c 1D4A     		ldr	r2, .L40+28
 772 010e 1360     		str	r3, [r2]
 171:sbc_comms.c   ****                 // Process payload bytes according to type.
 172:sbc_comms.c   ****                 // Add as we accumulate more things to Rx.
 173:sbc_comms.c   ****                 switch (s_type) {
 773              		.loc 1 173 0
 774 0110 174B     		ldr	r3, .L40+8
 775 0112 1B78     		ldrb	r3, [r3]	@ zero_extendqisi2
 776 0114 012B     		cmp	r3, #1
 777 0116 02D0     		beq	.L30
 778 0118 022B     		cmp	r3, #2
ARM GAS  C:\Users\JENNEW~1\AppData\Local\Temp\ccQ6CogY.s 			page 18


 779 011a 09D0     		beq	.L31
 174:sbc_comms.c   ****                     case PKT_CENTROID_C:
 175:sbc_comms.c   ****                         if (s_len == SBC_CENTROID_LEN){
 176:sbc_comms.c   ****                             decode_centroid(STREAM_COARSE, s_buf);
 177:sbc_comms.c   ****                         }
 178:sbc_comms.c   ****                         break;
 179:sbc_comms.c   ****                     case PKT_CENTROID_F:
 180:sbc_comms.c   ****                         if (s_len == SBC_CENTROID_LEN){
 181:sbc_comms.c   ****                             decode_centroid(STREAM_FINE,   s_buf);
 182:sbc_comms.c   ****                         }
 183:sbc_comms.c   ****                         break;
 184:sbc_comms.c   ****                     default:
 185:sbc_comms.c   ****                         break;
 780              		.loc 1 185 0
 781 011c 1BE0     		b	.L35
 782              	.L30:
 175:sbc_comms.c   ****                             decode_centroid(STREAM_COARSE, s_buf);
 783              		.loc 1 175 0
 784 011e 154B     		ldr	r3, .L40+12
 785 0120 1B78     		ldrb	r3, [r3]	@ zero_extendqisi2
 786 0122 0C2B     		cmp	r3, #12
 787 0124 14D1     		bne	.L38
 176:sbc_comms.c   ****                         }
 788              		.loc 1 176 0
 789 0126 1549     		ldr	r1, .L40+20
 790 0128 0020     		movs	r0, #0
 791 012a FFF7FEFF 		bl	decode_centroid
 178:sbc_comms.c   ****                     case PKT_CENTROID_F:
 792              		.loc 1 178 0
 793 012e 0FE0     		b	.L38
 794              	.L31:
 180:sbc_comms.c   ****                             decode_centroid(STREAM_FINE,   s_buf);
 795              		.loc 1 180 0
 796 0130 104B     		ldr	r3, .L40+12
 797 0132 1B78     		ldrb	r3, [r3]	@ zero_extendqisi2
 798 0134 0C2B     		cmp	r3, #12
 799 0136 0DD1     		bne	.L39
 181:sbc_comms.c   ****                         }
 800              		.loc 1 181 0
 801 0138 1049     		ldr	r1, .L40+20
 802 013a 0120     		movs	r0, #1
 803 013c FFF7FEFF 		bl	decode_centroid
 183:sbc_comms.c   ****                     default:
 804              		.loc 1 183 0
 805 0140 08E0     		b	.L39
 806              	.L28:
 186:sbc_comms.c   ****                 }
 187:sbc_comms.c   ****             } else {
 188:sbc_comms.c   ****                 s_crc_err++;
 807              		.loc 1 188 0
 808 0142 114B     		ldr	r3, .L40+32
 809 0144 1B88     		ldrh	r3, [r3]
 810 0146 0133     		adds	r3, r3, #1
 811 0148 9AB2     		uxth	r2, r3
 812 014a 0F4B     		ldr	r3, .L40+32
 813 014c 1A80     		strh	r2, [r3]	@ movhi
 814 014e 02E0     		b	.L35
ARM GAS  C:\Users\JENNEW~1\AppData\Local\Temp\ccQ6CogY.s 			page 19


 815              	.L38:
 178:sbc_comms.c   ****                     case PKT_CENTROID_F:
 816              		.loc 1 178 0
 817 0150 00BF     		nop
 818 0152 00E0     		b	.L35
 819              	.L39:
 183:sbc_comms.c   ****                     default:
 820              		.loc 1 183 0
 821 0154 00BF     		nop
 822              	.L35:
 189:sbc_comms.c   ****             }
 190:sbc_comms.c   ****             sbc_rx_state = S_MAGIC;
 823              		.loc 1 190 0
 824 0156 044B     		ldr	r3, .L40
 825 0158 0022     		movs	r2, #0
 826 015a 1A70     		strb	r2, [r3]
 191:sbc_comms.c   ****             break;
 827              		.loc 1 191 0
 828 015c 00E0     		b	.L13
 829              	.L37:
 830              	.LBE4:
 159:sbc_comms.c   ****         case S_CRC: {
 831              		.loc 1 159 0
 832 015e 00BF     		nop
 833              	.L13:
 834              	.L36:
 192:sbc_comms.c   ****         }
 193:sbc_comms.c   ****     }
 194:sbc_comms.c   **** }
 835              		.loc 1 194 0
 836 0160 00BF     		nop
 837 0162 1037     		adds	r7, r7, #16
 838              		.cfi_def_cfa_offset 8
 839 0164 BD46     		mov	sp, r7
 840              		.cfi_def_cfa_register 13
 841              		@ sp needed
 842 0166 80BD     		pop	{r7, pc}
 843              	.L41:
 844              		.align	2
 845              	.L40:
 846 0168 00000000 		.word	sbc_rx_state
 847 016c 70000000 		.word	s_unknown_magic
 848 0170 01000000 		.word	s_type
 849 0174 02000000 		.word	s_len
 850 0178 03000000 		.word	s_idx
 851 017c 04000000 		.word	s_buf
 852 0180 00000000 		.word	crc8_table
 853 0184 74000000 		.word	s_rx_pkt_count
 854 0188 6C000000 		.word	s_crc_err
 855              		.cfi_endproc
 856              	.LFE65:
 857              		.size	sbc_on_rx_byte, .-sbc_on_rx_byte
 858              		.section	.text.sbc_on_uart_err_flags,"ax",%progbits
 859              		.align	2
 860              		.global	sbc_on_uart_err_flags
 861              		.thumb
 862              		.thumb_func
ARM GAS  C:\Users\JENNEW~1\AppData\Local\Temp\ccQ6CogY.s 			page 20


 863              		.type	sbc_on_uart_err_flags, %function
 864              	sbc_on_uart_err_flags:
 865              	.LFB66:
 195:sbc_comms.c   **** 
 196:sbc_comms.c   **** void sbc_on_uart_err_flags(uint8_t flags)
 197:sbc_comms.c   **** {
 866              		.loc 1 197 0
 867              		.cfi_startproc
 868              		@ args = 0, pretend = 0, frame = 8
 869              		@ frame_needed = 1, uses_anonymous_args = 0
 870              		@ link register save eliminated.
 871 0000 80B4     		push	{r7}
 872              		.cfi_def_cfa_offset 4
 873              		.cfi_offset 7, -4
 874 0002 83B0     		sub	sp, sp, #12
 875              		.cfi_def_cfa_offset 16
 876 0004 00AF     		add	r7, sp, #0
 877              		.cfi_def_cfa_register 7
 878 0006 0346     		mov	r3, r0
 879 0008 FB71     		strb	r3, [r7, #7]
 198:sbc_comms.c   ****     // If UART errors, accumulate counter and reset to magic (next frame)
 199:sbc_comms.c   ****     (void)flags;
 200:sbc_comms.c   ****     s_uart_err++;
 880              		.loc 1 200 0
 881 000a 074B     		ldr	r3, .L43
 882 000c 1B88     		ldrh	r3, [r3]
 883 000e 0133     		adds	r3, r3, #1
 884 0010 9AB2     		uxth	r2, r3
 885 0012 054B     		ldr	r3, .L43
 886 0014 1A80     		strh	r2, [r3]	@ movhi
 201:sbc_comms.c   ****     sbc_rx_state = S_MAGIC;
 887              		.loc 1 201 0
 888 0016 054B     		ldr	r3, .L43+4
 889 0018 0022     		movs	r2, #0
 890 001a 1A70     		strb	r2, [r3]
 202:sbc_comms.c   **** }
 891              		.loc 1 202 0
 892 001c 00BF     		nop
 893 001e 0C37     		adds	r7, r7, #12
 894              		.cfi_def_cfa_offset 4
 895 0020 BD46     		mov	sp, r7
 896              		.cfi_def_cfa_register 13
 897              		@ sp needed
 898 0022 80BC     		pop	{r7}
 899              		.cfi_restore 7
 900              		.cfi_def_cfa_offset 0
 901 0024 7047     		bx	lr
 902              	.L44:
 903 0026 00BF     		.align	2
 904              	.L43:
 905 0028 6E000000 		.word	s_uart_err
 906 002c 00000000 		.word	sbc_rx_state
 907              		.cfi_endproc
 908              	.LFE66:
 909              		.size	sbc_on_uart_err_flags, .-sbc_on_uart_err_flags
 910              		.section	.text.sbc_get_centroid,"ax",%progbits
 911              		.align	2
ARM GAS  C:\Users\JENNEW~1\AppData\Local\Temp\ccQ6CogY.s 			page 21


 912              		.global	sbc_get_centroid
 913              		.thumb
 914              		.thumb_func
 915              		.type	sbc_get_centroid, %function
 916              	sbc_get_centroid:
 917              	.LFB67:
 203:sbc_comms.c   **** 
 204:sbc_comms.c   **** uint8_t sbc_get_centroid(uint8_t stream, payload_centroid_t *out)
 205:sbc_comms.c   **** {
 918              		.loc 1 205 0
 919              		.cfi_startproc
 920              		@ args = 0, pretend = 0, frame = 16
 921              		@ frame_needed = 1, uses_anonymous_args = 0
 922 0000 80B5     		push	{r7, lr}
 923              		.cfi_def_cfa_offset 8
 924              		.cfi_offset 7, -8
 925              		.cfi_offset 14, -4
 926 0002 84B0     		sub	sp, sp, #16
 927              		.cfi_def_cfa_offset 24
 928 0004 00AF     		add	r7, sp, #0
 929              		.cfi_def_cfa_register 7
 930 0006 0346     		mov	r3, r0
 931 0008 3960     		str	r1, [r7]
 932 000a FB71     		strb	r3, [r7, #7]
 206:sbc_comms.c   ****     // Getter function for the rest of our codebase to use
 207:sbc_comms.c   ****     // Runs as atomic so it cannot be interrupted. If it were interrupted we
 208:sbc_comms.c   ****     // could start copying out the centroid, then rx a new centroid, and
 209:sbc_comms.c   ****     // continue reading out from the new centroid data.
 210:sbc_comms.c   ****     // This would corrupt the data, or at least confuse our control loop.
 211:sbc_comms.c   ****     if (stream >= STREAM_COUNTS) return 0u;
 933              		.loc 1 211 0
 934 000c FB79     		ldrb	r3, [r7, #7]	@ zero_extendqisi2
 935 000e 012B     		cmp	r3, #1
 936 0010 01D9     		bls	.L46
 937              		.loc 1 211 0 is_stmt 0 discriminator 1
 938 0012 0023     		movs	r3, #0
 939 0014 2FE0     		b	.L47
 940              	.L46:
 212:sbc_comms.c   ****     uint8_t bit = (uint8_t)(1u << stream);
 941              		.loc 1 212 0 is_stmt 1
 942 0016 FB79     		ldrb	r3, [r7, #7]	@ zero_extendqisi2
 943 0018 0122     		movs	r2, #1
 944 001a 02FA03F3 		lsl	r3, r2, r3
 945 001e BB73     		strb	r3, [r7, #14]
 213:sbc_comms.c   ****     uint8_t got = 0u;
 946              		.loc 1 213 0
 947 0020 0023     		movs	r3, #0
 948 0022 FB73     		strb	r3, [r7, #15]
 214:sbc_comms.c   ****     uint8_t ist = CyEnterCriticalSection();// Disables interruprs
 949              		.loc 1 214 0
 950 0024 FFF7FEFF 		bl	CyEnterCriticalSection
 951 0028 0346     		mov	r3, r0
 952 002a 7B73     		strb	r3, [r7, #13]
 215:sbc_comms.c   ****     if (s_fresh_bits & bit) {
 953              		.loc 1 215 0
 954 002c 144B     		ldr	r3, .L49
 955 002e 1B78     		ldrb	r3, [r3]
ARM GAS  C:\Users\JENNEW~1\AppData\Local\Temp\ccQ6CogY.s 			page 22


 956 0030 DAB2     		uxtb	r2, r3
 957 0032 BB7B     		ldrb	r3, [r7, #14]
 958 0034 1340     		ands	r3, r3, r2
 959 0036 DBB2     		uxtb	r3, r3
 960 0038 002B     		cmp	r3, #0
 961 003a 17D0     		beq	.L48
 216:sbc_comms.c   ****         *out = s_centroid[stream];  // Copy out the centroid
 962              		.loc 1 216 0
 963 003c FA79     		ldrb	r2, [r7, #7]	@ zero_extendqisi2
 964 003e 3868     		ldr	r0, [r7]
 965 0040 1049     		ldr	r1, .L49+4
 966 0042 1346     		mov	r3, r2
 967 0044 5B00     		lsls	r3, r3, #1
 968 0046 1344     		add	r3, r3, r2
 969 0048 9B00     		lsls	r3, r3, #2
 970 004a CA18     		adds	r2, r1, r3
 971 004c 0346     		mov	r3, r0
 972 004e 07CA     		ldmia	r2, {r0, r1, r2}
 973 0050 83E80700 		stmia	r3, {r0, r1, r2}
 217:sbc_comms.c   ****         s_fresh_bits &= (uint8_t)~bit;  // Set stale (already grabbed)
 974              		.loc 1 217 0
 975 0054 BB7B     		ldrb	r3, [r7, #14]
 976 0056 DB43     		mvns	r3, r3
 977 0058 DAB2     		uxtb	r2, r3
 978 005a 094B     		ldr	r3, .L49
 979 005c 1B78     		ldrb	r3, [r3]
 980 005e DBB2     		uxtb	r3, r3
 981 0060 1340     		ands	r3, r3, r2
 982 0062 DAB2     		uxtb	r2, r3
 983 0064 064B     		ldr	r3, .L49
 984 0066 1A70     		strb	r2, [r3]
 218:sbc_comms.c   ****         got = 1u;  // Say we got em.
 985              		.loc 1 218 0
 986 0068 0123     		movs	r3, #1
 987 006a FB73     		strb	r3, [r7, #15]
 988              	.L48:
 219:sbc_comms.c   ****     }
 220:sbc_comms.c   ****     CyExitCriticalSection(ist);  // Re-enables interruprs
 989              		.loc 1 220 0
 990 006c 7B7B     		ldrb	r3, [r7, #13]	@ zero_extendqisi2
 991 006e 1846     		mov	r0, r3
 992 0070 FFF7FEFF 		bl	CyExitCriticalSection
 221:sbc_comms.c   ****     return got;  // Caller is told they got a new centroid!
 993              		.loc 1 221 0
 994 0074 FB7B     		ldrb	r3, [r7, #15]	@ zero_extendqisi2
 995              	.L47:
 222:sbc_comms.c   **** }
 996              		.loc 1 222 0
 997 0076 1846     		mov	r0, r3
 998 0078 1037     		adds	r7, r7, #16
 999              		.cfi_def_cfa_offset 8
 1000 007a BD46     		mov	sp, r7
 1001              		.cfi_def_cfa_register 13
 1002              		@ sp needed
 1003 007c 80BD     		pop	{r7, pc}
 1004              	.L50:
 1005 007e 00BF     		.align	2
ARM GAS  C:\Users\JENNEW~1\AppData\Local\Temp\ccQ6CogY.s 			page 23


 1006              	.L49:
 1007 0080 5C000000 		.word	s_fresh_bits
 1008 0084 44000000 		.word	s_centroid
 1009              		.cfi_endproc
 1010              	.LFE67:
 1011              		.size	sbc_get_centroid, .-sbc_get_centroid
 1012              		.section	.text.sbc_unknown_magic,"ax",%progbits
 1013              		.align	2
 1014              		.global	sbc_unknown_magic
 1015              		.thumb
 1016              		.thumb_func
 1017              		.type	sbc_unknown_magic, %function
 1018              	sbc_unknown_magic:
 1019              	.LFB68:
 223:sbc_comms.c   **** 
 224:sbc_comms.c   **** uint16_t sbc_unknown_magic(void)
 225:sbc_comms.c   **** {
 1020              		.loc 1 225 0
 1021              		.cfi_startproc
 1022              		@ args = 0, pretend = 0, frame = 0
 1023              		@ frame_needed = 1, uses_anonymous_args = 0
 1024              		@ link register save eliminated.
 1025 0000 80B4     		push	{r7}
 1026              		.cfi_def_cfa_offset 4
 1027              		.cfi_offset 7, -4
 1028 0002 00AF     		add	r7, sp, #0
 1029              		.cfi_def_cfa_register 7
 226:sbc_comms.c   ****     // When magic byte unknown
 227:sbc_comms.c   ****     return s_unknown_magic;
 1030              		.loc 1 227 0
 1031 0004 024B     		ldr	r3, .L53
 1032 0006 1B88     		ldrh	r3, [r3]
 228:sbc_comms.c   **** }
 1033              		.loc 1 228 0
 1034 0008 1846     		mov	r0, r3
 1035 000a BD46     		mov	sp, r7
 1036              		.cfi_def_cfa_register 13
 1037              		@ sp needed
 1038 000c 80BC     		pop	{r7}
 1039              		.cfi_restore 7
 1040              		.cfi_def_cfa_offset 0
 1041 000e 7047     		bx	lr
 1042              	.L54:
 1043              		.align	2
 1044              	.L53:
 1045 0010 70000000 		.word	s_unknown_magic
 1046              		.cfi_endproc
 1047              	.LFE68:
 1048              		.size	sbc_unknown_magic, .-sbc_unknown_magic
 1049              		.section	.text.sbc_rx_pkt_count,"ax",%progbits
 1050              		.align	2
 1051              		.global	sbc_rx_pkt_count
 1052              		.thumb
 1053              		.thumb_func
 1054              		.type	sbc_rx_pkt_count, %function
 1055              	sbc_rx_pkt_count:
 1056              	.LFB69:
ARM GAS  C:\Users\JENNEW~1\AppData\Local\Temp\ccQ6CogY.s 			page 24


 229:sbc_comms.c   **** 
 230:sbc_comms.c   **** uint32_t sbc_rx_pkt_count(void)
 231:sbc_comms.c   **** {
 1057              		.loc 1 231 0
 1058              		.cfi_startproc
 1059              		@ args = 0, pretend = 0, frame = 0
 1060              		@ frame_needed = 1, uses_anonymous_args = 0
 1061              		@ link register save eliminated.
 1062 0000 80B4     		push	{r7}
 1063              		.cfi_def_cfa_offset 4
 1064              		.cfi_offset 7, -4
 1065 0002 00AF     		add	r7, sp, #0
 1066              		.cfi_def_cfa_register 7
 232:sbc_comms.c   ****     // Received packet count getter
 233:sbc_comms.c   ****     return s_rx_pkt_count;
 1067              		.loc 1 233 0
 1068 0004 024B     		ldr	r3, .L57
 1069 0006 1B68     		ldr	r3, [r3]
 234:sbc_comms.c   **** }
 1070              		.loc 1 234 0
 1071 0008 1846     		mov	r0, r3
 1072 000a BD46     		mov	sp, r7
 1073              		.cfi_def_cfa_register 13
 1074              		@ sp needed
 1075 000c 80BC     		pop	{r7}
 1076              		.cfi_restore 7
 1077              		.cfi_def_cfa_offset 0
 1078 000e 7047     		bx	lr
 1079              	.L58:
 1080              		.align	2
 1081              	.L57:
 1082 0010 74000000 		.word	s_rx_pkt_count
 1083              		.cfi_endproc
 1084              	.LFE69:
 1085              		.size	sbc_rx_pkt_count, .-sbc_rx_pkt_count
 1086              		.section	.text.sbc_last_centroid_dt_ms,"ax",%progbits
 1087              		.align	2
 1088              		.global	sbc_last_centroid_dt_ms
 1089              		.thumb
 1090              		.thumb_func
 1091              		.type	sbc_last_centroid_dt_ms, %function
 1092              	sbc_last_centroid_dt_ms:
 1093              	.LFB70:
 235:sbc_comms.c   **** uint16_t sbc_last_centroid_dt_ms(uint8_t stream)
 236:sbc_comms.c   **** {
 1094              		.loc 1 236 0
 1095              		.cfi_startproc
 1096              		@ args = 0, pretend = 0, frame = 8
 1097              		@ frame_needed = 1, uses_anonymous_args = 0
 1098              		@ link register save eliminated.
 1099 0000 80B4     		push	{r7}
 1100              		.cfi_def_cfa_offset 4
 1101              		.cfi_offset 7, -4
 1102 0002 83B0     		sub	sp, sp, #12
 1103              		.cfi_def_cfa_offset 16
 1104 0004 00AF     		add	r7, sp, #0
 1105              		.cfi_def_cfa_register 7
ARM GAS  C:\Users\JENNEW~1\AppData\Local\Temp\ccQ6CogY.s 			page 25


 1106 0006 0346     		mov	r3, r0
 1107 0008 FB71     		strb	r3, [r7, #7]
 237:sbc_comms.c   ****     // Time between last centroid pair getter
 238:sbc_comms.c   ****     return (stream < STREAM_COUNTS) ? s_last_centroid_dt_ms[stream] : 0u;
 1108              		.loc 1 238 0
 1109 000a FB79     		ldrb	r3, [r7, #7]	@ zero_extendqisi2
 1110 000c 012B     		cmp	r3, #1
 1111 000e 04D8     		bhi	.L60
 1112              		.loc 1 238 0 is_stmt 0 discriminator 1
 1113 0010 FB79     		ldrb	r3, [r7, #7]	@ zero_extendqisi2
 1114 0012 054A     		ldr	r2, .L63
 1115 0014 32F81330 		ldrh	r3, [r2, r3, lsl #1]
 1116 0018 00E0     		b	.L61
 1117              	.L60:
 1118              		.loc 1 238 0 discriminator 2
 1119 001a 0023     		movs	r3, #0
 1120              	.L61:
 239:sbc_comms.c   **** }
 1121              		.loc 1 239 0 is_stmt 1 discriminator 4
 1122 001c 1846     		mov	r0, r3
 1123 001e 0C37     		adds	r7, r7, #12
 1124              		.cfi_def_cfa_offset 4
 1125 0020 BD46     		mov	sp, r7
 1126              		.cfi_def_cfa_register 13
 1127              		@ sp needed
 1128 0022 80BC     		pop	{r7}
 1129              		.cfi_restore 7
 1130              		.cfi_def_cfa_offset 0
 1131 0024 7047     		bx	lr
 1132              	.L64:
 1133 0026 00BF     		.align	2
 1134              	.L63:
 1135 0028 68000000 		.word	s_last_centroid_dt_ms
 1136              		.cfi_endproc
 1137              	.LFE70:
 1138              		.size	sbc_last_centroid_dt_ms, .-sbc_last_centroid_dt_ms
 1139              		.section	.text.sbc_last_rx_ms,"ax",%progbits
 1140              		.align	2
 1141              		.global	sbc_last_rx_ms
 1142              		.thumb
 1143              		.thumb_func
 1144              		.type	sbc_last_rx_ms, %function
 1145              	sbc_last_rx_ms:
 1146              	.LFB71:
 240:sbc_comms.c   **** 
 241:sbc_comms.c   **** uint32_t sbc_last_rx_ms(uint8_t stream)
 242:sbc_comms.c   **** {
 1147              		.loc 1 242 0
 1148              		.cfi_startproc
 1149              		@ args = 0, pretend = 0, frame = 8
 1150              		@ frame_needed = 1, uses_anonymous_args = 0
 1151              		@ link register save eliminated.
 1152 0000 80B4     		push	{r7}
 1153              		.cfi_def_cfa_offset 4
 1154              		.cfi_offset 7, -4
 1155 0002 83B0     		sub	sp, sp, #12
 1156              		.cfi_def_cfa_offset 16
ARM GAS  C:\Users\JENNEW~1\AppData\Local\Temp\ccQ6CogY.s 			page 26


 1157 0004 00AF     		add	r7, sp, #0
 1158              		.cfi_def_cfa_register 7
 1159 0006 0346     		mov	r3, r0
 1160 0008 FB71     		strb	r3, [r7, #7]
 243:sbc_comms.c   ****     // Time of last received packet getter
 244:sbc_comms.c   ****     return (stream < STREAM_COUNTS) ? s_last_rx_ms[stream] : 0u;
 1161              		.loc 1 244 0
 1162 000a FB79     		ldrb	r3, [r7, #7]	@ zero_extendqisi2
 1163 000c 012B     		cmp	r3, #1
 1164 000e 04D8     		bhi	.L66
 1165              		.loc 1 244 0 is_stmt 0 discriminator 1
 1166 0010 FB79     		ldrb	r3, [r7, #7]	@ zero_extendqisi2
 1167 0012 054A     		ldr	r2, .L69
 1168 0014 52F82330 		ldr	r3, [r2, r3, lsl #2]
 1169 0018 00E0     		b	.L68
 1170              	.L66:
 1171              		.loc 1 244 0 discriminator 2
 1172 001a 0023     		movs	r3, #0
 1173              	.L68:
 245:sbc_comms.c   **** }
 1174              		.loc 1 245 0 is_stmt 1 discriminator 5
 1175 001c 1846     		mov	r0, r3
 1176 001e 0C37     		adds	r7, r7, #12
 1177              		.cfi_def_cfa_offset 4
 1178 0020 BD46     		mov	sp, r7
 1179              		.cfi_def_cfa_register 13
 1180              		@ sp needed
 1181 0022 80BC     		pop	{r7}
 1182              		.cfi_restore 7
 1183              		.cfi_def_cfa_offset 0
 1184 0024 7047     		bx	lr
 1185              	.L70:
 1186 0026 00BF     		.align	2
 1187              	.L69:
 1188 0028 60000000 		.word	s_last_rx_ms
 1189              		.cfi_endproc
 1190              	.LFE71:
 1191              		.size	sbc_last_rx_ms, .-sbc_last_rx_ms
 1192              		.section	.text.sbc_crc_errors,"ax",%progbits
 1193              		.align	2
 1194              		.global	sbc_crc_errors
 1195              		.thumb
 1196              		.thumb_func
 1197              		.type	sbc_crc_errors, %function
 1198              	sbc_crc_errors:
 1199              	.LFB72:
 246:sbc_comms.c   **** uint16_t sbc_crc_errors(void)
 247:sbc_comms.c   **** {
 1200              		.loc 1 247 0
 1201              		.cfi_startproc
 1202              		@ args = 0, pretend = 0, frame = 0
 1203              		@ frame_needed = 1, uses_anonymous_args = 0
 1204              		@ link register save eliminated.
 1205 0000 80B4     		push	{r7}
 1206              		.cfi_def_cfa_offset 4
 1207              		.cfi_offset 7, -4
 1208 0002 00AF     		add	r7, sp, #0
ARM GAS  C:\Users\JENNEW~1\AppData\Local\Temp\ccQ6CogY.s 			page 27


 1209              		.cfi_def_cfa_register 7
 248:sbc_comms.c   ****     // CRC error getter
 249:sbc_comms.c   ****     return s_crc_err;
 1210              		.loc 1 249 0
 1211 0004 024B     		ldr	r3, .L73
 1212 0006 1B88     		ldrh	r3, [r3]
 250:sbc_comms.c   **** }
 1213              		.loc 1 250 0
 1214 0008 1846     		mov	r0, r3
 1215 000a BD46     		mov	sp, r7
 1216              		.cfi_def_cfa_register 13
 1217              		@ sp needed
 1218 000c 80BC     		pop	{r7}
 1219              		.cfi_restore 7
 1220              		.cfi_def_cfa_offset 0
 1221 000e 7047     		bx	lr
 1222              	.L74:
 1223              		.align	2
 1224              	.L73:
 1225 0010 6C000000 		.word	s_crc_err
 1226              		.cfi_endproc
 1227              	.LFE72:
 1228              		.size	sbc_crc_errors, .-sbc_crc_errors
 1229              		.section	.text.sbc_uart_errors,"ax",%progbits
 1230              		.align	2
 1231              		.global	sbc_uart_errors
 1232              		.thumb
 1233              		.thumb_func
 1234              		.type	sbc_uart_errors, %function
 1235              	sbc_uart_errors:
 1236              	.LFB73:
 251:sbc_comms.c   **** uint16_t sbc_uart_errors(void)
 252:sbc_comms.c   **** {
 1237              		.loc 1 252 0
 1238              		.cfi_startproc
 1239              		@ args = 0, pretend = 0, frame = 0
 1240              		@ frame_needed = 1, uses_anonymous_args = 0
 1241              		@ link register save eliminated.
 1242 0000 80B4     		push	{r7}
 1243              		.cfi_def_cfa_offset 4
 1244              		.cfi_offset 7, -4
 1245 0002 00AF     		add	r7, sp, #0
 1246              		.cfi_def_cfa_register 7
 253:sbc_comms.c   ****     // UART error getter
 254:sbc_comms.c   ****     return s_uart_err;
 1247              		.loc 1 254 0
 1248 0004 024B     		ldr	r3, .L77
 1249 0006 1B88     		ldrh	r3, [r3]
 255:sbc_comms.c   **** }
 1250              		.loc 1 255 0
 1251 0008 1846     		mov	r0, r3
 1252 000a BD46     		mov	sp, r7
 1253              		.cfi_def_cfa_register 13
 1254              		@ sp needed
 1255 000c 80BC     		pop	{r7}
 1256              		.cfi_restore 7
 1257              		.cfi_def_cfa_offset 0
ARM GAS  C:\Users\JENNEW~1\AppData\Local\Temp\ccQ6CogY.s 			page 28


 1258 000e 7047     		bx	lr
 1259              	.L78:
 1260              		.align	2
 1261              	.L77:
 1262 0010 6E000000 		.word	s_uart_err
 1263              		.cfi_endproc
 1264              	.LFE73:
 1265              		.size	sbc_uart_errors, .-sbc_uart_errors
 1266              		.section	.text.sbc_send_frame,"ax",%progbits
 1267              		.align	2
 1268              		.global	sbc_send_frame
 1269              		.thumb
 1270              		.thumb_func
 1271              		.type	sbc_send_frame, %function
 1272              	sbc_send_frame:
 1273              	.LFB74:
 256:sbc_comms.c   **** 
 257:sbc_comms.c   **** void sbc_send_frame(uint8_t type, const uint8_t *payload, uint8_t len)
 258:sbc_comms.c   **** {
 1274              		.loc 1 258 0
 1275              		.cfi_startproc
 1276              		@ args = 0, pretend = 0, frame = 16
 1277              		@ frame_needed = 1, uses_anonymous_args = 0
 1278 0000 80B5     		push	{r7, lr}
 1279              		.cfi_def_cfa_offset 8
 1280              		.cfi_offset 7, -8
 1281              		.cfi_offset 14, -4
 1282 0002 84B0     		sub	sp, sp, #16
 1283              		.cfi_def_cfa_offset 24
 1284 0004 00AF     		add	r7, sp, #0
 1285              		.cfi_def_cfa_register 7
 1286 0006 0346     		mov	r3, r0
 1287 0008 3960     		str	r1, [r7]
 1288 000a FB71     		strb	r3, [r7, #7]
 1289 000c 1346     		mov	r3, r2
 1290 000e BB71     		strb	r3, [r7, #6]
 259:sbc_comms.c   ****     // Encoder to send a frame to the Pi
 260:sbc_comms.c   ****     UART_SBC_PutChar(SBC_MAGIC);  // Magic byte
 1291              		.loc 1 260 0
 1292 0010 AB20     		movs	r0, #171
 1293 0012 FFF7FEFF 		bl	UART_SBC_PutChar
 261:sbc_comms.c   ****     UART_SBC_PutChar(type);      // Type byte
 1294              		.loc 1 261 0
 1295 0016 FB79     		ldrb	r3, [r7, #7]	@ zero_extendqisi2
 1296 0018 1846     		mov	r0, r3
 1297 001a FFF7FEFF 		bl	UART_SBC_PutChar
 262:sbc_comms.c   ****     UART_SBC_PutChar(len);       // Length byte
 1298              		.loc 1 262 0
 1299 001e BB79     		ldrb	r3, [r7, #6]	@ zero_extendqisi2
 1300 0020 1846     		mov	r0, r3
 1301 0022 FFF7FEFF 		bl	UART_SBC_PutChar
 263:sbc_comms.c   ****     uint8_t crc = crc8_table[type];
 1302              		.loc 1 263 0
 1303 0026 FB79     		ldrb	r3, [r7, #7]	@ zero_extendqisi2
 1304 0028 174A     		ldr	r2, .L82
 1305 002a D35C     		ldrb	r3, [r2, r3]
 1306 002c FB73     		strb	r3, [r7, #15]
ARM GAS  C:\Users\JENNEW~1\AppData\Local\Temp\ccQ6CogY.s 			page 29


 264:sbc_comms.c   ****     crc = crc8_table[crc ^ len];// Start CRC
 1307              		.loc 1 264 0
 1308 002e FA7B     		ldrb	r2, [r7, #15]
 1309 0030 BB79     		ldrb	r3, [r7, #6]
 1310 0032 5340     		eors	r3, r3, r2
 1311 0034 DBB2     		uxtb	r3, r3
 1312 0036 1A46     		mov	r2, r3
 1313 0038 134B     		ldr	r3, .L82
 1314 003a 9B5C     		ldrb	r3, [r3, r2]
 1315 003c FB73     		strb	r3, [r7, #15]
 1316              	.LBB6:
 265:sbc_comms.c   ****     for (uint8_t i = 0u; i < len; i++) {
 1317              		.loc 1 265 0
 1318 003e 0023     		movs	r3, #0
 1319 0040 BB73     		strb	r3, [r7, #14]
 1320 0042 14E0     		b	.L80
 1321              	.L81:
 266:sbc_comms.c   ****         UART_SBC_PutChar(payload[i]);  // Put payload and compute CRC
 1322              		.loc 1 266 0 discriminator 3
 1323 0044 BB7B     		ldrb	r3, [r7, #14]	@ zero_extendqisi2
 1324 0046 3A68     		ldr	r2, [r7]
 1325 0048 1344     		add	r3, r3, r2
 1326 004a 1B78     		ldrb	r3, [r3]	@ zero_extendqisi2
 1327 004c 1846     		mov	r0, r3
 1328 004e FFF7FEFF 		bl	UART_SBC_PutChar
 267:sbc_comms.c   ****         crc = crc8_table[crc ^ payload[i]];
 1329              		.loc 1 267 0 discriminator 3
 1330 0052 BB7B     		ldrb	r3, [r7, #14]	@ zero_extendqisi2
 1331 0054 3A68     		ldr	r2, [r7]
 1332 0056 1344     		add	r3, r3, r2
 1333 0058 1A78     		ldrb	r2, [r3]	@ zero_extendqisi2
 1334 005a FB7B     		ldrb	r3, [r7, #15]
 1335 005c 5340     		eors	r3, r3, r2
 1336 005e DBB2     		uxtb	r3, r3
 1337 0060 1A46     		mov	r2, r3
 1338 0062 094B     		ldr	r3, .L82
 1339 0064 9B5C     		ldrb	r3, [r3, r2]
 1340 0066 FB73     		strb	r3, [r7, #15]
 265:sbc_comms.c   ****     for (uint8_t i = 0u; i < len; i++) {
 1341              		.loc 1 265 0 discriminator 3
 1342 0068 BB7B     		ldrb	r3, [r7, #14]	@ zero_extendqisi2
 1343 006a 0133     		adds	r3, r3, #1
 1344 006c BB73     		strb	r3, [r7, #14]
 1345              	.L80:
 265:sbc_comms.c   ****     for (uint8_t i = 0u; i < len; i++) {
 1346              		.loc 1 265 0 is_stmt 0 discriminator 1
 1347 006e BA7B     		ldrb	r2, [r7, #14]	@ zero_extendqisi2
 1348 0070 BB79     		ldrb	r3, [r7, #6]	@ zero_extendqisi2
 1349 0072 9A42     		cmp	r2, r3
 1350 0074 E6D3     		bcc	.L81
 1351              	.LBE6:
 268:sbc_comms.c   ****     }
 269:sbc_comms.c   ****     UART_SBC_PutChar(crc);       // Put calculates CRC
 1352              		.loc 1 269 0 is_stmt 1
 1353 0076 FB7B     		ldrb	r3, [r7, #15]	@ zero_extendqisi2
 1354 0078 1846     		mov	r0, r3
 1355 007a FFF7FEFF 		bl	UART_SBC_PutChar
ARM GAS  C:\Users\JENNEW~1\AppData\Local\Temp\ccQ6CogY.s 			page 30


 270:sbc_comms.c   **** }
 1356              		.loc 1 270 0
 1357 007e 00BF     		nop
 1358 0080 1037     		adds	r7, r7, #16
 1359              		.cfi_def_cfa_offset 8
 1360 0082 BD46     		mov	sp, r7
 1361              		.cfi_def_cfa_register 13
 1362              		@ sp needed
 1363 0084 80BD     		pop	{r7, pc}
 1364              	.L83:
 1365 0086 00BF     		.align	2
 1366              	.L82:
 1367 0088 00000000 		.word	crc8_table
 1368              		.cfi_endproc
 1369              	.LFE74:
 1370              		.size	sbc_send_frame, .-sbc_send_frame
 1371              		.text
 1372              	.Letext0:
 1373              		.file 2 "c:\\program files (x86)\\cypress\\psoc creator\\4.4\\psoc creator\\import\\gnu\\arm\\5.4.
 1374              		.file 3 "c:\\program files (x86)\\cypress\\psoc creator\\4.4\\psoc creator\\import\\gnu\\arm\\5.4.
 1375              		.file 4 "sbc_comms.h"
 1376              		.file 5 "Generated_Source\\PSoC5/core_cm3.h"