ARM GAS  C:\Users\JENNEW~1\AppData\Local\Temp\ccW8Un4u.s 			page 1


   1              		.syntax unified
   2              		.cpu cortex-m3
   3              		.fpu softvfp
   4              		.eabi_attribute 20, 1
   5              		.eabi_attribute 21, 1
   6              		.eabi_attribute 23, 3
   7              		.eabi_attribute 24, 1
   8              		.eabi_attribute 25, 1
   9              		.eabi_attribute 26, 1
  10              		.eabi_attribute 30, 6
  11              		.eabi_attribute 34, 1
  12              		.eabi_attribute 18, 4
  13              		.thumb
  14              		.syntax unified
  15              		.file	"telemetry.c"
  16              		.text
  17              	.Ltext0:
  18              		.cfi_sections	.debug_frame
  19              		.global	__aeabi_fcmpge
  20              		.global	__aeabi_fcmple
  21              		.global	__aeabi_f2iz
  22              		.section	.text.sat_i16,"ax",%progbits
  23              		.align	2
  24              		.thumb
  25              		.thumb_func
  26              		.type	sat_i16, %function
  27              	sat_i16:
  28              	.LFB63:
  29              		.file 1 "telemetry.c"
   1:telemetry.c   **** /* ========================================
   2:telemetry.c   ****  *
   3:telemetry.c   ****  * Copyright Hamish Johnson, 2026
   4:telemetry.c   ****  * All Rights Reserved
   5:telemetry.c   ****  * UNPUBLISHED, LICENSED SOFTWARE.
   6:telemetry.c   ****  *
   7:telemetry.c   ****  * CONFIDENTIAL AND PROPRIETARY INFORMATION
   8:telemetry.c   ****  * WHICH IS THE PROPERTY OF 
   9:telemetry.c   ****  * Quantum Internet Systems Lab (QISL),
  10:telemetry.c   ****  * Department of Physics, SFU, Canada.
  11:telemetry.c   ****  *
  12:telemetry.c   ****  * Author: Hamish Johnson (2026)
  13:telemetry.c   ****  *
  14:telemetry.c   ****  * ========================================
  15:telemetry.c   ****  *
  16:telemetry.c   ****  * Representation of in-memory outbound telemetry.
  17:telemetry.c   ****  * Agnostic and useable for SBC comms as well as local debug.
  18:telemetry.c   **** */
  19:telemetry.c   **** 
  20:telemetry.c   **** #include "telemetry.h"
  21:telemetry.c   **** #include "sbc_comms.h"
  22:telemetry.c   **** #include "hamfly.h"
  23:telemetry.c   **** 
  24:telemetry.c   **** #include <string.h>
  25:telemetry.c   **** #include <project.h>
  26:telemetry.c   **** 
  27:telemetry.c   **** extern volatile uint32_t g_tick_ms;
  28:telemetry.c   **** 
ARM GAS  C:\Users\JENNEW~1\AppData\Local\Temp\ccW8Un4u.s 			page 2


  29:telemetry.c   **** // Quaternion encoding helper
  30:telemetry.c   **** static int16_t sat_i16(float f)
  31:telemetry.c   **** {
  30              		.loc 1 31 0
  31              		.cfi_startproc
  32              		@ args = 0, pretend = 0, frame = 8
  33              		@ frame_needed = 1, uses_anonymous_args = 0
  34 0000 80B5     		push	{r7, lr}
  35              		.cfi_def_cfa_offset 8
  36              		.cfi_offset 7, -8
  37              		.cfi_offset 14, -4
  38 0002 82B0     		sub	sp, sp, #8
  39              		.cfi_def_cfa_offset 16
  40 0004 00AF     		add	r7, sp, #0
  41              		.cfi_def_cfa_register 7
  42 0006 7860     		str	r0, [r7, #4]	@ float
  32:telemetry.c   ****     if (f >=  32767.0f) return  32767;
  43              		.loc 1 32 0
  44 0008 0E49     		ldr	r1, .L11
  45 000a 7868     		ldr	r0, [r7, #4]	@ float
  46 000c FFF7FEFF 		bl	__aeabi_fcmpge
  47 0010 0346     		mov	r3, r0
  48 0012 002B     		cmp	r3, #0
  49 0014 02D0     		beq	.L9
  50              		.loc 1 32 0 is_stmt 0 discriminator 1
  51 0016 47F6FF73 		movw	r3, #32767
  52 001a 0EE0     		b	.L4
  53              	.L9:
  33:telemetry.c   ****     if (f <= -32768.0f) return -32768;
  54              		.loc 1 33 0 is_stmt 1
  55 001c 4FF04741 		mov	r1, #-956301312
  56 0020 7868     		ldr	r0, [r7, #4]	@ float
  57 0022 FFF7FEFF 		bl	__aeabi_fcmple
  58 0026 0346     		mov	r3, r0
  59 0028 002B     		cmp	r3, #0
  60 002a 01D0     		beq	.L10
  61              		.loc 1 33 0 is_stmt 0 discriminator 1
  62 002c 064B     		ldr	r3, .L11+4
  63 002e 04E0     		b	.L4
  64              	.L10:
  34:telemetry.c   ****     return (int16_t)f;
  65              		.loc 1 34 0 is_stmt 1
  66 0030 7868     		ldr	r0, [r7, #4]	@ float
  67 0032 FFF7FEFF 		bl	__aeabi_f2iz
  68 0036 0346     		mov	r3, r0
  69 0038 1BB2     		sxth	r3, r3
  70              	.L4:
  35:telemetry.c   **** }
  71              		.loc 1 35 0
  72 003a 1846     		mov	r0, r3
  73 003c 0837     		adds	r7, r7, #8
  74              		.cfi_def_cfa_offset 8
  75 003e BD46     		mov	sp, r7
  76              		.cfi_def_cfa_register 13
  77              		@ sp needed
  78 0040 80BD     		pop	{r7, pc}
  79              	.L12:
ARM GAS  C:\Users\JENNEW~1\AppData\Local\Temp\ccW8Un4u.s 			page 3


  80 0042 00BF     		.align	2
  81              	.L11:
  82 0044 00FEFF46 		.word	1191181824
  83 0048 0080FFFF 		.word	-32768
  84              		.cfi_endproc
  85              	.LFE63:
  86              		.size	sat_i16, .-sat_i16
  87              		.global	__aeabi_f2uiz
  88              		.section	.text.sat_u32,"ax",%progbits
  89              		.align	2
  90              		.thumb
  91              		.thumb_func
  92              		.type	sat_u32, %function
  93              	sat_u32:
  94              	.LFB64:
  36:telemetry.c   **** // Helper for unsigned ints and avoid rollovers.
  37:telemetry.c   **** static uint32_t sat_u32(float f)
  38:telemetry.c   **** {
  95              		.loc 1 38 0
  96              		.cfi_startproc
  97              		@ args = 0, pretend = 0, frame = 8
  98              		@ frame_needed = 1, uses_anonymous_args = 0
  99 0000 80B5     		push	{r7, lr}
 100              		.cfi_def_cfa_offset 8
 101              		.cfi_offset 7, -8
 102              		.cfi_offset 14, -4
 103 0002 82B0     		sub	sp, sp, #8
 104              		.cfi_def_cfa_offset 16
 105 0004 00AF     		add	r7, sp, #0
 106              		.cfi_def_cfa_register 7
 107 0006 7860     		str	r0, [r7, #4]	@ float
  39:telemetry.c   ****     if (f <= 0.0f)          return 0u;
 108              		.loc 1 39 0
 109 0008 4FF00001 		mov	r1, #0
 110 000c 7868     		ldr	r0, [r7, #4]	@ float
 111 000e FFF7FEFF 		bl	__aeabi_fcmple
 112 0012 0346     		mov	r3, r0
 113 0014 002B     		cmp	r3, #0
 114 0016 01D0     		beq	.L21
 115              		.loc 1 39 0 is_stmt 0 discriminator 1
 116 0018 0023     		movs	r3, #0
 117 001a 0EE0     		b	.L16
 118              	.L21:
  40:telemetry.c   ****     if (f >= 4294967295.0f) return 0xFFFFFFFFu;
 119              		.loc 1 40 0 is_stmt 1
 120 001c 4FF09F41 		mov	r1, #1333788672
 121 0020 7868     		ldr	r0, [r7, #4]	@ float
 122 0022 FFF7FEFF 		bl	__aeabi_fcmpge
 123 0026 0346     		mov	r3, r0
 124 0028 002B     		cmp	r3, #0
 125 002a 02D0     		beq	.L22
 126              		.loc 1 40 0 is_stmt 0 discriminator 1
 127 002c 4FF0FF33 		mov	r3, #-1
 128 0030 03E0     		b	.L16
 129              	.L22:
  41:telemetry.c   ****     return (uint32_t)f;
 130              		.loc 1 41 0 is_stmt 1
ARM GAS  C:\Users\JENNEW~1\AppData\Local\Temp\ccW8Un4u.s 			page 4


 131 0032 7868     		ldr	r0, [r7, #4]	@ float
 132 0034 FFF7FEFF 		bl	__aeabi_f2uiz
 133 0038 0346     		mov	r3, r0
 134              	.L16:
  42:telemetry.c   **** }
 135              		.loc 1 42 0
 136 003a 1846     		mov	r0, r3
 137 003c 0837     		adds	r7, r7, #8
 138              		.cfi_def_cfa_offset 8
 139 003e BD46     		mov	sp, r7
 140              		.cfi_def_cfa_register 13
 141              		@ sp needed
 142 0040 80BD     		pop	{r7, pc}
 143              		.cfi_endproc
 144              	.LFE64:
 145              		.size	sat_u32, .-sat_u32
 146 0042 00BF     		.section	.text.sat_u16,"ax",%progbits
 147              		.align	2
 148              		.thumb
 149              		.thumb_func
 150              		.type	sat_u16, %function
 151              	sat_u16:
 152              	.LFB65:
  43:telemetry.c   **** static uint16_t sat_u16(float f)
  44:telemetry.c   **** {
 153              		.loc 1 44 0
 154              		.cfi_startproc
 155              		@ args = 0, pretend = 0, frame = 8
 156              		@ frame_needed = 1, uses_anonymous_args = 0
 157 0000 80B5     		push	{r7, lr}
 158              		.cfi_def_cfa_offset 8
 159              		.cfi_offset 7, -8
 160              		.cfi_offset 14, -4
 161 0002 82B0     		sub	sp, sp, #8
 162              		.cfi_def_cfa_offset 16
 163 0004 00AF     		add	r7, sp, #0
 164              		.cfi_def_cfa_register 7
 165 0006 7860     		str	r0, [r7, #4]	@ float
  45:telemetry.c   ****     if (f <= 0.0f)          return 0u;
 166              		.loc 1 45 0
 167 0008 4FF00001 		mov	r1, #0
 168 000c 7868     		ldr	r0, [r7, #4]	@ float
 169 000e FFF7FEFF 		bl	__aeabi_fcmple
 170 0012 0346     		mov	r3, r0
 171 0014 002B     		cmp	r3, #0
 172 0016 01D0     		beq	.L31
 173              		.loc 1 45 0 is_stmt 0 discriminator 1
 174 0018 0023     		movs	r3, #0
 175 001a 0EE0     		b	.L26
 176              	.L31:
  46:telemetry.c   ****     if (f >= 65535.0f)      return 0xFFFFu;
 177              		.loc 1 46 0 is_stmt 1
 178 001c 0949     		ldr	r1, .L33
 179 001e 7868     		ldr	r0, [r7, #4]	@ float
 180 0020 FFF7FEFF 		bl	__aeabi_fcmpge
 181 0024 0346     		mov	r3, r0
 182 0026 002B     		cmp	r3, #0
ARM GAS  C:\Users\JENNEW~1\AppData\Local\Temp\ccW8Un4u.s 			page 5


 183 0028 02D0     		beq	.L32
 184              		.loc 1 46 0 is_stmt 0 discriminator 1
 185 002a 4FF6FF73 		movw	r3, #65535
 186 002e 04E0     		b	.L26
 187              	.L32:
  47:telemetry.c   ****     return (uint16_t)f;
 188              		.loc 1 47 0 is_stmt 1
 189 0030 7868     		ldr	r0, [r7, #4]	@ float
 190 0032 FFF7FEFF 		bl	__aeabi_f2uiz
 191 0036 0346     		mov	r3, r0
 192 0038 9BB2     		uxth	r3, r3
 193              	.L26:
  48:telemetry.c   **** }
 194              		.loc 1 48 0
 195 003a 1846     		mov	r0, r3
 196 003c 0837     		adds	r7, r7, #8
 197              		.cfi_def_cfa_offset 8
 198 003e BD46     		mov	sp, r7
 199              		.cfi_def_cfa_register 13
 200              		@ sp needed
 201 0040 80BD     		pop	{r7, pc}
 202              	.L34:
 203 0042 00BF     		.align	2
 204              	.L33:
 205 0044 00FF7F47 		.word	1199570688
 206              		.cfi_endproc
 207              	.LFE65:
 208              		.size	sat_u16, .-sat_u16
 209              		.global	__aeabi_fmul
 210              		.section	.text.telemetry_collect_hot,"ax",%progbits
 211              		.align	2
 212              		.global	telemetry_collect_hot
 213              		.thumb
 214              		.thumb_func
 215              		.type	telemetry_collect_hot, %function
 216              	telemetry_collect_hot:
 217              	.LFB66:
  49:telemetry.c   **** 
  50:telemetry.c   **** // Helpers: Collectors
  51:telemetry.c   **** void telemetry_collect_hot(const app_ctx_t *ctx, telem_hot_t *out)
  52:telemetry.c   **** {
 218              		.loc 1 52 0
 219              		.cfi_startproc
 220              		@ args = 0, pretend = 0, frame = 248
 221              		@ frame_needed = 1, uses_anonymous_args = 0
 222 0000 80B5     		push	{r7, lr}
 223              		.cfi_def_cfa_offset 8
 224              		.cfi_offset 7, -8
 225              		.cfi_offset 14, -4
 226 0002 BEB0     		sub	sp, sp, #248
 227              		.cfi_def_cfa_offset 256
 228 0004 00AF     		add	r7, sp, #0
 229              		.cfi_def_cfa_register 7
 230 0006 7860     		str	r0, [r7, #4]
 231 0008 3960     		str	r1, [r7]
  53:telemetry.c   ****     memset(out, 0, sizeof *out);
 232              		.loc 1 53 0
ARM GAS  C:\Users\JENNEW~1\AppData\Local\Temp\ccW8Un4u.s 			page 6


 233 000a 1C22     		movs	r2, #28
 234 000c 0021     		movs	r1, #0
 235 000e 3868     		ldr	r0, [r7]
 236 0010 FFF7FEFF 		bl	memset
  54:telemetry.c   ****     out->t_ms  = g_tick_ms;
 237              		.loc 1 54 0
 238 0014 504B     		ldr	r3, .L39
 239 0016 1A68     		ldr	r2, [r3]
 240 0018 3B68     		ldr	r3, [r7]
 241 001a 1A60     		str	r2, [r3]
  55:telemetry.c   ****     out->state = (uint8_t)ctx->state;
 242              		.loc 1 55 0
 243 001c 7B68     		ldr	r3, [r7, #4]
 244 001e 1A79     		ldrb	r2, [r3, #4]	@ zero_extendqisi2
 245 0020 3B68     		ldr	r3, [r7]
 246 0022 1A71     		strb	r2, [r3, #4]
  56:telemetry.c   **** 
  57:telemetry.c   ****     if (!ctx->gimbal) return;
 247              		.loc 1 57 0
 248 0024 7B68     		ldr	r3, [r7, #4]
 249 0026 1B68     		ldr	r3, [r3]
 250 0028 002B     		cmp	r3, #0
 251 002a 00F09080 		beq	.L38
  58:telemetry.c   **** 
  59:telemetry.c   ****     const hamfly_control_t *ctl = &ctx->gimbal->ctl;
 252              		.loc 1 59 0
 253 002e 7B68     		ldr	r3, [r7, #4]
 254 0030 1B68     		ldr	r3, [r3]
 255 0032 0C33     		adds	r3, r3, #12
 256 0034 C7F8F430 		str	r3, [r7, #244]
  60:telemetry.c   ****     out->ctrl_mode_pan  = (uint8_t)ctl->pan_mode;
 257              		.loc 1 60 0
 258 0038 D7F8F430 		ldr	r3, [r7, #244]
 259 003c 1A7B     		ldrb	r2, [r3, #12]	@ zero_extendqisi2
 260 003e 3B68     		ldr	r3, [r7]
 261 0040 5A71     		strb	r2, [r3, #5]
  61:telemetry.c   ****     out->ctrl_mode_tilt = (uint8_t)ctl->tilt_mode;
 262              		.loc 1 61 0
 263 0042 D7F8F430 		ldr	r3, [r7, #244]
 264 0046 5A7B     		ldrb	r2, [r3, #13]	@ zero_extendqisi2
 265 0048 3B68     		ldr	r3, [r7]
 266 004a 9A71     		strb	r2, [r3, #6]
  62:telemetry.c   ****     out->ctrl_mode_roll = (uint8_t)ctl->roll_mode;
 267              		.loc 1 62 0
 268 004c D7F8F430 		ldr	r3, [r7, #244]
 269 0050 9A7B     		ldrb	r2, [r3, #14]	@ zero_extendqisi2
 270 0052 3B68     		ldr	r3, [r7]
 271 0054 DA71     		strb	r2, [r3, #7]
  63:telemetry.c   ****     out->enable         = ctl->enable;
 272              		.loc 1 63 0
 273 0056 D7F8F430 		ldr	r3, [r7, #244]
 274 005a DA7B     		ldrb	r2, [r3, #15]	@ zero_extendqisi2
 275 005c 3B68     		ldr	r3, [r7]
 276 005e 1A72     		strb	r2, [r3, #8]
  64:telemetry.c   ****     out->kill           = ctl->kill;
 277              		.loc 1 64 0
 278 0060 D7F8F430 		ldr	r3, [r7, #244]
ARM GAS  C:\Users\JENNEW~1\AppData\Local\Temp\ccW8Un4u.s 			page 7


 279 0064 1A7C     		ldrb	r2, [r3, #16]	@ zero_extendqisi2
 280 0066 3B68     		ldr	r3, [r7]
 281 0068 5A72     		strb	r2, [r3, #9]
  65:telemetry.c   ****     out->input_pan      = sat_i16(ctl->pan  * 100.0f);
 282              		.loc 1 65 0
 283 006a D7F8F430 		ldr	r3, [r7, #244]
 284 006e 1B68     		ldr	r3, [r3]	@ float
 285 0070 3A49     		ldr	r1, .L39+4
 286 0072 1846     		mov	r0, r3
 287 0074 FFF7FEFF 		bl	__aeabi_fmul
 288 0078 0346     		mov	r3, r0
 289 007a 1846     		mov	r0, r3
 290 007c FFF7FEFF 		bl	sat_i16
 291 0080 0346     		mov	r3, r0
 292 0082 1A46     		mov	r2, r3
 293 0084 3B68     		ldr	r3, [r7]
 294 0086 5A81     		strh	r2, [r3, #10]	@ movhi
  66:telemetry.c   ****     out->input_tilt     = sat_i16(ctl->tilt * 100.0f);
 295              		.loc 1 66 0
 296 0088 D7F8F430 		ldr	r3, [r7, #244]
 297 008c 5B68     		ldr	r3, [r3, #4]	@ float
 298 008e 3349     		ldr	r1, .L39+4
 299 0090 1846     		mov	r0, r3
 300 0092 FFF7FEFF 		bl	__aeabi_fmul
 301 0096 0346     		mov	r3, r0
 302 0098 1846     		mov	r0, r3
 303 009a FFF7FEFF 		bl	sat_i16
 304 009e 0346     		mov	r3, r0
 305 00a0 1A46     		mov	r2, r3
 306 00a2 3B68     		ldr	r3, [r7]
 307 00a4 9A81     		strh	r2, [r3, #12]	@ movhi
  67:telemetry.c   ****     out->input_roll     = sat_i16(ctl->roll * 100.0f);
 308              		.loc 1 67 0
 309 00a6 D7F8F430 		ldr	r3, [r7, #244]
 310 00aa 9B68     		ldr	r3, [r3, #8]	@ float
 311 00ac 2B49     		ldr	r1, .L39+4
 312 00ae 1846     		mov	r0, r3
 313 00b0 FFF7FEFF 		bl	__aeabi_fmul
 314 00b4 0346     		mov	r3, r0
 315 00b6 1846     		mov	r0, r3
 316 00b8 FFF7FEFF 		bl	sat_i16
 317 00bc 0346     		mov	r3, r0
 318 00be 1A46     		mov	r2, r3
 319 00c0 3B68     		ldr	r3, [r7]
 320 00c2 DA81     		strh	r2, [r3, #14]	@ movhi
  68:telemetry.c   **** 
  69:telemetry.c   ****     hamfly_telemetry_t tel;
  70:telemetry.c   ****     hamfly_get_telemetry(ctx->gimbal, &tel);
 321              		.loc 1 70 0
 322 00c4 7B68     		ldr	r3, [r7, #4]
 323 00c6 1B68     		ldr	r3, [r3]
 324 00c8 07F10802 		add	r2, r7, #8
 325 00cc 1146     		mov	r1, r2
 326 00ce 1846     		mov	r0, r3
 327 00d0 FFF7FEFF 		bl	hamfly_get_telemetry
  71:telemetry.c   **** 
  72:telemetry.c   ****     out->gimbal_status1 = tel.gimbal_status1;
ARM GAS  C:\Users\JENNEW~1\AppData\Local\Temp\ccW8Un4u.s 			page 8


 328              		.loc 1 72 0
 329 00d4 97F82420 		ldrb	r2, [r7, #36]	@ zero_extendqisi2
 330 00d8 3B68     		ldr	r3, [r7]
 331 00da 1A74     		strb	r2, [r3, #16]
  73:telemetry.c   ****     out->gimbal_status2 = tel.gimbal_status2;
 332              		.loc 1 73 0
 333 00dc 97F82520 		ldrb	r2, [r7, #37]	@ zero_extendqisi2
 334 00e0 3B68     		ldr	r3, [r7]
 335 00e2 5A74     		strb	r2, [r3, #17]
  74:telemetry.c   ****     out->q_i = sat_i16(tel.gimbal_i * 32767.0f);
 336              		.loc 1 74 0
 337 00e4 BB69     		ldr	r3, [r7, #24]	@ float
 338 00e6 1E49     		ldr	r1, .L39+8
 339 00e8 1846     		mov	r0, r3
 340 00ea FFF7FEFF 		bl	__aeabi_fmul
 341 00ee 0346     		mov	r3, r0
 342 00f0 1846     		mov	r0, r3
 343 00f2 FFF7FEFF 		bl	sat_i16
 344 00f6 0346     		mov	r3, r0
 345 00f8 1A46     		mov	r2, r3
 346 00fa 3B68     		ldr	r3, [r7]
 347 00fc 5A82     		strh	r2, [r3, #18]	@ movhi
  75:telemetry.c   ****     out->q_j = sat_i16(tel.gimbal_j * 32767.0f);
 348              		.loc 1 75 0
 349 00fe FB69     		ldr	r3, [r7, #28]	@ float
 350 0100 1749     		ldr	r1, .L39+8
 351 0102 1846     		mov	r0, r3
 352 0104 FFF7FEFF 		bl	__aeabi_fmul
 353 0108 0346     		mov	r3, r0
 354 010a 1846     		mov	r0, r3
 355 010c FFF7FEFF 		bl	sat_i16
 356 0110 0346     		mov	r3, r0
 357 0112 1A46     		mov	r2, r3
 358 0114 3B68     		ldr	r3, [r7]
 359 0116 9A82     		strh	r2, [r3, #20]	@ movhi
  76:telemetry.c   ****     out->q_k = sat_i16(tel.gimbal_k * 32767.0f);
 360              		.loc 1 76 0
 361 0118 3B6A     		ldr	r3, [r7, #32]	@ float
 362 011a 1149     		ldr	r1, .L39+8
 363 011c 1846     		mov	r0, r3
 364 011e FFF7FEFF 		bl	__aeabi_fmul
 365 0122 0346     		mov	r3, r0
 366 0124 1846     		mov	r0, r3
 367 0126 FFF7FEFF 		bl	sat_i16
 368 012a 0346     		mov	r3, r0
 369 012c 1A46     		mov	r2, r3
 370 012e 3B68     		ldr	r3, [r7]
 371 0130 DA82     		strh	r2, [r3, #22]	@ movhi
  77:telemetry.c   ****     out->q_r = sat_i16(tel.gimbal_r * 32767.0f);
 372              		.loc 1 77 0
 373 0132 7B69     		ldr	r3, [r7, #20]	@ float
 374 0134 0A49     		ldr	r1, .L39+8
 375 0136 1846     		mov	r0, r3
 376 0138 FFF7FEFF 		bl	__aeabi_fmul
 377 013c 0346     		mov	r3, r0
 378 013e 1846     		mov	r0, r3
 379 0140 FFF7FEFF 		bl	sat_i16
ARM GAS  C:\Users\JENNEW~1\AppData\Local\Temp\ccW8Un4u.s 			page 9


 380 0144 0346     		mov	r3, r0
 381 0146 1A46     		mov	r2, r3
 382 0148 3B68     		ldr	r3, [r7]
 383 014a 1A83     		strh	r2, [r3, #24]	@ movhi
 384 014c 00E0     		b	.L35
 385              	.L38:
  57:telemetry.c   **** 
 386              		.loc 1 57 0
 387 014e 00BF     		nop
 388              	.L35:
  78:telemetry.c   **** }
 389              		.loc 1 78 0
 390 0150 F837     		adds	r7, r7, #248
 391              		.cfi_def_cfa_offset 8
 392 0152 BD46     		mov	sp, r7
 393              		.cfi_def_cfa_register 13
 394              		@ sp needed
 395 0154 80BD     		pop	{r7, pc}
 396              	.L40:
 397 0156 00BF     		.align	2
 398              	.L39:
 399 0158 00000000 		.word	g_tick_ms
 400 015c 0000C842 		.word	1120403456
 401 0160 00FEFF46 		.word	1191181824
 402              		.cfi_endproc
 403              	.LFE66:
 404              		.size	telemetry_collect_hot, .-telemetry_collect_hot
 405              		.section	.text.telemetry_collect_link,"ax",%progbits
 406              		.align	2
 407              		.global	telemetry_collect_link
 408              		.thumb
 409              		.thumb_func
 410              		.type	telemetry_collect_link, %function
 411              	telemetry_collect_link:
 412              	.LFB67:
  79:telemetry.c   **** 
  80:telemetry.c   **** void telemetry_collect_link(const app_ctx_t *ctx, telem_link_t *out)
  81:telemetry.c   **** {
 413              		.loc 1 81 0
 414              		.cfi_startproc
 415              		@ args = 0, pretend = 0, frame = 8
 416              		@ frame_needed = 1, uses_anonymous_args = 0
 417 0000 80B5     		push	{r7, lr}
 418              		.cfi_def_cfa_offset 8
 419              		.cfi_offset 7, -8
 420              		.cfi_offset 14, -4
 421 0002 82B0     		sub	sp, sp, #8
 422              		.cfi_def_cfa_offset 16
 423 0004 00AF     		add	r7, sp, #0
 424              		.cfi_def_cfa_register 7
 425 0006 7860     		str	r0, [r7, #4]
 426 0008 3960     		str	r1, [r7]
  82:telemetry.c   ****     (void)ctx;
  83:telemetry.c   ****     memset(out, 0, sizeof *out);
 427              		.loc 1 83 0
 428 000a 1422     		movs	r2, #20
 429 000c 0021     		movs	r1, #0
ARM GAS  C:\Users\JENNEW~1\AppData\Local\Temp\ccW8Un4u.s 			page 10


 430 000e 3868     		ldr	r0, [r7]
 431 0010 FFF7FEFF 		bl	memset
  84:telemetry.c   ****     out->t_ms                = g_tick_ms;
 432              		.loc 1 84 0
 433 0014 124B     		ldr	r3, .L42
 434 0016 1A68     		ldr	r2, [r3]
 435 0018 3B68     		ldr	r3, [r7]
 436 001a 1A60     		str	r2, [r3]
  85:telemetry.c   ****     out->crc_fail            = sbc_crc_errors();
 437              		.loc 1 85 0
 438 001c FFF7FEFF 		bl	sbc_crc_errors
 439 0020 0346     		mov	r3, r0
 440 0022 1A46     		mov	r2, r3
 441 0024 3B68     		ldr	r3, [r7]
 442 0026 9A80     		strh	r2, [r3, #4]	@ movhi
  86:telemetry.c   ****     out->uart_err            = sbc_uart_errors();
 443              		.loc 1 86 0
 444 0028 FFF7FEFF 		bl	sbc_uart_errors
 445 002c 0346     		mov	r3, r0
 446 002e 1A46     		mov	r2, r3
 447 0030 3B68     		ldr	r3, [r7]
 448 0032 DA80     		strh	r2, [r3, #6]	@ movhi
  87:telemetry.c   ****     out->unknown_magic       = sbc_unknown_magic();
 449              		.loc 1 87 0
 450 0034 FFF7FEFF 		bl	sbc_unknown_magic
 451 0038 0346     		mov	r3, r0
 452 003a 1A46     		mov	r2, r3
 453 003c 3B68     		ldr	r3, [r7]
 454 003e 1A81     		strh	r2, [r3, #8]	@ movhi
  88:telemetry.c   ****     out->rx_pkt_count        = sbc_rx_pkt_count();
 455              		.loc 1 88 0
 456 0040 FFF7FEFF 		bl	sbc_rx_pkt_count
 457 0044 0246     		mov	r2, r0
 458 0046 3B68     		ldr	r3, [r7]
 459 0048 DA60     		str	r2, [r3, #12]
  89:telemetry.c   ****     out->last_centroid_dt_ms = sbc_last_centroid_dt_ms(STREAM_COARSE);
 460              		.loc 1 89 0
 461 004a 0020     		movs	r0, #0
 462 004c FFF7FEFF 		bl	sbc_last_centroid_dt_ms
 463 0050 0346     		mov	r3, r0
 464 0052 1A46     		mov	r2, r3
 465 0054 3B68     		ldr	r3, [r7]
 466 0056 1A82     		strh	r2, [r3, #16]	@ movhi
  90:telemetry.c   **** }
 467              		.loc 1 90 0
 468 0058 00BF     		nop
 469 005a 0837     		adds	r7, r7, #8
 470              		.cfi_def_cfa_offset 8
 471 005c BD46     		mov	sp, r7
 472              		.cfi_def_cfa_register 13
 473              		@ sp needed
 474 005e 80BD     		pop	{r7, pc}
 475              	.L43:
 476              		.align	2
 477              	.L42:
 478 0060 00000000 		.word	g_tick_ms
 479              		.cfi_endproc
ARM GAS  C:\Users\JENNEW~1\AppData\Local\Temp\ccW8Un4u.s 			page 11


 480              	.LFE67:
 481              		.size	telemetry_collect_link, .-telemetry_collect_link
 482              		.section	.text.telemetry_collect_power,"ax",%progbits
 483              		.align	2
 484              		.global	telemetry_collect_power
 485              		.thumb
 486              		.thumb_func
 487              		.type	telemetry_collect_power, %function
 488              	telemetry_collect_power:
 489              	.LFB68:
  91:telemetry.c   **** void telemetry_collect_power(const app_ctx_t *ctx, telem_power_t *out)
  92:telemetry.c   **** {
 490              		.loc 1 92 0
 491              		.cfi_startproc
 492              		@ args = 0, pretend = 0, frame = 248
 493              		@ frame_needed = 1, uses_anonymous_args = 0
 494 0000 80B5     		push	{r7, lr}
 495              		.cfi_def_cfa_offset 8
 496              		.cfi_offset 7, -8
 497              		.cfi_offset 14, -4
 498 0002 BEB0     		sub	sp, sp, #248
 499              		.cfi_def_cfa_offset 256
 500 0004 00AF     		add	r7, sp, #0
 501              		.cfi_def_cfa_register 7
 502 0006 7860     		str	r0, [r7, #4]
 503 0008 3960     		str	r1, [r7]
  93:telemetry.c   ****     memset(out, 0, sizeof *out);
 504              		.loc 1 93 0
 505 000a 1022     		movs	r2, #16
 506 000c 0021     		movs	r1, #0
 507 000e 3868     		ldr	r0, [r7]
 508 0010 FFF7FEFF 		bl	memset
  94:telemetry.c   ****     out->t_ms = g_tick_ms;
 509              		.loc 1 94 0
 510 0014 284B     		ldr	r3, .L48
 511 0016 1A68     		ldr	r2, [r3]
 512 0018 3B68     		ldr	r3, [r7]
 513 001a 1A60     		str	r2, [r3]
  95:telemetry.c   **** 
  96:telemetry.c   ****     if (!ctx->gimbal) return;
 514              		.loc 1 96 0
 515 001c 7B68     		ldr	r3, [r7, #4]
 516 001e 1B68     		ldr	r3, [r3]
 517 0020 002B     		cmp	r3, #0
 518 0022 45D0     		beq	.L47
  97:telemetry.c   ****     hamfly_telemetry_t tel;
  98:telemetry.c   ****     hamfly_get_telemetry(ctx->gimbal, &tel);
 519              		.loc 1 98 0
 520 0024 7B68     		ldr	r3, [r7, #4]
 521 0026 1B68     		ldr	r3, [r3]
 522 0028 07F10C02 		add	r2, r7, #12
 523 002c 1146     		mov	r1, r2
 524 002e 1846     		mov	r0, r3
 525 0030 FFF7FEFF 		bl	hamfly_get_telemetry
  99:telemetry.c   **** 
 100:telemetry.c   ****     out->vbat_left_mv    = sat_u16(tel.battery_left_v  * 1000.0f);
 526              		.loc 1 100 0
ARM GAS  C:\Users\JENNEW~1\AppData\Local\Temp\ccW8Un4u.s 			page 12


 527 0034 3B69     		ldr	r3, [r7, #16]	@ float
 528 0036 2149     		ldr	r1, .L48+4
 529 0038 1846     		mov	r0, r3
 530 003a FFF7FEFF 		bl	__aeabi_fmul
 531 003e 0346     		mov	r3, r0
 532 0040 1846     		mov	r0, r3
 533 0042 FFF7FEFF 		bl	sat_u16
 534 0046 0346     		mov	r3, r0
 535 0048 1A46     		mov	r2, r3
 536 004a 3B68     		ldr	r3, [r7]
 537 004c 9A80     		strh	r2, [r3, #4]	@ movhi
 101:telemetry.c   ****     out->vbat_right_mv   = sat_u16(tel.battery_right_v * 1000.0f);
 538              		.loc 1 101 0
 539 004e 7B69     		ldr	r3, [r7, #20]	@ float
 540 0050 1A49     		ldr	r1, .L48+4
 541 0052 1846     		mov	r0, r3
 542 0054 FFF7FEFF 		bl	__aeabi_fmul
 543 0058 0346     		mov	r3, r0
 544 005a 1846     		mov	r0, r3
 545 005c FFF7FEFF 		bl	sat_u16
 546 0060 0346     		mov	r3, r0
 547 0062 1A46     		mov	r2, r3
 548 0064 3B68     		ldr	r3, [r7]
 549 0066 DA80     		strh	r2, [r3, #6]	@ movhi
 102:telemetry.c   ****     out->sysstat_batt_mv = sat_u16(tel.sysstat_batt_v  * 1000.0f);
 550              		.loc 1 102 0
 551 0068 D7F8A030 		ldr	r3, [r7, #160]	@ float
 552 006c 1349     		ldr	r1, .L48+4
 553 006e 1846     		mov	r0, r3
 554 0070 FFF7FEFF 		bl	__aeabi_fmul
 555 0074 0346     		mov	r3, r0
 556 0076 1846     		mov	r0, r3
 557 0078 FFF7FEFF 		bl	sat_u16
 558 007c 0346     		mov	r3, r0
 559 007e 1A46     		mov	r2, r3
 560 0080 3B68     		ldr	r3, [r7]
 561 0082 1A81     		strh	r2, [r3, #8]	@ movhi
 103:telemetry.c   ****     out->sysstat_batt_ma = sat_i16(tel.sysstat_batt_a  * 1000.0f);
 562              		.loc 1 103 0
 563 0084 D7F8C030 		ldr	r3, [r7, #192]	@ float
 564 0088 0C49     		ldr	r1, .L48+4
 565 008a 1846     		mov	r0, r3
 566 008c FFF7FEFF 		bl	__aeabi_fmul
 567 0090 0346     		mov	r3, r0
 568 0092 1846     		mov	r0, r3
 569 0094 FFF7FEFF 		bl	sat_i16
 570 0098 0346     		mov	r3, r0
 571 009a 1A46     		mov	r2, r3
 572 009c 3B68     		ldr	r3, [r7]
 573 009e 5A81     		strh	r2, [r3, #10]	@ movhi
 104:telemetry.c   ****     out->sysstat_cpu_pct = tel.sysstat_cpu_pct;
 574              		.loc 1 104 0
 575 00a0 97F8AC20 		ldrb	r2, [r7, #172]	@ zero_extendqisi2
 576 00a4 3B68     		ldr	r3, [r7]
 577 00a6 1A73     		strb	r2, [r3, #12]
 105:telemetry.c   **** 
 106:telemetry.c   ****     //  TODO: wire DieTemp component if/when added to TopDesign.
ARM GAS  C:\Users\JENNEW~1\AppData\Local\Temp\ccW8Un4u.s 			page 13


 107:telemetry.c   ****     out->mcu_temp_c = 0;
 578              		.loc 1 107 0
 579 00a8 3B68     		ldr	r3, [r7]
 580 00aa 0022     		movs	r2, #0
 581 00ac 5A73     		strb	r2, [r3, #13]
 582 00ae 00E0     		b	.L44
 583              	.L47:
  96:telemetry.c   ****     hamfly_telemetry_t tel;
 584              		.loc 1 96 0
 585 00b0 00BF     		nop
 586              	.L44:
 108:telemetry.c   **** }
 587              		.loc 1 108 0
 588 00b2 F837     		adds	r7, r7, #248
 589              		.cfi_def_cfa_offset 8
 590 00b4 BD46     		mov	sp, r7
 591              		.cfi_def_cfa_register 13
 592              		@ sp needed
 593 00b6 80BD     		pop	{r7, pc}
 594              	.L49:
 595              		.align	2
 596              	.L48:
 597 00b8 00000000 		.word	g_tick_ms
 598 00bc 00007A44 		.word	1148846080
 599              		.cfi_endproc
 600              	.LFE68:
 601              		.size	telemetry_collect_power, .-telemetry_collect_power
 602              		.section	.text.telemetry_collect_env,"ax",%progbits
 603              		.align	2
 604              		.global	telemetry_collect_env
 605              		.thumb
 606              		.thumb_func
 607              		.type	telemetry_collect_env, %function
 608              	telemetry_collect_env:
 609              	.LFB69:
 109:telemetry.c   **** 
 110:telemetry.c   **** void telemetry_collect_env(const app_ctx_t *ctx, telem_env_t *out)
 111:telemetry.c   **** {
 610              		.loc 1 111 0
 611              		.cfi_startproc
 612              		@ args = 0, pretend = 0, frame = 248
 613              		@ frame_needed = 1, uses_anonymous_args = 0
 614 0000 80B5     		push	{r7, lr}
 615              		.cfi_def_cfa_offset 8
 616              		.cfi_offset 7, -8
 617              		.cfi_offset 14, -4
 618 0002 BEB0     		sub	sp, sp, #248
 619              		.cfi_def_cfa_offset 256
 620 0004 00AF     		add	r7, sp, #0
 621              		.cfi_def_cfa_register 7
 622 0006 7860     		str	r0, [r7, #4]
 623 0008 3960     		str	r1, [r7]
 112:telemetry.c   ****     memset(out, 0, sizeof *out);
 624              		.loc 1 112 0
 625 000a 0C22     		movs	r2, #12
 626 000c 0021     		movs	r1, #0
 627 000e 3868     		ldr	r0, [r7]
ARM GAS  C:\Users\JENNEW~1\AppData\Local\Temp\ccW8Un4u.s 			page 14


 628 0010 FFF7FEFF 		bl	memset
 113:telemetry.c   ****     out->t_ms = g_tick_ms;
 629              		.loc 1 113 0
 630 0014 174B     		ldr	r3, .L54
 631 0016 1A68     		ldr	r2, [r3]
 632 0018 3B68     		ldr	r3, [r7]
 633 001a 1A60     		str	r2, [r3]
 114:telemetry.c   **** 
 115:telemetry.c   ****     if (!ctx->gimbal) return;
 634              		.loc 1 115 0
 635 001c 7B68     		ldr	r3, [r7, #4]
 636 001e 1B68     		ldr	r3, [r3]
 637 0020 002B     		cmp	r3, #0
 638 0022 23D0     		beq	.L53
 116:telemetry.c   ****     hamfly_telemetry_t tel;
 117:telemetry.c   ****     hamfly_get_telemetry(ctx->gimbal, &tel);
 639              		.loc 1 117 0
 640 0024 7B68     		ldr	r3, [r7, #4]
 641 0026 1B68     		ldr	r3, [r3]
 642 0028 07F10C02 		add	r2, r7, #12
 643 002c 1146     		mov	r1, r2
 644 002e 1846     		mov	r0, r3
 645 0030 FFF7FEFF 		bl	hamfly_get_telemetry
 118:telemetry.c   **** 
 119:telemetry.c   ****     out->sysstat_temp_c10  = sat_i16(tel.sysstat_temp_c     * 10.0f);
 646              		.loc 1 119 0
 647 0034 D7F8A830 		ldr	r3, [r7, #168]	@ float
 648 0038 0F49     		ldr	r1, .L54+4
 649 003a 1846     		mov	r0, r3
 650 003c FFF7FEFF 		bl	__aeabi_fmul
 651 0040 0346     		mov	r3, r0
 652 0042 1846     		mov	r0, r3
 653 0044 FFF7FEFF 		bl	sat_i16
 654 0048 0346     		mov	r3, r0
 655 004a 1A46     		mov	r2, r3
 656 004c 3B68     		ldr	r3, [r7]
 657 004e 9A80     		strh	r2, [r3, #4]	@ movhi
 120:telemetry.c   ****     out->sysstat_press_Pa  = sat_u32(tel.sysstat_pressure_mb * 100.0f);
 658              		.loc 1 120 0
 659 0050 D7F8B430 		ldr	r3, [r7, #180]	@ float
 660 0054 0949     		ldr	r1, .L54+8
 661 0056 1846     		mov	r0, r3
 662 0058 FFF7FEFF 		bl	__aeabi_fmul
 663 005c 0346     		mov	r3, r0
 664 005e 1846     		mov	r0, r3
 665 0060 FFF7FEFF 		bl	sat_u32
 666 0064 0246     		mov	r2, r0
 667 0066 3B68     		ldr	r3, [r7]
 668 0068 9A60     		str	r2, [r3, #8]
 669 006a 00E0     		b	.L50
 670              	.L53:
 115:telemetry.c   ****     hamfly_telemetry_t tel;
 671              		.loc 1 115 0
 672 006c 00BF     		nop
 673              	.L50:
 121:telemetry.c   **** }
 674              		.loc 1 121 0
ARM GAS  C:\Users\JENNEW~1\AppData\Local\Temp\ccW8Un4u.s 			page 15


 675 006e F837     		adds	r7, r7, #248
 676              		.cfi_def_cfa_offset 8
 677 0070 BD46     		mov	sp, r7
 678              		.cfi_def_cfa_register 13
 679              		@ sp needed
 680 0072 80BD     		pop	{r7, pc}
 681              	.L55:
 682              		.align	2
 683              	.L54:
 684 0074 00000000 		.word	g_tick_ms
 685 0078 00002041 		.word	1092616192
 686 007c 0000C842 		.word	1120403456
 687              		.cfi_endproc
 688              	.LFE69:
 689              		.size	telemetry_collect_env, .-telemetry_collect_env
 690              		.section	.text.telemetry_collect_gps,"ax",%progbits
 691              		.align	2
 692              		.global	telemetry_collect_gps
 693              		.thumb
 694              		.thumb_func
 695              		.type	telemetry_collect_gps, %function
 696              	telemetry_collect_gps:
 697              	.LFB70:
 122:telemetry.c   **** 
 123:telemetry.c   **** void telemetry_collect_gps(const app_ctx_t *ctx, telem_gps_t *out)
 124:telemetry.c   **** {
 698              		.loc 1 124 0
 699              		.cfi_startproc
 700              		@ args = 0, pretend = 0, frame = 248
 701              		@ frame_needed = 1, uses_anonymous_args = 0
 702 0000 80B5     		push	{r7, lr}
 703              		.cfi_def_cfa_offset 8
 704              		.cfi_offset 7, -8
 705              		.cfi_offset 14, -4
 706 0002 BEB0     		sub	sp, sp, #248
 707              		.cfi_def_cfa_offset 256
 708 0004 00AF     		add	r7, sp, #0
 709              		.cfi_def_cfa_register 7
 710 0006 7860     		str	r0, [r7, #4]
 711 0008 3960     		str	r1, [r7]
 125:telemetry.c   ****     memset(out, 0, sizeof *out);
 712              		.loc 1 125 0
 713 000a 2022     		movs	r2, #32
 714 000c 0021     		movs	r1, #0
 715 000e 3868     		ldr	r0, [r7]
 716 0010 FFF7FEFF 		bl	memset
 126:telemetry.c   ****     out->t_ms = g_tick_ms;
 717              		.loc 1 126 0
 718 0014 234B     		ldr	r3, .L64
 719 0016 1A68     		ldr	r2, [r3]
 720 0018 3B68     		ldr	r3, [r7]
 721 001a 1A60     		str	r2, [r3]
 127:telemetry.c   **** 
 128:telemetry.c   ****     if (!ctx->gimbal) return;
 722              		.loc 1 128 0
 723 001c 7B68     		ldr	r3, [r7, #4]
 724 001e 1B68     		ldr	r3, [r3]
ARM GAS  C:\Users\JENNEW~1\AppData\Local\Temp\ccW8Un4u.s 			page 16


 725 0020 002B     		cmp	r3, #0
 726 0022 3BD0     		beq	.L63
 129:telemetry.c   ****     hamfly_telemetry_t tel;
 130:telemetry.c   ****     hamfly_get_telemetry(ctx->gimbal, &tel);
 727              		.loc 1 130 0
 728 0024 7B68     		ldr	r3, [r7, #4]
 729 0026 1B68     		ldr	r3, [r3]
 730 0028 07F10C02 		add	r2, r7, #12
 731 002c 1146     		mov	r1, r2
 732 002e 1846     		mov	r0, r3
 733 0030 FFF7FEFF 		bl	hamfly_get_telemetry
 131:telemetry.c   **** 
 132:telemetry.c   ****     out->flags   = (uint8_t)((tel.gps_valid  ? 0x01u : 0u)
 734              		.loc 1 132 0
 735 0034 97F82A30 		ldrb	r3, [r7, #42]	@ zero_extendqisi2
 736 0038 002B     		cmp	r3, #0
 737 003a 01D0     		beq	.L59
 738              		.loc 1 132 0 is_stmt 0 discriminator 1
 739 003c 0122     		movs	r2, #1
 740 003e 00E0     		b	.L60
 741              	.L59:
 742              		.loc 1 132 0 discriminator 2
 743 0040 0022     		movs	r2, #0
 744              	.L60:
 133:telemetry.c   ****                            | (tel.gps_locked ? 0x02u : 0u));
 745              		.loc 1 133 0 is_stmt 1 discriminator 4
 746 0042 97F82B30 		ldrb	r3, [r7, #43]	@ zero_extendqisi2
 132:telemetry.c   ****                            | (tel.gps_locked ? 0x02u : 0u));
 747              		.loc 1 132 0 discriminator 4
 748 0046 002B     		cmp	r3, #0
 749 0048 01D0     		beq	.L61
 132:telemetry.c   ****                            | (tel.gps_locked ? 0x02u : 0u));
 750              		.loc 1 132 0 is_stmt 0 discriminator 5
 751 004a 0223     		movs	r3, #2
 752 004c 00E0     		b	.L62
 753              	.L61:
 132:telemetry.c   ****                            | (tel.gps_locked ? 0x02u : 0u));
 754              		.loc 1 132 0 discriminator 6
 755 004e 0023     		movs	r3, #0
 756              	.L62:
 132:telemetry.c   ****                            | (tel.gps_locked ? 0x02u : 0u));
 757              		.loc 1 132 0 discriminator 8
 758 0050 1343     		orrs	r3, r3, r2
 759 0052 DAB2     		uxtb	r2, r3
 760 0054 3B68     		ldr	r3, [r7]
 761 0056 1A71     		strb	r2, [r3, #4]
 134:telemetry.c   ****     out->sats    = tel.sysstat_gps_sats;   //  comes from SYSSTAT, not GPS attr
 762              		.loc 1 134 0 is_stmt 1 discriminator 8
 763 0058 97F8A420 		ldrb	r2, [r7, #164]	@ zero_extendqisi2
 764 005c 3B68     		ldr	r3, [r7]
 765 005e 5A71     		strb	r2, [r3, #5]
 135:telemetry.c   ****     out->raw_lat = tel.gps_raw_lat;
 766              		.loc 1 135 0 discriminator 8
 767 0060 FA6C     		ldr	r2, [r7, #76]
 768 0062 3B68     		ldr	r3, [r7]
 769 0064 9A60     		str	r2, [r3, #8]
 136:telemetry.c   ****     out->raw_lon = tel.gps_raw_lon;
ARM GAS  C:\Users\JENNEW~1\AppData\Local\Temp\ccW8Un4u.s 			page 17


 770              		.loc 1 136 0 discriminator 8
 771 0066 3A6D     		ldr	r2, [r7, #80]
 772 0068 3B68     		ldr	r3, [r7]
 773 006a DA60     		str	r2, [r3, #12]
 137:telemetry.c   ****     out->raw_alt = tel.gps_raw_alt;
 774              		.loc 1 137 0 discriminator 8
 775 006c 7A6D     		ldr	r2, [r7, #84]
 776 006e 3B68     		ldr	r3, [r7]
 777 0070 1A61     		str	r2, [r3, #16]
 138:telemetry.c   ****     out->raw_spd = tel.gps_raw_spd;
 778              		.loc 1 138 0 discriminator 8
 779 0072 B7F95820 		ldrsh	r2, [r7, #88]
 780 0076 3B68     		ldr	r3, [r7]
 781 0078 9A82     		strh	r2, [r3, #20]	@ movhi
 139:telemetry.c   ****     out->raw_hdg = tel.gps_raw_hdg;
 782              		.loc 1 139 0 discriminator 8
 783 007a B7F95A20 		ldrsh	r2, [r7, #90]
 784 007e 3B68     		ldr	r3, [r7]
 785 0080 DA82     		strh	r2, [r3, #22]	@ movhi
 140:telemetry.c   ****     out->hacc    = tel.gps_raw_hacc;
 786              		.loc 1 140 0 discriminator 8
 787 0082 B7F85C20 		ldrh	r2, [r7, #92]
 788 0086 3B68     		ldr	r3, [r7]
 789 0088 1A83     		strh	r2, [r3, #24]	@ movhi
 141:telemetry.c   ****     out->vacc    = tel.gps_raw_vacc;
 790              		.loc 1 141 0 discriminator 8
 791 008a B7F85E20 		ldrh	r2, [r7, #94]
 792 008e 3B68     		ldr	r3, [r7]
 793 0090 5A83     		strh	r2, [r3, #26]	@ movhi
 142:telemetry.c   ****     out->sacc    = tel.gps_raw_sacc;
 794              		.loc 1 142 0 discriminator 8
 795 0092 B7F86020 		ldrh	r2, [r7, #96]
 796 0096 3B68     		ldr	r3, [r7]
 797 0098 9A83     		strh	r2, [r3, #28]	@ movhi
 798 009a 00E0     		b	.L56
 799              	.L63:
 128:telemetry.c   ****     hamfly_telemetry_t tel;
 800              		.loc 1 128 0
 801 009c 00BF     		nop
 802              	.L56:
 143:telemetry.c   **** }
 803              		.loc 1 143 0
 804 009e F837     		adds	r7, r7, #248
 805              		.cfi_def_cfa_offset 8
 806 00a0 BD46     		mov	sp, r7
 807              		.cfi_def_cfa_register 13
 808              		@ sp needed
 809 00a2 80BD     		pop	{r7, pc}
 810              	.L65:
 811              		.align	2
 812              	.L64:
 813 00a4 00000000 		.word	g_tick_ms
 814              		.cfi_endproc
 815              	.LFE70:
 816              		.size	telemetry_collect_gps, .-telemetry_collect_gps
 817              		.section	.text.telemetry_collect_baro,"ax",%progbits
 818              		.align	2
ARM GAS  C:\Users\JENNEW~1\AppData\Local\Temp\ccW8Un4u.s 			page 18


 819              		.global	telemetry_collect_baro
 820              		.thumb
 821              		.thumb_func
 822              		.type	telemetry_collect_baro, %function
 823              	telemetry_collect_baro:
 824              	.LFB71:
 144:telemetry.c   **** 
 145:telemetry.c   **** void telemetry_collect_baro(const app_ctx_t *ctx, telem_baro_t *out)
 146:telemetry.c   **** {
 825              		.loc 1 146 0
 826              		.cfi_startproc
 827              		@ args = 0, pretend = 0, frame = 248
 828              		@ frame_needed = 1, uses_anonymous_args = 0
 829 0000 80B5     		push	{r7, lr}
 830              		.cfi_def_cfa_offset 8
 831              		.cfi_offset 7, -8
 832              		.cfi_offset 14, -4
 833 0002 BEB0     		sub	sp, sp, #248
 834              		.cfi_def_cfa_offset 256
 835 0004 00AF     		add	r7, sp, #0
 836              		.cfi_def_cfa_register 7
 837 0006 7860     		str	r0, [r7, #4]
 838 0008 3960     		str	r1, [r7]
 147:telemetry.c   ****     memset(out, 0, sizeof *out);
 839              		.loc 1 147 0
 840 000a 1022     		movs	r2, #16
 841 000c 0021     		movs	r1, #0
 842 000e 3868     		ldr	r0, [r7]
 843 0010 FFF7FEFF 		bl	memset
 148:telemetry.c   ****     out->t_ms = g_tick_ms;
 844              		.loc 1 148 0
 845 0014 1B4B     		ldr	r3, .L72
 846 0016 1A68     		ldr	r2, [r3]
 847 0018 3B68     		ldr	r3, [r7]
 848 001a 1A60     		str	r2, [r3]
 149:telemetry.c   **** 
 150:telemetry.c   ****     if (!ctx->gimbal) return;
 849              		.loc 1 150 0
 850 001c 7B68     		ldr	r3, [r7, #4]
 851 001e 1B68     		ldr	r3, [r3]
 852 0020 002B     		cmp	r3, #0
 853 0022 2AD0     		beq	.L71
 151:telemetry.c   ****     hamfly_telemetry_t tel;
 152:telemetry.c   ****     hamfly_get_telemetry(ctx->gimbal, &tel);
 854              		.loc 1 152 0
 855 0024 7B68     		ldr	r3, [r7, #4]
 856 0026 1B68     		ldr	r3, [r3]
 857 0028 07F10C02 		add	r2, r7, #12
 858 002c 1146     		mov	r1, r2
 859 002e 1846     		mov	r0, r3
 860 0030 FFF7FEFF 		bl	hamfly_get_telemetry
 153:telemetry.c   **** 
 154:telemetry.c   ****     out->flags   = (uint8_t)(tel.baro_valid ? 0x01u : 0u);
 861              		.loc 1 154 0
 862 0034 97F86230 		ldrb	r3, [r7, #98]	@ zero_extendqisi2
 863 0038 002B     		cmp	r3, #0
 864 003a 01D0     		beq	.L69
ARM GAS  C:\Users\JENNEW~1\AppData\Local\Temp\ccW8Un4u.s 			page 19


 865              		.loc 1 154 0 is_stmt 0 discriminator 1
 866 003c 0122     		movs	r2, #1
 867 003e 00E0     		b	.L70
 868              	.L69:
 869              		.loc 1 154 0 discriminator 2
 870 0040 0022     		movs	r2, #0
 871              	.L70:
 872              		.loc 1 154 0 discriminator 4
 873 0042 3B68     		ldr	r3, [r7]
 874 0044 1A71     		strb	r2, [r3, #4]
 155:telemetry.c   ****     out->alt_dm  = (int32_t)(tel.baro_alt_m * 10.0f);     //  saturate not needed: alt range fits i
 875              		.loc 1 155 0 is_stmt 1 discriminator 4
 876 0046 7B6E     		ldr	r3, [r7, #100]	@ float
 877 0048 0F49     		ldr	r1, .L72+4
 878 004a 1846     		mov	r0, r3
 879 004c FFF7FEFF 		bl	__aeabi_fmul
 880 0050 0346     		mov	r3, r0
 881 0052 1846     		mov	r0, r3
 882 0054 FFF7FEFF 		bl	__aeabi_f2iz
 883 0058 0246     		mov	r2, r0
 884 005a 3B68     		ldr	r3, [r7]
 885 005c 9A60     		str	r2, [r3, #8]
 156:telemetry.c   ****     out->roc_cms = sat_i16(tel.baro_roc_ms * 100.0f);
 886              		.loc 1 156 0 discriminator 4
 887 005e BB6E     		ldr	r3, [r7, #104]	@ float
 888 0060 0A49     		ldr	r1, .L72+8
 889 0062 1846     		mov	r0, r3
 890 0064 FFF7FEFF 		bl	__aeabi_fmul
 891 0068 0346     		mov	r3, r0
 892 006a 1846     		mov	r0, r3
 893 006c FFF7FEFF 		bl	sat_i16
 894 0070 0346     		mov	r3, r0
 895 0072 1A46     		mov	r2, r3
 896 0074 3B68     		ldr	r3, [r7]
 897 0076 9A81     		strh	r2, [r3, #12]	@ movhi
 898 0078 00E0     		b	.L66
 899              	.L71:
 150:telemetry.c   ****     hamfly_telemetry_t tel;
 900              		.loc 1 150 0
 901 007a 00BF     		nop
 902              	.L66:
 157:telemetry.c   **** }
 903              		.loc 1 157 0
 904 007c F837     		adds	r7, r7, #248
 905              		.cfi_def_cfa_offset 8
 906 007e BD46     		mov	sp, r7
 907              		.cfi_def_cfa_register 13
 908              		@ sp needed
 909 0080 80BD     		pop	{r7, pc}
 910              	.L73:
 911 0082 00BF     		.align	2
 912              	.L72:
 913 0084 00000000 		.word	g_tick_ms
 914 0088 00002041 		.word	1092616192
 915 008c 0000C842 		.word	1120403456
 916              		.cfi_endproc
 917              	.LFE71:
ARM GAS  C:\Users\JENNEW~1\AppData\Local\Temp\ccW8Un4u.s 			page 20


 918              		.size	telemetry_collect_baro, .-telemetry_collect_baro
 919              		.section	.text.telemetry_collect_mag,"ax",%progbits
 920              		.align	2
 921              		.global	telemetry_collect_mag
 922              		.thumb
 923              		.thumb_func
 924              		.type	telemetry_collect_mag, %function
 925              	telemetry_collect_mag:
 926              	.LFB72:
 158:telemetry.c   **** 
 159:telemetry.c   **** void telemetry_collect_mag(const app_ctx_t *ctx, telem_mag_t *out)
 160:telemetry.c   **** {
 927              		.loc 1 160 0
 928              		.cfi_startproc
 929              		@ args = 0, pretend = 0, frame = 248
 930              		@ frame_needed = 1, uses_anonymous_args = 0
 931 0000 80B5     		push	{r7, lr}
 932              		.cfi_def_cfa_offset 8
 933              		.cfi_offset 7, -8
 934              		.cfi_offset 14, -4
 935 0002 BEB0     		sub	sp, sp, #248
 936              		.cfi_def_cfa_offset 256
 937 0004 00AF     		add	r7, sp, #0
 938              		.cfi_def_cfa_register 7
 939 0006 7860     		str	r0, [r7, #4]
 940 0008 3960     		str	r1, [r7]
 161:telemetry.c   ****     memset(out, 0, sizeof *out);
 941              		.loc 1 161 0
 942 000a 1022     		movs	r2, #16
 943 000c 0021     		movs	r1, #0
 944 000e 3868     		ldr	r0, [r7]
 945 0010 FFF7FEFF 		bl	memset
 162:telemetry.c   ****     out->t_ms = g_tick_ms;
 946              		.loc 1 162 0
 947 0014 2A4B     		ldr	r3, .L80
 948 0016 1A68     		ldr	r2, [r3]
 949 0018 3B68     		ldr	r3, [r7]
 950 001a 1A60     		str	r2, [r3]
 163:telemetry.c   **** 
 164:telemetry.c   ****     if (!ctx->gimbal) return;
 951              		.loc 1 164 0
 952 001c 7B68     		ldr	r3, [r7, #4]
 953 001e 1B68     		ldr	r3, [r3]
 954 0020 002B     		cmp	r3, #0
 955 0022 49D0     		beq	.L79
 165:telemetry.c   ****     hamfly_telemetry_t tel;
 166:telemetry.c   ****     hamfly_get_telemetry(ctx->gimbal, &tel);
 956              		.loc 1 166 0
 957 0024 7B68     		ldr	r3, [r7, #4]
 958 0026 1B68     		ldr	r3, [r3]
 959 0028 07F10C02 		add	r2, r7, #12
 960 002c 1146     		mov	r1, r2
 961 002e 1846     		mov	r0, r3
 962 0030 FFF7FEFF 		bl	hamfly_get_telemetry
 167:telemetry.c   **** 
 168:telemetry.c   ****     out->flags    = (uint8_t)(tel.mag_valid ? 0x01u : 0u);
 963              		.loc 1 168 0
ARM GAS  C:\Users\JENNEW~1\AppData\Local\Temp\ccW8Un4u.s 			page 21


 964 0034 97F8C630 		ldrb	r3, [r7, #198]	@ zero_extendqisi2
 965 0038 002B     		cmp	r3, #0
 966 003a 01D0     		beq	.L77
 967              		.loc 1 168 0 is_stmt 0 discriminator 1
 968 003c 0122     		movs	r2, #1
 969 003e 00E0     		b	.L78
 970              	.L77:
 971              		.loc 1 168 0 discriminator 2
 972 0040 0022     		movs	r2, #0
 973              	.L78:
 974              		.loc 1 168 0 discriminator 4
 975 0042 3B68     		ldr	r3, [r7]
 976 0044 1A71     		strb	r2, [r3, #4]
 169:telemetry.c   ****     out->x_raw    = sat_i16(tel.mag_x          * 1000.0f);
 977              		.loc 1 169 0 is_stmt 1 discriminator 4
 978 0046 D7F8C830 		ldr	r3, [r7, #200]	@ float
 979 004a 1E49     		ldr	r1, .L80+4
 980 004c 1846     		mov	r0, r3
 981 004e FFF7FEFF 		bl	__aeabi_fmul
 982 0052 0346     		mov	r3, r0
 983 0054 1846     		mov	r0, r3
 984 0056 FFF7FEFF 		bl	sat_i16
 985 005a 0346     		mov	r3, r0
 986 005c 1A46     		mov	r2, r3
 987 005e 3B68     		ldr	r3, [r7]
 988 0060 DA80     		strh	r2, [r3, #6]	@ movhi
 170:telemetry.c   ****     out->y_raw    = sat_i16(tel.mag_y          * 1000.0f);
 989              		.loc 1 170 0 discriminator 4
 990 0062 D7F8CC30 		ldr	r3, [r7, #204]	@ float
 991 0066 1749     		ldr	r1, .L80+4
 992 0068 1846     		mov	r0, r3
 993 006a FFF7FEFF 		bl	__aeabi_fmul
 994 006e 0346     		mov	r3, r0
 995 0070 1846     		mov	r0, r3
 996 0072 FFF7FEFF 		bl	sat_i16
 997 0076 0346     		mov	r3, r0
 998 0078 1A46     		mov	r2, r3
 999 007a 3B68     		ldr	r3, [r7]
 1000 007c 1A81     		strh	r2, [r3, #8]	@ movhi
 171:telemetry.c   ****     out->z_raw    = sat_i16(tel.mag_z          * 1000.0f);
 1001              		.loc 1 171 0 discriminator 4
 1002 007e D7F8D030 		ldr	r3, [r7, #208]	@ float
 1003 0082 1049     		ldr	r1, .L80+4
 1004 0084 1846     		mov	r0, r3
 1005 0086 FFF7FEFF 		bl	__aeabi_fmul
 1006 008a 0346     		mov	r3, r0
 1007 008c 1846     		mov	r0, r3
 1008 008e FFF7FEFF 		bl	sat_i16
 1009 0092 0346     		mov	r3, r0
 1010 0094 1A46     		mov	r2, r3
 1011 0096 3B68     		ldr	r3, [r7]
 1012 0098 5A81     		strh	r2, [r3, #10]	@ movhi
 172:telemetry.c   ****     out->decl_raw = sat_i16(tel.mag_declination * 10.0f);
 1013              		.loc 1 172 0 discriminator 4
 1014 009a D7F8E830 		ldr	r3, [r7, #232]	@ float
 1015 009e 0A49     		ldr	r1, .L80+8
 1016 00a0 1846     		mov	r0, r3
ARM GAS  C:\Users\JENNEW~1\AppData\Local\Temp\ccW8Un4u.s 			page 22


 1017 00a2 FFF7FEFF 		bl	__aeabi_fmul
 1018 00a6 0346     		mov	r3, r0
 1019 00a8 1846     		mov	r0, r3
 1020 00aa FFF7FEFF 		bl	sat_i16
 1021 00ae 0346     		mov	r3, r0
 1022 00b0 1A46     		mov	r2, r3
 1023 00b2 3B68     		ldr	r3, [r7]
 1024 00b4 9A81     		strh	r2, [r3, #12]	@ movhi
 1025 00b6 00E0     		b	.L74
 1026              	.L79:
 164:telemetry.c   ****     hamfly_telemetry_t tel;
 1027              		.loc 1 164 0
 1028 00b8 00BF     		nop
 1029              	.L74:
 173:telemetry.c   **** }
 1030              		.loc 1 173 0
 1031 00ba F837     		adds	r7, r7, #248
 1032              		.cfi_def_cfa_offset 8
 1033 00bc BD46     		mov	sp, r7
 1034              		.cfi_def_cfa_register 13
 1035              		@ sp needed
 1036 00be 80BD     		pop	{r7, pc}
 1037              	.L81:
 1038              		.align	2
 1039              	.L80:
 1040 00c0 00000000 		.word	g_tick_ms
 1041 00c4 00007A44 		.word	1148846080
 1042 00c8 00002041 		.word	1092616192
 1043              		.cfi_endproc
 1044              	.LFE72:
 1045              		.size	telemetry_collect_mag, .-telemetry_collect_mag
 1046              		.section	.text.encode_hot,"ax",%progbits
 1047              		.align	2
 1048              		.thumb
 1049              		.thumb_func
 1050              		.type	encode_hot, %function
 1051              	encode_hot:
 1052              	.LFB73:
 174:telemetry.c   **** 
 175:telemetry.c   **** // Packet encoders on the SBC wire
 176:telemetry.c   **** #define TELEM_HOT_LEN   26u
 177:telemetry.c   **** #define TELEM_LINK_LEN  16u
 178:telemetry.c   **** #define TELEM_POWER_LEN 14u
 179:telemetry.c   **** #define TELEM_ENV_LEN   10u
 180:telemetry.c   **** #define TELEM_GPS_LEN   28u
 181:telemetry.c   **** #define TELEM_BARO_LEN  11u
 182:telemetry.c   **** #define TELEM_MAG_LEN  13u
 183:telemetry.c   **** 
 184:telemetry.c   **** static uint8_t encode_hot(const telem_hot_t *h, uint8_t *buf)
 185:telemetry.c   **** {
 1053              		.loc 1 185 0
 1054              		.cfi_startproc
 1055              		@ args = 0, pretend = 0, frame = 16
 1056              		@ frame_needed = 1, uses_anonymous_args = 0
 1057 0000 80B5     		push	{r7, lr}
 1058              		.cfi_def_cfa_offset 8
 1059              		.cfi_offset 7, -8
ARM GAS  C:\Users\JENNEW~1\AppData\Local\Temp\ccW8Un4u.s 			page 23


 1060              		.cfi_offset 14, -4
 1061 0002 84B0     		sub	sp, sp, #16
 1062              		.cfi_def_cfa_offset 24
 1063 0004 00AF     		add	r7, sp, #0
 1064              		.cfi_def_cfa_register 7
 1065 0006 7860     		str	r0, [r7, #4]
 1066 0008 3960     		str	r1, [r7]
 186:telemetry.c   ****     uint8_t *p = buf;
 1067              		.loc 1 186 0
 1068 000a 3B68     		ldr	r3, [r7]
 1069 000c FB60     		str	r3, [r7, #12]
 187:telemetry.c   ****     memcpy(p, &h->t_ms,         4); p += 4;
 1070              		.loc 1 187 0
 1071 000e 7B68     		ldr	r3, [r7, #4]
 1072 0010 0422     		movs	r2, #4
 1073 0012 1946     		mov	r1, r3
 1074 0014 F868     		ldr	r0, [r7, #12]
 1075 0016 FFF7FEFF 		bl	memcpy
 1076 001a FB68     		ldr	r3, [r7, #12]
 1077 001c 0433     		adds	r3, r3, #4
 1078 001e FB60     		str	r3, [r7, #12]
 188:telemetry.c   ****     *p++ = h->state;
 1079              		.loc 1 188 0
 1080 0020 FB68     		ldr	r3, [r7, #12]
 1081 0022 5A1C     		adds	r2, r3, #1
 1082 0024 FA60     		str	r2, [r7, #12]
 1083 0026 7A68     		ldr	r2, [r7, #4]
 1084 0028 1279     		ldrb	r2, [r2, #4]	@ zero_extendqisi2
 1085 002a 1A70     		strb	r2, [r3]
 189:telemetry.c   ****     *p++ = h->ctrl_mode_pan;
 1086              		.loc 1 189 0
 1087 002c FB68     		ldr	r3, [r7, #12]
 1088 002e 5A1C     		adds	r2, r3, #1
 1089 0030 FA60     		str	r2, [r7, #12]
 1090 0032 7A68     		ldr	r2, [r7, #4]
 1091 0034 5279     		ldrb	r2, [r2, #5]	@ zero_extendqisi2
 1092 0036 1A70     		strb	r2, [r3]
 190:telemetry.c   ****     *p++ = h->ctrl_mode_tilt;
 1093              		.loc 1 190 0
 1094 0038 FB68     		ldr	r3, [r7, #12]
 1095 003a 5A1C     		adds	r2, r3, #1
 1096 003c FA60     		str	r2, [r7, #12]
 1097 003e 7A68     		ldr	r2, [r7, #4]
 1098 0040 9279     		ldrb	r2, [r2, #6]	@ zero_extendqisi2
 1099 0042 1A70     		strb	r2, [r3]
 191:telemetry.c   ****     *p++ = h->ctrl_mode_roll;
 1100              		.loc 1 191 0
 1101 0044 FB68     		ldr	r3, [r7, #12]
 1102 0046 5A1C     		adds	r2, r3, #1
 1103 0048 FA60     		str	r2, [r7, #12]
 1104 004a 7A68     		ldr	r2, [r7, #4]
 1105 004c D279     		ldrb	r2, [r2, #7]	@ zero_extendqisi2
 1106 004e 1A70     		strb	r2, [r3]
 192:telemetry.c   ****     *p++ = h->enable;
 1107              		.loc 1 192 0
 1108 0050 FB68     		ldr	r3, [r7, #12]
 1109 0052 5A1C     		adds	r2, r3, #1
ARM GAS  C:\Users\JENNEW~1\AppData\Local\Temp\ccW8Un4u.s 			page 24


 1110 0054 FA60     		str	r2, [r7, #12]
 1111 0056 7A68     		ldr	r2, [r7, #4]
 1112 0058 127A     		ldrb	r2, [r2, #8]	@ zero_extendqisi2
 1113 005a 1A70     		strb	r2, [r3]
 193:telemetry.c   ****     *p++ = h->kill;
 1114              		.loc 1 193 0
 1115 005c FB68     		ldr	r3, [r7, #12]
 1116 005e 5A1C     		adds	r2, r3, #1
 1117 0060 FA60     		str	r2, [r7, #12]
 1118 0062 7A68     		ldr	r2, [r7, #4]
 1119 0064 527A     		ldrb	r2, [r2, #9]	@ zero_extendqisi2
 1120 0066 1A70     		strb	r2, [r3]
 194:telemetry.c   ****     memcpy(p, &h->input_pan,    2); p += 2;
 1121              		.loc 1 194 0
 1122 0068 7B68     		ldr	r3, [r7, #4]
 1123 006a 0A33     		adds	r3, r3, #10
 1124 006c 0222     		movs	r2, #2
 1125 006e 1946     		mov	r1, r3
 1126 0070 F868     		ldr	r0, [r7, #12]
 1127 0072 FFF7FEFF 		bl	memcpy
 1128 0076 FB68     		ldr	r3, [r7, #12]
 1129 0078 0233     		adds	r3, r3, #2
 1130 007a FB60     		str	r3, [r7, #12]
 195:telemetry.c   ****     memcpy(p, &h->input_tilt,   2); p += 2;
 1131              		.loc 1 195 0
 1132 007c 7B68     		ldr	r3, [r7, #4]
 1133 007e 0C33     		adds	r3, r3, #12
 1134 0080 0222     		movs	r2, #2
 1135 0082 1946     		mov	r1, r3
 1136 0084 F868     		ldr	r0, [r7, #12]
 1137 0086 FFF7FEFF 		bl	memcpy
 1138 008a FB68     		ldr	r3, [r7, #12]
 1139 008c 0233     		adds	r3, r3, #2
 1140 008e FB60     		str	r3, [r7, #12]
 196:telemetry.c   ****     memcpy(p, &h->input_roll,   2); p += 2;
 1141              		.loc 1 196 0
 1142 0090 7B68     		ldr	r3, [r7, #4]
 1143 0092 0E33     		adds	r3, r3, #14
 1144 0094 0222     		movs	r2, #2
 1145 0096 1946     		mov	r1, r3
 1146 0098 F868     		ldr	r0, [r7, #12]
 1147 009a FFF7FEFF 		bl	memcpy
 1148 009e FB68     		ldr	r3, [r7, #12]
 1149 00a0 0233     		adds	r3, r3, #2
 1150 00a2 FB60     		str	r3, [r7, #12]
 197:telemetry.c   ****     *p++ = h->gimbal_status1;
 1151              		.loc 1 197 0
 1152 00a4 FB68     		ldr	r3, [r7, #12]
 1153 00a6 5A1C     		adds	r2, r3, #1
 1154 00a8 FA60     		str	r2, [r7, #12]
 1155 00aa 7A68     		ldr	r2, [r7, #4]
 1156 00ac 127C     		ldrb	r2, [r2, #16]	@ zero_extendqisi2
 1157 00ae 1A70     		strb	r2, [r3]
 198:telemetry.c   ****     *p++ = h->gimbal_status2;
 1158              		.loc 1 198 0
 1159 00b0 FB68     		ldr	r3, [r7, #12]
 1160 00b2 5A1C     		adds	r2, r3, #1
ARM GAS  C:\Users\JENNEW~1\AppData\Local\Temp\ccW8Un4u.s 			page 25


 1161 00b4 FA60     		str	r2, [r7, #12]
 1162 00b6 7A68     		ldr	r2, [r7, #4]
 1163 00b8 527C     		ldrb	r2, [r2, #17]	@ zero_extendqisi2
 1164 00ba 1A70     		strb	r2, [r3]
 199:telemetry.c   ****     memcpy(p, &h->q_i,          2); p += 2;
 1165              		.loc 1 199 0
 1166 00bc 7B68     		ldr	r3, [r7, #4]
 1167 00be 1233     		adds	r3, r3, #18
 1168 00c0 0222     		movs	r2, #2
 1169 00c2 1946     		mov	r1, r3
 1170 00c4 F868     		ldr	r0, [r7, #12]
 1171 00c6 FFF7FEFF 		bl	memcpy
 1172 00ca FB68     		ldr	r3, [r7, #12]
 1173 00cc 0233     		adds	r3, r3, #2
 1174 00ce FB60     		str	r3, [r7, #12]
 200:telemetry.c   ****     memcpy(p, &h->q_j,          2); p += 2;
 1175              		.loc 1 200 0
 1176 00d0 7B68     		ldr	r3, [r7, #4]
 1177 00d2 1433     		adds	r3, r3, #20
 1178 00d4 0222     		movs	r2, #2
 1179 00d6 1946     		mov	r1, r3
 1180 00d8 F868     		ldr	r0, [r7, #12]
 1181 00da FFF7FEFF 		bl	memcpy
 1182 00de FB68     		ldr	r3, [r7, #12]
 1183 00e0 0233     		adds	r3, r3, #2
 1184 00e2 FB60     		str	r3, [r7, #12]
 201:telemetry.c   ****     memcpy(p, &h->q_k,          2); p += 2;
 1185              		.loc 1 201 0
 1186 00e4 7B68     		ldr	r3, [r7, #4]
 1187 00e6 1633     		adds	r3, r3, #22
 1188 00e8 0222     		movs	r2, #2
 1189 00ea 1946     		mov	r1, r3
 1190 00ec F868     		ldr	r0, [r7, #12]
 1191 00ee FFF7FEFF 		bl	memcpy
 1192 00f2 FB68     		ldr	r3, [r7, #12]
 1193 00f4 0233     		adds	r3, r3, #2
 1194 00f6 FB60     		str	r3, [r7, #12]
 202:telemetry.c   ****     memcpy(p, &h->q_r,          2); p += 2;
 1195              		.loc 1 202 0
 1196 00f8 7B68     		ldr	r3, [r7, #4]
 1197 00fa 1833     		adds	r3, r3, #24
 1198 00fc 0222     		movs	r2, #2
 1199 00fe 1946     		mov	r1, r3
 1200 0100 F868     		ldr	r0, [r7, #12]
 1201 0102 FFF7FEFF 		bl	memcpy
 1202 0106 FB68     		ldr	r3, [r7, #12]
 1203 0108 0233     		adds	r3, r3, #2
 1204 010a FB60     		str	r3, [r7, #12]
 203:telemetry.c   ****     return (uint8_t)(p - buf);  //  == TELEM_HOT_LEN
 1205              		.loc 1 203 0
 1206 010c FA68     		ldr	r2, [r7, #12]
 1207 010e 3B68     		ldr	r3, [r7]
 1208 0110 D31A     		subs	r3, r2, r3
 1209 0112 DBB2     		uxtb	r3, r3
 204:telemetry.c   **** }
 1210              		.loc 1 204 0
 1211 0114 1846     		mov	r0, r3
ARM GAS  C:\Users\JENNEW~1\AppData\Local\Temp\ccW8Un4u.s 			page 26


 1212 0116 1037     		adds	r7, r7, #16
 1213              		.cfi_def_cfa_offset 8
 1214 0118 BD46     		mov	sp, r7
 1215              		.cfi_def_cfa_register 13
 1216              		@ sp needed
 1217 011a 80BD     		pop	{r7, pc}
 1218              		.cfi_endproc
 1219              	.LFE73:
 1220              		.size	encode_hot, .-encode_hot
 1221              		.section	.text.encode_link,"ax",%progbits
 1222              		.align	2
 1223              		.thumb
 1224              		.thumb_func
 1225              		.type	encode_link, %function
 1226              	encode_link:
 1227              	.LFB74:
 205:telemetry.c   **** 
 206:telemetry.c   **** static uint8_t encode_link(const telem_link_t *l, uint8_t *buf)
 207:telemetry.c   **** {
 1228              		.loc 1 207 0
 1229              		.cfi_startproc
 1230              		@ args = 0, pretend = 0, frame = 16
 1231              		@ frame_needed = 1, uses_anonymous_args = 0
 1232 0000 80B5     		push	{r7, lr}
 1233              		.cfi_def_cfa_offset 8
 1234              		.cfi_offset 7, -8
 1235              		.cfi_offset 14, -4
 1236 0002 84B0     		sub	sp, sp, #16
 1237              		.cfi_def_cfa_offset 24
 1238 0004 00AF     		add	r7, sp, #0
 1239              		.cfi_def_cfa_register 7
 1240 0006 7860     		str	r0, [r7, #4]
 1241 0008 3960     		str	r1, [r7]
 208:telemetry.c   ****     uint8_t *p = buf;
 1242              		.loc 1 208 0
 1243 000a 3B68     		ldr	r3, [r7]
 1244 000c FB60     		str	r3, [r7, #12]
 209:telemetry.c   ****     memcpy(p, &l->t_ms,                4); p += 4;
 1245              		.loc 1 209 0
 1246 000e 7B68     		ldr	r3, [r7, #4]
 1247 0010 0422     		movs	r2, #4
 1248 0012 1946     		mov	r1, r3
 1249 0014 F868     		ldr	r0, [r7, #12]
 1250 0016 FFF7FEFF 		bl	memcpy
 1251 001a FB68     		ldr	r3, [r7, #12]
 1252 001c 0433     		adds	r3, r3, #4
 1253 001e FB60     		str	r3, [r7, #12]
 210:telemetry.c   ****     memcpy(p, &l->crc_fail,            2); p += 2;
 1254              		.loc 1 210 0
 1255 0020 7B68     		ldr	r3, [r7, #4]
 1256 0022 0433     		adds	r3, r3, #4
 1257 0024 0222     		movs	r2, #2
 1258 0026 1946     		mov	r1, r3
 1259 0028 F868     		ldr	r0, [r7, #12]
 1260 002a FFF7FEFF 		bl	memcpy
 1261 002e FB68     		ldr	r3, [r7, #12]
 1262 0030 0233     		adds	r3, r3, #2
ARM GAS  C:\Users\JENNEW~1\AppData\Local\Temp\ccW8Un4u.s 			page 27


 1263 0032 FB60     		str	r3, [r7, #12]
 211:telemetry.c   ****     memcpy(p, &l->uart_err,            2); p += 2;
 1264              		.loc 1 211 0
 1265 0034 7B68     		ldr	r3, [r7, #4]
 1266 0036 0633     		adds	r3, r3, #6
 1267 0038 0222     		movs	r2, #2
 1268 003a 1946     		mov	r1, r3
 1269 003c F868     		ldr	r0, [r7, #12]
 1270 003e FFF7FEFF 		bl	memcpy
 1271 0042 FB68     		ldr	r3, [r7, #12]
 1272 0044 0233     		adds	r3, r3, #2
 1273 0046 FB60     		str	r3, [r7, #12]
 212:telemetry.c   ****     memcpy(p, &l->unknown_magic,       2); p += 2;
 1274              		.loc 1 212 0
 1275 0048 7B68     		ldr	r3, [r7, #4]
 1276 004a 0833     		adds	r3, r3, #8
 1277 004c 0222     		movs	r2, #2
 1278 004e 1946     		mov	r1, r3
 1279 0050 F868     		ldr	r0, [r7, #12]
 1280 0052 FFF7FEFF 		bl	memcpy
 1281 0056 FB68     		ldr	r3, [r7, #12]
 1282 0058 0233     		adds	r3, r3, #2
 1283 005a FB60     		str	r3, [r7, #12]
 213:telemetry.c   ****     memcpy(p, &l->rx_pkt_count,        4); p += 4;
 1284              		.loc 1 213 0
 1285 005c 7B68     		ldr	r3, [r7, #4]
 1286 005e 0C33     		adds	r3, r3, #12
 1287 0060 0422     		movs	r2, #4
 1288 0062 1946     		mov	r1, r3
 1289 0064 F868     		ldr	r0, [r7, #12]
 1290 0066 FFF7FEFF 		bl	memcpy
 1291 006a FB68     		ldr	r3, [r7, #12]
 1292 006c 0433     		adds	r3, r3, #4
 1293 006e FB60     		str	r3, [r7, #12]
 214:telemetry.c   ****     memcpy(p, &l->last_centroid_dt_ms, 2); p += 2;
 1294              		.loc 1 214 0
 1295 0070 7B68     		ldr	r3, [r7, #4]
 1296 0072 1033     		adds	r3, r3, #16
 1297 0074 0222     		movs	r2, #2
 1298 0076 1946     		mov	r1, r3
 1299 0078 F868     		ldr	r0, [r7, #12]
 1300 007a FFF7FEFF 		bl	memcpy
 1301 007e FB68     		ldr	r3, [r7, #12]
 1302 0080 0233     		adds	r3, r3, #2
 1303 0082 FB60     		str	r3, [r7, #12]
 215:telemetry.c   ****     return (uint8_t)(p - buf);  //  == TELEM_LINK_LEN
 1304              		.loc 1 215 0
 1305 0084 FA68     		ldr	r2, [r7, #12]
 1306 0086 3B68     		ldr	r3, [r7]
 1307 0088 D31A     		subs	r3, r2, r3
 1308 008a DBB2     		uxtb	r3, r3
 216:telemetry.c   **** }
 1309              		.loc 1 216 0
 1310 008c 1846     		mov	r0, r3
 1311 008e 1037     		adds	r7, r7, #16
 1312              		.cfi_def_cfa_offset 8
 1313 0090 BD46     		mov	sp, r7
ARM GAS  C:\Users\JENNEW~1\AppData\Local\Temp\ccW8Un4u.s 			page 28


 1314              		.cfi_def_cfa_register 13
 1315              		@ sp needed
 1316 0092 80BD     		pop	{r7, pc}
 1317              		.cfi_endproc
 1318              	.LFE74:
 1319              		.size	encode_link, .-encode_link
 1320              		.section	.text.encode_power,"ax",%progbits
 1321              		.align	2
 1322              		.thumb
 1323              		.thumb_func
 1324              		.type	encode_power, %function
 1325              	encode_power:
 1326              	.LFB75:
 217:telemetry.c   **** 
 218:telemetry.c   **** static uint8_t encode_power(const telem_power_t *p, uint8_t *buf)
 219:telemetry.c   **** {
 1327              		.loc 1 219 0
 1328              		.cfi_startproc
 1329              		@ args = 0, pretend = 0, frame = 16
 1330              		@ frame_needed = 1, uses_anonymous_args = 0
 1331 0000 80B5     		push	{r7, lr}
 1332              		.cfi_def_cfa_offset 8
 1333              		.cfi_offset 7, -8
 1334              		.cfi_offset 14, -4
 1335 0002 84B0     		sub	sp, sp, #16
 1336              		.cfi_def_cfa_offset 24
 1337 0004 00AF     		add	r7, sp, #0
 1338              		.cfi_def_cfa_register 7
 1339 0006 7860     		str	r0, [r7, #4]
 1340 0008 3960     		str	r1, [r7]
 220:telemetry.c   ****     uint8_t *q = buf;
 1341              		.loc 1 220 0
 1342 000a 3B68     		ldr	r3, [r7]
 1343 000c FB60     		str	r3, [r7, #12]
 221:telemetry.c   ****     memcpy(q, &p->t_ms,            4); q += 4;
 1344              		.loc 1 221 0
 1345 000e 7B68     		ldr	r3, [r7, #4]
 1346 0010 0422     		movs	r2, #4
 1347 0012 1946     		mov	r1, r3
 1348 0014 F868     		ldr	r0, [r7, #12]
 1349 0016 FFF7FEFF 		bl	memcpy
 1350 001a FB68     		ldr	r3, [r7, #12]
 1351 001c 0433     		adds	r3, r3, #4
 1352 001e FB60     		str	r3, [r7, #12]
 222:telemetry.c   ****     memcpy(q, &p->vbat_left_mv,    2); q += 2;
 1353              		.loc 1 222 0
 1354 0020 7B68     		ldr	r3, [r7, #4]
 1355 0022 0433     		adds	r3, r3, #4
 1356 0024 0222     		movs	r2, #2
 1357 0026 1946     		mov	r1, r3
 1358 0028 F868     		ldr	r0, [r7, #12]
 1359 002a FFF7FEFF 		bl	memcpy
 1360 002e FB68     		ldr	r3, [r7, #12]
 1361 0030 0233     		adds	r3, r3, #2
 1362 0032 FB60     		str	r3, [r7, #12]
 223:telemetry.c   ****     memcpy(q, &p->vbat_right_mv,   2); q += 2;
 1363              		.loc 1 223 0
ARM GAS  C:\Users\JENNEW~1\AppData\Local\Temp\ccW8Un4u.s 			page 29


 1364 0034 7B68     		ldr	r3, [r7, #4]
 1365 0036 0633     		adds	r3, r3, #6
 1366 0038 0222     		movs	r2, #2
 1367 003a 1946     		mov	r1, r3
 1368 003c F868     		ldr	r0, [r7, #12]
 1369 003e FFF7FEFF 		bl	memcpy
 1370 0042 FB68     		ldr	r3, [r7, #12]
 1371 0044 0233     		adds	r3, r3, #2
 1372 0046 FB60     		str	r3, [r7, #12]
 224:telemetry.c   ****     memcpy(q, &p->sysstat_batt_mv, 2); q += 2;
 1373              		.loc 1 224 0
 1374 0048 7B68     		ldr	r3, [r7, #4]
 1375 004a 0833     		adds	r3, r3, #8
 1376 004c 0222     		movs	r2, #2
 1377 004e 1946     		mov	r1, r3
 1378 0050 F868     		ldr	r0, [r7, #12]
 1379 0052 FFF7FEFF 		bl	memcpy
 1380 0056 FB68     		ldr	r3, [r7, #12]
 1381 0058 0233     		adds	r3, r3, #2
 1382 005a FB60     		str	r3, [r7, #12]
 225:telemetry.c   ****     memcpy(q, &p->sysstat_batt_ma, 2); q += 2;
 1383              		.loc 1 225 0
 1384 005c 7B68     		ldr	r3, [r7, #4]
 1385 005e 0A33     		adds	r3, r3, #10
 1386 0060 0222     		movs	r2, #2
 1387 0062 1946     		mov	r1, r3
 1388 0064 F868     		ldr	r0, [r7, #12]
 1389 0066 FFF7FEFF 		bl	memcpy
 1390 006a FB68     		ldr	r3, [r7, #12]
 1391 006c 0233     		adds	r3, r3, #2
 1392 006e FB60     		str	r3, [r7, #12]
 226:telemetry.c   ****     *q++ = p->sysstat_cpu_pct;
 1393              		.loc 1 226 0
 1394 0070 FB68     		ldr	r3, [r7, #12]
 1395 0072 5A1C     		adds	r2, r3, #1
 1396 0074 FA60     		str	r2, [r7, #12]
 1397 0076 7A68     		ldr	r2, [r7, #4]
 1398 0078 127B     		ldrb	r2, [r2, #12]	@ zero_extendqisi2
 1399 007a 1A70     		strb	r2, [r3]
 227:telemetry.c   ****     *q++ = (uint8_t)p->mcu_temp_c;
 1400              		.loc 1 227 0
 1401 007c FB68     		ldr	r3, [r7, #12]
 1402 007e 5A1C     		adds	r2, r3, #1
 1403 0080 FA60     		str	r2, [r7, #12]
 1404 0082 7A68     		ldr	r2, [r7, #4]
 1405 0084 92F90D20 		ldrsb	r2, [r2, #13]
 1406 0088 D2B2     		uxtb	r2, r2
 1407 008a 1A70     		strb	r2, [r3]
 228:telemetry.c   ****     return (uint8_t)(q - buf);  //  == TELEM_POWER_LEN
 1408              		.loc 1 228 0
 1409 008c FA68     		ldr	r2, [r7, #12]
 1410 008e 3B68     		ldr	r3, [r7]
 1411 0090 D31A     		subs	r3, r2, r3
 1412 0092 DBB2     		uxtb	r3, r3
 229:telemetry.c   **** }
 1413              		.loc 1 229 0
 1414 0094 1846     		mov	r0, r3
ARM GAS  C:\Users\JENNEW~1\AppData\Local\Temp\ccW8Un4u.s 			page 30


 1415 0096 1037     		adds	r7, r7, #16
 1416              		.cfi_def_cfa_offset 8
 1417 0098 BD46     		mov	sp, r7
 1418              		.cfi_def_cfa_register 13
 1419              		@ sp needed
 1420 009a 80BD     		pop	{r7, pc}
 1421              		.cfi_endproc
 1422              	.LFE75:
 1423              		.size	encode_power, .-encode_power
 1424              		.section	.text.encode_env,"ax",%progbits
 1425              		.align	2
 1426              		.thumb
 1427              		.thumb_func
 1428              		.type	encode_env, %function
 1429              	encode_env:
 1430              	.LFB76:
 230:telemetry.c   **** 
 231:telemetry.c   **** static uint8_t encode_env(const telem_env_t *e, uint8_t *buf)
 232:telemetry.c   **** {
 1431              		.loc 1 232 0
 1432              		.cfi_startproc
 1433              		@ args = 0, pretend = 0, frame = 16
 1434              		@ frame_needed = 1, uses_anonymous_args = 0
 1435 0000 80B5     		push	{r7, lr}
 1436              		.cfi_def_cfa_offset 8
 1437              		.cfi_offset 7, -8
 1438              		.cfi_offset 14, -4
 1439 0002 84B0     		sub	sp, sp, #16
 1440              		.cfi_def_cfa_offset 24
 1441 0004 00AF     		add	r7, sp, #0
 1442              		.cfi_def_cfa_register 7
 1443 0006 7860     		str	r0, [r7, #4]
 1444 0008 3960     		str	r1, [r7]
 233:telemetry.c   ****     uint8_t *q = buf;
 1445              		.loc 1 233 0
 1446 000a 3B68     		ldr	r3, [r7]
 1447 000c FB60     		str	r3, [r7, #12]
 234:telemetry.c   ****     memcpy(q, &e->t_ms,             4); q += 4;
 1448              		.loc 1 234 0
 1449 000e 7B68     		ldr	r3, [r7, #4]
 1450 0010 0422     		movs	r2, #4
 1451 0012 1946     		mov	r1, r3
 1452 0014 F868     		ldr	r0, [r7, #12]
 1453 0016 FFF7FEFF 		bl	memcpy
 1454 001a FB68     		ldr	r3, [r7, #12]
 1455 001c 0433     		adds	r3, r3, #4
 1456 001e FB60     		str	r3, [r7, #12]
 235:telemetry.c   ****     memcpy(q, &e->sysstat_temp_c10, 2); q += 2;
 1457              		.loc 1 235 0
 1458 0020 7B68     		ldr	r3, [r7, #4]
 1459 0022 0433     		adds	r3, r3, #4
 1460 0024 0222     		movs	r2, #2
 1461 0026 1946     		mov	r1, r3
 1462 0028 F868     		ldr	r0, [r7, #12]
 1463 002a FFF7FEFF 		bl	memcpy
 1464 002e FB68     		ldr	r3, [r7, #12]
 1465 0030 0233     		adds	r3, r3, #2
ARM GAS  C:\Users\JENNEW~1\AppData\Local\Temp\ccW8Un4u.s 			page 31


 1466 0032 FB60     		str	r3, [r7, #12]
 236:telemetry.c   ****     memcpy(q, &e->sysstat_press_Pa, 4); q += 4;
 1467              		.loc 1 236 0
 1468 0034 7B68     		ldr	r3, [r7, #4]
 1469 0036 0833     		adds	r3, r3, #8
 1470 0038 0422     		movs	r2, #4
 1471 003a 1946     		mov	r1, r3
 1472 003c F868     		ldr	r0, [r7, #12]
 1473 003e FFF7FEFF 		bl	memcpy
 1474 0042 FB68     		ldr	r3, [r7, #12]
 1475 0044 0433     		adds	r3, r3, #4
 1476 0046 FB60     		str	r3, [r7, #12]
 237:telemetry.c   ****     return (uint8_t)(q - buf);  //  == TELEM_ENV_LEN
 1477              		.loc 1 237 0
 1478 0048 FA68     		ldr	r2, [r7, #12]
 1479 004a 3B68     		ldr	r3, [r7]
 1480 004c D31A     		subs	r3, r2, r3
 1481 004e DBB2     		uxtb	r3, r3
 238:telemetry.c   **** }
 1482              		.loc 1 238 0
 1483 0050 1846     		mov	r0, r3
 1484 0052 1037     		adds	r7, r7, #16
 1485              		.cfi_def_cfa_offset 8
 1486 0054 BD46     		mov	sp, r7
 1487              		.cfi_def_cfa_register 13
 1488              		@ sp needed
 1489 0056 80BD     		pop	{r7, pc}
 1490              		.cfi_endproc
 1491              	.LFE76:
 1492              		.size	encode_env, .-encode_env
 1493              		.section	.text.encode_gps,"ax",%progbits
 1494              		.align	2
 1495              		.thumb
 1496              		.thumb_func
 1497              		.type	encode_gps, %function
 1498              	encode_gps:
 1499              	.LFB77:
 239:telemetry.c   **** 
 240:telemetry.c   **** static uint8_t encode_gps(const telem_gps_t *g, uint8_t *buf)
 241:telemetry.c   **** {
 1500              		.loc 1 241 0
 1501              		.cfi_startproc
 1502              		@ args = 0, pretend = 0, frame = 16
 1503              		@ frame_needed = 1, uses_anonymous_args = 0
 1504 0000 80B5     		push	{r7, lr}
 1505              		.cfi_def_cfa_offset 8
 1506              		.cfi_offset 7, -8
 1507              		.cfi_offset 14, -4
 1508 0002 84B0     		sub	sp, sp, #16
 1509              		.cfi_def_cfa_offset 24
 1510 0004 00AF     		add	r7, sp, #0
 1511              		.cfi_def_cfa_register 7
 1512 0006 7860     		str	r0, [r7, #4]
 1513 0008 3960     		str	r1, [r7]
 242:telemetry.c   ****     uint8_t *q = buf;
 1514              		.loc 1 242 0
 1515 000a 3B68     		ldr	r3, [r7]
ARM GAS  C:\Users\JENNEW~1\AppData\Local\Temp\ccW8Un4u.s 			page 32


 1516 000c FB60     		str	r3, [r7, #12]
 243:telemetry.c   ****     memcpy(q, &g->t_ms,    4); q += 4;
 1517              		.loc 1 243 0
 1518 000e 7B68     		ldr	r3, [r7, #4]
 1519 0010 0422     		movs	r2, #4
 1520 0012 1946     		mov	r1, r3
 1521 0014 F868     		ldr	r0, [r7, #12]
 1522 0016 FFF7FEFF 		bl	memcpy
 1523 001a FB68     		ldr	r3, [r7, #12]
 1524 001c 0433     		adds	r3, r3, #4
 1525 001e FB60     		str	r3, [r7, #12]
 244:telemetry.c   ****     *q++ = g->flags;
 1526              		.loc 1 244 0
 1527 0020 FB68     		ldr	r3, [r7, #12]
 1528 0022 5A1C     		adds	r2, r3, #1
 1529 0024 FA60     		str	r2, [r7, #12]
 1530 0026 7A68     		ldr	r2, [r7, #4]
 1531 0028 1279     		ldrb	r2, [r2, #4]	@ zero_extendqisi2
 1532 002a 1A70     		strb	r2, [r3]
 245:telemetry.c   ****     *q++ = g->sats;
 1533              		.loc 1 245 0
 1534 002c FB68     		ldr	r3, [r7, #12]
 1535 002e 5A1C     		adds	r2, r3, #1
 1536 0030 FA60     		str	r2, [r7, #12]
 1537 0032 7A68     		ldr	r2, [r7, #4]
 1538 0034 5279     		ldrb	r2, [r2, #5]	@ zero_extendqisi2
 1539 0036 1A70     		strb	r2, [r3]
 246:telemetry.c   ****     memcpy(q, &g->raw_lat, 4); q += 4;
 1540              		.loc 1 246 0
 1541 0038 7B68     		ldr	r3, [r7, #4]
 1542 003a 0833     		adds	r3, r3, #8
 1543 003c 0422     		movs	r2, #4
 1544 003e 1946     		mov	r1, r3
 1545 0040 F868     		ldr	r0, [r7, #12]
 1546 0042 FFF7FEFF 		bl	memcpy
 1547 0046 FB68     		ldr	r3, [r7, #12]
 1548 0048 0433     		adds	r3, r3, #4
 1549 004a FB60     		str	r3, [r7, #12]
 247:telemetry.c   ****     memcpy(q, &g->raw_lon, 4); q += 4;
 1550              		.loc 1 247 0
 1551 004c 7B68     		ldr	r3, [r7, #4]
 1552 004e 0C33     		adds	r3, r3, #12
 1553 0050 0422     		movs	r2, #4
 1554 0052 1946     		mov	r1, r3
 1555 0054 F868     		ldr	r0, [r7, #12]
 1556 0056 FFF7FEFF 		bl	memcpy
 1557 005a FB68     		ldr	r3, [r7, #12]
 1558 005c 0433     		adds	r3, r3, #4
 1559 005e FB60     		str	r3, [r7, #12]
 248:telemetry.c   ****     memcpy(q, &g->raw_alt, 4); q += 4;
 1560              		.loc 1 248 0
 1561 0060 7B68     		ldr	r3, [r7, #4]
 1562 0062 1033     		adds	r3, r3, #16
 1563 0064 0422     		movs	r2, #4
 1564 0066 1946     		mov	r1, r3
 1565 0068 F868     		ldr	r0, [r7, #12]
 1566 006a FFF7FEFF 		bl	memcpy
ARM GAS  C:\Users\JENNEW~1\AppData\Local\Temp\ccW8Un4u.s 			page 33


 1567 006e FB68     		ldr	r3, [r7, #12]
 1568 0070 0433     		adds	r3, r3, #4
 1569 0072 FB60     		str	r3, [r7, #12]
 249:telemetry.c   ****     memcpy(q, &g->raw_spd, 2); q += 2;
 1570              		.loc 1 249 0
 1571 0074 7B68     		ldr	r3, [r7, #4]
 1572 0076 1433     		adds	r3, r3, #20
 1573 0078 0222     		movs	r2, #2
 1574 007a 1946     		mov	r1, r3
 1575 007c F868     		ldr	r0, [r7, #12]
 1576 007e FFF7FEFF 		bl	memcpy
 1577 0082 FB68     		ldr	r3, [r7, #12]
 1578 0084 0233     		adds	r3, r3, #2
 1579 0086 FB60     		str	r3, [r7, #12]
 250:telemetry.c   ****     memcpy(q, &g->raw_hdg, 2); q += 2;
 1580              		.loc 1 250 0
 1581 0088 7B68     		ldr	r3, [r7, #4]
 1582 008a 1633     		adds	r3, r3, #22
 1583 008c 0222     		movs	r2, #2
 1584 008e 1946     		mov	r1, r3
 1585 0090 F868     		ldr	r0, [r7, #12]
 1586 0092 FFF7FEFF 		bl	memcpy
 1587 0096 FB68     		ldr	r3, [r7, #12]
 1588 0098 0233     		adds	r3, r3, #2
 1589 009a FB60     		str	r3, [r7, #12]
 251:telemetry.c   ****     memcpy(q, &g->hacc,    2); q += 2;
 1590              		.loc 1 251 0
 1591 009c 7B68     		ldr	r3, [r7, #4]
 1592 009e 1833     		adds	r3, r3, #24
 1593 00a0 0222     		movs	r2, #2
 1594 00a2 1946     		mov	r1, r3
 1595 00a4 F868     		ldr	r0, [r7, #12]
 1596 00a6 FFF7FEFF 		bl	memcpy
 1597 00aa FB68     		ldr	r3, [r7, #12]
 1598 00ac 0233     		adds	r3, r3, #2
 1599 00ae FB60     		str	r3, [r7, #12]
 252:telemetry.c   ****     memcpy(q, &g->vacc,    2); q += 2;
 1600              		.loc 1 252 0
 1601 00b0 7B68     		ldr	r3, [r7, #4]
 1602 00b2 1A33     		adds	r3, r3, #26
 1603 00b4 0222     		movs	r2, #2
 1604 00b6 1946     		mov	r1, r3
 1605 00b8 F868     		ldr	r0, [r7, #12]
 1606 00ba FFF7FEFF 		bl	memcpy
 1607 00be FB68     		ldr	r3, [r7, #12]
 1608 00c0 0233     		adds	r3, r3, #2
 1609 00c2 FB60     		str	r3, [r7, #12]
 253:telemetry.c   ****     memcpy(q, &g->sacc,    2); q += 2;
 1610              		.loc 1 253 0
 1611 00c4 7B68     		ldr	r3, [r7, #4]
 1612 00c6 1C33     		adds	r3, r3, #28
 1613 00c8 0222     		movs	r2, #2
 1614 00ca 1946     		mov	r1, r3
 1615 00cc F868     		ldr	r0, [r7, #12]
 1616 00ce FFF7FEFF 		bl	memcpy
 1617 00d2 FB68     		ldr	r3, [r7, #12]
 1618 00d4 0233     		adds	r3, r3, #2
ARM GAS  C:\Users\JENNEW~1\AppData\Local\Temp\ccW8Un4u.s 			page 34


 1619 00d6 FB60     		str	r3, [r7, #12]
 254:telemetry.c   ****     return (uint8_t)(q - buf);  //  == TELEM_GPS_LEN
 1620              		.loc 1 254 0
 1621 00d8 FA68     		ldr	r2, [r7, #12]
 1622 00da 3B68     		ldr	r3, [r7]
 1623 00dc D31A     		subs	r3, r2, r3
 1624 00de DBB2     		uxtb	r3, r3
 255:telemetry.c   **** }
 1625              		.loc 1 255 0
 1626 00e0 1846     		mov	r0, r3
 1627 00e2 1037     		adds	r7, r7, #16
 1628              		.cfi_def_cfa_offset 8
 1629 00e4 BD46     		mov	sp, r7
 1630              		.cfi_def_cfa_register 13
 1631              		@ sp needed
 1632 00e6 80BD     		pop	{r7, pc}
 1633              		.cfi_endproc
 1634              	.LFE77:
 1635              		.size	encode_gps, .-encode_gps
 1636              		.section	.text.encode_baro,"ax",%progbits
 1637              		.align	2
 1638              		.thumb
 1639              		.thumb_func
 1640              		.type	encode_baro, %function
 1641              	encode_baro:
 1642              	.LFB78:
 256:telemetry.c   **** 
 257:telemetry.c   **** static uint8_t encode_baro(const telem_baro_t *b, uint8_t *buf)
 258:telemetry.c   **** {
 1643              		.loc 1 258 0
 1644              		.cfi_startproc
 1645              		@ args = 0, pretend = 0, frame = 16
 1646              		@ frame_needed = 1, uses_anonymous_args = 0
 1647 0000 80B5     		push	{r7, lr}
 1648              		.cfi_def_cfa_offset 8
 1649              		.cfi_offset 7, -8
 1650              		.cfi_offset 14, -4
 1651 0002 84B0     		sub	sp, sp, #16
 1652              		.cfi_def_cfa_offset 24
 1653 0004 00AF     		add	r7, sp, #0
 1654              		.cfi_def_cfa_register 7
 1655 0006 7860     		str	r0, [r7, #4]
 1656 0008 3960     		str	r1, [r7]
 259:telemetry.c   ****     uint8_t *q = buf;
 1657              		.loc 1 259 0
 1658 000a 3B68     		ldr	r3, [r7]
 1659 000c FB60     		str	r3, [r7, #12]
 260:telemetry.c   ****     memcpy(q, &b->t_ms,    4); q += 4;
 1660              		.loc 1 260 0
 1661 000e 7B68     		ldr	r3, [r7, #4]
 1662 0010 0422     		movs	r2, #4
 1663 0012 1946     		mov	r1, r3
 1664 0014 F868     		ldr	r0, [r7, #12]
 1665 0016 FFF7FEFF 		bl	memcpy
 1666 001a FB68     		ldr	r3, [r7, #12]
 1667 001c 0433     		adds	r3, r3, #4
 1668 001e FB60     		str	r3, [r7, #12]
ARM GAS  C:\Users\JENNEW~1\AppData\Local\Temp\ccW8Un4u.s 			page 35


 261:telemetry.c   ****     *q++ = b->flags;
 1669              		.loc 1 261 0
 1670 0020 FB68     		ldr	r3, [r7, #12]
 1671 0022 5A1C     		adds	r2, r3, #1
 1672 0024 FA60     		str	r2, [r7, #12]
 1673 0026 7A68     		ldr	r2, [r7, #4]
 1674 0028 1279     		ldrb	r2, [r2, #4]	@ zero_extendqisi2
 1675 002a 1A70     		strb	r2, [r3]
 262:telemetry.c   ****     memcpy(q, &b->alt_dm,  4); q += 4;
 1676              		.loc 1 262 0
 1677 002c 7B68     		ldr	r3, [r7, #4]
 1678 002e 0833     		adds	r3, r3, #8
 1679 0030 0422     		movs	r2, #4
 1680 0032 1946     		mov	r1, r3
 1681 0034 F868     		ldr	r0, [r7, #12]
 1682 0036 FFF7FEFF 		bl	memcpy
 1683 003a FB68     		ldr	r3, [r7, #12]
 1684 003c 0433     		adds	r3, r3, #4
 1685 003e FB60     		str	r3, [r7, #12]
 263:telemetry.c   ****     memcpy(q, &b->roc_cms, 2); q += 2;
 1686              		.loc 1 263 0
 1687 0040 7B68     		ldr	r3, [r7, #4]
 1688 0042 0C33     		adds	r3, r3, #12
 1689 0044 0222     		movs	r2, #2
 1690 0046 1946     		mov	r1, r3
 1691 0048 F868     		ldr	r0, [r7, #12]
 1692 004a FFF7FEFF 		bl	memcpy
 1693 004e FB68     		ldr	r3, [r7, #12]
 1694 0050 0233     		adds	r3, r3, #2
 1695 0052 FB60     		str	r3, [r7, #12]
 264:telemetry.c   ****     return (uint8_t)(q - buf);  //  == TELEM_BARO_LEN
 1696              		.loc 1 264 0
 1697 0054 FA68     		ldr	r2, [r7, #12]
 1698 0056 3B68     		ldr	r3, [r7]
 1699 0058 D31A     		subs	r3, r2, r3
 1700 005a DBB2     		uxtb	r3, r3
 265:telemetry.c   **** }
 1701              		.loc 1 265 0
 1702 005c 1846     		mov	r0, r3
 1703 005e 1037     		adds	r7, r7, #16
 1704              		.cfi_def_cfa_offset 8
 1705 0060 BD46     		mov	sp, r7
 1706              		.cfi_def_cfa_register 13
 1707              		@ sp needed
 1708 0062 80BD     		pop	{r7, pc}
 1709              		.cfi_endproc
 1710              	.LFE78:
 1711              		.size	encode_baro, .-encode_baro
 1712              		.section	.text.encode_mag,"ax",%progbits
 1713              		.align	2
 1714              		.thumb
 1715              		.thumb_func
 1716              		.type	encode_mag, %function
 1717              	encode_mag:
 1718              	.LFB79:
 266:telemetry.c   **** 
 267:telemetry.c   **** static uint8_t encode_mag(const telem_mag_t *m, uint8_t *buf)
ARM GAS  C:\Users\JENNEW~1\AppData\Local\Temp\ccW8Un4u.s 			page 36


 268:telemetry.c   **** {
 1719              		.loc 1 268 0
 1720              		.cfi_startproc
 1721              		@ args = 0, pretend = 0, frame = 16
 1722              		@ frame_needed = 1, uses_anonymous_args = 0
 1723 0000 80B5     		push	{r7, lr}
 1724              		.cfi_def_cfa_offset 8
 1725              		.cfi_offset 7, -8
 1726              		.cfi_offset 14, -4
 1727 0002 84B0     		sub	sp, sp, #16
 1728              		.cfi_def_cfa_offset 24
 1729 0004 00AF     		add	r7, sp, #0
 1730              		.cfi_def_cfa_register 7
 1731 0006 7860     		str	r0, [r7, #4]
 1732 0008 3960     		str	r1, [r7]
 269:telemetry.c   ****     uint8_t *q = buf;
 1733              		.loc 1 269 0
 1734 000a 3B68     		ldr	r3, [r7]
 1735 000c FB60     		str	r3, [r7, #12]
 270:telemetry.c   ****     memcpy(q, &m->t_ms,     4); q += 4;
 1736              		.loc 1 270 0
 1737 000e 7B68     		ldr	r3, [r7, #4]
 1738 0010 0422     		movs	r2, #4
 1739 0012 1946     		mov	r1, r3
 1740 0014 F868     		ldr	r0, [r7, #12]
 1741 0016 FFF7FEFF 		bl	memcpy
 1742 001a FB68     		ldr	r3, [r7, #12]
 1743 001c 0433     		adds	r3, r3, #4
 1744 001e FB60     		str	r3, [r7, #12]
 271:telemetry.c   ****     *q++ = m->flags;
 1745              		.loc 1 271 0
 1746 0020 FB68     		ldr	r3, [r7, #12]
 1747 0022 5A1C     		adds	r2, r3, #1
 1748 0024 FA60     		str	r2, [r7, #12]
 1749 0026 7A68     		ldr	r2, [r7, #4]
 1750 0028 1279     		ldrb	r2, [r2, #4]	@ zero_extendqisi2
 1751 002a 1A70     		strb	r2, [r3]
 272:telemetry.c   ****     memcpy(q, &m->x_raw,    2); q += 2;
 1752              		.loc 1 272 0
 1753 002c 7B68     		ldr	r3, [r7, #4]
 1754 002e 0633     		adds	r3, r3, #6
 1755 0030 0222     		movs	r2, #2
 1756 0032 1946     		mov	r1, r3
 1757 0034 F868     		ldr	r0, [r7, #12]
 1758 0036 FFF7FEFF 		bl	memcpy
 1759 003a FB68     		ldr	r3, [r7, #12]
 1760 003c 0233     		adds	r3, r3, #2
 1761 003e FB60     		str	r3, [r7, #12]
 273:telemetry.c   ****     memcpy(q, &m->y_raw,    2); q += 2;
 1762              		.loc 1 273 0
 1763 0040 7B68     		ldr	r3, [r7, #4]
 1764 0042 0833     		adds	r3, r3, #8
 1765 0044 0222     		movs	r2, #2
 1766 0046 1946     		mov	r1, r3
 1767 0048 F868     		ldr	r0, [r7, #12]
 1768 004a FFF7FEFF 		bl	memcpy
 1769 004e FB68     		ldr	r3, [r7, #12]
ARM GAS  C:\Users\JENNEW~1\AppData\Local\Temp\ccW8Un4u.s 			page 37


 1770 0050 0233     		adds	r3, r3, #2
 1771 0052 FB60     		str	r3, [r7, #12]
 274:telemetry.c   ****     memcpy(q, &m->z_raw,    2); q += 2;
 1772              		.loc 1 274 0
 1773 0054 7B68     		ldr	r3, [r7, #4]
 1774 0056 0A33     		adds	r3, r3, #10
 1775 0058 0222     		movs	r2, #2
 1776 005a 1946     		mov	r1, r3
 1777 005c F868     		ldr	r0, [r7, #12]
 1778 005e FFF7FEFF 		bl	memcpy
 1779 0062 FB68     		ldr	r3, [r7, #12]
 1780 0064 0233     		adds	r3, r3, #2
 1781 0066 FB60     		str	r3, [r7, #12]
 275:telemetry.c   ****     memcpy(q, &m->decl_raw, 2); q += 2;
 1782              		.loc 1 275 0
 1783 0068 7B68     		ldr	r3, [r7, #4]
 1784 006a 0C33     		adds	r3, r3, #12
 1785 006c 0222     		movs	r2, #2
 1786 006e 1946     		mov	r1, r3
 1787 0070 F868     		ldr	r0, [r7, #12]
 1788 0072 FFF7FEFF 		bl	memcpy
 1789 0076 FB68     		ldr	r3, [r7, #12]
 1790 0078 0233     		adds	r3, r3, #2
 1791 007a FB60     		str	r3, [r7, #12]
 276:telemetry.c   ****     return (uint8_t)(q - buf);  //  == TELEM_MAG_LEN
 1792              		.loc 1 276 0
 1793 007c FA68     		ldr	r2, [r7, #12]
 1794 007e 3B68     		ldr	r3, [r7]
 1795 0080 D31A     		subs	r3, r2, r3
 1796 0082 DBB2     		uxtb	r3, r3
 277:telemetry.c   **** }
 1797              		.loc 1 277 0
 1798 0084 1846     		mov	r0, r3
 1799 0086 1037     		adds	r7, r7, #16
 1800              		.cfi_def_cfa_offset 8
 1801 0088 BD46     		mov	sp, r7
 1802              		.cfi_def_cfa_register 13
 1803              		@ sp needed
 1804 008a 80BD     		pop	{r7, pc}
 1805              		.cfi_endproc
 1806              	.LFE79:
 1807              		.size	encode_mag, .-encode_mag
 1808              		.section	.text.telemetry_send_hot_sbc,"ax",%progbits
 1809              		.align	2
 1810              		.global	telemetry_send_hot_sbc
 1811              		.thumb
 1812              		.thumb_func
 1813              		.type	telemetry_send_hot_sbc, %function
 1814              	telemetry_send_hot_sbc:
 1815              	.LFB80:
 278:telemetry.c   **** 
 279:telemetry.c   **** // Packet senders -- These are what the code publicly calls!
 280:telemetry.c   **** void telemetry_send_hot_sbc(const app_ctx_t *ctx)
 281:telemetry.c   **** {
 1816              		.loc 1 281 0
 1817              		.cfi_startproc
 1818              		@ args = 0, pretend = 0, frame = 72
ARM GAS  C:\Users\JENNEW~1\AppData\Local\Temp\ccW8Un4u.s 			page 38


 1819              		@ frame_needed = 1, uses_anonymous_args = 0
 1820 0000 80B5     		push	{r7, lr}
 1821              		.cfi_def_cfa_offset 8
 1822              		.cfi_offset 7, -8
 1823              		.cfi_offset 14, -4
 1824 0002 92B0     		sub	sp, sp, #72
 1825              		.cfi_def_cfa_offset 80
 1826 0004 00AF     		add	r7, sp, #0
 1827              		.cfi_def_cfa_register 7
 1828 0006 7860     		str	r0, [r7, #4]
 282:telemetry.c   ****     telem_hot_t h;
 283:telemetry.c   ****     telemetry_collect_hot(ctx, &h);
 1829              		.loc 1 283 0
 1830 0008 07F12803 		add	r3, r7, #40
 1831 000c 1946     		mov	r1, r3
 1832 000e 7868     		ldr	r0, [r7, #4]
 1833 0010 FFF7FEFF 		bl	telemetry_collect_hot
 284:telemetry.c   ****     uint8_t buf[TELEM_HOT_LEN];
 285:telemetry.c   ****     uint8_t n = encode_hot(&h, buf);
 1834              		.loc 1 285 0
 1835 0014 07F10C02 		add	r2, r7, #12
 1836 0018 07F12803 		add	r3, r7, #40
 1837 001c 1146     		mov	r1, r2
 1838 001e 1846     		mov	r0, r3
 1839 0020 FFF7FEFF 		bl	encode_hot
 1840 0024 0346     		mov	r3, r0
 1841 0026 87F84730 		strb	r3, [r7, #71]
 286:telemetry.c   ****     sbc_send_frame(PKT_TELEM_HOT, buf, n);
 1842              		.loc 1 286 0
 1843 002a 97F84720 		ldrb	r2, [r7, #71]	@ zero_extendqisi2
 1844 002e 07F10C03 		add	r3, r7, #12
 1845 0032 1946     		mov	r1, r3
 1846 0034 2020     		movs	r0, #32
 1847 0036 FFF7FEFF 		bl	sbc_send_frame
 287:telemetry.c   **** }
 1848              		.loc 1 287 0
 1849 003a 00BF     		nop
 1850 003c 4837     		adds	r7, r7, #72
 1851              		.cfi_def_cfa_offset 8
 1852 003e BD46     		mov	sp, r7
 1853              		.cfi_def_cfa_register 13
 1854              		@ sp needed
 1855 0040 80BD     		pop	{r7, pc}
 1856              		.cfi_endproc
 1857              	.LFE80:
 1858              		.size	telemetry_send_hot_sbc, .-telemetry_send_hot_sbc
 1859 0042 00BF     		.section	.text.telemetry_send_link_sbc,"ax",%progbits
 1860              		.align	2
 1861              		.global	telemetry_send_link_sbc
 1862              		.thumb
 1863              		.thumb_func
 1864              		.type	telemetry_send_link_sbc, %function
 1865              	telemetry_send_link_sbc:
 1866              	.LFB81:
 288:telemetry.c   **** 
 289:telemetry.c   **** void telemetry_send_link_sbc(const app_ctx_t *ctx)
 290:telemetry.c   **** {
ARM GAS  C:\Users\JENNEW~1\AppData\Local\Temp\ccW8Un4u.s 			page 39


 1867              		.loc 1 290 0
 1868              		.cfi_startproc
 1869              		@ args = 0, pretend = 0, frame = 48
 1870              		@ frame_needed = 1, uses_anonymous_args = 0
 1871 0000 80B5     		push	{r7, lr}
 1872              		.cfi_def_cfa_offset 8
 1873              		.cfi_offset 7, -8
 1874              		.cfi_offset 14, -4
 1875 0002 8CB0     		sub	sp, sp, #48
 1876              		.cfi_def_cfa_offset 56
 1877 0004 00AF     		add	r7, sp, #0
 1878              		.cfi_def_cfa_register 7
 1879 0006 7860     		str	r0, [r7, #4]
 291:telemetry.c   ****     telem_link_t l;
 292:telemetry.c   ****     telemetry_collect_link(ctx, &l);
 1880              		.loc 1 292 0
 1881 0008 07F11803 		add	r3, r7, #24
 1882 000c 1946     		mov	r1, r3
 1883 000e 7868     		ldr	r0, [r7, #4]
 1884 0010 FFF7FEFF 		bl	telemetry_collect_link
 293:telemetry.c   ****     uint8_t buf[TELEM_LINK_LEN];
 294:telemetry.c   ****     uint8_t n = encode_link(&l, buf);
 1885              		.loc 1 294 0
 1886 0014 07F10802 		add	r2, r7, #8
 1887 0018 07F11803 		add	r3, r7, #24
 1888 001c 1146     		mov	r1, r2
 1889 001e 1846     		mov	r0, r3
 1890 0020 FFF7FEFF 		bl	encode_link
 1891 0024 0346     		mov	r3, r0
 1892 0026 87F82F30 		strb	r3, [r7, #47]
 295:telemetry.c   ****     sbc_send_frame(PKT_TELEM_LINK, buf, n);
 1893              		.loc 1 295 0
 1894 002a 97F82F20 		ldrb	r2, [r7, #47]	@ zero_extendqisi2
 1895 002e 07F10803 		add	r3, r7, #8
 1896 0032 1946     		mov	r1, r3
 1897 0034 2320     		movs	r0, #35
 1898 0036 FFF7FEFF 		bl	sbc_send_frame
 296:telemetry.c   **** }
 1899              		.loc 1 296 0
 1900 003a 00BF     		nop
 1901 003c 3037     		adds	r7, r7, #48
 1902              		.cfi_def_cfa_offset 8
 1903 003e BD46     		mov	sp, r7
 1904              		.cfi_def_cfa_register 13
 1905              		@ sp needed
 1906 0040 80BD     		pop	{r7, pc}
 1907              		.cfi_endproc
 1908              	.LFE81:
 1909              		.size	telemetry_send_link_sbc, .-telemetry_send_link_sbc
 1910 0042 00BF     		.section	.text.telemetry_send_power_sbc,"ax",%progbits
 1911              		.align	2
 1912              		.global	telemetry_send_power_sbc
 1913              		.thumb
 1914              		.thumb_func
 1915              		.type	telemetry_send_power_sbc, %function
 1916              	telemetry_send_power_sbc:
 1917              	.LFB82:
ARM GAS  C:\Users\JENNEW~1\AppData\Local\Temp\ccW8Un4u.s 			page 40


 297:telemetry.c   **** 
 298:telemetry.c   **** void telemetry_send_power_sbc(const app_ctx_t *ctx)
 299:telemetry.c   **** {
 1918              		.loc 1 299 0
 1919              		.cfi_startproc
 1920              		@ args = 0, pretend = 0, frame = 48
 1921              		@ frame_needed = 1, uses_anonymous_args = 0
 1922 0000 80B5     		push	{r7, lr}
 1923              		.cfi_def_cfa_offset 8
 1924              		.cfi_offset 7, -8
 1925              		.cfi_offset 14, -4
 1926 0002 8CB0     		sub	sp, sp, #48
 1927              		.cfi_def_cfa_offset 56
 1928 0004 00AF     		add	r7, sp, #0
 1929              		.cfi_def_cfa_register 7
 1930 0006 7860     		str	r0, [r7, #4]
 300:telemetry.c   ****     telem_power_t p;
 301:telemetry.c   ****     telemetry_collect_power(ctx, &p);
 1931              		.loc 1 301 0
 1932 0008 07F11C03 		add	r3, r7, #28
 1933 000c 1946     		mov	r1, r3
 1934 000e 7868     		ldr	r0, [r7, #4]
 1935 0010 FFF7FEFF 		bl	telemetry_collect_power
 302:telemetry.c   ****     uint8_t buf[TELEM_POWER_LEN];
 303:telemetry.c   ****     uint8_t n = encode_power(&p, buf);
 1936              		.loc 1 303 0
 1937 0014 07F10C02 		add	r2, r7, #12
 1938 0018 07F11C03 		add	r3, r7, #28
 1939 001c 1146     		mov	r1, r2
 1940 001e 1846     		mov	r0, r3
 1941 0020 FFF7FEFF 		bl	encode_power
 1942 0024 0346     		mov	r3, r0
 1943 0026 87F82F30 		strb	r3, [r7, #47]
 304:telemetry.c   ****     sbc_send_frame(PKT_TELEM_POWER, buf, n);
 1944              		.loc 1 304 0
 1945 002a 97F82F20 		ldrb	r2, [r7, #47]	@ zero_extendqisi2
 1946 002e 07F10C03 		add	r3, r7, #12
 1947 0032 1946     		mov	r1, r3
 1948 0034 2120     		movs	r0, #33
 1949 0036 FFF7FEFF 		bl	sbc_send_frame
 305:telemetry.c   **** }
 1950              		.loc 1 305 0
 1951 003a 00BF     		nop
 1952 003c 3037     		adds	r7, r7, #48
 1953              		.cfi_def_cfa_offset 8
 1954 003e BD46     		mov	sp, r7
 1955              		.cfi_def_cfa_register 13
 1956              		@ sp needed
 1957 0040 80BD     		pop	{r7, pc}
 1958              		.cfi_endproc
 1959              	.LFE82:
 1960              		.size	telemetry_send_power_sbc, .-telemetry_send_power_sbc
 1961 0042 00BF     		.section	.text.telemetry_send_env_sbc,"ax",%progbits
 1962              		.align	2
 1963              		.global	telemetry_send_env_sbc
 1964              		.thumb
 1965              		.thumb_func
ARM GAS  C:\Users\JENNEW~1\AppData\Local\Temp\ccW8Un4u.s 			page 41


 1966              		.type	telemetry_send_env_sbc, %function
 1967              	telemetry_send_env_sbc:
 1968              	.LFB83:
 306:telemetry.c   **** 
 307:telemetry.c   **** void telemetry_send_env_sbc(const app_ctx_t *ctx)
 308:telemetry.c   **** {
 1969              		.loc 1 308 0
 1970              		.cfi_startproc
 1971              		@ args = 0, pretend = 0, frame = 40
 1972              		@ frame_needed = 1, uses_anonymous_args = 0
 1973 0000 80B5     		push	{r7, lr}
 1974              		.cfi_def_cfa_offset 8
 1975              		.cfi_offset 7, -8
 1976              		.cfi_offset 14, -4
 1977 0002 8AB0     		sub	sp, sp, #40
 1978              		.cfi_def_cfa_offset 48
 1979 0004 00AF     		add	r7, sp, #0
 1980              		.cfi_def_cfa_register 7
 1981 0006 7860     		str	r0, [r7, #4]
 309:telemetry.c   ****     telem_env_t e;
 310:telemetry.c   ****     telemetry_collect_env(ctx, &e);
 1982              		.loc 1 310 0
 1983 0008 07F11803 		add	r3, r7, #24
 1984 000c 1946     		mov	r1, r3
 1985 000e 7868     		ldr	r0, [r7, #4]
 1986 0010 FFF7FEFF 		bl	telemetry_collect_env
 311:telemetry.c   ****     uint8_t buf[TELEM_ENV_LEN];
 312:telemetry.c   ****     uint8_t n = encode_env(&e, buf);
 1987              		.loc 1 312 0
 1988 0014 07F10C02 		add	r2, r7, #12
 1989 0018 07F11803 		add	r3, r7, #24
 1990 001c 1146     		mov	r1, r2
 1991 001e 1846     		mov	r0, r3
 1992 0020 FFF7FEFF 		bl	encode_env
 1993 0024 0346     		mov	r3, r0
 1994 0026 87F82730 		strb	r3, [r7, #39]
 313:telemetry.c   ****     sbc_send_frame(PKT_TELEM_ENV, buf, n);
 1995              		.loc 1 313 0
 1996 002a 97F82720 		ldrb	r2, [r7, #39]	@ zero_extendqisi2
 1997 002e 07F10C03 		add	r3, r7, #12
 1998 0032 1946     		mov	r1, r3
 1999 0034 2220     		movs	r0, #34
 2000 0036 FFF7FEFF 		bl	sbc_send_frame
 314:telemetry.c   **** }
 2001              		.loc 1 314 0
 2002 003a 00BF     		nop
 2003 003c 2837     		adds	r7, r7, #40
 2004              		.cfi_def_cfa_offset 8
 2005 003e BD46     		mov	sp, r7
 2006              		.cfi_def_cfa_register 13
 2007              		@ sp needed
 2008 0040 80BD     		pop	{r7, pc}
 2009              		.cfi_endproc
 2010              	.LFE83:
 2011              		.size	telemetry_send_env_sbc, .-telemetry_send_env_sbc
 2012 0042 00BF     		.section	.text.telemetry_send_gps_sbc,"ax",%progbits
 2013              		.align	2
ARM GAS  C:\Users\JENNEW~1\AppData\Local\Temp\ccW8Un4u.s 			page 42


 2014              		.global	telemetry_send_gps_sbc
 2015              		.thumb
 2016              		.thumb_func
 2017              		.type	telemetry_send_gps_sbc, %function
 2018              	telemetry_send_gps_sbc:
 2019              	.LFB84:
 315:telemetry.c   **** 
 316:telemetry.c   **** void telemetry_send_gps_sbc(const app_ctx_t *ctx)
 317:telemetry.c   **** {
 2020              		.loc 1 317 0
 2021              		.cfi_startproc
 2022              		@ args = 0, pretend = 0, frame = 72
 2023              		@ frame_needed = 1, uses_anonymous_args = 0
 2024 0000 80B5     		push	{r7, lr}
 2025              		.cfi_def_cfa_offset 8
 2026              		.cfi_offset 7, -8
 2027              		.cfi_offset 14, -4
 2028 0002 92B0     		sub	sp, sp, #72
 2029              		.cfi_def_cfa_offset 80
 2030 0004 00AF     		add	r7, sp, #0
 2031              		.cfi_def_cfa_register 7
 2032 0006 7860     		str	r0, [r7, #4]
 318:telemetry.c   ****     telem_gps_t g;
 319:telemetry.c   ****     telemetry_collect_gps(ctx, &g);
 2033              		.loc 1 319 0
 2034 0008 07F12403 		add	r3, r7, #36
 2035 000c 1946     		mov	r1, r3
 2036 000e 7868     		ldr	r0, [r7, #4]
 2037 0010 FFF7FEFF 		bl	telemetry_collect_gps
 320:telemetry.c   ****     uint8_t buf[TELEM_GPS_LEN];
 321:telemetry.c   ****     uint8_t n = encode_gps(&g, buf);
 2038              		.loc 1 321 0
 2039 0014 07F10802 		add	r2, r7, #8
 2040 0018 07F12403 		add	r3, r7, #36
 2041 001c 1146     		mov	r1, r2
 2042 001e 1846     		mov	r0, r3
 2043 0020 FFF7FEFF 		bl	encode_gps
 2044 0024 0346     		mov	r3, r0
 2045 0026 87F84730 		strb	r3, [r7, #71]
 322:telemetry.c   ****     sbc_send_frame(PKT_TELEM_GPS, buf, n);
 2046              		.loc 1 322 0
 2047 002a 97F84720 		ldrb	r2, [r7, #71]	@ zero_extendqisi2
 2048 002e 07F10803 		add	r3, r7, #8
 2049 0032 1946     		mov	r1, r3
 2050 0034 2420     		movs	r0, #36
 2051 0036 FFF7FEFF 		bl	sbc_send_frame
 323:telemetry.c   **** }
 2052              		.loc 1 323 0
 2053 003a 00BF     		nop
 2054 003c 4837     		adds	r7, r7, #72
 2055              		.cfi_def_cfa_offset 8
 2056 003e BD46     		mov	sp, r7
 2057              		.cfi_def_cfa_register 13
 2058              		@ sp needed
 2059 0040 80BD     		pop	{r7, pc}
 2060              		.cfi_endproc
 2061              	.LFE84:
ARM GAS  C:\Users\JENNEW~1\AppData\Local\Temp\ccW8Un4u.s 			page 43


 2062              		.size	telemetry_send_gps_sbc, .-telemetry_send_gps_sbc
 2063 0042 00BF     		.section	.text.telemetry_send_baro_sbc,"ax",%progbits
 2064              		.align	2
 2065              		.global	telemetry_send_baro_sbc
 2066              		.thumb
 2067              		.thumb_func
 2068              		.type	telemetry_send_baro_sbc, %function
 2069              	telemetry_send_baro_sbc:
 2070              	.LFB85:
 324:telemetry.c   **** 
 325:telemetry.c   **** void telemetry_send_baro_sbc(const app_ctx_t *ctx)
 326:telemetry.c   **** {
 2071              		.loc 1 326 0
 2072              		.cfi_startproc
 2073              		@ args = 0, pretend = 0, frame = 40
 2074              		@ frame_needed = 1, uses_anonymous_args = 0
 2075 0000 80B5     		push	{r7, lr}
 2076              		.cfi_def_cfa_offset 8
 2077              		.cfi_offset 7, -8
 2078              		.cfi_offset 14, -4
 2079 0002 8AB0     		sub	sp, sp, #40
 2080              		.cfi_def_cfa_offset 48
 2081 0004 00AF     		add	r7, sp, #0
 2082              		.cfi_def_cfa_register 7
 2083 0006 7860     		str	r0, [r7, #4]
 327:telemetry.c   ****     telem_baro_t b;
 328:telemetry.c   ****     telemetry_collect_baro(ctx, &b);
 2084              		.loc 1 328 0
 2085 0008 07F11403 		add	r3, r7, #20
 2086 000c 1946     		mov	r1, r3
 2087 000e 7868     		ldr	r0, [r7, #4]
 2088 0010 FFF7FEFF 		bl	telemetry_collect_baro
 329:telemetry.c   ****     uint8_t buf[TELEM_BARO_LEN];
 330:telemetry.c   ****     uint8_t n = encode_baro(&b, buf);
 2089              		.loc 1 330 0
 2090 0014 07F10802 		add	r2, r7, #8
 2091 0018 07F11403 		add	r3, r7, #20
 2092 001c 1146     		mov	r1, r2
 2093 001e 1846     		mov	r0, r3
 2094 0020 FFF7FEFF 		bl	encode_baro
 2095 0024 0346     		mov	r3, r0
 2096 0026 87F82730 		strb	r3, [r7, #39]
 331:telemetry.c   ****     sbc_send_frame(PKT_TELEM_BARO, buf, n);
 2097              		.loc 1 331 0
 2098 002a 97F82720 		ldrb	r2, [r7, #39]	@ zero_extendqisi2
 2099 002e 07F10803 		add	r3, r7, #8
 2100 0032 1946     		mov	r1, r3
 2101 0034 2520     		movs	r0, #37
 2102 0036 FFF7FEFF 		bl	sbc_send_frame
 332:telemetry.c   **** }
 2103              		.loc 1 332 0
 2104 003a 00BF     		nop
 2105 003c 2837     		adds	r7, r7, #40
 2106              		.cfi_def_cfa_offset 8
 2107 003e BD46     		mov	sp, r7
 2108              		.cfi_def_cfa_register 13
 2109              		@ sp needed
ARM GAS  C:\Users\JENNEW~1\AppData\Local\Temp\ccW8Un4u.s 			page 44


 2110 0040 80BD     		pop	{r7, pc}
 2111              		.cfi_endproc
 2112              	.LFE85:
 2113              		.size	telemetry_send_baro_sbc, .-telemetry_send_baro_sbc
 2114 0042 00BF     		.section	.text.telemetry_send_mag_sbc,"ax",%progbits
 2115              		.align	2
 2116              		.global	telemetry_send_mag_sbc
 2117              		.thumb
 2118              		.thumb_func
 2119              		.type	telemetry_send_mag_sbc, %function
 2120              	telemetry_send_mag_sbc:
 2121              	.LFB86:
 333:telemetry.c   **** 
 334:telemetry.c   **** void telemetry_send_mag_sbc(const app_ctx_t *ctx)
 335:telemetry.c   **** {
 2122              		.loc 1 335 0
 2123              		.cfi_startproc
 2124              		@ args = 0, pretend = 0, frame = 48
 2125              		@ frame_needed = 1, uses_anonymous_args = 0
 2126 0000 80B5     		push	{r7, lr}
 2127              		.cfi_def_cfa_offset 8
 2128              		.cfi_offset 7, -8
 2129              		.cfi_offset 14, -4
 2130 0002 8CB0     		sub	sp, sp, #48
 2131              		.cfi_def_cfa_offset 56
 2132 0004 00AF     		add	r7, sp, #0
 2133              		.cfi_def_cfa_register 7
 2134 0006 7860     		str	r0, [r7, #4]
 336:telemetry.c   ****     telem_mag_t m;
 337:telemetry.c   ****     telemetry_collect_mag(ctx, &m);
 2135              		.loc 1 337 0
 2136 0008 07F11C03 		add	r3, r7, #28
 2137 000c 1946     		mov	r1, r3
 2138 000e 7868     		ldr	r0, [r7, #4]
 2139 0010 FFF7FEFF 		bl	telemetry_collect_mag
 338:telemetry.c   ****     uint8_t buf[TELEM_MAG_LEN];
 339:telemetry.c   ****     uint8_t n = encode_mag(&m, buf);
 2140              		.loc 1 339 0
 2141 0014 07F10C02 		add	r2, r7, #12
 2142 0018 07F11C03 		add	r3, r7, #28
 2143 001c 1146     		mov	r1, r2
 2144 001e 1846     		mov	r0, r3
 2145 0020 FFF7FEFF 		bl	encode_mag
 2146 0024 0346     		mov	r3, r0
 2147 0026 87F82F30 		strb	r3, [r7, #47]
 340:telemetry.c   ****     sbc_send_frame(PKT_TELEM_MAG, buf, n);
 2148              		.loc 1 340 0
 2149 002a 97F82F20 		ldrb	r2, [r7, #47]	@ zero_extendqisi2
 2150 002e 07F10C03 		add	r3, r7, #12
 2151 0032 1946     		mov	r1, r3
 2152 0034 2620     		movs	r0, #38
 2153 0036 FFF7FEFF 		bl	sbc_send_frame
 341:telemetry.c   **** }
 2154              		.loc 1 341 0
 2155 003a 00BF     		nop
 2156 003c 3037     		adds	r7, r7, #48
 2157              		.cfi_def_cfa_offset 8
ARM GAS  C:\Users\JENNEW~1\AppData\Local\Temp\ccW8Un4u.s 			page 45


 2158 003e BD46     		mov	sp, r7
 2159              		.cfi_def_cfa_register 13
 2160              		@ sp needed
 2161 0040 80BD     		pop	{r7, pc}
 2162              		.cfi_endproc
 2163              	.LFE86:
 2164              		.size	telemetry_send_mag_sbc, .-telemetry_send_mag_sbc
 2165 0042 00BF     		.data
 2166              		.align	2
 2167              		.type	s_attrs, %object
 2168              		.size	s_attrs, 48
 2169              	s_attrs:
 2170 0000 0100     		.short	1
 2171 0002 0000     		.space	2
 2172 0004 88130000 		.word	5000
 2173 0008 00000000 		.word	0
 2174 000c 0400     		.short	4
 2175 000e 0000     		.space	2
 2176 0010 88130000 		.word	5000
 2177 0014 00000000 		.word	0
 2178 0018 0300     		.short	3
 2179 001a 0000     		.space	2
 2180 001c 88130000 		.word	5000
 2181 0020 00000000 		.word	0
 2182 0024 0C00     		.short	12
 2183 0026 0000     		.space	2
 2184 0028 88130000 		.word	5000
 2185 002c 00000000 		.word	0
 2186              		.section	.text.telemetry_pump,"ax",%progbits
 2187              		.align	2
 2188              		.global	telemetry_pump
 2189              		.thumb
 2190              		.thumb_func
 2191              		.type	telemetry_pump, %function
 2192              	telemetry_pump:
 2193              	.LFB87:
 342:telemetry.c   **** 
 343:telemetry.c   **** // Gimbal sensor attribultes and request scheduling
 344:telemetry.c   **** typedef struct {
 345:telemetry.c   ****     uint16_t attr_id;           // HAMFLY_ATTR_SYSSTAT, etc.
 346:telemetry.c   ****     uint32_t period_ms;         // Should all be uniform
 347:telemetry.c   ****     uint32_t last_request_ms;   // Tibreaker
 348:telemetry.c   **** } attr_sched_t;
 349:telemetry.c   **** 
 350:telemetry.c   **** static attr_sched_t s_attrs[] = {
 351:telemetry.c   ****     { HAMFLY_ATTR_SYSSTAT, 5000u, 0u },  //  POWER + ENV
 352:telemetry.c   ****     { HAMFLY_ATTR_GPS,     5000u, 0u },  //  GPS
 353:telemetry.c   ****     { HAMFLY_ATTR_BARO,    5000u, 0u },  //  BARO
 354:telemetry.c   ****     { HAMFLY_ATTR_MAG,     5000u, 0u },  //  MAG
 355:telemetry.c   ****     //  ... examples (magnetometer! IMU? etc).
 356:telemetry.c   **** };
 357:telemetry.c   **** #define N_ATTRS (sizeof s_attrs / sizeof s_attrs[0])
 358:telemetry.c   **** 
 359:telemetry.c   **** void telemetry_pump(app_ctx_t *ctx)
 360:telemetry.c   **** {
 2194              		.loc 1 360 0
 2195              		.cfi_startproc
ARM GAS  C:\Users\JENNEW~1\AppData\Local\Temp\ccW8Un4u.s 			page 46


 2196              		@ args = 0, pretend = 0, frame = 32
 2197              		@ frame_needed = 1, uses_anonymous_args = 0
 2198 0000 80B5     		push	{r7, lr}
 2199              		.cfi_def_cfa_offset 8
 2200              		.cfi_offset 7, -8
 2201              		.cfi_offset 14, -4
 2202 0002 88B0     		sub	sp, sp, #32
 2203              		.cfi_def_cfa_offset 40
 2204 0004 00AF     		add	r7, sp, #0
 2205              		.cfi_def_cfa_register 7
 2206 0006 7860     		str	r0, [r7, #4]
 361:telemetry.c   ****     // Do a HamflyAttr request if on schedule and no control in process.
 362:telemetry.c   ****     // Early check if gimbal exists, and there are attrs to grab
 363:telemetry.c   ****     if (!ctx->gimbal || N_ATTRS == 0u) return;
 2207              		.loc 1 363 0
 2208 0008 7B68     		ldr	r3, [r7, #4]
 2209 000a 1B68     		ldr	r3, [r3]
 2210 000c 002B     		cmp	r3, #0
 2211 000e 56D0     		beq	.L111
 364:telemetry.c   ****     // Yield to control packet being sent to Movi
 365:telemetry.c   ****     if (g_tick_ms - ctx->last_tx_ms < 5u) return;
 2212              		.loc 1 365 0
 2213 0010 2F4B     		ldr	r3, .L114
 2214 0012 1A68     		ldr	r2, [r3]
 2215 0014 7B68     		ldr	r3, [r7, #4]
 2216 0016 5B6A     		ldr	r3, [r3, #36]
 2217 0018 D31A     		subs	r3, r2, r3
 2218 001a 042B     		cmp	r3, #4
 2219 001c 51D9     		bls	.L112
 366:telemetry.c   **** 
 367:telemetry.c   ****     uint32_t now = g_tick_ms;
 2220              		.loc 1 367 0
 2221 001e 2C4B     		ldr	r3, .L114
 2222 0020 1B68     		ldr	r3, [r3]
 2223 0022 3B61     		str	r3, [r7, #16]
 368:telemetry.c   ****     // Pick the oldest telemetry getter.
 369:telemetry.c   ****     size_t   chosen = (size_t)-1;
 2224              		.loc 1 369 0
 2225 0024 4FF0FF33 		mov	r3, #-1
 2226 0028 FB61     		str	r3, [r7, #28]
 370:telemetry.c   ****     uint32_t worst_overdue = 0u;
 2227              		.loc 1 370 0
 2228 002a 0023     		movs	r3, #0
 2229 002c BB61     		str	r3, [r7, #24]
 2230              	.LBB2:
 371:telemetry.c   ****     for (size_t i = 0u; i < N_ATTRS; i++) {
 2231              		.loc 1 371 0
 2232 002e 0023     		movs	r3, #0
 2233 0030 7B61     		str	r3, [r7, #20]
 2234 0032 22E0     		b	.L107
 2235              	.L109:
 2236              	.LBB3:
 372:telemetry.c   ****         uint32_t age = now - s_attrs[i].last_request_ms;
 2237              		.loc 1 372 0
 2238 0034 2749     		ldr	r1, .L114+4
 2239 0036 7A69     		ldr	r2, [r7, #20]
 2240 0038 1346     		mov	r3, r2
ARM GAS  C:\Users\JENNEW~1\AppData\Local\Temp\ccW8Un4u.s 			page 47


 2241 003a 5B00     		lsls	r3, r3, #1
 2242 003c 1344     		add	r3, r3, r2
 2243 003e 9B00     		lsls	r3, r3, #2
 2244 0040 0B44     		add	r3, r3, r1
 2245 0042 0833     		adds	r3, r3, #8
 2246 0044 1B68     		ldr	r3, [r3]
 2247 0046 3A69     		ldr	r2, [r7, #16]
 2248 0048 D31A     		subs	r3, r2, r3
 2249 004a FB60     		str	r3, [r7, #12]
 373:telemetry.c   ****         if (age >= s_attrs[i].period_ms && age >= worst_overdue) {
 2250              		.loc 1 373 0
 2251 004c 2149     		ldr	r1, .L114+4
 2252 004e 7A69     		ldr	r2, [r7, #20]
 2253 0050 1346     		mov	r3, r2
 2254 0052 5B00     		lsls	r3, r3, #1
 2255 0054 1344     		add	r3, r3, r2
 2256 0056 9B00     		lsls	r3, r3, #2
 2257 0058 0B44     		add	r3, r3, r1
 2258 005a 0433     		adds	r3, r3, #4
 2259 005c 1A68     		ldr	r2, [r3]
 2260 005e FB68     		ldr	r3, [r7, #12]
 2261 0060 9A42     		cmp	r2, r3
 2262 0062 07D8     		bhi	.L108
 2263              		.loc 1 373 0 is_stmt 0 discriminator 1
 2264 0064 FA68     		ldr	r2, [r7, #12]
 2265 0066 BB69     		ldr	r3, [r7, #24]
 2266 0068 9A42     		cmp	r2, r3
 2267 006a 03D3     		bcc	.L108
 374:telemetry.c   ****             worst_overdue = age;
 2268              		.loc 1 374 0 is_stmt 1
 2269 006c FB68     		ldr	r3, [r7, #12]
 2270 006e BB61     		str	r3, [r7, #24]
 375:telemetry.c   ****             chosen = i;
 2271              		.loc 1 375 0
 2272 0070 7B69     		ldr	r3, [r7, #20]
 2273 0072 FB61     		str	r3, [r7, #28]
 2274              	.L108:
 2275              	.LBE3:
 371:telemetry.c   ****         uint32_t age = now - s_attrs[i].last_request_ms;
 2276              		.loc 1 371 0 discriminator 2
 2277 0074 7B69     		ldr	r3, [r7, #20]
 2278 0076 0133     		adds	r3, r3, #1
 2279 0078 7B61     		str	r3, [r7, #20]
 2280              	.L107:
 371:telemetry.c   ****         uint32_t age = now - s_attrs[i].last_request_ms;
 2281              		.loc 1 371 0 is_stmt 0 discriminator 1
 2282 007a 7B69     		ldr	r3, [r7, #20]
 2283 007c 032B     		cmp	r3, #3
 2284 007e D9D9     		bls	.L109
 2285              	.LBE2:
 376:telemetry.c   ****         }
 377:telemetry.c   ****     }
 378:telemetry.c   ****     if (chosen == (size_t)-1) return;  // No attr passed its period.
 2286              		.loc 1 378 0 is_stmt 1
 2287 0080 FB69     		ldr	r3, [r7, #28]
 2288 0082 B3F1FF3F 		cmp	r3, #-1
 2289 0086 1ED0     		beq	.L113
ARM GAS  C:\Users\JENNEW~1\AppData\Local\Temp\ccW8Un4u.s 			page 48


 379:telemetry.c   ****     
 380:telemetry.c   ****     // Try to request for the attribute
 381:telemetry.c   ****     if (hamfly_request_attr(ctx->gimbal, s_attrs[chosen].attr_id) == HAMFLY_OK){
 2290              		.loc 1 381 0
 2291 0088 7B68     		ldr	r3, [r7, #4]
 2292 008a 1868     		ldr	r0, [r3]
 2293 008c 1149     		ldr	r1, .L114+4
 2294 008e FA69     		ldr	r2, [r7, #28]
 2295 0090 1346     		mov	r3, r2
 2296 0092 5B00     		lsls	r3, r3, #1
 2297 0094 1344     		add	r3, r3, r2
 2298 0096 9B00     		lsls	r3, r3, #2
 2299 0098 0B44     		add	r3, r3, r1
 2300 009a 1B88     		ldrh	r3, [r3]
 2301 009c 1946     		mov	r1, r3
 2302 009e FFF7FEFF 		bl	hamfly_request_attr
 2303 00a2 0346     		mov	r3, r0
 2304 00a4 002B     		cmp	r3, #0
 2305 00a6 0FD1     		bne	.L103
 382:telemetry.c   ****         s_attrs[chosen].last_request_ms = now;
 2306              		.loc 1 382 0
 2307 00a8 0A49     		ldr	r1, .L114+4
 2308 00aa FA69     		ldr	r2, [r7, #28]
 2309 00ac 1346     		mov	r3, r2
 2310 00ae 5B00     		lsls	r3, r3, #1
 2311 00b0 1344     		add	r3, r3, r2
 2312 00b2 9B00     		lsls	r3, r3, #2
 2313 00b4 0B44     		add	r3, r3, r1
 2314 00b6 0833     		adds	r3, r3, #8
 2315 00b8 3A69     		ldr	r2, [r7, #16]
 2316 00ba 1A60     		str	r2, [r3]
 2317 00bc 04E0     		b	.L103
 2318              	.L111:
 363:telemetry.c   ****     // Yield to control packet being sent to Movi
 2319              		.loc 1 363 0
 2320 00be 00BF     		nop
 2321 00c0 02E0     		b	.L103
 2322              	.L112:
 365:telemetry.c   **** 
 2323              		.loc 1 365 0
 2324 00c2 00BF     		nop
 2325 00c4 00E0     		b	.L103
 2326              	.L113:
 378:telemetry.c   ****     
 2327              		.loc 1 378 0
 2328 00c6 00BF     		nop
 2329              	.L103:
 383:telemetry.c   ****     }
 384:telemetry.c   **** }
 2330              		.loc 1 384 0
 2331 00c8 2037     		adds	r7, r7, #32
 2332              		.cfi_def_cfa_offset 8
 2333 00ca BD46     		mov	sp, r7
 2334              		.cfi_def_cfa_register 13
 2335              		@ sp needed
 2336 00cc 80BD     		pop	{r7, pc}
 2337              	.L115:
ARM GAS  C:\Users\JENNEW~1\AppData\Local\Temp\ccW8Un4u.s 			page 49


 2338 00ce 00BF     		.align	2
 2339              	.L114:
 2340 00d0 00000000 		.word	g_tick_ms
 2341 00d4 00000000 		.word	s_attrs
 2342              		.cfi_endproc
 2343              	.LFE87:
 2344              		.size	telemetry_pump, .-telemetry_pump
 2345              		.text
 2346              	.Letext0:
 2347              		.file 2 "c:\\program files (x86)\\cypress\\psoc creator\\4.4\\psoc creator\\import\\gnu\\arm\\5.4.
 2348              		.file 3 "c:\\program files (x86)\\cypress\\psoc creator\\4.4\\psoc creator\\import\\gnu\\arm\\5.4.
 2349              		.file 4 "c:\\program files (x86)\\cypress\\psoc creator\\4.4\\psoc creator\\import\\gnu\\arm\\5.4.
 2350              		.file 5 "..\\..\\..\\HamFlyAPI\\src/hamfly_core_control.h"
 2351              		.file 6 "..\\..\\..\\HamFlyAPI\\src/hamfly_core_hal.h"
 2352              		.file 7 "..\\..\\..\\HamFlyAPI\\src/hamfly_core_telemetry.h"
 2353              		.file 8 "..\\..\\..\\HamFlyAPI\\src/hamfly_comm_rb.h"
 2354              		.file 9 "..\\..\\..\\HamFlyAPI\\src/hamfly_core_gimbal.h"
 2355              		.file 10 "joystick.h"
 2356              		.file 11 "app_ctx.h"
 2357              		.file 12 "telemetry.h"
 2358              		.file 13 "Generated_Source\\PSoC5/core_cm3.h"
 2359              		.section	.debug_info,"",%progbits
 2360              	.Ldebug_info0:
 2361 0000 14150000 		.4byte	0x1514
 2362 0004 0400     		.2byte	0x4
 2363 0006 00000000 		.4byte	.Ldebug_abbrev0
 2364 000a 04       		.byte	0x4
 2365 000b 01       		.uleb128 0x1
 2366 000c 22070000 		.4byte	.LASF276
 2367 0010 0C       		.byte	0xc
 2368 0011 5C0D0000 		.4byte	.LASF277
 2369 0015 FE0D0000 		.4byte	.LASF278
 2370 0019 00000000 		.4byte	.Ldebug_ranges0+0
 2371 001d 00000000 		.4byte	0
 2372 0021 00000000 		.4byte	.Ldebug_line0
 2373 0025 02       		.uleb128 0x2
 2374 0026 710A0000 		.4byte	.LASF0
 2375 002a 02       		.byte	0x2
 2376 002b 1B       		.byte	0x1b
 2377 002c 30000000 		.4byte	0x30
 2378 0030 03       		.uleb128 0x3
 2379 0031 01       		.byte	0x1
 2380 0032 06       		.byte	0x6
 2381 0033 0B030000 		.4byte	.LASF2
 2382 0037 02       		.uleb128 0x2
 2383 0038 E5010000 		.4byte	.LASF1
 2384 003c 02       		.byte	0x2
 2385 003d 1D       		.byte	0x1d
 2386 003e 42000000 		.4byte	0x42
 2387 0042 03       		.uleb128 0x3
 2388 0043 01       		.byte	0x1
 2389 0044 08       		.byte	0x8
 2390 0045 81030000 		.4byte	.LASF3
 2391 0049 02       		.uleb128 0x2
 2392 004a 540B0000 		.4byte	.LASF4
 2393 004e 02       		.byte	0x2
 2394 004f 29       		.byte	0x29
ARM GAS  C:\Users\JENNEW~1\AppData\Local\Temp\ccW8Un4u.s 			page 50


 2395 0050 54000000 		.4byte	0x54
 2396 0054 03       		.uleb128 0x3
 2397 0055 02       		.byte	0x2
 2398 0056 05       		.byte	0x5
 2399 0057 090C0000 		.4byte	.LASF5
 2400 005b 02       		.uleb128 0x2
 2401 005c 40040000 		.4byte	.LASF6
 2402 0060 02       		.byte	0x2
 2403 0061 2B       		.byte	0x2b
 2404 0062 66000000 		.4byte	0x66
 2405 0066 03       		.uleb128 0x3
 2406 0067 02       		.byte	0x2
 2407 0068 07       		.byte	0x7
 2408 0069 680D0000 		.4byte	.LASF7
 2409 006d 02       		.uleb128 0x2
 2410 006e 880D0000 		.4byte	.LASF8
 2411 0072 02       		.byte	0x2
 2412 0073 3F       		.byte	0x3f
 2413 0074 78000000 		.4byte	0x78
 2414 0078 03       		.uleb128 0x3
 2415 0079 04       		.byte	0x4
 2416 007a 05       		.byte	0x5
 2417 007b 4E020000 		.4byte	.LASF9
 2418 007f 02       		.uleb128 0x2
 2419 0080 D6070000 		.4byte	.LASF10
 2420 0084 02       		.byte	0x2
 2421 0085 41       		.byte	0x41
 2422 0086 8A000000 		.4byte	0x8a
 2423 008a 03       		.uleb128 0x3
 2424 008b 04       		.byte	0x4
 2425 008c 07       		.byte	0x7
 2426 008d 23060000 		.4byte	.LASF11
 2427 0091 03       		.uleb128 0x3
 2428 0092 08       		.byte	0x8
 2429 0093 05       		.byte	0x5
 2430 0094 F0070000 		.4byte	.LASF12
 2431 0098 03       		.uleb128 0x3
 2432 0099 08       		.byte	0x8
 2433 009a 07       		.byte	0x7
 2434 009b 7A0A0000 		.4byte	.LASF13
 2435 009f 04       		.uleb128 0x4
 2436 00a0 04       		.byte	0x4
 2437 00a1 05       		.byte	0x5
 2438 00a2 696E7400 		.ascii	"int\000"
 2439 00a6 03       		.uleb128 0x3
 2440 00a7 04       		.byte	0x4
 2441 00a8 07       		.byte	0x7
 2442 00a9 C6080000 		.4byte	.LASF14
 2443 00ad 02       		.uleb128 0x2
 2444 00ae 28000000 		.4byte	.LASF15
 2445 00b2 03       		.byte	0x3
 2446 00b3 14       		.byte	0x14
 2447 00b4 25000000 		.4byte	0x25
 2448 00b8 02       		.uleb128 0x2
 2449 00b9 17030000 		.4byte	.LASF16
 2450 00bd 03       		.byte	0x3
 2451 00be 18       		.byte	0x18
ARM GAS  C:\Users\JENNEW~1\AppData\Local\Temp\ccW8Un4u.s 			page 51


 2452 00bf 37000000 		.4byte	0x37
 2453 00c3 02       		.uleb128 0x2
 2454 00c4 360C0000 		.4byte	.LASF17
 2455 00c8 03       		.byte	0x3
 2456 00c9 20       		.byte	0x20
 2457 00ca 49000000 		.4byte	0x49
 2458 00ce 02       		.uleb128 0x2
 2459 00cf CD0A0000 		.4byte	.LASF18
 2460 00d3 03       		.byte	0x3
 2461 00d4 24       		.byte	0x24
 2462 00d5 5B000000 		.4byte	0x5b
 2463 00d9 02       		.uleb128 0x2
 2464 00da 92000000 		.4byte	.LASF19
 2465 00de 03       		.byte	0x3
 2466 00df 2C       		.byte	0x2c
 2467 00e0 6D000000 		.4byte	0x6d
 2468 00e4 02       		.uleb128 0x2
 2469 00e5 1D0D0000 		.4byte	.LASF20
 2470 00e9 03       		.byte	0x3
 2471 00ea 30       		.byte	0x30
 2472 00eb 7F000000 		.4byte	0x7f
 2473 00ef 03       		.uleb128 0x3
 2474 00f0 04       		.byte	0x4
 2475 00f1 04       		.byte	0x4
 2476 00f2 C0080000 		.4byte	.LASF21
 2477 00f6 03       		.uleb128 0x3
 2478 00f7 08       		.byte	0x8
 2479 00f8 04       		.byte	0x4
 2480 00f9 65080000 		.4byte	.LASF22
 2481 00fd 03       		.uleb128 0x3
 2482 00fe 01       		.byte	0x1
 2483 00ff 08       		.byte	0x8
 2484 0100 0E040000 		.4byte	.LASF23
 2485 0104 02       		.uleb128 0x2
 2486 0105 2F000000 		.4byte	.LASF24
 2487 0109 04       		.byte	0x4
 2488 010a D8       		.byte	0xd8
 2489 010b A6000000 		.4byte	0xa6
 2490 010f 03       		.uleb128 0x3
 2491 0110 08       		.byte	0x8
 2492 0111 04       		.byte	0x4
 2493 0112 C7090000 		.4byte	.LASF25
 2494 0116 03       		.uleb128 0x3
 2495 0117 04       		.byte	0x4
 2496 0118 07       		.byte	0x7
 2497 0119 44000000 		.4byte	.LASF26
 2498 011d 05       		.uleb128 0x5
 2499 011e 04       		.byte	0x4
 2500 011f 06       		.uleb128 0x6
 2501 0120 04       		.byte	0x4
 2502 0121 25010000 		.4byte	0x125
 2503 0125 07       		.uleb128 0x7
 2504 0126 FD000000 		.4byte	0xfd
 2505 012a 08       		.uleb128 0x8
 2506 012b E4000000 		.4byte	0xe4
 2507 012f 08       		.uleb128 0x8
 2508 0130 B8000000 		.4byte	0xb8
ARM GAS  C:\Users\JENNEW~1\AppData\Local\Temp\ccW8Un4u.s 			page 52


 2509 0134 08       		.uleb128 0x8
 2510 0135 CE000000 		.4byte	0xce
 2511 0139 09       		.uleb128 0x9
 2512 013a 01       		.byte	0x1
 2513 013b 42000000 		.4byte	0x42
 2514 013f 05       		.byte	0x5
 2515 0140 1E       		.byte	0x1e
 2516 0141 5E010000 		.4byte	0x15e
 2517 0145 0A       		.uleb128 0xa
 2518 0146 800C0000 		.4byte	.LASF27
 2519 014a 00       		.byte	0
 2520 014b 0A       		.uleb128 0xa
 2521 014c F1030000 		.4byte	.LASF28
 2522 0150 01       		.byte	0x1
 2523 0151 0A       		.uleb128 0xa
 2524 0152 B7090000 		.4byte	.LASF29
 2525 0156 02       		.byte	0x2
 2526 0157 0A       		.uleb128 0xa
 2527 0158 910A0000 		.4byte	.LASF30
 2528 015c 03       		.byte	0x3
 2529 015d 00       		.byte	0
 2530 015e 02       		.uleb128 0x2
 2531 015f FE070000 		.4byte	.LASF31
 2532 0163 05       		.byte	0x5
 2533 0164 2A       		.byte	0x2a
 2534 0165 39010000 		.4byte	0x139
 2535 0169 0B       		.uleb128 0xb
 2536 016a 14       		.byte	0x14
 2537 016b 05       		.byte	0x5
 2538 016c 2E       		.byte	0x2e
 2539 016d D2010000 		.4byte	0x1d2
 2540 0171 0C       		.uleb128 0xc
 2541 0172 70616E00 		.ascii	"pan\000"
 2542 0176 05       		.byte	0x5
 2543 0177 2F       		.byte	0x2f
 2544 0178 EF000000 		.4byte	0xef
 2545 017c 00       		.byte	0
 2546 017d 0D       		.uleb128 0xd
 2547 017e 3B0B0000 		.4byte	.LASF32
 2548 0182 05       		.byte	0x5
 2549 0183 30       		.byte	0x30
 2550 0184 EF000000 		.4byte	0xef
 2551 0188 04       		.byte	0x4
 2552 0189 0D       		.uleb128 0xd
 2553 018a 7B0D0000 		.4byte	.LASF33
 2554 018e 05       		.byte	0x5
 2555 018f 31       		.byte	0x31
 2556 0190 EF000000 		.4byte	0xef
 2557 0194 08       		.byte	0x8
 2558 0195 0D       		.uleb128 0xd
 2559 0196 BC0B0000 		.4byte	.LASF34
 2560 019a 05       		.byte	0x5
 2561 019b 32       		.byte	0x32
 2562 019c 5E010000 		.4byte	0x15e
 2563 01a0 0C       		.byte	0xc
 2564 01a1 0D       		.uleb128 0xd
 2565 01a2 B20B0000 		.4byte	.LASF35
ARM GAS  C:\Users\JENNEW~1\AppData\Local\Temp\ccW8Un4u.s 			page 53


 2566 01a6 05       		.byte	0x5
 2567 01a7 33       		.byte	0x33
 2568 01a8 5E010000 		.4byte	0x15e
 2569 01ac 0D       		.byte	0xd
 2570 01ad 0D       		.uleb128 0xd
 2571 01ae 0D090000 		.4byte	.LASF36
 2572 01b2 05       		.byte	0x5
 2573 01b3 34       		.byte	0x34
 2574 01b4 5E010000 		.4byte	0x15e
 2575 01b8 0E       		.byte	0xe
 2576 01b9 0D       		.uleb128 0xd
 2577 01ba 4A080000 		.4byte	.LASF37
 2578 01be 05       		.byte	0x5
 2579 01bf 35       		.byte	0x35
 2580 01c0 B8000000 		.4byte	0xb8
 2581 01c4 0F       		.byte	0xf
 2582 01c5 0D       		.uleb128 0xd
 2583 01c6 C00C0000 		.4byte	.LASF38
 2584 01ca 05       		.byte	0x5
 2585 01cb 36       		.byte	0x36
 2586 01cc B8000000 		.4byte	0xb8
 2587 01d0 10       		.byte	0x10
 2588 01d1 00       		.byte	0
 2589 01d2 02       		.uleb128 0x2
 2590 01d3 09010000 		.4byte	.LASF39
 2591 01d7 05       		.byte	0x5
 2592 01d8 37       		.byte	0x37
 2593 01d9 69010000 		.4byte	0x169
 2594 01dd 0B       		.uleb128 0xb
 2595 01de 0C       		.byte	0xc
 2596 01df 06       		.byte	0x6
 2597 01e0 24       		.byte	0x24
 2598 01e1 0A020000 		.4byte	0x20a
 2599 01e5 0C       		.uleb128 0xc
 2600 01e6 63747800 		.ascii	"ctx\000"
 2601 01ea 06       		.byte	0x6
 2602 01eb 25       		.byte	0x25
 2603 01ec 1D010000 		.4byte	0x11d
 2604 01f0 00       		.byte	0
 2605 01f1 0D       		.uleb128 0xd
 2606 01f2 B0060000 		.4byte	.LASF40
 2607 01f6 06       		.byte	0x6
 2608 01f7 26       		.byte	0x26
 2609 01f8 1A020000 		.4byte	0x21a
 2610 01fc 04       		.byte	0x4
 2611 01fd 0D       		.uleb128 0xd
 2612 01fe 3F0D0000 		.4byte	.LASF41
 2613 0202 06       		.byte	0x6
 2614 0203 27       		.byte	0x27
 2615 0204 2F020000 		.4byte	0x22f
 2616 0208 08       		.byte	0x8
 2617 0209 00       		.byte	0
 2618 020a 0E       		.uleb128 0xe
 2619 020b 1A020000 		.4byte	0x21a
 2620 020f 0F       		.uleb128 0xf
 2621 0210 1D010000 		.4byte	0x11d
 2622 0214 0F       		.uleb128 0xf
ARM GAS  C:\Users\JENNEW~1\AppData\Local\Temp\ccW8Un4u.s 			page 54


 2623 0215 B8000000 		.4byte	0xb8
 2624 0219 00       		.byte	0
 2625 021a 06       		.uleb128 0x6
 2626 021b 04       		.byte	0x4
 2627 021c 0A020000 		.4byte	0x20a
 2628 0220 10       		.uleb128 0x10
 2629 0221 E4000000 		.4byte	0xe4
 2630 0225 2F020000 		.4byte	0x22f
 2631 0229 0F       		.uleb128 0xf
 2632 022a 1D010000 		.4byte	0x11d
 2633 022e 00       		.byte	0
 2634 022f 06       		.uleb128 0x6
 2635 0230 04       		.byte	0x4
 2636 0231 20020000 		.4byte	0x220
 2637 0235 02       		.uleb128 0x2
 2638 0236 240A0000 		.4byte	.LASF42
 2639 023a 06       		.byte	0x6
 2640 023b 28       		.byte	0x28
 2641 023c DD010000 		.4byte	0x1dd
 2642 0240 0B       		.uleb128 0xb
 2643 0241 EC       		.byte	0xec
 2644 0242 07       		.byte	0x7
 2645 0243 1F       		.byte	0x1f
 2646 0244 A9050000 		.4byte	0x5a9
 2647 0248 0D       		.uleb128 0xd
 2648 0249 AF0C0000 		.4byte	.LASF43
 2649 024d 07       		.byte	0x7
 2650 024e 21       		.byte	0x21
 2651 024f A9050000 		.4byte	0x5a9
 2652 0253 00       		.byte	0
 2653 0254 0D       		.uleb128 0xd
 2654 0255 E1070000 		.4byte	.LASF44
 2655 0259 07       		.byte	0x7
 2656 025a 22       		.byte	0x22
 2657 025b EF000000 		.4byte	0xef
 2658 025f 04       		.byte	0x4
 2659 0260 0D       		.uleb128 0xd
 2660 0261 A3040000 		.4byte	.LASF45
 2661 0265 07       		.byte	0x7
 2662 0266 23       		.byte	0x23
 2663 0267 EF000000 		.4byte	0xef
 2664 026b 08       		.byte	0x8
 2665 026c 0D       		.uleb128 0xd
 2666 026d FE010000 		.4byte	.LASF46
 2667 0271 07       		.byte	0x7
 2668 0272 24       		.byte	0x24
 2669 0273 EF000000 		.4byte	0xef
 2670 0277 0C       		.byte	0xc
 2671 0278 0D       		.uleb128 0xd
 2672 0279 D3010000 		.4byte	.LASF47
 2673 027d 07       		.byte	0x7
 2674 027e 25       		.byte	0x25
 2675 027f EF000000 		.4byte	0xef
 2676 0283 10       		.byte	0x10
 2677 0284 0D       		.uleb128 0xd
 2678 0285 DC010000 		.4byte	.LASF48
 2679 0289 07       		.byte	0x7
ARM GAS  C:\Users\JENNEW~1\AppData\Local\Temp\ccW8Un4u.s 			page 55


 2680 028a 26       		.byte	0x26
 2681 028b EF000000 		.4byte	0xef
 2682 028f 14       		.byte	0x14
 2683 0290 0D       		.uleb128 0xd
 2684 0291 B0020000 		.4byte	.LASF49
 2685 0295 07       		.byte	0x7
 2686 0296 27       		.byte	0x27
 2687 0297 EF000000 		.4byte	0xef
 2688 029b 18       		.byte	0x18
 2689 029c 0D       		.uleb128 0xd
 2690 029d 19000000 		.4byte	.LASF50
 2691 02a1 07       		.byte	0x7
 2692 02a2 28       		.byte	0x28
 2693 02a3 B8000000 		.4byte	0xb8
 2694 02a7 1C       		.byte	0x1c
 2695 02a8 0D       		.uleb128 0xd
 2696 02a9 22090000 		.4byte	.LASF51
 2697 02ad 07       		.byte	0x7
 2698 02ae 29       		.byte	0x29
 2699 02af B8000000 		.4byte	0xb8
 2700 02b3 1D       		.byte	0x1d
 2701 02b4 0D       		.uleb128 0xd
 2702 02b5 7C010000 		.4byte	.LASF52
 2703 02b9 07       		.byte	0x7
 2704 02ba 2C       		.byte	0x2c
 2705 02bb A9050000 		.4byte	0x5a9
 2706 02bf 1E       		.byte	0x1e
 2707 02c0 0D       		.uleb128 0xd
 2708 02c1 650C0000 		.4byte	.LASF53
 2709 02c5 07       		.byte	0x7
 2710 02c6 2E       		.byte	0x2e
 2711 02c7 A9050000 		.4byte	0x5a9
 2712 02cb 1F       		.byte	0x1f
 2713 02cc 0D       		.uleb128 0xd
 2714 02cd 33020000 		.4byte	.LASF54
 2715 02d1 07       		.byte	0x7
 2716 02d2 31       		.byte	0x31
 2717 02d3 EF000000 		.4byte	0xef
 2718 02d7 20       		.byte	0x20
 2719 02d8 0D       		.uleb128 0xd
 2720 02d9 ED0D0000 		.4byte	.LASF55
 2721 02dd 07       		.byte	0x7
 2722 02de 32       		.byte	0x32
 2723 02df EF000000 		.4byte	0xef
 2724 02e3 24       		.byte	0x24
 2725 02e4 0D       		.uleb128 0xd
 2726 02e5 EC020000 		.4byte	.LASF56
 2727 02e9 07       		.byte	0x7
 2728 02ea 33       		.byte	0x33
 2729 02eb EF000000 		.4byte	0xef
 2730 02ef 28       		.byte	0x28
 2731 02f0 0D       		.uleb128 0xd
 2732 02f1 1C050000 		.4byte	.LASF57
 2733 02f5 07       		.byte	0x7
 2734 02f6 34       		.byte	0x34
 2735 02f7 EF000000 		.4byte	0xef
 2736 02fb 2C       		.byte	0x2c
ARM GAS  C:\Users\JENNEW~1\AppData\Local\Temp\ccW8Un4u.s 			page 56


 2737 02fc 0D       		.uleb128 0xd
 2738 02fd 3A080000 		.4byte	.LASF58
 2739 0301 07       		.byte	0x7
 2740 0302 36       		.byte	0x36
 2741 0303 EF000000 		.4byte	0xef
 2742 0307 30       		.byte	0x30
 2743 0308 0D       		.uleb128 0xd
 2744 0309 35060000 		.4byte	.LASF59
 2745 030d 07       		.byte	0x7
 2746 030e 37       		.byte	0x37
 2747 030f EF000000 		.4byte	0xef
 2748 0313 34       		.byte	0x34
 2749 0314 0D       		.uleb128 0xd
 2750 0315 5B050000 		.4byte	.LASF60
 2751 0319 07       		.byte	0x7
 2752 031a 38       		.byte	0x38
 2753 031b EF000000 		.4byte	0xef
 2754 031f 38       		.byte	0x38
 2755 0320 0D       		.uleb128 0xd
 2756 0321 FE050000 		.4byte	.LASF61
 2757 0325 07       		.byte	0x7
 2758 0326 39       		.byte	0x39
 2759 0327 EF000000 		.4byte	0xef
 2760 032b 3C       		.byte	0x3c
 2761 032c 0D       		.uleb128 0xd
 2762 032d A4060000 		.4byte	.LASF62
 2763 0331 07       		.byte	0x7
 2764 0332 3B       		.byte	0x3b
 2765 0333 D9000000 		.4byte	0xd9
 2766 0337 40       		.byte	0x40
 2767 0338 0D       		.uleb128 0xd
 2768 0339 330D0000 		.4byte	.LASF63
 2769 033d 07       		.byte	0x7
 2770 033e 3C       		.byte	0x3c
 2771 033f D9000000 		.4byte	0xd9
 2772 0343 44       		.byte	0x44
 2773 0344 0D       		.uleb128 0xd
 2774 0345 31090000 		.4byte	.LASF64
 2775 0349 07       		.byte	0x7
 2776 034a 41       		.byte	0x41
 2777 034b D9000000 		.4byte	0xd9
 2778 034f 48       		.byte	0x48
 2779 0350 0D       		.uleb128 0xd
 2780 0351 66050000 		.4byte	.LASF65
 2781 0355 07       		.byte	0x7
 2782 0356 42       		.byte	0x42
 2783 0357 C3000000 		.4byte	0xc3
 2784 035b 4C       		.byte	0x4c
 2785 035c 0D       		.uleb128 0xd
 2786 035d 400B0000 		.4byte	.LASF66
 2787 0361 07       		.byte	0x7
 2788 0362 44       		.byte	0x44
 2789 0363 C3000000 		.4byte	0xc3
 2790 0367 4E       		.byte	0x4e
 2791 0368 0D       		.uleb128 0xd
 2792 0369 63010000 		.4byte	.LASF67
 2793 036d 07       		.byte	0x7
ARM GAS  C:\Users\JENNEW~1\AppData\Local\Temp\ccW8Un4u.s 			page 57


 2794 036e 45       		.byte	0x45
 2795 036f CE000000 		.4byte	0xce
 2796 0373 50       		.byte	0x50
 2797 0374 0D       		.uleb128 0xd
 2798 0375 6D020000 		.4byte	.LASF68
 2799 0379 07       		.byte	0x7
 2800 037a 46       		.byte	0x46
 2801 037b CE000000 		.4byte	0xce
 2802 037f 52       		.byte	0x52
 2803 0380 0D       		.uleb128 0xd
 2804 0381 D3090000 		.4byte	.LASF69
 2805 0385 07       		.byte	0x7
 2806 0386 47       		.byte	0x47
 2807 0387 CE000000 		.4byte	0xce
 2808 038b 54       		.byte	0x54
 2809 038c 0D       		.uleb128 0xd
 2810 038d B50C0000 		.4byte	.LASF70
 2811 0391 07       		.byte	0x7
 2812 0392 4A       		.byte	0x4a
 2813 0393 A9050000 		.4byte	0x5a9
 2814 0397 56       		.byte	0x56
 2815 0398 0D       		.uleb128 0xd
 2816 0399 CE0D0000 		.4byte	.LASF71
 2817 039d 07       		.byte	0x7
 2818 039e 4E       		.byte	0x4e
 2819 039f EF000000 		.4byte	0xef
 2820 03a3 58       		.byte	0x58
 2821 03a4 0D       		.uleb128 0xd
 2822 03a5 100B0000 		.4byte	.LASF72
 2823 03a9 07       		.byte	0x7
 2824 03aa 52       		.byte	0x52
 2825 03ab EF000000 		.4byte	0xef
 2826 03af 5C       		.byte	0x5c
 2827 03b0 0D       		.uleb128 0xd
 2828 03b1 A8050000 		.4byte	.LASF73
 2829 03b5 07       		.byte	0x7
 2830 03b6 57       		.byte	0x57
 2831 03b7 A9050000 		.4byte	0x5a9
 2832 03bb 60       		.byte	0x60
 2833 03bc 0D       		.uleb128 0xd
 2834 03bd 13040000 		.4byte	.LASF74
 2835 03c1 07       		.byte	0x7
 2836 03c2 58       		.byte	0x58
 2837 03c3 E4000000 		.4byte	0xe4
 2838 03c7 64       		.byte	0x64
 2839 03c8 0D       		.uleb128 0xd
 2840 03c9 D5000000 		.4byte	.LASF75
 2841 03cd 07       		.byte	0x7
 2842 03ce 59       		.byte	0x59
 2843 03cf EF000000 		.4byte	0xef
 2844 03d3 68       		.byte	0x68
 2845 03d4 0D       		.uleb128 0xd
 2846 03d5 70090000 		.4byte	.LASF76
 2847 03d9 07       		.byte	0x7
 2848 03da 5A       		.byte	0x5a
 2849 03db EF000000 		.4byte	0xef
 2850 03df 6C       		.byte	0x6c
ARM GAS  C:\Users\JENNEW~1\AppData\Local\Temp\ccW8Un4u.s 			page 58


 2851 03e0 0D       		.uleb128 0xd
 2852 03e1 24040000 		.4byte	.LASF77
 2853 03e5 07       		.byte	0x7
 2854 03e6 5B       		.byte	0x5b
 2855 03e7 EF000000 		.4byte	0xef
 2856 03eb 70       		.byte	0x70
 2857 03ec 0D       		.uleb128 0xd
 2858 03ed 0F070000 		.4byte	.LASF78
 2859 03f1 07       		.byte	0x7
 2860 03f2 5F       		.byte	0x5f
 2861 03f3 EF000000 		.4byte	0xef
 2862 03f7 74       		.byte	0x74
 2863 03f8 0D       		.uleb128 0xd
 2864 03f9 F7040000 		.4byte	.LASF79
 2865 03fd 07       		.byte	0x7
 2866 03fe 60       		.byte	0x60
 2867 03ff EF000000 		.4byte	0xef
 2868 0403 78       		.byte	0x78
 2869 0404 0D       		.uleb128 0xd
 2870 0405 120A0000 		.4byte	.LASF80
 2871 0409 07       		.byte	0x7
 2872 040a 61       		.byte	0x61
 2873 040b EF000000 		.4byte	0xef
 2874 040f 7C       		.byte	0x7c
 2875 0410 0D       		.uleb128 0xd
 2876 0411 600A0000 		.4byte	.LASF81
 2877 0415 07       		.byte	0x7
 2878 0416 65       		.byte	0x65
 2879 0417 EF000000 		.4byte	0xef
 2880 041b 80       		.byte	0x80
 2881 041c 0D       		.uleb128 0xd
 2882 041d 14080000 		.4byte	.LASF82
 2883 0421 07       		.byte	0x7
 2884 0422 66       		.byte	0x66
 2885 0423 EF000000 		.4byte	0xef
 2886 0427 84       		.byte	0x84
 2887 0428 0D       		.uleb128 0xd
 2888 0429 E1060000 		.4byte	.LASF83
 2889 042d 07       		.byte	0x7
 2890 042e 67       		.byte	0x67
 2891 042f EF000000 		.4byte	0xef
 2892 0433 88       		.byte	0x88
 2893 0434 0D       		.uleb128 0xd
 2894 0435 020B0000 		.4byte	.LASF84
 2895 0439 07       		.byte	0x7
 2896 043a 6A       		.byte	0x6a
 2897 043b A9050000 		.4byte	0x5a9
 2898 043f 8C       		.byte	0x8c
 2899 0440 0D       		.uleb128 0xd
 2900 0441 280B0000 		.4byte	.LASF85
 2901 0445 07       		.byte	0x7
 2902 0446 6E       		.byte	0x6e
 2903 0447 A9050000 		.4byte	0x5a9
 2904 044b 8D       		.byte	0x8d
 2905 044c 0D       		.uleb128 0xd
 2906 044d C5040000 		.4byte	.LASF86
 2907 0451 07       		.byte	0x7
ARM GAS  C:\Users\JENNEW~1\AppData\Local\Temp\ccW8Un4u.s 			page 59


 2908 0452 6F       		.byte	0x6f
 2909 0453 A9050000 		.4byte	0x5a9
 2910 0457 8E       		.byte	0x8e
 2911 0458 0D       		.uleb128 0xd
 2912 0459 31040000 		.4byte	.LASF87
 2913 045d 07       		.byte	0x7
 2914 045e 70       		.byte	0x70
 2915 045f A9050000 		.4byte	0x5a9
 2916 0463 8F       		.byte	0x8f
 2917 0464 0D       		.uleb128 0xd
 2918 0465 1A010000 		.4byte	.LASF88
 2919 0469 07       		.byte	0x7
 2920 046a 71       		.byte	0x71
 2921 046b A9050000 		.4byte	0x5a9
 2922 046f 90       		.byte	0x90
 2923 0470 0D       		.uleb128 0xd
 2924 0471 EF010000 		.4byte	.LASF89
 2925 0475 07       		.byte	0x7
 2926 0476 72       		.byte	0x72
 2927 0477 EF000000 		.4byte	0xef
 2928 047b 94       		.byte	0x94
 2929 047c 0D       		.uleb128 0xd
 2930 047d 97050000 		.4byte	.LASF90
 2931 0481 07       		.byte	0x7
 2932 0482 73       		.byte	0x73
 2933 0483 B8000000 		.4byte	0xb8
 2934 0487 98       		.byte	0x98
 2935 0488 0D       		.uleb128 0xd
 2936 0489 B9020000 		.4byte	.LASF91
 2937 048d 07       		.byte	0x7
 2938 048e 74       		.byte	0x74
 2939 048f EF000000 		.4byte	0xef
 2940 0493 9C       		.byte	0x9c
 2941 0494 0D       		.uleb128 0xd
 2942 0495 920D0000 		.4byte	.LASF92
 2943 0499 07       		.byte	0x7
 2944 049a 75       		.byte	0x75
 2945 049b B8000000 		.4byte	0xb8
 2946 049f A0       		.byte	0xa0
 2947 04a0 0D       		.uleb128 0xd
 2948 04a1 AA0A0000 		.4byte	.LASF93
 2949 04a5 07       		.byte	0x7
 2950 04a6 76       		.byte	0x76
 2951 04a7 C3000000 		.4byte	0xc3
 2952 04ab A2       		.byte	0xa2
 2953 04ac 0D       		.uleb128 0xd
 2954 04ad 2E050000 		.4byte	.LASF94
 2955 04b1 07       		.byte	0x7
 2956 04b2 77       		.byte	0x77
 2957 04b3 C3000000 		.4byte	0xc3
 2958 04b7 A4       		.byte	0xa4
 2959 04b8 0D       		.uleb128 0xd
 2960 04b9 40060000 		.4byte	.LASF95
 2961 04bd 07       		.byte	0x7
 2962 04be 78       		.byte	0x78
 2963 04bf EF000000 		.4byte	0xef
 2964 04c3 A8       		.byte	0xa8
ARM GAS  C:\Users\JENNEW~1\AppData\Local\Temp\ccW8Un4u.s 			page 60


 2965 04c4 0D       		.uleb128 0xd
 2966 04c5 7A080000 		.4byte	.LASF96
 2967 04c9 07       		.byte	0x7
 2968 04ca 79       		.byte	0x79
 2969 04cb C3000000 		.4byte	0xc3
 2970 04cf AC       		.byte	0xac
 2971 04d0 0D       		.uleb128 0xd
 2972 04d1 730B0000 		.4byte	.LASF97
 2973 04d5 07       		.byte	0x7
 2974 04d6 7A       		.byte	0x7a
 2975 04d7 C3000000 		.4byte	0xc3
 2976 04db AE       		.byte	0xae
 2977 04dc 0D       		.uleb128 0xd
 2978 04dd FB060000 		.4byte	.LASF98
 2979 04e1 07       		.byte	0x7
 2980 04e2 7B       		.byte	0x7b
 2981 04e3 C3000000 		.4byte	0xc3
 2982 04e7 B0       		.byte	0xb0
 2983 04e8 0D       		.uleb128 0xd
 2984 04e9 B9010000 		.4byte	.LASF99
 2985 04ed 07       		.byte	0x7
 2986 04ee 7C       		.byte	0x7c
 2987 04ef EF000000 		.4byte	0xef
 2988 04f3 B4       		.byte	0xb4
 2989 04f4 0D       		.uleb128 0xd
 2990 04f5 97020000 		.4byte	.LASF100
 2991 04f9 07       		.byte	0x7
 2992 04fa 7D       		.byte	0x7d
 2993 04fb C3000000 		.4byte	0xc3
 2994 04ff B8       		.byte	0xb8
 2995 0500 0D       		.uleb128 0xd
 2996 0501 82040000 		.4byte	.LASF101
 2997 0505 07       		.byte	0x7
 2998 0506 80       		.byte	0x80
 2999 0507 A9050000 		.4byte	0x5a9
 3000 050b BA       		.byte	0xba
 3001 050c 0D       		.uleb128 0xd
 3002 050d 5E090000 		.4byte	.LASF102
 3003 0511 07       		.byte	0x7
 3004 0512 81       		.byte	0x81
 3005 0513 EF000000 		.4byte	0xef
 3006 0517 BC       		.byte	0xbc
 3007 0518 0D       		.uleb128 0xd
 3008 0519 64090000 		.4byte	.LASF103
 3009 051d 07       		.byte	0x7
 3010 051e 82       		.byte	0x82
 3011 051f EF000000 		.4byte	0xef
 3012 0523 C0       		.byte	0xc0
 3013 0524 0D       		.uleb128 0xd
 3014 0525 6A090000 		.4byte	.LASF104
 3015 0529 07       		.byte	0x7
 3016 052a 83       		.byte	0x83
 3017 052b EF000000 		.4byte	0xef
 3018 052f C4       		.byte	0xc4
 3019 0530 0D       		.uleb128 0xd
 3020 0531 4B040000 		.4byte	.LASF105
 3021 0535 07       		.byte	0x7
ARM GAS  C:\Users\JENNEW~1\AppData\Local\Temp\ccW8Un4u.s 			page 61


 3022 0536 84       		.byte	0x84
 3023 0537 EF000000 		.4byte	0xef
 3024 053b C8       		.byte	0xc8
 3025 053c 0D       		.uleb128 0xd
 3026 053d 530D0000 		.4byte	.LASF106
 3027 0541 07       		.byte	0x7
 3028 0542 85       		.byte	0x85
 3029 0543 EF000000 		.4byte	0xef
 3030 0547 CC       		.byte	0xcc
 3031 0548 0D       		.uleb128 0xd
 3032 0549 D5050000 		.4byte	.LASF107
 3033 054d 07       		.byte	0x7
 3034 054e 86       		.byte	0x86
 3035 054f EF000000 		.4byte	0xef
 3036 0553 D0       		.byte	0xd0
 3037 0554 0D       		.uleb128 0xd
 3038 0555 DF050000 		.4byte	.LASF108
 3039 0559 07       		.byte	0x7
 3040 055a 87       		.byte	0x87
 3041 055b EF000000 		.4byte	0xef
 3042 055f D4       		.byte	0xd4
 3043 0560 0D       		.uleb128 0xd
 3044 0561 E9050000 		.4byte	.LASF109
 3045 0565 07       		.byte	0x7
 3046 0566 88       		.byte	0x88
 3047 0567 EF000000 		.4byte	0xef
 3048 056b D8       		.byte	0xd8
 3049 056c 0D       		.uleb128 0xd
 3050 056d 700C0000 		.4byte	.LASF110
 3051 0571 07       		.byte	0x7
 3052 0572 89       		.byte	0x89
 3053 0573 EF000000 		.4byte	0xef
 3054 0577 DC       		.byte	0xdc
 3055 0578 0D       		.uleb128 0xd
 3056 0579 36000000 		.4byte	.LASF111
 3057 057d 07       		.byte	0x7
 3058 057e 94       		.byte	0x94
 3059 057f A9050000 		.4byte	0x5a9
 3060 0583 E0       		.byte	0xe0
 3061 0584 0D       		.uleb128 0xd
 3062 0585 BB0D0000 		.4byte	.LASF112
 3063 0589 07       		.byte	0x7
 3064 058a 95       		.byte	0x95
 3065 058b A9050000 		.4byte	0x5a9
 3066 058f E1       		.byte	0xe1
 3067 0590 0D       		.uleb128 0xd
 3068 0591 8A060000 		.4byte	.LASF113
 3069 0595 07       		.byte	0x7
 3070 0596 96       		.byte	0x96
 3071 0597 EF000000 		.4byte	0xef
 3072 059b E4       		.byte	0xe4
 3073 059c 0D       		.uleb128 0xd
 3074 059d 12060000 		.4byte	.LASF114
 3075 05a1 07       		.byte	0x7
 3076 05a2 97       		.byte	0x97
 3077 05a3 C3000000 		.4byte	0xc3
 3078 05a7 E8       		.byte	0xe8
ARM GAS  C:\Users\JENNEW~1\AppData\Local\Temp\ccW8Un4u.s 			page 62


 3079 05a8 00       		.byte	0
 3080 05a9 03       		.uleb128 0x3
 3081 05aa 01       		.byte	0x1
 3082 05ab 02       		.byte	0x2
 3083 05ac EB030000 		.4byte	.LASF115
 3084 05b0 02       		.uleb128 0x2
 3085 05b1 77060000 		.4byte	.LASF116
 3086 05b5 07       		.byte	0x7
 3087 05b6 99       		.byte	0x99
 3088 05b7 40020000 		.4byte	0x240
 3089 05bb 11       		.uleb128 0x11
 3090 05bc 0601     		.2byte	0x106
 3091 05be 08       		.byte	0x8
 3092 05bf 22       		.byte	0x22
 3093 05c0 F8050000 		.4byte	0x5f8
 3094 05c4 0C       		.uleb128 0xc
 3095 05c5 62756600 		.ascii	"buf\000"
 3096 05c9 08       		.byte	0x8
 3097 05ca 23       		.byte	0x23
 3098 05cb 08060000 		.4byte	0x608
 3099 05cf 00       		.byte	0
 3100 05d0 12       		.uleb128 0x12
 3101 05d1 C8020000 		.4byte	.LASF117
 3102 05d5 08       		.byte	0x8
 3103 05d6 24       		.byte	0x24
 3104 05d7 34010000 		.4byte	0x134
 3105 05db 0001     		.2byte	0x100
 3106 05dd 12       		.uleb128 0x12
 3107 05de 66000000 		.4byte	.LASF118
 3108 05e2 08       		.byte	0x8
 3109 05e3 25       		.byte	0x25
 3110 05e4 34010000 		.4byte	0x134
 3111 05e8 0201     		.2byte	0x102
 3112 05ea 12       		.uleb128 0x12
 3113 05eb AC0B0000 		.4byte	.LASF119
 3114 05ef 08       		.byte	0x8
 3115 05f0 26       		.byte	0x26
 3116 05f1 34010000 		.4byte	0x134
 3117 05f5 0401     		.2byte	0x104
 3118 05f7 00       		.byte	0
 3119 05f8 13       		.uleb128 0x13
 3120 05f9 2F010000 		.4byte	0x12f
 3121 05fd 08060000 		.4byte	0x608
 3122 0601 14       		.uleb128 0x14
 3123 0602 16010000 		.4byte	0x116
 3124 0606 FF       		.byte	0xff
 3125 0607 00       		.byte	0
 3126 0608 08       		.uleb128 0x8
 3127 0609 F8050000 		.4byte	0x5f8
 3128 060d 02       		.uleb128 0x2
 3129 060e 5D030000 		.4byte	.LASF120
 3130 0612 08       		.byte	0x8
 3131 0613 27       		.byte	0x27
 3132 0614 BB050000 		.4byte	0x5bb
 3133 0618 09       		.uleb128 0x9
 3134 0619 01       		.byte	0x1
 3135 061a 42000000 		.4byte	0x42
ARM GAS  C:\Users\JENNEW~1\AppData\Local\Temp\ccW8Un4u.s 			page 63


 3136 061e 09       		.byte	0x9
 3137 061f 25       		.byte	0x25
 3138 0620 49060000 		.4byte	0x649
 3139 0624 0A       		.uleb128 0xa
 3140 0625 4B0C0000 		.4byte	.LASF121
 3141 0629 00       		.byte	0
 3142 062a 0A       		.uleb128 0xa
 3143 062b 410A0000 		.4byte	.LASF122
 3144 062f 01       		.byte	0x1
 3145 0630 0A       		.uleb128 0xa
 3146 0631 CF030000 		.4byte	.LASF123
 3147 0635 02       		.byte	0x2
 3148 0636 0A       		.uleb128 0xa
 3149 0637 550C0000 		.4byte	.LASF124
 3150 063b 03       		.byte	0x3
 3151 063c 0A       		.uleb128 0xa
 3152 063d 98080000 		.4byte	.LASF125
 3153 0641 04       		.byte	0x4
 3154 0642 0A       		.uleb128 0xa
 3155 0643 F6020000 		.4byte	.LASF126
 3156 0647 05       		.byte	0x5
 3157 0648 00       		.byte	0
 3158 0649 0B       		.uleb128 0xb
 3159 064a 18       		.byte	0x18
 3160 064b 09       		.byte	0x9
 3161 064c 2F       		.byte	0x2f
 3162 064d A6060000 		.4byte	0x6a6
 3163 0651 0D       		.uleb128 0xd
 3164 0652 E70C0000 		.4byte	.LASF127
 3165 0656 09       		.byte	0x9
 3166 0657 30       		.byte	0x30
 3167 0658 E4000000 		.4byte	0xe4
 3168 065c 00       		.byte	0
 3169 065d 0D       		.uleb128 0xd
 3170 065e 1E020000 		.4byte	.LASF128
 3171 0662 09       		.byte	0x9
 3172 0663 31       		.byte	0x31
 3173 0664 E4000000 		.4byte	0xe4
 3174 0668 04       		.byte	0x4
 3175 0669 0D       		.uleb128 0xd
 3176 066a A7030000 		.4byte	.LASF129
 3177 066e 09       		.byte	0x9
 3178 066f 32       		.byte	0x32
 3179 0670 E4000000 		.4byte	0xe4
 3180 0674 08       		.byte	0x8
 3181 0675 0D       		.uleb128 0xd
 3182 0676 AA080000 		.4byte	.LASF130
 3183 067a 09       		.byte	0x9
 3184 067b 33       		.byte	0x33
 3185 067c E4000000 		.4byte	0xe4
 3186 0680 0C       		.byte	0xc
 3187 0681 0D       		.uleb128 0xd
 3188 0682 3D050000 		.4byte	.LASF131
 3189 0686 09       		.byte	0x9
 3190 0687 34       		.byte	0x34
 3191 0688 E4000000 		.4byte	0xe4
 3192 068c 10       		.byte	0x10
ARM GAS  C:\Users\JENNEW~1\AppData\Local\Temp\ccW8Un4u.s 			page 64


 3193 068d 0D       		.uleb128 0xd
 3194 068e 27020000 		.4byte	.LASF132
 3195 0692 09       		.byte	0x9
 3196 0693 35       		.byte	0x35
 3197 0694 CE000000 		.4byte	0xce
 3198 0698 14       		.byte	0x14
 3199 0699 0D       		.uleb128 0xd
 3200 069a 72050000 		.4byte	.LASF133
 3201 069e 09       		.byte	0x9
 3202 069f 36       		.byte	0x36
 3203 06a0 B8000000 		.4byte	0xb8
 3204 06a4 16       		.byte	0x16
 3205 06a5 00       		.byte	0
 3206 06a6 02       		.uleb128 0x2
 3207 06a7 08050000 		.4byte	.LASF134
 3208 06ab 09       		.byte	0x9
 3209 06ac 37       		.byte	0x37
 3210 06ad 49060000 		.4byte	0x649
 3211 06b1 11       		.uleb128 0x11
 3212 06b2 8003     		.2byte	0x380
 3213 06b4 09       		.byte	0x9
 3214 06b5 3E       		.byte	0x3e
 3215 06b6 6E070000 		.4byte	0x76e
 3216 06ba 0C       		.uleb128 0xc
 3217 06bb 68616C00 		.ascii	"hal\000"
 3218 06bf 09       		.byte	0x9
 3219 06c0 3F       		.byte	0x3f
 3220 06c1 35020000 		.4byte	0x235
 3221 06c5 00       		.byte	0
 3222 06c6 0C       		.uleb128 0xc
 3223 06c7 63746C00 		.ascii	"ctl\000"
 3224 06cb 09       		.byte	0x9
 3225 06cc 40       		.byte	0x40
 3226 06cd D2010000 		.4byte	0x1d2
 3227 06d1 0C       		.byte	0xc
 3228 06d2 0D       		.uleb128 0xd
 3229 06d3 F4090000 		.4byte	.LASF135
 3230 06d7 09       		.byte	0x9
 3231 06d8 41       		.byte	0x41
 3232 06d9 B0050000 		.4byte	0x5b0
 3233 06dd 20       		.byte	0x20
 3234 06de 12       		.uleb128 0x12
 3235 06df 8D0C0000 		.4byte	.LASF136
 3236 06e3 09       		.byte	0x9
 3237 06e4 42       		.byte	0x42
 3238 06e5 A6060000 		.4byte	0x6a6
 3239 06e9 0C01     		.2byte	0x10c
 3240 06eb 12       		.uleb128 0x12
 3241 06ec B8070000 		.4byte	.LASF137
 3242 06f0 09       		.byte	0x9
 3243 06f1 43       		.byte	0x43
 3244 06f2 0D060000 		.4byte	0x60d
 3245 06f6 2401     		.2byte	0x124
 3246 06f8 12       		.uleb128 0x12
 3247 06f9 AA020000 		.4byte	.LASF138
 3248 06fd 09       		.byte	0x9
 3249 06fe 44       		.byte	0x44
ARM GAS  C:\Users\JENNEW~1\AppData\Local\Temp\ccW8Un4u.s 			page 65


 3250 06ff 0D060000 		.4byte	0x60d
 3251 0703 2A02     		.2byte	0x22a
 3252 0705 12       		.uleb128 0x12
 3253 0706 CB050000 		.4byte	.LASF139
 3254 070a 09       		.byte	0x9
 3255 070b 48       		.byte	0x48
 3256 070c B8000000 		.4byte	0xb8
 3257 0710 3003     		.2byte	0x330
 3258 0712 12       		.uleb128 0x12
 3259 0713 260D0000 		.4byte	.LASF140
 3260 0717 09       		.byte	0x9
 3261 0718 4C       		.byte	0x4c
 3262 0719 CE000000 		.4byte	0xce
 3263 071d 3203     		.2byte	0x332
 3264 071f 12       		.uleb128 0x12
 3265 0720 7D000000 		.4byte	.LASF141
 3266 0724 09       		.byte	0x9
 3267 0725 4D       		.byte	0x4d
 3268 0726 E4000000 		.4byte	0xe4
 3269 072a 3403     		.2byte	0x334
 3270 072c 12       		.uleb128 0x12
 3271 072d FB000000 		.4byte	.LASF142
 3272 0731 09       		.byte	0x9
 3273 0732 4E       		.byte	0x4e
 3274 0733 A9050000 		.4byte	0x5a9
 3275 0737 3803     		.2byte	0x338
 3276 0739 12       		.uleb128 0x12
 3277 073a 81050000 		.4byte	.LASF143
 3278 073e 09       		.byte	0x9
 3279 073f 4F       		.byte	0x4f
 3280 0740 CE000000 		.4byte	0xce
 3281 0744 3A03     		.2byte	0x33a
 3282 0746 12       		.uleb128 0x12
 3283 0747 5E0B0000 		.4byte	.LASF144
 3284 074b 09       		.byte	0x9
 3285 074c 50       		.byte	0x50
 3286 074d CE000000 		.4byte	0xce
 3287 0751 3C03     		.2byte	0x33c
 3288 0753 12       		.uleb128 0x12
 3289 0754 87020000 		.4byte	.LASF145
 3290 0758 09       		.byte	0x9
 3291 0759 51       		.byte	0x51
 3292 075a 6E070000 		.4byte	0x76e
 3293 075e 3E03     		.2byte	0x33e
 3294 0760 12       		.uleb128 0x12
 3295 0761 51080000 		.4byte	.LASF146
 3296 0765 09       		.byte	0x9
 3297 0766 54       		.byte	0x54
 3298 0767 B8000000 		.4byte	0xb8
 3299 076b 7E03     		.2byte	0x37e
 3300 076d 00       		.byte	0
 3301 076e 13       		.uleb128 0x13
 3302 076f B8000000 		.4byte	0xb8
 3303 0773 7E070000 		.4byte	0x77e
 3304 0777 14       		.uleb128 0x14
 3305 0778 16010000 		.4byte	0x116
 3306 077c 3F       		.byte	0x3f
ARM GAS  C:\Users\JENNEW~1\AppData\Local\Temp\ccW8Un4u.s 			page 66


 3307 077d 00       		.byte	0
 3308 077e 02       		.uleb128 0x2
 3309 077f 00000000 		.4byte	.LASF147
 3310 0783 09       		.byte	0x9
 3311 0784 56       		.byte	0x56
 3312 0785 B1060000 		.4byte	0x6b1
 3313 0789 09       		.uleb128 0x9
 3314 078a 01       		.byte	0x1
 3315 078b 42000000 		.4byte	0x42
 3316 078f 0A       		.byte	0xa
 3317 0790 38       		.byte	0x38
 3318 0791 A8070000 		.4byte	0x7a8
 3319 0795 0A       		.uleb128 0xa
 3320 0796 F1060000 		.4byte	.LASF148
 3321 079a 00       		.byte	0
 3322 079b 0A       		.uleb128 0xa
 3323 079c BB040000 		.4byte	.LASF149
 3324 07a0 01       		.byte	0x1
 3325 07a1 0A       		.uleb128 0xa
 3326 07a2 53090000 		.4byte	.LASF150
 3327 07a6 02       		.byte	0x2
 3328 07a7 00       		.byte	0
 3329 07a8 02       		.uleb128 0x2
 3330 07a9 84090000 		.4byte	.LASF151
 3331 07ad 0A       		.byte	0xa
 3332 07ae 3C       		.byte	0x3c
 3333 07af 89070000 		.4byte	0x789
 3334 07b3 0B       		.uleb128 0xb
 3335 07b4 08       		.byte	0x8
 3336 07b5 0A       		.byte	0xa
 3337 07b6 50       		.byte	0x50
 3338 07b7 C6070000 		.4byte	0x7c6
 3339 07bb 0C       		.uleb128 0xc
 3340 07bc 7500     		.ascii	"u\000"
 3341 07be 0A       		.byte	0xa
 3342 07bf 51       		.byte	0x51
 3343 07c0 C6070000 		.4byte	0x7c6
 3344 07c4 00       		.byte	0
 3345 07c5 00       		.byte	0
 3346 07c6 13       		.uleb128 0x13
 3347 07c7 EF000000 		.4byte	0xef
 3348 07cb D6070000 		.4byte	0x7d6
 3349 07cf 14       		.uleb128 0x14
 3350 07d0 16010000 		.4byte	0x116
 3351 07d4 01       		.byte	0x1
 3352 07d5 00       		.byte	0
 3353 07d6 02       		.uleb128 0x2
 3354 07d7 730E0000 		.4byte	.LASF152
 3355 07db 0A       		.byte	0xa
 3356 07dc 52       		.byte	0x52
 3357 07dd B3070000 		.4byte	0x7b3
 3358 07e1 09       		.uleb128 0x9
 3359 07e2 01       		.byte	0x1
 3360 07e3 42000000 		.4byte	0x42
 3361 07e7 0B       		.byte	0xb
 3362 07e8 27       		.byte	0x27
 3363 07e9 4E080000 		.4byte	0x84e
ARM GAS  C:\Users\JENNEW~1\AppData\Local\Temp\ccW8Un4u.s 			page 67


 3364 07ed 0A       		.uleb128 0xa
 3365 07ee 8D000000 		.4byte	.LASF153
 3366 07f2 00       		.byte	0
 3367 07f3 0A       		.uleb128 0xa
 3368 07f4 F90D0000 		.4byte	.LASF154
 3369 07f8 01       		.byte	0x1
 3370 07f9 0A       		.uleb128 0xa
 3371 07fa 0D0A0000 		.4byte	.LASF155
 3372 07fe 02       		.byte	0x2
 3373 07ff 0A       		.uleb128 0xa
 3374 0800 130C0000 		.4byte	.LASF156
 3375 0804 03       		.byte	0x3
 3376 0805 0A       		.uleb128 0xa
 3377 0806 9E060000 		.4byte	.LASF157
 3378 080a 04       		.byte	0x4
 3379 080b 0A       		.uleb128 0xa
 3380 080c 02090000 		.4byte	.LASF158
 3381 0810 05       		.byte	0x5
 3382 0811 0A       		.uleb128 0xa
 3383 0812 C5030000 		.4byte	.LASF159
 3384 0816 06       		.byte	0x6
 3385 0817 0A       		.uleb128 0xa
 3386 0818 BF0A0000 		.4byte	.LASF160
 3387 081c 07       		.byte	0x7
 3388 081d 0A       		.uleb128 0xa
 3389 081e 73000000 		.4byte	.LASF161
 3390 0822 08       		.byte	0x8
 3391 0823 0A       		.uleb128 0xa
 3392 0824 7A020000 		.4byte	.LASF162
 3393 0828 09       		.byte	0x9
 3394 0829 0A       		.uleb128 0xa
 3395 082a 310A0000 		.4byte	.LASF163
 3396 082e 0A       		.byte	0xa
 3397 082f 0A       		.uleb128 0xa
 3398 0830 8F010000 		.4byte	.LASF164
 3399 0834 0B       		.byte	0xb
 3400 0835 0A       		.uleb128 0xa
 3401 0836 E1030000 		.4byte	.LASF165
 3402 083a 0C       		.byte	0xc
 3403 083b 0A       		.uleb128 0xa
 3404 083c 8F030000 		.4byte	.LASF166
 3405 0840 0D       		.byte	0xd
 3406 0841 0A       		.uleb128 0xa
 3407 0842 CD0C0000 		.4byte	.LASF167
 3408 0846 0E       		.byte	0xe
 3409 0847 0A       		.uleb128 0xa
 3410 0848 CA070000 		.4byte	.LASF168
 3411 084c 0F       		.byte	0xf
 3412 084d 00       		.byte	0
 3413 084e 02       		.uleb128 0x2
 3414 084f 800D0000 		.4byte	.LASF169
 3415 0853 0B       		.byte	0xb
 3416 0854 37       		.byte	0x37
 3417 0855 E1070000 		.4byte	0x7e1
 3418 0859 09       		.uleb128 0x9
 3419 085a 01       		.byte	0x1
 3420 085b 42000000 		.4byte	0x42
ARM GAS  C:\Users\JENNEW~1\AppData\Local\Temp\ccW8Un4u.s 			page 68


 3421 085f 0B       		.byte	0xb
 3422 0860 3F       		.byte	0x3f
 3423 0861 7E080000 		.4byte	0x87e
 3424 0865 0A       		.uleb128 0xa
 3425 0866 C2050000 		.4byte	.LASF170
 3426 086a 00       		.byte	0
 3427 086b 0A       		.uleb128 0xa
 3428 086c CD020000 		.4byte	.LASF171
 3429 0870 01       		.byte	0x1
 3430 0871 0A       		.uleb128 0xa
 3431 0872 AC010000 		.4byte	.LASF172
 3432 0876 02       		.byte	0x2
 3433 0877 0A       		.uleb128 0xa
 3434 0878 DE0A0000 		.4byte	.LASF173
 3435 087c 03       		.byte	0x3
 3436 087d 00       		.byte	0
 3437 087e 02       		.uleb128 0x2
 3438 087f CB000000 		.4byte	.LASF174
 3439 0883 0B       		.byte	0xb
 3440 0884 44       		.byte	0x44
 3441 0885 59080000 		.4byte	0x859
 3442 0889 0B       		.uleb128 0xb
 3443 088a 5C       		.byte	0x5c
 3444 088b 0B       		.byte	0xb
 3445 088c 47       		.byte	0x47
 3446 088d BE090000 		.4byte	0x9be
 3447 0891 0D       		.uleb128 0xd
 3448 0892 40030000 		.4byte	.LASF175
 3449 0896 0B       		.byte	0xb
 3450 0897 49       		.byte	0x49
 3451 0898 BE090000 		.4byte	0x9be
 3452 089c 00       		.byte	0
 3453 089d 0D       		.uleb128 0xd
 3454 089e 40010000 		.4byte	.LASF176
 3455 08a2 0B       		.byte	0xb
 3456 08a3 4C       		.byte	0x4c
 3457 08a4 4E080000 		.4byte	0x84e
 3458 08a8 04       		.byte	0x4
 3459 08a9 0D       		.uleb128 0xd
 3460 08aa 1F030000 		.4byte	.LASF177
 3461 08ae 0B       		.byte	0xb
 3462 08af 4D       		.byte	0x4d
 3463 08b0 4E080000 		.4byte	0x84e
 3464 08b4 05       		.byte	0x5
 3465 08b5 0D       		.uleb128 0xd
 3466 08b6 0A060000 		.4byte	.LASF178
 3467 08ba 0B       		.byte	0xb
 3468 08bb 50       		.byte	0x50
 3469 08bc 7E080000 		.4byte	0x87e
 3470 08c0 06       		.byte	0x6
 3471 08c1 0D       		.uleb128 0xd
 3472 08c2 D60A0000 		.4byte	.LASF179
 3473 08c6 0B       		.byte	0xb
 3474 08c7 51       		.byte	0x51
 3475 08c8 1F010000 		.4byte	0x11f
 3476 08cc 08       		.byte	0x8
 3477 08cd 0D       		.uleb128 0xd
ARM GAS  C:\Users\JENNEW~1\AppData\Local\Temp\ccW8Un4u.s 			page 69


 3478 08ce 6C080000 		.4byte	.LASF180
 3479 08d2 0B       		.byte	0xb
 3480 08d3 52       		.byte	0x52
 3481 08d4 B8000000 		.4byte	0xb8
 3482 08d8 0C       		.byte	0xc
 3483 08d9 0D       		.uleb128 0xd
 3484 08da 36010000 		.4byte	.LASF181
 3485 08de 0B       		.byte	0xb
 3486 08df 55       		.byte	0x55
 3487 08e0 5E010000 		.4byte	0x15e
 3488 08e4 0D       		.byte	0xd
 3489 08e5 0D       		.uleb128 0xd
 3490 08e6 A20D0000 		.4byte	.LASF182
 3491 08ea 0B       		.byte	0xb
 3492 08eb 58       		.byte	0x58
 3493 08ec EF000000 		.4byte	0xef
 3494 08f0 10       		.byte	0x10
 3495 08f1 0D       		.uleb128 0xd
 3496 08f2 C50B0000 		.4byte	.LASF183
 3497 08f6 0B       		.byte	0xb
 3498 08f7 59       		.byte	0x59
 3499 08f8 EF000000 		.4byte	0xef
 3500 08fc 14       		.byte	0x14
 3501 08fd 0D       		.uleb128 0xd
 3502 08fe D50B0000 		.4byte	.LASF184
 3503 0902 0B       		.byte	0xb
 3504 0903 5C       		.byte	0x5c
 3505 0904 EF000000 		.4byte	0xef
 3506 0908 18       		.byte	0x18
 3507 0909 0D       		.uleb128 0xd
 3508 090a B2050000 		.4byte	.LASF185
 3509 090e 0B       		.byte	0xb
 3510 090f 5D       		.byte	0x5d
 3511 0910 EF000000 		.4byte	0xef
 3512 0914 1C       		.byte	0x1c
 3513 0915 0D       		.uleb128 0xd
 3514 0916 57020000 		.4byte	.LASF186
 3515 091a 0B       		.byte	0xb
 3516 091b 5E       		.byte	0x5e
 3517 091c B8000000 		.4byte	0xb8
 3518 0920 20       		.byte	0x20
 3519 0921 0D       		.uleb128 0xd
 3520 0922 F3050000 		.4byte	.LASF187
 3521 0926 0B       		.byte	0xb
 3522 0927 61       		.byte	0x61
 3523 0928 E4000000 		.4byte	0xe4
 3524 092c 24       		.byte	0x24
 3525 092d 0D       		.uleb128 0xd
 3526 092e DA0C0000 		.4byte	.LASF188
 3527 0932 0B       		.byte	0xb
 3528 0933 62       		.byte	0x62
 3529 0934 E4000000 		.4byte	0xe4
 3530 0938 28       		.byte	0x28
 3531 0939 0D       		.uleb128 0xd
 3532 093a EC0B0000 		.4byte	.LASF189
 3533 093e 0B       		.byte	0xb
 3534 093f 63       		.byte	0x63
ARM GAS  C:\Users\JENNEW~1\AppData\Local\Temp\ccW8Un4u.s 			page 70


 3535 0940 E4000000 		.4byte	0xe4
 3536 0944 2C       		.byte	0x2c
 3537 0945 0D       		.uleb128 0xd
 3538 0946 1C0B0000 		.4byte	.LASF190
 3539 094a 0B       		.byte	0xb
 3540 094b 64       		.byte	0x64
 3541 094c B8000000 		.4byte	0xb8
 3542 0950 30       		.byte	0x30
 3543 0951 0C       		.uleb128 0xc
 3544 0952 636D6400 		.ascii	"cmd\000"
 3545 0956 0B       		.byte	0xb
 3546 0957 67       		.byte	0x67
 3547 0958 D6070000 		.4byte	0x7d6
 3548 095c 34       		.byte	0x34
 3549 095d 0D       		.uleb128 0xd
 3550 095e 46010000 		.4byte	.LASF191
 3551 0962 0B       		.byte	0xb
 3552 0963 68       		.byte	0x68
 3553 0964 A8070000 		.4byte	0x7a8
 3554 0968 3C       		.byte	0x3c
 3555 0969 0D       		.uleb128 0xd
 3556 096a E80A0000 		.4byte	.LASF192
 3557 096e 0B       		.byte	0xb
 3558 096f 69       		.byte	0x69
 3559 0970 E4000000 		.4byte	0xe4
 3560 0974 40       		.byte	0x40
 3561 0975 0D       		.uleb128 0xd
 3562 0976 7D0E0000 		.4byte	.LASF193
 3563 097a 0B       		.byte	0xb
 3564 097b 6C       		.byte	0x6c
 3565 097c B8000000 		.4byte	0xb8
 3566 0980 44       		.byte	0x44
 3567 0981 0D       		.uleb128 0xd
 3568 0982 FE090000 		.4byte	.LASF194
 3569 0986 0B       		.byte	0xb
 3570 0987 6D       		.byte	0x6d
 3571 0988 E4000000 		.4byte	0xe4
 3572 098c 48       		.byte	0x48
 3573 098d 0D       		.uleb128 0xd
 3574 098e B2030000 		.4byte	.LASF195
 3575 0992 0B       		.byte	0xb
 3576 0993 6E       		.byte	0x6e
 3577 0994 EF000000 		.4byte	0xef
 3578 0998 4C       		.byte	0x4c
 3579 0999 0D       		.uleb128 0xd
 3580 099a D90D0000 		.4byte	.LASF196
 3581 099e 0B       		.byte	0xb
 3582 099f 6F       		.byte	0x6f
 3583 09a0 EF000000 		.4byte	0xef
 3584 09a4 50       		.byte	0x50
 3585 09a5 0D       		.uleb128 0xd
 3586 09a6 D5060000 		.4byte	.LASF197
 3587 09aa 0B       		.byte	0xb
 3588 09ab 70       		.byte	0x70
 3589 09ac EF000000 		.4byte	0xef
 3590 09b0 54       		.byte	0x54
 3591 09b1 0D       		.uleb128 0xd
ARM GAS  C:\Users\JENNEW~1\AppData\Local\Temp\ccW8Un4u.s 			page 71


 3592 09b2 040D0000 		.4byte	.LASF198
 3593 09b6 0B       		.byte	0xb
 3594 09b7 71       		.byte	0x71
 3595 09b8 EF000000 		.4byte	0xef
 3596 09bc 58       		.byte	0x58
 3597 09bd 00       		.byte	0
 3598 09be 06       		.uleb128 0x6
 3599 09bf 04       		.byte	0x4
 3600 09c0 7E070000 		.4byte	0x77e
 3601 09c4 02       		.uleb128 0x2
 3602 09c5 FD030000 		.4byte	.LASF199
 3603 09c9 0B       		.byte	0xb
 3604 09ca 74       		.byte	0x74
 3605 09cb 89080000 		.4byte	0x889
 3606 09cf 0B       		.uleb128 0xb
 3607 09d0 1C       		.byte	0x1c
 3608 09d1 0C       		.byte	0xc
 3609 09d2 1C       		.byte	0x1c
 3610 09d3 980A0000 		.4byte	0xa98
 3611 09d7 0D       		.uleb128 0xd
 3612 09d8 860B0000 		.4byte	.LASF200
 3613 09dc 0C       		.byte	0xc
 3614 09dd 1D       		.byte	0x1d
 3615 09de E4000000 		.4byte	0xe4
 3616 09e2 00       		.byte	0
 3617 09e3 0D       		.uleb128 0xd
 3618 09e4 40010000 		.4byte	.LASF176
 3619 09e8 0C       		.byte	0xc
 3620 09e9 1E       		.byte	0x1e
 3621 09ea B8000000 		.4byte	0xb8
 3622 09ee 04       		.byte	0x4
 3623 09ef 0D       		.uleb128 0xd
 3624 09f0 26080000 		.4byte	.LASF201
 3625 09f4 0C       		.byte	0xc
 3626 09f5 1F       		.byte	0x1f
 3627 09f6 B8000000 		.4byte	0xb8
 3628 09fa 05       		.byte	0x5
 3629 09fb 0D       		.uleb128 0xd
 3630 09fc 3F020000 		.4byte	.LASF202
 3631 0a00 0C       		.byte	0xc
 3632 0a01 20       		.byte	0x20
 3633 0a02 B8000000 		.4byte	0xb8
 3634 0a06 06       		.byte	0x6
 3635 0a07 0D       		.uleb128 0xd
 3636 0a08 9D010000 		.4byte	.LASF203
 3637 0a0c 0C       		.byte	0xc
 3638 0a0d 21       		.byte	0x21
 3639 0a0e B8000000 		.4byte	0xb8
 3640 0a12 07       		.byte	0x7
 3641 0a13 0D       		.uleb128 0xd
 3642 0a14 4A080000 		.4byte	.LASF37
 3643 0a18 0C       		.byte	0xc
 3644 0a19 22       		.byte	0x22
 3645 0a1a B8000000 		.4byte	0xb8
 3646 0a1e 08       		.byte	0x8
 3647 0a1f 0D       		.uleb128 0xd
 3648 0a20 C00C0000 		.4byte	.LASF38
ARM GAS  C:\Users\JENNEW~1\AppData\Local\Temp\ccW8Un4u.s 			page 72


 3649 0a24 0C       		.byte	0xc
 3650 0a25 23       		.byte	0x23
 3651 0a26 B8000000 		.4byte	0xb8
 3652 0a2a 09       		.byte	0x9
 3653 0a2b 0D       		.uleb128 0xd
 3654 0a2c 940E0000 		.4byte	.LASF204
 3655 0a30 0C       		.byte	0xc
 3656 0a31 24       		.byte	0x24
 3657 0a32 C3000000 		.4byte	0xc3
 3658 0a36 0A       		.byte	0xa
 3659 0a37 0D       		.uleb128 0xd
 3660 0a38 AA000000 		.4byte	.LASF205
 3661 0a3c 0C       		.byte	0xc
 3662 0a3d 25       		.byte	0x25
 3663 0a3e C3000000 		.4byte	0xc3
 3664 0a42 0C       		.byte	0xc
 3665 0a43 0D       		.uleb128 0xd
 3666 0a44 9C030000 		.4byte	.LASF206
 3667 0a48 0C       		.byte	0xc
 3668 0a49 26       		.byte	0x26
 3669 0a4a C3000000 		.4byte	0xc3
 3670 0a4e 0E       		.byte	0xe
 3671 0a4f 0D       		.uleb128 0xd
 3672 0a50 19000000 		.4byte	.LASF50
 3673 0a54 0C       		.byte	0xc
 3674 0a55 27       		.byte	0x27
 3675 0a56 B8000000 		.4byte	0xb8
 3676 0a5a 10       		.byte	0x10
 3677 0a5b 0D       		.uleb128 0xd
 3678 0a5c 22090000 		.4byte	.LASF51
 3679 0a60 0C       		.byte	0xc
 3680 0a61 28       		.byte	0x28
 3681 0a62 B8000000 		.4byte	0xb8
 3682 0a66 11       		.byte	0x11
 3683 0a67 0C       		.uleb128 0xc
 3684 0a68 715F6900 		.ascii	"q_i\000"
 3685 0a6c 0C       		.byte	0xc
 3686 0a6d 29       		.byte	0x29
 3687 0a6e C3000000 		.4byte	0xc3
 3688 0a72 12       		.byte	0x12
 3689 0a73 0C       		.uleb128 0xc
 3690 0a74 715F6A00 		.ascii	"q_j\000"
 3691 0a78 0C       		.byte	0xc
 3692 0a79 29       		.byte	0x29
 3693 0a7a C3000000 		.4byte	0xc3
 3694 0a7e 14       		.byte	0x14
 3695 0a7f 0C       		.uleb128 0xc
 3696 0a80 715F6B00 		.ascii	"q_k\000"
 3697 0a84 0C       		.byte	0xc
 3698 0a85 29       		.byte	0x29
 3699 0a86 C3000000 		.4byte	0xc3
 3700 0a8a 16       		.byte	0x16
 3701 0a8b 0C       		.uleb128 0xc
 3702 0a8c 715F7200 		.ascii	"q_r\000"
 3703 0a90 0C       		.byte	0xc
 3704 0a91 29       		.byte	0x29
 3705 0a92 C3000000 		.4byte	0xc3
ARM GAS  C:\Users\JENNEW~1\AppData\Local\Temp\ccW8Un4u.s 			page 73


 3706 0a96 18       		.byte	0x18
 3707 0a97 00       		.byte	0
 3708 0a98 02       		.uleb128 0x2
 3709 0a99 70010000 		.4byte	.LASF207
 3710 0a9d 0C       		.byte	0xc
 3711 0a9e 2A       		.byte	0x2a
 3712 0a9f CF090000 		.4byte	0x9cf
 3713 0aa3 0B       		.uleb128 0xb
 3714 0aa4 14       		.byte	0x14
 3715 0aa5 0C       		.byte	0xc
 3716 0aa6 2E       		.byte	0x2e
 3717 0aa7 F40A0000 		.4byte	0xaf4
 3718 0aab 0D       		.uleb128 0xd
 3719 0aac 860B0000 		.4byte	.LASF200
 3720 0ab0 0C       		.byte	0xc
 3721 0ab1 2F       		.byte	0x2f
 3722 0ab2 E4000000 		.4byte	0xe4
 3723 0ab6 00       		.byte	0
 3724 0ab7 0D       		.uleb128 0xd
 3725 0ab8 10000000 		.4byte	.LASF208
 3726 0abc 0C       		.byte	0xc
 3727 0abd 30       		.byte	0x30
 3728 0abe CE000000 		.4byte	0xce
 3729 0ac2 04       		.byte	0x4
 3730 0ac3 0D       		.uleb128 0xd
 3731 0ac4 86010000 		.4byte	.LASF209
 3732 0ac8 0C       		.byte	0xc
 3733 0ac9 31       		.byte	0x31
 3734 0aca CE000000 		.4byte	0xce
 3735 0ace 06       		.byte	0x6
 3736 0acf 0D       		.uleb128 0xd
 3737 0ad0 FB0B0000 		.4byte	.LASF210
 3738 0ad4 0C       		.byte	0xc
 3739 0ad5 32       		.byte	0x32
 3740 0ad6 CE000000 		.4byte	0xce
 3741 0ada 08       		.byte	0x8
 3742 0adb 0D       		.uleb128 0xd
 3743 0adc BA060000 		.4byte	.LASF211
 3744 0ae0 0C       		.byte	0xc
 3745 0ae1 33       		.byte	0x33
 3746 0ae2 E4000000 		.4byte	0xe4
 3747 0ae6 0C       		.byte	0xc
 3748 0ae7 0D       		.uleb128 0xd
 3749 0ae8 E0090000 		.4byte	.LASF212
 3750 0aec 0C       		.byte	0xc
 3751 0aed 34       		.byte	0x34
 3752 0aee CE000000 		.4byte	0xce
 3753 0af2 10       		.byte	0x10
 3754 0af3 00       		.byte	0
 3755 0af4 02       		.uleb128 0x2
 3756 0af5 3D090000 		.4byte	.LASF213
 3757 0af9 0C       		.byte	0xc
 3758 0afa 35       		.byte	0x35
 3759 0afb A30A0000 		.4byte	0xaa3
 3760 0aff 0B       		.uleb128 0xb
 3761 0b00 10       		.byte	0x10
 3762 0b01 0C       		.byte	0xc
ARM GAS  C:\Users\JENNEW~1\AppData\Local\Temp\ccW8Un4u.s 			page 74


 3763 0b02 39       		.byte	0x39
 3764 0b03 5C0B0000 		.4byte	0xb5c
 3765 0b07 0D       		.uleb128 0xd
 3766 0b08 860B0000 		.4byte	.LASF200
 3767 0b0c 0C       		.byte	0xc
 3768 0b0d 3A       		.byte	0x3a
 3769 0b0e E4000000 		.4byte	0xe4
 3770 0b12 00       		.byte	0
 3771 0b13 0D       		.uleb128 0xd
 3772 0b14 290C0000 		.4byte	.LASF214
 3773 0b18 0C       		.byte	0xc
 3774 0b19 3B       		.byte	0x3b
 3775 0b1a CE000000 		.4byte	0xce
 3776 0b1e 04       		.byte	0x4
 3777 0b1f 0D       		.uleb128 0xd
 3778 0b20 4D050000 		.4byte	.LASF215
 3779 0b24 0C       		.byte	0xc
 3780 0b25 3C       		.byte	0x3c
 3781 0b26 CE000000 		.4byte	0xce
 3782 0b2a 06       		.byte	0x6
 3783 0b2b 0D       		.uleb128 0xd
 3784 0b2c DC020000 		.4byte	.LASF216
 3785 0b30 0C       		.byte	0xc
 3786 0b31 3D       		.byte	0x3d
 3787 0b32 CE000000 		.4byte	0xce
 3788 0b36 08       		.byte	0x8
 3789 0b37 0D       		.uleb128 0xd
 3790 0b38 A7090000 		.4byte	.LASF217
 3791 0b3c 0C       		.byte	0xc
 3792 0b3d 3E       		.byte	0x3e
 3793 0b3e C3000000 		.4byte	0xc3
 3794 0b42 0A       		.byte	0xa
 3795 0b43 0D       		.uleb128 0xd
 3796 0b44 920D0000 		.4byte	.LASF92
 3797 0b48 0C       		.byte	0xc
 3798 0b49 3F       		.byte	0x3f
 3799 0b4a B8000000 		.4byte	0xb8
 3800 0b4e 0C       		.byte	0xc
 3801 0b4f 0D       		.uleb128 0xd
 3802 0b50 62020000 		.4byte	.LASF218
 3803 0b54 0C       		.byte	0xc
 3804 0b55 40       		.byte	0x40
 3805 0b56 AD000000 		.4byte	0xad
 3806 0b5a 0D       		.byte	0xd
 3807 0b5b 00       		.byte	0
 3808 0b5c 02       		.uleb128 0x2
 3809 0b5d E9040000 		.4byte	.LASF219
 3810 0b61 0C       		.byte	0xc
 3811 0b62 41       		.byte	0x41
 3812 0b63 FF0A0000 		.4byte	0xaff
 3813 0b67 0B       		.uleb128 0xb
 3814 0b68 0C       		.byte	0xc
 3815 0b69 0C       		.byte	0xc
 3816 0b6a 44       		.byte	0x44
 3817 0b6b 940B0000 		.4byte	0xb94
 3818 0b6f 0D       		.uleb128 0xd
 3819 0b70 860B0000 		.4byte	.LASF200
ARM GAS  C:\Users\JENNEW~1\AppData\Local\Temp\ccW8Un4u.s 			page 75


 3820 0b74 0C       		.byte	0xc
 3821 0b75 45       		.byte	0x45
 3822 0b76 E4000000 		.4byte	0xe4
 3823 0b7a 00       		.byte	0
 3824 0b7b 0D       		.uleb128 0xd
 3825 0b7c 180C0000 		.4byte	.LASF220
 3826 0b80 0C       		.byte	0xc
 3827 0b81 46       		.byte	0x46
 3828 0b82 C3000000 		.4byte	0xc3
 3829 0b86 04       		.byte	0x4
 3830 0b87 0D       		.uleb128 0xd
 3831 0b88 96090000 		.4byte	.LASF221
 3832 0b8c 0C       		.byte	0xc
 3833 0b8d 47       		.byte	0x47
 3834 0b8e E4000000 		.4byte	0xe4
 3835 0b92 08       		.byte	0x8
 3836 0b93 00       		.byte	0
 3837 0b94 02       		.uleb128 0x2
 3838 0b95 110D0000 		.4byte	.LASF222
 3839 0b99 0C       		.byte	0xc
 3840 0b9a 48       		.byte	0x48
 3841 0b9b 670B0000 		.4byte	0xb67
 3842 0b9f 0B       		.uleb128 0xb
 3843 0ba0 20       		.byte	0x20
 3844 0ba1 0C       		.byte	0xc
 3845 0ba2 4A       		.byte	0x4a
 3846 0ba3 2C0C0000 		.4byte	0xc2c
 3847 0ba7 0D       		.uleb128 0xd
 3848 0ba8 860B0000 		.4byte	.LASF200
 3849 0bac 0C       		.byte	0xc
 3850 0bad 4B       		.byte	0x4b
 3851 0bae E4000000 		.4byte	0xe4
 3852 0bb2 00       		.byte	0
 3853 0bb3 0D       		.uleb128 0xd
 3854 0bb4 64040000 		.4byte	.LASF223
 3855 0bb8 0C       		.byte	0xc
 3856 0bb9 4C       		.byte	0x4c
 3857 0bba B8000000 		.4byte	0xb8
 3858 0bbe 04       		.byte	0x4
 3859 0bbf 0D       		.uleb128 0xd
 3860 0bc0 F20C0000 		.4byte	.LASF224
 3861 0bc4 0C       		.byte	0xc
 3862 0bc5 4D       		.byte	0x4d
 3863 0bc6 B8000000 		.4byte	0xb8
 3864 0bca 05       		.byte	0x5
 3865 0bcb 0D       		.uleb128 0xd
 3866 0bcc 6B000000 		.4byte	.LASF225
 3867 0bd0 0C       		.byte	0xc
 3868 0bd1 4E       		.byte	0x4e
 3869 0bd2 D9000000 		.4byte	0xd9
 3870 0bd6 08       		.byte	0x8
 3871 0bd7 0D       		.uleb128 0xd
 3872 0bd8 B0070000 		.4byte	.LASF226
 3873 0bdc 0C       		.byte	0xc
 3874 0bdd 4F       		.byte	0x4f
 3875 0bde D9000000 		.4byte	0xd9
 3876 0be2 0C       		.byte	0xc
ARM GAS  C:\Users\JENNEW~1\AppData\Local\Temp\ccW8Un4u.s 			page 76


 3877 0be3 0D       		.uleb128 0xd
 3878 0be4 430C0000 		.4byte	.LASF227
 3879 0be8 0C       		.byte	0xc
 3880 0be9 50       		.byte	0x50
 3881 0bea D9000000 		.4byte	0xd9
 3882 0bee 10       		.byte	0x10
 3883 0bef 0D       		.uleb128 0xd
 3884 0bf0 4B0D0000 		.4byte	.LASF228
 3885 0bf4 0C       		.byte	0xc
 3886 0bf5 51       		.byte	0x51
 3887 0bf6 C3000000 		.4byte	0xc3
 3888 0bfa 14       		.byte	0x14
 3889 0bfb 0D       		.uleb128 0xd
 3890 0bfc 8C040000 		.4byte	.LASF229
 3891 0c00 0C       		.byte	0xc
 3892 0c01 52       		.byte	0x52
 3893 0c02 C3000000 		.4byte	0xc3
 3894 0c06 16       		.byte	0x16
 3895 0c07 0D       		.uleb128 0xd
 3896 0c08 6B060000 		.4byte	.LASF230
 3897 0c0c 0C       		.byte	0xc
 3898 0c0d 53       		.byte	0x53
 3899 0c0e CE000000 		.4byte	0xce
 3900 0c12 18       		.byte	0x18
 3901 0c13 0D       		.uleb128 0xd
 3902 0c14 3E0C0000 		.4byte	.LASF231
 3903 0c18 0C       		.byte	0xc
 3904 0c19 54       		.byte	0x54
 3905 0c1a CE000000 		.4byte	0xce
 3906 0c1e 1A       		.byte	0x1a
 3907 0c1f 0D       		.uleb128 0xd
 3908 0c20 94040000 		.4byte	.LASF232
 3909 0c24 0C       		.byte	0xc
 3910 0c25 55       		.byte	0x55
 3911 0c26 CE000000 		.4byte	0xce
 3912 0c2a 1C       		.byte	0x1c
 3913 0c2b 00       		.byte	0
 3914 0c2c 02       		.uleb128 0x2
 3915 0c2d 880E0000 		.4byte	.LASF233
 3916 0c31 0C       		.byte	0xc
 3917 0c32 56       		.byte	0x56
 3918 0c33 9F0B0000 		.4byte	0xb9f
 3919 0c37 0B       		.uleb128 0xb
 3920 0c38 10       		.byte	0x10
 3921 0c39 0C       		.byte	0xc
 3922 0c3a 59       		.byte	0x59
 3923 0c3b 700C0000 		.4byte	0xc70
 3924 0c3f 0D       		.uleb128 0xd
 3925 0c40 860B0000 		.4byte	.LASF200
 3926 0c44 0C       		.byte	0xc
 3927 0c45 5A       		.byte	0x5a
 3928 0c46 E4000000 		.4byte	0xe4
 3929 0c4a 00       		.byte	0
 3930 0c4b 0D       		.uleb128 0xd
 3931 0c4c 64040000 		.4byte	.LASF223
 3932 0c50 0C       		.byte	0xc
 3933 0c51 5B       		.byte	0x5b
ARM GAS  C:\Users\JENNEW~1\AppData\Local\Temp\ccW8Un4u.s 			page 77


 3934 0c52 B8000000 		.4byte	0xb8
 3935 0c56 04       		.byte	0x4
 3936 0c57 0D       		.uleb128 0xd
 3937 0c58 70060000 		.4byte	.LASF234
 3938 0c5c 0C       		.byte	0xc
 3939 0c5d 5C       		.byte	0x5c
 3940 0c5e D9000000 		.4byte	0xd9
 3941 0c62 08       		.byte	0x8
 3942 0c63 0D       		.uleb128 0xd
 3943 0c64 7C090000 		.4byte	.LASF235
 3944 0c68 0C       		.byte	0xc
 3945 0c69 5D       		.byte	0x5d
 3946 0c6a C3000000 		.4byte	0xc3
 3947 0c6e 0C       		.byte	0xc
 3948 0c6f 00       		.byte	0
 3949 0c70 02       		.uleb128 0x2
 3950 0c71 B3080000 		.4byte	.LASF236
 3951 0c75 0C       		.byte	0xc
 3952 0c76 5E       		.byte	0x5e
 3953 0c77 370C0000 		.4byte	0xc37
 3954 0c7b 0B       		.uleb128 0xb
 3955 0c7c 10       		.byte	0x10
 3956 0c7d 0C       		.byte	0xc
 3957 0c7e 60       		.byte	0x60
 3958 0c7f CC0C0000 		.4byte	0xccc
 3959 0c83 0D       		.uleb128 0xd
 3960 0c84 860B0000 		.4byte	.LASF200
 3961 0c88 0C       		.byte	0xc
 3962 0c89 61       		.byte	0x61
 3963 0c8a E4000000 		.4byte	0xe4
 3964 0c8e 00       		.byte	0
 3965 0c8f 0D       		.uleb128 0xd
 3966 0c90 64040000 		.4byte	.LASF223
 3967 0c94 0C       		.byte	0xc
 3968 0c95 62       		.byte	0x62
 3969 0c96 B8000000 		.4byte	0xb8
 3970 0c9a 04       		.byte	0x4
 3971 0c9b 0D       		.uleb128 0xd
 3972 0c9c 34080000 		.4byte	.LASF237
 3973 0ca0 0C       		.byte	0xc
 3974 0ca1 63       		.byte	0x63
 3975 0ca2 C3000000 		.4byte	0xc3
 3976 0ca6 06       		.byte	0x6
 3977 0ca7 0D       		.uleb128 0xd
 3978 0ca8 FC0A0000 		.4byte	.LASF238
 3979 0cac 0C       		.byte	0xc
 3980 0cad 64       		.byte	0x64
 3981 0cae C3000000 		.4byte	0xc3
 3982 0cb2 08       		.byte	0x8
 3983 0cb3 0D       		.uleb128 0xd
 3984 0cb4 D6020000 		.4byte	.LASF239
 3985 0cb8 0C       		.byte	0xc
 3986 0cb9 65       		.byte	0x65
 3987 0cba C3000000 		.4byte	0xc3
 3988 0cbe 0A       		.byte	0xa
 3989 0cbf 0D       		.uleb128 0xd
 3990 0cc0 4A090000 		.4byte	.LASF240
ARM GAS  C:\Users\JENNEW~1\AppData\Local\Temp\ccW8Un4u.s 			page 78


 3991 0cc4 0C       		.byte	0xc
 3992 0cc5 66       		.byte	0x66
 3993 0cc6 C3000000 		.4byte	0xc3
 3994 0cca 0C       		.byte	0xc
 3995 0ccb 00       		.byte	0
 3996 0ccc 02       		.uleb128 0x2
 3997 0ccd 2A010000 		.4byte	.LASF241
 3998 0cd1 0C       		.byte	0xc
 3999 0cd2 67       		.byte	0x67
 4000 0cd3 7B0C0000 		.4byte	0xc7b
 4001 0cd7 15       		.uleb128 0x15
 4002 0cd8 0C       		.byte	0xc
 4003 0cd9 01       		.byte	0x1
 4004 0cda 5801     		.2byte	0x158
 4005 0cdc 080D0000 		.4byte	0xd08
 4006 0ce0 16       		.uleb128 0x16
 4007 0ce1 C50C0000 		.4byte	.LASF242
 4008 0ce5 01       		.byte	0x1
 4009 0ce6 5901     		.2byte	0x159
 4010 0ce8 CE000000 		.4byte	0xce
 4011 0cec 00       		.byte	0
 4012 0ced 16       		.uleb128 0x16
 4013 0cee B10D0000 		.4byte	.LASF243
 4014 0cf2 01       		.byte	0x1
 4015 0cf3 5A01     		.2byte	0x15a
 4016 0cf5 E4000000 		.4byte	0xe4
 4017 0cf9 04       		.byte	0x4
 4018 0cfa 16       		.uleb128 0x16
 4019 0cfb 9A000000 		.4byte	.LASF244
 4020 0cff 01       		.byte	0x1
 4021 0d00 5B01     		.2byte	0x15b
 4022 0d02 E4000000 		.4byte	0xe4
 4023 0d06 08       		.byte	0x8
 4024 0d07 00       		.byte	0
 4025 0d08 17       		.uleb128 0x17
 4026 0d09 F70C0000 		.4byte	.LASF245
 4027 0d0d 01       		.byte	0x1
 4028 0d0e 5C01     		.2byte	0x15c
 4029 0d10 D70C0000 		.4byte	0xcd7
 4030 0d14 18       		.uleb128 0x18
 4031 0d15 B3040000 		.4byte	.LASF246
 4032 0d19 01       		.byte	0x1
 4033 0d1a 1E       		.byte	0x1e
 4034 0d1b C3000000 		.4byte	0xc3
 4035 0d1f 00000000 		.4byte	.LFB63
 4036 0d23 4C000000 		.4byte	.LFE63-.LFB63
 4037 0d27 01       		.uleb128 0x1
 4038 0d28 9C       		.byte	0x9c
 4039 0d29 3A0D0000 		.4byte	0xd3a
 4040 0d2d 19       		.uleb128 0x19
 4041 0d2e 6600     		.ascii	"f\000"
 4042 0d30 01       		.byte	0x1
 4043 0d31 1E       		.byte	0x1e
 4044 0d32 EF000000 		.4byte	0xef
 4045 0d36 02       		.uleb128 0x2
 4046 0d37 91       		.byte	0x91
 4047 0d38 74       		.sleb128 -12
ARM GAS  C:\Users\JENNEW~1\AppData\Local\Temp\ccW8Un4u.s 			page 79


 4048 0d39 00       		.byte	0
 4049 0d3a 18       		.uleb128 0x18
 4050 0d3b E40B0000 		.4byte	.LASF247
 4051 0d3f 01       		.byte	0x1
 4052 0d40 25       		.byte	0x25
 4053 0d41 E4000000 		.4byte	0xe4
 4054 0d45 00000000 		.4byte	.LFB64
 4055 0d49 42000000 		.4byte	.LFE64-.LFB64
 4056 0d4d 01       		.uleb128 0x1
 4057 0d4e 9C       		.byte	0x9c
 4058 0d4f 600D0000 		.4byte	0xd60
 4059 0d53 19       		.uleb128 0x19
 4060 0d54 6600     		.ascii	"f\000"
 4061 0d56 01       		.byte	0x1
 4062 0d57 25       		.byte	0x25
 4063 0d58 EF000000 		.4byte	0xef
 4064 0d5c 02       		.uleb128 0x2
 4065 0d5d 91       		.byte	0x91
 4066 0d5e 74       		.sleb128 -12
 4067 0d5f 00       		.byte	0
 4068 0d60 18       		.uleb128 0x18
 4069 0d61 4C0B0000 		.4byte	.LASF248
 4070 0d65 01       		.byte	0x1
 4071 0d66 2B       		.byte	0x2b
 4072 0d67 CE000000 		.4byte	0xce
 4073 0d6b 00000000 		.4byte	.LFB65
 4074 0d6f 48000000 		.4byte	.LFE65-.LFB65
 4075 0d73 01       		.uleb128 0x1
 4076 0d74 9C       		.byte	0x9c
 4077 0d75 860D0000 		.4byte	0xd86
 4078 0d79 19       		.uleb128 0x19
 4079 0d7a 6600     		.ascii	"f\000"
 4080 0d7c 01       		.byte	0x1
 4081 0d7d 2B       		.byte	0x2b
 4082 0d7e EF000000 		.4byte	0xef
 4083 0d82 02       		.uleb128 0x2
 4084 0d83 91       		.byte	0x91
 4085 0d84 74       		.sleb128 -12
 4086 0d85 00       		.byte	0
 4087 0d86 1A       		.uleb128 0x1a
 4088 0d87 47030000 		.4byte	.LASF249
 4089 0d8b 01       		.byte	0x1
 4090 0d8c 33       		.byte	0x33
 4091 0d8d 00000000 		.4byte	.LFB66
 4092 0d91 64010000 		.4byte	.LFE66-.LFB66
 4093 0d95 01       		.uleb128 0x1
 4094 0d96 9C       		.byte	0x9c
 4095 0d97 D70D0000 		.4byte	0xdd7
 4096 0d9b 19       		.uleb128 0x19
 4097 0d9c 63747800 		.ascii	"ctx\000"
 4098 0da0 01       		.byte	0x1
 4099 0da1 33       		.byte	0x33
 4100 0da2 D70D0000 		.4byte	0xdd7
 4101 0da6 03       		.uleb128 0x3
 4102 0da7 91       		.byte	0x91
 4103 0da8 847E     		.sleb128 -252
 4104 0daa 19       		.uleb128 0x19
ARM GAS  C:\Users\JENNEW~1\AppData\Local\Temp\ccW8Un4u.s 			page 80


 4105 0dab 6F757400 		.ascii	"out\000"
 4106 0daf 01       		.byte	0x1
 4107 0db0 33       		.byte	0x33
 4108 0db1 E20D0000 		.4byte	0xde2
 4109 0db5 03       		.uleb128 0x3
 4110 0db6 91       		.byte	0x91
 4111 0db7 807E     		.sleb128 -256
 4112 0db9 1B       		.uleb128 0x1b
 4113 0dba 63746C00 		.ascii	"ctl\000"
 4114 0dbe 01       		.byte	0x1
 4115 0dbf 3B       		.byte	0x3b
 4116 0dc0 E80D0000 		.4byte	0xde8
 4117 0dc4 02       		.uleb128 0x2
 4118 0dc5 91       		.byte	0x91
 4119 0dc6 74       		.sleb128 -12
 4120 0dc7 1B       		.uleb128 0x1b
 4121 0dc8 74656C00 		.ascii	"tel\000"
 4122 0dcc 01       		.byte	0x1
 4123 0dcd 45       		.byte	0x45
 4124 0dce B0050000 		.4byte	0x5b0
 4125 0dd2 03       		.uleb128 0x3
 4126 0dd3 91       		.byte	0x91
 4127 0dd4 887E     		.sleb128 -248
 4128 0dd6 00       		.byte	0
 4129 0dd7 06       		.uleb128 0x6
 4130 0dd8 04       		.byte	0x4
 4131 0dd9 DD0D0000 		.4byte	0xddd
 4132 0ddd 07       		.uleb128 0x7
 4133 0dde C4090000 		.4byte	0x9c4
 4134 0de2 06       		.uleb128 0x6
 4135 0de3 04       		.byte	0x4
 4136 0de4 980A0000 		.4byte	0xa98
 4137 0de8 06       		.uleb128 0x6
 4138 0de9 04       		.byte	0x4
 4139 0dea EE0D0000 		.4byte	0xdee
 4140 0dee 07       		.uleb128 0x7
 4141 0def D2010000 		.4byte	0x1d2
 4142 0df3 1A       		.uleb128 0x1a
 4143 0df4 980C0000 		.4byte	.LASF250
 4144 0df8 01       		.byte	0x1
 4145 0df9 50       		.byte	0x50
 4146 0dfa 00000000 		.4byte	.LFB67
 4147 0dfe 64000000 		.4byte	.LFE67-.LFB67
 4148 0e02 01       		.uleb128 0x1
 4149 0e03 9C       		.byte	0x9c
 4150 0e04 250E0000 		.4byte	0xe25
 4151 0e08 19       		.uleb128 0x19
 4152 0e09 63747800 		.ascii	"ctx\000"
 4153 0e0d 01       		.byte	0x1
 4154 0e0e 50       		.byte	0x50
 4155 0e0f D70D0000 		.4byte	0xdd7
 4156 0e13 02       		.uleb128 0x2
 4157 0e14 91       		.byte	0x91
 4158 0e15 74       		.sleb128 -12
 4159 0e16 19       		.uleb128 0x19
 4160 0e17 6F757400 		.ascii	"out\000"
 4161 0e1b 01       		.byte	0x1
ARM GAS  C:\Users\JENNEW~1\AppData\Local\Temp\ccW8Un4u.s 			page 81


 4162 0e1c 50       		.byte	0x50
 4163 0e1d 250E0000 		.4byte	0xe25
 4164 0e21 02       		.uleb128 0x2
 4165 0e22 91       		.byte	0x91
 4166 0e23 70       		.sleb128 -16
 4167 0e24 00       		.byte	0
 4168 0e25 06       		.uleb128 0x6
 4169 0e26 04       		.byte	0x4
 4170 0e27 F40A0000 		.4byte	0xaf4
 4171 0e2b 1A       		.uleb128 0x1a
 4172 0e2c E3000000 		.4byte	.LASF251
 4173 0e30 01       		.byte	0x1
 4174 0e31 5B       		.byte	0x5b
 4175 0e32 00000000 		.4byte	.LFB68
 4176 0e36 C0000000 		.4byte	.LFE68-.LFB68
 4177 0e3a 01       		.uleb128 0x1
 4178 0e3b 9C       		.byte	0x9c
 4179 0e3c 6E0E0000 		.4byte	0xe6e
 4180 0e40 19       		.uleb128 0x19
 4181 0e41 63747800 		.ascii	"ctx\000"
 4182 0e45 01       		.byte	0x1
 4183 0e46 5B       		.byte	0x5b
 4184 0e47 D70D0000 		.4byte	0xdd7
 4185 0e4b 03       		.uleb128 0x3
 4186 0e4c 91       		.byte	0x91
 4187 0e4d 847E     		.sleb128 -252
 4188 0e4f 19       		.uleb128 0x19
 4189 0e50 6F757400 		.ascii	"out\000"
 4190 0e54 01       		.byte	0x1
 4191 0e55 5B       		.byte	0x5b
 4192 0e56 6E0E0000 		.4byte	0xe6e
 4193 0e5a 03       		.uleb128 0x3
 4194 0e5b 91       		.byte	0x91
 4195 0e5c 807E     		.sleb128 -256
 4196 0e5e 1B       		.uleb128 0x1b
 4197 0e5f 74656C00 		.ascii	"tel\000"
 4198 0e63 01       		.byte	0x1
 4199 0e64 61       		.byte	0x61
 4200 0e65 B0050000 		.4byte	0x5b0
 4201 0e69 03       		.uleb128 0x3
 4202 0e6a 91       		.byte	0x91
 4203 0e6b 8C7E     		.sleb128 -244
 4204 0e6d 00       		.byte	0
 4205 0e6e 06       		.uleb128 0x6
 4206 0e6f 04       		.byte	0x4
 4207 0e70 5C0B0000 		.4byte	0xb5c
 4208 0e74 1A       		.uleb128 0x1a
 4209 0e75 EC080000 		.4byte	.LASF252
 4210 0e79 01       		.byte	0x1
 4211 0e7a 6E       		.byte	0x6e
 4212 0e7b 00000000 		.4byte	.LFB69
 4213 0e7f 80000000 		.4byte	.LFE69-.LFB69
 4214 0e83 01       		.uleb128 0x1
 4215 0e84 9C       		.byte	0x9c
 4216 0e85 B70E0000 		.4byte	0xeb7
 4217 0e89 19       		.uleb128 0x19
 4218 0e8a 63747800 		.ascii	"ctx\000"
ARM GAS  C:\Users\JENNEW~1\AppData\Local\Temp\ccW8Un4u.s 			page 82


 4219 0e8e 01       		.byte	0x1
 4220 0e8f 6E       		.byte	0x6e
 4221 0e90 D70D0000 		.4byte	0xdd7
 4222 0e94 03       		.uleb128 0x3
 4223 0e95 91       		.byte	0x91
 4224 0e96 847E     		.sleb128 -252
 4225 0e98 19       		.uleb128 0x19
 4226 0e99 6F757400 		.ascii	"out\000"
 4227 0e9d 01       		.byte	0x1
 4228 0e9e 6E       		.byte	0x6e
 4229 0e9f B70E0000 		.4byte	0xeb7
 4230 0ea3 03       		.uleb128 0x3
 4231 0ea4 91       		.byte	0x91
 4232 0ea5 807E     		.sleb128 -256
 4233 0ea7 1B       		.uleb128 0x1b
 4234 0ea8 74656C00 		.ascii	"tel\000"
 4235 0eac 01       		.byte	0x1
 4236 0ead 74       		.byte	0x74
 4237 0eae B0050000 		.4byte	0x5b0
 4238 0eb2 03       		.uleb128 0x3
 4239 0eb3 91       		.byte	0x91
 4240 0eb4 8C7E     		.sleb128 -244
 4241 0eb6 00       		.byte	0
 4242 0eb7 06       		.uleb128 0x6
 4243 0eb8 04       		.byte	0x4
 4244 0eb9 940B0000 		.4byte	0xb94
 4245 0ebd 1A       		.uleb128 0x1a
 4246 0ebe B5000000 		.4byte	.LASF253
 4247 0ec2 01       		.byte	0x1
 4248 0ec3 7B       		.byte	0x7b
 4249 0ec4 00000000 		.4byte	.LFB70
 4250 0ec8 A8000000 		.4byte	.LFE70-.LFB70
 4251 0ecc 01       		.uleb128 0x1
 4252 0ecd 9C       		.byte	0x9c
 4253 0ece 000F0000 		.4byte	0xf00
 4254 0ed2 19       		.uleb128 0x19
 4255 0ed3 63747800 		.ascii	"ctx\000"
 4256 0ed7 01       		.byte	0x1
 4257 0ed8 7B       		.byte	0x7b
 4258 0ed9 D70D0000 		.4byte	0xdd7
 4259 0edd 03       		.uleb128 0x3
 4260 0ede 91       		.byte	0x91
 4261 0edf 847E     		.sleb128 -252
 4262 0ee1 19       		.uleb128 0x19
 4263 0ee2 6F757400 		.ascii	"out\000"
 4264 0ee6 01       		.byte	0x1
 4265 0ee7 7B       		.byte	0x7b
 4266 0ee8 000F0000 		.4byte	0xf00
 4267 0eec 03       		.uleb128 0x3
 4268 0eed 91       		.byte	0x91
 4269 0eee 807E     		.sleb128 -256
 4270 0ef0 1B       		.uleb128 0x1b
 4271 0ef1 74656C00 		.ascii	"tel\000"
 4272 0ef5 01       		.byte	0x1
 4273 0ef6 81       		.byte	0x81
 4274 0ef7 B0050000 		.4byte	0x5b0
 4275 0efb 03       		.uleb128 0x3
ARM GAS  C:\Users\JENNEW~1\AppData\Local\Temp\ccW8Un4u.s 			page 83


 4276 0efc 91       		.byte	0x91
 4277 0efd 8C7E     		.sleb128 -244
 4278 0eff 00       		.byte	0
 4279 0f00 06       		.uleb128 0x6
 4280 0f01 04       		.byte	0x4
 4281 0f02 2C0C0000 		.4byte	0xc2c
 4282 0f06 1A       		.uleb128 0x1a
 4283 0f07 D2040000 		.4byte	.LASF254
 4284 0f0b 01       		.byte	0x1
 4285 0f0c 91       		.byte	0x91
 4286 0f0d 00000000 		.4byte	.LFB71
 4287 0f11 90000000 		.4byte	.LFE71-.LFB71
 4288 0f15 01       		.uleb128 0x1
 4289 0f16 9C       		.byte	0x9c
 4290 0f17 490F0000 		.4byte	0xf49
 4291 0f1b 19       		.uleb128 0x19
 4292 0f1c 63747800 		.ascii	"ctx\000"
 4293 0f20 01       		.byte	0x1
 4294 0f21 91       		.byte	0x91
 4295 0f22 D70D0000 		.4byte	0xdd7
 4296 0f26 03       		.uleb128 0x3
 4297 0f27 91       		.byte	0x91
 4298 0f28 847E     		.sleb128 -252
 4299 0f2a 19       		.uleb128 0x19
 4300 0f2b 6F757400 		.ascii	"out\000"
 4301 0f2f 01       		.byte	0x1
 4302 0f30 91       		.byte	0x91
 4303 0f31 490F0000 		.4byte	0xf49
 4304 0f35 03       		.uleb128 0x3
 4305 0f36 91       		.byte	0x91
 4306 0f37 807E     		.sleb128 -256
 4307 0f39 1B       		.uleb128 0x1b
 4308 0f3a 74656C00 		.ascii	"tel\000"
 4309 0f3e 01       		.byte	0x1
 4310 0f3f 97       		.byte	0x97
 4311 0f40 B0050000 		.4byte	0x5b0
 4312 0f44 03       		.uleb128 0x3
 4313 0f45 91       		.byte	0x91
 4314 0f46 8C7E     		.sleb128 -244
 4315 0f48 00       		.byte	0
 4316 0f49 06       		.uleb128 0x6
 4317 0f4a 04       		.byte	0x4
 4318 0f4b 700C0000 		.4byte	0xc70
 4319 0f4f 1A       		.uleb128 0x1a
 4320 0f50 960B0000 		.4byte	.LASF255
 4321 0f54 01       		.byte	0x1
 4322 0f55 9F       		.byte	0x9f
 4323 0f56 00000000 		.4byte	.LFB72
 4324 0f5a CC000000 		.4byte	.LFE72-.LFB72
 4325 0f5e 01       		.uleb128 0x1
 4326 0f5f 9C       		.byte	0x9c
 4327 0f60 920F0000 		.4byte	0xf92
 4328 0f64 19       		.uleb128 0x19
 4329 0f65 63747800 		.ascii	"ctx\000"
 4330 0f69 01       		.byte	0x1
 4331 0f6a 9F       		.byte	0x9f
 4332 0f6b D70D0000 		.4byte	0xdd7
ARM GAS  C:\Users\JENNEW~1\AppData\Local\Temp\ccW8Un4u.s 			page 84


 4333 0f6f 03       		.uleb128 0x3
 4334 0f70 91       		.byte	0x91
 4335 0f71 847E     		.sleb128 -252
 4336 0f73 19       		.uleb128 0x19
 4337 0f74 6F757400 		.ascii	"out\000"
 4338 0f78 01       		.byte	0x1
 4339 0f79 9F       		.byte	0x9f
 4340 0f7a 920F0000 		.4byte	0xf92
 4341 0f7e 03       		.uleb128 0x3
 4342 0f7f 91       		.byte	0x91
 4343 0f80 807E     		.sleb128 -256
 4344 0f82 1B       		.uleb128 0x1b
 4345 0f83 74656C00 		.ascii	"tel\000"
 4346 0f87 01       		.byte	0x1
 4347 0f88 A5       		.byte	0xa5
 4348 0f89 B0050000 		.4byte	0x5b0
 4349 0f8d 03       		.uleb128 0x3
 4350 0f8e 91       		.byte	0x91
 4351 0f8f 8C7E     		.sleb128 -244
 4352 0f91 00       		.byte	0
 4353 0f92 06       		.uleb128 0x6
 4354 0f93 04       		.byte	0x4
 4355 0f94 CC0C0000 		.4byte	0xccc
 4356 0f98 18       		.uleb128 0x18
 4357 0f99 8B0B0000 		.4byte	.LASF256
 4358 0f9d 01       		.byte	0x1
 4359 0f9e B8       		.byte	0xb8
 4360 0f9f B8000000 		.4byte	0xb8
 4361 0fa3 00000000 		.4byte	.LFB73
 4362 0fa7 1C010000 		.4byte	.LFE73-.LFB73
 4363 0fab 01       		.uleb128 0x1
 4364 0fac 9C       		.byte	0x9c
 4365 0fad D80F0000 		.4byte	0xfd8
 4366 0fb1 19       		.uleb128 0x19
 4367 0fb2 6800     		.ascii	"h\000"
 4368 0fb4 01       		.byte	0x1
 4369 0fb5 B8       		.byte	0xb8
 4370 0fb6 D80F0000 		.4byte	0xfd8
 4371 0fba 02       		.uleb128 0x2
 4372 0fbb 91       		.byte	0x91
 4373 0fbc 6C       		.sleb128 -20
 4374 0fbd 19       		.uleb128 0x19
 4375 0fbe 62756600 		.ascii	"buf\000"
 4376 0fc2 01       		.byte	0x1
 4377 0fc3 B8       		.byte	0xb8
 4378 0fc4 E30F0000 		.4byte	0xfe3
 4379 0fc8 02       		.uleb128 0x2
 4380 0fc9 91       		.byte	0x91
 4381 0fca 68       		.sleb128 -24
 4382 0fcb 1B       		.uleb128 0x1b
 4383 0fcc 7000     		.ascii	"p\000"
 4384 0fce 01       		.byte	0x1
 4385 0fcf BA       		.byte	0xba
 4386 0fd0 E30F0000 		.4byte	0xfe3
 4387 0fd4 02       		.uleb128 0x2
 4388 0fd5 91       		.byte	0x91
 4389 0fd6 74       		.sleb128 -12
ARM GAS  C:\Users\JENNEW~1\AppData\Local\Temp\ccW8Un4u.s 			page 85


 4390 0fd7 00       		.byte	0
 4391 0fd8 06       		.uleb128 0x6
 4392 0fd9 04       		.byte	0x4
 4393 0fda DE0F0000 		.4byte	0xfde
 4394 0fde 07       		.uleb128 0x7
 4395 0fdf 980A0000 		.4byte	0xa98
 4396 0fe3 06       		.uleb128 0x6
 4397 0fe4 04       		.byte	0x4
 4398 0fe5 B8000000 		.4byte	0xb8
 4399 0fe9 18       		.uleb128 0x18
 4400 0fea 4D000000 		.4byte	.LASF257
 4401 0fee 01       		.byte	0x1
 4402 0fef CE       		.byte	0xce
 4403 0ff0 B8000000 		.4byte	0xb8
 4404 0ff4 00000000 		.4byte	.LFB74
 4405 0ff8 94000000 		.4byte	.LFE74-.LFB74
 4406 0ffc 01       		.uleb128 0x1
 4407 0ffd 9C       		.byte	0x9c
 4408 0ffe 29100000 		.4byte	0x1029
 4409 1002 19       		.uleb128 0x19
 4410 1003 6C00     		.ascii	"l\000"
 4411 1005 01       		.byte	0x1
 4412 1006 CE       		.byte	0xce
 4413 1007 29100000 		.4byte	0x1029
 4414 100b 02       		.uleb128 0x2
 4415 100c 91       		.byte	0x91
 4416 100d 6C       		.sleb128 -20
 4417 100e 19       		.uleb128 0x19
 4418 100f 62756600 		.ascii	"buf\000"
 4419 1013 01       		.byte	0x1
 4420 1014 CE       		.byte	0xce
 4421 1015 E30F0000 		.4byte	0xfe3
 4422 1019 02       		.uleb128 0x2
 4423 101a 91       		.byte	0x91
 4424 101b 68       		.sleb128 -24
 4425 101c 1B       		.uleb128 0x1b
 4426 101d 7000     		.ascii	"p\000"
 4427 101f 01       		.byte	0x1
 4428 1020 D0       		.byte	0xd0
 4429 1021 E30F0000 		.4byte	0xfe3
 4430 1025 02       		.uleb128 0x2
 4431 1026 91       		.byte	0x91
 4432 1027 74       		.sleb128 -12
 4433 1028 00       		.byte	0
 4434 1029 06       		.uleb128 0x6
 4435 102a 04       		.byte	0x4
 4436 102b 2F100000 		.4byte	0x102f
 4437 102f 07       		.uleb128 0x7
 4438 1030 F40A0000 		.4byte	0xaf4
 4439 1034 18       		.uleb128 0x18
 4440 1035 59000000 		.4byte	.LASF258
 4441 1039 01       		.byte	0x1
 4442 103a DA       		.byte	0xda
 4443 103b B8000000 		.4byte	0xb8
 4444 103f 00000000 		.4byte	.LFB75
 4445 1043 9C000000 		.4byte	.LFE75-.LFB75
 4446 1047 01       		.uleb128 0x1
ARM GAS  C:\Users\JENNEW~1\AppData\Local\Temp\ccW8Un4u.s 			page 86


 4447 1048 9C       		.byte	0x9c
 4448 1049 74100000 		.4byte	0x1074
 4449 104d 19       		.uleb128 0x19
 4450 104e 7000     		.ascii	"p\000"
 4451 1050 01       		.byte	0x1
 4452 1051 DA       		.byte	0xda
 4453 1052 74100000 		.4byte	0x1074
 4454 1056 02       		.uleb128 0x2
 4455 1057 91       		.byte	0x91
 4456 1058 6C       		.sleb128 -20
 4457 1059 19       		.uleb128 0x19
 4458 105a 62756600 		.ascii	"buf\000"
 4459 105e 01       		.byte	0x1
 4460 105f DA       		.byte	0xda
 4461 1060 E30F0000 		.4byte	0xfe3
 4462 1064 02       		.uleb128 0x2
 4463 1065 91       		.byte	0x91
 4464 1066 68       		.sleb128 -24
 4465 1067 1B       		.uleb128 0x1b
 4466 1068 7100     		.ascii	"q\000"
 4467 106a 01       		.byte	0x1
 4468 106b DC       		.byte	0xdc
 4469 106c E30F0000 		.4byte	0xfe3
 4470 1070 02       		.uleb128 0x2
 4471 1071 91       		.byte	0x91
 4472 1072 74       		.sleb128 -12
 4473 1073 00       		.byte	0
 4474 1074 06       		.uleb128 0x6
 4475 1075 04       		.byte	0x4
 4476 1076 7A100000 		.4byte	0x107a
 4477 107a 07       		.uleb128 0x7
 4478 107b 5C0B0000 		.4byte	0xb5c
 4479 107f 18       		.uleb128 0x18
 4480 1080 C8010000 		.4byte	.LASF259
 4481 1084 01       		.byte	0x1
 4482 1085 E7       		.byte	0xe7
 4483 1086 B8000000 		.4byte	0xb8
 4484 108a 00000000 		.4byte	.LFB76
 4485 108e 58000000 		.4byte	.LFE76-.LFB76
 4486 1092 01       		.uleb128 0x1
 4487 1093 9C       		.byte	0x9c
 4488 1094 BF100000 		.4byte	0x10bf
 4489 1098 19       		.uleb128 0x19
 4490 1099 6500     		.ascii	"e\000"
 4491 109b 01       		.byte	0x1
 4492 109c E7       		.byte	0xe7
 4493 109d BF100000 		.4byte	0x10bf
 4494 10a1 02       		.uleb128 0x2
 4495 10a2 91       		.byte	0x91
 4496 10a3 6C       		.sleb128 -20
 4497 10a4 19       		.uleb128 0x19
 4498 10a5 62756600 		.ascii	"buf\000"
 4499 10a9 01       		.byte	0x1
 4500 10aa E7       		.byte	0xe7
 4501 10ab E30F0000 		.4byte	0xfe3
 4502 10af 02       		.uleb128 0x2
 4503 10b0 91       		.byte	0x91
ARM GAS  C:\Users\JENNEW~1\AppData\Local\Temp\ccW8Un4u.s 			page 87


 4504 10b1 68       		.sleb128 -24
 4505 10b2 1B       		.uleb128 0x1b
 4506 10b3 7100     		.ascii	"q\000"
 4507 10b5 01       		.byte	0x1
 4508 10b6 E9       		.byte	0xe9
 4509 10b7 E30F0000 		.4byte	0xfe3
 4510 10bb 02       		.uleb128 0x2
 4511 10bc 91       		.byte	0x91
 4512 10bd 74       		.sleb128 -12
 4513 10be 00       		.byte	0
 4514 10bf 06       		.uleb128 0x6
 4515 10c0 04       		.byte	0x4
 4516 10c1 C5100000 		.4byte	0x10c5
 4517 10c5 07       		.uleb128 0x7
 4518 10c6 940B0000 		.4byte	0xb94
 4519 10ca 18       		.uleb128 0x18
 4520 10cb 17090000 		.4byte	.LASF260
 4521 10cf 01       		.byte	0x1
 4522 10d0 F0       		.byte	0xf0
 4523 10d1 B8000000 		.4byte	0xb8
 4524 10d5 00000000 		.4byte	.LFB77
 4525 10d9 E8000000 		.4byte	.LFE77-.LFB77
 4526 10dd 01       		.uleb128 0x1
 4527 10de 9C       		.byte	0x9c
 4528 10df 0A110000 		.4byte	0x110a
 4529 10e3 19       		.uleb128 0x19
 4530 10e4 6700     		.ascii	"g\000"
 4531 10e6 01       		.byte	0x1
 4532 10e7 F0       		.byte	0xf0
 4533 10e8 0A110000 		.4byte	0x110a
 4534 10ec 02       		.uleb128 0x2
 4535 10ed 91       		.byte	0x91
 4536 10ee 6C       		.sleb128 -20
 4537 10ef 19       		.uleb128 0x19
 4538 10f0 62756600 		.ascii	"buf\000"
 4539 10f4 01       		.byte	0x1
 4540 10f5 F0       		.byte	0xf0
 4541 10f6 E30F0000 		.4byte	0xfe3
 4542 10fa 02       		.uleb128 0x2
 4543 10fb 91       		.byte	0x91
 4544 10fc 68       		.sleb128 -24
 4545 10fd 1B       		.uleb128 0x1b
 4546 10fe 7100     		.ascii	"q\000"
 4547 1100 01       		.byte	0x1
 4548 1101 F2       		.byte	0xf2
 4549 1102 E30F0000 		.4byte	0xfe3
 4550 1106 02       		.uleb128 0x2
 4551 1107 91       		.byte	0x91
 4552 1108 74       		.sleb128 -12
 4553 1109 00       		.byte	0
 4554 110a 06       		.uleb128 0x6
 4555 110b 04       		.byte	0x4
 4556 110c 10110000 		.4byte	0x1110
 4557 1110 07       		.uleb128 0x7
 4558 1111 2C0C0000 		.4byte	0xc2c
 4559 1115 1C       		.uleb128 0x1c
 4560 1116 BE070000 		.4byte	.LASF261
ARM GAS  C:\Users\JENNEW~1\AppData\Local\Temp\ccW8Un4u.s 			page 88


 4561 111a 01       		.byte	0x1
 4562 111b 0101     		.2byte	0x101
 4563 111d B8000000 		.4byte	0xb8
 4564 1121 00000000 		.4byte	.LFB78
 4565 1125 64000000 		.4byte	.LFE78-.LFB78
 4566 1129 01       		.uleb128 0x1
 4567 112a 9C       		.byte	0x9c
 4568 112b 59110000 		.4byte	0x1159
 4569 112f 1D       		.uleb128 0x1d
 4570 1130 6200     		.ascii	"b\000"
 4571 1132 01       		.byte	0x1
 4572 1133 0101     		.2byte	0x101
 4573 1135 59110000 		.4byte	0x1159
 4574 1139 02       		.uleb128 0x2
 4575 113a 91       		.byte	0x91
 4576 113b 6C       		.sleb128 -20
 4577 113c 1D       		.uleb128 0x1d
 4578 113d 62756600 		.ascii	"buf\000"
 4579 1141 01       		.byte	0x1
 4580 1142 0101     		.2byte	0x101
 4581 1144 E30F0000 		.4byte	0xfe3
 4582 1148 02       		.uleb128 0x2
 4583 1149 91       		.byte	0x91
 4584 114a 68       		.sleb128 -24
 4585 114b 1E       		.uleb128 0x1e
 4586 114c 7100     		.ascii	"q\000"
 4587 114e 01       		.byte	0x1
 4588 114f 0301     		.2byte	0x103
 4589 1151 E30F0000 		.4byte	0xfe3
 4590 1155 02       		.uleb128 0x2
 4591 1156 91       		.byte	0x91
 4592 1157 74       		.sleb128 -12
 4593 1158 00       		.byte	0
 4594 1159 06       		.uleb128 0x6
 4595 115a 04       		.byte	0x4
 4596 115b 5F110000 		.4byte	0x115f
 4597 115f 07       		.uleb128 0x7
 4598 1160 700C0000 		.4byte	0xc70
 4599 1164 1C       		.uleb128 0x1c
 4600 1165 59040000 		.4byte	.LASF262
 4601 1169 01       		.byte	0x1
 4602 116a 0B01     		.2byte	0x10b
 4603 116c B8000000 		.4byte	0xb8
 4604 1170 00000000 		.4byte	.LFB79
 4605 1174 8C000000 		.4byte	.LFE79-.LFB79
 4606 1178 01       		.uleb128 0x1
 4607 1179 9C       		.byte	0x9c
 4608 117a A8110000 		.4byte	0x11a8
 4609 117e 1D       		.uleb128 0x1d
 4610 117f 6D00     		.ascii	"m\000"
 4611 1181 01       		.byte	0x1
 4612 1182 0B01     		.2byte	0x10b
 4613 1184 A8110000 		.4byte	0x11a8
 4614 1188 02       		.uleb128 0x2
 4615 1189 91       		.byte	0x91
 4616 118a 6C       		.sleb128 -20
 4617 118b 1D       		.uleb128 0x1d
ARM GAS  C:\Users\JENNEW~1\AppData\Local\Temp\ccW8Un4u.s 			page 89


 4618 118c 62756600 		.ascii	"buf\000"
 4619 1190 01       		.byte	0x1
 4620 1191 0B01     		.2byte	0x10b
 4621 1193 E30F0000 		.4byte	0xfe3
 4622 1197 02       		.uleb128 0x2
 4623 1198 91       		.byte	0x91
 4624 1199 68       		.sleb128 -24
 4625 119a 1E       		.uleb128 0x1e
 4626 119b 7100     		.ascii	"q\000"
 4627 119d 01       		.byte	0x1
 4628 119e 0D01     		.2byte	0x10d
 4629 11a0 E30F0000 		.4byte	0xfe3
 4630 11a4 02       		.uleb128 0x2
 4631 11a5 91       		.byte	0x91
 4632 11a6 74       		.sleb128 -12
 4633 11a7 00       		.byte	0
 4634 11a8 06       		.uleb128 0x6
 4635 11a9 04       		.byte	0x4
 4636 11aa AE110000 		.4byte	0x11ae
 4637 11ae 07       		.uleb128 0x7
 4638 11af CC0C0000 		.4byte	0xccc
 4639 11b3 1F       		.uleb128 0x1f
 4640 11b4 4C010000 		.4byte	.LASF263
 4641 11b8 01       		.byte	0x1
 4642 11b9 1801     		.2byte	0x118
 4643 11bb 00000000 		.4byte	.LFB80
 4644 11bf 42000000 		.4byte	.LFE80-.LFB80
 4645 11c3 01       		.uleb128 0x1
 4646 11c4 9C       		.byte	0x9c
 4647 11c5 04120000 		.4byte	0x1204
 4648 11c9 1D       		.uleb128 0x1d
 4649 11ca 63747800 		.ascii	"ctx\000"
 4650 11ce 01       		.byte	0x1
 4651 11cf 1801     		.2byte	0x118
 4652 11d1 D70D0000 		.4byte	0xdd7
 4653 11d5 03       		.uleb128 0x3
 4654 11d6 91       		.byte	0x91
 4655 11d7 B47F     		.sleb128 -76
 4656 11d9 1E       		.uleb128 0x1e
 4657 11da 6800     		.ascii	"h\000"
 4658 11dc 01       		.byte	0x1
 4659 11dd 1A01     		.2byte	0x11a
 4660 11df 980A0000 		.4byte	0xa98
 4661 11e3 02       		.uleb128 0x2
 4662 11e4 91       		.byte	0x91
 4663 11e5 58       		.sleb128 -40
 4664 11e6 1E       		.uleb128 0x1e
 4665 11e7 62756600 		.ascii	"buf\000"
 4666 11eb 01       		.byte	0x1
 4667 11ec 1C01     		.2byte	0x11c
 4668 11ee 04120000 		.4byte	0x1204
 4669 11f2 03       		.uleb128 0x3
 4670 11f3 91       		.byte	0x91
 4671 11f4 BC7F     		.sleb128 -68
 4672 11f6 1E       		.uleb128 0x1e
 4673 11f7 6E00     		.ascii	"n\000"
 4674 11f9 01       		.byte	0x1
ARM GAS  C:\Users\JENNEW~1\AppData\Local\Temp\ccW8Un4u.s 			page 90


 4675 11fa 1D01     		.2byte	0x11d
 4676 11fc B8000000 		.4byte	0xb8
 4677 1200 02       		.uleb128 0x2
 4678 1201 91       		.byte	0x91
 4679 1202 77       		.sleb128 -9
 4680 1203 00       		.byte	0
 4681 1204 13       		.uleb128 0x13
 4682 1205 B8000000 		.4byte	0xb8
 4683 1209 14120000 		.4byte	0x1214
 4684 120d 14       		.uleb128 0x14
 4685 120e 16010000 		.4byte	0x116
 4686 1212 19       		.byte	0x19
 4687 1213 00       		.byte	0
 4688 1214 1F       		.uleb128 0x1f
 4689 1215 69030000 		.4byte	.LASF264
 4690 1219 01       		.byte	0x1
 4691 121a 2101     		.2byte	0x121
 4692 121c 00000000 		.4byte	.LFB81
 4693 1220 42000000 		.4byte	.LFE81-.LFB81
 4694 1224 01       		.uleb128 0x1
 4695 1225 9C       		.byte	0x9c
 4696 1226 63120000 		.4byte	0x1263
 4697 122a 1D       		.uleb128 0x1d
 4698 122b 63747800 		.ascii	"ctx\000"
 4699 122f 01       		.byte	0x1
 4700 1230 2101     		.2byte	0x121
 4701 1232 D70D0000 		.4byte	0xdd7
 4702 1236 02       		.uleb128 0x2
 4703 1237 91       		.byte	0x91
 4704 1238 4C       		.sleb128 -52
 4705 1239 1E       		.uleb128 0x1e
 4706 123a 6C00     		.ascii	"l\000"
 4707 123c 01       		.byte	0x1
 4708 123d 2301     		.2byte	0x123
 4709 123f F40A0000 		.4byte	0xaf4
 4710 1243 02       		.uleb128 0x2
 4711 1244 91       		.byte	0x91
 4712 1245 60       		.sleb128 -32
 4713 1246 1E       		.uleb128 0x1e
 4714 1247 62756600 		.ascii	"buf\000"
 4715 124b 01       		.byte	0x1
 4716 124c 2501     		.2byte	0x125
 4717 124e 63120000 		.4byte	0x1263
 4718 1252 02       		.uleb128 0x2
 4719 1253 91       		.byte	0x91
 4720 1254 50       		.sleb128 -48
 4721 1255 1E       		.uleb128 0x1e
 4722 1256 6E00     		.ascii	"n\000"
 4723 1258 01       		.byte	0x1
 4724 1259 2601     		.2byte	0x126
 4725 125b B8000000 		.4byte	0xb8
 4726 125f 02       		.uleb128 0x2
 4727 1260 91       		.byte	0x91
 4728 1261 77       		.sleb128 -9
 4729 1262 00       		.byte	0
 4730 1263 13       		.uleb128 0x13
 4731 1264 B8000000 		.4byte	0xb8
ARM GAS  C:\Users\JENNEW~1\AppData\Local\Temp\ccW8Un4u.s 			page 91


 4732 1268 73120000 		.4byte	0x1273
 4733 126c 14       		.uleb128 0x14
 4734 126d 16010000 		.4byte	0x116
 4735 1271 0F       		.byte	0xf
 4736 1272 00       		.byte	0
 4737 1273 1F       		.uleb128 0x1f
 4738 1274 D3080000 		.4byte	.LASF265
 4739 1278 01       		.byte	0x1
 4740 1279 2A01     		.2byte	0x12a
 4741 127b 00000000 		.4byte	.LFB82
 4742 127f 42000000 		.4byte	.LFE82-.LFB82
 4743 1283 01       		.uleb128 0x1
 4744 1284 9C       		.byte	0x9c
 4745 1285 C2120000 		.4byte	0x12c2
 4746 1289 1D       		.uleb128 0x1d
 4747 128a 63747800 		.ascii	"ctx\000"
 4748 128e 01       		.byte	0x1
 4749 128f 2A01     		.2byte	0x12a
 4750 1291 D70D0000 		.4byte	0xdd7
 4751 1295 02       		.uleb128 0x2
 4752 1296 91       		.byte	0x91
 4753 1297 4C       		.sleb128 -52
 4754 1298 1E       		.uleb128 0x1e
 4755 1299 7000     		.ascii	"p\000"
 4756 129b 01       		.byte	0x1
 4757 129c 2C01     		.2byte	0x12c
 4758 129e 5C0B0000 		.4byte	0xb5c
 4759 12a2 02       		.uleb128 0x2
 4760 12a3 91       		.byte	0x91
 4761 12a4 64       		.sleb128 -28
 4762 12a5 1E       		.uleb128 0x1e
 4763 12a6 62756600 		.ascii	"buf\000"
 4764 12aa 01       		.byte	0x1
 4765 12ab 2E01     		.2byte	0x12e
 4766 12ad C2120000 		.4byte	0x12c2
 4767 12b1 02       		.uleb128 0x2
 4768 12b2 91       		.byte	0x91
 4769 12b3 54       		.sleb128 -44
 4770 12b4 1E       		.uleb128 0x1e
 4771 12b5 6E00     		.ascii	"n\000"
 4772 12b7 01       		.byte	0x1
 4773 12b8 2F01     		.2byte	0x12f
 4774 12ba B8000000 		.4byte	0xb8
 4775 12be 02       		.uleb128 0x2
 4776 12bf 91       		.byte	0x91
 4777 12c0 77       		.sleb128 -9
 4778 12c1 00       		.byte	0
 4779 12c2 13       		.uleb128 0x13
 4780 12c3 B8000000 		.4byte	0xb8
 4781 12c7 D2120000 		.4byte	0x12d2
 4782 12cb 14       		.uleb128 0x14
 4783 12cc 16010000 		.4byte	0x116
 4784 12d0 0D       		.byte	0xd
 4785 12d1 00       		.byte	0
 4786 12d2 1F       		.uleb128 0x1f
 4787 12d3 29030000 		.4byte	.LASF266
 4788 12d7 01       		.byte	0x1
ARM GAS  C:\Users\JENNEW~1\AppData\Local\Temp\ccW8Un4u.s 			page 92


 4789 12d8 3301     		.2byte	0x133
 4790 12da 00000000 		.4byte	.LFB83
 4791 12de 42000000 		.4byte	.LFE83-.LFB83
 4792 12e2 01       		.uleb128 0x1
 4793 12e3 9C       		.byte	0x9c
 4794 12e4 21130000 		.4byte	0x1321
 4795 12e8 1D       		.uleb128 0x1d
 4796 12e9 63747800 		.ascii	"ctx\000"
 4797 12ed 01       		.byte	0x1
 4798 12ee 3301     		.2byte	0x133
 4799 12f0 D70D0000 		.4byte	0xdd7
 4800 12f4 02       		.uleb128 0x2
 4801 12f5 91       		.byte	0x91
 4802 12f6 54       		.sleb128 -44
 4803 12f7 1E       		.uleb128 0x1e
 4804 12f8 6500     		.ascii	"e\000"
 4805 12fa 01       		.byte	0x1
 4806 12fb 3501     		.2byte	0x135
 4807 12fd 940B0000 		.4byte	0xb94
 4808 1301 02       		.uleb128 0x2
 4809 1302 91       		.byte	0x91
 4810 1303 68       		.sleb128 -24
 4811 1304 1E       		.uleb128 0x1e
 4812 1305 62756600 		.ascii	"buf\000"
 4813 1309 01       		.byte	0x1
 4814 130a 3701     		.2byte	0x137
 4815 130c 21130000 		.4byte	0x1321
 4816 1310 02       		.uleb128 0x2
 4817 1311 91       		.byte	0x91
 4818 1312 5C       		.sleb128 -36
 4819 1313 1E       		.uleb128 0x1e
 4820 1314 6E00     		.ascii	"n\000"
 4821 1316 01       		.byte	0x1
 4822 1317 3801     		.2byte	0x138
 4823 1319 B8000000 		.4byte	0xb8
 4824 131d 02       		.uleb128 0x2
 4825 131e 91       		.byte	0x91
 4826 131f 77       		.sleb128 -9
 4827 1320 00       		.byte	0
 4828 1321 13       		.uleb128 0x13
 4829 1322 B8000000 		.4byte	0xb8
 4830 1326 31130000 		.4byte	0x1331
 4831 132a 14       		.uleb128 0x14
 4832 132b 16010000 		.4byte	0x116
 4833 132f 09       		.byte	0x9
 4834 1330 00       		.byte	0
 4835 1331 1F       		.uleb128 0x1f
 4836 1332 07020000 		.4byte	.LASF267
 4837 1336 01       		.byte	0x1
 4838 1337 3C01     		.2byte	0x13c
 4839 1339 00000000 		.4byte	.LFB84
 4840 133d 42000000 		.4byte	.LFE84-.LFB84
 4841 1341 01       		.uleb128 0x1
 4842 1342 9C       		.byte	0x9c
 4843 1343 82130000 		.4byte	0x1382
 4844 1347 1D       		.uleb128 0x1d
 4845 1348 63747800 		.ascii	"ctx\000"
ARM GAS  C:\Users\JENNEW~1\AppData\Local\Temp\ccW8Un4u.s 			page 93


 4846 134c 01       		.byte	0x1
 4847 134d 3C01     		.2byte	0x13c
 4848 134f D70D0000 		.4byte	0xdd7
 4849 1353 03       		.uleb128 0x3
 4850 1354 91       		.byte	0x91
 4851 1355 B47F     		.sleb128 -76
 4852 1357 1E       		.uleb128 0x1e
 4853 1358 6700     		.ascii	"g\000"
 4854 135a 01       		.byte	0x1
 4855 135b 3E01     		.2byte	0x13e
 4856 135d 2C0C0000 		.4byte	0xc2c
 4857 1361 02       		.uleb128 0x2
 4858 1362 91       		.byte	0x91
 4859 1363 54       		.sleb128 -44
 4860 1364 1E       		.uleb128 0x1e
 4861 1365 62756600 		.ascii	"buf\000"
 4862 1369 01       		.byte	0x1
 4863 136a 4001     		.2byte	0x140
 4864 136c 82130000 		.4byte	0x1382
 4865 1370 03       		.uleb128 0x3
 4866 1371 91       		.byte	0x91
 4867 1372 B87F     		.sleb128 -72
 4868 1374 1E       		.uleb128 0x1e
 4869 1375 6E00     		.ascii	"n\000"
 4870 1377 01       		.byte	0x1
 4871 1378 4101     		.2byte	0x141
 4872 137a B8000000 		.4byte	0xb8
 4873 137e 02       		.uleb128 0x2
 4874 137f 91       		.byte	0x91
 4875 1380 77       		.sleb128 -9
 4876 1381 00       		.byte	0
 4877 1382 13       		.uleb128 0x13
 4878 1383 B8000000 		.4byte	0xb8
 4879 1387 92130000 		.4byte	0x1392
 4880 138b 14       		.uleb128 0x14
 4881 138c 16010000 		.4byte	0x116
 4882 1390 1B       		.byte	0x1b
 4883 1391 00       		.byte	0
 4884 1392 1F       		.uleb128 0x1f
 4885 1393 6A040000 		.4byte	.LASF268
 4886 1397 01       		.byte	0x1
 4887 1398 4501     		.2byte	0x145
 4888 139a 00000000 		.4byte	.LFB85
 4889 139e 42000000 		.4byte	.LFE85-.LFB85
 4890 13a2 01       		.uleb128 0x1
 4891 13a3 9C       		.byte	0x9c
 4892 13a4 E1130000 		.4byte	0x13e1
 4893 13a8 1D       		.uleb128 0x1d
 4894 13a9 63747800 		.ascii	"ctx\000"
 4895 13ad 01       		.byte	0x1
 4896 13ae 4501     		.2byte	0x145
 4897 13b0 D70D0000 		.4byte	0xdd7
 4898 13b4 02       		.uleb128 0x2
 4899 13b5 91       		.byte	0x91
 4900 13b6 54       		.sleb128 -44
 4901 13b7 1E       		.uleb128 0x1e
 4902 13b8 6200     		.ascii	"b\000"
ARM GAS  C:\Users\JENNEW~1\AppData\Local\Temp\ccW8Un4u.s 			page 94


 4903 13ba 01       		.byte	0x1
 4904 13bb 4701     		.2byte	0x147
 4905 13bd 700C0000 		.4byte	0xc70
 4906 13c1 02       		.uleb128 0x2
 4907 13c2 91       		.byte	0x91
 4908 13c3 64       		.sleb128 -28
 4909 13c4 1E       		.uleb128 0x1e
 4910 13c5 62756600 		.ascii	"buf\000"
 4911 13c9 01       		.byte	0x1
 4912 13ca 4901     		.2byte	0x149
 4913 13cc E1130000 		.4byte	0x13e1
 4914 13d0 02       		.uleb128 0x2
 4915 13d1 91       		.byte	0x91
 4916 13d2 58       		.sleb128 -40
 4917 13d3 1E       		.uleb128 0x1e
 4918 13d4 6E00     		.ascii	"n\000"
 4919 13d6 01       		.byte	0x1
 4920 13d7 4A01     		.2byte	0x14a
 4921 13d9 B8000000 		.4byte	0xb8
 4922 13dd 02       		.uleb128 0x2
 4923 13de 91       		.byte	0x91
 4924 13df 77       		.sleb128 -9
 4925 13e0 00       		.byte	0
 4926 13e1 13       		.uleb128 0x13
 4927 13e2 B8000000 		.4byte	0xb8
 4928 13e6 F1130000 		.4byte	0x13f1
 4929 13ea 14       		.uleb128 0x14
 4930 13eb 16010000 		.4byte	0x116
 4931 13ef 0A       		.byte	0xa
 4932 13f0 00       		.byte	0
 4933 13f1 1F       		.uleb128 0x1f
 4934 13f2 54060000 		.4byte	.LASF269
 4935 13f6 01       		.byte	0x1
 4936 13f7 4E01     		.2byte	0x14e
 4937 13f9 00000000 		.4byte	.LFB86
 4938 13fd 42000000 		.4byte	.LFE86-.LFB86
 4939 1401 01       		.uleb128 0x1
 4940 1402 9C       		.byte	0x9c
 4941 1403 40140000 		.4byte	0x1440
 4942 1407 1D       		.uleb128 0x1d
 4943 1408 63747800 		.ascii	"ctx\000"
 4944 140c 01       		.byte	0x1
 4945 140d 4E01     		.2byte	0x14e
 4946 140f D70D0000 		.4byte	0xdd7
 4947 1413 02       		.uleb128 0x2
 4948 1414 91       		.byte	0x91
 4949 1415 4C       		.sleb128 -52
 4950 1416 1E       		.uleb128 0x1e
 4951 1417 6D00     		.ascii	"m\000"
 4952 1419 01       		.byte	0x1
 4953 141a 5001     		.2byte	0x150
 4954 141c CC0C0000 		.4byte	0xccc
 4955 1420 02       		.uleb128 0x2
 4956 1421 91       		.byte	0x91
 4957 1422 64       		.sleb128 -28
 4958 1423 1E       		.uleb128 0x1e
 4959 1424 62756600 		.ascii	"buf\000"
ARM GAS  C:\Users\JENNEW~1\AppData\Local\Temp\ccW8Un4u.s 			page 95


 4960 1428 01       		.byte	0x1
 4961 1429 5201     		.2byte	0x152
 4962 142b 40140000 		.4byte	0x1440
 4963 142f 02       		.uleb128 0x2
 4964 1430 91       		.byte	0x91
 4965 1431 54       		.sleb128 -44
 4966 1432 1E       		.uleb128 0x1e
 4967 1433 6E00     		.ascii	"n\000"
 4968 1435 01       		.byte	0x1
 4969 1436 5301     		.2byte	0x153
 4970 1438 B8000000 		.4byte	0xb8
 4971 143c 02       		.uleb128 0x2
 4972 143d 91       		.byte	0x91
 4973 143e 77       		.sleb128 -9
 4974 143f 00       		.byte	0
 4975 1440 13       		.uleb128 0x13
 4976 1441 B8000000 		.4byte	0xb8
 4977 1445 50140000 		.4byte	0x1450
 4978 1449 14       		.uleb128 0x14
 4979 144a 16010000 		.4byte	0x116
 4980 144e 0C       		.byte	0xc
 4981 144f 00       		.byte	0
 4982 1450 1F       		.uleb128 0x1f
 4983 1451 510A0000 		.4byte	.LASF270
 4984 1455 01       		.byte	0x1
 4985 1456 6701     		.2byte	0x167
 4986 1458 00000000 		.4byte	.LFB87
 4987 145c D8000000 		.4byte	.LFE87-.LFB87
 4988 1460 01       		.uleb128 0x1
 4989 1461 9C       		.byte	0x9c
 4990 1462 D3140000 		.4byte	0x14d3
 4991 1466 1D       		.uleb128 0x1d
 4992 1467 63747800 		.ascii	"ctx\000"
 4993 146b 01       		.byte	0x1
 4994 146c 6701     		.2byte	0x167
 4995 146e D3140000 		.4byte	0x14d3
 4996 1472 02       		.uleb128 0x2
 4997 1473 91       		.byte	0x91
 4998 1474 5C       		.sleb128 -36
 4999 1475 1E       		.uleb128 0x1e
 5000 1476 6E6F7700 		.ascii	"now\000"
 5001 147a 01       		.byte	0x1
 5002 147b 6F01     		.2byte	0x16f
 5003 147d E4000000 		.4byte	0xe4
 5004 1481 02       		.uleb128 0x2
 5005 1482 91       		.byte	0x91
 5006 1483 68       		.sleb128 -24
 5007 1484 20       		.uleb128 0x20
 5008 1485 07040000 		.4byte	.LASF271
 5009 1489 01       		.byte	0x1
 5010 148a 7101     		.2byte	0x171
 5011 148c 04010000 		.4byte	0x104
 5012 1490 02       		.uleb128 0x2
 5013 1491 91       		.byte	0x91
 5014 1492 74       		.sleb128 -12
 5015 1493 20       		.uleb128 0x20
 5016 1494 C7060000 		.4byte	.LASF272
ARM GAS  C:\Users\JENNEW~1\AppData\Local\Temp\ccW8Un4u.s 			page 96


 5017 1498 01       		.byte	0x1
 5018 1499 7201     		.2byte	0x172
 5019 149b E4000000 		.4byte	0xe4
 5020 149f 02       		.uleb128 0x2
 5021 14a0 91       		.byte	0x91
 5022 14a1 70       		.sleb128 -16
 5023 14a2 21       		.uleb128 0x21
 5024 14a3 2E000000 		.4byte	.LBB2
 5025 14a7 52000000 		.4byte	.LBE2-.LBB2
 5026 14ab 1E       		.uleb128 0x1e
 5027 14ac 6900     		.ascii	"i\000"
 5028 14ae 01       		.byte	0x1
 5029 14af 7301     		.2byte	0x173
 5030 14b1 04010000 		.4byte	0x104
 5031 14b5 02       		.uleb128 0x2
 5032 14b6 91       		.byte	0x91
 5033 14b7 6C       		.sleb128 -20
 5034 14b8 21       		.uleb128 0x21
 5035 14b9 34000000 		.4byte	.LBB3
 5036 14bd 40000000 		.4byte	.LBE3-.LBB3
 5037 14c1 1E       		.uleb128 0x1e
 5038 14c2 61676500 		.ascii	"age\000"
 5039 14c6 01       		.byte	0x1
 5040 14c7 7401     		.2byte	0x174
 5041 14c9 E4000000 		.4byte	0xe4
 5042 14cd 02       		.uleb128 0x2
 5043 14ce 91       		.byte	0x91
 5044 14cf 64       		.sleb128 -28
 5045 14d0 00       		.byte	0
 5046 14d1 00       		.byte	0
 5047 14d2 00       		.byte	0
 5048 14d3 06       		.uleb128 0x6
 5049 14d4 04       		.byte	0x4
 5050 14d5 C4090000 		.4byte	0x9c4
 5051 14d9 13       		.uleb128 0x13
 5052 14da 080D0000 		.4byte	0xd08
 5053 14de E9140000 		.4byte	0x14e9
 5054 14e2 14       		.uleb128 0x14
 5055 14e3 16010000 		.4byte	0x116
 5056 14e7 03       		.byte	0x3
 5057 14e8 00       		.byte	0
 5058 14e9 20       		.uleb128 0x20
 5059 14ea F40A0000 		.4byte	.LASF273
 5060 14ee 01       		.byte	0x1
 5061 14ef 5E01     		.2byte	0x15e
 5062 14f1 D9140000 		.4byte	0x14d9
 5063 14f5 05       		.uleb128 0x5
 5064 14f6 03       		.byte	0x3
 5065 14f7 00000000 		.4byte	s_attrs
 5066 14fb 22       		.uleb128 0x22
 5067 14fc 8B080000 		.4byte	.LASF274
 5068 1500 0D       		.byte	0xd
 5069 1501 1207     		.2byte	0x712
 5070 1503 07150000 		.4byte	0x1507
 5071 1507 08       		.uleb128 0x8
 5072 1508 D9000000 		.4byte	0xd9
 5073 150c 23       		.uleb128 0x23
ARM GAS  C:\Users\JENNEW~1\AppData\Local\Temp\ccW8Un4u.s 			page 97


 5074 150d 99040000 		.4byte	.LASF275
 5075 1511 01       		.byte	0x1
 5076 1512 1B       		.byte	0x1b
 5077 1513 2A010000 		.4byte	0x12a
 5078 1517 00       		.byte	0
 5079              		.section	.debug_abbrev,"",%progbits
 5080              	.Ldebug_abbrev0:
 5081 0000 01       		.uleb128 0x1
 5082 0001 11       		.uleb128 0x11
 5083 0002 01       		.byte	0x1
 5084 0003 25       		.uleb128 0x25
 5085 0004 0E       		.uleb128 0xe
 5086 0005 13       		.uleb128 0x13
 5087 0006 0B       		.uleb128 0xb
 5088 0007 03       		.uleb128 0x3
 5089 0008 0E       		.uleb128 0xe
 5090 0009 1B       		.uleb128 0x1b
 5091 000a 0E       		.uleb128 0xe
 5092 000b 55       		.uleb128 0x55
 5093 000c 17       		.uleb128 0x17
 5094 000d 11       		.uleb128 0x11
 5095 000e 01       		.uleb128 0x1
 5096 000f 10       		.uleb128 0x10
 5097 0010 17       		.uleb128 0x17
 5098 0011 00       		.byte	0
 5099 0012 00       		.byte	0
 5100 0013 02       		.uleb128 0x2
 5101 0014 16       		.uleb128 0x16
 5102 0015 00       		.byte	0
 5103 0016 03       		.uleb128 0x3
 5104 0017 0E       		.uleb128 0xe
 5105 0018 3A       		.uleb128 0x3a
 5106 0019 0B       		.uleb128 0xb
 5107 001a 3B       		.uleb128 0x3b
 5108 001b 0B       		.uleb128 0xb
 5109 001c 49       		.uleb128 0x49
 5110 001d 13       		.uleb128 0x13
 5111 001e 00       		.byte	0
 5112 001f 00       		.byte	0
 5113 0020 03       		.uleb128 0x3
 5114 0021 24       		.uleb128 0x24
 5115 0022 00       		.byte	0
 5116 0023 0B       		.uleb128 0xb
 5117 0024 0B       		.uleb128 0xb
 5118 0025 3E       		.uleb128 0x3e
 5119 0026 0B       		.uleb128 0xb
 5120 0027 03       		.uleb128 0x3
 5121 0028 0E       		.uleb128 0xe
 5122 0029 00       		.byte	0
 5123 002a 00       		.byte	0
 5124 002b 04       		.uleb128 0x4
 5125 002c 24       		.uleb128 0x24
 5126 002d 00       		.byte	0
 5127 002e 0B       		.uleb128 0xb
 5128 002f 0B       		.uleb128 0xb
 5129 0030 3E       		.uleb128 0x3e
 5130 0031 0B       		.uleb128 0xb
ARM GAS  C:\Users\JENNEW~1\AppData\Local\Temp\ccW8Un4u.s 			page 98


 5131 0032 03       		.uleb128 0x3
 5132 0033 08       		.uleb128 0x8
 5133 0034 00       		.byte	0
 5134 0035 00       		.byte	0
 5135 0036 05       		.uleb128 0x5
 5136 0037 0F       		.uleb128 0xf
 5137 0038 00       		.byte	0
 5138 0039 0B       		.uleb128 0xb
 5139 003a 0B       		.uleb128 0xb
 5140 003b 00       		.byte	0
 5141 003c 00       		.byte	0
 5142 003d 06       		.uleb128 0x6
 5143 003e 0F       		.uleb128 0xf
 5144 003f 00       		.byte	0
 5145 0040 0B       		.uleb128 0xb
 5146 0041 0B       		.uleb128 0xb
 5147 0042 49       		.uleb128 0x49
 5148 0043 13       		.uleb128 0x13
 5149 0044 00       		.byte	0
 5150 0045 00       		.byte	0
 5151 0046 07       		.uleb128 0x7
 5152 0047 26       		.uleb128 0x26
 5153 0048 00       		.byte	0
 5154 0049 49       		.uleb128 0x49
 5155 004a 13       		.uleb128 0x13
 5156 004b 00       		.byte	0
 5157 004c 00       		.byte	0
 5158 004d 08       		.uleb128 0x8
 5159 004e 35       		.uleb128 0x35
 5160 004f 00       		.byte	0
 5161 0050 49       		.uleb128 0x49
 5162 0051 13       		.uleb128 0x13
 5163 0052 00       		.byte	0
 5164 0053 00       		.byte	0
 5165 0054 09       		.uleb128 0x9
 5166 0055 04       		.uleb128 0x4
 5167 0056 01       		.byte	0x1
 5168 0057 0B       		.uleb128 0xb
 5169 0058 0B       		.uleb128 0xb
 5170 0059 49       		.uleb128 0x49
 5171 005a 13       		.uleb128 0x13
 5172 005b 3A       		.uleb128 0x3a
 5173 005c 0B       		.uleb128 0xb
 5174 005d 3B       		.uleb128 0x3b
 5175 005e 0B       		.uleb128 0xb
 5176 005f 01       		.uleb128 0x1
 5177 0060 13       		.uleb128 0x13
 5178 0061 00       		.byte	0
 5179 0062 00       		.byte	0
 5180 0063 0A       		.uleb128 0xa
 5181 0064 28       		.uleb128 0x28
 5182 0065 00       		.byte	0
 5183 0066 03       		.uleb128 0x3
 5184 0067 0E       		.uleb128 0xe
 5185 0068 1C       		.uleb128 0x1c
 5186 0069 0B       		.uleb128 0xb
 5187 006a 00       		.byte	0
ARM GAS  C:\Users\JENNEW~1\AppData\Local\Temp\ccW8Un4u.s 			page 99


 5188 006b 00       		.byte	0
 5189 006c 0B       		.uleb128 0xb
 5190 006d 13       		.uleb128 0x13
 5191 006e 01       		.byte	0x1
 5192 006f 0B       		.uleb128 0xb
 5193 0070 0B       		.uleb128 0xb
 5194 0071 3A       		.uleb128 0x3a
 5195 0072 0B       		.uleb128 0xb
 5196 0073 3B       		.uleb128 0x3b
 5197 0074 0B       		.uleb128 0xb
 5198 0075 01       		.uleb128 0x1
 5199 0076 13       		.uleb128 0x13
 5200 0077 00       		.byte	0
 5201 0078 00       		.byte	0
 5202 0079 0C       		.uleb128 0xc
 5203 007a 0D       		.uleb128 0xd
 5204 007b 00       		.byte	0
 5205 007c 03       		.uleb128 0x3
 5206 007d 08       		.uleb128 0x8
 5207 007e 3A       		.uleb128 0x3a
 5208 007f 0B       		.uleb128 0xb
 5209 0080 3B       		.uleb128 0x3b
 5210 0081 0B       		.uleb128 0xb
 5211 0082 49       		.uleb128 0x49
 5212 0083 13       		.uleb128 0x13
 5213 0084 38       		.uleb128 0x38
 5214 0085 0B       		.uleb128 0xb
 5215 0086 00       		.byte	0
 5216 0087 00       		.byte	0
 5217 0088 0D       		.uleb128 0xd
 5218 0089 0D       		.uleb128 0xd
 5219 008a 00       		.byte	0
 5220 008b 03       		.uleb128 0x3
 5221 008c 0E       		.uleb128 0xe
 5222 008d 3A       		.uleb128 0x3a
 5223 008e 0B       		.uleb128 0xb
 5224 008f 3B       		.uleb128 0x3b
 5225 0090 0B       		.uleb128 0xb
 5226 0091 49       		.uleb128 0x49
 5227 0092 13       		.uleb128 0x13
 5228 0093 38       		.uleb128 0x38
 5229 0094 0B       		.uleb128 0xb
 5230 0095 00       		.byte	0
 5231 0096 00       		.byte	0
 5232 0097 0E       		.uleb128 0xe
 5233 0098 15       		.uleb128 0x15
 5234 0099 01       		.byte	0x1
 5235 009a 27       		.uleb128 0x27
 5236 009b 19       		.uleb128 0x19
 5237 009c 01       		.uleb128 0x1
 5238 009d 13       		.uleb128 0x13
 5239 009e 00       		.byte	0
 5240 009f 00       		.byte	0
 5241 00a0 0F       		.uleb128 0xf
 5242 00a1 05       		.uleb128 0x5
 5243 00a2 00       		.byte	0
 5244 00a3 49       		.uleb128 0x49
ARM GAS  C:\Users\JENNEW~1\AppData\Local\Temp\ccW8Un4u.s 			page 100


 5245 00a4 13       		.uleb128 0x13
 5246 00a5 00       		.byte	0
 5247 00a6 00       		.byte	0
 5248 00a7 10       		.uleb128 0x10
 5249 00a8 15       		.uleb128 0x15
 5250 00a9 01       		.byte	0x1
 5251 00aa 27       		.uleb128 0x27
 5252 00ab 19       		.uleb128 0x19
 5253 00ac 49       		.uleb128 0x49
 5254 00ad 13       		.uleb128 0x13
 5255 00ae 01       		.uleb128 0x1
 5256 00af 13       		.uleb128 0x13
 5257 00b0 00       		.byte	0
 5258 00b1 00       		.byte	0
 5259 00b2 11       		.uleb128 0x11
 5260 00b3 13       		.uleb128 0x13
 5261 00b4 01       		.byte	0x1
 5262 00b5 0B       		.uleb128 0xb
 5263 00b6 05       		.uleb128 0x5
 5264 00b7 3A       		.uleb128 0x3a
 5265 00b8 0B       		.uleb128 0xb
 5266 00b9 3B       		.uleb128 0x3b
 5267 00ba 0B       		.uleb128 0xb
 5268 00bb 01       		.uleb128 0x1
 5269 00bc 13       		.uleb128 0x13
 5270 00bd 00       		.byte	0
 5271 00be 00       		.byte	0
 5272 00bf 12       		.uleb128 0x12
 5273 00c0 0D       		.uleb128 0xd
 5274 00c1 00       		.byte	0
 5275 00c2 03       		.uleb128 0x3
 5276 00c3 0E       		.uleb128 0xe
 5277 00c4 3A       		.uleb128 0x3a
 5278 00c5 0B       		.uleb128 0xb
 5279 00c6 3B       		.uleb128 0x3b
 5280 00c7 0B       		.uleb128 0xb
 5281 00c8 49       		.uleb128 0x49
 5282 00c9 13       		.uleb128 0x13
 5283 00ca 38       		.uleb128 0x38
 5284 00cb 05       		.uleb128 0x5
 5285 00cc 00       		.byte	0
 5286 00cd 00       		.byte	0
 5287 00ce 13       		.uleb128 0x13
 5288 00cf 01       		.uleb128 0x1
 5289 00d0 01       		.byte	0x1
 5290 00d1 49       		.uleb128 0x49
 5291 00d2 13       		.uleb128 0x13
 5292 00d3 01       		.uleb128 0x1
 5293 00d4 13       		.uleb128 0x13
 5294 00d5 00       		.byte	0
 5295 00d6 00       		.byte	0
 5296 00d7 14       		.uleb128 0x14
 5297 00d8 21       		.uleb128 0x21
 5298 00d9 00       		.byte	0
 5299 00da 49       		.uleb128 0x49
 5300 00db 13       		.uleb128 0x13
 5301 00dc 2F       		.uleb128 0x2f
ARM GAS  C:\Users\JENNEW~1\AppData\Local\Temp\ccW8Un4u.s 			page 101


 5302 00dd 0B       		.uleb128 0xb
 5303 00de 00       		.byte	0
 5304 00df 00       		.byte	0
 5305 00e0 15       		.uleb128 0x15
 5306 00e1 13       		.uleb128 0x13
 5307 00e2 01       		.byte	0x1
 5308 00e3 0B       		.uleb128 0xb
 5309 00e4 0B       		.uleb128 0xb
 5310 00e5 3A       		.uleb128 0x3a
 5311 00e6 0B       		.uleb128 0xb
 5312 00e7 3B       		.uleb128 0x3b
 5313 00e8 05       		.uleb128 0x5
 5314 00e9 01       		.uleb128 0x1
 5315 00ea 13       		.uleb128 0x13
 5316 00eb 00       		.byte	0
 5317 00ec 00       		.byte	0
 5318 00ed 16       		.uleb128 0x16
 5319 00ee 0D       		.uleb128 0xd
 5320 00ef 00       		.byte	0
 5321 00f0 03       		.uleb128 0x3
 5322 00f1 0E       		.uleb128 0xe
 5323 00f2 3A       		.uleb128 0x3a
 5324 00f3 0B       		.uleb128 0xb
 5325 00f4 3B       		.uleb128 0x3b
 5326 00f5 05       		.uleb128 0x5
 5327 00f6 49       		.uleb128 0x49
 5328 00f7 13       		.uleb128 0x13
 5329 00f8 38       		.uleb128 0x38
 5330 00f9 0B       		.uleb128 0xb
 5331 00fa 00       		.byte	0
 5332 00fb 00       		.byte	0
 5333 00fc 17       		.uleb128 0x17
 5334 00fd 16       		.uleb128 0x16
 5335 00fe 00       		.byte	0
 5336 00ff 03       		.uleb128 0x3
 5337 0100 0E       		.uleb128 0xe
 5338 0101 3A       		.uleb128 0x3a
 5339 0102 0B       		.uleb128 0xb
 5340 0103 3B       		.uleb128 0x3b
 5341 0104 05       		.uleb128 0x5
 5342 0105 49       		.uleb128 0x49
 5343 0106 13       		.uleb128 0x13
 5344 0107 00       		.byte	0
 5345 0108 00       		.byte	0
 5346 0109 18       		.uleb128 0x18
 5347 010a 2E       		.uleb128 0x2e
 5348 010b 01       		.byte	0x1
 5349 010c 03       		.uleb128 0x3
 5350 010d 0E       		.uleb128 0xe
 5351 010e 3A       		.uleb128 0x3a
 5352 010f 0B       		.uleb128 0xb
 5353 0110 3B       		.uleb128 0x3b
 5354 0111 0B       		.uleb128 0xb
 5355 0112 27       		.uleb128 0x27
 5356 0113 19       		.uleb128 0x19
 5357 0114 49       		.uleb128 0x49
 5358 0115 13       		.uleb128 0x13
ARM GAS  C:\Users\JENNEW~1\AppData\Local\Temp\ccW8Un4u.s 			page 102


 5359 0116 11       		.uleb128 0x11
 5360 0117 01       		.uleb128 0x1
 5361 0118 12       		.uleb128 0x12
 5362 0119 06       		.uleb128 0x6
 5363 011a 40       		.uleb128 0x40
 5364 011b 18       		.uleb128 0x18
 5365 011c 9642     		.uleb128 0x2116
 5366 011e 19       		.uleb128 0x19
 5367 011f 01       		.uleb128 0x1
 5368 0120 13       		.uleb128 0x13
 5369 0121 00       		.byte	0
 5370 0122 00       		.byte	0
 5371 0123 19       		.uleb128 0x19
 5372 0124 05       		.uleb128 0x5
 5373 0125 00       		.byte	0
 5374 0126 03       		.uleb128 0x3
 5375 0127 08       		.uleb128 0x8
 5376 0128 3A       		.uleb128 0x3a
 5377 0129 0B       		.uleb128 0xb
 5378 012a 3B       		.uleb128 0x3b
 5379 012b 0B       		.uleb128 0xb
 5380 012c 49       		.uleb128 0x49
 5381 012d 13       		.uleb128 0x13
 5382 012e 02       		.uleb128 0x2
 5383 012f 18       		.uleb128 0x18
 5384 0130 00       		.byte	0
 5385 0131 00       		.byte	0
 5386 0132 1A       		.uleb128 0x1a
 5387 0133 2E       		.uleb128 0x2e
 5388 0134 01       		.byte	0x1
 5389 0135 3F       		.uleb128 0x3f
 5390 0136 19       		.uleb128 0x19
 5391 0137 03       		.uleb128 0x3
 5392 0138 0E       		.uleb128 0xe
 5393 0139 3A       		.uleb128 0x3a
 5394 013a 0B       		.uleb128 0xb
 5395 013b 3B       		.uleb128 0x3b
 5396 013c 0B       		.uleb128 0xb
 5397 013d 27       		.uleb128 0x27
 5398 013e 19       		.uleb128 0x19
 5399 013f 11       		.uleb128 0x11
 5400 0140 01       		.uleb128 0x1
 5401 0141 12       		.uleb128 0x12
 5402 0142 06       		.uleb128 0x6
 5403 0143 40       		.uleb128 0x40
 5404 0144 18       		.uleb128 0x18
 5405 0145 9642     		.uleb128 0x2116
 5406 0147 19       		.uleb128 0x19
 5407 0148 01       		.uleb128 0x1
 5408 0149 13       		.uleb128 0x13
 5409 014a 00       		.byte	0
 5410 014b 00       		.byte	0
 5411 014c 1B       		.uleb128 0x1b
 5412 014d 34       		.uleb128 0x34
 5413 014e 00       		.byte	0
 5414 014f 03       		.uleb128 0x3
 5415 0150 08       		.uleb128 0x8
ARM GAS  C:\Users\JENNEW~1\AppData\Local\Temp\ccW8Un4u.s 			page 103


 5416 0151 3A       		.uleb128 0x3a
 5417 0152 0B       		.uleb128 0xb
 5418 0153 3B       		.uleb128 0x3b
 5419 0154 0B       		.uleb128 0xb
 5420 0155 49       		.uleb128 0x49
 5421 0156 13       		.uleb128 0x13
 5422 0157 02       		.uleb128 0x2
 5423 0158 18       		.uleb128 0x18
 5424 0159 00       		.byte	0
 5425 015a 00       		.byte	0
 5426 015b 1C       		.uleb128 0x1c
 5427 015c 2E       		.uleb128 0x2e
 5428 015d 01       		.byte	0x1
 5429 015e 03       		.uleb128 0x3
 5430 015f 0E       		.uleb128 0xe
 5431 0160 3A       		.uleb128 0x3a
 5432 0161 0B       		.uleb128 0xb
 5433 0162 3B       		.uleb128 0x3b
 5434 0163 05       		.uleb128 0x5
 5435 0164 27       		.uleb128 0x27
 5436 0165 19       		.uleb128 0x19
 5437 0166 49       		.uleb128 0x49
 5438 0167 13       		.uleb128 0x13
 5439 0168 11       		.uleb128 0x11
 5440 0169 01       		.uleb128 0x1
 5441 016a 12       		.uleb128 0x12
 5442 016b 06       		.uleb128 0x6
 5443 016c 40       		.uleb128 0x40
 5444 016d 18       		.uleb128 0x18
 5445 016e 9642     		.uleb128 0x2116
 5446 0170 19       		.uleb128 0x19
 5447 0171 01       		.uleb128 0x1
 5448 0172 13       		.uleb128 0x13
 5449 0173 00       		.byte	0
 5450 0174 00       		.byte	0
 5451 0175 1D       		.uleb128 0x1d
 5452 0176 05       		.uleb128 0x5
 5453 0177 00       		.byte	0
 5454 0178 03       		.uleb128 0x3
 5455 0179 08       		.uleb128 0x8
 5456 017a 3A       		.uleb128 0x3a
 5457 017b 0B       		.uleb128 0xb
 5458 017c 3B       		.uleb128 0x3b
 5459 017d 05       		.uleb128 0x5
 5460 017e 49       		.uleb128 0x49
 5461 017f 13       		.uleb128 0x13
 5462 0180 02       		.uleb128 0x2
 5463 0181 18       		.uleb128 0x18
 5464 0182 00       		.byte	0
 5465 0183 00       		.byte	0
 5466 0184 1E       		.uleb128 0x1e
 5467 0185 34       		.uleb128 0x34
 5468 0186 00       		.byte	0
 5469 0187 03       		.uleb128 0x3
 5470 0188 08       		.uleb128 0x8
 5471 0189 3A       		.uleb128 0x3a
 5472 018a 0B       		.uleb128 0xb
ARM GAS  C:\Users\JENNEW~1\AppData\Local\Temp\ccW8Un4u.s 			page 104


 5473 018b 3B       		.uleb128 0x3b
 5474 018c 05       		.uleb128 0x5
 5475 018d 49       		.uleb128 0x49
 5476 018e 13       		.uleb128 0x13
 5477 018f 02       		.uleb128 0x2
 5478 0190 18       		.uleb128 0x18
 5479 0191 00       		.byte	0
 5480 0192 00       		.byte	0
 5481 0193 1F       		.uleb128 0x1f
 5482 0194 2E       		.uleb128 0x2e
 5483 0195 01       		.byte	0x1
 5484 0196 3F       		.uleb128 0x3f
 5485 0197 19       		.uleb128 0x19
 5486 0198 03       		.uleb128 0x3
 5487 0199 0E       		.uleb128 0xe
 5488 019a 3A       		.uleb128 0x3a
 5489 019b 0B       		.uleb128 0xb
 5490 019c 3B       		.uleb128 0x3b
 5491 019d 05       		.uleb128 0x5
 5492 019e 27       		.uleb128 0x27
 5493 019f 19       		.uleb128 0x19
 5494 01a0 11       		.uleb128 0x11
 5495 01a1 01       		.uleb128 0x1
 5496 01a2 12       		.uleb128 0x12
 5497 01a3 06       		.uleb128 0x6
 5498 01a4 40       		.uleb128 0x40
 5499 01a5 18       		.uleb128 0x18
 5500 01a6 9642     		.uleb128 0x2116
 5501 01a8 19       		.uleb128 0x19
 5502 01a9 01       		.uleb128 0x1
 5503 01aa 13       		.uleb128 0x13
 5504 01ab 00       		.byte	0
 5505 01ac 00       		.byte	0
 5506 01ad 20       		.uleb128 0x20
 5507 01ae 34       		.uleb128 0x34
 5508 01af 00       		.byte	0
 5509 01b0 03       		.uleb128 0x3
 5510 01b1 0E       		.uleb128 0xe
 5511 01b2 3A       		.uleb128 0x3a
 5512 01b3 0B       		.uleb128 0xb
 5513 01b4 3B       		.uleb128 0x3b
 5514 01b5 05       		.uleb128 0x5
 5515 01b6 49       		.uleb128 0x49
 5516 01b7 13       		.uleb128 0x13
 5517 01b8 02       		.uleb128 0x2
 5518 01b9 18       		.uleb128 0x18
 5519 01ba 00       		.byte	0
 5520 01bb 00       		.byte	0
 5521 01bc 21       		.uleb128 0x21
 5522 01bd 0B       		.uleb128 0xb
 5523 01be 01       		.byte	0x1
 5524 01bf 11       		.uleb128 0x11
 5525 01c0 01       		.uleb128 0x1
 5526 01c1 12       		.uleb128 0x12
 5527 01c2 06       		.uleb128 0x6
 5528 01c3 00       		.byte	0
 5529 01c4 00       		.byte	0
ARM GAS  C:\Users\JENNEW~1\AppData\Local\Temp\ccW8Un4u.s 			page 105


 5530 01c5 22       		.uleb128 0x22
 5531 01c6 34       		.uleb128 0x34
 5532 01c7 00       		.byte	0
 5533 01c8 03       		.uleb128 0x3
 5534 01c9 0E       		.uleb128 0xe
 5535 01ca 3A       		.uleb128 0x3a
 5536 01cb 0B       		.uleb128 0xb
 5537 01cc 3B       		.uleb128 0x3b
 5538 01cd 05       		.uleb128 0x5
 5539 01ce 49       		.uleb128 0x49
 5540 01cf 13       		.uleb128 0x13
 5541 01d0 3F       		.uleb128 0x3f
 5542 01d1 19       		.uleb128 0x19
 5543 01d2 3C       		.uleb128 0x3c
 5544 01d3 19       		.uleb128 0x19
 5545 01d4 00       		.byte	0
 5546 01d5 00       		.byte	0
 5547 01d6 23       		.uleb128 0x23
 5548 01d7 34       		.uleb128 0x34
 5549 01d8 00       		.byte	0
 5550 01d9 03       		.uleb128 0x3
 5551 01da 0E       		.uleb128 0xe
 5552 01db 3A       		.uleb128 0x3a
 5553 01dc 0B       		.uleb128 0xb
 5554 01dd 3B       		.uleb128 0x3b
 5555 01de 0B       		.uleb128 0xb
 5556 01df 49       		.uleb128 0x49
 5557 01e0 13       		.uleb128 0x13
 5558 01e1 3F       		.uleb128 0x3f
 5559 01e2 19       		.uleb128 0x19
 5560 01e3 3C       		.uleb128 0x3c
 5561 01e4 19       		.uleb128 0x19
 5562 01e5 00       		.byte	0
 5563 01e6 00       		.byte	0
 5564 01e7 00       		.byte	0
 5565              		.section	.debug_aranges,"",%progbits
 5566 0000 DC000000 		.4byte	0xdc
 5567 0004 0200     		.2byte	0x2
 5568 0006 00000000 		.4byte	.Ldebug_info0
 5569 000a 04       		.byte	0x4
 5570 000b 00       		.byte	0
 5571 000c 0000     		.2byte	0
 5572 000e 0000     		.2byte	0
 5573 0010 00000000 		.4byte	.LFB63
 5574 0014 4C000000 		.4byte	.LFE63-.LFB63
 5575 0018 00000000 		.4byte	.LFB64
 5576 001c 42000000 		.4byte	.LFE64-.LFB64
 5577 0020 00000000 		.4byte	.LFB65
 5578 0024 48000000 		.4byte	.LFE65-.LFB65
 5579 0028 00000000 		.4byte	.LFB66
 5580 002c 64010000 		.4byte	.LFE66-.LFB66
 5581 0030 00000000 		.4byte	.LFB67
 5582 0034 64000000 		.4byte	.LFE67-.LFB67
 5583 0038 00000000 		.4byte	.LFB68
 5584 003c C0000000 		.4byte	.LFE68-.LFB68
 5585 0040 00000000 		.4byte	.LFB69
 5586 0044 80000000 		.4byte	.LFE69-.LFB69
ARM GAS  C:\Users\JENNEW~1\AppData\Local\Temp\ccW8Un4u.s 			page 106


 5587 0048 00000000 		.4byte	.LFB70
 5588 004c A8000000 		.4byte	.LFE70-.LFB70
 5589 0050 00000000 		.4byte	.LFB71
 5590 0054 90000000 		.4byte	.LFE71-.LFB71
 5591 0058 00000000 		.4byte	.LFB72
 5592 005c CC000000 		.4byte	.LFE72-.LFB72
 5593 0060 00000000 		.4byte	.LFB73
 5594 0064 1C010000 		.4byte	.LFE73-.LFB73
 5595 0068 00000000 		.4byte	.LFB74
 5596 006c 94000000 		.4byte	.LFE74-.LFB74
 5597 0070 00000000 		.4byte	.LFB75
 5598 0074 9C000000 		.4byte	.LFE75-.LFB75
 5599 0078 00000000 		.4byte	.LFB76
 5600 007c 58000000 		.4byte	.LFE76-.LFB76
 5601 0080 00000000 		.4byte	.LFB77
 5602 0084 E8000000 		.4byte	.LFE77-.LFB77
 5603 0088 00000000 		.4byte	.LFB78
 5604 008c 64000000 		.4byte	.LFE78-.LFB78
 5605 0090 00000000 		.4byte	.LFB79
 5606 0094 8C000000 		.4byte	.LFE79-.LFB79
 5607 0098 00000000 		.4byte	.LFB80
 5608 009c 42000000 		.4byte	.LFE80-.LFB80
 5609 00a0 00000000 		.4byte	.LFB81
 5610 00a4 42000000 		.4byte	.LFE81-.LFB81
 5611 00a8 00000000 		.4byte	.LFB82
 5612 00ac 42000000 		.4byte	.LFE82-.LFB82
 5613 00b0 00000000 		.4byte	.LFB83
 5614 00b4 42000000 		.4byte	.LFE83-.LFB83
 5615 00b8 00000000 		.4byte	.LFB84
 5616 00bc 42000000 		.4byte	.LFE84-.LFB84
 5617 00c0 00000000 		.4byte	.LFB85
 5618 00c4 42000000 		.4byte	.LFE85-.LFB85
 5619 00c8 00000000 		.4byte	.LFB86
 5620 00cc 42000000 		.4byte	.LFE86-.LFB86
 5621 00d0 00000000 		.4byte	.LFB87
 5622 00d4 D8000000 		.4byte	.LFE87-.LFB87
 5623 00d8 00000000 		.4byte	0
 5624 00dc 00000000 		.4byte	0
 5625              		.section	.debug_ranges,"",%progbits
 5626              	.Ldebug_ranges0:
 5627 0000 00000000 		.4byte	.LFB63
 5628 0004 4C000000 		.4byte	.LFE63
 5629 0008 00000000 		.4byte	.LFB64
 5630 000c 42000000 		.4byte	.LFE64
 5631 0010 00000000 		.4byte	.LFB65
 5632 0014 48000000 		.4byte	.LFE65
 5633 0018 00000000 		.4byte	.LFB66
 5634 001c 64010000 		.4byte	.LFE66
 5635 0020 00000000 		.4byte	.LFB67
 5636 0024 64000000 		.4byte	.LFE67
 5637 0028 00000000 		.4byte	.LFB68
 5638 002c C0000000 		.4byte	.LFE68
 5639 0030 00000000 		.4byte	.LFB69
 5640 0034 80000000 		.4byte	.LFE69
 5641 0038 00000000 		.4byte	.LFB70
 5642 003c A8000000 		.4byte	.LFE70
 5643 0040 00000000 		.4byte	.LFB71
ARM GAS  C:\Users\JENNEW~1\AppData\Local\Temp\ccW8Un4u.s 			page 107


 5644 0044 90000000 		.4byte	.LFE71
 5645 0048 00000000 		.4byte	.LFB72
 5646 004c CC000000 		.4byte	.LFE72
 5647 0050 00000000 		.4byte	.LFB73
 5648 0054 1C010000 		.4byte	.LFE73
 5649 0058 00000000 		.4byte	.LFB74
 5650 005c 94000000 		.4byte	.LFE74
 5651 0060 00000000 		.4byte	.LFB75
 5652 0064 9C000000 		.4byte	.LFE75
 5653 0068 00000000 		.4byte	.LFB76
 5654 006c 58000000 		.4byte	.LFE76
 5655 0070 00000000 		.4byte	.LFB77
 5656 0074 E8000000 		.4byte	.LFE77
 5657 0078 00000000 		.4byte	.LFB78
 5658 007c 64000000 		.4byte	.LFE78
 5659 0080 00000000 		.4byte	.LFB79
 5660 0084 8C000000 		.4byte	.LFE79
 5661 0088 00000000 		.4byte	.LFB80
 5662 008c 42000000 		.4byte	.LFE80
 5663 0090 00000000 		.4byte	.LFB81
 5664 0094 42000000 		.4byte	.LFE81
 5665 0098 00000000 		.4byte	.LFB82
 5666 009c 42000000 		.4byte	.LFE82
 5667 00a0 00000000 		.4byte	.LFB83
 5668 00a4 42000000 		.4byte	.LFE83
 5669 00a8 00000000 		.4byte	.LFB84
 5670 00ac 42000000 		.4byte	.LFE84
 5671 00b0 00000000 		.4byte	.LFB85
 5672 00b4 42000000 		.4byte	.LFE85
 5673 00b8 00000000 		.4byte	.LFB86
 5674 00bc 42000000 		.4byte	.LFE86
 5675 00c0 00000000 		.4byte	.LFB87
 5676 00c4 D8000000 		.4byte	.LFE87
 5677 00c8 00000000 		.4byte	0
 5678 00cc 00000000 		.4byte	0
 5679              		.section	.debug_line,"",%progbits
 5680              	.Ldebug_line0:
 5681 0000 BF050000 		.section	.debug_str,"MS",%progbits,1
 5681      02007C02 
 5681      00000201 
 5681      FB0E0D00 
 5681      01010101 
 5682              	.LASF147:
 5683 0000 68616D66 		.ascii	"hamfly_gimbal_t\000"
 5683      6C795F67 
 5683      696D6261 
 5683      6C5F7400 
 5684              	.LASF208:
 5685 0010 6372635F 		.ascii	"crc_fail\000"
 5685      6661696C 
 5685      00
 5686              	.LASF50:
 5687 0019 67696D62 		.ascii	"gimbal_status1\000"
 5687      616C5F73 
 5687      74617475 
 5687      733100
 5688              	.LASF15:
ARM GAS  C:\Users\JENNEW~1\AppData\Local\Temp\ccW8Un4u.s 			page 108


 5689 0028 696E7438 		.ascii	"int8_t\000"
 5689      5F7400
 5690              	.LASF24:
 5691 002f 73697A65 		.ascii	"size_t\000"
 5691      5F7400
 5692              	.LASF111:
 5693 0036 73797365 		.ascii	"sysecho_valid\000"
 5693      63686F5F 
 5693      76616C69 
 5693      6400
 5694              	.LASF26:
 5695 0044 73697A65 		.ascii	"sizetype\000"
 5695      74797065 
 5695      00
 5696              	.LASF257:
 5697 004d 656E636F 		.ascii	"encode_link\000"
 5697      64655F6C 
 5697      696E6B00 
 5698              	.LASF258:
 5699 0059 656E636F 		.ascii	"encode_power\000"
 5699      64655F70 
 5699      6F776572 
 5699      00
 5700              	.LASF118:
 5701 0066 7461696C 		.ascii	"tail\000"
 5701      00
 5702              	.LASF225:
 5703 006b 7261775F 		.ascii	"raw_lat\000"
 5703      6C617400 
 5704              	.LASF161:
 5705 0073 4155544F 		.ascii	"AUTO_HOME\000"
 5705      5F484F4D 
 5705      4500
 5706              	.LASF141:
 5707 007d 70656E64 		.ascii	"pending_sent_ms\000"
 5707      696E675F 
 5707      73656E74 
 5707      5F6D7300 
 5708              	.LASF153:
 5709 008d 524F4F54 		.ascii	"ROOT\000"
 5709      00
 5710              	.LASF19:
 5711 0092 696E7433 		.ascii	"int32_t\000"
 5711      325F7400 
 5712              	.LASF244:
 5713 009a 6C617374 		.ascii	"last_request_ms\000"
 5713      5F726571 
 5713      75657374 
 5713      5F6D7300 
 5714              	.LASF205:
 5715 00aa 696E7075 		.ascii	"input_tilt\000"
 5715      745F7469 
 5715      6C7400
 5716              	.LASF253:
 5717 00b5 74656C65 		.ascii	"telemetry_collect_gps\000"
 5717      6D657472 
 5717      795F636F 
ARM GAS  C:\Users\JENNEW~1\AppData\Local\Temp\ccW8Un4u.s 			page 109


 5717      6C6C6563 
 5717      745F6770 
 5718              	.LASF174:
 5719 00cb 6572725F 		.ascii	"err_sev_t\000"
 5719      7365765F 
 5719      7400
 5720              	.LASF75:
 5721 00d5 6174745F 		.ascii	"att_pitch_deg\000"
 5721      70697463 
 5721      685F6465 
 5721      6700
 5722              	.LASF251:
 5723 00e3 74656C65 		.ascii	"telemetry_collect_power\000"
 5723      6D657472 
 5723      795F636F 
 5723      6C6C6563 
 5723      745F706F 
 5724              	.LASF142:
 5725 00fb 70656E64 		.ascii	"pending_ready\000"
 5725      696E675F 
 5725      72656164 
 5725      7900
 5726              	.LASF39:
 5727 0109 68616D66 		.ascii	"hamfly_control_t\000"
 5727      6C795F63 
 5727      6F6E7472 
 5727      6F6C5F74 
 5727      00
 5728              	.LASF88:
 5729 011a 666C6167 		.ascii	"flag_gps_locked\000"
 5729      5F677073 
 5729      5F6C6F63 
 5729      6B656400 
 5730              	.LASF241:
 5731 012a 74656C65 		.ascii	"telem_mag_t\000"
 5731      6D5F6D61 
 5731      675F7400 
 5732              	.LASF181:
 5733 0136 6374726C 		.ascii	"ctrl_mode\000"
 5733      5F6D6F64 
 5733      6500
 5734              	.LASF176:
 5735 0140 73746174 		.ascii	"state\000"
 5735      6500
 5736              	.LASF191:
 5737 0146 73656E73 		.ascii	"sense\000"
 5737      6500
 5738              	.LASF263:
 5739 014c 74656C65 		.ascii	"telemetry_send_hot_sbc\000"
 5739      6D657472 
 5739      795F7365 
 5739      6E645F68 
 5739      6F745F73 
 5740              	.LASF67:
 5741 0163 6770735F 		.ascii	"gps_raw_hacc\000"
 5741      7261775F 
 5741      68616363 
ARM GAS  C:\Users\JENNEW~1\AppData\Local\Temp\ccW8Un4u.s 			page 110


 5741      00
 5742              	.LASF207:
 5743 0170 74656C65 		.ascii	"telem_hot_t\000"
 5743      6D5F686F 
 5743      745F7400 
 5744              	.LASF52:
 5745 017c 6770735F 		.ascii	"gps_valid\000"
 5745      76616C69 
 5745      6400
 5746              	.LASF209:
 5747 0186 75617274 		.ascii	"uart_err\000"
 5747      5F657272 
 5747      00
 5748              	.LASF164:
 5749 018f 4155544F 		.ascii	"AUTO_TRACKING\000"
 5749      5F545241 
 5749      434B494E 
 5749      4700
 5750              	.LASF203:
 5751 019d 6374726C 		.ascii	"ctrl_mode_roll\000"
 5751      5F6D6F64 
 5751      655F726F 
 5751      6C6C00
 5752              	.LASF172:
 5753 01ac 5345565F 		.ascii	"SEV_SOFTWARE\000"
 5753      534F4654 
 5753      57415245 
 5753      00
 5754              	.LASF99:
 5755 01b9 73797373 		.ascii	"sysstat_batt_a\000"
 5755      7461745F 
 5755      62617474 
 5755      5F6100
 5756              	.LASF259:
 5757 01c8 656E636F 		.ascii	"encode_env\000"
 5757      64655F65 
 5757      6E7600
 5758              	.LASF47:
 5759 01d3 67696D62 		.ascii	"gimbal_i\000"
 5759      616C5F69 
 5759      00
 5760              	.LASF48:
 5761 01dc 67696D62 		.ascii	"gimbal_j\000"
 5761      616C5F6A 
 5761      00
 5762              	.LASF1:
 5763 01e5 5F5F7569 		.ascii	"__uint8_t\000"
 5763      6E74385F 
 5763      7400
 5764              	.LASF89:
 5765 01ef 73797373 		.ascii	"sysstat_batt_v\000"
 5765      7461745F 
 5765      62617474 
 5765      5F7600
 5766              	.LASF46:
 5767 01fe 67696D62 		.ascii	"gimbal_r\000"
 5767      616C5F72 
ARM GAS  C:\Users\JENNEW~1\AppData\Local\Temp\ccW8Un4u.s 			page 111


 5767      00
 5768              	.LASF267:
 5769 0207 74656C65 		.ascii	"telemetry_send_gps_sbc\000"
 5769      6D657472 
 5769      795F7365 
 5769      6E645F67 
 5769      70735F73 
 5770              	.LASF128:
 5771 021e 74785F62 		.ascii	"tx_bytes\000"
 5771      79746573 
 5771      00
 5772              	.LASF132:
 5773 0227 72786275 		.ascii	"rxbuf_drops\000"
 5773      665F6472 
 5773      6F707300 
 5774              	.LASF54:
 5775 0233 6770735F 		.ascii	"gps_lat_deg\000"
 5775      6C61745F 
 5775      64656700 
 5776              	.LASF202:
 5777 023f 6374726C 		.ascii	"ctrl_mode_tilt\000"
 5777      5F6D6F64 
 5777      655F7469 
 5777      6C7400
 5778              	.LASF9:
 5779 024e 6C6F6E67 		.ascii	"long int\000"
 5779      20696E74 
 5779      00
 5780              	.LASF186:
 5781 0257 6F726967 		.ascii	"origin_set\000"
 5781      696E5F73 
 5781      657400
 5782              	.LASF218:
 5783 0262 6D63755F 		.ascii	"mcu_temp_c\000"
 5783      74656D70 
 5783      5F6300
 5784              	.LASF68:
 5785 026d 6770735F 		.ascii	"gps_raw_vacc\000"
 5785      7261775F 
 5785      76616363 
 5785      00
 5786              	.LASF162:
 5787 027a 4155544F 		.ascii	"AUTO_ACQ_GPS\000"
 5787      5F414351 
 5787      5F475053 
 5787      00
 5788              	.LASF145:
 5789 0287 70656E64 		.ascii	"pending_payload\000"
 5789      696E675F 
 5789      7061796C 
 5789      6F616400 
 5790              	.LASF100:
 5791 0297 73797373 		.ascii	"sysstat_charge_mah\000"
 5791      7461745F 
 5791      63686172 
 5791      67655F6D 
 5791      616800
ARM GAS  C:\Users\JENNEW~1\AppData\Local\Temp\ccW8Un4u.s 			page 112


 5792              	.LASF138:
 5793 02aa 74786275 		.ascii	"txbuf\000"
 5793      6600
 5794              	.LASF49:
 5795 02b0 67696D62 		.ascii	"gimbal_k\000"
 5795      616C5F6B 
 5795      00
 5796              	.LASF91:
 5797 02b9 73797373 		.ascii	"sysstat_temp_c\000"
 5797      7461745F 
 5797      74656D70 
 5797      5F6300
 5798              	.LASF117:
 5799 02c8 68656164 		.ascii	"head\000"
 5799      00
 5800              	.LASF171:
 5801 02cd 5345565F 		.ascii	"SEV_WARN\000"
 5801      5741524E 
 5801      00
 5802              	.LASF239:
 5803 02d6 7A5F7261 		.ascii	"z_raw\000"
 5803      7700
 5804              	.LASF216:
 5805 02dc 73797373 		.ascii	"sysstat_batt_mv\000"
 5805      7461745F 
 5805      62617474 
 5805      5F6D7600 
 5806              	.LASF56:
 5807 02ec 6770735F 		.ascii	"gps_alt_m\000"
 5807      616C745F 
 5807      6D00
 5808              	.LASF126:
 5809 02f6 48414D46 		.ascii	"HAMFLY_ERR_BAD_STATE\000"
 5809      4C595F45 
 5809      52525F42 
 5809      41445F53 
 5809      54415445 
 5810              	.LASF2:
 5811 030b 7369676E 		.ascii	"signed char\000"
 5811      65642063 
 5811      68617200 
 5812              	.LASF16:
 5813 0317 75696E74 		.ascii	"uint8_t\000"
 5813      385F7400 
 5814              	.LASF177:
 5815 031f 70726576 		.ascii	"prev_leaf\000"
 5815      5F6C6561 
 5815      6600
 5816              	.LASF266:
 5817 0329 74656C65 		.ascii	"telemetry_send_env_sbc\000"
 5817      6D657472 
 5817      795F7365 
 5817      6E645F65 
 5817      6E765F73 
 5818              	.LASF175:
 5819 0340 67696D62 		.ascii	"gimbal\000"
 5819      616C00
ARM GAS  C:\Users\JENNEW~1\AppData\Local\Temp\ccW8Un4u.s 			page 113


 5820              	.LASF249:
 5821 0347 74656C65 		.ascii	"telemetry_collect_hot\000"
 5821      6D657472 
 5821      795F636F 
 5821      6C6C6563 
 5821      745F686F 
 5822              	.LASF120:
 5823 035d 68616D66 		.ascii	"hamfly_rb_t\000"
 5823      6C795F72 
 5823      625F7400 
 5824              	.LASF264:
 5825 0369 74656C65 		.ascii	"telemetry_send_link_sbc\000"
 5825      6D657472 
 5825      795F7365 
 5825      6E645F6C 
 5825      696E6B5F 
 5826              	.LASF3:
 5827 0381 756E7369 		.ascii	"unsigned char\000"
 5827      676E6564 
 5827      20636861 
 5827      7200
 5828              	.LASF166:
 5829 038f 4155544F 		.ascii	"AUTO_NO_LOCK\000"
 5829      5F4E4F5F 
 5829      4C4F434B 
 5829      00
 5830              	.LASF206:
 5831 039c 696E7075 		.ascii	"input_roll\000"
 5831      745F726F 
 5831      6C6C00
 5832              	.LASF129:
 5833 03a7 72785F70 		.ascii	"rx_packets\000"
 5833      61636B65 
 5833      747300
 5834              	.LASF195:
 5835 03b2 6E756467 		.ascii	"nudge_base_pan_deg\000"
 5835      655F6261 
 5835      73655F70 
 5835      616E5F64 
 5835      656700
 5836              	.LASF159:
 5837 03c5 53544259 		.ascii	"STBY_HOLD\000"
 5837      5F484F4C 
 5837      4400
 5838              	.LASF123:
 5839 03cf 48414D46 		.ascii	"HAMFLY_ERR_ENCODE\000"
 5839      4C595F45 
 5839      52525F45 
 5839      4E434F44 
 5839      4500
 5840              	.LASF165:
 5841 03e1 4155544F 		.ascii	"AUTO_LOSS\000"
 5841      5F4C4F53 
 5841      5300
 5842              	.LASF115:
 5843 03eb 5F426F6F 		.ascii	"_Bool\000"
 5843      6C00
ARM GAS  C:\Users\JENNEW~1\AppData\Local\Temp\ccW8Un4u.s 			page 114


 5844              	.LASF28:
 5845 03f1 48414D46 		.ascii	"HAMFLY_RATE\000"
 5845      4C595F52 
 5845      41544500 
 5846              	.LASF199:
 5847 03fd 6170705F 		.ascii	"app_ctx_t\000"
 5847      6374785F 
 5847      7400
 5848              	.LASF271:
 5849 0407 63686F73 		.ascii	"chosen\000"
 5849      656E00
 5850              	.LASF23:
 5851 040e 63686172 		.ascii	"char\000"
 5851      00
 5852              	.LASF74:
 5853 0413 6174745F 		.ascii	"att_timestamp_ms\000"
 5853      74696D65 
 5853      7374616D 
 5853      705F6D73 
 5853      00
 5854              	.LASF77:
 5855 0424 6174745F 		.ascii	"att_roll_deg\000"
 5855      726F6C6C 
 5855      5F646567 
 5855      00
 5856              	.LASF87:
 5857 0431 666C6167 		.ascii	"flag_radio_los\000"
 5857      5F726164 
 5857      696F5F6C 
 5857      6F7300
 5858              	.LASF6:
 5859 0440 5F5F7569 		.ascii	"__uint16_t\000"
 5859      6E743136 
 5859      5F7400
 5860              	.LASF105:
 5861 044b 6D61675F 		.ascii	"mag_magnitude\000"
 5861      6D61676E 
 5861      69747564 
 5861      6500
 5862              	.LASF262:
 5863 0459 656E636F 		.ascii	"encode_mag\000"
 5863      64655F6D 
 5863      616700
 5864              	.LASF223:
 5865 0464 666C6167 		.ascii	"flags\000"
 5865      7300
 5866              	.LASF268:
 5867 046a 74656C65 		.ascii	"telemetry_send_baro_sbc\000"
 5867      6D657472 
 5867      795F7365 
 5867      6E645F62 
 5867      61726F5F 
 5868              	.LASF101:
 5869 0482 6D61675F 		.ascii	"mag_valid\000"
 5869      76616C69 
 5869      6400
 5870              	.LASF229:
ARM GAS  C:\Users\JENNEW~1\AppData\Local\Temp\ccW8Un4u.s 			page 115


 5871 048c 7261775F 		.ascii	"raw_hdg\000"
 5871      68646700 
 5872              	.LASF232:
 5873 0494 73616363 		.ascii	"sacc\000"
 5873      00
 5874              	.LASF275:
 5875 0499 675F7469 		.ascii	"g_tick_ms\000"
 5875      636B5F6D 
 5875      7300
 5876              	.LASF45:
 5877 04a3 62617474 		.ascii	"battery_right_v\000"
 5877      6572795F 
 5877      72696768 
 5877      745F7600 
 5878              	.LASF246:
 5879 04b3 7361745F 		.ascii	"sat_i16\000"
 5879      69313600 
 5880              	.LASF149:
 5881 04bb 53454E53 		.ascii	"SENSE_MED\000"
 5881      455F4D45 
 5881      4400
 5882              	.LASF86:
 5883 04c5 666C6167 		.ascii	"flag_gps_los\000"
 5883      5F677073 
 5883      5F6C6F73 
 5883      00
 5884              	.LASF254:
 5885 04d2 74656C65 		.ascii	"telemetry_collect_baro\000"
 5885      6D657472 
 5885      795F636F 
 5885      6C6C6563 
 5885      745F6261 
 5886              	.LASF219:
 5887 04e9 74656C65 		.ascii	"telem_power_t\000"
 5887      6D5F706F 
 5887      7765725F 
 5887      7400
 5888              	.LASF79:
 5889 04f7 6174745F 		.ascii	"att_yaw_rate_dps\000"
 5889      7961775F 
 5889      72617465 
 5889      5F647073 
 5889      00
 5890              	.LASF134:
 5891 0508 68616D66 		.ascii	"hamfly_statistics_t\000"
 5891      6C795F73 
 5891      74617469 
 5891      73746963 
 5891      735F7400 
 5892              	.LASF57:
 5893 051c 6770735F 		.ascii	"gps_ground_spd_ms\000"
 5893      67726F75 
 5893      6E645F73 
 5893      70645F6D 
 5893      7300
 5894              	.LASF94:
 5895 052e 73797373 		.ascii	"sysstat_time_s\000"
ARM GAS  C:\Users\JENNEW~1\AppData\Local\Temp\ccW8Un4u.s 			page 116


 5895      7461745F 
 5895      74696D65 
 5895      5F7300
 5896              	.LASF131:
 5897 053d 72785F62 		.ascii	"rx_bad_checksum\000"
 5897      61645F63 
 5897      6865636B 
 5897      73756D00 
 5898              	.LASF215:
 5899 054d 76626174 		.ascii	"vbat_right_mv\000"
 5899      5F726967 
 5899      68745F6D 
 5899      7600
 5900              	.LASF60:
 5901 055b 6770735F 		.ascii	"gps_vacc_m\000"
 5901      76616363 
 5901      5F6D00
 5902              	.LASF65:
 5903 0566 6770735F 		.ascii	"gps_raw_spd\000"
 5903      7261775F 
 5903      73706400 
 5904              	.LASF133:
 5905 0572 75617274 		.ascii	"uart_err_flags\000"
 5905      5F657272 
 5905      5F666C61 
 5905      677300
 5906              	.LASF143:
 5907 0581 70656E64 		.ascii	"pending_response_attr\000"
 5907      696E675F 
 5907      72657370 
 5907      6F6E7365 
 5907      5F617474 
 5908              	.LASF90:
 5909 0597 73797373 		.ascii	"sysstat_gps_sats\000"
 5909      7461745F 
 5909      6770735F 
 5909      73617473 
 5909      00
 5910              	.LASF73:
 5911 05a8 6174745F 		.ascii	"att_valid\000"
 5911      76616C69 
 5911      6400
 5912              	.LASF185:
 5913 05b2 6F726967 		.ascii	"origin_tilt_deg\000"
 5913      696E5F74 
 5913      696C745F 
 5913      64656700 
 5914              	.LASF170:
 5915 05c2 5345565F 		.ascii	"SEV_USER\000"
 5915      55534552 
 5915      00
 5916              	.LASF139:
 5917 05cb 67696D62 		.ascii	"gimbal_id\000"
 5917      616C5F69 
 5917      6400
 5918              	.LASF107:
 5919 05d5 6D61675F 		.ascii	"mag_off_x\000"
ARM GAS  C:\Users\JENNEW~1\AppData\Local\Temp\ccW8Un4u.s 			page 117


 5919      6F66665F 
 5919      7800
 5920              	.LASF108:
 5921 05df 6D61675F 		.ascii	"mag_off_y\000"
 5921      6F66665F 
 5921      7900
 5922              	.LASF109:
 5923 05e9 6D61675F 		.ascii	"mag_off_z\000"
 5923      6F66665F 
 5923      7A00
 5924              	.LASF187:
 5925 05f3 6C617374 		.ascii	"last_tx_ms\000"
 5925      5F74785F 
 5925      6D7300
 5926              	.LASF61:
 5927 05fe 6770735F 		.ascii	"gps_sacc_ms\000"
 5927      73616363 
 5927      5F6D7300 
 5928              	.LASF178:
 5929 060a 6572725F 		.ascii	"err_sev\000"
 5929      73657600 
 5930              	.LASF114:
 5931 0612 73797365 		.ascii	"sysecho_imu_rate\000"
 5931      63686F5F 
 5931      696D755F 
 5931      72617465 
 5931      00
 5932              	.LASF11:
 5933 0623 6C6F6E67 		.ascii	"long unsigned int\000"
 5933      20756E73 
 5933      69676E65 
 5933      6420696E 
 5933      7400
 5934              	.LASF59:
 5935 0635 6770735F 		.ascii	"gps_hacc_m\000"
 5935      68616363 
 5935      5F6D00
 5936              	.LASF95:
 5937 0640 73797373 		.ascii	"sysstat_pressure_mb\000"
 5937      7461745F 
 5937      70726573 
 5937      73757265 
 5937      5F6D6200 
 5938              	.LASF269:
 5939 0654 74656C65 		.ascii	"telemetry_send_mag_sbc\000"
 5939      6D657472 
 5939      795F7365 
 5939      6E645F6D 
 5939      61675F73 
 5940              	.LASF230:
 5941 066b 68616363 		.ascii	"hacc\000"
 5941      00
 5942              	.LASF234:
 5943 0670 616C745F 		.ascii	"alt_dm\000"
 5943      646D00
 5944              	.LASF116:
 5945 0677 68616D66 		.ascii	"hamfly_telemetry_t\000"
ARM GAS  C:\Users\JENNEW~1\AppData\Local\Temp\ccW8Un4u.s 			page 118


 5945      6C795F74 
 5945      656C656D 
 5945      65747279 
 5945      5F7400
 5946              	.LASF113:
 5947 068a 73797365 		.ascii	"sysecho_pressure_mb\000"
 5947      63686F5F 
 5947      70726573 
 5947      73757265 
 5947      5F6D6200 
 5948              	.LASF157:
 5949 069e 4552524F 		.ascii	"ERROR\000"
 5949      5200
 5950              	.LASF62:
 5951 06a4 6770735F 		.ascii	"gps_raw_lat\000"
 5951      7261775F 
 5951      6C617400 
 5952              	.LASF40:
 5953 06b0 75617274 		.ascii	"uart_putc\000"
 5953      5F707574 
 5953      6300
 5954              	.LASF211:
 5955 06ba 72785F70 		.ascii	"rx_pkt_count\000"
 5955      6B745F63 
 5955      6F756E74 
 5955      00
 5956              	.LASF272:
 5957 06c7 776F7273 		.ascii	"worst_overdue\000"
 5957      745F6F76 
 5957      65726475 
 5957      6500
 5958              	.LASF197:
 5959 06d5 7467745F 		.ascii	"tgt_pan_deg\000"
 5959      70616E5F 
 5959      64656700 
 5960              	.LASF83:
 5961 06e1 6174745F 		.ascii	"att_yaw_err_deg\000"
 5961      7961775F 
 5961      6572725F 
 5961      64656700 
 5962              	.LASF148:
 5963 06f1 53454E53 		.ascii	"SENSE_LOW\000"
 5963      455F4C4F 
 5963      5700
 5964              	.LASF98:
 5965 06fb 73797373 		.ascii	"sysstat_imu_latency\000"
 5965      7461745F 
 5965      696D755F 
 5965      6C617465 
 5965      6E637900 
 5966              	.LASF78:
 5967 070f 6174745F 		.ascii	"att_pitch_rate_dps\000"
 5967      70697463 
 5967      685F7261 
 5967      74655F64 
 5967      707300
 5968              	.LASF276:
ARM GAS  C:\Users\JENNEW~1\AppData\Local\Temp\ccW8Un4u.s 			page 119


 5969 0722 474E5520 		.ascii	"GNU C11 5.4.1 20160609 (release) [ARM/embedded-5-br"
 5969      43313120 
 5969      352E342E 
 5969      31203230 
 5969      31363036 
 5970 0755 616E6368 		.ascii	"anch revision 237715] -mcpu=cortex-m3 -mthumb -g -O"
 5970      20726576 
 5970      6973696F 
 5970      6E203233 
 5970      37373135 
 5971 0788 30202D66 		.ascii	"0 -ffunction-sections -ffat-lto-objects\000"
 5971      66756E63 
 5971      74696F6E 
 5971      2D736563 
 5971      74696F6E 
 5972              	.LASF226:
 5973 07b0 7261775F 		.ascii	"raw_lon\000"
 5973      6C6F6E00 
 5974              	.LASF137:
 5975 07b8 72786275 		.ascii	"rxbuf\000"
 5975      6600
 5976              	.LASF261:
 5977 07be 656E636F 		.ascii	"encode_baro\000"
 5977      64655F62 
 5977      61726F00 
 5978              	.LASF168:
 5979 07ca 53544154 		.ascii	"STATE_COUNT\000"
 5979      455F434F 
 5979      554E5400 
 5980              	.LASF10:
 5981 07d6 5F5F7569 		.ascii	"__uint32_t\000"
 5981      6E743332 
 5981      5F7400
 5982              	.LASF44:
 5983 07e1 62617474 		.ascii	"battery_left_v\000"
 5983      6572795F 
 5983      6C656674 
 5983      5F7600
 5984              	.LASF12:
 5985 07f0 6C6F6E67 		.ascii	"long long int\000"
 5985      206C6F6E 
 5985      6720696E 
 5985      7400
 5986              	.LASF31:
 5987 07fe 68616D66 		.ascii	"hamfly_control_mode_t\000"
 5987      6C795F63 
 5987      6F6E7472 
 5987      6F6C5F6D 
 5987      6F64655F 
 5988              	.LASF82:
 5989 0814 6174745F 		.ascii	"att_pitch_err_deg\000"
 5989      70697463 
 5989      685F6572 
 5989      725F6465 
 5989      6700
 5990              	.LASF201:
 5991 0826 6374726C 		.ascii	"ctrl_mode_pan\000"
ARM GAS  C:\Users\JENNEW~1\AppData\Local\Temp\ccW8Un4u.s 			page 120


 5991      5F6D6F64 
 5991      655F7061 
 5991      6E00
 5992              	.LASF237:
 5993 0834 785F7261 		.ascii	"x_raw\000"
 5993      7700
 5994              	.LASF58:
 5995 083a 6770735F 		.ascii	"gps_heading_deg\000"
 5995      68656164 
 5995      696E675F 
 5995      64656700 
 5996              	.LASF37:
 5997 084a 656E6162 		.ascii	"enable\000"
 5997      6C6500
 5998              	.LASF146:
 5999 0851 70656E64 		.ascii	"pending_payload_len\000"
 5999      696E675F 
 5999      7061796C 
 5999      6F61645F 
 5999      6C656E00 
 6000              	.LASF22:
 6001 0865 646F7562 		.ascii	"double\000"
 6001      6C6500
 6002              	.LASF180:
 6003 086c 66617461 		.ascii	"fatal_latched\000"
 6003      6C5F6C61 
 6003      74636865 
 6003      6400
 6004              	.LASF96:
 6005 087a 73797373 		.ascii	"sysstat_imu_rate\000"
 6005      7461745F 
 6005      696D755F 
 6005      72617465 
 6005      00
 6006              	.LASF274:
 6007 088b 49544D5F 		.ascii	"ITM_RxBuffer\000"
 6007      52784275 
 6007      66666572 
 6007      00
 6008              	.LASF125:
 6009 0898 48414D46 		.ascii	"HAMFLY_ERR_NO_GPS\000"
 6009      4C595F45 
 6009      52525F4E 
 6009      4F5F4750 
 6009      5300
 6010              	.LASF130:
 6011 08aa 72785F62 		.ascii	"rx_bytes\000"
 6011      79746573 
 6011      00
 6012              	.LASF236:
 6013 08b3 74656C65 		.ascii	"telem_baro_t\000"
 6013      6D5F6261 
 6013      726F5F74 
 6013      00
 6014              	.LASF21:
 6015 08c0 666C6F61 		.ascii	"float\000"
 6015      7400
ARM GAS  C:\Users\JENNEW~1\AppData\Local\Temp\ccW8Un4u.s 			page 121


 6016              	.LASF14:
 6017 08c6 756E7369 		.ascii	"unsigned int\000"
 6017      676E6564 
 6017      20696E74 
 6017      00
 6018              	.LASF265:
 6019 08d3 74656C65 		.ascii	"telemetry_send_power_sbc\000"
 6019      6D657472 
 6019      795F7365 
 6019      6E645F70 
 6019      6F776572 
 6020              	.LASF252:
 6021 08ec 74656C65 		.ascii	"telemetry_collect_env\000"
 6021      6D657472 
 6021      795F636F 
 6021      6C6C6563 
 6021      745F656E 
 6022              	.LASF158:
 6023 0902 53544259 		.ascii	"STBY_DEFER\000"
 6023      5F444546 
 6023      455200
 6024              	.LASF36:
 6025 090d 726F6C6C 		.ascii	"roll_mode\000"
 6025      5F6D6F64 
 6025      6500
 6026              	.LASF260:
 6027 0917 656E636F 		.ascii	"encode_gps\000"
 6027      64655F67 
 6027      707300
 6028              	.LASF51:
 6029 0922 67696D62 		.ascii	"gimbal_status2\000"
 6029      616C5F73 
 6029      74617475 
 6029      733200
 6030              	.LASF64:
 6031 0931 6770735F 		.ascii	"gps_raw_alt\000"
 6031      7261775F 
 6031      616C7400 
 6032              	.LASF213:
 6033 093d 74656C65 		.ascii	"telem_link_t\000"
 6033      6D5F6C69 
 6033      6E6B5F74 
 6033      00
 6034              	.LASF240:
 6035 094a 6465636C 		.ascii	"decl_raw\000"
 6035      5F726177 
 6035      00
 6036              	.LASF150:
 6037 0953 53454E53 		.ascii	"SENSE_HIGH\000"
 6037      455F4849 
 6037      474800
 6038              	.LASF102:
 6039 095e 6D61675F 		.ascii	"mag_x\000"
 6039      7800
 6040              	.LASF103:
 6041 0964 6D61675F 		.ascii	"mag_y\000"
 6041      7900
ARM GAS  C:\Users\JENNEW~1\AppData\Local\Temp\ccW8Un4u.s 			page 122


 6042              	.LASF104:
 6043 096a 6D61675F 		.ascii	"mag_z\000"
 6043      7A00
 6044              	.LASF76:
 6045 0970 6174745F 		.ascii	"att_yaw_deg\000"
 6045      7961775F 
 6045      64656700 
 6046              	.LASF235:
 6047 097c 726F635F 		.ascii	"roc_cms\000"
 6047      636D7300 
 6048              	.LASF151:
 6049 0984 6A6F795F 		.ascii	"joy_sensitivity_t\000"
 6049      73656E73 
 6049      69746976 
 6049      6974795F 
 6049      7400
 6050              	.LASF221:
 6051 0996 73797373 		.ascii	"sysstat_press_Pa\000"
 6051      7461745F 
 6051      70726573 
 6051      735F5061 
 6051      00
 6052              	.LASF217:
 6053 09a7 73797373 		.ascii	"sysstat_batt_ma\000"
 6053      7461745F 
 6053      62617474 
 6053      5F6D6100 
 6054              	.LASF29:
 6055 09b7 48414D46 		.ascii	"HAMFLY_ABSOLUTE\000"
 6055      4C595F41 
 6055      42534F4C 
 6055      55544500 
 6056              	.LASF25:
 6057 09c7 6C6F6E67 		.ascii	"long double\000"
 6057      20646F75 
 6057      626C6500 
 6058              	.LASF69:
 6059 09d3 6770735F 		.ascii	"gps_raw_sacc\000"
 6059      7261775F 
 6059      73616363 
 6059      00
 6060              	.LASF212:
 6061 09e0 6C617374 		.ascii	"last_centroid_dt_ms\000"
 6061      5F63656E 
 6061      74726F69 
 6061      645F6474 
 6061      5F6D7300 
 6062              	.LASF135:
 6063 09f4 74656C65 		.ascii	"telemetry\000"
 6063      6D657472 
 6063      7900
 6064              	.LASF194:
 6065 09fe 6E756467 		.ascii	"nudge_start_ms\000"
 6065      655F7374 
 6065      6172745F 
 6065      6D7300
 6066              	.LASF155:
ARM GAS  C:\Users\JENNEW~1\AppData\Local\Temp\ccW8Un4u.s 			page 123


 6067 0a0d 4D414E55 		.ascii	"MANU\000"
 6067      00
 6068              	.LASF80:
 6069 0a12 6174745F 		.ascii	"att_roll_rate_dps\000"
 6069      726F6C6C 
 6069      5F726174 
 6069      655F6470 
 6069      7300
 6070              	.LASF42:
 6071 0a24 68616D66 		.ascii	"hamfly_hal_t\000"
 6071      6C795F68 
 6071      616C5F74 
 6071      00
 6072              	.LASF163:
 6073 0a31 4155544F 		.ascii	"AUTO_ACQ_SPIRAL\000"
 6073      5F414351 
 6073      5F535049 
 6073      52414C00 
 6074              	.LASF122:
 6075 0a41 48414D46 		.ascii	"HAMFLY_ERR_UART\000"
 6075      4C595F45 
 6075      52525F55 
 6075      41525400 
 6076              	.LASF270:
 6077 0a51 74656C65 		.ascii	"telemetry_pump\000"
 6077      6D657472 
 6077      795F7075 
 6077      6D7000
 6078              	.LASF81:
 6079 0a60 6174745F 		.ascii	"att_roll_err_deg\000"
 6079      726F6C6C 
 6079      5F657272 
 6079      5F646567 
 6079      00
 6080              	.LASF0:
 6081 0a71 5F5F696E 		.ascii	"__int8_t\000"
 6081      74385F74 
 6081      00
 6082              	.LASF13:
 6083 0a7a 6C6F6E67 		.ascii	"long long unsigned int\000"
 6083      206C6F6E 
 6083      6720756E 
 6083      7369676E 
 6083      65642069 
 6084              	.LASF30:
 6085 0a91 48414D46 		.ascii	"HAMFLY_ABSOLUTE_MAJESTIC\000"
 6085      4C595F41 
 6085      42534F4C 
 6085      5554455F 
 6085      4D414A45 
 6086              	.LASF93:
 6087 0aaa 73797373 		.ascii	"sysstat_status_flags\000"
 6087      7461745F 
 6087      73746174 
 6087      75735F66 
 6087      6C616773 
 6088              	.LASF160:
ARM GAS  C:\Users\JENNEW~1\AppData\Local\Temp\ccW8Un4u.s 			page 124


 6089 0abf 4D414E55 		.ascii	"MANU_JOYSTICK\000"
 6089      5F4A4F59 
 6089      53544943 
 6089      4B00
 6090              	.LASF18:
 6091 0acd 75696E74 		.ascii	"uint16_t\000"
 6091      31365F74 
 6091      00
 6092              	.LASF179:
 6093 0ad6 6572725F 		.ascii	"err_msg\000"
 6093      6D736700 
 6094              	.LASF173:
 6095 0ade 5345565F 		.ascii	"SEV_FATAL\000"
 6095      46415441 
 6095      4C00
 6096              	.LASF192:
 6097 0ae8 696E7665 		.ascii	"invert_mask\000"
 6097      72745F6D 
 6097      61736B00 
 6098              	.LASF273:
 6099 0af4 735F6174 		.ascii	"s_attrs\000"
 6099      74727300 
 6100              	.LASF238:
 6101 0afc 795F7261 		.ascii	"y_raw\000"
 6101      7700
 6102              	.LASF84:
 6103 0b02 73797373 		.ascii	"sysstat_valid\000"
 6103      7461745F 
 6103      76616C69 
 6103      6400
 6104              	.LASF72:
 6105 0b10 6261726F 		.ascii	"baro_roc_ms\000"
 6105      5F726F63 
 6105      5F6D7300 
 6106              	.LASF190:
 6107 0b1c 64696167 		.ascii	"diag_active\000"
 6107      5F616374 
 6107      69766500 
 6108              	.LASF85:
 6109 0b28 666C6167 		.ascii	"flag_compass_error\000"
 6109      5F636F6D 
 6109      70617373 
 6109      5F657272 
 6109      6F7200
 6110              	.LASF32:
 6111 0b3b 74696C74 		.ascii	"tilt\000"
 6111      00
 6112              	.LASF66:
 6113 0b40 6770735F 		.ascii	"gps_raw_hdg\000"
 6113      7261775F 
 6113      68646700 
 6114              	.LASF248:
 6115 0b4c 7361745F 		.ascii	"sat_u16\000"
 6115      75313600 
 6116              	.LASF4:
 6117 0b54 5F5F696E 		.ascii	"__int16_t\000"
 6117      7431365F 
ARM GAS  C:\Users\JENNEW~1\AppData\Local\Temp\ccW8Un4u.s 			page 125


 6117      7400
 6118              	.LASF144:
 6119 0b5e 70656E64 		.ascii	"pending_response_len\000"
 6119      696E675F 
 6119      72657370 
 6119      6F6E7365 
 6119      5F6C656E 
 6120              	.LASF97:
 6121 0b73 73797373 		.ascii	"sysstat_cam_status\000"
 6121      7461745F 
 6121      63616D5F 
 6121      73746174 
 6121      757300
 6122              	.LASF200:
 6123 0b86 745F6D73 		.ascii	"t_ms\000"
 6123      00
 6124              	.LASF256:
 6125 0b8b 656E636F 		.ascii	"encode_hot\000"
 6125      64655F68 
 6125      6F7400
 6126              	.LASF255:
 6127 0b96 74656C65 		.ascii	"telemetry_collect_mag\000"
 6127      6D657472 
 6127      795F636F 
 6127      6C6C6563 
 6127      745F6D61 
 6128              	.LASF119:
 6129 0bac 64726F70 		.ascii	"drops\000"
 6129      7300
 6130              	.LASF35:
 6131 0bb2 74696C74 		.ascii	"tilt_mode\000"
 6131      5F6D6F64 
 6131      6500
 6132              	.LASF34:
 6133 0bbc 70616E5F 		.ascii	"pan_mode\000"
 6133      6D6F6465 
 6133      00
 6134              	.LASF183:
 6135 0bc5 6162735F 		.ascii	"abs_tilt_target\000"
 6135      74696C74 
 6135      5F746172 
 6135      67657400 
 6136              	.LASF184:
 6137 0bd5 6F726967 		.ascii	"origin_pan_deg\000"
 6137      696E5F70 
 6137      616E5F64 
 6137      656700
 6138              	.LASF247:
 6139 0be4 7361745F 		.ascii	"sat_u32\000"
 6139      75333200 
 6140              	.LASF189:
 6141 0bec 73746174 		.ascii	"state_entry_ms\000"
 6141      655F656E 
 6141      7472795F 
 6141      6D7300
 6142              	.LASF210:
 6143 0bfb 756E6B6E 		.ascii	"unknown_magic\000"
ARM GAS  C:\Users\JENNEW~1\AppData\Local\Temp\ccW8Un4u.s 			page 126


 6143      6F776E5F 
 6143      6D616769 
 6143      6300
 6144              	.LASF5:
 6145 0c09 73686F72 		.ascii	"short int\000"
 6145      7420696E 
 6145      7400
 6146              	.LASF156:
 6147 0c13 4155544F 		.ascii	"AUTO\000"
 6147      00
 6148              	.LASF220:
 6149 0c18 73797373 		.ascii	"sysstat_temp_c10\000"
 6149      7461745F 
 6149      74656D70 
 6149      5F633130 
 6149      00
 6150              	.LASF214:
 6151 0c29 76626174 		.ascii	"vbat_left_mv\000"
 6151      5F6C6566 
 6151      745F6D76 
 6151      00
 6152              	.LASF17:
 6153 0c36 696E7431 		.ascii	"int16_t\000"
 6153      365F7400 
 6154              	.LASF231:
 6155 0c3e 76616363 		.ascii	"vacc\000"
 6155      00
 6156              	.LASF227:
 6157 0c43 7261775F 		.ascii	"raw_alt\000"
 6157      616C7400 
 6158              	.LASF121:
 6159 0c4b 48414D46 		.ascii	"HAMFLY_OK\000"
 6159      4C595F4F 
 6159      4B00
 6160              	.LASF124:
 6161 0c55 48414D46 		.ascii	"HAMFLY_ERR_BUSY\000"
 6161      4C595F45 
 6161      52525F42 
 6161      55535900 
 6162              	.LASF53:
 6163 0c65 6770735F 		.ascii	"gps_locked\000"
 6163      6C6F636B 
 6163      656400
 6164              	.LASF110:
 6165 0c70 6D61675F 		.ascii	"mag_declination\000"
 6165      6465636C 
 6165      696E6174 
 6165      696F6E00 
 6166              	.LASF27:
 6167 0c80 48414D46 		.ascii	"HAMFLY_DEFER\000"
 6167      4C595F44 
 6167      45464552 
 6167      00
 6168              	.LASF136:
 6169 0c8d 73746174 		.ascii	"statistics\000"
 6169      69737469 
 6169      637300
ARM GAS  C:\Users\JENNEW~1\AppData\Local\Temp\ccW8Un4u.s 			page 127


 6170              	.LASF250:
 6171 0c98 74656C65 		.ascii	"telemetry_collect_link\000"
 6171      6D657472 
 6171      795F636F 
 6171      6C6C6563 
 6171      745F6C69 
 6172              	.LASF43:
 6173 0caf 76616C69 		.ascii	"valid\000"
 6173      6400
 6174              	.LASF70:
 6175 0cb5 6261726F 		.ascii	"baro_valid\000"
 6175      5F76616C 
 6175      696400
 6176              	.LASF38:
 6177 0cc0 6B696C6C 		.ascii	"kill\000"
 6177      00
 6178              	.LASF242:
 6179 0cc5 61747472 		.ascii	"attr_id\000"
 6179      5F696400 
 6180              	.LASF167:
 6181 0ccd 4552524F 		.ascii	"ERROR_ACTIVE\000"
 6181      525F4143 
 6181      54495645 
 6181      00
 6182              	.LASF188:
 6183 0cda 6C617374 		.ascii	"last_diag_ms\000"
 6183      5F646961 
 6183      675F6D73 
 6183      00
 6184              	.LASF127:
 6185 0ce7 74785F70 		.ascii	"tx_packets\000"
 6185      61636B65 
 6185      747300
 6186              	.LASF224:
 6187 0cf2 73617473 		.ascii	"sats\000"
 6187      00
 6188              	.LASF245:
 6189 0cf7 61747472 		.ascii	"attr_sched_t\000"
 6189      5F736368 
 6189      65645F74 
 6189      00
 6190              	.LASF198:
 6191 0d04 7467745F 		.ascii	"tgt_tilt_deg\000"
 6191      74696C74 
 6191      5F646567 
 6191      00
 6192              	.LASF222:
 6193 0d11 74656C65 		.ascii	"telem_env_t\000"
 6193      6D5F656E 
 6193      765F7400 
 6194              	.LASF20:
 6195 0d1d 75696E74 		.ascii	"uint32_t\000"
 6195      33325F74 
 6195      00
 6196              	.LASF140:
 6197 0d26 70656E64 		.ascii	"pending_attr\000"
 6197      696E675F 
ARM GAS  C:\Users\JENNEW~1\AppData\Local\Temp\ccW8Un4u.s 			page 128


 6197      61747472 
 6197      00
 6198              	.LASF63:
 6199 0d33 6770735F 		.ascii	"gps_raw_lon\000"
 6199      7261775F 
 6199      6C6F6E00 
 6200              	.LASF41:
 6201 0d3f 6765745F 		.ascii	"get_tick_ms\000"
 6201      7469636B 
 6201      5F6D7300 
 6202              	.LASF228:
 6203 0d4b 7261775F 		.ascii	"raw_spd\000"
 6203      73706400 
 6204              	.LASF106:
 6205 0d53 6D61675F 		.ascii	"mag_freq\000"
 6205      66726571 
 6205      00
 6206              	.LASF277:
 6207 0d5c 74656C65 		.ascii	"telemetry.c\000"
 6207      6D657472 
 6207      792E6300 
 6208              	.LASF7:
 6209 0d68 73686F72 		.ascii	"short unsigned int\000"
 6209      7420756E 
 6209      7369676E 
 6209      65642069 
 6209      6E7400
 6210              	.LASF33:
 6211 0d7b 726F6C6C 		.ascii	"roll\000"
 6211      00
 6212              	.LASF169:
 6213 0d80 73746174 		.ascii	"state_t\000"
 6213      655F7400 
 6214              	.LASF8:
 6215 0d88 5F5F696E 		.ascii	"__int32_t\000"
 6215      7433325F 
 6215      7400
 6216              	.LASF92:
 6217 0d92 73797373 		.ascii	"sysstat_cpu_pct\000"
 6217      7461745F 
 6217      6370755F 
 6217      70637400 
 6218              	.LASF182:
 6219 0da2 6162735F 		.ascii	"abs_pan_target\000"
 6219      70616E5F 
 6219      74617267 
 6219      657400
 6220              	.LASF243:
 6221 0db1 70657269 		.ascii	"period_ms\000"
 6221      6F645F6D 
 6221      7300
 6222              	.LASF112:
 6223 0dbb 73797365 		.ascii	"sysecho_gps_locked\000"
 6223      63686F5F 
 6223      6770735F 
 6223      6C6F636B 
 6223      656400
ARM GAS  C:\Users\JENNEW~1\AppData\Local\Temp\ccW8Un4u.s 			page 129


 6224              	.LASF71:
 6225 0dce 6261726F 		.ascii	"baro_alt_m\000"
 6225      5F616C74 
 6225      5F6D00
 6226              	.LASF196:
 6227 0dd9 6E756467 		.ascii	"nudge_base_tilt_deg\000"
 6227      655F6261 
 6227      73655F74 
 6227      696C745F 
 6227      64656700 
 6228              	.LASF55:
 6229 0ded 6770735F 		.ascii	"gps_lon_deg\000"
 6229      6C6F6E5F 
 6229      64656700 
 6230              	.LASF154:
 6231 0df9 53544259 		.ascii	"STBY\000"
 6231      00
 6232              	.LASF278:
 6233 0dfe 433A5C55 		.ascii	"C:\\Users\\Jennewein\\Documents\\hamish-workspace\\"
 6233      73657273 
 6233      5C4A656E 
 6233      6E657765 
 6233      696E5C44 
 6234 0e2c 50536F43 		.ascii	"PSoC-Programs\\test_projects\\Proj07_hamflyAPI_stat"
 6234      2D50726F 
 6234      6772616D 
 6234      735C7465 
 6234      73745F70 
 6235 0e5d 654D6163 		.ascii	"eMachineUpgrade.cydsn\000"
 6235      68696E65 
 6235      55706772 
 6235      6164652E 
 6235      63796473 
 6236              	.LASF152:
 6237 0e73 6A6F795F 		.ascii	"joy_cmd_t\000"
 6237      636D645F 
 6237      7400
 6238              	.LASF193:
 6239 0e7d 6E756467 		.ascii	"nudge_hold\000"
 6239      655F686F 
 6239      6C6400
 6240              	.LASF233:
 6241 0e88 74656C65 		.ascii	"telem_gps_t\000"
 6241      6D5F6770 
 6241      735F7400 
 6242              	.LASF204:
 6243 0e94 696E7075 		.ascii	"input_pan\000"
 6243      745F7061 
 6243      6E00
 6244              		.ident	"GCC: (GNU Tools for ARM Embedded Processors) 5.4.1 20160609 (release) [ARM/embedded-5-bran
