ARM GAS  C:\Users\JENNEW~1\AppData\Local\Temp\ccW8Un4u.s 			page 1


   1              		.syntax unified
   2              		.cpu cortex-m3
   3              		.fpu softvfp
   4              		.eabi_attribute 20, 1
   5              		.eabi_attribute 21, 1
   6              		.eabi_attribute 23, 3
   7              		.eabi_attribute 24, 1
   8              		.eabi_attribute 25, 1
   9              		.eabi_attribute 26, 1
  10              		.eabi_attribute 30, 6
  11              		.eabi_attribute 34, 1
  12              		.eabi_attribute 18, 4
  13              		.thumb
  14              		.syntax unified
  15              		.file	"telemetry.c"
  16              		.text
  17              	.Ltext0:
  18              		.cfi_sections	.debug_frame
  19              		.global	__aeabi_fcmpge
  20              		.global	__aeabi_fcmple
  21              		.global	__aeabi_f2iz
  22              		.section	.text.sat_i16,"ax",%progbits
  23              		.align	2
  24              		.thumb
  25              		.thumb_func
  26              		.type	sat_i16, %function
  27              	sat_i16:
  28              	.LFB63:
  29              		.file 1 "telemetry.c"
   1:telemetry.c   **** /* ========================================
   2:telemetry.c   ****  *
   3:telemetry.c   ****  * Copyright Hamish Johnson, 2026
   4:telemetry.c   ****  * All Rights Reserved
   5:telemetry.c   ****  * UNPUBLISHED, LICENSED SOFTWARE.
   6:telemetry.c   ****  *
   7:telemetry.c   ****  * CONFIDENTIAL AND PROPRIETARY INFORMATION
   8:telemetry.c   ****  * WHICH IS THE PROPERTY OF 
   9:telemetry.c   ****  * Quantum Internet Systems Lab (QISL),
  10:telemetry.c   ****  * Department of Physics, SFU, Canada.
  11:telemetry.c   ****  *
  12:telemetry.c   ****  * Author: Hamish Johnson (2026)
  13:telemetry.c   ****  *
  14:telemetry.c   ****  * ========================================
  15:telemetry.c   ****  *
  16:telemetry.c   ****  * Representation of in-memory outbound telemetry.
  17:telemetry.c   ****  * Agnostic and useable for SBC comms as well as local debug.
  18:telemetry.c   **** */
  19:telemetry.c   **** 
  20:telemetry.c   **** #include "telemetry.h"
  21:telemetry.c   **** #include "sbc_comms.h"
  22:telemetry.c   **** #include "hamfly.h"
  23:telemetry.c   **** 
  24:telemetry.c   **** #include <string.h>
  25:telemetry.c   **** #include <project.h>
  26:telemetry.c   **** 
  27:telemetry.c   **** extern volatile uint32_t g_tick_ms;
  28:telemetry.c   **** 
ARM GAS  C:\Users\JENNEW~1\AppData\Local\Temp\ccW8Un4u.s 			page 2


  29:telemetry.c   **** // Quaternion encoding helper
  30:telemetry.c   **** static int16_t sat_i16(float f)
  31:telemetry.c   **** {
  30              		.loc 1 31 0
  31              		.cfi_startproc
  32              		@ args = 0, pretend = 0, frame = 8
  33              		@ frame_needed = 1, uses_anonymous_args = 0
  34 0000 80B5     		push	{r7, lr}
  35              		.cfi_def_cfa_offset 8
  36              		.cfi_offset 7, -8
  37              		.cfi_offset 14, -4
  38 0002 82B0     		sub	sp, sp, #8
  39              		.cfi_def_cfa_offset 16
  40 0004 00AF     		add	r7, sp, #0
  41              		.cfi_def_cfa_register 7
  42 0006 7860     		str	r0, [r7, #4]	@ float
  32:telemetry.c   ****     if (f >=  32767.0f) return  32767;
  43              		.loc 1 32 0
  44 0008 0E49     		ldr	r1, .L11
  45 000a 7868     		ldr	r0, [r7, #4]	@ float
  46 000c FFF7FEFF 		bl	__aeabi_fcmpge
  47 0010 0346     		mov	r3, r0
  48 0012 002B     		cmp	r3, #0
  49 0014 02D0     		beq	.L9
  50              		.loc 1 32 0 is_stmt 0 discriminator 1
  51 0016 47F6FF73 		movw	r3, #32767
  52 001a 0EE0     		b	.L4
  53              	.L9:
  33:telemetry.c   ****     if (f <= -32768.0f) return -32768;
  54              		.loc 1 33 0 is_stmt 1
  55 001c 4FF04741 		mov	r1, #-956301312
  56 0020 7868     		ldr	r0, [r7, #4]	@ float
  57 0022 FFF7FEFF 		bl	__aeabi_fcmple
  58 0026 0346     		mov	r3, r0
  59 0028 002B     		cmp	r3, #0
  60 002a 01D0     		beq	.L10
  61              		.loc 1 33 0 is_stmt 0 discriminator 1
  62 002c 064B     		ldr	r3, .L11+4
  63 002e 04E0     		b	.L4
  64              	.L10:
  34:telemetry.c   ****     return (int16_t)f;
  65              		.loc 1 34 0 is_stmt 1
  66 0030 7868     		ldr	r0, [r7, #4]	@ float
  67 0032 FFF7FEFF 		bl	__aeabi_f2iz
  68 0036 0346     		mov	r3, r0
  69 0038 1BB2     		sxth	r3, r3
  70              	.L4:
  35:telemetry.c   **** }
  71              		.loc 1 35 0
  72 003a 1846     		mov	r0, r3
  73 003c 0837     		adds	r7, r7, #8
  74              		.cfi_def_cfa_offset 8
  75 003e BD46     		mov	sp, r7
  76              		.cfi_def_cfa_register 13
  77              		@ sp needed
  78 0040 80BD     		pop	{r7, pc}
  79              	.L12:
ARM GAS  C:\Users\JENNEW~1\AppData\Local\Temp\ccW8Un4u.s 			page 3


  80 0042 00BF     		.align	2
  81              	.L11:
  82 0044 00FEFF46 		.word	1191181824
  83 0048 0080FFFF 		.word	-32768
  84              		.cfi_endproc
  85              	.LFE63:
  86              		.size	sat_i16, .-sat_i16
  87              		.global	__aeabi_f2uiz
  88              		.section	.text.sat_u32,"ax",%progbits
  89              		.align	2
  90              		.thumb
  91              		.thumb_func
  92              		.type	sat_u32, %function
  93              	sat_u32:
  94              	.LFB64:
  36:telemetry.c   **** // Helper for unsigned ints and avoid rollovers.
  37:telemetry.c   **** static uint32_t sat_u32(float f)
  38:telemetry.c   **** {
  95              		.loc 1 38 0
  96              		.cfi_startproc
  97              		@ args = 0, pretend = 0, frame = 8
  98              		@ frame_needed = 1, uses_anonymous_args = 0
  99 0000 80B5     		push	{r7, lr}
 100              		.cfi_def_cfa_offset 8
 101              		.cfi_offset 7, -8
 102              		.cfi_offset 14, -4
 103 0002 82B0     		sub	sp, sp, #8
 104              		.cfi_def_cfa_offset 16
 105 0004 00AF     		add	r7, sp, #0
 106              		.cfi_def_cfa_register 7
 107 0006 7860     		str	r0, [r7, #4]	@ float
  39:telemetry.c   ****     if (f <= 0.0f)          return 0u;
 108              		.loc 1 39 0
 109 0008 4FF00001 		mov	r1, #0
 110 000c 7868     		ldr	r0, [r7, #4]	@ float
 111 000e FFF7FEFF 		bl	__aeabi_fcmple
 112 0012 0346     		mov	r3, r0
 113 0014 002B     		cmp	r3, #0
 114 0016 01D0     		beq	.L21
 115              		.loc 1 39 0 is_stmt 0 discriminator 1
 116 0018 0023     		movs	r3, #0
 117 001a 0EE0     		b	.L16
 118              	.L21:
  40:telemetry.c   ****     if (f >= 4294967295.0f) return 0xFFFFFFFFu;
 119              		.loc 1 40 0 is_stmt 1
 120 001c 4FF09F41 		mov	r1, #1333788672
 121 0020 7868     		ldr	r0, [r7, #4]	@ float
 122 0022 FFF7FEFF 		bl	__aeabi_fcmpge
 123 0026 0346     		mov	r3, r0
 124 0028 002B     		cmp	r3, #0
 125 002a 02D0     		beq	.L22
 126              		.loc 1 40 0 is_stmt 0 discriminator 1
 127 002c 4FF0FF33 		mov	r3, #-1
 128 0030 03E0     		b	.L16
 129              	.L22:
  41:telemetry.c   ****     return (uint32_t)f;
 130              		.loc 1 41 0 is_stmt 1
ARM GAS  C:\Users\JENNEW~1\AppData\Local\Temp\ccW8Un4u.s 			page 4


 131 0032 7868     		ldr	r0, [r7, #4]	@ float
 132 0034 FFF7FEFF 		bl	__aeabi_f2uiz
 133 0038 0346     		mov	r3, r0
 134              	.L16:
  42:telemetry.c   **** }
 135              		.loc 1 42 0
 136 003a 1846     		mov	r0, r3
 137 003c 0837     		adds	r7, r7, #8
 138              		.cfi_def_cfa_offset 8
 139 003e BD46     		mov	sp, r7
 140              		.cfi_def_cfa_register 13
 141              		@ sp needed
 142 0040 80BD     		pop	{r7, pc}
 143              		.cfi_endproc
 144              	.LFE64:
 145              		.size	sat_u32, .-sat_u32
 146 0042 00BF     		.section	.text.sat_u16,"ax",%progbits
 147              		.align	2
 148              		.thumb
 149              		.thumb_func
 150              		.type	sat_u16, %function
 151              	sat_u16:
 152              	.LFB65:
  43:telemetry.c   **** static uint16_t sat_u16(float f)
  44:telemetry.c   **** {
 153              		.loc 1 44 0
 154              		.cfi_startproc
 155              		@ args = 0, pretend = 0, frame = 8
 156              		@ frame_needed = 1, uses_anonymous_args = 0
 157 0000 80B5     		push	{r7, lr}
 158              		.cfi_def_cfa_offset 8
 159              		.cfi_offset 7, -8
 160              		.cfi_offset 14, -4
 161 0002 82B0     		sub	sp, sp, #8
 162              		.cfi_def_cfa_offset 16
 163 0004 00AF     		add	r7, sp, #0
 164              		.cfi_def_cfa_register 7
 165 0006 7860     		str	r0, [r7, #4]	@ float
  45:telemetry.c   ****     if (f <= 0.0f)          return 0u;
 166              		.loc 1 45 0
 167 0008 4FF00001 		mov	r1, #0
 168 000c 7868     		ldr	r0, [r7, #4]	@ float
 169 000e FFF7FEFF 		bl	__aeabi_fcmple
 170 0012 0346     		mov	r3, r0
 171 0014 002B     		cmp	r3, #0
 172 0016 01D0     		beq	.L31
 173              		.loc 1 45 0 is_stmt 0 discriminator 1
 174 0018 0023     		movs	r3, #0
 175 001a 0EE0     		b	.L26
 176              	.L31:
  46:telemetry.c   ****     if (f >= 65535.0f)      return 0xFFFFu;
 177              		.loc 1 46 0 is_stmt 1
 178 001c 0949     		ldr	r1, .L33
 179 001e 7868     		ldr	r0, [r7, #4]	@ float
 180 0020 FFF7FEFF 		bl	__aeabi_fcmpge
 181 0024 0346     		mov	r3, r0
 182 0026 002B     		cmp	r3, #0
ARM GAS  C:\Users\JENNEW~1\AppData\Local\Temp\ccW8Un4u.s 			page 5


 183 0028 02D0     		beq	.L32
 184              		.loc 1 46 0 is_stmt 0 discriminator 1
 185 002a 4FF6FF73 		movw	r3, #65535
 186 002e 04E0     		b	.L26
 187              	.L32:
  47:telemetry.c   ****     return (uint16_t)f;
 188              		.loc 1 47 0 is_stmt 1
 189 0030 7868     		ldr	r0, [r7, #4]	@ float
 190 0032 FFF7FEFF 		bl	__aeabi_f2uiz
 191 0036 0346     		mov	r3, r0
 192 0038 9BB2     		uxth	r3, r3
 193              	.L26:
  48:telemetry.c   **** }
 194              		.loc 1 48 0
 195 003a 1846     		mov	r0, r3
 196 003c 0837     		adds	r7, r7, #8
 197              		.cfi_def_cfa_offset 8
 198 003e BD46     		mov	sp, r7
 199              		.cfi_def_cfa_register 13
 200              		@ sp needed
 201 0040 80BD     		pop	{r7, pc}
 202              	.L34:
 203 0042 00BF     		.align	2
 204              	.L33:
 205 0044 00FF7F47 		.word	1199570688
 206              		.cfi_endproc
 207              	.LFE65:
 208              		.size	sat_u16, .-sat_u16
 209              		.global	__aeabi_fmul
 210              		.section	.text.telemetry_collect_hot,"ax",%progbits
 211              		.align	2
 212              		.global	telemetry_collect_hot
 213              		.thumb
 214              		.thumb_func
 215              		.type	telemetry_collect_hot, %function
 216              	telemetry_collect_hot:
 217              	.LFB66:
  49:telemetry.c   **** 
  50:telemetry.c   **** // Helpers: Collectors
  51:telemetry.c   **** void telemetry_collect_hot(const app_ctx_t *ctx, telem_hot_t *out)
  52:telemetry.c   **** {
 218              		.loc 1 52 0
 219              		.cfi_startproc
 220              		@ args = 0, pretend = 0, frame = 248
 221              		@ frame_needed = 1, uses_anonymous_args = 0
 222 0000 80B5     		push	{r7, lr}
 223              		.cfi_def_cfa_offset 8
 224              		.cfi_offset 7, -8
 225              		.cfi_offset 14, -4
 226 0002 BEB0     		sub	sp, sp, #248
 227              		.cfi_def_cfa_offset 256
 228 0004 00AF     		add	r7, sp, #0
 229              		.cfi_def_cfa_register 7
 230 0006 7860     		str	r0, [r7, #4]
 231 0008 3960     		str	r1, [r7]
  53:telemetry.c   ****     memset(out, 0, sizeof *out);
 232              		.loc 1 53 0
ARM GAS  C:\Users\JENNEW~1\AppData\Local\Temp\ccW8Un4u.s 			page 6


 233 000a 1C22     		movs	r2, #28
 234 000c 0021     		movs	r1, #0
 235 000e 3868     		ldr	r0, [r7]
 236 0010 FFF7FEFF 		bl	memset
  54:telemetry.c   ****     out->t_ms  = g_tick_ms;
 237              		.loc 1 54 0
 238 0014 504B     		ldr	r3, .L39
 239 0016 1A68     		ldr	r2, [r3]
 240 0018 3B68     		ldr	r3, [r7]
 241 001a 1A60     		str	r2, [r3]
  55:telemetry.c   ****     out->state = (uint8_t)ctx->state;
 242              		.loc 1 55 0
 243 001c 7B68     		ldr	r3, [r7, #4]
 244 001e 1A79     		ldrb	r2, [r3, #4]	@ zero_extendqisi2
 245 0020 3B68     		ldr	r3, [r7]
 246 0022 1A71     		strb	r2, [r3, #4]
  56:telemetry.c   **** 
  57:telemetry.c   ****     if (!ctx->gimbal) return;
 247              		.loc 1 57 0
 248 0024 7B68     		ldr	r3, [r7, #4]
 249 0026 1B68     		ldr	r3, [r3]
 250 0028 002B     		cmp	r3, #0
 251 002a 00F09080 		beq	.L38
  58:telemetry.c   **** 
  59:telemetry.c   ****     const hamfly_control_t *ctl = &ctx->gimbal->ctl;
 252              		.loc 1 59 0
 253 002e 7B68     		ldr	r3, [r7, #4]
 254 0030 1B68     		ldr	r3, [r3]
 255 0032 0C33     		adds	r3, r3, #12
 256 0034 C7F8F430 		str	r3, [r7, #244]
  60:telemetry.c   ****     out->ctrl_mode_pan  = (uint8_t)ctl->pan_mode;
 257              		.loc 1 60 0
 258 0038 D7F8F430 		ldr	r3, [r7, #244]
 259 003c 1A7B     		ldrb	r2, [r3, #12]	@ zero_extendqisi2
 260 003e 3B68     		ldr	r3, [r7]
 261 0040 5A71     		strb	r2, [r3, #5]
  61:telemetry.c   ****     out->ctrl_mode_tilt = (uint8_t)ctl->tilt_mode;
 262              		.loc 1 61 0
 263 0042 D7F8F430 		ldr	r3, [r7, #244]
 264 0046 5A7B     		ldrb	r2, [r3, #13]	@ zero_extendqisi2
 265 0048 3B68     		ldr	r3, [r7]
 266 004a 9A71     		strb	r2, [r3, #6]
  62:telemetry.c   ****     out->ctrl_mode_roll = (uint8_t)ctl->roll_mode;
 267              		.loc 1 62 0
 268 004c D7F8F430 		ldr	r3, [r7, #244]
 269 0050 9A7B     		ldrb	r2, [r3, #14]	@ zero_extendqisi2
 270 0052 3B68     		ldr	r3, [r7]
 271 0054 DA71     		strb	r2, [r3, #7]
  63:telemetry.c   ****     out->enable         = ctl->enable;
 272              		.loc 1 63 0
 273 0056 D7F8F430 		ldr	r3, [r7, #244]
 274 005a DA7B     		ldrb	r2, [r3, #15]	@ zero_extendqisi2
 275 005c 3B68     		ldr	r3, [r7]
 276 005e 1A72     		strb	r2, [r3, #8]
  64:telemetry.c   ****     out->kill           = ctl->kill;
 277              		.loc 1 64 0
 278 0060 D7F8F430 		ldr	r3, [r7, #244]
ARM GAS  C:\Users\JENNEW~1\AppData\Local\Temp\ccW8Un4u.s 			page 7


 279 0064 1A7C     		ldrb	r2, [r3, #16]	@ zero_extendqisi2
 280 0066 3B68     		ldr	r3, [r7]
 281 0068 5A72     		strb	r2, [r3, #9]
  65:telemetry.c   ****     out->input_pan      = sat_i16(ctl->pan  * 100.0f);
 282              		.loc 1 65 0
 283 006a D7F8F430 		ldr	r3, [r7, #244]
 284 006e 1B68     		ldr	r3, [r3]	@ float
 285 0070 3A49     		ldr	r1, .L39+4
 286 0072 1846     		mov	r0, r3
 287 0074 FFF7FEFF 		bl	__aeabi_fmul
 288 0078 0346     		mov	r3, r0
 289 007a 1846     		mov	r0, r3
 290 007c FFF7FEFF 		bl	sat_i16
 291 0080 0346     		mov	r3, r0
 292 0082 1A46     		mov	r2, r3
 293 0084 3B68     		ldr	r3, [r7]
 294 0086 5A81     		strh	r2, [r3, #10]	@ movhi
  66:telemetry.c   ****     out->input_tilt     = sat_i16(ctl->tilt * 100.0f);
 295              		.loc 1 66 0
 296 0088 D7F8F430 		ldr	r3, [r7, #244]
 297 008c 5B68     		ldr	r3, [r3, #4]	@ float
 298 008e 3349     		ldr	r1, .L39+4
 299 0090 1846     		mov	r0, r3
 300 0092 FFF7FEFF 		bl	__aeabi_fmul
 301 0096 0346     		mov	r3, r0
 302 0098 1846     		mov	r0, r3
 303 009a FFF7FEFF 		bl	sat_i16
 304 009e 0346     		mov	r3, r0
 305 00a0 1A46     		mov	r2, r3
 306 00a2 3B68     		ldr	r3, [r7]
 307 00a4 9A81     		strh	r2, [r3, #12]	@ movhi
  67:telemetry.c   ****     out->input_roll     = sat_i16(ctl->roll * 100.0f);
 308              		.loc 1 67 0
 309 00a6 D7F8F430 		ldr	r3, [r7, #244]
 310 00aa 9B68     		ldr	r3, [r3, #8]	@ float
 311 00ac 2B49     		ldr	r1, .L39+4
 312 00ae 1846     		mov	r0, r3
 313 00b0 FFF7FEFF 		bl	__aeabi_fmul
 314 00b4 0346     		mov	r3, r0
 315 00b6 1846     		mov	r0, r3
 316 00b8 FFF7FEFF 		bl	sat_i16
 317 00bc 0346     		mov	r3, r0
 318 00be 1A46     		mov	r2, r3
 319 00c0 3B68     		ldr	r3, [r7]
 320 00c2 DA81     		strh	r2, [r3, #14]	@ movhi
  68:telemetry.c   **** 
  69:telemetry.c   ****     hamfly_telemetry_t tel;
  70:telemetry.c   ****     hamfly_get_telemetry(ctx->gimbal, &tel);
 321              		.loc 1 70 0
 322 00c4 7B68     		ldr	r3, [r7, #4]
 323 00c6 1B68     		ldr	r3, [r3]
 324 00c8 07F10802 		add	r2, r7, #8
 325 00cc 1146     		mov	r1, r2
 326 00ce 1846     		mov	r0, r3
 327 00d0 FFF7FEFF 		bl	hamfly_get_telemetry
  71:telemetry.c   **** 
  72:telemetry.c   ****     out->gimbal_status1 = tel.gimbal_status1;
ARM GAS  C:\Users\JENNEW~1\AppData\Local\Temp\ccW8Un4u.s 			page 8


 328              		.loc 1 72 0
 329 00d4 97F82420 		ldrb	r2, [r7, #36]	@ zero_extendqisi2
 330 00d8 3B68     		ldr	r3, [r7]
 331 00da 1A74     		strb	r2, [r3, #16]
  73:telemetry.c   ****     out->gimbal_status2 = tel.gimbal_status2;
 332              		.loc 1 73 0
 333 00dc 97F82520 		ldrb	r2, [r7, #37]	@ zero_extendqisi2
 334 00e0 3B68     		ldr	r3, [r7]
 335 00e2 5A74     		strb	r2, [r3, #17]
  74:telemetry.c   ****     out->q_i = sat_i16(tel.gimbal_i * 32767.0f);
 336              		.loc 1 74 0
 337 00e4 BB69     		ldr	r3, [r7, #24]	@ float
 338 00e6 1E49     		ldr	r1, .L39+8
 339 00e8 1846     		mov	r0, r3
 340 00ea FFF7FEFF 		bl	__aeabi_fmul
 341 00ee 0346     		mov	r3, r0
 342 00f0 1846     		mov	r0, r3
 343 00f2 FFF7FEFF 		bl	sat_i16
 344 00f6 0346     		mov	r3, r0
 345 00f8 1A46     		mov	r2, r3
 346 00fa 3B68     		ldr	r3, [r7]
 347 00fc 5A82     		strh	r2, [r3, #18]	@ movhi
  75:telemetry.c   ****     out->q_j = sat_i16(tel.gimbal_j * 32767.0f);
 348              		.loc 1 75 0
 349 00fe FB69     		ldr	r3, [r7, #28]	@ float
 350 0100 1749     		ldr	r1, .L39+8
 351 0102 1846     		mov	r0, r3
 352 0104 FFF7FEFF 		bl	__aeabi_fmul
 353 0108 0346     		mov	r3, r0
 354 010a 1846     		mov	r0, r3
 355 010c FFF7FEFF 		bl	sat_i16
 356 0110 0346     		mov	r3, r0
 357 0112 1A46     		mov	r2, r3
 358 0114 3B68     		ldr	r3, [r7]
 359 0116 9A82     		strh	r2, [r3, #20]	@ movhi
  76:telemetry.c   ****     out->q_k = sat_i16(tel.gimbal_k * 32767.0f);
 360              		.loc 1 76 0
 361 0118 3B6A     		ldr	r3, [r7, #32]	@ float
 362 011a 1149     		ldr	r1, .L39+8
 363 011c 1846     		mov	r0, r3
 364 011e FFF7FEFF 		bl	__aeabi_fmul
 365 0122 0346     		mov	r3, r0
 366 0124 1846     		mov	r0, r3
 367 0126 FFF7FEFF 		bl	sat_i16
 368 012a 0346     		mov	r3, r0
 369 012c 1A46     		mov	r2, r3
 370 012e 3B68     		ldr	r3, [r7]
 371 0130 DA82     		strh	r2, [r3, #22]	@ movhi
  77:telemetry.c   ****     out->q_r = sat_i16(tel.gimbal_r * 32767.0f);
 372              		.loc 1 77 0
 373 0132 7B69     		ldr	r3, [r7, #20]	@ float
 374 0134 0A49     		ldr	r1, .L39+8
 375 0136 1846     		mov	r0, r3
 376 0138 FFF7FEFF 		bl	__aeabi_fmul
 377 013c 0346     		mov	r3, r0
 378 013e 1846     		mov	r0, r3
 379 0140 FFF7FEFF 		bl	sat_i16
ARM GAS  C:\Users\JENNEW~1\AppData\Local\Temp\ccW8Un4u.s 			page 9


 380 0144 0346     		mov	r3, r0
 381 0146 1A46     		mov	r2, r3
 382 0148 3B68     		ldr	r3, [r7]
 383 014a 1A83     		strh	r2, [r3, #24]	@ movhi
 384 014c 00E0     		b	.L35
 385              	.L38:
  57:telemetry.c   **** 
 386              		.loc 1 57 0
 387 014e 00BF     		nop
 388              	.L35:
  78:telemetry.c   **** }
 389              		.loc 1 78 0
 390 0150 F837     		adds	r7, r7, #248
 391              		.cfi_def_cfa_offset 8
 392 0152 BD46     		mov	sp, r7
 393              		.cfi_def_cfa_register 13
 394              		@ sp needed
 395 0154 80BD     		pop	{r7, pc}
 396              	.L40:
 397 0156 00BF     		.align	2
 398              	.L39:
 399 0158 00000000 		.word	g_tick_ms
 400 015c 0000C842 		.word	1120403456
 401 0160 00FEFF46 		.word	1191181824
 402              		.cfi_endproc
 403              	.LFE66:
 404              		.size	telemetry_collect_hot, .-telemetry_collect_hot
 405              		.section	.text.telemetry_collect_link,"ax",%progbits
 406              		.align	2
 407              		.global	telemetry_collect_link
 408              		.thumb
 409              		.thumb_func
 410              		.type	telemetry_collect_link, %function
 411              	telemetry_collect_link:
 412              	.LFB67:
  79:telemetry.c   **** 
  80:telemetry.c   **** void telemetry_collect_link(const app_ctx_t *ctx, telem_link_t *out)
  81:telemetry.c   **** {
 413              		.loc 1 81 0
 414              		.cfi_startproc
 415              		@ args = 0, pretend = 0, frame = 8
 416              		@ frame_needed = 1, uses_anonymous_args = 0
 417 0000 80B5     		push	{r7, lr}
 418              		.cfi_def_cfa_offset 8
 419              		.cfi_offset 7, -8
 420              		.cfi_offset 14, -4
 421 0002 82B0     		sub	sp, sp, #8
 422              		.cfi_def_cfa_offset 16
 423 0004 00AF     		add	r7, sp, #0
 424              		.cfi_def_cfa_register 7
 425 0006 7860     		str	r0, [r7, #4]
 426 0008 3960     		str	r1, [r7]
  82:telemetry.c   ****     (void)ctx;
  83:telemetry.c   ****     memset(out, 0, sizeof *out);
 427              		.loc 1 83 0
 428 000a 1422     		movs	r2, #20
 429 000c 0021     		movs	r1, #0
ARM GAS  C:\Users\JENNEW~1\AppData\Local\Temp\ccW8Un4u.s 			page 10


 430 000e 3868     		ldr	r0, [r7]
 431 0010 FFF7FEFF 		bl	memset
  84:telemetry.c   ****     out->t_ms                = g_tick_ms;
 432              		.loc 1 84 0
 433 0014 124B     		ldr	r3, .L42
 434 0016 1A68     		ldr	r2, [r3]
 435 0018 3B68     		ldr	r3, [r7]
 436 001a 1A60     		str	r2, [r3]
  85:telemetry.c   ****     out->crc_fail            = sbc_crc_errors();
 437              		.loc 1 85 0
 438 001c FFF7FEFF 		bl	sbc_crc_errors
 439 0020 0346     		mov	r3, r0
 440 0022 1A46     		mov	r2, r3
 441 0024 3B68     		ldr	r3, [r7]
 442 0026 9A80     		strh	r2, [r3, #4]	@ movhi
  86:telemetry.c   ****     out->uart_err            = sbc_uart_errors();
 443              		.loc 1 86 0
 444 0028 FFF7FEFF 		bl	sbc_uart_errors
 445 002c 0346     		mov	r3, r0
 446 002e 1A46     		mov	r2, r3
 447 0030 3B68     		ldr	r3, [r7]
 448 0032 DA80     		strh	r2, [r3, #6]	@ movhi
  87:telemetry.c   ****     out->unknown_magic       = sbc_unknown_magic();
 449              		.loc 1 87 0
 450 0034 FFF7FEFF 		bl	sbc_unknown_magic
 451 0038 0346     		mov	r3, r0
 452 003a 1A46     		mov	r2, r3
 453 003c 3B68     		ldr	r3, [r7]
 454 003e 1A81     		strh	r2, [r3, #8]	@ movhi
  88:telemetry.c   ****     out->rx_pkt_count        = sbc_rx_pkt_count();
 455              		.loc 1 88 0
 456 0040 FFF7FEFF 		bl	sbc_rx_pkt_count
 457 0044 0246     		mov	r2, r0
 458 0046 3B68     		ldr	r3, [r7]
 459 0048 DA60     		str	r2, [r3, #12]
  89:telemetry.c   ****     out->last_centroid_dt_ms = sbc_last_centroid_dt_ms(STREAM_COARSE);
 460              		.loc 1 89 0
 461 004a 0020     		movs	r0, #0
 462 004c FFF7FEFF 		bl	sbc_last_centroid_dt_ms
 463 0050 0346     		mov	r3, r0
 464 0052 1A46     		mov	r2, r3
 465 0054 3B68     		ldr	r3, [r7]
 466 0056 1A82     		strh	r2, [r3, #16]	@ movhi
  90:telemetry.c   **** }
 467              		.loc 1 90 0
 468 0058 00BF     		nop
 469 005a 0837     		adds	r7, r7, #8
 470              		.cfi_def_cfa_offset 8
 471 005c BD46     		mov	sp, r7
 472              		.cfi_def_cfa_register 13
 473              		@ sp needed
 474 005e 80BD     		pop	{r7, pc}
 475              	.L43:
 476              		.align	2
 477              	.L42:
 478 0060 00000000 		.word	g_tick_ms
 479              		.cfi_endproc
ARM GAS  C:\Users\JENNEW~1\AppData\Local\Temp\ccW8Un4u.s 			page 11


 480              	.LFE67:
 481              		.size	telemetry_collect_link, .-telemetry_collect_link
 482              		.section	.text.telemetry_collect_power,"ax",%progbits
 483              		.align	2
 484              		.global	telemetry_collect_power
 485              		.thumb
 486              		.thumb_func
 487              		.type	telemetry_collect_power, %function
 488              	telemetry_collect_power:
 489              	.LFB68:
  91:telemetry.c   **** void telemetry_collect_power(const app_ctx_t *ctx, telem_power_t *out)
  92:telemetry.c   **** {
 490              		.loc 1 92 0
 491              		.cfi_startproc
 492              		@ args = 0, pretend = 0, frame = 248
 493              		@ frame_needed = 1, uses_anonymous_args = 0
 494 0000 80B5     		push	{r7, lr}
 495              		.cfi_def_cfa_offset 8
 496              		.cfi_offset 7, -8
 497              		.cfi_offset 14, -4
 498 0002 BEB0     		sub	sp, sp, #248
 499              		.cfi_def_cfa_offset 256
 500 0004 00AF     		add	r7, sp, #0
 501              		.cfi_def_cfa_register 7
 502 0006 7860     		str	r0, [r7, #4]
 503 0008 3960     		str	r1, [r7]
  93:telemetry.c   ****     memset(out, 0, sizeof *out);
 504              		.loc 1 93 0
 505 000a 1022     		movs	r2, #16
 506 000c 0021     		movs	r1, #0
 507 000e 3868     		ldr	r0, [r7]
 508 0010 FFF7FEFF 		bl	memset
  94:telemetry.c   ****     out->t_ms = g_tick_ms;
 509              		.loc 1 94 0
 510 0014 284B     		ldr	r3, .L48
 511 0016 1A68     		ldr	r2, [r3]
 512 0018 3B68     		ldr	r3, [r7]
 513 001a 1A60     		str	r2, [r3]
  95:telemetry.c   **** 
  96:telemetry.c   ****     if (!ctx->gimbal) return;
 514              		.loc 1 96 0
 515 001c 7B68     		ldr	r3, [r7, #4]
 516 001e 1B68     		ldr	r3, [r3]
 517 0020 002B     		cmp	r3, #0
 518 0022 45D0     		beq	.L47
  97:telemetry.c   ****     hamfly_telemetry_t tel;
  98:telemetry.c   ****     hamfly_get_telemetry(ctx->gimbal, &tel);
 519              		.loc 1 98 0
 520 0024 7B68     		ldr	r3, [r7, #4]
 521 0026 1B68     		ldr	r3, [r3]
 522 0028 07F10C02 		add	r2, r7, #12
 523 002c 1146     		mov	r1, r2
 524 002e 1846     		mov	r0, r3
 525 0030 FFF7FEFF 		bl	hamfly_get_telemetry
  99:telemetry.c   **** 
 100:telemetry.c   ****     out->vbat_left_mv    = sat_u16(tel.battery_left_v  * 1000.0f);
 526              		.loc 1 100 0
ARM GAS  C:\Users\JENNEW~1\AppData\Local\Temp\ccW8Un4u.s 			page 12


 527 0034 3B69     		ldr	r3, [r7, #16]	@ float
 528 0036 2149     		ldr	r1, .L48+4
 529 0038 1846     		mov	r0, r3
 530 003a FFF7FEFF 		bl	__aeabi_fmul
 531 003e 0346     		mov	r3, r0
 532 0040 1846     		mov	r0, r3
 533 0042 FFF7FEFF 		bl	sat_u16
 534 0046 0346     		mov	r3, r0
 535 0048 1A46     		mov	r2, r3
 536 004a 3B68     		ldr	r3, [r7]
 537 004c 9A80     		strh	r2, [r3, #4]	@ movhi
 101:telemetry.c   ****     out->vbat_right_mv   = sat_u16(tel.battery_right_v * 1000.0f);
 538              		.loc 1 101 0
 539 004e 7B69     		ldr	r3, [r7, #20]	@ float
 540 0050 1A49     		ldr	r1, .L48+4
 541 0052 1846     		mov	r0, r3
 542 0054 FFF7FEFF 		bl	__aeabi_fmul
 543 0058 0346     		mov	r3, r0
 544 005a 1846     		mov	r0, r3
 545 005c FFF7FEFF 		bl	sat_u16
 546 0060 0346     		mov	r3, r0
 547 0062 1A46     		mov	r2, r3
 548 0064 3B68     		ldr	r3, [r7]
 549 0066 DA80     		strh	r2, [r3, #6]	@ movhi
 102:telemetry.c   ****     out->sysstat_batt_mv = sat_u16(tel.sysstat_batt_v  * 1000.0f);
 550              		.loc 1 102 0
 551 0068 D7F8A030 		ldr	r3, [r7, #160]	@ float
 552 006c 1349     		ldr	r1, .L48+4
 553 006e 1846     		mov	r0, r3
 554 0070 FFF7FEFF 		bl	__aeabi_fmul
 555 0074 0346     		mov	r3, r0
 556 0076 1846     		mov	r0, r3
 557 0078 FFF7FEFF 		bl	sat_u16
 558 007c 0346     		mov	r3, r0
 559 007e 1A46     		mov	r2, r3
 560 0080 3B68     		ldr	r3, [r7]
 561 0082 1A81     		strh	r2, [r3, #8]	@ movhi
 103:telemetry.c   ****     out->sysstat_batt_ma = sat_i16(tel.sysstat_batt_a  * 1000.0f);
 562              		.loc 1 103 0
 563 0084 D7F8C030 		ldr	r3, [r7, #192]	@ float
 564 0088 0C49     		ldr	r1, .L48+4
 565 008a 1846     		mov	r0, r3
 566 008c FFF7FEFF 		bl	__aeabi_fmul
 567 0090 0346     		mov	r3, r0
 568 0092 1846     		mov	r0, r3
 569 0094 FFF7FEFF 		bl	sat_i16
 570 0098 0346     		mov	r3, r0
 571 009a 1A46     		mov	r2, r3
 572 009c 3B68     		ldr	r3, [r7]
 573 009e 5A81     		strh	r2, [r3, #10]	@ movhi
 104:telemetry.c   ****     out->sysstat_cpu_pct = tel.sysstat_cpu_pct;
 574              		.loc 1 104 0
 575 00a0 97F8AC20 		ldrb	r2, [r7, #172]	@ zero_extendqisi2
 576 00a4 3B68     		ldr	r3, [r7]
 577 00a6 1A73     		strb	r2, [r3, #12]
 105:telemetry.c   **** 
 106:telemetry.c   ****     //  TODO: wire DieTemp component if/when added to TopDesign.
ARM GAS  C:\Users\JENNEW~1\AppData\Local\Temp\ccW8Un4u.s 			page 13


 107:telemetry.c   ****     out->mcu_temp_c = 0;
 578              		.loc 1 107 0
 579 00a8 3B68     		ldr	r3, [r7]
 580 00aa 0022     		movs	r2, #0
 581 00ac 5A73     		strb	r2, [r3, #13]
 582 00ae 00E0     		b	.L44
 583              	.L47:
  96:telemetry.c   ****     hamfly_telemetry_t tel;
 584              		.loc 1 96 0
 585 00b0 00BF     		nop
 586              	.L44:
 108:telemetry.c   **** }
 587              		.loc 1 108 0
 588 00b2 F837     		adds	r7, r7, #248
 589              		.cfi_def_cfa_offset 8
 590 00b4 BD46     		mov	sp, r7
 591              		.cfi_def_cfa_register 13
 592              		@ sp needed
 593 00b6 80BD     		pop	{r7, pc}
 594              	.L49:
 595              		.align	2
 596              	.L48:
 597 00b8 00000000 		.word	g_tick_ms
 598 00bc 00007A44 		.word	1148846080
 599              		.cfi_endproc
 600              	.LFE68:
 601              		.size	telemetry_collect_power, .-telemetry_collect_power
 602              		.section	.text.telemetry_collect_env,"ax",%progbits
 603              		.align	2
 604              		.global	telemetry_collect_env
 605              		.thumb
 606              		.thumb_func
 607              		.type	telemetry_collect_env, %function
 608              	telemetry_collect_env:
 609              	.LFB69:
 109:telemetry.c   **** 
 110:telemetry.c   **** void telemetry_collect_env(const app_ctx_t *ctx, telem_env_t *out)
 111:telemetry.c   **** {
 610              		.loc 1 111 0
 611              		.cfi_startproc
 612              		@ args = 0, pretend = 0, frame = 248
 613              		@ frame_needed = 1, uses_anonymous_args = 0
 614 0000 80B5     		push	{r7, lr}
 615              		.cfi_def_cfa_offset 8
 616              		.cfi_offset 7, -8
 617              		.cfi_offset 14, -4
 618 0002 BEB0     		sub	sp, sp, #248
 619              		.cfi_def_cfa_offset 256
 620 0004 00AF     		add	r7, sp, #0
 621              		.cfi_def_cfa_register 7
 622 0006 7860     		str	r0, [r7, #4]
 623 0008 3960     		str	r1, [r7]
 112:telemetry.c   ****     memset(out, 0, sizeof *out);
 624              		.loc 1 112 0
 625 000a 0C22     		movs	r2, #12
 626 000c 0021     		movs	r1, #0
 627 000e 3868     		ldr	r0, [r7]
ARM GAS  C:\Users\JENNEW~1\AppData\Local\Temp\ccW8Un4u.s 			page 14


 628 0010 FFF7FEFF 		bl	memset
 113:telemetry.c   ****     out->t_ms = g_tick_ms;
 629              		.loc 1 113 0
 630 0014 174B     		ldr	r3, .L54
 631 0016 1A68     		ldr	r2, [r3]
 632 0018 3B68     		ldr	r3, [r7]
 633 001a 1A60     		str	r2, [r3]
 114:telemetry.c   **** 
 115:telemetry.c   ****     if (!ctx->gimbal) return;
 634              		.loc 1 115 0
 635 001c 7B68     		ldr	r3, [r7, #4]
 636 001e 1B68     		ldr	r3, [r3]
 637 0020 002B     		cmp	r3, #0
 638 0022 23D0     		beq	.L53
 116:telemetry.c   ****     hamfly_telemetry_t tel;
 117:telemetry.c   ****     hamfly_get_telemetry(ctx->gimbal, &tel);
 639              		.loc 1 117 0
 640 0024 7B68     		ldr	r3, [r7, #4]
 641 0026 1B68     		ldr	r3, [r3]
 642 0028 07F10C02 		add	r2, r7, #12
 643 002c 1146     		mov	r1, r2
 644 002e 1846     		mov	r0, r3
 645 0030 FFF7FEFF 		bl	hamfly_get_telemetry
 118:telemetry.c   **** 
 119:telemetry.c   ****     out->sysstat_temp_c10  = sat_i16(tel.sysstat_temp_c     * 10.0f);
 646              		.loc 1 119 0
 647 0034 D7F8A830 		ldr	r3, [r7, #168]	@ float
 648 0038 0F49     		ldr	r1, .L54+4
 649 003a 1846     		mov	r0, r3
 650 003c FFF7FEFF 		bl	__aeabi_fmul
 651 0040 0346     		mov	r3, r0
 652 0042 1846     		mov	r0, r3
 653 0044 FFF7FEFF 		bl	sat_i16
 654 0048 0346     		mov	r3, r0
 655 004a 1A46     		mov	r2, r3
 656 004c 3B68     		ldr	r3, [r7]
 657 004e 9A80     		strh	r2, [r3, #4]	@ movhi
 120:telemetry.c   ****     out->sysstat_press_Pa  = sat_u32(tel.sysstat_pressure_mb * 100.0f);
 658              		.loc 1 120 0
 659 0050 D7F8B430 		ldr	r3, [r7, #180]	@ float
 660 0054 0949     		ldr	r1, .L54+8
 661 0056 1846     		mov	r0, r3
 662 0058 FFF7FEFF 		bl	__aeabi_fmul
 663 005c 0346     		mov	r3, r0
 664 005e 1846     		mov	r0, r3
 665 0060 FFF7FEFF 		bl	sat_u32
 666 0064 0246     		mov	r2, r0
 667 0066 3B68     		ldr	r3, [r7]
 668 0068 9A60     		str	r2, [r3, #8]
 669 006a 00E0     		b	.L50
 670              	.L53:
 115:telemetry.c   ****     hamfly_telemetry_t tel;
 671              		.loc 1 115 0
 672 006c 00BF     		nop
 673              	.L50:
 121:telemetry.c   **** }
 674              		.loc 1 121 0
ARM GAS  C:\Users\JENNEW~1\AppData\Local\Temp\ccW8Un4u.s 			page 15


 675 006e F837     		adds	r7, r7, #248
 676              		.cfi_def_cfa_offset 8
 677 0070 BD46     		mov	sp, r7
 678              		.cfi_def_cfa_register 13
 679              		@ sp needed
 680 0072 80BD     		pop	{r7, pc}
 681              	.L55:
 682              		.align	2
 683              	.L54:
 684 0074 00000000 		.word	g_tick_ms
 685 0078 00002041 		.word	1092616192
 686 007c 0000C842 		.word	1120403456
 687              		.cfi_endproc
 688              	.LFE69:
 689              		.size	telemetry_collect_env, .-telemetry_collect_env
 690              		.section	.text.telemetry_collect_gps,"ax",%progbits
 691              		.align	2
 692              		.global	telemetry_collect_gps
 693              		.thumb
 694              		.thumb_func
 695              		.type	telemetry_collect_gps, %function
 696              	telemetry_collect_gps:
 697              	.LFB70:
 122:telemetry.c   **** 
 123:telemetry.c   **** void telemetry_collect_gps(const app_ctx_t *ctx, telem_gps_t *out)
 124:telemetry.c   **** {
 698              		.loc 1 124 0
 699              		.cfi_startproc
 700              		@ args = 0, pretend = 0, frame = 248
 701              		@ frame_needed = 1, uses_anonymous_args = 0
 702 0000 80B5     		push	{r7, lr}
 703              		.cfi_def_cfa_offset 8
 704              		.cfi_offset 7, -8
 705              		.cfi_offset 14, -4
 706 0002 BEB0     		sub	sp, sp, #248
 707              		.cfi_def_cfa_offset 256
 708 0004 00AF     		add	r7, sp, #0
 709              		.cfi_def_cfa_register 7
 710 0006 7860     		str	r0, [r7, #4]
 711 0008 3960     		str	r1, [r7]
 125:telemetry.c   ****     memset(out, 0, sizeof *out);
 712              		.loc 1 125 0
 713 000a 2022     		movs	r2, #32
 714 000c 0021     		movs	r1, #0
 715 000e 3868     		ldr	r0, [r7]
 716 0010 FFF7FEFF 		bl	memset
 126:telemetry.c   ****     out->t_ms = g_tick_ms;
 717              		.loc 1 126 0
 718 0014 234B     		ldr	r3, .L64
 719 0016 1A68     		ldr	r2, [r3]
 720 0018 3B68     		ldr	r3, [r7]
 721 001a 1A60     		str	r2, [r3]
 127:telemetry.c   **** 
 128:telemetry.c   ****     if (!ctx->gimbal) return;
 722              		.loc 1 128 0
 723 001c 7B68     		ldr	r3, [r7, #4]
 724 001e 1B68     		ldr	r3, [r3]
ARM GAS  C:\Users\JENNEW~1\AppData\Local\Temp\ccW8Un4u.s 			page 16


 725 0020 002B     		cmp	r3, #0
 726 0022 3BD0     		beq	.L63
 129:telemetry.c   ****     hamfly_telemetry_t tel;
 130:telemetry.c   ****     hamfly_get_telemetry(ctx->gimbal, &tel);
 727              		.loc 1 130 0
 728 0024 7B68     		ldr	r3, [r7, #4]
 729 0026 1B68     		ldr	r3, [r3]
 730 0028 07F10C02 		add	r2, r7, #12
 731 002c 1146     		mov	r1, r2
 732 002e 1846     		mov	r0, r3
 733 0030 FFF7FEFF 		bl	hamfly_get_telemetry
 131:telemetry.c   **** 
 132:telemetry.c   ****     out->flags   = (uint8_t)((tel.gps_valid  ? 0x01u : 0u)
 734              		.loc 1 132 0
 735 0034 97F82A30 		ldrb	r3, [r7, #42]	@ zero_extendqisi2
 736 0038 002B     		cmp	r3, #0
 737 003a 01D0     		beq	.L59
 738              		.loc 1 132 0 is_stmt 0 discriminator 1
 739 003c 0122     		movs	r2, #1
 740 003e 00E0     		b	.L60
 741              	.L59:
 742              		.loc 1 132 0 discriminator 2
 743 0040 0022     		movs	r2, #0
 744              	.L60:
 133:telemetry.c   ****                            | (tel.gps_locked ? 0x02u : 0u));
 745              		.loc 1 133 0 is_stmt 1 discriminator 4
 746 0042 97F82B30 		ldrb	r3, [r7, #43]	@ zero_extendqisi2
 132:telemetry.c   ****                            | (tel.gps_locked ? 0x02u : 0u));
 747              		.loc 1 132 0 discriminator 4
 748 0046 002B     		cmp	r3, #0
 749 0048 01D0     		beq	.L61
 132:telemetry.c   ****                            | (tel.gps_locked ? 0x02u : 0u));
 750              		.loc 1 132 0 is_stmt 0 discriminator 5
 751 004a 0223     		movs	r3, #2
 752 004c 00E0     		b	.L62
 753              	.L61:
 132:telemetry.c   ****                            | (tel.gps_locked ? 0x02u : 0u));
 754              		.loc 1 132 0 discriminator 6
 755 004e 0023     		movs	r3, #0
 756              	.L62:
 132:telemetry.c   ****                            | (tel.gps_locked ? 0x02u : 0u));
 757              		.loc 1 132 0 discriminator 8
 758 0050 1343     		orrs	r3, r3, r2
 759 0052 DAB2     		uxtb	r2, r3
 760 0054 3B68     		ldr	r3, [r7]
 761 0056 1A71     		strb	r2, [r3, #4]
 134:telemetry.c   ****     out->sats    = tel.sysstat_gps_sats;   //  comes from SYSSTAT, not GPS attr
 762              		.loc 1 134 0 is_stmt 1 discriminator 8
 763 0058 97F8A420 		ldrb	r2, [r7, #164]	@ zero_extendqisi2
 764 005c 3B68     		ldr	r3, [r7]
 765 005e 5A71     		strb	r2, [r3, #5]
 135:telemetry.c   ****     out->raw_lat = tel.gps_raw_lat;
 766              		.loc 1 135 0 discriminator 8
 767 0060 FA6C     		ldr	r2, [r7, #76]
 768 0062 3B68     		ldr	r3, [r7]
 769 0064 9A60     		str	r2, [r3, #8]
 136:telemetry.c   ****     out->raw_lon = tel.gps_raw_lon;
ARM GAS  C:\Users\JENNEW~1\AppData\Local\Temp\ccW8Un4u.s 			page 17


 770              		.loc 1 136 0 discriminator 8
 771 0066 3A6D     		ldr	r2, [r7, #80]
 772 0068 3B68     		ldr	r3, [r7]
 773 006a DA60     		str	r2, [r3, #12]
 137:telemetry.c   ****     out->raw_alt = tel.gps_raw_alt;
 774              		.loc 1 137 0 discriminator 8
 775 006c 7A6D     		ldr	r2, [r7, #84]
 776 006e 3B68     		ldr	r3, [r7]
 777 0070 1A61     		str	r2, [r3, #16]
 138:telemetry.c   ****     out->raw_spd = tel.gps_raw_spd;
 778              		.loc 1 138 0 discriminator 8
 779 0072 B7F95820 		ldrsh	r2, [r7, #88]
 780 0076 3B68     		ldr	r3, [r7]
 781 0078 9A82     		strh	r2, [r3, #20]	@ movhi
 139:telemetry.c   ****     out->raw_hdg = tel.gps_raw_hdg;
 782              		.loc 1 139 0 discriminator 8
 783 007a B7F95A20 		ldrsh	r2, [r7, #90]
 784 007e 3B68     		ldr	r3, [r7]
 785 0080 DA82     		strh	r2, [r3, #22]	@ movhi
 140:telemetry.c   ****     out->hacc    = tel.gps_raw_hacc;
 786              		.loc 1 140 0 discriminator 8
 787 0082 B7F85C20 		ldrh	r2, [r7, #92]
 788 0086 3B68     		ldr	r3, [r7]
 789 0088 1A83     		strh	r2, [r3, #24]	@ movhi
 141:telemetry.c   ****     out->vacc    = tel.gps_raw_vacc;
 790              		.loc 1 141 0 discriminator 8
 791 008a B7F85E20 		ldrh	r2, [r7, #94]
 792 008e 3B68     		ldr	r3, [r7]
 793 0090 5A83     		strh	r2, [r3, #26]	@ movhi
 142:telemetry.c   ****     out->sacc    = tel.gps_raw_sacc;
 794              		.loc 1 142 0 discriminator 8
 795 0092 B7F86020 		ldrh	r2, [r7, #96]
 796 0096 3B68     		ldr	r3, [r7]
 797 0098 9A83     		strh	r2, [r3, #28]	@ movhi
 798 009a 00E0     		b	.L56
 799              	.L63:
 128:telemetry.c   ****     hamfly_telemetry_t tel;
 800              		.loc 1 128 0
 801 009c 00BF     		nop
 802              	.L56:
 143:telemetry.c   **** }
 803              		.loc 1 143 0
 804 009e F837     		adds	r7, r7, #248
 805              		.cfi_def_cfa_offset 8
 806 00a0 BD46     		mov	sp, r7
 807              		.cfi_def_cfa_register 13
 808              		@ sp needed
 809 00a2 80BD     		pop	{r7, pc}
 810              	.L65:
 811              		.align	2
 812              	.L64:
 813 00a4 00000000 		.word	g_tick_ms
 814              		.cfi_endproc
 815              	.LFE70:
 816              		.size	telemetry_collect_gps, .-telemetry_collect_gps
 817              		.section	.text.telemetry_collect_baro,"ax",%progbits
 818              		.align	2
ARM GAS  C:\Users\JENNEW~1\AppData\Local\Temp\ccW8Un4u.s 			page 18


 819              		.global	telemetry_collect_baro
 820              		.thumb
 821              		.thumb_func
 822              		.type	telemetry_collect_baro, %function
 823              	telemetry_collect_baro:
 824              	.LFB71:
 144:telemetry.c   **** 
 145:telemetry.c   **** void telemetry_collect_baro(const app_ctx_t *ctx, telem_baro_t *out)
 146:telemetry.c   **** {
 825              		.loc 1 146 0
 826              		.cfi_startproc
 827              		@ args = 0, pretend = 0, frame = 248
 828              		@ frame_needed = 1, uses_anonymous_args = 0
 829 0000 80B5     		push	{r7, lr}
 830              		.cfi_def_cfa_offset 8
 831              		.cfi_offset 7, -8
 832              		.cfi_offset 14, -4
 833 0002 BEB0     		sub	sp, sp, #248
 834              		.cfi_def_cfa_offset 256
 835 0004 00AF     		add	r7, sp, #0
 836              		.cfi_def_cfa_register 7
 837 0006 7860     		str	r0, [r7, #4]
 838 0008 3960     		str	r1, [r7]
 147:telemetry.c   ****     memset(out, 0, sizeof *out);
 839              		.loc 1 147 0
 840 000a 1022     		movs	r2, #16
 841 000c 0021     		movs	r1, #0
 842 000e 3868     		ldr	r0, [r7]
 843 0010 FFF7FEFF 		bl	memset
 148:telemetry.c   ****     out->t_ms = g_tick_ms;
 844              		.loc 1 148 0
 845 0014 1B4B     		ldr	r3, .L72
 846 0016 1A68     		ldr	r2, [r3]
 847 0018 3B68     		ldr	r3, [r7]
 848 001a 1A60     		str	r2, [r3]
 149:telemetry.c   **** 
 150:telemetry.c   ****     if (!ctx->gimbal) return;
 849              		.loc 1 150 0
 850 001c 7B68     		ldr	r3, [r7, #4]
 851 001e 1B68     		ldr	r3, [r3]
 852 0020 002B     		cmp	r3, #0
 853 0022 2AD0     		beq	.L71
 151:telemetry.c   ****     hamfly_telemetry_t tel;
 152:telemetry.c   ****     hamfly_get_telemetry(ctx->gimbal, &tel);
 854              		.loc 1 152 0
 855 0024 7B68     		ldr	r3, [r7, #4]
 856 0026 1B68     		ldr	r3, [r3]
 857 0028 07F10C02 		add	r2, r7, #12
 858 002c 1146     		mov	r1, r2
 859 002e 1846     		mov	r0, r3
 860 0030 FFF7FEFF 		bl	hamfly_get_telemetry
 153:telemetry.c   **** 
 154:telemetry.c   ****     out->flags   = (uint8_t)(tel.baro_valid ? 0x01u : 0u);
 861              		.loc 1 154 0
 862 0034 97F86230 		ldrb	r3, [r7, #98]	@ zero_extendqisi2
 863 0038 002B     		cmp	r3, #0
 864 003a 01D0     		beq	.L69
ARM GAS  C:\Users\JENNEW~1\AppData\Local\Temp\ccW8Un4u.s 			page 19


 865              		.loc 1 154 0 is_stmt 0 discriminator 1
 866 003c 0122     		movs	r2, #1
 867 003e 00E0     		b	.L70
 868              	.L69:
 869              		.loc 1 154 0 discriminator 2
 870 0040 0022     		movs	r2, #0
 871              	.L70:
 872              		.loc 1 154 0 discriminator 4
 873 0042 3B68     		ldr	r3, [r7]
 874 0044 1A71     		strb	r2, [r3, #4]
 155:telemetry.c   ****     out->alt_dm  = (int32_t)(tel.baro_alt_m * 10.0f);     //  saturate not needed: alt range fits i
 875              		.loc 1 155 0 is_stmt 1 discriminator 4
 876 0046 7B6E     		ldr	r3, [r7, #100]	@ float
 877 0048 0F49     		ldr	r1, .L72+4
 878 004a 1846     		mov	r0, r3
 879 004c FFF7FEFF 		bl	__aeabi_fmul
 880 0050 0346     		mov	r3, r0
 881 0052 1846     		mov	r0, r3
 882 0054 FFF7FEFF 		bl	__aeabi_f2iz
 883 0058 0246     		mov	r2, r0
 884 005a 3B68     		ldr	r3, [r7]
 885 005c 9A60     		str	r2, [r3, #8]
 156:telemetry.c   ****     out->roc_cms = sat_i16(tel.baro_roc_ms * 100.0f);
 886              		.loc 1 156 0 discriminator 4
 887 005e BB6E     		ldr	r3, [r7, #104]	@ float
 888 0060 0A49     		ldr	r1, .L72+8
 889 0062 1846     		mov	r0, r3
 890 0064 FFF7FEFF 		bl	__aeabi_fmul
 891 0068 0346     		mov	r3, r0
 892 006a 1846     		mov	r0, r3
 893 006c FFF7FEFF 		bl	sat_i16
 894 0070 0346     		mov	r3, r0
 895 0072 1A46     		mov	r2, r3
 896 0074 3B68     		ldr	r3, [r7]
 897 0076 9A81     		strh	r2, [r3, #12]	@ movhi
 898 0078 00E0     		b	.L66
 899              	.L71:
 150:telemetry.c   ****     hamfly_telemetry_t tel;
 900              		.loc 1 150 0
 901 007a 00BF     		nop
 902              	.L66:
 157:telemetry.c   **** }
 903              		.loc 1 157 0
 904 007c F837     		adds	r7, r7, #248
 905              		.cfi_def_cfa_offset 8
 906 007e BD46     		mov	sp, r7
 907              		.cfi_def_cfa_register 13
 908              		@ sp needed
 909 0080 80BD     		pop	{r7, pc}
 910              	.L73:
 911 0082 00BF     		.align	2
 912              	.L72:
 913 0084 00000000 		.word	g_tick_ms
 914 0088 00002041 		.word	1092616192
 915 008c 0000C842 		.word	1120403456
 916              		.cfi_endproc
 917              	.LFE71:
ARM GAS  C:\Users\JENNEW~1\AppData\Local\Temp\ccW8Un4u.s 			page 20


 918              		.size	telemetry_collect_baro, .-telemetry_collect_baro
 919              		.section	.text.telemetry_collect_mag,"ax",%progbits
 920              		.align	2
 921              		.global	telemetry_collect_mag
 922              		.thumb
 923              		.thumb_func
 924              		.type	telemetry_collect_mag, %function
 925              	telemetry_collect_mag:
 926              	.LFB72:
 158:telemetry.c   **** 
 159:telemetry.c   **** void telemetry_collect_mag(const app_ctx_t *ctx, telem_mag_t *out)
 160:telemetry.c   **** {
 927              		.loc 1 160 0
 928              		.cfi_startproc
 929              		@ args = 0, pretend = 0, frame = 248
 930              		@ frame_needed = 1, uses_anonymous_args = 0
 931 0000 80B5     		push	{r7, lr}
 932              		.cfi_def_cfa_offset 8
 933              		.cfi_offset 7, -8
 934              		.cfi_offset 14, -4
 935 0002 BEB0     		sub	sp, sp, #248
 936              		.cfi_def_cfa_offset 256
 937 0004 00AF     		add	r7, sp, #0
 938              		.cfi_def_cfa_register 7
 939 0006 7860     		str	r0, [r7, #4]
 940 0008 3960     		str	r1, [r7]
 161:telemetry.c   ****     memset(out, 0, sizeof *out);
 941              		.loc 1 161 0
 942 000a 1022     		movs	r2, #16
 943 000c 0021     		movs	r1, #0
 944 000e 3868     		ldr	r0, [r7]
 945 0010 FFF7FEFF 		bl	memset
 162:telemetry.c   ****     out->t_ms = g_tick_ms;
 946              		.loc 1 162 0
 947 0014 2A4B     		ldr	r3, .L80
 948 0016 1A68     		ldr	r2, [r3]
 949 0018 3B68     		ldr	r3, [r7]
 950 001a 1A60     		str	r2, [r3]
 163:telemetry.c   **** 
 164:telemetry.c   ****     if (!ctx->gimbal) return;
 951              		.loc 1 164 0
 952 001c 7B68     		ldr	r3, [r7, #4]
 953 001e 1B68     		ldr	r3, [r3]
 954 0020 002B     		cmp	r3, #0
 955 0022 49D0     		beq	.L79
 165:telemetry.c   ****     hamfly_telemetry_t tel;
 166:telemetry.c   ****     hamfly_get_telemetry(ctx->gimbal, &tel);
 956              		.loc 1 166 0
 957 0024 7B68     		ldr	r3, [r7, #4]
 958 0026 1B68     		ldr	r3, [r3]
 959 0028 07F10C02 		add	r2, r7, #12
 960 002c 1146     		mov	r1, r2
 961 002e 1846     		mov	r0, r3
 962 0030 FFF7FEFF 		bl	hamfly_get_telemetry
 167:telemetry.c   **** 
 168:telemetry.c   ****     out->flags    = (uint8_t)(tel.mag_valid ? 0x01u : 0u);
 963              		.loc 1 168 0
ARM GAS  C:\Users\JENNEW~1\AppData\Local\Temp\ccW8Un4u.s 			page 21


 964 0034 97F8C630 		ldrb	r3, [r7, #198]	@ zero_extendqisi2
 965 0038 002B     		cmp	r3, #0
 966 003a 01D0     		beq	.L77
 967              		.loc 1 168 0 is_stmt 0 discriminator 1
 968 003c 0122     		movs	r2, #1
 969 003e 00E0     		b	.L78
 970              	.L77:
 971              		.loc 1 168 0 discriminator 2
 972 0040 0022     		movs	r2, #0
 973              	.L78:
 974              		.loc 1 168 0 discriminator 4
 975 0042 3B68     		ldr	r3, [r7]
 976 0044 1A71     		strb	r2, [r3, #4]
 169:telemetry.c   ****     out->x_raw    = sat_i16(tel.mag_x          * 1000.0f);
 977              		.loc 1 169 0 is_stmt 1 discriminator 4
 978 0046 D7F8C830 		ldr	r3, [r7, #200]	@ float
 979 004a 1E49     		ldr	r1, .L80+4
 980 004c 1846     		mov	r0, r3
 981 004e FFF7FEFF 		bl	__aeabi_fmul
 982 0052 0346     		mov	r3, r0
 983 0054 1846     		mov	r0, r3
 984 0056 FFF7FEFF 		bl	sat_i16
 985 005a 0346     		mov	r3, r0
 986 005c 1A46     		mov	r2, r3
 987 005e 3B68     		ldr	r3, [r7]
 988 0060 DA80     		strh	r2, [r3, #6]	@ movhi
 170:telemetry.c   ****     out->y_raw    = sat_i16(tel.mag_y          * 1000.0f);
 989              		.loc 1 170 0 discriminator 4
 990 0062 D7F8CC30 		ldr	r3, [r7, #204]	@ float
 991 0066 1749     		ldr	r1, .L80+4
 992 0068 1846     		mov	r0, r3
 993 006a FFF7FEFF 		bl	__aeabi_fmul
 994 006e 0346     		mov	r3, r0
 995 0070 1846     		mov	r0, r3
 996 0072 FFF7FEFF 		bl	sat_i16
 997 0076 0346     		mov	r3, r0
 998 0078 1A46     		mov	r2, r3
 999 007a 3B68     		ldr	r3, [r7]
 1000 007c 1A81     		strh	r2, [r3, #8]	@ movhi
 171:telemetry.c   ****     out->z_raw    = sat_i16(tel.mag_z          * 1000.0f);
 1001              		.loc 1 171 0 discriminator 4
 1002 007e D7F8D030 		ldr	r3, [r7, #208]	@ float
 1003 0082 1049     		ldr	r1, .L80+4
 1004 0084 1846     		mov	r0, r3
 1005 0086 FFF7FEFF 		bl	__aeabi_fmul
 1006 008a 0346     		mov	r3, r0
 1007 008c 1846     		mov	r0, r3
 1008 008e FFF7FEFF 		bl	sat_i16
 1009 0092 0346     		mov	r3, r0
 1010 0094 1A46     		mov	r2, r3
 1011 0096 3B68     		ldr	r3, [r7]
 1012 0098 5A81     		strh	r2, [r3, #10]	@ movhi
 172:telemetry.c   ****     out->decl_raw = sat_i16(tel.mag_declination * 10.0f);
 1013              		.loc 1 172 0 discriminator 4
 1014 009a D7F8E830 		ldr	r3, [r7, #232]	@ float
 1015 009e 0A49     		ldr	r1, .L80+8
 1016 00a0 1846     		mov	r0, r3
ARM GAS  C:\Users\JENNEW~1\AppData\Local\Temp\ccW8Un4u.s 			page 22


 1017 00a2 FFF7FEFF 		bl	__aeabi_fmul
 1018 00a6 0346     		mov	r3, r0
 1019 00a8 1846     		mov	r0, r3
 1020 00aa FFF7FEFF 		bl	sat_i16
 1021 00ae 0346     		mov	r3, r0
 1022 00b0 1A46     		mov	r2, r3
 1023 00b2 3B68     		ldr	r3, [r7]
 1024 00b4 9A81     		strh	r2, [r3, #12]	@ movhi
 1025 00b6 00E0     		b	.L74
 1026              	.L79:
 164:telemetry.c   ****     hamfly_telemetry_t tel;
 1027              		.loc 1 164 0
 1028 00b8 00BF     		nop
 1029              	.L74:
 173:telemetry.c   **** }
 1030              		.loc 1 173 0
 1031 00ba F837     		adds	r7, r7, #248
 1032              		.cfi_def_cfa_offset 8
 1033 00bc BD46     		mov	sp, r7
 1034              		.cfi_def_cfa_register 13
 1035              		@ sp needed
 1036 00be 80BD     		pop	{r7, pc}
 1037              	.L81:
 1038              		.align	2
 1039              	.L80:
 1040 00c0 00000000 		.word	g_tick_ms
 1041 00c4 00007A44 		.word	1148846080
 1042 00c8 00002041 		.word	1092616192
 1043              		.cfi_endproc
 1044              	.LFE72:
 1045              		.size	telemetry_collect_mag, .-telemetry_collect_mag
 1046              		.section	.text.encode_hot,"ax",%progbits
 1047              		.align	2
 1048              		.thumb
 1049              		.thumb_func
 1050              		.type	encode_hot, %function
 1051              	encode_hot:
 1052              	.LFB73:
 174:telemetry.c   **** 
 175:telemetry.c   **** // Packet encoders on the SBC wire
 176:telemetry.c   **** #define TELEM_HOT_LEN   26u
 177:telemetry.c   **** #define TELEM_LINK_LEN  16u
 178:telemetry.c   **** #define TELEM_POWER_LEN 14u
 179:telemetry.c   **** #define TELEM_ENV_LEN   10u
 180:telemetry.c   **** #define TELEM_GPS_LEN   28u
 181:telemetry.c   **** #define TELEM_BARO_LEN  11u
 182:telemetry.c   **** #define TELEM_MAG_LEN  13u
 183:telemetry.c   **** 
 184:telemetry.c   **** static uint8_t encode_hot(const telem_hot_t *h, uint8_t *buf)
 185:telemetry.c   **** {
 1053              		.loc 1 185 0
 1054              		.cfi_startproc
 1055              		@ args = 0, pretend = 0, frame = 16
 1056              		@ frame_needed = 1, uses_anonymous_args = 0
 1057 0000 80B5     		push	{r7, lr}
 1058              		.cfi_def_cfa_offset 8
 1059              		.cfi_offset 7, -8
ARM GAS  C:\Users\JENNEW~1\AppData\Local\Temp\ccW8Un4u.s 			page 23


 1060              		.cfi_offset 14, -4
 1061 0002 84B0     		sub	sp, sp, #16
 1062              		.cfi_def_cfa_offset 24
 1063 0004 00AF     		add	r7, sp, #0
 1064              		.cfi_def_cfa_register 7
 1065 0006 7860     		str	r0, [r7, #4]
 1066 0008 3960     		str	r1, [r7]
 186:telemetry.c   ****     uint8_t *p = buf;
 1067              		.loc 1 186 0
 1068 000a 3B68     		ldr	r3, [r7]
 1069 000c FB60     		str	r3, [r7, #12]
 187:telemetry.c   ****     memcpy(p, &h->t_ms,         4); p += 4;
 1070              		.loc 1 187 0
 1071 000e 7B68     		ldr	r3, [r7, #4]
 1072 0010 0422     		movs	r2, #4
 1073 0012 1946     		mov	r1, r3
 1074 0014 F868     		ldr	r0, [r7, #12]
 1075 0016 FFF7FEFF 		bl	memcpy
 1076 001a FB68     		ldr	r3, [r7, #12]
 1077 001c 0433     		adds	r3, r3, #4
 1078 001e FB60     		str	r3, [r7, #12]
 188:telemetry.c   ****     *p++ = h->state;
 1079              		.loc 1 188 0
 1080 0020 FB68     		ldr	r3, [r7, #12]
 1081 0022 5A1C     		adds	r2, r3, #1
 1082 0024 FA60     		str	r2, [r7, #12]
 1083 0026 7A68     		ldr	r2, [r7, #4]
 1084 0028 1279     		ldrb	r2, [r2, #4]	@ zero_extendqisi2
 1085 002a 1A70     		strb	r2, [r3]
 189:telemetry.c   ****     *p++ = h->ctrl_mode_pan;
 1086              		.loc 1 189 0
 1087 002c FB68     		ldr	r3, [r7, #12]
 1088 002e 5A1C     		adds	r2, r3, #1
 1089 0030 FA60     		str	r2, [r7, #12]
 1090 0032 7A68     		ldr	r2, [r7, #4]
 1091 0034 5279     		ldrb	r2, [r2, #5]	@ zero_extendqisi2
 1092 0036 1A70     		strb	r2, [r3]
 190:telemetry.c   ****     *p++ = h->ctrl_mode_tilt;
 1093              		.loc 1 190 0
 1094 0038 FB68     		ldr	r3, [r7, #12]
 1095 003a 5A1C     		adds	r2, r3, #1
 1096 003c FA60     		str	r2, [r7, #12]
 1097 003e 7A68     		ldr	r2, [r7, #4]
 1098 0040 9279     		ldrb	r2, [r2, #6]	@ zero_extendqisi2
 1099 0042 1A70     		strb	r2, [r3]
 191:telemetry.c   ****     *p++ = h->ctrl_mode_roll;
 1100              		.loc 1 191 0
 1101 0044 FB68     		ldr	r3, [r7, #12]
 1102 0046 5A1C     		adds	r2, r3, #1
 1103 0048 FA60     		str	r2, [r7, #12]
 1104 004a 7A68     		ldr	r2, [r7, #4]
 1105 004c D279     		ldrb	r2, [r2, #7]	@ zero_extendqisi2
 1106 004e 1A70     		strb	r2, [r3]
 192:telemetry.c   ****     *p++ = h->enable;
 1107              		.loc 1 192 0
 1108 0050 FB68     		ldr	r3, [r7, #12]
 1109 0052 5A1C     		adds	r2, r3, #1
ARM GAS  C:\Users\JENNEW~1\AppData\Local\Temp\ccW8Un4u.s 			page 24


 1110 0054 FA60     		str	r2, [r7, #12]
 1111 0056 7A68     		ldr	r2, [r7, #4]
 1112 0058 127A     		ldrb	r2, [r2, #8]	@ zero_extendqisi2
 1113 005a 1A70     		strb	r2, [r3]
 193:telemetry.c   ****     *p++ = h->kill;
 1114              		.loc 1 193 0
 1115 005c FB68     		ldr	r3, [r7, #12]
 1116 005e 5A1C     		adds	r2, r3, #1
 1117 0060 FA60     		str	r2, [r7, #12]
 1118 0062 7A68     		ldr	r2, [r7, #4]
 1119 0064 527A     		ldrb	r2, [r2, #9]	@ zero_extendqisi2
 1120 0066 1A70     		strb	r2, [r3]
 194:telemetry.c   ****     memcpy(p, &h->input_pan,    2); p += 2;
 1121              		.loc 1 194 0
 1122 0068 7B68     		ldr	r3, [r7, #4]
 1123 006a 0A33     		adds	r3, r3, #10
 1124 006c 0222     		movs	r2, #2
 1125 006e 1946     		mov	r1, r3
 1126 0070 F868     		ldr	r0, [r7, #12]
 1127 0072 FFF7FEFF 		bl	memcpy
 1128 0076 FB68     		ldr	r3, [r7, #12]
 1129 0078 0233     		adds	r3, r3, #2
 1130 007a FB60     		str	r3, [r7, #12]
 195:telemetry.c   ****     memcpy(p, &h->input_tilt,   2); p += 2;
 1131              		.loc 1 195 0
 1132 007c 7B68     		ldr	r3, [r7, #4]
 1133 007e 0C33     		adds	r3, r3, #12
 1134 0080 0222     		movs	r2, #2
 1135 0082 1946     		mov	r1, r3
 1136 0084 F868     		ldr	r0, [r7, #12]
 1137 0086 FFF7FEFF 		bl	memcpy
 1138 008a FB68     		ldr	r3, [r7, #12]
 1139 008c 0233     		adds	r3, r3, #2
 1140 008e FB60     		str	r3, [r7, #12]
 196:telemetry.c   ****     memcpy(p, &h->input_roll,   2); p += 2;
 1141              		.loc 1 196 0
 1142 0090 7B68     		ldr	r3, [r7, #4]
 1143 0092 0E33     		adds	r3, r3, #14
 1144 0094 0222     		movs	r2, #2
 1145 0096 1946     		mov	r1, r3
 1146 0098 F868     		ldr	r0, [r7, #12]
 1147 009a FFF7FEFF 		bl	memcpy
 1148 009e FB68     		ldr	r3, [r7, #12]
 1149 00a0 0233     		adds	r3, r3, #2
 1150 00a2 FB60     		str	r3, [r7, #12]
 197:telemetry.c   ****     *p++ = h->gimbal_status1;
 1151              		.loc 1 197 0
 1152 00a4 FB68     		ldr	r3, [r7, #12]
 1153 00a6 5A1C     		adds	r2, r3, #1
 1154 00a8 FA60     		str	r2, [r7, #12]
 1155 00aa 7A68     		ldr	r2, [r7, #4]
 1156 00ac 127C     		ldrb	r2, [r2, #16]	@ zero_extendqisi2
 1157 00ae 1A70     		strb	r2, [r3]
 198:telemetry.c   ****     *p++ = h->gimbal_status2;
 1158              		.loc 1 198 0
 1159 00b0 FB68     		ldr	r3, [r7, #12]
 1160 00b2 5A1C     		adds	r2, r3, #1
ARM GAS  C:\Users\JENNEW~1\AppData\Local\Temp\ccW8Un4u.s 			page 25


 1161 00b4 FA60     		str	r2, [r7, #12]
 1162 00b6 7A68     		ldr	r2, [r7, #4]
 1163 00b8 527C     		ldrb	r2, [r2, #17]	@ zero_extendqisi2
 1164 00ba 1A70     		strb	r2, [r3]
 199:telemetry.c   ****     memcpy(p, &h->q_i,          2); p += 2;
 1165              		.loc 1 199 0
 1166 00bc 7B68     		ldr	r3, [r7, #4]
 1167 00be 1233     		adds	r3, r3, #18
 1168 00c0 0222     		movs	r2, #2
 1169 00c2 1946     		mov	r1, r3
 1170 00c4 F868     		ldr	r0, [r7, #12]
 1171 00c6 FFF7FEFF 		bl	memcpy
 1172 00ca FB68     		ldr	r3, [r7, #12]
 1173 00cc 0233     		adds	r3, r3, #2
 1174 00ce FB60     		str	r3, [r7, #12]
 200:telemetry.c   ****     memcpy(p, &h->q_j,          2); p += 2;
 1175              		.loc 1 200 0
 1176 00d0 7B68     		ldr	r3, [r7, #4]
 1177 00d2 1433     		adds	r3, r3, #20
 1178 00d4 0222     		movs	r2, #2
 1179 00d6 1946     		mov	r1, r3
 1180 00d8 F868     		ldr	r0, [r7, #12]
 1181 00da FFF7FEFF 		bl	memcpy
 1182 00de FB68     		ldr	r3, [r7, #12]
 1183 00e0 0233     		adds	r3, r3, #2
 1184 00e2 FB60     		str	r3, [r7, #12]
 201:telemetry.c   ****     memcpy(p, &h->q_k,          2); p += 2;
 1185              		.loc 1 201 0
 1186 00e4 7B68     		ldr	r3, [r7, #4]
 1187 00e6 1633     		adds	r3, r3, #22
 1188 00e8 0222     		movs	r2, #2
 1189 00ea 1946     		mov	r1, r3
 1190 00ec F868     		ldr	r0, [r7, #12]
 1191 00ee FFF7FEFF 		bl	memcpy
 1192 00f2 FB68     		ldr	r3, [r7, #12]
 1193 00f4 0233     		adds	r3, r3, #2
 1194 00f6 FB60     		str	r3, [r7, #12]
 202:telemetry.c   ****     memcpy(p, &h->q_r,          2); p += 2;
 1195              		.loc 1 202 0
 1196 00f8 7B68     		ldr	r3, [r7, #4]
 1197 00fa 1833     		adds	r3, r3, #24
 1198 00fc 0222     		movs	r2, #2
 1199 00fe 1946     		mov	r1, r3
 1200 0100 F868     		ldr	r0, [r7, #12]
 1201 0102 FFF7FEFF 		bl	memcpy
 1202 0106 FB68     		ldr	r3, [r7, #12]
 1203 0108 0233     		adds	r3, r3, #2
 1204 010a FB60     		str	r3, [r7, #12]
 203:telemetry.c   ****     return (uint8_t)(p - buf);  //  == TELEM_HOT_LEN
 1205              		.loc 1 203 0
 1206 010c FA68     		ldr	r2, [r7, #12]
 1207 010e 3B68     		ldr	r3, [r7]
 1208 0110 D31A     		subs	r3, r2, r3
 1209 0112 DBB2     		uxtb	r3, r3
 204:telemetry.c   **** }
 1210              		.loc 1 204 0
 1211 0114 1846     		mov	r0, r3
ARM GAS  C:\Users\JENNEW~1\AppData\Local\Temp\ccW8Un4u.s 			page 26


 1212 0116 1037     		adds	r7, r7, #16
 1213              		.cfi_def_cfa_offset 8
 1214 0118 BD46     		mov	sp, r7
 1215              		.cfi_def_cfa_register 13
 1216              		@ sp needed
 1217 011a 80BD     		pop	{r7, pc}
 1218              		.cfi_endproc
 1219              	.LFE73:
 1220              		.size	encode_hot, .-encode_hot
 1221              		.section	.text.encode_link,"ax",%progbits
 1222              		.align	2
 1223              		.thumb
 1224              		.thumb_func
 1225              		.type	encode_link, %function
 1226              	encode_link:
 1227              	.LFB74:
 205:telemetry.c   **** 
 206:telemetry.c   **** static uint8_t encode_link(const telem_link_t *l, uint8_t *buf)
 207:telemetry.c   **** {
 1228              		.loc 1 207 0
 1229              		.cfi_startproc
 1230              		@ args = 0, pretend = 0, frame = 16
 1231              		@ frame_needed = 1, uses_anonymous_args = 0
 1232 0000 80B5     		push	{r7, lr}
 1233              		.cfi_def_cfa_offset 8
 1234              		.cfi_offset 7, -8
 1235              		.cfi_offset 14, -4
 1236 0002 84B0     		sub	sp, sp, #16
 1237              		.cfi_def_cfa_offset 24
 1238 0004 00AF     		add	r7, sp, #0
 1239              		.cfi_def_cfa_register 7
 1240 0006 7860     		str	r0, [r7, #4]
 1241 0008 3960     		str	r1, [r7]
 208:telemetry.c   ****     uint8_t *p = buf;
 1242              		.loc 1 208 0
 1243 000a 3B68     		ldr	r3, [r7]
 1244 000c FB60     		str	r3, [r7, #12]
 209:telemetry.c   ****     memcpy(p, &l->t_ms,                4); p += 4;
 1245              		.loc 1 209 0
 1246 000e 7B68     		ldr	r3, [r7, #4]
 1247 0010 0422     		movs	r2, #4
 1248 0012 1946     		mov	r1, r3
 1249 0014 F868     		ldr	r0, [r7, #12]
 1250 0016 FFF7FEFF 		bl	memcpy
 1251 001a FB68     		ldr	r3, [r7, #12]
 1252 001c 0433     		adds	r3, r3, #4
 1253 001e FB60     		str	r3, [r7, #12]
 210:telemetry.c   ****     memcpy(p, &l->crc_fail,            2); p += 2;
 1254              		.loc 1 210 0
 1255 0020 7B68     		ldr	r3, [r7, #4]
 1256 0022 0433     		adds	r3, r3, #4
 1257 0024 0222     		movs	r2, #2
 1258 0026 1946     		mov	r1, r3
 1259 0028 F868     		ldr	r0, [r7, #12]
 1260 002a FFF7FEFF 		bl	memcpy
 1261 002e FB68     		ldr	r3, [r7, #12]
 1262 0030 0233     		adds	r3, r3, #2
ARM GAS  C:\Users\JENNEW~1\AppData\Local\Temp\ccW8Un4u.s 			page 27


 1263 0032 FB60     		str	r3, [r7, #12]
 211:telemetry.c   ****     memcpy(p, &l->uart_err,            2); p += 2;
 1264              		.loc 1 211 0
 1265 0034 7B68     		ldr	r3, [r7, #4]
 1266 0036 0633     		adds	r3, r3, #6
 1267 0038 0222     		movs	r2, #2
 1268 003a 1946     		mov	r1, r3
 1269 003c F868     		ldr	r0, [r7, #12]
 1270 003e FFF7FEFF 		bl	memcpy
 1271 0042 FB68     		ldr	r3, [r7, #12]
 1272 0044 0233     		adds	r3, r3, #2
 1273 0046 FB60     		str	r3, [r7, #12]
 212:telemetry.c   ****     memcpy(p, &l->unknown_magic,       2); p += 2;
 1274              		.loc 1 212 0
 1275 0048 7B68     		ldr	r3, [r7, #4]
 1276 004a 0833     		adds	r3, r3, #8
 1277 004c 0222     		movs	r2, #2
 1278 004e 1946     		mov	r1, r3
 1279 0050 F868     		ldr	r0, [r7, #12]
 1280 0052 FFF7FEFF 		bl	memcpy
 1281 0056 FB68     		ldr	r3, [r7, #12]
 1282 0058 0233     		adds	r3, r3, #2
 1283 005a FB60     		str	r3, [r7, #12]
 213:telemetry.c   ****     memcpy(p, &l->rx_pkt_count,        4); p += 4;
 1284              		.loc 1 213 0
 1285 005c 7B68     		ldr	r3, [r7, #4]
 1286 005e 0C33     		adds	r3, r3, #12
 1287 0060 0422     		movs	r2, #4
 1288 0062 1946     		mov	r1, r3
 1289 0064 F868     		ldr	r0, [r7, #12]
 1290 0066 FFF7FEFF 		bl	memcpy
 1291 006a FB68     		ldr	r3, [r7, #12]
 1292 006c 0433     		adds	r3, r3, #4
 1293 006e FB60     		str	r3, [r7, #12]
 214:telemetry.c   ****     memcpy(p, &l->last_centroid_dt_ms, 2); p += 2;
 1294              		.loc 1 214 0
 1295 0070 7B68     		ldr	r3, [r7, #4]
 1296 0072 1033     		adds	r3, r3, #16
 1297 0074 0222     		movs	r2, #2
 1298 0076 1946     		mov	r1, r3
 1299 0078 F868     		ldr	r0, [r7, #12]
 1300 007a FFF7FEFF 		bl	memcpy
 1301 007e FB68     		ldr	r3, [r7, #12]
 1302 0080 0233     		adds	r3, r3, #2
 1303 0082 FB60     		str	r3, [r7, #12]
 215:telemetry.c   ****     return (uint8_t)(p - buf);  //  == TELEM_LINK_LEN
 1304              		.loc 1 215 0
 1305 0084 FA68     		ldr	r2, [r7, #12]
 1306 0086 3B68     		ldr	r3, [r7]
 1307 0088 D31A     		subs	r3, r2, r3
 1308 008a DBB2     		uxtb	r3, r3
 216:telemetry.c   **** }
 1309              		.loc 1 216 0
 1310 008c 1846     		mov	r0, r3
 1311 008e 1037     		adds	r7, r7, #16
 1312              		.cfi_def_cfa_offset 8
 1313 0090 BD46     		mov	sp, r7
ARM GAS  C:\Users\JENNEW~1\AppData\Local\Temp\ccW8Un4u.s 			page 28


 1314              		.cfi_def_cfa_register 13
 1315              		@ sp needed
 1316 0092 80BD     		pop	{r7, pc}
 1317              		.cfi_endproc
 1318              	.LFE74:
 1319              		.size	encode_link, .-encode_link
 1320              		.section	.text.encode_power,"ax",%progbits
 1321              		.align	2
 1322              		.thumb
 1323              		.thumb_func
 1324              		.type	encode_power, %function
 1325              	encode_power:
 1326              	.LFB75:
 217:telemetry.c   **** 
 218:telemetry.c   **** static uint8_t encode_power(const telem_power_t *p, uint8_t *buf)
 219:telemetry.c   **** {
 1327              		.loc 1 219 0
 1328              		.cfi_startproc
 1329              		@ args = 0, pretend = 0, frame = 16
 1330              		@ frame_needed = 1, uses_anonymous_args = 0
 1331 0000 80B5     		push	{r7, lr}
 1332              		.cfi_def_cfa_offset 8
 1333              		.cfi_offset 7, -8
 1334              		.cfi_offset 14, -4
 1335 0002 84B0     		sub	sp, sp, #16
 1336              		.cfi_def_cfa_offset 24
 1337 0004 00AF     		add	r7, sp, #0
 1338              		.cfi_def_cfa_register 7
 1339 0006 7860     		str	r0, [r7, #4]
 1340 0008 3960     		str	r1, [r7]
 220:telemetry.c   ****     uint8_t *q = buf;
 1341              		.loc 1 220 0
 1342 000a 3B68     		ldr	r3, [r7]
 1343 000c FB60     		str	r3, [r7, #12]
 221:telemetry.c   ****     memcpy(q, &p->t_ms,            4); q += 4;
 1344              		.loc 1 221 0
 1345 000e 7B68     		ldr	r3, [r7, #4]
 1346 0010 0422     		movs	r2, #4
 1347 0012 1946     		mov	r1, r3
 1348 0014 F868     		ldr	r0, [r7, #12]
 1349 0016 FFF7FEFF 		bl	memcpy
 1350 001a FB68     		ldr	r3, [r7, #12]
 1351 001c 0433     		adds	r3, r3, #4
 1352 001e FB60     		str	r3, [r7, #12]
 222:telemetry.c   ****     memcpy(q, &p->vbat_left_mv,    2); q += 2;
 1353              		.loc 1 222 0
 1354 0020 7B68     		ldr	r3, [r7, #4]
 1355 0022 0433     		adds	r3, r3, #4
 1356 0024 0222     		movs	r2, #2
 1357 0026 1946     		mov	r1, r3
 1358 0028 F868     		ldr	r0, [r7, #12]
 1359 002a FFF7FEFF 		bl	memcpy
 1360 002e FB68     		ldr	r3, [r7, #12]
 1361 0030 0233     		adds	r3, r3, #2
 1362 0032 FB60     		str	r3, [r7, #12]
 223:telemetry.c   ****     memcpy(q, &p->vbat_right_mv,   2); q += 2;
 1363              		.loc 1 223 0
ARM GAS  C:\Users\JENNEW~1\AppData\Local\Temp\ccW8Un4u.s 			page 29


 1364 0034 7B68     		ldr	r3, [r7, #4]
 1365 0036 0633     		adds	r3, r3, #6
 1366 0038 0222     		movs	r2, #2
 1367 003a 1946     		mov	r1, r3
 1368 003c F868     		ldr	r0, [r7, #12]
 1369 003e FFF7FEFF 		bl	memcpy
 1370 0042 FB68     		ldr	r3, [r7, #12]
 1371 0044 0233     		adds	r3, r3, #2
 1372 0046 FB60     		str	r3, [r7, #12]
 224:telemetry.c   ****     memcpy(q, &p->sysstat_batt_mv, 2); q += 2;
 1373              		.loc 1 224 0
 1374 0048 7B68     		ldr	r3, [r7, #4]
 1375 004a 0833     		adds	r3, r3, #8
 1376 004c 0222     		movs	r2, #2
 1377 004e 1946     		mov	r1, r3
 1378 0050 F868     		ldr	r0, [r7, #12]
 1379 0052 FFF7FEFF 		bl	memcpy
 1380 0056 FB68     		ldr	r3, [r7, #12]
 1381 0058 0233     		adds	r3, r3, #2
 1382 005a FB60     		str	r3, [r7, #12]
 225:telemetry.c   ****     memcpy(q, &p->sysstat_batt_ma, 2); q += 2;
 1383              		.loc 1 225 0
 1384 005c 7B68     		ldr	r3, [r7, #4]
 1385 005e 0A33     		adds	r3, r3, #10
 1386 0060 0222     		movs	r2, #2
 1387 0062 1946     		mov	r1, r3
 1388 0064 F868     		ldr	r0, [r7, #12]
 1389 0066 FFF7FEFF 		bl	memcpy
 1390 006a FB68     		ldr	r3, [r7, #12]
 1391 006c 0233     		adds	r3, r3, #2
 1392 006e FB60     		str	r3, [r7, #12]
 226:telemetry.c   ****     *q++ = p->sysstat_cpu_pct;
 1393              		.loc 1 226 0
 1394 0070 FB68     		ldr	r3, [r7, #12]
 1395 0072 5A1C     		adds	r2, r3, #1
 1396 0074 FA60     		str	r2, [r7, #12]
 1397 0076 7A68     		ldr	r2, [r7, #4]
 1398 0078 127B     		ldrb	r2, [r2, #12]	@ zero_extendqisi2
 1399 007a 1A70     		strb	r2, [r3]
 227:telemetry.c   ****     *q++ = (uint8_t)p->mcu_temp_c;
 1400              		.loc 1 227 0
 1401 007c FB68     		ldr	r3, [r7, #12]
 1402 007e 5A1C     		adds	r2, r3, #1
 1403 0080 FA60     		str	r2, [r7, #12]
 1404 0082 7A68     		ldr	r2, [r7, #4]
 1405 0084 92F90D20 		ldrsb	r2, [r2, #13]
 1406 0088 D2B2     		uxtb	r2, r2
 1407 008a 1A70     		strb	r2, [r3]
 228:telemetry.c   ****     return (uint8_t)(q - buf);  //  == TELEM_POWER_LEN
 1408              		.loc 1 228 0
 1409 008c FA68     		ldr	r2, [r7, #12]
 1410 008e 3B68     		ldr	r3, [r7]
 1411 0090 D31A     		subs	r3, r2, r3
 1412 0092 DBB2     		uxtb	r3, r3
 229:telemetry.c   **** }
 1413              		.loc 1 229 0
 1414 0094 1846     		mov	r0, r3
ARM GAS  C:\Users\JENNEW~1\AppData\Local\Temp\ccW8Un4u.s 			page 30


 1415 0096 1037     		adds	r7, r7, #16
 1416              		.cfi_def_cfa_offset 8
 1417 0098 BD46     		mov	sp, r7
 1418              		.cfi_def_cfa_register 13
 1419              		@ sp needed
 1420 009a 80BD     		pop	{r7, pc}
 1421              		.cfi_endproc
 1422              	.LFE75:
 1423              		.size	encode_power, .-encode_power
 1424              		.section	.text.encode_env,"ax",%progbits
 1425              		.align	2
 1426              		.thumb
 1427              		.thumb_func
 1428              		.type	encode_env, %function
 1429              	encode_env:
 1430              	.LFB76:
 230:telemetry.c   **** 
 231:telemetry.c   **** static uint8_t encode_env(const telem_env_t *e, uint8_t *buf)
 232:telemetry.c   **** {
 1431              		.loc 1 232 0
 1432              		.cfi_startproc
 1433              		@ args = 0, pretend = 0, frame = 16
 1434              		@ frame_needed = 1, uses_anonymous_args = 0
 1435 0000 80B5     		push	{r7, lr}
 1436              		.cfi_def_cfa_offset 8
 1437              		.cfi_offset 7, -8
 1438              		.cfi_offset 14, -4
 1439 0002 84B0     		sub	sp, sp, #16
 1440              		.cfi_def_cfa_offset 24
 1441 0004 00AF     		add	r7, sp, #0
 1442              		.cfi_def_cfa_register 7
 1443 0006 7860     		str	r0, [r7, #4]
 1444 0008 3960     		str	r1, [r7]
 233:telemetry.c   ****     uint8_t *q = buf;
 1445              		.loc 1 233 0
 1446 000a 3B68     		ldr	r3, [r7]
 1447 000c FB60     		str	r3, [r7, #12]
 234:telemetry.c   ****     memcpy(q, &e->t_ms,             4); q += 4;
 1448              		.loc 1 234 0
 1449 000e 7B68     		ldr	r3, [r7, #4]
 1450 0010 0422     		movs	r2, #4
 1451 0012 1946     		mov	r1, r3
 1452 0014 F868     		ldr	r0, [r7, #12]
 1453 0016 FFF7FEFF 		bl	memcpy
 1454 001a FB68     		ldr	r3, [r7, #12]
 1455 001c 0433     		adds	r3, r3, #4
 1456 001e FB60     		str	r3, [r7, #12]
 235:telemetry.c   ****     memcpy(q, &e->sysstat_temp_c10, 2); q += 2;
 1457              		.loc 1 235 0
 1458 0020 7B68     		ldr	r3, [r7, #4]
 1459 0022 0433     		adds	r3, r3, #4
 1460 0024 0222     		movs	r2, #2
 1461 0026 1946     		mov	r1, r3
 1462 0028 F868     		ldr	r0, [r7, #12]
 1463 002a FFF7FEFF 		bl	memcpy
 1464 002e FB68     		ldr	r3, [r7, #12]
 1465 0030 0233     		adds	r3, r3, #2
ARM GAS  C:\Users\JENNEW~1\AppData\Local\Temp\ccW8Un4u.s 			page 31


 1466 0032 FB60     		str	r3, [r7, #12]
 236:telemetry.c   ****     memcpy(q, &e->sysstat_press_Pa, 4); q += 4;
 1467              		.loc 1 236 0
 1468 0034 7B68     		ldr	r3, [r7, #4]
 1469 0036 0833     		adds	r3, r3, #8
 1470 0038 0422     		movs	r2, #4
 1471 003a 1946     		mov	r1, r3
 1472 003c F868     		ldr	r0, [r7, #12]
 1473 003e FFF7FEFF 		bl	memcpy
 1474 0042 FB68     		ldr	r3, [r7, #12]
 1475 0044 0433     		adds	r3, r3, #4
 1476 0046 FB60     		str	r3, [r7, #12]
 237:telemetry.c   ****     return (uint8_t)(q - buf);  //  == TELEM_ENV_LEN
 1477              		.loc 1 237 0
 1478 0048 FA68     		ldr	r2, [r7, #12]
 1479 004a 3B68     		ldr	r3, [r7]
 1480 004c D31A     		subs	r3, r2, r3
 1481 004e DBB2     		uxtb	r3, r3
 238:telemetry.c   **** }
 1482              		.loc 1 238 0
 1483 0050 1846     		mov	r0, r3
 1484 0052 1037     		adds	r7, r7, #16
 1485              		.cfi_def_cfa_offset 8
 1486 0054 BD46     		mov	sp, r7
 1487              		.cfi_def_cfa_register 13
 1488              		@ sp needed
 1489 0056 80BD     		pop	{r7, pc}
 1490              		.cfi_endproc
 1491              	.LFE76:
 1492              		.size	encode_env, .-encode_env
 1493              		.section	.text.encode_gps,"ax",%progbits
 1494              		.align	2
 1495              		.thumb
 1496              		.thumb_func
 1497              		.type	encode_gps, %function
 1498              	encode_gps:
 1499              	.LFB77:
 239:telemetry.c   **** 
 240:telemetry.c   **** static uint8_t encode_gps(const telem_gps_t *g, uint8_t *buf)
 241:telemetry.c   **** {
 1500              		.loc 1 241 0
 1501              		.cfi_startproc
 1502              		@ args = 0, pretend = 0, frame = 16
 1503              		@ frame_needed = 1, uses_anonymous_args = 0
 1504 0000 80B5     		push	{r7, lr}
 1505              		.cfi_def_cfa_offset 8
 1506              		.cfi_offset 7, -8
 1507              		.cfi_offset 14, -4
 1508 0002 84B0     		sub	sp, sp, #16
 1509              		.cfi_def_cfa_offset 24
 1510 0004 00AF     		add	r7, sp, #0
 1511              		.cfi_def_cfa_register 7
 1512 0006 7860     		str	r0, [r7, #4]
 1513 0008 3960     		str	r1, [r7]
 242:telemetry.c   ****     uint8_t *q = buf;
 1514              		.loc 1 242 0
 1515 000a 3B68     		ldr	r3, [r7]
ARM GAS  C:\Users\JENNEW~1\AppData\Local\Temp\ccW8Un4u.s 			page 32


 1516 000c FB60     		str	r3, [r7, #12]
 243:telemetry.c   ****     memcpy(q, &g->t_ms,    4); q += 4;
 1517              		.loc 1 243 0
 1518 000e 7B68     		ldr	r3, [r7, #4]
 1519 0010 0422     		movs	r2, #4
 1520 0012 1946     		mov	r1, r3
 1521 0014 F868     		ldr	r0, [r7, #12]
 1522 0016 FFF7FEFF 		bl	memcpy
 1523 001a FB68     		ldr	r3, [r7, #12]
 1524 001c 0433     		adds	r3, r3, #4
 1525 001e FB60     		str	r3, [r7, #12]
 244:telemetry.c   ****     *q++ = g->flags;
 1526              		.loc 1 244 0
 1527 0020 FB68     		ldr	r3, [r7, #12]
 1528 0022 5A1C     		adds	r2, r3, #1
 1529 0024 FA60     		str	r2, [r7, #12]
 1530 0026 7A68     		ldr	r2, [r7, #4]
 1531 0028 1279     		ldrb	r2, [r2, #4]	@ zero_extendqisi2
 1532 002a 1A70     		strb	r2, [r3]
 245:telemetry.c   ****     *q++ = g->sats;
 1533              		.loc 1 245 0
 1534 002c FB68     		ldr	r3, [r7, #12]
 1535 002e 5A1C     		adds	r2, r3, #1
 1536 0030 FA60     		str	r2, [r7, #12]
 1537 0032 7A68     		ldr	r2, [r7, #4]
 1538 0034 5279     		ldrb	r2, [r2, #5]	@ zero_extendqisi2
 1539 0036 1A70     		strb	r2, [r3]
 246:telemetry.c   ****     memcpy(q, &g->raw_lat, 4); q += 4;
 1540              		.loc 1 246 0
 1541 0038 7B68     		ldr	r3, [r7, #4]
 1542 003a 0833     		adds	r3, r3, #8
 1543 003c 0422     		movs	r2, #4
 1544 003e 1946     		mov	r1, r3
 1545 0040 F868     		ldr	r0, [r7, #12]
 1546 0042 FFF7FEFF 		bl	memcpy
 1547 0046 FB68     		ldr	r3, [r7, #12]
 1548 0048 0433     		adds	r3, r3, #4
 1549 004a FB60     		str	r3, [r7, #12]
 247:telemetry.c   ****     memcpy(q, &g->raw_lon, 4); q += 4;
 1550              		.loc 1 247 0
 1551 004c 7B68     		ldr	r3, [r7, #4]
 1552 004e 0C33     		adds	r3, r3, #12
 1553 0050 0422     		movs	r2, #4
 1554 0052 1946     		mov	r1, r3
 1555 0054 F868     		ldr	r0, [r7, #12]
 1556 0056 FFF7FEFF 		bl	memcpy
 1557 005a FB68     		ldr	r3, [r7, #12]
 1558 005c 0433     		adds	r3, r3, #4
 1559 005e FB60     		str	r3, [r7, #12]
 248:telemetry.c   ****     memcpy(q, &g->raw_alt, 4); q += 4;
 1560              		.loc 1 248 0
 1561 0060 7B68     		ldr	r3, [r7, #4]
 1562 0062 1033     		adds	r3, r3, #16
 1563 0064 0422     		movs	r2, #4
 1564 0066 1946     		mov	r1, r3
 1565 0068 F868     		ldr	r0, [r7, #12]
 1566 006a FFF7FEFF 		bl	memcpy
ARM GAS  C:\Users\JENNEW~1\AppData\Local\Temp\ccW8Un4u.s 			page 33


 1567 006e FB68     		ldr	r3, [r7, #12]
 1568 0070 0433     		adds	r3, r3, #4
 1569 0072 FB60     		str	r3, [r7, #12]
 249:telemetry.c   ****     memcpy(q, &g->raw_spd, 2); q += 2;
 1570              		.loc 1 249 0
 1571 0074 7B68     		ldr	r3, [r7, #4]
 1572 0076 1433     		adds	r3, r3, #20
 1573 0078 0222     		movs	r2, #2
 1574 007a 1946     		mov	r1, r3
 1575 007c F868     		ldr	r0, [r7, #12]
 1576 007e FFF7FEFF 		bl	memcpy
 1577 0082 FB68     		ldr	r3, [r7, #12]
 1578 0084 0233     		adds	r3, r3, #2
 1579 0086 FB60     		str	r3, [r7, #12]
 250:telemetry.c   ****     memcpy(q, &g->raw_hdg, 2); q += 2;
 1580              		.loc 1 250 0
 1581 0088 7B68     		ldr	r3, [r7, #4]
 1582 008a 1633     		adds	r3, r3, #22
 1583 008c 0222     		movs	r2, #2
 1584 008e 1946     		mov	r1, r3
 1585 0090 F868     		ldr	r0, [r7, #12]
 1586 0092 FFF7FEFF 		bl	memcpy
 1587 0096 FB68     		ldr	r3, [r7, #12]
 1588 0098 0233     		adds	r3, r3, #2
 1589 009a FB60     		str	r3, [r7, #12]
 251:telemetry.c   ****     memcpy(q, &g->hacc,    2); q += 2;
 1590              		.loc 1 251 0
 1591 009c 7B68     		ldr	r3, [r7, #4]
 1592 009e 1833     		adds	r3, r3, #24
 1593 00a0 0222     		movs	r2, #2
 1594 00a2 1946     		mov	r1, r3
 1595 00a4 F868     		ldr	r0, [r7, #12]
 1596 00a6 FFF7FEFF 		bl	memcpy
 1597 00aa FB68     		ldr	r3, [r7, #12]
 1598 00ac 0233     		adds	r3, r3, #2
 1599 00ae FB60     		str	r3, [r7, #12]
 252:telemetry.c   ****     memcpy(q, &g->vacc,    2); q += 2;
 1600              		.loc 1 252 0
 1601 00b0 7B68     		ldr	r3, [r7, #4]
 1602 00b2 1A33     		adds	r3, r3, #26
 1603 00b4 0222     		movs	r2, #2
 1604 00b6 1946     		mov	r1, r3
 1605 00b8 F868     		ldr	r0, [r7, #12]
 1606 00ba FFF7FEFF 		bl	memcpy
 1607 00be FB68     		ldr	r3, [r7, #12]
 1608 00c0 0233     		adds	r3, r3, #2
 1609 00c2 FB60     		str	r3, [r7, #12]
 253:telemetry.c   ****     memcpy(q, &g->sacc,    2); q += 2;
 1610              		.loc 1 253 0
 1611 00c4 7B68     		ldr	r3, [r7, #4]
 1612 00c6 1C33     		adds	r3, r3, #28
 1613 00c8 0222     		movs	r2, #2
 1614 00ca 1946     		mov	r1, r3
 1615 00cc F868     		ldr	r0, [r7, #12]
 1616 00ce FFF7FEFF 		bl	memcpy
 1617 00d2 FB68     		ldr	r3, [r7, #12]
 1618 00d4 0233     		adds	r3, r3, #2
ARM GAS  C:\Users\JENNEW~1\AppData\Local\Temp\ccW8Un4u.s 			page 34


 1619 00d6 FB60     		str	r3, [r7, #12]
 254:telemetry.c   ****     return (uint8_t)(q - buf);  //  == TELEM_GPS_LEN
 1620              		.loc 1 254 0
 1621 00d8 FA68     		ldr	r2, [r7, #12]
 1622 00da 3B68     		ldr	r3, [r7]
 1623 00dc D31A     		subs	r3, r2, r3
 1624 00de DBB2     		uxtb	r3, r3
 255:telemetry.c   **** }
 1625              		.loc 1 255 0
 1626 00e0 1846     		mov	r0, r3
 1627 00e2 1037     		adds	r7, r7, #16
 1628              		.cfi_def_cfa_offset 8
 1629 00e4 BD46     		mov	sp, r7
 1630              		.cfi_def_cfa_register 13
 1631              		@ sp needed
 1632 00e6 80BD     		pop	{r7, pc}
 1633              		.cfi_endproc
 1634              	.LFE77:
 1635              		.size	encode_gps, .-encode_gps
 1636              		.section	.text.encode_baro,"ax",%progbits
 1637              		.align	2
 1638              		.thumb
 1639              		.thumb_func
 1640              		.type	encode_baro, %function
 1641              	encode_baro:
 1642              	.LFB78:
 256:telemetry.c   **** 
 257:telemetry.c   **** static uint8_t encode_baro(const telem_baro_t *b, uint8_t *buf)
 258:telemetry.c   **** {
 1643              		.loc 1 258 0
 1644              		.cfi_startproc
 1645              		@ args = 0, pretend = 0, frame = 16
 1646              		@ frame_needed = 1, uses_anonymous_args = 0
 1647 0000 80B5     		push	{r7, lr}
 1648              		.cfi_def_cfa_offset 8
 1649              		.cfi_offset 7, -8
 1650              		.cfi_offset 14, -4
 1651 0002 84B0     		sub	sp, sp, #16
 1652              		.cfi_def_cfa_offset 24
 1653 0004 00AF     		add	r7, sp, #0
 1654              		.cfi_def_cfa_register 7
 1655 0006 7860     		str	r0, [r7, #4]
 1656 0008 3960     		str	r1, [r7]
 259:telemetry.c   ****     uint8_t *q = buf;
 1657              		.loc 1 259 0
 1658 000a 3B68     		ldr	r3, [r7]
 1659 000c FB60     		str	r3, [r7, #12]
 260:telemetry.c   ****     memcpy(q, &b->t_ms,    4); q += 4;
 1660              		.loc 1 260 0
 1661 000e 7B68     		ldr	r3, [r7, #4]
 1662 0010 0422     		movs	r2, #4
 1663 0012 1946     		mov	r1, r3
 1664 0014 F868     		ldr	r0, [r7, #12]
 1665 0016 FFF7FEFF 		bl	memcpy
 1666 001a FB68     		ldr	r3, [r7, #12]
 1667 001c 0433     		adds	r3, r3, #4
 1668 001e FB60     		str	r3, [r7, #12]
ARM GAS  C:\Users\JENNEW~1\AppData\Local\Temp\ccW8Un4u.s 			page 35


 261:telemetry.c   ****     *q++ = b->flags;
 1669              		.loc 1 261 0
 1670 0020 FB68     		ldr	r3, [r7, #12]
 1671 0022 5A1C     		adds	r2, r3, #1
 1672 0024 FA60     		str	r2, [r7, #12]
 1673 0026 7A68     		ldr	r2, [r7, #4]
 1674 0028 1279     		ldrb	r2, [r2, #4]	@ zero_extendqisi2
 1675 002a 1A70     		strb	r2, [r3]
 262:telemetry.c   ****     memcpy(q, &b->alt_dm,  4); q += 4;
 1676              		.loc 1 262 0
 1677 002c 7B68     		ldr	r3, [r7, #4]
 1678 002e 0833     		adds	r3, r3, #8
 1679 0030 0422     		movs	r2, #4
 1680 0032 1946     		mov	r1, r3
 1681 0034 F868     		ldr	r0, [r7, #12]
 1682 0036 FFF7FEFF 		bl	memcpy
 1683 003a FB68     		ldr	r3, [r7, #12]
 1684 003c 0433     		adds	r3, r3, #4
 1685 003e FB60     		str	r3, [r7, #12]
 263:telemetry.c   ****     memcpy(q, &b->roc_cms, 2); q += 2;
 1686              		.loc 1 263 0
 1687 0040 7B68     		ldr	r3, [r7, #4]
 1688 0042 0C33     		adds	r3, r3, #12
 1689 0044 0222     		movs	r2, #2
 1690 0046 1946     		mov	r1, r3
 1691 0048 F868     		ldr	r0, [r7, #12]
 1692 004a FFF7FEFF 		bl	memcpy
 1693 004e FB68     		ldr	r3, [r7, #12]
 1694 0050 0233     		adds	r3, r3, #2
 1695 0052 FB60     		str	r3, [r7, #12]
 264:telemetry.c   ****     return (uint8_t)(q - buf);  //  == TELEM_BARO_LEN
 1696              		.loc 1 264 0
 1697 0054 FA68     		ldr	r2, [r7, #12]
 1698 0056 3B68     		ldr	r3, [r7]
 1699 0058 D31A     		subs	r3, r2, r3
 1700 005a DBB2     		uxtb	r3, r3
 265:telemetry.c   **** }
 1701              		.loc 1 265 0
 1702 005c 1846     		mov	r0, r3
 1703 005e 1037     		adds	r7, r7, #16
 1704              		.cfi_def_cfa_offset 8
 1705 0060 BD46     		mov	sp, r7
 1706              		.cfi_def_cfa_register 13
 1707              		@ sp needed
 1708 0062 80BD     		pop	{r7, pc}
 1709              		.cfi_endproc
 1710              	.LFE78:
 1711              		.size	encode_baro, .-encode_baro
 1712              		.section	.text.encode_mag,"ax",%progbits
 1713              		.align	2
 1714              		.thumb
 1715              		.thumb_func
 1716              		.type	encode_mag, %function
 1717              	encode_mag:
 1718              	.LFB79:
 266:telemetry.c   **** 
 267:telemetry.c   **** static uint8_t encode_mag(const telem_mag_t *m, uint8_t *buf)
ARM GAS  C:\Users\JENNEW~1\AppData\Local\Temp\ccW8Un4u.s 			page 36


 268:telemetry.c   **** {
 1719              		.loc 1 268 0
 1720              		.cfi_startproc
 1721              		@ args = 0, pretend = 0, frame = 16
 1722              		@ frame_needed = 1, uses_anonymous_args = 0
 1723 0000 80B5     		push	{r7, lr}
 1724              		.cfi_def_cfa_offset 8
 1725              		.cfi_offset 7, -8
 1726              		.cfi_offset 14, -4
 1727 0002 84B0     		sub	sp, sp, #16
 1728              		.cfi_def_cfa_offset 24
 1729 0004 00AF     		add	r7, sp, #0
 1730              		.cfi_def_cfa_register 7
 1731 0006 7860     		str	r0, [r7, #4]
 1732 0008 3960     		str	r1, [r7]
 269:telemetry.c   ****     uint8_t *q = buf;
 1733              		.loc 1 269 0
 1734 000a 3B68     		ldr	r3, [r7]
 1735 000c FB60     		str	r3, [r7, #12]
 270:telemetry.c   ****     memcpy(q, &m->t_ms,     4); q += 4;
 1736              		.loc 1 270 0
 1737 000e 7B68     		ldr	r3, [r7, #4]
 1738 0010 0422     		movs	r2, #4
 1739 0012 1946     		mov	r1, r3
 1740 0014 F868     		ldr	r0, [r7, #12]
 1741 0016 FFF7FEFF 		bl	memcpy
 1742 001a FB68     		ldr	r3, [r7, #12]
 1743 001c 0433     		adds	r3, r3, #4
 1744 001e FB60     		str	r3, [r7, #12]
 271:telemetry.c   ****     *q++ = m->flags;
 1745              		.loc 1 271 0
 1746 0020 FB68     		ldr	r3, [r7, #12]
 1747 0022 5A1C     		adds	r2, r3, #1
 1748 0024 FA60     		str	r2, [r7, #12]
 1749 0026 7A68     		ldr	r2, [r7, #4]
 1750 0028 1279     		ldrb	r2, [r2, #4]	@ zero_extendqisi2
 1751 002a 1A70     		strb	r2, [r3]
 272:telemetry.c   ****     memcpy(q, &m->x_raw,    2); q += 2;
 1752              		.loc 1 272 0
 1753 002c 7B68     		ldr	r3, [r7, #4]
 1754 002e 0633     		adds	r3, r3, #6
 1755 0030 0222     		movs	r2, #2
 1756 0032 1946     		mov	r1, r3
 1757 0034 F868     		ldr	r0, [r7, #12]
 1758 0036 FFF7FEFF 		bl	memcpy
 1759 003a FB68     		ldr	r3, [r7, #12]
 1760 003c 0233     		adds	r3, r3, #2
 1761 003e FB60     		str	r3, [r7, #12]
 273:telemetry.c   ****     memcpy(q, &m->y_raw,    2); q += 2;
 1762              		.loc 1 273 0
 1763 0040 7B68     		ldr	r3, [r7, #4]
 1764 0042 0833     		adds	r3, r3, #8
 1765 0044 0222     		movs	r2, #2
 1766 0046 1946     		mov	r1, r3
 1767 0048 F868     		ldr	r0, [r7, #12]
 1768 004a FFF7FEFF 		bl	memcpy
 1769 004e FB68     		ldr	r3, [r7, #12]
ARM GAS  C:\Users\JENNEW~1\AppData\Local\Temp\ccW8Un4u.s 			page 37


 1770 0050 0233     		adds	r3, r3, #2
 1771 0052 FB60     		str	r3, [r7, #12]
 274:telemetry.c   ****     memcpy(q, &m->z_raw,    2); q += 2;
 1772              		.loc 1 274 0
 1773 0054 7B68     		ldr	r3, [r7, #4]
 1774 0056 0A33     		adds	r3, r3, #10
 1775 0058 0222     		movs	r2, #2
 1776 005a 1946     		mov	r1, r3
 1777 005c F868     		ldr	r0, [r7, #12]
 1778 005e FFF7FEFF 		bl	memcpy
 1779 0062 FB68     		ldr	r3, [r7, #12]
 1780 0064 0233     		adds	r3, r3, #2
 1781 0066 FB60     		str	r3, [r7, #12]
 275:telemetry.c   ****     memcpy(q, &m->decl_raw, 2); q += 2;
 1782              		.loc 1 275 0
 1783 0068 7B68     		ldr	r3, [r7, #4]
 1784 006a 0C33     		adds	r3, r3, #12
 1785 006c 0222     		movs	r2, #2
 1786 006e 1946     		mov	r1, r3
 1787 0070 F868     		ldr	r0, [r7, #12]
 1788 0072 FFF7FEFF 		bl	memcpy
 1789 0076 FB68     		ldr	r3, [r7, #12]
 1790 0078 0233     		adds	r3, r3, #2
 1791 007a FB60     		str	r3, [r7, #12]
 276:telemetry.c   ****     return (uint8_t)(q - buf);  //  == TELEM_MAG_LEN
 1792              		.loc 1 276 0
 1793 007c FA68     		ldr	r2, [r7, #12]
 1794 007e 3B68     		ldr	r3, [r7]
 1795 0080 D31A     		subs	r3, r2, r3
 1796 0082 DBB2     		uxtb	r3, r3
 277:telemetry.c   **** }
 1797              		.loc 1 277 0
 1798 0084 1846     		mov	r0, r3
 1799 0086 1037     		adds	r7, r7, #16
 1800              		.cfi_def_cfa_offset 8
 1801 0088 BD46     		mov	sp, r7
 1802              		.cfi_def_cfa_register 13
 1803              		@ sp needed
 1804 008a 80BD     		pop	{r7, pc}
 1805              		.cfi_endproc
 1806              	.LFE79:
 1807              		.size	encode_mag, .-encode_mag
 1808              		.section	.text.telemetry_send_hot_sbc,"ax",%progbits
 1809              		.align	2
 1810              		.global	telemetry_send_hot_sbc
 1811              		.thumb
 1812              		.thumb_func
 1813              		.type	telemetry_send_hot_sbc, %function
 1814              	telemetry_send_hot_sbc:
 1815              	.LFB80:
 278:telemetry.c   **** 
 279:telemetry.c   **** // Packet senders -- These are what the code publicly calls!
 280:telemetry.c   **** void telemetry_send_hot_sbc(const app_ctx_t *ctx)
 281:telemetry.c   **** {
 1816              		.loc 1 281 0
 1817              		.cfi_startproc
 1818              		@ args = 0, pretend = 0, frame = 72
ARM GAS  C:\Users\JENNEW~1\AppData\Local\Temp\ccW8Un4u.s 			page 38


 1819              		@ frame_needed = 1, uses_anonymous_args = 0
 1820 0000 80B5     		push	{r7, lr}
 1821              		.cfi_def_cfa_offset 8
 1822              		.cfi_offset 7, -8
 1823              		.cfi_offset 14, -4
 1824 0002 92B0     		sub	sp, sp, #72
 1825              		.cfi_def_cfa_offset 80
 1826 0004 00AF     		add	r7, sp, #0
 1827              		.cfi_def_cfa_register 7
 1828 0006 7860     		str	r0, [r7, #4]
 282:telemetry.c   ****     telem_hot_t h;
 283:telemetry.c   ****     telemetry_collect_hot(ctx, &h);
 1829              		.loc 1 283 0
 1830 0008 07F12803 		add	r3, r7, #40
 1831 000c 1946     		mov	r1, r3
 1832 000e 7868     		ldr	r0, [r7, #4]
 1833 0010 FFF7FEFF 		bl	telemetry_collect_hot
 284:telemetry.c   ****     uint8_t buf[TELEM_HOT_LEN];
 285:telemetry.c   ****     uint8_t n = encode_hot(&h, buf);
 1834              		.loc 1 285 0
 1835 0014 07F10C02 		add	r2, r7, #12
 1836 0018 07F12803 		add	r3, r7, #40
 1837 001c 1146     		mov	r1, r2
 1838 001e 1846     		mov	r0, r3
 1839 0020 FFF7FEFF 		bl	encode_hot
 1840 0024 0346     		mov	r3, r0
 1841 0026 87F84730 		strb	r3, [r7, #71]
 286:telemetry.c   ****     sbc_send_frame(PKT_TELEM_HOT, buf, n);
 1842              		.loc 1 286 0
 1843 002a 97F84720 		ldrb	r2, [r7, #71]	@ zero_extendqisi2
 1844 002e 07F10C03 		add	r3, r7, #12
 1845 0032 1946     		mov	r1, r3
 1846 0034 2020     		movs	r0, #32
 1847 0036 FFF7FEFF 		bl	sbc_send_frame
 287:telemetry.c   **** }
 1848              		.loc 1 287 0
 1849 003a 00BF     		nop
 1850 003c 4837     		adds	r7, r7, #72
 1851              		.cfi_def_cfa_offset 8
 1852 003e BD46     		mov	sp, r7
 1853              		.cfi_def_cfa_register 13
 1854              		@ sp needed
 1855 0040 80BD     		pop	{r7, pc}
 1856              		.cfi_endproc
 1857              	.LFE80:
 1858              		.size	telemetry_send_hot_sbc, .-telemetry_send_hot_sbc
 1859 0042 00BF     		.section	.text.telemetry_send_link_sbc,"ax",%progbits
 1860              		.align	2
 1861              		.global	telemetry_send_link_sbc
 1862              		.thumb
 1863              		.thumb_func
 1864              		.type	telemetry_send_link_sbc, %function
 1865              	telemetry_send_link_sbc:
 1866              	.LFB81:
 288:telemetry.c   **** 
 289:telemetry.c   **** void telemetry_send_link_sbc(const app_ctx_t *ctx)
 290:telemetry.c   **** {
ARM GAS  C:\Users\JENNEW~1\AppData\Local\Temp\ccW8Un4u.s 			page 39


 1867              		.loc 1 290 0
 1868              		.cfi_startproc
 1869              		@ args = 0, pretend = 0, frame = 48
 1870              		@ frame_needed = 1, uses_anonymous_args = 0
 1871 0000 80B5     		push	{r7, lr}
 1872              		.cfi_def_cfa_offset 8
 1873              		.cfi_offset 7, -8
 1874              		.cfi_offset 14, -4
 1875 0002 8CB0     		sub	sp, sp, #48
 1876              		.cfi_def_cfa_offset 56
 1877 0004 00AF     		add	r7, sp, #0
 1878              		.cfi_def_cfa_register 7
 1879 0006 7860     		str	r0, [r7, #4]
 291:telemetry.c   ****     telem_link_t l;
 292:telemetry.c   ****     telemetry_collect_link(ctx, &l);
 1880              		.loc 1 292 0
 1881 0008 07F11803 		add	r3, r7, #24
 1882 000c 1946     		mov	r1, r3
 1883 000e 7868     		ldr	r0, [r7, #4]
 1884 0010 FFF7FEFF 		bl	telemetry_collect_link
 293:telemetry.c   ****     uint8_t buf[TELEM_LINK_LEN];
 294:telemetry.c   ****     uint8_t n = encode_link(&l, buf);
 1885              		.loc 1 294 0
 1886 0014 07F10802 		add	r2, r7, #8
 1887 0018 07F11803 		add	r3, r7, #24
 1888 001c 1146     		mov	r1, r2
 1889 001e 1846     		mov	r0, r3
 1890 0020 FFF7FEFF 		bl	encode_link
 1891 0024 0346     		mov	r3, r0
 1892 0026 87F82F30 		strb	r3, [r7, #47]
 295:telemetry.c   ****     sbc_send_frame(PKT_TELEM_LINK, buf, n);
 1893              		.loc 1 295 0
 1894 002a 97F82F20 		ldrb	r2, [r7, #47]	@ zero_extendqisi2
 1895 002e 07F10803 		add	r3, r7, #8
 1896 0032 1946     		mov	r1, r3
 1897 0034 2320     		movs	r0, #35
 1898 0036 FFF7FEFF 		bl	sbc_send_frame
 296:telemetry.c   **** }
 1899              		.loc 1 296 0
 1900 003a 00BF     		nop
 1901 003c 3037     		adds	r7, r7, #48
 1902              		.cfi_def_cfa_offset 8
 1903 003e BD46     		mov	sp, r7
 1904              		.cfi_def_cfa_register 13
 1905              		@ sp needed
 1906 0040 80BD     		pop	{r7, pc}
 1907              		.cfi_endproc
 1908              	.LFE81:
 1909              		.size	telemetry_send_link_sbc, .-telemetry_send_link_sbc
 1910 0042 00BF     		.section	.text.telemetry_send_power_sbc,"ax",%progbits
 1911              		.align	2
 1912              		.global	telemetry_send_power_sbc
 1913              		.thumb
 1914              		.thumb_func
 1915              		.type	telemetry_send_power_sbc, %function
 1916              	telemetry_send_power_sbc:
 1917              	.LFB82:
ARM GAS  C:\Users\JENNEW~1\AppData\Local\Temp\ccW8Un4u.s 			page 40


 297:telemetry.c   **** 
 298:telemetry.c   **** void telemetry_send_power_sbc(const app_ctx_t *ctx)
 299:telemetry.c   **** {
 1918              		.loc 1 299 0
 1919              		.cfi_startproc
 1920              		@ args = 0, pretend = 0, frame = 48
 1921              		@ frame_needed = 1, uses_anonymous_args = 0
 1922 0000 80B5     		push	{r7, lr}
 1923              		.cfi_def_cfa_offset 8
 1924              		.cfi_offset 7, -8
 1925              		.cfi_offset 14, -4
 1926 0002 8CB0     		sub	sp, sp, #48
 1927              		.cfi_def_cfa_offset 56
 1928 0004 00AF     		add	r7, sp, #0
 1929              		.cfi_def_cfa_register 7
 1930 0006 7860     		str	r0, [r7, #4]
 300:telemetry.c   ****     telem_power_t p;
 301:telemetry.c   ****     telemetry_collect_power(ctx, &p);
 1931              		.loc 1 301 0
 1932 0008 07F11C03 		add	r3, r7, #28
 1933 000c 1946     		mov	r1, r3
 1934 000e 7868     		ldr	r0, [r7, #4]
 1935 0010 FFF7FEFF 		bl	telemetry_collect_power
 302:telemetry.c   ****     uint8_t buf[TELEM_POWER_LEN];
 303:telemetry.c   ****     uint8_t n = encode_power(&p, buf);
 1936              		.loc 1 303 0
 1937 0014 07F10C02 		add	r2, r7, #12
 1938 0018 07F11C03 		add	r3, r7, #28
 1939 001c 1146     		mov	r1, r2
 1940 001e 1846     		mov	r0, r3
 1941 0020 FFF7FEFF 		bl	encode_power
 1942 0024 0346     		mov	r3, r0
 1943 0026 87F82F30 		strb	r3, [r7, #47]
 304:telemetry.c   ****     sbc_send_frame(PKT_TELEM_POWER, buf, n);
 1944              		.loc 1 304 0
 1945 002a 97F82F20 		ldrb	r2, [r7, #47]	@ zero_extendqisi2
 1946 002e 07F10C03 		add	r3, r7, #12
 1947 0032 1946     		mov	r1, r3
 1948 0034 2120     		movs	r0, #33
 1949 0036 FFF7FEFF 		bl	sbc_send_frame
 305:telemetry.c   **** }
 1950              		.loc 1 305 0
 1951 003a 00BF     		nop
 1952 003c 3037     		adds	r7, r7, #48
 1953              		.cfi_def_cfa_offset 8
 1954 003e BD46     		mov	sp, r7
 1955              		.cfi_def_cfa_register 13
 1956              		@ sp needed
 1957 0040 80BD     		pop	{r7, pc}
 1958              		.cfi_endproc
 1959              	.LFE82:
 1960              		.size	telemetry_send_power_sbc, .-telemetry_send_power_sbc
 1961 0042 00BF     		.section	.text.telemetry_send_env_sbc,"ax",%progbits
 1962              		.align	2
 1963              		.global	telemetry_send_env_sbc
 1964              		.thumb
 1965              		.thumb_func
ARM GAS  C:\Users\JENNEW~1\AppData\Local\Temp\ccW8Un4u.s 			page 41


 1966              		.type	telemetry_send_env_sbc, %function
 1967              	telemetry_send_env_sbc:
 1968              	.LFB83:
 306:telemetry.c   **** 
 307:telemetry.c   **** void telemetry_send_env_sbc(const app_ctx_t *ctx)
 308:telemetry.c   **** {
 1969              		.loc 1 308 0
 1970              		.cfi_startproc
 1971              		@ args = 0, pretend = 0, frame = 40
 1972              		@ frame_needed = 1, uses_anonymous_args = 0
 1973 0000 80B5     		push	{r7, lr}
 1974              		.cfi_def_cfa_offset 8
 1975              		.cfi_offset 7, -8
 1976              		.cfi_offset 14, -4
 1977 0002 8AB0     		sub	sp, sp, #40
 1978              		.cfi_def_cfa_offset 48
 1979 0004 00AF     		add	r7, sp, #0
 1980              		.cfi_def_cfa_register 7
 1981 0006 7860     		str	r0, [r7, #4]
 309:telemetry.c   ****     telem_env_t e;
 310:telemetry.c   ****     telemetry_collect_env(ctx, &e);
 1982              		.loc 1 310 0
 1983 0008 07F11803 		add	r3, r7, #24
 1984 000c 1946     		mov	r1, r3
 1985 000e 7868     		ldr	r0, [r7, #4]
 1986 0010 FFF7FEFF 		bl	telemetry_collect_env
 311:telemetry.c   ****     uint8_t buf[TELEM_ENV_LEN];
 312:telemetry.c   ****     uint8_t n = encode_env(&e, buf);
 1987              		.loc 1 312 0
 1988 0014 07F10C02 		add	r2, r7, #12
 1989 0018 07F11803 		add	r3, r7, #24
 1990 001c 1146     		mov	r1, r2
 1991 001e 1846     		mov	r0, r3
 1992 0020 FFF7FEFF 		bl	encode_env
 1993 0024 0346     		mov	r3, r0
 1994 0026 87F82730 		strb	r3, [r7, #39]
 313:telemetry.c   ****     sbc_send_frame(PKT_TELEM_ENV, buf, n);
 1995              		.loc 1 313 0
 1996 002a 97F82720 		ldrb	r2, [r7, #39]	@ zero_extendqisi2
 1997 002e 07F10C03 		add	r3, r7, #12
 1998 0032 1946     		mov	r1, r3
 1999 0034 2220     		movs	r0, #34
 2000 0036 FFF7FEFF 		bl	sbc_send_frame
 314:telemetry.c   **** }
 2001              		.loc 1 314 0
 2002 003a 00BF     		nop
 2003 003c 2837     		adds	r7, r7, #40
 2004              		.cfi_def_cfa_offset 8
 2005 003e BD46     		mov	sp, r7
 2006              		.cfi_def_cfa_register 13
 2007              		@ sp needed
 2008 0040 80BD     		pop	{r7, pc}
 2009              		.cfi_endproc
 2010              	.LFE83:
 2011              		.size	telemetry_send_env_sbc, .-telemetry_send_env_sbc
 2012 0042 00BF     		.section	.text.telemetry_send_gps_sbc,"ax",%progbits
 2013              		.align	2
ARM GAS  C:\Users\JENNEW~1\AppData\Local\Temp\ccW8Un4u.s 			page 42


 2014              		.global	telemetry_send_gps_sbc
 2015              		.thumb
 2016              		.thumb_func
 2017              		.type	telemetry_send_gps_sbc, %function
 2018              	telemetry_send_gps_sbc:
 2019              	.LFB84:
 315:telemetry.c   **** 
 316:telemetry.c   **** void telemetry_send_gps_sbc(const app_ctx_t *ctx)
 317:telemetry.c   **** {
 2020              		.loc 1 317 0
 2021              		.cfi_startproc
 2022              		@ args = 0, pretend = 0, frame = 72
 2023              		@ frame_needed = 1, uses_anonymous_args = 0
 2024 0000 80B5     		push	{r7, lr}
 2025              		.cfi_def_cfa_offset 8
 2026              		.cfi_offset 7, -8
 2027              		.cfi_offset 14, -4
 2028 0002 92B0     		sub	sp, sp, #72
 2029              		.cfi_def_cfa_offset 80
 2030 0004 00AF     		add	r7, sp, #0
 2031              		.cfi_def_cfa_register 7
 2032 0006 7860     		str	r0, [r7, #4]
 318:telemetry.c   ****     telem_gps_t g;
 319:telemetry.c   ****     telemetry_collect_gps(ctx, &g);
 2033              		.loc 1 319 0
 2034 0008 07F12403 		add	r3, r7, #36
 2035 000c 1946     		mov	r1, r3
 2036 000e 7868     		ldr	r0, [r7, #4]
 2037 0010 FFF7FEFF 		bl	telemetry_collect_gps
 320:telemetry.c   ****     uint8_t buf[TELEM_GPS_LEN];
 321:telemetry.c   ****     uint8_t n = encode_gps(&g, buf);
 2038              		.loc 1 321 0
 2039 0014 07F10802 		add	r2, r7, #8
 2040 0018 07F12403 		add	r3, r7, #36
 2041 001c 1146     		mov	r1, r2
 2042 001e 1846     		mov	r0, r3
 2043 0020 FFF7FEFF 		bl	encode_gps
 2044 0024 0346     		mov	r3, r0
 2045 0026 87F84730 		strb	r3, [r7, #71]
 322:telemetry.c   ****     sbc_send_frame(PKT_TELEM_GPS, buf, n);
 2046              		.loc 1 322 0
 2047 002a 97F84720 		ldrb	r2, [r7, #71]	@ zero_extendqisi2
 2048 002e 07F10803 		add	r3, r7, #8
 2049 0032 1946     		mov	r1, r3
 2050 0034 2420     		movs	r0, #36
 2051 0036 FFF7FEFF 		bl	sbc_send_frame
 323:telemetry.c   **** }
 2052              		.loc 1 323 0
 2053 003a 00BF     		nop
 2054 003c 4837     		adds	r7, r7, #72
 2055              		.cfi_def_cfa_offset 8
 2056 003e BD46     		mov	sp, r7
 2057              		.cfi_def_cfa_register 13
 2058              		@ sp needed
 2059 0040 80BD     		pop	{r7, pc}
 2060              		.cfi_endproc
 2061              	.LFE84:
ARM GAS  C:\Users\JENNEW~1\AppData\Local\Temp\ccW8Un4u.s 			page 43


 2062              		.size	telemetry_send_gps_sbc, .-telemetry_send_gps_sbc
 2063 0042 00BF     		.section	.text.telemetry_send_baro_sbc,"ax",%progbits
 2064              		.align	2
 2065              		.global	telemetry_send_baro_sbc
 2066              		.thumb
 2067              		.thumb_func
 2068              		.type	telemetry_send_baro_sbc, %function
 2069              	telemetry_send_baro_sbc:
 2070              	.LFB85:
 324:telemetry.c   **** 
 325:telemetry.c   **** void telemetry_send_baro_sbc(const app_ctx_t *ctx)
 326:telemetry.c   **** {
 2071              		.loc 1 326 0
 2072              		.cfi_startproc
 2073              		@ args = 0, pretend = 0, frame = 40
 2074              		@ frame_needed = 1, uses_anonymous_args = 0
 2075 0000 80B5     		push	{r7, lr}
 2076              		.cfi_def_cfa_offset 8
 2077              		.cfi_offset 7, -8
 2078              		.cfi_offset 14, -4
 2079 0002 8AB0     		sub	sp, sp, #40
 2080              		.cfi_def_cfa_offset 48
 2081 0004 00AF     		add	r7, sp, #0
 2082              		.cfi_def_cfa_register 7
 2083 0006 7860     		str	r0, [r7, #4]
 327:telemetry.c   ****     telem_baro_t b;
 328:telemetry.c   ****     telemetry_collect_baro(ctx, &b);
 2084              		.loc 1 328 0
 2085 0008 07F11403 		add	r3, r7, #20
 2086 000c 1946     		mov	r1, r3
 2087 000e 7868     		ldr	r0, [r7, #4]
 2088 0010 FFF7FEFF 		bl	telemetry_collect_baro
 329:telemetry.c   ****     uint8_t buf[TELEM_BARO_LEN];
 330:telemetry.c   ****     uint8_t n = encode_baro(&b, buf);
 2089              		.loc 1 330 0
 2090 0014 07F10802 		add	r2, r7, #8
 2091 0018 07F11403 		add	r3, r7, #20
 2092 001c 1146     		mov	r1, r2
 2093 001e 1846     		mov	r0, r3
 2094 0020 FFF7FEFF 		bl	encode_baro
 2095 0024 0346     		mov	r3, r0
 2096 0026 87F82730 		strb	r3, [r7, #39]
 331:telemetry.c   ****     sbc_send_frame(PKT_TELEM_BARO, buf, n);
 2097              		.loc 1 331 0
 2098 002a 97F82720 		ldrb	r2, [r7, #39]	@ zero_extendqisi2
 2099 002e 07F10803 		add	r3, r7, #8
 2100 0032 1946     		mov	r1, r3
 2101 0034 2520     		movs	r0, #37
 2102 0036 FFF7FEFF 		bl	sbc_send_frame
 332:telemetry.c   **** }
 2103              		.loc 1 332 0
 2104 003a 00BF     		nop
 2105 003c 2837     		adds	r7, r7, #40
 2106              		.cfi_def_cfa_offset 8
 2107 003e BD46     		mov	sp, r7
 2108              		.cfi_def_cfa_register 13
 2109              		@ sp needed
ARM GAS  C:\Users\JENNEW~1\AppData\Local\Temp\ccW8Un4u.s 			page 44


 2110 0040 80BD     		pop	{r7, pc}
 2111              		.cfi_endproc
 2112              	.LFE85:
 2113              		.size	telemetry_send_baro_sbc, .-telemetry_send_baro_sbc
 2114 0042 00BF     		.section	.text.telemetry_send_mag_sbc,"ax",%progbits
 2115              		.align	2
 2116              		.global	telemetry_send_mag_sbc
 2117              		.thumb
 2118              		.thumb_func
 2119              		.type	telemetry_send_mag_sbc, %function
 2120              	telemetry_send_mag_sbc:
 2121              	.LFB86:
 333:telemetry.c   **** 
 334:telemetry.c   **** void telemetry_send_mag_sbc(const app_ctx_t *ctx)
 335:telemetry.c   **** {
 2122              		.loc 1 335 0
 2123              		.cfi_startproc
 2124              		@ args = 0, pretend = 0, frame = 48
 2125              		@ frame_needed = 1, uses_anonymous_args = 0
 2126 0000 80B5     		push	{r7, lr}
 2127              		.cfi_def_cfa_offset 8
 2128              		.cfi_offset 7, -8
 2129              		.cfi_offset 14, -4
 2130 0002 8CB0     		sub	sp, sp, #48
 2131              		.cfi_def_cfa_offset 56
 2132 0004 00AF     		add	r7, sp, #0
 2133              		.cfi_def_cfa_register 7
 2134 0006 7860     		str	r0, [r7, #4]
 336:telemetry.c   ****     telem_mag_t m;
 337:telemetry.c   ****     telemetry_collect_mag(ctx, &m);
 2135              		.loc 1 337 0
 2136 0008 07F11C03 		add	r3, r7, #28
 2137 000c 1946     		mov	r1, r3
 2138 000e 7868     		ldr	r0, [r7, #4]
 2139 0010 FFF7FEFF 		bl	telemetry_collect_mag
 338:telemetry.c   ****     uint8_t buf[TELEM_MAG_LEN];
 339:telemetry.c   ****     uint8_t n = encode_mag(&m, buf);
 2140              		.loc 1 339 0
 2141 0014 07F10C02 		add	r2, r7, #12
 2142 0018 07F11C03 		add	r3, r7, #28
 2143 001c 1146     		mov	r1, r2
 2144 001e 1846     		mov	r0, r3
 2145 0020 FFF7FEFF 		bl	encode_mag
 2146 0024 0346     		mov	r3, r0
 2147 0026 87F82F30 		strb	r3, [r7, #47]
 340:telemetry.c   ****     sbc_send_frame(PKT_TELEM_MAG, buf, n);
 2148              		.loc 1 340 0
 2149 002a 97F82F20 		ldrb	r2, [r7, #47]	@ zero_extendqisi2
 2150 002e 07F10C03 		add	r3, r7, #12
 2151 0032 1946     		mov	r1, r3
 2152 0034 2620     		movs	r0, #38
 2153 0036 FFF7FEFF 		bl	sbc_send_frame
 341:telemetry.c   **** }
 2154              		.loc 1 341 0
 2155 003a 00BF     		nop
 2156 003c 3037     		adds	r7, r7, #48
 2157              		.cfi_def_cfa_offset 8
ARM GAS  C:\Users\JENNEW~1\AppData\Local\Temp\ccW8Un4u.s 			page 45


 2158 003e BD46     		mov	sp, r7
 2159              		.cfi_def_cfa_register 13
 2160              		@ sp needed
 2161 0040 80BD     		pop	{r7, pc}
 2162              		.cfi_endproc
 2163              	.LFE86:
 2164              		.size	telemetry_send_mag_sbc, .-telemetry_send_mag_sbc
 2165 0042 00BF     		.data
 2166              		.align	2
 2167              		.type	s_attrs, %object
 2168              		.size	s_attrs, 48
 2169              	s_attrs:
 2170 0000 0100     		.short	1
 2171 0002 0000     		.space	2
 2172 0004 88130000 		.word	5000
 2173 0008 00000000 		.word	0
 2174 000c 0400     		.short	4
 2175 000e 0000     		.space	2
 2176 0010 88130000 		.word	5000
 2177 0014 00000000 		.word	0
 2178 0018 0300     		.short	3
 2179 001a 0000     		.space	2
 2180 001c 88130000 		.word	5000
 2181 0020 00000000 		.word	0
 2182 0024 0C00     		.short	12
 2183 0026 0000     		.space	2
 2184 0028 88130000 		.word	5000
 2185 002c 00000000 		.word	0
 2186              		.section	.text.telemetry_pump,"ax",%progbits
 2187              		.align	2
 2188              		.global	telemetry_pump
 2189              		.thumb
 2190              		.thumb_func
 2191              		.type	telemetry_pump, %function
 2192              	telemetry_pump:
 2193              	.LFB87:
 342:telemetry.c   **** 
 343:telemetry.c   **** // Gimbal sensor attribultes and request scheduling
 344:telemetry.c   **** typedef struct {
 345:telemetry.c   ****     uint16_t attr_id;           // HAMFLY_ATTR_SYSSTAT, etc.
 346:telemetry.c   ****     uint32_t period_ms;         // Should all be uniform
 347:telemetry.c   ****     uint32_t last_request_ms;   // Tibreaker
 348:telemetry.c   **** } attr_sched_t;
 349:telemetry.c   **** 
 350:telemetry.c   **** static attr_sched_t s_attrs[] = {
 351:telemetry.c   ****     { HAMFLY_ATTR_SYSSTAT, 5000u, 0u },  //  POWER + ENV
 352:telemetry.c   ****     { HAMFLY_ATTR_GPS,     5000u, 0u },  //  GPS
 353:telemetry.c   ****     { HAMFLY_ATTR_BARO,    5000u, 0u },  //  BARO
 354:telemetry.c   ****     { HAMFLY_ATTR_MAG,     5000u, 0u },  //  MAG
 355:telemetry.c   ****     //  ... examples (magnetometer! IMU? etc).
 356:telemetry.c   **** };
 357:telemetry.c   **** #define N_ATTRS (sizeof s_attrs / sizeof s_attrs[0])
 358:telemetry.c   **** 
 359:telemetry.c   **** void telemetry_pump(app_ctx_t *ctx)
 360:telemetry.c   **** {
 2194              		.loc 1 360 0
 2195              		.cfi_startproc
ARM GAS  C:\Users\JENNEW~1\AppData\Local\Temp\ccW8Un4u.s 			page 46


 2196              		@ args = 0, pretend = 0, frame = 32
 2197              		@ frame_needed = 1, uses_anonymous_args = 0
 2198 0000 80B5     		push	{r7, lr}
 2199              		.cfi_def_cfa_offset 8
 2200              		.cfi_offset 7, -8
 2201              		.cfi_offset 14, -4
 2202 0002 88B0     		sub	sp, sp, #32
 2203              		.cfi_def_cfa_offset 40
 2204 0004 00AF     		add	r7, sp, #0
 2205              		.cfi_def_cfa_register 7
 2206 0006 7860     		str	r0, [r7, #4]
 361:telemetry.c   ****     // Do a HamflyAttr request if on schedule and no control in process.
 362:telemetry.c   ****     // Early check if gimbal exists, and there are attrs to grab
 363:telemetry.c   ****     if (!ctx->gimbal || N_ATTRS == 0u) return;
 2207              		.loc 1 363 0
 2208 0008 7B68     		ldr	r3, [r7, #4]
 2209 000a 1B68     		ldr	r3, [r3]
 2210 000c 002B     		cmp	r3, #0
 2211 000e 56D0     		beq	.L111
 364:telemetry.c   ****     // Yield to control packet being sent to Movi
 365:telemetry.c   ****     if (g_tick_ms - ctx->last_tx_ms < 5u) return;
 2212              		.loc 1 365 0
 2213 0010 2F4B     		ldr	r3, .L114
 2214 0012 1A68     		ldr	r2, [r3]
 2215 0014 7B68     		ldr	r3, [r7, #4]
 2216 0016 5B6A     		ldr	r3, [r3, #36]
 2217 0018 D31A     		subs	r3, r2, r3
 2218 001a 042B     		cmp	r3, #4
 2219 001c 51D9     		bls	.L112
 366:telemetry.c   **** 
 367:telemetry.c   ****     uint32_t now = g_tick_ms;
 2220              		.loc 1 367 0
 2221 001e 2C4B     		ldr	r3, .L114
 2222 0020 1B68     		ldr	r3, [r3]
 2223 0022 3B61     		str	r3, [r7, #16]
 368:telemetry.c   ****     // Pick the oldest telemetry getter.
 369:telemetry.c   ****     size_t   chosen = (size_t)-1;
 2224              		.loc 1 369 0
 2225 0024 4FF0FF33 		mov	r3, #-1
 2226 0028 FB61     		str	r3, [r7, #28]
 370:telemetry.c   ****     uint32_t worst_overdue = 0u;
 2227              		.loc 1 370 0
 2228 002a 0023     		movs	r3, #0
 2229 002c BB61     		str	r3, [r7, #24]
 2230              	.LBB2:
 371:telemetry.c   ****     for (size_t i = 0u; i < N_ATTRS; i++) {
 2231              		.loc 1 371 0
 2232 002e 0023     		movs	r3, #0
 2233 0030 7B61     		str	r3, [r7, #20]
 2234 0032 22E0     		b	.L107
 2235              	.L109:
 2236              	.LBB3:
 372:telemetry.c   ****         uint32_t age = now - s_attrs[i].last_request_ms;
 2237              		.loc 1 372 0
 2238 0034 2749     		ldr	r1, .L114+4
 2239 0036 7A69     		ldr	r2, [r7, #20]
 2240 0038 1346     		mov	r3, r2
ARM GAS  C:\Users\JENNEW~1\AppData\Local\Temp\ccW8Un4u.s 			page 47


 2241 003a 5B00     		lsls	r3, r3, #1
 2242 003c 1344     		add	r3, r3, r2
 2243 003e 9B00     		lsls	r3, r3, #2
 2244 0040 0B44     		add	r3, r3, r1
 2245 0042 0833     		adds	r3, r3, #8
 2246 0044 1B68     		ldr	r3, [r3]
 2247 0046 3A69     		ldr	r2, [r7, #16]
 2248 0048 D31A     		subs	r3, r2, r3
 2249 004a FB60     		str	r3, [r7, #12]
 373:telemetry.c   ****         if (age >= s_attrs[i].period_ms && age >= worst_overdue) {
 2250              		.loc 1 373 0
 2251 004c 2149     		ldr	r1, .L114+4
 2252 004e 7A69     		ldr	r2, [r7, #20]
 2253 0050 1346     		mov	r3, r2
 2254 0052 5B00     		lsls	r3, r3, #1
 2255 0054 1344     		add	r3, r3, r2
 2256 0056 9B00     		lsls	r3, r3, #2
 2257 0058 0B44     		add	r3, r3, r1
 2258 005a 0433     		adds	r3, r3, #4
 2259 005c 1A68     		ldr	r2, [r3]
 2260 005e FB68     		ldr	r3, [r7, #12]
 2261 0060 9A42     		cmp	r2, r3
 2262 0062 07D8     		bhi	.L108
 2263              		.loc 1 373 0 is_stmt 0 discriminator 1
 2264 0064 FA68     		ldr	r2, [r7, #12]
 2265 0066 BB69     		ldr	r3, [r7, #24]
 2266 0068 9A42     		cmp	r2, r3
 2267 006a 03D3     		bcc	.L108
 374:telemetry.c   ****             worst_overdue = age;
 2268              		.loc 1 374 0 is_stmt 1
 2269 006c FB68     		ldr	r3, [r7, #12]
 2270 006e BB61     		str	r3, [r7, #24]
 375:telemetry.c   ****             chosen = i;
 2271              		.loc 1 375 0
 2272 0070 7B69     		ldr	r3, [r7, #20]
 2273 0072 FB61     		str	r3, [r7, #28]
 2274              	.L108:
 2275              	.LBE3:
 371:telemetry.c   ****         uint32_t age = now - s_attrs[i].last_request_ms;
 2276              		.loc 1 371 0 discriminator 2
 2277 0074 7B69     		ldr	r3, [r7, #20]
 2278 0076 0133     		adds	r3, r3, #1
 2279 0078 7B61     		str	r3, [r7, #20]
 2280              	.L107:
 371:telemetry.c   ****         uint32_t age = now - s_attrs[i].last_request_ms;
 2281              		.loc 1 371 0 is_stmt 0 discriminator 1
 2282 007a 7B69     		ldr	r3, [r7, #20]
 2283 007c 032B     		cmp	r3, #3
 2284 007e D9D9     		bls	.L109
 2285              	.LBE2:
 376:telemetry.c   ****         }
 377:telemetry.c   ****     }
 378:telemetry.c   ****     if (chosen == (size_t)-1) return;  // No attr passed its period.
 2286              		.loc 1 378 0 is_stmt 1
 2287 0080 FB69     		ldr	r3, [r7, #28]
 2288 0082 B3F1FF3F 		cmp	r3, #-1
 2289 0086 1ED0     		beq	.L113
ARM GAS  C:\Users\JENNEW~1\AppData\Local\Temp\ccW8Un4u.s 			page 48


 379:telemetry.c   ****     
 380:telemetry.c   ****     // Try to request for the attribute
 381:telemetry.c   ****     if (hamfly_request_attr(ctx->gimbal, s_attrs[chosen].attr_id) == HAMFLY_OK){
 2290              		.loc 1 381 0
 2291 0088 7B68     		ldr	r3, [r7, #4]
 2292 008a 1868     		ldr	r0, [r3]
 2293 008c 1149     		ldr	r1, .L114+4
 2294 008e FA69     		ldr	r2, [r7, #28]
 2295 0090 1346     		mov	r3, r2
 2296 0092 5B00     		lsls	r3, r3, #1
 2297 0094 1344     		add	r3, r3, r2
 2298 0096 9B00     		lsls	r3, r3, #2
 2299 0098 0B44     		add	r3, r3, r1
 2300 009a 1B88     		ldrh	r3, [r3]
 2301 009c 1946     		mov	r1, r3
 2302 009e FFF7FEFF 		bl	hamfly_request_attr
 2303 00a2 0346     		mov	r3, r0
 2304 00a4 002B     		cmp	r3, #0
 2305 00a6 0FD1     		bne	.L103
 382:telemetry.c   ****         s_attrs[chosen].last_request_ms = now;
 2306              		.loc 1 382 0
 2307 00a8 0A49     		ldr	r1, .L114+4
 2308 00aa FA69     		ldr	r2, [r7, #28]
 2309 00ac 1346     		mov	r3, r2
 2310 00ae 5B00     		lsls	r3, r3, #1
 2311 00b0 1344     		add	r3, r3, r2
 2312 00b2 9B00     		lsls	r3, r3, #2
 2313 00b4 0B44     		add	r3, r3, r1
 2314 00b6 0833     		adds	r3, r3, #8
 2315 00b8 3A69     		ldr	r2, [r7, #16]
 2316 00ba 1A60     		str	r2, [r3]
 2317 00bc 04E0     		b	.L103
 2318              	.L111:
 363:telemetry.c   ****     // Yield to control packet being sent to Movi
 2319              		.loc 1 363 0
 2320 00be 00BF     		nop
 2321 00c0 02E0     		b	.L103
 2322              	.L112:
 365:telemetry.c   **** 
 2323              		.loc 1 365 0
 2324 00c2 00BF     		nop
 2325 00c4 00E0     		b	.L103
 2326              	.L113:
 378:telemetry.c   ****     
 2327              		.loc 1 378 0
 2328 00c6 00BF     		nop
 2329              	.L103:
 383:telemetry.c   ****     }
 384:telemetry.c   **** }
 2330              		.loc 1 384 0
 2331 00c8 2037     		adds	r7, r7, #32
 2332              		.cfi_def_cfa_offset 8
 2333 00ca BD46     		mov	sp, r7
 2334              		.cfi_def_cfa_register 13
 2335              		@ sp needed
 2336 00cc 80BD     		pop	{r7, pc}
 2337              	.L115:
ARM GAS  C:\Users\JENNEW~1\AppData\Local\Temp\ccW8Un4u.s 			page 49


 2338 00ce 00BF     		.align	2
 2339              	.L114:
 2340 00d0 00000000 		.word	g_tick_ms
 2341 00d4 00000000 		.word	s_attrs
 2342              		.cfi_endproc
 2343              	.LFE87:
 2344              		.size	telemetry_pump, .-telemetry_pump
 2345              		.text
 2346              	.Letext0:
 2347              		.file 2 "c:\\program files (x86)\\cypress\\psoc creator\\4.4\\psoc creator\\import\\gnu\\arm\\5.4.
 2348              		.file 3 "c:\\program files (x86)\\cypress\\psoc creator\\4.4\\psoc creator\\import\\gnu\\arm\\5.4.
 2349              		.file 4 "c:\\program files (x86)\\cypress\\psoc creator\\4.4\\psoc creator\\import\\gnu\\arm\\5.4.
 2350              		.file 5 "..\\..\\..\\HamFlyAPI\\src/hamfly_core_control.h"
 2351              		.file 6 "..\\..\\..\\HamFlyAPI\\src/hamfly_core_hal.h"
 2352              		.file 7 "..\\..\\..\\HamFlyAPI\\src/hamfly_core_telemetry.h"
 2353              		.file 8 "..\\..\\..\\HamFlyAPI\\src/hamfly_comm_rb.h"
 2354              		.file 9 "..\\..\\..\\HamFlyAPI\\src/hamfly_core_gimbal.h"
 2355              		.file 10 "joystick.h"
 2356              		.file 11 "app_ctx.h"
 2357              		.file 12 "telemetry.h"
 2358              		.file 13 "Generated_Source\\PSoC5/core_cm3.h"