ARM GAS  C:\Users\yoons\AppData\Local\Temp\ccLfZPJ9.s 			page 1


   1              		.syntax unified
   2              		.cpu cortex-m3
   3              		.fpu softvfp
   4              		.eabi_attribute 20, 1
   5              		.eabi_attribute 21, 1
   6              		.eabi_attribute 23, 3
   7              		.eabi_attribute 24, 1
   8              		.eabi_attribute 25, 1
   9              		.eabi_attribute 26, 1
  10              		.eabi_attribute 30, 6
  11              		.eabi_attribute 34, 1
  12              		.eabi_attribute 18, 4
  13              		.thumb
  14              		.syntax unified
  15              		.file	"USBFS_DEBUG_std.c"
  16              		.text
  17              	.Ltext0:
  18              		.cfi_sections	.debug_frame
  19              		.section	.text.USBFS_DEBUG_HandleStandardRqst,"ax",%progbits
  20              		.align	2
  21              		.global	USBFS_DEBUG_HandleStandardRqst
  22              		.thumb
  23              		.thumb_func
  24              		.type	USBFS_DEBUG_HandleStandardRqst, %function
  25              	USBFS_DEBUG_HandleStandardRqst:
  26              	.LFB0:
  27              		.file 1 "Generated_Source\\PSoC5\\USBFS_DEBUG_std.c"
   1:Generated_Source\PSoC5/USBFS_DEBUG_std.c **** /***************************************************************************//**
   2:Generated_Source\PSoC5/USBFS_DEBUG_std.c **** * \file USBFS_DEBUG_std.c
   3:Generated_Source\PSoC5/USBFS_DEBUG_std.c **** * \version 3.20
   4:Generated_Source\PSoC5/USBFS_DEBUG_std.c **** *
   5:Generated_Source\PSoC5/USBFS_DEBUG_std.c **** * \brief
   6:Generated_Source\PSoC5/USBFS_DEBUG_std.c **** *  This file contains the USB Standard request handler.
   7:Generated_Source\PSoC5/USBFS_DEBUG_std.c **** *
   8:Generated_Source\PSoC5/USBFS_DEBUG_std.c **** ********************************************************************************
   9:Generated_Source\PSoC5/USBFS_DEBUG_std.c **** * \copyright
  10:Generated_Source\PSoC5/USBFS_DEBUG_std.c **** * Copyright 2008-2016, Cypress Semiconductor Corporation.  All rights reserved.
  11:Generated_Source\PSoC5/USBFS_DEBUG_std.c **** * You may use this file only in accordance with the license, terms, conditions,
  12:Generated_Source\PSoC5/USBFS_DEBUG_std.c **** * disclaimers, and limitations in the end user license agreement accompanying
  13:Generated_Source\PSoC5/USBFS_DEBUG_std.c **** * the software package with which this file was provided.
  14:Generated_Source\PSoC5/USBFS_DEBUG_std.c **** *******************************************************************************/
  15:Generated_Source\PSoC5/USBFS_DEBUG_std.c **** 
  16:Generated_Source\PSoC5/USBFS_DEBUG_std.c **** #include "USBFS_DEBUG_pvt.h"
  17:Generated_Source\PSoC5/USBFS_DEBUG_std.c **** 
  18:Generated_Source\PSoC5/USBFS_DEBUG_std.c **** /***************************************
  19:Generated_Source\PSoC5/USBFS_DEBUG_std.c **** *   Static data allocation
  20:Generated_Source\PSoC5/USBFS_DEBUG_std.c **** ***************************************/
  21:Generated_Source\PSoC5/USBFS_DEBUG_std.c **** 
  22:Generated_Source\PSoC5/USBFS_DEBUG_std.c **** #if defined(USBFS_DEBUG_ENABLE_FWSN_STRING)
  23:Generated_Source\PSoC5/USBFS_DEBUG_std.c ****     static volatile uint8* USBFS_DEBUG_fwSerialNumberStringDescriptor;
  24:Generated_Source\PSoC5/USBFS_DEBUG_std.c ****     static volatile uint8  USBFS_DEBUG_snStringConfirm = USBFS_DEBUG_FALSE;
  25:Generated_Source\PSoC5/USBFS_DEBUG_std.c **** #endif  /* (USBFS_DEBUG_ENABLE_FWSN_STRING) */
  26:Generated_Source\PSoC5/USBFS_DEBUG_std.c **** 
  27:Generated_Source\PSoC5/USBFS_DEBUG_std.c **** #if defined(USBFS_DEBUG_ENABLE_FWSN_STRING)
  28:Generated_Source\PSoC5/USBFS_DEBUG_std.c ****     /***************************************************************************
  29:Generated_Source\PSoC5/USBFS_DEBUG_std.c ****     * Function Name: USBFS_DEBUG_SerialNumString
  30:Generated_Source\PSoC5/USBFS_DEBUG_std.c ****     ************************************************************************//**
ARM GAS  C:\Users\yoons\AppData\Local\Temp\ccLfZPJ9.s 			page 2


  31:Generated_Source\PSoC5/USBFS_DEBUG_std.c ****     *
  32:Generated_Source\PSoC5/USBFS_DEBUG_std.c ****     *  This function is available only when the User Call Back option in the 
  33:Generated_Source\PSoC5/USBFS_DEBUG_std.c ****     *  Serial Number String descriptor properties is selected. Application 
  34:Generated_Source\PSoC5/USBFS_DEBUG_std.c ****     *  firmware can provide the source of the USB device serial number string 
  35:Generated_Source\PSoC5/USBFS_DEBUG_std.c ****     *  descriptor during run time. The default string is used if the application 
  36:Generated_Source\PSoC5/USBFS_DEBUG_std.c ****     *  firmware does not use this function or sets the wrong string descriptor.
  37:Generated_Source\PSoC5/USBFS_DEBUG_std.c ****     *
  38:Generated_Source\PSoC5/USBFS_DEBUG_std.c ****     *  \param snString:  Pointer to the user-defined string descriptor. The 
  39:Generated_Source\PSoC5/USBFS_DEBUG_std.c ****     *  string descriptor should meet the Universal Serial Bus Specification 
  40:Generated_Source\PSoC5/USBFS_DEBUG_std.c ****     *  revision 2.0 chapter 9.6.7
  41:Generated_Source\PSoC5/USBFS_DEBUG_std.c ****     *  Offset|Size|Value|Description
  42:Generated_Source\PSoC5/USBFS_DEBUG_std.c ****     *  ------|----|------|---------------------------------
  43:Generated_Source\PSoC5/USBFS_DEBUG_std.c ****     *  0     |1   |N     |Size of this descriptor in bytes
  44:Generated_Source\PSoC5/USBFS_DEBUG_std.c ****     *  1     |1   |0x03  |STRING Descriptor Type
  45:Generated_Source\PSoC5/USBFS_DEBUG_std.c ****     *  2     |N-2 |Number|UNICODE encoded string
  46:Generated_Source\PSoC5/USBFS_DEBUG_std.c ****     *  
  47:Generated_Source\PSoC5/USBFS_DEBUG_std.c ****     * *For example:* uint8 snString[16]={0x0E,0x03,'F',0,'W',0,'S',0,'N',0,'0',0,'1',0};
  48:Generated_Source\PSoC5/USBFS_DEBUG_std.c ****     *
  49:Generated_Source\PSoC5/USBFS_DEBUG_std.c ****     * \reentrant
  50:Generated_Source\PSoC5/USBFS_DEBUG_std.c ****     *  No.
  51:Generated_Source\PSoC5/USBFS_DEBUG_std.c ****     *
  52:Generated_Source\PSoC5/USBFS_DEBUG_std.c ****     ***************************************************************************/
  53:Generated_Source\PSoC5/USBFS_DEBUG_std.c ****     void  USBFS_DEBUG_SerialNumString(uint8 snString[]) 
  54:Generated_Source\PSoC5/USBFS_DEBUG_std.c ****     {
  55:Generated_Source\PSoC5/USBFS_DEBUG_std.c ****         USBFS_DEBUG_snStringConfirm = USBFS_DEBUG_FALSE;
  56:Generated_Source\PSoC5/USBFS_DEBUG_std.c ****         
  57:Generated_Source\PSoC5/USBFS_DEBUG_std.c ****         if (snString != NULL)
  58:Generated_Source\PSoC5/USBFS_DEBUG_std.c ****         {
  59:Generated_Source\PSoC5/USBFS_DEBUG_std.c ****             /* Check descriptor validation */
  60:Generated_Source\PSoC5/USBFS_DEBUG_std.c ****             if ((snString[0u] > 1u) && (snString[1u] == USBFS_DEBUG_DESCR_STRING))
  61:Generated_Source\PSoC5/USBFS_DEBUG_std.c ****             {
  62:Generated_Source\PSoC5/USBFS_DEBUG_std.c ****                 USBFS_DEBUG_fwSerialNumberStringDescriptor = snString;
  63:Generated_Source\PSoC5/USBFS_DEBUG_std.c ****                 USBFS_DEBUG_snStringConfirm = USBFS_DEBUG_TRUE;
  64:Generated_Source\PSoC5/USBFS_DEBUG_std.c ****             }
  65:Generated_Source\PSoC5/USBFS_DEBUG_std.c ****         }
  66:Generated_Source\PSoC5/USBFS_DEBUG_std.c ****     }
  67:Generated_Source\PSoC5/USBFS_DEBUG_std.c **** #endif  /* USBFS_DEBUG_ENABLE_FWSN_STRING */
  68:Generated_Source\PSoC5/USBFS_DEBUG_std.c **** 
  69:Generated_Source\PSoC5/USBFS_DEBUG_std.c **** 
  70:Generated_Source\PSoC5/USBFS_DEBUG_std.c **** /*******************************************************************************
  71:Generated_Source\PSoC5/USBFS_DEBUG_std.c **** * Function Name: USBFS_DEBUG_HandleStandardRqst
  72:Generated_Source\PSoC5/USBFS_DEBUG_std.c **** ****************************************************************************//**
  73:Generated_Source\PSoC5/USBFS_DEBUG_std.c **** *
  74:Generated_Source\PSoC5/USBFS_DEBUG_std.c **** *  This Routine dispatches standard requests
  75:Generated_Source\PSoC5/USBFS_DEBUG_std.c **** *
  76:Generated_Source\PSoC5/USBFS_DEBUG_std.c **** *
  77:Generated_Source\PSoC5/USBFS_DEBUG_std.c **** * \return
  78:Generated_Source\PSoC5/USBFS_DEBUG_std.c **** *  TRUE if request handled.
  79:Generated_Source\PSoC5/USBFS_DEBUG_std.c **** *
  80:Generated_Source\PSoC5/USBFS_DEBUG_std.c **** * \reentrant
  81:Generated_Source\PSoC5/USBFS_DEBUG_std.c **** *  No.
  82:Generated_Source\PSoC5/USBFS_DEBUG_std.c **** *
  83:Generated_Source\PSoC5/USBFS_DEBUG_std.c **** *******************************************************************************/
  84:Generated_Source\PSoC5/USBFS_DEBUG_std.c **** uint8 USBFS_DEBUG_HandleStandardRqst(void) 
  85:Generated_Source\PSoC5/USBFS_DEBUG_std.c **** {
  28              		.loc 1 85 0
  29              		.cfi_startproc
ARM GAS  C:\Users\yoons\AppData\Local\Temp\ccLfZPJ9.s 			page 3


  30              		@ args = 0, pretend = 0, frame = 24
  31              		@ frame_needed = 1, uses_anonymous_args = 0
  32 0000 80B5     		push	{r7, lr}
  33              		.cfi_def_cfa_offset 8
  34              		.cfi_offset 7, -8
  35              		.cfi_offset 14, -4
  36 0002 86B0     		sub	sp, sp, #24
  37              		.cfi_def_cfa_offset 32
  38 0004 00AF     		add	r7, sp, #0
  39              		.cfi_def_cfa_register 7
  86:Generated_Source\PSoC5/USBFS_DEBUG_std.c ****     uint8 requestHandled = USBFS_DEBUG_FALSE;
  40              		.loc 1 86 0
  41 0006 0023     		movs	r3, #0
  42 0008 FB75     		strb	r3, [r7, #23]
  87:Generated_Source\PSoC5/USBFS_DEBUG_std.c ****     uint8 interfaceNumber;
  88:Generated_Source\PSoC5/USBFS_DEBUG_std.c ****     uint8 configurationN;
  89:Generated_Source\PSoC5/USBFS_DEBUG_std.c ****     uint8 bmRequestType = USBFS_DEBUG_bmRequestTypeReg;
  43              		.loc 1 89 0
  44 000a B04B     		ldr	r3, .L67
  45 000c 1B78     		ldrb	r3, [r3]
  46 000e FB71     		strb	r3, [r7, #7]
  90:Generated_Source\PSoC5/USBFS_DEBUG_std.c **** 
  91:Generated_Source\PSoC5/USBFS_DEBUG_std.c **** #if defined(USBFS_DEBUG_ENABLE_STRINGS)
  92:Generated_Source\PSoC5/USBFS_DEBUG_std.c ****     volatile uint8 *pStr = 0u;
  47              		.loc 1 92 0
  48 0010 0023     		movs	r3, #0
  49 0012 3B61     		str	r3, [r7, #16]
  93:Generated_Source\PSoC5/USBFS_DEBUG_std.c ****     #if defined(USBFS_DEBUG_ENABLE_DESCRIPTOR_STRINGS)
  94:Generated_Source\PSoC5/USBFS_DEBUG_std.c ****         uint8 nStr;
  95:Generated_Source\PSoC5/USBFS_DEBUG_std.c ****         uint8 descrLength;
  96:Generated_Source\PSoC5/USBFS_DEBUG_std.c ****     #endif /* (USBFS_DEBUG_ENABLE_DESCRIPTOR_STRINGS) */
  97:Generated_Source\PSoC5/USBFS_DEBUG_std.c **** #endif /* (USBFS_DEBUG_ENABLE_STRINGS) */
  98:Generated_Source\PSoC5/USBFS_DEBUG_std.c ****     
  99:Generated_Source\PSoC5/USBFS_DEBUG_std.c ****     static volatile uint8 USBFS_DEBUG_tBuffer[USBFS_DEBUG_STATUS_LENGTH_MAX];
 100:Generated_Source\PSoC5/USBFS_DEBUG_std.c ****     const T_USBFS_DEBUG_LUT CYCODE *pTmp;
 101:Generated_Source\PSoC5/USBFS_DEBUG_std.c **** 
 102:Generated_Source\PSoC5/USBFS_DEBUG_std.c ****     USBFS_DEBUG_currentTD.count = 0u;
  50              		.loc 1 102 0
  51 0014 AE4B     		ldr	r3, .L67+4
  52 0016 0022     		movs	r2, #0
  53 0018 1A80     		strh	r2, [r3]	@ movhi
 103:Generated_Source\PSoC5/USBFS_DEBUG_std.c **** 
 104:Generated_Source\PSoC5/USBFS_DEBUG_std.c ****     if (USBFS_DEBUG_RQST_DIR_D2H == (bmRequestType & USBFS_DEBUG_RQST_DIR_MASK))
  54              		.loc 1 104 0
  55 001a 97F90730 		ldrsb	r3, [r7, #7]
  56 001e 002B     		cmp	r3, #0
  57 0020 80F2FD80 		bge	.L2
 105:Generated_Source\PSoC5/USBFS_DEBUG_std.c ****     {
 106:Generated_Source\PSoC5/USBFS_DEBUG_std.c ****         /* Control Read */
 107:Generated_Source\PSoC5/USBFS_DEBUG_std.c ****         switch (USBFS_DEBUG_bRequestReg)
  58              		.loc 1 107 0
  59 0024 A94B     		ldr	r3, .L67
  60 0026 5B78     		ldrb	r3, [r3, #1]
  61 0028 DBB2     		uxtb	r3, r3
  62 002a 0A2B     		cmp	r3, #10
  63 002c 00F21682 		bhi	.L56
  64 0030 01A2     		adr	r2, .L5
ARM GAS  C:\Users\yoons\AppData\Local\Temp\ccLfZPJ9.s 			page 4


  65 0032 52F823F0 		ldr	pc, [r2, r3, lsl #2]
  66 0036 00BF     		.p2align 2
  67              	.L5:
  68 0038 75010000 		.word	.L4+1
  69 003c 5D040000 		.word	.L56+1
  70 0040 5D040000 		.word	.L56+1
  71 0044 5D040000 		.word	.L56+1
  72 0048 5D040000 		.word	.L56+1
  73 004c 5D040000 		.word	.L56+1
  74 0050 65000000 		.word	.L6+1
  75 0054 5D040000 		.word	.L56+1
  76 0058 E9010000 		.word	.L7+1
  77 005c 5D040000 		.word	.L56+1
  78 0060 FF010000 		.word	.L8+1
  79              		.p2align 1
  80              	.L6:
 108:Generated_Source\PSoC5/USBFS_DEBUG_std.c ****         {
 109:Generated_Source\PSoC5/USBFS_DEBUG_std.c ****             case USBFS_DEBUG_GET_DESCRIPTOR:
 110:Generated_Source\PSoC5/USBFS_DEBUG_std.c ****                 if (USBFS_DEBUG_DESCR_DEVICE ==USBFS_DEBUG_wValueHiReg)
  81              		.loc 1 110 0
  82 0064 994B     		ldr	r3, .L67
  83 0066 DB78     		ldrb	r3, [r3, #3]
  84 0068 DBB2     		uxtb	r3, r3
  85 006a 012B     		cmp	r3, #1
  86 006c 0ED1     		bne	.L9
 111:Generated_Source\PSoC5/USBFS_DEBUG_std.c ****                 {
 112:Generated_Source\PSoC5/USBFS_DEBUG_std.c ****                     pTmp = USBFS_DEBUG_GetDeviceTablePtr();
  87              		.loc 1 112 0
  88 006e FFF7FEFF 		bl	USBFS_DEBUG_GetDeviceTablePtr
  89 0072 B860     		str	r0, [r7, #8]
 113:Generated_Source\PSoC5/USBFS_DEBUG_std.c ****                     USBFS_DEBUG_currentTD.pData = (volatile uint8 *)pTmp->p_list;
  90              		.loc 1 113 0
  91 0074 BB68     		ldr	r3, [r7, #8]
  92 0076 5B68     		ldr	r3, [r3, #4]
  93 0078 954A     		ldr	r2, .L67+4
  94 007a 5360     		str	r3, [r2, #4]
 114:Generated_Source\PSoC5/USBFS_DEBUG_std.c ****                     USBFS_DEBUG_currentTD.count = USBFS_DEBUG_DEVICE_DESCR_LENGTH;
  95              		.loc 1 114 0
  96 007c 944B     		ldr	r3, .L67+4
  97 007e 1222     		movs	r2, #18
  98 0080 1A80     		strh	r2, [r3]	@ movhi
 115:Generated_Source\PSoC5/USBFS_DEBUG_std.c ****                     
 116:Generated_Source\PSoC5/USBFS_DEBUG_std.c ****                     requestHandled  = USBFS_DEBUG_InitControlRead();
  99              		.loc 1 116 0
 100 0082 FFF7FEFF 		bl	USBFS_DEBUG_InitControlRead
 101 0086 0346     		mov	r3, r0
 102 0088 FB75     		strb	r3, [r7, #23]
 117:Generated_Source\PSoC5/USBFS_DEBUG_std.c ****                 }
 118:Generated_Source\PSoC5/USBFS_DEBUG_std.c ****                 else if (USBFS_DEBUG_DESCR_CONFIG == USBFS_DEBUG_wValueHiReg)
 119:Generated_Source\PSoC5/USBFS_DEBUG_std.c ****                 {
 120:Generated_Source\PSoC5/USBFS_DEBUG_std.c ****                     pTmp = USBFS_DEBUG_GetConfigTablePtr((uint8) USBFS_DEBUG_wValueLoReg);
 121:Generated_Source\PSoC5/USBFS_DEBUG_std.c ****                     
 122:Generated_Source\PSoC5/USBFS_DEBUG_std.c ****                     /* Verify that requested descriptor exists */
 123:Generated_Source\PSoC5/USBFS_DEBUG_std.c ****                     if (pTmp != NULL)
 124:Generated_Source\PSoC5/USBFS_DEBUG_std.c ****                     {
 125:Generated_Source\PSoC5/USBFS_DEBUG_std.c ****                         USBFS_DEBUG_currentTD.pData = (volatile uint8 *)pTmp->p_list;
 126:Generated_Source\PSoC5/USBFS_DEBUG_std.c ****                         USBFS_DEBUG_currentTD.count = (uint16)((uint16)(USBFS_DEBUG_currentTD.pData
ARM GAS  C:\Users\yoons\AppData\Local\Temp\ccLfZPJ9.s 			page 5


 127:Generated_Source\PSoC5/USBFS_DEBUG_std.c ****                                                                             (USBFS_DEBUG_currentTD.
 128:Generated_Source\PSoC5/USBFS_DEBUG_std.c ****                         requestHandled  = USBFS_DEBUG_InitControlRead();
 129:Generated_Source\PSoC5/USBFS_DEBUG_std.c ****                     }
 130:Generated_Source\PSoC5/USBFS_DEBUG_std.c ****                 }
 131:Generated_Source\PSoC5/USBFS_DEBUG_std.c ****                 
 132:Generated_Source\PSoC5/USBFS_DEBUG_std.c ****             #if(USBFS_DEBUG_BOS_ENABLE)
 133:Generated_Source\PSoC5/USBFS_DEBUG_std.c ****                 else if (USBFS_DEBUG_DESCR_BOS == USBFS_DEBUG_wValueHiReg)
 134:Generated_Source\PSoC5/USBFS_DEBUG_std.c ****                 {
 135:Generated_Source\PSoC5/USBFS_DEBUG_std.c ****                     pTmp = USBFS_DEBUG_GetBOSPtr();
 136:Generated_Source\PSoC5/USBFS_DEBUG_std.c ****                     
 137:Generated_Source\PSoC5/USBFS_DEBUG_std.c ****                     /* Verify that requested descriptor exists */
 138:Generated_Source\PSoC5/USBFS_DEBUG_std.c ****                     if (pTmp != NULL)
 139:Generated_Source\PSoC5/USBFS_DEBUG_std.c ****                     {
 140:Generated_Source\PSoC5/USBFS_DEBUG_std.c ****                         USBFS_DEBUG_currentTD.pData = (volatile uint8 *)pTmp;
 141:Generated_Source\PSoC5/USBFS_DEBUG_std.c ****                         USBFS_DEBUG_currentTD.count = ((uint16)((uint16)(USBFS_DEBUG_currentTD.pDat
 142:Generated_Source\PSoC5/USBFS_DEBUG_std.c ****                                                                              (USBFS_DEBUG_currentTD
 143:Generated_Source\PSoC5/USBFS_DEBUG_std.c ****                         requestHandled  = USBFS_DEBUG_InitControlRead();
 144:Generated_Source\PSoC5/USBFS_DEBUG_std.c ****                     }
 145:Generated_Source\PSoC5/USBFS_DEBUG_std.c ****                 }
 146:Generated_Source\PSoC5/USBFS_DEBUG_std.c ****             #endif /*(USBFS_DEBUG_BOS_ENABLE)*/
 147:Generated_Source\PSoC5/USBFS_DEBUG_std.c ****             
 148:Generated_Source\PSoC5/USBFS_DEBUG_std.c ****             #if defined(USBFS_DEBUG_ENABLE_STRINGS)
 149:Generated_Source\PSoC5/USBFS_DEBUG_std.c ****                 else if (USBFS_DEBUG_DESCR_STRING == USBFS_DEBUG_wValueHiReg)
 150:Generated_Source\PSoC5/USBFS_DEBUG_std.c ****                 {
 151:Generated_Source\PSoC5/USBFS_DEBUG_std.c ****                 /* Descriptor Strings */
 152:Generated_Source\PSoC5/USBFS_DEBUG_std.c ****                 #if defined(USBFS_DEBUG_ENABLE_DESCRIPTOR_STRINGS)
 153:Generated_Source\PSoC5/USBFS_DEBUG_std.c ****                     nStr = 0u;
 154:Generated_Source\PSoC5/USBFS_DEBUG_std.c ****                     pStr = (volatile uint8 *) &USBFS_DEBUG_STRING_DESCRIPTORS[0u];
 155:Generated_Source\PSoC5/USBFS_DEBUG_std.c ****                     
 156:Generated_Source\PSoC5/USBFS_DEBUG_std.c ****                     while ((USBFS_DEBUG_wValueLoReg > nStr) && (*pStr != 0u))
 157:Generated_Source\PSoC5/USBFS_DEBUG_std.c ****                     {
 158:Generated_Source\PSoC5/USBFS_DEBUG_std.c ****                         /* Read descriptor length from 1st byte */
 159:Generated_Source\PSoC5/USBFS_DEBUG_std.c ****                         descrLength = *pStr;
 160:Generated_Source\PSoC5/USBFS_DEBUG_std.c ****                         /* Move to next string descriptor */
 161:Generated_Source\PSoC5/USBFS_DEBUG_std.c ****                         pStr = &pStr[descrLength];
 162:Generated_Source\PSoC5/USBFS_DEBUG_std.c ****                         nStr++;
 163:Generated_Source\PSoC5/USBFS_DEBUG_std.c ****                     }
 164:Generated_Source\PSoC5/USBFS_DEBUG_std.c ****                 #endif /* (USBFS_DEBUG_ENABLE_DESCRIPTOR_STRINGS) */
 165:Generated_Source\PSoC5/USBFS_DEBUG_std.c ****                 
 166:Generated_Source\PSoC5/USBFS_DEBUG_std.c ****                 /* Microsoft OS String */
 167:Generated_Source\PSoC5/USBFS_DEBUG_std.c ****                 #if defined(USBFS_DEBUG_ENABLE_MSOS_STRING)
 168:Generated_Source\PSoC5/USBFS_DEBUG_std.c ****                     if (USBFS_DEBUG_STRING_MSOS == USBFS_DEBUG_wValueLoReg)
 169:Generated_Source\PSoC5/USBFS_DEBUG_std.c ****                     {
 170:Generated_Source\PSoC5/USBFS_DEBUG_std.c ****                         pStr = (volatile uint8 *)& USBFS_DEBUG_MSOS_DESCRIPTOR[0u];
 171:Generated_Source\PSoC5/USBFS_DEBUG_std.c ****                     }
 172:Generated_Source\PSoC5/USBFS_DEBUG_std.c ****                 #endif /* (USBFS_DEBUG_ENABLE_MSOS_STRING) */
 173:Generated_Source\PSoC5/USBFS_DEBUG_std.c ****                 
 174:Generated_Source\PSoC5/USBFS_DEBUG_std.c ****                 /* SN string */
 175:Generated_Source\PSoC5/USBFS_DEBUG_std.c ****                 #if defined(USBFS_DEBUG_ENABLE_SN_STRING)
 176:Generated_Source\PSoC5/USBFS_DEBUG_std.c ****                     if ((USBFS_DEBUG_wValueLoReg != 0u) && 
 177:Generated_Source\PSoC5/USBFS_DEBUG_std.c ****                         (USBFS_DEBUG_wValueLoReg == USBFS_DEBUG_DEVICE0_DESCR[USBFS_DEBUG_DEVICE_DE
 178:Generated_Source\PSoC5/USBFS_DEBUG_std.c ****                     {
 179:Generated_Source\PSoC5/USBFS_DEBUG_std.c ****                     #if defined(USBFS_DEBUG_ENABLE_IDSN_STRING)
 180:Generated_Source\PSoC5/USBFS_DEBUG_std.c ****                         /* Read DIE ID and generate string descriptor in RAM */
 181:Generated_Source\PSoC5/USBFS_DEBUG_std.c ****                         USBFS_DEBUG_ReadDieID(USBFS_DEBUG_idSerialNumberStringDescriptor);
 182:Generated_Source\PSoC5/USBFS_DEBUG_std.c ****                         pStr = USBFS_DEBUG_idSerialNumberStringDescriptor;
 183:Generated_Source\PSoC5/USBFS_DEBUG_std.c ****                     #elif defined(USBFS_DEBUG_ENABLE_FWSN_STRING)
ARM GAS  C:\Users\yoons\AppData\Local\Temp\ccLfZPJ9.s 			page 6


 184:Generated_Source\PSoC5/USBFS_DEBUG_std.c ****                         
 185:Generated_Source\PSoC5/USBFS_DEBUG_std.c ****                         if(USBFS_DEBUG_snStringConfirm != USBFS_DEBUG_FALSE)
 186:Generated_Source\PSoC5/USBFS_DEBUG_std.c ****                         {
 187:Generated_Source\PSoC5/USBFS_DEBUG_std.c ****                             pStr = USBFS_DEBUG_fwSerialNumberStringDescriptor;
 188:Generated_Source\PSoC5/USBFS_DEBUG_std.c ****                         }
 189:Generated_Source\PSoC5/USBFS_DEBUG_std.c ****                         else
 190:Generated_Source\PSoC5/USBFS_DEBUG_std.c ****                         {
 191:Generated_Source\PSoC5/USBFS_DEBUG_std.c ****                             pStr = (volatile uint8 *)&USBFS_DEBUG_SN_STRING_DESCRIPTOR[0u];
 192:Generated_Source\PSoC5/USBFS_DEBUG_std.c ****                         }
 193:Generated_Source\PSoC5/USBFS_DEBUG_std.c ****                     #else
 194:Generated_Source\PSoC5/USBFS_DEBUG_std.c ****                         pStr = (volatile uint8 *)&USBFS_DEBUG_SN_STRING_DESCRIPTOR[0u];
 195:Generated_Source\PSoC5/USBFS_DEBUG_std.c ****                     #endif  /* (USBFS_DEBUG_ENABLE_IDSN_STRING) */
 196:Generated_Source\PSoC5/USBFS_DEBUG_std.c ****                     }
 197:Generated_Source\PSoC5/USBFS_DEBUG_std.c ****                 #endif /* (USBFS_DEBUG_ENABLE_SN_STRING) */
 198:Generated_Source\PSoC5/USBFS_DEBUG_std.c ****                 
 199:Generated_Source\PSoC5/USBFS_DEBUG_std.c ****                     if (*pStr != 0u)
 200:Generated_Source\PSoC5/USBFS_DEBUG_std.c ****                     {
 201:Generated_Source\PSoC5/USBFS_DEBUG_std.c ****                         USBFS_DEBUG_currentTD.count = *pStr;
 202:Generated_Source\PSoC5/USBFS_DEBUG_std.c ****                         USBFS_DEBUG_currentTD.pData = pStr;
 203:Generated_Source\PSoC5/USBFS_DEBUG_std.c ****                         requestHandled  = USBFS_DEBUG_InitControlRead();
 204:Generated_Source\PSoC5/USBFS_DEBUG_std.c ****                     }
 205:Generated_Source\PSoC5/USBFS_DEBUG_std.c ****                 }
 206:Generated_Source\PSoC5/USBFS_DEBUG_std.c ****             #endif /*  USBFS_DEBUG_ENABLE_STRINGS */
 207:Generated_Source\PSoC5/USBFS_DEBUG_std.c ****                 else
 208:Generated_Source\PSoC5/USBFS_DEBUG_std.c ****                 {
 209:Generated_Source\PSoC5/USBFS_DEBUG_std.c ****                     requestHandled = USBFS_DEBUG_DispatchClassRqst();
 210:Generated_Source\PSoC5/USBFS_DEBUG_std.c ****                 }
 211:Generated_Source\PSoC5/USBFS_DEBUG_std.c ****                 break;
 103              		.loc 1 211 0
 104 008a E9E1     		b	.L57
 105              	.L9:
 118:Generated_Source\PSoC5/USBFS_DEBUG_std.c ****                 {
 106              		.loc 1 118 0
 107 008c 8F4B     		ldr	r3, .L67
 108 008e DB78     		ldrb	r3, [r3, #3]
 109 0090 DBB2     		uxtb	r3, r3
 110 0092 022B     		cmp	r3, #2
 111 0094 25D1     		bne	.L11
 120:Generated_Source\PSoC5/USBFS_DEBUG_std.c ****                     
 112              		.loc 1 120 0
 113 0096 8D4B     		ldr	r3, .L67
 114 0098 9B78     		ldrb	r3, [r3, #2]
 115 009a DBB2     		uxtb	r3, r3
 116 009c 1846     		mov	r0, r3
 117 009e FFF7FEFF 		bl	USBFS_DEBUG_GetConfigTablePtr
 118 00a2 B860     		str	r0, [r7, #8]
 123:Generated_Source\PSoC5/USBFS_DEBUG_std.c ****                     {
 119              		.loc 1 123 0
 120 00a4 BB68     		ldr	r3, [r7, #8]
 121 00a6 002B     		cmp	r3, #0
 122 00a8 00F0DA81 		beq	.L57
 125:Generated_Source\PSoC5/USBFS_DEBUG_std.c ****                         USBFS_DEBUG_currentTD.count = (uint16)((uint16)(USBFS_DEBUG_currentTD.pData
 123              		.loc 1 125 0
 124 00ac BB68     		ldr	r3, [r7, #8]
 125 00ae 5B68     		ldr	r3, [r3, #4]
 126 00b0 874A     		ldr	r2, .L67+4
 127 00b2 5360     		str	r3, [r2, #4]
ARM GAS  C:\Users\yoons\AppData\Local\Temp\ccLfZPJ9.s 			page 7


 126:Generated_Source\PSoC5/USBFS_DEBUG_std.c ****                                                                             (USBFS_DEBUG_currentTD.
 128              		.loc 1 126 0
 129 00b4 864B     		ldr	r3, .L67+4
 130 00b6 5B68     		ldr	r3, [r3, #4]
 131 00b8 0333     		adds	r3, r3, #3
 132 00ba 1B78     		ldrb	r3, [r3]
 133 00bc DBB2     		uxtb	r3, r3
 134 00be 9BB2     		uxth	r3, r3
 135 00c0 1B02     		lsls	r3, r3, #8
 136 00c2 9AB2     		uxth	r2, r3
 127:Generated_Source\PSoC5/USBFS_DEBUG_std.c ****                         requestHandled  = USBFS_DEBUG_InitControlRead();
 137              		.loc 1 127 0
 138 00c4 824B     		ldr	r3, .L67+4
 139 00c6 5B68     		ldr	r3, [r3, #4]
 140 00c8 0233     		adds	r3, r3, #2
 141 00ca 1B78     		ldrb	r3, [r3]
 142 00cc DBB2     		uxtb	r3, r3
 126:Generated_Source\PSoC5/USBFS_DEBUG_std.c ****                                                                             (USBFS_DEBUG_currentTD.
 143              		.loc 1 126 0
 144 00ce 9BB2     		uxth	r3, r3
 145 00d0 1343     		orrs	r3, r3, r2
 146 00d2 9AB2     		uxth	r2, r3
 147 00d4 7E4B     		ldr	r3, .L67+4
 148 00d6 1A80     		strh	r2, [r3]	@ movhi
 128:Generated_Source\PSoC5/USBFS_DEBUG_std.c ****                     }
 149              		.loc 1 128 0
 150 00d8 FFF7FEFF 		bl	USBFS_DEBUG_InitControlRead
 151 00dc 0346     		mov	r3, r0
 152 00de FB75     		strb	r3, [r7, #23]
 153              		.loc 1 211 0
 154 00e0 BEE1     		b	.L57
 155              	.L11:
 149:Generated_Source\PSoC5/USBFS_DEBUG_std.c ****                 {
 156              		.loc 1 149 0
 157 00e2 7A4B     		ldr	r3, .L67
 158 00e4 DB78     		ldrb	r3, [r3, #3]
 159 00e6 DBB2     		uxtb	r3, r3
 160 00e8 032B     		cmp	r3, #3
 161 00ea 3ED1     		bne	.L13
 153:Generated_Source\PSoC5/USBFS_DEBUG_std.c ****                     pStr = (volatile uint8 *) &USBFS_DEBUG_STRING_DESCRIPTORS[0u];
 162              		.loc 1 153 0
 163 00ec 0023     		movs	r3, #0
 164 00ee FB73     		strb	r3, [r7, #15]
 154:Generated_Source\PSoC5/USBFS_DEBUG_std.c ****                     
 165              		.loc 1 154 0
 166 00f0 784B     		ldr	r3, .L67+8
 167 00f2 3B61     		str	r3, [r7, #16]
 156:Generated_Source\PSoC5/USBFS_DEBUG_std.c ****                     {
 168              		.loc 1 156 0
 169 00f4 09E0     		b	.L14
 170              	.L16:
 159:Generated_Source\PSoC5/USBFS_DEBUG_std.c ****                         /* Move to next string descriptor */
 171              		.loc 1 159 0
 172 00f6 3B69     		ldr	r3, [r7, #16]
 173 00f8 1B78     		ldrb	r3, [r3]
 174 00fa BB71     		strb	r3, [r7, #6]
 161:Generated_Source\PSoC5/USBFS_DEBUG_std.c ****                         nStr++;
ARM GAS  C:\Users\yoons\AppData\Local\Temp\ccLfZPJ9.s 			page 8


 175              		.loc 1 161 0
 176 00fc BB79     		ldrb	r3, [r7, #6]	@ zero_extendqisi2
 177 00fe 3A69     		ldr	r2, [r7, #16]
 178 0100 1344     		add	r3, r3, r2
 179 0102 3B61     		str	r3, [r7, #16]
 162:Generated_Source\PSoC5/USBFS_DEBUG_std.c ****                     }
 180              		.loc 1 162 0
 181 0104 FB7B     		ldrb	r3, [r7, #15]	@ zero_extendqisi2
 182 0106 0133     		adds	r3, r3, #1
 183 0108 FB73     		strb	r3, [r7, #15]
 184              	.L14:
 156:Generated_Source\PSoC5/USBFS_DEBUG_std.c ****                     {
 185              		.loc 1 156 0
 186 010a 704B     		ldr	r3, .L67
 187 010c 9B78     		ldrb	r3, [r3, #2]
 188 010e DBB2     		uxtb	r3, r3
 189 0110 FA7B     		ldrb	r2, [r7, #15]	@ zero_extendqisi2
 190 0112 9A42     		cmp	r2, r3
 191 0114 04D2     		bcs	.L15
 156:Generated_Source\PSoC5/USBFS_DEBUG_std.c ****                     {
 192              		.loc 1 156 0 is_stmt 0 discriminator 1
 193 0116 3B69     		ldr	r3, [r7, #16]
 194 0118 1B78     		ldrb	r3, [r3]
 195 011a DBB2     		uxtb	r3, r3
 196 011c 002B     		cmp	r3, #0
 197 011e EAD1     		bne	.L16
 198              	.L15:
 176:Generated_Source\PSoC5/USBFS_DEBUG_std.c ****                         (USBFS_DEBUG_wValueLoReg == USBFS_DEBUG_DEVICE0_DESCR[USBFS_DEBUG_DEVICE_DE
 199              		.loc 1 176 0 is_stmt 1
 200 0120 6A4B     		ldr	r3, .L67
 201 0122 9B78     		ldrb	r3, [r3, #2]
 202 0124 DBB2     		uxtb	r3, r3
 203 0126 002B     		cmp	r3, #0
 204 0128 0BD0     		beq	.L17
 177:Generated_Source\PSoC5/USBFS_DEBUG_std.c ****                     {
 205              		.loc 1 177 0 discriminator 1
 206 012a 684B     		ldr	r3, .L67
 207 012c 9B78     		ldrb	r3, [r3, #2]
 208 012e DAB2     		uxtb	r2, r3
 209 0130 694B     		ldr	r3, .L67+12
 210 0132 1B7C     		ldrb	r3, [r3, #16]	@ zero_extendqisi2
 176:Generated_Source\PSoC5/USBFS_DEBUG_std.c ****                         (USBFS_DEBUG_wValueLoReg == USBFS_DEBUG_DEVICE0_DESCR[USBFS_DEBUG_DEVICE_DE
 211              		.loc 1 176 0 discriminator 1
 212 0134 9A42     		cmp	r2, r3
 213 0136 04D1     		bne	.L17
 181:Generated_Source\PSoC5/USBFS_DEBUG_std.c ****                         pStr = USBFS_DEBUG_idSerialNumberStringDescriptor;
 214              		.loc 1 181 0
 215 0138 6848     		ldr	r0, .L67+16
 216 013a FFF7FEFF 		bl	USBFS_DEBUG_ReadDieID
 182:Generated_Source\PSoC5/USBFS_DEBUG_std.c ****                     #elif defined(USBFS_DEBUG_ENABLE_FWSN_STRING)
 217              		.loc 1 182 0
 218 013e 674B     		ldr	r3, .L67+16
 219 0140 3B61     		str	r3, [r7, #16]
 220              	.L17:
 199:Generated_Source\PSoC5/USBFS_DEBUG_std.c ****                     {
 221              		.loc 1 199 0
 222 0142 3B69     		ldr	r3, [r7, #16]
ARM GAS  C:\Users\yoons\AppData\Local\Temp\ccLfZPJ9.s 			page 9


 223 0144 1B78     		ldrb	r3, [r3]
 224 0146 DBB2     		uxtb	r3, r3
 225 0148 002B     		cmp	r3, #0
 226 014a 00F08981 		beq	.L57
 201:Generated_Source\PSoC5/USBFS_DEBUG_std.c ****                         USBFS_DEBUG_currentTD.pData = pStr;
 227              		.loc 1 201 0
 228 014e 3B69     		ldr	r3, [r7, #16]
 229 0150 1B78     		ldrb	r3, [r3]
 230 0152 DBB2     		uxtb	r3, r3
 231 0154 9AB2     		uxth	r2, r3
 232 0156 5E4B     		ldr	r3, .L67+4
 233 0158 1A80     		strh	r2, [r3]	@ movhi
 202:Generated_Source\PSoC5/USBFS_DEBUG_std.c ****                         requestHandled  = USBFS_DEBUG_InitControlRead();
 234              		.loc 1 202 0
 235 015a 5D4A     		ldr	r2, .L67+4
 236 015c 3B69     		ldr	r3, [r7, #16]
 237 015e 5360     		str	r3, [r2, #4]
 203:Generated_Source\PSoC5/USBFS_DEBUG_std.c ****                     }
 238              		.loc 1 203 0
 239 0160 FFF7FEFF 		bl	USBFS_DEBUG_InitControlRead
 240 0164 0346     		mov	r3, r0
 241 0166 FB75     		strb	r3, [r7, #23]
 242              		.loc 1 211 0
 243 0168 7AE1     		b	.L57
 244              	.L13:
 209:Generated_Source\PSoC5/USBFS_DEBUG_std.c ****                 }
 245              		.loc 1 209 0
 246 016a FFF7FEFF 		bl	USBFS_DEBUG_DispatchClassRqst
 247 016e 0346     		mov	r3, r0
 248 0170 FB75     		strb	r3, [r7, #23]
 249              		.loc 1 211 0
 250 0172 75E1     		b	.L57
 251              	.L4:
 212:Generated_Source\PSoC5/USBFS_DEBUG_std.c ****                 
 213:Generated_Source\PSoC5/USBFS_DEBUG_std.c ****             case USBFS_DEBUG_GET_STATUS:
 214:Generated_Source\PSoC5/USBFS_DEBUG_std.c ****                 switch (bmRequestType & USBFS_DEBUG_RQST_RCPT_MASK)
 252              		.loc 1 214 0
 253 0174 FB79     		ldrb	r3, [r7, #7]	@ zero_extendqisi2
 254 0176 03F00303 		and	r3, r3, #3
 255 017a 002B     		cmp	r3, #0
 256 017c 20D0     		beq	.L21
 257 017e 022B     		cmp	r3, #2
 258 0180 00D0     		beq	.L22
 215:Generated_Source\PSoC5/USBFS_DEBUG_std.c ****                 {
 216:Generated_Source\PSoC5/USBFS_DEBUG_std.c ****                     case USBFS_DEBUG_RQST_RCPT_EP:
 217:Generated_Source\PSoC5/USBFS_DEBUG_std.c ****                         USBFS_DEBUG_currentTD.count = USBFS_DEBUG_EP_STATUS_LENGTH;
 218:Generated_Source\PSoC5/USBFS_DEBUG_std.c ****                         USBFS_DEBUG_tBuffer[0u]     = USBFS_DEBUG_EP[USBFS_DEBUG_wIndexLoReg & USBF
 219:Generated_Source\PSoC5/USBFS_DEBUG_std.c ****                         USBFS_DEBUG_tBuffer[1u]     = 0u;
 220:Generated_Source\PSoC5/USBFS_DEBUG_std.c ****                         USBFS_DEBUG_currentTD.pData = &USBFS_DEBUG_tBuffer[0u];
 221:Generated_Source\PSoC5/USBFS_DEBUG_std.c ****                         
 222:Generated_Source\PSoC5/USBFS_DEBUG_std.c ****                         requestHandled  = USBFS_DEBUG_InitControlRead();
 223:Generated_Source\PSoC5/USBFS_DEBUG_std.c ****                         break;
 224:Generated_Source\PSoC5/USBFS_DEBUG_std.c ****                     case USBFS_DEBUG_RQST_RCPT_DEV:
 225:Generated_Source\PSoC5/USBFS_DEBUG_std.c ****                         USBFS_DEBUG_currentTD.count = USBFS_DEBUG_DEVICE_STATUS_LENGTH;
 226:Generated_Source\PSoC5/USBFS_DEBUG_std.c ****                         USBFS_DEBUG_tBuffer[0u]     = USBFS_DEBUG_deviceStatus;
 227:Generated_Source\PSoC5/USBFS_DEBUG_std.c ****                         USBFS_DEBUG_tBuffer[1u]     = 0u;
 228:Generated_Source\PSoC5/USBFS_DEBUG_std.c ****                         USBFS_DEBUG_currentTD.pData = &USBFS_DEBUG_tBuffer[0u];
ARM GAS  C:\Users\yoons\AppData\Local\Temp\ccLfZPJ9.s 			page 10


 229:Generated_Source\PSoC5/USBFS_DEBUG_std.c ****                         
 230:Generated_Source\PSoC5/USBFS_DEBUG_std.c ****                         requestHandled  = USBFS_DEBUG_InitControlRead();
 231:Generated_Source\PSoC5/USBFS_DEBUG_std.c ****                         break;
 232:Generated_Source\PSoC5/USBFS_DEBUG_std.c ****                     default:    /* requestHandled is initialized as FALSE by default */
 233:Generated_Source\PSoC5/USBFS_DEBUG_std.c ****                         break;
 259              		.loc 1 233 0
 260 0182 30E0     		b	.L23
 261              	.L22:
 217:Generated_Source\PSoC5/USBFS_DEBUG_std.c ****                         USBFS_DEBUG_tBuffer[0u]     = USBFS_DEBUG_EP[USBFS_DEBUG_wIndexLoReg & USBF
 262              		.loc 1 217 0
 263 0184 524B     		ldr	r3, .L67+4
 264 0186 0222     		movs	r2, #2
 265 0188 1A80     		strh	r2, [r3]	@ movhi
 218:Generated_Source\PSoC5/USBFS_DEBUG_std.c ****                         USBFS_DEBUG_tBuffer[1u]     = 0u;
 266              		.loc 1 218 0
 267 018a 504B     		ldr	r3, .L67
 268 018c 1B79     		ldrb	r3, [r3, #4]
 269 018e DBB2     		uxtb	r3, r3
 270 0190 03F07F02 		and	r2, r3, #127
 271 0194 5249     		ldr	r1, .L67+20
 272 0196 1346     		mov	r3, r2
 273 0198 5B00     		lsls	r3, r3, #1
 274 019a 1344     		add	r3, r3, r2
 275 019c 9B00     		lsls	r3, r3, #2
 276 019e 0B44     		add	r3, r3, r1
 277 01a0 0233     		adds	r3, r3, #2
 278 01a2 1B78     		ldrb	r3, [r3]
 279 01a4 DAB2     		uxtb	r2, r3
 280 01a6 4F4B     		ldr	r3, .L67+24
 281 01a8 1A70     		strb	r2, [r3]
 219:Generated_Source\PSoC5/USBFS_DEBUG_std.c ****                         USBFS_DEBUG_currentTD.pData = &USBFS_DEBUG_tBuffer[0u];
 282              		.loc 1 219 0
 283 01aa 4E4B     		ldr	r3, .L67+24
 284 01ac 0022     		movs	r2, #0
 285 01ae 5A70     		strb	r2, [r3, #1]
 220:Generated_Source\PSoC5/USBFS_DEBUG_std.c ****                         
 286              		.loc 1 220 0
 287 01b0 474B     		ldr	r3, .L67+4
 288 01b2 4C4A     		ldr	r2, .L67+24
 289 01b4 5A60     		str	r2, [r3, #4]
 222:Generated_Source\PSoC5/USBFS_DEBUG_std.c ****                         break;
 290              		.loc 1 222 0
 291 01b6 FFF7FEFF 		bl	USBFS_DEBUG_InitControlRead
 292 01ba 0346     		mov	r3, r0
 293 01bc FB75     		strb	r3, [r7, #23]
 223:Generated_Source\PSoC5/USBFS_DEBUG_std.c ****                     case USBFS_DEBUG_RQST_RCPT_DEV:
 294              		.loc 1 223 0
 295 01be 12E0     		b	.L23
 296              	.L21:
 225:Generated_Source\PSoC5/USBFS_DEBUG_std.c ****                         USBFS_DEBUG_tBuffer[0u]     = USBFS_DEBUG_deviceStatus;
 297              		.loc 1 225 0
 298 01c0 434B     		ldr	r3, .L67+4
 299 01c2 0222     		movs	r2, #2
 300 01c4 1A80     		strh	r2, [r3]	@ movhi
 226:Generated_Source\PSoC5/USBFS_DEBUG_std.c ****                         USBFS_DEBUG_tBuffer[1u]     = 0u;
 301              		.loc 1 226 0
 302 01c6 484B     		ldr	r3, .L67+28
ARM GAS  C:\Users\yoons\AppData\Local\Temp\ccLfZPJ9.s 			page 11


 303 01c8 1B78     		ldrb	r3, [r3]
 304 01ca DAB2     		uxtb	r2, r3
 305 01cc 454B     		ldr	r3, .L67+24
 306 01ce 1A70     		strb	r2, [r3]
 227:Generated_Source\PSoC5/USBFS_DEBUG_std.c ****                         USBFS_DEBUG_currentTD.pData = &USBFS_DEBUG_tBuffer[0u];
 307              		.loc 1 227 0
 308 01d0 444B     		ldr	r3, .L67+24
 309 01d2 0022     		movs	r2, #0
 310 01d4 5A70     		strb	r2, [r3, #1]
 228:Generated_Source\PSoC5/USBFS_DEBUG_std.c ****                         
 311              		.loc 1 228 0
 312 01d6 3E4B     		ldr	r3, .L67+4
 313 01d8 424A     		ldr	r2, .L67+24
 314 01da 5A60     		str	r2, [r3, #4]
 230:Generated_Source\PSoC5/USBFS_DEBUG_std.c ****                         break;
 315              		.loc 1 230 0
 316 01dc FFF7FEFF 		bl	USBFS_DEBUG_InitControlRead
 317 01e0 0346     		mov	r3, r0
 318 01e2 FB75     		strb	r3, [r7, #23]
 231:Generated_Source\PSoC5/USBFS_DEBUG_std.c ****                     default:    /* requestHandled is initialized as FALSE by default */
 319              		.loc 1 231 0
 320 01e4 00BF     		nop
 321              	.L23:
 234:Generated_Source\PSoC5/USBFS_DEBUG_std.c ****                 }
 235:Generated_Source\PSoC5/USBFS_DEBUG_std.c ****                 break;
 322              		.loc 1 235 0 discriminator 4
 323 01e6 42E1     		b	.L24
 324              	.L7:
 236:Generated_Source\PSoC5/USBFS_DEBUG_std.c ****                 
 237:Generated_Source\PSoC5/USBFS_DEBUG_std.c ****             case USBFS_DEBUG_GET_CONFIGURATION:
 238:Generated_Source\PSoC5/USBFS_DEBUG_std.c ****                 USBFS_DEBUG_currentTD.count = 1u;
 325              		.loc 1 238 0
 326 01e8 394B     		ldr	r3, .L67+4
 327 01ea 0122     		movs	r2, #1
 328 01ec 1A80     		strh	r2, [r3]	@ movhi
 239:Generated_Source\PSoC5/USBFS_DEBUG_std.c ****                 USBFS_DEBUG_currentTD.pData = (volatile uint8 *) &USBFS_DEBUG_configuration;
 329              		.loc 1 239 0
 330 01ee 384B     		ldr	r3, .L67+4
 331 01f0 3E4A     		ldr	r2, .L67+32
 332 01f2 5A60     		str	r2, [r3, #4]
 240:Generated_Source\PSoC5/USBFS_DEBUG_std.c ****                 requestHandled  = USBFS_DEBUG_InitControlRead();
 333              		.loc 1 240 0
 334 01f4 FFF7FEFF 		bl	USBFS_DEBUG_InitControlRead
 335 01f8 0346     		mov	r3, r0
 336 01fa FB75     		strb	r3, [r7, #23]
 241:Generated_Source\PSoC5/USBFS_DEBUG_std.c ****                 break;
 337              		.loc 1 241 0
 338 01fc 37E1     		b	.L24
 339              	.L8:
 242:Generated_Source\PSoC5/USBFS_DEBUG_std.c ****                 
 243:Generated_Source\PSoC5/USBFS_DEBUG_std.c ****             case USBFS_DEBUG_GET_INTERFACE:
 244:Generated_Source\PSoC5/USBFS_DEBUG_std.c ****                 USBFS_DEBUG_currentTD.count = 1u;
 340              		.loc 1 244 0
 341 01fe 344B     		ldr	r3, .L67+4
 342 0200 0122     		movs	r2, #1
 343 0202 1A80     		strh	r2, [r3]	@ movhi
 245:Generated_Source\PSoC5/USBFS_DEBUG_std.c ****                 USBFS_DEBUG_currentTD.pData = (volatile uint8 *) &USBFS_DEBUG_interfaceSetting[USBF
ARM GAS  C:\Users\yoons\AppData\Local\Temp\ccLfZPJ9.s 			page 12


 344              		.loc 1 245 0
 345 0204 314B     		ldr	r3, .L67
 346 0206 1B79     		ldrb	r3, [r3, #4]
 347 0208 DBB2     		uxtb	r3, r3
 348 020a 1A46     		mov	r2, r3
 349 020c 384B     		ldr	r3, .L67+36
 350 020e 1344     		add	r3, r3, r2
 351 0210 2F4A     		ldr	r2, .L67+4
 352 0212 5360     		str	r3, [r2, #4]
 246:Generated_Source\PSoC5/USBFS_DEBUG_std.c ****                 requestHandled  = USBFS_DEBUG_InitControlRead();
 353              		.loc 1 246 0
 354 0214 FFF7FEFF 		bl	USBFS_DEBUG_InitControlRead
 355 0218 0346     		mov	r3, r0
 356 021a FB75     		strb	r3, [r7, #23]
 247:Generated_Source\PSoC5/USBFS_DEBUG_std.c ****                 break;
 357              		.loc 1 247 0
 358 021c 27E1     		b	.L24
 359              	.L2:
 248:Generated_Source\PSoC5/USBFS_DEBUG_std.c ****                 
 249:Generated_Source\PSoC5/USBFS_DEBUG_std.c ****             default: /* requestHandled is initialized as FALSE by default */
 250:Generated_Source\PSoC5/USBFS_DEBUG_std.c ****                 break;
 251:Generated_Source\PSoC5/USBFS_DEBUG_std.c ****         }
 252:Generated_Source\PSoC5/USBFS_DEBUG_std.c ****     }
 253:Generated_Source\PSoC5/USBFS_DEBUG_std.c ****     else
 254:Generated_Source\PSoC5/USBFS_DEBUG_std.c ****     {
 255:Generated_Source\PSoC5/USBFS_DEBUG_std.c ****         /* Control Write */
 256:Generated_Source\PSoC5/USBFS_DEBUG_std.c ****         switch (USBFS_DEBUG_bRequestReg)
 360              		.loc 1 256 0
 361 021e 2B4B     		ldr	r3, .L67
 362 0220 5B78     		ldrb	r3, [r3, #1]
 363 0222 DBB2     		uxtb	r3, r3
 364 0224 013B     		subs	r3, r3, #1
 365 0226 0A2B     		cmp	r3, #10
 366 0228 00F21C81 		bhi	.L58
 367 022c 01A2     		adr	r2, .L27
 368 022e 52F823F0 		ldr	pc, [r2, r3, lsl #2]
 369 0232 00BF     		.p2align 2
 370              	.L27:
 371 0234 41030000 		.word	.L26+1
 372 0238 65040000 		.word	.L58+1
 373 023c CF030000 		.word	.L28+1
 374 0240 65040000 		.word	.L58+1
 375 0244 61020000 		.word	.L29+1
 376 0248 65040000 		.word	.L58+1
 377 024c 65040000 		.word	.L58+1
 378 0250 65040000 		.word	.L58+1
 379 0254 75020000 		.word	.L30+1
 380 0258 65040000 		.word	.L58+1
 381 025c FD020000 		.word	.L31+1
 382              		.p2align 1
 383              	.L29:
 257:Generated_Source\PSoC5/USBFS_DEBUG_std.c ****         {
 258:Generated_Source\PSoC5/USBFS_DEBUG_std.c ****             case USBFS_DEBUG_SET_ADDRESS:
 259:Generated_Source\PSoC5/USBFS_DEBUG_std.c ****                 /* Store address to be set in USBFS_DEBUG_NoDataControlStatusStage(). */
 260:Generated_Source\PSoC5/USBFS_DEBUG_std.c ****                 USBFS_DEBUG_deviceAddress = (uint8) USBFS_DEBUG_wValueLoReg;
 384              		.loc 1 260 0
 385 0260 1A4B     		ldr	r3, .L67
ARM GAS  C:\Users\yoons\AppData\Local\Temp\ccLfZPJ9.s 			page 13


 386 0262 9B78     		ldrb	r3, [r3, #2]
 387 0264 DAB2     		uxtb	r2, r3
 388 0266 234B     		ldr	r3, .L67+40
 389 0268 1A70     		strb	r2, [r3]
 261:Generated_Source\PSoC5/USBFS_DEBUG_std.c ****                 requestHandled = USBFS_DEBUG_InitNoDataControlTransfer();
 390              		.loc 1 261 0
 391 026a FFF7FEFF 		bl	USBFS_DEBUG_InitNoDataControlTransfer
 392 026e 0346     		mov	r3, r0
 393 0270 FB75     		strb	r3, [r7, #23]
 262:Generated_Source\PSoC5/USBFS_DEBUG_std.c ****                 break;
 394              		.loc 1 262 0
 395 0272 FCE0     		b	.L24
 396              	.L30:
 263:Generated_Source\PSoC5/USBFS_DEBUG_std.c ****                 
 264:Generated_Source\PSoC5/USBFS_DEBUG_std.c ****             case USBFS_DEBUG_SET_CONFIGURATION:
 265:Generated_Source\PSoC5/USBFS_DEBUG_std.c ****                 configurationN = USBFS_DEBUG_wValueLoReg;
 397              		.loc 1 265 0
 398 0274 154B     		ldr	r3, .L67
 399 0276 9B78     		ldrb	r3, [r3, #2]
 400 0278 7B71     		strb	r3, [r7, #5]
 266:Generated_Source\PSoC5/USBFS_DEBUG_std.c ****                 
 267:Generated_Source\PSoC5/USBFS_DEBUG_std.c ****                 /* Verify that configuration descriptor exists */
 268:Generated_Source\PSoC5/USBFS_DEBUG_std.c ****                 if(configurationN > 0u)
 401              		.loc 1 268 0
 402 027a 7B79     		ldrb	r3, [r7, #5]	@ zero_extendqisi2
 403 027c 002B     		cmp	r3, #0
 404 027e 06D0     		beq	.L32
 269:Generated_Source\PSoC5/USBFS_DEBUG_std.c ****                 {
 270:Generated_Source\PSoC5/USBFS_DEBUG_std.c ****                     pTmp = USBFS_DEBUG_GetConfigTablePtr((uint8) configurationN - 1u);
 405              		.loc 1 270 0
 406 0280 7B79     		ldrb	r3, [r7, #5]
 407 0282 013B     		subs	r3, r3, #1
 408 0284 DBB2     		uxtb	r3, r3
 409 0286 1846     		mov	r0, r3
 410 0288 FFF7FEFF 		bl	USBFS_DEBUG_GetConfigTablePtr
 411 028c B860     		str	r0, [r7, #8]
 412              	.L32:
 271:Generated_Source\PSoC5/USBFS_DEBUG_std.c ****                 }
 272:Generated_Source\PSoC5/USBFS_DEBUG_std.c ****                 
 273:Generated_Source\PSoC5/USBFS_DEBUG_std.c ****                 /* Responds with a Request Error when configuration number is invalid */
 274:Generated_Source\PSoC5/USBFS_DEBUG_std.c ****                 if (((configurationN > 0u) && (pTmp != NULL)) || (configurationN == 0u))
 413              		.loc 1 274 0
 414 028e 7B79     		ldrb	r3, [r7, #5]	@ zero_extendqisi2
 415 0290 002B     		cmp	r3, #0
 416 0292 02D0     		beq	.L33
 417              		.loc 1 274 0 is_stmt 0 discriminator 1
 418 0294 BB68     		ldr	r3, [r7, #8]
 419 0296 002B     		cmp	r3, #0
 420 0298 03D1     		bne	.L34
 421              	.L33:
 422              		.loc 1 274 0 discriminator 3
 423 029a 7B79     		ldrb	r3, [r7, #5]	@ zero_extendqisi2
 424 029c 002B     		cmp	r3, #0
 425 029e 40F0E380 		bne	.L59
 426              	.L34:
 275:Generated_Source\PSoC5/USBFS_DEBUG_std.c ****                 {
 276:Generated_Source\PSoC5/USBFS_DEBUG_std.c ****                     /* Set new configuration if it has been changed */
ARM GAS  C:\Users\yoons\AppData\Local\Temp\ccLfZPJ9.s 			page 14


 277:Generated_Source\PSoC5/USBFS_DEBUG_std.c ****                     if(configurationN != USBFS_DEBUG_configuration)
 427              		.loc 1 277 0 is_stmt 1
 428 02a2 124B     		ldr	r3, .L67+32
 429 02a4 1B78     		ldrb	r3, [r3]
 430 02a6 DBB2     		uxtb	r3, r3
 431 02a8 7A79     		ldrb	r2, [r7, #5]	@ zero_extendqisi2
 432 02aa 9A42     		cmp	r2, r3
 433 02ac 08D0     		beq	.L36
 278:Generated_Source\PSoC5/USBFS_DEBUG_std.c ****                     {
 279:Generated_Source\PSoC5/USBFS_DEBUG_std.c ****                         USBFS_DEBUG_configuration = (uint8) configurationN;
 434              		.loc 1 279 0
 435 02ae 0F4A     		ldr	r2, .L67+32
 436 02b0 7B79     		ldrb	r3, [r7, #5]
 437 02b2 1370     		strb	r3, [r2]
 280:Generated_Source\PSoC5/USBFS_DEBUG_std.c ****                         USBFS_DEBUG_configurationChanged = USBFS_DEBUG_TRUE;
 438              		.loc 1 280 0
 439 02b4 104B     		ldr	r3, .L67+44
 440 02b6 0122     		movs	r2, #1
 441 02b8 1A70     		strb	r2, [r3]
 281:Generated_Source\PSoC5/USBFS_DEBUG_std.c ****                         USBFS_DEBUG_Config(USBFS_DEBUG_TRUE);
 442              		.loc 1 281 0
 443 02ba 0120     		movs	r0, #1
 444 02bc FFF7FEFF 		bl	USBFS_DEBUG_Config
 445              	.L36:
 282:Generated_Source\PSoC5/USBFS_DEBUG_std.c ****                     }
 283:Generated_Source\PSoC5/USBFS_DEBUG_std.c ****                     requestHandled = USBFS_DEBUG_InitNoDataControlTransfer();
 446              		.loc 1 283 0
 447 02c0 FFF7FEFF 		bl	USBFS_DEBUG_InitNoDataControlTransfer
 448 02c4 0346     		mov	r3, r0
 449 02c6 FB75     		strb	r3, [r7, #23]
 284:Generated_Source\PSoC5/USBFS_DEBUG_std.c ****                 }
 285:Generated_Source\PSoC5/USBFS_DEBUG_std.c ****                 break;
 450              		.loc 1 285 0
 451 02c8 CEE0     		b	.L59
 452              	.L68:
 453 02ca 00BF     		.align	2
 454              	.L67:
 455 02cc 00600040 		.word	1073766400
 456 02d0 00000000 		.word	USBFS_DEBUG_currentTD
 457 02d4 00000000 		.word	USBFS_DEBUG_STRING_DESCRIPTORS
 458 02d8 00000000 		.word	USBFS_DEBUG_DEVICE0_DESCR
 459 02dc 00000000 		.word	USBFS_DEBUG_idSerialNumberStringDescriptor
 460 02e0 00000000 		.word	USBFS_DEBUG_EP
 461 02e4 00000000 		.word	USBFS_DEBUG_tBuffer.5248
 462 02e8 00000000 		.word	USBFS_DEBUG_deviceStatus
 463 02ec 00000000 		.word	USBFS_DEBUG_configuration
 464 02f0 00000000 		.word	USBFS_DEBUG_interfaceSetting
 465 02f4 00000000 		.word	USBFS_DEBUG_deviceAddress
 466 02f8 00000000 		.word	USBFS_DEBUG_configurationChanged
 467              	.L31:
 286:Generated_Source\PSoC5/USBFS_DEBUG_std.c ****                 
 287:Generated_Source\PSoC5/USBFS_DEBUG_std.c ****             case USBFS_DEBUG_SET_INTERFACE:
 288:Generated_Source\PSoC5/USBFS_DEBUG_std.c ****                 if (0u != USBFS_DEBUG_ValidateAlternateSetting())
 468              		.loc 1 288 0
 469 02fc FFF7FEFF 		bl	USBFS_DEBUG_ValidateAlternateSetting
 470 0300 0346     		mov	r3, r0
 471 0302 002B     		cmp	r3, #0
ARM GAS  C:\Users\yoons\AppData\Local\Temp\ccLfZPJ9.s 			page 15


 472 0304 00F0B280 		beq	.L60
 289:Generated_Source\PSoC5/USBFS_DEBUG_std.c ****                 {
 290:Generated_Source\PSoC5/USBFS_DEBUG_std.c ****                     /* Get interface number from the request. */
 291:Generated_Source\PSoC5/USBFS_DEBUG_std.c ****                     interfaceNumber = USBFS_DEBUG_wIndexLoReg;
 473              		.loc 1 291 0
 474 0308 5B4B     		ldr	r3, .L69
 475 030a 1B79     		ldrb	r3, [r3, #4]
 476 030c 3B71     		strb	r3, [r7, #4]
 292:Generated_Source\PSoC5/USBFS_DEBUG_std.c ****                     USBFS_DEBUG_interfaceNumber = (uint8) USBFS_DEBUG_wIndexLoReg;
 477              		.loc 1 292 0
 478 030e 5A4B     		ldr	r3, .L69
 479 0310 1B79     		ldrb	r3, [r3, #4]
 480 0312 DAB2     		uxtb	r2, r3
 481 0314 594B     		ldr	r3, .L69+4
 482 0316 1A70     		strb	r2, [r3]
 293:Generated_Source\PSoC5/USBFS_DEBUG_std.c ****                      
 294:Generated_Source\PSoC5/USBFS_DEBUG_std.c ****                     /* Check if alternate settings is changed for interface. */
 295:Generated_Source\PSoC5/USBFS_DEBUG_std.c ****                     if (USBFS_DEBUG_interfaceSettingLast[interfaceNumber] != USBFS_DEBUG_interfaceS
 483              		.loc 1 295 0
 484 0318 3B79     		ldrb	r3, [r7, #4]	@ zero_extendqisi2
 485 031a 594A     		ldr	r2, .L69+8
 486 031c D35C     		ldrb	r3, [r2, r3]
 487 031e DAB2     		uxtb	r2, r3
 488 0320 3B79     		ldrb	r3, [r7, #4]	@ zero_extendqisi2
 489 0322 5849     		ldr	r1, .L69+12
 490 0324 CB5C     		ldrb	r3, [r1, r3]
 491 0326 DBB2     		uxtb	r3, r3
 492 0328 9A42     		cmp	r2, r3
 493 032a 04D0     		beq	.L38
 296:Generated_Source\PSoC5/USBFS_DEBUG_std.c ****                     {
 297:Generated_Source\PSoC5/USBFS_DEBUG_std.c ****                         USBFS_DEBUG_configurationChanged = USBFS_DEBUG_TRUE;
 494              		.loc 1 297 0
 495 032c 564B     		ldr	r3, .L69+16
 496 032e 0122     		movs	r2, #1
 497 0330 1A70     		strb	r2, [r3]
 298:Generated_Source\PSoC5/USBFS_DEBUG_std.c ****                     
 299:Generated_Source\PSoC5/USBFS_DEBUG_std.c ****                         /* Change alternate setting for the endpoints. */
 300:Generated_Source\PSoC5/USBFS_DEBUG_std.c ****                     #if (USBFS_DEBUG_EP_MANAGEMENT_MANUAL && USBFS_DEBUG_EP_ALLOC_DYNAMIC)
 301:Generated_Source\PSoC5/USBFS_DEBUG_std.c ****                         USBFS_DEBUG_Config(USBFS_DEBUG_FALSE);
 302:Generated_Source\PSoC5/USBFS_DEBUG_std.c ****                     #else
 303:Generated_Source\PSoC5/USBFS_DEBUG_std.c ****                         USBFS_DEBUG_ConfigAltChanged();
 498              		.loc 1 303 0
 499 0332 FFF7FEFF 		bl	USBFS_DEBUG_ConfigAltChanged
 500              	.L38:
 304:Generated_Source\PSoC5/USBFS_DEBUG_std.c ****                     #endif /* (USBFS_DEBUG_EP_MANAGEMENT_MANUAL && USBFS_DEBUG_EP_ALLOC_DYNAMIC) */
 305:Generated_Source\PSoC5/USBFS_DEBUG_std.c ****                     }
 306:Generated_Source\PSoC5/USBFS_DEBUG_std.c ****                     
 307:Generated_Source\PSoC5/USBFS_DEBUG_std.c ****                     requestHandled = USBFS_DEBUG_InitNoDataControlTransfer();
 501              		.loc 1 307 0
 502 0336 FFF7FEFF 		bl	USBFS_DEBUG_InitNoDataControlTransfer
 503 033a 0346     		mov	r3, r0
 504 033c FB75     		strb	r3, [r7, #23]
 308:Generated_Source\PSoC5/USBFS_DEBUG_std.c ****                 }
 309:Generated_Source\PSoC5/USBFS_DEBUG_std.c ****                 break;
 505              		.loc 1 309 0
 506 033e 95E0     		b	.L60
 507              	.L26:
ARM GAS  C:\Users\yoons\AppData\Local\Temp\ccLfZPJ9.s 			page 16


 310:Generated_Source\PSoC5/USBFS_DEBUG_std.c ****                 
 311:Generated_Source\PSoC5/USBFS_DEBUG_std.c ****             case USBFS_DEBUG_CLEAR_FEATURE:
 312:Generated_Source\PSoC5/USBFS_DEBUG_std.c ****                 switch (bmRequestType & USBFS_DEBUG_RQST_RCPT_MASK)
 508              		.loc 1 312 0
 509 0340 FB79     		ldrb	r3, [r7, #7]	@ zero_extendqisi2
 510 0342 03F00303 		and	r3, r3, #3
 511 0346 012B     		cmp	r3, #1
 512 0348 20D0     		beq	.L40
 513 034a 012B     		cmp	r3, #1
 514 034c 0CD3     		bcc	.L41
 515 034e 022B     		cmp	r3, #2
 516 0350 00D0     		beq	.L42
 313:Generated_Source\PSoC5/USBFS_DEBUG_std.c ****                 {
 314:Generated_Source\PSoC5/USBFS_DEBUG_std.c ****                     case USBFS_DEBUG_RQST_RCPT_EP:
 315:Generated_Source\PSoC5/USBFS_DEBUG_std.c ****                         if (USBFS_DEBUG_wValueLoReg == USBFS_DEBUG_ENDPOINT_HALT)
 316:Generated_Source\PSoC5/USBFS_DEBUG_std.c ****                         {
 317:Generated_Source\PSoC5/USBFS_DEBUG_std.c ****                             requestHandled = USBFS_DEBUG_ClearEndpointHalt();
 318:Generated_Source\PSoC5/USBFS_DEBUG_std.c ****                         }
 319:Generated_Source\PSoC5/USBFS_DEBUG_std.c ****                         break;
 320:Generated_Source\PSoC5/USBFS_DEBUG_std.c ****                     case USBFS_DEBUG_RQST_RCPT_DEV:
 321:Generated_Source\PSoC5/USBFS_DEBUG_std.c ****                         /* Clear device REMOTE_WAKEUP */
 322:Generated_Source\PSoC5/USBFS_DEBUG_std.c ****                         if (USBFS_DEBUG_wValueLoReg == USBFS_DEBUG_DEVICE_REMOTE_WAKEUP)
 323:Generated_Source\PSoC5/USBFS_DEBUG_std.c ****                         {
 324:Generated_Source\PSoC5/USBFS_DEBUG_std.c ****                             USBFS_DEBUG_deviceStatus &= (uint8)~USBFS_DEBUG_DEVICE_STATUS_REMOTE_WA
 325:Generated_Source\PSoC5/USBFS_DEBUG_std.c ****                             requestHandled = USBFS_DEBUG_InitNoDataControlTransfer();
 326:Generated_Source\PSoC5/USBFS_DEBUG_std.c ****                         }
 327:Generated_Source\PSoC5/USBFS_DEBUG_std.c ****                         break;
 328:Generated_Source\PSoC5/USBFS_DEBUG_std.c ****                     case USBFS_DEBUG_RQST_RCPT_IFC:
 329:Generated_Source\PSoC5/USBFS_DEBUG_std.c ****                         /* Validate interfaceNumber */
 330:Generated_Source\PSoC5/USBFS_DEBUG_std.c ****                         if (USBFS_DEBUG_wIndexLoReg < USBFS_DEBUG_MAX_INTERFACES_NUMBER)
 331:Generated_Source\PSoC5/USBFS_DEBUG_std.c ****                         {
 332:Generated_Source\PSoC5/USBFS_DEBUG_std.c ****                             USBFS_DEBUG_interfaceStatus[USBFS_DEBUG_wIndexLoReg] &= (uint8) ~USBFS_
 333:Generated_Source\PSoC5/USBFS_DEBUG_std.c ****                             requestHandled = USBFS_DEBUG_InitNoDataControlTransfer();
 334:Generated_Source\PSoC5/USBFS_DEBUG_std.c ****                         }
 335:Generated_Source\PSoC5/USBFS_DEBUG_std.c ****                         break;
 336:Generated_Source\PSoC5/USBFS_DEBUG_std.c ****                     default:    /* requestHandled is initialized as FALSE by default */
 337:Generated_Source\PSoC5/USBFS_DEBUG_std.c ****                         break;
 517              		.loc 1 337 0
 518 0352 3BE0     		b	.L44
 519              	.L42:
 315:Generated_Source\PSoC5/USBFS_DEBUG_std.c ****                         {
 520              		.loc 1 315 0
 521 0354 484B     		ldr	r3, .L69
 522 0356 9B78     		ldrb	r3, [r3, #2]
 523 0358 DBB2     		uxtb	r3, r3
 524 035a 002B     		cmp	r3, #0
 525 035c 31D1     		bne	.L61
 317:Generated_Source\PSoC5/USBFS_DEBUG_std.c ****                         }
 526              		.loc 1 317 0
 527 035e FFF7FEFF 		bl	USBFS_DEBUG_ClearEndpointHalt
 528 0362 0346     		mov	r3, r0
 529 0364 FB75     		strb	r3, [r7, #23]
 319:Generated_Source\PSoC5/USBFS_DEBUG_std.c ****                     case USBFS_DEBUG_RQST_RCPT_DEV:
 530              		.loc 1 319 0
 531 0366 2CE0     		b	.L61
 532              	.L41:
 322:Generated_Source\PSoC5/USBFS_DEBUG_std.c ****                         {
ARM GAS  C:\Users\yoons\AppData\Local\Temp\ccLfZPJ9.s 			page 17


 533              		.loc 1 322 0
 534 0368 434B     		ldr	r3, .L69
 535 036a 9B78     		ldrb	r3, [r3, #2]
 536 036c DBB2     		uxtb	r3, r3
 537 036e 012B     		cmp	r3, #1
 538 0370 29D1     		bne	.L62
 324:Generated_Source\PSoC5/USBFS_DEBUG_std.c ****                             requestHandled = USBFS_DEBUG_InitNoDataControlTransfer();
 539              		.loc 1 324 0
 540 0372 464B     		ldr	r3, .L69+20
 541 0374 1B78     		ldrb	r3, [r3]
 542 0376 DBB2     		uxtb	r3, r3
 543 0378 23F00203 		bic	r3, r3, #2
 544 037c DAB2     		uxtb	r2, r3
 545 037e 434B     		ldr	r3, .L69+20
 546 0380 1A70     		strb	r2, [r3]
 325:Generated_Source\PSoC5/USBFS_DEBUG_std.c ****                         }
 547              		.loc 1 325 0
 548 0382 FFF7FEFF 		bl	USBFS_DEBUG_InitNoDataControlTransfer
 549 0386 0346     		mov	r3, r0
 550 0388 FB75     		strb	r3, [r7, #23]
 327:Generated_Source\PSoC5/USBFS_DEBUG_std.c ****                     case USBFS_DEBUG_RQST_RCPT_IFC:
 551              		.loc 1 327 0
 552 038a 1CE0     		b	.L62
 553              	.L40:
 330:Generated_Source\PSoC5/USBFS_DEBUG_std.c ****                         {
 554              		.loc 1 330 0
 555 038c 3A4B     		ldr	r3, .L69
 556 038e 1B79     		ldrb	r3, [r3, #4]
 557 0390 DBB2     		uxtb	r3, r3
 558 0392 012B     		cmp	r3, #1
 559 0394 19D8     		bhi	.L63
 332:Generated_Source\PSoC5/USBFS_DEBUG_std.c ****                             requestHandled = USBFS_DEBUG_InitNoDataControlTransfer();
 560              		.loc 1 332 0
 561 0396 384B     		ldr	r3, .L69
 562 0398 9B78     		ldrb	r3, [r3, #2]
 563 039a DBB2     		uxtb	r3, r3
 564 039c DB43     		mvns	r3, r3
 565 039e DBB2     		uxtb	r3, r3
 566 03a0 354A     		ldr	r2, .L69
 567 03a2 1279     		ldrb	r2, [r2, #4]
 568 03a4 D2B2     		uxtb	r2, r2
 569 03a6 1146     		mov	r1, r2
 570 03a8 1046     		mov	r0, r2
 571 03aa 394A     		ldr	r2, .L69+24
 572 03ac 125C     		ldrb	r2, [r2, r0]
 573 03ae D2B2     		uxtb	r2, r2
 574 03b0 1340     		ands	r3, r3, r2
 575 03b2 DAB2     		uxtb	r2, r3
 576 03b4 364B     		ldr	r3, .L69+24
 577 03b6 5A54     		strb	r2, [r3, r1]
 333:Generated_Source\PSoC5/USBFS_DEBUG_std.c ****                         }
 578              		.loc 1 333 0
 579 03b8 FFF7FEFF 		bl	USBFS_DEBUG_InitNoDataControlTransfer
 580 03bc 0346     		mov	r3, r0
 581 03be FB75     		strb	r3, [r7, #23]
 335:Generated_Source\PSoC5/USBFS_DEBUG_std.c ****                     default:    /* requestHandled is initialized as FALSE by default */
 582              		.loc 1 335 0
ARM GAS  C:\Users\yoons\AppData\Local\Temp\ccLfZPJ9.s 			page 18


 583 03c0 03E0     		b	.L63
 584              	.L61:
 319:Generated_Source\PSoC5/USBFS_DEBUG_std.c ****                     case USBFS_DEBUG_RQST_RCPT_DEV:
 585              		.loc 1 319 0
 586 03c2 00BF     		nop
 587 03c4 53E0     		b	.L24
 588              	.L62:
 327:Generated_Source\PSoC5/USBFS_DEBUG_std.c ****                     case USBFS_DEBUG_RQST_RCPT_IFC:
 589              		.loc 1 327 0
 590 03c6 00BF     		nop
 591 03c8 51E0     		b	.L24
 592              	.L63:
 335:Generated_Source\PSoC5/USBFS_DEBUG_std.c ****                     default:    /* requestHandled is initialized as FALSE by default */
 593              		.loc 1 335 0
 594 03ca 00BF     		nop
 595              	.L44:
 338:Generated_Source\PSoC5/USBFS_DEBUG_std.c ****                 }
 339:Generated_Source\PSoC5/USBFS_DEBUG_std.c ****                 break;
 596              		.loc 1 339 0 discriminator 7
 597 03cc 4FE0     		b	.L24
 598              	.L28:
 340:Generated_Source\PSoC5/USBFS_DEBUG_std.c ****                 
 341:Generated_Source\PSoC5/USBFS_DEBUG_std.c ****             case USBFS_DEBUG_SET_FEATURE:
 342:Generated_Source\PSoC5/USBFS_DEBUG_std.c ****                 switch (bmRequestType & USBFS_DEBUG_RQST_RCPT_MASK)
 599              		.loc 1 342 0
 600 03ce FB79     		ldrb	r3, [r7, #7]	@ zero_extendqisi2
 601 03d0 03F00303 		and	r3, r3, #3
 602 03d4 012B     		cmp	r3, #1
 603 03d6 20D0     		beq	.L48
 604 03d8 012B     		cmp	r3, #1
 605 03da 0CD3     		bcc	.L49
 606 03dc 022B     		cmp	r3, #2
 607 03de 00D0     		beq	.L50
 343:Generated_Source\PSoC5/USBFS_DEBUG_std.c ****                 {
 344:Generated_Source\PSoC5/USBFS_DEBUG_std.c ****                     case USBFS_DEBUG_RQST_RCPT_EP:
 345:Generated_Source\PSoC5/USBFS_DEBUG_std.c ****                         if (USBFS_DEBUG_wValueLoReg == USBFS_DEBUG_ENDPOINT_HALT)
 346:Generated_Source\PSoC5/USBFS_DEBUG_std.c ****                         {
 347:Generated_Source\PSoC5/USBFS_DEBUG_std.c ****                             requestHandled = USBFS_DEBUG_SetEndpointHalt();
 348:Generated_Source\PSoC5/USBFS_DEBUG_std.c ****                         }
 349:Generated_Source\PSoC5/USBFS_DEBUG_std.c ****                         break;
 350:Generated_Source\PSoC5/USBFS_DEBUG_std.c ****                         
 351:Generated_Source\PSoC5/USBFS_DEBUG_std.c ****                     case USBFS_DEBUG_RQST_RCPT_DEV:
 352:Generated_Source\PSoC5/USBFS_DEBUG_std.c ****                         /* Set device REMOTE_WAKEUP */
 353:Generated_Source\PSoC5/USBFS_DEBUG_std.c ****                         if (USBFS_DEBUG_wValueLoReg == USBFS_DEBUG_DEVICE_REMOTE_WAKEUP)
 354:Generated_Source\PSoC5/USBFS_DEBUG_std.c ****                         {
 355:Generated_Source\PSoC5/USBFS_DEBUG_std.c ****                             USBFS_DEBUG_deviceStatus |= USBFS_DEBUG_DEVICE_STATUS_REMOTE_WAKEUP;
 356:Generated_Source\PSoC5/USBFS_DEBUG_std.c ****                             requestHandled = USBFS_DEBUG_InitNoDataControlTransfer();
 357:Generated_Source\PSoC5/USBFS_DEBUG_std.c ****                         }
 358:Generated_Source\PSoC5/USBFS_DEBUG_std.c ****                         break;
 359:Generated_Source\PSoC5/USBFS_DEBUG_std.c ****                         
 360:Generated_Source\PSoC5/USBFS_DEBUG_std.c ****                     case USBFS_DEBUG_RQST_RCPT_IFC:
 361:Generated_Source\PSoC5/USBFS_DEBUG_std.c ****                         /* Validate interfaceNumber */
 362:Generated_Source\PSoC5/USBFS_DEBUG_std.c ****                         if (USBFS_DEBUG_wIndexLoReg < USBFS_DEBUG_MAX_INTERFACES_NUMBER)
 363:Generated_Source\PSoC5/USBFS_DEBUG_std.c ****                         {
 364:Generated_Source\PSoC5/USBFS_DEBUG_std.c ****                             USBFS_DEBUG_interfaceStatus[USBFS_DEBUG_wIndexLoReg] &= (uint8) ~USBFS_
 365:Generated_Source\PSoC5/USBFS_DEBUG_std.c ****                             requestHandled = USBFS_DEBUG_InitNoDataControlTransfer();
 366:Generated_Source\PSoC5/USBFS_DEBUG_std.c ****                         }
ARM GAS  C:\Users\yoons\AppData\Local\Temp\ccLfZPJ9.s 			page 19


 367:Generated_Source\PSoC5/USBFS_DEBUG_std.c ****                         break;
 368:Generated_Source\PSoC5/USBFS_DEBUG_std.c ****                     
 369:Generated_Source\PSoC5/USBFS_DEBUG_std.c ****                     default:    /* requestHandled is initialized as FALSE by default */
 370:Generated_Source\PSoC5/USBFS_DEBUG_std.c ****                         break;
 608              		.loc 1 370 0
 609 03e0 3BE0     		b	.L52
 610              	.L50:
 345:Generated_Source\PSoC5/USBFS_DEBUG_std.c ****                         {
 611              		.loc 1 345 0
 612 03e2 254B     		ldr	r3, .L69
 613 03e4 9B78     		ldrb	r3, [r3, #2]
 614 03e6 DBB2     		uxtb	r3, r3
 615 03e8 002B     		cmp	r3, #0
 616 03ea 31D1     		bne	.L64
 347:Generated_Source\PSoC5/USBFS_DEBUG_std.c ****                         }
 617              		.loc 1 347 0
 618 03ec FFF7FEFF 		bl	USBFS_DEBUG_SetEndpointHalt
 619 03f0 0346     		mov	r3, r0
 620 03f2 FB75     		strb	r3, [r7, #23]
 349:Generated_Source\PSoC5/USBFS_DEBUG_std.c ****                         
 621              		.loc 1 349 0
 622 03f4 2CE0     		b	.L64
 623              	.L49:
 353:Generated_Source\PSoC5/USBFS_DEBUG_std.c ****                         {
 624              		.loc 1 353 0
 625 03f6 204B     		ldr	r3, .L69
 626 03f8 9B78     		ldrb	r3, [r3, #2]
 627 03fa DBB2     		uxtb	r3, r3
 628 03fc 012B     		cmp	r3, #1
 629 03fe 29D1     		bne	.L65
 355:Generated_Source\PSoC5/USBFS_DEBUG_std.c ****                             requestHandled = USBFS_DEBUG_InitNoDataControlTransfer();
 630              		.loc 1 355 0
 631 0400 224B     		ldr	r3, .L69+20
 632 0402 1B78     		ldrb	r3, [r3]
 633 0404 DBB2     		uxtb	r3, r3
 634 0406 43F00203 		orr	r3, r3, #2
 635 040a DAB2     		uxtb	r2, r3
 636 040c 1F4B     		ldr	r3, .L69+20
 637 040e 1A70     		strb	r2, [r3]
 356:Generated_Source\PSoC5/USBFS_DEBUG_std.c ****                         }
 638              		.loc 1 356 0
 639 0410 FFF7FEFF 		bl	USBFS_DEBUG_InitNoDataControlTransfer
 640 0414 0346     		mov	r3, r0
 641 0416 FB75     		strb	r3, [r7, #23]
 358:Generated_Source\PSoC5/USBFS_DEBUG_std.c ****                         
 642              		.loc 1 358 0
 643 0418 1CE0     		b	.L65
 644              	.L48:
 362:Generated_Source\PSoC5/USBFS_DEBUG_std.c ****                         {
 645              		.loc 1 362 0
 646 041a 174B     		ldr	r3, .L69
 647 041c 1B79     		ldrb	r3, [r3, #4]
 648 041e DBB2     		uxtb	r3, r3
 649 0420 012B     		cmp	r3, #1
 650 0422 19D8     		bhi	.L66
 364:Generated_Source\PSoC5/USBFS_DEBUG_std.c ****                             requestHandled = USBFS_DEBUG_InitNoDataControlTransfer();
 651              		.loc 1 364 0
ARM GAS  C:\Users\yoons\AppData\Local\Temp\ccLfZPJ9.s 			page 20


 652 0424 144B     		ldr	r3, .L69
 653 0426 9B78     		ldrb	r3, [r3, #2]
 654 0428 DBB2     		uxtb	r3, r3
 655 042a DB43     		mvns	r3, r3
 656 042c DBB2     		uxtb	r3, r3
 657 042e 124A     		ldr	r2, .L69
 658 0430 1279     		ldrb	r2, [r2, #4]
 659 0432 D2B2     		uxtb	r2, r2
 660 0434 1146     		mov	r1, r2
 661 0436 1046     		mov	r0, r2
 662 0438 154A     		ldr	r2, .L69+24
 663 043a 125C     		ldrb	r2, [r2, r0]
 664 043c D2B2     		uxtb	r2, r2
 665 043e 1340     		ands	r3, r3, r2
 666 0440 DAB2     		uxtb	r2, r3
 667 0442 134B     		ldr	r3, .L69+24
 668 0444 5A54     		strb	r2, [r3, r1]
 365:Generated_Source\PSoC5/USBFS_DEBUG_std.c ****                         }
 669              		.loc 1 365 0
 670 0446 FFF7FEFF 		bl	USBFS_DEBUG_InitNoDataControlTransfer
 671 044a 0346     		mov	r3, r0
 672 044c FB75     		strb	r3, [r7, #23]
 367:Generated_Source\PSoC5/USBFS_DEBUG_std.c ****                     
 673              		.loc 1 367 0
 674 044e 03E0     		b	.L66
 675              	.L64:
 349:Generated_Source\PSoC5/USBFS_DEBUG_std.c ****                         
 676              		.loc 1 349 0
 677 0450 00BF     		nop
 678 0452 0CE0     		b	.L24
 679              	.L65:
 358:Generated_Source\PSoC5/USBFS_DEBUG_std.c ****                         
 680              		.loc 1 358 0
 681 0454 00BF     		nop
 682 0456 0AE0     		b	.L24
 683              	.L66:
 367:Generated_Source\PSoC5/USBFS_DEBUG_std.c ****                     
 684              		.loc 1 367 0
 685 0458 00BF     		nop
 686              	.L52:
 371:Generated_Source\PSoC5/USBFS_DEBUG_std.c ****                 }
 372:Generated_Source\PSoC5/USBFS_DEBUG_std.c ****                 break;
 687              		.loc 1 372 0 discriminator 11
 688 045a 08E0     		b	.L24
 689              	.L56:
 250:Generated_Source\PSoC5/USBFS_DEBUG_std.c ****         }
 690              		.loc 1 250 0
 691 045c 00BF     		nop
 692 045e 06E0     		b	.L24
 693              	.L57:
 211:Generated_Source\PSoC5/USBFS_DEBUG_std.c ****                 
 694              		.loc 1 211 0
 695 0460 00BF     		nop
 696 0462 04E0     		b	.L24
 697              	.L58:
 373:Generated_Source\PSoC5/USBFS_DEBUG_std.c ****                 
 374:Generated_Source\PSoC5/USBFS_DEBUG_std.c ****             default:    /* requestHandled is initialized as FALSE by default */
ARM GAS  C:\Users\yoons\AppData\Local\Temp\ccLfZPJ9.s 			page 21


 375:Generated_Source\PSoC5/USBFS_DEBUG_std.c ****                 break;
 698              		.loc 1 375 0
 699 0464 00BF     		nop
 700 0466 02E0     		b	.L24
 701              	.L59:
 285:Generated_Source\PSoC5/USBFS_DEBUG_std.c ****                 
 702              		.loc 1 285 0
 703 0468 00BF     		nop
 704 046a 00E0     		b	.L24
 705              	.L60:
 309:Generated_Source\PSoC5/USBFS_DEBUG_std.c ****                 
 706              		.loc 1 309 0
 707 046c 00BF     		nop
 708              	.L24:
 376:Generated_Source\PSoC5/USBFS_DEBUG_std.c ****         }
 377:Generated_Source\PSoC5/USBFS_DEBUG_std.c ****     }
 378:Generated_Source\PSoC5/USBFS_DEBUG_std.c ****     
 379:Generated_Source\PSoC5/USBFS_DEBUG_std.c ****     return (requestHandled);
 709              		.loc 1 379 0
 710 046e FB7D     		ldrb	r3, [r7, #23]	@ zero_extendqisi2
 380:Generated_Source\PSoC5/USBFS_DEBUG_std.c **** }
 711              		.loc 1 380 0
 712 0470 1846     		mov	r0, r3
 713 0472 1837     		adds	r7, r7, #24
 714              		.cfi_def_cfa_offset 8
 715 0474 BD46     		mov	sp, r7
 716              		.cfi_def_cfa_register 13
 717              		@ sp needed
 718 0476 80BD     		pop	{r7, pc}
 719              	.L70:
 720              		.align	2
 721              	.L69:
 722 0478 00600040 		.word	1073766400
 723 047c 00000000 		.word	USBFS_DEBUG_interfaceNumber
 724 0480 00000000 		.word	USBFS_DEBUG_interfaceSettingLast
 725 0484 00000000 		.word	USBFS_DEBUG_interfaceSetting
 726 0488 00000000 		.word	USBFS_DEBUG_configurationChanged
 727 048c 00000000 		.word	USBFS_DEBUG_deviceStatus
 728 0490 00000000 		.word	USBFS_DEBUG_interfaceStatus
 729              		.cfi_endproc
 730              	.LFE0:
 731              		.size	USBFS_DEBUG_HandleStandardRqst, .-USBFS_DEBUG_HandleStandardRqst
 732              		.section	.rodata
 733              		.align	2
 734              	.LC0:
 735 0000 30313233 		.ascii	"0123456789ABCDEF\000"
 735      34353637 
 735      38394142 
 735      43444546 
 735      00
 736              		.section	.text.USBFS_DEBUG_ReadDieID,"ax",%progbits
 737              		.align	2
 738              		.global	USBFS_DEBUG_ReadDieID
 739              		.thumb
 740              		.thumb_func
 741              		.type	USBFS_DEBUG_ReadDieID, %function
 742              	USBFS_DEBUG_ReadDieID:
ARM GAS  C:\Users\yoons\AppData\Local\Temp\ccLfZPJ9.s 			page 22


 743              	.LFB1:
 381:Generated_Source\PSoC5/USBFS_DEBUG_std.c **** 
 382:Generated_Source\PSoC5/USBFS_DEBUG_std.c **** 
 383:Generated_Source\PSoC5/USBFS_DEBUG_std.c **** #if defined(USBFS_DEBUG_ENABLE_IDSN_STRING)
 384:Generated_Source\PSoC5/USBFS_DEBUG_std.c ****     /***************************************************************************
 385:Generated_Source\PSoC5/USBFS_DEBUG_std.c ****     * Function Name: USBFS_DEBUG_ReadDieID
 386:Generated_Source\PSoC5/USBFS_DEBUG_std.c ****     ************************************************************************//**
 387:Generated_Source\PSoC5/USBFS_DEBUG_std.c ****     *
 388:Generated_Source\PSoC5/USBFS_DEBUG_std.c ****     *  This routine read Die ID and generate Serial Number string descriptor.
 389:Generated_Source\PSoC5/USBFS_DEBUG_std.c ****     *
 390:Generated_Source\PSoC5/USBFS_DEBUG_std.c ****     *  \param descr:  pointer on string descriptor. This string size has to be equal or
 391:Generated_Source\PSoC5/USBFS_DEBUG_std.c ****     *          greater than USBFS_DEBUG_IDSN_DESCR_LENGTH.
 392:Generated_Source\PSoC5/USBFS_DEBUG_std.c ****     *
 393:Generated_Source\PSoC5/USBFS_DEBUG_std.c ****     *
 394:Generated_Source\PSoC5/USBFS_DEBUG_std.c ****     * \reentrant
 395:Generated_Source\PSoC5/USBFS_DEBUG_std.c ****     *  No.
 396:Generated_Source\PSoC5/USBFS_DEBUG_std.c ****     *
 397:Generated_Source\PSoC5/USBFS_DEBUG_std.c ****     ***************************************************************************/
 398:Generated_Source\PSoC5/USBFS_DEBUG_std.c ****     void USBFS_DEBUG_ReadDieID(uint8 descr[]) 
 399:Generated_Source\PSoC5/USBFS_DEBUG_std.c ****     {
 744              		.loc 1 399 0
 745              		.cfi_startproc
 746              		@ args = 0, pretend = 0, frame = 40
 747              		@ frame_needed = 1, uses_anonymous_args = 0
 748 0000 B0B5     		push	{r4, r5, r7, lr}
 749              		.cfi_def_cfa_offset 16
 750              		.cfi_offset 4, -16
 751              		.cfi_offset 5, -12
 752              		.cfi_offset 7, -8
 753              		.cfi_offset 14, -4
 754 0002 8AB0     		sub	sp, sp, #40
 755              		.cfi_def_cfa_offset 56
 756 0004 00AF     		add	r7, sp, #0
 757              		.cfi_def_cfa_register 7
 758 0006 7860     		str	r0, [r7, #4]
 400:Generated_Source\PSoC5/USBFS_DEBUG_std.c ****         const char8 CYCODE hex[] = "0123456789ABCDEF";
 759              		.loc 1 400 0
 760 0008 324B     		ldr	r3, .L76
 761 000a 07F11404 		add	r4, r7, #20
 762 000e 1D46     		mov	r5, r3
 763 0010 0FCD     		ldmia	r5!, {r0, r1, r2, r3}
 764 0012 0FC4     		stmia	r4!, {r0, r1, r2, r3}
 765 0014 2B68     		ldr	r3, [r5]
 766 0016 2370     		strb	r3, [r4]
 401:Generated_Source\PSoC5/USBFS_DEBUG_std.c ****         uint8 i;
 402:Generated_Source\PSoC5/USBFS_DEBUG_std.c ****         uint8 j = 0u;
 767              		.loc 1 402 0
 768 0018 0023     		movs	r3, #0
 769 001a 87F82630 		strb	r3, [r7, #38]
 403:Generated_Source\PSoC5/USBFS_DEBUG_std.c ****         uint8 uniqueId[8u];
 404:Generated_Source\PSoC5/USBFS_DEBUG_std.c **** 
 405:Generated_Source\PSoC5/USBFS_DEBUG_std.c ****         if (NULL != descr)
 770              		.loc 1 405 0
 771 001e 7B68     		ldr	r3, [r7, #4]
 772 0020 002B     		cmp	r3, #0
 773 0022 52D0     		beq	.L75
 406:Generated_Source\PSoC5/USBFS_DEBUG_std.c ****         {
ARM GAS  C:\Users\yoons\AppData\Local\Temp\ccLfZPJ9.s 			page 23


 407:Generated_Source\PSoC5/USBFS_DEBUG_std.c ****             /* Initialize descriptor header. */
 408:Generated_Source\PSoC5/USBFS_DEBUG_std.c ****             descr[0u] = USBFS_DEBUG_IDSN_DESCR_LENGTH;
 774              		.loc 1 408 0
 775 0024 7B68     		ldr	r3, [r7, #4]
 776 0026 2222     		movs	r2, #34
 777 0028 1A70     		strb	r2, [r3]
 409:Generated_Source\PSoC5/USBFS_DEBUG_std.c ****             descr[1u] = USBFS_DEBUG_DESCR_STRING;
 778              		.loc 1 409 0
 779 002a 7B68     		ldr	r3, [r7, #4]
 780 002c 0133     		adds	r3, r3, #1
 781 002e 0322     		movs	r2, #3
 782 0030 1A70     		strb	r2, [r3]
 410:Generated_Source\PSoC5/USBFS_DEBUG_std.c ****             
 411:Generated_Source\PSoC5/USBFS_DEBUG_std.c ****             /* Unique ID size is 8 bytes. */
 412:Generated_Source\PSoC5/USBFS_DEBUG_std.c ****             CyGetUniqueId((uint32 *) uniqueId);
 783              		.loc 1 412 0
 784 0032 07F10C03 		add	r3, r7, #12
 785 0036 1846     		mov	r0, r3
 786 0038 FFF7FEFF 		bl	CyGetUniqueId
 413:Generated_Source\PSoC5/USBFS_DEBUG_std.c **** 
 414:Generated_Source\PSoC5/USBFS_DEBUG_std.c ****             /* Fill descriptor with unique device ID. */
 415:Generated_Source\PSoC5/USBFS_DEBUG_std.c ****             for (i = 2u; i < USBFS_DEBUG_IDSN_DESCR_LENGTH; i += 4u)
 787              		.loc 1 415 0
 788 003c 0223     		movs	r3, #2
 789 003e 87F82730 		strb	r3, [r7, #39]
 790 0042 3EE0     		b	.L73
 791              	.L74:
 416:Generated_Source\PSoC5/USBFS_DEBUG_std.c ****             {
 417:Generated_Source\PSoC5/USBFS_DEBUG_std.c ****                 descr[i]      = (uint8) hex[(uniqueId[j] >> 4u)];
 792              		.loc 1 417 0 discriminator 3
 793 0044 97F82730 		ldrb	r3, [r7, #39]	@ zero_extendqisi2
 794 0048 7A68     		ldr	r2, [r7, #4]
 795 004a 1344     		add	r3, r3, r2
 796 004c 97F82620 		ldrb	r2, [r7, #38]	@ zero_extendqisi2
 797 0050 07F12801 		add	r1, r7, #40
 798 0054 0A44     		add	r2, r2, r1
 799 0056 12F81C2C 		ldrb	r2, [r2, #-28]	@ zero_extendqisi2
 800 005a 1209     		lsrs	r2, r2, #4
 801 005c D2B2     		uxtb	r2, r2
 802 005e 07F12801 		add	r1, r7, #40
 803 0062 0A44     		add	r2, r2, r1
 804 0064 12F8142C 		ldrb	r2, [r2, #-20]	@ zero_extendqisi2
 805 0068 1A70     		strb	r2, [r3]
 418:Generated_Source\PSoC5/USBFS_DEBUG_std.c ****                 descr[i + 1u] = 0u;
 806              		.loc 1 418 0 discriminator 3
 807 006a 97F82730 		ldrb	r3, [r7, #39]	@ zero_extendqisi2
 808 006e 0133     		adds	r3, r3, #1
 809 0070 7A68     		ldr	r2, [r7, #4]
 810 0072 1344     		add	r3, r3, r2
 811 0074 0022     		movs	r2, #0
 812 0076 1A70     		strb	r2, [r3]
 419:Generated_Source\PSoC5/USBFS_DEBUG_std.c ****                 descr[i + 2u] = (uint8) hex[(uniqueId[j] & 0x0Fu)];
 813              		.loc 1 419 0 discriminator 3
 814 0078 97F82730 		ldrb	r3, [r7, #39]	@ zero_extendqisi2
 815 007c 0233     		adds	r3, r3, #2
 816 007e 7A68     		ldr	r2, [r7, #4]
 817 0080 1344     		add	r3, r3, r2
ARM GAS  C:\Users\yoons\AppData\Local\Temp\ccLfZPJ9.s 			page 24


 818 0082 97F82620 		ldrb	r2, [r7, #38]	@ zero_extendqisi2
 819 0086 07F12801 		add	r1, r7, #40
 820 008a 0A44     		add	r2, r2, r1
 821 008c 12F81C2C 		ldrb	r2, [r2, #-28]	@ zero_extendqisi2
 822 0090 02F00F02 		and	r2, r2, #15
 823 0094 07F12801 		add	r1, r7, #40
 824 0098 0A44     		add	r2, r2, r1
 825 009a 12F8142C 		ldrb	r2, [r2, #-20]	@ zero_extendqisi2
 826 009e 1A70     		strb	r2, [r3]
 420:Generated_Source\PSoC5/USBFS_DEBUG_std.c ****                 descr[i + 3u] = 0u;
 827              		.loc 1 420 0 discriminator 3
 828 00a0 97F82730 		ldrb	r3, [r7, #39]	@ zero_extendqisi2
 829 00a4 0333     		adds	r3, r3, #3
 830 00a6 7A68     		ldr	r2, [r7, #4]
 831 00a8 1344     		add	r3, r3, r2
 832 00aa 0022     		movs	r2, #0
 833 00ac 1A70     		strb	r2, [r3]
 421:Generated_Source\PSoC5/USBFS_DEBUG_std.c ****                 ++j;
 834              		.loc 1 421 0 discriminator 3
 835 00ae 97F82630 		ldrb	r3, [r7, #38]
 836 00b2 0133     		adds	r3, r3, #1
 837 00b4 87F82630 		strb	r3, [r7, #38]
 415:Generated_Source\PSoC5/USBFS_DEBUG_std.c ****             {
 838              		.loc 1 415 0 discriminator 3
 839 00b8 97F82730 		ldrb	r3, [r7, #39]
 840 00bc 0433     		adds	r3, r3, #4
 841 00be 87F82730 		strb	r3, [r7, #39]
 842              	.L73:
 415:Generated_Source\PSoC5/USBFS_DEBUG_std.c ****             {
 843              		.loc 1 415 0 is_stmt 0 discriminator 1
 844 00c2 97F82730 		ldrb	r3, [r7, #39]	@ zero_extendqisi2
 845 00c6 212B     		cmp	r3, #33
 846 00c8 BCD9     		bls	.L74
 847              	.L75:
 422:Generated_Source\PSoC5/USBFS_DEBUG_std.c ****             }
 423:Generated_Source\PSoC5/USBFS_DEBUG_std.c ****         }
 424:Generated_Source\PSoC5/USBFS_DEBUG_std.c ****     }
 848              		.loc 1 424 0 is_stmt 1
 849 00ca 00BF     		nop
 850 00cc 2837     		adds	r7, r7, #40
 851              		.cfi_def_cfa_offset 16
 852 00ce BD46     		mov	sp, r7
 853              		.cfi_def_cfa_register 13
 854              		@ sp needed
 855 00d0 B0BD     		pop	{r4, r5, r7, pc}
 856              	.L77:
 857 00d2 00BF     		.align	2
 858              	.L76:
 859 00d4 00000000 		.word	.LC0
 860              		.cfi_endproc
 861              	.LFE1:
 862              		.size	USBFS_DEBUG_ReadDieID, .-USBFS_DEBUG_ReadDieID
 863              		.section	.text.USBFS_DEBUG_ConfigReg,"ax",%progbits
 864              		.align	2
 865              		.global	USBFS_DEBUG_ConfigReg
 866              		.thumb
 867              		.thumb_func
ARM GAS  C:\Users\yoons\AppData\Local\Temp\ccLfZPJ9.s 			page 25


 868              		.type	USBFS_DEBUG_ConfigReg, %function
 869              	USBFS_DEBUG_ConfigReg:
 870              	.LFB2:
 425:Generated_Source\PSoC5/USBFS_DEBUG_std.c **** #endif /* (USBFS_DEBUG_ENABLE_IDSN_STRING) */
 426:Generated_Source\PSoC5/USBFS_DEBUG_std.c **** 
 427:Generated_Source\PSoC5/USBFS_DEBUG_std.c **** 
 428:Generated_Source\PSoC5/USBFS_DEBUG_std.c **** /*******************************************************************************
 429:Generated_Source\PSoC5/USBFS_DEBUG_std.c **** * Function Name: USBFS_DEBUG_ConfigReg
 430:Generated_Source\PSoC5/USBFS_DEBUG_std.c **** ****************************************************************************//**
 431:Generated_Source\PSoC5/USBFS_DEBUG_std.c **** *
 432:Generated_Source\PSoC5/USBFS_DEBUG_std.c **** *  This routine configures hardware registers from the variables.
 433:Generated_Source\PSoC5/USBFS_DEBUG_std.c **** *  It is called from USBFS_DEBUG_Config() function and from RestoreConfig
 434:Generated_Source\PSoC5/USBFS_DEBUG_std.c **** *  after Wakeup.
 435:Generated_Source\PSoC5/USBFS_DEBUG_std.c **** *
 436:Generated_Source\PSoC5/USBFS_DEBUG_std.c **** *******************************************************************************/
 437:Generated_Source\PSoC5/USBFS_DEBUG_std.c **** void USBFS_DEBUG_ConfigReg(void) 
 438:Generated_Source\PSoC5/USBFS_DEBUG_std.c **** {
 871              		.loc 1 438 0
 872              		.cfi_startproc
 873              		@ args = 0, pretend = 0, frame = 8
 874              		@ frame_needed = 1, uses_anonymous_args = 0
 875              		@ link register save eliminated.
 876 0000 90B4     		push	{r4, r7}
 877              		.cfi_def_cfa_offset 8
 878              		.cfi_offset 4, -8
 879              		.cfi_offset 7, -4
 880 0002 82B0     		sub	sp, sp, #8
 881              		.cfi_def_cfa_offset 16
 882 0004 00AF     		add	r7, sp, #0
 883              		.cfi_def_cfa_register 7
 439:Generated_Source\PSoC5/USBFS_DEBUG_std.c ****     uint8 ep;
 440:Generated_Source\PSoC5/USBFS_DEBUG_std.c **** 
 441:Generated_Source\PSoC5/USBFS_DEBUG_std.c **** #if (USBFS_DEBUG_EP_MANAGEMENT_DMA_AUTO)
 442:Generated_Source\PSoC5/USBFS_DEBUG_std.c ****     uint8 epType = 0u;
 443:Generated_Source\PSoC5/USBFS_DEBUG_std.c **** #endif /* (USBFS_DEBUG_EP_MANAGEMENT_DMA_AUTO) */
 444:Generated_Source\PSoC5/USBFS_DEBUG_std.c **** 
 445:Generated_Source\PSoC5/USBFS_DEBUG_std.c ****     /* Go thought all endpoints and set hardware configuration */
 446:Generated_Source\PSoC5/USBFS_DEBUG_std.c ****     for (ep = USBFS_DEBUG_EP1; ep < USBFS_DEBUG_MAX_EP; ++ep)
 884              		.loc 1 446 0
 885 0006 0123     		movs	r3, #1
 886 0008 FB71     		strb	r3, [r7, #7]
 887 000a 80E0     		b	.L79
 888              	.L84:
 447:Generated_Source\PSoC5/USBFS_DEBUG_std.c ****     {
 448:Generated_Source\PSoC5/USBFS_DEBUG_std.c ****         USBFS_DEBUG_ARB_EP_BASE.arbEp[ep].epCfg = USBFS_DEBUG_ARB_EPX_CFG_DEFAULT;
 889              		.loc 1 448 0
 890 000c 464A     		ldr	r2, .L85
 891 000e FB79     		ldrb	r3, [r7, #7]	@ zero_extendqisi2
 892 0010 1B01     		lsls	r3, r3, #4
 893 0012 1344     		add	r3, r3, r2
 894 0014 0C22     		movs	r2, #12
 895 0016 1A70     		strb	r2, [r3]
 449:Generated_Source\PSoC5/USBFS_DEBUG_std.c ****         
 450:Generated_Source\PSoC5/USBFS_DEBUG_std.c ****     #if (USBFS_DEBUG_EP_MANAGEMENT_DMA)
 451:Generated_Source\PSoC5/USBFS_DEBUG_std.c ****         /* Enable arbiter endpoint interrupt sources */
 452:Generated_Source\PSoC5/USBFS_DEBUG_std.c ****         USBFS_DEBUG_ARB_EP_BASE.arbEp[ep].epIntEn = USBFS_DEBUG_ARB_EPX_INT_MASK;
 453:Generated_Source\PSoC5/USBFS_DEBUG_std.c ****     #endif /* (USBFS_DEBUG_EP_MANAGEMENT_DMA) */
ARM GAS  C:\Users\yoons\AppData\Local\Temp\ccLfZPJ9.s 			page 26


 454:Generated_Source\PSoC5/USBFS_DEBUG_std.c ****     
 455:Generated_Source\PSoC5/USBFS_DEBUG_std.c ****         if (USBFS_DEBUG_EP[ep].epMode != USBFS_DEBUG_MODE_DISABLE)
 896              		.loc 1 455 0
 897 0018 FA79     		ldrb	r2, [r7, #7]	@ zero_extendqisi2
 898 001a 4449     		ldr	r1, .L85+4
 899 001c 1346     		mov	r3, r2
 900 001e 5B00     		lsls	r3, r3, #1
 901 0020 1344     		add	r3, r3, r2
 902 0022 9B00     		lsls	r3, r3, #2
 903 0024 0B44     		add	r3, r3, r1
 904 0026 0533     		adds	r3, r3, #5
 905 0028 1B78     		ldrb	r3, [r3]
 906 002a DBB2     		uxtb	r3, r3
 907 002c 002B     		cmp	r3, #0
 908 002e 1CD0     		beq	.L80
 456:Generated_Source\PSoC5/USBFS_DEBUG_std.c ****         {
 457:Generated_Source\PSoC5/USBFS_DEBUG_std.c ****             if (0u != (USBFS_DEBUG_EP[ep].addr & USBFS_DEBUG_DIR_IN))
 909              		.loc 1 457 0
 910 0030 FA79     		ldrb	r2, [r7, #7]	@ zero_extendqisi2
 911 0032 3E49     		ldr	r1, .L85+4
 912 0034 1346     		mov	r3, r2
 913 0036 5B00     		lsls	r3, r3, #1
 914 0038 1344     		add	r3, r3, r2
 915 003a 9B00     		lsls	r3, r3, #2
 916 003c 0B44     		add	r3, r3, r1
 917 003e 0433     		adds	r3, r3, #4
 918 0040 1B78     		ldrb	r3, [r3]
 919 0042 DBB2     		uxtb	r3, r3
 920 0044 5BB2     		sxtb	r3, r3
 921 0046 002B     		cmp	r3, #0
 922 0048 07DA     		bge	.L81
 458:Generated_Source\PSoC5/USBFS_DEBUG_std.c ****             {
 459:Generated_Source\PSoC5/USBFS_DEBUG_std.c ****                 USBFS_DEBUG_SIE_EP_BASE.sieEp[ep].epCr0 = USBFS_DEBUG_MODE_NAK_IN;
 923              		.loc 1 459 0
 924 004a 394A     		ldr	r2, .L85+8
 925 004c FB79     		ldrb	r3, [r7, #7]	@ zero_extendqisi2
 926 004e 1B01     		lsls	r3, r3, #4
 927 0050 1344     		add	r3, r3, r2
 928 0052 0233     		adds	r3, r3, #2
 929 0054 0C22     		movs	r2, #12
 930 0056 1A70     		strb	r2, [r3]
 931 0058 0EE0     		b	.L83
 932              	.L81:
 460:Generated_Source\PSoC5/USBFS_DEBUG_std.c ****                 
 461:Generated_Source\PSoC5/USBFS_DEBUG_std.c ****             #if (USBFS_DEBUG_EP_MANAGEMENT_DMA_AUTO && CY_PSOC4)
 462:Generated_Source\PSoC5/USBFS_DEBUG_std.c ****                 /* Clear DMA_TERMIN for IN endpoint. */
 463:Generated_Source\PSoC5/USBFS_DEBUG_std.c ****                 USBFS_DEBUG_ARB_EP_BASE.arbEp[ep].epIntEn &= (uint32) ~USBFS_DEBUG_ARB_EPX_INT_DMA_
 464:Generated_Source\PSoC5/USBFS_DEBUG_std.c ****             #endif /* (USBFS_DEBUG_EP_MANAGEMENT_DMA_AUTO && CY_PSOC4) */
 465:Generated_Source\PSoC5/USBFS_DEBUG_std.c ****             }
 466:Generated_Source\PSoC5/USBFS_DEBUG_std.c ****             else
 467:Generated_Source\PSoC5/USBFS_DEBUG_std.c ****             {
 468:Generated_Source\PSoC5/USBFS_DEBUG_std.c ****                 USBFS_DEBUG_SIE_EP_BASE.sieEp[ep].epCr0 = USBFS_DEBUG_MODE_NAK_OUT;
 933              		.loc 1 468 0
 934 005a 354A     		ldr	r2, .L85+8
 935 005c FB79     		ldrb	r3, [r7, #7]	@ zero_extendqisi2
 936 005e 1B01     		lsls	r3, r3, #4
 937 0060 1344     		add	r3, r3, r2
ARM GAS  C:\Users\yoons\AppData\Local\Temp\ccLfZPJ9.s 			page 27


 938 0062 0233     		adds	r3, r3, #2
 939 0064 0822     		movs	r2, #8
 940 0066 1A70     		strb	r2, [r3]
 941 0068 06E0     		b	.L83
 942              	.L80:
 469:Generated_Source\PSoC5/USBFS_DEBUG_std.c **** 
 470:Generated_Source\PSoC5/USBFS_DEBUG_std.c ****             #if (USBFS_DEBUG_EP_MANAGEMENT_DMA_AUTO)
 471:Generated_Source\PSoC5/USBFS_DEBUG_std.c ****                 /* (CY_PSOC4): DMA_TERMIN for OUT endpoint is set above. */
 472:Generated_Source\PSoC5/USBFS_DEBUG_std.c ****                 
 473:Generated_Source\PSoC5/USBFS_DEBUG_std.c ****                 /* Prepare endpoint type mask. */
 474:Generated_Source\PSoC5/USBFS_DEBUG_std.c ****                 epType |= (uint8) (0x01u << (ep - USBFS_DEBUG_EP1));
 475:Generated_Source\PSoC5/USBFS_DEBUG_std.c ****             #endif /* (USBFS_DEBUG_EP_MANAGEMENT_DMA_AUTO) */
 476:Generated_Source\PSoC5/USBFS_DEBUG_std.c ****             }
 477:Generated_Source\PSoC5/USBFS_DEBUG_std.c ****         }
 478:Generated_Source\PSoC5/USBFS_DEBUG_std.c ****         else
 479:Generated_Source\PSoC5/USBFS_DEBUG_std.c ****         {
 480:Generated_Source\PSoC5/USBFS_DEBUG_std.c ****             USBFS_DEBUG_SIE_EP_BASE.sieEp[ep].epCr0 = USBFS_DEBUG_MODE_STALL_DATA_EP;
 943              		.loc 1 480 0
 944 006a 314A     		ldr	r2, .L85+8
 945 006c FB79     		ldrb	r3, [r7, #7]	@ zero_extendqisi2
 946 006e 1B01     		lsls	r3, r3, #4
 947 0070 1344     		add	r3, r3, r2
 948 0072 0233     		adds	r3, r3, #2
 949 0074 8022     		movs	r2, #128
 950 0076 1A70     		strb	r2, [r3]
 951              	.L83:
 481:Generated_Source\PSoC5/USBFS_DEBUG_std.c ****         }
 482:Generated_Source\PSoC5/USBFS_DEBUG_std.c ****         
 483:Generated_Source\PSoC5/USBFS_DEBUG_std.c ****     #if (!USBFS_DEBUG_EP_MANAGEMENT_DMA_AUTO)
 484:Generated_Source\PSoC5/USBFS_DEBUG_std.c ****         #if (CY_PSOC4)
 485:Generated_Source\PSoC5/USBFS_DEBUG_std.c ****             USBFS_DEBUG_ARB_EP16_BASE.arbEp[ep].rwRa16  = (uint32) USBFS_DEBUG_EP[ep].buffOffset;
 486:Generated_Source\PSoC5/USBFS_DEBUG_std.c ****             USBFS_DEBUG_ARB_EP16_BASE.arbEp[ep].rwWa16  = (uint32) USBFS_DEBUG_EP[ep].buffOffset;
 487:Generated_Source\PSoC5/USBFS_DEBUG_std.c ****         #else
 488:Generated_Source\PSoC5/USBFS_DEBUG_std.c ****             USBFS_DEBUG_ARB_EP_BASE.arbEp[ep].rwRa    = LO8(USBFS_DEBUG_EP[ep].buffOffset);
 952              		.loc 1 488 0 discriminator 2
 953 0078 2B48     		ldr	r0, .L85
 954 007a F979     		ldrb	r1, [r7, #7]	@ zero_extendqisi2
 955 007c FA79     		ldrb	r2, [r7, #7]	@ zero_extendqisi2
 956 007e 2B4C     		ldr	r4, .L85+4
 957 0080 1346     		mov	r3, r2
 958 0082 5B00     		lsls	r3, r3, #1
 959 0084 1344     		add	r3, r3, r2
 960 0086 9B00     		lsls	r3, r3, #2
 961 0088 2344     		add	r3, r3, r4
 962 008a 0633     		adds	r3, r3, #6
 963 008c 1B88     		ldrh	r3, [r3]	@ movhi
 964 008e 9BB2     		uxth	r3, r3
 965 0090 DAB2     		uxtb	r2, r3
 966 0092 0B01     		lsls	r3, r1, #4
 967 0094 0344     		add	r3, r3, r0
 968 0096 0633     		adds	r3, r3, #6
 969 0098 1A70     		strb	r2, [r3]
 489:Generated_Source\PSoC5/USBFS_DEBUG_std.c ****             USBFS_DEBUG_ARB_EP_BASE.arbEp[ep].rwRaMsb = HI8(USBFS_DEBUG_EP[ep].buffOffset);
 970              		.loc 1 489 0 discriminator 2
 971 009a 2348     		ldr	r0, .L85
 972 009c F979     		ldrb	r1, [r7, #7]	@ zero_extendqisi2
 973 009e FA79     		ldrb	r2, [r7, #7]	@ zero_extendqisi2
ARM GAS  C:\Users\yoons\AppData\Local\Temp\ccLfZPJ9.s 			page 28


 974 00a0 224C     		ldr	r4, .L85+4
 975 00a2 1346     		mov	r3, r2
 976 00a4 5B00     		lsls	r3, r3, #1
 977 00a6 1344     		add	r3, r3, r2
 978 00a8 9B00     		lsls	r3, r3, #2
 979 00aa 2344     		add	r3, r3, r4
 980 00ac 0633     		adds	r3, r3, #6
 981 00ae 1B88     		ldrh	r3, [r3]	@ movhi
 982 00b0 9BB2     		uxth	r3, r3
 983 00b2 1B0A     		lsrs	r3, r3, #8
 984 00b4 9BB2     		uxth	r3, r3
 985 00b6 DAB2     		uxtb	r2, r3
 986 00b8 0B01     		lsls	r3, r1, #4
 987 00ba 0344     		add	r3, r3, r0
 988 00bc 0733     		adds	r3, r3, #7
 989 00be 1A70     		strb	r2, [r3]
 490:Generated_Source\PSoC5/USBFS_DEBUG_std.c ****             USBFS_DEBUG_ARB_EP_BASE.arbEp[ep].rwWa    = LO8(USBFS_DEBUG_EP[ep].buffOffset);
 990              		.loc 1 490 0 discriminator 2
 991 00c0 1948     		ldr	r0, .L85
 992 00c2 F979     		ldrb	r1, [r7, #7]	@ zero_extendqisi2
 993 00c4 FA79     		ldrb	r2, [r7, #7]	@ zero_extendqisi2
 994 00c6 194C     		ldr	r4, .L85+4
 995 00c8 1346     		mov	r3, r2
 996 00ca 5B00     		lsls	r3, r3, #1
 997 00cc 1344     		add	r3, r3, r2
 998 00ce 9B00     		lsls	r3, r3, #2
 999 00d0 2344     		add	r3, r3, r4
 1000 00d2 0633     		adds	r3, r3, #6
 1001 00d4 1B88     		ldrh	r3, [r3]	@ movhi
 1002 00d6 9BB2     		uxth	r3, r3
 1003 00d8 DAB2     		uxtb	r2, r3
 1004 00da 0B01     		lsls	r3, r1, #4
 1005 00dc 0344     		add	r3, r3, r0
 1006 00de 0433     		adds	r3, r3, #4
 1007 00e0 1A70     		strb	r2, [r3]
 491:Generated_Source\PSoC5/USBFS_DEBUG_std.c ****             USBFS_DEBUG_ARB_EP_BASE.arbEp[ep].rwWaMsb = HI8(USBFS_DEBUG_EP[ep].buffOffset);
 1008              		.loc 1 491 0 discriminator 2
 1009 00e2 1148     		ldr	r0, .L85
 1010 00e4 F979     		ldrb	r1, [r7, #7]	@ zero_extendqisi2
 1011 00e6 FA79     		ldrb	r2, [r7, #7]	@ zero_extendqisi2
 1012 00e8 104C     		ldr	r4, .L85+4
 1013 00ea 1346     		mov	r3, r2
 1014 00ec 5B00     		lsls	r3, r3, #1
 1015 00ee 1344     		add	r3, r3, r2
 1016 00f0 9B00     		lsls	r3, r3, #2
 1017 00f2 2344     		add	r3, r3, r4
 1018 00f4 0633     		adds	r3, r3, #6
 1019 00f6 1B88     		ldrh	r3, [r3]	@ movhi
 1020 00f8 9BB2     		uxth	r3, r3
 1021 00fa 1B0A     		lsrs	r3, r3, #8
 1022 00fc 9BB2     		uxth	r3, r3
 1023 00fe DAB2     		uxtb	r2, r3
 1024 0100 0B01     		lsls	r3, r1, #4
 1025 0102 0344     		add	r3, r3, r0
 1026 0104 0533     		adds	r3, r3, #5
 1027 0106 1A70     		strb	r2, [r3]
 446:Generated_Source\PSoC5/USBFS_DEBUG_std.c ****     {
ARM GAS  C:\Users\yoons\AppData\Local\Temp\ccLfZPJ9.s 			page 29


 1028              		.loc 1 446 0 discriminator 2
 1029 0108 FB79     		ldrb	r3, [r7, #7]
 1030 010a 0133     		adds	r3, r3, #1
 1031 010c FB71     		strb	r3, [r7, #7]
 1032              	.L79:
 446:Generated_Source\PSoC5/USBFS_DEBUG_std.c ****     {
 1033              		.loc 1 446 0 is_stmt 0 discriminator 1
 1034 010e FB79     		ldrb	r3, [r7, #7]	@ zero_extendqisi2
 1035 0110 082B     		cmp	r3, #8
 1036 0112 7FF67BAF 		bls	.L84
 492:Generated_Source\PSoC5/USBFS_DEBUG_std.c ****         #endif /* (CY_PSOC4) */
 493:Generated_Source\PSoC5/USBFS_DEBUG_std.c ****     #endif /* (!USBFS_DEBUG_EP_MANAGEMENT_DMA_AUTO) */
 494:Generated_Source\PSoC5/USBFS_DEBUG_std.c ****     }
 495:Generated_Source\PSoC5/USBFS_DEBUG_std.c **** 
 496:Generated_Source\PSoC5/USBFS_DEBUG_std.c **** #if (USBFS_DEBUG_EP_MANAGEMENT_DMA_AUTO)
 497:Generated_Source\PSoC5/USBFS_DEBUG_std.c ****      /* BUF_SIZE depend on DMA_THRESS value:0x55-32 bytes  0x44-16 bytes 0x33-8 bytes 0x22-4 bytes 
 498:Generated_Source\PSoC5/USBFS_DEBUG_std.c ****     USBFS_DEBUG_BUF_SIZE_REG = USBFS_DEBUG_DMA_BUF_SIZE;
 499:Generated_Source\PSoC5/USBFS_DEBUG_std.c **** 
 500:Generated_Source\PSoC5/USBFS_DEBUG_std.c ****     /* Configure DMA burst threshold */
 501:Generated_Source\PSoC5/USBFS_DEBUG_std.c **** #if (CY_PSOC4)
 502:Generated_Source\PSoC5/USBFS_DEBUG_std.c ****     USBFS_DEBUG_DMA_THRES16_REG   = USBFS_DEBUG_DMA_BYTES_PER_BURST;
 503:Generated_Source\PSoC5/USBFS_DEBUG_std.c **** #else
 504:Generated_Source\PSoC5/USBFS_DEBUG_std.c ****     USBFS_DEBUG_DMA_THRES_REG     = USBFS_DEBUG_DMA_BYTES_PER_BURST;
 505:Generated_Source\PSoC5/USBFS_DEBUG_std.c ****     USBFS_DEBUG_DMA_THRES_MSB_REG = 0u;
 506:Generated_Source\PSoC5/USBFS_DEBUG_std.c **** #endif /* (CY_PSOC4) */
 507:Generated_Source\PSoC5/USBFS_DEBUG_std.c ****     USBFS_DEBUG_EP_ACTIVE_REG = USBFS_DEBUG_DEFAULT_ARB_INT_EN;
 508:Generated_Source\PSoC5/USBFS_DEBUG_std.c ****     USBFS_DEBUG_EP_TYPE_REG   = epType;
 509:Generated_Source\PSoC5/USBFS_DEBUG_std.c ****     
 510:Generated_Source\PSoC5/USBFS_DEBUG_std.c ****     /* Cfg_cmp bit set to 1 once configuration is complete. */
 511:Generated_Source\PSoC5/USBFS_DEBUG_std.c ****     /* Lock arbiter configtuation */
 512:Generated_Source\PSoC5/USBFS_DEBUG_std.c ****     USBFS_DEBUG_ARB_CFG_REG |= (uint8)  USBFS_DEBUG_ARB_CFG_CFG_CMP;
 513:Generated_Source\PSoC5/USBFS_DEBUG_std.c ****     /* Cfg_cmp bit set to 0 during configuration of PFSUSB Registers. */
 514:Generated_Source\PSoC5/USBFS_DEBUG_std.c ****     USBFS_DEBUG_ARB_CFG_REG &= (uint8) ~USBFS_DEBUG_ARB_CFG_CFG_CMP;
 515:Generated_Source\PSoC5/USBFS_DEBUG_std.c **** 
 516:Generated_Source\PSoC5/USBFS_DEBUG_std.c **** #endif /* (USBFS_DEBUG_EP_MANAGEMENT_DMA_AUTO) */
 517:Generated_Source\PSoC5/USBFS_DEBUG_std.c **** 
 518:Generated_Source\PSoC5/USBFS_DEBUG_std.c ****     /* Enable interrupt SIE interurpt source from EP0-EP1 */
 519:Generated_Source\PSoC5/USBFS_DEBUG_std.c ****     USBFS_DEBUG_SIE_EP_INT_EN_REG = (uint8) USBFS_DEBUG_DEFAULT_SIE_EP_INT_EN;
 1037              		.loc 1 519 0 is_stmt 1
 1038 0116 074B     		ldr	r3, .L85+12
 1039 0118 FF22     		movs	r2, #255
 1040 011a 1A70     		strb	r2, [r3]
 520:Generated_Source\PSoC5/USBFS_DEBUG_std.c **** }
 1041              		.loc 1 520 0
 1042 011c 00BF     		nop
 1043 011e 0837     		adds	r7, r7, #8
 1044              		.cfi_def_cfa_offset 8
 1045 0120 BD46     		mov	sp, r7
 1046              		.cfi_def_cfa_register 13
 1047              		@ sp needed
 1048 0122 90BC     		pop	{r4, r7}
 1049              		.cfi_restore 7
 1050              		.cfi_restore 4
 1051              		.cfi_def_cfa_offset 0
 1052 0124 7047     		bx	lr
 1053              	.L86:
 1054 0126 00BF     		.align	2
ARM GAS  C:\Users\yoons\AppData\Local\Temp\ccLfZPJ9.s 			page 30


 1055              	.L85:
 1056 0128 70600040 		.word	1073766512
 1057 012c 00000000 		.word	USBFS_DEBUG_EP
 1058 0130 FC5F0040 		.word	1073766396
 1059 0134 0A600040 		.word	1073766410
 1060              		.cfi_endproc
 1061              	.LFE2:
 1062              		.size	USBFS_DEBUG_ConfigReg, .-USBFS_DEBUG_ConfigReg
 1063              		.section	.text.USBFS_DEBUG_EpStateInit,"ax",%progbits
 1064              		.align	2
 1065              		.global	USBFS_DEBUG_EpStateInit
 1066              		.thumb
 1067              		.thumb_func
 1068              		.type	USBFS_DEBUG_EpStateInit, %function
 1069              	USBFS_DEBUG_EpStateInit:
 1070              	.LFB3:
 521:Generated_Source\PSoC5/USBFS_DEBUG_std.c **** 
 522:Generated_Source\PSoC5/USBFS_DEBUG_std.c **** 
 523:Generated_Source\PSoC5/USBFS_DEBUG_std.c **** /*******************************************************************************
 524:Generated_Source\PSoC5/USBFS_DEBUG_std.c **** * Function Name: USBFS_DEBUG_EpStateInit
 525:Generated_Source\PSoC5/USBFS_DEBUG_std.c **** ****************************************************************************//**
 526:Generated_Source\PSoC5/USBFS_DEBUG_std.c **** *
 527:Generated_Source\PSoC5/USBFS_DEBUG_std.c **** *  This routine initialize state of Data end points based of its type: 
 528:Generated_Source\PSoC5/USBFS_DEBUG_std.c **** *   IN  - USBFS_DEBUG_IN_BUFFER_EMPTY (USBFS_DEBUG_EVENT_PENDING)
 529:Generated_Source\PSoC5/USBFS_DEBUG_std.c **** *   OUT - USBFS_DEBUG_OUT_BUFFER_EMPTY (USBFS_DEBUG_NO_EVENT_PENDING)
 530:Generated_Source\PSoC5/USBFS_DEBUG_std.c **** *
 531:Generated_Source\PSoC5/USBFS_DEBUG_std.c **** *******************************************************************************/
 532:Generated_Source\PSoC5/USBFS_DEBUG_std.c **** void USBFS_DEBUG_EpStateInit(void) 
 533:Generated_Source\PSoC5/USBFS_DEBUG_std.c **** {
 1071              		.loc 1 533 0
 1072              		.cfi_startproc
 1073              		@ args = 0, pretend = 0, frame = 8
 1074              		@ frame_needed = 1, uses_anonymous_args = 0
 1075              		@ link register save eliminated.
 1076 0000 80B4     		push	{r7}
 1077              		.cfi_def_cfa_offset 4
 1078              		.cfi_offset 7, -4
 1079 0002 83B0     		sub	sp, sp, #12
 1080              		.cfi_def_cfa_offset 16
 1081 0004 00AF     		add	r7, sp, #0
 1082              		.cfi_def_cfa_register 7
 534:Generated_Source\PSoC5/USBFS_DEBUG_std.c ****     uint8 i;
 535:Generated_Source\PSoC5/USBFS_DEBUG_std.c **** 
 536:Generated_Source\PSoC5/USBFS_DEBUG_std.c ****     for (i = USBFS_DEBUG_EP1; i < USBFS_DEBUG_MAX_EP; i++)
 1083              		.loc 1 536 0
 1084 0006 0123     		movs	r3, #1
 1085 0008 FB71     		strb	r3, [r7, #7]
 1086 000a 24E0     		b	.L88
 1087              	.L91:
 537:Generated_Source\PSoC5/USBFS_DEBUG_std.c ****     { 
 538:Generated_Source\PSoC5/USBFS_DEBUG_std.c ****         if (0u != (USBFS_DEBUG_EP[i].addr & USBFS_DEBUG_DIR_IN))
 1088              		.loc 1 538 0
 1089 000c FA79     		ldrb	r2, [r7, #7]	@ zero_extendqisi2
 1090 000e 1649     		ldr	r1, .L92
 1091 0010 1346     		mov	r3, r2
 1092 0012 5B00     		lsls	r3, r3, #1
 1093 0014 1344     		add	r3, r3, r2
ARM GAS  C:\Users\yoons\AppData\Local\Temp\ccLfZPJ9.s 			page 31


 1094 0016 9B00     		lsls	r3, r3, #2
 1095 0018 0B44     		add	r3, r3, r1
 1096 001a 0433     		adds	r3, r3, #4
 1097 001c 1B78     		ldrb	r3, [r3]
 1098 001e DBB2     		uxtb	r3, r3
 1099 0020 5BB2     		sxtb	r3, r3
 1100 0022 002B     		cmp	r3, #0
 1101 0024 0ADA     		bge	.L89
 539:Generated_Source\PSoC5/USBFS_DEBUG_std.c ****         {
 540:Generated_Source\PSoC5/USBFS_DEBUG_std.c ****             /* IN Endpoint */
 541:Generated_Source\PSoC5/USBFS_DEBUG_std.c ****             USBFS_DEBUG_EP[i].apiEpState = USBFS_DEBUG_EVENT_PENDING;
 1102              		.loc 1 541 0
 1103 0026 FA79     		ldrb	r2, [r7, #7]	@ zero_extendqisi2
 1104 0028 0F49     		ldr	r1, .L92
 1105 002a 1346     		mov	r3, r2
 1106 002c 5B00     		lsls	r3, r3, #1
 1107 002e 1344     		add	r3, r3, r2
 1108 0030 9B00     		lsls	r3, r3, #2
 1109 0032 0B44     		add	r3, r3, r1
 1110 0034 0133     		adds	r3, r3, #1
 1111 0036 0122     		movs	r2, #1
 1112 0038 1A70     		strb	r2, [r3]
 1113 003a 09E0     		b	.L90
 1114              	.L89:
 542:Generated_Source\PSoC5/USBFS_DEBUG_std.c ****         }
 543:Generated_Source\PSoC5/USBFS_DEBUG_std.c ****         else
 544:Generated_Source\PSoC5/USBFS_DEBUG_std.c ****         {
 545:Generated_Source\PSoC5/USBFS_DEBUG_std.c ****             /* OUT Endpoint */
 546:Generated_Source\PSoC5/USBFS_DEBUG_std.c ****             USBFS_DEBUG_EP[i].apiEpState = USBFS_DEBUG_NO_EVENT_PENDING;
 1115              		.loc 1 546 0
 1116 003c FA79     		ldrb	r2, [r7, #7]	@ zero_extendqisi2
 1117 003e 0A49     		ldr	r1, .L92
 1118 0040 1346     		mov	r3, r2
 1119 0042 5B00     		lsls	r3, r3, #1
 1120 0044 1344     		add	r3, r3, r2
 1121 0046 9B00     		lsls	r3, r3, #2
 1122 0048 0B44     		add	r3, r3, r1
 1123 004a 0133     		adds	r3, r3, #1
 1124 004c 0022     		movs	r2, #0
 1125 004e 1A70     		strb	r2, [r3]
 1126              	.L90:
 536:Generated_Source\PSoC5/USBFS_DEBUG_std.c ****     { 
 1127              		.loc 1 536 0 discriminator 2
 1128 0050 FB79     		ldrb	r3, [r7, #7]	@ zero_extendqisi2
 1129 0052 0133     		adds	r3, r3, #1
 1130 0054 FB71     		strb	r3, [r7, #7]
 1131              	.L88:
 536:Generated_Source\PSoC5/USBFS_DEBUG_std.c ****     { 
 1132              		.loc 1 536 0 is_stmt 0 discriminator 1
 1133 0056 FB79     		ldrb	r3, [r7, #7]	@ zero_extendqisi2
 1134 0058 082B     		cmp	r3, #8
 1135 005a D7D9     		bls	.L91
 547:Generated_Source\PSoC5/USBFS_DEBUG_std.c ****         }
 548:Generated_Source\PSoC5/USBFS_DEBUG_std.c ****     }
 549:Generated_Source\PSoC5/USBFS_DEBUG_std.c ****                     
 550:Generated_Source\PSoC5/USBFS_DEBUG_std.c **** }
 1136              		.loc 1 550 0 is_stmt 1
ARM GAS  C:\Users\yoons\AppData\Local\Temp\ccLfZPJ9.s 			page 32


 1137 005c 00BF     		nop
 1138 005e 0C37     		adds	r7, r7, #12
 1139              		.cfi_def_cfa_offset 4
 1140 0060 BD46     		mov	sp, r7
 1141              		.cfi_def_cfa_register 13
 1142              		@ sp needed
 1143 0062 80BC     		pop	{r7}
 1144              		.cfi_restore 7
 1145              		.cfi_def_cfa_offset 0
 1146 0064 7047     		bx	lr
 1147              	.L93:
 1148 0066 00BF     		.align	2
 1149              	.L92:
 1150 0068 00000000 		.word	USBFS_DEBUG_EP
 1151              		.cfi_endproc
 1152              	.LFE3:
 1153              		.size	USBFS_DEBUG_EpStateInit, .-USBFS_DEBUG_EpStateInit
 1154              		.section	.text.USBFS_DEBUG_Config,"ax",%progbits
 1155              		.align	2
 1156              		.global	USBFS_DEBUG_Config
 1157              		.thumb
 1158              		.thumb_func
 1159              		.type	USBFS_DEBUG_Config, %function
 1160              	USBFS_DEBUG_Config:
 1161              	.LFB4:
 551:Generated_Source\PSoC5/USBFS_DEBUG_std.c **** 
 552:Generated_Source\PSoC5/USBFS_DEBUG_std.c **** 
 553:Generated_Source\PSoC5/USBFS_DEBUG_std.c **** /*******************************************************************************
 554:Generated_Source\PSoC5/USBFS_DEBUG_std.c **** * Function Name: USBFS_DEBUG_Config
 555:Generated_Source\PSoC5/USBFS_DEBUG_std.c **** ****************************************************************************//**
 556:Generated_Source\PSoC5/USBFS_DEBUG_std.c **** *
 557:Generated_Source\PSoC5/USBFS_DEBUG_std.c **** *  This routine configures endpoints for the entire configuration by scanning
 558:Generated_Source\PSoC5/USBFS_DEBUG_std.c **** *  the configuration descriptor.
 559:Generated_Source\PSoC5/USBFS_DEBUG_std.c **** *
 560:Generated_Source\PSoC5/USBFS_DEBUG_std.c **** *  \param clearAltSetting: It configures the bAlternateSetting 0 for each interface.
 561:Generated_Source\PSoC5/USBFS_DEBUG_std.c **** *
 562:Generated_Source\PSoC5/USBFS_DEBUG_std.c **** * USBFS_DEBUG_interfaceClass - Initialized class array for each interface.
 563:Generated_Source\PSoC5/USBFS_DEBUG_std.c **** *   It is used for handling Class specific requests depend on interface class.
 564:Generated_Source\PSoC5/USBFS_DEBUG_std.c **** *   Different classes in multiple Alternate settings does not supported.
 565:Generated_Source\PSoC5/USBFS_DEBUG_std.c **** *
 566:Generated_Source\PSoC5/USBFS_DEBUG_std.c **** * \reentrant
 567:Generated_Source\PSoC5/USBFS_DEBUG_std.c **** *  No.
 568:Generated_Source\PSoC5/USBFS_DEBUG_std.c **** *
 569:Generated_Source\PSoC5/USBFS_DEBUG_std.c **** *******************************************************************************/
 570:Generated_Source\PSoC5/USBFS_DEBUG_std.c **** void USBFS_DEBUG_Config(uint8 clearAltSetting) 
 571:Generated_Source\PSoC5/USBFS_DEBUG_std.c **** {
 1162              		.loc 1 571 0
 1163              		.cfi_startproc
 1164              		@ args = 0, pretend = 0, frame = 40
 1165              		@ frame_needed = 1, uses_anonymous_args = 0
 1166 0000 80B5     		push	{r7, lr}
 1167              		.cfi_def_cfa_offset 8
 1168              		.cfi_offset 7, -8
 1169              		.cfi_offset 14, -4
 1170 0002 8AB0     		sub	sp, sp, #40
 1171              		.cfi_def_cfa_offset 48
 1172 0004 00AF     		add	r7, sp, #0
ARM GAS  C:\Users\yoons\AppData\Local\Temp\ccLfZPJ9.s 			page 33


 1173              		.cfi_def_cfa_register 7
 1174 0006 0346     		mov	r3, r0
 1175 0008 FB71     		strb	r3, [r7, #7]
 572:Generated_Source\PSoC5/USBFS_DEBUG_std.c ****     uint8 ep;
 573:Generated_Source\PSoC5/USBFS_DEBUG_std.c ****     uint8 curEp;
 574:Generated_Source\PSoC5/USBFS_DEBUG_std.c ****     uint8 i;
 575:Generated_Source\PSoC5/USBFS_DEBUG_std.c ****     uint8 epType;
 576:Generated_Source\PSoC5/USBFS_DEBUG_std.c ****     const uint8 *pDescr;
 577:Generated_Source\PSoC5/USBFS_DEBUG_std.c ****     
 578:Generated_Source\PSoC5/USBFS_DEBUG_std.c ****     #if (!USBFS_DEBUG_EP_MANAGEMENT_DMA_AUTO)
 579:Generated_Source\PSoC5/USBFS_DEBUG_std.c ****         uint16 buffCount = 0u;
 1176              		.loc 1 579 0
 1177 000a 0023     		movs	r3, #0
 1178 000c 7B84     		strh	r3, [r7, #34]	@ movhi
 580:Generated_Source\PSoC5/USBFS_DEBUG_std.c ****     #endif /* (!USBFS_DEBUG_EP_MANAGEMENT_DMA_AUTO) */
 581:Generated_Source\PSoC5/USBFS_DEBUG_std.c **** 
 582:Generated_Source\PSoC5/USBFS_DEBUG_std.c ****     const T_USBFS_DEBUG_LUT CYCODE *pTmp;
 583:Generated_Source\PSoC5/USBFS_DEBUG_std.c ****     const T_USBFS_DEBUG_EP_SETTINGS_BLOCK CYCODE *pEP;
 584:Generated_Source\PSoC5/USBFS_DEBUG_std.c **** 
 585:Generated_Source\PSoC5/USBFS_DEBUG_std.c ****     /* Clear endpoints settings */
 586:Generated_Source\PSoC5/USBFS_DEBUG_std.c ****     for (ep = 0u; ep < USBFS_DEBUG_MAX_EP; ++ep)
 1179              		.loc 1 586 0
 1180 000e 0023     		movs	r3, #0
 1181 0010 87F82730 		strb	r3, [r7, #39]
 1182 0014 50E0     		b	.L95
 1183              	.L96:
 587:Generated_Source\PSoC5/USBFS_DEBUG_std.c ****     {
 588:Generated_Source\PSoC5/USBFS_DEBUG_std.c ****         USBFS_DEBUG_EP[ep].attrib     = 0u;
 1184              		.loc 1 588 0 discriminator 3
 1185 0016 97F82720 		ldrb	r2, [r7, #39]	@ zero_extendqisi2
 1186 001a B349     		ldr	r1, .L121
 1187 001c 1346     		mov	r3, r2
 1188 001e 5B00     		lsls	r3, r3, #1
 1189 0020 1344     		add	r3, r3, r2
 1190 0022 9B00     		lsls	r3, r3, #2
 1191 0024 0B44     		add	r3, r3, r1
 1192 0026 0022     		movs	r2, #0
 1193 0028 1A70     		strb	r2, [r3]
 589:Generated_Source\PSoC5/USBFS_DEBUG_std.c ****         USBFS_DEBUG_EP[ep].hwEpState  = 0u;
 1194              		.loc 1 589 0 discriminator 3
 1195 002a 97F82720 		ldrb	r2, [r7, #39]	@ zero_extendqisi2
 1196 002e AE49     		ldr	r1, .L121
 1197 0030 1346     		mov	r3, r2
 1198 0032 5B00     		lsls	r3, r3, #1
 1199 0034 1344     		add	r3, r3, r2
 1200 0036 9B00     		lsls	r3, r3, #2
 1201 0038 0B44     		add	r3, r3, r1
 1202 003a 0233     		adds	r3, r3, #2
 1203 003c 0022     		movs	r2, #0
 1204 003e 1A70     		strb	r2, [r3]
 590:Generated_Source\PSoC5/USBFS_DEBUG_std.c ****         USBFS_DEBUG_EP[ep].epToggle   = 0u;
 1205              		.loc 1 590 0 discriminator 3
 1206 0040 97F82720 		ldrb	r2, [r7, #39]	@ zero_extendqisi2
 1207 0044 A849     		ldr	r1, .L121
 1208 0046 1346     		mov	r3, r2
 1209 0048 5B00     		lsls	r3, r3, #1
 1210 004a 1344     		add	r3, r3, r2
ARM GAS  C:\Users\yoons\AppData\Local\Temp\ccLfZPJ9.s 			page 34


 1211 004c 9B00     		lsls	r3, r3, #2
 1212 004e 0B44     		add	r3, r3, r1
 1213 0050 0333     		adds	r3, r3, #3
 1214 0052 0022     		movs	r2, #0
 1215 0054 1A70     		strb	r2, [r3]
 591:Generated_Source\PSoC5/USBFS_DEBUG_std.c ****         USBFS_DEBUG_EP[ep].bufferSize = 0u;
 1216              		.loc 1 591 0 discriminator 3
 1217 0056 97F82720 		ldrb	r2, [r7, #39]	@ zero_extendqisi2
 1218 005a A349     		ldr	r1, .L121
 1219 005c 1346     		mov	r3, r2
 1220 005e 5B00     		lsls	r3, r3, #1
 1221 0060 1344     		add	r3, r3, r2
 1222 0062 9B00     		lsls	r3, r3, #2
 1223 0064 0B44     		add	r3, r3, r1
 1224 0066 0833     		adds	r3, r3, #8
 1225 0068 0022     		movs	r2, #0
 1226 006a 1A80     		strh	r2, [r3]	@ movhi
 592:Generated_Source\PSoC5/USBFS_DEBUG_std.c ****         USBFS_DEBUG_EP[ep].interface  = 0u;
 1227              		.loc 1 592 0 discriminator 3
 1228 006c 97F82720 		ldrb	r2, [r7, #39]	@ zero_extendqisi2
 1229 0070 9D49     		ldr	r1, .L121
 1230 0072 1346     		mov	r3, r2
 1231 0074 5B00     		lsls	r3, r3, #1
 1232 0076 1344     		add	r3, r3, r2
 1233 0078 9B00     		lsls	r3, r3, #2
 1234 007a 0B44     		add	r3, r3, r1
 1235 007c 0A33     		adds	r3, r3, #10
 1236 007e 0022     		movs	r2, #0
 1237 0080 1A70     		strb	r2, [r3]
 593:Generated_Source\PSoC5/USBFS_DEBUG_std.c ****         USBFS_DEBUG_EP[ep].apiEpState = USBFS_DEBUG_NO_EVENT_PENDING;
 1238              		.loc 1 593 0 discriminator 3
 1239 0082 97F82720 		ldrb	r2, [r7, #39]	@ zero_extendqisi2
 1240 0086 9849     		ldr	r1, .L121
 1241 0088 1346     		mov	r3, r2
 1242 008a 5B00     		lsls	r3, r3, #1
 1243 008c 1344     		add	r3, r3, r2
 1244 008e 9B00     		lsls	r3, r3, #2
 1245 0090 0B44     		add	r3, r3, r1
 1246 0092 0133     		adds	r3, r3, #1
 1247 0094 0022     		movs	r2, #0
 1248 0096 1A70     		strb	r2, [r3]
 594:Generated_Source\PSoC5/USBFS_DEBUG_std.c ****         USBFS_DEBUG_EP[ep].epMode     = USBFS_DEBUG_MODE_DISABLE;   
 1249              		.loc 1 594 0 discriminator 3
 1250 0098 97F82720 		ldrb	r2, [r7, #39]	@ zero_extendqisi2
 1251 009c 9249     		ldr	r1, .L121
 1252 009e 1346     		mov	r3, r2
 1253 00a0 5B00     		lsls	r3, r3, #1
 1254 00a2 1344     		add	r3, r3, r2
 1255 00a4 9B00     		lsls	r3, r3, #2
 1256 00a6 0B44     		add	r3, r3, r1
 1257 00a8 0533     		adds	r3, r3, #5
 1258 00aa 0022     		movs	r2, #0
 1259 00ac 1A70     		strb	r2, [r3]
 586:Generated_Source\PSoC5/USBFS_DEBUG_std.c ****     {
 1260              		.loc 1 586 0 discriminator 3
 1261 00ae 97F82730 		ldrb	r3, [r7, #39]
 1262 00b2 0133     		adds	r3, r3, #1
ARM GAS  C:\Users\yoons\AppData\Local\Temp\ccLfZPJ9.s 			page 35


 1263 00b4 87F82730 		strb	r3, [r7, #39]
 1264              	.L95:
 586:Generated_Source\PSoC5/USBFS_DEBUG_std.c ****     {
 1265              		.loc 1 586 0 is_stmt 0 discriminator 1
 1266 00b8 97F82730 		ldrb	r3, [r7, #39]	@ zero_extendqisi2
 1267 00bc 082B     		cmp	r3, #8
 1268 00be AAD9     		bls	.L96
 595:Generated_Source\PSoC5/USBFS_DEBUG_std.c ****     }
 596:Generated_Source\PSoC5/USBFS_DEBUG_std.c **** 
 597:Generated_Source\PSoC5/USBFS_DEBUG_std.c ****     /* Clear Alternate settings for all interfaces. */
 598:Generated_Source\PSoC5/USBFS_DEBUG_std.c ****     if (0u != clearAltSetting)
 1269              		.loc 1 598 0 is_stmt 1
 1270 00c0 FB79     		ldrb	r3, [r7, #7]	@ zero_extendqisi2
 1271 00c2 002B     		cmp	r3, #0
 1272 00c4 16D0     		beq	.L97
 599:Generated_Source\PSoC5/USBFS_DEBUG_std.c ****     {
 600:Generated_Source\PSoC5/USBFS_DEBUG_std.c ****         for (i = 0u; i < USBFS_DEBUG_MAX_INTERFACES_NUMBER; ++i)
 1273              		.loc 1 600 0
 1274 00c6 0023     		movs	r3, #0
 1275 00c8 87F82530 		strb	r3, [r7, #37]
 1276 00cc 0EE0     		b	.L98
 1277              	.L99:
 601:Generated_Source\PSoC5/USBFS_DEBUG_std.c ****         {
 602:Generated_Source\PSoC5/USBFS_DEBUG_std.c ****             USBFS_DEBUG_interfaceSetting[i]     = 0u;
 1278              		.loc 1 602 0 discriminator 3
 1279 00ce 97F82530 		ldrb	r3, [r7, #37]	@ zero_extendqisi2
 1280 00d2 864A     		ldr	r2, .L121+4
 1281 00d4 0021     		movs	r1, #0
 1282 00d6 D154     		strb	r1, [r2, r3]
 603:Generated_Source\PSoC5/USBFS_DEBUG_std.c ****             USBFS_DEBUG_interfaceSettingLast[i] = 0u;
 1283              		.loc 1 603 0 discriminator 3
 1284 00d8 97F82530 		ldrb	r3, [r7, #37]	@ zero_extendqisi2
 1285 00dc 844A     		ldr	r2, .L121+8
 1286 00de 0021     		movs	r1, #0
 1287 00e0 D154     		strb	r1, [r2, r3]
 600:Generated_Source\PSoC5/USBFS_DEBUG_std.c ****         {
 1288              		.loc 1 600 0 discriminator 3
 1289 00e2 97F82530 		ldrb	r3, [r7, #37]
 1290 00e6 0133     		adds	r3, r3, #1
 1291 00e8 87F82530 		strb	r3, [r7, #37]
 1292              	.L98:
 600:Generated_Source\PSoC5/USBFS_DEBUG_std.c ****         {
 1293              		.loc 1 600 0 is_stmt 0 discriminator 1
 1294 00ec 97F82530 		ldrb	r3, [r7, #37]	@ zero_extendqisi2
 1295 00f0 012B     		cmp	r3, #1
 1296 00f2 ECD9     		bls	.L99
 1297              	.L97:
 604:Generated_Source\PSoC5/USBFS_DEBUG_std.c ****         }
 605:Generated_Source\PSoC5/USBFS_DEBUG_std.c ****     }
 606:Generated_Source\PSoC5/USBFS_DEBUG_std.c **** 
 607:Generated_Source\PSoC5/USBFS_DEBUG_std.c ****     /* Init Endpoints and Device Status if configured */
 608:Generated_Source\PSoC5/USBFS_DEBUG_std.c ****     if (USBFS_DEBUG_configuration > 0u)
 1298              		.loc 1 608 0 is_stmt 1
 1299 00f4 7F4B     		ldr	r3, .L121+12
 1300 00f6 1B78     		ldrb	r3, [r3]
 1301 00f8 DBB2     		uxtb	r3, r3
 1302 00fa 002B     		cmp	r3, #0
ARM GAS  C:\Users\yoons\AppData\Local\Temp\ccLfZPJ9.s 			page 36


 1303 00fc 00F04A81 		beq	.L120
 1304              	.LBB2:
 609:Generated_Source\PSoC5/USBFS_DEBUG_std.c ****     {
 610:Generated_Source\PSoC5/USBFS_DEBUG_std.c ****         #if defined(USBFS_DEBUG_ENABLE_CDC_CLASS)
 611:Generated_Source\PSoC5/USBFS_DEBUG_std.c ****             uint8 cdcComNums = 0u;
 1305              		.loc 1 611 0
 1306 0100 0023     		movs	r3, #0
 1307 0102 FB76     		strb	r3, [r7, #27]
 612:Generated_Source\PSoC5/USBFS_DEBUG_std.c ****         #endif  /* (USBFS_DEBUG_ENABLE_CDC_CLASS) */  
 613:Generated_Source\PSoC5/USBFS_DEBUG_std.c **** 
 614:Generated_Source\PSoC5/USBFS_DEBUG_std.c ****         pTmp = USBFS_DEBUG_GetConfigTablePtr(USBFS_DEBUG_configuration - 1u);
 1308              		.loc 1 614 0
 1309 0104 7B4B     		ldr	r3, .L121+12
 1310 0106 1B78     		ldrb	r3, [r3]
 1311 0108 DBB2     		uxtb	r3, r3
 1312 010a 013B     		subs	r3, r3, #1
 1313 010c DBB2     		uxtb	r3, r3
 1314 010e 1846     		mov	r0, r3
 1315 0110 FFF7FEFF 		bl	USBFS_DEBUG_GetConfigTablePtr
 1316 0114 7861     		str	r0, [r7, #20]
 615:Generated_Source\PSoC5/USBFS_DEBUG_std.c ****         
 616:Generated_Source\PSoC5/USBFS_DEBUG_std.c ****         /* Set Power status for current configuration */
 617:Generated_Source\PSoC5/USBFS_DEBUG_std.c ****         pDescr = (const uint8 *)pTmp->p_list;
 1317              		.loc 1 617 0
 1318 0116 7B69     		ldr	r3, [r7, #20]
 1319 0118 5B68     		ldr	r3, [r3, #4]
 1320 011a 3B61     		str	r3, [r7, #16]
 618:Generated_Source\PSoC5/USBFS_DEBUG_std.c ****         if ((pDescr[USBFS_DEBUG_CONFIG_DESCR_ATTRIB] & USBFS_DEBUG_CONFIG_DESCR_ATTRIB_SELF_POWERED
 1321              		.loc 1 618 0
 1322 011c 3B69     		ldr	r3, [r7, #16]
 1323 011e 0733     		adds	r3, r3, #7
 1324 0120 1B78     		ldrb	r3, [r3]	@ zero_extendqisi2
 1325 0122 03F04003 		and	r3, r3, #64
 1326 0126 002B     		cmp	r3, #0
 1327 0128 08D0     		beq	.L101
 619:Generated_Source\PSoC5/USBFS_DEBUG_std.c ****         {
 620:Generated_Source\PSoC5/USBFS_DEBUG_std.c ****             USBFS_DEBUG_deviceStatus |= (uint8)  USBFS_DEBUG_DEVICE_STATUS_SELF_POWERED;
 1328              		.loc 1 620 0
 1329 012a 734B     		ldr	r3, .L121+16
 1330 012c 1B78     		ldrb	r3, [r3]
 1331 012e DBB2     		uxtb	r3, r3
 1332 0130 43F00103 		orr	r3, r3, #1
 1333 0134 DAB2     		uxtb	r2, r3
 1334 0136 704B     		ldr	r3, .L121+16
 1335 0138 1A70     		strb	r2, [r3]
 1336 013a 07E0     		b	.L102
 1337              	.L101:
 621:Generated_Source\PSoC5/USBFS_DEBUG_std.c ****         }
 622:Generated_Source\PSoC5/USBFS_DEBUG_std.c ****         else
 623:Generated_Source\PSoC5/USBFS_DEBUG_std.c ****         {
 624:Generated_Source\PSoC5/USBFS_DEBUG_std.c ****             USBFS_DEBUG_deviceStatus &= (uint8) ~USBFS_DEBUG_DEVICE_STATUS_SELF_POWERED;
 1338              		.loc 1 624 0
 1339 013c 6E4B     		ldr	r3, .L121+16
 1340 013e 1B78     		ldrb	r3, [r3]
 1341 0140 DBB2     		uxtb	r3, r3
 1342 0142 23F00103 		bic	r3, r3, #1
 1343 0146 DAB2     		uxtb	r2, r3
ARM GAS  C:\Users\yoons\AppData\Local\Temp\ccLfZPJ9.s 			page 37


 1344 0148 6B4B     		ldr	r3, .L121+16
 1345 014a 1A70     		strb	r2, [r3]
 1346              	.L102:
 625:Generated_Source\PSoC5/USBFS_DEBUG_std.c ****         }
 626:Generated_Source\PSoC5/USBFS_DEBUG_std.c ****         
 627:Generated_Source\PSoC5/USBFS_DEBUG_std.c ****         /* Move to next element */
 628:Generated_Source\PSoC5/USBFS_DEBUG_std.c ****         pTmp = &pTmp[1u];
 1347              		.loc 1 628 0
 1348 014c 7B69     		ldr	r3, [r7, #20]
 1349 014e 0833     		adds	r3, r3, #8
 1350 0150 7B61     		str	r3, [r7, #20]
 629:Generated_Source\PSoC5/USBFS_DEBUG_std.c ****         ep = pTmp->c;  /* For this table, c is the number of endpoints configurations  */
 1351              		.loc 1 629 0
 1352 0152 7B69     		ldr	r3, [r7, #20]
 1353 0154 1B78     		ldrb	r3, [r3]
 1354 0156 87F82730 		strb	r3, [r7, #39]
 630:Generated_Source\PSoC5/USBFS_DEBUG_std.c **** 
 631:Generated_Source\PSoC5/USBFS_DEBUG_std.c ****         #if (USBFS_DEBUG_EP_MANAGEMENT_MANUAL && USBFS_DEBUG_EP_ALLOC_DYNAMIC)
 632:Generated_Source\PSoC5/USBFS_DEBUG_std.c ****             /* Configure for dynamic EP memory allocation */
 633:Generated_Source\PSoC5/USBFS_DEBUG_std.c ****             /* p_list points the endpoint setting table. */
 634:Generated_Source\PSoC5/USBFS_DEBUG_std.c ****             pEP = (T_USBFS_DEBUG_EP_SETTINGS_BLOCK *) pTmp->p_list;
 635:Generated_Source\PSoC5/USBFS_DEBUG_std.c ****             
 636:Generated_Source\PSoC5/USBFS_DEBUG_std.c ****             for (i = 0u; i < ep; i++)
 637:Generated_Source\PSoC5/USBFS_DEBUG_std.c ****             {     
 638:Generated_Source\PSoC5/USBFS_DEBUG_std.c ****                 /* Compare current Alternate setting with EP Alt */
 639:Generated_Source\PSoC5/USBFS_DEBUG_std.c ****                 if (USBFS_DEBUG_interfaceSetting[pEP->interface] == pEP->altSetting)
 640:Generated_Source\PSoC5/USBFS_DEBUG_std.c ****                 {                                                          
 641:Generated_Source\PSoC5/USBFS_DEBUG_std.c ****                     curEp  = pEP->addr & USBFS_DEBUG_DIR_UNUSED;
 642:Generated_Source\PSoC5/USBFS_DEBUG_std.c ****                     epType = pEP->attributes & USBFS_DEBUG_EP_TYPE_MASK;
 643:Generated_Source\PSoC5/USBFS_DEBUG_std.c ****                     
 644:Generated_Source\PSoC5/USBFS_DEBUG_std.c ****                     USBFS_DEBUG_EP[curEp].addr       = pEP->addr;
 645:Generated_Source\PSoC5/USBFS_DEBUG_std.c ****                     USBFS_DEBUG_EP[curEp].attrib     = pEP->attributes;
 646:Generated_Source\PSoC5/USBFS_DEBUG_std.c ****                     USBFS_DEBUG_EP[curEp].bufferSize = pEP->bufferSize;
 647:Generated_Source\PSoC5/USBFS_DEBUG_std.c **** 
 648:Generated_Source\PSoC5/USBFS_DEBUG_std.c ****                     if (0u != (pEP->addr & USBFS_DEBUG_DIR_IN))
 649:Generated_Source\PSoC5/USBFS_DEBUG_std.c ****                     {
 650:Generated_Source\PSoC5/USBFS_DEBUG_std.c ****                         /* IN Endpoint */
 651:Generated_Source\PSoC5/USBFS_DEBUG_std.c ****                         USBFS_DEBUG_EP[curEp].epMode     = USBFS_DEBUG_GET_ACTIVE_IN_EP_CR0_MODE(ep
 652:Generated_Source\PSoC5/USBFS_DEBUG_std.c ****                         USBFS_DEBUG_EP[curEp].apiEpState = USBFS_DEBUG_EVENT_PENDING;
 653:Generated_Source\PSoC5/USBFS_DEBUG_std.c ****                     
 654:Generated_Source\PSoC5/USBFS_DEBUG_std.c ****                     #if (defined(USBFS_DEBUG_ENABLE_MIDI_STREAMING) && (USBFS_DEBUG_MIDI_IN_BUFF_SI
 655:Generated_Source\PSoC5/USBFS_DEBUG_std.c ****                         if ((pEP->bMisc == USBFS_DEBUG_CLASS_AUDIO) && (epType == USBFS_DEBUG_EP_TY
 656:Generated_Source\PSoC5/USBFS_DEBUG_std.c ****                         {
 657:Generated_Source\PSoC5/USBFS_DEBUG_std.c ****                             USBFS_DEBUG_midi_in_ep = curEp;
 658:Generated_Source\PSoC5/USBFS_DEBUG_std.c ****                         }
 659:Generated_Source\PSoC5/USBFS_DEBUG_std.c ****                     #endif  /* (USBFS_DEBUG_ENABLE_MIDI_STREAMING) */
 660:Generated_Source\PSoC5/USBFS_DEBUG_std.c ****                     }
 661:Generated_Source\PSoC5/USBFS_DEBUG_std.c ****                     else
 662:Generated_Source\PSoC5/USBFS_DEBUG_std.c ****                     {
 663:Generated_Source\PSoC5/USBFS_DEBUG_std.c ****                         /* OUT Endpoint */
 664:Generated_Source\PSoC5/USBFS_DEBUG_std.c ****                         USBFS_DEBUG_EP[curEp].epMode     = USBFS_DEBUG_GET_ACTIVE_OUT_EP_CR0_MODE(e
 665:Generated_Source\PSoC5/USBFS_DEBUG_std.c ****                         USBFS_DEBUG_EP[curEp].apiEpState = USBFS_DEBUG_NO_EVENT_PENDING;
 666:Generated_Source\PSoC5/USBFS_DEBUG_std.c ****                         
 667:Generated_Source\PSoC5/USBFS_DEBUG_std.c ****                     #if (defined(USBFS_DEBUG_ENABLE_MIDI_STREAMING) && (USBFS_DEBUG_MIDI_OUT_BUFF_S
 668:Generated_Source\PSoC5/USBFS_DEBUG_std.c ****                         if ((pEP->bMisc == USBFS_DEBUG_CLASS_AUDIO) && (epType == USBFS_DEBUG_EP_TY
 669:Generated_Source\PSoC5/USBFS_DEBUG_std.c ****                         {
 670:Generated_Source\PSoC5/USBFS_DEBUG_std.c ****                             USBFS_DEBUG_midi_out_ep = curEp;
ARM GAS  C:\Users\yoons\AppData\Local\Temp\ccLfZPJ9.s 			page 38


 671:Generated_Source\PSoC5/USBFS_DEBUG_std.c ****                         }
 672:Generated_Source\PSoC5/USBFS_DEBUG_std.c ****                     #endif  /* (USBFS_DEBUG_ENABLE_MIDI_STREAMING) */
 673:Generated_Source\PSoC5/USBFS_DEBUG_std.c ****                     }
 674:Generated_Source\PSoC5/USBFS_DEBUG_std.c **** 
 675:Generated_Source\PSoC5/USBFS_DEBUG_std.c ****                 #if(defined (USBFS_DEBUG_ENABLE_CDC_CLASS))
 676:Generated_Source\PSoC5/USBFS_DEBUG_std.c ****                     if((pEP->bMisc == USBFS_DEBUG_CLASS_CDC_DATA) ||(pEP->bMisc == USBFS_DEBUG_CLAS
 677:Generated_Source\PSoC5/USBFS_DEBUG_std.c ****                     {
 678:Generated_Source\PSoC5/USBFS_DEBUG_std.c ****                         cdcComNums = USBFS_DEBUG_Cdc_EpInit(pEP, curEp, cdcComNums);
 679:Generated_Source\PSoC5/USBFS_DEBUG_std.c ****                     }
 680:Generated_Source\PSoC5/USBFS_DEBUG_std.c ****                 #endif  /* (USBFS_DEBUG_ENABLE_CDC_CLASS) */
 681:Generated_Source\PSoC5/USBFS_DEBUG_std.c ****                 }
 682:Generated_Source\PSoC5/USBFS_DEBUG_std.c ****                 
 683:Generated_Source\PSoC5/USBFS_DEBUG_std.c ****                 pEP = &pEP[1u];
 684:Generated_Source\PSoC5/USBFS_DEBUG_std.c ****             }
 685:Generated_Source\PSoC5/USBFS_DEBUG_std.c ****             
 686:Generated_Source\PSoC5/USBFS_DEBUG_std.c ****         #else
 687:Generated_Source\PSoC5/USBFS_DEBUG_std.c ****             for (i = USBFS_DEBUG_EP1; i < USBFS_DEBUG_MAX_EP; ++i)
 1355              		.loc 1 687 0
 1356 015a 0123     		movs	r3, #1
 1357 015c 87F82530 		strb	r3, [r7, #37]
 1358 0160 B6E0     		b	.L103
 1359              	.L115:
 688:Generated_Source\PSoC5/USBFS_DEBUG_std.c ****             {
 689:Generated_Source\PSoC5/USBFS_DEBUG_std.c ****                 /* p_list points the endpoint setting table. */
 690:Generated_Source\PSoC5/USBFS_DEBUG_std.c ****                 pEP = (const T_USBFS_DEBUG_EP_SETTINGS_BLOCK CYCODE *) pTmp->p_list;
 1360              		.loc 1 690 0
 1361 0162 7B69     		ldr	r3, [r7, #20]
 1362 0164 5B68     		ldr	r3, [r3, #4]
 1363 0166 FB61     		str	r3, [r7, #28]
 691:Generated_Source\PSoC5/USBFS_DEBUG_std.c ****                 /* Find max length for each EP and select it (length could be different in differen
 692:Generated_Source\PSoC5/USBFS_DEBUG_std.c ****                 /* but other settings should be correct with regards to Interface alt Setting */
 693:Generated_Source\PSoC5/USBFS_DEBUG_std.c ****                 
 694:Generated_Source\PSoC5/USBFS_DEBUG_std.c ****                 for (curEp = 0u; curEp < ep; ++curEp)
 1364              		.loc 1 694 0
 1365 0168 0023     		movs	r3, #0
 1366 016a 87F82630 		strb	r3, [r7, #38]
 1367 016e A3E0     		b	.L104
 1368              	.L114:
 695:Generated_Source\PSoC5/USBFS_DEBUG_std.c ****                 {
 696:Generated_Source\PSoC5/USBFS_DEBUG_std.c ****                     if (i == (pEP->addr & USBFS_DEBUG_DIR_UNUSED))
 1369              		.loc 1 696 0
 1370 0170 97F82520 		ldrb	r2, [r7, #37]	@ zero_extendqisi2
 1371 0174 FB69     		ldr	r3, [r7, #28]
 1372 0176 9B78     		ldrb	r3, [r3, #2]	@ zero_extendqisi2
 1373 0178 03F07F03 		and	r3, r3, #127
 1374 017c 9A42     		cmp	r2, r3
 1375 017e 40F09380 		bne	.L105
 697:Generated_Source\PSoC5/USBFS_DEBUG_std.c ****                     {
 698:Generated_Source\PSoC5/USBFS_DEBUG_std.c ****                         /* Compare endpoint buffers size with current size to find greater. */
 699:Generated_Source\PSoC5/USBFS_DEBUG_std.c ****                         if (USBFS_DEBUG_EP[i].bufferSize < pEP->bufferSize)
 1376              		.loc 1 699 0
 1377 0182 97F82520 		ldrb	r2, [r7, #37]	@ zero_extendqisi2
 1378 0186 5849     		ldr	r1, .L121
 1379 0188 1346     		mov	r3, r2
 1380 018a 5B00     		lsls	r3, r3, #1
 1381 018c 1344     		add	r3, r3, r2
 1382 018e 9B00     		lsls	r3, r3, #2
ARM GAS  C:\Users\yoons\AppData\Local\Temp\ccLfZPJ9.s 			page 39


 1383 0190 0B44     		add	r3, r3, r1
 1384 0192 0833     		adds	r3, r3, #8
 1385 0194 1B88     		ldrh	r3, [r3]	@ movhi
 1386 0196 9AB2     		uxth	r2, r3
 1387 0198 FB69     		ldr	r3, [r7, #28]
 1388 019a 9B88     		ldrh	r3, [r3, #4]
 1389 019c 9A42     		cmp	r2, r3
 1390 019e 0CD2     		bcs	.L106
 700:Generated_Source\PSoC5/USBFS_DEBUG_std.c ****                         {
 701:Generated_Source\PSoC5/USBFS_DEBUG_std.c ****                             USBFS_DEBUG_EP[i].bufferSize = pEP->bufferSize;
 1391              		.loc 1 701 0
 1392 01a0 97F82520 		ldrb	r2, [r7, #37]	@ zero_extendqisi2
 1393 01a4 FB69     		ldr	r3, [r7, #28]
 1394 01a6 9888     		ldrh	r0, [r3, #4]
 1395 01a8 4F49     		ldr	r1, .L121
 1396 01aa 1346     		mov	r3, r2
 1397 01ac 5B00     		lsls	r3, r3, #1
 1398 01ae 1344     		add	r3, r3, r2
 1399 01b0 9B00     		lsls	r3, r3, #2
 1400 01b2 0B44     		add	r3, r3, r1
 1401 01b4 0833     		adds	r3, r3, #8
 1402 01b6 0246     		mov	r2, r0	@ movhi
 1403 01b8 1A80     		strh	r2, [r3]	@ movhi
 1404              	.L106:
 702:Generated_Source\PSoC5/USBFS_DEBUG_std.c ****                         }
 703:Generated_Source\PSoC5/USBFS_DEBUG_std.c ****                         
 704:Generated_Source\PSoC5/USBFS_DEBUG_std.c ****                         /* Compare current Alternate setting with EP Alt */
 705:Generated_Source\PSoC5/USBFS_DEBUG_std.c ****                         if (USBFS_DEBUG_interfaceSetting[pEP->interface] == pEP->altSetting)
 1405              		.loc 1 705 0
 1406 01ba FB69     		ldr	r3, [r7, #28]
 1407 01bc 1B78     		ldrb	r3, [r3]	@ zero_extendqisi2
 1408 01be 1A46     		mov	r2, r3
 1409 01c0 4A4B     		ldr	r3, .L121+4
 1410 01c2 9B5C     		ldrb	r3, [r3, r2]
 1411 01c4 DAB2     		uxtb	r2, r3
 1412 01c6 FB69     		ldr	r3, [r7, #28]
 1413 01c8 5B78     		ldrb	r3, [r3, #1]	@ zero_extendqisi2
 1414 01ca 9A42     		cmp	r2, r3
 1415 01cc 6CD1     		bne	.L105
 706:Generated_Source\PSoC5/USBFS_DEBUG_std.c ****                         {                            
 707:Generated_Source\PSoC5/USBFS_DEBUG_std.c ****                             USBFS_DEBUG_EP[i].addr = pEP->addr;
 1416              		.loc 1 707 0
 1417 01ce 97F82520 		ldrb	r2, [r7, #37]	@ zero_extendqisi2
 1418 01d2 FB69     		ldr	r3, [r7, #28]
 1419 01d4 9878     		ldrb	r0, [r3, #2]	@ zero_extendqisi2
 1420 01d6 4449     		ldr	r1, .L121
 1421 01d8 1346     		mov	r3, r2
 1422 01da 5B00     		lsls	r3, r3, #1
 1423 01dc 1344     		add	r3, r3, r2
 1424 01de 9B00     		lsls	r3, r3, #2
 1425 01e0 0B44     		add	r3, r3, r1
 1426 01e2 0433     		adds	r3, r3, #4
 1427 01e4 0246     		mov	r2, r0
 1428 01e6 1A70     		strb	r2, [r3]
 708:Generated_Source\PSoC5/USBFS_DEBUG_std.c ****                             USBFS_DEBUG_EP[i].attrib = pEP->attributes;
 1429              		.loc 1 708 0
 1430 01e8 97F82520 		ldrb	r2, [r7, #37]	@ zero_extendqisi2
ARM GAS  C:\Users\yoons\AppData\Local\Temp\ccLfZPJ9.s 			page 40


 1431 01ec FB69     		ldr	r3, [r7, #28]
 1432 01ee D878     		ldrb	r0, [r3, #3]	@ zero_extendqisi2
 1433 01f0 3D49     		ldr	r1, .L121
 1434 01f2 1346     		mov	r3, r2
 1435 01f4 5B00     		lsls	r3, r3, #1
 1436 01f6 1344     		add	r3, r3, r2
 1437 01f8 9B00     		lsls	r3, r3, #2
 1438 01fa 0B44     		add	r3, r3, r1
 1439 01fc 0246     		mov	r2, r0
 1440 01fe 1A70     		strb	r2, [r3]
 709:Generated_Source\PSoC5/USBFS_DEBUG_std.c ****                             
 710:Generated_Source\PSoC5/USBFS_DEBUG_std.c ****                             epType = pEP->attributes & USBFS_DEBUG_EP_TYPE_MASK;
 1441              		.loc 1 710 0
 1442 0200 FB69     		ldr	r3, [r7, #28]
 1443 0202 DB78     		ldrb	r3, [r3, #3]	@ zero_extendqisi2
 1444 0204 03F00303 		and	r3, r3, #3
 1445 0208 FB73     		strb	r3, [r7, #15]
 711:Generated_Source\PSoC5/USBFS_DEBUG_std.c ****                             
 712:Generated_Source\PSoC5/USBFS_DEBUG_std.c ****                             if (0u != (pEP->addr & USBFS_DEBUG_DIR_IN))
 1446              		.loc 1 712 0
 1447 020a FB69     		ldr	r3, [r7, #28]
 1448 020c 9B78     		ldrb	r3, [r3, #2]	@ zero_extendqisi2
 1449 020e 5BB2     		sxtb	r3, r3
 1450 0210 002B     		cmp	r3, #0
 1451 0212 1CDA     		bge	.L107
 713:Generated_Source\PSoC5/USBFS_DEBUG_std.c ****                             {
 714:Generated_Source\PSoC5/USBFS_DEBUG_std.c ****                                 /* IN Endpoint */
 715:Generated_Source\PSoC5/USBFS_DEBUG_std.c ****                                 USBFS_DEBUG_EP[i].epMode     = USBFS_DEBUG_GET_ACTIVE_IN_EP_CR0_MOD
 1452              		.loc 1 715 0
 1453 0214 97F82520 		ldrb	r2, [r7, #37]	@ zero_extendqisi2
 1454 0218 FB7B     		ldrb	r3, [r7, #15]	@ zero_extendqisi2
 1455 021a 012B     		cmp	r3, #1
 1456 021c 01D1     		bne	.L108
 1457              		.loc 1 715 0 is_stmt 0 discriminator 1
 1458 021e 0720     		movs	r0, #7
 1459 0220 00E0     		b	.L109
 1460              	.L108:
 1461              		.loc 1 715 0 discriminator 2
 1462 0222 0D20     		movs	r0, #13
 1463              	.L109:
 1464              		.loc 1 715 0 discriminator 4
 1465 0224 3049     		ldr	r1, .L121
 1466 0226 1346     		mov	r3, r2
 1467 0228 5B00     		lsls	r3, r3, #1
 1468 022a 1344     		add	r3, r3, r2
 1469 022c 9B00     		lsls	r3, r3, #2
 1470 022e 0B44     		add	r3, r3, r1
 1471 0230 0533     		adds	r3, r3, #5
 1472 0232 0246     		mov	r2, r0
 1473 0234 1A70     		strb	r2, [r3]
 716:Generated_Source\PSoC5/USBFS_DEBUG_std.c ****                                 USBFS_DEBUG_EP[i].apiEpState = USBFS_DEBUG_EVENT_PENDING;
 1474              		.loc 1 716 0 is_stmt 1 discriminator 4
 1475 0236 97F82520 		ldrb	r2, [r7, #37]	@ zero_extendqisi2
 1476 023a 2B49     		ldr	r1, .L121
 1477 023c 1346     		mov	r3, r2
 1478 023e 5B00     		lsls	r3, r3, #1
 1479 0240 1344     		add	r3, r3, r2
ARM GAS  C:\Users\yoons\AppData\Local\Temp\ccLfZPJ9.s 			page 41


 1480 0242 9B00     		lsls	r3, r3, #2
 1481 0244 0B44     		add	r3, r3, r1
 1482 0246 0133     		adds	r3, r3, #1
 1483 0248 0122     		movs	r2, #1
 1484 024a 1A70     		strb	r2, [r3]
 1485 024c 1BE0     		b	.L110
 1486              	.L107:
 717:Generated_Source\PSoC5/USBFS_DEBUG_std.c ****                                 
 718:Generated_Source\PSoC5/USBFS_DEBUG_std.c ****                             #if (defined(USBFS_DEBUG_ENABLE_MIDI_STREAMING) && (USBFS_DEBUG_MIDI_IN
 719:Generated_Source\PSoC5/USBFS_DEBUG_std.c ****                                 if ((pEP->bMisc == USBFS_DEBUG_CLASS_AUDIO) && (epType == USBFS_DEB
 720:Generated_Source\PSoC5/USBFS_DEBUG_std.c ****                                 {
 721:Generated_Source\PSoC5/USBFS_DEBUG_std.c ****                                     USBFS_DEBUG_midi_in_ep = i;
 722:Generated_Source\PSoC5/USBFS_DEBUG_std.c ****                                 }
 723:Generated_Source\PSoC5/USBFS_DEBUG_std.c ****                             #endif  /* (USBFS_DEBUG_ENABLE_MIDI_STREAMING) */
 724:Generated_Source\PSoC5/USBFS_DEBUG_std.c ****                             }
 725:Generated_Source\PSoC5/USBFS_DEBUG_std.c ****                             else
 726:Generated_Source\PSoC5/USBFS_DEBUG_std.c ****                             {
 727:Generated_Source\PSoC5/USBFS_DEBUG_std.c ****                                 /* OUT Endpoint */
 728:Generated_Source\PSoC5/USBFS_DEBUG_std.c ****                                 USBFS_DEBUG_EP[i].epMode     = USBFS_DEBUG_GET_ACTIVE_OUT_EP_CR0_MO
 1487              		.loc 1 728 0
 1488 024e 97F82520 		ldrb	r2, [r7, #37]	@ zero_extendqisi2
 1489 0252 FB7B     		ldrb	r3, [r7, #15]	@ zero_extendqisi2
 1490 0254 012B     		cmp	r3, #1
 1491 0256 01D1     		bne	.L111
 1492              		.loc 1 728 0 is_stmt 0 discriminator 1
 1493 0258 0520     		movs	r0, #5
 1494 025a 00E0     		b	.L112
 1495              	.L111:
 1496              		.loc 1 728 0 discriminator 2
 1497 025c 0920     		movs	r0, #9
 1498              	.L112:
 1499              		.loc 1 728 0 discriminator 4
 1500 025e 2249     		ldr	r1, .L121
 1501 0260 1346     		mov	r3, r2
 1502 0262 5B00     		lsls	r3, r3, #1
 1503 0264 1344     		add	r3, r3, r2
 1504 0266 9B00     		lsls	r3, r3, #2
 1505 0268 0B44     		add	r3, r3, r1
 1506 026a 0533     		adds	r3, r3, #5
 1507 026c 0246     		mov	r2, r0
 1508 026e 1A70     		strb	r2, [r3]
 729:Generated_Source\PSoC5/USBFS_DEBUG_std.c ****                                 USBFS_DEBUG_EP[i].apiEpState = USBFS_DEBUG_NO_EVENT_PENDING;
 1509              		.loc 1 729 0 is_stmt 1 discriminator 4
 1510 0270 97F82520 		ldrb	r2, [r7, #37]	@ zero_extendqisi2
 1511 0274 1C49     		ldr	r1, .L121
 1512 0276 1346     		mov	r3, r2
 1513 0278 5B00     		lsls	r3, r3, #1
 1514 027a 1344     		add	r3, r3, r2
 1515 027c 9B00     		lsls	r3, r3, #2
 1516 027e 0B44     		add	r3, r3, r1
 1517 0280 0133     		adds	r3, r3, #1
 1518 0282 0022     		movs	r2, #0
 1519 0284 1A70     		strb	r2, [r3]
 1520              	.L110:
 730:Generated_Source\PSoC5/USBFS_DEBUG_std.c ****                                 
 731:Generated_Source\PSoC5/USBFS_DEBUG_std.c ****                             #if (defined(USBFS_DEBUG_ENABLE_MIDI_STREAMING) && (USBFS_DEBUG_MIDI_OU
 732:Generated_Source\PSoC5/USBFS_DEBUG_std.c ****                                 if ((pEP->bMisc == USBFS_DEBUG_CLASS_AUDIO) && (epType == USBFS_DEB
ARM GAS  C:\Users\yoons\AppData\Local\Temp\ccLfZPJ9.s 			page 42


 733:Generated_Source\PSoC5/USBFS_DEBUG_std.c ****                                 {
 734:Generated_Source\PSoC5/USBFS_DEBUG_std.c ****                                     USBFS_DEBUG_midi_out_ep = i;
 735:Generated_Source\PSoC5/USBFS_DEBUG_std.c ****                                 }
 736:Generated_Source\PSoC5/USBFS_DEBUG_std.c ****                             #endif  /* (USBFS_DEBUG_ENABLE_MIDI_STREAMING) */
 737:Generated_Source\PSoC5/USBFS_DEBUG_std.c ****                             }
 738:Generated_Source\PSoC5/USBFS_DEBUG_std.c **** 
 739:Generated_Source\PSoC5/USBFS_DEBUG_std.c ****                         #if (defined(USBFS_DEBUG_ENABLE_CDC_CLASS))
 740:Generated_Source\PSoC5/USBFS_DEBUG_std.c ****                             if((pEP->bMisc == USBFS_DEBUG_CLASS_CDC_DATA) ||(pEP->bMisc == USBFS_DE
 1521              		.loc 1 740 0
 1522 0286 FB69     		ldr	r3, [r7, #28]
 1523 0288 9B79     		ldrb	r3, [r3, #6]	@ zero_extendqisi2
 1524 028a 0A2B     		cmp	r3, #10
 1525 028c 03D0     		beq	.L113
 1526              		.loc 1 740 0 is_stmt 0 discriminator 1
 1527 028e FB69     		ldr	r3, [r7, #28]
 1528 0290 9B79     		ldrb	r3, [r3, #6]	@ zero_extendqisi2
 1529 0292 022B     		cmp	r3, #2
 1530 0294 08D1     		bne	.L105
 1531              	.L113:
 741:Generated_Source\PSoC5/USBFS_DEBUG_std.c ****                             {
 742:Generated_Source\PSoC5/USBFS_DEBUG_std.c ****                                 cdcComNums = USBFS_DEBUG_Cdc_EpInit(pEP, i, cdcComNums);
 1532              		.loc 1 742 0 is_stmt 1
 1533 0296 FA7E     		ldrb	r2, [r7, #27]	@ zero_extendqisi2
 1534 0298 97F82530 		ldrb	r3, [r7, #37]	@ zero_extendqisi2
 1535 029c 1946     		mov	r1, r3
 1536 029e F869     		ldr	r0, [r7, #28]
 1537 02a0 FFF7FEFF 		bl	USBFS_DEBUG_Cdc_EpInit
 1538 02a4 0346     		mov	r3, r0
 1539 02a6 FB76     		strb	r3, [r7, #27]
 1540              	.L105:
 743:Generated_Source\PSoC5/USBFS_DEBUG_std.c ****                             }
 744:Generated_Source\PSoC5/USBFS_DEBUG_std.c ****                         #endif  /* (USBFS_DEBUG_ENABLE_CDC_CLASS) */
 745:Generated_Source\PSoC5/USBFS_DEBUG_std.c **** 
 746:Generated_Source\PSoC5/USBFS_DEBUG_std.c ****                             #if (USBFS_DEBUG_EP_MANAGEMENT_DMA_AUTO)
 747:Generated_Source\PSoC5/USBFS_DEBUG_std.c ****                                 break;  /* Use first EP setting in Auto memory management */
 748:Generated_Source\PSoC5/USBFS_DEBUG_std.c ****                             #endif /* (USBFS_DEBUG_EP_MANAGEMENT_DMA_AUTO) */
 749:Generated_Source\PSoC5/USBFS_DEBUG_std.c ****                         }
 750:Generated_Source\PSoC5/USBFS_DEBUG_std.c ****                     }
 751:Generated_Source\PSoC5/USBFS_DEBUG_std.c ****                     
 752:Generated_Source\PSoC5/USBFS_DEBUG_std.c ****                     pEP = &pEP[1u];
 1541              		.loc 1 752 0 discriminator 2
 1542 02a8 FB69     		ldr	r3, [r7, #28]
 1543 02aa 0833     		adds	r3, r3, #8
 1544 02ac FB61     		str	r3, [r7, #28]
 694:Generated_Source\PSoC5/USBFS_DEBUG_std.c ****                 {
 1545              		.loc 1 694 0 discriminator 2
 1546 02ae 97F82630 		ldrb	r3, [r7, #38]
 1547 02b2 0133     		adds	r3, r3, #1
 1548 02b4 87F82630 		strb	r3, [r7, #38]
 1549              	.L104:
 694:Generated_Source\PSoC5/USBFS_DEBUG_std.c ****                 {
 1550              		.loc 1 694 0 is_stmt 0 discriminator 1
 1551 02b8 97F82620 		ldrb	r2, [r7, #38]	@ zero_extendqisi2
 1552 02bc 97F82730 		ldrb	r3, [r7, #39]	@ zero_extendqisi2
 1553 02c0 9A42     		cmp	r2, r3
 1554 02c2 FFF455AF 		bcc	.L114
 687:Generated_Source\PSoC5/USBFS_DEBUG_std.c ****             {
ARM GAS  C:\Users\yoons\AppData\Local\Temp\ccLfZPJ9.s 			page 43


 1555              		.loc 1 687 0 is_stmt 1 discriminator 2
 1556 02c6 97F82530 		ldrb	r3, [r7, #37]
 1557 02ca 0133     		adds	r3, r3, #1
 1558 02cc 87F82530 		strb	r3, [r7, #37]
 1559              	.L103:
 687:Generated_Source\PSoC5/USBFS_DEBUG_std.c ****             {
 1560              		.loc 1 687 0 is_stmt 0 discriminator 1
 1561 02d0 97F82530 		ldrb	r3, [r7, #37]	@ zero_extendqisi2
 1562 02d4 082B     		cmp	r3, #8
 1563 02d6 7FF644AF 		bls	.L115
 753:Generated_Source\PSoC5/USBFS_DEBUG_std.c ****                 }
 754:Generated_Source\PSoC5/USBFS_DEBUG_std.c ****             }
 755:Generated_Source\PSoC5/USBFS_DEBUG_std.c ****         #endif /*  (USBFS_DEBUG_EP_MANAGEMENT_MANUAL && USBFS_DEBUG_EP_ALLOC_DYNAMIC) */
 756:Generated_Source\PSoC5/USBFS_DEBUG_std.c **** 
 757:Generated_Source\PSoC5/USBFS_DEBUG_std.c ****         /* Init class array for each interface and interface number for each EP.
 758:Generated_Source\PSoC5/USBFS_DEBUG_std.c ****         *  It is used for handling Class specific requests directed to either an
 759:Generated_Source\PSoC5/USBFS_DEBUG_std.c ****         *  interface or the endpoint.
 760:Generated_Source\PSoC5/USBFS_DEBUG_std.c ****         */
 761:Generated_Source\PSoC5/USBFS_DEBUG_std.c ****         /* p_list points the endpoint setting table. */
 762:Generated_Source\PSoC5/USBFS_DEBUG_std.c ****         pEP = (const T_USBFS_DEBUG_EP_SETTINGS_BLOCK CYCODE *) pTmp->p_list;
 1564              		.loc 1 762 0 is_stmt 1
 1565 02da 7B69     		ldr	r3, [r7, #20]
 1566 02dc 5B68     		ldr	r3, [r3, #4]
 1567 02de FB61     		str	r3, [r7, #28]
 763:Generated_Source\PSoC5/USBFS_DEBUG_std.c ****         for (i = 0u; i < ep; i++)
 1568              		.loc 1 763 0
 1569 02e0 0023     		movs	r3, #0
 1570 02e2 87F82530 		strb	r3, [r7, #37]
 1571 02e6 20E0     		b	.L116
 1572              	.L122:
 1573              		.align	2
 1574              	.L121:
 1575 02e8 00000000 		.word	USBFS_DEBUG_EP
 1576 02ec 00000000 		.word	USBFS_DEBUG_interfaceSetting
 1577 02f0 00000000 		.word	USBFS_DEBUG_interfaceSettingLast
 1578 02f4 00000000 		.word	USBFS_DEBUG_configuration
 1579 02f8 00000000 		.word	USBFS_DEBUG_deviceStatus
 1580              	.L117:
 764:Generated_Source\PSoC5/USBFS_DEBUG_std.c ****         {
 765:Generated_Source\PSoC5/USBFS_DEBUG_std.c ****             /* Configure interface number for each EP */
 766:Generated_Source\PSoC5/USBFS_DEBUG_std.c ****             USBFS_DEBUG_EP[pEP->addr & USBFS_DEBUG_DIR_UNUSED].interface = pEP->interface;
 1581              		.loc 1 766 0 discriminator 3
 1582 02fc FB69     		ldr	r3, [r7, #28]
 1583 02fe 9B78     		ldrb	r3, [r3, #2]	@ zero_extendqisi2
 1584 0300 03F07F02 		and	r2, r3, #127
 1585 0304 FB69     		ldr	r3, [r7, #28]
 1586 0306 1878     		ldrb	r0, [r3]	@ zero_extendqisi2
 1587 0308 2449     		ldr	r1, .L123
 1588 030a 1346     		mov	r3, r2
 1589 030c 5B00     		lsls	r3, r3, #1
 1590 030e 1344     		add	r3, r3, r2
 1591 0310 9B00     		lsls	r3, r3, #2
 1592 0312 0B44     		add	r3, r3, r1
 1593 0314 0A33     		adds	r3, r3, #10
 1594 0316 0246     		mov	r2, r0
 1595 0318 1A70     		strb	r2, [r3]
 767:Generated_Source\PSoC5/USBFS_DEBUG_std.c ****             pEP = &pEP[1u];
ARM GAS  C:\Users\yoons\AppData\Local\Temp\ccLfZPJ9.s 			page 44


 1596              		.loc 1 767 0 discriminator 3
 1597 031a FB69     		ldr	r3, [r7, #28]
 1598 031c 0833     		adds	r3, r3, #8
 1599 031e FB61     		str	r3, [r7, #28]
 763:Generated_Source\PSoC5/USBFS_DEBUG_std.c ****         for (i = 0u; i < ep; i++)
 1600              		.loc 1 763 0 discriminator 3
 1601 0320 97F82530 		ldrb	r3, [r7, #37]	@ zero_extendqisi2
 1602 0324 0133     		adds	r3, r3, #1
 1603 0326 87F82530 		strb	r3, [r7, #37]
 1604              	.L116:
 763:Generated_Source\PSoC5/USBFS_DEBUG_std.c ****         for (i = 0u; i < ep; i++)
 1605              		.loc 1 763 0 is_stmt 0 discriminator 1
 1606 032a 97F82520 		ldrb	r2, [r7, #37]	@ zero_extendqisi2
 1607 032e 97F82730 		ldrb	r3, [r7, #39]	@ zero_extendqisi2
 1608 0332 9A42     		cmp	r2, r3
 1609 0334 E2D3     		bcc	.L117
 768:Generated_Source\PSoC5/USBFS_DEBUG_std.c ****         }
 769:Generated_Source\PSoC5/USBFS_DEBUG_std.c ****         
 770:Generated_Source\PSoC5/USBFS_DEBUG_std.c ****         /* Init pointer on interface class table */
 771:Generated_Source\PSoC5/USBFS_DEBUG_std.c ****         USBFS_DEBUG_interfaceClass = USBFS_DEBUG_GetInterfaceClassTablePtr();
 1610              		.loc 1 771 0 is_stmt 1
 1611 0336 FFF7FEFF 		bl	USBFS_DEBUG_GetInterfaceClassTablePtr
 1612 033a 0246     		mov	r2, r0
 1613 033c 184B     		ldr	r3, .L123+4
 1614 033e 1A60     		str	r2, [r3]
 772:Generated_Source\PSoC5/USBFS_DEBUG_std.c ****         
 773:Generated_Source\PSoC5/USBFS_DEBUG_std.c ****     /* Set the endpoint buffer addresses */
 774:Generated_Source\PSoC5/USBFS_DEBUG_std.c ****     #if (!USBFS_DEBUG_EP_MANAGEMENT_DMA_AUTO)
 775:Generated_Source\PSoC5/USBFS_DEBUG_std.c ****         buffCount = 0u;
 1615              		.loc 1 775 0
 1616 0340 0023     		movs	r3, #0
 1617 0342 7B84     		strh	r3, [r7, #34]	@ movhi
 776:Generated_Source\PSoC5/USBFS_DEBUG_std.c ****         for (ep = USBFS_DEBUG_EP1; ep < USBFS_DEBUG_MAX_EP; ++ep)
 1618              		.loc 1 776 0
 1619 0344 0123     		movs	r3, #1
 1620 0346 87F82730 		strb	r3, [r7, #39]
 1621 034a 1DE0     		b	.L118
 1622              	.L119:
 777:Generated_Source\PSoC5/USBFS_DEBUG_std.c ****         {
 778:Generated_Source\PSoC5/USBFS_DEBUG_std.c ****             USBFS_DEBUG_EP[ep].buffOffset = buffCount;        
 1623              		.loc 1 778 0 discriminator 3
 1624 034c 97F82720 		ldrb	r2, [r7, #39]	@ zero_extendqisi2
 1625 0350 1249     		ldr	r1, .L123
 1626 0352 1346     		mov	r3, r2
 1627 0354 5B00     		lsls	r3, r3, #1
 1628 0356 1344     		add	r3, r3, r2
 1629 0358 9B00     		lsls	r3, r3, #2
 1630 035a 0B44     		add	r3, r3, r1
 1631 035c 0633     		adds	r3, r3, #6
 1632 035e 7A8C     		ldrh	r2, [r7, #34]	@ movhi
 1633 0360 1A80     		strh	r2, [r3]	@ movhi
 779:Generated_Source\PSoC5/USBFS_DEBUG_std.c ****             buffCount += USBFS_DEBUG_EP[ep].bufferSize;
 1634              		.loc 1 779 0 discriminator 3
 1635 0362 97F82720 		ldrb	r2, [r7, #39]	@ zero_extendqisi2
 1636 0366 0D49     		ldr	r1, .L123
 1637 0368 1346     		mov	r3, r2
 1638 036a 5B00     		lsls	r3, r3, #1
ARM GAS  C:\Users\yoons\AppData\Local\Temp\ccLfZPJ9.s 			page 45


 1639 036c 1344     		add	r3, r3, r2
 1640 036e 9B00     		lsls	r3, r3, #2
 1641 0370 0B44     		add	r3, r3, r1
 1642 0372 0833     		adds	r3, r3, #8
 1643 0374 1B88     		ldrh	r3, [r3]	@ movhi
 1644 0376 9AB2     		uxth	r2, r3
 1645 0378 7B8C     		ldrh	r3, [r7, #34]	@ movhi
 1646 037a 1344     		add	r3, r3, r2
 1647 037c 7B84     		strh	r3, [r7, #34]	@ movhi
 776:Generated_Source\PSoC5/USBFS_DEBUG_std.c ****         for (ep = USBFS_DEBUG_EP1; ep < USBFS_DEBUG_MAX_EP; ++ep)
 1648              		.loc 1 776 0 discriminator 3
 1649 037e 97F82730 		ldrb	r3, [r7, #39]
 1650 0382 0133     		adds	r3, r3, #1
 1651 0384 87F82730 		strb	r3, [r7, #39]
 1652              	.L118:
 776:Generated_Source\PSoC5/USBFS_DEBUG_std.c ****         for (ep = USBFS_DEBUG_EP1; ep < USBFS_DEBUG_MAX_EP; ++ep)
 1653              		.loc 1 776 0 is_stmt 0 discriminator 1
 1654 0388 97F82730 		ldrb	r3, [r7, #39]	@ zero_extendqisi2
 1655 038c 082B     		cmp	r3, #8
 1656 038e DDD9     		bls	.L119
 780:Generated_Source\PSoC5/USBFS_DEBUG_std.c ****             
 781:Generated_Source\PSoC5/USBFS_DEBUG_std.c ****         #if (USBFS_DEBUG_GEN_16BITS_EP_ACCESS)
 782:Generated_Source\PSoC5/USBFS_DEBUG_std.c ****             /* Align EP buffers to be event size to access 16-bits DR register. */
 783:Generated_Source\PSoC5/USBFS_DEBUG_std.c ****             buffCount += (0u != (buffCount & 0x01u)) ? 1u : 0u;
 784:Generated_Source\PSoC5/USBFS_DEBUG_std.c ****         #endif /* (USBFS_DEBUG_GEN_16BITS_EP_ACCESS) */            
 785:Generated_Source\PSoC5/USBFS_DEBUG_std.c ****         }
 786:Generated_Source\PSoC5/USBFS_DEBUG_std.c ****     #endif /* (!USBFS_DEBUG_EP_MANAGEMENT_DMA_AUTO) */
 787:Generated_Source\PSoC5/USBFS_DEBUG_std.c **** 
 788:Generated_Source\PSoC5/USBFS_DEBUG_std.c ****         /* Configure hardware registers */
 789:Generated_Source\PSoC5/USBFS_DEBUG_std.c ****         USBFS_DEBUG_ConfigReg();
 1657              		.loc 1 789 0 is_stmt 1
 1658 0390 FFF7FEFF 		bl	USBFS_DEBUG_ConfigReg
 1659              	.L120:
 1660              	.LBE2:
 790:Generated_Source\PSoC5/USBFS_DEBUG_std.c ****     }
 791:Generated_Source\PSoC5/USBFS_DEBUG_std.c **** }
 1661              		.loc 1 791 0
 1662 0394 00BF     		nop
 1663 0396 2837     		adds	r7, r7, #40
 1664              		.cfi_def_cfa_offset 8
 1665 0398 BD46     		mov	sp, r7
 1666              		.cfi_def_cfa_register 13
 1667              		@ sp needed
 1668 039a 80BD     		pop	{r7, pc}
 1669              	.L124:
 1670              		.align	2
 1671              	.L123:
 1672 039c 00000000 		.word	USBFS_DEBUG_EP
 1673 03a0 00000000 		.word	USBFS_DEBUG_interfaceClass
 1674              		.cfi_endproc
 1675              	.LFE4:
 1676              		.size	USBFS_DEBUG_Config, .-USBFS_DEBUG_Config
 1677              		.section	.text.USBFS_DEBUG_ConfigAltChanged,"ax",%progbits
 1678              		.align	2
 1679              		.global	USBFS_DEBUG_ConfigAltChanged
 1680              		.thumb
 1681              		.thumb_func
ARM GAS  C:\Users\yoons\AppData\Local\Temp\ccLfZPJ9.s 			page 46


 1682              		.type	USBFS_DEBUG_ConfigAltChanged, %function
 1683              	USBFS_DEBUG_ConfigAltChanged:
 1684              	.LFB5:
 792:Generated_Source\PSoC5/USBFS_DEBUG_std.c **** 
 793:Generated_Source\PSoC5/USBFS_DEBUG_std.c **** 
 794:Generated_Source\PSoC5/USBFS_DEBUG_std.c **** /*******************************************************************************
 795:Generated_Source\PSoC5/USBFS_DEBUG_std.c **** * Function Name: USBFS_DEBUG_ConfigAltChanged
 796:Generated_Source\PSoC5/USBFS_DEBUG_std.c **** ****************************************************************************//**
 797:Generated_Source\PSoC5/USBFS_DEBUG_std.c **** *
 798:Generated_Source\PSoC5/USBFS_DEBUG_std.c **** *  This routine update configuration for the required endpoints only.
 799:Generated_Source\PSoC5/USBFS_DEBUG_std.c **** *  It is called after SET_INTERFACE request when Static memory allocation used.
 800:Generated_Source\PSoC5/USBFS_DEBUG_std.c **** *
 801:Generated_Source\PSoC5/USBFS_DEBUG_std.c **** * \reentrant
 802:Generated_Source\PSoC5/USBFS_DEBUG_std.c **** *  No.
 803:Generated_Source\PSoC5/USBFS_DEBUG_std.c **** *
 804:Generated_Source\PSoC5/USBFS_DEBUG_std.c **** *******************************************************************************/
 805:Generated_Source\PSoC5/USBFS_DEBUG_std.c **** void USBFS_DEBUG_ConfigAltChanged(void) 
 806:Generated_Source\PSoC5/USBFS_DEBUG_std.c **** {
 1685              		.loc 1 806 0
 1686              		.cfi_startproc
 1687              		@ args = 0, pretend = 0, frame = 16
 1688              		@ frame_needed = 1, uses_anonymous_args = 0
 1689 0000 90B5     		push	{r4, r7, lr}
 1690              		.cfi_def_cfa_offset 12
 1691              		.cfi_offset 4, -12
 1692              		.cfi_offset 7, -8
 1693              		.cfi_offset 14, -4
 1694 0002 85B0     		sub	sp, sp, #20
 1695              		.cfi_def_cfa_offset 32
 1696 0004 00AF     		add	r7, sp, #0
 1697              		.cfi_def_cfa_register 7
 807:Generated_Source\PSoC5/USBFS_DEBUG_std.c ****     uint8 ep;
 808:Generated_Source\PSoC5/USBFS_DEBUG_std.c ****     uint8 curEp;
 809:Generated_Source\PSoC5/USBFS_DEBUG_std.c ****     uint8 epType;
 810:Generated_Source\PSoC5/USBFS_DEBUG_std.c ****     uint8 i;
 811:Generated_Source\PSoC5/USBFS_DEBUG_std.c ****     uint8 interfaceNum;
 812:Generated_Source\PSoC5/USBFS_DEBUG_std.c **** 
 813:Generated_Source\PSoC5/USBFS_DEBUG_std.c ****     const T_USBFS_DEBUG_LUT CYCODE *pTmp;
 814:Generated_Source\PSoC5/USBFS_DEBUG_std.c ****     const T_USBFS_DEBUG_EP_SETTINGS_BLOCK CYCODE *pEP;
 815:Generated_Source\PSoC5/USBFS_DEBUG_std.c **** 
 816:Generated_Source\PSoC5/USBFS_DEBUG_std.c ****     /* Init Endpoints and Device Status if configured */
 817:Generated_Source\PSoC5/USBFS_DEBUG_std.c ****     if (USBFS_DEBUG_configuration > 0u)
 1698              		.loc 1 817 0
 1699 0006 8F4B     		ldr	r3, .L137
 1700 0008 1B78     		ldrb	r3, [r3]
 1701 000a DBB2     		uxtb	r3, r3
 1702 000c 002B     		cmp	r3, #0
 1703 000e 00F01581 		beq	.L136
 818:Generated_Source\PSoC5/USBFS_DEBUG_std.c ****     {
 819:Generated_Source\PSoC5/USBFS_DEBUG_std.c ****         /* Get number of endpoints configurations (ep). */
 820:Generated_Source\PSoC5/USBFS_DEBUG_std.c ****         pTmp = USBFS_DEBUG_GetConfigTablePtr(USBFS_DEBUG_configuration - 1u);
 1704              		.loc 1 820 0
 1705 0012 8C4B     		ldr	r3, .L137
 1706 0014 1B78     		ldrb	r3, [r3]
 1707 0016 DBB2     		uxtb	r3, r3
 1708 0018 013B     		subs	r3, r3, #1
 1709 001a DBB2     		uxtb	r3, r3
ARM GAS  C:\Users\yoons\AppData\Local\Temp\ccLfZPJ9.s 			page 47


 1710 001c 1846     		mov	r0, r3
 1711 001e FFF7FEFF 		bl	USBFS_DEBUG_GetConfigTablePtr
 1712 0022 7860     		str	r0, [r7, #4]
 821:Generated_Source\PSoC5/USBFS_DEBUG_std.c ****         pTmp = &pTmp[1u];
 1713              		.loc 1 821 0
 1714 0024 7B68     		ldr	r3, [r7, #4]
 1715 0026 0833     		adds	r3, r3, #8
 1716 0028 7B60     		str	r3, [r7, #4]
 822:Generated_Source\PSoC5/USBFS_DEBUG_std.c ****         ep = pTmp->c;
 1717              		.loc 1 822 0
 1718 002a 7B68     		ldr	r3, [r7, #4]
 1719 002c 1B78     		ldrb	r3, [r3]
 1720 002e FB70     		strb	r3, [r7, #3]
 823:Generated_Source\PSoC5/USBFS_DEBUG_std.c **** 
 824:Generated_Source\PSoC5/USBFS_DEBUG_std.c ****         /* Get pointer to endpoints setting table (pEP). */
 825:Generated_Source\PSoC5/USBFS_DEBUG_std.c ****         pEP = (const T_USBFS_DEBUG_EP_SETTINGS_BLOCK CYCODE *) pTmp->p_list;
 1721              		.loc 1 825 0
 1722 0030 7B68     		ldr	r3, [r7, #4]
 1723 0032 5B68     		ldr	r3, [r3, #4]
 1724 0034 BB60     		str	r3, [r7, #8]
 826:Generated_Source\PSoC5/USBFS_DEBUG_std.c ****         
 827:Generated_Source\PSoC5/USBFS_DEBUG_std.c ****         /* Look through all possible endpoint configurations. Find endpoints 
 828:Generated_Source\PSoC5/USBFS_DEBUG_std.c ****         * which belong to current interface and alternate settings for 
 829:Generated_Source\PSoC5/USBFS_DEBUG_std.c ****         * re-configuration.
 830:Generated_Source\PSoC5/USBFS_DEBUG_std.c ****         */
 831:Generated_Source\PSoC5/USBFS_DEBUG_std.c ****         interfaceNum = USBFS_DEBUG_interfaceNumber;
 1725              		.loc 1 831 0
 1726 0036 844B     		ldr	r3, .L137+4
 1727 0038 1B78     		ldrb	r3, [r3]
 1728 003a BB70     		strb	r3, [r7, #2]
 832:Generated_Source\PSoC5/USBFS_DEBUG_std.c ****         for (i = 0u; i < ep; i++)
 1729              		.loc 1 832 0
 1730 003c 0023     		movs	r3, #0
 1731 003e FB73     		strb	r3, [r7, #15]
 1732 0040 F7E0     		b	.L127
 1733              	.L135:
 833:Generated_Source\PSoC5/USBFS_DEBUG_std.c ****         {
 834:Generated_Source\PSoC5/USBFS_DEBUG_std.c ****             /* Find endpoints which belong to current interface and alternate settings. */
 835:Generated_Source\PSoC5/USBFS_DEBUG_std.c ****             if ((interfaceNum == pEP->interface) && 
 1734              		.loc 1 835 0
 1735 0042 BB68     		ldr	r3, [r7, #8]
 1736 0044 1B78     		ldrb	r3, [r3]	@ zero_extendqisi2
 1737 0046 BA78     		ldrb	r2, [r7, #2]	@ zero_extendqisi2
 1738 0048 9A42     		cmp	r2, r3
 1739 004a 40F0EC80 		bne	.L128
 836:Generated_Source\PSoC5/USBFS_DEBUG_std.c ****                 (USBFS_DEBUG_interfaceSetting[interfaceNum] == pEP->altSetting))
 1740              		.loc 1 836 0 discriminator 1
 1741 004e BB78     		ldrb	r3, [r7, #2]	@ zero_extendqisi2
 1742 0050 7E4A     		ldr	r2, .L137+8
 1743 0052 D35C     		ldrb	r3, [r2, r3]
 1744 0054 DAB2     		uxtb	r2, r3
 1745 0056 BB68     		ldr	r3, [r7, #8]
 1746 0058 5B78     		ldrb	r3, [r3, #1]	@ zero_extendqisi2
 835:Generated_Source\PSoC5/USBFS_DEBUG_std.c ****                 (USBFS_DEBUG_interfaceSetting[interfaceNum] == pEP->altSetting))
 1747              		.loc 1 835 0 discriminator 1
 1748 005a 9A42     		cmp	r2, r3
 1749 005c 40F0E380 		bne	.L128
ARM GAS  C:\Users\yoons\AppData\Local\Temp\ccLfZPJ9.s 			page 48


 837:Generated_Source\PSoC5/USBFS_DEBUG_std.c ****             {
 838:Generated_Source\PSoC5/USBFS_DEBUG_std.c ****                 curEp  = ((uint8) pEP->addr & USBFS_DEBUG_DIR_UNUSED);
 1750              		.loc 1 838 0
 1751 0060 BB68     		ldr	r3, [r7, #8]
 1752 0062 9B78     		ldrb	r3, [r3, #2]	@ zero_extendqisi2
 1753 0064 03F07F03 		and	r3, r3, #127
 1754 0068 7B70     		strb	r3, [r7, #1]
 839:Generated_Source\PSoC5/USBFS_DEBUG_std.c ****                 epType = ((uint8) pEP->attributes & USBFS_DEBUG_EP_TYPE_MASK);
 1755              		.loc 1 839 0
 1756 006a BB68     		ldr	r3, [r7, #8]
 1757 006c DB78     		ldrb	r3, [r3, #3]	@ zero_extendqisi2
 1758 006e 03F00303 		and	r3, r3, #3
 1759 0072 3B70     		strb	r3, [r7]
 840:Generated_Source\PSoC5/USBFS_DEBUG_std.c ****                 
 841:Generated_Source\PSoC5/USBFS_DEBUG_std.c ****                 /* Change the SIE mode for the selected EP to NAK ALL */
 842:Generated_Source\PSoC5/USBFS_DEBUG_std.c ****                 USBFS_DEBUG_EP[curEp].epToggle   = 0u;
 1760              		.loc 1 842 0
 1761 0074 7A78     		ldrb	r2, [r7, #1]	@ zero_extendqisi2
 1762 0076 7649     		ldr	r1, .L137+12
 1763 0078 1346     		mov	r3, r2
 1764 007a 5B00     		lsls	r3, r3, #1
 1765 007c 1344     		add	r3, r3, r2
 1766 007e 9B00     		lsls	r3, r3, #2
 1767 0080 0B44     		add	r3, r3, r1
 1768 0082 0333     		adds	r3, r3, #3
 1769 0084 0022     		movs	r2, #0
 1770 0086 1A70     		strb	r2, [r3]
 843:Generated_Source\PSoC5/USBFS_DEBUG_std.c ****                 USBFS_DEBUG_EP[curEp].addr       = pEP->addr;
 1771              		.loc 1 843 0
 1772 0088 7A78     		ldrb	r2, [r7, #1]	@ zero_extendqisi2
 1773 008a BB68     		ldr	r3, [r7, #8]
 1774 008c 9878     		ldrb	r0, [r3, #2]	@ zero_extendqisi2
 1775 008e 7049     		ldr	r1, .L137+12
 1776 0090 1346     		mov	r3, r2
 1777 0092 5B00     		lsls	r3, r3, #1
 1778 0094 1344     		add	r3, r3, r2
 1779 0096 9B00     		lsls	r3, r3, #2
 1780 0098 0B44     		add	r3, r3, r1
 1781 009a 0433     		adds	r3, r3, #4
 1782 009c 0246     		mov	r2, r0
 1783 009e 1A70     		strb	r2, [r3]
 844:Generated_Source\PSoC5/USBFS_DEBUG_std.c ****                 USBFS_DEBUG_EP[curEp].attrib     = pEP->attributes;
 1784              		.loc 1 844 0
 1785 00a0 7A78     		ldrb	r2, [r7, #1]	@ zero_extendqisi2
 1786 00a2 BB68     		ldr	r3, [r7, #8]
 1787 00a4 D878     		ldrb	r0, [r3, #3]	@ zero_extendqisi2
 1788 00a6 6A49     		ldr	r1, .L137+12
 1789 00a8 1346     		mov	r3, r2
 1790 00aa 5B00     		lsls	r3, r3, #1
 1791 00ac 1344     		add	r3, r3, r2
 1792 00ae 9B00     		lsls	r3, r3, #2
 1793 00b0 0B44     		add	r3, r3, r1
 1794 00b2 0246     		mov	r2, r0
 1795 00b4 1A70     		strb	r2, [r3]
 845:Generated_Source\PSoC5/USBFS_DEBUG_std.c ****                 USBFS_DEBUG_EP[curEp].bufferSize = pEP->bufferSize;
 1796              		.loc 1 845 0
 1797 00b6 7A78     		ldrb	r2, [r7, #1]	@ zero_extendqisi2
ARM GAS  C:\Users\yoons\AppData\Local\Temp\ccLfZPJ9.s 			page 49


 1798 00b8 BB68     		ldr	r3, [r7, #8]
 1799 00ba 9888     		ldrh	r0, [r3, #4]
 1800 00bc 6449     		ldr	r1, .L137+12
 1801 00be 1346     		mov	r3, r2
 1802 00c0 5B00     		lsls	r3, r3, #1
 1803 00c2 1344     		add	r3, r3, r2
 1804 00c4 9B00     		lsls	r3, r3, #2
 1805 00c6 0B44     		add	r3, r3, r1
 1806 00c8 0833     		adds	r3, r3, #8
 1807 00ca 0246     		mov	r2, r0	@ movhi
 1808 00cc 1A80     		strh	r2, [r3]	@ movhi
 846:Generated_Source\PSoC5/USBFS_DEBUG_std.c **** 
 847:Generated_Source\PSoC5/USBFS_DEBUG_std.c ****                 if (0u != (pEP->addr & USBFS_DEBUG_DIR_IN))
 1809              		.loc 1 847 0
 1810 00ce BB68     		ldr	r3, [r7, #8]
 1811 00d0 9B78     		ldrb	r3, [r3, #2]	@ zero_extendqisi2
 1812 00d2 5BB2     		sxtb	r3, r3
 1813 00d4 002B     		cmp	r3, #0
 1814 00d6 1ADA     		bge	.L129
 848:Generated_Source\PSoC5/USBFS_DEBUG_std.c ****                 {
 849:Generated_Source\PSoC5/USBFS_DEBUG_std.c ****                     /* IN Endpoint */
 850:Generated_Source\PSoC5/USBFS_DEBUG_std.c ****                     USBFS_DEBUG_EP[curEp].epMode     = USBFS_DEBUG_GET_ACTIVE_IN_EP_CR0_MODE(epType
 1815              		.loc 1 850 0
 1816 00d8 7A78     		ldrb	r2, [r7, #1]	@ zero_extendqisi2
 1817 00da 3B78     		ldrb	r3, [r7]	@ zero_extendqisi2
 1818 00dc 012B     		cmp	r3, #1
 1819 00de 01D1     		bne	.L130
 1820              		.loc 1 850 0 is_stmt 0 discriminator 1
 1821 00e0 0720     		movs	r0, #7
 1822 00e2 00E0     		b	.L131
 1823              	.L130:
 1824              		.loc 1 850 0 discriminator 2
 1825 00e4 0D20     		movs	r0, #13
 1826              	.L131:
 1827              		.loc 1 850 0 discriminator 4
 1828 00e6 5A49     		ldr	r1, .L137+12
 1829 00e8 1346     		mov	r3, r2
 1830 00ea 5B00     		lsls	r3, r3, #1
 1831 00ec 1344     		add	r3, r3, r2
 1832 00ee 9B00     		lsls	r3, r3, #2
 1833 00f0 0B44     		add	r3, r3, r1
 1834 00f2 0533     		adds	r3, r3, #5
 1835 00f4 0246     		mov	r2, r0
 1836 00f6 1A70     		strb	r2, [r3]
 851:Generated_Source\PSoC5/USBFS_DEBUG_std.c ****                     USBFS_DEBUG_EP[curEp].apiEpState = USBFS_DEBUG_EVENT_PENDING;
 1837              		.loc 1 851 0 is_stmt 1 discriminator 4
 1838 00f8 7A78     		ldrb	r2, [r7, #1]	@ zero_extendqisi2
 1839 00fa 5549     		ldr	r1, .L137+12
 1840 00fc 1346     		mov	r3, r2
 1841 00fe 5B00     		lsls	r3, r3, #1
 1842 0100 1344     		add	r3, r3, r2
 1843 0102 9B00     		lsls	r3, r3, #2
 1844 0104 0B44     		add	r3, r3, r1
 1845 0106 0133     		adds	r3, r3, #1
 1846 0108 0122     		movs	r2, #1
 1847 010a 1A70     		strb	r2, [r3]
 1848 010c 19E0     		b	.L132
ARM GAS  C:\Users\yoons\AppData\Local\Temp\ccLfZPJ9.s 			page 50


 1849              	.L129:
 852:Generated_Source\PSoC5/USBFS_DEBUG_std.c ****                 }
 853:Generated_Source\PSoC5/USBFS_DEBUG_std.c ****                 else
 854:Generated_Source\PSoC5/USBFS_DEBUG_std.c ****                 {
 855:Generated_Source\PSoC5/USBFS_DEBUG_std.c ****                     /* OUT Endpoint */
 856:Generated_Source\PSoC5/USBFS_DEBUG_std.c ****                     USBFS_DEBUG_EP[curEp].epMode     = USBFS_DEBUG_GET_ACTIVE_OUT_EP_CR0_MODE(epTyp
 1850              		.loc 1 856 0
 1851 010e 7A78     		ldrb	r2, [r7, #1]	@ zero_extendqisi2
 1852 0110 3B78     		ldrb	r3, [r7]	@ zero_extendqisi2
 1853 0112 012B     		cmp	r3, #1
 1854 0114 01D1     		bne	.L133
 1855              		.loc 1 856 0 is_stmt 0 discriminator 1
 1856 0116 0520     		movs	r0, #5
 1857 0118 00E0     		b	.L134
 1858              	.L133:
 1859              		.loc 1 856 0 discriminator 2
 1860 011a 0920     		movs	r0, #9
 1861              	.L134:
 1862              		.loc 1 856 0 discriminator 4
 1863 011c 4C49     		ldr	r1, .L137+12
 1864 011e 1346     		mov	r3, r2
 1865 0120 5B00     		lsls	r3, r3, #1
 1866 0122 1344     		add	r3, r3, r2
 1867 0124 9B00     		lsls	r3, r3, #2
 1868 0126 0B44     		add	r3, r3, r1
 1869 0128 0533     		adds	r3, r3, #5
 1870 012a 0246     		mov	r2, r0
 1871 012c 1A70     		strb	r2, [r3]
 857:Generated_Source\PSoC5/USBFS_DEBUG_std.c ****                     USBFS_DEBUG_EP[curEp].apiEpState = USBFS_DEBUG_NO_EVENT_PENDING;
 1872              		.loc 1 857 0 is_stmt 1 discriminator 4
 1873 012e 7A78     		ldrb	r2, [r7, #1]	@ zero_extendqisi2
 1874 0130 4749     		ldr	r1, .L137+12
 1875 0132 1346     		mov	r3, r2
 1876 0134 5B00     		lsls	r3, r3, #1
 1877 0136 1344     		add	r3, r3, r2
 1878 0138 9B00     		lsls	r3, r3, #2
 1879 013a 0B44     		add	r3, r3, r1
 1880 013c 0133     		adds	r3, r3, #1
 1881 013e 0022     		movs	r2, #0
 1882 0140 1A70     		strb	r2, [r3]
 1883              	.L132:
 858:Generated_Source\PSoC5/USBFS_DEBUG_std.c ****                 }
 859:Generated_Source\PSoC5/USBFS_DEBUG_std.c ****                 
 860:Generated_Source\PSoC5/USBFS_DEBUG_std.c ****                 /* Make SIE to NAK any endpoint requests */
 861:Generated_Source\PSoC5/USBFS_DEBUG_std.c ****                 USBFS_DEBUG_SIE_EP_BASE.sieEp[curEp].epCr0 = USBFS_DEBUG_MODE_NAK_IN_OUT;
 1884              		.loc 1 861 0
 1885 0142 444A     		ldr	r2, .L137+16
 1886 0144 7B78     		ldrb	r3, [r7, #1]	@ zero_extendqisi2
 1887 0146 1B01     		lsls	r3, r3, #4
 1888 0148 1344     		add	r3, r3, r2
 1889 014a 0233     		adds	r3, r3, #2
 1890 014c 0122     		movs	r2, #1
 1891 014e 1A70     		strb	r2, [r3]
 862:Generated_Source\PSoC5/USBFS_DEBUG_std.c **** 
 863:Generated_Source\PSoC5/USBFS_DEBUG_std.c ****             #if (USBFS_DEBUG_EP_MANAGEMENT_DMA_AUTO)
 864:Generated_Source\PSoC5/USBFS_DEBUG_std.c ****                 /* Clear IN data ready. */
 865:Generated_Source\PSoC5/USBFS_DEBUG_std.c ****                 USBFS_DEBUG_ARB_EP_BASE.arbEp[curEp].epCfg &= (uint8) ~USBFS_DEBUG_ARB_EPX_CFG_IN_D
ARM GAS  C:\Users\yoons\AppData\Local\Temp\ccLfZPJ9.s 			page 51


 866:Generated_Source\PSoC5/USBFS_DEBUG_std.c **** 
 867:Generated_Source\PSoC5/USBFS_DEBUG_std.c ****                 /* Select endpoint number of reconfiguration */
 868:Generated_Source\PSoC5/USBFS_DEBUG_std.c ****                 USBFS_DEBUG_DYN_RECONFIG_REG = (uint8) ((curEp - 1u) << USBFS_DEBUG_DYN_RECONFIG_EP
 869:Generated_Source\PSoC5/USBFS_DEBUG_std.c ****                 
 870:Generated_Source\PSoC5/USBFS_DEBUG_std.c ****                 /* Request for dynamic re-configuration of endpoint. */
 871:Generated_Source\PSoC5/USBFS_DEBUG_std.c ****                 USBFS_DEBUG_DYN_RECONFIG_REG |= USBFS_DEBUG_DYN_RECONFIG_ENABLE;
 872:Generated_Source\PSoC5/USBFS_DEBUG_std.c ****                 
 873:Generated_Source\PSoC5/USBFS_DEBUG_std.c ****                 /* Wait until block is ready for re-configuration */
 874:Generated_Source\PSoC5/USBFS_DEBUG_std.c ****                 while (0u == (USBFS_DEBUG_DYN_RECONFIG_REG & USBFS_DEBUG_DYN_RECONFIG_RDY_STS))
 875:Generated_Source\PSoC5/USBFS_DEBUG_std.c ****                 {
 876:Generated_Source\PSoC5/USBFS_DEBUG_std.c ****                 }
 877:Generated_Source\PSoC5/USBFS_DEBUG_std.c ****                 
 878:Generated_Source\PSoC5/USBFS_DEBUG_std.c ****                 /* Once DYN_RECONFIG_RDY_STS bit is set, FW can change the EP configuration. */
 879:Generated_Source\PSoC5/USBFS_DEBUG_std.c ****                 /* Change EP Type with new direction */
 880:Generated_Source\PSoC5/USBFS_DEBUG_std.c ****                 if (0u != (pEP->addr & USBFS_DEBUG_DIR_IN))
 881:Generated_Source\PSoC5/USBFS_DEBUG_std.c ****                 {
 882:Generated_Source\PSoC5/USBFS_DEBUG_std.c ****                     /* Set endpoint type: 0 - IN and 1 - OUT. */
 883:Generated_Source\PSoC5/USBFS_DEBUG_std.c ****                     USBFS_DEBUG_EP_TYPE_REG &= (uint8) ~(uint8)((uint8) 0x01u << (curEp - 1u));
 884:Generated_Source\PSoC5/USBFS_DEBUG_std.c ****                     
 885:Generated_Source\PSoC5/USBFS_DEBUG_std.c ****                 #if (CY_PSOC4)
 886:Generated_Source\PSoC5/USBFS_DEBUG_std.c ****                     /* Clear DMA_TERMIN for IN endpoint */
 887:Generated_Source\PSoC5/USBFS_DEBUG_std.c ****                     USBFS_DEBUG_ARB_EP_BASE.arbEp[curEp].epIntEn &= (uint32) ~USBFS_DEBUG_ARB_EPX_I
 888:Generated_Source\PSoC5/USBFS_DEBUG_std.c ****                 #endif /* (CY_PSOC4) */
 889:Generated_Source\PSoC5/USBFS_DEBUG_std.c ****                 }
 890:Generated_Source\PSoC5/USBFS_DEBUG_std.c ****                 else
 891:Generated_Source\PSoC5/USBFS_DEBUG_std.c ****                 {
 892:Generated_Source\PSoC5/USBFS_DEBUG_std.c ****                     /* Set endpoint type: 0 - IN and 1- OUT. */
 893:Generated_Source\PSoC5/USBFS_DEBUG_std.c ****                     USBFS_DEBUG_EP_TYPE_REG |= (uint8) ((uint8) 0x01u << (curEp - 1u));
 894:Generated_Source\PSoC5/USBFS_DEBUG_std.c ****                     
 895:Generated_Source\PSoC5/USBFS_DEBUG_std.c ****                 #if (CY_PSOC4)
 896:Generated_Source\PSoC5/USBFS_DEBUG_std.c ****                     /* Set DMA_TERMIN for OUT endpoint */
 897:Generated_Source\PSoC5/USBFS_DEBUG_std.c ****                     USBFS_DEBUG_ARB_EP_BASE.arbEp[curEp].epIntEn |= (uint32) USBFS_DEBUG_ARB_EPX_IN
 898:Generated_Source\PSoC5/USBFS_DEBUG_std.c ****                 #endif /* (CY_PSOC4) */
 899:Generated_Source\PSoC5/USBFS_DEBUG_std.c ****                 }
 900:Generated_Source\PSoC5/USBFS_DEBUG_std.c ****                 
 901:Generated_Source\PSoC5/USBFS_DEBUG_std.c ****                 /* Complete dynamic re-configuration: all endpoint related status and signals 
 902:Generated_Source\PSoC5/USBFS_DEBUG_std.c ****                 * are set into the default state.
 903:Generated_Source\PSoC5/USBFS_DEBUG_std.c ****                 */
 904:Generated_Source\PSoC5/USBFS_DEBUG_std.c ****                 USBFS_DEBUG_DYN_RECONFIG_REG &= (uint8) ~USBFS_DEBUG_DYN_RECONFIG_ENABLE;
 905:Generated_Source\PSoC5/USBFS_DEBUG_std.c **** 
 906:Generated_Source\PSoC5/USBFS_DEBUG_std.c ****             #else
 907:Generated_Source\PSoC5/USBFS_DEBUG_std.c ****                 USBFS_DEBUG_SIE_EP_BASE.sieEp[curEp].epCnt0 = HI8(USBFS_DEBUG_EP[curEp].bufferSize)
 1892              		.loc 1 907 0
 1893 0150 4048     		ldr	r0, .L137+16
 1894 0152 7978     		ldrb	r1, [r7, #1]	@ zero_extendqisi2
 1895 0154 7A78     		ldrb	r2, [r7, #1]	@ zero_extendqisi2
 1896 0156 3E4C     		ldr	r4, .L137+12
 1897 0158 1346     		mov	r3, r2
 1898 015a 5B00     		lsls	r3, r3, #1
 1899 015c 1344     		add	r3, r3, r2
 1900 015e 9B00     		lsls	r3, r3, #2
 1901 0160 2344     		add	r3, r3, r4
 1902 0162 0833     		adds	r3, r3, #8
 1903 0164 1B88     		ldrh	r3, [r3]	@ movhi
 1904 0166 9BB2     		uxth	r3, r3
 1905 0168 1B0A     		lsrs	r3, r3, #8
 1906 016a 9BB2     		uxth	r3, r3
ARM GAS  C:\Users\yoons\AppData\Local\Temp\ccLfZPJ9.s 			page 52


 1907 016c DAB2     		uxtb	r2, r3
 1908 016e 0B01     		lsls	r3, r1, #4
 1909 0170 0344     		add	r3, r3, r0
 1910 0172 1A70     		strb	r2, [r3]
 908:Generated_Source\PSoC5/USBFS_DEBUG_std.c ****                 USBFS_DEBUG_SIE_EP_BASE.sieEp[curEp].epCnt1 = LO8(USBFS_DEBUG_EP[curEp].bufferSize)
 1911              		.loc 1 908 0
 1912 0174 3748     		ldr	r0, .L137+16
 1913 0176 7978     		ldrb	r1, [r7, #1]	@ zero_extendqisi2
 1914 0178 7A78     		ldrb	r2, [r7, #1]	@ zero_extendqisi2
 1915 017a 354C     		ldr	r4, .L137+12
 1916 017c 1346     		mov	r3, r2
 1917 017e 5B00     		lsls	r3, r3, #1
 1918 0180 1344     		add	r3, r3, r2
 1919 0182 9B00     		lsls	r3, r3, #2
 1920 0184 2344     		add	r3, r3, r4
 1921 0186 0833     		adds	r3, r3, #8
 1922 0188 1B88     		ldrh	r3, [r3]	@ movhi
 1923 018a 9BB2     		uxth	r3, r3
 1924 018c DAB2     		uxtb	r2, r3
 1925 018e 0B01     		lsls	r3, r1, #4
 1926 0190 0344     		add	r3, r3, r0
 1927 0192 0133     		adds	r3, r3, #1
 1928 0194 1A70     		strb	r2, [r3]
 909:Generated_Source\PSoC5/USBFS_DEBUG_std.c ****                 
 910:Generated_Source\PSoC5/USBFS_DEBUG_std.c ****                 #if (CY_PSOC4)
 911:Generated_Source\PSoC5/USBFS_DEBUG_std.c ****                     USBFS_DEBUG_ARB_EP16_BASE.arbEp[curEp].rwRa16  = (uint32) USBFS_DEBUG_EP[curEp]
 912:Generated_Source\PSoC5/USBFS_DEBUG_std.c ****                     USBFS_DEBUG_ARB_EP16_BASE.arbEp[curEp].rwWa16  = (uint32) USBFS_DEBUG_EP[curEp]
 913:Generated_Source\PSoC5/USBFS_DEBUG_std.c ****                 #else
 914:Generated_Source\PSoC5/USBFS_DEBUG_std.c ****                     USBFS_DEBUG_ARB_EP_BASE.arbEp[curEp].rwRa    = LO8(USBFS_DEBUG_EP[curEp].buffOf
 1929              		.loc 1 914 0
 1930 0196 3048     		ldr	r0, .L137+20
 1931 0198 7978     		ldrb	r1, [r7, #1]	@ zero_extendqisi2
 1932 019a 7A78     		ldrb	r2, [r7, #1]	@ zero_extendqisi2
 1933 019c 2C4C     		ldr	r4, .L137+12
 1934 019e 1346     		mov	r3, r2
 1935 01a0 5B00     		lsls	r3, r3, #1
 1936 01a2 1344     		add	r3, r3, r2
 1937 01a4 9B00     		lsls	r3, r3, #2
 1938 01a6 2344     		add	r3, r3, r4
 1939 01a8 0633     		adds	r3, r3, #6
 1940 01aa 1B88     		ldrh	r3, [r3]	@ movhi
 1941 01ac 9BB2     		uxth	r3, r3
 1942 01ae DAB2     		uxtb	r2, r3
 1943 01b0 0B01     		lsls	r3, r1, #4
 1944 01b2 0344     		add	r3, r3, r0
 1945 01b4 0633     		adds	r3, r3, #6
 1946 01b6 1A70     		strb	r2, [r3]
 915:Generated_Source\PSoC5/USBFS_DEBUG_std.c ****                     USBFS_DEBUG_ARB_EP_BASE.arbEp[curEp].rwRaMsb = HI8(USBFS_DEBUG_EP[curEp].buffOf
 1947              		.loc 1 915 0
 1948 01b8 2748     		ldr	r0, .L137+20
 1949 01ba 7978     		ldrb	r1, [r7, #1]	@ zero_extendqisi2
 1950 01bc 7A78     		ldrb	r2, [r7, #1]	@ zero_extendqisi2
 1951 01be 244C     		ldr	r4, .L137+12
 1952 01c0 1346     		mov	r3, r2
 1953 01c2 5B00     		lsls	r3, r3, #1
 1954 01c4 1344     		add	r3, r3, r2
 1955 01c6 9B00     		lsls	r3, r3, #2
ARM GAS  C:\Users\yoons\AppData\Local\Temp\ccLfZPJ9.s 			page 53


 1956 01c8 2344     		add	r3, r3, r4
 1957 01ca 0633     		adds	r3, r3, #6
 1958 01cc 1B88     		ldrh	r3, [r3]	@ movhi
 1959 01ce 9BB2     		uxth	r3, r3
 1960 01d0 1B0A     		lsrs	r3, r3, #8
 1961 01d2 9BB2     		uxth	r3, r3
 1962 01d4 DAB2     		uxtb	r2, r3
 1963 01d6 0B01     		lsls	r3, r1, #4
 1964 01d8 0344     		add	r3, r3, r0
 1965 01da 0733     		adds	r3, r3, #7
 1966 01dc 1A70     		strb	r2, [r3]
 916:Generated_Source\PSoC5/USBFS_DEBUG_std.c ****                     USBFS_DEBUG_ARB_EP_BASE.arbEp[curEp].rwWa    = LO8(USBFS_DEBUG_EP[curEp].buffOf
 1967              		.loc 1 916 0
 1968 01de 1E48     		ldr	r0, .L137+20
 1969 01e0 7978     		ldrb	r1, [r7, #1]	@ zero_extendqisi2
 1970 01e2 7A78     		ldrb	r2, [r7, #1]	@ zero_extendqisi2
 1971 01e4 1A4C     		ldr	r4, .L137+12
 1972 01e6 1346     		mov	r3, r2
 1973 01e8 5B00     		lsls	r3, r3, #1
 1974 01ea 1344     		add	r3, r3, r2
 1975 01ec 9B00     		lsls	r3, r3, #2
 1976 01ee 2344     		add	r3, r3, r4
 1977 01f0 0633     		adds	r3, r3, #6
 1978 01f2 1B88     		ldrh	r3, [r3]	@ movhi
 1979 01f4 9BB2     		uxth	r3, r3
 1980 01f6 DAB2     		uxtb	r2, r3
 1981 01f8 0B01     		lsls	r3, r1, #4
 1982 01fa 0344     		add	r3, r3, r0
 1983 01fc 0433     		adds	r3, r3, #4
 1984 01fe 1A70     		strb	r2, [r3]
 917:Generated_Source\PSoC5/USBFS_DEBUG_std.c ****                     USBFS_DEBUG_ARB_EP_BASE.arbEp[curEp].rwWaMsb = HI8(USBFS_DEBUG_EP[curEp].buffOf
 1985              		.loc 1 917 0
 1986 0200 1548     		ldr	r0, .L137+20
 1987 0202 7978     		ldrb	r1, [r7, #1]	@ zero_extendqisi2
 1988 0204 7A78     		ldrb	r2, [r7, #1]	@ zero_extendqisi2
 1989 0206 124C     		ldr	r4, .L137+12
 1990 0208 1346     		mov	r3, r2
 1991 020a 5B00     		lsls	r3, r3, #1
 1992 020c 1344     		add	r3, r3, r2
 1993 020e 9B00     		lsls	r3, r3, #2
 1994 0210 2344     		add	r3, r3, r4
 1995 0212 0633     		adds	r3, r3, #6
 1996 0214 1B88     		ldrh	r3, [r3]	@ movhi
 1997 0216 9BB2     		uxth	r3, r3
 1998 0218 1B0A     		lsrs	r3, r3, #8
 1999 021a 9BB2     		uxth	r3, r3
 2000 021c DAB2     		uxtb	r2, r3
 2001 021e 0B01     		lsls	r3, r1, #4
 2002 0220 0344     		add	r3, r3, r0
 2003 0222 0533     		adds	r3, r3, #5
 2004 0224 1A70     		strb	r2, [r3]
 2005              	.L128:
 918:Generated_Source\PSoC5/USBFS_DEBUG_std.c ****                 #endif /* (CY_PSOC4) */                
 919:Generated_Source\PSoC5/USBFS_DEBUG_std.c ****             #endif /* (USBFS_DEBUG_EP_MANAGEMENT_DMA_AUTO) */
 920:Generated_Source\PSoC5/USBFS_DEBUG_std.c ****             }
 921:Generated_Source\PSoC5/USBFS_DEBUG_std.c ****             
 922:Generated_Source\PSoC5/USBFS_DEBUG_std.c ****             pEP = &pEP[1u]; /* Get next EP element */
ARM GAS  C:\Users\yoons\AppData\Local\Temp\ccLfZPJ9.s 			page 54


 2006              		.loc 1 922 0 discriminator 2
 2007 0226 BB68     		ldr	r3, [r7, #8]
 2008 0228 0833     		adds	r3, r3, #8
 2009 022a BB60     		str	r3, [r7, #8]
 832:Generated_Source\PSoC5/USBFS_DEBUG_std.c ****         {
 2010              		.loc 1 832 0 discriminator 2
 2011 022c FB7B     		ldrb	r3, [r7, #15]	@ zero_extendqisi2
 2012 022e 0133     		adds	r3, r3, #1
 2013 0230 FB73     		strb	r3, [r7, #15]
 2014              	.L127:
 832:Generated_Source\PSoC5/USBFS_DEBUG_std.c ****         {
 2015              		.loc 1 832 0 is_stmt 0 discriminator 1
 2016 0232 FA7B     		ldrb	r2, [r7, #15]	@ zero_extendqisi2
 2017 0234 FB78     		ldrb	r3, [r7, #3]	@ zero_extendqisi2
 2018 0236 9A42     		cmp	r2, r3
 2019 0238 FFF403AF 		bcc	.L135
 2020              	.L136:
 923:Generated_Source\PSoC5/USBFS_DEBUG_std.c ****         }
 924:Generated_Source\PSoC5/USBFS_DEBUG_std.c ****         
 925:Generated_Source\PSoC5/USBFS_DEBUG_std.c ****         /* The main loop has to re-enable DMA and OUT endpoint */
 926:Generated_Source\PSoC5/USBFS_DEBUG_std.c ****     }
 927:Generated_Source\PSoC5/USBFS_DEBUG_std.c **** }
 2021              		.loc 1 927 0 is_stmt 1
 2022 023c 00BF     		nop
 2023 023e 1437     		adds	r7, r7, #20
 2024              		.cfi_def_cfa_offset 12
 2025 0240 BD46     		mov	sp, r7
 2026              		.cfi_def_cfa_register 13
 2027              		@ sp needed
 2028 0242 90BD     		pop	{r4, r7, pc}
 2029              	.L138:
 2030              		.align	2
 2031              	.L137:
 2032 0244 00000000 		.word	USBFS_DEBUG_configuration
 2033 0248 00000000 		.word	USBFS_DEBUG_interfaceNumber
 2034 024c 00000000 		.word	USBFS_DEBUG_interfaceSetting
 2035 0250 00000000 		.word	USBFS_DEBUG_EP
 2036 0254 FC5F0040 		.word	1073766396
 2037 0258 70600040 		.word	1073766512
 2038              		.cfi_endproc
 2039              	.LFE5:
 2040              		.size	USBFS_DEBUG_ConfigAltChanged, .-USBFS_DEBUG_ConfigAltChanged
 2041              		.section	.text.USBFS_DEBUG_GetConfigTablePtr,"ax",%progbits
 2042              		.align	2
 2043              		.global	USBFS_DEBUG_GetConfigTablePtr
 2044              		.thumb
 2045              		.thumb_func
 2046              		.type	USBFS_DEBUG_GetConfigTablePtr, %function
 2047              	USBFS_DEBUG_GetConfigTablePtr:
 2048              	.LFB6:
 928:Generated_Source\PSoC5/USBFS_DEBUG_std.c **** 
 929:Generated_Source\PSoC5/USBFS_DEBUG_std.c **** 
 930:Generated_Source\PSoC5/USBFS_DEBUG_std.c **** /*******************************************************************************
 931:Generated_Source\PSoC5/USBFS_DEBUG_std.c **** * Function Name: USBFS_DEBUG_GetConfigTablePtr
 932:Generated_Source\PSoC5/USBFS_DEBUG_std.c **** ****************************************************************************//**
 933:Generated_Source\PSoC5/USBFS_DEBUG_std.c **** *
 934:Generated_Source\PSoC5/USBFS_DEBUG_std.c **** *  This routine returns a pointer a configuration table entry
ARM GAS  C:\Users\yoons\AppData\Local\Temp\ccLfZPJ9.s 			page 55


 935:Generated_Source\PSoC5/USBFS_DEBUG_std.c **** *
 936:Generated_Source\PSoC5/USBFS_DEBUG_std.c **** *  \param confIndex:  Configuration Index
 937:Generated_Source\PSoC5/USBFS_DEBUG_std.c **** *
 938:Generated_Source\PSoC5/USBFS_DEBUG_std.c **** * \return
 939:Generated_Source\PSoC5/USBFS_DEBUG_std.c **** *  Device Descriptor pointer or NULL when descriptor does not exist.
 940:Generated_Source\PSoC5/USBFS_DEBUG_std.c **** *
 941:Generated_Source\PSoC5/USBFS_DEBUG_std.c **** *******************************************************************************/
 942:Generated_Source\PSoC5/USBFS_DEBUG_std.c **** const T_USBFS_DEBUG_LUT CYCODE *USBFS_DEBUG_GetConfigTablePtr(uint8 confIndex)
 943:Generated_Source\PSoC5/USBFS_DEBUG_std.c ****                                                         
 944:Generated_Source\PSoC5/USBFS_DEBUG_std.c **** {
 2049              		.loc 1 944 0
 2050              		.cfi_startproc
 2051              		@ args = 0, pretend = 0, frame = 16
 2052              		@ frame_needed = 1, uses_anonymous_args = 0
 2053              		@ link register save eliminated.
 2054 0000 80B4     		push	{r7}
 2055              		.cfi_def_cfa_offset 4
 2056              		.cfi_offset 7, -4
 2057 0002 85B0     		sub	sp, sp, #20
 2058              		.cfi_def_cfa_offset 24
 2059 0004 00AF     		add	r7, sp, #0
 2060              		.cfi_def_cfa_register 7
 2061 0006 0346     		mov	r3, r0
 2062 0008 FB71     		strb	r3, [r7, #7]
 945:Generated_Source\PSoC5/USBFS_DEBUG_std.c ****     /* Device Table */
 946:Generated_Source\PSoC5/USBFS_DEBUG_std.c ****     const T_USBFS_DEBUG_LUT CYCODE *pTmp;
 947:Generated_Source\PSoC5/USBFS_DEBUG_std.c **** 
 948:Generated_Source\PSoC5/USBFS_DEBUG_std.c ****     pTmp = (const T_USBFS_DEBUG_LUT CYCODE *) USBFS_DEBUG_TABLE[USBFS_DEBUG_device].p_list;
 2063              		.loc 1 948 0
 2064 000a 0F4B     		ldr	r3, .L143
 2065 000c 1B78     		ldrb	r3, [r3]
 2066 000e DBB2     		uxtb	r3, r3
 2067 0010 0E4A     		ldr	r2, .L143+4
 2068 0012 DB00     		lsls	r3, r3, #3
 2069 0014 1344     		add	r3, r3, r2
 2070 0016 5B68     		ldr	r3, [r3, #4]
 2071 0018 FB60     		str	r3, [r7, #12]
 949:Generated_Source\PSoC5/USBFS_DEBUG_std.c **** 
 950:Generated_Source\PSoC5/USBFS_DEBUG_std.c ****     /* The first entry points to the Device Descriptor,
 951:Generated_Source\PSoC5/USBFS_DEBUG_std.c ****     *  the second entry point to the BOS Descriptor
 952:Generated_Source\PSoC5/USBFS_DEBUG_std.c ****     *  the rest configuration entries.
 953:Generated_Source\PSoC5/USBFS_DEBUG_std.c ****     *  Set pointer to the first Configuration Descriptor
 954:Generated_Source\PSoC5/USBFS_DEBUG_std.c ****     */
 955:Generated_Source\PSoC5/USBFS_DEBUG_std.c ****     pTmp = &pTmp[2u];
 2072              		.loc 1 955 0
 2073 001a FB68     		ldr	r3, [r7, #12]
 2074 001c 1033     		adds	r3, r3, #16
 2075 001e FB60     		str	r3, [r7, #12]
 956:Generated_Source\PSoC5/USBFS_DEBUG_std.c ****     /* For this table, c is the number of configuration descriptors  */
 957:Generated_Source\PSoC5/USBFS_DEBUG_std.c ****     if(confIndex >= pTmp->c)   /* Verify that required configuration descriptor exists */
 2076              		.loc 1 957 0
 2077 0020 FB68     		ldr	r3, [r7, #12]
 2078 0022 1B78     		ldrb	r3, [r3]	@ zero_extendqisi2
 2079 0024 FA79     		ldrb	r2, [r7, #7]	@ zero_extendqisi2
 2080 0026 9A42     		cmp	r2, r3
 2081 0028 02D3     		bcc	.L140
 958:Generated_Source\PSoC5/USBFS_DEBUG_std.c ****     {
ARM GAS  C:\Users\yoons\AppData\Local\Temp\ccLfZPJ9.s 			page 56


 959:Generated_Source\PSoC5/USBFS_DEBUG_std.c ****         pTmp = (const T_USBFS_DEBUG_LUT CYCODE *) NULL;
 2082              		.loc 1 959 0
 2083 002a 0023     		movs	r3, #0
 2084 002c FB60     		str	r3, [r7, #12]
 2085 002e 05E0     		b	.L141
 2086              	.L140:
 960:Generated_Source\PSoC5/USBFS_DEBUG_std.c ****     }
 961:Generated_Source\PSoC5/USBFS_DEBUG_std.c ****     else
 962:Generated_Source\PSoC5/USBFS_DEBUG_std.c ****     {
 963:Generated_Source\PSoC5/USBFS_DEBUG_std.c ****         pTmp = (const T_USBFS_DEBUG_LUT CYCODE *) pTmp[confIndex].p_list;
 2087              		.loc 1 963 0
 2088 0030 FB79     		ldrb	r3, [r7, #7]	@ zero_extendqisi2
 2089 0032 DB00     		lsls	r3, r3, #3
 2090 0034 FA68     		ldr	r2, [r7, #12]
 2091 0036 1344     		add	r3, r3, r2
 2092 0038 5B68     		ldr	r3, [r3, #4]
 2093 003a FB60     		str	r3, [r7, #12]
 2094              	.L141:
 964:Generated_Source\PSoC5/USBFS_DEBUG_std.c ****     }
 965:Generated_Source\PSoC5/USBFS_DEBUG_std.c **** 
 966:Generated_Source\PSoC5/USBFS_DEBUG_std.c ****     return (pTmp);
 2095              		.loc 1 966 0
 2096 003c FB68     		ldr	r3, [r7, #12]
 967:Generated_Source\PSoC5/USBFS_DEBUG_std.c **** }
 2097              		.loc 1 967 0
 2098 003e 1846     		mov	r0, r3
 2099 0040 1437     		adds	r7, r7, #20
 2100              		.cfi_def_cfa_offset 4
 2101 0042 BD46     		mov	sp, r7
 2102              		.cfi_def_cfa_register 13
 2103              		@ sp needed
 2104 0044 80BC     		pop	{r7}
 2105              		.cfi_restore 7
 2106              		.cfi_def_cfa_offset 0
 2107 0046 7047     		bx	lr
 2108              	.L144:
 2109              		.align	2
 2110              	.L143:
 2111 0048 00000000 		.word	USBFS_DEBUG_device
 2112 004c 00000000 		.word	USBFS_DEBUG_TABLE
 2113              		.cfi_endproc
 2114              	.LFE6:
 2115              		.size	USBFS_DEBUG_GetConfigTablePtr, .-USBFS_DEBUG_GetConfigTablePtr
 2116              		.section	.text.USBFS_DEBUG_GetDeviceTablePtr,"ax",%progbits
 2117              		.align	2
 2118              		.global	USBFS_DEBUG_GetDeviceTablePtr
 2119              		.thumb
 2120              		.thumb_func
 2121              		.type	USBFS_DEBUG_GetDeviceTablePtr, %function
 2122              	USBFS_DEBUG_GetDeviceTablePtr:
 2123              	.LFB7:
 968:Generated_Source\PSoC5/USBFS_DEBUG_std.c **** 
 969:Generated_Source\PSoC5/USBFS_DEBUG_std.c **** 
 970:Generated_Source\PSoC5/USBFS_DEBUG_std.c **** #if (USBFS_DEBUG_BOS_ENABLE)
 971:Generated_Source\PSoC5/USBFS_DEBUG_std.c ****     /*******************************************************************************
 972:Generated_Source\PSoC5/USBFS_DEBUG_std.c ****     * Function Name: USBFS_DEBUG_GetBOSPtr
 973:Generated_Source\PSoC5/USBFS_DEBUG_std.c ****     ****************************************************************************//**
ARM GAS  C:\Users\yoons\AppData\Local\Temp\ccLfZPJ9.s 			page 57


 974:Generated_Source\PSoC5/USBFS_DEBUG_std.c ****     *
 975:Generated_Source\PSoC5/USBFS_DEBUG_std.c ****     *  This routine returns a pointer a BOS table entry
 976:Generated_Source\PSoC5/USBFS_DEBUG_std.c ****     *
 977:Generated_Source\PSoC5/USBFS_DEBUG_std.c ****     *  
 978:Generated_Source\PSoC5/USBFS_DEBUG_std.c ****     *
 979:Generated_Source\PSoC5/USBFS_DEBUG_std.c ****     * \return
 980:Generated_Source\PSoC5/USBFS_DEBUG_std.c ****     *  BOS Descriptor pointer or NULL when descriptor does not exist.
 981:Generated_Source\PSoC5/USBFS_DEBUG_std.c ****     *
 982:Generated_Source\PSoC5/USBFS_DEBUG_std.c ****     *******************************************************************************/
 983:Generated_Source\PSoC5/USBFS_DEBUG_std.c ****     const T_USBFS_DEBUG_LUT CYCODE *USBFS_DEBUG_GetBOSPtr(void)
 984:Generated_Source\PSoC5/USBFS_DEBUG_std.c ****                                                             
 985:Generated_Source\PSoC5/USBFS_DEBUG_std.c ****     {
 986:Generated_Source\PSoC5/USBFS_DEBUG_std.c ****         /* Device Table */
 987:Generated_Source\PSoC5/USBFS_DEBUG_std.c ****         const T_USBFS_DEBUG_LUT CYCODE *pTmp;
 988:Generated_Source\PSoC5/USBFS_DEBUG_std.c **** 
 989:Generated_Source\PSoC5/USBFS_DEBUG_std.c ****         pTmp = (const T_USBFS_DEBUG_LUT CYCODE *) USBFS_DEBUG_TABLE[USBFS_DEBUG_device].p_list;
 990:Generated_Source\PSoC5/USBFS_DEBUG_std.c **** 
 991:Generated_Source\PSoC5/USBFS_DEBUG_std.c ****         /* The first entry points to the Device Descriptor,
 992:Generated_Source\PSoC5/USBFS_DEBUG_std.c ****         *  the second entry points to the BOS Descriptor
 993:Generated_Source\PSoC5/USBFS_DEBUG_std.c ****         */
 994:Generated_Source\PSoC5/USBFS_DEBUG_std.c ****         pTmp = &pTmp[1u];
 995:Generated_Source\PSoC5/USBFS_DEBUG_std.c ****         pTmp = (const T_USBFS_DEBUG_LUT CYCODE *) pTmp->p_list;
 996:Generated_Source\PSoC5/USBFS_DEBUG_std.c ****         return (pTmp);
 997:Generated_Source\PSoC5/USBFS_DEBUG_std.c ****     }
 998:Generated_Source\PSoC5/USBFS_DEBUG_std.c **** #endif /* (USBFS_DEBUG_BOS_ENABLE) */
 999:Generated_Source\PSoC5/USBFS_DEBUG_std.c **** 
1000:Generated_Source\PSoC5/USBFS_DEBUG_std.c **** 
1001:Generated_Source\PSoC5/USBFS_DEBUG_std.c **** /*******************************************************************************
1002:Generated_Source\PSoC5/USBFS_DEBUG_std.c **** * Function Name: USBFS_DEBUG_GetDeviceTablePtr
1003:Generated_Source\PSoC5/USBFS_DEBUG_std.c **** ****************************************************************************//**
1004:Generated_Source\PSoC5/USBFS_DEBUG_std.c **** *
1005:Generated_Source\PSoC5/USBFS_DEBUG_std.c **** *  This routine returns a pointer to the Device table
1006:Generated_Source\PSoC5/USBFS_DEBUG_std.c **** *
1007:Generated_Source\PSoC5/USBFS_DEBUG_std.c **** * \return
1008:Generated_Source\PSoC5/USBFS_DEBUG_std.c **** *  Device Table pointer
1009:Generated_Source\PSoC5/USBFS_DEBUG_std.c **** *
1010:Generated_Source\PSoC5/USBFS_DEBUG_std.c **** *******************************************************************************/
1011:Generated_Source\PSoC5/USBFS_DEBUG_std.c **** const T_USBFS_DEBUG_LUT CYCODE *USBFS_DEBUG_GetDeviceTablePtr(void)
1012:Generated_Source\PSoC5/USBFS_DEBUG_std.c ****                                                             
1013:Generated_Source\PSoC5/USBFS_DEBUG_std.c **** {
 2124              		.loc 1 1013 0
 2125              		.cfi_startproc
 2126              		@ args = 0, pretend = 0, frame = 0
 2127              		@ frame_needed = 1, uses_anonymous_args = 0
 2128              		@ link register save eliminated.
 2129 0000 80B4     		push	{r7}
 2130              		.cfi_def_cfa_offset 4
 2131              		.cfi_offset 7, -4
 2132 0002 00AF     		add	r7, sp, #0
 2133              		.cfi_def_cfa_register 7
1014:Generated_Source\PSoC5/USBFS_DEBUG_std.c ****     /* Device Table */
1015:Generated_Source\PSoC5/USBFS_DEBUG_std.c ****     return( (const T_USBFS_DEBUG_LUT CYCODE *) USBFS_DEBUG_TABLE[USBFS_DEBUG_device].p_list );
 2134              		.loc 1 1015 0
 2135 0004 054B     		ldr	r3, .L147
 2136 0006 1B78     		ldrb	r3, [r3]
 2137 0008 DBB2     		uxtb	r3, r3
 2138 000a 054A     		ldr	r2, .L147+4
ARM GAS  C:\Users\yoons\AppData\Local\Temp\ccLfZPJ9.s 			page 58


 2139 000c DB00     		lsls	r3, r3, #3
 2140 000e 1344     		add	r3, r3, r2
 2141 0010 5B68     		ldr	r3, [r3, #4]
1016:Generated_Source\PSoC5/USBFS_DEBUG_std.c **** }
 2142              		.loc 1 1016 0
 2143 0012 1846     		mov	r0, r3
 2144 0014 BD46     		mov	sp, r7
 2145              		.cfi_def_cfa_register 13
 2146              		@ sp needed
 2147 0016 80BC     		pop	{r7}
 2148              		.cfi_restore 7
 2149              		.cfi_def_cfa_offset 0
 2150 0018 7047     		bx	lr
 2151              	.L148:
 2152 001a 00BF     		.align	2
 2153              	.L147:
 2154 001c 00000000 		.word	USBFS_DEBUG_device
 2155 0020 00000000 		.word	USBFS_DEBUG_TABLE
 2156              		.cfi_endproc
 2157              	.LFE7:
 2158              		.size	USBFS_DEBUG_GetDeviceTablePtr, .-USBFS_DEBUG_GetDeviceTablePtr
 2159              		.section	.text.USBFS_DEBUG_GetInterfaceClassTablePtr,"ax",%progbits
 2160              		.align	2
 2161              		.global	USBFS_DEBUG_GetInterfaceClassTablePtr
 2162              		.thumb
 2163              		.thumb_func
 2164              		.type	USBFS_DEBUG_GetInterfaceClassTablePtr, %function
 2165              	USBFS_DEBUG_GetInterfaceClassTablePtr:
 2166              	.LFB8:
1017:Generated_Source\PSoC5/USBFS_DEBUG_std.c **** 
1018:Generated_Source\PSoC5/USBFS_DEBUG_std.c **** 
1019:Generated_Source\PSoC5/USBFS_DEBUG_std.c **** /*******************************************************************************
1020:Generated_Source\PSoC5/USBFS_DEBUG_std.c **** * Function Name: USB_GetInterfaceClassTablePtr
1021:Generated_Source\PSoC5/USBFS_DEBUG_std.c **** ****************************************************************************//**
1022:Generated_Source\PSoC5/USBFS_DEBUG_std.c **** *
1023:Generated_Source\PSoC5/USBFS_DEBUG_std.c **** *  This routine returns Interface Class table pointer, which contains
1024:Generated_Source\PSoC5/USBFS_DEBUG_std.c **** *  the relation between interface number and interface class.
1025:Generated_Source\PSoC5/USBFS_DEBUG_std.c **** *
1026:Generated_Source\PSoC5/USBFS_DEBUG_std.c **** * \return
1027:Generated_Source\PSoC5/USBFS_DEBUG_std.c **** *  Interface Class table pointer.
1028:Generated_Source\PSoC5/USBFS_DEBUG_std.c **** *
1029:Generated_Source\PSoC5/USBFS_DEBUG_std.c **** *******************************************************************************/
1030:Generated_Source\PSoC5/USBFS_DEBUG_std.c **** const uint8 CYCODE *USBFS_DEBUG_GetInterfaceClassTablePtr(void)
1031:Generated_Source\PSoC5/USBFS_DEBUG_std.c ****                                                         
1032:Generated_Source\PSoC5/USBFS_DEBUG_std.c **** {
 2167              		.loc 1 1032 0
 2168              		.cfi_startproc
 2169              		@ args = 0, pretend = 0, frame = 16
 2170              		@ frame_needed = 1, uses_anonymous_args = 0
 2171 0000 80B5     		push	{r7, lr}
 2172              		.cfi_def_cfa_offset 8
 2173              		.cfi_offset 7, -8
 2174              		.cfi_offset 14, -4
 2175 0002 84B0     		sub	sp, sp, #16
 2176              		.cfi_def_cfa_offset 24
 2177 0004 00AF     		add	r7, sp, #0
 2178              		.cfi_def_cfa_register 7
ARM GAS  C:\Users\yoons\AppData\Local\Temp\ccLfZPJ9.s 			page 59


1033:Generated_Source\PSoC5/USBFS_DEBUG_std.c ****     const T_USBFS_DEBUG_LUT CYCODE *pTmp;
1034:Generated_Source\PSoC5/USBFS_DEBUG_std.c ****     const uint8 CYCODE *pInterfaceClass;
1035:Generated_Source\PSoC5/USBFS_DEBUG_std.c ****     uint8 currentInterfacesNum;
1036:Generated_Source\PSoC5/USBFS_DEBUG_std.c **** 
1037:Generated_Source\PSoC5/USBFS_DEBUG_std.c ****     pTmp = USBFS_DEBUG_GetConfigTablePtr(USBFS_DEBUG_configuration - 1u);
 2179              		.loc 1 1037 0
 2180 0006 104B     		ldr	r3, .L153
 2181 0008 1B78     		ldrb	r3, [r3]
 2182 000a DBB2     		uxtb	r3, r3
 2183 000c 013B     		subs	r3, r3, #1
 2184 000e DBB2     		uxtb	r3, r3
 2185 0010 1846     		mov	r0, r3
 2186 0012 FFF7FEFF 		bl	USBFS_DEBUG_GetConfigTablePtr
 2187 0016 B860     		str	r0, [r7, #8]
1038:Generated_Source\PSoC5/USBFS_DEBUG_std.c ****     if (pTmp != NULL)
 2188              		.loc 1 1038 0
 2189 0018 BB68     		ldr	r3, [r7, #8]
 2190 001a 002B     		cmp	r3, #0
 2191 001c 0DD0     		beq	.L150
1039:Generated_Source\PSoC5/USBFS_DEBUG_std.c ****     {
1040:Generated_Source\PSoC5/USBFS_DEBUG_std.c ****         currentInterfacesNum  = ((const uint8 *) pTmp->p_list)[USBFS_DEBUG_CONFIG_DESCR_NUM_INTERFA
 2192              		.loc 1 1040 0
 2193 001e BB68     		ldr	r3, [r7, #8]
 2194 0020 5B68     		ldr	r3, [r3, #4]
 2195 0022 1B79     		ldrb	r3, [r3, #4]
 2196 0024 FB71     		strb	r3, [r7, #7]
1041:Generated_Source\PSoC5/USBFS_DEBUG_std.c ****         /* Third entry in the LUT starts the Interface Table pointers */
1042:Generated_Source\PSoC5/USBFS_DEBUG_std.c ****         /* The INTERFACE_CLASS table is located after all interfaces */
1043:Generated_Source\PSoC5/USBFS_DEBUG_std.c ****         pTmp = &pTmp[currentInterfacesNum + 2u];
 2197              		.loc 1 1043 0
 2198 0026 FB79     		ldrb	r3, [r7, #7]	@ zero_extendqisi2
 2199 0028 0233     		adds	r3, r3, #2
 2200 002a DB00     		lsls	r3, r3, #3
 2201 002c BA68     		ldr	r2, [r7, #8]
 2202 002e 1344     		add	r3, r3, r2
 2203 0030 BB60     		str	r3, [r7, #8]
1044:Generated_Source\PSoC5/USBFS_DEBUG_std.c ****         pInterfaceClass = (const uint8 CYCODE *) pTmp->p_list;
 2204              		.loc 1 1044 0
 2205 0032 BB68     		ldr	r3, [r7, #8]
 2206 0034 5B68     		ldr	r3, [r3, #4]
 2207 0036 FB60     		str	r3, [r7, #12]
 2208 0038 01E0     		b	.L151
 2209              	.L150:
1045:Generated_Source\PSoC5/USBFS_DEBUG_std.c ****     }
1046:Generated_Source\PSoC5/USBFS_DEBUG_std.c ****     else
1047:Generated_Source\PSoC5/USBFS_DEBUG_std.c ****     {
1048:Generated_Source\PSoC5/USBFS_DEBUG_std.c ****         pInterfaceClass = (const uint8 CYCODE *) NULL;
 2210              		.loc 1 1048 0
 2211 003a 0023     		movs	r3, #0
 2212 003c FB60     		str	r3, [r7, #12]
 2213              	.L151:
1049:Generated_Source\PSoC5/USBFS_DEBUG_std.c ****     }
1050:Generated_Source\PSoC5/USBFS_DEBUG_std.c **** 
1051:Generated_Source\PSoC5/USBFS_DEBUG_std.c ****     return (pInterfaceClass);
 2214              		.loc 1 1051 0
 2215 003e FB68     		ldr	r3, [r7, #12]
1052:Generated_Source\PSoC5/USBFS_DEBUG_std.c **** }
ARM GAS  C:\Users\yoons\AppData\Local\Temp\ccLfZPJ9.s 			page 60


 2216              		.loc 1 1052 0
 2217 0040 1846     		mov	r0, r3
 2218 0042 1037     		adds	r7, r7, #16
 2219              		.cfi_def_cfa_offset 8
 2220 0044 BD46     		mov	sp, r7
 2221              		.cfi_def_cfa_register 13
 2222              		@ sp needed
 2223 0046 80BD     		pop	{r7, pc}
 2224              	.L154:
 2225              		.align	2
 2226              	.L153:
 2227 0048 00000000 		.word	USBFS_DEBUG_configuration
 2228              		.cfi_endproc
 2229              	.LFE8:
 2230              		.size	USBFS_DEBUG_GetInterfaceClassTablePtr, .-USBFS_DEBUG_GetInterfaceClassTablePtr
 2231              		.section	.text.USBFS_DEBUG_TerminateEP,"ax",%progbits
 2232              		.align	2
 2233              		.global	USBFS_DEBUG_TerminateEP
 2234              		.thumb
 2235              		.thumb_func
 2236              		.type	USBFS_DEBUG_TerminateEP, %function
 2237              	USBFS_DEBUG_TerminateEP:
 2238              	.LFB9:
1053:Generated_Source\PSoC5/USBFS_DEBUG_std.c **** 
1054:Generated_Source\PSoC5/USBFS_DEBUG_std.c **** 
1055:Generated_Source\PSoC5/USBFS_DEBUG_std.c **** /*******************************************************************************
1056:Generated_Source\PSoC5/USBFS_DEBUG_std.c **** * Function Name: USBFS_DEBUG_TerminateEP
1057:Generated_Source\PSoC5/USBFS_DEBUG_std.c **** ****************************************************************************//**
1058:Generated_Source\PSoC5/USBFS_DEBUG_std.c **** *
1059:Generated_Source\PSoC5/USBFS_DEBUG_std.c **** *  This function terminates the specified USBFS endpoint.
1060:Generated_Source\PSoC5/USBFS_DEBUG_std.c **** *  This function should be used before endpoint reconfiguration.
1061:Generated_Source\PSoC5/USBFS_DEBUG_std.c **** *
1062:Generated_Source\PSoC5/USBFS_DEBUG_std.c **** *  \param ep Contains the data endpoint number.
1063:Generated_Source\PSoC5/USBFS_DEBUG_std.c **** *
1064:Generated_Source\PSoC5/USBFS_DEBUG_std.c **** *  \reentrant
1065:Generated_Source\PSoC5/USBFS_DEBUG_std.c **** *  No.
1066:Generated_Source\PSoC5/USBFS_DEBUG_std.c **** *
1067:Generated_Source\PSoC5/USBFS_DEBUG_std.c **** * \sideeffect
1068:Generated_Source\PSoC5/USBFS_DEBUG_std.c **** * 
1069:Generated_Source\PSoC5/USBFS_DEBUG_std.c **** * The device responds with a NAK for any transactions on the selected endpoint.
1070:Generated_Source\PSoC5/USBFS_DEBUG_std.c **** *   
1071:Generated_Source\PSoC5/USBFS_DEBUG_std.c **** *******************************************************************************/
1072:Generated_Source\PSoC5/USBFS_DEBUG_std.c **** void USBFS_DEBUG_TerminateEP(uint8 epNumber) 
1073:Generated_Source\PSoC5/USBFS_DEBUG_std.c **** {
 2239              		.loc 1 1073 0
 2240              		.cfi_startproc
 2241              		@ args = 0, pretend = 0, frame = 8
 2242              		@ frame_needed = 1, uses_anonymous_args = 0
 2243              		@ link register save eliminated.
 2244 0000 80B4     		push	{r7}
 2245              		.cfi_def_cfa_offset 4
 2246              		.cfi_offset 7, -4
 2247 0002 83B0     		sub	sp, sp, #12
 2248              		.cfi_def_cfa_offset 16
 2249 0004 00AF     		add	r7, sp, #0
 2250              		.cfi_def_cfa_register 7
 2251 0006 0346     		mov	r3, r0
ARM GAS  C:\Users\yoons\AppData\Local\Temp\ccLfZPJ9.s 			page 61


 2252 0008 FB71     		strb	r3, [r7, #7]
1074:Generated_Source\PSoC5/USBFS_DEBUG_std.c ****     /* Get endpoint number */
1075:Generated_Source\PSoC5/USBFS_DEBUG_std.c ****     epNumber &= USBFS_DEBUG_DIR_UNUSED;
 2253              		.loc 1 1075 0
 2254 000a FB79     		ldrb	r3, [r7, #7]
 2255 000c 03F07F03 		and	r3, r3, #127
 2256 0010 FB71     		strb	r3, [r7, #7]
1076:Generated_Source\PSoC5/USBFS_DEBUG_std.c **** 
1077:Generated_Source\PSoC5/USBFS_DEBUG_std.c ****     if ((epNumber > USBFS_DEBUG_EP0) && (epNumber < USBFS_DEBUG_MAX_EP))
 2257              		.loc 1 1077 0
 2258 0012 FB79     		ldrb	r3, [r7, #7]	@ zero_extendqisi2
 2259 0014 002B     		cmp	r3, #0
 2260 0016 49D0     		beq	.L158
 2261              		.loc 1 1077 0 is_stmt 0 discriminator 1
 2262 0018 FB79     		ldrb	r3, [r7, #7]	@ zero_extendqisi2
 2263 001a 082B     		cmp	r3, #8
 2264 001c 46D8     		bhi	.L158
1078:Generated_Source\PSoC5/USBFS_DEBUG_std.c ****     {
1079:Generated_Source\PSoC5/USBFS_DEBUG_std.c ****         /* Set the endpoint Halt */
1080:Generated_Source\PSoC5/USBFS_DEBUG_std.c ****         USBFS_DEBUG_EP[epNumber].hwEpState |= USBFS_DEBUG_ENDPOINT_STATUS_HALT;
 2265              		.loc 1 1080 0 is_stmt 1
 2266 001e FA79     		ldrb	r2, [r7, #7]	@ zero_extendqisi2
 2267 0020 F979     		ldrb	r1, [r7, #7]	@ zero_extendqisi2
 2268 0022 2548     		ldr	r0, .L159
 2269 0024 0B46     		mov	r3, r1
 2270 0026 5B00     		lsls	r3, r3, #1
 2271 0028 0B44     		add	r3, r3, r1
 2272 002a 9B00     		lsls	r3, r3, #2
 2273 002c 0344     		add	r3, r3, r0
 2274 002e 0233     		adds	r3, r3, #2
 2275 0030 1B78     		ldrb	r3, [r3]
 2276 0032 DBB2     		uxtb	r3, r3
 2277 0034 43F00103 		orr	r3, r3, #1
 2278 0038 D8B2     		uxtb	r0, r3
 2279 003a 1F49     		ldr	r1, .L159
 2280 003c 1346     		mov	r3, r2
 2281 003e 5B00     		lsls	r3, r3, #1
 2282 0040 1344     		add	r3, r3, r2
 2283 0042 9B00     		lsls	r3, r3, #2
 2284 0044 0B44     		add	r3, r3, r1
 2285 0046 0233     		adds	r3, r3, #2
 2286 0048 0246     		mov	r2, r0
 2287 004a 1A70     		strb	r2, [r3]
1081:Generated_Source\PSoC5/USBFS_DEBUG_std.c **** 
1082:Generated_Source\PSoC5/USBFS_DEBUG_std.c ****         /* Clear the data toggle */
1083:Generated_Source\PSoC5/USBFS_DEBUG_std.c ****         USBFS_DEBUG_EP[epNumber].epToggle = 0u;
 2288              		.loc 1 1083 0
 2289 004c FA79     		ldrb	r2, [r7, #7]	@ zero_extendqisi2
 2290 004e 1A49     		ldr	r1, .L159
 2291 0050 1346     		mov	r3, r2
 2292 0052 5B00     		lsls	r3, r3, #1
 2293 0054 1344     		add	r3, r3, r2
 2294 0056 9B00     		lsls	r3, r3, #2
 2295 0058 0B44     		add	r3, r3, r1
 2296 005a 0333     		adds	r3, r3, #3
 2297 005c 0022     		movs	r2, #0
 2298 005e 1A70     		strb	r2, [r3]
ARM GAS  C:\Users\yoons\AppData\Local\Temp\ccLfZPJ9.s 			page 62


1084:Generated_Source\PSoC5/USBFS_DEBUG_std.c ****         USBFS_DEBUG_EP[epNumber].apiEpState = USBFS_DEBUG_NO_EVENT_ALLOWED;
 2299              		.loc 1 1084 0
 2300 0060 FA79     		ldrb	r2, [r7, #7]	@ zero_extendqisi2
 2301 0062 1549     		ldr	r1, .L159
 2302 0064 1346     		mov	r3, r2
 2303 0066 5B00     		lsls	r3, r3, #1
 2304 0068 1344     		add	r3, r3, r2
 2305 006a 9B00     		lsls	r3, r3, #2
 2306 006c 0B44     		add	r3, r3, r1
 2307 006e 0133     		adds	r3, r3, #1
 2308 0070 0222     		movs	r2, #2
 2309 0072 1A70     		strb	r2, [r3]
1085:Generated_Source\PSoC5/USBFS_DEBUG_std.c **** 
1086:Generated_Source\PSoC5/USBFS_DEBUG_std.c ****         if ((USBFS_DEBUG_EP[epNumber].addr & USBFS_DEBUG_DIR_IN) != 0u)
 2310              		.loc 1 1086 0
 2311 0074 FA79     		ldrb	r2, [r7, #7]	@ zero_extendqisi2
 2312 0076 1049     		ldr	r1, .L159
 2313 0078 1346     		mov	r3, r2
 2314 007a 5B00     		lsls	r3, r3, #1
 2315 007c 1344     		add	r3, r3, r2
 2316 007e 9B00     		lsls	r3, r3, #2
 2317 0080 0B44     		add	r3, r3, r1
 2318 0082 0433     		adds	r3, r3, #4
 2319 0084 1B78     		ldrb	r3, [r3]
 2320 0086 DBB2     		uxtb	r3, r3
 2321 0088 5BB2     		sxtb	r3, r3
 2322 008a 002B     		cmp	r3, #0
 2323 008c 07DA     		bge	.L157
1087:Generated_Source\PSoC5/USBFS_DEBUG_std.c ****         {   
1088:Generated_Source\PSoC5/USBFS_DEBUG_std.c ****             /* IN Endpoint */
1089:Generated_Source\PSoC5/USBFS_DEBUG_std.c ****             USBFS_DEBUG_SIE_EP_BASE.sieEp[epNumber].epCr0 = USBFS_DEBUG_MODE_NAK_IN;
 2324              		.loc 1 1089 0
 2325 008e 0B4A     		ldr	r2, .L159+4
 2326 0090 FB79     		ldrb	r3, [r7, #7]	@ zero_extendqisi2
 2327 0092 1B01     		lsls	r3, r3, #4
 2328 0094 1344     		add	r3, r3, r2
 2329 0096 0233     		adds	r3, r3, #2
 2330 0098 0C22     		movs	r2, #12
 2331 009a 1A70     		strb	r2, [r3]
1090:Generated_Source\PSoC5/USBFS_DEBUG_std.c ****         }
1091:Generated_Source\PSoC5/USBFS_DEBUG_std.c ****         else
1092:Generated_Source\PSoC5/USBFS_DEBUG_std.c ****         {
1093:Generated_Source\PSoC5/USBFS_DEBUG_std.c ****             /* OUT Endpoint */
1094:Generated_Source\PSoC5/USBFS_DEBUG_std.c ****             USBFS_DEBUG_SIE_EP_BASE.sieEp[epNumber].epCr0 = USBFS_DEBUG_MODE_NAK_OUT;
1095:Generated_Source\PSoC5/USBFS_DEBUG_std.c ****         }
1096:Generated_Source\PSoC5/USBFS_DEBUG_std.c ****     }
1097:Generated_Source\PSoC5/USBFS_DEBUG_std.c **** }
 2332              		.loc 1 1097 0
 2333 009c 06E0     		b	.L158
 2334              	.L157:
1094:Generated_Source\PSoC5/USBFS_DEBUG_std.c ****         }
 2335              		.loc 1 1094 0
 2336 009e 074A     		ldr	r2, .L159+4
 2337 00a0 FB79     		ldrb	r3, [r7, #7]	@ zero_extendqisi2
 2338 00a2 1B01     		lsls	r3, r3, #4
 2339 00a4 1344     		add	r3, r3, r2
 2340 00a6 0233     		adds	r3, r3, #2
ARM GAS  C:\Users\yoons\AppData\Local\Temp\ccLfZPJ9.s 			page 63


 2341 00a8 0822     		movs	r2, #8
 2342 00aa 1A70     		strb	r2, [r3]
 2343              	.L158:
 2344              		.loc 1 1097 0
 2345 00ac 00BF     		nop
 2346 00ae 0C37     		adds	r7, r7, #12
 2347              		.cfi_def_cfa_offset 4
 2348 00b0 BD46     		mov	sp, r7
 2349              		.cfi_def_cfa_register 13
 2350              		@ sp needed
 2351 00b2 80BC     		pop	{r7}
 2352              		.cfi_restore 7
 2353              		.cfi_def_cfa_offset 0
 2354 00b4 7047     		bx	lr
 2355              	.L160:
 2356 00b6 00BF     		.align	2
 2357              	.L159:
 2358 00b8 00000000 		.word	USBFS_DEBUG_EP
 2359 00bc FC5F0040 		.word	1073766396
 2360              		.cfi_endproc
 2361              	.LFE9:
 2362              		.size	USBFS_DEBUG_TerminateEP, .-USBFS_DEBUG_TerminateEP
 2363              		.section	.text.USBFS_DEBUG_SetEndpointHalt,"ax",%progbits
 2364              		.align	2
 2365              		.global	USBFS_DEBUG_SetEndpointHalt
 2366              		.thumb
 2367              		.thumb_func
 2368              		.type	USBFS_DEBUG_SetEndpointHalt, %function
 2369              	USBFS_DEBUG_SetEndpointHalt:
 2370              	.LFB10:
1098:Generated_Source\PSoC5/USBFS_DEBUG_std.c **** 
1099:Generated_Source\PSoC5/USBFS_DEBUG_std.c **** 
1100:Generated_Source\PSoC5/USBFS_DEBUG_std.c **** /*******************************************************************************
1101:Generated_Source\PSoC5/USBFS_DEBUG_std.c **** * Function Name: USBFS_DEBUG_SetEndpointHalt
1102:Generated_Source\PSoC5/USBFS_DEBUG_std.c **** ****************************************************************************//**
1103:Generated_Source\PSoC5/USBFS_DEBUG_std.c **** *
1104:Generated_Source\PSoC5/USBFS_DEBUG_std.c **** *  This routine handles set endpoint halt.
1105:Generated_Source\PSoC5/USBFS_DEBUG_std.c **** *
1106:Generated_Source\PSoC5/USBFS_DEBUG_std.c **** * \return
1107:Generated_Source\PSoC5/USBFS_DEBUG_std.c **** *  requestHandled.
1108:Generated_Source\PSoC5/USBFS_DEBUG_std.c **** *
1109:Generated_Source\PSoC5/USBFS_DEBUG_std.c **** * \reentrant
1110:Generated_Source\PSoC5/USBFS_DEBUG_std.c **** *  No.
1111:Generated_Source\PSoC5/USBFS_DEBUG_std.c **** *
1112:Generated_Source\PSoC5/USBFS_DEBUG_std.c **** *******************************************************************************/
1113:Generated_Source\PSoC5/USBFS_DEBUG_std.c **** uint8 USBFS_DEBUG_SetEndpointHalt(void) 
1114:Generated_Source\PSoC5/USBFS_DEBUG_std.c **** {
 2371              		.loc 1 1114 0
 2372              		.cfi_startproc
 2373              		@ args = 0, pretend = 0, frame = 8
 2374              		@ frame_needed = 1, uses_anonymous_args = 0
 2375 0000 80B5     		push	{r7, lr}
 2376              		.cfi_def_cfa_offset 8
 2377              		.cfi_offset 7, -8
 2378              		.cfi_offset 14, -4
 2379 0002 82B0     		sub	sp, sp, #8
 2380              		.cfi_def_cfa_offset 16
ARM GAS  C:\Users\yoons\AppData\Local\Temp\ccLfZPJ9.s 			page 64


 2381 0004 00AF     		add	r7, sp, #0
 2382              		.cfi_def_cfa_register 7
1115:Generated_Source\PSoC5/USBFS_DEBUG_std.c ****     uint8 requestHandled = USBFS_DEBUG_FALSE;
 2383              		.loc 1 1115 0
 2384 0006 0023     		movs	r3, #0
 2385 0008 FB71     		strb	r3, [r7, #7]
1116:Generated_Source\PSoC5/USBFS_DEBUG_std.c ****     uint8 ep;
1117:Generated_Source\PSoC5/USBFS_DEBUG_std.c ****     
1118:Generated_Source\PSoC5/USBFS_DEBUG_std.c ****     /* Set endpoint halt */
1119:Generated_Source\PSoC5/USBFS_DEBUG_std.c ****     ep = USBFS_DEBUG_wIndexLoReg & USBFS_DEBUG_DIR_UNUSED;
 2386              		.loc 1 1119 0
 2387 000a 344B     		ldr	r3, .L166
 2388 000c 1B79     		ldrb	r3, [r3, #4]
 2389 000e DBB2     		uxtb	r3, r3
 2390 0010 03F07F03 		and	r3, r3, #127
 2391 0014 BB71     		strb	r3, [r7, #6]
1120:Generated_Source\PSoC5/USBFS_DEBUG_std.c **** 
1121:Generated_Source\PSoC5/USBFS_DEBUG_std.c ****     if ((ep > USBFS_DEBUG_EP0) && (ep < USBFS_DEBUG_MAX_EP))
 2392              		.loc 1 1121 0
 2393 0016 BB79     		ldrb	r3, [r7, #6]	@ zero_extendqisi2
 2394 0018 002B     		cmp	r3, #0
 2395 001a 5AD0     		beq	.L162
 2396              		.loc 1 1121 0 is_stmt 0 discriminator 1
 2397 001c BB79     		ldrb	r3, [r7, #6]	@ zero_extendqisi2
 2398 001e 082B     		cmp	r3, #8
 2399 0020 57D8     		bhi	.L162
1122:Generated_Source\PSoC5/USBFS_DEBUG_std.c ****     {
1123:Generated_Source\PSoC5/USBFS_DEBUG_std.c ****         /* Set the endpoint Halt */
1124:Generated_Source\PSoC5/USBFS_DEBUG_std.c ****         USBFS_DEBUG_EP[ep].hwEpState |= (USBFS_DEBUG_ENDPOINT_STATUS_HALT);
 2400              		.loc 1 1124 0 is_stmt 1
 2401 0022 BA79     		ldrb	r2, [r7, #6]	@ zero_extendqisi2
 2402 0024 B979     		ldrb	r1, [r7, #6]	@ zero_extendqisi2
 2403 0026 2E48     		ldr	r0, .L166+4
 2404 0028 0B46     		mov	r3, r1
 2405 002a 5B00     		lsls	r3, r3, #1
 2406 002c 0B44     		add	r3, r3, r1
 2407 002e 9B00     		lsls	r3, r3, #2
 2408 0030 0344     		add	r3, r3, r0
 2409 0032 0233     		adds	r3, r3, #2
 2410 0034 1B78     		ldrb	r3, [r3]
 2411 0036 DBB2     		uxtb	r3, r3
 2412 0038 43F00103 		orr	r3, r3, #1
 2413 003c D8B2     		uxtb	r0, r3
 2414 003e 2849     		ldr	r1, .L166+4
 2415 0040 1346     		mov	r3, r2
 2416 0042 5B00     		lsls	r3, r3, #1
 2417 0044 1344     		add	r3, r3, r2
 2418 0046 9B00     		lsls	r3, r3, #2
 2419 0048 0B44     		add	r3, r3, r1
 2420 004a 0233     		adds	r3, r3, #2
 2421 004c 0246     		mov	r2, r0
 2422 004e 1A70     		strb	r2, [r3]
1125:Generated_Source\PSoC5/USBFS_DEBUG_std.c **** 
1126:Generated_Source\PSoC5/USBFS_DEBUG_std.c ****         /* Clear the data toggle */
1127:Generated_Source\PSoC5/USBFS_DEBUG_std.c ****         USBFS_DEBUG_EP[ep].epToggle = 0u;
 2423              		.loc 1 1127 0
 2424 0050 BA79     		ldrb	r2, [r7, #6]	@ zero_extendqisi2
ARM GAS  C:\Users\yoons\AppData\Local\Temp\ccLfZPJ9.s 			page 65


 2425 0052 2349     		ldr	r1, .L166+4
 2426 0054 1346     		mov	r3, r2
 2427 0056 5B00     		lsls	r3, r3, #1
 2428 0058 1344     		add	r3, r3, r2
 2429 005a 9B00     		lsls	r3, r3, #2
 2430 005c 0B44     		add	r3, r3, r1
 2431 005e 0333     		adds	r3, r3, #3
 2432 0060 0022     		movs	r2, #0
 2433 0062 1A70     		strb	r2, [r3]
1128:Generated_Source\PSoC5/USBFS_DEBUG_std.c ****         USBFS_DEBUG_EP[ep].apiEpState |= USBFS_DEBUG_NO_EVENT_ALLOWED;
 2434              		.loc 1 1128 0
 2435 0064 BA79     		ldrb	r2, [r7, #6]	@ zero_extendqisi2
 2436 0066 B979     		ldrb	r1, [r7, #6]	@ zero_extendqisi2
 2437 0068 1D48     		ldr	r0, .L166+4
 2438 006a 0B46     		mov	r3, r1
 2439 006c 5B00     		lsls	r3, r3, #1
 2440 006e 0B44     		add	r3, r3, r1
 2441 0070 9B00     		lsls	r3, r3, #2
 2442 0072 0344     		add	r3, r3, r0
 2443 0074 0133     		adds	r3, r3, #1
 2444 0076 1B78     		ldrb	r3, [r3]
 2445 0078 DBB2     		uxtb	r3, r3
 2446 007a 43F00203 		orr	r3, r3, #2
 2447 007e D8B2     		uxtb	r0, r3
 2448 0080 1749     		ldr	r1, .L166+4
 2449 0082 1346     		mov	r3, r2
 2450 0084 5B00     		lsls	r3, r3, #1
 2451 0086 1344     		add	r3, r3, r2
 2452 0088 9B00     		lsls	r3, r3, #2
 2453 008a 0B44     		add	r3, r3, r1
 2454 008c 0133     		adds	r3, r3, #1
 2455 008e 0246     		mov	r2, r0
 2456 0090 1A70     		strb	r2, [r3]
1129:Generated_Source\PSoC5/USBFS_DEBUG_std.c **** 
1130:Generated_Source\PSoC5/USBFS_DEBUG_std.c ****         if ((USBFS_DEBUG_EP[ep].addr & USBFS_DEBUG_DIR_IN) != 0u)
 2457              		.loc 1 1130 0
 2458 0092 BA79     		ldrb	r2, [r7, #6]	@ zero_extendqisi2
 2459 0094 1249     		ldr	r1, .L166+4
 2460 0096 1346     		mov	r3, r2
 2461 0098 5B00     		lsls	r3, r3, #1
 2462 009a 1344     		add	r3, r3, r2
 2463 009c 9B00     		lsls	r3, r3, #2
 2464 009e 0B44     		add	r3, r3, r1
 2465 00a0 0433     		adds	r3, r3, #4
 2466 00a2 1B78     		ldrb	r3, [r3]
 2467 00a4 DBB2     		uxtb	r3, r3
 2468 00a6 5BB2     		sxtb	r3, r3
 2469 00a8 002B     		cmp	r3, #0
 2470 00aa 07DA     		bge	.L163
1131:Generated_Source\PSoC5/USBFS_DEBUG_std.c ****         {
1132:Generated_Source\PSoC5/USBFS_DEBUG_std.c ****             /* IN Endpoint */
1133:Generated_Source\PSoC5/USBFS_DEBUG_std.c ****             USBFS_DEBUG_SIE_EP_BASE.sieEp[ep].epCr0 = (USBFS_DEBUG_MODE_STALL_DATA_EP | 
 2471              		.loc 1 1133 0
 2472 00ac 0D4A     		ldr	r2, .L166+8
 2473 00ae BB79     		ldrb	r3, [r7, #6]	@ zero_extendqisi2
 2474 00b0 1B01     		lsls	r3, r3, #4
 2475 00b2 1344     		add	r3, r3, r2
ARM GAS  C:\Users\yoons\AppData\Local\Temp\ccLfZPJ9.s 			page 66


 2476 00b4 0233     		adds	r3, r3, #2
 2477 00b6 8D22     		movs	r2, #141
 2478 00b8 1A70     		strb	r2, [r3]
 2479 00ba 06E0     		b	.L164
 2480              	.L163:
1134:Generated_Source\PSoC5/USBFS_DEBUG_std.c ****                                                             USBFS_DEBUG_MODE_ACK_IN);
1135:Generated_Source\PSoC5/USBFS_DEBUG_std.c ****         }
1136:Generated_Source\PSoC5/USBFS_DEBUG_std.c ****         else
1137:Generated_Source\PSoC5/USBFS_DEBUG_std.c ****         {
1138:Generated_Source\PSoC5/USBFS_DEBUG_std.c ****             /* OUT Endpoint */
1139:Generated_Source\PSoC5/USBFS_DEBUG_std.c ****             USBFS_DEBUG_SIE_EP_BASE.sieEp[ep].epCr0 = (USBFS_DEBUG_MODE_STALL_DATA_EP | 
 2481              		.loc 1 1139 0
 2482 00bc 094A     		ldr	r2, .L166+8
 2483 00be BB79     		ldrb	r3, [r7, #6]	@ zero_extendqisi2
 2484 00c0 1B01     		lsls	r3, r3, #4
 2485 00c2 1344     		add	r3, r3, r2
 2486 00c4 0233     		adds	r3, r3, #2
 2487 00c6 8922     		movs	r2, #137
 2488 00c8 1A70     		strb	r2, [r3]
 2489              	.L164:
1140:Generated_Source\PSoC5/USBFS_DEBUG_std.c ****                                                             USBFS_DEBUG_MODE_ACK_OUT);
1141:Generated_Source\PSoC5/USBFS_DEBUG_std.c ****         }
1142:Generated_Source\PSoC5/USBFS_DEBUG_std.c ****         requestHandled = USBFS_DEBUG_InitNoDataControlTransfer();
 2490              		.loc 1 1142 0
 2491 00ca FFF7FEFF 		bl	USBFS_DEBUG_InitNoDataControlTransfer
 2492 00ce 0346     		mov	r3, r0
 2493 00d0 FB71     		strb	r3, [r7, #7]
 2494              	.L162:
1143:Generated_Source\PSoC5/USBFS_DEBUG_std.c ****     }
1144:Generated_Source\PSoC5/USBFS_DEBUG_std.c **** 
1145:Generated_Source\PSoC5/USBFS_DEBUG_std.c ****     return (requestHandled);
 2495              		.loc 1 1145 0
 2496 00d2 FB79     		ldrb	r3, [r7, #7]	@ zero_extendqisi2
1146:Generated_Source\PSoC5/USBFS_DEBUG_std.c **** }
 2497              		.loc 1 1146 0
 2498 00d4 1846     		mov	r0, r3
 2499 00d6 0837     		adds	r7, r7, #8
 2500              		.cfi_def_cfa_offset 8
 2501 00d8 BD46     		mov	sp, r7
 2502              		.cfi_def_cfa_register 13
 2503              		@ sp needed
 2504 00da 80BD     		pop	{r7, pc}
 2505              	.L167:
 2506              		.align	2
 2507              	.L166:
 2508 00dc 00600040 		.word	1073766400
 2509 00e0 00000000 		.word	USBFS_DEBUG_EP
 2510 00e4 FC5F0040 		.word	1073766396
 2511              		.cfi_endproc
 2512              	.LFE10:
 2513              		.size	USBFS_DEBUG_SetEndpointHalt, .-USBFS_DEBUG_SetEndpointHalt
 2514              		.section	.text.USBFS_DEBUG_ClearEndpointHalt,"ax",%progbits
 2515              		.align	2
 2516              		.global	USBFS_DEBUG_ClearEndpointHalt
 2517              		.thumb
 2518              		.thumb_func
 2519              		.type	USBFS_DEBUG_ClearEndpointHalt, %function
ARM GAS  C:\Users\yoons\AppData\Local\Temp\ccLfZPJ9.s 			page 67


 2520              	USBFS_DEBUG_ClearEndpointHalt:
 2521              	.LFB11:
1147:Generated_Source\PSoC5/USBFS_DEBUG_std.c **** 
1148:Generated_Source\PSoC5/USBFS_DEBUG_std.c **** 
1149:Generated_Source\PSoC5/USBFS_DEBUG_std.c **** /*******************************************************************************
1150:Generated_Source\PSoC5/USBFS_DEBUG_std.c **** * Function Name: USBFS_DEBUG_ClearEndpointHalt
1151:Generated_Source\PSoC5/USBFS_DEBUG_std.c **** ****************************************************************************//**
1152:Generated_Source\PSoC5/USBFS_DEBUG_std.c **** *
1153:Generated_Source\PSoC5/USBFS_DEBUG_std.c **** *  This routine handles clear endpoint halt.
1154:Generated_Source\PSoC5/USBFS_DEBUG_std.c **** *
1155:Generated_Source\PSoC5/USBFS_DEBUG_std.c **** * \return
1156:Generated_Source\PSoC5/USBFS_DEBUG_std.c **** *  requestHandled.
1157:Generated_Source\PSoC5/USBFS_DEBUG_std.c **** *
1158:Generated_Source\PSoC5/USBFS_DEBUG_std.c **** * \reentrant
1159:Generated_Source\PSoC5/USBFS_DEBUG_std.c **** *  No.
1160:Generated_Source\PSoC5/USBFS_DEBUG_std.c **** *
1161:Generated_Source\PSoC5/USBFS_DEBUG_std.c **** *******************************************************************************/
1162:Generated_Source\PSoC5/USBFS_DEBUG_std.c **** uint8 USBFS_DEBUG_ClearEndpointHalt(void) 
1163:Generated_Source\PSoC5/USBFS_DEBUG_std.c **** {
 2522              		.loc 1 1163 0
 2523              		.cfi_startproc
 2524              		@ args = 0, pretend = 0, frame = 8
 2525              		@ frame_needed = 1, uses_anonymous_args = 0
 2526 0000 80B5     		push	{r7, lr}
 2527              		.cfi_def_cfa_offset 8
 2528              		.cfi_offset 7, -8
 2529              		.cfi_offset 14, -4
 2530 0002 82B0     		sub	sp, sp, #8
 2531              		.cfi_def_cfa_offset 16
 2532 0004 00AF     		add	r7, sp, #0
 2533              		.cfi_def_cfa_register 7
1164:Generated_Source\PSoC5/USBFS_DEBUG_std.c ****     uint8 requestHandled = USBFS_DEBUG_FALSE;
 2534              		.loc 1 1164 0
 2535 0006 0023     		movs	r3, #0
 2536 0008 FB71     		strb	r3, [r7, #7]
1165:Generated_Source\PSoC5/USBFS_DEBUG_std.c ****     uint8 ep;
1166:Generated_Source\PSoC5/USBFS_DEBUG_std.c **** 
1167:Generated_Source\PSoC5/USBFS_DEBUG_std.c ****     /* Clear endpoint halt */
1168:Generated_Source\PSoC5/USBFS_DEBUG_std.c ****     ep = USBFS_DEBUG_wIndexLoReg & USBFS_DEBUG_DIR_UNUSED;
 2537              		.loc 1 1168 0
 2538 000a 504B     		ldr	r3, .L176
 2539 000c 1B79     		ldrb	r3, [r3, #4]
 2540 000e DBB2     		uxtb	r3, r3
 2541 0010 03F07F03 		and	r3, r3, #127
 2542 0014 BB71     		strb	r3, [r7, #6]
1169:Generated_Source\PSoC5/USBFS_DEBUG_std.c **** 
1170:Generated_Source\PSoC5/USBFS_DEBUG_std.c ****     if ((ep > USBFS_DEBUG_EP0) && (ep < USBFS_DEBUG_MAX_EP))
 2543              		.loc 1 1170 0
 2544 0016 BB79     		ldrb	r3, [r7, #6]	@ zero_extendqisi2
 2545 0018 002B     		cmp	r3, #0
 2546 001a 00F09280 		beq	.L169
 2547              		.loc 1 1170 0 is_stmt 0 discriminator 1
 2548 001e BB79     		ldrb	r3, [r7, #6]	@ zero_extendqisi2
 2549 0020 082B     		cmp	r3, #8
 2550 0022 00F28E80 		bhi	.L169
1171:Generated_Source\PSoC5/USBFS_DEBUG_std.c ****     {
1172:Generated_Source\PSoC5/USBFS_DEBUG_std.c ****         /* Clear the endpoint Halt */
ARM GAS  C:\Users\yoons\AppData\Local\Temp\ccLfZPJ9.s 			page 68


1173:Generated_Source\PSoC5/USBFS_DEBUG_std.c ****         USBFS_DEBUG_EP[ep].hwEpState &= (uint8) ~USBFS_DEBUG_ENDPOINT_STATUS_HALT;
 2551              		.loc 1 1173 0 is_stmt 1
 2552 0026 BA79     		ldrb	r2, [r7, #6]	@ zero_extendqisi2
 2553 0028 B979     		ldrb	r1, [r7, #6]	@ zero_extendqisi2
 2554 002a 4948     		ldr	r0, .L176+4
 2555 002c 0B46     		mov	r3, r1
 2556 002e 5B00     		lsls	r3, r3, #1
 2557 0030 0B44     		add	r3, r3, r1
 2558 0032 9B00     		lsls	r3, r3, #2
 2559 0034 0344     		add	r3, r3, r0
 2560 0036 0233     		adds	r3, r3, #2
 2561 0038 1B78     		ldrb	r3, [r3]
 2562 003a DBB2     		uxtb	r3, r3
 2563 003c 23F00103 		bic	r3, r3, #1
 2564 0040 D8B2     		uxtb	r0, r3
 2565 0042 4349     		ldr	r1, .L176+4
 2566 0044 1346     		mov	r3, r2
 2567 0046 5B00     		lsls	r3, r3, #1
 2568 0048 1344     		add	r3, r3, r2
 2569 004a 9B00     		lsls	r3, r3, #2
 2570 004c 0B44     		add	r3, r3, r1
 2571 004e 0233     		adds	r3, r3, #2
 2572 0050 0246     		mov	r2, r0
 2573 0052 1A70     		strb	r2, [r3]
1174:Generated_Source\PSoC5/USBFS_DEBUG_std.c **** 
1175:Generated_Source\PSoC5/USBFS_DEBUG_std.c ****         /* Clear the data toggle */
1176:Generated_Source\PSoC5/USBFS_DEBUG_std.c ****         USBFS_DEBUG_EP[ep].epToggle = 0u;
 2574              		.loc 1 1176 0
 2575 0054 BA79     		ldrb	r2, [r7, #6]	@ zero_extendqisi2
 2576 0056 3E49     		ldr	r1, .L176+4
 2577 0058 1346     		mov	r3, r2
 2578 005a 5B00     		lsls	r3, r3, #1
 2579 005c 1344     		add	r3, r3, r2
 2580 005e 9B00     		lsls	r3, r3, #2
 2581 0060 0B44     		add	r3, r3, r1
 2582 0062 0333     		adds	r3, r3, #3
 2583 0064 0022     		movs	r2, #0
 2584 0066 1A70     		strb	r2, [r3]
1177:Generated_Source\PSoC5/USBFS_DEBUG_std.c ****         
1178:Generated_Source\PSoC5/USBFS_DEBUG_std.c ****         /* Clear toggle bit for already armed packet */
1179:Generated_Source\PSoC5/USBFS_DEBUG_std.c ****         USBFS_DEBUG_SIE_EP_BASE.sieEp[ep].epCnt0 &= (uint8) ~(uint8)USBFS_DEBUG_EPX_CNT_DATA_TOGGLE
 2585              		.loc 1 1179 0
 2586 0068 3A49     		ldr	r1, .L176+8
 2587 006a BB79     		ldrb	r3, [r7, #6]	@ zero_extendqisi2
 2588 006c 3948     		ldr	r0, .L176+8
 2589 006e BA79     		ldrb	r2, [r7, #6]	@ zero_extendqisi2
 2590 0070 1201     		lsls	r2, r2, #4
 2591 0072 0244     		add	r2, r2, r0
 2592 0074 1278     		ldrb	r2, [r2]
 2593 0076 D2B2     		uxtb	r2, r2
 2594 0078 02F07F02 		and	r2, r2, #127
 2595 007c D2B2     		uxtb	r2, r2
 2596 007e 1B01     		lsls	r3, r3, #4
 2597 0080 0B44     		add	r3, r3, r1
 2598 0082 1A70     		strb	r2, [r3]
1180:Generated_Source\PSoC5/USBFS_DEBUG_std.c ****         
1181:Generated_Source\PSoC5/USBFS_DEBUG_std.c ****         /* Return API State as it was defined before */
ARM GAS  C:\Users\yoons\AppData\Local\Temp\ccLfZPJ9.s 			page 69


1182:Generated_Source\PSoC5/USBFS_DEBUG_std.c ****         USBFS_DEBUG_EP[ep].apiEpState &= (uint8) ~USBFS_DEBUG_NO_EVENT_ALLOWED;
 2599              		.loc 1 1182 0
 2600 0084 BA79     		ldrb	r2, [r7, #6]	@ zero_extendqisi2
 2601 0086 B979     		ldrb	r1, [r7, #6]	@ zero_extendqisi2
 2602 0088 3148     		ldr	r0, .L176+4
 2603 008a 0B46     		mov	r3, r1
 2604 008c 5B00     		lsls	r3, r3, #1
 2605 008e 0B44     		add	r3, r3, r1
 2606 0090 9B00     		lsls	r3, r3, #2
 2607 0092 0344     		add	r3, r3, r0
 2608 0094 0133     		adds	r3, r3, #1
 2609 0096 1B78     		ldrb	r3, [r3]
 2610 0098 DBB2     		uxtb	r3, r3
 2611 009a 23F00203 		bic	r3, r3, #2
 2612 009e D8B2     		uxtb	r0, r3
 2613 00a0 2B49     		ldr	r1, .L176+4
 2614 00a2 1346     		mov	r3, r2
 2615 00a4 5B00     		lsls	r3, r3, #1
 2616 00a6 1344     		add	r3, r3, r2
 2617 00a8 9B00     		lsls	r3, r3, #2
 2618 00aa 0B44     		add	r3, r3, r1
 2619 00ac 0133     		adds	r3, r3, #1
 2620 00ae 0246     		mov	r2, r0
 2621 00b0 1A70     		strb	r2, [r3]
1183:Generated_Source\PSoC5/USBFS_DEBUG_std.c **** 
1184:Generated_Source\PSoC5/USBFS_DEBUG_std.c ****         if ((USBFS_DEBUG_EP[ep].addr & USBFS_DEBUG_DIR_IN) != 0u)
 2622              		.loc 1 1184 0
 2623 00b2 BA79     		ldrb	r2, [r7, #6]	@ zero_extendqisi2
 2624 00b4 2649     		ldr	r1, .L176+4
 2625 00b6 1346     		mov	r3, r2
 2626 00b8 5B00     		lsls	r3, r3, #1
 2627 00ba 1344     		add	r3, r3, r2
 2628 00bc 9B00     		lsls	r3, r3, #2
 2629 00be 0B44     		add	r3, r3, r1
 2630 00c0 0433     		adds	r3, r3, #4
 2631 00c2 1B78     		ldrb	r3, [r3]
 2632 00c4 DBB2     		uxtb	r3, r3
 2633 00c6 5BB2     		sxtb	r3, r3
 2634 00c8 002B     		cmp	r3, #0
 2635 00ca 1BDA     		bge	.L170
1185:Generated_Source\PSoC5/USBFS_DEBUG_std.c ****         {
1186:Generated_Source\PSoC5/USBFS_DEBUG_std.c ****             /* IN Endpoint */
1187:Generated_Source\PSoC5/USBFS_DEBUG_std.c ****             if(USBFS_DEBUG_EP[ep].apiEpState == USBFS_DEBUG_IN_BUFFER_EMPTY)
 2636              		.loc 1 1187 0
 2637 00cc BA79     		ldrb	r2, [r7, #6]	@ zero_extendqisi2
 2638 00ce 2049     		ldr	r1, .L176+4
 2639 00d0 1346     		mov	r3, r2
 2640 00d2 5B00     		lsls	r3, r3, #1
 2641 00d4 1344     		add	r3, r3, r2
 2642 00d6 9B00     		lsls	r3, r3, #2
 2643 00d8 0B44     		add	r3, r3, r1
 2644 00da 0133     		adds	r3, r3, #1
 2645 00dc 1B78     		ldrb	r3, [r3]
 2646 00de DBB2     		uxtb	r3, r3
 2647 00e0 012B     		cmp	r3, #1
 2648 00e2 07D1     		bne	.L171
1188:Generated_Source\PSoC5/USBFS_DEBUG_std.c ****             {       
ARM GAS  C:\Users\yoons\AppData\Local\Temp\ccLfZPJ9.s 			page 70


1189:Generated_Source\PSoC5/USBFS_DEBUG_std.c ****                 /* Wait for next packet from application */
1190:Generated_Source\PSoC5/USBFS_DEBUG_std.c ****                 USBFS_DEBUG_SIE_EP_BASE.sieEp[ep].epCr0 = USBFS_DEBUG_MODE_NAK_IN;
 2649              		.loc 1 1190 0
 2650 00e4 1B4A     		ldr	r2, .L176+8
 2651 00e6 BB79     		ldrb	r3, [r7, #6]	@ zero_extendqisi2
 2652 00e8 1B01     		lsls	r3, r3, #4
 2653 00ea 1344     		add	r3, r3, r2
 2654 00ec 0233     		adds	r3, r3, #2
 2655 00ee 0C22     		movs	r2, #12
 2656 00f0 1A70     		strb	r2, [r3]
 2657 00f2 22E0     		b	.L173
 2658              	.L171:
1191:Generated_Source\PSoC5/USBFS_DEBUG_std.c ****             }
1192:Generated_Source\PSoC5/USBFS_DEBUG_std.c ****             else    /* Continue armed transfer */
1193:Generated_Source\PSoC5/USBFS_DEBUG_std.c ****             {
1194:Generated_Source\PSoC5/USBFS_DEBUG_std.c ****                 USBFS_DEBUG_SIE_EP_BASE.sieEp[ep].epCr0 = USBFS_DEBUG_MODE_ACK_IN;
 2659              		.loc 1 1194 0
 2660 00f4 174A     		ldr	r2, .L176+8
 2661 00f6 BB79     		ldrb	r3, [r7, #6]	@ zero_extendqisi2
 2662 00f8 1B01     		lsls	r3, r3, #4
 2663 00fa 1344     		add	r3, r3, r2
 2664 00fc 0233     		adds	r3, r3, #2
 2665 00fe 0D22     		movs	r2, #13
 2666 0100 1A70     		strb	r2, [r3]
 2667 0102 1AE0     		b	.L173
 2668              	.L170:
1195:Generated_Source\PSoC5/USBFS_DEBUG_std.c ****             }
1196:Generated_Source\PSoC5/USBFS_DEBUG_std.c ****         }
1197:Generated_Source\PSoC5/USBFS_DEBUG_std.c ****         else
1198:Generated_Source\PSoC5/USBFS_DEBUG_std.c ****         {
1199:Generated_Source\PSoC5/USBFS_DEBUG_std.c ****             /* OUT Endpoint */
1200:Generated_Source\PSoC5/USBFS_DEBUG_std.c ****             if (USBFS_DEBUG_EP[ep].apiEpState == USBFS_DEBUG_OUT_BUFFER_FULL)
 2669              		.loc 1 1200 0
 2670 0104 BA79     		ldrb	r2, [r7, #6]	@ zero_extendqisi2
 2671 0106 1249     		ldr	r1, .L176+4
 2672 0108 1346     		mov	r3, r2
 2673 010a 5B00     		lsls	r3, r3, #1
 2674 010c 1344     		add	r3, r3, r2
 2675 010e 9B00     		lsls	r3, r3, #2
 2676 0110 0B44     		add	r3, r3, r1
 2677 0112 0133     		adds	r3, r3, #1
 2678 0114 1B78     		ldrb	r3, [r3]
 2679 0116 DBB2     		uxtb	r3, r3
 2680 0118 012B     		cmp	r3, #1
 2681 011a 07D1     		bne	.L174
1201:Generated_Source\PSoC5/USBFS_DEBUG_std.c ****             {       
1202:Generated_Source\PSoC5/USBFS_DEBUG_std.c ****                 /* Allow application to read full buffer */
1203:Generated_Source\PSoC5/USBFS_DEBUG_std.c ****                 USBFS_DEBUG_SIE_EP_BASE.sieEp[ep].epCr0 = USBFS_DEBUG_MODE_NAK_OUT;
 2682              		.loc 1 1203 0
 2683 011c 0D4A     		ldr	r2, .L176+8
 2684 011e BB79     		ldrb	r3, [r7, #6]	@ zero_extendqisi2
 2685 0120 1B01     		lsls	r3, r3, #4
 2686 0122 1344     		add	r3, r3, r2
 2687 0124 0233     		adds	r3, r3, #2
 2688 0126 0822     		movs	r2, #8
 2689 0128 1A70     		strb	r2, [r3]
 2690 012a 06E0     		b	.L173
ARM GAS  C:\Users\yoons\AppData\Local\Temp\ccLfZPJ9.s 			page 71


 2691              	.L174:
1204:Generated_Source\PSoC5/USBFS_DEBUG_std.c ****             }
1205:Generated_Source\PSoC5/USBFS_DEBUG_std.c ****             else    /* Mark endpoint as empty, so it will be reloaded */
1206:Generated_Source\PSoC5/USBFS_DEBUG_std.c ****             {
1207:Generated_Source\PSoC5/USBFS_DEBUG_std.c ****                 USBFS_DEBUG_SIE_EP_BASE.sieEp[ep].epCr0 = USBFS_DEBUG_MODE_ACK_OUT;
 2692              		.loc 1 1207 0
 2693 012c 094A     		ldr	r2, .L176+8
 2694 012e BB79     		ldrb	r3, [r7, #6]	@ zero_extendqisi2
 2695 0130 1B01     		lsls	r3, r3, #4
 2696 0132 1344     		add	r3, r3, r2
 2697 0134 0233     		adds	r3, r3, #2
 2698 0136 0922     		movs	r2, #9
 2699 0138 1A70     		strb	r2, [r3]
 2700              	.L173:
1208:Generated_Source\PSoC5/USBFS_DEBUG_std.c ****             }
1209:Generated_Source\PSoC5/USBFS_DEBUG_std.c ****         }
1210:Generated_Source\PSoC5/USBFS_DEBUG_std.c ****         
1211:Generated_Source\PSoC5/USBFS_DEBUG_std.c ****         requestHandled = USBFS_DEBUG_InitNoDataControlTransfer();
 2701              		.loc 1 1211 0
 2702 013a FFF7FEFF 		bl	USBFS_DEBUG_InitNoDataControlTransfer
 2703 013e 0346     		mov	r3, r0
 2704 0140 FB71     		strb	r3, [r7, #7]
 2705              	.L169:
1212:Generated_Source\PSoC5/USBFS_DEBUG_std.c ****     }
1213:Generated_Source\PSoC5/USBFS_DEBUG_std.c **** 
1214:Generated_Source\PSoC5/USBFS_DEBUG_std.c ****     return(requestHandled);
 2706              		.loc 1 1214 0
 2707 0142 FB79     		ldrb	r3, [r7, #7]	@ zero_extendqisi2
1215:Generated_Source\PSoC5/USBFS_DEBUG_std.c **** }
 2708              		.loc 1 1215 0
 2709 0144 1846     		mov	r0, r3
 2710 0146 0837     		adds	r7, r7, #8
 2711              		.cfi_def_cfa_offset 8
 2712 0148 BD46     		mov	sp, r7
 2713              		.cfi_def_cfa_register 13
 2714              		@ sp needed
 2715 014a 80BD     		pop	{r7, pc}
 2716              	.L177:
 2717              		.align	2
 2718              	.L176:
 2719 014c 00600040 		.word	1073766400
 2720 0150 00000000 		.word	USBFS_DEBUG_EP
 2721 0154 FC5F0040 		.word	1073766396
 2722              		.cfi_endproc
 2723              	.LFE11:
 2724              		.size	USBFS_DEBUG_ClearEndpointHalt, .-USBFS_DEBUG_ClearEndpointHalt
 2725              		.section	.text.USBFS_DEBUG_ValidateAlternateSetting,"ax",%progbits
 2726              		.align	2
 2727              		.global	USBFS_DEBUG_ValidateAlternateSetting
 2728              		.thumb
 2729              		.thumb_func
 2730              		.type	USBFS_DEBUG_ValidateAlternateSetting, %function
 2731              	USBFS_DEBUG_ValidateAlternateSetting:
 2732              	.LFB12:
1216:Generated_Source\PSoC5/USBFS_DEBUG_std.c **** 
1217:Generated_Source\PSoC5/USBFS_DEBUG_std.c **** 
1218:Generated_Source\PSoC5/USBFS_DEBUG_std.c **** /*******************************************************************************
ARM GAS  C:\Users\yoons\AppData\Local\Temp\ccLfZPJ9.s 			page 72


1219:Generated_Source\PSoC5/USBFS_DEBUG_std.c **** * Function Name: USBFS_DEBUG_ValidateAlternateSetting
1220:Generated_Source\PSoC5/USBFS_DEBUG_std.c **** ****************************************************************************//**
1221:Generated_Source\PSoC5/USBFS_DEBUG_std.c **** *
1222:Generated_Source\PSoC5/USBFS_DEBUG_std.c **** *  Validates (and records) a SET INTERFACE request.
1223:Generated_Source\PSoC5/USBFS_DEBUG_std.c **** *
1224:Generated_Source\PSoC5/USBFS_DEBUG_std.c **** * \return
1225:Generated_Source\PSoC5/USBFS_DEBUG_std.c **** *  requestHandled.
1226:Generated_Source\PSoC5/USBFS_DEBUG_std.c **** *
1227:Generated_Source\PSoC5/USBFS_DEBUG_std.c **** * \reentrant
1228:Generated_Source\PSoC5/USBFS_DEBUG_std.c **** *  No.
1229:Generated_Source\PSoC5/USBFS_DEBUG_std.c **** *
1230:Generated_Source\PSoC5/USBFS_DEBUG_std.c **** *******************************************************************************/
1231:Generated_Source\PSoC5/USBFS_DEBUG_std.c **** uint8 USBFS_DEBUG_ValidateAlternateSetting(void) 
1232:Generated_Source\PSoC5/USBFS_DEBUG_std.c **** {
 2733              		.loc 1 1232 0
 2734              		.cfi_startproc
 2735              		@ args = 0, pretend = 0, frame = 16
 2736              		@ frame_needed = 1, uses_anonymous_args = 0
 2737 0000 80B5     		push	{r7, lr}
 2738              		.cfi_def_cfa_offset 8
 2739              		.cfi_offset 7, -8
 2740              		.cfi_offset 14, -4
 2741 0002 84B0     		sub	sp, sp, #16
 2742              		.cfi_def_cfa_offset 24
 2743 0004 00AF     		add	r7, sp, #0
 2744              		.cfi_def_cfa_register 7
1233:Generated_Source\PSoC5/USBFS_DEBUG_std.c ****     uint8 requestHandled = USBFS_DEBUG_FALSE;
 2745              		.loc 1 1233 0
 2746 0006 0023     		movs	r3, #0
 2747 0008 FB73     		strb	r3, [r7, #15]
1234:Generated_Source\PSoC5/USBFS_DEBUG_std.c ****     
1235:Generated_Source\PSoC5/USBFS_DEBUG_std.c ****     uint8 interfaceNum;
1236:Generated_Source\PSoC5/USBFS_DEBUG_std.c ****     uint8 curInterfacesNum;
1237:Generated_Source\PSoC5/USBFS_DEBUG_std.c ****     const T_USBFS_DEBUG_LUT CYCODE *pTmp;
1238:Generated_Source\PSoC5/USBFS_DEBUG_std.c ****     
1239:Generated_Source\PSoC5/USBFS_DEBUG_std.c ****     /* Get interface number from the request. */
1240:Generated_Source\PSoC5/USBFS_DEBUG_std.c ****     interfaceNum = (uint8) USBFS_DEBUG_wIndexLoReg;
 2748              		.loc 1 1240 0
 2749 000a 154B     		ldr	r3, .L182
 2750 000c 1B79     		ldrb	r3, [r3, #4]
 2751 000e BB73     		strb	r3, [r7, #14]
1241:Generated_Source\PSoC5/USBFS_DEBUG_std.c ****     
1242:Generated_Source\PSoC5/USBFS_DEBUG_std.c ****     /* Get number of interfaces for current configuration. */
1243:Generated_Source\PSoC5/USBFS_DEBUG_std.c ****     pTmp = USBFS_DEBUG_GetConfigTablePtr(USBFS_DEBUG_configuration - 1u);
 2752              		.loc 1 1243 0
 2753 0010 144B     		ldr	r3, .L182+4
 2754 0012 1B78     		ldrb	r3, [r3]
 2755 0014 DBB2     		uxtb	r3, r3
 2756 0016 013B     		subs	r3, r3, #1
 2757 0018 DBB2     		uxtb	r3, r3
 2758 001a 1846     		mov	r0, r3
 2759 001c FFF7FEFF 		bl	USBFS_DEBUG_GetConfigTablePtr
 2760 0020 B860     		str	r0, [r7, #8]
1244:Generated_Source\PSoC5/USBFS_DEBUG_std.c ****     curInterfacesNum  = ((const uint8 *) pTmp->p_list)[USBFS_DEBUG_CONFIG_DESCR_NUM_INTERFACES];
 2761              		.loc 1 1244 0
 2762 0022 BB68     		ldr	r3, [r7, #8]
 2763 0024 5B68     		ldr	r3, [r3, #4]
ARM GAS  C:\Users\yoons\AppData\Local\Temp\ccLfZPJ9.s 			page 73


 2764 0026 1B79     		ldrb	r3, [r3, #4]
 2765 0028 FB71     		strb	r3, [r7, #7]
1245:Generated_Source\PSoC5/USBFS_DEBUG_std.c **** 
1246:Generated_Source\PSoC5/USBFS_DEBUG_std.c ****     /* Validate that interface number is within range. */
1247:Generated_Source\PSoC5/USBFS_DEBUG_std.c ****     if ((interfaceNum <= curInterfacesNum) || (interfaceNum <= USBFS_DEBUG_MAX_INTERFACES_NUMBER))
 2766              		.loc 1 1247 0
 2767 002a BA7B     		ldrb	r2, [r7, #14]	@ zero_extendqisi2
 2768 002c FB79     		ldrb	r3, [r7, #7]	@ zero_extendqisi2
 2769 002e 9A42     		cmp	r2, r3
 2770 0030 02D9     		bls	.L179
 2771              		.loc 1 1247 0 is_stmt 0 discriminator 1
 2772 0032 BB7B     		ldrb	r3, [r7, #14]	@ zero_extendqisi2
 2773 0034 022B     		cmp	r3, #2
 2774 0036 0ED8     		bhi	.L180
 2775              	.L179:
1248:Generated_Source\PSoC5/USBFS_DEBUG_std.c ****     {
1249:Generated_Source\PSoC5/USBFS_DEBUG_std.c ****         /* Save current and new alternate settings (come with request) to make 
1250:Generated_Source\PSoC5/USBFS_DEBUG_std.c ****         * desicion about following endpoint re-configuration.
1251:Generated_Source\PSoC5/USBFS_DEBUG_std.c ****         */
1252:Generated_Source\PSoC5/USBFS_DEBUG_std.c ****         USBFS_DEBUG_interfaceSettingLast[interfaceNum] = USBFS_DEBUG_interfaceSetting[interfaceNum]
 2776              		.loc 1 1252 0 is_stmt 1
 2777 0038 BB7B     		ldrb	r3, [r7, #14]	@ zero_extendqisi2
 2778 003a BA7B     		ldrb	r2, [r7, #14]	@ zero_extendqisi2
 2779 003c 0A49     		ldr	r1, .L182+8
 2780 003e 8A5C     		ldrb	r2, [r1, r2]
 2781 0040 D1B2     		uxtb	r1, r2
 2782 0042 0A4A     		ldr	r2, .L182+12
 2783 0044 D154     		strb	r1, [r2, r3]
1253:Generated_Source\PSoC5/USBFS_DEBUG_std.c ****         USBFS_DEBUG_interfaceSetting[interfaceNum]     = (uint8) USBFS_DEBUG_wValueLoReg;
 2784              		.loc 1 1253 0
 2785 0046 BB7B     		ldrb	r3, [r7, #14]	@ zero_extendqisi2
 2786 0048 054A     		ldr	r2, .L182
 2787 004a 9278     		ldrb	r2, [r2, #2]
 2788 004c D1B2     		uxtb	r1, r2
 2789 004e 064A     		ldr	r2, .L182+8
 2790 0050 D154     		strb	r1, [r2, r3]
1254:Generated_Source\PSoC5/USBFS_DEBUG_std.c ****         
1255:Generated_Source\PSoC5/USBFS_DEBUG_std.c ****         requestHandled = USBFS_DEBUG_TRUE;
 2791              		.loc 1 1255 0
 2792 0052 0123     		movs	r3, #1
 2793 0054 FB73     		strb	r3, [r7, #15]
 2794              	.L180:
1256:Generated_Source\PSoC5/USBFS_DEBUG_std.c ****     }
1257:Generated_Source\PSoC5/USBFS_DEBUG_std.c **** 
1258:Generated_Source\PSoC5/USBFS_DEBUG_std.c ****     return (requestHandled);
 2795              		.loc 1 1258 0
 2796 0056 FB7B     		ldrb	r3, [r7, #15]	@ zero_extendqisi2
1259:Generated_Source\PSoC5/USBFS_DEBUG_std.c **** }
 2797              		.loc 1 1259 0
 2798 0058 1846     		mov	r0, r3
 2799 005a 1037     		adds	r7, r7, #16
 2800              		.cfi_def_cfa_offset 8
 2801 005c BD46     		mov	sp, r7
 2802              		.cfi_def_cfa_register 13
 2803              		@ sp needed
 2804 005e 80BD     		pop	{r7, pc}
 2805              	.L183:
ARM GAS  C:\Users\yoons\AppData\Local\Temp\ccLfZPJ9.s 			page 74


 2806              		.align	2
 2807              	.L182:
 2808 0060 00600040 		.word	1073766400
 2809 0064 00000000 		.word	USBFS_DEBUG_configuration
 2810 0068 00000000 		.word	USBFS_DEBUG_interfaceSetting
 2811 006c 00000000 		.word	USBFS_DEBUG_interfaceSettingLast
 2812              		.cfi_endproc
 2813              	.LFE12:
 2814              		.size	USBFS_DEBUG_ValidateAlternateSetting, .-USBFS_DEBUG_ValidateAlternateSetting
 2815              		.bss
 2816              		.align	2
 2817              	USBFS_DEBUG_tBuffer.5248:
 2818 0000 0000     		.space	2
 2819              		.text
 2820              	.Letext0:
 2821              		.file 2 "Generated_Source\\PSoC5\\cytypes.h"
 2822              		.file 3 "Generated_Source\\PSoC5\\USBFS_DEBUG.h"
 2823              		.file 4 "Generated_Source\\PSoC5\\USBFS_DEBUG_pvt.h"