ARM GAS  C:\Users\JENNEW~1\AppData\Local\Temp\ccHH9OS0.s 			page 1


   1              		.syntax unified
   2              		.cpu cortex-m3
   3              		.fpu softvfp
   4              		.eabi_attribute 20, 1
   5              		.eabi_attribute 21, 1
   6              		.eabi_attribute 23, 3
   7              		.eabi_attribute 24, 1
   8              		.eabi_attribute 25, 1
   9              		.eabi_attribute 26, 1
  10              		.eabi_attribute 30, 6
  11              		.eabi_attribute 34, 1
  12              		.eabi_attribute 18, 4
  13              		.thumb
  14              		.syntax unified
  15              		.file	"main.c"
  16              		.text
  17              	.Ltext0:
  18              		.cfi_sections	.debug_frame
  19              		.bss
  20              		.align	2
  21              	g_movi:
  22 0000 00000000 		.space	576
  22      00000000 
  22      00000000 
  22      00000000 
  22      00000000 
  23              		.section	.text.movi_uart_putc,"ax",%progbits
  24              		.align	2
  25              		.thumb
  26              		.thumb_func
  27              		.type	movi_uart_putc, %function
  28              	movi_uart_putc:
  29              	.LFB64:
  30              		.file 1 "main.c"
   1:main.c        **** /* main.c
   2:main.c        ****  * Author: Hamish Johnson
   3:main.c        ****  * Org: Quantum Internet Systems Lab, SFU, Physics
   4:main.c        ****  * Date: March 2026
   5:main.c        ****  *
   6:main.c        ****  * Uses:
   7:main.c        ****  *  - adc_balanced.c/.h  : round-robin ADC sampling over AMux (N_CH channels)
   8:main.c        ****  *  - joystick.c/.h      : calibration + mapping (deadband, inversion, scaling)
   9:main.c        ****  *  - movi_comm.c/.h     : MōVI Pro QX protocol HAL
  10:main.c        ****  *
  11:main.c        ****  * Application modes (app_mode):
  12:main.c        ****  *   STANDBY      : passive — pump() runs, diag prints [Status] at 1 Hz if valid
  13:main.c        ****  *   MOVI_CONTROL : sends QX277 at 10 Hz, 1 Hz diag w/ [Serial][Status][Joystick]
  14:main.c        ****  *   MOVI_TEST    : one-shot query mode — sends single attr read, prints verbose
  15:main.c        ****  *                  response or 2-second timeout.  No periodic TX or diag block.
  16:main.c        ****  *
  17:main.c        ****  * CLI keys — STANDBY / MOVI_CONTROL:
  18:main.c        ****  *   m : toggle STANDBY <-> MOVI_CONTROL
  19:main.c        ****  *   j : toggle joystick active (feeds pan/tilt commands)
  20:main.c        ****  *   l : cycle control mode DEFER -> RATE -> ABSOLUTE -> DEFER
  21:main.c        ****  *   k : kill motion, return to STANDBY, keep printing
  22:main.c        ****  *   x : kill motion, return to STANDBY, stop printing
  23:main.c        ****  *   s : toggle raw ADC stream
ARM GAS  C:\Users\JENNEW~1\AppData\Local\Temp\ccHH9OS0.s 			page 2


  24:main.c        ****  *   c : calibration advance
  25:main.c        ****  *   t : enter MOVI_TEST mode (from STANDBY only)
  26:main.c        ****  *
  27:main.c        ****  * CLI keys — MOVI_TEST:
  28:main.c        ****  *   a : request attr 22  — gimbal attitude (euler: roll/pitch/yaw + errors + rates)
  29:main.c        ****  *   g : request attr  4  — GPS (lat/lon/alt/speed/heading/accuracy)
  30:main.c        ****  *   b : request attr  3  — baro altitude + rate of climb
  31:main.c        ****  *   s : request attr  1  — system status (battery, sats, temp, CPU, pressure)
  32:main.c        ****  *   n : request attr 12  — magnetometer (XYZ, magnitude, freq, offsets, declination)
  33:main.c        ****  *   t : exit MOVI_TEST, return to STANDBY
  34:main.c        ****  *   k/x : kill + exit to STANDBY
  35:main.c        ****  */
  36:main.c        **** 
  37:main.c        **** #include <project.h>
  38:main.c        **** #include <stdio.h>
  39:main.c        **** #include <math.h>
  40:main.c        **** 
  41:main.c        **** #include "adc_balanced.h"
  42:main.c        **** #include "joystick.h"
  43:main.c        **** #include "movi_comm.h"
  44:main.c        **** 
  45:main.c        **** /* =========================================================================
  46:main.c        ****  * Constants
  47:main.c        ****  * ========================================================================= */
  48:main.c        **** #define TRANSMIT_BUFFER_SIZE  160u
  49:main.c        **** #define MOVI_TX_PERIOD_MS     100u   /* 10 Hz control TX                     */
  50:main.c        **** #define DIAG_PERIOD_MS        1000u  /* 1 Hz diagnostic print (MOVI_CONTROL) */
  51:main.c        **** #define TEST_TIMEOUT_MS       2000u  /* test mode: max wait for response      */
  52:main.c        **** 
  53:main.c        **** #define FALSE  0
  54:main.c        **** #define TRUE   1
  55:main.c        **** 
  56:main.c        **** #define CH_X (0u)  /* pan  */
  57:main.c        **** #define CH_Y (1u)  /* tilt */
  58:main.c        **** 
  59:main.c        **** /* =========================================================================
  60:main.c        ****  * App mode state machine
  61:main.c        ****  * ========================================================================= */
  62:main.c        **** typedef enum {
  63:main.c        ****     APP_MODE_STANDBY      = 0,
  64:main.c        ****     APP_MODE_MOVI_CONTROL = 1,
  65:main.c        ****     APP_MODE_MOVI_TEST    = 2,
  66:main.c        **** } app_mode_t;
  67:main.c        **** 
  68:main.c        **** 
  69:main.c        **** 
  70:main.c        **** /* =========================================================================
  71:main.c        ****  * Hardware / globals
  72:main.c        ****  * ========================================================================= */
  73:main.c        **** static movi_comm_t g_movi;
  74:main.c        **** 
  75:main.c        **** static void movi_uart_putc(void* ctx, uint8_t b)
  76:main.c        **** {
  31              		.loc 1 76 0
  32              		.cfi_startproc
  33              		@ args = 0, pretend = 0, frame = 8
  34              		@ frame_needed = 1, uses_anonymous_args = 0
ARM GAS  C:\Users\JENNEW~1\AppData\Local\Temp\ccHH9OS0.s 			page 3


  35 0000 80B5     		push	{r7, lr}
  36              		.cfi_def_cfa_offset 8
  37              		.cfi_offset 7, -8
  38              		.cfi_offset 14, -4
  39 0002 82B0     		sub	sp, sp, #8
  40              		.cfi_def_cfa_offset 16
  41 0004 00AF     		add	r7, sp, #0
  42              		.cfi_def_cfa_register 7
  43 0006 7860     		str	r0, [r7, #4]
  44 0008 0B46     		mov	r3, r1
  45 000a FB70     		strb	r3, [r7, #3]
  77:main.c        ****     (void)ctx;
  78:main.c        ****     UART_MOVI_PutChar((char)b);
  46              		.loc 1 78 0
  47 000c FB78     		ldrb	r3, [r7, #3]	@ zero_extendqisi2
  48 000e 1846     		mov	r0, r3
  49 0010 FFF7FEFF 		bl	UART_MOVI_PutChar
  79:main.c        **** }
  50              		.loc 1 79 0
  51 0014 00BF     		nop
  52 0016 0837     		adds	r7, r7, #8
  53              		.cfi_def_cfa_offset 8
  54 0018 BD46     		mov	sp, r7
  55              		.cfi_def_cfa_register 13
  56              		@ sp needed
  57 001a 80BD     		pop	{r7, pc}
  58              		.cfi_endproc
  59              	.LFE64:
  60              		.size	movi_uart_putc, .-movi_uart_putc
  61              		.section	.rodata
  62              		.align	2
  63              		.type	MOVI_HAL, %object
  64              		.size	MOVI_HAL, 8
  65              	MOVI_HAL:
  66 0000 00000000 		.word	0
  67 0004 00000000 		.word	movi_uart_putc
  68              		.global	g_tick_ms
  69              		.bss
  70              		.align	2
  71              		.type	g_tick_ms, %object
  72              		.size	g_tick_ms, 4
  73              	g_tick_ms:
  74 0240 00000000 		.space	4
  75              		.section	.text.isr_rx_movi_Handler,"ax",%progbits
  76              		.align	2
  77              		.global	isr_rx_movi_Handler
  78              		.thumb
  79              		.thumb_func
  80              		.type	isr_rx_movi_Handler, %function
  81              	isr_rx_movi_Handler:
  82              	.LFB65:
  80:main.c        **** 
  81:main.c        **** static const movi_hal_t MOVI_HAL = {
  82:main.c        ****     .ctx       = NULL,
  83:main.c        ****     .uart_putc = movi_uart_putc
  84:main.c        **** };
  85:main.c        **** 
ARM GAS  C:\Users\JENNEW~1\AppData\Local\Temp\ccHH9OS0.s 			page 4


  86:main.c        **** volatile uint32 g_tick_ms = 0u;
  87:main.c        **** 
  88:main.c        **** CY_ISR(isr_rx_movi_Handler)
  89:main.c        **** {
  83              		.loc 1 89 0
  84              		.cfi_startproc
  85              		@ args = 0, pretend = 0, frame = 8
  86              		@ frame_needed = 1, uses_anonymous_args = 0
  87 0000 80B5     		push	{r7, lr}
  88              		.cfi_def_cfa_offset 8
  89              		.cfi_offset 7, -8
  90              		.cfi_offset 14, -4
  91 0002 82B0     		sub	sp, sp, #8
  92              		.cfi_def_cfa_offset 16
  93 0004 00AF     		add	r7, sp, #0
  94              		.cfi_def_cfa_register 7
  95              	.L5:
  90:main.c        ****     uint8 st;
  91:main.c        ****     do {
  92:main.c        ****         st = UART_MOVI_RXSTATUS_REG;
  96              		.loc 1 92 0
  97 0006 134B     		ldr	r3, .L6
  98 0008 1B78     		ldrb	r3, [r3]
  99 000a FB71     		strb	r3, [r7, #7]
  93:main.c        ****         if (st & (UART_MOVI_RX_STS_BREAK     |
 100              		.loc 1 93 0
 101 000c FB79     		ldrb	r3, [r7, #7]	@ zero_extendqisi2
 102 000e 03F01E03 		and	r3, r3, #30
 103 0012 002B     		cmp	r3, #0
 104 0014 07D0     		beq	.L3
  94:main.c        ****                   UART_MOVI_RX_STS_PAR_ERROR |
  95:main.c        ****                   UART_MOVI_RX_STS_STOP_ERROR|
  96:main.c        ****                   UART_MOVI_RX_STS_OVERRUN)) {
  97:main.c        ****             movi_comm_on_uart_error_flags(&g_movi,
 105              		.loc 1 97 0
 106 0016 FB79     		ldrb	r3, [r7, #7]
 107 0018 03F01E03 		and	r3, r3, #30
 108 001c DBB2     		uxtb	r3, r3
 109 001e 1946     		mov	r1, r3
 110 0020 0D48     		ldr	r0, .L6+4
 111 0022 FFF7FEFF 		bl	movi_comm_on_uart_error_flags
 112              	.L3:
  98:main.c        ****                 (uint8)(st & (UART_MOVI_RX_STS_BREAK     |
  99:main.c        ****                               UART_MOVI_RX_STS_PAR_ERROR |
 100:main.c        ****                               UART_MOVI_RX_STS_STOP_ERROR|
 101:main.c        ****                               UART_MOVI_RX_STS_OVERRUN)));
 102:main.c        ****         }
 103:main.c        ****         if (st & UART_MOVI_RX_STS_FIFO_NOTEMPTY) {
 113              		.loc 1 103 0
 114 0026 FB79     		ldrb	r3, [r7, #7]	@ zero_extendqisi2
 115 0028 03F02003 		and	r3, r3, #32
 116 002c 002B     		cmp	r3, #0
 117 002e 07D0     		beq	.L4
 118              	.LBB2:
 104:main.c        ****             uint8 b = UART_MOVI_RXDATA_REG;
 119              		.loc 1 104 0
 120 0030 0A4B     		ldr	r3, .L6+8
ARM GAS  C:\Users\JENNEW~1\AppData\Local\Temp\ccHH9OS0.s 			page 5


 121 0032 1B78     		ldrb	r3, [r3]
 122 0034 BB71     		strb	r3, [r7, #6]
 105:main.c        ****             movi_comm_on_rx_byte(&g_movi, b);
 123              		.loc 1 105 0
 124 0036 BB79     		ldrb	r3, [r7, #6]	@ zero_extendqisi2
 125 0038 1946     		mov	r1, r3
 126 003a 0748     		ldr	r0, .L6+4
 127 003c FFF7FEFF 		bl	movi_comm_on_rx_byte
 128              	.L4:
 129              	.LBE2:
 106:main.c        ****         }
 107:main.c        ****     } while (st & UART_MOVI_RX_STS_FIFO_NOTEMPTY);
 130              		.loc 1 107 0
 131 0040 FB79     		ldrb	r3, [r7, #7]	@ zero_extendqisi2
 132 0042 03F02003 		and	r3, r3, #32
 133 0046 002B     		cmp	r3, #0
 134 0048 DDD1     		bne	.L5
 108:main.c        **** }
 135              		.loc 1 108 0
 136 004a 00BF     		nop
 137 004c 0837     		adds	r7, r7, #8
 138              		.cfi_def_cfa_offset 8
 139 004e BD46     		mov	sp, r7
 140              		.cfi_def_cfa_register 13
 141              		@ sp needed
 142 0050 80BD     		pop	{r7, pc}
 143              	.L7:
 144 0052 00BF     		.align	2
 145              	.L6:
 146 0054 69640040 		.word	1073767529
 147 0058 00000000 		.word	g_movi
 148 005c 49640040 		.word	1073767497
 149              		.cfi_endproc
 150              	.LFE65:
 151              		.size	isr_rx_movi_Handler, .-isr_rx_movi_Handler
 152              		.section	.text.isr_Looptimer_Handler,"ax",%progbits
 153              		.align	2
 154              		.global	isr_Looptimer_Handler
 155              		.thumb
 156              		.thumb_func
 157              		.type	isr_Looptimer_Handler, %function
 158              	isr_Looptimer_Handler:
 159              	.LFB66:
 109:main.c        **** 
 110:main.c        **** CY_ISR(isr_Looptimer_Handler)
 111:main.c        **** {
 160              		.loc 1 111 0
 161              		.cfi_startproc
 162              		@ args = 0, pretend = 0, frame = 0
 163              		@ frame_needed = 1, uses_anonymous_args = 0
 164 0000 80B5     		push	{r7, lr}
 165              		.cfi_def_cfa_offset 8
 166              		.cfi_offset 7, -8
 167              		.cfi_offset 14, -4
 168 0002 00AF     		add	r7, sp, #0
 169              		.cfi_def_cfa_register 7
 112:main.c        ****     g_tick_ms++;
ARM GAS  C:\Users\JENNEW~1\AppData\Local\Temp\ccHH9OS0.s 			page 6


 170              		.loc 1 112 0
 171 0004 044B     		ldr	r3, .L9
 172 0006 1B68     		ldr	r3, [r3]
 173 0008 0133     		adds	r3, r3, #1
 174 000a 034A     		ldr	r2, .L9
 175 000c 1360     		str	r3, [r2]
 113:main.c        ****     Looptimer_ReadStatusRegister();
 176              		.loc 1 113 0
 177 000e FFF7FEFF 		bl	Looptimer_ReadStatusRegister
 114:main.c        **** }
 178              		.loc 1 114 0
 179 0012 00BF     		nop
 180 0014 80BD     		pop	{r7, pc}
 181              	.L10:
 182 0016 00BF     		.align	2
 183              	.L9:
 184 0018 00000000 		.word	g_tick_ms
 185              		.cfi_endproc
 186              	.LFE66:
 187              		.size	isr_Looptimer_Handler, .-isr_Looptimer_Handler
 188              		.global	__aeabi_fcmplt
 189              		.global	__aeabi_f2iz
 190              		.global	__aeabi_i2f
 191              		.global	__aeabi_fsub
 192              		.global	__aeabi_fmul
 193              		.section	.text.decomp,"ax",%progbits
 194              		.align	2
 195              		.thumb
 196              		.thumb_func
 197              		.type	decomp, %function
 198              	decomp:
 199              	.LFB67:
 115:main.c        **** 
 116:main.c        **** /* =========================================================================
 117:main.c        ****  * Helpers
 118:main.c        ****  * ========================================================================= */
 119:main.c        **** 
 120:main.c        **** /* Decompose signed float to sign char + integer + 2-decimal fraction. */
 121:main.c        **** static void decomp(float val, int16* i_out, int16* f_out, char* sign_out)
 122:main.c        **** {
 200              		.loc 1 122 0
 201              		.cfi_startproc
 202              		@ args = 0, pretend = 0, frame = 16
 203              		@ frame_needed = 1, uses_anonymous_args = 0
 204 0000 80B5     		push	{r7, lr}
 205              		.cfi_def_cfa_offset 8
 206              		.cfi_offset 7, -8
 207              		.cfi_offset 14, -4
 208 0002 84B0     		sub	sp, sp, #16
 209              		.cfi_def_cfa_offset 24
 210 0004 00AF     		add	r7, sp, #0
 211              		.cfi_def_cfa_register 7
 212 0006 F860     		str	r0, [r7, #12]	@ float
 213 0008 B960     		str	r1, [r7, #8]
 214 000a 7A60     		str	r2, [r7, #4]
 215 000c 3B60     		str	r3, [r7]
 123:main.c        ****     *sign_out = (val < 0.0f) ? '-' : ' ';
ARM GAS  C:\Users\JENNEW~1\AppData\Local\Temp\ccHH9OS0.s 			page 7


 216              		.loc 1 123 0
 217 000e 4FF00001 		mov	r1, #0
 218 0012 F868     		ldr	r0, [r7, #12]	@ float
 219 0014 FFF7FEFF 		bl	__aeabi_fcmplt
 220 0018 0346     		mov	r3, r0
 221 001a 002B     		cmp	r3, #0
 222 001c 01D0     		beq	.L20
 223              		.loc 1 123 0 is_stmt 0 discriminator 1
 224 001e 2D22     		movs	r2, #45
 225 0020 00E0     		b	.L14
 226              	.L20:
 227              		.loc 1 123 0 discriminator 2
 228 0022 2022     		movs	r2, #32
 229              	.L14:
 230              		.loc 1 123 0 discriminator 4
 231 0024 3B68     		ldr	r3, [r7]
 232 0026 1A70     		strb	r2, [r3]
 124:main.c        ****     if (val < 0.0f) val = -val;
 233              		.loc 1 124 0 is_stmt 1 discriminator 4
 234 0028 4FF00001 		mov	r1, #0
 235 002c F868     		ldr	r0, [r7, #12]	@ float
 236 002e FFF7FEFF 		bl	__aeabi_fcmplt
 237 0032 0346     		mov	r3, r0
 238 0034 002B     		cmp	r3, #0
 239 0036 03D0     		beq	.L15
 240              		.loc 1 124 0 is_stmt 0 discriminator 1
 241 0038 FB68     		ldr	r3, [r7, #12]
 242 003a 83F00043 		eor	r3, r3, #-2147483648
 243 003e FB60     		str	r3, [r7, #12]	@ float
 244              	.L15:
 125:main.c        ****     *i_out = (int16)val;
 245              		.loc 1 125 0 is_stmt 1
 246 0040 F868     		ldr	r0, [r7, #12]	@ float
 247 0042 FFF7FEFF 		bl	__aeabi_f2iz
 248 0046 0346     		mov	r3, r0
 249 0048 1AB2     		sxth	r2, r3
 250 004a BB68     		ldr	r3, [r7, #8]
 251 004c 1A80     		strh	r2, [r3]	@ movhi
 126:main.c        ****     *f_out = (int16)((val - (float)*i_out) * 100.0f);
 252              		.loc 1 126 0
 253 004e BB68     		ldr	r3, [r7, #8]
 254 0050 B3F90030 		ldrsh	r3, [r3]
 255 0054 1846     		mov	r0, r3
 256 0056 FFF7FEFF 		bl	__aeabi_i2f
 257 005a 0346     		mov	r3, r0
 258 005c 1946     		mov	r1, r3
 259 005e F868     		ldr	r0, [r7, #12]	@ float
 260 0060 FFF7FEFF 		bl	__aeabi_fsub
 261 0064 0346     		mov	r3, r0
 262 0066 0F49     		ldr	r1, .L22
 263 0068 1846     		mov	r0, r3
 264 006a FFF7FEFF 		bl	__aeabi_fmul
 265 006e 0346     		mov	r3, r0
 266 0070 1846     		mov	r0, r3
 267 0072 FFF7FEFF 		bl	__aeabi_f2iz
 268 0076 0346     		mov	r3, r0
 269 0078 1AB2     		sxth	r2, r3
ARM GAS  C:\Users\JENNEW~1\AppData\Local\Temp\ccHH9OS0.s 			page 8


 270 007a 7B68     		ldr	r3, [r7, #4]
 271 007c 1A80     		strh	r2, [r3]	@ movhi
 127:main.c        ****     if (*f_out < 0) *f_out = -*f_out;
 272              		.loc 1 127 0
 273 007e 7B68     		ldr	r3, [r7, #4]
 274 0080 B3F90030 		ldrsh	r3, [r3]
 275 0084 002B     		cmp	r3, #0
 276 0086 08DA     		bge	.L21
 277              		.loc 1 127 0 is_stmt 0 discriminator 1
 278 0088 7B68     		ldr	r3, [r7, #4]
 279 008a B3F90030 		ldrsh	r3, [r3]
 280 008e 9BB2     		uxth	r3, r3
 281 0090 5B42     		negs	r3, r3
 282 0092 9BB2     		uxth	r3, r3
 283 0094 1AB2     		sxth	r2, r3
 284 0096 7B68     		ldr	r3, [r7, #4]
 285 0098 1A80     		strh	r2, [r3]	@ movhi
 286              	.L21:
 128:main.c        **** }
 287              		.loc 1 128 0 is_stmt 1
 288 009a 00BF     		nop
 289 009c 1037     		adds	r7, r7, #16
 290              		.cfi_def_cfa_offset 8
 291 009e BD46     		mov	sp, r7
 292              		.cfi_def_cfa_register 13
 293              		@ sp needed
 294 00a0 80BD     		pop	{r7, pc}
 295              	.L23:
 296 00a2 00BF     		.align	2
 297              	.L22:
 298 00a4 0000C842 		.word	1120403456
 299              		.cfi_endproc
 300              	.LFE67:
 301              		.size	decomp, .-decomp
 302              		.global	__aeabi_fadd
 303              		.global	__aeabi_fcmpge
 304              		.global	__aeabi_fcmple
 305              		.section	.text.compute_euler_ints,"ax",%progbits
 306              		.align	2
 307              		.thumb
 308              		.thumb_func
 309              		.type	compute_euler_ints, %function
 310              	compute_euler_ints:
 311              	.LFB68:
 129:main.c        **** 
 130:main.c        **** static void compute_euler_ints(const movi_status_t* st,
 131:main.c        ****                                 char* pan_s,  int16* pan_i,  int16* pan_f,
 132:main.c        ****                                 char* tilt_s, int16* tilt_i, int16* tilt_f,
 133:main.c        ****                                 char* roll_s, int16* roll_i, int16* roll_f)
 134:main.c        **** {
 312              		.loc 1 134 0
 313              		.cfi_startproc
 314              		@ args = 24, pretend = 0, frame = 64
 315              		@ frame_needed = 1, uses_anonymous_args = 0
 316 0000 90B5     		push	{r4, r7, lr}
 317              		.cfi_def_cfa_offset 12
 318              		.cfi_offset 4, -12
ARM GAS  C:\Users\JENNEW~1\AppData\Local\Temp\ccHH9OS0.s 			page 9


 319              		.cfi_offset 7, -8
 320              		.cfi_offset 14, -4
 321 0002 91B0     		sub	sp, sp, #68
 322              		.cfi_def_cfa_offset 80
 323 0004 00AF     		add	r7, sp, #0
 324              		.cfi_def_cfa_register 7
 325 0006 F860     		str	r0, [r7, #12]
 326 0008 B960     		str	r1, [r7, #8]
 327 000a 7A60     		str	r2, [r7, #4]
 328 000c 3B60     		str	r3, [r7]
 135:main.c        ****     float r  = st->gimbal_r;
 329              		.loc 1 135 0
 330 000e FB68     		ldr	r3, [r7, #12]
 331 0010 DB68     		ldr	r3, [r3, #12]	@ float
 332 0012 FB63     		str	r3, [r7, #60]	@ float
 136:main.c        ****     float ii = st->gimbal_i;
 333              		.loc 1 136 0
 334 0014 FB68     		ldr	r3, [r7, #12]
 335 0016 1B69     		ldr	r3, [r3, #16]	@ float
 336 0018 BB63     		str	r3, [r7, #56]	@ float
 137:main.c        ****     float j  = st->gimbal_j;
 337              		.loc 1 137 0
 338 001a FB68     		ldr	r3, [r7, #12]
 339 001c 5B69     		ldr	r3, [r3, #20]	@ float
 340 001e 7B63     		str	r3, [r7, #52]	@ float
 138:main.c        ****     float k  = st->gimbal_k;
 341              		.loc 1 138 0
 342 0020 FB68     		ldr	r3, [r7, #12]
 343 0022 9B69     		ldr	r3, [r3, #24]	@ float
 344 0024 3B63     		str	r3, [r7, #48]	@ float
 139:main.c        **** 
 140:main.c        ****     float sinr_val = 2.0f * (r*ii + j*k);
 345              		.loc 1 140 0
 346 0026 B96B     		ldr	r1, [r7, #56]	@ float
 347 0028 F86B     		ldr	r0, [r7, #60]	@ float
 348 002a FFF7FEFF 		bl	__aeabi_fmul
 349 002e 0346     		mov	r3, r0
 350 0030 1C46     		mov	r4, r3
 351 0032 396B     		ldr	r1, [r7, #48]	@ float
 352 0034 786B     		ldr	r0, [r7, #52]	@ float
 353 0036 FFF7FEFF 		bl	__aeabi_fmul
 354 003a 0346     		mov	r3, r0
 355 003c 1946     		mov	r1, r3
 356 003e 2046     		mov	r0, r4
 357 0040 FFF7FEFF 		bl	__aeabi_fadd
 358 0044 0346     		mov	r3, r0
 359 0046 1946     		mov	r1, r3
 360 0048 1846     		mov	r0, r3
 361 004a FFF7FEFF 		bl	__aeabi_fadd
 362 004e 0346     		mov	r3, r0
 363 0050 FB62     		str	r3, [r7, #44]	@ float
 141:main.c        ****     float cosr_val = 1.0f - 2.0f * (ii*ii + j*j);
 364              		.loc 1 141 0
 365 0052 B96B     		ldr	r1, [r7, #56]	@ float
 366 0054 B86B     		ldr	r0, [r7, #56]	@ float
 367 0056 FFF7FEFF 		bl	__aeabi_fmul
 368 005a 0346     		mov	r3, r0
ARM GAS  C:\Users\JENNEW~1\AppData\Local\Temp\ccHH9OS0.s 			page 10


 369 005c 1C46     		mov	r4, r3
 370 005e 796B     		ldr	r1, [r7, #52]	@ float
 371 0060 786B     		ldr	r0, [r7, #52]	@ float
 372 0062 FFF7FEFF 		bl	__aeabi_fmul
 373 0066 0346     		mov	r3, r0
 374 0068 1946     		mov	r1, r3
 375 006a 2046     		mov	r0, r4
 376 006c FFF7FEFF 		bl	__aeabi_fadd
 377 0070 0346     		mov	r3, r0
 378 0072 1946     		mov	r1, r3
 379 0074 1846     		mov	r0, r3
 380 0076 FFF7FEFF 		bl	__aeabi_fadd
 381 007a 0346     		mov	r3, r0
 382 007c 1946     		mov	r1, r3
 383 007e 4FF07E50 		mov	r0, #1065353216
 384 0082 FFF7FEFF 		bl	__aeabi_fsub
 385 0086 0346     		mov	r3, r0
 386 0088 BB62     		str	r3, [r7, #40]	@ float
 142:main.c        ****     float roll_deg = atan2f(sinr_val, cosr_val) * 57.2958f;
 387              		.loc 1 142 0
 388 008a B96A     		ldr	r1, [r7, #40]	@ float
 389 008c F86A     		ldr	r0, [r7, #44]	@ float
 390 008e FFF7FEFF 		bl	atan2f
 391 0092 0346     		mov	r3, r0
 392 0094 4549     		ldr	r1, .L35
 393 0096 1846     		mov	r0, r3
 394 0098 FFF7FEFF 		bl	__aeabi_fmul
 395 009c 0346     		mov	r3, r0
 396 009e 7B62     		str	r3, [r7, #36]	@ float
 143:main.c        **** 
 144:main.c        ****     float sinp = 2.0f * (r*j - k*ii);
 397              		.loc 1 144 0
 398 00a0 796B     		ldr	r1, [r7, #52]	@ float
 399 00a2 F86B     		ldr	r0, [r7, #60]	@ float
 400 00a4 FFF7FEFF 		bl	__aeabi_fmul
 401 00a8 0346     		mov	r3, r0
 402 00aa 1C46     		mov	r4, r3
 403 00ac B96B     		ldr	r1, [r7, #56]	@ float
 404 00ae 386B     		ldr	r0, [r7, #48]	@ float
 405 00b0 FFF7FEFF 		bl	__aeabi_fmul
 406 00b4 0346     		mov	r3, r0
 407 00b6 1946     		mov	r1, r3
 408 00b8 2046     		mov	r0, r4
 409 00ba FFF7FEFF 		bl	__aeabi_fsub
 410 00be 0346     		mov	r3, r0
 411 00c0 1946     		mov	r1, r3
 412 00c2 1846     		mov	r0, r3
 413 00c4 FFF7FEFF 		bl	__aeabi_fadd
 414 00c8 0346     		mov	r3, r0
 415 00ca 3B62     		str	r3, [r7, #32]	@ float
 145:main.c        ****     float tilt_deg = (sinp >=  1.0f) ?  90.0f :
 416              		.loc 1 145 0
 417 00cc 4FF07E51 		mov	r1, #1065353216
 418 00d0 386A     		ldr	r0, [r7, #32]	@ float
 419 00d2 FFF7FEFF 		bl	__aeabi_fcmpge
 420 00d6 0346     		mov	r3, r0
 421 00d8 002B     		cmp	r3, #0
ARM GAS  C:\Users\JENNEW~1\AppData\Local\Temp\ccHH9OS0.s 			page 11


 422 00da 01D0     		beq	.L33
 423              		.loc 1 145 0 is_stmt 0 discriminator 1
 424 00dc 344B     		ldr	r3, .L35+4
 425 00de 11E0     		b	.L27
 426              	.L33:
 146:main.c        ****                      (sinp <= -1.0f) ? -90.0f :
 427              		.loc 1 146 0 is_stmt 1
 428 00e0 3449     		ldr	r1, .L35+8
 429 00e2 386A     		ldr	r0, [r7, #32]	@ float
 430 00e4 FFF7FEFF 		bl	__aeabi_fcmple
 431 00e8 0346     		mov	r3, r0
 432 00ea 002B     		cmp	r3, #0
 433 00ec 01D0     		beq	.L34
 434              		.loc 1 146 0 is_stmt 0 discriminator 1
 435 00ee 324B     		ldr	r3, .L35+12
 436 00f0 08E0     		b	.L27
 437              	.L34:
 147:main.c        ****                      asinf(sinp) * 57.2958f;
 438              		.loc 1 147 0 is_stmt 1 discriminator 2
 439 00f2 386A     		ldr	r0, [r7, #32]	@ float
 440 00f4 FFF7FEFF 		bl	asinf
 441 00f8 0346     		mov	r3, r0
 146:main.c        ****                      (sinp <= -1.0f) ? -90.0f :
 442              		.loc 1 146 0 discriminator 2
 443 00fa 2C49     		ldr	r1, .L35
 444 00fc 1846     		mov	r0, r3
 445 00fe FFF7FEFF 		bl	__aeabi_fmul
 446 0102 0346     		mov	r3, r0
 447              	.L27:
 145:main.c        ****     float tilt_deg = (sinp >=  1.0f) ?  90.0f :
 448              		.loc 1 145 0 discriminator 2
 449 0104 FB61     		str	r3, [r7, #28]	@ float
 148:main.c        **** 
 149:main.c        ****     float siny_val = 2.0f * (r*k + ii*j);
 450              		.loc 1 149 0 discriminator 2
 451 0106 396B     		ldr	r1, [r7, #48]	@ float
 452 0108 F86B     		ldr	r0, [r7, #60]	@ float
 453 010a FFF7FEFF 		bl	__aeabi_fmul
 454 010e 0346     		mov	r3, r0
 455 0110 1C46     		mov	r4, r3
 456 0112 796B     		ldr	r1, [r7, #52]	@ float
 457 0114 B86B     		ldr	r0, [r7, #56]	@ float
 458 0116 FFF7FEFF 		bl	__aeabi_fmul
 459 011a 0346     		mov	r3, r0
 460 011c 1946     		mov	r1, r3
 461 011e 2046     		mov	r0, r4
 462 0120 FFF7FEFF 		bl	__aeabi_fadd
 463 0124 0346     		mov	r3, r0
 464 0126 1946     		mov	r1, r3
 465 0128 1846     		mov	r0, r3
 466 012a FFF7FEFF 		bl	__aeabi_fadd
 467 012e 0346     		mov	r3, r0
 468 0130 BB61     		str	r3, [r7, #24]	@ float
 150:main.c        ****     float cosy_val = 1.0f - 2.0f * (j*j + k*k);
 469              		.loc 1 150 0 discriminator 2
 470 0132 796B     		ldr	r1, [r7, #52]	@ float
 471 0134 786B     		ldr	r0, [r7, #52]	@ float
ARM GAS  C:\Users\JENNEW~1\AppData\Local\Temp\ccHH9OS0.s 			page 12


 472 0136 FFF7FEFF 		bl	__aeabi_fmul
 473 013a 0346     		mov	r3, r0
 474 013c 1C46     		mov	r4, r3
 475 013e 396B     		ldr	r1, [r7, #48]	@ float
 476 0140 386B     		ldr	r0, [r7, #48]	@ float
 477 0142 FFF7FEFF 		bl	__aeabi_fmul
 478 0146 0346     		mov	r3, r0
 479 0148 1946     		mov	r1, r3
 480 014a 2046     		mov	r0, r4
 481 014c FFF7FEFF 		bl	__aeabi_fadd
 482 0150 0346     		mov	r3, r0
 483 0152 1946     		mov	r1, r3
 484 0154 1846     		mov	r0, r3
 485 0156 FFF7FEFF 		bl	__aeabi_fadd
 486 015a 0346     		mov	r3, r0
 487 015c 1946     		mov	r1, r3
 488 015e 4FF07E50 		mov	r0, #1065353216
 489 0162 FFF7FEFF 		bl	__aeabi_fsub
 490 0166 0346     		mov	r3, r0
 491 0168 7B61     		str	r3, [r7, #20]	@ float
 151:main.c        ****     float pan_deg  = atan2f(siny_val, cosy_val) * 57.2958f;
 492              		.loc 1 151 0 discriminator 2
 493 016a 7969     		ldr	r1, [r7, #20]	@ float
 494 016c B869     		ldr	r0, [r7, #24]	@ float
 495 016e FFF7FEFF 		bl	atan2f
 496 0172 0346     		mov	r3, r0
 497 0174 0D49     		ldr	r1, .L35
 498 0176 1846     		mov	r0, r3
 499 0178 FFF7FEFF 		bl	__aeabi_fmul
 500 017c 0346     		mov	r3, r0
 501 017e 3B61     		str	r3, [r7, #16]	@ float
 152:main.c        **** 
 153:main.c        ****     decomp(pan_deg,  pan_i,  pan_f,  pan_s);
 502              		.loc 1 153 0 discriminator 2
 503 0180 BB68     		ldr	r3, [r7, #8]
 504 0182 3A68     		ldr	r2, [r7]
 505 0184 7968     		ldr	r1, [r7, #4]
 506 0186 3869     		ldr	r0, [r7, #16]	@ float
 507 0188 FFF7FEFF 		bl	decomp
 154:main.c        ****     decomp(tilt_deg, tilt_i, tilt_f, tilt_s);
 508              		.loc 1 154 0 discriminator 2
 509 018c 3B6D     		ldr	r3, [r7, #80]
 510 018e BA6D     		ldr	r2, [r7, #88]
 511 0190 796D     		ldr	r1, [r7, #84]
 512 0192 F869     		ldr	r0, [r7, #28]	@ float
 513 0194 FFF7FEFF 		bl	decomp
 155:main.c        ****     decomp(roll_deg, roll_i, roll_f, roll_s);
 514              		.loc 1 155 0 discriminator 2
 515 0198 FB6D     		ldr	r3, [r7, #92]
 516 019a 7A6E     		ldr	r2, [r7, #100]
 517 019c 396E     		ldr	r1, [r7, #96]
 518 019e 786A     		ldr	r0, [r7, #36]	@ float
 519 01a0 FFF7FEFF 		bl	decomp
 156:main.c        **** }
 520              		.loc 1 156 0 discriminator 2
 521 01a4 00BF     		nop
 522 01a6 4437     		adds	r7, r7, #68
ARM GAS  C:\Users\JENNEW~1\AppData\Local\Temp\ccHH9OS0.s 			page 13


 523              		.cfi_def_cfa_offset 12
 524 01a8 BD46     		mov	sp, r7
 525              		.cfi_def_cfa_register 13
 526              		@ sp needed
 527 01aa 90BD     		pop	{r4, r7, pc}
 528              	.L36:
 529              		.align	2
 530              	.L35:
 531 01ac E62E6542 		.word	1113927398
 532 01b0 0000B442 		.word	1119092736
 533 01b4 000080BF 		.word	-1082130432
 534 01b8 0000B4C2 		.word	-1028390912
 535              		.cfi_endproc
 536              	.LFE68:
 537              		.size	compute_euler_ints, .-compute_euler_ints
 538              		.section	.rodata
 539              		.align	2
 540              	.LC0:
 541 0008 52415445 		.ascii	"RATE\000"
 541      00
 542 000d 000000   		.align	2
 543              	.LC1:
 544 0010 41425320 		.ascii	"ABS \000"
 544      00
 545 0015 000000   		.align	2
 546              	.LC2:
 547 0018 44454652 		.ascii	"DEFR\000"
 547      00
 548              		.section	.text.mode_to_str,"ax",%progbits
 549              		.align	2
 550              		.thumb
 551              		.thumb_func
 552              		.type	mode_to_str, %function
 553              	mode_to_str:
 554              	.LFB69:
 157:main.c        **** 
 158:main.c        **** static const char* mode_to_str(ff_api_control_type_e m)
 159:main.c        **** {
 555              		.loc 1 159 0
 556              		.cfi_startproc
 557              		@ args = 0, pretend = 0, frame = 8
 558              		@ frame_needed = 1, uses_anonymous_args = 0
 559              		@ link register save eliminated.
 560 0000 80B4     		push	{r7}
 561              		.cfi_def_cfa_offset 4
 562              		.cfi_offset 7, -4
 563 0002 83B0     		sub	sp, sp, #12
 564              		.cfi_def_cfa_offset 16
 565 0004 00AF     		add	r7, sp, #0
 566              		.cfi_def_cfa_register 7
 567 0006 0346     		mov	r3, r0
 568 0008 FB71     		strb	r3, [r7, #7]
 160:main.c        ****     switch (m) {
 569              		.loc 1 160 0
 570 000a FB79     		ldrb	r3, [r7, #7]	@ zero_extendqisi2
 571 000c 012B     		cmp	r3, #1
 572 000e 02D0     		beq	.L39
ARM GAS  C:\Users\JENNEW~1\AppData\Local\Temp\ccHH9OS0.s 			page 14


 573 0010 022B     		cmp	r3, #2
 574 0012 02D0     		beq	.L40
 575 0014 03E0     		b	.L42
 576              	.L39:
 161:main.c        ****         case RATE:     return "RATE";
 577              		.loc 1 161 0
 578 0016 054B     		ldr	r3, .L43
 579 0018 02E0     		b	.L41
 580              	.L40:
 162:main.c        ****         case ABSOLUTE: return "ABS ";
 581              		.loc 1 162 0
 582 001a 054B     		ldr	r3, .L43+4
 583 001c 00E0     		b	.L41
 584              	.L42:
 163:main.c        ****         default:       return "DEFR";
 585              		.loc 1 163 0
 586 001e 054B     		ldr	r3, .L43+8
 587              	.L41:
 164:main.c        ****     }
 165:main.c        **** }
 588              		.loc 1 165 0
 589 0020 1846     		mov	r0, r3
 590 0022 0C37     		adds	r7, r7, #12
 591              		.cfi_def_cfa_offset 4
 592 0024 BD46     		mov	sp, r7
 593              		.cfi_def_cfa_register 13
 594              		@ sp needed
 595 0026 80BC     		pop	{r7}
 596              		.cfi_restore 7
 597              		.cfi_def_cfa_offset 0
 598 0028 7047     		bx	lr
 599              	.L44:
 600 002a 00BF     		.align	2
 601              	.L43:
 602 002c 08000000 		.word	.LC0
 603 0030 10000000 		.word	.LC1
 604 0034 18000000 		.word	.LC2
 605              		.cfi_endproc
 606              	.LFE69:
 607              		.size	mode_to_str, .-mode_to_str
 608              		.section	.rodata
 609 001d 000000   		.align	2
 610              	.LC3:
 611 0020 0D0A5B43 		.ascii	"\015\012[CAL] Step 1: Move joystick through FULL ra"
 611      414C5D20 
 611      53746570 
 611      20313A20 
 611      4D6F7665 
 612 004d 6E67652C 		.ascii	"nge, then release to center.\015\012\000"
 612      20746865 
 612      6E207265 
 612      6C656173 
 612      6520746F 
 613              		.align	2
 614              	.LC4:
 615 006c 5B43414C 		.ascii	"[CAL] Press 'c' to proceed to center capture, 'x' t"
 615      5D205072 
ARM GAS  C:\Users\JENNEW~1\AppData\Local\Temp\ccHH9OS0.s 			page 15


 615      65737320 
 615      27632720 
 615      746F2070 
 616 009f 6F206361 		.ascii	"o cancel.\015\012\000"
 616      6E63656C 
 616      2E0D0A00 
 617 00ab 00       		.align	2
 618              	.LC5:
 619 00ac 0D0A5B43 		.ascii	"\015\012[CAL] Step 2: Hold center -- averaging...\015"
 619      414C5D20 
 619      53746570 
 619      20323A20 
 619      486F6C64 
 620 00d8 0A00     		.ascii	"\012\000"
 621 00da 0000     		.align	2
 622              	.LC6:
 623 00dc 0D0A5B43 		.ascii	"\015\012[CAL] Step 3: Center captured. Press 'c' to"
 623      414C5D20 
 623      53746570 
 623      20333A20 
 623      43656E74 
 624 0109 20534156 		.ascii	" SAVE, 'x' to cancel.\015\012\000"
 624      452C2027 
 624      78272074 
 624      6F206361 
 624      6E63656C 
 625 0121 000000   		.align	2
 626              	.LC7:
 627 0124 5B43414C 		.ascii	"[CAL] Exited.\015\012\000"
 627      5D204578 
 627      69746564 
 627      2E0D0A00 
 628              		.section	.text.print_cal_prompt_on_state_change,"ax",%progbits
 629              		.align	2
 630              		.thumb
 631              		.thumb_func
 632              		.type	print_cal_prompt_on_state_change, %function
 633              	print_cal_prompt_on_state_change:
 634              	.LFB70:
 166:main.c        **** 
 167:main.c        **** static void print_cal_prompt_on_state_change(joy_cal_state_t prev, joy_cal_state_t now)
 168:main.c        **** {
 635              		.loc 1 168 0
 636              		.cfi_startproc
 637              		@ args = 0, pretend = 0, frame = 8
 638              		@ frame_needed = 1, uses_anonymous_args = 0
 639 0000 80B5     		push	{r7, lr}
 640              		.cfi_def_cfa_offset 8
 641              		.cfi_offset 7, -8
 642              		.cfi_offset 14, -4
 643 0002 82B0     		sub	sp, sp, #8
 644              		.cfi_def_cfa_offset 16
 645 0004 00AF     		add	r7, sp, #0
 646              		.cfi_def_cfa_register 7
 647 0006 0346     		mov	r3, r0
 648 0008 0A46     		mov	r2, r1
 649 000a FB71     		strb	r3, [r7, #7]
ARM GAS  C:\Users\JENNEW~1\AppData\Local\Temp\ccHH9OS0.s 			page 16


 650 000c 1346     		mov	r3, r2
 651 000e BB71     		strb	r3, [r7, #6]
 169:main.c        ****     if (prev == now) return;
 652              		.loc 1 169 0
 653 0010 FA79     		ldrb	r2, [r7, #7]	@ zero_extendqisi2
 654 0012 BB79     		ldrb	r3, [r7, #6]	@ zero_extendqisi2
 655 0014 9A42     		cmp	r2, r3
 656 0016 21D0     		beq	.L51
 170:main.c        ****     if (now == JOY_CAL_RANGE_CAPTURE) {
 657              		.loc 1 170 0
 658 0018 BB79     		ldrb	r3, [r7, #6]	@ zero_extendqisi2
 659 001a 012B     		cmp	r3, #1
 660 001c 06D1     		bne	.L48
 171:main.c        ****         UART_1_PutString("\r\n[CAL] Step 1: Move joystick through FULL range, then release to cente
 661              		.loc 1 171 0
 662 001e 1148     		ldr	r0, .L52
 663 0020 FFF7FEFF 		bl	UART_1_PutString
 172:main.c        ****         UART_1_PutString("[CAL] Press 'c' to proceed to center capture, 'x' to cancel.\r\n");
 664              		.loc 1 172 0
 665 0024 1048     		ldr	r0, .L52+4
 666 0026 FFF7FEFF 		bl	UART_1_PutString
 667 002a 18E0     		b	.L45
 668              	.L48:
 173:main.c        ****     } else if (now == JOY_CAL_CENTER_CAPTURE) {
 669              		.loc 1 173 0
 670 002c BB79     		ldrb	r3, [r7, #6]	@ zero_extendqisi2
 671 002e 022B     		cmp	r3, #2
 672 0030 03D1     		bne	.L49
 174:main.c        ****         UART_1_PutString("\r\n[CAL] Step 2: Hold center -- averaging...\r\n");
 673              		.loc 1 174 0
 674 0032 0E48     		ldr	r0, .L52+8
 675 0034 FFF7FEFF 		bl	UART_1_PutString
 676 0038 11E0     		b	.L45
 677              	.L49:
 175:main.c        ****     } else if (now == JOY_CAL_CONFIRM_SAVE) {
 678              		.loc 1 175 0
 679 003a BB79     		ldrb	r3, [r7, #6]	@ zero_extendqisi2
 680 003c 032B     		cmp	r3, #3
 681 003e 03D1     		bne	.L50
 176:main.c        ****         UART_1_PutString("\r\n[CAL] Step 3: Center captured. Press 'c' to SAVE, 'x' to cancel.\r\n"
 682              		.loc 1 176 0
 683 0040 0B48     		ldr	r0, .L52+12
 684 0042 FFF7FEFF 		bl	UART_1_PutString
 685 0046 0AE0     		b	.L45
 686              	.L50:
 177:main.c        ****     } else if (now == JOY_CAL_OFF && prev != JOY_CAL_OFF) {
 687              		.loc 1 177 0
 688 0048 BB79     		ldrb	r3, [r7, #6]	@ zero_extendqisi2
 689 004a 002B     		cmp	r3, #0
 690 004c 07D1     		bne	.L45
 691              		.loc 1 177 0 is_stmt 0 discriminator 1
 692 004e FB79     		ldrb	r3, [r7, #7]	@ zero_extendqisi2
 693 0050 002B     		cmp	r3, #0
 694 0052 04D0     		beq	.L45
 178:main.c        ****         UART_1_PutString("[CAL] Exited.\r\n");
 695              		.loc 1 178 0 is_stmt 1
 696 0054 0748     		ldr	r0, .L52+16
ARM GAS  C:\Users\JENNEW~1\AppData\Local\Temp\ccHH9OS0.s 			page 17


 697 0056 FFF7FEFF 		bl	UART_1_PutString
 698 005a 00E0     		b	.L45
 699              	.L51:
 169:main.c        ****     if (now == JOY_CAL_RANGE_CAPTURE) {
 700              		.loc 1 169 0
 701 005c 00BF     		nop
 702              	.L45:
 179:main.c        ****     }
 180:main.c        **** }
 703              		.loc 1 180 0
 704 005e 0837     		adds	r7, r7, #8
 705              		.cfi_def_cfa_offset 8
 706 0060 BD46     		mov	sp, r7
 707              		.cfi_def_cfa_register 13
 708              		@ sp needed
 709 0062 80BD     		pop	{r7, pc}
 710              	.L53:
 711              		.align	2
 712              	.L52:
 713 0064 20000000 		.word	.LC3
 714 0068 6C000000 		.word	.LC4
 715 006c AC000000 		.word	.LC5
 716 0070 DC000000 		.word	.LC6
 717 0074 24010000 		.word	.LC7
 718              		.cfi_endproc
 719              	.LFE70:
 720              		.size	print_cal_prompt_on_state_change, .-print_cal_prompt_on_state_change
 721              		.section	.rodata
 722              		.align	2
 723              	.LC8:
 724 0134 5B434C49 		.ascii	"[CLI] Kill packet sent\015\012\000"
 724      5D204B69 
 724      6C6C2070 
 724      61636B65 
 724      74207365 
 725 014d 000000   		.align	2
 726              	.LC9:
 727 0150 5B434C49 		.ascii	"[CLI] All stopped  Mode: DEFR  -> STANDBY\015\012\000"
 727      5D20416C 
 727      6C207374 
 727      6F707065 
 727      6420204D 
 728              		.section	.text.do_kill,"ax",%progbits
 729              		.align	2
 730              		.thumb
 731              		.thumb_func
 732              		.type	do_kill, %function
 733              	do_kill:
 734              	.LFB71:
 181:main.c        **** 
 182:main.c        **** /* =========================================================================
 183:main.c        ****  * kill helper — common to 'k' and 'x'
 184:main.c        ****  * ========================================================================= */
 185:main.c        **** static void do_kill(movi_comm_t* movi, app_mode_t* mode,
 186:main.c        ****                     uint8* joystick_active, uint8* streaming_adc,
 187:main.c        ****                     ff_api_control_type_e* ctrl_mode)
 188:main.c        **** {
ARM GAS  C:\Users\JENNEW~1\AppData\Local\Temp\ccHH9OS0.s 			page 18


 735              		.loc 1 188 0
 736              		.cfi_startproc
 737              		@ args = 4, pretend = 0, frame = 16
 738              		@ frame_needed = 1, uses_anonymous_args = 0
 739 0000 80B5     		push	{r7, lr}
 740              		.cfi_def_cfa_offset 8
 741              		.cfi_offset 7, -8
 742              		.cfi_offset 14, -4
 743 0002 84B0     		sub	sp, sp, #16
 744              		.cfi_def_cfa_offset 24
 745 0004 00AF     		add	r7, sp, #0
 746              		.cfi_def_cfa_register 7
 747 0006 F860     		str	r0, [r7, #12]
 748 0008 B960     		str	r1, [r7, #8]
 749 000a 7A60     		str	r2, [r7, #4]
 750 000c 3B60     		str	r3, [r7]
 189:main.c        ****     if (*mode == APP_MODE_MOVI_CONTROL) {
 751              		.loc 1 189 0
 752 000e BB68     		ldr	r3, [r7, #8]
 753 0010 1B78     		ldrb	r3, [r3]	@ zero_extendqisi2
 754 0012 012B     		cmp	r3, #1
 755 0014 05D1     		bne	.L55
 190:main.c        ****         movi_comm_kill(movi);
 756              		.loc 1 190 0
 757 0016 F868     		ldr	r0, [r7, #12]
 758 0018 FFF7FEFF 		bl	movi_comm_kill
 191:main.c        ****         UART_1_PutString("[CLI] Kill packet sent\r\n");
 759              		.loc 1 191 0
 760 001c 0C48     		ldr	r0, .L56
 761 001e FFF7FEFF 		bl	UART_1_PutString
 762              	.L55:
 192:main.c        ****     }
 193:main.c        ****     *joystick_active = FALSE;
 763              		.loc 1 193 0
 764 0022 7B68     		ldr	r3, [r7, #4]
 765 0024 0022     		movs	r2, #0
 766 0026 1A70     		strb	r2, [r3]
 194:main.c        ****     *mode            = APP_MODE_STANDBY;
 767              		.loc 1 194 0
 768 0028 BB68     		ldr	r3, [r7, #8]
 769 002a 0022     		movs	r2, #0
 770 002c 1A70     		strb	r2, [r3]
 195:main.c        ****     *streaming_adc   = FALSE;
 771              		.loc 1 195 0
 772 002e 3B68     		ldr	r3, [r7]
 773 0030 0022     		movs	r2, #0
 774 0032 1A70     		strb	r2, [r3]
 196:main.c        ****     *ctrl_mode       = DEFER;
 775              		.loc 1 196 0
 776 0034 BB69     		ldr	r3, [r7, #24]
 777 0036 0022     		movs	r2, #0
 778 0038 1A70     		strb	r2, [r3]
 197:main.c        ****     joystick_on_key('x');
 779              		.loc 1 197 0
 780 003a 7820     		movs	r0, #120
 781 003c FFF7FEFF 		bl	joystick_on_key
 198:main.c        ****     UART_1_PutString("[CLI] All stopped  Mode: DEFR  -> STANDBY\r\n");
ARM GAS  C:\Users\JENNEW~1\AppData\Local\Temp\ccHH9OS0.s 			page 19


 782              		.loc 1 198 0
 783 0040 0448     		ldr	r0, .L56+4
 784 0042 FFF7FEFF 		bl	UART_1_PutString
 199:main.c        **** }
 785              		.loc 1 199 0
 786 0046 00BF     		nop
 787 0048 1037     		adds	r7, r7, #16
 788              		.cfi_def_cfa_offset 8
 789 004a BD46     		mov	sp, r7
 790              		.cfi_def_cfa_register 13
 791              		@ sp needed
 792 004c 80BD     		pop	{r7, pc}
 793              	.L57:
 794 004e 00BF     		.align	2
 795              	.L56:
 796 0050 34010000 		.word	.LC8
 797 0054 50010000 		.word	.LC9
 798              		.cfi_endproc
 799              	.LFE71:
 800              		.size	do_kill, .-do_kill
 801              		.section	.text.split32,"ax",%progbits
 802              		.align	2
 803              		.thumb
 804              		.thumb_func
 805              		.type	split32, %function
 806              	split32:
 807              	.LFB72:
 200:main.c        **** 
 201:main.c        **** /* =========================================================================
 202:main.c        ****  * Test mode verbose print functions
 203:main.c        ****  * Each prints one header line then per-field lines showing:
 204:main.c        ****  *   offset | type/scale annotation | raw value | => | scaled value + unit
 205:main.c        ****  * This lets you cross-check the java ParameterStructure offsets against
 206:main.c        ****  * what actually arrives in the packet.
 207:main.c        ****  * ========================================================================= */
 208:main.c        **** 
 209:main.c        **** /* Helper: split int32 at a power-of-10 boundary for printing without %f.
 210:main.c        ****  * Returns sign char, integer part, and fractional part as separate ints.
 211:main.c        ****  * scale_pow10 must be 10, 100, 1000, or 10000000.                        */
 212:main.c        **** static char split32(int32_t raw, int32_t scale_pow10,
 213:main.c        ****                     long* i_out, long* f_out)
 214:main.c        **** {
 808              		.loc 1 214 0
 809              		.cfi_startproc
 810              		@ args = 0, pretend = 0, frame = 24
 811              		@ frame_needed = 1, uses_anonymous_args = 0
 812              		@ link register save eliminated.
 813 0000 80B4     		push	{r7}
 814              		.cfi_def_cfa_offset 4
 815              		.cfi_offset 7, -4
 816 0002 87B0     		sub	sp, sp, #28
 817              		.cfi_def_cfa_offset 32
 818 0004 00AF     		add	r7, sp, #0
 819              		.cfi_def_cfa_register 7
 820 0006 F860     		str	r0, [r7, #12]
 821 0008 B960     		str	r1, [r7, #8]
 822 000a 7A60     		str	r2, [r7, #4]
ARM GAS  C:\Users\JENNEW~1\AppData\Local\Temp\ccHH9OS0.s 			page 20


 823 000c 3B60     		str	r3, [r7]
 215:main.c        ****     char sign = (raw < 0) ? '-' : '+';
 824              		.loc 1 215 0
 825 000e FB68     		ldr	r3, [r7, #12]
 826 0010 002B     		cmp	r3, #0
 827 0012 01DA     		bge	.L59
 828              		.loc 1 215 0 is_stmt 0 discriminator 1
 829 0014 2D23     		movs	r3, #45
 830 0016 00E0     		b	.L60
 831              	.L59:
 832              		.loc 1 215 0 discriminator 2
 833 0018 2B23     		movs	r3, #43
 834              	.L60:
 835              		.loc 1 215 0 discriminator 4
 836 001a FB75     		strb	r3, [r7, #23]
 216:main.c        ****     int32_t abs = (raw < 0) ? -raw : raw;
 837              		.loc 1 216 0 is_stmt 1 discriminator 4
 838 001c FB68     		ldr	r3, [r7, #12]
 839 001e 002B     		cmp	r3, #0
 840 0020 B8BF     		it	lt
 841 0022 5B42     		rsblt	r3, r3, #0
 842 0024 3B61     		str	r3, [r7, #16]
 217:main.c        ****     *i_out = (long)(abs / scale_pow10);
 843              		.loc 1 217 0 discriminator 4
 844 0026 3A69     		ldr	r2, [r7, #16]
 845 0028 BB68     		ldr	r3, [r7, #8]
 846 002a 92FBF3F2 		sdiv	r2, r2, r3
 847 002e 7B68     		ldr	r3, [r7, #4]
 848 0030 1A60     		str	r2, [r3]
 218:main.c        ****     *f_out = (long)(abs % scale_pow10);
 849              		.loc 1 218 0 discriminator 4
 850 0032 3B69     		ldr	r3, [r7, #16]
 851 0034 BA68     		ldr	r2, [r7, #8]
 852 0036 93FBF2F2 		sdiv	r2, r3, r2
 853 003a B968     		ldr	r1, [r7, #8]
 854 003c 01FB02F2 		mul	r2, r1, r2
 855 0040 9A1A     		subs	r2, r3, r2
 856 0042 3B68     		ldr	r3, [r7]
 857 0044 1A60     		str	r2, [r3]
 219:main.c        ****     return sign;
 858              		.loc 1 219 0 discriminator 4
 859 0046 FB7D     		ldrb	r3, [r7, #23]	@ zero_extendqisi2
 220:main.c        **** }
 860              		.loc 1 220 0 discriminator 4
 861 0048 1846     		mov	r0, r3
 862 004a 1C37     		adds	r7, r7, #28
 863              		.cfi_def_cfa_offset 4
 864 004c BD46     		mov	sp, r7
 865              		.cfi_def_cfa_register 13
 866              		@ sp needed
 867 004e 80BC     		pop	{r7}
 868              		.cfi_restore 7
 869              		.cfi_def_cfa_offset 0
 870 0050 7047     		bx	lr
 871              		.cfi_endproc
 872              	.LFE72:
 873              		.size	split32, .-split32
ARM GAS  C:\Users\JENNEW~1\AppData\Local\Temp\ccHH9OS0.s 			page 21


 874 0052 00BF     		.section	.rodata
 875              		.align	2
 876              	.LC10:
 877 017c 0D0A5B54 		.ascii	"\015\012[TEST][Att] attr=22  dt=%lums  rxlen=%u  sn"
 877      4553545D 
 877      5B417474 
 877      5D206174 
 877      74723D32 
 878 01a9 61706C65 		.ascii	"aplen=%u\015\012\000"
 878      6E3D2575 
 878      0D0A00
 879              		.align	2
 880              	.LC11:
 881 01b4 20206F66 		.ascii	"  off%02u:\000"
 881      66253032 
 881      753A00
 882 01bf 00       		.align	2
 883              	.LC12:
 884 01c0 20253032 		.ascii	" %02X\000"
 884      5800
 885 01c6 0000     		.align	2
 886              	.LC13:
 887 01c8 0D0A00   		.ascii	"\015\012\000"
 888 01cb 00       		.align	2
 889              	.LC14:
 890 01cc 20204552 		.ascii	"  ERROR: snapshot only %u bytes -- BLE bridge trunc"
 890      524F523A 
 890      20736E61 
 890      7073686F 
 890      74206F6E 
 891 01ff 6174696F 		.ascii	"ation?\015\012\000"
 891      6E3F0D0A 
 891      00
 892              		.global	__aeabi_fdiv
 893              		.align	2
 894              	.LC15:
 895 0208 20206F66 		.ascii	"  off  1  int16  /100   raw=%6d  =>  %c%d.%02d deg "
 895      66202031 
 895      2020696E 
 895      74313620 
 895      202F3130 
 896 023b 205B5049 		.ascii	" [PITCH]\015\012\000"
 896      5443485D 
 896      0D0A00
 897 0246 0000     		.align	2
 898              	.LC16:
 899 0248 20206F66 		.ascii	"  off  3  int16  /100   raw=%6d  =>  %c%d.%02d deg "
 899      66202033 
 899      2020696E 
 899      74313620 
 899      202F3130 
 900 027b 205B5941 		.ascii	" [YAW]\015\012\000"
 900      575D0D0A 
 900      00
 901              		.align	2
 902              	.LC17:
 903 0284 20206F66 		.ascii	"  off  5  int16  /100   raw=%6d  =>  %c%d.%02d deg "
ARM GAS  C:\Users\JENNEW~1\AppData\Local\Temp\ccHH9OS0.s 			page 22


 903      66202035 
 903      2020696E 
 903      74313620 
 903      202F3130 
 904 02b7 205B524F 		.ascii	" [ROLL]\015\012\000"
 904      4C4C5D0D 
 904      0A00
 905 02c1 000000   		.align	2
 906              	.LC18:
 907 02c4 20202873 		.ascii	"  (snap only %u bytes -- err/rate fields off 7-17 u"
 907      6E617020 
 907      6F6E6C79 
 907      20257520 
 907      62797465 
 908 02f7 6E617661 		.ascii	"navailable)\015\012\000"
 908      696C6162 
 908      6C65290D 
 908      0A00
 909 0305 000000   		.align	2
 910              	.LC19:
 911 0308 20202D2D 		.ascii	"  -- error + rate fields (off 7-17) --\015\012\000"
 911      20657272 
 911      6F72202B 
 911      20726174 
 911      65206669 
 912 0331 000000   		.align	2
 913              	.LC20:
 914 0334 20206F66 		.ascii	"  off  7  int16  /10    raw=%6d  =>  %c%d.%02d  [ro"
 914      66202037 
 914      2020696E 
 914      74313620 
 914      202F3130 
 915 0367 6C6C5F65 		.ascii	"ll_err deg]\015\012\000"
 915      72722064 
 915      65675D0D 
 915      0A00
 916 0375 000000   		.align	2
 917              	.LC21:
 918 0378 20206F66 		.ascii	"  off  9  int16  /10    raw=%6d  =>  %c%d.%02d  [pi"
 918      66202039 
 918      2020696E 
 918      74313620 
 918      202F3130 
 919 03ab 7463685F 		.ascii	"tch_err deg]\015\012\000"
 919      65727220 
 919      6465675D 
 919      0D0A00
 920 03ba 0000     		.align	2
 921              	.LC22:
 922 03bc 20206F66 		.ascii	"  off 11  int16  /10    raw=%6d  =>  %c%d.%02d  [ya"
 922      66203131 
 922      2020696E 
 922      74313620 
 922      202F3130 
 923 03ef 775F6572 		.ascii	"w_err deg]\015\012\000"
 923      72206465 
 923      675D0D0A 
ARM GAS  C:\Users\JENNEW~1\AppData\Local\Temp\ccHH9OS0.s 			page 23


 923      00
 924              		.align	2
 925              	.LC23:
 926 03fc 20206F66 		.ascii	"  off 13  int16  /10    raw=%6d  =>  %c%d.%02d  [ro"
 926      66203133 
 926      2020696E 
 926      74313620 
 926      202F3130 
 927 042f 6C6C5F72 		.ascii	"ll_rate_cmd deg/s]\015\012\000"
 927      6174655F 
 927      636D6420 
 927      6465672F 
 927      735D0D0A 
 928              		.align	2
 929              	.LC24:
 930 0444 20206F66 		.ascii	"  off 15  int16  /10    raw=%6d  =>  %c%d.%02d  [pi"
 930      66203135 
 930      2020696E 
 930      74313620 
 930      202F3130 
 931 0477 7463685F 		.ascii	"tch_rate_cmd deg/s]\015\012\000"
 931      72617465 
 931      5F636D64 
 931      20646567 
 931      2F735D0D 
 932 048d 000000   		.align	2
 933              	.LC25:
 934 0490 20206F66 		.ascii	"  off 17  int16  /10    raw=%6d  =>  %c%d.%02d  [ya"
 934      66203137 
 934      2020696E 
 934      74313620 
 934      202F3130 
 935 04c3 775F7261 		.ascii	"w_rate_cmd deg/s]\015\012\000"
 935      74655F63 
 935      6D642064 
 935      65672F73 
 935      5D0D0A00 
 936              		.section	.text.print_test_attitude,"ax",%progbits
 937              		.align	2
 938              		.thumb
 939              		.thumb_func
 940              		.type	print_test_attitude, %function
 941              	print_test_attitude:
 942              	.LFB73:
 221:main.c        **** 
 222:main.c        **** /* -------------------------------------------------------------------------
 223:main.c        ****  * Test print functions — all take (dt, rxlen, snapshot_payload, snap_plen).
 224:main.c        ****  * Raw values are read directly from the snapshot bytes (p), not from
 225:main.c        ****  * movi_status_t floats, to guarantee we see exactly what the GCU sent
 226:main.c        ****  * before the next attr 287 push could overwrite RxMsg.
 227:main.c        ****  * ------------------------------------------------------------------------- */
 228:main.c        **** 
 229:main.c        **** /* Macro: read int16 LE from snapshot at byte offset off.
 230:main.c        ****  * Returns 0 if snapshot is too short.                    */
 231:main.c        **** #define SNAP16(p, plen, off) \
 232:main.c        ****     (((off) + 2u <= (plen)) ? ({ int16_t _v; memcpy(&_v, (p)+(off), 2); _v; }) : (int16_t)0)
 233:main.c        **** 
ARM GAS  C:\Users\JENNEW~1\AppData\Local\Temp\ccHH9OS0.s 			page 24


 234:main.c        **** /* Macro: read int32 LE from snapshot at byte offset off. */
 235:main.c        **** #define SNAP32(p, plen, off) \
 236:main.c        ****     (((off) + 4u <= (plen)) ? ({ int32_t _v; memcpy(&_v, (p)+(off), 4); _v; }) : (int32_t)0)
 237:main.c        **** 
 238:main.c        **** /* Macro: read int16 big-endian from snapshot. */
 239:main.c        **** #define SNAP16BE(p, plen, off) \
 240:main.c        ****     (((off) + 2u <= (plen)) \
 241:main.c        ****         ? (int16_t)(((uint16_t)(p)[(off)] << 8) | (uint16_t)(p)[(off)+1u]) \
 242:main.c        ****         : (int16_t)0)
 243:main.c        **** 
 244:main.c        **** /* Macro: read int32 big-endian from snapshot. */
 245:main.c        **** #define SNAP32BE(p, plen, off) \
 246:main.c        ****     (((off) + 4u <= (plen)) \
 247:main.c        ****         ? (int32_t)(  ((uint32_t)(p)[(off)]   << 24) \
 248:main.c        ****                     | ((uint32_t)(p)[(off)+1u] << 16) \
 249:main.c        ****                     | ((uint32_t)(p)[(off)+2u] <<  8) \
 250:main.c        ****                     |  (uint32_t)(p)[(off)+3u]) \
 251:main.c        ****         : (int32_t)0)
 252:main.c        **** 
 253:main.c        **** /* --- attr 22: Gimbal attitude (euler) --- */
 254:main.c        **** static void print_test_attitude(const movi_status_t* st, uint32_t dt,
 255:main.c        ****                                  uint16_t rxlen, const uint8_t* p, uint8_t plen)
 256:main.c        **** {
 943              		.loc 1 256 0
 944              		.cfi_startproc
 945              		@ args = 4, pretend = 0, frame = 232
 946              		@ frame_needed = 1, uses_anonymous_args = 0
 947 0000 90B5     		push	{r4, r7, lr}
 948              		.cfi_def_cfa_offset 12
 949              		.cfi_offset 4, -12
 950              		.cfi_offset 7, -8
 951              		.cfi_offset 14, -4
 952 0002 BDB0     		sub	sp, sp, #244
 953              		.cfi_def_cfa_offset 256
 954 0004 02AF     		add	r7, sp, #8
 955              		.cfi_def_cfa 7, 248
 956 0006 F860     		str	r0, [r7, #12]
 957 0008 B960     		str	r1, [r7, #8]
 958 000a 3B60     		str	r3, [r7]
 959 000c 1346     		mov	r3, r2	@ movhi
 960 000e FB80     		strh	r3, [r7, #6]	@ movhi
 257:main.c        ****     char buf[TRANSMIT_BUFFER_SIZE];
 258:main.c        ****     (void)st;  /* parsed floats not used — we read direct from snapshot */
 259:main.c        **** 
 260:main.c        ****     sprintf(buf, "\r\n[TEST][Att] attr=22  dt=%lums  rxlen=%u  snaplen=%u\r\n",
 961              		.loc 1 260 0
 962 0010 FA88     		ldrh	r2, [r7, #6]
 963 0012 97F8F830 		ldrb	r3, [r7, #248]	@ zero_extendqisi2
 964 0016 07F12C00 		add	r0, r7, #44
 965 001a 0093     		str	r3, [sp]
 966 001c 1346     		mov	r3, r2
 967 001e BA68     		ldr	r2, [r7, #8]
 968 0020 D849     		ldr	r1, .L90
 969 0022 FFF7FEFF 		bl	sprintf
 261:main.c        ****             (unsigned long)dt, (unsigned)rxlen, (unsigned)plen);
 262:main.c        ****     UART_1_PutString(buf);
 970              		.loc 1 262 0
ARM GAS  C:\Users\JENNEW~1\AppData\Local\Temp\ccHH9OS0.s 			page 25


 971 0026 07F12C03 		add	r3, r7, #44
 972 002a 1846     		mov	r0, r3
 973 002c FFF7FEFF 		bl	UART_1_PutString
 974              	.LBB3:
 263:main.c        **** 
 264:main.c        ****     /* Raw hex dump — all snapshot bytes, 8 per row.
 265:main.c        ****      * Lets us verify exact wire bytes vs Java ParameterStructure offsets.
 266:main.c        ****      * Format:  off00: XX XX XX XX  XX XX XX XX               */
 267:main.c        ****     {
 268:main.c        ****         uint8_t row, col;
 269:main.c        ****         for (row = 0u; row < plen; row += 8u) {
 975              		.loc 1 269 0
 976 0030 0023     		movs	r3, #0
 977 0032 87F8E730 		strb	r3, [r7, #231]
 978 0036 56E0     		b	.L63
 979              	.L67:
 980              	.LBB4:
 270:main.c        ****             char* bp = buf;
 981              		.loc 1 270 0
 982 0038 07F12C03 		add	r3, r7, #44
 983 003c C7F8E030 		str	r3, [r7, #224]
 271:main.c        ****             bp += sprintf(bp, "  off%02u:", (unsigned)row);
 984              		.loc 1 271 0
 985 0040 97F8E730 		ldrb	r3, [r7, #231]	@ zero_extendqisi2
 986 0044 1A46     		mov	r2, r3
 987 0046 D049     		ldr	r1, .L90+4
 988 0048 D7F8E000 		ldr	r0, [r7, #224]
 989 004c FFF7FEFF 		bl	sprintf
 990 0050 0346     		mov	r3, r0
 991 0052 1A46     		mov	r2, r3
 992 0054 D7F8E030 		ldr	r3, [r7, #224]
 993 0058 1344     		add	r3, r3, r2
 994 005a C7F8E030 		str	r3, [r7, #224]
 272:main.c        ****             for (col = 0u; col < 8u && (row + col) < plen; col++) {
 995              		.loc 1 272 0
 996 005e 0023     		movs	r3, #0
 997 0060 87F8E630 		strb	r3, [r7, #230]
 998 0064 1AE0     		b	.L64
 999              	.L66:
 273:main.c        ****                 bp += sprintf(bp, " %02X", (unsigned)p[row + col]);
 1000              		.loc 1 273 0 discriminator 4
 1001 0066 97F8E720 		ldrb	r2, [r7, #231]	@ zero_extendqisi2
 1002 006a 97F8E630 		ldrb	r3, [r7, #230]	@ zero_extendqisi2
 1003 006e 1344     		add	r3, r3, r2
 1004 0070 1A46     		mov	r2, r3
 1005 0072 3B68     		ldr	r3, [r7]
 1006 0074 1344     		add	r3, r3, r2
 1007 0076 1B78     		ldrb	r3, [r3]	@ zero_extendqisi2
 1008 0078 1A46     		mov	r2, r3
 1009 007a C449     		ldr	r1, .L90+8
 1010 007c D7F8E000 		ldr	r0, [r7, #224]
 1011 0080 FFF7FEFF 		bl	sprintf
 1012 0084 0346     		mov	r3, r0
 1013 0086 1A46     		mov	r2, r3
 1014 0088 D7F8E030 		ldr	r3, [r7, #224]
 1015 008c 1344     		add	r3, r3, r2
 1016 008e C7F8E030 		str	r3, [r7, #224]
ARM GAS  C:\Users\JENNEW~1\AppData\Local\Temp\ccHH9OS0.s 			page 26


 272:main.c        ****             for (col = 0u; col < 8u && (row + col) < plen; col++) {
 1017              		.loc 1 272 0 discriminator 4
 1018 0092 97F8E630 		ldrb	r3, [r7, #230]	@ zero_extendqisi2
 1019 0096 0133     		adds	r3, r3, #1
 1020 0098 87F8E630 		strb	r3, [r7, #230]
 1021              	.L64:
 272:main.c        ****             for (col = 0u; col < 8u && (row + col) < plen; col++) {
 1022              		.loc 1 272 0 is_stmt 0 discriminator 1
 1023 009c 97F8E630 		ldrb	r3, [r7, #230]	@ zero_extendqisi2
 1024 00a0 072B     		cmp	r3, #7
 1025 00a2 08D8     		bhi	.L65
 272:main.c        ****             for (col = 0u; col < 8u && (row + col) < plen; col++) {
 1026              		.loc 1 272 0 discriminator 3
 1027 00a4 97F8E720 		ldrb	r2, [r7, #231]	@ zero_extendqisi2
 1028 00a8 97F8E630 		ldrb	r3, [r7, #230]	@ zero_extendqisi2
 1029 00ac 1A44     		add	r2, r2, r3
 1030 00ae 97F8F830 		ldrb	r3, [r7, #248]	@ zero_extendqisi2
 1031 00b2 9A42     		cmp	r2, r3
 1032 00b4 D7DB     		blt	.L66
 1033              	.L65:
 274:main.c        ****             }
 275:main.c        ****             bp += sprintf(bp, "\r\n");
 1034              		.loc 1 275 0 is_stmt 1 discriminator 2
 1035 00b6 D7F8E030 		ldr	r3, [r7, #224]
 1036 00ba B54A     		ldr	r2, .L90+12
 1037 00bc 1188     		ldrh	r1, [r2]	@ unaligned
 1038 00be 9278     		ldrb	r2, [r2, #2]
 1039 00c0 1980     		strh	r1, [r3]	@ unaligned
 1040 00c2 9A70     		strb	r2, [r3, #2]
 1041 00c4 0223     		movs	r3, #2
 1042 00c6 1A46     		mov	r2, r3
 1043 00c8 D7F8E030 		ldr	r3, [r7, #224]
 1044 00cc 1344     		add	r3, r3, r2
 1045 00ce C7F8E030 		str	r3, [r7, #224]
 276:main.c        ****             UART_1_PutString(buf);
 1046              		.loc 1 276 0 discriminator 2
 1047 00d2 07F12C03 		add	r3, r7, #44
 1048 00d6 1846     		mov	r0, r3
 1049 00d8 FFF7FEFF 		bl	UART_1_PutString
 1050              	.LBE4:
 269:main.c        ****             char* bp = buf;
 1051              		.loc 1 269 0 discriminator 2
 1052 00dc 97F8E730 		ldrb	r3, [r7, #231]
 1053 00e0 0833     		adds	r3, r3, #8
 1054 00e2 87F8E730 		strb	r3, [r7, #231]
 1055              	.L63:
 269:main.c        ****             char* bp = buf;
 1056              		.loc 1 269 0 is_stmt 0 discriminator 1
 1057 00e6 97F8E720 		ldrb	r2, [r7, #231]	@ zero_extendqisi2
 1058 00ea 97F8F830 		ldrb	r3, [r7, #248]	@ zero_extendqisi2
 1059 00ee 9A42     		cmp	r2, r3
 1060 00f0 A2D3     		bcc	.L67
 1061              	.LBE3:
 277:main.c        ****         }
 278:main.c        ****     }
 279:main.c        **** 
 280:main.c        ****     if (plen < 6u) {
ARM GAS  C:\Users\JENNEW~1\AppData\Local\Temp\ccHH9OS0.s 			page 27


 1062              		.loc 1 280 0 is_stmt 1
 1063 00f2 97F8F830 		ldrb	r3, [r7, #248]	@ zero_extendqisi2
 1064 00f6 052B     		cmp	r3, #5
 1065 00f8 0DD8     		bhi	.L68
 281:main.c        ****         sprintf(buf, "  ERROR: snapshot only %u bytes -- BLE bridge truncation?\r\n",
 1066              		.loc 1 281 0
 1067 00fa 97F8F820 		ldrb	r2, [r7, #248]	@ zero_extendqisi2
 1068 00fe 07F12C03 		add	r3, r7, #44
 1069 0102 A449     		ldr	r1, .L90+16
 1070 0104 1846     		mov	r0, r3
 1071 0106 FFF7FEFF 		bl	sprintf
 282:main.c        ****                 (unsigned)plen);
 283:main.c        ****         UART_1_PutString(buf);
 1072              		.loc 1 283 0
 1073 010a 07F12C03 		add	r3, r7, #44
 1074 010e 1846     		mov	r0, r3
 1075 0110 FFF7FEFF 		bl	UART_1_PutString
 284:main.c        ****         return;
 1076              		.loc 1 284 0
 1077 0114 4BE2     		b	.L62
 1078              	.L68:
 285:main.c        ****     }
 286:main.c        **** 
 287:main.c        ****     char s; int16 vi, vf;
 288:main.c        ****     int16_t r1 = SNAP16(p, plen,  1);
 1079              		.loc 1 288 0
 1080 0116 97F8F830 		ldrb	r3, [r7, #248]	@ zero_extendqisi2
 1081 011a 022B     		cmp	r3, #2
 1082 011c 0AD9     		bls	.L70
 1083              	.LBB5:
 1084              		.loc 1 288 0 is_stmt 0 discriminator 1
 1085 011e 3B68     		ldr	r3, [r7]
 1086 0120 591C     		adds	r1, r3, #1
 1087 0122 07F12403 		add	r3, r7, #36
 1088 0126 0222     		movs	r2, #2
 1089 0128 1846     		mov	r0, r3
 1090 012a FFF7FEFF 		bl	memcpy
 1091 012e B7F92430 		ldrsh	r3, [r7, #36]
 1092              	.LBE5:
 1093 0132 00E0     		b	.L71
 1094              	.L70:
 1095              		.loc 1 288 0 discriminator 2
 1096 0134 0023     		movs	r3, #0
 1097              	.L71:
 1098              		.loc 1 288 0 discriminator 4
 1099 0136 A7F8DE30 		strh	r3, [r7, #222]	@ movhi
 289:main.c        ****     int16_t r3 = SNAP16(p, plen,  3);
 1100              		.loc 1 289 0 is_stmt 1 discriminator 4
 1101 013a 97F8F830 		ldrb	r3, [r7, #248]	@ zero_extendqisi2
 1102 013e 042B     		cmp	r3, #4
 1103 0140 0AD9     		bls	.L72
 1104              	.LBB6:
 1105              		.loc 1 289 0 is_stmt 0 discriminator 1
 1106 0142 3B68     		ldr	r3, [r7]
 1107 0144 D91C     		adds	r1, r3, #3
 1108 0146 07F12203 		add	r3, r7, #34
 1109 014a 0222     		movs	r2, #2
ARM GAS  C:\Users\JENNEW~1\AppData\Local\Temp\ccHH9OS0.s 			page 28


 1110 014c 1846     		mov	r0, r3
 1111 014e FFF7FEFF 		bl	memcpy
 1112 0152 B7F92230 		ldrsh	r3, [r7, #34]
 1113              	.LBE6:
 1114 0156 00E0     		b	.L73
 1115              	.L72:
 1116              		.loc 1 289 0 discriminator 2
 1117 0158 0023     		movs	r3, #0
 1118              	.L73:
 1119              		.loc 1 289 0 discriminator 4
 1120 015a A7F8DC30 		strh	r3, [r7, #220]	@ movhi
 290:main.c        ****     int16_t r5 = SNAP16(p, plen,  5);
 1121              		.loc 1 290 0 is_stmt 1 discriminator 4
 1122 015e 97F8F830 		ldrb	r3, [r7, #248]	@ zero_extendqisi2
 1123 0162 062B     		cmp	r3, #6
 1124 0164 0AD9     		bls	.L74
 1125              	.LBB7:
 1126              		.loc 1 290 0 is_stmt 0 discriminator 1
 1127 0166 3B68     		ldr	r3, [r7]
 1128 0168 591D     		adds	r1, r3, #5
 1129 016a 07F12003 		add	r3, r7, #32
 1130 016e 0222     		movs	r2, #2
 1131 0170 1846     		mov	r0, r3
 1132 0172 FFF7FEFF 		bl	memcpy
 1133 0176 B7F92030 		ldrsh	r3, [r7, #32]
 1134              	.LBE7:
 1135 017a 00E0     		b	.L75
 1136              	.L74:
 1137              		.loc 1 290 0 discriminator 2
 1138 017c 0023     		movs	r3, #0
 1139              	.L75:
 1140              		.loc 1 290 0 discriminator 4
 1141 017e A7F8DA30 		strh	r3, [r7, #218]	@ movhi
 291:main.c        **** 
 292:main.c        ****     /* Axis order confirmed from live GCU data: off1=Pitch off3=Yaw off5=Roll */
 293:main.c        ****     decomp((float)r1 / 100.0f, &vi, &vf, &s);
 1142              		.loc 1 293 0 is_stmt 1 discriminator 4
 1143 0182 B7F9DE30 		ldrsh	r3, [r7, #222]
 1144 0186 1846     		mov	r0, r3
 1145 0188 FFF7FEFF 		bl	__aeabi_i2f
 1146 018c 0346     		mov	r3, r0
 1147 018e 8249     		ldr	r1, .L90+20
 1148 0190 1846     		mov	r0, r3
 1149 0192 FFF7FEFF 		bl	__aeabi_fdiv
 1150 0196 0346     		mov	r3, r0
 1151 0198 1846     		mov	r0, r3
 1152 019a 07F12B03 		add	r3, r7, #43
 1153 019e 07F12602 		add	r2, r7, #38
 1154 01a2 07F12801 		add	r1, r7, #40
 1155 01a6 FFF7FEFF 		bl	decomp
 294:main.c        ****     sprintf(buf, "  off  1  int16  /100   raw=%6d  =>  %c%d.%02d deg  [PITCH]\r\n",
 1156              		.loc 1 294 0 discriminator 4
 1157 01aa B7F9DE20 		ldrsh	r2, [r7, #222]
 1158 01ae 97F82B30 		ldrb	r3, [r7, #43]	@ zero_extendqisi2
 1159 01b2 1C46     		mov	r4, r3
 1160 01b4 B7F92830 		ldrsh	r3, [r7, #40]
 1161 01b8 B7F92610 		ldrsh	r1, [r7, #38]
ARM GAS  C:\Users\JENNEW~1\AppData\Local\Temp\ccHH9OS0.s 			page 29


 1162 01bc 07F12C00 		add	r0, r7, #44
 1163 01c0 0191     		str	r1, [sp, #4]
 1164 01c2 0093     		str	r3, [sp]
 1165 01c4 2346     		mov	r3, r4
 1166 01c6 7549     		ldr	r1, .L90+24
 1167 01c8 FFF7FEFF 		bl	sprintf
 295:main.c        ****             (int)r1, s, (int)vi, (int)vf);
 296:main.c        ****     UART_1_PutString(buf);
 1168              		.loc 1 296 0 discriminator 4
 1169 01cc 07F12C03 		add	r3, r7, #44
 1170 01d0 1846     		mov	r0, r3
 1171 01d2 FFF7FEFF 		bl	UART_1_PutString
 297:main.c        **** 
 298:main.c        ****     decomp((float)r3 / 100.0f, &vi, &vf, &s);
 1172              		.loc 1 298 0 discriminator 4
 1173 01d6 B7F9DC30 		ldrsh	r3, [r7, #220]
 1174 01da 1846     		mov	r0, r3
 1175 01dc FFF7FEFF 		bl	__aeabi_i2f
 1176 01e0 0346     		mov	r3, r0
 1177 01e2 6D49     		ldr	r1, .L90+20
 1178 01e4 1846     		mov	r0, r3
 1179 01e6 FFF7FEFF 		bl	__aeabi_fdiv
 1180 01ea 0346     		mov	r3, r0
 1181 01ec 1846     		mov	r0, r3
 1182 01ee 07F12B03 		add	r3, r7, #43
 1183 01f2 07F12602 		add	r2, r7, #38
 1184 01f6 07F12801 		add	r1, r7, #40
 1185 01fa FFF7FEFF 		bl	decomp
 299:main.c        ****     sprintf(buf, "  off  3  int16  /100   raw=%6d  =>  %c%d.%02d deg  [YAW]\r\n",
 1186              		.loc 1 299 0 discriminator 4
 1187 01fe B7F9DC20 		ldrsh	r2, [r7, #220]
 1188 0202 97F82B30 		ldrb	r3, [r7, #43]	@ zero_extendqisi2
 1189 0206 1C46     		mov	r4, r3
 1190 0208 B7F92830 		ldrsh	r3, [r7, #40]
 1191 020c B7F92610 		ldrsh	r1, [r7, #38]
 1192 0210 07F12C00 		add	r0, r7, #44
 1193 0214 0191     		str	r1, [sp, #4]
 1194 0216 0093     		str	r3, [sp]
 1195 0218 2346     		mov	r3, r4
 1196 021a 6149     		ldr	r1, .L90+28
 1197 021c FFF7FEFF 		bl	sprintf
 300:main.c        ****             (int)r3, s, (int)vi, (int)vf);
 301:main.c        ****     UART_1_PutString(buf);
 1198              		.loc 1 301 0 discriminator 4
 1199 0220 07F12C03 		add	r3, r7, #44
 1200 0224 1846     		mov	r0, r3
 1201 0226 FFF7FEFF 		bl	UART_1_PutString
 302:main.c        **** 
 303:main.c        ****     decomp((float)r5 / 100.0f, &vi, &vf, &s);
 1202              		.loc 1 303 0 discriminator 4
 1203 022a B7F9DA30 		ldrsh	r3, [r7, #218]
 1204 022e 1846     		mov	r0, r3
 1205 0230 FFF7FEFF 		bl	__aeabi_i2f
 1206 0234 0346     		mov	r3, r0
 1207 0236 5849     		ldr	r1, .L90+20
 1208 0238 1846     		mov	r0, r3
 1209 023a FFF7FEFF 		bl	__aeabi_fdiv
ARM GAS  C:\Users\JENNEW~1\AppData\Local\Temp\ccHH9OS0.s 			page 30


 1210 023e 0346     		mov	r3, r0
 1211 0240 1846     		mov	r0, r3
 1212 0242 07F12B03 		add	r3, r7, #43
 1213 0246 07F12602 		add	r2, r7, #38
 1214 024a 07F12801 		add	r1, r7, #40
 1215 024e FFF7FEFF 		bl	decomp
 304:main.c        ****     sprintf(buf, "  off  5  int16  /100   raw=%6d  =>  %c%d.%02d deg  [ROLL]\r\n",
 1216              		.loc 1 304 0 discriminator 4
 1217 0252 B7F9DA20 		ldrsh	r2, [r7, #218]
 1218 0256 97F82B30 		ldrb	r3, [r7, #43]	@ zero_extendqisi2
 1219 025a 1C46     		mov	r4, r3
 1220 025c B7F92830 		ldrsh	r3, [r7, #40]
 1221 0260 B7F92610 		ldrsh	r1, [r7, #38]
 1222 0264 07F12C00 		add	r0, r7, #44
 1223 0268 0191     		str	r1, [sp, #4]
 1224 026a 0093     		str	r3, [sp]
 1225 026c 2346     		mov	r3, r4
 1226 026e 4D49     		ldr	r1, .L90+32
 1227 0270 FFF7FEFF 		bl	sprintf
 305:main.c        ****             (int)r5, s, (int)vi, (int)vf);
 306:main.c        ****     UART_1_PutString(buf);
 1228              		.loc 1 306 0 discriminator 4
 1229 0274 07F12C03 		add	r3, r7, #44
 1230 0278 1846     		mov	r0, r3
 1231 027a FFF7FEFF 		bl	UART_1_PutString
 307:main.c        **** 
 308:main.c        ****     if (plen < 19u) {
 1232              		.loc 1 308 0 discriminator 4
 1233 027e 97F8F830 		ldrb	r3, [r7, #248]	@ zero_extendqisi2
 1234 0282 122B     		cmp	r3, #18
 1235 0284 0DD8     		bhi	.L76
 309:main.c        ****         sprintf(buf, "  (snap only %u bytes -- err/rate fields off 7-17 unavailable)\r\n",
 1236              		.loc 1 309 0
 1237 0286 97F8F820 		ldrb	r2, [r7, #248]	@ zero_extendqisi2
 1238 028a 07F12C03 		add	r3, r7, #44
 1239 028e 4649     		ldr	r1, .L90+36
 1240 0290 1846     		mov	r0, r3
 1241 0292 FFF7FEFF 		bl	sprintf
 310:main.c        ****                 (unsigned)plen);
 311:main.c        ****         UART_1_PutString(buf);
 1242              		.loc 1 311 0
 1243 0296 07F12C03 		add	r3, r7, #44
 1244 029a 1846     		mov	r0, r3
 1245 029c FFF7FEFF 		bl	UART_1_PutString
 312:main.c        ****         return;
 1246              		.loc 1 312 0
 1247 02a0 85E1     		b	.L62
 1248              	.L76:
 313:main.c        ****     }
 314:main.c        **** 
 315:main.c        ****     UART_1_PutString("  -- error + rate fields (off 7-17) --\r\n");
 1249              		.loc 1 315 0
 1250 02a2 4248     		ldr	r0, .L90+40
 1251 02a4 FFF7FEFF 		bl	UART_1_PutString
 316:main.c        ****     int16_t r7  = SNAP16(p, plen,  7);
 1252              		.loc 1 316 0
 1253 02a8 97F8F830 		ldrb	r3, [r7, #248]	@ zero_extendqisi2
ARM GAS  C:\Users\JENNEW~1\AppData\Local\Temp\ccHH9OS0.s 			page 31


 1254 02ac 082B     		cmp	r3, #8
 1255 02ae 0AD9     		bls	.L77
 1256              	.LBB8:
 1257              		.loc 1 316 0 is_stmt 0 discriminator 1
 1258 02b0 3B68     		ldr	r3, [r7]
 1259 02b2 D91D     		adds	r1, r3, #7
 1260 02b4 07F11E03 		add	r3, r7, #30
 1261 02b8 0222     		movs	r2, #2
 1262 02ba 1846     		mov	r0, r3
 1263 02bc FFF7FEFF 		bl	memcpy
 1264 02c0 B7F91E30 		ldrsh	r3, [r7, #30]
 1265              	.LBE8:
 1266 02c4 00E0     		b	.L78
 1267              	.L77:
 1268              		.loc 1 316 0 discriminator 2
 1269 02c6 0023     		movs	r3, #0
 1270              	.L78:
 1271              		.loc 1 316 0 discriminator 4
 1272 02c8 A7F8D830 		strh	r3, [r7, #216]	@ movhi
 317:main.c        ****     int16_t r9  = SNAP16(p, plen,  9);
 1273              		.loc 1 317 0 is_stmt 1 discriminator 4
 1274 02cc 97F8F830 		ldrb	r3, [r7, #248]	@ zero_extendqisi2
 1275 02d0 0A2B     		cmp	r3, #10
 1276 02d2 0BD9     		bls	.L79
 1277              	.LBB9:
 1278              		.loc 1 317 0 is_stmt 0 discriminator 1
 1279 02d4 3B68     		ldr	r3, [r7]
 1280 02d6 03F10901 		add	r1, r3, #9
 1281 02da 07F11C03 		add	r3, r7, #28
 1282 02de 0222     		movs	r2, #2
 1283 02e0 1846     		mov	r0, r3
 1284 02e2 FFF7FEFF 		bl	memcpy
 1285 02e6 B7F91C30 		ldrsh	r3, [r7, #28]
 1286              	.LBE9:
 1287 02ea 00E0     		b	.L80
 1288              	.L79:
 1289              		.loc 1 317 0 discriminator 2
 1290 02ec 0023     		movs	r3, #0
 1291              	.L80:
 1292              		.loc 1 317 0 discriminator 4
 1293 02ee A7F8D630 		strh	r3, [r7, #214]	@ movhi
 318:main.c        ****     int16_t r11 = SNAP16(p, plen, 11);
 1294              		.loc 1 318 0 is_stmt 1 discriminator 4
 1295 02f2 97F8F830 		ldrb	r3, [r7, #248]	@ zero_extendqisi2
 1296 02f6 0C2B     		cmp	r3, #12
 1297 02f8 0BD9     		bls	.L81
 1298              	.LBB10:
 1299              		.loc 1 318 0 is_stmt 0 discriminator 1
 1300 02fa 3B68     		ldr	r3, [r7]
 1301 02fc 03F10B01 		add	r1, r3, #11
 1302 0300 07F11A03 		add	r3, r7, #26
 1303 0304 0222     		movs	r2, #2
 1304 0306 1846     		mov	r0, r3
 1305 0308 FFF7FEFF 		bl	memcpy
 1306 030c B7F91A30 		ldrsh	r3, [r7, #26]
 1307              	.LBE10:
 1308 0310 00E0     		b	.L82
ARM GAS  C:\Users\JENNEW~1\AppData\Local\Temp\ccHH9OS0.s 			page 32


 1309              	.L81:
 1310              		.loc 1 318 0 discriminator 2
 1311 0312 0023     		movs	r3, #0
 1312              	.L82:
 1313              		.loc 1 318 0 discriminator 4
 1314 0314 A7F8D430 		strh	r3, [r7, #212]	@ movhi
 319:main.c        ****     int16_t r13 = SNAP16(p, plen, 13);
 1315              		.loc 1 319 0 is_stmt 1 discriminator 4
 1316 0318 97F8F830 		ldrb	r3, [r7, #248]	@ zero_extendqisi2
 1317 031c 0E2B     		cmp	r3, #14
 1318 031e 0BD9     		bls	.L83
 1319              	.LBB11:
 1320              		.loc 1 319 0 is_stmt 0 discriminator 1
 1321 0320 3B68     		ldr	r3, [r7]
 1322 0322 03F10D01 		add	r1, r3, #13
 1323 0326 07F11803 		add	r3, r7, #24
 1324 032a 0222     		movs	r2, #2
 1325 032c 1846     		mov	r0, r3
 1326 032e FFF7FEFF 		bl	memcpy
 1327 0332 B7F91830 		ldrsh	r3, [r7, #24]
 1328              	.LBE11:
 1329 0336 00E0     		b	.L84
 1330              	.L83:
 1331              		.loc 1 319 0 discriminator 2
 1332 0338 0023     		movs	r3, #0
 1333              	.L84:
 1334              		.loc 1 319 0 discriminator 4
 1335 033a A7F8D230 		strh	r3, [r7, #210]	@ movhi
 320:main.c        ****     int16_t r15 = SNAP16(p, plen, 15);
 1336              		.loc 1 320 0 is_stmt 1 discriminator 4
 1337 033e 97F8F830 		ldrb	r3, [r7, #248]	@ zero_extendqisi2
 1338 0342 102B     		cmp	r3, #16
 1339 0344 0BD9     		bls	.L85
 1340              	.LBB12:
 1341              		.loc 1 320 0 is_stmt 0 discriminator 1
 1342 0346 3B68     		ldr	r3, [r7]
 1343 0348 03F10F01 		add	r1, r3, #15
 1344 034c 07F11603 		add	r3, r7, #22
 1345 0350 0222     		movs	r2, #2
 1346 0352 1846     		mov	r0, r3
 1347 0354 FFF7FEFF 		bl	memcpy
 1348 0358 B7F91630 		ldrsh	r3, [r7, #22]
 1349              	.LBE12:
 1350 035c 00E0     		b	.L86
 1351              	.L85:
 1352              		.loc 1 320 0 discriminator 2
 1353 035e 0023     		movs	r3, #0
 1354              	.L86:
 1355              		.loc 1 320 0 discriminator 4
 1356 0360 A7F8D030 		strh	r3, [r7, #208]	@ movhi
 321:main.c        ****     int16_t r17 = SNAP16(p, plen, 17);
 1357              		.loc 1 321 0 is_stmt 1 discriminator 4
 1358 0364 97F8F830 		ldrb	r3, [r7, #248]	@ zero_extendqisi2
 1359 0368 122B     		cmp	r3, #18
 1360 036a 21D9     		bls	.L87
 1361              	.LBB13:
 1362              		.loc 1 321 0 is_stmt 0 discriminator 1
ARM GAS  C:\Users\JENNEW~1\AppData\Local\Temp\ccHH9OS0.s 			page 33


 1363 036c 3B68     		ldr	r3, [r7]
 1364 036e 03F11101 		add	r1, r3, #17
 1365 0372 07F11403 		add	r3, r7, #20
 1366 0376 0222     		movs	r2, #2
 1367 0378 1846     		mov	r0, r3
 1368 037a FFF7FEFF 		bl	memcpy
 1369 037e B7F91430 		ldrsh	r3, [r7, #20]
 1370              	.LBE13:
 1371 0382 16E0     		b	.L88
 1372              	.L91:
 1373              		.align	2
 1374              	.L90:
 1375 0384 7C010000 		.word	.LC10
 1376 0388 B4010000 		.word	.LC11
 1377 038c C0010000 		.word	.LC12
 1378 0390 C8010000 		.word	.LC13
 1379 0394 CC010000 		.word	.LC14
 1380 0398 0000C842 		.word	1120403456
 1381 039c 08020000 		.word	.LC15
 1382 03a0 48020000 		.word	.LC16
 1383 03a4 84020000 		.word	.LC17
 1384 03a8 C4020000 		.word	.LC18
 1385 03ac 08030000 		.word	.LC19
 1386              	.L87:
 1387              		.loc 1 321 0 discriminator 2
 1388 03b0 0023     		movs	r3, #0
 1389              	.L88:
 1390              		.loc 1 321 0 discriminator 4
 1391 03b2 A7F8CE30 		strh	r3, [r7, #206]	@ movhi
 322:main.c        **** 
 323:main.c        ****     decomp((float)r7  / 10.0f, &vi, &vf, &s);
 1392              		.loc 1 323 0 is_stmt 1 discriminator 4
 1393 03b6 B7F9D830 		ldrsh	r3, [r7, #216]
 1394 03ba 1846     		mov	r0, r3
 1395 03bc FFF7FEFF 		bl	__aeabi_i2f
 1396 03c0 0346     		mov	r3, r0
 1397 03c2 7C49     		ldr	r1, .L92
 1398 03c4 1846     		mov	r0, r3
 1399 03c6 FFF7FEFF 		bl	__aeabi_fdiv
 1400 03ca 0346     		mov	r3, r0
 1401 03cc 1846     		mov	r0, r3
 1402 03ce 07F12B03 		add	r3, r7, #43
 1403 03d2 07F12602 		add	r2, r7, #38
 1404 03d6 07F12801 		add	r1, r7, #40
 1405 03da FFF7FEFF 		bl	decomp
 324:main.c        ****     sprintf(buf, "  off  7  int16  /10    raw=%6d  =>  %c%d.%02d  [roll_err deg]\r\n",
 1406              		.loc 1 324 0 discriminator 4
 1407 03de B7F9D820 		ldrsh	r2, [r7, #216]
 1408 03e2 97F82B30 		ldrb	r3, [r7, #43]	@ zero_extendqisi2
 1409 03e6 1C46     		mov	r4, r3
 1410 03e8 B7F92830 		ldrsh	r3, [r7, #40]
 1411 03ec B7F92610 		ldrsh	r1, [r7, #38]
 1412 03f0 07F12C00 		add	r0, r7, #44
 1413 03f4 0191     		str	r1, [sp, #4]
 1414 03f6 0093     		str	r3, [sp]
 1415 03f8 2346     		mov	r3, r4
 1416 03fa 6F49     		ldr	r1, .L92+4
ARM GAS  C:\Users\JENNEW~1\AppData\Local\Temp\ccHH9OS0.s 			page 34


 1417 03fc FFF7FEFF 		bl	sprintf
 325:main.c        ****             (int)r7, s, (int)vi, (int)vf);
 326:main.c        ****     UART_1_PutString(buf);
 1418              		.loc 1 326 0 discriminator 4
 1419 0400 07F12C03 		add	r3, r7, #44
 1420 0404 1846     		mov	r0, r3
 1421 0406 FFF7FEFF 		bl	UART_1_PutString
 327:main.c        **** 
 328:main.c        ****     decomp((float)r9  / 10.0f, &vi, &vf, &s);
 1422              		.loc 1 328 0 discriminator 4
 1423 040a B7F9D630 		ldrsh	r3, [r7, #214]
 1424 040e 1846     		mov	r0, r3
 1425 0410 FFF7FEFF 		bl	__aeabi_i2f
 1426 0414 0346     		mov	r3, r0
 1427 0416 6749     		ldr	r1, .L92
 1428 0418 1846     		mov	r0, r3
 1429 041a FFF7FEFF 		bl	__aeabi_fdiv
 1430 041e 0346     		mov	r3, r0
 1431 0420 1846     		mov	r0, r3
 1432 0422 07F12B03 		add	r3, r7, #43
 1433 0426 07F12602 		add	r2, r7, #38
 1434 042a 07F12801 		add	r1, r7, #40
 1435 042e FFF7FEFF 		bl	decomp
 329:main.c        ****     sprintf(buf, "  off  9  int16  /10    raw=%6d  =>  %c%d.%02d  [pitch_err deg]\r\n",
 1436              		.loc 1 329 0 discriminator 4
 1437 0432 B7F9D620 		ldrsh	r2, [r7, #214]
 1438 0436 97F82B30 		ldrb	r3, [r7, #43]	@ zero_extendqisi2
 1439 043a 1C46     		mov	r4, r3
 1440 043c B7F92830 		ldrsh	r3, [r7, #40]
 1441 0440 B7F92610 		ldrsh	r1, [r7, #38]
 1442 0444 07F12C00 		add	r0, r7, #44
 1443 0448 0191     		str	r1, [sp, #4]
 1444 044a 0093     		str	r3, [sp]
 1445 044c 2346     		mov	r3, r4
 1446 044e 5B49     		ldr	r1, .L92+8
 1447 0450 FFF7FEFF 		bl	sprintf
 330:main.c        ****             (int)r9, s, (int)vi, (int)vf);
 331:main.c        ****     UART_1_PutString(buf);
 1448              		.loc 1 331 0 discriminator 4
 1449 0454 07F12C03 		add	r3, r7, #44
 1450 0458 1846     		mov	r0, r3
 1451 045a FFF7FEFF 		bl	UART_1_PutString
 332:main.c        **** 
 333:main.c        ****     decomp((float)r11 / 10.0f, &vi, &vf, &s);
 1452              		.loc 1 333 0 discriminator 4
 1453 045e B7F9D430 		ldrsh	r3, [r7, #212]
 1454 0462 1846     		mov	r0, r3
 1455 0464 FFF7FEFF 		bl	__aeabi_i2f
 1456 0468 0346     		mov	r3, r0
 1457 046a 5249     		ldr	r1, .L92
 1458 046c 1846     		mov	r0, r3
 1459 046e FFF7FEFF 		bl	__aeabi_fdiv
 1460 0472 0346     		mov	r3, r0
 1461 0474 1846     		mov	r0, r3
 1462 0476 07F12B03 		add	r3, r7, #43
 1463 047a 07F12602 		add	r2, r7, #38
 1464 047e 07F12801 		add	r1, r7, #40
ARM GAS  C:\Users\JENNEW~1\AppData\Local\Temp\ccHH9OS0.s 			page 35


 1465 0482 FFF7FEFF 		bl	decomp
 334:main.c        ****     sprintf(buf, "  off 11  int16  /10    raw=%6d  =>  %c%d.%02d  [yaw_err deg]\r\n",
 1466              		.loc 1 334 0 discriminator 4
 1467 0486 B7F9D420 		ldrsh	r2, [r7, #212]
 1468 048a 97F82B30 		ldrb	r3, [r7, #43]	@ zero_extendqisi2
 1469 048e 1C46     		mov	r4, r3
 1470 0490 B7F92830 		ldrsh	r3, [r7, #40]
 1471 0494 B7F92610 		ldrsh	r1, [r7, #38]
 1472 0498 07F12C00 		add	r0, r7, #44
 1473 049c 0191     		str	r1, [sp, #4]
 1474 049e 0093     		str	r3, [sp]
 1475 04a0 2346     		mov	r3, r4
 1476 04a2 4749     		ldr	r1, .L92+12
 1477 04a4 FFF7FEFF 		bl	sprintf
 335:main.c        ****             (int)r11, s, (int)vi, (int)vf);
 336:main.c        ****     UART_1_PutString(buf);
 1478              		.loc 1 336 0 discriminator 4
 1479 04a8 07F12C03 		add	r3, r7, #44
 1480 04ac 1846     		mov	r0, r3
 1481 04ae FFF7FEFF 		bl	UART_1_PutString
 337:main.c        **** 
 338:main.c        ****     decomp((float)r13 / 10.0f, &vi, &vf, &s);
 1482              		.loc 1 338 0 discriminator 4
 1483 04b2 B7F9D230 		ldrsh	r3, [r7, #210]
 1484 04b6 1846     		mov	r0, r3
 1485 04b8 FFF7FEFF 		bl	__aeabi_i2f
 1486 04bc 0346     		mov	r3, r0
 1487 04be 3D49     		ldr	r1, .L92
 1488 04c0 1846     		mov	r0, r3
 1489 04c2 FFF7FEFF 		bl	__aeabi_fdiv
 1490 04c6 0346     		mov	r3, r0
 1491 04c8 1846     		mov	r0, r3
 1492 04ca 07F12B03 		add	r3, r7, #43
 1493 04ce 07F12602 		add	r2, r7, #38
 1494 04d2 07F12801 		add	r1, r7, #40
 1495 04d6 FFF7FEFF 		bl	decomp
 339:main.c        ****     sprintf(buf, "  off 13  int16  /10    raw=%6d  =>  %c%d.%02d  [roll_rate_cmd deg/s]\r\n",
 1496              		.loc 1 339 0 discriminator 4
 1497 04da B7F9D220 		ldrsh	r2, [r7, #210]
 1498 04de 97F82B30 		ldrb	r3, [r7, #43]	@ zero_extendqisi2
 1499 04e2 1C46     		mov	r4, r3
 1500 04e4 B7F92830 		ldrsh	r3, [r7, #40]
 1501 04e8 B7F92610 		ldrsh	r1, [r7, #38]
 1502 04ec 07F12C00 		add	r0, r7, #44
 1503 04f0 0191     		str	r1, [sp, #4]
 1504 04f2 0093     		str	r3, [sp]
 1505 04f4 2346     		mov	r3, r4
 1506 04f6 3349     		ldr	r1, .L92+16
 1507 04f8 FFF7FEFF 		bl	sprintf
 340:main.c        ****             (int)r13, s, (int)vi, (int)vf);
 341:main.c        ****     UART_1_PutString(buf);
 1508              		.loc 1 341 0 discriminator 4
 1509 04fc 07F12C03 		add	r3, r7, #44
 1510 0500 1846     		mov	r0, r3
 1511 0502 FFF7FEFF 		bl	UART_1_PutString
 342:main.c        **** 
 343:main.c        ****     decomp((float)r15 / 10.0f, &vi, &vf, &s);
ARM GAS  C:\Users\JENNEW~1\AppData\Local\Temp\ccHH9OS0.s 			page 36


 1512              		.loc 1 343 0 discriminator 4
 1513 0506 B7F9D030 		ldrsh	r3, [r7, #208]
 1514 050a 1846     		mov	r0, r3
 1515 050c FFF7FEFF 		bl	__aeabi_i2f
 1516 0510 0346     		mov	r3, r0
 1517 0512 2849     		ldr	r1, .L92
 1518 0514 1846     		mov	r0, r3
 1519 0516 FFF7FEFF 		bl	__aeabi_fdiv
 1520 051a 0346     		mov	r3, r0
 1521 051c 1846     		mov	r0, r3
 1522 051e 07F12B03 		add	r3, r7, #43
 1523 0522 07F12602 		add	r2, r7, #38
 1524 0526 07F12801 		add	r1, r7, #40
 1525 052a FFF7FEFF 		bl	decomp
 344:main.c        ****     sprintf(buf, "  off 15  int16  /10    raw=%6d  =>  %c%d.%02d  [pitch_rate_cmd deg/s]\r\n",
 1526              		.loc 1 344 0 discriminator 4
 1527 052e B7F9D020 		ldrsh	r2, [r7, #208]
 1528 0532 97F82B30 		ldrb	r3, [r7, #43]	@ zero_extendqisi2
 1529 0536 1C46     		mov	r4, r3
 1530 0538 B7F92830 		ldrsh	r3, [r7, #40]
 1531 053c B7F92610 		ldrsh	r1, [r7, #38]
 1532 0540 07F12C00 		add	r0, r7, #44
 1533 0544 0191     		str	r1, [sp, #4]
 1534 0546 0093     		str	r3, [sp]
 1535 0548 2346     		mov	r3, r4
 1536 054a 1F49     		ldr	r1, .L92+20
 1537 054c FFF7FEFF 		bl	sprintf
 345:main.c        ****             (int)r15, s, (int)vi, (int)vf);
 346:main.c        ****     UART_1_PutString(buf);
 1538              		.loc 1 346 0 discriminator 4
 1539 0550 07F12C03 		add	r3, r7, #44
 1540 0554 1846     		mov	r0, r3
 1541 0556 FFF7FEFF 		bl	UART_1_PutString
 347:main.c        **** 
 348:main.c        ****     decomp((float)r17 / 10.0f, &vi, &vf, &s);
 1542              		.loc 1 348 0 discriminator 4
 1543 055a B7F9CE30 		ldrsh	r3, [r7, #206]
 1544 055e 1846     		mov	r0, r3
 1545 0560 FFF7FEFF 		bl	__aeabi_i2f
 1546 0564 0346     		mov	r3, r0
 1547 0566 1349     		ldr	r1, .L92
 1548 0568 1846     		mov	r0, r3
 1549 056a FFF7FEFF 		bl	__aeabi_fdiv
 1550 056e 0346     		mov	r3, r0
 1551 0570 1846     		mov	r0, r3
 1552 0572 07F12B03 		add	r3, r7, #43
 1553 0576 07F12602 		add	r2, r7, #38
 1554 057a 07F12801 		add	r1, r7, #40
 1555 057e FFF7FEFF 		bl	decomp
 349:main.c        ****     sprintf(buf, "  off 17  int16  /10    raw=%6d  =>  %c%d.%02d  [yaw_rate_cmd deg/s]\r\n",
 1556              		.loc 1 349 0 discriminator 4
 1557 0582 B7F9CE20 		ldrsh	r2, [r7, #206]
 1558 0586 97F82B30 		ldrb	r3, [r7, #43]	@ zero_extendqisi2
 1559 058a 1C46     		mov	r4, r3
 1560 058c B7F92830 		ldrsh	r3, [r7, #40]
 1561 0590 B7F92610 		ldrsh	r1, [r7, #38]
 1562 0594 07F12C00 		add	r0, r7, #44
ARM GAS  C:\Users\JENNEW~1\AppData\Local\Temp\ccHH9OS0.s 			page 37


 1563 0598 0191     		str	r1, [sp, #4]
 1564 059a 0093     		str	r3, [sp]
 1565 059c 2346     		mov	r3, r4
 1566 059e 0B49     		ldr	r1, .L92+24
 1567 05a0 FFF7FEFF 		bl	sprintf
 350:main.c        ****             (int)r17, s, (int)vi, (int)vf);
 351:main.c        ****     UART_1_PutString(buf);
 1568              		.loc 1 351 0 discriminator 4
 1569 05a4 07F12C03 		add	r3, r7, #44
 1570 05a8 1846     		mov	r0, r3
 1571 05aa FFF7FEFF 		bl	UART_1_PutString
 1572              	.L62:
 352:main.c        **** }
 1573              		.loc 1 352 0
 1574 05ae EC37     		adds	r7, r7, #236
 1575              		.cfi_def_cfa_offset 12
 1576 05b0 BD46     		mov	sp, r7
 1577              		.cfi_def_cfa_register 13
 1578              		@ sp needed
 1579 05b2 90BD     		pop	{r4, r7, pc}
 1580              	.L93:
 1581              		.align	2
 1582              	.L92:
 1583 05b4 00002041 		.word	1092616192
 1584 05b8 34030000 		.word	.LC20
 1585 05bc 78030000 		.word	.LC21
 1586 05c0 BC030000 		.word	.LC22
 1587 05c4 FC030000 		.word	.LC23
 1588 05c8 44040000 		.word	.LC24
 1589 05cc 90040000 		.word	.LC25
 1590              		.cfi_endproc
 1591              	.LFE73:
 1592              		.size	print_test_attitude, .-print_test_attitude
 1593              		.section	.rodata
 1594 04d7 00       		.align	2
 1595              	.LC26:
 1596 04d8 0D0A5B54 		.ascii	"\015\012[TEST][GPS] attr=4  dt=%lums  rxlen=%u  sna"
 1596      4553545D 
 1596      5B475053 
 1596      5D206174 
 1596      74723D34 
 1597 0505 706C656E 		.ascii	"plen=%u\015\012\000"
 1597      3D25750D 
 1597      0A00
 1598 050f 00       		.align	2
 1599              	.LC27:
 1600 0510 20204552 		.ascii	"  ERROR: snapshot only %u bytes -- need 12 minimum\015"
 1600      524F523A 
 1600      20736E61 
 1600      7073686F 
 1600      74206F6E 
 1601 0543 0A00     		.ascii	"\012\000"
 1602 0545 000000   		.align	2
 1603              	.LC28:
 1604 0548 20206F66 		.ascii	"  off  0  int32BE /1e7   raw=%ld  =>  %c%ld.%07ld d"
 1604      66202030 
 1604      2020696E 
ARM GAS  C:\Users\JENNEW~1\AppData\Local\Temp\ccHH9OS0.s 			page 38


 1604      74333242 
 1604      45202F31 
 1605 057b 65672020 		.ascii	"eg  [LON]\015\012\000"
 1605      5B4C4F4E 
 1605      5D0D0A00 
 1606 0587 00       		.align	2
 1607              	.LC29:
 1608 0588 20206F66 		.ascii	"  off  4  int32BE /1e7   raw=%ld  =>  %c%ld.%07ld d"
 1608      66202034 
 1608      2020696E 
 1608      74333242 
 1608      45202F31 
 1609 05bb 65672020 		.ascii	"eg  [LAT]\015\012\000"
 1609      5B4C4154 
 1609      5D0D0A00 
 1610 05c7 00       		.align	2
 1611              	.LC30:
 1612 05c8 20206F66 		.ascii	"  off  8  int32BE /1000  raw=%ld  =>  %c%ld.%03ld m"
 1612      66202038 
 1612      2020696E 
 1612      74333242 
 1612      45202F31 
 1613 05fb 204D534C 		.ascii	" MSL  [ALT]\015\012\000"
 1613      20205B41 
 1613      4C545D0D 
 1613      0A00
 1614 0609 000000   		.align	2
 1615              	.LC31:
 1616 060c 20202873 		.ascii	"  (snap only %u bytes -- speed/hdg/acc fields unava"
 1616      6E617020 
 1616      6F6E6C79 
 1616      20257520 
 1616      62797465 
 1617 063f 696C6162 		.ascii	"ilable)\015\012\000"
 1617      6C65290D 
 1617      0A00
 1618 0649 000000   		.align	2
 1619              	.LC32:
 1620 064c 20206F66 		.ascii	"  off 12  int16BE /100   raw=%6d  =>  %c%d.%02d m/s"
 1620      66203132 
 1620      2020696E 
 1620      74313642 
 1620      45202F31 
 1621 067f 20205B47 		.ascii	"  [GND SPD]\015\012\000"
 1621      4E442053 
 1621      50445D0D 
 1621      0A00
 1622 068d 000000   		.align	2
 1623              	.LC33:
 1624 0690 20206F66 		.ascii	"  off 14  int16BE /10    raw=%6d  =>  %c%d.%02d deg"
 1624      66203134 
 1624      2020696E 
 1624      74313642 
 1624      45202F31 
 1625 06c3 20205B48 		.ascii	"  [HDG]\015\012\000"
 1625      44475D0D 
 1625      0A00
ARM GAS  C:\Users\JENNEW~1\AppData\Local\Temp\ccHH9OS0.s 			page 39


 1626 06cd 000000   		.align	2
 1627              	.LC34:
 1628 06d0 20206F66 		.ascii	"  off 16  int16BE /100   raw=%6d  =>  %c%d.%02d m  "
 1628      66203136 
 1628      2020696E 
 1628      74313642 
 1628      45202F31 
 1629 0703 5B484143 		.ascii	"[HACC]\015\012\000"
 1629      435D0D0A 
 1629      00
 1630              		.align	2
 1631              	.LC35:
 1632 070c 20206F66 		.ascii	"  off 18  int16BE /100   raw=%6d  =>  %c%d.%02d m  "
 1632      66203138 
 1632      2020696E 
 1632      74313642 
 1632      45202F31 
 1633 073f 5B564143 		.ascii	"[VACC]\015\012\000"
 1633      435D0D0A 
 1633      00
 1634              		.align	2
 1635              	.LC36:
 1636 0748 20206F66 		.ascii	"  off 20  int16BE /100   raw=%6d  =>  %c%d.%02d m/s"
 1636      66203230 
 1636      2020696E 
 1636      74313642 
 1636      45202F31 
 1637 077b 20205B53 		.ascii	"  [SACC]\015\012\000"
 1637      4143435D 
 1637      0D0A00
 1638              		.section	.text.print_test_gps,"ax",%progbits
 1639              		.align	2
 1640              		.thumb
 1641              		.thumb_func
 1642              		.type	print_test_gps, %function
 1643              	print_test_gps:
 1644              	.LFB74:
 353:main.c        **** 
 354:main.c        **** /* --- attr 4: GPS ---
 355:main.c        ****  * Big-endian, no sub-index. off 0=lon, off 4=lat (confirmed). */
 356:main.c        **** static void print_test_gps(const movi_status_t* st, uint32_t dt,
 357:main.c        ****                             uint16_t rxlen, const uint8_t* p, uint8_t plen)
 358:main.c        **** {
 1645              		.loc 1 358 0
 1646              		.cfi_startproc
 1647              		@ args = 4, pretend = 0, frame = 224
 1648              		@ frame_needed = 1, uses_anonymous_args = 0
 1649 0000 90B5     		push	{r4, r7, lr}
 1650              		.cfi_def_cfa_offset 12
 1651              		.cfi_offset 4, -12
 1652              		.cfi_offset 7, -8
 1653              		.cfi_offset 14, -4
 1654 0002 BBB0     		sub	sp, sp, #236
 1655              		.cfi_def_cfa_offset 248
 1656 0004 02AF     		add	r7, sp, #8
 1657              		.cfi_def_cfa 7, 240
 1658 0006 F860     		str	r0, [r7, #12]
ARM GAS  C:\Users\JENNEW~1\AppData\Local\Temp\ccHH9OS0.s 			page 40


 1659 0008 B960     		str	r1, [r7, #8]
 1660 000a 3B60     		str	r3, [r7]
 1661 000c 1346     		mov	r3, r2	@ movhi
 1662 000e FB80     		strh	r3, [r7, #6]	@ movhi
 359:main.c        ****     char buf[TRANSMIT_BUFFER_SIZE];
 360:main.c        ****     (void)st;
 361:main.c        **** 
 362:main.c        ****     sprintf(buf, "\r\n[TEST][GPS] attr=4  dt=%lums  rxlen=%u  snaplen=%u\r\n",
 1663              		.loc 1 362 0
 1664 0010 FA88     		ldrh	r2, [r7, #6]
 1665 0012 97F8F030 		ldrb	r3, [r7, #240]	@ zero_extendqisi2
 1666 0016 07F12000 		add	r0, r7, #32
 1667 001a 0093     		str	r3, [sp]
 1668 001c 1346     		mov	r3, r2
 1669 001e BA68     		ldr	r2, [r7, #8]
 1670 0020 C049     		ldr	r1, .L120
 1671 0022 FFF7FEFF 		bl	sprintf
 363:main.c        ****             (unsigned long)dt, (unsigned)rxlen, (unsigned)plen);
 364:main.c        ****     UART_1_PutString(buf);
 1672              		.loc 1 364 0
 1673 0026 07F12003 		add	r3, r7, #32
 1674 002a 1846     		mov	r0, r3
 1675 002c FFF7FEFF 		bl	UART_1_PutString
 1676              	.LBB14:
 365:main.c        **** 
 366:main.c        ****     /* Raw hex dump */
 367:main.c        ****     {
 368:main.c        ****         uint8_t row, col;
 369:main.c        ****         for (row = 0u; row < plen; row += 8u) {
 1677              		.loc 1 369 0
 1678 0030 0023     		movs	r3, #0
 1679 0032 87F8DF30 		strb	r3, [r7, #223]
 1680 0036 56E0     		b	.L95
 1681              	.L99:
 1682              	.LBB15:
 370:main.c        ****             char* bp = buf;
 1683              		.loc 1 370 0
 1684 0038 07F12003 		add	r3, r7, #32
 1685 003c C7F8D830 		str	r3, [r7, #216]
 371:main.c        ****             bp += sprintf(bp, "  off%02u:", (unsigned)row);
 1686              		.loc 1 371 0
 1687 0040 97F8DF30 		ldrb	r3, [r7, #223]	@ zero_extendqisi2
 1688 0044 1A46     		mov	r2, r3
 1689 0046 B849     		ldr	r1, .L120+4
 1690 0048 D7F8D800 		ldr	r0, [r7, #216]
 1691 004c FFF7FEFF 		bl	sprintf
 1692 0050 0346     		mov	r3, r0
 1693 0052 1A46     		mov	r2, r3
 1694 0054 D7F8D830 		ldr	r3, [r7, #216]
 1695 0058 1344     		add	r3, r3, r2
 1696 005a C7F8D830 		str	r3, [r7, #216]
 372:main.c        ****             for (col = 0u; col < 8u && (row + col) < plen; col++)
 1697              		.loc 1 372 0
 1698 005e 0023     		movs	r3, #0
 1699 0060 87F8DE30 		strb	r3, [r7, #222]
 1700 0064 1AE0     		b	.L96
 1701              	.L98:
ARM GAS  C:\Users\JENNEW~1\AppData\Local\Temp\ccHH9OS0.s 			page 41


 373:main.c        ****                 bp += sprintf(bp, " %02X", (unsigned)p[row + col]);
 1702              		.loc 1 373 0 discriminator 4
 1703 0066 97F8DF20 		ldrb	r2, [r7, #223]	@ zero_extendqisi2
 1704 006a 97F8DE30 		ldrb	r3, [r7, #222]	@ zero_extendqisi2
 1705 006e 1344     		add	r3, r3, r2
 1706 0070 1A46     		mov	r2, r3
 1707 0072 3B68     		ldr	r3, [r7]
 1708 0074 1344     		add	r3, r3, r2
 1709 0076 1B78     		ldrb	r3, [r3]	@ zero_extendqisi2
 1710 0078 1A46     		mov	r2, r3
 1711 007a AC49     		ldr	r1, .L120+8
 1712 007c D7F8D800 		ldr	r0, [r7, #216]
 1713 0080 FFF7FEFF 		bl	sprintf
 1714 0084 0346     		mov	r3, r0
 1715 0086 1A46     		mov	r2, r3
 1716 0088 D7F8D830 		ldr	r3, [r7, #216]
 1717 008c 1344     		add	r3, r3, r2
 1718 008e C7F8D830 		str	r3, [r7, #216]
 372:main.c        ****             for (col = 0u; col < 8u && (row + col) < plen; col++)
 1719              		.loc 1 372 0 discriminator 4
 1720 0092 97F8DE30 		ldrb	r3, [r7, #222]	@ zero_extendqisi2
 1721 0096 0133     		adds	r3, r3, #1
 1722 0098 87F8DE30 		strb	r3, [r7, #222]
 1723              	.L96:
 372:main.c        ****             for (col = 0u; col < 8u && (row + col) < plen; col++)
 1724              		.loc 1 372 0 is_stmt 0 discriminator 1
 1725 009c 97F8DE30 		ldrb	r3, [r7, #222]	@ zero_extendqisi2
 1726 00a0 072B     		cmp	r3, #7
 1727 00a2 08D8     		bhi	.L97
 372:main.c        ****             for (col = 0u; col < 8u && (row + col) < plen; col++)
 1728              		.loc 1 372 0 discriminator 3
 1729 00a4 97F8DF20 		ldrb	r2, [r7, #223]	@ zero_extendqisi2
 1730 00a8 97F8DE30 		ldrb	r3, [r7, #222]	@ zero_extendqisi2
 1731 00ac 1A44     		add	r2, r2, r3
 1732 00ae 97F8F030 		ldrb	r3, [r7, #240]	@ zero_extendqisi2
 1733 00b2 9A42     		cmp	r2, r3
 1734 00b4 D7DB     		blt	.L98
 1735              	.L97:
 374:main.c        ****             bp += sprintf(bp, "\r\n");
 1736              		.loc 1 374 0 is_stmt 1 discriminator 2
 1737 00b6 D7F8D830 		ldr	r3, [r7, #216]
 1738 00ba 9D4A     		ldr	r2, .L120+12
 1739 00bc 1188     		ldrh	r1, [r2]	@ unaligned
 1740 00be 9278     		ldrb	r2, [r2, #2]
 1741 00c0 1980     		strh	r1, [r3]	@ unaligned
 1742 00c2 9A70     		strb	r2, [r3, #2]
 1743 00c4 0223     		movs	r3, #2
 1744 00c6 1A46     		mov	r2, r3
 1745 00c8 D7F8D830 		ldr	r3, [r7, #216]
 1746 00cc 1344     		add	r3, r3, r2
 1747 00ce C7F8D830 		str	r3, [r7, #216]
 375:main.c        ****             UART_1_PutString(buf);
 1748              		.loc 1 375 0 discriminator 2
 1749 00d2 07F12003 		add	r3, r7, #32
 1750 00d6 1846     		mov	r0, r3
 1751 00d8 FFF7FEFF 		bl	UART_1_PutString
 1752              	.LBE15:
ARM GAS  C:\Users\JENNEW~1\AppData\Local\Temp\ccHH9OS0.s 			page 42


 369:main.c        ****             char* bp = buf;
 1753              		.loc 1 369 0 discriminator 2
 1754 00dc 97F8DF30 		ldrb	r3, [r7, #223]
 1755 00e0 0833     		adds	r3, r3, #8
 1756 00e2 87F8DF30 		strb	r3, [r7, #223]
 1757              	.L95:
 369:main.c        ****             char* bp = buf;
 1758              		.loc 1 369 0 is_stmt 0 discriminator 1
 1759 00e6 97F8DF20 		ldrb	r2, [r7, #223]	@ zero_extendqisi2
 1760 00ea 97F8F030 		ldrb	r3, [r7, #240]	@ zero_extendqisi2
 1761 00ee 9A42     		cmp	r2, r3
 1762 00f0 A2D3     		bcc	.L99
 1763              	.LBE14:
 376:main.c        ****         }
 377:main.c        ****     }
 378:main.c        **** 
 379:main.c        ****     if (plen < 12u) {
 1764              		.loc 1 379 0 is_stmt 1
 1765 00f2 97F8F030 		ldrb	r3, [r7, #240]	@ zero_extendqisi2
 1766 00f6 0B2B     		cmp	r3, #11
 1767 00f8 0DD8     		bhi	.L100
 380:main.c        ****         sprintf(buf, "  ERROR: snapshot only %u bytes -- need 12 minimum\r\n",
 1768              		.loc 1 380 0
 1769 00fa 97F8F020 		ldrb	r2, [r7, #240]	@ zero_extendqisi2
 1770 00fe 07F12003 		add	r3, r7, #32
 1771 0102 8C49     		ldr	r1, .L120+16
 1772 0104 1846     		mov	r0, r3
 1773 0106 FFF7FEFF 		bl	sprintf
 381:main.c        ****                 (unsigned)plen);
 382:main.c        ****         UART_1_PutString(buf);
 1774              		.loc 1 382 0
 1775 010a 07F12003 		add	r3, r7, #32
 1776 010e 1846     		mov	r0, r3
 1777 0110 FFF7FEFF 		bl	UART_1_PutString
 383:main.c        ****         return;
 1778              		.loc 1 383 0
 1779 0114 FDE1     		b	.L94
 1780              	.L100:
 384:main.c        ****     }
 385:main.c        **** 
 386:main.c        ****     long i_part, f_part;
 387:main.c        ****     char sign;
 388:main.c        ****     char s; int16 vi, vf;
 389:main.c        **** 
 390:main.c        ****     /* int32 BE, no sub-index: lon at off 0, lat at off 4 */
 391:main.c        ****     int32_t lon_r = SNAP32BE(p, plen,  0);
 1781              		.loc 1 391 0
 1782 0116 97F8F030 		ldrb	r3, [r7, #240]	@ zero_extendqisi2
 1783 011a 032B     		cmp	r3, #3
 1784 011c 11D9     		bls	.L102
 1785              		.loc 1 391 0 is_stmt 0 discriminator 1
 1786 011e 3B68     		ldr	r3, [r7]
 1787 0120 1B78     		ldrb	r3, [r3]	@ zero_extendqisi2
 1788 0122 1A06     		lsls	r2, r3, #24
 1789 0124 3B68     		ldr	r3, [r7]
 1790 0126 0133     		adds	r3, r3, #1
 1791 0128 1B78     		ldrb	r3, [r3]	@ zero_extendqisi2
ARM GAS  C:\Users\JENNEW~1\AppData\Local\Temp\ccHH9OS0.s 			page 43


 1792 012a 1B04     		lsls	r3, r3, #16
 1793 012c 1A43     		orrs	r2, r2, r3
 1794 012e 3B68     		ldr	r3, [r7]
 1795 0130 0233     		adds	r3, r3, #2
 1796 0132 1B78     		ldrb	r3, [r3]	@ zero_extendqisi2
 1797 0134 1B02     		lsls	r3, r3, #8
 1798 0136 1343     		orrs	r3, r3, r2
 1799 0138 3A68     		ldr	r2, [r7]
 1800 013a 0332     		adds	r2, r2, #3
 1801 013c 1278     		ldrb	r2, [r2]	@ zero_extendqisi2
 1802 013e 1343     		orrs	r3, r3, r2
 1803 0140 00E0     		b	.L103
 1804              	.L102:
 1805              		.loc 1 391 0 discriminator 2
 1806 0142 0023     		movs	r3, #0
 1807              	.L103:
 1808              		.loc 1 391 0 discriminator 4
 1809 0144 C7F8D430 		str	r3, [r7, #212]
 392:main.c        ****     int32_t lat_r = SNAP32BE(p, plen,  4);
 1810              		.loc 1 392 0 is_stmt 1 discriminator 4
 1811 0148 97F8F030 		ldrb	r3, [r7, #240]	@ zero_extendqisi2
 1812 014c 072B     		cmp	r3, #7
 1813 014e 12D9     		bls	.L104
 1814              		.loc 1 392 0 is_stmt 0 discriminator 1
 1815 0150 3B68     		ldr	r3, [r7]
 1816 0152 0433     		adds	r3, r3, #4
 1817 0154 1B78     		ldrb	r3, [r3]	@ zero_extendqisi2
 1818 0156 1A06     		lsls	r2, r3, #24
 1819 0158 3B68     		ldr	r3, [r7]
 1820 015a 0533     		adds	r3, r3, #5
 1821 015c 1B78     		ldrb	r3, [r3]	@ zero_extendqisi2
 1822 015e 1B04     		lsls	r3, r3, #16
 1823 0160 1A43     		orrs	r2, r2, r3
 1824 0162 3B68     		ldr	r3, [r7]
 1825 0164 0633     		adds	r3, r3, #6
 1826 0166 1B78     		ldrb	r3, [r3]	@ zero_extendqisi2
 1827 0168 1B02     		lsls	r3, r3, #8
 1828 016a 1343     		orrs	r3, r3, r2
 1829 016c 3A68     		ldr	r2, [r7]
 1830 016e 0732     		adds	r2, r2, #7
 1831 0170 1278     		ldrb	r2, [r2]	@ zero_extendqisi2
 1832 0172 1343     		orrs	r3, r3, r2
 1833 0174 00E0     		b	.L105
 1834              	.L104:
 1835              		.loc 1 392 0 discriminator 2
 1836 0176 0023     		movs	r3, #0
 1837              	.L105:
 1838              		.loc 1 392 0 discriminator 4
 1839 0178 C7F8D030 		str	r3, [r7, #208]
 393:main.c        ****     int32_t alt_r = SNAP32BE(p, plen,  8);
 1840              		.loc 1 393 0 is_stmt 1 discriminator 4
 1841 017c 97F8F030 		ldrb	r3, [r7, #240]	@ zero_extendqisi2
 1842 0180 0B2B     		cmp	r3, #11
 1843 0182 12D9     		bls	.L106
 1844              		.loc 1 393 0 is_stmt 0 discriminator 1
 1845 0184 3B68     		ldr	r3, [r7]
 1846 0186 0833     		adds	r3, r3, #8
ARM GAS  C:\Users\JENNEW~1\AppData\Local\Temp\ccHH9OS0.s 			page 44


 1847 0188 1B78     		ldrb	r3, [r3]	@ zero_extendqisi2
 1848 018a 1A06     		lsls	r2, r3, #24
 1849 018c 3B68     		ldr	r3, [r7]
 1850 018e 0933     		adds	r3, r3, #9
 1851 0190 1B78     		ldrb	r3, [r3]	@ zero_extendqisi2
 1852 0192 1B04     		lsls	r3, r3, #16
 1853 0194 1A43     		orrs	r2, r2, r3
 1854 0196 3B68     		ldr	r3, [r7]
 1855 0198 0A33     		adds	r3, r3, #10
 1856 019a 1B78     		ldrb	r3, [r3]	@ zero_extendqisi2
 1857 019c 1B02     		lsls	r3, r3, #8
 1858 019e 1343     		orrs	r3, r3, r2
 1859 01a0 3A68     		ldr	r2, [r7]
 1860 01a2 0B32     		adds	r2, r2, #11
 1861 01a4 1278     		ldrb	r2, [r2]	@ zero_extendqisi2
 1862 01a6 1343     		orrs	r3, r3, r2
 1863 01a8 00E0     		b	.L107
 1864              	.L106:
 1865              		.loc 1 393 0 discriminator 2
 1866 01aa 0023     		movs	r3, #0
 1867              	.L107:
 1868              		.loc 1 393 0 discriminator 4
 1869 01ac C7F8CC30 		str	r3, [r7, #204]
 394:main.c        **** 
 395:main.c        ****     sign = split32(lon_r, 10000000L, &i_part, &f_part);
 1870              		.loc 1 395 0 is_stmt 1 discriminator 4
 1871 01b0 07F11803 		add	r3, r7, #24
 1872 01b4 07F11C02 		add	r2, r7, #28
 1873 01b8 5F49     		ldr	r1, .L120+20
 1874 01ba D7F8D400 		ldr	r0, [r7, #212]
 1875 01be FFF7FEFF 		bl	split32
 1876 01c2 0346     		mov	r3, r0
 1877 01c4 87F8CB30 		strb	r3, [r7, #203]
 396:main.c        ****     sprintf(buf, "  off  0  int32BE /1e7   raw=%ld  =>  %c%ld.%07ld deg  [LON]\r\n",
 1878              		.loc 1 396 0 discriminator 4
 1879 01c8 97F8CB10 		ldrb	r1, [r7, #203]	@ zero_extendqisi2
 1880 01cc FB69     		ldr	r3, [r7, #28]
 1881 01ce BA69     		ldr	r2, [r7, #24]
 1882 01d0 07F12000 		add	r0, r7, #32
 1883 01d4 0192     		str	r2, [sp, #4]
 1884 01d6 0093     		str	r3, [sp]
 1885 01d8 0B46     		mov	r3, r1
 1886 01da D7F8D420 		ldr	r2, [r7, #212]
 1887 01de 5749     		ldr	r1, .L120+24
 1888 01e0 FFF7FEFF 		bl	sprintf
 397:main.c        ****             (long)lon_r, sign, i_part, f_part);
 398:main.c        ****     UART_1_PutString(buf);
 1889              		.loc 1 398 0 discriminator 4
 1890 01e4 07F12003 		add	r3, r7, #32
 1891 01e8 1846     		mov	r0, r3
 1892 01ea FFF7FEFF 		bl	UART_1_PutString
 399:main.c        **** 
 400:main.c        ****     sign = split32(lat_r, 10000000L, &i_part, &f_part);
 1893              		.loc 1 400 0 discriminator 4
 1894 01ee 07F11803 		add	r3, r7, #24
 1895 01f2 07F11C02 		add	r2, r7, #28
 1896 01f6 5049     		ldr	r1, .L120+20
ARM GAS  C:\Users\JENNEW~1\AppData\Local\Temp\ccHH9OS0.s 			page 45


 1897 01f8 D7F8D000 		ldr	r0, [r7, #208]
 1898 01fc FFF7FEFF 		bl	split32
 1899 0200 0346     		mov	r3, r0
 1900 0202 87F8CB30 		strb	r3, [r7, #203]
 401:main.c        ****     sprintf(buf, "  off  4  int32BE /1e7   raw=%ld  =>  %c%ld.%07ld deg  [LAT]\r\n",
 1901              		.loc 1 401 0 discriminator 4
 1902 0206 97F8CB10 		ldrb	r1, [r7, #203]	@ zero_extendqisi2
 1903 020a FB69     		ldr	r3, [r7, #28]
 1904 020c BA69     		ldr	r2, [r7, #24]
 1905 020e 07F12000 		add	r0, r7, #32
 1906 0212 0192     		str	r2, [sp, #4]
 1907 0214 0093     		str	r3, [sp]
 1908 0216 0B46     		mov	r3, r1
 1909 0218 D7F8D020 		ldr	r2, [r7, #208]
 1910 021c 4849     		ldr	r1, .L120+28
 1911 021e FFF7FEFF 		bl	sprintf
 402:main.c        ****             (long)lat_r, sign, i_part, f_part);
 403:main.c        ****     UART_1_PutString(buf);
 1912              		.loc 1 403 0 discriminator 4
 1913 0222 07F12003 		add	r3, r7, #32
 1914 0226 1846     		mov	r0, r3
 1915 0228 FFF7FEFF 		bl	UART_1_PutString
 404:main.c        **** 
 405:main.c        ****     sign = split32(alt_r, 1000L, &i_part, &f_part);
 1916              		.loc 1 405 0 discriminator 4
 1917 022c 07F11803 		add	r3, r7, #24
 1918 0230 07F11C02 		add	r2, r7, #28
 1919 0234 4FF47A71 		mov	r1, #1000
 1920 0238 D7F8CC00 		ldr	r0, [r7, #204]
 1921 023c FFF7FEFF 		bl	split32
 1922 0240 0346     		mov	r3, r0
 1923 0242 87F8CB30 		strb	r3, [r7, #203]
 406:main.c        ****     sprintf(buf, "  off  8  int32BE /1000  raw=%ld  =>  %c%ld.%03ld m MSL  [ALT]\r\n",
 1924              		.loc 1 406 0 discriminator 4
 1925 0246 97F8CB10 		ldrb	r1, [r7, #203]	@ zero_extendqisi2
 1926 024a FB69     		ldr	r3, [r7, #28]
 1927 024c BA69     		ldr	r2, [r7, #24]
 1928 024e 07F12000 		add	r0, r7, #32
 1929 0252 0192     		str	r2, [sp, #4]
 1930 0254 0093     		str	r3, [sp]
 1931 0256 0B46     		mov	r3, r1
 1932 0258 D7F8CC20 		ldr	r2, [r7, #204]
 1933 025c 3949     		ldr	r1, .L120+32
 1934 025e FFF7FEFF 		bl	sprintf
 407:main.c        ****             (long)alt_r, sign, i_part, f_part);
 408:main.c        ****     UART_1_PutString(buf);
 1935              		.loc 1 408 0 discriminator 4
 1936 0262 07F12003 		add	r3, r7, #32
 1937 0266 1846     		mov	r0, r3
 1938 0268 FFF7FEFF 		bl	UART_1_PutString
 409:main.c        **** 
 410:main.c        ****     if (plen < 22u) {
 1939              		.loc 1 410 0 discriminator 4
 1940 026c 97F8F030 		ldrb	r3, [r7, #240]	@ zero_extendqisi2
 1941 0270 152B     		cmp	r3, #21
 1942 0272 0DD8     		bhi	.L108
 411:main.c        ****         sprintf(buf, "  (snap only %u bytes -- speed/hdg/acc fields unavailable)\r\n",
ARM GAS  C:\Users\JENNEW~1\AppData\Local\Temp\ccHH9OS0.s 			page 46


 1943              		.loc 1 411 0
 1944 0274 97F8F020 		ldrb	r2, [r7, #240]	@ zero_extendqisi2
 1945 0278 07F12003 		add	r3, r7, #32
 1946 027c 3249     		ldr	r1, .L120+36
 1947 027e 1846     		mov	r0, r3
 1948 0280 FFF7FEFF 		bl	sprintf
 412:main.c        ****                 (unsigned)plen);
 413:main.c        ****         UART_1_PutString(buf);
 1949              		.loc 1 413 0
 1950 0284 07F12003 		add	r3, r7, #32
 1951 0288 1846     		mov	r0, r3
 1952 028a FFF7FEFF 		bl	UART_1_PutString
 414:main.c        ****         return;
 1953              		.loc 1 414 0
 1954 028e 40E1     		b	.L94
 1955              	.L108:
 415:main.c        ****     }
 416:main.c        **** 
 417:main.c        ****     int16_t spd_r  = SNAP16BE(p, plen, 12);
 1956              		.loc 1 417 0
 1957 0290 97F8F030 		ldrb	r3, [r7, #240]	@ zero_extendqisi2
 1958 0294 0D2B     		cmp	r3, #13
 1959 0296 0BD9     		bls	.L109
 1960              		.loc 1 417 0 is_stmt 0 discriminator 1
 1961 0298 3B68     		ldr	r3, [r7]
 1962 029a 0C33     		adds	r3, r3, #12
 1963 029c 1B78     		ldrb	r3, [r3]	@ zero_extendqisi2
 1964 029e 1B02     		lsls	r3, r3, #8
 1965 02a0 1AB2     		sxth	r2, r3
 1966 02a2 3B68     		ldr	r3, [r7]
 1967 02a4 0D33     		adds	r3, r3, #13
 1968 02a6 1B78     		ldrb	r3, [r3]	@ zero_extendqisi2
 1969 02a8 1BB2     		sxth	r3, r3
 1970 02aa 1343     		orrs	r3, r3, r2
 1971 02ac 1BB2     		sxth	r3, r3
 1972 02ae 00E0     		b	.L110
 1973              	.L109:
 1974              		.loc 1 417 0 discriminator 2
 1975 02b0 0023     		movs	r3, #0
 1976              	.L110:
 1977              		.loc 1 417 0 discriminator 4
 1978 02b2 A7F8C830 		strh	r3, [r7, #200]	@ movhi
 418:main.c        ****     int16_t hdg_r  = SNAP16BE(p, plen, 14);
 1979              		.loc 1 418 0 is_stmt 1 discriminator 4
 1980 02b6 97F8F030 		ldrb	r3, [r7, #240]	@ zero_extendqisi2
 1981 02ba 0F2B     		cmp	r3, #15
 1982 02bc 0BD9     		bls	.L111
 1983              		.loc 1 418 0 is_stmt 0 discriminator 1
 1984 02be 3B68     		ldr	r3, [r7]
 1985 02c0 0E33     		adds	r3, r3, #14
 1986 02c2 1B78     		ldrb	r3, [r3]	@ zero_extendqisi2
 1987 02c4 1B02     		lsls	r3, r3, #8
 1988 02c6 1AB2     		sxth	r2, r3
 1989 02c8 3B68     		ldr	r3, [r7]
 1990 02ca 0F33     		adds	r3, r3, #15
 1991 02cc 1B78     		ldrb	r3, [r3]	@ zero_extendqisi2
 1992 02ce 1BB2     		sxth	r3, r3
ARM GAS  C:\Users\JENNEW~1\AppData\Local\Temp\ccHH9OS0.s 			page 47


 1993 02d0 1343     		orrs	r3, r3, r2
 1994 02d2 1BB2     		sxth	r3, r3
 1995 02d4 00E0     		b	.L112
 1996              	.L111:
 1997              		.loc 1 418 0 discriminator 2
 1998 02d6 0023     		movs	r3, #0
 1999              	.L112:
 2000              		.loc 1 418 0 discriminator 4
 2001 02d8 A7F8C630 		strh	r3, [r7, #198]	@ movhi
 419:main.c        ****     int16_t hacc_r = SNAP16BE(p, plen, 16);
 2002              		.loc 1 419 0 is_stmt 1 discriminator 4
 2003 02dc 97F8F030 		ldrb	r3, [r7, #240]	@ zero_extendqisi2
 2004 02e0 112B     		cmp	r3, #17
 2005 02e2 0BD9     		bls	.L113
 2006              		.loc 1 419 0 is_stmt 0 discriminator 1
 2007 02e4 3B68     		ldr	r3, [r7]
 2008 02e6 1033     		adds	r3, r3, #16
 2009 02e8 1B78     		ldrb	r3, [r3]	@ zero_extendqisi2
 2010 02ea 1B02     		lsls	r3, r3, #8
 2011 02ec 1AB2     		sxth	r2, r3
 2012 02ee 3B68     		ldr	r3, [r7]
 2013 02f0 1133     		adds	r3, r3, #17
 2014 02f2 1B78     		ldrb	r3, [r3]	@ zero_extendqisi2
 2015 02f4 1BB2     		sxth	r3, r3
 2016 02f6 1343     		orrs	r3, r3, r2
 2017 02f8 1BB2     		sxth	r3, r3
 2018 02fa 00E0     		b	.L114
 2019              	.L113:
 2020              		.loc 1 419 0 discriminator 2
 2021 02fc 0023     		movs	r3, #0
 2022              	.L114:
 2023              		.loc 1 419 0 discriminator 4
 2024 02fe A7F8C430 		strh	r3, [r7, #196]	@ movhi
 420:main.c        ****     int16_t vacc_r = SNAP16BE(p, plen, 18);
 2025              		.loc 1 420 0 is_stmt 1 discriminator 4
 2026 0302 97F8F030 		ldrb	r3, [r7, #240]	@ zero_extendqisi2
 2027 0306 132B     		cmp	r3, #19
 2028 0308 20D9     		bls	.L115
 2029              		.loc 1 420 0 is_stmt 0 discriminator 1
 2030 030a 3B68     		ldr	r3, [r7]
 2031 030c 1233     		adds	r3, r3, #18
 2032 030e 1B78     		ldrb	r3, [r3]	@ zero_extendqisi2
 2033 0310 1B02     		lsls	r3, r3, #8
 2034 0312 1AB2     		sxth	r2, r3
 2035 0314 3B68     		ldr	r3, [r7]
 2036 0316 1333     		adds	r3, r3, #19
 2037 0318 1B78     		ldrb	r3, [r3]	@ zero_extendqisi2
 2038 031a 1BB2     		sxth	r3, r3
 2039 031c 1343     		orrs	r3, r3, r2
 2040 031e 1BB2     		sxth	r3, r3
 2041 0320 15E0     		b	.L116
 2042              	.L121:
 2043 0322 00BF     		.align	2
 2044              	.L120:
 2045 0324 D8040000 		.word	.LC26
 2046 0328 B4010000 		.word	.LC11
 2047 032c C0010000 		.word	.LC12
ARM GAS  C:\Users\JENNEW~1\AppData\Local\Temp\ccHH9OS0.s 			page 48


 2048 0330 C8010000 		.word	.LC13
 2049 0334 10050000 		.word	.LC27
 2050 0338 80969800 		.word	10000000
 2051 033c 48050000 		.word	.LC28
 2052 0340 88050000 		.word	.LC29
 2053 0344 C8050000 		.word	.LC30
 2054 0348 0C060000 		.word	.LC31
 2055              	.L115:
 2056              		.loc 1 420 0 discriminator 2
 2057 034c 0023     		movs	r3, #0
 2058              	.L116:
 2059              		.loc 1 420 0 discriminator 4
 2060 034e A7F8C230 		strh	r3, [r7, #194]	@ movhi
 421:main.c        ****     int16_t sacc_r = SNAP16BE(p, plen, 20);
 2061              		.loc 1 421 0 is_stmt 1 discriminator 4
 2062 0352 97F8F030 		ldrb	r3, [r7, #240]	@ zero_extendqisi2
 2063 0356 152B     		cmp	r3, #21
 2064 0358 0BD9     		bls	.L117
 2065              		.loc 1 421 0 is_stmt 0 discriminator 1
 2066 035a 3B68     		ldr	r3, [r7]
 2067 035c 1433     		adds	r3, r3, #20
 2068 035e 1B78     		ldrb	r3, [r3]	@ zero_extendqisi2
 2069 0360 1B02     		lsls	r3, r3, #8
 2070 0362 1AB2     		sxth	r2, r3
 2071 0364 3B68     		ldr	r3, [r7]
 2072 0366 1533     		adds	r3, r3, #21
 2073 0368 1B78     		ldrb	r3, [r3]	@ zero_extendqisi2
 2074 036a 1BB2     		sxth	r3, r3
 2075 036c 1343     		orrs	r3, r3, r2
 2076 036e 1BB2     		sxth	r3, r3
 2077 0370 00E0     		b	.L118
 2078              	.L117:
 2079              		.loc 1 421 0 discriminator 2
 2080 0372 0023     		movs	r3, #0
 2081              	.L118:
 2082              		.loc 1 421 0 discriminator 4
 2083 0374 A7F8C030 		strh	r3, [r7, #192]	@ movhi
 422:main.c        **** 
 423:main.c        ****     decomp((float)spd_r  / 100.0f, &vi, &vf, &s);
 2084              		.loc 1 423 0 is_stmt 1 discriminator 4
 2085 0378 B7F9C830 		ldrsh	r3, [r7, #200]
 2086 037c 1846     		mov	r0, r3
 2087 037e FFF7FEFF 		bl	__aeabi_i2f
 2088 0382 0346     		mov	r3, r0
 2089 0384 6449     		ldr	r1, .L122
 2090 0386 1846     		mov	r0, r3
 2091 0388 FFF7FEFF 		bl	__aeabi_fdiv
 2092 038c 0346     		mov	r3, r0
 2093 038e 1846     		mov	r0, r3
 2094 0390 07F11703 		add	r3, r7, #23
 2095 0394 07F11202 		add	r2, r7, #18
 2096 0398 07F11401 		add	r1, r7, #20
 2097 039c FFF7FEFF 		bl	decomp
 424:main.c        ****     sprintf(buf, "  off 12  int16BE /100   raw=%6d  =>  %c%d.%02d m/s  [GND SPD]\r\n",
 2098              		.loc 1 424 0 discriminator 4
 2099 03a0 B7F9C820 		ldrsh	r2, [r7, #200]
 2100 03a4 FB7D     		ldrb	r3, [r7, #23]	@ zero_extendqisi2
ARM GAS  C:\Users\JENNEW~1\AppData\Local\Temp\ccHH9OS0.s 			page 49


 2101 03a6 1C46     		mov	r4, r3
 2102 03a8 B7F91430 		ldrsh	r3, [r7, #20]
 2103 03ac B7F91210 		ldrsh	r1, [r7, #18]
 2104 03b0 07F12000 		add	r0, r7, #32
 2105 03b4 0191     		str	r1, [sp, #4]
 2106 03b6 0093     		str	r3, [sp]
 2107 03b8 2346     		mov	r3, r4
 2108 03ba 5849     		ldr	r1, .L122+4
 2109 03bc FFF7FEFF 		bl	sprintf
 425:main.c        ****             (int)spd_r, s, (int)vi, (int)vf);
 426:main.c        ****     UART_1_PutString(buf);
 2110              		.loc 1 426 0 discriminator 4
 2111 03c0 07F12003 		add	r3, r7, #32
 2112 03c4 1846     		mov	r0, r3
 2113 03c6 FFF7FEFF 		bl	UART_1_PutString
 427:main.c        **** 
 428:main.c        ****     decomp((float)hdg_r  / 10.0f,  &vi, &vf, &s);
 2114              		.loc 1 428 0 discriminator 4
 2115 03ca B7F9C630 		ldrsh	r3, [r7, #198]
 2116 03ce 1846     		mov	r0, r3
 2117 03d0 FFF7FEFF 		bl	__aeabi_i2f
 2118 03d4 0346     		mov	r3, r0
 2119 03d6 5249     		ldr	r1, .L122+8
 2120 03d8 1846     		mov	r0, r3
 2121 03da FFF7FEFF 		bl	__aeabi_fdiv
 2122 03de 0346     		mov	r3, r0
 2123 03e0 1846     		mov	r0, r3
 2124 03e2 07F11703 		add	r3, r7, #23
 2125 03e6 07F11202 		add	r2, r7, #18
 2126 03ea 07F11401 		add	r1, r7, #20
 2127 03ee FFF7FEFF 		bl	decomp
 429:main.c        ****     sprintf(buf, "  off 14  int16BE /10    raw=%6d  =>  %c%d.%02d deg  [HDG]\r\n",
 2128              		.loc 1 429 0 discriminator 4
 2129 03f2 B7F9C620 		ldrsh	r2, [r7, #198]
 2130 03f6 FB7D     		ldrb	r3, [r7, #23]	@ zero_extendqisi2
 2131 03f8 1C46     		mov	r4, r3
 2132 03fa B7F91430 		ldrsh	r3, [r7, #20]
 2133 03fe B7F91210 		ldrsh	r1, [r7, #18]
 2134 0402 07F12000 		add	r0, r7, #32
 2135 0406 0191     		str	r1, [sp, #4]
 2136 0408 0093     		str	r3, [sp]
 2137 040a 2346     		mov	r3, r4
 2138 040c 4549     		ldr	r1, .L122+12
 2139 040e FFF7FEFF 		bl	sprintf
 430:main.c        ****             (int)hdg_r, s, (int)vi, (int)vf);
 431:main.c        ****     UART_1_PutString(buf);
 2140              		.loc 1 431 0 discriminator 4
 2141 0412 07F12003 		add	r3, r7, #32
 2142 0416 1846     		mov	r0, r3
 2143 0418 FFF7FEFF 		bl	UART_1_PutString
 432:main.c        **** 
 433:main.c        ****     decomp((float)hacc_r / 100.0f, &vi, &vf, &s);
 2144              		.loc 1 433 0 discriminator 4
 2145 041c B7F9C430 		ldrsh	r3, [r7, #196]
 2146 0420 1846     		mov	r0, r3
 2147 0422 FFF7FEFF 		bl	__aeabi_i2f
 2148 0426 0346     		mov	r3, r0
ARM GAS  C:\Users\JENNEW~1\AppData\Local\Temp\ccHH9OS0.s 			page 50


 2149 0428 3B49     		ldr	r1, .L122
 2150 042a 1846     		mov	r0, r3
 2151 042c FFF7FEFF 		bl	__aeabi_fdiv
 2152 0430 0346     		mov	r3, r0
 2153 0432 1846     		mov	r0, r3
 2154 0434 07F11703 		add	r3, r7, #23
 2155 0438 07F11202 		add	r2, r7, #18
 2156 043c 07F11401 		add	r1, r7, #20
 2157 0440 FFF7FEFF 		bl	decomp
 434:main.c        ****     sprintf(buf, "  off 16  int16BE /100   raw=%6d  =>  %c%d.%02d m  [HACC]\r\n",
 2158              		.loc 1 434 0 discriminator 4
 2159 0444 B7F9C420 		ldrsh	r2, [r7, #196]
 2160 0448 FB7D     		ldrb	r3, [r7, #23]	@ zero_extendqisi2
 2161 044a 1C46     		mov	r4, r3
 2162 044c B7F91430 		ldrsh	r3, [r7, #20]
 2163 0450 B7F91210 		ldrsh	r1, [r7, #18]
 2164 0454 07F12000 		add	r0, r7, #32
 2165 0458 0191     		str	r1, [sp, #4]
 2166 045a 0093     		str	r3, [sp]
 2167 045c 2346     		mov	r3, r4
 2168 045e 3249     		ldr	r1, .L122+16
 2169 0460 FFF7FEFF 		bl	sprintf
 435:main.c        ****             (int)hacc_r, s, (int)vi, (int)vf);
 436:main.c        ****     UART_1_PutString(buf);
 2170              		.loc 1 436 0 discriminator 4
 2171 0464 07F12003 		add	r3, r7, #32
 2172 0468 1846     		mov	r0, r3
 2173 046a FFF7FEFF 		bl	UART_1_PutString
 437:main.c        **** 
 438:main.c        ****     decomp((float)vacc_r / 100.0f, &vi, &vf, &s);
 2174              		.loc 1 438 0 discriminator 4
 2175 046e B7F9C230 		ldrsh	r3, [r7, #194]
 2176 0472 1846     		mov	r0, r3
 2177 0474 FFF7FEFF 		bl	__aeabi_i2f
 2178 0478 0346     		mov	r3, r0
 2179 047a 2749     		ldr	r1, .L122
 2180 047c 1846     		mov	r0, r3
 2181 047e FFF7FEFF 		bl	__aeabi_fdiv
 2182 0482 0346     		mov	r3, r0
 2183 0484 1846     		mov	r0, r3
 2184 0486 07F11703 		add	r3, r7, #23
 2185 048a 07F11202 		add	r2, r7, #18
 2186 048e 07F11401 		add	r1, r7, #20
 2187 0492 FFF7FEFF 		bl	decomp
 439:main.c        ****     sprintf(buf, "  off 18  int16BE /100   raw=%6d  =>  %c%d.%02d m  [VACC]\r\n",
 2188              		.loc 1 439 0 discriminator 4
 2189 0496 B7F9C220 		ldrsh	r2, [r7, #194]
 2190 049a FB7D     		ldrb	r3, [r7, #23]	@ zero_extendqisi2
 2191 049c 1C46     		mov	r4, r3
 2192 049e B7F91430 		ldrsh	r3, [r7, #20]
 2193 04a2 B7F91210 		ldrsh	r1, [r7, #18]
 2194 04a6 07F12000 		add	r0, r7, #32
 2195 04aa 0191     		str	r1, [sp, #4]
 2196 04ac 0093     		str	r3, [sp]
 2197 04ae 2346     		mov	r3, r4
 2198 04b0 1E49     		ldr	r1, .L122+20
 2199 04b2 FFF7FEFF 		bl	sprintf
ARM GAS  C:\Users\JENNEW~1\AppData\Local\Temp\ccHH9OS0.s 			page 51


 440:main.c        ****             (int)vacc_r, s, (int)vi, (int)vf);
 441:main.c        ****     UART_1_PutString(buf);
 2200              		.loc 1 441 0 discriminator 4
 2201 04b6 07F12003 		add	r3, r7, #32
 2202 04ba 1846     		mov	r0, r3
 2203 04bc FFF7FEFF 		bl	UART_1_PutString
 442:main.c        **** 
 443:main.c        ****     decomp((float)sacc_r / 100.0f, &vi, &vf, &s);
 2204              		.loc 1 443 0 discriminator 4
 2205 04c0 B7F9C030 		ldrsh	r3, [r7, #192]
 2206 04c4 1846     		mov	r0, r3
 2207 04c6 FFF7FEFF 		bl	__aeabi_i2f
 2208 04ca 0346     		mov	r3, r0
 2209 04cc 1249     		ldr	r1, .L122
 2210 04ce 1846     		mov	r0, r3
 2211 04d0 FFF7FEFF 		bl	__aeabi_fdiv
 2212 04d4 0346     		mov	r3, r0
 2213 04d6 1846     		mov	r0, r3
 2214 04d8 07F11703 		add	r3, r7, #23
 2215 04dc 07F11202 		add	r2, r7, #18
 2216 04e0 07F11401 		add	r1, r7, #20
 2217 04e4 FFF7FEFF 		bl	decomp
 444:main.c        ****     sprintf(buf, "  off 20  int16BE /100   raw=%6d  =>  %c%d.%02d m/s  [SACC]\r\n",
 2218              		.loc 1 444 0 discriminator 4
 2219 04e8 B7F9C020 		ldrsh	r2, [r7, #192]
 2220 04ec FB7D     		ldrb	r3, [r7, #23]	@ zero_extendqisi2
 2221 04ee 1C46     		mov	r4, r3
 2222 04f0 B7F91430 		ldrsh	r3, [r7, #20]
 2223 04f4 B7F91210 		ldrsh	r1, [r7, #18]
 2224 04f8 07F12000 		add	r0, r7, #32
 2225 04fc 0191     		str	r1, [sp, #4]
 2226 04fe 0093     		str	r3, [sp]
 2227 0500 2346     		mov	r3, r4
 2228 0502 0B49     		ldr	r1, .L122+24
 2229 0504 FFF7FEFF 		bl	sprintf
 445:main.c        ****             (int)sacc_r, s, (int)vi, (int)vf);
 446:main.c        ****     UART_1_PutString(buf);
 2230              		.loc 1 446 0 discriminator 4
 2231 0508 07F12003 		add	r3, r7, #32
 2232 050c 1846     		mov	r0, r3
 2233 050e FFF7FEFF 		bl	UART_1_PutString
 2234              	.L94:
 447:main.c        **** }
 2235              		.loc 1 447 0
 2236 0512 E437     		adds	r7, r7, #228
 2237              		.cfi_def_cfa_offset 12
 2238 0514 BD46     		mov	sp, r7
 2239              		.cfi_def_cfa_register 13
 2240              		@ sp needed
 2241 0516 90BD     		pop	{r4, r7, pc}
 2242              	.L123:
 2243              		.align	2
 2244              	.L122:
 2245 0518 0000C842 		.word	1120403456
 2246 051c 4C060000 		.word	.LC32
 2247 0520 00002041 		.word	1092616192
 2248 0524 90060000 		.word	.LC33
ARM GAS  C:\Users\JENNEW~1\AppData\Local\Temp\ccHH9OS0.s 			page 52


 2249 0528 D0060000 		.word	.LC34
 2250 052c 0C070000 		.word	.LC35
 2251 0530 48070000 		.word	.LC36
 2252              		.cfi_endproc
 2253              	.LFE74:
 2254              		.size	print_test_gps, .-print_test_gps
 2255              		.section	.rodata
 2256 0786 0000     		.align	2
 2257              	.LC37:
 2258 0788 0D0A5B54 		.ascii	"\015\012[TEST][Baro] attr=3  dt=%lums  rxlen=%u  sn"
 2258      4553545D 
 2258      5B426172 
 2258      6F5D2061 
 2258      7474723D 
 2259 07b5 61706C65 		.ascii	"aplen=%u\015\012\000"
 2259      6E3D2575 
 2259      0D0A00
 2260              		.align	2
 2261              	.LC38:
 2262 07c0 20204552 		.ascii	"  ERROR: snapshot only %u bytes\015\012\000"
 2262      524F523A 
 2262      20736E61 
 2262      7073686F 
 2262      74206F6E 
 2263 07e2 0000     		.align	2
 2264              	.LC39:
 2265 07e4 20206F66 		.ascii	"  off  0  int16LE /10  raw=%6d  =>  %c%d.%02d m  [A"
 2265      66202030 
 2265      2020696E 
 2265      7431364C 
 2265      45202F31 
 2266 0817 4C542069 		.ascii	"LT if no-subix LE]\015\012\000"
 2266      66206E6F 
 2266      2D737562 
 2266      6978204C 
 2266      455D0D0A 
 2267              		.align	2
 2268              	.LC40:
 2269 082c 20206F66 		.ascii	"  off  0  int16BE /10  raw=%6d  =>  %c%d.%02d m  [A"
 2269      66202030 
 2269      2020696E 
 2269      74313642 
 2269      45202F31 
 2270 085f 4C542069 		.ascii	"LT if no-subix BE]\015\012\000"
 2270      66206E6F 
 2270      2D737562 
 2270      69782042 
 2270      455D0D0A 
 2271              		.align	2
 2272              	.LC41:
 2273 0874 20206F66 		.ascii	"  off  1  int16LE /10  raw=%6d  =>  %c%d.%02d m  [A"
 2273      66202031 
 2273      2020696E 
 2273      7431364C 
 2273      45202F31 
 2274 08a7 4C542069 		.ascii	"LT if sub-ix LE]\015\012\000"
 2274      66207375 
ARM GAS  C:\Users\JENNEW~1\AppData\Local\Temp\ccHH9OS0.s 			page 53


 2274      622D6978 
 2274      204C455D 
 2274      0D0A00
 2275 08ba 0000     		.align	2
 2276              	.LC42:
 2277 08bc 20202D2D 		.ascii	"  -- ROC --\015\012\000"
 2277      20524F43 
 2277      202D2D0D 
 2277      0A00
 2278 08ca 0000     		.align	2
 2279              	.LC43:
 2280 08cc 20206F66 		.ascii	"  off  2  int16LE /100 raw=%6d  =>  %c%d.%02d m/s  "
 2280      66202032 
 2280      2020696E 
 2280      7431364C 
 2280      45202F31 
 2281 08ff 5B524F43 		.ascii	"[ROC no-subix LE]\015\012\000"
 2281      206E6F2D 
 2281      73756269 
 2281      78204C45 
 2281      5D0D0A00 
 2282 0913 00       		.align	2
 2283              	.LC44:
 2284 0914 20206F66 		.ascii	"  off  2  int16BE /100 raw=%6d  =>  %c%d.%02d m/s  "
 2284      66202032 
 2284      2020696E 
 2284      74313642 
 2284      45202F31 
 2285 0947 5B524F43 		.ascii	"[ROC no-subix BE]\015\012\000"
 2285      206E6F2D 
 2285      73756269 
 2285      78204245 
 2285      5D0D0A00 
 2286 095b 00       		.align	2
 2287              	.LC45:
 2288 095c 20206F66 		.ascii	"  off  3  int16LE /100 raw=%6d  =>  %c%d.%02d m/s  "
 2288      66202033 
 2288      2020696E 
 2288      7431364C 
 2288      45202F31 
 2289 098f 5B524F43 		.ascii	"[ROC sub-ix LE]\015\012\000"
 2289      20737562 
 2289      2D697820 
 2289      4C455D0D 
 2289      0A00
 2290 09a1 000000   		.align	2
 2291              	.LC46:
 2292 09a4 2020436F 		.ascii	"  Compare altitude to known barometric reference to"
 2292      6D706172 
 2292      6520616C 
 2292      74697475 
 2292      64652074 
 2293 09d7 20706963 		.ascii	" pick correct interpretation.\015\012\000"
 2293      6B20636F 
 2293      72726563 
 2293      7420696E 
 2293      74657270 
ARM GAS  C:\Users\JENNEW~1\AppData\Local\Temp\ccHH9OS0.s 			page 54


 2294              		.section	.text.print_test_baro,"ax",%progbits
 2295              		.align	2
 2296              		.thumb
 2297              		.thumb_func
 2298              		.type	print_test_baro, %function
 2299              	print_test_baro:
 2300              	.LFB75:
 448:main.c        **** 
 449:main.c        **** /* --- attr 3: Baro ---
 450:main.c        ****  * Endianness and sub-index unconfirmed — hex dump included for verification. */
 451:main.c        **** static void print_test_baro(const movi_status_t* st, uint32_t dt,
 452:main.c        ****                              uint16_t rxlen, const uint8_t* p, uint8_t plen)
 453:main.c        **** {
 2301              		.loc 1 453 0
 2302              		.cfi_startproc
 2303              		@ args = 4, pretend = 0, frame = 216
 2304              		@ frame_needed = 1, uses_anonymous_args = 0
 2305 0000 90B5     		push	{r4, r7, lr}
 2306              		.cfi_def_cfa_offset 12
 2307              		.cfi_offset 4, -12
 2308              		.cfi_offset 7, -8
 2309              		.cfi_offset 14, -4
 2310 0002 B9B0     		sub	sp, sp, #228
 2311              		.cfi_def_cfa_offset 240
 2312 0004 02AF     		add	r7, sp, #8
 2313              		.cfi_def_cfa 7, 232
 2314 0006 F860     		str	r0, [r7, #12]
 2315 0008 B960     		str	r1, [r7, #8]
 2316 000a 3B60     		str	r3, [r7]
 2317 000c 1346     		mov	r3, r2	@ movhi
 2318 000e FB80     		strh	r3, [r7, #6]	@ movhi
 454:main.c        ****     char buf[TRANSMIT_BUFFER_SIZE];
 455:main.c        ****     (void)st;
 456:main.c        **** 
 457:main.c        ****     sprintf(buf, "\r\n[TEST][Baro] attr=3  dt=%lums  rxlen=%u  snaplen=%u\r\n",
 2319              		.loc 1 457 0
 2320 0010 FA88     		ldrh	r2, [r7, #6]
 2321 0012 97F8E830 		ldrb	r3, [r7, #232]	@ zero_extendqisi2
 2322 0016 07F12400 		add	r0, r7, #36
 2323 001a 0093     		str	r3, [sp]
 2324 001c 1346     		mov	r3, r2
 2325 001e BA68     		ldr	r2, [r7, #8]
 2326 0020 B449     		ldr	r1, .L145
 2327 0022 FFF7FEFF 		bl	sprintf
 458:main.c        ****             (unsigned long)dt, (unsigned)rxlen, (unsigned)plen);
 459:main.c        ****     UART_1_PutString(buf);
 2328              		.loc 1 459 0
 2329 0026 07F12403 		add	r3, r7, #36
 2330 002a 1846     		mov	r0, r3
 2331 002c FFF7FEFF 		bl	UART_1_PutString
 2332              	.LBB16:
 460:main.c        **** 
 461:main.c        ****     /* Hex dump — needed to determine correct endianness / sub-index */
 462:main.c        ****     {
 463:main.c        ****         uint8_t row, col;
 464:main.c        ****         for (row = 0u; row < plen; row += 8u) {
 2333              		.loc 1 464 0
ARM GAS  C:\Users\JENNEW~1\AppData\Local\Temp\ccHH9OS0.s 			page 55


 2334 0030 0023     		movs	r3, #0
 2335 0032 87F8D730 		strb	r3, [r7, #215]
 2336 0036 56E0     		b	.L125
 2337              	.L129:
 2338              	.LBB17:
 465:main.c        ****             char* bp = buf;
 2339              		.loc 1 465 0
 2340 0038 07F12403 		add	r3, r7, #36
 2341 003c C7F8D030 		str	r3, [r7, #208]
 466:main.c        ****             bp += sprintf(bp, "  off%02u:", (unsigned)row);
 2342              		.loc 1 466 0
 2343 0040 97F8D730 		ldrb	r3, [r7, #215]	@ zero_extendqisi2
 2344 0044 1A46     		mov	r2, r3
 2345 0046 AC49     		ldr	r1, .L145+4
 2346 0048 D7F8D000 		ldr	r0, [r7, #208]
 2347 004c FFF7FEFF 		bl	sprintf
 2348 0050 0346     		mov	r3, r0
 2349 0052 1A46     		mov	r2, r3
 2350 0054 D7F8D030 		ldr	r3, [r7, #208]
 2351 0058 1344     		add	r3, r3, r2
 2352 005a C7F8D030 		str	r3, [r7, #208]
 467:main.c        ****             for (col = 0u; col < 8u && (row + col) < plen; col++)
 2353              		.loc 1 467 0
 2354 005e 0023     		movs	r3, #0
 2355 0060 87F8D630 		strb	r3, [r7, #214]
 2356 0064 1AE0     		b	.L126
 2357              	.L128:
 468:main.c        ****                 bp += sprintf(bp, " %02X", (unsigned)p[row + col]);
 2358              		.loc 1 468 0 discriminator 4
 2359 0066 97F8D720 		ldrb	r2, [r7, #215]	@ zero_extendqisi2
 2360 006a 97F8D630 		ldrb	r3, [r7, #214]	@ zero_extendqisi2
 2361 006e 1344     		add	r3, r3, r2
 2362 0070 1A46     		mov	r2, r3
 2363 0072 3B68     		ldr	r3, [r7]
 2364 0074 1344     		add	r3, r3, r2
 2365 0076 1B78     		ldrb	r3, [r3]	@ zero_extendqisi2
 2366 0078 1A46     		mov	r2, r3
 2367 007a A049     		ldr	r1, .L145+8
 2368 007c D7F8D000 		ldr	r0, [r7, #208]
 2369 0080 FFF7FEFF 		bl	sprintf
 2370 0084 0346     		mov	r3, r0
 2371 0086 1A46     		mov	r2, r3
 2372 0088 D7F8D030 		ldr	r3, [r7, #208]
 2373 008c 1344     		add	r3, r3, r2
 2374 008e C7F8D030 		str	r3, [r7, #208]
 467:main.c        ****             for (col = 0u; col < 8u && (row + col) < plen; col++)
 2375              		.loc 1 467 0 discriminator 4
 2376 0092 97F8D630 		ldrb	r3, [r7, #214]	@ zero_extendqisi2
 2377 0096 0133     		adds	r3, r3, #1
 2378 0098 87F8D630 		strb	r3, [r7, #214]
 2379              	.L126:
 467:main.c        ****             for (col = 0u; col < 8u && (row + col) < plen; col++)
 2380              		.loc 1 467 0 is_stmt 0 discriminator 1
 2381 009c 97F8D630 		ldrb	r3, [r7, #214]	@ zero_extendqisi2
 2382 00a0 072B     		cmp	r3, #7
 2383 00a2 08D8     		bhi	.L127
 467:main.c        ****             for (col = 0u; col < 8u && (row + col) < plen; col++)
ARM GAS  C:\Users\JENNEW~1\AppData\Local\Temp\ccHH9OS0.s 			page 56


 2384              		.loc 1 467 0 discriminator 3
 2385 00a4 97F8D720 		ldrb	r2, [r7, #215]	@ zero_extendqisi2
 2386 00a8 97F8D630 		ldrb	r3, [r7, #214]	@ zero_extendqisi2
 2387 00ac 1A44     		add	r2, r2, r3
 2388 00ae 97F8E830 		ldrb	r3, [r7, #232]	@ zero_extendqisi2
 2389 00b2 9A42     		cmp	r2, r3
 2390 00b4 D7DB     		blt	.L128
 2391              	.L127:
 469:main.c        ****             bp += sprintf(bp, "\r\n");
 2392              		.loc 1 469 0 is_stmt 1 discriminator 2
 2393 00b6 D7F8D030 		ldr	r3, [r7, #208]
 2394 00ba 914A     		ldr	r2, .L145+12
 2395 00bc 1188     		ldrh	r1, [r2]	@ unaligned
 2396 00be 9278     		ldrb	r2, [r2, #2]
 2397 00c0 1980     		strh	r1, [r3]	@ unaligned
 2398 00c2 9A70     		strb	r2, [r3, #2]
 2399 00c4 0223     		movs	r3, #2
 2400 00c6 1A46     		mov	r2, r3
 2401 00c8 D7F8D030 		ldr	r3, [r7, #208]
 2402 00cc 1344     		add	r3, r3, r2
 2403 00ce C7F8D030 		str	r3, [r7, #208]
 470:main.c        ****             UART_1_PutString(buf);
 2404              		.loc 1 470 0 discriminator 2
 2405 00d2 07F12403 		add	r3, r7, #36
 2406 00d6 1846     		mov	r0, r3
 2407 00d8 FFF7FEFF 		bl	UART_1_PutString
 2408              	.LBE17:
 464:main.c        ****             char* bp = buf;
 2409              		.loc 1 464 0 discriminator 2
 2410 00dc 97F8D730 		ldrb	r3, [r7, #215]
 2411 00e0 0833     		adds	r3, r3, #8
 2412 00e2 87F8D730 		strb	r3, [r7, #215]
 2413              	.L125:
 464:main.c        ****             char* bp = buf;
 2414              		.loc 1 464 0 is_stmt 0 discriminator 1
 2415 00e6 97F8D720 		ldrb	r2, [r7, #215]	@ zero_extendqisi2
 2416 00ea 97F8E830 		ldrb	r3, [r7, #232]	@ zero_extendqisi2
 2417 00ee 9A42     		cmp	r2, r3
 2418 00f0 A2D3     		bcc	.L129
 2419              	.LBE16:
 471:main.c        ****         }
 472:main.c        ****     }
 473:main.c        **** 
 474:main.c        ****     if (plen < 4u) {
 2420              		.loc 1 474 0 is_stmt 1
 2421 00f2 97F8E830 		ldrb	r3, [r7, #232]	@ zero_extendqisi2
 2422 00f6 032B     		cmp	r3, #3
 2423 00f8 0DD8     		bhi	.L130
 475:main.c        ****         sprintf(buf, "  ERROR: snapshot only %u bytes\r\n", (unsigned)plen);
 2424              		.loc 1 475 0
 2425 00fa 97F8E820 		ldrb	r2, [r7, #232]	@ zero_extendqisi2
 2426 00fe 07F12403 		add	r3, r7, #36
 2427 0102 8049     		ldr	r1, .L145+16
 2428 0104 1846     		mov	r0, r3
 2429 0106 FFF7FEFF 		bl	sprintf
 476:main.c        ****         UART_1_PutString(buf);
 2430              		.loc 1 476 0
ARM GAS  C:\Users\JENNEW~1\AppData\Local\Temp\ccHH9OS0.s 			page 57


 2431 010a 07F12403 		add	r3, r7, #36
 2432 010e 1846     		mov	r0, r3
 2433 0110 FFF7FEFF 		bl	UART_1_PutString
 2434 0114 86E1     		b	.L124
 2435              	.L130:
 477:main.c        ****         return;
 478:main.c        ****     }
 479:main.c        **** 
 480:main.c        ****     char s; int16 vi, vf;
 481:main.c        **** 
 482:main.c        ****     /* Try both sub-index (off 1) and no-sub-index (off 0) interpretations.
 483:main.c        ****      * GPS and sysstat have no sub-index (BE from off 0).
 484:main.c        ****      * Attr 22 has sub-index (LE from off 1).
 485:main.c        ****      * Compare against a known altitude reference to determine which is correct. */
 486:main.c        ****     int16_t alt0_le = SNAP16(p, plen, 0);   /* LE from off 0 (no sub-ix) */
 2436              		.loc 1 486 0
 2437 0116 97F8E830 		ldrb	r3, [r7, #232]	@ zero_extendqisi2
 2438 011a 012B     		cmp	r3, #1
 2439 011c 09D9     		bls	.L132
 2440              	.LBB18:
 2441              		.loc 1 486 0 is_stmt 0 discriminator 1
 2442 011e 07F11C03 		add	r3, r7, #28
 2443 0122 0222     		movs	r2, #2
 2444 0124 3968     		ldr	r1, [r7]
 2445 0126 1846     		mov	r0, r3
 2446 0128 FFF7FEFF 		bl	memcpy
 2447 012c B7F91C30 		ldrsh	r3, [r7, #28]
 2448              	.LBE18:
 2449 0130 00E0     		b	.L133
 2450              	.L132:
 2451              		.loc 1 486 0 discriminator 2
 2452 0132 0023     		movs	r3, #0
 2453              	.L133:
 2454              		.loc 1 486 0 discriminator 4
 2455 0134 A7F8CE30 		strh	r3, [r7, #206]	@ movhi
 487:main.c        ****     int16_t alt0_be = SNAP16BE(p, plen, 0); /* BE from off 0 (no sub-ix) */
 2456              		.loc 1 487 0 is_stmt 1 discriminator 4
 2457 0138 97F8E830 		ldrb	r3, [r7, #232]	@ zero_extendqisi2
 2458 013c 012B     		cmp	r3, #1
 2459 013e 0AD9     		bls	.L134
 2460              		.loc 1 487 0 is_stmt 0 discriminator 1
 2461 0140 3B68     		ldr	r3, [r7]
 2462 0142 1B78     		ldrb	r3, [r3]	@ zero_extendqisi2
 2463 0144 1B02     		lsls	r3, r3, #8
 2464 0146 1AB2     		sxth	r2, r3
 2465 0148 3B68     		ldr	r3, [r7]
 2466 014a 0133     		adds	r3, r3, #1
 2467 014c 1B78     		ldrb	r3, [r3]	@ zero_extendqisi2
 2468 014e 1BB2     		sxth	r3, r3
 2469 0150 1343     		orrs	r3, r3, r2
 2470 0152 1BB2     		sxth	r3, r3
 2471 0154 00E0     		b	.L135
 2472              	.L134:
 2473              		.loc 1 487 0 discriminator 2
 2474 0156 0023     		movs	r3, #0
 2475              	.L135:
 2476              		.loc 1 487 0 discriminator 4
ARM GAS  C:\Users\JENNEW~1\AppData\Local\Temp\ccHH9OS0.s 			page 58


 2477 0158 A7F8CC30 		strh	r3, [r7, #204]	@ movhi
 488:main.c        ****     int16_t alt1_le = SNAP16(p, plen, 1);   /* LE from off 1 (sub-ix)    */
 2478              		.loc 1 488 0 is_stmt 1 discriminator 4
 2479 015c 97F8E830 		ldrb	r3, [r7, #232]	@ zero_extendqisi2
 2480 0160 022B     		cmp	r3, #2
 2481 0162 0AD9     		bls	.L136
 2482              	.LBB19:
 2483              		.loc 1 488 0 is_stmt 0 discriminator 1
 2484 0164 3B68     		ldr	r3, [r7]
 2485 0166 591C     		adds	r1, r3, #1
 2486 0168 07F11A03 		add	r3, r7, #26
 2487 016c 0222     		movs	r2, #2
 2488 016e 1846     		mov	r0, r3
 2489 0170 FFF7FEFF 		bl	memcpy
 2490 0174 B7F91A30 		ldrsh	r3, [r7, #26]
 2491              	.LBE19:
 2492 0178 00E0     		b	.L137
 2493              	.L136:
 2494              		.loc 1 488 0 discriminator 2
 2495 017a 0023     		movs	r3, #0
 2496              	.L137:
 2497              		.loc 1 488 0 discriminator 4
 2498 017c A7F8CA30 		strh	r3, [r7, #202]	@ movhi
 489:main.c        **** 
 490:main.c        ****     decomp((float)alt0_le / 10.0f, &vi, &vf, &s);
 2499              		.loc 1 490 0 is_stmt 1 discriminator 4
 2500 0180 B7F9CE30 		ldrsh	r3, [r7, #206]
 2501 0184 1846     		mov	r0, r3
 2502 0186 FFF7FEFF 		bl	__aeabi_i2f
 2503 018a 0346     		mov	r3, r0
 2504 018c 5E49     		ldr	r1, .L145+20
 2505 018e 1846     		mov	r0, r3
 2506 0190 FFF7FEFF 		bl	__aeabi_fdiv
 2507 0194 0346     		mov	r3, r0
 2508 0196 1846     		mov	r0, r3
 2509 0198 07F12303 		add	r3, r7, #35
 2510 019c 07F11E02 		add	r2, r7, #30
 2511 01a0 07F12001 		add	r1, r7, #32
 2512 01a4 FFF7FEFF 		bl	decomp
 491:main.c        ****     sprintf(buf, "  off  0  int16LE /10  raw=%6d  =>  %c%d.%02d m  [ALT if no-subix LE]\r\n",
 2513              		.loc 1 491 0 discriminator 4
 2514 01a8 B7F9CE20 		ldrsh	r2, [r7, #206]
 2515 01ac 97F82330 		ldrb	r3, [r7, #35]	@ zero_extendqisi2
 2516 01b0 1C46     		mov	r4, r3
 2517 01b2 B7F92030 		ldrsh	r3, [r7, #32]
 2518 01b6 B7F91E10 		ldrsh	r1, [r7, #30]
 2519 01ba 07F12400 		add	r0, r7, #36
 2520 01be 0191     		str	r1, [sp, #4]
 2521 01c0 0093     		str	r3, [sp]
 2522 01c2 2346     		mov	r3, r4
 2523 01c4 5149     		ldr	r1, .L145+24
 2524 01c6 FFF7FEFF 		bl	sprintf
 492:main.c        ****             (int)alt0_le, s, (int)vi, (int)vf);
 493:main.c        ****     UART_1_PutString(buf);
 2525              		.loc 1 493 0 discriminator 4
 2526 01ca 07F12403 		add	r3, r7, #36
 2527 01ce 1846     		mov	r0, r3
ARM GAS  C:\Users\JENNEW~1\AppData\Local\Temp\ccHH9OS0.s 			page 59


 2528 01d0 FFF7FEFF 		bl	UART_1_PutString
 494:main.c        **** 
 495:main.c        ****     decomp((float)alt0_be / 10.0f, &vi, &vf, &s);
 2529              		.loc 1 495 0 discriminator 4
 2530 01d4 B7F9CC30 		ldrsh	r3, [r7, #204]
 2531 01d8 1846     		mov	r0, r3
 2532 01da FFF7FEFF 		bl	__aeabi_i2f
 2533 01de 0346     		mov	r3, r0
 2534 01e0 4949     		ldr	r1, .L145+20
 2535 01e2 1846     		mov	r0, r3
 2536 01e4 FFF7FEFF 		bl	__aeabi_fdiv
 2537 01e8 0346     		mov	r3, r0
 2538 01ea 1846     		mov	r0, r3
 2539 01ec 07F12303 		add	r3, r7, #35
 2540 01f0 07F11E02 		add	r2, r7, #30
 2541 01f4 07F12001 		add	r1, r7, #32
 2542 01f8 FFF7FEFF 		bl	decomp
 496:main.c        ****     sprintf(buf, "  off  0  int16BE /10  raw=%6d  =>  %c%d.%02d m  [ALT if no-subix BE]\r\n",
 2543              		.loc 1 496 0 discriminator 4
 2544 01fc B7F9CC20 		ldrsh	r2, [r7, #204]
 2545 0200 97F82330 		ldrb	r3, [r7, #35]	@ zero_extendqisi2
 2546 0204 1C46     		mov	r4, r3
 2547 0206 B7F92030 		ldrsh	r3, [r7, #32]
 2548 020a B7F91E10 		ldrsh	r1, [r7, #30]
 2549 020e 07F12400 		add	r0, r7, #36
 2550 0212 0191     		str	r1, [sp, #4]
 2551 0214 0093     		str	r3, [sp]
 2552 0216 2346     		mov	r3, r4
 2553 0218 3D49     		ldr	r1, .L145+28
 2554 021a FFF7FEFF 		bl	sprintf
 497:main.c        ****             (int)alt0_be, s, (int)vi, (int)vf);
 498:main.c        ****     UART_1_PutString(buf);
 2555              		.loc 1 498 0 discriminator 4
 2556 021e 07F12403 		add	r3, r7, #36
 2557 0222 1846     		mov	r0, r3
 2558 0224 FFF7FEFF 		bl	UART_1_PutString
 499:main.c        **** 
 500:main.c        ****     decomp((float)alt1_le / 10.0f, &vi, &vf, &s);
 2559              		.loc 1 500 0 discriminator 4
 2560 0228 B7F9CA30 		ldrsh	r3, [r7, #202]
 2561 022c 1846     		mov	r0, r3
 2562 022e FFF7FEFF 		bl	__aeabi_i2f
 2563 0232 0346     		mov	r3, r0
 2564 0234 3449     		ldr	r1, .L145+20
 2565 0236 1846     		mov	r0, r3
 2566 0238 FFF7FEFF 		bl	__aeabi_fdiv
 2567 023c 0346     		mov	r3, r0
 2568 023e 1846     		mov	r0, r3
 2569 0240 07F12303 		add	r3, r7, #35
 2570 0244 07F11E02 		add	r2, r7, #30
 2571 0248 07F12001 		add	r1, r7, #32
 2572 024c FFF7FEFF 		bl	decomp
 501:main.c        ****     sprintf(buf, "  off  1  int16LE /10  raw=%6d  =>  %c%d.%02d m  [ALT if sub-ix LE]\r\n",
 2573              		.loc 1 501 0 discriminator 4
 2574 0250 B7F9CA20 		ldrsh	r2, [r7, #202]
 2575 0254 97F82330 		ldrb	r3, [r7, #35]	@ zero_extendqisi2
 2576 0258 1C46     		mov	r4, r3
ARM GAS  C:\Users\JENNEW~1\AppData\Local\Temp\ccHH9OS0.s 			page 60


 2577 025a B7F92030 		ldrsh	r3, [r7, #32]
 2578 025e B7F91E10 		ldrsh	r1, [r7, #30]
 2579 0262 07F12400 		add	r0, r7, #36
 2580 0266 0191     		str	r1, [sp, #4]
 2581 0268 0093     		str	r3, [sp]
 2582 026a 2346     		mov	r3, r4
 2583 026c 2949     		ldr	r1, .L145+32
 2584 026e FFF7FEFF 		bl	sprintf
 502:main.c        ****             (int)alt1_le, s, (int)vi, (int)vf);
 503:main.c        ****     UART_1_PutString(buf);
 2585              		.loc 1 503 0 discriminator 4
 2586 0272 07F12403 		add	r3, r7, #36
 2587 0276 1846     		mov	r0, r3
 2588 0278 FFF7FEFF 		bl	UART_1_PutString
 504:main.c        **** 
 505:main.c        ****     UART_1_PutString("  -- ROC --\r\n");
 2589              		.loc 1 505 0 discriminator 4
 2590 027c 2648     		ldr	r0, .L145+36
 2591 027e FFF7FEFF 		bl	UART_1_PutString
 506:main.c        ****     if (plen >= 6u) {
 2592              		.loc 1 506 0 discriminator 4
 2593 0282 97F8E830 		ldrb	r3, [r7, #232]	@ zero_extendqisi2
 2594 0286 052B     		cmp	r3, #5
 2595 0288 40F2C980 		bls	.L138
 2596              	.LBB20:
 507:main.c        ****         int16_t roc0_le = SNAP16(p, plen, 2);
 2597              		.loc 1 507 0
 2598 028c 97F8E830 		ldrb	r3, [r7, #232]	@ zero_extendqisi2
 2599 0290 032B     		cmp	r3, #3
 2600 0292 0AD9     		bls	.L139
 2601              	.LBB21:
 2602              		.loc 1 507 0 is_stmt 0 discriminator 1
 2603 0294 3B68     		ldr	r3, [r7]
 2604 0296 991C     		adds	r1, r3, #2
 2605 0298 07F11803 		add	r3, r7, #24
 2606 029c 0222     		movs	r2, #2
 2607 029e 1846     		mov	r0, r3
 2608 02a0 FFF7FEFF 		bl	memcpy
 2609 02a4 B7F91830 		ldrsh	r3, [r7, #24]
 2610              	.LBE21:
 2611 02a8 00E0     		b	.L140
 2612              	.L139:
 2613              		.loc 1 507 0 discriminator 2
 2614 02aa 0023     		movs	r3, #0
 2615              	.L140:
 2616              		.loc 1 507 0 discriminator 4
 2617 02ac A7F8C830 		strh	r3, [r7, #200]	@ movhi
 508:main.c        ****         int16_t roc0_be = SNAP16BE(p, plen, 2);
 2618              		.loc 1 508 0 is_stmt 1 discriminator 4
 2619 02b0 97F8E830 		ldrb	r3, [r7, #232]	@ zero_extendqisi2
 2620 02b4 032B     		cmp	r3, #3
 2621 02b6 0BD9     		bls	.L141
 2622              		.loc 1 508 0 is_stmt 0 discriminator 1
 2623 02b8 3B68     		ldr	r3, [r7]
 2624 02ba 0233     		adds	r3, r3, #2
 2625 02bc 1B78     		ldrb	r3, [r3]	@ zero_extendqisi2
 2626 02be 1B02     		lsls	r3, r3, #8
ARM GAS  C:\Users\JENNEW~1\AppData\Local\Temp\ccHH9OS0.s 			page 61


 2627 02c0 1AB2     		sxth	r2, r3
 2628 02c2 3B68     		ldr	r3, [r7]
 2629 02c4 0333     		adds	r3, r3, #3
 2630 02c6 1B78     		ldrb	r3, [r3]	@ zero_extendqisi2
 2631 02c8 1BB2     		sxth	r3, r3
 2632 02ca 1343     		orrs	r3, r3, r2
 2633 02cc 1BB2     		sxth	r3, r3
 2634 02ce 00E0     		b	.L142
 2635              	.L141:
 2636              		.loc 1 508 0 discriminator 2
 2637 02d0 0023     		movs	r3, #0
 2638              	.L142:
 2639              		.loc 1 508 0 discriminator 4
 2640 02d2 A7F8C630 		strh	r3, [r7, #198]	@ movhi
 509:main.c        ****         int16_t roc1_le = SNAP16(p, plen, 3);
 2641              		.loc 1 509 0 is_stmt 1 discriminator 4
 2642 02d6 97F8E830 		ldrb	r3, [r7, #232]	@ zero_extendqisi2
 2643 02da 042B     		cmp	r3, #4
 2644 02dc 1ED9     		bls	.L143
 2645              	.LBB22:
 2646              		.loc 1 509 0 is_stmt 0 discriminator 1
 2647 02de 3B68     		ldr	r3, [r7]
 2648 02e0 D91C     		adds	r1, r3, #3
 2649 02e2 07F11603 		add	r3, r7, #22
 2650 02e6 0222     		movs	r2, #2
 2651 02e8 1846     		mov	r0, r3
 2652 02ea FFF7FEFF 		bl	memcpy
 2653 02ee B7F91630 		ldrsh	r3, [r7, #22]
 2654              	.LBE22:
 2655 02f2 14E0     		b	.L144
 2656              	.L146:
 2657              		.align	2
 2658              	.L145:
 2659 02f4 88070000 		.word	.LC37
 2660 02f8 B4010000 		.word	.LC11
 2661 02fc C0010000 		.word	.LC12
 2662 0300 C8010000 		.word	.LC13
 2663 0304 C0070000 		.word	.LC38
 2664 0308 00002041 		.word	1092616192
 2665 030c E4070000 		.word	.LC39
 2666 0310 2C080000 		.word	.LC40
 2667 0314 74080000 		.word	.LC41
 2668 0318 BC080000 		.word	.LC42
 2669              	.L143:
 2670              		.loc 1 509 0 discriminator 2
 2671 031c 0023     		movs	r3, #0
 2672              	.L144:
 2673              		.loc 1 509 0 discriminator 4
 2674 031e A7F8C430 		strh	r3, [r7, #196]	@ movhi
 510:main.c        ****         decomp((float)roc0_le / 100.0f, &vi, &vf, &s);
 2675              		.loc 1 510 0 is_stmt 1 discriminator 4
 2676 0322 B7F9C830 		ldrsh	r3, [r7, #200]
 2677 0326 1846     		mov	r0, r3
 2678 0328 FFF7FEFF 		bl	__aeabi_i2f
 2679 032c 0346     		mov	r3, r0
 2680 032e 3F49     		ldr	r1, .L147
 2681 0330 1846     		mov	r0, r3
ARM GAS  C:\Users\JENNEW~1\AppData\Local\Temp\ccHH9OS0.s 			page 62


 2682 0332 FFF7FEFF 		bl	__aeabi_fdiv
 2683 0336 0346     		mov	r3, r0
 2684 0338 1846     		mov	r0, r3
 2685 033a 07F12303 		add	r3, r7, #35
 2686 033e 07F11E02 		add	r2, r7, #30
 2687 0342 07F12001 		add	r1, r7, #32
 2688 0346 FFF7FEFF 		bl	decomp
 511:main.c        ****         sprintf(buf, "  off  2  int16LE /100 raw=%6d  =>  %c%d.%02d m/s  [ROC no-subix LE]\r\n",
 2689              		.loc 1 511 0 discriminator 4
 2690 034a B7F9C820 		ldrsh	r2, [r7, #200]
 2691 034e 97F82330 		ldrb	r3, [r7, #35]	@ zero_extendqisi2
 2692 0352 1C46     		mov	r4, r3
 2693 0354 B7F92030 		ldrsh	r3, [r7, #32]
 2694 0358 B7F91E10 		ldrsh	r1, [r7, #30]
 2695 035c 07F12400 		add	r0, r7, #36
 2696 0360 0191     		str	r1, [sp, #4]
 2697 0362 0093     		str	r3, [sp]
 2698 0364 2346     		mov	r3, r4
 2699 0366 3249     		ldr	r1, .L147+4
 2700 0368 FFF7FEFF 		bl	sprintf
 512:main.c        ****                 (int)roc0_le, s, (int)vi, (int)vf);
 513:main.c        ****         UART_1_PutString(buf);
 2701              		.loc 1 513 0 discriminator 4
 2702 036c 07F12403 		add	r3, r7, #36
 2703 0370 1846     		mov	r0, r3
 2704 0372 FFF7FEFF 		bl	UART_1_PutString
 514:main.c        ****         decomp((float)roc0_be / 100.0f, &vi, &vf, &s);
 2705              		.loc 1 514 0 discriminator 4
 2706 0376 B7F9C630 		ldrsh	r3, [r7, #198]
 2707 037a 1846     		mov	r0, r3
 2708 037c FFF7FEFF 		bl	__aeabi_i2f
 2709 0380 0346     		mov	r3, r0
 2710 0382 2A49     		ldr	r1, .L147
 2711 0384 1846     		mov	r0, r3
 2712 0386 FFF7FEFF 		bl	__aeabi_fdiv
 2713 038a 0346     		mov	r3, r0
 2714 038c 1846     		mov	r0, r3
 2715 038e 07F12303 		add	r3, r7, #35
 2716 0392 07F11E02 		add	r2, r7, #30
 2717 0396 07F12001 		add	r1, r7, #32
 2718 039a FFF7FEFF 		bl	decomp
 515:main.c        ****         sprintf(buf, "  off  2  int16BE /100 raw=%6d  =>  %c%d.%02d m/s  [ROC no-subix BE]\r\n",
 2719              		.loc 1 515 0 discriminator 4
 2720 039e B7F9C620 		ldrsh	r2, [r7, #198]
 2721 03a2 97F82330 		ldrb	r3, [r7, #35]	@ zero_extendqisi2
 2722 03a6 1C46     		mov	r4, r3
 2723 03a8 B7F92030 		ldrsh	r3, [r7, #32]
 2724 03ac B7F91E10 		ldrsh	r1, [r7, #30]
 2725 03b0 07F12400 		add	r0, r7, #36
 2726 03b4 0191     		str	r1, [sp, #4]
 2727 03b6 0093     		str	r3, [sp]
 2728 03b8 2346     		mov	r3, r4
 2729 03ba 1E49     		ldr	r1, .L147+8
 2730 03bc FFF7FEFF 		bl	sprintf
 516:main.c        ****                 (int)roc0_be, s, (int)vi, (int)vf);
 517:main.c        ****         UART_1_PutString(buf);
 2731              		.loc 1 517 0 discriminator 4
ARM GAS  C:\Users\JENNEW~1\AppData\Local\Temp\ccHH9OS0.s 			page 63


 2732 03c0 07F12403 		add	r3, r7, #36
 2733 03c4 1846     		mov	r0, r3
 2734 03c6 FFF7FEFF 		bl	UART_1_PutString
 518:main.c        ****         decomp((float)roc1_le / 100.0f, &vi, &vf, &s);
 2735              		.loc 1 518 0 discriminator 4
 2736 03ca B7F9C430 		ldrsh	r3, [r7, #196]
 2737 03ce 1846     		mov	r0, r3
 2738 03d0 FFF7FEFF 		bl	__aeabi_i2f
 2739 03d4 0346     		mov	r3, r0
 2740 03d6 1549     		ldr	r1, .L147
 2741 03d8 1846     		mov	r0, r3
 2742 03da FFF7FEFF 		bl	__aeabi_fdiv
 2743 03de 0346     		mov	r3, r0
 2744 03e0 1846     		mov	r0, r3
 2745 03e2 07F12303 		add	r3, r7, #35
 2746 03e6 07F11E02 		add	r2, r7, #30
 2747 03ea 07F12001 		add	r1, r7, #32
 2748 03ee FFF7FEFF 		bl	decomp
 519:main.c        ****         sprintf(buf, "  off  3  int16LE /100 raw=%6d  =>  %c%d.%02d m/s  [ROC sub-ix LE]\r\n",
 2749              		.loc 1 519 0 discriminator 4
 2750 03f2 B7F9C420 		ldrsh	r2, [r7, #196]
 2751 03f6 97F82330 		ldrb	r3, [r7, #35]	@ zero_extendqisi2
 2752 03fa 1C46     		mov	r4, r3
 2753 03fc B7F92030 		ldrsh	r3, [r7, #32]
 2754 0400 B7F91E10 		ldrsh	r1, [r7, #30]
 2755 0404 07F12400 		add	r0, r7, #36
 2756 0408 0191     		str	r1, [sp, #4]
 2757 040a 0093     		str	r3, [sp]
 2758 040c 2346     		mov	r3, r4
 2759 040e 0A49     		ldr	r1, .L147+12
 2760 0410 FFF7FEFF 		bl	sprintf
 520:main.c        ****                 (int)roc1_le, s, (int)vi, (int)vf);
 521:main.c        ****         UART_1_PutString(buf);
 2761              		.loc 1 521 0 discriminator 4
 2762 0414 07F12403 		add	r3, r7, #36
 2763 0418 1846     		mov	r0, r3
 2764 041a FFF7FEFF 		bl	UART_1_PutString
 2765              	.L138:
 2766              	.LBE20:
 522:main.c        ****     }
 523:main.c        ****     UART_1_PutString("  Compare altitude to known barometric reference to pick correct interpretati
 2767              		.loc 1 523 0
 2768 041e 0748     		ldr	r0, .L147+16
 2769 0420 FFF7FEFF 		bl	UART_1_PutString
 2770              	.L124:
 524:main.c        **** }
 2771              		.loc 1 524 0
 2772 0424 DC37     		adds	r7, r7, #220
 2773              		.cfi_def_cfa_offset 12
 2774 0426 BD46     		mov	sp, r7
 2775              		.cfi_def_cfa_register 13
 2776              		@ sp needed
 2777 0428 90BD     		pop	{r4, r7, pc}
 2778              	.L148:
 2779 042a 00BF     		.align	2
 2780              	.L147:
 2781 042c 0000C842 		.word	1120403456
ARM GAS  C:\Users\JENNEW~1\AppData\Local\Temp\ccHH9OS0.s 			page 64


 2782 0430 CC080000 		.word	.LC43
 2783 0434 14090000 		.word	.LC44
 2784 0438 5C090000 		.word	.LC45
 2785 043c A4090000 		.word	.LC46
 2786              		.cfi_endproc
 2787              	.LFE75:
 2788              		.size	print_test_baro, .-print_test_baro
 2789              		.section	.rodata
 2790 09f7 00       		.align	2
 2791              	.LC47:
 2792 09f8 0D0A5B54 		.ascii	"\015\012[TEST][Stat] attr=1  dt=%lums  rxlen=%u  sn"
 2792      4553545D 
 2792      5B537461 
 2792      745D2061 
 2792      7474723D 
 2793 0a25 61706C65 		.ascii	"aplen=%u\015\012\000"
 2793      6E3D2575 
 2793      0D0A00
 2794              		.align	2
 2795              	.LC48:
 2796 0a30 20206F66 		.ascii	"  off  0  int16BE /100   raw=%6d  =>  %c%d.%02d V  "
 2796      66202030 
 2796      2020696E 
 2796      74313642 
 2796      45202F31 
 2797 0a63 5B424154 		.ascii	"[BATT V] *\015\012\000"
 2797      5420565D 
 2797      202A0D0A 
 2797      00
 2798              		.align	2
 2799              	.LC49:
 2800 0a70 20206F66 		.ascii	"  off  2  uint8   /1     raw=%3u  =>  %u  [GPS SATS"
 2800      66202032 
 2800      20207569 
 2800      6E743820 
 2800      20202F31 
 2801 0aa3 5D202A0D 		.ascii	"] *\015\012\000"
 2801      0A00
 2802 0aa9 000000   		.align	2
 2803              	.LC50:
 2804 0aac 20206F66 		.ascii	"  off  3  uint8   /3     raw=%3u  =>  %d.%02d C  [T"
 2804      66202033 
 2804      20207569 
 2804      6E743820 
 2804      20202F33 
 2805 0adf 454D505D 		.ascii	"EMP] *\015\012\000"
 2805      202A0D0A 
 2805      00
 2806              		.align	2
 2807              	.LC51:
 2808 0ae8 20206F66 		.ascii	"  off  4  uint8   /1     raw=%3u  =>  %u%%  [CPU]\015"
 2808      66202034 
 2808      20207569 
 2808      6E743820 
 2808      20202F31 
 2809 0b1a 0A00     		.ascii	"\012\000"
 2810              		.align	2
ARM GAS  C:\Users\JENNEW~1\AppData\Local\Temp\ccHH9OS0.s 			page 65


 2811              	.LC52:
 2812 0b1c 20206F66 		.ascii	"  off  5  int16BE flags  raw=0x%04X  [STATUS FLAGS]"
 2812      66202035 
 2812      2020696E 
 2812      74313642 
 2812      4520666C 
 2813 0b4f 0D0A00   		.ascii	"\015\012\000"
 2814 0b52 0000     		.align	2
 2815              	.LC53:
 2816 0b54 20206F66 		.ascii	"  off  7  int16BE /1     raw=%6d  =>  %d s  [TIME]\015"
 2816      66202037 
 2816      2020696E 
 2816      74313642 
 2816      45202F31 
 2817 0b87 0A00     		.ascii	"\012\000"
 2818 0b89 000000   		.align	2
 2819              	.LC54:
 2820 0b8c 20206F66 		.ascii	"  off  9  int16BE /10    raw=%6d  =>  %c%d.%02d mb "
 2820      66202039 
 2820      2020696E 
 2820      74313642 
 2820      45202F31 
 2821 0bbf 205B5052 		.ascii	" [PRESSURE] *\015\012\000"
 2821      45535355 
 2821      52455D20 
 2821      2A0D0A00 
 2822 0bcf 00       		.align	2
 2823              	.LC55:
 2824 0bd0 20202D2D 		.ascii	"  -- fields below provisional (not yet iOS-verified"
 2824      20666965 
 2824      6C647320 
 2824      62656C6F 
 2824      77207072 
 2825 0c03 29202D2D 		.ascii	") --\015\012\000"
 2825      0D0A00
 2826 0c0a 0000     		.align	2
 2827              	.LC56:
 2828 0c0c 20206F66 		.ascii	"  off 11  int16BE /1     raw=%6d  [IMU RATE]\015\012"
 2828      66203131 
 2828      2020696E 
 2828      74313642 
 2828      45202F31 
 2829 0c3a 00       		.ascii	"\000"
 2830 0c3b 00       		.align	2
 2831              	.LC57:
 2832 0c3c 20206F66 		.ascii	"  off 13  int16BE flags  raw=0x%04X  [CAM STATUS]\015"
 2832      66203133 
 2832      2020696E 
 2832      74313642 
 2832      4520666C 
 2833 0c6e 0A00     		.ascii	"\012\000"
 2834              		.align	2
 2835              	.LC58:
 2836 0c70 20206F66 		.ascii	"  off 16  int16BE /1     raw=%6d  [IMU LATENCY]\015"
 2836      66203136 
 2836      2020696E 
 2836      74313642 
ARM GAS  C:\Users\JENNEW~1\AppData\Local\Temp\ccHH9OS0.s 			page 66


 2836      45202F31 
 2837 0ca0 0A00     		.ascii	"\012\000"
 2838 0ca2 0000     		.align	2
 2839              	.LC59:
 2840 0ca4 20206F66 		.ascii	"  off 18  int16BE /100   raw=%6d  =>  %c%d.%02d A  "
 2840      66203138 
 2840      2020696E 
 2840      74313642 
 2840      45202F31 
 2841 0cd7 5B424154 		.ascii	"[BATT A]\015\012\000"
 2841      5420415D 
 2841      0D0A00
 2842 0ce2 0000     		.align	2
 2843              	.LC60:
 2844 0ce4 20206F66 		.ascii	"  off 20  int16BE /1     raw=%6d  =>  %d mAh  [CHAR"
 2844      66203230 
 2844      2020696E 
 2844      74313642 
 2844      45202F31 
 2845 0d17 47452055 		.ascii	"GE USED]\015\012\000"
 2845      5345445D 
 2845      0D0A00
 2846 0d22 0000     		.align	2
 2847              	.LC61:
 2848 0d24 2020282A 		.ascii	"  (* = confirmed against iOS app)\015\012\000"
 2848      203D2063 
 2848      6F6E6669 
 2848      726D6564 
 2848      20616761 
 2849              		.section	.text.print_test_sysstat,"ax",%progbits
 2850              		.align	2
 2851              		.thumb
 2852              		.thumb_func
 2853              		.type	print_test_sysstat, %function
 2854              	print_test_sysstat:
 2855              	.LFB76:
 525:main.c        **** 
 526:main.c        **** /* --- attr 1: System status ---
 527:main.c        ****  * Big-endian, no sub-index. Fields off 0-10 confirmed; off 11+ provisional. */
 528:main.c        **** static void print_test_sysstat(const movi_status_t* st, uint32_t dt,
 529:main.c        ****                                 uint16_t rxlen, const uint8_t* p, uint8_t plen)
 530:main.c        **** {
 2856              		.loc 1 530 0
 2857              		.cfi_startproc
 2858              		@ args = 4, pretend = 0, frame = 216
 2859              		@ frame_needed = 1, uses_anonymous_args = 0
 2860 0000 B0B5     		push	{r4, r5, r7, lr}
 2861              		.cfi_def_cfa_offset 16
 2862              		.cfi_offset 4, -16
 2863              		.cfi_offset 5, -12
 2864              		.cfi_offset 7, -8
 2865              		.cfi_offset 14, -4
 2866 0002 B8B0     		sub	sp, sp, #224
 2867              		.cfi_def_cfa_offset 240
 2868 0004 02AF     		add	r7, sp, #8
 2869              		.cfi_def_cfa 7, 232
 2870 0006 F860     		str	r0, [r7, #12]
ARM GAS  C:\Users\JENNEW~1\AppData\Local\Temp\ccHH9OS0.s 			page 67


 2871 0008 B960     		str	r1, [r7, #8]
 2872 000a 3B60     		str	r3, [r7]
 2873 000c 1346     		mov	r3, r2	@ movhi
 2874 000e FB80     		strh	r3, [r7, #6]	@ movhi
 531:main.c        ****     char buf[TRANSMIT_BUFFER_SIZE];
 532:main.c        ****     (void)st;
 533:main.c        **** 
 534:main.c        ****     sprintf(buf, "\r\n[TEST][Stat] attr=1  dt=%lums  rxlen=%u  snaplen=%u\r\n",
 2875              		.loc 1 534 0
 2876 0010 FA88     		ldrh	r2, [r7, #6]
 2877 0012 97F8E830 		ldrb	r3, [r7, #232]	@ zero_extendqisi2
 2878 0016 07F11C00 		add	r0, r7, #28
 2879 001a 0093     		str	r3, [sp]
 2880 001c 1346     		mov	r3, r2
 2881 001e BA68     		ldr	r2, [r7, #8]
 2882 0020 B149     		ldr	r1, .L184
 2883 0022 FFF7FEFF 		bl	sprintf
 535:main.c        ****             (unsigned long)dt, (unsigned)rxlen, (unsigned)plen);
 536:main.c        ****     UART_1_PutString(buf);
 2884              		.loc 1 536 0
 2885 0026 07F11C03 		add	r3, r7, #28
 2886 002a 1846     		mov	r0, r3
 2887 002c FFF7FEFF 		bl	UART_1_PutString
 2888              	.LBB23:
 537:main.c        **** 
 538:main.c        ****     /* Raw hex dump */
 539:main.c        ****     {
 540:main.c        ****         uint8_t row, col;
 541:main.c        ****         for (row = 0u; row < plen; row += 8u) {
 2889              		.loc 1 541 0
 2890 0030 0023     		movs	r3, #0
 2891 0032 87F8D730 		strb	r3, [r7, #215]
 2892 0036 56E0     		b	.L150
 2893              	.L154:
 2894              	.LBB24:
 542:main.c        ****             char* bp = buf;
 2895              		.loc 1 542 0
 2896 0038 07F11C03 		add	r3, r7, #28
 2897 003c C7F8D030 		str	r3, [r7, #208]
 543:main.c        ****             bp += sprintf(bp, "  off%02u:", (unsigned)row);
 2898              		.loc 1 543 0
 2899 0040 97F8D730 		ldrb	r3, [r7, #215]	@ zero_extendqisi2
 2900 0044 1A46     		mov	r2, r3
 2901 0046 A949     		ldr	r1, .L184+4
 2902 0048 D7F8D000 		ldr	r0, [r7, #208]
 2903 004c FFF7FEFF 		bl	sprintf
 2904 0050 0346     		mov	r3, r0
 2905 0052 1A46     		mov	r2, r3
 2906 0054 D7F8D030 		ldr	r3, [r7, #208]
 2907 0058 1344     		add	r3, r3, r2
 2908 005a C7F8D030 		str	r3, [r7, #208]
 544:main.c        ****             for (col = 0u; col < 8u && (row + col) < plen; col++)
 2909              		.loc 1 544 0
 2910 005e 0023     		movs	r3, #0
 2911 0060 87F8D630 		strb	r3, [r7, #214]
 2912 0064 1AE0     		b	.L151
 2913              	.L153:
ARM GAS  C:\Users\JENNEW~1\AppData\Local\Temp\ccHH9OS0.s 			page 68


 545:main.c        ****                 bp += sprintf(bp, " %02X", (unsigned)p[row + col]);
 2914              		.loc 1 545 0 discriminator 4
 2915 0066 97F8D720 		ldrb	r2, [r7, #215]	@ zero_extendqisi2
 2916 006a 97F8D630 		ldrb	r3, [r7, #214]	@ zero_extendqisi2
 2917 006e 1344     		add	r3, r3, r2
 2918 0070 1A46     		mov	r2, r3
 2919 0072 3B68     		ldr	r3, [r7]
 2920 0074 1344     		add	r3, r3, r2
 2921 0076 1B78     		ldrb	r3, [r3]	@ zero_extendqisi2
 2922 0078 1A46     		mov	r2, r3
 2923 007a 9D49     		ldr	r1, .L184+8
 2924 007c D7F8D000 		ldr	r0, [r7, #208]
 2925 0080 FFF7FEFF 		bl	sprintf
 2926 0084 0346     		mov	r3, r0
 2927 0086 1A46     		mov	r2, r3
 2928 0088 D7F8D030 		ldr	r3, [r7, #208]
 2929 008c 1344     		add	r3, r3, r2
 2930 008e C7F8D030 		str	r3, [r7, #208]
 544:main.c        ****             for (col = 0u; col < 8u && (row + col) < plen; col++)
 2931              		.loc 1 544 0 discriminator 4
 2932 0092 97F8D630 		ldrb	r3, [r7, #214]	@ zero_extendqisi2
 2933 0096 0133     		adds	r3, r3, #1
 2934 0098 87F8D630 		strb	r3, [r7, #214]
 2935              	.L151:
 544:main.c        ****             for (col = 0u; col < 8u && (row + col) < plen; col++)
 2936              		.loc 1 544 0 is_stmt 0 discriminator 1
 2937 009c 97F8D630 		ldrb	r3, [r7, #214]	@ zero_extendqisi2
 2938 00a0 072B     		cmp	r3, #7
 2939 00a2 08D8     		bhi	.L152
 544:main.c        ****             for (col = 0u; col < 8u && (row + col) < plen; col++)
 2940              		.loc 1 544 0 discriminator 3
 2941 00a4 97F8D720 		ldrb	r2, [r7, #215]	@ zero_extendqisi2
 2942 00a8 97F8D630 		ldrb	r3, [r7, #214]	@ zero_extendqisi2
 2943 00ac 1A44     		add	r2, r2, r3
 2944 00ae 97F8E830 		ldrb	r3, [r7, #232]	@ zero_extendqisi2
 2945 00b2 9A42     		cmp	r2, r3
 2946 00b4 D7DB     		blt	.L153
 2947              	.L152:
 546:main.c        ****             bp += sprintf(bp, "\r\n");
 2948              		.loc 1 546 0 is_stmt 1 discriminator 2
 2949 00b6 D7F8D030 		ldr	r3, [r7, #208]
 2950 00ba 8E4A     		ldr	r2, .L184+12
 2951 00bc 1188     		ldrh	r1, [r2]	@ unaligned
 2952 00be 9278     		ldrb	r2, [r2, #2]
 2953 00c0 1980     		strh	r1, [r3]	@ unaligned
 2954 00c2 9A70     		strb	r2, [r3, #2]
 2955 00c4 0223     		movs	r3, #2
 2956 00c6 1A46     		mov	r2, r3
 2957 00c8 D7F8D030 		ldr	r3, [r7, #208]
 2958 00cc 1344     		add	r3, r3, r2
 2959 00ce C7F8D030 		str	r3, [r7, #208]
 547:main.c        ****             UART_1_PutString(buf);
 2960              		.loc 1 547 0 discriminator 2
 2961 00d2 07F11C03 		add	r3, r7, #28
 2962 00d6 1846     		mov	r0, r3
 2963 00d8 FFF7FEFF 		bl	UART_1_PutString
 2964              	.LBE24:
ARM GAS  C:\Users\JENNEW~1\AppData\Local\Temp\ccHH9OS0.s 			page 69


 541:main.c        ****             char* bp = buf;
 2965              		.loc 1 541 0 discriminator 2
 2966 00dc 97F8D730 		ldrb	r3, [r7, #215]
 2967 00e0 0833     		adds	r3, r3, #8
 2968 00e2 87F8D730 		strb	r3, [r7, #215]
 2969              	.L150:
 541:main.c        ****             char* bp = buf;
 2970              		.loc 1 541 0 is_stmt 0 discriminator 1
 2971 00e6 97F8D720 		ldrb	r2, [r7, #215]	@ zero_extendqisi2
 2972 00ea 97F8E830 		ldrb	r3, [r7, #232]	@ zero_extendqisi2
 2973 00ee 9A42     		cmp	r2, r3
 2974 00f0 A2D3     		bcc	.L154
 2975              	.LBE23:
 548:main.c        ****         }
 549:main.c        ****     }
 550:main.c        **** 
 551:main.c        ****     if (plen < 5u) {
 2976              		.loc 1 551 0 is_stmt 1
 2977 00f2 97F8E830 		ldrb	r3, [r7, #232]	@ zero_extendqisi2
 2978 00f6 042B     		cmp	r3, #4
 2979 00f8 0DD8     		bhi	.L155
 552:main.c        ****         sprintf(buf, "  ERROR: snapshot only %u bytes\r\n", (unsigned)plen);
 2980              		.loc 1 552 0
 2981 00fa 97F8E820 		ldrb	r2, [r7, #232]	@ zero_extendqisi2
 2982 00fe 07F11C03 		add	r3, r7, #28
 2983 0102 7D49     		ldr	r1, .L184+16
 2984 0104 1846     		mov	r0, r3
 2985 0106 FFF7FEFF 		bl	sprintf
 553:main.c        ****         UART_1_PutString(buf);
 2986              		.loc 1 553 0
 2987 010a 07F11C03 		add	r3, r7, #28
 2988 010e 1846     		mov	r0, r3
 2989 0110 FFF7FEFF 		bl	UART_1_PutString
 2990 0114 06E2     		b	.L149
 2991              	.L155:
 554:main.c        ****         return;
 555:main.c        ****     }
 556:main.c        **** 
 557:main.c        ****     char s; int16 vi, vf;
 558:main.c        **** 
 559:main.c        ****     /* --- Confirmed fields --- */
 560:main.c        ****     int16_t bv_r = SNAP16BE(p, plen, 0);
 2992              		.loc 1 560 0
 2993 0116 97F8E830 		ldrb	r3, [r7, #232]	@ zero_extendqisi2
 2994 011a 012B     		cmp	r3, #1
 2995 011c 0AD9     		bls	.L157
 2996              		.loc 1 560 0 is_stmt 0 discriminator 1
 2997 011e 3B68     		ldr	r3, [r7]
 2998 0120 1B78     		ldrb	r3, [r3]	@ zero_extendqisi2
 2999 0122 1B02     		lsls	r3, r3, #8
 3000 0124 1AB2     		sxth	r2, r3
 3001 0126 3B68     		ldr	r3, [r7]
 3002 0128 0133     		adds	r3, r3, #1
 3003 012a 1B78     		ldrb	r3, [r3]	@ zero_extendqisi2
 3004 012c 1BB2     		sxth	r3, r3
 3005 012e 1343     		orrs	r3, r3, r2
 3006 0130 1BB2     		sxth	r3, r3
ARM GAS  C:\Users\JENNEW~1\AppData\Local\Temp\ccHH9OS0.s 			page 70


 3007 0132 00E0     		b	.L158
 3008              	.L157:
 3009              		.loc 1 560 0 discriminator 2
 3010 0134 0023     		movs	r3, #0
 3011              	.L158:
 3012              		.loc 1 560 0 discriminator 4
 3013 0136 A7F8CE30 		strh	r3, [r7, #206]	@ movhi
 561:main.c        ****     decomp((float)bv_r / 100.0f, &vi, &vf, &s);
 3014              		.loc 1 561 0 is_stmt 1 discriminator 4
 3015 013a B7F9CE30 		ldrsh	r3, [r7, #206]
 3016 013e 1846     		mov	r0, r3
 3017 0140 FFF7FEFF 		bl	__aeabi_i2f
 3018 0144 0346     		mov	r3, r0
 3019 0146 6D49     		ldr	r1, .L184+20
 3020 0148 1846     		mov	r0, r3
 3021 014a FFF7FEFF 		bl	__aeabi_fdiv
 3022 014e 0346     		mov	r3, r0
 3023 0150 1846     		mov	r0, r3
 3024 0152 07F11B03 		add	r3, r7, #27
 3025 0156 07F11602 		add	r2, r7, #22
 3026 015a 07F11801 		add	r1, r7, #24
 3027 015e FFF7FEFF 		bl	decomp
 562:main.c        ****     sprintf(buf, "  off  0  int16BE /100   raw=%6d  =>  %c%d.%02d V  [BATT V] *\r\n",
 3028              		.loc 1 562 0 discriminator 4
 3029 0162 B7F9CE20 		ldrsh	r2, [r7, #206]
 3030 0166 FB7E     		ldrb	r3, [r7, #27]	@ zero_extendqisi2
 3031 0168 1C46     		mov	r4, r3
 3032 016a B7F91830 		ldrsh	r3, [r7, #24]
 3033 016e B7F91610 		ldrsh	r1, [r7, #22]
 3034 0172 07F11C00 		add	r0, r7, #28
 3035 0176 0191     		str	r1, [sp, #4]
 3036 0178 0093     		str	r3, [sp]
 3037 017a 2346     		mov	r3, r4
 3038 017c 6049     		ldr	r1, .L184+24
 3039 017e FFF7FEFF 		bl	sprintf
 563:main.c        ****             (int)bv_r, s, (int)vi, (int)vf);
 564:main.c        ****     UART_1_PutString(buf);
 3040              		.loc 1 564 0 discriminator 4
 3041 0182 07F11C03 		add	r3, r7, #28
 3042 0186 1846     		mov	r0, r3
 3043 0188 FFF7FEFF 		bl	UART_1_PutString
 565:main.c        **** 
 566:main.c        ****     sprintf(buf, "  off  2  uint8   /1     raw=%3u  =>  %u  [GPS SATS] *\r\n",
 567:main.c        ****             (unsigned)p[2], (unsigned)p[2]);
 3044              		.loc 1 567 0 discriminator 4
 3045 018c 3B68     		ldr	r3, [r7]
 3046 018e 0233     		adds	r3, r3, #2
 3047 0190 1B78     		ldrb	r3, [r3]	@ zero_extendqisi2
 566:main.c        ****             (unsigned)p[2], (unsigned)p[2]);
 3048              		.loc 1 566 0 discriminator 4
 3049 0192 1A46     		mov	r2, r3
 3050              		.loc 1 567 0 discriminator 4
 3051 0194 3B68     		ldr	r3, [r7]
 3052 0196 0233     		adds	r3, r3, #2
 3053 0198 1B78     		ldrb	r3, [r3]	@ zero_extendqisi2
 566:main.c        ****             (unsigned)p[2], (unsigned)p[2]);
 3054              		.loc 1 566 0 discriminator 4
ARM GAS  C:\Users\JENNEW~1\AppData\Local\Temp\ccHH9OS0.s 			page 71


 3055 019a 07F11C00 		add	r0, r7, #28
 3056 019e 5949     		ldr	r1, .L184+28
 3057 01a0 FFF7FEFF 		bl	sprintf
 568:main.c        ****     UART_1_PutString(buf);
 3058              		.loc 1 568 0 discriminator 4
 3059 01a4 07F11C03 		add	r3, r7, #28
 3060 01a8 1846     		mov	r0, r3
 3061 01aa FFF7FEFF 		bl	UART_1_PutString
 569:main.c        **** 
 570:main.c        ****     sprintf(buf, "  off  3  uint8   /3     raw=%3u  =>  %d.%02d C  [TEMP] *\r\n",
 571:main.c        ****             (unsigned)p[3], (int)(p[3]/3u), (int)((p[3]%3u)*33u));
 3062              		.loc 1 571 0 discriminator 4
 3063 01ae 3B68     		ldr	r3, [r7]
 3064 01b0 0333     		adds	r3, r3, #3
 3065 01b2 1B78     		ldrb	r3, [r3]	@ zero_extendqisi2
 570:main.c        ****             (unsigned)p[3], (int)(p[3]/3u), (int)((p[3]%3u)*33u));
 3066              		.loc 1 570 0 discriminator 4
 3067 01b4 1C46     		mov	r4, r3
 3068              		.loc 1 571 0 discriminator 4
 3069 01b6 3B68     		ldr	r3, [r7]
 3070 01b8 0333     		adds	r3, r3, #3
 3071 01ba 1B78     		ldrb	r3, [r3]	@ zero_extendqisi2
 570:main.c        ****             (unsigned)p[3], (int)(p[3]/3u), (int)((p[3]%3u)*33u));
 3072              		.loc 1 570 0 discriminator 4
 3073 01bc 524A     		ldr	r2, .L184+32
 3074 01be A2FB0323 		umull	r2, r3, r2, r3
 3075 01c2 5B08     		lsrs	r3, r3, #1
 3076 01c4 DBB2     		uxtb	r3, r3
 3077 01c6 1D46     		mov	r5, r3
 3078              		.loc 1 571 0 discriminator 4
 3079 01c8 3B68     		ldr	r3, [r7]
 3080 01ca 0333     		adds	r3, r3, #3
 3081 01cc 1A78     		ldrb	r2, [r3]	@ zero_extendqisi2
 3082 01ce 4E4B     		ldr	r3, .L184+32
 3083 01d0 A3FB0213 		umull	r1, r3, r3, r2
 3084 01d4 5908     		lsrs	r1, r3, #1
 3085 01d6 0B46     		mov	r3, r1
 3086 01d8 5B00     		lsls	r3, r3, #1
 3087 01da 0B44     		add	r3, r3, r1
 3088 01dc D31A     		subs	r3, r2, r3
 3089 01de DBB2     		uxtb	r3, r3
 3090 01e0 1A46     		mov	r2, r3
 3091 01e2 1346     		mov	r3, r2
 3092 01e4 5B01     		lsls	r3, r3, #5
 3093 01e6 1344     		add	r3, r3, r2
 570:main.c        ****             (unsigned)p[3], (int)(p[3]/3u), (int)((p[3]%3u)*33u));
 3094              		.loc 1 570 0 discriminator 4
 3095 01e8 07F11C00 		add	r0, r7, #28
 3096 01ec 0093     		str	r3, [sp]
 3097 01ee 2B46     		mov	r3, r5
 3098 01f0 2246     		mov	r2, r4
 3099 01f2 4649     		ldr	r1, .L184+36
 3100 01f4 FFF7FEFF 		bl	sprintf
 572:main.c        ****     UART_1_PutString(buf);
 3101              		.loc 1 572 0 discriminator 4
 3102 01f8 07F11C03 		add	r3, r7, #28
 3103 01fc 1846     		mov	r0, r3
ARM GAS  C:\Users\JENNEW~1\AppData\Local\Temp\ccHH9OS0.s 			page 72


 3104 01fe FFF7FEFF 		bl	UART_1_PutString
 573:main.c        **** 
 574:main.c        ****     if (plen >= 5u) {
 3105              		.loc 1 574 0 discriminator 4
 3106 0202 97F8E830 		ldrb	r3, [r7, #232]	@ zero_extendqisi2
 3107 0206 042B     		cmp	r3, #4
 3108 0208 10D9     		bls	.L159
 575:main.c        ****         sprintf(buf, "  off  4  uint8   /1     raw=%3u  =>  %u%%  [CPU]\r\n",
 576:main.c        ****                 (unsigned)p[4], (unsigned)p[4]);
 3109              		.loc 1 576 0
 3110 020a 3B68     		ldr	r3, [r7]
 3111 020c 0433     		adds	r3, r3, #4
 3112 020e 1B78     		ldrb	r3, [r3]	@ zero_extendqisi2
 575:main.c        ****         sprintf(buf, "  off  4  uint8   /1     raw=%3u  =>  %u%%  [CPU]\r\n",
 3113              		.loc 1 575 0
 3114 0210 1A46     		mov	r2, r3
 3115              		.loc 1 576 0
 3116 0212 3B68     		ldr	r3, [r7]
 3117 0214 0433     		adds	r3, r3, #4
 3118 0216 1B78     		ldrb	r3, [r3]	@ zero_extendqisi2
 575:main.c        ****         sprintf(buf, "  off  4  uint8   /1     raw=%3u  =>  %u%%  [CPU]\r\n",
 3119              		.loc 1 575 0
 3120 0218 07F11C00 		add	r0, r7, #28
 3121 021c 3C49     		ldr	r1, .L184+40
 3122 021e FFF7FEFF 		bl	sprintf
 577:main.c        ****         UART_1_PutString(buf);
 3123              		.loc 1 577 0
 3124 0222 07F11C03 		add	r3, r7, #28
 3125 0226 1846     		mov	r0, r3
 3126 0228 FFF7FEFF 		bl	UART_1_PutString
 3127              	.L159:
 578:main.c        ****     }
 579:main.c        ****     if (plen >= 7u) {
 3128              		.loc 1 579 0
 3129 022c 97F8E830 		ldrb	r3, [r7, #232]	@ zero_extendqisi2
 3130 0230 062B     		cmp	r3, #6
 3131 0232 20D9     		bls	.L160
 3132              	.LBB25:
 580:main.c        ****         int16_t st_r = SNAP16BE(p, plen, 5);
 3133              		.loc 1 580 0
 3134 0234 97F8E830 		ldrb	r3, [r7, #232]	@ zero_extendqisi2
 3135 0238 062B     		cmp	r3, #6
 3136 023a 0BD9     		bls	.L161
 3137              		.loc 1 580 0 is_stmt 0 discriminator 1
 3138 023c 3B68     		ldr	r3, [r7]
 3139 023e 0533     		adds	r3, r3, #5
 3140 0240 1B78     		ldrb	r3, [r3]	@ zero_extendqisi2
 3141 0242 1B02     		lsls	r3, r3, #8
 3142 0244 1AB2     		sxth	r2, r3
 3143 0246 3B68     		ldr	r3, [r7]
 3144 0248 0633     		adds	r3, r3, #6
 3145 024a 1B78     		ldrb	r3, [r3]	@ zero_extendqisi2
 3146 024c 1BB2     		sxth	r3, r3
 3147 024e 1343     		orrs	r3, r3, r2
 3148 0250 1BB2     		sxth	r3, r3
 3149 0252 00E0     		b	.L162
 3150              	.L161:
ARM GAS  C:\Users\JENNEW~1\AppData\Local\Temp\ccHH9OS0.s 			page 73


 3151              		.loc 1 580 0 discriminator 2
 3152 0254 0023     		movs	r3, #0
 3153              	.L162:
 3154              		.loc 1 580 0 discriminator 4
 3155 0256 A7F8CC30 		strh	r3, [r7, #204]	@ movhi
 581:main.c        ****         sprintf(buf, "  off  5  int16BE flags  raw=0x%04X  [STATUS FLAGS]\r\n",
 582:main.c        ****                 (unsigned)(uint16_t)st_r);
 3156              		.loc 1 582 0 is_stmt 1 discriminator 4
 3157 025a B7F8CC30 		ldrh	r3, [r7, #204]
 581:main.c        ****         sprintf(buf, "  off  5  int16BE flags  raw=0x%04X  [STATUS FLAGS]\r\n",
 3158              		.loc 1 581 0 discriminator 4
 3159 025e 1A46     		mov	r2, r3
 3160 0260 07F11C03 		add	r3, r7, #28
 3161 0264 2B49     		ldr	r1, .L184+44
 3162 0266 1846     		mov	r0, r3
 3163 0268 FFF7FEFF 		bl	sprintf
 583:main.c        ****         UART_1_PutString(buf);
 3164              		.loc 1 583 0 discriminator 4
 3165 026c 07F11C03 		add	r3, r7, #28
 3166 0270 1846     		mov	r0, r3
 3167 0272 FFF7FEFF 		bl	UART_1_PutString
 3168              	.L160:
 3169              	.LBE25:
 584:main.c        ****     }
 585:main.c        ****     if (plen >= 9u) {
 3170              		.loc 1 585 0
 3171 0276 97F8E830 		ldrb	r3, [r7, #232]	@ zero_extendqisi2
 3172 027a 082B     		cmp	r3, #8
 3173 027c 20D9     		bls	.L163
 3174              	.LBB26:
 586:main.c        ****         int16_t time_r = SNAP16BE(p, plen, 7);
 3175              		.loc 1 586 0
 3176 027e 97F8E830 		ldrb	r3, [r7, #232]	@ zero_extendqisi2
 3177 0282 082B     		cmp	r3, #8
 3178 0284 0BD9     		bls	.L164
 3179              		.loc 1 586 0 is_stmt 0 discriminator 1
 3180 0286 3B68     		ldr	r3, [r7]
 3181 0288 0733     		adds	r3, r3, #7
 3182 028a 1B78     		ldrb	r3, [r3]	@ zero_extendqisi2
 3183 028c 1B02     		lsls	r3, r3, #8
 3184 028e 1AB2     		sxth	r2, r3
 3185 0290 3B68     		ldr	r3, [r7]
 3186 0292 0833     		adds	r3, r3, #8
 3187 0294 1B78     		ldrb	r3, [r3]	@ zero_extendqisi2
 3188 0296 1BB2     		sxth	r3, r3
 3189 0298 1343     		orrs	r3, r3, r2
 3190 029a 1BB2     		sxth	r3, r3
 3191 029c 00E0     		b	.L165
 3192              	.L164:
 3193              		.loc 1 586 0 discriminator 2
 3194 029e 0023     		movs	r3, #0
 3195              	.L165:
 3196              		.loc 1 586 0 discriminator 4
 3197 02a0 A7F8CA30 		strh	r3, [r7, #202]	@ movhi
 587:main.c        ****         sprintf(buf, "  off  7  int16BE /1     raw=%6d  =>  %d s  [TIME]\r\n",
 3198              		.loc 1 587 0 is_stmt 1 discriminator 4
 3199 02a4 B7F9CA20 		ldrsh	r2, [r7, #202]
ARM GAS  C:\Users\JENNEW~1\AppData\Local\Temp\ccHH9OS0.s 			page 74


 3200 02a8 B7F9CA30 		ldrsh	r3, [r7, #202]
 3201 02ac 07F11C00 		add	r0, r7, #28
 3202 02b0 1949     		ldr	r1, .L184+48
 3203 02b2 FFF7FEFF 		bl	sprintf
 588:main.c        ****                 (int)time_r, (int)time_r);
 589:main.c        ****         UART_1_PutString(buf);
 3204              		.loc 1 589 0 discriminator 4
 3205 02b6 07F11C03 		add	r3, r7, #28
 3206 02ba 1846     		mov	r0, r3
 3207 02bc FFF7FEFF 		bl	UART_1_PutString
 3208              	.L163:
 3209              	.LBE26:
 590:main.c        ****     }
 591:main.c        ****     if (plen >= 11u) {
 3210              		.loc 1 591 0
 3211 02c0 97F8E830 		ldrb	r3, [r7, #232]	@ zero_extendqisi2
 3212 02c4 0A2B     		cmp	r3, #10
 3213 02c6 55D9     		bls	.L166
 3214              	.LBB27:
 592:main.c        ****         int16_t pres_r = SNAP16BE(p, plen, 9);
 3215              		.loc 1 592 0
 3216 02c8 97F8E830 		ldrb	r3, [r7, #232]	@ zero_extendqisi2
 3217 02cc 0A2B     		cmp	r3, #10
 3218 02ce 25D9     		bls	.L167
 3219              		.loc 1 592 0 is_stmt 0 discriminator 1
 3220 02d0 3B68     		ldr	r3, [r7]
 3221 02d2 0933     		adds	r3, r3, #9
 3222 02d4 1B78     		ldrb	r3, [r3]	@ zero_extendqisi2
 3223 02d6 1B02     		lsls	r3, r3, #8
 3224 02d8 1AB2     		sxth	r2, r3
 3225 02da 3B68     		ldr	r3, [r7]
 3226 02dc 0A33     		adds	r3, r3, #10
 3227 02de 1B78     		ldrb	r3, [r3]	@ zero_extendqisi2
 3228 02e0 1BB2     		sxth	r3, r3
 3229 02e2 1343     		orrs	r3, r3, r2
 3230 02e4 1BB2     		sxth	r3, r3
 3231 02e6 1AE0     		b	.L168
 3232              	.L185:
 3233              		.align	2
 3234              	.L184:
 3235 02e8 F8090000 		.word	.LC47
 3236 02ec B4010000 		.word	.LC11
 3237 02f0 C0010000 		.word	.LC12
 3238 02f4 C8010000 		.word	.LC13
 3239 02f8 C0070000 		.word	.LC38
 3240 02fc 0000C842 		.word	1120403456
 3241 0300 300A0000 		.word	.LC48
 3242 0304 700A0000 		.word	.LC49
 3243 0308 ABAAAAAA 		.word	-1431655765
 3244 030c AC0A0000 		.word	.LC50
 3245 0310 E80A0000 		.word	.LC51
 3246 0314 1C0B0000 		.word	.LC52
 3247 0318 540B0000 		.word	.LC53
 3248              	.L167:
 3249              		.loc 1 592 0 discriminator 2
 3250 031c 0023     		movs	r3, #0
 3251              	.L168:
ARM GAS  C:\Users\JENNEW~1\AppData\Local\Temp\ccHH9OS0.s 			page 75


 3252              		.loc 1 592 0 discriminator 4
 3253 031e A7F8C830 		strh	r3, [r7, #200]	@ movhi
 593:main.c        ****         decomp((float)pres_r / 10.0f, &vi, &vf, &s);
 3254              		.loc 1 593 0 is_stmt 1 discriminator 4
 3255 0322 B7F9C830 		ldrsh	r3, [r7, #200]
 3256 0326 1846     		mov	r0, r3
 3257 0328 FFF7FEFF 		bl	__aeabi_i2f
 3258 032c 0346     		mov	r3, r0
 3259 032e 7F49     		ldr	r1, .L186
 3260 0330 1846     		mov	r0, r3
 3261 0332 FFF7FEFF 		bl	__aeabi_fdiv
 3262 0336 0346     		mov	r3, r0
 3263 0338 1846     		mov	r0, r3
 3264 033a 07F11B03 		add	r3, r7, #27
 3265 033e 07F11602 		add	r2, r7, #22
 3266 0342 07F11801 		add	r1, r7, #24
 3267 0346 FFF7FEFF 		bl	decomp
 594:main.c        ****         sprintf(buf, "  off  9  int16BE /10    raw=%6d  =>  %c%d.%02d mb  [PRESSURE] *\r\n",
 3268              		.loc 1 594 0 discriminator 4
 3269 034a B7F9C820 		ldrsh	r2, [r7, #200]
 3270 034e FB7E     		ldrb	r3, [r7, #27]	@ zero_extendqisi2
 3271 0350 1C46     		mov	r4, r3
 3272 0352 B7F91830 		ldrsh	r3, [r7, #24]
 3273 0356 B7F91610 		ldrsh	r1, [r7, #22]
 3274 035a 07F11C00 		add	r0, r7, #28
 3275 035e 0191     		str	r1, [sp, #4]
 3276 0360 0093     		str	r3, [sp]
 3277 0362 2346     		mov	r3, r4
 3278 0364 7249     		ldr	r1, .L186+4
 3279 0366 FFF7FEFF 		bl	sprintf
 595:main.c        ****                 (int)pres_r, s, (int)vi, (int)vf);
 596:main.c        ****         UART_1_PutString(buf);
 3280              		.loc 1 596 0 discriminator 4
 3281 036a 07F11C03 		add	r3, r7, #28
 3282 036e 1846     		mov	r0, r3
 3283 0370 FFF7FEFF 		bl	UART_1_PutString
 3284              	.L166:
 3285              	.LBE27:
 597:main.c        ****     }
 598:main.c        **** 
 599:main.c        ****     UART_1_PutString("  -- fields below provisional (not yet iOS-verified) --\r\n");
 3286              		.loc 1 599 0
 3287 0374 6F48     		ldr	r0, .L186+8
 3288 0376 FFF7FEFF 		bl	UART_1_PutString
 600:main.c        **** 
 601:main.c        ****     if (plen >= 13u) {
 3289              		.loc 1 601 0
 3290 037a 97F8E830 		ldrb	r3, [r7, #232]	@ zero_extendqisi2
 3291 037e 0C2B     		cmp	r3, #12
 3292 0380 1FD9     		bls	.L169
 3293              	.LBB28:
 602:main.c        ****         int16_t imu_r = SNAP16BE(p, plen, 11);
 3294              		.loc 1 602 0
 3295 0382 97F8E830 		ldrb	r3, [r7, #232]	@ zero_extendqisi2
 3296 0386 0C2B     		cmp	r3, #12
 3297 0388 0BD9     		bls	.L170
 3298              		.loc 1 602 0 is_stmt 0 discriminator 1
ARM GAS  C:\Users\JENNEW~1\AppData\Local\Temp\ccHH9OS0.s 			page 76


 3299 038a 3B68     		ldr	r3, [r7]
 3300 038c 0B33     		adds	r3, r3, #11
 3301 038e 1B78     		ldrb	r3, [r3]	@ zero_extendqisi2
 3302 0390 1B02     		lsls	r3, r3, #8
 3303 0392 1AB2     		sxth	r2, r3
 3304 0394 3B68     		ldr	r3, [r7]
 3305 0396 0C33     		adds	r3, r3, #12
 3306 0398 1B78     		ldrb	r3, [r3]	@ zero_extendqisi2
 3307 039a 1BB2     		sxth	r3, r3
 3308 039c 1343     		orrs	r3, r3, r2
 3309 039e 1BB2     		sxth	r3, r3
 3310 03a0 00E0     		b	.L171
 3311              	.L170:
 3312              		.loc 1 602 0 discriminator 2
 3313 03a2 0023     		movs	r3, #0
 3314              	.L171:
 3315              		.loc 1 602 0 discriminator 4
 3316 03a4 A7F8C630 		strh	r3, [r7, #198]	@ movhi
 603:main.c        ****         sprintf(buf, "  off 11  int16BE /1     raw=%6d  [IMU RATE]\r\n", (int)imu_r);
 3317              		.loc 1 603 0 is_stmt 1 discriminator 4
 3318 03a8 B7F9C620 		ldrsh	r2, [r7, #198]
 3319 03ac 07F11C03 		add	r3, r7, #28
 3320 03b0 6149     		ldr	r1, .L186+12
 3321 03b2 1846     		mov	r0, r3
 3322 03b4 FFF7FEFF 		bl	sprintf
 604:main.c        ****         UART_1_PutString(buf);
 3323              		.loc 1 604 0 discriminator 4
 3324 03b8 07F11C03 		add	r3, r7, #28
 3325 03bc 1846     		mov	r0, r3
 3326 03be FFF7FEFF 		bl	UART_1_PutString
 3327              	.L169:
 3328              	.LBE28:
 605:main.c        ****     }
 606:main.c        ****     if (plen >= 15u) {
 3329              		.loc 1 606 0
 3330 03c2 97F8E830 		ldrb	r3, [r7, #232]	@ zero_extendqisi2
 3331 03c6 0E2B     		cmp	r3, #14
 3332 03c8 20D9     		bls	.L172
 3333              	.LBB29:
 607:main.c        ****         int16_t cam_r = SNAP16BE(p, plen, 13);
 3334              		.loc 1 607 0
 3335 03ca 97F8E830 		ldrb	r3, [r7, #232]	@ zero_extendqisi2
 3336 03ce 0E2B     		cmp	r3, #14
 3337 03d0 0BD9     		bls	.L173
 3338              		.loc 1 607 0 is_stmt 0 discriminator 1
 3339 03d2 3B68     		ldr	r3, [r7]
 3340 03d4 0D33     		adds	r3, r3, #13
 3341 03d6 1B78     		ldrb	r3, [r3]	@ zero_extendqisi2
 3342 03d8 1B02     		lsls	r3, r3, #8
 3343 03da 1AB2     		sxth	r2, r3
 3344 03dc 3B68     		ldr	r3, [r7]
 3345 03de 0E33     		adds	r3, r3, #14
 3346 03e0 1B78     		ldrb	r3, [r3]	@ zero_extendqisi2
 3347 03e2 1BB2     		sxth	r3, r3
 3348 03e4 1343     		orrs	r3, r3, r2
 3349 03e6 1BB2     		sxth	r3, r3
 3350 03e8 00E0     		b	.L174
ARM GAS  C:\Users\JENNEW~1\AppData\Local\Temp\ccHH9OS0.s 			page 77


 3351              	.L173:
 3352              		.loc 1 607 0 discriminator 2
 3353 03ea 0023     		movs	r3, #0
 3354              	.L174:
 3355              		.loc 1 607 0 discriminator 4
 3356 03ec A7F8C430 		strh	r3, [r7, #196]	@ movhi
 608:main.c        ****         sprintf(buf, "  off 13  int16BE flags  raw=0x%04X  [CAM STATUS]\r\n",
 609:main.c        ****                 (unsigned)(uint16_t)cam_r);
 3357              		.loc 1 609 0 is_stmt 1 discriminator 4
 3358 03f0 B7F8C430 		ldrh	r3, [r7, #196]
 608:main.c        ****         sprintf(buf, "  off 13  int16BE flags  raw=0x%04X  [CAM STATUS]\r\n",
 3359              		.loc 1 608 0 discriminator 4
 3360 03f4 1A46     		mov	r2, r3
 3361 03f6 07F11C03 		add	r3, r7, #28
 3362 03fa 5049     		ldr	r1, .L186+16
 3363 03fc 1846     		mov	r0, r3
 3364 03fe FFF7FEFF 		bl	sprintf
 610:main.c        ****         UART_1_PutString(buf);
 3365              		.loc 1 610 0 discriminator 4
 3366 0402 07F11C03 		add	r3, r7, #28
 3367 0406 1846     		mov	r0, r3
 3368 0408 FFF7FEFF 		bl	UART_1_PutString
 3369              	.L172:
 3370              	.LBE29:
 611:main.c        ****     }
 612:main.c        ****     if (plen >= 18u) {
 3371              		.loc 1 612 0
 3372 040c 97F8E830 		ldrb	r3, [r7, #232]	@ zero_extendqisi2
 3373 0410 112B     		cmp	r3, #17
 3374 0412 1FD9     		bls	.L175
 3375              	.LBB30:
 613:main.c        ****         int16_t lat_r = SNAP16BE(p, plen, 16);
 3376              		.loc 1 613 0
 3377 0414 97F8E830 		ldrb	r3, [r7, #232]	@ zero_extendqisi2
 3378 0418 112B     		cmp	r3, #17
 3379 041a 0BD9     		bls	.L176
 3380              		.loc 1 613 0 is_stmt 0 discriminator 1
 3381 041c 3B68     		ldr	r3, [r7]
 3382 041e 1033     		adds	r3, r3, #16
 3383 0420 1B78     		ldrb	r3, [r3]	@ zero_extendqisi2
 3384 0422 1B02     		lsls	r3, r3, #8
 3385 0424 1AB2     		sxth	r2, r3
 3386 0426 3B68     		ldr	r3, [r7]
 3387 0428 1133     		adds	r3, r3, #17
 3388 042a 1B78     		ldrb	r3, [r3]	@ zero_extendqisi2
 3389 042c 1BB2     		sxth	r3, r3
 3390 042e 1343     		orrs	r3, r3, r2
 3391 0430 1BB2     		sxth	r3, r3
 3392 0432 00E0     		b	.L177
 3393              	.L176:
 3394              		.loc 1 613 0 discriminator 2
 3395 0434 0023     		movs	r3, #0
 3396              	.L177:
 3397              		.loc 1 613 0 discriminator 4
 3398 0436 A7F8C230 		strh	r3, [r7, #194]	@ movhi
 614:main.c        ****         sprintf(buf, "  off 16  int16BE /1     raw=%6d  [IMU LATENCY]\r\n", (int)lat_r);
 3399              		.loc 1 614 0 is_stmt 1 discriminator 4
ARM GAS  C:\Users\JENNEW~1\AppData\Local\Temp\ccHH9OS0.s 			page 78


 3400 043a B7F9C220 		ldrsh	r2, [r7, #194]
 3401 043e 07F11C03 		add	r3, r7, #28
 3402 0442 3F49     		ldr	r1, .L186+20
 3403 0444 1846     		mov	r0, r3
 3404 0446 FFF7FEFF 		bl	sprintf
 615:main.c        ****         UART_1_PutString(buf);
 3405              		.loc 1 615 0 discriminator 4
 3406 044a 07F11C03 		add	r3, r7, #28
 3407 044e 1846     		mov	r0, r3
 3408 0450 FFF7FEFF 		bl	UART_1_PutString
 3409              	.L175:
 3410              	.LBE30:
 616:main.c        ****     }
 617:main.c        ****     if (plen >= 20u) {
 3411              		.loc 1 617 0
 3412 0454 97F8E830 		ldrb	r3, [r7, #232]	@ zero_extendqisi2
 3413 0458 132B     		cmp	r3, #19
 3414 045a 3BD9     		bls	.L178
 3415              	.LBB31:
 618:main.c        ****         int16_t ba_r = SNAP16BE(p, plen, 18);
 3416              		.loc 1 618 0
 3417 045c 97F8E830 		ldrb	r3, [r7, #232]	@ zero_extendqisi2
 3418 0460 132B     		cmp	r3, #19
 3419 0462 0BD9     		bls	.L179
 3420              		.loc 1 618 0 is_stmt 0 discriminator 1
 3421 0464 3B68     		ldr	r3, [r7]
 3422 0466 1233     		adds	r3, r3, #18
 3423 0468 1B78     		ldrb	r3, [r3]	@ zero_extendqisi2
 3424 046a 1B02     		lsls	r3, r3, #8
 3425 046c 1AB2     		sxth	r2, r3
 3426 046e 3B68     		ldr	r3, [r7]
 3427 0470 1333     		adds	r3, r3, #19
 3428 0472 1B78     		ldrb	r3, [r3]	@ zero_extendqisi2
 3429 0474 1BB2     		sxth	r3, r3
 3430 0476 1343     		orrs	r3, r3, r2
 3431 0478 1BB2     		sxth	r3, r3
 3432 047a 00E0     		b	.L180
 3433              	.L179:
 3434              		.loc 1 618 0 discriminator 2
 3435 047c 0023     		movs	r3, #0
 3436              	.L180:
 3437              		.loc 1 618 0 discriminator 4
 3438 047e A7F8C030 		strh	r3, [r7, #192]	@ movhi
 619:main.c        ****         decomp((float)ba_r / 100.0f, &vi, &vf, &s);
 3439              		.loc 1 619 0 is_stmt 1 discriminator 4
 3440 0482 B7F9C030 		ldrsh	r3, [r7, #192]
 3441 0486 1846     		mov	r0, r3
 3442 0488 FFF7FEFF 		bl	__aeabi_i2f
 3443 048c 0346     		mov	r3, r0
 3444 048e 2D49     		ldr	r1, .L186+24
 3445 0490 1846     		mov	r0, r3
 3446 0492 FFF7FEFF 		bl	__aeabi_fdiv
 3447 0496 0346     		mov	r3, r0
 3448 0498 1846     		mov	r0, r3
 3449 049a 07F11B03 		add	r3, r7, #27
 3450 049e 07F11602 		add	r2, r7, #22
 3451 04a2 07F11801 		add	r1, r7, #24
ARM GAS  C:\Users\JENNEW~1\AppData\Local\Temp\ccHH9OS0.s 			page 79


 3452 04a6 FFF7FEFF 		bl	decomp
 620:main.c        ****         sprintf(buf, "  off 18  int16BE /100   raw=%6d  =>  %c%d.%02d A  [BATT A]\r\n",
 3453              		.loc 1 620 0 discriminator 4
 3454 04aa B7F9C020 		ldrsh	r2, [r7, #192]
 3455 04ae FB7E     		ldrb	r3, [r7, #27]	@ zero_extendqisi2
 3456 04b0 1C46     		mov	r4, r3
 3457 04b2 B7F91830 		ldrsh	r3, [r7, #24]
 3458 04b6 B7F91610 		ldrsh	r1, [r7, #22]
 3459 04ba 07F11C00 		add	r0, r7, #28
 3460 04be 0191     		str	r1, [sp, #4]
 3461 04c0 0093     		str	r3, [sp]
 3462 04c2 2346     		mov	r3, r4
 3463 04c4 2049     		ldr	r1, .L186+28
 3464 04c6 FFF7FEFF 		bl	sprintf
 621:main.c        ****                 (int)ba_r, s, (int)vi, (int)vf);
 622:main.c        ****         UART_1_PutString(buf);
 3465              		.loc 1 622 0 discriminator 4
 3466 04ca 07F11C03 		add	r3, r7, #28
 3467 04ce 1846     		mov	r0, r3
 3468 04d0 FFF7FEFF 		bl	UART_1_PutString
 3469              	.L178:
 3470              	.LBE31:
 623:main.c        ****     }
 624:main.c        ****     if (plen >= 22u) {
 3471              		.loc 1 624 0
 3472 04d4 97F8E830 		ldrb	r3, [r7, #232]	@ zero_extendqisi2
 3473 04d8 152B     		cmp	r3, #21
 3474 04da 20D9     		bls	.L181
 3475              	.LBB32:
 625:main.c        ****         int16_t chg_r = SNAP16BE(p, plen, 20);
 3476              		.loc 1 625 0
 3477 04dc 97F8E830 		ldrb	r3, [r7, #232]	@ zero_extendqisi2
 3478 04e0 152B     		cmp	r3, #21
 3479 04e2 0BD9     		bls	.L182
 3480              		.loc 1 625 0 is_stmt 0 discriminator 1
 3481 04e4 3B68     		ldr	r3, [r7]
 3482 04e6 1433     		adds	r3, r3, #20
 3483 04e8 1B78     		ldrb	r3, [r3]	@ zero_extendqisi2
 3484 04ea 1B02     		lsls	r3, r3, #8
 3485 04ec 1AB2     		sxth	r2, r3
 3486 04ee 3B68     		ldr	r3, [r7]
 3487 04f0 1533     		adds	r3, r3, #21
 3488 04f2 1B78     		ldrb	r3, [r3]	@ zero_extendqisi2
 3489 04f4 1BB2     		sxth	r3, r3
 3490 04f6 1343     		orrs	r3, r3, r2
 3491 04f8 1BB2     		sxth	r3, r3
 3492 04fa 00E0     		b	.L183
 3493              	.L182:
 3494              		.loc 1 625 0 discriminator 2
 3495 04fc 0023     		movs	r3, #0
 3496              	.L183:
 3497              		.loc 1 625 0 discriminator 4
 3498 04fe A7F8BE30 		strh	r3, [r7, #190]	@ movhi
 626:main.c        ****         sprintf(buf, "  off 20  int16BE /1     raw=%6d  =>  %d mAh  [CHARGE USED]\r\n",
 3499              		.loc 1 626 0 is_stmt 1 discriminator 4
 3500 0502 B7F9BE20 		ldrsh	r2, [r7, #190]
 3501 0506 B7F9BE30 		ldrsh	r3, [r7, #190]
ARM GAS  C:\Users\JENNEW~1\AppData\Local\Temp\ccHH9OS0.s 			page 80


 3502 050a 07F11C00 		add	r0, r7, #28
 3503 050e 0F49     		ldr	r1, .L186+32
 3504 0510 FFF7FEFF 		bl	sprintf
 627:main.c        ****                 (int)chg_r, (int)chg_r);
 628:main.c        ****         UART_1_PutString(buf);
 3505              		.loc 1 628 0 discriminator 4
 3506 0514 07F11C03 		add	r3, r7, #28
 3507 0518 1846     		mov	r0, r3
 3508 051a FFF7FEFF 		bl	UART_1_PutString
 3509              	.L181:
 3510              	.LBE32:
 629:main.c        ****     }
 630:main.c        ****     UART_1_PutString("  (* = confirmed against iOS app)\r\n");
 3511              		.loc 1 630 0
 3512 051e 0C48     		ldr	r0, .L186+36
 3513 0520 FFF7FEFF 		bl	UART_1_PutString
 3514              	.L149:
 631:main.c        **** }
 3515              		.loc 1 631 0
 3516 0524 D837     		adds	r7, r7, #216
 3517              		.cfi_def_cfa_offset 16
 3518 0526 BD46     		mov	sp, r7
 3519              		.cfi_def_cfa_register 13
 3520              		@ sp needed
 3521 0528 B0BD     		pop	{r4, r5, r7, pc}
 3522              	.L187:
 3523 052a 00BF     		.align	2
 3524              	.L186:
 3525 052c 00002041 		.word	1092616192
 3526 0530 8C0B0000 		.word	.LC54
 3527 0534 D00B0000 		.word	.LC55
 3528 0538 0C0C0000 		.word	.LC56
 3529 053c 3C0C0000 		.word	.LC57
 3530 0540 700C0000 		.word	.LC58
 3531 0544 0000C842 		.word	1120403456
 3532 0548 A40C0000 		.word	.LC59
 3533 054c E40C0000 		.word	.LC60
 3534 0550 240D0000 		.word	.LC61
 3535              		.cfi_endproc
 3536              	.LFE76:
 3537              		.size	print_test_sysstat, .-print_test_sysstat
 3538              		.section	.rodata
 3539              		.align	2
 3540              	.LC62:
 3541 0d48 0D0A5B54 		.ascii	"\015\012[TEST][Mag] attr=12  dt=%lums  rxlen=%u  sn"
 3541      4553545D 
 3541      5B4D6167 
 3541      5D206174 
 3541      74723D31 
 3542 0d75 61706C65 		.ascii	"aplen=%u\015\012\000"
 3542      6E3D2575 
 3542      0D0A00
 3543              		.align	2
 3544              	.LC63:
 3545 0d80 20206F66 		.ascii	"  off  1  int16  /1000  raw=%6d  =>  %c%d.%02d  [MA"
 3545      66202031 
 3545      2020696E 
ARM GAS  C:\Users\JENNEW~1\AppData\Local\Temp\ccHH9OS0.s 			page 81


 3545      74313620 
 3545      202F3130 
 3546 0db3 4720585D 		.ascii	"G X]\015\012\000"
 3546      0D0A00
 3547 0dba 0000     		.align	2
 3548              	.LC64:
 3549 0dbc 20206F66 		.ascii	"  off  3  int16  /1000  raw=%6d  =>  %c%d.%02d  [MA"
 3549      66202033 
 3549      2020696E 
 3549      74313620 
 3549      202F3130 
 3550 0def 4720595D 		.ascii	"G Y]\015\012\000"
 3550      0D0A00
 3551 0df6 0000     		.align	2
 3552              	.LC65:
 3553 0df8 20206F66 		.ascii	"  off  5  int16  /1000  raw=%6d  =>  %c%d.%02d  [MA"
 3553      66202035 
 3553      2020696E 
 3553      74313620 
 3553      202F3130 
 3554 0e2b 47205A5D 		.ascii	"G Z]\015\012\000"
 3554      0D0A00
 3555 0e32 0000     		.align	2
 3556              	.LC66:
 3557 0e34 20206F66 		.ascii	"  off  7  int16  /100   raw=%6d  =>  %c%d.%02d  [MA"
 3557      66202037 
 3557      2020696E 
 3557      74313620 
 3557      202F3130 
 3558 0e67 474E4954 		.ascii	"GNITUDE]\015\012\000"
 3558      5544455D 
 3558      0D0A00
 3559 0e72 0000     		.align	2
 3560              	.LC67:
 3561 0e74 20206F66 		.ascii	"  off  9  int16  /100   raw=%6d  =>  %c%d.%02d Hz  "
 3561      66202039 
 3561      2020696E 
 3561      74313620 
 3561      202F3130 
 3562 0ea7 5B465245 		.ascii	"[FREQ]\015\012\000"
 3562      515D0D0A 
 3562      00
 3563              		.align	2
 3564              	.LC68:
 3565 0eb0 20206F66 		.ascii	"  off 11  int16  /1000  raw=%6d  =>  %c%d.%02d  [OF"
 3565      66203131 
 3565      2020696E 
 3565      74313620 
 3565      202F3130 
 3566 0ee3 4620585D 		.ascii	"F X]\015\012\000"
 3566      0D0A00
 3567 0eea 0000     		.align	2
 3568              	.LC69:
 3569 0eec 20206F66 		.ascii	"  off 13  int16  /1000  raw=%6d  =>  %c%d.%02d  [OF"
 3569      66203133 
 3569      2020696E 
 3569      74313620 
ARM GAS  C:\Users\JENNEW~1\AppData\Local\Temp\ccHH9OS0.s 			page 82


 3569      202F3130 
 3570 0f1f 4620595D 		.ascii	"F Y]\015\012\000"
 3570      0D0A00
 3571 0f26 0000     		.align	2
 3572              	.LC70:
 3573 0f28 20206F66 		.ascii	"  off 15  int16  /1000  raw=%6d  =>  %c%d.%02d  [OF"
 3573      66203135 
 3573      2020696E 
 3573      74313620 
 3573      202F3130 
 3574 0f5b 46205A5D 		.ascii	"F Z]\015\012\000"
 3574      0D0A00
 3575 0f62 0000     		.align	2
 3576              	.LC71:
 3577 0f64 20206F66 		.ascii	"  off 17  int16  /10    raw=%6d  =>  %c%d.%02d deg "
 3577      66203137 
 3577      2020696E 
 3577      74313620 
 3577      202F3130 
 3578 0f97 205B4445 		.ascii	" [DECLINATION]\015\012\000"
 3578      434C494E 
 3578      4154494F 
 3578      4E5D0D0A 
 3578      00
 3579              		.section	.text.print_test_mag,"ax",%progbits
 3580              		.align	2
 3581              		.thumb
 3582              		.thumb_func
 3583              		.type	print_test_mag, %function
 3584              	print_test_mag:
 3585              	.LFB77:
 632:main.c        **** 
 633:main.c        **** /* --- attr 12: Magnetometer --- */
 634:main.c        **** static void print_test_mag(const movi_status_t* st, uint32_t dt,
 635:main.c        ****                             uint16_t rxlen, const uint8_t* p, uint8_t plen)
 636:main.c        **** {
 3586              		.loc 1 636 0
 3587              		.cfi_startproc
 3588              		@ args = 4, pretend = 0, frame = 224
 3589              		@ frame_needed = 1, uses_anonymous_args = 0
 3590 0000 90B5     		push	{r4, r7, lr}
 3591              		.cfi_def_cfa_offset 12
 3592              		.cfi_offset 4, -12
 3593              		.cfi_offset 7, -8
 3594              		.cfi_offset 14, -4
 3595 0002 BBB0     		sub	sp, sp, #236
 3596              		.cfi_def_cfa_offset 248
 3597 0004 02AF     		add	r7, sp, #8
 3598              		.cfi_def_cfa 7, 240
 3599 0006 F860     		str	r0, [r7, #12]
 3600 0008 B960     		str	r1, [r7, #8]
 3601 000a 3B60     		str	r3, [r7]
 3602 000c 1346     		mov	r3, r2	@ movhi
 3603 000e FB80     		strh	r3, [r7, #6]	@ movhi
 637:main.c        ****     char buf[TRANSMIT_BUFFER_SIZE];
 638:main.c        ****     (void)st;
 639:main.c        **** 
ARM GAS  C:\Users\JENNEW~1\AppData\Local\Temp\ccHH9OS0.s 			page 83


 640:main.c        ****     sprintf(buf, "\r\n[TEST][Mag] attr=12  dt=%lums  rxlen=%u  snaplen=%u\r\n",
 3604              		.loc 1 640 0
 3605 0010 FA88     		ldrh	r2, [r7, #6]
 3606 0012 97F8F030 		ldrb	r3, [r7, #240]	@ zero_extendqisi2
 3607 0016 07F12C00 		add	r0, r7, #44
 3608 001a 0093     		str	r3, [sp]
 3609 001c 1346     		mov	r3, r2
 3610 001e BA68     		ldr	r2, [r7, #8]
 3611 0020 C249     		ldr	r1, .L212
 3612 0022 FFF7FEFF 		bl	sprintf
 641:main.c        ****             (unsigned long)dt, (unsigned)rxlen, (unsigned)plen);
 642:main.c        ****     UART_1_PutString(buf);
 3613              		.loc 1 642 0
 3614 0026 07F12C03 		add	r3, r7, #44
 3615 002a 1846     		mov	r0, r3
 3616 002c FFF7FEFF 		bl	UART_1_PutString
 643:main.c        **** 
 644:main.c        ****     if (plen < 6u) {
 3617              		.loc 1 644 0
 3618 0030 97F8F030 		ldrb	r3, [r7, #240]	@ zero_extendqisi2
 3619 0034 052B     		cmp	r3, #5
 3620 0036 0DD8     		bhi	.L189
 645:main.c        ****         sprintf(buf, "  ERROR: snapshot only %u bytes\r\n", (unsigned)plen);
 3621              		.loc 1 645 0
 3622 0038 97F8F020 		ldrb	r2, [r7, #240]	@ zero_extendqisi2
 3623 003c 07F12C03 		add	r3, r7, #44
 3624 0040 BB49     		ldr	r1, .L212+4
 3625 0042 1846     		mov	r0, r3
 3626 0044 FFF7FEFF 		bl	sprintf
 646:main.c        ****         UART_1_PutString(buf);
 3627              		.loc 1 646 0
 3628 0048 07F12C03 		add	r3, r7, #44
 3629 004c 1846     		mov	r0, r3
 3630 004e FFF7FEFF 		bl	UART_1_PutString
 3631 0052 3FE2     		b	.L188
 3632              	.L189:
 647:main.c        ****         return;
 648:main.c        ****     }
 649:main.c        **** 
 650:main.c        ****     char s; int16 vi, vf;
 651:main.c        **** 
 652:main.c        ****     int16_t x_r  = SNAP16(p, plen,  1);
 3633              		.loc 1 652 0
 3634 0054 97F8F030 		ldrb	r3, [r7, #240]	@ zero_extendqisi2
 3635 0058 022B     		cmp	r3, #2
 3636 005a 0AD9     		bls	.L191
 3637              	.LBB33:
 3638              		.loc 1 652 0 is_stmt 0 discriminator 1
 3639 005c 3B68     		ldr	r3, [r7]
 3640 005e 591C     		adds	r1, r3, #1
 3641 0060 07F12403 		add	r3, r7, #36
 3642 0064 0222     		movs	r2, #2
 3643 0066 1846     		mov	r0, r3
 3644 0068 FFF7FEFF 		bl	memcpy
 3645 006c B7F92430 		ldrsh	r3, [r7, #36]
 3646              	.LBE33:
 3647 0070 00E0     		b	.L192
ARM GAS  C:\Users\JENNEW~1\AppData\Local\Temp\ccHH9OS0.s 			page 84


 3648              	.L191:
 3649              		.loc 1 652 0 discriminator 2
 3650 0072 0023     		movs	r3, #0
 3651              	.L192:
 3652              		.loc 1 652 0 discriminator 4
 3653 0074 A7F8DE30 		strh	r3, [r7, #222]	@ movhi
 653:main.c        ****     int16_t y_r  = SNAP16(p, plen,  3);
 3654              		.loc 1 653 0 is_stmt 1 discriminator 4
 3655 0078 97F8F030 		ldrb	r3, [r7, #240]	@ zero_extendqisi2
 3656 007c 042B     		cmp	r3, #4
 3657 007e 0AD9     		bls	.L193
 3658              	.LBB34:
 3659              		.loc 1 653 0 is_stmt 0 discriminator 1
 3660 0080 3B68     		ldr	r3, [r7]
 3661 0082 D91C     		adds	r1, r3, #3
 3662 0084 07F12203 		add	r3, r7, #34
 3663 0088 0222     		movs	r2, #2
 3664 008a 1846     		mov	r0, r3
 3665 008c FFF7FEFF 		bl	memcpy
 3666 0090 B7F92230 		ldrsh	r3, [r7, #34]
 3667              	.LBE34:
 3668 0094 00E0     		b	.L194
 3669              	.L193:
 3670              		.loc 1 653 0 discriminator 2
 3671 0096 0023     		movs	r3, #0
 3672              	.L194:
 3673              		.loc 1 653 0 discriminator 4
 3674 0098 A7F8DC30 		strh	r3, [r7, #220]	@ movhi
 654:main.c        ****     int16_t z_r  = SNAP16(p, plen,  5);
 3675              		.loc 1 654 0 is_stmt 1 discriminator 4
 3676 009c 97F8F030 		ldrb	r3, [r7, #240]	@ zero_extendqisi2
 3677 00a0 062B     		cmp	r3, #6
 3678 00a2 0AD9     		bls	.L195
 3679              	.LBB35:
 3680              		.loc 1 654 0 is_stmt 0 discriminator 1
 3681 00a4 3B68     		ldr	r3, [r7]
 3682 00a6 591D     		adds	r1, r3, #5
 3683 00a8 07F12003 		add	r3, r7, #32
 3684 00ac 0222     		movs	r2, #2
 3685 00ae 1846     		mov	r0, r3
 3686 00b0 FFF7FEFF 		bl	memcpy
 3687 00b4 B7F92030 		ldrsh	r3, [r7, #32]
 3688              	.LBE35:
 3689 00b8 00E0     		b	.L196
 3690              	.L195:
 3691              		.loc 1 654 0 discriminator 2
 3692 00ba 0023     		movs	r3, #0
 3693              	.L196:
 3694              		.loc 1 654 0 discriminator 4
 3695 00bc A7F8DA30 		strh	r3, [r7, #218]	@ movhi
 655:main.c        **** 
 656:main.c        ****     decomp((float)x_r / 1000.0f, &vi, &vf, &s);
 3696              		.loc 1 656 0 is_stmt 1 discriminator 4
 3697 00c0 B7F9DE30 		ldrsh	r3, [r7, #222]
 3698 00c4 1846     		mov	r0, r3
 3699 00c6 FFF7FEFF 		bl	__aeabi_i2f
 3700 00ca 0346     		mov	r3, r0
ARM GAS  C:\Users\JENNEW~1\AppData\Local\Temp\ccHH9OS0.s 			page 85


 3701 00cc 9949     		ldr	r1, .L212+8
 3702 00ce 1846     		mov	r0, r3
 3703 00d0 FFF7FEFF 		bl	__aeabi_fdiv
 3704 00d4 0346     		mov	r3, r0
 3705 00d6 1846     		mov	r0, r3
 3706 00d8 07F12B03 		add	r3, r7, #43
 3707 00dc 07F12602 		add	r2, r7, #38
 3708 00e0 07F12801 		add	r1, r7, #40
 3709 00e4 FFF7FEFF 		bl	decomp
 657:main.c        ****     sprintf(buf, "  off  1  int16  /1000  raw=%6d  =>  %c%d.%02d  [MAG X]\r\n",
 3710              		.loc 1 657 0 discriminator 4
 3711 00e8 B7F9DE20 		ldrsh	r2, [r7, #222]
 3712 00ec 97F82B30 		ldrb	r3, [r7, #43]	@ zero_extendqisi2
 3713 00f0 1C46     		mov	r4, r3
 3714 00f2 B7F92830 		ldrsh	r3, [r7, #40]
 3715 00f6 B7F92610 		ldrsh	r1, [r7, #38]
 3716 00fa 07F12C00 		add	r0, r7, #44
 3717 00fe 0191     		str	r1, [sp, #4]
 3718 0100 0093     		str	r3, [sp]
 3719 0102 2346     		mov	r3, r4
 3720 0104 8C49     		ldr	r1, .L212+12
 3721 0106 FFF7FEFF 		bl	sprintf
 658:main.c        ****             (int)x_r, s, (int)vi, (int)vf);
 659:main.c        ****     UART_1_PutString(buf);
 3722              		.loc 1 659 0 discriminator 4
 3723 010a 07F12C03 		add	r3, r7, #44
 3724 010e 1846     		mov	r0, r3
 3725 0110 FFF7FEFF 		bl	UART_1_PutString
 660:main.c        **** 
 661:main.c        ****     decomp((float)y_r / 1000.0f, &vi, &vf, &s);
 3726              		.loc 1 661 0 discriminator 4
 3727 0114 B7F9DC30 		ldrsh	r3, [r7, #220]
 3728 0118 1846     		mov	r0, r3
 3729 011a FFF7FEFF 		bl	__aeabi_i2f
 3730 011e 0346     		mov	r3, r0
 3731 0120 8449     		ldr	r1, .L212+8
 3732 0122 1846     		mov	r0, r3
 3733 0124 FFF7FEFF 		bl	__aeabi_fdiv
 3734 0128 0346     		mov	r3, r0
 3735 012a 1846     		mov	r0, r3
 3736 012c 07F12B03 		add	r3, r7, #43
 3737 0130 07F12602 		add	r2, r7, #38
 3738 0134 07F12801 		add	r1, r7, #40
 3739 0138 FFF7FEFF 		bl	decomp
 662:main.c        ****     sprintf(buf, "  off  3  int16  /1000  raw=%6d  =>  %c%d.%02d  [MAG Y]\r\n",
 3740              		.loc 1 662 0 discriminator 4
 3741 013c B7F9DC20 		ldrsh	r2, [r7, #220]
 3742 0140 97F82B30 		ldrb	r3, [r7, #43]	@ zero_extendqisi2
 3743 0144 1C46     		mov	r4, r3
 3744 0146 B7F92830 		ldrsh	r3, [r7, #40]
 3745 014a B7F92610 		ldrsh	r1, [r7, #38]
 3746 014e 07F12C00 		add	r0, r7, #44
 3747 0152 0191     		str	r1, [sp, #4]
 3748 0154 0093     		str	r3, [sp]
 3749 0156 2346     		mov	r3, r4
 3750 0158 7849     		ldr	r1, .L212+16
 3751 015a FFF7FEFF 		bl	sprintf
ARM GAS  C:\Users\JENNEW~1\AppData\Local\Temp\ccHH9OS0.s 			page 86


 663:main.c        ****             (int)y_r, s, (int)vi, (int)vf);
 664:main.c        ****     UART_1_PutString(buf);
 3752              		.loc 1 664 0 discriminator 4
 3753 015e 07F12C03 		add	r3, r7, #44
 3754 0162 1846     		mov	r0, r3
 3755 0164 FFF7FEFF 		bl	UART_1_PutString
 665:main.c        **** 
 666:main.c        ****     decomp((float)z_r / 1000.0f, &vi, &vf, &s);
 3756              		.loc 1 666 0 discriminator 4
 3757 0168 B7F9DA30 		ldrsh	r3, [r7, #218]
 3758 016c 1846     		mov	r0, r3
 3759 016e FFF7FEFF 		bl	__aeabi_i2f
 3760 0172 0346     		mov	r3, r0
 3761 0174 6F49     		ldr	r1, .L212+8
 3762 0176 1846     		mov	r0, r3
 3763 0178 FFF7FEFF 		bl	__aeabi_fdiv
 3764 017c 0346     		mov	r3, r0
 3765 017e 1846     		mov	r0, r3
 3766 0180 07F12B03 		add	r3, r7, #43
 3767 0184 07F12602 		add	r2, r7, #38
 3768 0188 07F12801 		add	r1, r7, #40
 3769 018c FFF7FEFF 		bl	decomp
 667:main.c        ****     sprintf(buf, "  off  5  int16  /1000  raw=%6d  =>  %c%d.%02d  [MAG Z]\r\n",
 3770              		.loc 1 667 0 discriminator 4
 3771 0190 B7F9DA20 		ldrsh	r2, [r7, #218]
 3772 0194 97F82B30 		ldrb	r3, [r7, #43]	@ zero_extendqisi2
 3773 0198 1C46     		mov	r4, r3
 3774 019a B7F92830 		ldrsh	r3, [r7, #40]
 3775 019e B7F92610 		ldrsh	r1, [r7, #38]
 3776 01a2 07F12C00 		add	r0, r7, #44
 3777 01a6 0191     		str	r1, [sp, #4]
 3778 01a8 0093     		str	r3, [sp]
 3779 01aa 2346     		mov	r3, r4
 3780 01ac 6449     		ldr	r1, .L212+20
 3781 01ae FFF7FEFF 		bl	sprintf
 668:main.c        ****             (int)z_r, s, (int)vi, (int)vf);
 669:main.c        ****     UART_1_PutString(buf);
 3782              		.loc 1 669 0 discriminator 4
 3783 01b2 07F12C03 		add	r3, r7, #44
 3784 01b6 1846     		mov	r0, r3
 3785 01b8 FFF7FEFF 		bl	UART_1_PutString
 670:main.c        **** 
 671:main.c        ****     if (plen >= 11u) {
 3786              		.loc 1 671 0 discriminator 4
 3787 01bc 97F8F030 		ldrb	r3, [r7, #240]	@ zero_extendqisi2
 3788 01c0 0A2B     		cmp	r3, #10
 3789 01c2 78D9     		bls	.L197
 3790              	.LBB36:
 672:main.c        ****         int16_t mag_r  = SNAP16(p, plen,  7);
 3791              		.loc 1 672 0
 3792 01c4 97F8F030 		ldrb	r3, [r7, #240]	@ zero_extendqisi2
 3793 01c8 082B     		cmp	r3, #8
 3794 01ca 0AD9     		bls	.L198
 3795              	.LBB37:
 3796              		.loc 1 672 0 is_stmt 0 discriminator 1
 3797 01cc 3B68     		ldr	r3, [r7]
 3798 01ce D91D     		adds	r1, r3, #7
ARM GAS  C:\Users\JENNEW~1\AppData\Local\Temp\ccHH9OS0.s 			page 87


 3799 01d0 07F11E03 		add	r3, r7, #30
 3800 01d4 0222     		movs	r2, #2
 3801 01d6 1846     		mov	r0, r3
 3802 01d8 FFF7FEFF 		bl	memcpy
 3803 01dc B7F91E30 		ldrsh	r3, [r7, #30]
 3804              	.LBE37:
 3805 01e0 00E0     		b	.L199
 3806              	.L198:
 3807              		.loc 1 672 0 discriminator 2
 3808 01e2 0023     		movs	r3, #0
 3809              	.L199:
 3810              		.loc 1 672 0 discriminator 4
 3811 01e4 A7F8D830 		strh	r3, [r7, #216]	@ movhi
 673:main.c        ****         int16_t freq_r = SNAP16(p, plen,  9);
 3812              		.loc 1 673 0 is_stmt 1 discriminator 4
 3813 01e8 97F8F030 		ldrb	r3, [r7, #240]	@ zero_extendqisi2
 3814 01ec 0A2B     		cmp	r3, #10
 3815 01ee 0BD9     		bls	.L200
 3816              	.LBB38:
 3817              		.loc 1 673 0 is_stmt 0 discriminator 1
 3818 01f0 3B68     		ldr	r3, [r7]
 3819 01f2 03F10901 		add	r1, r3, #9
 3820 01f6 07F11C03 		add	r3, r7, #28
 3821 01fa 0222     		movs	r2, #2
 3822 01fc 1846     		mov	r0, r3
 3823 01fe FFF7FEFF 		bl	memcpy
 3824 0202 B7F91C30 		ldrsh	r3, [r7, #28]
 3825              	.LBE38:
 3826 0206 00E0     		b	.L201
 3827              	.L200:
 3828              		.loc 1 673 0 discriminator 2
 3829 0208 0023     		movs	r3, #0
 3830              	.L201:
 3831              		.loc 1 673 0 discriminator 4
 3832 020a A7F8D630 		strh	r3, [r7, #214]	@ movhi
 674:main.c        ****         decomp((float)mag_r  / 100.0f, &vi, &vf, &s);
 3833              		.loc 1 674 0 is_stmt 1 discriminator 4
 3834 020e B7F9D830 		ldrsh	r3, [r7, #216]
 3835 0212 1846     		mov	r0, r3
 3836 0214 FFF7FEFF 		bl	__aeabi_i2f
 3837 0218 0346     		mov	r3, r0
 3838 021a 4A49     		ldr	r1, .L212+24
 3839 021c 1846     		mov	r0, r3
 3840 021e FFF7FEFF 		bl	__aeabi_fdiv
 3841 0222 0346     		mov	r3, r0
 3842 0224 1846     		mov	r0, r3
 3843 0226 07F12B03 		add	r3, r7, #43
 3844 022a 07F12602 		add	r2, r7, #38
 3845 022e 07F12801 		add	r1, r7, #40
 3846 0232 FFF7FEFF 		bl	decomp
 675:main.c        ****         sprintf(buf, "  off  7  int16  /100   raw=%6d  =>  %c%d.%02d  [MAGNITUDE]\r\n",
 3847              		.loc 1 675 0 discriminator 4
 3848 0236 B7F9D820 		ldrsh	r2, [r7, #216]
 3849 023a 97F82B30 		ldrb	r3, [r7, #43]	@ zero_extendqisi2
 3850 023e 1C46     		mov	r4, r3
 3851 0240 B7F92830 		ldrsh	r3, [r7, #40]
 3852 0244 B7F92610 		ldrsh	r1, [r7, #38]
ARM GAS  C:\Users\JENNEW~1\AppData\Local\Temp\ccHH9OS0.s 			page 88


 3853 0248 07F12C00 		add	r0, r7, #44
 3854 024c 0191     		str	r1, [sp, #4]
 3855 024e 0093     		str	r3, [sp]
 3856 0250 2346     		mov	r3, r4
 3857 0252 3D49     		ldr	r1, .L212+28
 3858 0254 FFF7FEFF 		bl	sprintf
 676:main.c        ****                 (int)mag_r, s, (int)vi, (int)vf);
 677:main.c        ****         UART_1_PutString(buf);
 3859              		.loc 1 677 0 discriminator 4
 3860 0258 07F12C03 		add	r3, r7, #44
 3861 025c 1846     		mov	r0, r3
 3862 025e FFF7FEFF 		bl	UART_1_PutString
 678:main.c        ****         decomp((float)freq_r / 100.0f, &vi, &vf, &s);
 3863              		.loc 1 678 0 discriminator 4
 3864 0262 B7F9D630 		ldrsh	r3, [r7, #214]
 3865 0266 1846     		mov	r0, r3
 3866 0268 FFF7FEFF 		bl	__aeabi_i2f
 3867 026c 0346     		mov	r3, r0
 3868 026e 3549     		ldr	r1, .L212+24
 3869 0270 1846     		mov	r0, r3
 3870 0272 FFF7FEFF 		bl	__aeabi_fdiv
 3871 0276 0346     		mov	r3, r0
 3872 0278 1846     		mov	r0, r3
 3873 027a 07F12B03 		add	r3, r7, #43
 3874 027e 07F12602 		add	r2, r7, #38
 3875 0282 07F12801 		add	r1, r7, #40
 3876 0286 FFF7FEFF 		bl	decomp
 679:main.c        ****         sprintf(buf, "  off  9  int16  /100   raw=%6d  =>  %c%d.%02d Hz  [FREQ]\r\n",
 3877              		.loc 1 679 0 discriminator 4
 3878 028a B7F9D620 		ldrsh	r2, [r7, #214]
 3879 028e 97F82B30 		ldrb	r3, [r7, #43]	@ zero_extendqisi2
 3880 0292 1C46     		mov	r4, r3
 3881 0294 B7F92830 		ldrsh	r3, [r7, #40]
 3882 0298 B7F92610 		ldrsh	r1, [r7, #38]
 3883 029c 07F12C00 		add	r0, r7, #44
 3884 02a0 0191     		str	r1, [sp, #4]
 3885 02a2 0093     		str	r3, [sp]
 3886 02a4 2346     		mov	r3, r4
 3887 02a6 2949     		ldr	r1, .L212+32
 3888 02a8 FFF7FEFF 		bl	sprintf
 680:main.c        ****                 (int)freq_r, s, (int)vi, (int)vf);
 681:main.c        ****         UART_1_PutString(buf);
 3889              		.loc 1 681 0 discriminator 4
 3890 02ac 07F12C03 		add	r3, r7, #44
 3891 02b0 1846     		mov	r0, r3
 3892 02b2 FFF7FEFF 		bl	UART_1_PutString
 3893              	.L197:
 3894              	.LBE36:
 682:main.c        ****     }
 683:main.c        ****     if (plen >= 17u) {
 3895              		.loc 1 683 0
 3896 02b6 97F8F030 		ldrb	r3, [r7, #240]	@ zero_extendqisi2
 3897 02ba 102B     		cmp	r3, #16
 3898 02bc 40F2C980 		bls	.L202
 3899              	.LBB39:
 684:main.c        ****         int16_t ox_r = SNAP16(p, plen, 11);
 3900              		.loc 1 684 0
ARM GAS  C:\Users\JENNEW~1\AppData\Local\Temp\ccHH9OS0.s 			page 89


 3901 02c0 97F8F030 		ldrb	r3, [r7, #240]	@ zero_extendqisi2
 3902 02c4 0C2B     		cmp	r3, #12
 3903 02c6 0BD9     		bls	.L203
 3904              	.LBB40:
 3905              		.loc 1 684 0 is_stmt 0 discriminator 1
 3906 02c8 3B68     		ldr	r3, [r7]
 3907 02ca 03F10B01 		add	r1, r3, #11
 3908 02ce 07F11A03 		add	r3, r7, #26
 3909 02d2 0222     		movs	r2, #2
 3910 02d4 1846     		mov	r0, r3
 3911 02d6 FFF7FEFF 		bl	memcpy
 3912 02da B7F91A30 		ldrsh	r3, [r7, #26]
 3913              	.LBE40:
 3914 02de 00E0     		b	.L204
 3915              	.L203:
 3916              		.loc 1 684 0 discriminator 2
 3917 02e0 0023     		movs	r3, #0
 3918              	.L204:
 3919              		.loc 1 684 0 discriminator 4
 3920 02e2 A7F8D430 		strh	r3, [r7, #212]	@ movhi
 685:main.c        ****         int16_t oy_r = SNAP16(p, plen, 13);
 3921              		.loc 1 685 0 is_stmt 1 discriminator 4
 3922 02e6 97F8F030 		ldrb	r3, [r7, #240]	@ zero_extendqisi2
 3923 02ea 0E2B     		cmp	r3, #14
 3924 02ec 0BD9     		bls	.L205
 3925              	.LBB41:
 3926              		.loc 1 685 0 is_stmt 0 discriminator 1
 3927 02ee 3B68     		ldr	r3, [r7]
 3928 02f0 03F10D01 		add	r1, r3, #13
 3929 02f4 07F11803 		add	r3, r7, #24
 3930 02f8 0222     		movs	r2, #2
 3931 02fa 1846     		mov	r0, r3
 3932 02fc FFF7FEFF 		bl	memcpy
 3933 0300 B7F91830 		ldrsh	r3, [r7, #24]
 3934              	.LBE41:
 3935 0304 00E0     		b	.L206
 3936              	.L205:
 3937              		.loc 1 685 0 discriminator 2
 3938 0306 0023     		movs	r3, #0
 3939              	.L206:
 3940              		.loc 1 685 0 discriminator 4
 3941 0308 A7F8D230 		strh	r3, [r7, #210]	@ movhi
 686:main.c        ****         int16_t oz_r = SNAP16(p, plen, 15);
 3942              		.loc 1 686 0 is_stmt 1 discriminator 4
 3943 030c 97F8F030 		ldrb	r3, [r7, #240]	@ zero_extendqisi2
 3944 0310 102B     		cmp	r3, #16
 3945 0312 1DD9     		bls	.L207
 3946              	.LBB42:
 3947              		.loc 1 686 0 is_stmt 0 discriminator 1
 3948 0314 3B68     		ldr	r3, [r7]
 3949 0316 03F10F01 		add	r1, r3, #15
 3950 031a 07F11603 		add	r3, r7, #22
 3951 031e 0222     		movs	r2, #2
 3952 0320 1846     		mov	r0, r3
 3953 0322 FFF7FEFF 		bl	memcpy
 3954 0326 B7F91630 		ldrsh	r3, [r7, #22]
 3955              	.LBE42:
ARM GAS  C:\Users\JENNEW~1\AppData\Local\Temp\ccHH9OS0.s 			page 90


 3956 032a 12E0     		b	.L208
 3957              	.L213:
 3958              		.align	2
 3959              	.L212:
 3960 032c 480D0000 		.word	.LC62
 3961 0330 C0070000 		.word	.LC38
 3962 0334 00007A44 		.word	1148846080
 3963 0338 800D0000 		.word	.LC63
 3964 033c BC0D0000 		.word	.LC64
 3965 0340 F80D0000 		.word	.LC65
 3966 0344 0000C842 		.word	1120403456
 3967 0348 340E0000 		.word	.LC66
 3968 034c 740E0000 		.word	.LC67
 3969              	.L207:
 3970              		.loc 1 686 0 discriminator 2
 3971 0350 0023     		movs	r3, #0
 3972              	.L208:
 3973              		.loc 1 686 0 discriminator 4
 3974 0352 A7F8D030 		strh	r3, [r7, #208]	@ movhi
 687:main.c        ****         decomp((float)ox_r / 1000.0f, &vi, &vf, &s);
 3975              		.loc 1 687 0 is_stmt 1 discriminator 4
 3976 0356 B7F9D430 		ldrsh	r3, [r7, #212]
 3977 035a 1846     		mov	r0, r3
 3978 035c FFF7FEFF 		bl	__aeabi_i2f
 3979 0360 0346     		mov	r3, r0
 3980 0362 5E49     		ldr	r1, .L214
 3981 0364 1846     		mov	r0, r3
 3982 0366 FFF7FEFF 		bl	__aeabi_fdiv
 3983 036a 0346     		mov	r3, r0
 3984 036c 1846     		mov	r0, r3
 3985 036e 07F12B03 		add	r3, r7, #43
 3986 0372 07F12602 		add	r2, r7, #38
 3987 0376 07F12801 		add	r1, r7, #40
 3988 037a FFF7FEFF 		bl	decomp
 688:main.c        ****         sprintf(buf, "  off 11  int16  /1000  raw=%6d  =>  %c%d.%02d  [OFF X]\r\n",
 3989              		.loc 1 688 0 discriminator 4
 3990 037e B7F9D420 		ldrsh	r2, [r7, #212]
 3991 0382 97F82B30 		ldrb	r3, [r7, #43]	@ zero_extendqisi2
 3992 0386 1C46     		mov	r4, r3
 3993 0388 B7F92830 		ldrsh	r3, [r7, #40]
 3994 038c B7F92610 		ldrsh	r1, [r7, #38]
 3995 0390 07F12C00 		add	r0, r7, #44
 3996 0394 0191     		str	r1, [sp, #4]
 3997 0396 0093     		str	r3, [sp]
 3998 0398 2346     		mov	r3, r4
 3999 039a 5149     		ldr	r1, .L214+4
 4000 039c FFF7FEFF 		bl	sprintf
 689:main.c        ****                 (int)ox_r, s, (int)vi, (int)vf);
 690:main.c        ****         UART_1_PutString(buf);
 4001              		.loc 1 690 0 discriminator 4
 4002 03a0 07F12C03 		add	r3, r7, #44
 4003 03a4 1846     		mov	r0, r3
 4004 03a6 FFF7FEFF 		bl	UART_1_PutString
 691:main.c        ****         decomp((float)oy_r / 1000.0f, &vi, &vf, &s);
 4005              		.loc 1 691 0 discriminator 4
 4006 03aa B7F9D230 		ldrsh	r3, [r7, #210]
 4007 03ae 1846     		mov	r0, r3
ARM GAS  C:\Users\JENNEW~1\AppData\Local\Temp\ccHH9OS0.s 			page 91


 4008 03b0 FFF7FEFF 		bl	__aeabi_i2f
 4009 03b4 0346     		mov	r3, r0
 4010 03b6 4949     		ldr	r1, .L214
 4011 03b8 1846     		mov	r0, r3
 4012 03ba FFF7FEFF 		bl	__aeabi_fdiv
 4013 03be 0346     		mov	r3, r0
 4014 03c0 1846     		mov	r0, r3
 4015 03c2 07F12B03 		add	r3, r7, #43
 4016 03c6 07F12602 		add	r2, r7, #38
 4017 03ca 07F12801 		add	r1, r7, #40
 4018 03ce FFF7FEFF 		bl	decomp
 692:main.c        ****         sprintf(buf, "  off 13  int16  /1000  raw=%6d  =>  %c%d.%02d  [OFF Y]\r\n",
 4019              		.loc 1 692 0 discriminator 4
 4020 03d2 B7F9D220 		ldrsh	r2, [r7, #210]
 4021 03d6 97F82B30 		ldrb	r3, [r7, #43]	@ zero_extendqisi2
 4022 03da 1C46     		mov	r4, r3
 4023 03dc B7F92830 		ldrsh	r3, [r7, #40]
 4024 03e0 B7F92610 		ldrsh	r1, [r7, #38]
 4025 03e4 07F12C00 		add	r0, r7, #44
 4026 03e8 0191     		str	r1, [sp, #4]
 4027 03ea 0093     		str	r3, [sp]
 4028 03ec 2346     		mov	r3, r4
 4029 03ee 3D49     		ldr	r1, .L214+8
 4030 03f0 FFF7FEFF 		bl	sprintf
 693:main.c        ****                 (int)oy_r, s, (int)vi, (int)vf);
 694:main.c        ****         UART_1_PutString(buf);
 4031              		.loc 1 694 0 discriminator 4
 4032 03f4 07F12C03 		add	r3, r7, #44
 4033 03f8 1846     		mov	r0, r3
 4034 03fa FFF7FEFF 		bl	UART_1_PutString
 695:main.c        ****         decomp((float)oz_r / 1000.0f, &vi, &vf, &s);
 4035              		.loc 1 695 0 discriminator 4
 4036 03fe B7F9D030 		ldrsh	r3, [r7, #208]
 4037 0402 1846     		mov	r0, r3
 4038 0404 FFF7FEFF 		bl	__aeabi_i2f
 4039 0408 0346     		mov	r3, r0
 4040 040a 3449     		ldr	r1, .L214
 4041 040c 1846     		mov	r0, r3
 4042 040e FFF7FEFF 		bl	__aeabi_fdiv
 4043 0412 0346     		mov	r3, r0
 4044 0414 1846     		mov	r0, r3
 4045 0416 07F12B03 		add	r3, r7, #43
 4046 041a 07F12602 		add	r2, r7, #38
 4047 041e 07F12801 		add	r1, r7, #40
 4048 0422 FFF7FEFF 		bl	decomp
 696:main.c        ****         sprintf(buf, "  off 15  int16  /1000  raw=%6d  =>  %c%d.%02d  [OFF Z]\r\n",
 4049              		.loc 1 696 0 discriminator 4
 4050 0426 B7F9D020 		ldrsh	r2, [r7, #208]
 4051 042a 97F82B30 		ldrb	r3, [r7, #43]	@ zero_extendqisi2
 4052 042e 1C46     		mov	r4, r3
 4053 0430 B7F92830 		ldrsh	r3, [r7, #40]
 4054 0434 B7F92610 		ldrsh	r1, [r7, #38]
 4055 0438 07F12C00 		add	r0, r7, #44
 4056 043c 0191     		str	r1, [sp, #4]
 4057 043e 0093     		str	r3, [sp]
 4058 0440 2346     		mov	r3, r4
 4059 0442 2949     		ldr	r1, .L214+12
ARM GAS  C:\Users\JENNEW~1\AppData\Local\Temp\ccHH9OS0.s 			page 92


 4060 0444 FFF7FEFF 		bl	sprintf
 697:main.c        ****                 (int)oz_r, s, (int)vi, (int)vf);
 698:main.c        ****         UART_1_PutString(buf);
 4061              		.loc 1 698 0 discriminator 4
 4062 0448 07F12C03 		add	r3, r7, #44
 4063 044c 1846     		mov	r0, r3
 4064 044e FFF7FEFF 		bl	UART_1_PutString
 4065              	.L202:
 4066              	.LBE39:
 699:main.c        ****     }
 700:main.c        ****     if (plen >= 19u) {
 4067              		.loc 1 700 0
 4068 0452 97F8F030 		ldrb	r3, [r7, #240]	@ zero_extendqisi2
 4069 0456 122B     		cmp	r3, #18
 4070 0458 3CD9     		bls	.L188
 4071              	.LBB43:
 701:main.c        ****         int16_t decl_r = SNAP16(p, plen, 17);
 4072              		.loc 1 701 0
 4073 045a 97F8F030 		ldrb	r3, [r7, #240]	@ zero_extendqisi2
 4074 045e 122B     		cmp	r3, #18
 4075 0460 0BD9     		bls	.L210
 4076              	.LBB44:
 4077              		.loc 1 701 0 is_stmt 0 discriminator 1
 4078 0462 3B68     		ldr	r3, [r7]
 4079 0464 03F11101 		add	r1, r3, #17
 4080 0468 07F11403 		add	r3, r7, #20
 4081 046c 0222     		movs	r2, #2
 4082 046e 1846     		mov	r0, r3
 4083 0470 FFF7FEFF 		bl	memcpy
 4084 0474 B7F91430 		ldrsh	r3, [r7, #20]
 4085              	.LBE44:
 4086 0478 00E0     		b	.L211
 4087              	.L210:
 4088              		.loc 1 701 0 discriminator 2
 4089 047a 0023     		movs	r3, #0
 4090              	.L211:
 4091              		.loc 1 701 0 discriminator 4
 4092 047c A7F8CE30 		strh	r3, [r7, #206]	@ movhi
 702:main.c        ****         decomp((float)decl_r / 10.0f, &vi, &vf, &s);
 4093              		.loc 1 702 0 is_stmt 1 discriminator 4
 4094 0480 B7F9CE30 		ldrsh	r3, [r7, #206]
 4095 0484 1846     		mov	r0, r3
 4096 0486 FFF7FEFF 		bl	__aeabi_i2f
 4097 048a 0346     		mov	r3, r0
 4098 048c 1749     		ldr	r1, .L214+16
 4099 048e 1846     		mov	r0, r3
 4100 0490 FFF7FEFF 		bl	__aeabi_fdiv
 4101 0494 0346     		mov	r3, r0
 4102 0496 1846     		mov	r0, r3
 4103 0498 07F12B03 		add	r3, r7, #43
 4104 049c 07F12602 		add	r2, r7, #38
 4105 04a0 07F12801 		add	r1, r7, #40
 4106 04a4 FFF7FEFF 		bl	decomp
 703:main.c        ****         sprintf(buf, "  off 17  int16  /10    raw=%6d  =>  %c%d.%02d deg  [DECLINATION]\r\n",
 4107              		.loc 1 703 0 discriminator 4
 4108 04a8 B7F9CE20 		ldrsh	r2, [r7, #206]
 4109 04ac 97F82B30 		ldrb	r3, [r7, #43]	@ zero_extendqisi2
ARM GAS  C:\Users\JENNEW~1\AppData\Local\Temp\ccHH9OS0.s 			page 93


 4110 04b0 1C46     		mov	r4, r3
 4111 04b2 B7F92830 		ldrsh	r3, [r7, #40]
 4112 04b6 B7F92610 		ldrsh	r1, [r7, #38]
 4113 04ba 07F12C00 		add	r0, r7, #44
 4114 04be 0191     		str	r1, [sp, #4]
 4115 04c0 0093     		str	r3, [sp]
 4116 04c2 2346     		mov	r3, r4
 4117 04c4 0A49     		ldr	r1, .L214+20
 4118 04c6 FFF7FEFF 		bl	sprintf
 704:main.c        ****                 (int)decl_r, s, (int)vi, (int)vf);
 705:main.c        ****         UART_1_PutString(buf);
 4119              		.loc 1 705 0 discriminator 4
 4120 04ca 07F12C03 		add	r3, r7, #44
 4121 04ce 1846     		mov	r0, r3
 4122 04d0 FFF7FEFF 		bl	UART_1_PutString
 4123              	.L188:
 4124              	.LBE43:
 706:main.c        ****     }
 707:main.c        **** }
 4125              		.loc 1 707 0
 4126 04d4 E437     		adds	r7, r7, #228
 4127              		.cfi_def_cfa_offset 12
 4128 04d6 BD46     		mov	sp, r7
 4129              		.cfi_def_cfa_register 13
 4130              		@ sp needed
 4131 04d8 90BD     		pop	{r4, r7, pc}
 4132              	.L215:
 4133 04da 00BF     		.align	2
 4134              	.L214:
 4135 04dc 00007A44 		.word	1148846080
 4136 04e0 B00E0000 		.word	.LC68
 4137 04e4 EC0E0000 		.word	.LC69
 4138 04e8 280F0000 		.word	.LC70
 4139 04ec 00002041 		.word	1092616192
 4140 04f0 640F0000 		.word	.LC71
 4141              		.cfi_endproc
 4142              	.LFE77:
 4143              		.size	print_test_mag, .-print_test_mag
 4144              		.section	.rodata
 4145              		.align	2
 4146              	.LC72:
 4147 0fa8 5B544553 		.ascii	"[TEST] attr=%u responded -- no printer defined\015\012"
 4147      545D2061 
 4147      7474723D 
 4147      25752072 
 4147      6573706F 
 4148 0fd8 00       		.ascii	"\000"
 4149              		.section	.text.print_test_response,"ax",%progbits
 4150              		.align	2
 4151              		.thumb
 4152              		.thumb_func
 4153              		.type	print_test_response, %function
 4154              	print_test_response:
 4155              	.LFB78:
 708:main.c        **** 
 709:main.c        **** /* Dispatcher: called from main loop when test_response_ready is set.
 710:main.c        ****  * Passes the snapshotted payload bytes directly to each printer so
ARM GAS  C:\Users\JENNEW~1\AppData\Local\Temp\ccHH9OS0.s 			page 94


 711:main.c        ****  * they read from the frozen copy, not from RxMsg (which may already
 712:main.c        ****  * have been overwritten by the next attr 287 push).                  */
 713:main.c        **** static void print_test_response(movi_comm_t* m, uint32_t dt)
 714:main.c        **** {
 4156              		.loc 1 714 0
 4157              		.cfi_startproc
 4158              		@ args = 0, pretend = 0, frame = 304
 4159              		@ frame_needed = 1, uses_anonymous_args = 0
 4160 0000 80B5     		push	{r7, lr}
 4161              		.cfi_def_cfa_offset 8
 4162              		.cfi_offset 7, -8
 4163              		.cfi_offset 14, -4
 4164 0002 CEB0     		sub	sp, sp, #312
 4165              		.cfi_def_cfa_offset 320
 4166 0004 02AF     		add	r7, sp, #8
 4167              		.cfi_def_cfa 7, 312
 4168 0006 3B1D     		adds	r3, r7, #4
 4169 0008 1860     		str	r0, [r3]
 4170 000a 3B46     		mov	r3, r7
 4171 000c 1960     		str	r1, [r3]
 715:main.c        ****     movi_status_t st;
 716:main.c        ****     movi_comm_get_status(m, &st);
 4172              		.loc 1 716 0
 4173 000e 07F14C02 		add	r2, r7, #76
 4174 0012 3B1D     		adds	r3, r7, #4
 4175 0014 1146     		mov	r1, r2
 4176 0016 1868     		ldr	r0, [r3]
 4177 0018 FFF7FEFF 		bl	movi_comm_get_status
 717:main.c        ****     uint16_t len      = m->test_rx_len;
 4178              		.loc 1 717 0
 4179 001c 3B1D     		adds	r3, r7, #4
 4180 001e 1B68     		ldr	r3, [r3]
 4181 0020 B3F81C32 		ldrh	r3, [r3, #540]	@ movhi
 4182 0024 A7F82E31 		strh	r3, [r7, #302]	@ movhi
 718:main.c        ****     uint16_t attr     = m->test_response_attr;
 4183              		.loc 1 718 0
 4184 0028 3B1D     		adds	r3, r7, #4
 4185 002a 1B68     		ldr	r3, [r3]
 4186 002c B3F81A32 		ldrh	r3, [r3, #538]	@ movhi
 4187 0030 A7F82C31 		strh	r3, [r7, #300]	@ movhi
 719:main.c        ****     const uint8_t *p  = m->test_rx_payload;
 4188              		.loc 1 719 0
 4189 0034 3B1D     		adds	r3, r7, #4
 4190 0036 1B68     		ldr	r3, [r3]
 4191 0038 03F21E23 		addw	r3, r3, #542
 4192 003c C7F82831 		str	r3, [r7, #296]
 720:main.c        ****     uint8_t  plen     = m->test_rx_payload_len;
 4193              		.loc 1 720 0
 4194 0040 3B1D     		adds	r3, r7, #4
 4195 0042 1B68     		ldr	r3, [r3]
 4196 0044 93F83E32 		ldrb	r3, [r3, #574]
 4197 0048 87F82731 		strb	r3, [r7, #295]
 721:main.c        **** 
 722:main.c        ****     switch (attr) {
 4198              		.loc 1 722 0
 4199 004c B7F82C31 		ldrh	r3, [r7, #300]
 4200 0050 013B     		subs	r3, r3, #1
ARM GAS  C:\Users\JENNEW~1\AppData\Local\Temp\ccHH9OS0.s 			page 95


 4201 0052 152B     		cmp	r3, #21
 4202 0054 74D8     		bhi	.L217
 4203 0056 01A2     		adr	r2, .L219
 4204 0058 52F823F0 		ldr	pc, [r2, r3, lsl #2]
 4205              		.p2align 2
 4206              	.L219:
 4207 005c 09010000 		.word	.L218+1
 4208 0060 41010000 		.word	.L217+1
 4209 0064 ED000000 		.word	.L220+1
 4210 0068 D1000000 		.word	.L221+1
 4211 006c 41010000 		.word	.L217+1
 4212 0070 41010000 		.word	.L217+1
 4213 0074 41010000 		.word	.L217+1
 4214 0078 41010000 		.word	.L217+1
 4215 007c 41010000 		.word	.L217+1
 4216 0080 41010000 		.word	.L217+1
 4217 0084 41010000 		.word	.L217+1
 4218 0088 25010000 		.word	.L222+1
 4219 008c 41010000 		.word	.L217+1
 4220 0090 41010000 		.word	.L217+1
 4221 0094 41010000 		.word	.L217+1
 4222 0098 41010000 		.word	.L217+1
 4223 009c 41010000 		.word	.L217+1
 4224 00a0 41010000 		.word	.L217+1
 4225 00a4 41010000 		.word	.L217+1
 4226 00a8 41010000 		.word	.L217+1
 4227 00ac 41010000 		.word	.L217+1
 4228 00b0 B5000000 		.word	.L223+1
 4229              		.p2align 1
 4230              	.L223:
 723:main.c        ****         case 22u: print_test_attitude(&st, dt, len, p, plen); break;
 4231              		.loc 1 723 0
 4232 00b4 B7F82E21 		ldrh	r2, [r7, #302]
 4233 00b8 3946     		mov	r1, r7
 4234 00ba 07F14C00 		add	r0, r7, #76
 4235 00be 97F82731 		ldrb	r3, [r7, #295]	@ zero_extendqisi2
 4236 00c2 0093     		str	r3, [sp]
 4237 00c4 D7F82831 		ldr	r3, [r7, #296]
 4238 00c8 0968     		ldr	r1, [r1]
 4239 00ca FFF7FEFF 		bl	print_test_attitude
 4240 00ce 45E0     		b	.L224
 4241              	.L221:
 724:main.c        ****         case  4u: print_test_gps(&st, dt, len, p, plen);      break;
 4242              		.loc 1 724 0
 4243 00d0 B7F82E21 		ldrh	r2, [r7, #302]
 4244 00d4 3946     		mov	r1, r7
 4245 00d6 07F14C00 		add	r0, r7, #76
 4246 00da 97F82731 		ldrb	r3, [r7, #295]	@ zero_extendqisi2
 4247 00de 0093     		str	r3, [sp]
 4248 00e0 D7F82831 		ldr	r3, [r7, #296]
 4249 00e4 0968     		ldr	r1, [r1]
 4250 00e6 FFF7FEFF 		bl	print_test_gps
 4251 00ea 37E0     		b	.L224
 4252              	.L220:
 725:main.c        ****         case  3u: print_test_baro(&st, dt, len, p, plen);     break;
 4253              		.loc 1 725 0
 4254 00ec B7F82E21 		ldrh	r2, [r7, #302]
ARM GAS  C:\Users\JENNEW~1\AppData\Local\Temp\ccHH9OS0.s 			page 96


 4255 00f0 3946     		mov	r1, r7
 4256 00f2 07F14C00 		add	r0, r7, #76
 4257 00f6 97F82731 		ldrb	r3, [r7, #295]	@ zero_extendqisi2
 4258 00fa 0093     		str	r3, [sp]
 4259 00fc D7F82831 		ldr	r3, [r7, #296]
 4260 0100 0968     		ldr	r1, [r1]
 4261 0102 FFF7FEFF 		bl	print_test_baro
 4262 0106 29E0     		b	.L224
 4263              	.L218:
 726:main.c        ****         case  1u: print_test_sysstat(&st, dt, len, p, plen);  break;
 4264              		.loc 1 726 0
 4265 0108 B7F82E21 		ldrh	r2, [r7, #302]
 4266 010c 3946     		mov	r1, r7
 4267 010e 07F14C00 		add	r0, r7, #76
 4268 0112 97F82731 		ldrb	r3, [r7, #295]	@ zero_extendqisi2
 4269 0116 0093     		str	r3, [sp]
 4270 0118 D7F82831 		ldr	r3, [r7, #296]
 4271 011c 0968     		ldr	r1, [r1]
 4272 011e FFF7FEFF 		bl	print_test_sysstat
 4273 0122 1BE0     		b	.L224
 4274              	.L222:
 727:main.c        ****         case 12u: print_test_mag(&st, dt, len, p, plen);      break;
 4275              		.loc 1 727 0
 4276 0124 B7F82E21 		ldrh	r2, [r7, #302]
 4277 0128 3946     		mov	r1, r7
 4278 012a 07F14C00 		add	r0, r7, #76
 4279 012e 97F82731 		ldrb	r3, [r7, #295]	@ zero_extendqisi2
 4280 0132 0093     		str	r3, [sp]
 4281 0134 D7F82831 		ldr	r3, [r7, #296]
 4282 0138 0968     		ldr	r1, [r1]
 4283 013a FFF7FEFF 		bl	print_test_mag
 4284 013e 0DE0     		b	.L224
 4285              	.L217:
 4286              	.LBB45:
 728:main.c        ****         default: {
 729:main.c        ****             char buf[64];
 730:main.c        ****             sprintf(buf, "[TEST] attr=%u responded -- no printer defined\r\n",
 4287              		.loc 1 730 0
 4288 0140 B7F82C21 		ldrh	r2, [r7, #300]
 4289 0144 07F10C03 		add	r3, r7, #12
 4290 0148 0749     		ldr	r1, .L225
 4291 014a 1846     		mov	r0, r3
 4292 014c FFF7FEFF 		bl	sprintf
 731:main.c        ****                     (unsigned)attr);
 732:main.c        ****             UART_1_PutString(buf);
 4293              		.loc 1 732 0
 4294 0150 07F10C03 		add	r3, r7, #12
 4295 0154 1846     		mov	r0, r3
 4296 0156 FFF7FEFF 		bl	UART_1_PutString
 733:main.c        ****             break;
 4297              		.loc 1 733 0
 4298 015a 00BF     		nop
 4299              	.L224:
 4300              	.LBE45:
 734:main.c        ****         }
 735:main.c        ****     }
 736:main.c        **** }
ARM GAS  C:\Users\JENNEW~1\AppData\Local\Temp\ccHH9OS0.s 			page 97


 4301              		.loc 1 736 0 discriminator 1
 4302 015c 00BF     		nop
 4303 015e 07F59877 		add	r7, r7, #304
 4304              		.cfi_def_cfa_offset 8
 4305 0162 BD46     		mov	sp, r7
 4306              		.cfi_def_cfa_register 13
 4307              		@ sp needed
 4308 0164 80BD     		pop	{r7, pc}
 4309              	.L226:
 4310 0166 00BF     		.align	2
 4311              	.L225:
 4312 0168 A80F0000 		.word	.LC72
 4313              		.cfi_endproc
 4314              	.LFE78:
 4315              		.size	print_test_response, .-print_test_response
 4316              		.section	.rodata
 4317 0fd9 000000   		.align	2
 4318              	.LC73:
 4319 0fdc 0D0A3D3D 		.ascii	"\015\012========================================\015"
 4319      3D3D3D3D 
 4319      3D3D3D3D 
 4319      3D3D3D3D 
 4319      3D3D3D3D 
 4320 1007 0A00     		.ascii	"\012\000"
 4321 1009 000000   		.align	2
 4322              	.LC74:
 4323 100c 20204D6F 		.ascii	"  MoVI Pro Controller  PSoC 5LP\015\012\000"
 4323      56492050 
 4323      726F2043 
 4323      6F6E7472 
 4323      6F6C6C65 
 4324 102e 0000     		.align	2
 4325              	.LC75:
 4326 1030 3D3D3D3D 		.ascii	"========================================\015\012\000"
 4326      3D3D3D3D 
 4326      3D3D3D3D 
 4326      3D3D3D3D 
 4326      3D3D3D3D 
 4327 105b 00       		.align	2
 4328              	.LC76:
 4329 105c 20206D3D 		.ascii	"  m=movi ctrl  t=test mode  j=joystick\015\012\000"
 4329      6D6F7669 
 4329      20637472 
 4329      6C202074 
 4329      3D746573 
 4330 1085 000000   		.align	2
 4331              	.LC77:
 4332 1088 20206C3D 		.ascii	"  l=mode  s=adc  c=cal  k=kill  x=kill+quiet\015\012"
 4332      6D6F6465 
 4332      2020733D 
 4332      61646320 
 4332      20633D63 
 4333 10b6 00       		.ascii	"\000"
 4334 10b7 00       		.align	2
 4335              	.LC78:
 4336 10b8 20202D2D 		.ascii	"  -- In test mode --\015\012\000"
 4336      20496E20 
ARM GAS  C:\Users\JENNEW~1\AppData\Local\Temp\ccHH9OS0.s 			page 98


 4336      74657374 
 4336      206D6F64 
 4336      65202D2D 
 4337 10cf 00       		.align	2
 4338              	.LC79:
 4339 10d0 2020613D 		.ascii	"  a=attitude  g=GPS  b=baro  s=status  n=mag\015\012"
 4339      61747469 
 4339      74756465 
 4339      2020673D 
 4339      47505320 
 4340 10fe 00       		.ascii	"\000"
 4341 10ff 00       		.align	2
 4342              	.LC80:
 4343 1100 2020743D 		.ascii	"  t=exit test  (2s timeout per query)\015\012\000"
 4343      65786974 
 4343      20746573 
 4343      74202028 
 4343      32732074 
 4344              		.align	2
 4345              	.LC81:
 4346 1128 5B496E69 		.ascii	"[Init] MoVI UART ready\015\012\000"
 4346      745D204D 
 4346      6F564920 
 4346      55415254 
 4346      20726561 
 4347 1141 000000   		.align	2
 4348              	.LC82:
 4349 1144 5B496E69 		.ascii	"[Init] ADC + Joystick ready\015\012\000"
 4349      745D2041 
 4349      4443202B 
 4349      204A6F79 
 4349      73746963 
 4350 1162 0000     		.align	2
 4351              	.LC83:
 4352 1164 5B496E69 		.ascii	"[Init] Loop timer ready\015\012\000"
 4352      745D204C 
 4352      6F6F7020 
 4352      74696D65 
 4352      72207265 
 4353 117e 0000     		.align	2
 4354              	.LC84:
 4355 1180 5B496E69 		.ascii	"[Init] Mode: STANDBY\015\012\000"
 4355      745D204D 
 4355      6F64653A 
 4355      20535441 
 4355      4E444259 
 4356 1197 00       		.align	2
 4357              	.LC85:
 4358 1198 5B434C49 		.ascii	"[CLI] -> MOVI_CONTROL  TX active\015\012\000"
 4358      5D202D3E 
 4358      204D4F56 
 4358      495F434F 
 4358      4E54524F 
 4359 11bb 00       		.align	2
 4360              	.LC86:
 4361 11bc 5B434C49 		.ascii	"[CLI] -> STANDBY  TX stopped\015\012\000"
 4361      5D202D3E 
ARM GAS  C:\Users\JENNEW~1\AppData\Local\Temp\ccHH9OS0.s 			page 99


 4361      20535441 
 4361      4E444259 
 4361      20205458 
 4362 11db 00       		.align	2
 4363              	.LC87:
 4364 11dc 5B434C49 		.ascii	"[CLI] -> MOVI_TEST\015\012\000"
 4364      5D202D3E 
 4364      204D4F56 
 4364      495F5445 
 4364      53540D0A 
 4365 11f1 000000   		.align	2
 4366              	.LC88:
 4367 11f4 2020743D 		.ascii	"  t=exit  k/x=kill+exit  (2s timeout per query)\015"
 4367      65786974 
 4367      20206B2F 
 4367      783D6B69 
 4367      6C6C2B65 
 4368 1224 0A00     		.ascii	"\012\000"
 4369 1226 0000     		.align	2
 4370              	.LC89:
 4371 1228 5B434C49 		.ascii	"[CLI] Enter STANDBY first (m to stop ctrl)\015\012\000"
 4371      5D20456E 
 4371      74657220 
 4371      5354414E 
 4371      44425920 
 4372 1255 000000   		.align	2
 4373              	.LC90:
 4374 1258 5B434C49 		.ascii	"[CLI] Joystick ON\015\012\000"
 4374      5D204A6F 
 4374      79737469 
 4374      636B204F 
 4374      4E0D0A00 
 4375              		.align	2
 4376              	.LC91:
 4377 126c 5B434C49 		.ascii	"[CLI] Joystick OFF\015\012\000"
 4377      5D204A6F 
 4377      79737469 
 4377      636B204F 
 4377      46460D0A 
 4378 1281 000000   		.align	2
 4379              	.LC92:
 4380 1284 5B434C49 		.ascii	"[CLI] Mode: %s\015\012\000"
 4380      5D204D6F 
 4380      64653A20 
 4380      25730D0A 
 4380      00
 4381 1295 000000   		.align	2
 4382              	.LC93:
 4383 1298 5B434C49 		.ascii	"[CLI] Output paused. Press m or j to resume.\015\012"
 4383      5D204F75 
 4383      74707574 
 4383      20706175 
 4383      7365642E 
 4384 12c6 00       		.ascii	"\000"
 4385 12c7 00       		.align	2
 4386              	.LC94:
 4387 12c8 5B434C49 		.ascii	"[CLI] ADC stream ON\015\012\000"
ARM GAS  C:\Users\JENNEW~1\AppData\Local\Temp\ccHH9OS0.s 			page 100


 4387      5D204144 
 4387      43207374 
 4387      7265616D 
 4387      204F4E0D 
 4388 12de 0000     		.align	2
 4389              	.LC95:
 4390 12e0 5B434C49 		.ascii	"[CLI] ADC stream OFF\015\012\000"
 4390      5D204144 
 4390      43207374 
 4390      7265616D 
 4390      204F4646 
 4391 12f7 00       		.align	2
 4392              	.LC96:
 4393 12f8 5B544553 		.ascii	"[TEST] -> STANDBY\015\012\000"
 4393      545D202D 
 4393      3E205354 
 4393      414E4442 
 4393      590D0A00 
 4394              		.align	2
 4395              	.LC97:
 4396 130c 5B434C49 		.ascii	"[CLI] Output paused.\015\012\000"
 4396      5D204F75 
 4396      74707574 
 4396      20706175 
 4396      7365642E 
 4397 1323 00       		.align	2
 4398              	.LC98:
 4399 1324 4F4B00   		.ascii	"OK\000"
 4400 1327 00       		.align	2
 4401              	.LC99:
 4402 1328 55415254 		.ascii	"UART_ERR\000"
 4402      5F455252 
 4402      00
 4403 1331 000000   		.align	2
 4404              	.LC100:
 4405 1334 5B544553 		.ascii	"[TEST] Sent attr 22 (attitude) at t=%lums  result=%"
 4405      545D2053 
 4405      656E7420 
 4405      61747472 
 4405      20323220 
 4406 1367 730D0A00 		.ascii	"s\015\012\000"
 4407 136b 00       		.align	2
 4408              	.LC101:
 4409 136c 5B544553 		.ascii	"[TEST] Waiting up to 2s...\015\012\000"
 4409      545D2057 
 4409      61697469 
 4409      6E672075 
 4409      7020746F 
 4410 1389 000000   		.align	2
 4411              	.LC102:
 4412 138c 5B544553 		.ascii	"[TEST] Sent attr 4 (GPS) at t=%lums  result=%s\015\012"
 4412      545D2053 
 4412      656E7420 
 4412      61747472 
 4412      20342028 
 4413 13bc 00       		.ascii	"\000"
 4414 13bd 000000   		.align	2
ARM GAS  C:\Users\JENNEW~1\AppData\Local\Temp\ccHH9OS0.s 			page 101


 4415              	.LC103:
 4416 13c0 5B544553 		.ascii	"[TEST] Sent attr 3 (baro) at t=%lums  result=%s\015"
 4416      545D2053 
 4416      656E7420 
 4416      61747472 
 4416      20332028 
 4417 13f0 0A00     		.ascii	"\012\000"
 4418 13f2 0000     		.align	2
 4419              	.LC104:
 4420 13f4 5B544553 		.ascii	"[TEST] Sent attr 1 (system status) at t=%lums  resu"
 4420      545D2053 
 4420      656E7420 
 4420      61747472 
 4420      20312028 
 4421 1427 6C743D25 		.ascii	"lt=%s\015\012\000"
 4421      730D0A00 
 4422 142f 00       		.align	2
 4423              	.LC105:
 4424 1430 5B544553 		.ascii	"[TEST] Sent attr 12 (magnetometer) at t=%lums  resu"
 4424      545D2053 
 4424      656E7420 
 4424      61747472 
 4424      20313220 
 4425 1463 6C743D25 		.ascii	"lt=%s\015\012\000"
 4425      730D0A00 
 4426 146b 00       		.align	2
 4427              	.LC106:
 4428 146c 5B544553 		.ascii	"[TEST] TIMEOUT -- attr=%u  no response in %lums\015"
 4428      545D2054 
 4428      494D454F 
 4428      5554202D 
 4428      2D206174 
 4429 149c 0A00     		.ascii	"\012\000"
 4430 149e 0000     		.align	2
 4431              	.LC107:
 4432 14a0 5B544553 		.ascii	"[TEST] Check: RX count still rising? BLE bridge ali"
 4432      545D2043 
 4432      6865636B 
 4432      3A205258 
 4432      20636F75 
 4433 14d3 76653F0D 		.ascii	"ve?\015\012\000"
 4433      0A00
 4434 14d9 000000   		.align	2
 4435              	.LC108:
 4436 14dc 4D6F6465 		.ascii	"Mode Switched!\015\012\000"
 4436      20537769 
 4436      74636865 
 4436      64210D0A 
 4436      00
 4437 14ed 000000   		.align	2
 4438              	.LC109:
 4439 14f0 583A256C 		.ascii	"X:%ld mV Y:%ld mV  pan:%d/1000  tilt:%d/1000\015\012"
 4439      64206D56 
 4439      20593A25 
 4439      6C64206D 
 4439      56202070 
 4440 151e 00       		.ascii	"\000"
ARM GAS  C:\Users\JENNEW~1\AppData\Local\Temp\ccHH9OS0.s 			page 102


 4441 151f 00       		.align	2
 4442              	.LC110:
 4443 1520 5B43414C 		.ascii	"[CAL] Center samples: %u/%u\015\012\000"
 4443      5D204365 
 4443      6E746572 
 4443      2073616D 
 4443      706C6573 
 4444 153e 0000     		.align	2
 4445              	.LC111:
 4446 1540 20202530 		.ascii	"  %02lu:%02lu:%02lu\015\012\000"
 4446      326C753A 
 4446      2530326C 
 4446      753A2530 
 4446      326C750D 
 4447 1556 0000     		.align	2
 4448              	.LC112:
 4449 1558 4F4E2000 		.ascii	"ON \000"
 4450              		.align	2
 4451              	.LC113:
 4452 155c 4F464600 		.ascii	"OFF\000"
 4453              		.align	2
 4454              	.LC114:
 4455 1560 5B536572 		.ascii	"[Serial]    TX:%lu RX:%lu | csum:%lu err:0x%02X | C"
 4455      69616C5D 
 4455      20202020 
 4455      54583A25 
 4455      6C752052 
 4456 1593 4F4D4D53 		.ascii	"OMMS:ON JOYSTICK:%s\015\012\000"
 4456      3A4F4E20 
 4456      4A4F5953 
 4456      5449434B 
 4456      3A25730D 
 4457 15a9 000000   		.align	2
 4458              	.LC115:
 4459 15ac 5B537461 		.ascii	"[Status]    Pan=%c%3d.%02d  Tilt=%c%3d.%02d  Roll=%"
 4459      7475735D 
 4459      20202020 
 4459      50616E3D 
 4459      25632533 
 4460 15df 63253364 		.ascii	"c%3d.%02d | L=%2d.%1dV R=%2d.%1dV | IMU:%d DRV:%d E"
 4460      2E253032 
 4460      64207C20 
 4460      4C3D2532 
 4460      642E2531 
 4461 1612 52523A25 		.ascii	"RR:%d\015\012\000"
 4461      640D0A00 
 4462 161a 0000     		.align	2
 4463              	.LC116:
 4464 161c 5B537461 		.ascii	"[Status]    No valid frame yet\015\012\000"
 4464      7475735D 
 4464      20202020 
 4464      4E6F2076 
 4464      616C6964 
 4465 163d 000000   		.align	2
 4466              	.LC117:
 4467 1640 5B4A6F79 		.ascii	"[Joystick]  L/R=%c%d.%02d (%s)  U/D=%c%d.%02d (%s)\015"
 4467      73746963 
ARM GAS  C:\Users\JENNEW~1\AppData\Local\Temp\ccHH9OS0.s 			page 103


 4467      6B5D2020 
 4467      4C2F523D 
 4467      25632564 
 4468 1673 0A00     		.ascii	"\012\000"
 4469              		.section	.text.main,"ax",%progbits
 4470              		.align	2
 4471              		.global	main
 4472              		.thumb
 4473              		.thumb_func
 4474              		.type	main, %function
 4475              	main:
 4476              	.LFB79:
 737:main.c        **** 
 738:main.c        **** /* =========================================================================
 739:main.c        ****  * main
 740:main.c        ****  * ========================================================================= */
 741:main.c        **** int main(void)
 742:main.c        **** {
 4477              		.loc 1 742 0
 4478              		.cfi_startproc
 4479              		@ args = 0, pretend = 0, frame = 584
 4480              		@ frame_needed = 1, uses_anonymous_args = 0
 4481 0000 2DE9F043 		push	{r4, r5, r6, r7, r8, r9, lr}
 4482              		.cfi_def_cfa_offset 28
 4483              		.cfi_offset 4, -28
 4484              		.cfi_offset 5, -24
 4485              		.cfi_offset 6, -20
 4486              		.cfi_offset 7, -16
 4487              		.cfi_offset 8, -12
 4488              		.cfi_offset 9, -8
 4489              		.cfi_offset 14, -4
 4490 0004 ADF5217D 		sub	sp, sp, #644
 4491              		.cfi_def_cfa_offset 672
 4492 0008 0EAF     		add	r7, sp, #56
 4493              		.cfi_def_cfa 7, 616
 743:main.c        ****     char tx[TRANSMIT_BUFFER_SIZE];
 744:main.c        ****     uint8 ch;
 745:main.c        **** 
 746:main.c        ****     /* Application mode */
 747:main.c        ****     app_mode_t app_mode = APP_MODE_STANDBY;
 4494              		.loc 1 747 0
 4495 000a 0023     		movs	r3, #0
 4496 000c 87F85F31 		strb	r3, [r7, #351]
 748:main.c        **** 
 749:main.c        ****     /* Sub-flags (valid in any mode) */
 750:main.c        ****     uint8 joystick_active = FALSE;
 4497              		.loc 1 750 0
 4498 0010 0023     		movs	r3, #0
 4499 0012 87F85E31 		strb	r3, [r7, #350]
 751:main.c        ****     uint8 streaming_adc   = FALSE;
 4500              		.loc 1 751 0
 4501 0016 0023     		movs	r3, #0
 4502 0018 87F85D31 		strb	r3, [r7, #349]
 752:main.c        ****     uint8 diag_active     = FALSE;
 4503              		.loc 1 752 0
 4504 001c 0023     		movs	r3, #0
 4505 001e 87F84732 		strb	r3, [r7, #583]
ARM GAS  C:\Users\JENNEW~1\AppData\Local\Temp\ccHH9OS0.s 			page 104


 753:main.c        **** 
 754:main.c        ****     ff_api_control_type_e ctrl_mode = DEFER;
 4506              		.loc 1 754 0
 4507 0022 0023     		movs	r3, #0
 4508 0024 87F85C31 		strb	r3, [r7, #348]
 755:main.c        **** 
 756:main.c        ****     static uint32 last_tx_ms   = 0u;
 757:main.c        ****     static uint32 last_diag_ms = 0u;
 758:main.c        **** 
 759:main.c        ****     int16     counts[N_CH];
 760:main.c        ****     joy_cmd_t cmd;
 761:main.c        ****     cmd.u[0] = 0.0f;
 4509              		.loc 1 761 0
 4510 0028 4FF00003 		mov	r3, #0
 4511 002c C7F85031 		str	r3, [r7, #336]	@ float
 762:main.c        ****     cmd.u[1] = 0.0f;
 4512              		.loc 1 762 0
 4513 0030 4FF00003 		mov	r3, #0
 4514 0034 C7F85431 		str	r3, [r7, #340]	@ float
 763:main.c        **** 
 764:main.c        ****     movi_control_t ctl;
 765:main.c        **** 
 766:main.c        ****     joy_cal_state_t cal_prev = JOY_CAL_OFF;
 4515              		.loc 1 766 0
 4516 0038 0023     		movs	r3, #0
 4517 003a 87F84632 		strb	r3, [r7, #582]
 767:main.c        ****     joy_cal_t defaults;
 768:main.c        ****     uint8 i;
 769:main.c        ****     for (i = 0u; i < (uint8)N_CH; i++) {
 4518              		.loc 1 769 0
 4519 003e 0023     		movs	r3, #0
 4520 0040 87F84532 		strb	r3, [r7, #581]
 4521 0044 1BE0     		b	.L228
 4522              	.L229:
 770:main.c        ****         defaults.minv[i]   = 0;
 4523              		.loc 1 770 0 discriminator 3
 4524 0046 97F84522 		ldrb	r2, [r7, #581]	@ zero_extendqisi2
 4525 004a 07F59673 		add	r3, r7, #300
 4526 004e 0021     		movs	r1, #0
 4527 0050 23F81210 		strh	r1, [r3, r2, lsl #1]	@ movhi
 771:main.c        ****         defaults.maxv[i]   = 255;
 4528              		.loc 1 771 0 discriminator 3
 4529 0054 97F84532 		ldrb	r3, [r7, #581]	@ zero_extendqisi2
 4530 0058 07F59672 		add	r2, r7, #300
 4531 005c 5B00     		lsls	r3, r3, #1
 4532 005e 1344     		add	r3, r3, r2
 4533 0060 FF22     		movs	r2, #255
 4534 0062 9A80     		strh	r2, [r3, #4]	@ movhi
 772:main.c        ****         defaults.center[i] = 128;
 4535              		.loc 1 772 0 discriminator 3
 4536 0064 97F84522 		ldrb	r2, [r7, #581]	@ zero_extendqisi2
 4537 0068 07F59673 		add	r3, r7, #300
 4538 006c 0432     		adds	r2, r2, #4
 4539 006e 8021     		movs	r1, #128
 4540 0070 23F81210 		strh	r1, [r3, r2, lsl #1]	@ movhi
 769:main.c        ****         defaults.minv[i]   = 0;
 4541              		.loc 1 769 0 discriminator 3
ARM GAS  C:\Users\JENNEW~1\AppData\Local\Temp\ccHH9OS0.s 			page 105


 4542 0074 97F84532 		ldrb	r3, [r7, #581]	@ zero_extendqisi2
 4543 0078 0133     		adds	r3, r3, #1
 4544 007a 87F84532 		strb	r3, [r7, #581]
 4545              	.L228:
 769:main.c        ****         defaults.minv[i]   = 0;
 4546              		.loc 1 769 0 is_stmt 0 discriminator 1
 4547 007e 97F84532 		ldrb	r3, [r7, #581]	@ zero_extendqisi2
 4548 0082 012B     		cmp	r3, #1
 4549 0084 DFD9     		bls	.L229
 773:main.c        ****     }
 774:main.c        ****     defaults.valid = 0u;
 4550              		.loc 1 774 0 is_stmt 1
 4551 0086 07F59673 		add	r3, r7, #300
 4552 008a 0022     		movs	r2, #0
 4553 008c 1A73     		strb	r2, [r3, #12]
 775:main.c        ****     joy_sensitivity_t current_sense = SENSE_MED;
 4554              		.loc 1 775 0
 4555 008e 0123     		movs	r3, #1
 4556 0090 87F84432 		strb	r3, [r7, #580]
 776:main.c        ****     uint8 last_button_state = 1;
 4557              		.loc 1 776 0
 4558 0094 0123     		movs	r3, #1
 4559 0096 87F84332 		strb	r3, [r7, #579]
 777:main.c        **** 
 778:main.c        ****     uint32 invert_mask = (1u << CH_X);
 4560              		.loc 1 778 0
 4561 009a 0123     		movs	r3, #1
 4562 009c C7F83C32 		str	r3, [r7, #572]
 779:main.c        **** 
 780:main.c        ****     /* ------------------------------------------------------------------
 781:main.c        ****      * Hardware init
 782:main.c        ****      * ------------------------------------------------------------------ */
 783:main.c        ****     CyGlobalIntEnable;
 4563              		.loc 1 783 0
 4564              		.syntax unified
 4565              	@ 783 "main.c" 1
 4566 00a0 62B6     		CPSIE   i
 4567              	@ 0 "" 2
 784:main.c        **** 
 785:main.c        ****     UART_1_Start();
 4568              		.loc 1 785 0
 4569              		.thumb
 4570              		.syntax unified
 4571 00a2 FFF7FEFF 		bl	UART_1_Start
 786:main.c        ****     UART_1_PutString("\r\n========================================\r\n");
 4572              		.loc 1 786 0
 4573 00a6 BE48     		ldr	r0, .L301
 4574 00a8 FFF7FEFF 		bl	UART_1_PutString
 787:main.c        ****     UART_1_PutString("  MoVI Pro Controller  PSoC 5LP\r\n");
 4575              		.loc 1 787 0
 4576 00ac BD48     		ldr	r0, .L301+4
 4577 00ae FFF7FEFF 		bl	UART_1_PutString
 788:main.c        ****     UART_1_PutString("========================================\r\n");
 4578              		.loc 1 788 0
 4579 00b2 BD48     		ldr	r0, .L301+8
 4580 00b4 FFF7FEFF 		bl	UART_1_PutString
 789:main.c        ****     UART_1_PutString("  m=movi ctrl  t=test mode  j=joystick\r\n");
ARM GAS  C:\Users\JENNEW~1\AppData\Local\Temp\ccHH9OS0.s 			page 106


 4581              		.loc 1 789 0
 4582 00b8 BC48     		ldr	r0, .L301+12
 4583 00ba FFF7FEFF 		bl	UART_1_PutString
 790:main.c        ****     UART_1_PutString("  l=mode  s=adc  c=cal  k=kill  x=kill+quiet\r\n");
 4584              		.loc 1 790 0
 4585 00be BC48     		ldr	r0, .L301+16
 4586 00c0 FFF7FEFF 		bl	UART_1_PutString
 791:main.c        ****     UART_1_PutString("  -- In test mode --\r\n");
 4587              		.loc 1 791 0
 4588 00c4 BB48     		ldr	r0, .L301+20
 4589 00c6 FFF7FEFF 		bl	UART_1_PutString
 792:main.c        ****     UART_1_PutString("  a=attitude  g=GPS  b=baro  s=status  n=mag\r\n");
 4590              		.loc 1 792 0
 4591 00ca BB48     		ldr	r0, .L301+24
 4592 00cc FFF7FEFF 		bl	UART_1_PutString
 793:main.c        ****     UART_1_PutString("  t=exit test  (2s timeout per query)\r\n");
 4593              		.loc 1 793 0
 4594 00d0 BA48     		ldr	r0, .L301+28
 4595 00d2 FFF7FEFF 		bl	UART_1_PutString
 794:main.c        ****     UART_1_PutString("========================================\r\n");
 4596              		.loc 1 794 0
 4597 00d6 B448     		ldr	r0, .L301+8
 4598 00d8 FFF7FEFF 		bl	UART_1_PutString
 795:main.c        **** 
 796:main.c        ****     UART_MOVI_Start();
 4599              		.loc 1 796 0
 4600 00dc FFF7FEFF 		bl	UART_MOVI_Start
 797:main.c        ****     UART_MOVI_ClearRxBuffer();
 4601              		.loc 1 797 0
 4602 00e0 FFF7FEFF 		bl	UART_MOVI_ClearRxBuffer
 798:main.c        ****     UART_MOVI_ClearTxBuffer();
 4603              		.loc 1 798 0
 4604 00e4 FFF7FEFF 		bl	UART_MOVI_ClearTxBuffer
 799:main.c        **** 
 800:main.c        ****     movi_comm_init(&g_movi, &MOVI_HAL);
 4605              		.loc 1 800 0
 4606 00e8 B549     		ldr	r1, .L301+32
 4607 00ea B648     		ldr	r0, .L301+36
 4608 00ec FFF7FEFF 		bl	movi_comm_init
 801:main.c        ****     isr_rx_movi_StartEx(isr_rx_movi_Handler);
 4609              		.loc 1 801 0
 4610 00f0 B548     		ldr	r0, .L301+40
 4611 00f2 FFF7FEFF 		bl	isr_rx_movi_StartEx
 802:main.c        ****     UART_1_PutString("[Init] MoVI UART ready\r\n");
 4612              		.loc 1 802 0
 4613 00f6 B548     		ldr	r0, .L301+44
 4614 00f8 FFF7FEFF 		bl	UART_1_PutString
 803:main.c        **** 
 804:main.c        ****     joystick_init(&defaults, invert_mask);
 4615              		.loc 1 804 0
 4616 00fc 07F59673 		add	r3, r7, #300
 4617 0100 D7F83C12 		ldr	r1, [r7, #572]
 4618 0104 1846     		mov	r0, r3
 4619 0106 FFF7FEFF 		bl	joystick_init
 805:main.c        ****     adc_balanced_init();
 4620              		.loc 1 805 0
 4621 010a FFF7FEFF 		bl	adc_balanced_init
ARM GAS  C:\Users\JENNEW~1\AppData\Local\Temp\ccHH9OS0.s 			page 107


 806:main.c        ****     UART_1_PutString("[Init] ADC + Joystick ready\r\n");
 4622              		.loc 1 806 0
 4623 010e B048     		ldr	r0, .L301+48
 4624 0110 FFF7FEFF 		bl	UART_1_PutString
 807:main.c        **** 
 808:main.c        ****     Looptimer_Start();
 4625              		.loc 1 808 0
 4626 0114 FFF7FEFF 		bl	Looptimer_Start
 809:main.c        ****     isr_Looptimer_StartEx(isr_Looptimer_Handler);
 4627              		.loc 1 809 0
 4628 0118 AE48     		ldr	r0, .L301+52
 4629 011a FFF7FEFF 		bl	isr_Looptimer_StartEx
 810:main.c        ****     UART_1_PutString("[Init] Loop timer ready\r\n");
 4630              		.loc 1 810 0
 4631 011e AE48     		ldr	r0, .L301+56
 4632 0120 FFF7FEFF 		bl	UART_1_PutString
 811:main.c        ****     UART_1_PutString("[Init] Mode: STANDBY\r\n");
 4633              		.loc 1 811 0
 4634 0124 AD48     		ldr	r0, .L301+60
 4635 0126 FFF7FEFF 		bl	UART_1_PutString
 4636              	.L299:
 4637              	.LBB46:
 812:main.c        **** 
 813:main.c        ****     /* ------------------------------------------------------------------
 814:main.c        ****      * Main loop
 815:main.c        ****      * ------------------------------------------------------------------ */
 816:main.c        ****     for (;;)
 817:main.c        ****     {
 818:main.c        ****         /* ----------------------------------------------------------------
 819:main.c        ****          * STEP 1  CLI
 820:main.c        ****          * ---------------------------------------------------------------- */
 821:main.c        ****         ch = (uint8)UART_1_GetChar();
 4638              		.loc 1 821 0
 4639 012a FFF7FEFF 		bl	UART_1_GetChar
 4640 012e 0346     		mov	r3, r0
 4641 0130 87F83B32 		strb	r3, [r7, #571]
 822:main.c        **** 
 823:main.c        ****         /* ---- Keys active in STANDBY and MOVI_CONTROL ---- */
 824:main.c        ****         if (app_mode != APP_MODE_MOVI_TEST)
 4642              		.loc 1 824 0
 4643 0134 97F85F31 		ldrb	r3, [r7, #351]	@ zero_extendqisi2
 4644 0138 022B     		cmp	r3, #2
 4645 013a 00F0E580 		beq	.L230
 825:main.c        ****         {
 826:main.c        ****             if (ch == 'm' || ch == 'M')
 4646              		.loc 1 826 0
 4647 013e 97F83B32 		ldrb	r3, [r7, #571]	@ zero_extendqisi2
 4648 0142 6D2B     		cmp	r3, #109
 4649 0144 03D0     		beq	.L231
 4650              		.loc 1 826 0 is_stmt 0 discriminator 1
 4651 0146 97F83B32 		ldrb	r3, [r7, #571]	@ zero_extendqisi2
 4652 014a 4D2B     		cmp	r3, #77
 4653 014c 14D1     		bne	.L232
 4654              	.L231:
 827:main.c        ****             {
 828:main.c        ****                 if (app_mode == APP_MODE_STANDBY) {
 4655              		.loc 1 828 0 is_stmt 1
ARM GAS  C:\Users\JENNEW~1\AppData\Local\Temp\ccHH9OS0.s 			page 108


 4656 014e 97F85F31 		ldrb	r3, [r7, #351]	@ zero_extendqisi2
 4657 0152 002B     		cmp	r3, #0
 4658 0154 09D1     		bne	.L233
 829:main.c        ****                     app_mode   = APP_MODE_MOVI_CONTROL;
 4659              		.loc 1 829 0
 4660 0156 0123     		movs	r3, #1
 4661 0158 87F85F31 		strb	r3, [r7, #351]
 830:main.c        ****                     diag_active = TRUE;
 4662              		.loc 1 830 0
 4663 015c 0123     		movs	r3, #1
 4664 015e 87F84732 		strb	r3, [r7, #583]
 831:main.c        ****                     UART_1_PutString("[CLI] -> MOVI_CONTROL  TX active\r\n");
 4665              		.loc 1 831 0
 4666 0162 9F48     		ldr	r0, .L301+64
 4667 0164 FFF7FEFF 		bl	UART_1_PutString
 828:main.c        ****                     app_mode   = APP_MODE_MOVI_CONTROL;
 4668              		.loc 1 828 0
 4669 0168 31E2     		b	.L259
 4670              	.L233:
 832:main.c        ****                 } else {
 833:main.c        ****                     app_mode = APP_MODE_STANDBY;
 4671              		.loc 1 833 0
 4672 016a 0023     		movs	r3, #0
 4673 016c 87F85F31 		strb	r3, [r7, #351]
 834:main.c        ****                     UART_1_PutString("[CLI] -> STANDBY  TX stopped\r\n");
 4674              		.loc 1 834 0
 4675 0170 9C48     		ldr	r0, .L301+68
 4676 0172 FFF7FEFF 		bl	UART_1_PutString
 828:main.c        ****                     app_mode   = APP_MODE_MOVI_CONTROL;
 4677              		.loc 1 828 0
 4678 0176 2AE2     		b	.L259
 4679              	.L232:
 835:main.c        ****                 }
 836:main.c        ****             }
 837:main.c        ****             else if (ch == 't' || ch == 'T')
 4680              		.loc 1 837 0
 4681 0178 97F83B32 		ldrb	r3, [r7, #571]	@ zero_extendqisi2
 4682 017c 742B     		cmp	r3, #116
 4683 017e 03D0     		beq	.L236
 4684              		.loc 1 837 0 is_stmt 0 discriminator 1
 4685 0180 97F83B32 		ldrb	r3, [r7, #571]	@ zero_extendqisi2
 4686 0184 542B     		cmp	r3, #84
 4687 0186 14D1     		bne	.L237
 4688              	.L236:
 838:main.c        ****             {
 839:main.c        ****                 if (app_mode == APP_MODE_STANDBY) {
 4689              		.loc 1 839 0 is_stmt 1
 4690 0188 97F85F31 		ldrb	r3, [r7, #351]	@ zero_extendqisi2
 4691 018c 002B     		cmp	r3, #0
 4692 018e 0CD1     		bne	.L238
 840:main.c        ****                     app_mode = APP_MODE_MOVI_TEST;
 4693              		.loc 1 840 0
 4694 0190 0223     		movs	r3, #2
 4695 0192 87F85F31 		strb	r3, [r7, #351]
 841:main.c        ****                     UART_1_PutString("[CLI] -> MOVI_TEST\r\n");
 4696              		.loc 1 841 0
 4697 0196 9448     		ldr	r0, .L301+72
ARM GAS  C:\Users\JENNEW~1\AppData\Local\Temp\ccHH9OS0.s 			page 109


 4698 0198 FFF7FEFF 		bl	UART_1_PutString
 842:main.c        ****                     UART_1_PutString("  a=attitude  g=GPS  b=baro  s=status  n=mag\r\n");
 4699              		.loc 1 842 0
 4700 019c 8648     		ldr	r0, .L301+24
 4701 019e FFF7FEFF 		bl	UART_1_PutString
 843:main.c        ****                     UART_1_PutString("  t=exit  k/x=kill+exit  (2s timeout per query)\r\n");
 4702              		.loc 1 843 0
 4703 01a2 9248     		ldr	r0, .L301+76
 4704 01a4 FFF7FEFF 		bl	UART_1_PutString
 839:main.c        ****                     app_mode = APP_MODE_MOVI_TEST;
 4705              		.loc 1 839 0
 4706 01a8 11E2     		b	.L259
 4707              	.L238:
 844:main.c        ****                 } else {
 845:main.c        ****                     UART_1_PutString("[CLI] Enter STANDBY first (m to stop ctrl)\r\n");
 4708              		.loc 1 845 0
 4709 01aa 9148     		ldr	r0, .L301+80
 4710 01ac FFF7FEFF 		bl	UART_1_PutString
 839:main.c        ****                     app_mode = APP_MODE_MOVI_TEST;
 4711              		.loc 1 839 0
 4712 01b0 0DE2     		b	.L259
 4713              	.L237:
 846:main.c        ****                 }
 847:main.c        ****             }
 848:main.c        ****             else if (ch == 'j' || ch == 'J')
 4714              		.loc 1 848 0
 4715 01b2 97F83B32 		ldrb	r3, [r7, #571]	@ zero_extendqisi2
 4716 01b6 6A2B     		cmp	r3, #106
 4717 01b8 03D0     		beq	.L240
 4718              		.loc 1 848 0 is_stmt 0 discriminator 1
 4719 01ba 97F83B32 		ldrb	r3, [r7, #571]	@ zero_extendqisi2
 4720 01be 4A2B     		cmp	r3, #74
 4721 01c0 1AD1     		bne	.L241
 4722              	.L240:
 849:main.c        ****             {
 850:main.c        ****                 joystick_active = !joystick_active;
 4723              		.loc 1 850 0 is_stmt 1
 4724 01c2 97F85E31 		ldrb	r3, [r7, #350]	@ zero_extendqisi2
 4725 01c6 002B     		cmp	r3, #0
 4726 01c8 0CBF     		ite	eq
 4727 01ca 0123     		moveq	r3, #1
 4728 01cc 0023     		movne	r3, #0
 4729 01ce DBB2     		uxtb	r3, r3
 4730 01d0 87F85E31 		strb	r3, [r7, #350]
 851:main.c        ****                 if (joystick_active) diag_active = TRUE;
 4731              		.loc 1 851 0
 4732 01d4 97F85E31 		ldrb	r3, [r7, #350]	@ zero_extendqisi2
 4733 01d8 002B     		cmp	r3, #0
 4734 01da 02D0     		beq	.L242
 4735              		.loc 1 851 0 is_stmt 0 discriminator 1
 4736 01dc 0123     		movs	r3, #1
 4737 01de 87F84732 		strb	r3, [r7, #583]
 4738              	.L242:
 852:main.c        ****                 UART_1_PutString(joystick_active
 853:main.c        ****                     ? "[CLI] Joystick ON\r\n"
 4739              		.loc 1 853 0 is_stmt 1
 4740 01e2 97F85E31 		ldrb	r3, [r7, #350]	@ zero_extendqisi2
ARM GAS  C:\Users\JENNEW~1\AppData\Local\Temp\ccHH9OS0.s 			page 110


 852:main.c        ****                 UART_1_PutString(joystick_active
 4741              		.loc 1 852 0
 4742 01e6 002B     		cmp	r3, #0
 4743 01e8 01D0     		beq	.L243
 852:main.c        ****                 UART_1_PutString(joystick_active
 4744              		.loc 1 852 0 is_stmt 0 discriminator 1
 4745 01ea 824B     		ldr	r3, .L301+84
 4746 01ec 00E0     		b	.L244
 4747              	.L243:
 852:main.c        ****                 UART_1_PutString(joystick_active
 4748              		.loc 1 852 0 discriminator 2
 4749 01ee 824B     		ldr	r3, .L301+88
 4750              	.L244:
 852:main.c        ****                 UART_1_PutString(joystick_active
 4751              		.loc 1 852 0 discriminator 4
 4752 01f0 1846     		mov	r0, r3
 4753 01f2 FFF7FEFF 		bl	UART_1_PutString
 4754 01f6 EAE1     		b	.L259
 4755              	.L241:
 854:main.c        ****                     : "[CLI] Joystick OFF\r\n");
 855:main.c        ****             }
 856:main.c        ****             else if (ch == 'l' || ch == 'L')
 4756              		.loc 1 856 0 is_stmt 1
 4757 01f8 97F83B32 		ldrb	r3, [r7, #571]	@ zero_extendqisi2
 4758 01fc 6C2B     		cmp	r3, #108
 4759 01fe 03D0     		beq	.L245
 4760              		.loc 1 856 0 is_stmt 0 discriminator 1
 4761 0200 97F83B32 		ldrb	r3, [r7, #571]	@ zero_extendqisi2
 4762 0204 4C2B     		cmp	r3, #76
 4763 0206 24D1     		bne	.L246
 4764              	.L245:
 857:main.c        ****             {
 858:main.c        ****                 if      (ctrl_mode == DEFER)    ctrl_mode = RATE;
 4765              		.loc 1 858 0 is_stmt 1
 4766 0208 97F85C31 		ldrb	r3, [r7, #348]	@ zero_extendqisi2
 4767 020c 002B     		cmp	r3, #0
 4768 020e 03D1     		bne	.L247
 4769              		.loc 1 858 0 is_stmt 0 discriminator 1
 4770 0210 0123     		movs	r3, #1
 4771 0212 87F85C31 		strb	r3, [r7, #348]
 4772 0216 0AE0     		b	.L248
 4773              	.L247:
 859:main.c        ****                 else if (ctrl_mode == RATE)     ctrl_mode = ABSOLUTE;
 4774              		.loc 1 859 0 is_stmt 1
 4775 0218 97F85C31 		ldrb	r3, [r7, #348]	@ zero_extendqisi2
 4776 021c 012B     		cmp	r3, #1
 4777 021e 03D1     		bne	.L249
 4778              		.loc 1 859 0 is_stmt 0 discriminator 1
 4779 0220 0223     		movs	r3, #2
 4780 0222 87F85C31 		strb	r3, [r7, #348]
 4781 0226 02E0     		b	.L248
 4782              	.L249:
 860:main.c        ****                 else                             ctrl_mode = DEFER;
 4783              		.loc 1 860 0 is_stmt 1
 4784 0228 0023     		movs	r3, #0
 4785 022a 87F85C31 		strb	r3, [r7, #348]
 4786              	.L248:
ARM GAS  C:\Users\JENNEW~1\AppData\Local\Temp\ccHH9OS0.s 			page 111


 861:main.c        ****                 sprintf(tx, "[CLI] Mode: %s\r\n", mode_to_str(ctrl_mode));
 4787              		.loc 1 861 0
 4788 022e 97F85C31 		ldrb	r3, [r7, #348]	@ zero_extendqisi2
 4789 0232 1846     		mov	r0, r3
 4790 0234 FFF7FEFF 		bl	mode_to_str
 4791 0238 0246     		mov	r2, r0
 4792 023a 07F5B073 		add	r3, r7, #352
 4793 023e 6F49     		ldr	r1, .L301+92
 4794 0240 1846     		mov	r0, r3
 4795 0242 FFF7FEFF 		bl	sprintf
 862:main.c        ****                 UART_1_PutString(tx);
 4796              		.loc 1 862 0
 4797 0246 07F5B073 		add	r3, r7, #352
 4798 024a 1846     		mov	r0, r3
 4799 024c FFF7FEFF 		bl	UART_1_PutString
 4800 0250 BDE1     		b	.L259
 4801              	.L246:
 863:main.c        ****             }
 864:main.c        ****             else if (ch == 'k' || ch == 'K')
 4802              		.loc 1 864 0
 4803 0252 97F83B32 		ldrb	r3, [r7, #571]	@ zero_extendqisi2
 4804 0256 6B2B     		cmp	r3, #107
 4805 0258 03D0     		beq	.L250
 4806              		.loc 1 864 0 is_stmt 0 discriminator 1
 4807 025a 97F83B32 		ldrb	r3, [r7, #571]	@ zero_extendqisi2
 4808 025e 4B2B     		cmp	r3, #75
 4809 0260 0DD1     		bne	.L251
 4810              	.L250:
 865:main.c        ****             {
 866:main.c        ****                 do_kill(&g_movi, &app_mode, &joystick_active,
 4811              		.loc 1 866 0 is_stmt 1
 4812 0262 07F25D10 		addw	r0, r7, #349
 4813 0266 07F5AF72 		add	r2, r7, #350
 4814 026a 07F25F11 		addw	r1, r7, #351
 4815 026e 07F5AE73 		add	r3, r7, #348
 4816 0272 0093     		str	r3, [sp]
 4817 0274 0346     		mov	r3, r0
 4818 0276 5348     		ldr	r0, .L301+36
 4819 0278 FFF7FEFF 		bl	do_kill
 4820 027c A7E1     		b	.L259
 4821              	.L251:
 867:main.c        ****                         &streaming_adc, &ctrl_mode);
 868:main.c        ****             }
 869:main.c        ****             else if (ch == 'x' || ch == 'X')
 4822              		.loc 1 869 0
 4823 027e 97F83B32 		ldrb	r3, [r7, #571]	@ zero_extendqisi2
 4824 0282 782B     		cmp	r3, #120
 4825 0284 03D0     		beq	.L252
 4826              		.loc 1 869 0 is_stmt 0 discriminator 1
 4827 0286 97F83B32 		ldrb	r3, [r7, #571]	@ zero_extendqisi2
 4828 028a 582B     		cmp	r3, #88
 4829 028c 13D1     		bne	.L253
 4830              	.L252:
 870:main.c        ****             {
 871:main.c        ****                 do_kill(&g_movi, &app_mode, &joystick_active,
 4831              		.loc 1 871 0 is_stmt 1
 4832 028e 07F25D10 		addw	r0, r7, #349
ARM GAS  C:\Users\JENNEW~1\AppData\Local\Temp\ccHH9OS0.s 			page 112


 4833 0292 07F5AF72 		add	r2, r7, #350
 4834 0296 07F25F11 		addw	r1, r7, #351
 4835 029a 07F5AE73 		add	r3, r7, #348
 4836 029e 0093     		str	r3, [sp]
 4837 02a0 0346     		mov	r3, r0
 4838 02a2 4848     		ldr	r0, .L301+36
 4839 02a4 FFF7FEFF 		bl	do_kill
 872:main.c        ****                         &streaming_adc, &ctrl_mode);
 873:main.c        ****                 diag_active = FALSE;
 4840              		.loc 1 873 0
 4841 02a8 0023     		movs	r3, #0
 4842 02aa 87F84732 		strb	r3, [r7, #583]
 874:main.c        ****                 UART_1_PutString("[CLI] Output paused. Press m or j to resume.\r\n");
 4843              		.loc 1 874 0
 4844 02ae 5448     		ldr	r0, .L301+96
 4845 02b0 FFF7FEFF 		bl	UART_1_PutString
 4846 02b4 8BE1     		b	.L259
 4847              	.L253:
 875:main.c        ****             }
 876:main.c        ****             else if (ch == 's' || ch == 'S')
 4848              		.loc 1 876 0
 4849 02b6 97F83B32 		ldrb	r3, [r7, #571]	@ zero_extendqisi2
 4850 02ba 732B     		cmp	r3, #115
 4851 02bc 03D0     		beq	.L254
 4852              		.loc 1 876 0 is_stmt 0 discriminator 1
 4853 02be 97F83B32 		ldrb	r3, [r7, #571]	@ zero_extendqisi2
 4854 02c2 532B     		cmp	r3, #83
 4855 02c4 13D1     		bne	.L255
 4856              	.L254:
 877:main.c        ****             {
 878:main.c        ****                 streaming_adc = !streaming_adc;
 4857              		.loc 1 878 0 is_stmt 1
 4858 02c6 97F85D31 		ldrb	r3, [r7, #349]	@ zero_extendqisi2
 4859 02ca 002B     		cmp	r3, #0
 4860 02cc 0CBF     		ite	eq
 4861 02ce 0123     		moveq	r3, #1
 4862 02d0 0023     		movne	r3, #0
 4863 02d2 DBB2     		uxtb	r3, r3
 4864 02d4 87F85D31 		strb	r3, [r7, #349]
 879:main.c        ****                 UART_1_PutString(streaming_adc
 880:main.c        ****                     ? "[CLI] ADC stream ON\r\n"
 4865              		.loc 1 880 0
 4866 02d8 97F85D31 		ldrb	r3, [r7, #349]	@ zero_extendqisi2
 879:main.c        ****                 UART_1_PutString(streaming_adc
 4867              		.loc 1 879 0
 4868 02dc 002B     		cmp	r3, #0
 4869 02de 01D0     		beq	.L256
 879:main.c        ****                 UART_1_PutString(streaming_adc
 4870              		.loc 1 879 0 is_stmt 0 discriminator 1
 4871 02e0 484B     		ldr	r3, .L301+100
 4872 02e2 00E0     		b	.L257
 4873              	.L256:
 879:main.c        ****                 UART_1_PutString(streaming_adc
 4874              		.loc 1 879 0 discriminator 2
 4875 02e4 484B     		ldr	r3, .L301+104
 4876              	.L257:
 879:main.c        ****                 UART_1_PutString(streaming_adc
ARM GAS  C:\Users\JENNEW~1\AppData\Local\Temp\ccHH9OS0.s 			page 113


 4877              		.loc 1 879 0 discriminator 4
 4878 02e6 1846     		mov	r0, r3
 4879 02e8 FFF7FEFF 		bl	UART_1_PutString
 4880 02ec 6FE1     		b	.L259
 4881              	.L255:
 881:main.c        ****                     : "[CLI] ADC stream OFF\r\n");
 882:main.c        ****             }
 883:main.c        ****             else if (ch == 'c' || ch == 'C')
 4882              		.loc 1 883 0 is_stmt 1
 4883 02ee 97F83B32 		ldrb	r3, [r7, #571]	@ zero_extendqisi2
 4884 02f2 632B     		cmp	r3, #99
 4885 02f4 04D0     		beq	.L258
 4886              		.loc 1 883 0 is_stmt 0 discriminator 1
 4887 02f6 97F83B32 		ldrb	r3, [r7, #571]	@ zero_extendqisi2
 4888 02fa 432B     		cmp	r3, #67
 4889 02fc 40F06781 		bne	.L259
 4890              	.L258:
 884:main.c        ****             {
 885:main.c        ****                 joystick_on_key('c');
 4891              		.loc 1 885 0 is_stmt 1
 4892 0300 6320     		movs	r0, #99
 4893 0302 FFF7FEFF 		bl	joystick_on_key
 4894 0306 62E1     		b	.L259
 4895              	.L230:
 886:main.c        ****             }
 887:main.c        ****         }
 888:main.c        **** 
 889:main.c        ****         /* ---- Keys active only in MOVI_TEST ---- */
 890:main.c        ****         else  /* app_mode == APP_MODE_MOVI_TEST */
 891:main.c        ****         {
 892:main.c        ****             if (ch == 't' || ch == 'T')
 4896              		.loc 1 892 0
 4897 0308 97F83B32 		ldrb	r3, [r7, #571]	@ zero_extendqisi2
 4898 030c 742B     		cmp	r3, #116
 4899 030e 03D0     		beq	.L260
 4900              		.loc 1 892 0 is_stmt 0 discriminator 1
 4901 0310 97F83B32 		ldrb	r3, [r7, #571]	@ zero_extendqisi2
 4902 0314 542B     		cmp	r3, #84
 4903 0316 0ED1     		bne	.L261
 4904              	.L260:
 893:main.c        ****             {
 894:main.c        ****                 /* Abort any pending request */
 895:main.c        ****                 g_movi.test_pending_attr   = 0u;
 4905              		.loc 1 895 0 is_stmt 1
 4906 0318 2A4B     		ldr	r3, .L301+36
 4907 031a 0022     		movs	r2, #0
 4908 031c A3F81222 		strh	r2, [r3, #530]	@ movhi
 896:main.c        ****                 g_movi.test_response_ready = false;
 4909              		.loc 1 896 0
 4910 0320 284B     		ldr	r3, .L301+36
 4911 0322 0022     		movs	r2, #0
 4912 0324 83F81822 		strb	r2, [r3, #536]
 897:main.c        ****                 app_mode = APP_MODE_STANDBY;
 4913              		.loc 1 897 0
 4914 0328 0023     		movs	r3, #0
 4915 032a 87F85F31 		strb	r3, [r7, #351]
 898:main.c        ****                 UART_1_PutString("[TEST] -> STANDBY\r\n");
ARM GAS  C:\Users\JENNEW~1\AppData\Local\Temp\ccHH9OS0.s 			page 114


 4916              		.loc 1 898 0
 4917 032e 3748     		ldr	r0, .L301+108
 4918 0330 FFF7FEFF 		bl	UART_1_PutString
 4919 0334 4BE1     		b	.L259
 4920              	.L261:
 899:main.c        ****             }
 900:main.c        ****             else if (ch == 'k' || ch == 'K' || ch == 'x' || ch == 'X')
 4921              		.loc 1 900 0
 4922 0336 97F83B32 		ldrb	r3, [r7, #571]	@ zero_extendqisi2
 4923 033a 6B2B     		cmp	r3, #107
 4924 033c 0BD0     		beq	.L262
 4925              		.loc 1 900 0 is_stmt 0 discriminator 1
 4926 033e 97F83B32 		ldrb	r3, [r7, #571]	@ zero_extendqisi2
 4927 0342 4B2B     		cmp	r3, #75
 4928 0344 07D0     		beq	.L262
 4929              		.loc 1 900 0 discriminator 2
 4930 0346 97F83B32 		ldrb	r3, [r7, #571]	@ zero_extendqisi2
 4931 034a 782B     		cmp	r3, #120
 4932 034c 03D0     		beq	.L262
 4933              		.loc 1 900 0 discriminator 3
 4934 034e 97F83B32 		ldrb	r3, [r7, #571]	@ zero_extendqisi2
 4935 0352 582B     		cmp	r3, #88
 4936 0354 5ED1     		bne	.L263
 4937              	.L262:
 901:main.c        ****             {
 902:main.c        ****                 g_movi.test_pending_attr   = 0u;
 4938              		.loc 1 902 0 is_stmt 1
 4939 0356 1B4B     		ldr	r3, .L301+36
 4940 0358 0022     		movs	r2, #0
 4941 035a A3F81222 		strh	r2, [r3, #530]	@ movhi
 903:main.c        ****                 g_movi.test_response_ready = false;
 4942              		.loc 1 903 0
 4943 035e 194B     		ldr	r3, .L301+36
 4944 0360 0022     		movs	r2, #0
 4945 0362 83F81822 		strb	r2, [r3, #536]
 904:main.c        ****                 do_kill(&g_movi, &app_mode, &joystick_active,
 4946              		.loc 1 904 0
 4947 0366 07F25D10 		addw	r0, r7, #349
 4948 036a 07F5AF72 		add	r2, r7, #350
 4949 036e 07F25F11 		addw	r1, r7, #351
 4950 0372 07F5AE73 		add	r3, r7, #348
 4951 0376 0093     		str	r3, [sp]
 4952 0378 0346     		mov	r3, r0
 4953 037a 1248     		ldr	r0, .L301+36
 4954 037c FFF7FEFF 		bl	do_kill
 905:main.c        ****                         &streaming_adc, &ctrl_mode);
 906:main.c        ****                 if (ch == 'x' || ch == 'X') {
 4955              		.loc 1 906 0
 4956 0380 97F83B32 		ldrb	r3, [r7, #571]	@ zero_extendqisi2
 4957 0384 782B     		cmp	r3, #120
 4958 0386 04D0     		beq	.L264
 4959              		.loc 1 906 0 is_stmt 0 discriminator 1
 4960 0388 97F83B32 		ldrb	r3, [r7, #571]	@ zero_extendqisi2
 4961 038c 582B     		cmp	r3, #88
 4962 038e 40F01D81 		bne	.L300
 4963              	.L264:
 907:main.c        ****                     diag_active = FALSE;
ARM GAS  C:\Users\JENNEW~1\AppData\Local\Temp\ccHH9OS0.s 			page 115


 4964              		.loc 1 907 0 is_stmt 1
 4965 0392 0023     		movs	r3, #0
 4966 0394 87F84732 		strb	r3, [r7, #583]
 908:main.c        ****                     UART_1_PutString("[CLI] Output paused.\r\n");
 4967              		.loc 1 908 0
 4968 0398 1D48     		ldr	r0, .L301+112
 4969 039a FFF7FEFF 		bl	UART_1_PutString
 906:main.c        ****                     diag_active = FALSE;
 4970              		.loc 1 906 0
 4971 039e 15E1     		b	.L300
 4972              	.L302:
 4973              		.align	2
 4974              	.L301:
 4975 03a0 DC0F0000 		.word	.LC73
 4976 03a4 0C100000 		.word	.LC74
 4977 03a8 30100000 		.word	.LC75
 4978 03ac 5C100000 		.word	.LC76
 4979 03b0 88100000 		.word	.LC77
 4980 03b4 B8100000 		.word	.LC78
 4981 03b8 D0100000 		.word	.LC79
 4982 03bc 00110000 		.word	.LC80
 4983 03c0 00000000 		.word	MOVI_HAL
 4984 03c4 00000000 		.word	g_movi
 4985 03c8 00000000 		.word	isr_rx_movi_Handler
 4986 03cc 28110000 		.word	.LC81
 4987 03d0 44110000 		.word	.LC82
 4988 03d4 00000000 		.word	isr_Looptimer_Handler
 4989 03d8 64110000 		.word	.LC83
 4990 03dc 80110000 		.word	.LC84
 4991 03e0 98110000 		.word	.LC85
 4992 03e4 BC110000 		.word	.LC86
 4993 03e8 DC110000 		.word	.LC87
 4994 03ec F4110000 		.word	.LC88
 4995 03f0 28120000 		.word	.LC89
 4996 03f4 58120000 		.word	.LC90
 4997 03f8 6C120000 		.word	.LC91
 4998 03fc 84120000 		.word	.LC92
 4999 0400 98120000 		.word	.LC93
 5000 0404 C8120000 		.word	.LC94
 5001 0408 E0120000 		.word	.LC95
 5002 040c F8120000 		.word	.LC96
 5003 0410 0C130000 		.word	.LC97
 5004              	.L263:
 909:main.c        ****                 }
 910:main.c        ****             }
 911:main.c        ****             else if (ch == 'a' || ch == 'A')
 5005              		.loc 1 911 0
 5006 0414 97F83B32 		ldrb	r3, [r7, #571]	@ zero_extendqisi2
 5007 0418 612B     		cmp	r3, #97
 5008 041a 03D0     		beq	.L266
 5009              		.loc 1 911 0 is_stmt 0 discriminator 1
 5010 041c 97F83B32 		ldrb	r3, [r7, #571]	@ zero_extendqisi2
 5011 0420 412B     		cmp	r3, #65
 5012 0422 23D1     		bne	.L267
 5013              	.L266:
 5014              	.LBB47:
 912:main.c        ****             {
ARM GAS  C:\Users\JENNEW~1\AppData\Local\Temp\ccHH9OS0.s 			page 116


 913:main.c        ****                 movi_result_t r = movi_comm_request_attr(&g_movi, 22u);
 5015              		.loc 1 913 0 is_stmt 1
 5016 0424 1621     		movs	r1, #22
 5017 0426 8348     		ldr	r0, .L303
 5018 0428 FFF7FEFF 		bl	movi_comm_request_attr
 5019 042c 0346     		mov	r3, r0
 5020 042e 87F83632 		strb	r3, [r7, #566]
 914:main.c        ****                 g_movi.test_sent_ms = g_tick_ms;   /* use PSoC timer, not QX internal */
 5021              		.loc 1 914 0
 5022 0432 814B     		ldr	r3, .L303+4
 5023 0434 1B68     		ldr	r3, [r3]
 5024 0436 7F4A     		ldr	r2, .L303
 5025 0438 C2F81432 		str	r3, [r2, #532]
 915:main.c        ****                 sprintf(tx, "[TEST] Sent attr 22 (attitude) at t=%lums  result=%s\r\n",
 916:main.c        ****                         (unsigned long)g_movi.test_sent_ms,
 5026              		.loc 1 916 0
 5027 043c 7D4B     		ldr	r3, .L303
 5028 043e D3F81422 		ldr	r2, [r3, #532]
 915:main.c        ****                 sprintf(tx, "[TEST] Sent attr 22 (attitude) at t=%lums  result=%s\r\n",
 5029              		.loc 1 915 0
 5030 0442 97F83632 		ldrb	r3, [r7, #566]	@ zero_extendqisi2
 5031 0446 002B     		cmp	r3, #0
 5032 0448 01D1     		bne	.L268
 915:main.c        ****                 sprintf(tx, "[TEST] Sent attr 22 (attitude) at t=%lums  result=%s\r\n",
 5033              		.loc 1 915 0 is_stmt 0 discriminator 1
 5034 044a 7C4B     		ldr	r3, .L303+8
 5035 044c 00E0     		b	.L269
 5036              	.L268:
 915:main.c        ****                 sprintf(tx, "[TEST] Sent attr 22 (attitude) at t=%lums  result=%s\r\n",
 5037              		.loc 1 915 0 discriminator 2
 5038 044e 7C4B     		ldr	r3, .L303+12
 5039              	.L269:
 915:main.c        ****                 sprintf(tx, "[TEST] Sent attr 22 (attitude) at t=%lums  result=%s\r\n",
 5040              		.loc 1 915 0 discriminator 4
 5041 0450 07F5B070 		add	r0, r7, #352
 5042 0454 7B49     		ldr	r1, .L303+16
 5043 0456 FFF7FEFF 		bl	sprintf
 917:main.c        ****                         r == MOVI_OK ? "OK" : "UART_ERR");
 918:main.c        ****                 UART_1_PutString(tx);
 5044              		.loc 1 918 0 is_stmt 1 discriminator 4
 5045 045a 07F5B073 		add	r3, r7, #352
 5046 045e 1846     		mov	r0, r3
 5047 0460 FFF7FEFF 		bl	UART_1_PutString
 919:main.c        ****                 UART_1_PutString("[TEST] Waiting up to 2s...\r\n");
 5048              		.loc 1 919 0 discriminator 4
 5049 0464 7848     		ldr	r0, .L303+20
 5050 0466 FFF7FEFF 		bl	UART_1_PutString
 5051              	.LBE47:
 912:main.c        ****                 movi_result_t r = movi_comm_request_attr(&g_movi, 22u);
 5052              		.loc 1 912 0 discriminator 4
 5053 046a B0E0     		b	.L259
 5054              	.L267:
 920:main.c        ****             }
 921:main.c        ****             else if (ch == 'g' || ch == 'G')
 5055              		.loc 1 921 0
 5056 046c 97F83B32 		ldrb	r3, [r7, #571]	@ zero_extendqisi2
 5057 0470 672B     		cmp	r3, #103
ARM GAS  C:\Users\JENNEW~1\AppData\Local\Temp\ccHH9OS0.s 			page 117


 5058 0472 03D0     		beq	.L270
 5059              		.loc 1 921 0 is_stmt 0 discriminator 1
 5060 0474 97F83B32 		ldrb	r3, [r7, #571]	@ zero_extendqisi2
 5061 0478 472B     		cmp	r3, #71
 5062 047a 23D1     		bne	.L271
 5063              	.L270:
 5064              	.LBB48:
 922:main.c        ****             {
 923:main.c        ****                 movi_result_t r = movi_comm_request_attr(&g_movi, 4u);
 5065              		.loc 1 923 0 is_stmt 1
 5066 047c 0421     		movs	r1, #4
 5067 047e 6D48     		ldr	r0, .L303
 5068 0480 FFF7FEFF 		bl	movi_comm_request_attr
 5069 0484 0346     		mov	r3, r0
 5070 0486 87F83732 		strb	r3, [r7, #567]
 924:main.c        ****                 g_movi.test_sent_ms = g_tick_ms;
 5071              		.loc 1 924 0
 5072 048a 6B4B     		ldr	r3, .L303+4
 5073 048c 1B68     		ldr	r3, [r3]
 5074 048e 694A     		ldr	r2, .L303
 5075 0490 C2F81432 		str	r3, [r2, #532]
 925:main.c        ****                 sprintf(tx, "[TEST] Sent attr 4 (GPS) at t=%lums  result=%s\r\n",
 926:main.c        ****                         (unsigned long)g_movi.test_sent_ms,
 5076              		.loc 1 926 0
 5077 0494 674B     		ldr	r3, .L303
 5078 0496 D3F81422 		ldr	r2, [r3, #532]
 925:main.c        ****                 sprintf(tx, "[TEST] Sent attr 4 (GPS) at t=%lums  result=%s\r\n",
 5079              		.loc 1 925 0
 5080 049a 97F83732 		ldrb	r3, [r7, #567]	@ zero_extendqisi2
 5081 049e 002B     		cmp	r3, #0
 5082 04a0 01D1     		bne	.L272
 925:main.c        ****                 sprintf(tx, "[TEST] Sent attr 4 (GPS) at t=%lums  result=%s\r\n",
 5083              		.loc 1 925 0 is_stmt 0 discriminator 1
 5084 04a2 664B     		ldr	r3, .L303+8
 5085 04a4 00E0     		b	.L273
 5086              	.L272:
 925:main.c        ****                 sprintf(tx, "[TEST] Sent attr 4 (GPS) at t=%lums  result=%s\r\n",
 5087              		.loc 1 925 0 discriminator 2
 5088 04a6 664B     		ldr	r3, .L303+12
 5089              	.L273:
 925:main.c        ****                 sprintf(tx, "[TEST] Sent attr 4 (GPS) at t=%lums  result=%s\r\n",
 5090              		.loc 1 925 0 discriminator 4
 5091 04a8 07F5B070 		add	r0, r7, #352
 5092 04ac 6749     		ldr	r1, .L303+24
 5093 04ae FFF7FEFF 		bl	sprintf
 927:main.c        ****                         r == MOVI_OK ? "OK" : "UART_ERR");
 928:main.c        ****                 UART_1_PutString(tx);
 5094              		.loc 1 928 0 is_stmt 1 discriminator 4
 5095 04b2 07F5B073 		add	r3, r7, #352
 5096 04b6 1846     		mov	r0, r3
 5097 04b8 FFF7FEFF 		bl	UART_1_PutString
 929:main.c        ****                 UART_1_PutString("[TEST] Waiting up to 2s...\r\n");
 5098              		.loc 1 929 0 discriminator 4
 5099 04bc 6248     		ldr	r0, .L303+20
 5100 04be FFF7FEFF 		bl	UART_1_PutString
 5101              	.LBE48:
 922:main.c        ****                 movi_result_t r = movi_comm_request_attr(&g_movi, 4u);
ARM GAS  C:\Users\JENNEW~1\AppData\Local\Temp\ccHH9OS0.s 			page 118


 5102              		.loc 1 922 0 discriminator 4
 5103 04c2 84E0     		b	.L259
 5104              	.L271:
 930:main.c        ****             }
 931:main.c        ****             else if (ch == 'b' || ch == 'B')
 5105              		.loc 1 931 0
 5106 04c4 97F83B32 		ldrb	r3, [r7, #571]	@ zero_extendqisi2
 5107 04c8 622B     		cmp	r3, #98
 5108 04ca 03D0     		beq	.L274
 5109              		.loc 1 931 0 is_stmt 0 discriminator 1
 5110 04cc 97F83B32 		ldrb	r3, [r7, #571]	@ zero_extendqisi2
 5111 04d0 422B     		cmp	r3, #66
 5112 04d2 23D1     		bne	.L275
 5113              	.L274:
 5114              	.LBB49:
 932:main.c        ****             {
 933:main.c        ****                 movi_result_t r = movi_comm_request_attr(&g_movi, 3u);
 5115              		.loc 1 933 0 is_stmt 1
 5116 04d4 0321     		movs	r1, #3
 5117 04d6 5748     		ldr	r0, .L303
 5118 04d8 FFF7FEFF 		bl	movi_comm_request_attr
 5119 04dc 0346     		mov	r3, r0
 5120 04de 87F83832 		strb	r3, [r7, #568]
 934:main.c        ****                 g_movi.test_sent_ms = g_tick_ms;
 5121              		.loc 1 934 0
 5122 04e2 554B     		ldr	r3, .L303+4
 5123 04e4 1B68     		ldr	r3, [r3]
 5124 04e6 534A     		ldr	r2, .L303
 5125 04e8 C2F81432 		str	r3, [r2, #532]
 935:main.c        ****                 sprintf(tx, "[TEST] Sent attr 3 (baro) at t=%lums  result=%s\r\n",
 936:main.c        ****                         (unsigned long)g_movi.test_sent_ms,
 5126              		.loc 1 936 0
 5127 04ec 514B     		ldr	r3, .L303
 5128 04ee D3F81422 		ldr	r2, [r3, #532]
 935:main.c        ****                 sprintf(tx, "[TEST] Sent attr 3 (baro) at t=%lums  result=%s\r\n",
 5129              		.loc 1 935 0
 5130 04f2 97F83832 		ldrb	r3, [r7, #568]	@ zero_extendqisi2
 5131 04f6 002B     		cmp	r3, #0
 5132 04f8 01D1     		bne	.L276
 935:main.c        ****                 sprintf(tx, "[TEST] Sent attr 3 (baro) at t=%lums  result=%s\r\n",
 5133              		.loc 1 935 0 is_stmt 0 discriminator 1
 5134 04fa 504B     		ldr	r3, .L303+8
 5135 04fc 00E0     		b	.L277
 5136              	.L276:
 935:main.c        ****                 sprintf(tx, "[TEST] Sent attr 3 (baro) at t=%lums  result=%s\r\n",
 5137              		.loc 1 935 0 discriminator 2
 5138 04fe 504B     		ldr	r3, .L303+12
 5139              	.L277:
 935:main.c        ****                 sprintf(tx, "[TEST] Sent attr 3 (baro) at t=%lums  result=%s\r\n",
 5140              		.loc 1 935 0 discriminator 4
 5141 0500 07F5B070 		add	r0, r7, #352
 5142 0504 5249     		ldr	r1, .L303+28
 5143 0506 FFF7FEFF 		bl	sprintf
 937:main.c        ****                         r == MOVI_OK ? "OK" : "UART_ERR");
 938:main.c        ****                 UART_1_PutString(tx);
 5144              		.loc 1 938 0 is_stmt 1 discriminator 4
 5145 050a 07F5B073 		add	r3, r7, #352
ARM GAS  C:\Users\JENNEW~1\AppData\Local\Temp\ccHH9OS0.s 			page 119


 5146 050e 1846     		mov	r0, r3
 5147 0510 FFF7FEFF 		bl	UART_1_PutString
 939:main.c        ****                 UART_1_PutString("[TEST] Waiting up to 2s...\r\n");
 5148              		.loc 1 939 0 discriminator 4
 5149 0514 4C48     		ldr	r0, .L303+20
 5150 0516 FFF7FEFF 		bl	UART_1_PutString
 5151              	.LBE49:
 932:main.c        ****                 movi_result_t r = movi_comm_request_attr(&g_movi, 3u);
 5152              		.loc 1 932 0 discriminator 4
 5153 051a 58E0     		b	.L259
 5154              	.L275:
 940:main.c        ****             }
 941:main.c        ****             else if (ch == 's' || ch == 'S')
 5155              		.loc 1 941 0
 5156 051c 97F83B32 		ldrb	r3, [r7, #571]	@ zero_extendqisi2
 5157 0520 732B     		cmp	r3, #115
 5158 0522 03D0     		beq	.L278
 5159              		.loc 1 941 0 is_stmt 0 discriminator 1
 5160 0524 97F83B32 		ldrb	r3, [r7, #571]	@ zero_extendqisi2
 5161 0528 532B     		cmp	r3, #83
 5162 052a 23D1     		bne	.L279
 5163              	.L278:
 5164              	.LBB50:
 942:main.c        ****             {
 943:main.c        ****                 movi_result_t r = movi_comm_request_attr(&g_movi, 1u);
 5165              		.loc 1 943 0 is_stmt 1
 5166 052c 0121     		movs	r1, #1
 5167 052e 4148     		ldr	r0, .L303
 5168 0530 FFF7FEFF 		bl	movi_comm_request_attr
 5169 0534 0346     		mov	r3, r0
 5170 0536 87F83932 		strb	r3, [r7, #569]
 944:main.c        ****                 g_movi.test_sent_ms = g_tick_ms;
 5171              		.loc 1 944 0
 5172 053a 3F4B     		ldr	r3, .L303+4
 5173 053c 1B68     		ldr	r3, [r3]
 5174 053e 3D4A     		ldr	r2, .L303
 5175 0540 C2F81432 		str	r3, [r2, #532]
 945:main.c        ****                 sprintf(tx, "[TEST] Sent attr 1 (system status) at t=%lums  result=%s\r\n",
 946:main.c        ****                         (unsigned long)g_movi.test_sent_ms,
 5176              		.loc 1 946 0
 5177 0544 3B4B     		ldr	r3, .L303
 5178 0546 D3F81422 		ldr	r2, [r3, #532]
 945:main.c        ****                 sprintf(tx, "[TEST] Sent attr 1 (system status) at t=%lums  result=%s\r\n",
 5179              		.loc 1 945 0
 5180 054a 97F83932 		ldrb	r3, [r7, #569]	@ zero_extendqisi2
 5181 054e 002B     		cmp	r3, #0
 5182 0550 01D1     		bne	.L280
 945:main.c        ****                 sprintf(tx, "[TEST] Sent attr 1 (system status) at t=%lums  result=%s\r\n",
 5183              		.loc 1 945 0 is_stmt 0 discriminator 1
 5184 0552 3A4B     		ldr	r3, .L303+8
 5185 0554 00E0     		b	.L281
 5186              	.L280:
 945:main.c        ****                 sprintf(tx, "[TEST] Sent attr 1 (system status) at t=%lums  result=%s\r\n",
 5187              		.loc 1 945 0 discriminator 2
 5188 0556 3A4B     		ldr	r3, .L303+12
 5189              	.L281:
 945:main.c        ****                 sprintf(tx, "[TEST] Sent attr 1 (system status) at t=%lums  result=%s\r\n",
ARM GAS  C:\Users\JENNEW~1\AppData\Local\Temp\ccHH9OS0.s 			page 120


 5190              		.loc 1 945 0 discriminator 4
 5191 0558 07F5B070 		add	r0, r7, #352
 5192 055c 3D49     		ldr	r1, .L303+32
 5193 055e FFF7FEFF 		bl	sprintf
 947:main.c        ****                         r == MOVI_OK ? "OK" : "UART_ERR");
 948:main.c        ****                 UART_1_PutString(tx);
 5194              		.loc 1 948 0 is_stmt 1 discriminator 4
 5195 0562 07F5B073 		add	r3, r7, #352
 5196 0566 1846     		mov	r0, r3
 5197 0568 FFF7FEFF 		bl	UART_1_PutString
 949:main.c        ****                 UART_1_PutString("[TEST] Waiting up to 2s...\r\n");
 5198              		.loc 1 949 0 discriminator 4
 5199 056c 3648     		ldr	r0, .L303+20
 5200 056e FFF7FEFF 		bl	UART_1_PutString
 5201              	.LBE50:
 942:main.c        ****                 movi_result_t r = movi_comm_request_attr(&g_movi, 1u);
 5202              		.loc 1 942 0 discriminator 4
 5203 0572 2CE0     		b	.L259
 5204              	.L279:
 950:main.c        ****             }
 951:main.c        ****             else if (ch == 'n' || ch == 'N')
 5205              		.loc 1 951 0
 5206 0574 97F83B32 		ldrb	r3, [r7, #571]	@ zero_extendqisi2
 5207 0578 6E2B     		cmp	r3, #110
 5208 057a 03D0     		beq	.L282
 5209              		.loc 1 951 0 is_stmt 0 discriminator 1
 5210 057c 97F83B32 		ldrb	r3, [r7, #571]	@ zero_extendqisi2
 5211 0580 4E2B     		cmp	r3, #78
 5212 0582 24D1     		bne	.L259
 5213              	.L282:
 5214              	.LBB51:
 952:main.c        ****             {
 953:main.c        ****                 movi_result_t r = movi_comm_request_attr(&g_movi, 12u);
 5215              		.loc 1 953 0 is_stmt 1
 5216 0584 0C21     		movs	r1, #12
 5217 0586 2B48     		ldr	r0, .L303
 5218 0588 FFF7FEFF 		bl	movi_comm_request_attr
 5219 058c 0346     		mov	r3, r0
 5220 058e 87F83A32 		strb	r3, [r7, #570]
 954:main.c        ****                 g_movi.test_sent_ms = g_tick_ms;
 5221              		.loc 1 954 0
 5222 0592 294B     		ldr	r3, .L303+4
 5223 0594 1B68     		ldr	r3, [r3]
 5224 0596 274A     		ldr	r2, .L303
 5225 0598 C2F81432 		str	r3, [r2, #532]
 955:main.c        ****                 sprintf(tx, "[TEST] Sent attr 12 (magnetometer) at t=%lums  result=%s\r\n",
 956:main.c        ****                         (unsigned long)g_movi.test_sent_ms,
 5226              		.loc 1 956 0
 5227 059c 254B     		ldr	r3, .L303
 5228 059e D3F81422 		ldr	r2, [r3, #532]
 955:main.c        ****                 sprintf(tx, "[TEST] Sent attr 12 (magnetometer) at t=%lums  result=%s\r\n",
 5229              		.loc 1 955 0
 5230 05a2 97F83A32 		ldrb	r3, [r7, #570]	@ zero_extendqisi2
 5231 05a6 002B     		cmp	r3, #0
 5232 05a8 01D1     		bne	.L283
 955:main.c        ****                 sprintf(tx, "[TEST] Sent attr 12 (magnetometer) at t=%lums  result=%s\r\n",
 5233              		.loc 1 955 0 is_stmt 0 discriminator 1
ARM GAS  C:\Users\JENNEW~1\AppData\Local\Temp\ccHH9OS0.s 			page 121


 5234 05aa 244B     		ldr	r3, .L303+8
 5235 05ac 00E0     		b	.L284
 5236              	.L283:
 955:main.c        ****                 sprintf(tx, "[TEST] Sent attr 12 (magnetometer) at t=%lums  result=%s\r\n",
 5237              		.loc 1 955 0 discriminator 2
 5238 05ae 244B     		ldr	r3, .L303+12
 5239              	.L284:
 955:main.c        ****                 sprintf(tx, "[TEST] Sent attr 12 (magnetometer) at t=%lums  result=%s\r\n",
 5240              		.loc 1 955 0 discriminator 4
 5241 05b0 07F5B070 		add	r0, r7, #352
 5242 05b4 2849     		ldr	r1, .L303+36
 5243 05b6 FFF7FEFF 		bl	sprintf
 957:main.c        ****                         r == MOVI_OK ? "OK" : "UART_ERR");
 958:main.c        ****                 UART_1_PutString(tx);
 5244              		.loc 1 958 0 is_stmt 1 discriminator 4
 5245 05ba 07F5B073 		add	r3, r7, #352
 5246 05be 1846     		mov	r0, r3
 5247 05c0 FFF7FEFF 		bl	UART_1_PutString
 959:main.c        ****                 UART_1_PutString("[TEST] Waiting up to 2s...\r\n");
 5248              		.loc 1 959 0 discriminator 4
 5249 05c4 2048     		ldr	r0, .L303+20
 5250 05c6 FFF7FEFF 		bl	UART_1_PutString
 5251 05ca 00E0     		b	.L259
 5252              	.L300:
 5253              	.LBE51:
 906:main.c        ****                     diag_active = FALSE;
 5254              		.loc 1 906 0
 5255 05cc 00BF     		nop
 5256              	.L259:
 960:main.c        ****             }
 961:main.c        ****         }
 962:main.c        **** 
 963:main.c        ****         /* Calibration state prompt (works in any mode) */
 964:main.c        ****         joy_cal_state_t cal_now = joystick_cal_state();
 5257              		.loc 1 964 0
 5258 05ce FFF7FEFF 		bl	joystick_cal_state
 5259 05d2 0346     		mov	r3, r0
 5260 05d4 87F83532 		strb	r3, [r7, #565]
 965:main.c        ****         print_cal_prompt_on_state_change(cal_prev, cal_now);
 5261              		.loc 1 965 0
 5262 05d8 97F83522 		ldrb	r2, [r7, #565]	@ zero_extendqisi2
 5263 05dc 97F84632 		ldrb	r3, [r7, #582]	@ zero_extendqisi2
 5264 05e0 1146     		mov	r1, r2
 5265 05e2 1846     		mov	r0, r3
 5266 05e4 FFF7FEFF 		bl	print_cal_prompt_on_state_change
 966:main.c        ****         cal_prev = cal_now;
 5267              		.loc 1 966 0
 5268 05e8 97F83532 		ldrb	r3, [r7, #565]
 5269 05ec 87F84632 		strb	r3, [r7, #582]
 967:main.c        **** 
 968:main.c        ****         /* ----------------------------------------------------------------
 969:main.c        ****          * STEP 2  Pump RX from MoVI (always)
 970:main.c        ****          * ---------------------------------------------------------------- */
 971:main.c        ****         movi_comm_pump(&g_movi);
 5270              		.loc 1 971 0
 5271 05f0 1048     		ldr	r0, .L303
 5272 05f2 FFF7FEFF 		bl	movi_comm_pump
ARM GAS  C:\Users\JENNEW~1\AppData\Local\Temp\ccHH9OS0.s 			page 122


 972:main.c        **** 
 973:main.c        ****         /* ----------------------------------------------------------------
 974:main.c        ****          * STEP 2b  Test mode: check for response or timeout
 975:main.c        ****          * ---------------------------------------------------------------- */
 976:main.c        ****         if (app_mode == APP_MODE_MOVI_TEST)
 5273              		.loc 1 976 0
 5274 05f6 97F85F31 		ldrb	r3, [r7, #351]	@ zero_extendqisi2
 5275 05fa 022B     		cmp	r3, #2
 5276 05fc 53D1     		bne	.L285
 977:main.c        ****         {
 978:main.c        ****             if (g_movi.test_response_ready)
 5277              		.loc 1 978 0
 5278 05fe 0D4B     		ldr	r3, .L303
 5279 0600 93F81832 		ldrb	r3, [r3, #536]	@ zero_extendqisi2
 5280 0604 002B     		cmp	r3, #0
 5281 0606 29D0     		beq	.L286
 5282              	.LBB52:
 979:main.c        ****             {
 980:main.c        ****                 uint32_t dt = g_tick_ms - g_movi.test_sent_ms;
 5283              		.loc 1 980 0
 5284 0608 0B4B     		ldr	r3, .L303+4
 5285 060a 1A68     		ldr	r2, [r3]
 5286 060c 094B     		ldr	r3, .L303
 5287 060e D3F81432 		ldr	r3, [r3, #532]
 5288 0612 D31A     		subs	r3, r2, r3
 5289 0614 C7F83032 		str	r3, [r7, #560]
 981:main.c        ****                 print_test_response(&g_movi, dt);
 5290              		.loc 1 981 0
 5291 0618 D7F83012 		ldr	r1, [r7, #560]
 5292 061c 0548     		ldr	r0, .L303
 5293 061e FFF7FEFF 		bl	print_test_response
 982:main.c        ****                 g_movi.test_response_ready = false;
 5294              		.loc 1 982 0
 5295 0622 044B     		ldr	r3, .L303
 5296 0624 0022     		movs	r2, #0
 5297 0626 83F81822 		strb	r2, [r3, #536]
 983:main.c        ****                 g_movi.test_pending_attr   = 0u;
 5298              		.loc 1 983 0
 5299 062a 024B     		ldr	r3, .L303
 5300 062c 0022     		movs	r2, #0
 5301 062e A3F81222 		strh	r2, [r3, #530]	@ movhi
 5302              	.LBE52:
 5303 0632 38E0     		b	.L285
 5304              	.L304:
 5305              		.align	2
 5306              	.L303:
 5307 0634 00000000 		.word	g_movi
 5308 0638 00000000 		.word	g_tick_ms
 5309 063c 24130000 		.word	.LC98
 5310 0640 28130000 		.word	.LC99
 5311 0644 34130000 		.word	.LC100
 5312 0648 6C130000 		.word	.LC101
 5313 064c 8C130000 		.word	.LC102
 5314 0650 C0130000 		.word	.LC103
 5315 0654 F4130000 		.word	.LC104
 5316 0658 30140000 		.word	.LC105
 5317              	.L286:
ARM GAS  C:\Users\JENNEW~1\AppData\Local\Temp\ccHH9OS0.s 			page 123


 984:main.c        ****             }
 985:main.c        ****             else if (g_movi.test_pending_attr != 0u &&
 5318              		.loc 1 985 0
 5319 065c D44B     		ldr	r3, .L305
 5320 065e B3F81232 		ldrh	r3, [r3, #530]
 5321 0662 002B     		cmp	r3, #0
 5322 0664 1FD0     		beq	.L285
 986:main.c        ****                      (g_tick_ms - g_movi.test_sent_ms) >= TEST_TIMEOUT_MS)
 5323              		.loc 1 986 0 discriminator 1
 5324 0666 D34B     		ldr	r3, .L305+4
 5325 0668 1A68     		ldr	r2, [r3]
 5326 066a D14B     		ldr	r3, .L305
 5327 066c D3F81432 		ldr	r3, [r3, #532]
 5328 0670 D31A     		subs	r3, r2, r3
 985:main.c        ****                      (g_tick_ms - g_movi.test_sent_ms) >= TEST_TIMEOUT_MS)
 5329              		.loc 1 985 0 discriminator 1
 5330 0672 B3F5FA6F 		cmp	r3, #2000
 5331 0676 16D3     		bcc	.L285
 987:main.c        ****             {
 988:main.c        ****                 sprintf(tx, "[TEST] TIMEOUT -- attr=%u  no response in %lums\r\n",
 989:main.c        ****                         (unsigned)g_movi.test_pending_attr,
 5332              		.loc 1 989 0
 5333 0678 CD4B     		ldr	r3, .L305
 5334 067a B3F81232 		ldrh	r3, [r3, #530]
 988:main.c        ****                         (unsigned)g_movi.test_pending_attr,
 5335              		.loc 1 988 0
 5336 067e 1A46     		mov	r2, r3
 5337 0680 07F5B070 		add	r0, r7, #352
 5338 0684 4FF4FA63 		mov	r3, #2000
 5339 0688 CB49     		ldr	r1, .L305+8
 5340 068a FFF7FEFF 		bl	sprintf
 990:main.c        ****                         (unsigned long)TEST_TIMEOUT_MS);
 991:main.c        ****                 UART_1_PutString(tx);
 5341              		.loc 1 991 0
 5342 068e 07F5B073 		add	r3, r7, #352
 5343 0692 1846     		mov	r0, r3
 5344 0694 FFF7FEFF 		bl	UART_1_PutString
 992:main.c        ****                 UART_1_PutString("[TEST] Check: RX count still rising? BLE bridge alive?\r\n");
 5345              		.loc 1 992 0
 5346 0698 C848     		ldr	r0, .L305+12
 5347 069a FFF7FEFF 		bl	UART_1_PutString
 993:main.c        ****                 g_movi.test_pending_attr = 0u;
 5348              		.loc 1 993 0
 5349 069e C44B     		ldr	r3, .L305
 5350 06a0 0022     		movs	r2, #0
 5351 06a2 A3F81222 		strh	r2, [r3, #530]	@ movhi
 5352              	.L285:
 994:main.c        ****             }
 995:main.c        ****         }
 996:main.c        **** 
 997:main.c        ****         /* ----------------------------------------------------------------
 998:main.c        ****          * STEP 3  Joystick ADC
 999:main.c        ****          * ---------------------------------------------------------------- */
1000:main.c        ****         uint8 current_pin_state = Pin_Sensitivity_Read();
 5353              		.loc 1 1000 0
 5354 06a6 FFF7FEFF 		bl	Pin_Sensitivity_Read
 5355 06aa 0346     		mov	r3, r0
ARM GAS  C:\Users\JENNEW~1\AppData\Local\Temp\ccHH9OS0.s 			page 124


 5356 06ac 87F82F32 		strb	r3, [r7, #559]
1001:main.c        ****         if (last_button_state == 1 && current_pin_state == 0) 
 5357              		.loc 1 1001 0
 5358 06b0 97F84332 		ldrb	r3, [r7, #579]	@ zero_extendqisi2
 5359 06b4 012B     		cmp	r3, #1
 5360 06b6 28D1     		bne	.L287
 5361              		.loc 1 1001 0 is_stmt 0 discriminator 1
 5362 06b8 97F82F32 		ldrb	r3, [r7, #559]	@ zero_extendqisi2
 5363 06bc 002B     		cmp	r3, #0
 5364 06be 24D1     		bne	.L287
1002:main.c        ****         {
1003:main.c        ****             // 3. Debounce: Wait 50ms and check again to ignore electrical noise
1004:main.c        ****             CyDelay(50); 
 5365              		.loc 1 1004 0 is_stmt 1
 5366 06c0 3220     		movs	r0, #50
 5367 06c2 FFF7FEFF 		bl	CyDelay
1005:main.c        ****             if (Pin_Sensitivity_Read() == 0) 
 5368              		.loc 1 1005 0
 5369 06c6 FFF7FEFF 		bl	Pin_Sensitivity_Read
 5370 06ca 0346     		mov	r3, r0
 5371 06cc 002B     		cmp	r3, #0
 5372 06ce 1CD1     		bne	.L287
1006:main.c        ****             {
1007:main.c        ****                 // 4. Cycle the sensitivity
1008:main.c        ****                 current_sense = (joy_sensitivity_t)((current_sense + 1) % 3); 
 5373              		.loc 1 1008 0
 5374 06d0 97F84432 		ldrb	r3, [r7, #580]	@ zero_extendqisi2
 5375 06d4 5A1C     		adds	r2, r3, #1
 5376 06d6 BA4B     		ldr	r3, .L305+16
 5377 06d8 83FB0231 		smull	r3, r1, r3, r2
 5378 06dc D317     		asrs	r3, r2, #31
 5379 06de C91A     		subs	r1, r1, r3
 5380 06e0 0B46     		mov	r3, r1
 5381 06e2 5B00     		lsls	r3, r3, #1
 5382 06e4 0B44     		add	r3, r3, r1
 5383 06e6 D11A     		subs	r1, r2, r3
 5384 06e8 0B46     		mov	r3, r1
 5385 06ea 87F84432 		strb	r3, [r7, #580]
1009:main.c        ****                 joystick_set_sensitivity(current_sense);
 5386              		.loc 1 1009 0
 5387 06ee 97F84432 		ldrb	r3, [r7, #580]	@ zero_extendqisi2
 5388 06f2 1846     		mov	r0, r3
 5389 06f4 FFF7FEFF 		bl	joystick_set_sensitivity
1010:main.c        ****                 
1011:main.c        ****                 // Optional: Print to confirm
1012:main.c        ****                 UART_1_PutString("Mode Switched!\r\n");
 5390              		.loc 1 1012 0
 5391 06f8 B248     		ldr	r0, .L305+20
 5392 06fa FFF7FEFF 		bl	UART_1_PutString
1013:main.c        ****                 
1014:main.c        ****                 // 5. Wait for release so it doesn't loop while holding the button
1015:main.c        ****                 while(Pin_Sensitivity_Read() == 0); 
 5393              		.loc 1 1015 0
 5394 06fe 00BF     		nop
 5395              	.L288:
 5396              		.loc 1 1015 0 is_stmt 0 discriminator 1
 5397 0700 FFF7FEFF 		bl	Pin_Sensitivity_Read
ARM GAS  C:\Users\JENNEW~1\AppData\Local\Temp\ccHH9OS0.s 			page 125


 5398 0704 0346     		mov	r3, r0
 5399 0706 002B     		cmp	r3, #0
 5400 0708 FAD0     		beq	.L288
 5401              	.L287:
1016:main.c        ****             }
1017:main.c        ****         }
1018:main.c        ****         last_button_state = current_pin_state;
 5402              		.loc 1 1018 0 is_stmt 1
 5403 070a 97F82F32 		ldrb	r3, [r7, #559]
 5404 070e 87F84332 		strb	r3, [r7, #579]
1019:main.c        ****         if (adc_balanced_poll_frame(counts))
 5405              		.loc 1 1019 0
 5406 0712 07F5AC73 		add	r3, r7, #344
 5407 0716 1846     		mov	r0, r3
 5408 0718 FFF7FEFF 		bl	adc_balanced_poll_frame
 5409 071c 0346     		mov	r3, r0
 5410 071e 002B     		cmp	r3, #0
 5411 0720 67D0     		beq	.L289
1020:main.c        ****         {
1021:main.c        ****             joystick_on_sample(counts);
 5412              		.loc 1 1021 0
 5413 0722 07F5AC73 		add	r3, r7, #344
 5414 0726 1846     		mov	r0, r3
 5415 0728 FFF7FEFF 		bl	joystick_on_sample
1022:main.c        ****             joystick_get_cmd(&cmd);
 5416              		.loc 1 1022 0
 5417 072c 07F5A873 		add	r3, r7, #336
 5418 0730 1846     		mov	r0, r3
 5419 0732 FFF7FEFF 		bl	joystick_get_cmd
1023:main.c        **** 
1024:main.c        ****             if (streaming_adc)
 5420              		.loc 1 1024 0
 5421 0736 97F85D31 		ldrb	r3, [r7, #349]	@ zero_extendqisi2
 5422 073a 002B     		cmp	r3, #0
 5423 073c 3BD0     		beq	.L290
 5424              	.LBB53:
1025:main.c        ****             {
1026:main.c        ****                 int16 pan_milli  = (int16)(cmd.u[CH_X] * 1000.0f);
 5425              		.loc 1 1026 0
 5426 073e D7F85031 		ldr	r3, [r7, #336]	@ float
 5427 0742 A149     		ldr	r1, .L305+24
 5428 0744 1846     		mov	r0, r3
 5429 0746 FFF7FEFF 		bl	__aeabi_fmul
 5430 074a 0346     		mov	r3, r0
 5431 074c 1846     		mov	r0, r3
 5432 074e FFF7FEFF 		bl	__aeabi_f2iz
 5433 0752 0346     		mov	r3, r0
 5434 0754 A7F82C32 		strh	r3, [r7, #556]	@ movhi
1027:main.c        ****                 int16 tilt_milli = (int16)(cmd.u[CH_Y] * 1000.0f);
 5435              		.loc 1 1027 0
 5436 0758 D7F85431 		ldr	r3, [r7, #340]	@ float
 5437 075c 9A49     		ldr	r1, .L305+24
 5438 075e 1846     		mov	r0, r3
 5439 0760 FFF7FEFF 		bl	__aeabi_fmul
 5440 0764 0346     		mov	r3, r0
 5441 0766 1846     		mov	r0, r3
 5442 0768 FFF7FEFF 		bl	__aeabi_f2iz
ARM GAS  C:\Users\JENNEW~1\AppData\Local\Temp\ccHH9OS0.s 			page 126


 5443 076c 0346     		mov	r3, r0
 5444 076e A7F82A32 		strh	r3, [r7, #554]	@ movhi
1028:main.c        ****                 int32 x_mv = adc_balanced_counts_to_mv(counts[CH_X]);
 5445              		.loc 1 1028 0
 5446 0772 B7F95831 		ldrsh	r3, [r7, #344]
 5447 0776 1846     		mov	r0, r3
 5448 0778 FFF7FEFF 		bl	adc_balanced_counts_to_mv
 5449 077c C7F82402 		str	r0, [r7, #548]
1029:main.c        ****                 int32 y_mv = adc_balanced_counts_to_mv(counts[CH_Y]);
 5450              		.loc 1 1029 0
 5451 0780 B7F95A31 		ldrsh	r3, [r7, #346]
 5452 0784 1846     		mov	r0, r3
 5453 0786 FFF7FEFF 		bl	adc_balanced_counts_to_mv
 5454 078a C7F82002 		str	r0, [r7, #544]
1030:main.c        ****                 sprintf(tx,
 5455              		.loc 1 1030 0
 5456 078e B7F92C32 		ldrsh	r3, [r7, #556]
 5457 0792 B7F92A22 		ldrsh	r2, [r7, #554]
 5458 0796 07F5B070 		add	r0, r7, #352
 5459 079a 0192     		str	r2, [sp, #4]
 5460 079c 0093     		str	r3, [sp]
 5461 079e D7F82032 		ldr	r3, [r7, #544]
 5462 07a2 D7F82422 		ldr	r2, [r7, #548]
 5463 07a6 8949     		ldr	r1, .L305+28
 5464 07a8 FFF7FEFF 		bl	sprintf
1031:main.c        ****                     "X:%ld mV Y:%ld mV  pan:%d/1000  tilt:%d/1000\r\n",
1032:main.c        ****                     (long)x_mv, (long)y_mv, pan_milli, tilt_milli);
1033:main.c        ****                 UART_1_PutString(tx);
 5465              		.loc 1 1033 0
 5466 07ac 07F5B073 		add	r3, r7, #352
 5467 07b0 1846     		mov	r0, r3
 5468 07b2 FFF7FEFF 		bl	UART_1_PutString
 5469              	.L290:
 5470              	.LBE53:
1034:main.c        ****             }
1035:main.c        **** 
1036:main.c        ****             if (joystick_cal_state() == JOY_CAL_CENTER_CAPTURE)
 5471              		.loc 1 1036 0
 5472 07b6 FFF7FEFF 		bl	joystick_cal_state
 5473 07ba 0346     		mov	r3, r0
 5474 07bc 022B     		cmp	r3, #2
 5475 07be 18D1     		bne	.L289
 5476              	.LBB54:
1037:main.c        ****             {
1038:main.c        ****                 uint16 n = joystick_center_samples_collected();
 5477              		.loc 1 1038 0
 5478 07c0 FFF7FEFF 		bl	joystick_center_samples_collected
 5479 07c4 0346     		mov	r3, r0
 5480 07c6 A7F81E32 		strh	r3, [r7, #542]	@ movhi
1039:main.c        ****                 if ((n % 8u) == 0u) {
 5481              		.loc 1 1039 0
 5482 07ca B7F81E32 		ldrh	r3, [r7, #542]	@ movhi
 5483 07ce 03F00703 		and	r3, r3, #7
 5484 07d2 9BB2     		uxth	r3, r3
 5485 07d4 002B     		cmp	r3, #0
 5486 07d6 0CD1     		bne	.L289
1040:main.c        ****                     sprintf(tx, "[CAL] Center samples: %u/%u\r\n",
ARM GAS  C:\Users\JENNEW~1\AppData\Local\Temp\ccHH9OS0.s 			page 127


 5487              		.loc 1 1040 0
 5488 07d8 B7F81E22 		ldrh	r2, [r7, #542]
 5489 07dc 07F5B070 		add	r0, r7, #352
 5490 07e0 2023     		movs	r3, #32
 5491 07e2 7B49     		ldr	r1, .L305+32
 5492 07e4 FFF7FEFF 		bl	sprintf
1041:main.c        ****                             (unsigned)n, (unsigned)CAL_CENTER_SAMPLES);
1042:main.c        ****                     UART_1_PutString(tx);
 5493              		.loc 1 1042 0
 5494 07e8 07F5B073 		add	r3, r7, #352
 5495 07ec 1846     		mov	r0, r3
 5496 07ee FFF7FEFF 		bl	UART_1_PutString
 5497              	.L289:
 5498              	.LBE54:
1043:main.c        ****                 }
1044:main.c        ****             }
1045:main.c        ****         }
1046:main.c        **** 
1047:main.c        ****         /* ----------------------------------------------------------------
1048:main.c        ****          * STEP 4  Build control struct
1049:main.c        ****          * ---------------------------------------------------------------- */
1050:main.c        ****         ctl.enable = 1u;
 5499              		.loc 1 1050 0
 5500 07f2 07F59E73 		add	r3, r7, #316
 5501 07f6 0122     		movs	r2, #1
 5502 07f8 DA73     		strb	r2, [r3, #15]
1051:main.c        ****         ctl.kill   = 0u;
 5503              		.loc 1 1051 0
 5504 07fa 07F59E73 		add	r3, r7, #316
 5505 07fe 0022     		movs	r2, #0
 5506 0800 1A74     		strb	r2, [r3, #16]
1052:main.c        **** 
1053:main.c        ****         if (joystick_active && joystick_cal_state() == JOY_CAL_OFF)
 5507              		.loc 1 1053 0
 5508 0802 97F85E31 		ldrb	r3, [r7, #350]	@ zero_extendqisi2
 5509 0806 002B     		cmp	r3, #0
 5510 0808 24D0     		beq	.L291
 5511              		.loc 1 1053 0 is_stmt 0 discriminator 1
 5512 080a FFF7FEFF 		bl	joystick_cal_state
 5513 080e 0346     		mov	r3, r0
 5514 0810 002B     		cmp	r3, #0
 5515 0812 1FD1     		bne	.L291
1054:main.c        ****         {
1055:main.c        ****             ctl.pan_mode  = ctrl_mode;
 5516              		.loc 1 1055 0 is_stmt 1
 5517 0814 97F85C21 		ldrb	r2, [r7, #348]	@ zero_extendqisi2
 5518 0818 07F59E73 		add	r3, r7, #316
 5519 081c 1A73     		strb	r2, [r3, #12]
1056:main.c        ****             ctl.tilt_mode = ctrl_mode;
 5520              		.loc 1 1056 0
 5521 081e 97F85C21 		ldrb	r2, [r7, #348]	@ zero_extendqisi2
 5522 0822 07F59E73 		add	r3, r7, #316
 5523 0826 5A73     		strb	r2, [r3, #13]
1057:main.c        ****             ctl.roll_mode = DEFER;
 5524              		.loc 1 1057 0
 5525 0828 07F59E73 		add	r3, r7, #316
 5526 082c 0022     		movs	r2, #0
ARM GAS  C:\Users\JENNEW~1\AppData\Local\Temp\ccHH9OS0.s 			page 128


 5527 082e 9A73     		strb	r2, [r3, #14]
1058:main.c        ****             ctl.pan  =  cmd.u[CH_X];
 5528              		.loc 1 1058 0
 5529 0830 D7F85021 		ldr	r2, [r7, #336]	@ float
 5530 0834 07F59E73 		add	r3, r7, #316
 5531 0838 1A60     		str	r2, [r3]	@ float
1059:main.c        ****             ctl.tilt = -cmd.u[CH_Y];
 5532              		.loc 1 1059 0
 5533 083a D7F85431 		ldr	r3, [r7, #340]	@ float
 5534 083e 83F00042 		eor	r2, r3, #-2147483648
 5535 0842 07F59E73 		add	r3, r7, #316
 5536 0846 5A60     		str	r2, [r3, #4]	@ float
1060:main.c        ****             ctl.roll =  0.0f;
 5537              		.loc 1 1060 0
 5538 0848 07F59E73 		add	r3, r7, #316
 5539 084c 4FF00002 		mov	r2, #0
 5540 0850 9A60     		str	r2, [r3, #8]	@ float
 5541 0852 1AE0     		b	.L292
 5542              	.L291:
1061:main.c        ****         }
1062:main.c        ****         else
1063:main.c        ****         {
1064:main.c        ****             ctl.pan_mode  = DEFER;
 5543              		.loc 1 1064 0
 5544 0854 07F59E73 		add	r3, r7, #316
 5545 0858 0022     		movs	r2, #0
 5546 085a 1A73     		strb	r2, [r3, #12]
1065:main.c        ****             ctl.tilt_mode = DEFER;
 5547              		.loc 1 1065 0
 5548 085c 07F59E73 		add	r3, r7, #316
 5549 0860 0022     		movs	r2, #0
 5550 0862 5A73     		strb	r2, [r3, #13]
1066:main.c        ****             ctl.roll_mode = DEFER;
 5551              		.loc 1 1066 0
 5552 0864 07F59E73 		add	r3, r7, #316
 5553 0868 0022     		movs	r2, #0
 5554 086a 9A73     		strb	r2, [r3, #14]
1067:main.c        ****             ctl.pan  = 0.0f;
 5555              		.loc 1 1067 0
 5556 086c 07F59E73 		add	r3, r7, #316
 5557 0870 4FF00002 		mov	r2, #0
 5558 0874 1A60     		str	r2, [r3]	@ float
1068:main.c        ****             ctl.tilt = 0.0f;
 5559              		.loc 1 1068 0
 5560 0876 07F59E73 		add	r3, r7, #316
 5561 087a 4FF00002 		mov	r2, #0
 5562 087e 5A60     		str	r2, [r3, #4]	@ float
1069:main.c        ****             ctl.roll = 0.0f;
 5563              		.loc 1 1069 0
 5564 0880 07F59E73 		add	r3, r7, #316
 5565 0884 4FF00002 		mov	r2, #0
 5566 0888 9A60     		str	r2, [r3, #8]	@ float
 5567              	.L292:
1070:main.c        ****         }
1071:main.c        **** 
1072:main.c        ****         /* ----------------------------------------------------------------
1073:main.c        ****          * STEP 5  Transmit QX277 to MoVI (MOVI_CONTROL only)
ARM GAS  C:\Users\JENNEW~1\AppData\Local\Temp\ccHH9OS0.s 			page 129


1074:main.c        ****          * ---------------------------------------------------------------- */
1075:main.c        ****         if (app_mode == APP_MODE_MOVI_CONTROL
 5568              		.loc 1 1075 0
 5569 088a 97F85F31 		ldrb	r3, [r7, #351]	@ zero_extendqisi2
 5570 088e 012B     		cmp	r3, #1
 5571 0890 18D1     		bne	.L293
1076:main.c        ****             && joystick_cal_state() == JOY_CAL_OFF
 5572              		.loc 1 1076 0
 5573 0892 FFF7FEFF 		bl	joystick_cal_state
 5574 0896 0346     		mov	r3, r0
 5575 0898 002B     		cmp	r3, #0
 5576 089a 13D1     		bne	.L293
1077:main.c        ****             && (g_tick_ms - last_tx_ms) >= MOVI_TX_PERIOD_MS)
 5577              		.loc 1 1077 0
 5578 089c 454B     		ldr	r3, .L305+4
 5579 089e 1A68     		ldr	r2, [r3]
 5580 08a0 4C4B     		ldr	r3, .L305+36
 5581 08a2 1B68     		ldr	r3, [r3]
 5582 08a4 D31A     		subs	r3, r2, r3
 5583 08a6 632B     		cmp	r3, #99
 5584 08a8 0CD9     		bls	.L293
1078:main.c        ****         {
1079:main.c        ****             last_tx_ms = g_tick_ms;
 5585              		.loc 1 1079 0
 5586 08aa 424B     		ldr	r3, .L305+4
 5587 08ac 1B68     		ldr	r3, [r3]
 5588 08ae 494A     		ldr	r2, .L305+36
 5589 08b0 1360     		str	r3, [r2]
1080:main.c        ****             movi_comm_set_control(&g_movi, &ctl);
 5590              		.loc 1 1080 0
 5591 08b2 07F59E73 		add	r3, r7, #316
 5592 08b6 1946     		mov	r1, r3
 5593 08b8 3D48     		ldr	r0, .L305
 5594 08ba FFF7FEFF 		bl	movi_comm_set_control
1081:main.c        ****             movi_comm_send_control(&g_movi);
 5595              		.loc 1 1081 0
 5596 08be 3C48     		ldr	r0, .L305
 5597 08c0 FFF7FEFF 		bl	movi_comm_send_control
 5598              	.L293:
1082:main.c        ****         }
1083:main.c        **** 
1084:main.c        ****         /* ----------------------------------------------------------------
1085:main.c        ****          * STEP 6  1 Hz diagnostic print (MOVI_CONTROL only)
1086:main.c        ****          * ---------------------------------------------------------------- */
1087:main.c        ****         if (diag_active
 5599              		.loc 1 1087 0
 5600 08c4 97F84732 		ldrb	r3, [r7, #583]	@ zero_extendqisi2
 5601 08c8 002B     		cmp	r3, #0
 5602 08ca 3FF42EAC 		beq	.L299
1088:main.c        ****             && app_mode == APP_MODE_MOVI_CONTROL
 5603              		.loc 1 1088 0
 5604 08ce 97F85F31 		ldrb	r3, [r7, #351]	@ zero_extendqisi2
 5605 08d2 012B     		cmp	r3, #1
 5606 08d4 7FF429AC 		bne	.L299
1089:main.c        ****             && joystick_cal_state() == JOY_CAL_OFF
 5607              		.loc 1 1089 0
 5608 08d8 FFF7FEFF 		bl	joystick_cal_state
ARM GAS  C:\Users\JENNEW~1\AppData\Local\Temp\ccHH9OS0.s 			page 130


 5609 08dc 0346     		mov	r3, r0
 5610 08de 002B     		cmp	r3, #0
 5611 08e0 7FF423AC 		bne	.L299
1090:main.c        ****             && (g_tick_ms - last_diag_ms) >= DIAG_PERIOD_MS)
 5612              		.loc 1 1090 0
 5613 08e4 334B     		ldr	r3, .L305+4
 5614 08e6 1A68     		ldr	r2, [r3]
 5615 08e8 3B4B     		ldr	r3, .L305+40
 5616 08ea 1B68     		ldr	r3, [r3]
 5617 08ec D31A     		subs	r3, r2, r3
 5618 08ee B3F57A7F 		cmp	r3, #1000
 5619 08f2 FFF41AAC 		bcc	.L299
 5620              	.LBB55:
1091:main.c        ****         {
1092:main.c        ****             last_diag_ms = g_tick_ms;
 5621              		.loc 1 1092 0
 5622 08f6 2F4B     		ldr	r3, .L305+4
 5623 08f8 1B68     		ldr	r3, [r3]
 5624 08fa 374A     		ldr	r2, .L305+40
 5625 08fc 1360     		str	r3, [r2]
1093:main.c        **** 
1094:main.c        ****             /* Timestamp */
1095:main.c        ****             uint32 ms_total = g_tick_ms;
 5626              		.loc 1 1095 0
 5627 08fe 2D4B     		ldr	r3, .L305+4
 5628 0900 1B68     		ldr	r3, [r3]
 5629 0902 C7F81832 		str	r3, [r7, #536]
1096:main.c        ****             uint32 sec_part = (ms_total / 1000u)   % 60u;
 5630              		.loc 1 1096 0
 5631 0906 D7F81832 		ldr	r3, [r7, #536]
 5632 090a 344A     		ldr	r2, .L305+44
 5633 090c A2FB0323 		umull	r2, r3, r2, r3
 5634 0910 9A09     		lsrs	r2, r3, #6
 5635 0912 334B     		ldr	r3, .L305+48
 5636 0914 A3FB0213 		umull	r1, r3, r3, r2
 5637 0918 5909     		lsrs	r1, r3, #5
 5638 091a 0B46     		mov	r3, r1
 5639 091c 1B01     		lsls	r3, r3, #4
 5640 091e 5B1A     		subs	r3, r3, r1
 5641 0920 9B00     		lsls	r3, r3, #2
 5642 0922 D31A     		subs	r3, r2, r3
 5643 0924 C7F81432 		str	r3, [r7, #532]
1097:main.c        ****             uint32 min_part = (ms_total / 60000u)  % 60u;
 5644              		.loc 1 1097 0
 5645 0928 D7F81832 		ldr	r3, [r7, #536]
 5646 092c 2D4A     		ldr	r2, .L305+52
 5647 092e A2FB0323 		umull	r2, r3, r2, r3
 5648 0932 9A0B     		lsrs	r2, r3, #14
 5649 0934 2A4B     		ldr	r3, .L305+48
 5650 0936 A3FB0213 		umull	r1, r3, r3, r2
 5651 093a 5909     		lsrs	r1, r3, #5
 5652 093c 0B46     		mov	r3, r1
 5653 093e 1B01     		lsls	r3, r3, #4
 5654 0940 5B1A     		subs	r3, r3, r1
 5655 0942 9B00     		lsls	r3, r3, #2
 5656 0944 D31A     		subs	r3, r2, r3
 5657 0946 C7F81032 		str	r3, [r7, #528]
ARM GAS  C:\Users\JENNEW~1\AppData\Local\Temp\ccHH9OS0.s 			page 131


1098:main.c        ****             uint32 hr_part  =  ms_total / 3600000u;
 5658              		.loc 1 1098 0
 5659 094a D7F81832 		ldr	r3, [r7, #536]
 5660 094e 264A     		ldr	r2, .L305+56
 5661 0950 A2FB0323 		umull	r2, r3, r2, r3
 5662 0954 5B0D     		lsrs	r3, r3, #21
 5663 0956 C7F80C32 		str	r3, [r7, #524]
1099:main.c        ****             sprintf(tx, "  %02lu:%02lu:%02lu\r\n",
 5664              		.loc 1 1099 0
 5665 095a 07F5B070 		add	r0, r7, #352
 5666 095e D7F81432 		ldr	r3, [r7, #532]
 5667 0962 0093     		str	r3, [sp]
 5668 0964 D7F81032 		ldr	r3, [r7, #528]
 5669 0968 D7F80C22 		ldr	r2, [r7, #524]
 5670 096c 1F49     		ldr	r1, .L305+60
 5671 096e FFF7FEFF 		bl	sprintf
1100:main.c        ****                     (unsigned long)hr_part,
1101:main.c        ****                     (unsigned long)min_part,
1102:main.c        ****                     (unsigned long)sec_part);
1103:main.c        ****             UART_1_PutString(tx);
 5672              		.loc 1 1103 0
 5673 0972 07F5B073 		add	r3, r7, #352
 5674 0976 1846     		mov	r0, r3
 5675 0978 FFF7FEFF 		bl	UART_1_PutString
1104:main.c        **** 
1105:main.c        ****             /* Serial stats */
1106:main.c        ****             movi_statistics_t s;
1107:main.c        ****             movi_comm_get_statistics(&g_movi, &s);
 5676              		.loc 1 1107 0
 5677 097c 07F58A73 		add	r3, r7, #276
 5678 0980 1946     		mov	r1, r3
 5679 0982 0B48     		ldr	r0, .L305
 5680 0984 FFF7FEFF 		bl	movi_comm_get_statistics
1108:main.c        ****             sprintf(tx,
1109:main.c        ****                 "[Serial]    TX:%lu RX:%lu | csum:%lu err:0x%02X | COMMS:ON JOYSTICK:%s\r\n",
1110:main.c        ****                 (unsigned long)s.tx_packets,
 5681              		.loc 1 1110 0
 5682 0988 07F58A73 		add	r3, r7, #276
 5683 098c 1968     		ldr	r1, [r3]
1111:main.c        ****                 (unsigned long)s.rx_packets,
 5684              		.loc 1 1111 0
 5685 098e 07F58A73 		add	r3, r7, #276
 5686 0992 9C68     		ldr	r4, [r3, #8]
1112:main.c        ****                 (unsigned long)s.rx_bad_checksum,
 5687              		.loc 1 1112 0
 5688 0994 07F58A73 		add	r3, r7, #276
 5689 0998 DB68     		ldr	r3, [r3, #12]
1113:main.c        ****                 (unsigned)s.uart_err_flags,
 5690              		.loc 1 1113 0
 5691 099a 07F58A72 		add	r2, r7, #276
 5692 099e 927D     		ldrb	r2, [r2, #22]	@ zero_extendqisi2
1108:main.c        ****                 "[Serial]    TX:%lu RX:%lu | csum:%lu err:0x%02X | COMMS:ON JOYSTICK:%s\r\n",
 5693              		.loc 1 1108 0
 5694 09a0 1546     		mov	r5, r2
1114:main.c        ****                 joystick_active ? "ON " : "OFF");
 5695              		.loc 1 1114 0
 5696 09a2 97F85E21 		ldrb	r2, [r7, #350]	@ zero_extendqisi2
ARM GAS  C:\Users\JENNEW~1\AppData\Local\Temp\ccHH9OS0.s 			page 132


1108:main.c        ****                 "[Serial]    TX:%lu RX:%lu | csum:%lu err:0x%02X | COMMS:ON JOYSTICK:%s\r\n",
 5697              		.loc 1 1108 0
 5698 09a6 002A     		cmp	r2, #0
 5699 09a8 24D0     		beq	.L295
1108:main.c        ****                 "[Serial]    TX:%lu RX:%lu | csum:%lu err:0x%02X | COMMS:ON JOYSTICK:%s\r\n",
 5700              		.loc 1 1108 0 is_stmt 0 discriminator 1
 5701 09aa 114A     		ldr	r2, .L305+64
 5702 09ac 23E0     		b	.L296
 5703              	.L306:
 5704 09ae 00BF     		.align	2
 5705              	.L305:
 5706 09b0 00000000 		.word	g_movi
 5707 09b4 00000000 		.word	g_tick_ms
 5708 09b8 6C140000 		.word	.LC106
 5709 09bc A0140000 		.word	.LC107
 5710 09c0 56555555 		.word	1431655766
 5711 09c4 DC140000 		.word	.LC108
 5712 09c8 00007A44 		.word	1148846080
 5713 09cc F0140000 		.word	.LC109
 5714 09d0 20150000 		.word	.LC110
 5715 09d4 44020000 		.word	last_tx_ms.8489
 5716 09d8 48020000 		.word	last_diag_ms.8490
 5717 09dc D34D6210 		.word	274877907
 5718 09e0 89888888 		.word	-2004318071
 5719 09e4 73B2E745 		.word	1172812403
 5720 09e8 B17C2195 		.word	-1792967503
 5721 09ec 40150000 		.word	.LC111
 5722 09f0 58150000 		.word	.LC112
 5723              	.L295:
1108:main.c        ****                 "[Serial]    TX:%lu RX:%lu | csum:%lu err:0x%02X | COMMS:ON JOYSTICK:%s\r\n",
 5724              		.loc 1 1108 0 discriminator 2
 5725 09f4 A54A     		ldr	r2, .L307
 5726              	.L296:
1108:main.c        ****                 "[Serial]    TX:%lu RX:%lu | csum:%lu err:0x%02X | COMMS:ON JOYSTICK:%s\r\n",
 5727              		.loc 1 1108 0 discriminator 4
 5728 09f6 07F5B070 		add	r0, r7, #352
 5729 09fa 0292     		str	r2, [sp, #8]
 5730 09fc 0195     		str	r5, [sp, #4]
 5731 09fe 0093     		str	r3, [sp]
 5732 0a00 2346     		mov	r3, r4
 5733 0a02 0A46     		mov	r2, r1
 5734 0a04 A249     		ldr	r1, .L307+4
 5735 0a06 FFF7FEFF 		bl	sprintf
1115:main.c        ****             UART_1_PutString(tx);
 5736              		.loc 1 1115 0 is_stmt 1 discriminator 4
 5737 0a0a 07F5B073 		add	r3, r7, #352
 5738 0a0e 1846     		mov	r0, r3
 5739 0a10 FFF7FEFF 		bl	UART_1_PutString
1116:main.c        **** 
1117:main.c        ****             /* Gimbal attitude from quaternion (attr 287 auto-push) */
1118:main.c        ****             movi_status_t st;
1119:main.c        ****             movi_comm_get_status(&g_movi, &st);
 5740              		.loc 1 1119 0 discriminator 4
 5741 0a14 07F12003 		add	r3, r7, #32
 5742 0a18 1946     		mov	r1, r3
 5743 0a1a 9E48     		ldr	r0, .L307+8
 5744 0a1c FFF7FEFF 		bl	movi_comm_get_status
ARM GAS  C:\Users\JENNEW~1\AppData\Local\Temp\ccHH9OS0.s 			page 133


1120:main.c        **** 
1121:main.c        ****             if (st.valid)
 5745              		.loc 1 1121 0 discriminator 4
 5746 0a20 07F12003 		add	r3, r7, #32
 5747 0a24 1B78     		ldrb	r3, [r3]	@ zero_extendqisi2
 5748 0a26 002B     		cmp	r3, #0
 5749 0a28 00F0D780 		beq	.L297
 5750              	.LBB56:
1122:main.c        ****             {
1123:main.c        ****                 char pan_s, tilt_s, roll_s;
1124:main.c        ****                 int16 pan_i, pan_f, tilt_i, tilt_f, roll_i, roll_f;
1125:main.c        ****                 compute_euler_ints(&st,
 5751              		.loc 1 1125 0
 5752 0a2c 07F58174 		add	r4, r7, #258
 5753 0a30 07F58272 		add	r2, r7, #260
 5754 0a34 07F20911 		addw	r1, r7, #265
 5755 0a38 07F12000 		add	r0, r7, #32
 5756 0a3c 07F1FA03 		add	r3, r7, #250
 5757 0a40 0593     		str	r3, [sp, #20]
 5758 0a42 07F1FC03 		add	r3, r7, #252
 5759 0a46 0493     		str	r3, [sp, #16]
 5760 0a48 07F20713 		addw	r3, r7, #263
 5761 0a4c 0393     		str	r3, [sp, #12]
 5762 0a4e 07F1FE03 		add	r3, r7, #254
 5763 0a52 0293     		str	r3, [sp, #8]
 5764 0a54 07F58073 		add	r3, r7, #256
 5765 0a58 0193     		str	r3, [sp, #4]
 5766 0a5a 07F58473 		add	r3, r7, #264
 5767 0a5e 0093     		str	r3, [sp]
 5768 0a60 2346     		mov	r3, r4
 5769 0a62 FFF7FEFF 		bl	compute_euler_ints
1126:main.c        ****                     &pan_s,  &pan_i,  &pan_f,
1127:main.c        ****                     &tilt_s, &tilt_i, &tilt_f,
1128:main.c        ****                     &roll_s, &roll_i, &roll_f);
1129:main.c        **** 
1130:main.c        ****                 int16 vl_i = (int16)st.battery_left_v;
 5770              		.loc 1 1130 0
 5771 0a66 07F12003 		add	r3, r7, #32
 5772 0a6a 5B68     		ldr	r3, [r3, #4]	@ float
 5773 0a6c 1846     		mov	r0, r3
 5774 0a6e FFF7FEFF 		bl	__aeabi_f2iz
 5775 0a72 0346     		mov	r3, r0
 5776 0a74 A7F80A32 		strh	r3, [r7, #522]	@ movhi
1131:main.c        ****                 int16 vl_f = (int16)((st.battery_left_v  - (float)vl_i) * 10.0f);
 5777              		.loc 1 1131 0
 5778 0a78 07F12003 		add	r3, r7, #32
 5779 0a7c 5C68     		ldr	r4, [r3, #4]	@ float
 5780 0a7e B7F90A32 		ldrsh	r3, [r7, #522]
 5781 0a82 1846     		mov	r0, r3
 5782 0a84 FFF7FEFF 		bl	__aeabi_i2f
 5783 0a88 0346     		mov	r3, r0
 5784 0a8a 1946     		mov	r1, r3
 5785 0a8c 2046     		mov	r0, r4
 5786 0a8e FFF7FEFF 		bl	__aeabi_fsub
 5787 0a92 0346     		mov	r3, r0
 5788 0a94 8049     		ldr	r1, .L307+12
 5789 0a96 1846     		mov	r0, r3
ARM GAS  C:\Users\JENNEW~1\AppData\Local\Temp\ccHH9OS0.s 			page 134


 5790 0a98 FFF7FEFF 		bl	__aeabi_fmul
 5791 0a9c 0346     		mov	r3, r0
 5792 0a9e 1846     		mov	r0, r3
 5793 0aa0 FFF7FEFF 		bl	__aeabi_f2iz
 5794 0aa4 0346     		mov	r3, r0
 5795 0aa6 A7F80832 		strh	r3, [r7, #520]	@ movhi
1132:main.c        ****                 int16 vr_i = (int16)st.battery_right_v;
 5796              		.loc 1 1132 0
 5797 0aaa 07F12003 		add	r3, r7, #32
 5798 0aae 9B68     		ldr	r3, [r3, #8]	@ float
 5799 0ab0 1846     		mov	r0, r3
 5800 0ab2 FFF7FEFF 		bl	__aeabi_f2iz
 5801 0ab6 0346     		mov	r3, r0
 5802 0ab8 A7F80632 		strh	r3, [r7, #518]	@ movhi
1133:main.c        ****                 int16 vr_f = (int16)((st.battery_right_v - (float)vr_i) * 10.0f);
 5803              		.loc 1 1133 0
 5804 0abc 07F12003 		add	r3, r7, #32
 5805 0ac0 9C68     		ldr	r4, [r3, #8]	@ float
 5806 0ac2 B7F90632 		ldrsh	r3, [r7, #518]
 5807 0ac6 1846     		mov	r0, r3
 5808 0ac8 FFF7FEFF 		bl	__aeabi_i2f
 5809 0acc 0346     		mov	r3, r0
 5810 0ace 1946     		mov	r1, r3
 5811 0ad0 2046     		mov	r0, r4
 5812 0ad2 FFF7FEFF 		bl	__aeabi_fsub
 5813 0ad6 0346     		mov	r3, r0
 5814 0ad8 6F49     		ldr	r1, .L307+12
 5815 0ada 1846     		mov	r0, r3
 5816 0adc FFF7FEFF 		bl	__aeabi_fmul
 5817 0ae0 0346     		mov	r3, r0
 5818 0ae2 1846     		mov	r0, r3
 5819 0ae4 FFF7FEFF 		bl	__aeabi_f2iz
 5820 0ae8 0346     		mov	r3, r0
 5821 0aea A7F80432 		strh	r3, [r7, #516]	@ movhi
1134:main.c        **** 
1135:main.c        ****                 uint8 imu_err = (st.gimbal_status1 >> 6) & 0x01u;
 5822              		.loc 1 1135 0
 5823 0aee 07F12003 		add	r3, r7, #32
 5824 0af2 1B7F     		ldrb	r3, [r3, #28]	@ zero_extendqisi2
 5825 0af4 9B09     		lsrs	r3, r3, #6
 5826 0af6 DBB2     		uxtb	r3, r3
 5827 0af8 03F00103 		and	r3, r3, #1
 5828 0afc 87F80332 		strb	r3, [r7, #515]
1136:main.c        ****                 uint8 drv_err = (st.gimbal_status1 >> 4) & 0x01u;
 5829              		.loc 1 1136 0
 5830 0b00 07F12003 		add	r3, r7, #32
 5831 0b04 1B7F     		ldrb	r3, [r3, #28]	@ zero_extendqisi2
 5832 0b06 1B09     		lsrs	r3, r3, #4
 5833 0b08 DBB2     		uxtb	r3, r3
 5834 0b0a 03F00103 		and	r3, r3, #1
 5835 0b0e 87F80232 		strb	r3, [r7, #514]
1137:main.c        ****                 uint8 gbl_err = (st.gimbal_status2 >> 4) & 0x01u;
 5836              		.loc 1 1137 0
 5837 0b12 07F12003 		add	r3, r7, #32
 5838 0b16 5B7F     		ldrb	r3, [r3, #29]	@ zero_extendqisi2
 5839 0b18 1B09     		lsrs	r3, r3, #4
 5840 0b1a DBB2     		uxtb	r3, r3
ARM GAS  C:\Users\JENNEW~1\AppData\Local\Temp\ccHH9OS0.s 			page 135


 5841 0b1c 03F00103 		and	r3, r3, #1
 5842 0b20 87F80132 		strb	r3, [r7, #513]
1138:main.c        **** 
1139:main.c        ****                 sprintf(tx,
 5843              		.loc 1 1139 0
 5844 0b24 07F20913 		addw	r3, r7, #265
 5845 0b28 1B78     		ldrb	r3, [r3]	@ zero_extendqisi2
 5846 0b2a 9C46     		mov	ip, r3
 5847 0b2c 07F58273 		add	r3, r7, #260
 5848 0b30 B3F90030 		ldrsh	r3, [r3]
 5849 0b34 9846     		mov	r8, r3
 5850 0b36 07F58173 		add	r3, r7, #258
 5851 0b3a B3F90030 		ldrsh	r3, [r3]
 5852 0b3e FB61     		str	r3, [r7, #28]
 5853 0b40 07F58473 		add	r3, r7, #264
 5854 0b44 1B78     		ldrb	r3, [r3]	@ zero_extendqisi2
 5855 0b46 BB61     		str	r3, [r7, #24]
 5856 0b48 07F58073 		add	r3, r7, #256
 5857 0b4c B3F90030 		ldrsh	r3, [r3]
 5858 0b50 7B61     		str	r3, [r7, #20]
 5859 0b52 07F1FE03 		add	r3, r7, #254
 5860 0b56 B3F90030 		ldrsh	r3, [r3]
 5861 0b5a 3B61     		str	r3, [r7, #16]
 5862 0b5c 07F20713 		addw	r3, r7, #263
 5863 0b60 1B78     		ldrb	r3, [r3]	@ zero_extendqisi2
 5864 0b62 FB60     		str	r3, [r7, #12]
 5865 0b64 07F1FC03 		add	r3, r7, #252
 5866 0b68 B3F90030 		ldrsh	r3, [r3]
 5867 0b6c BB60     		str	r3, [r7, #8]
 5868 0b6e 07F1FA03 		add	r3, r7, #250
 5869 0b72 B3F90030 		ldrsh	r3, [r3]
 5870 0b76 7B60     		str	r3, [r7, #4]
 5871 0b78 B7F90A02 		ldrsh	r0, [r7, #522]
 5872 0b7c B7F90842 		ldrsh	r4, [r7, #520]
 5873 0b80 B7F90652 		ldrsh	r5, [r7, #518]
 5874 0b84 B7F90462 		ldrsh	r6, [r7, #516]
 5875 0b88 97F80312 		ldrb	r1, [r7, #515]	@ zero_extendqisi2
 5876 0b8c 97F80222 		ldrb	r2, [r7, #514]	@ zero_extendqisi2
 5877 0b90 97F80132 		ldrb	r3, [r7, #513]	@ zero_extendqisi2
 5878 0b94 07F5B07E 		add	lr, r7, #352
 5879 0b98 0D93     		str	r3, [sp, #52]
 5880 0b9a 0C92     		str	r2, [sp, #48]
 5881 0b9c 0B91     		str	r1, [sp, #44]
 5882 0b9e 0A96     		str	r6, [sp, #40]
 5883 0ba0 0995     		str	r5, [sp, #36]
 5884 0ba2 0894     		str	r4, [sp, #32]
 5885 0ba4 0790     		str	r0, [sp, #28]
 5886 0ba6 7A68     		ldr	r2, [r7, #4]
 5887 0ba8 0692     		str	r2, [sp, #24]
 5888 0baa BA68     		ldr	r2, [r7, #8]
 5889 0bac 0592     		str	r2, [sp, #20]
 5890 0bae FA68     		ldr	r2, [r7, #12]
 5891 0bb0 0492     		str	r2, [sp, #16]
 5892 0bb2 3A69     		ldr	r2, [r7, #16]
 5893 0bb4 0392     		str	r2, [sp, #12]
 5894 0bb6 7A69     		ldr	r2, [r7, #20]
 5895 0bb8 0292     		str	r2, [sp, #8]
ARM GAS  C:\Users\JENNEW~1\AppData\Local\Temp\ccHH9OS0.s 			page 136


 5896 0bba BA69     		ldr	r2, [r7, #24]
 5897 0bbc 0192     		str	r2, [sp, #4]
 5898 0bbe FB69     		ldr	r3, [r7, #28]
 5899 0bc0 0093     		str	r3, [sp]
 5900 0bc2 4346     		mov	r3, r8
 5901 0bc4 6246     		mov	r2, ip
 5902 0bc6 3549     		ldr	r1, .L307+16
 5903 0bc8 7046     		mov	r0, lr
 5904 0bca FFF7FEFF 		bl	sprintf
1140:main.c        ****                     "[Status]    Pan=%c%3d.%02d  Tilt=%c%3d.%02d  Roll=%c%3d.%02d"
1141:main.c        ****                     " | L=%2d.%1dV R=%2d.%1dV | IMU:%d DRV:%d ERR:%d\r\n",
1142:main.c        ****                     pan_s,  (int)pan_i,  (int)pan_f,
1143:main.c        ****                     tilt_s, (int)tilt_i, (int)tilt_f,
1144:main.c        ****                     roll_s, (int)roll_i, (int)roll_f,
1145:main.c        ****                     (int)vl_i, (int)vl_f,
1146:main.c        ****                     (int)vr_i, (int)vr_f,
1147:main.c        ****                     (int)imu_err, (int)drv_err, (int)gbl_err);
1148:main.c        ****                 UART_1_PutString(tx);
 5905              		.loc 1 1148 0
 5906 0bce 07F5B073 		add	r3, r7, #352
 5907 0bd2 1846     		mov	r0, r3
 5908 0bd4 FFF7FEFF 		bl	UART_1_PutString
 5909              	.LBE56:
 5910 0bd8 02E0     		b	.L298
 5911              	.L297:
1149:main.c        ****             }
1150:main.c        ****             else
1151:main.c        ****             {
1152:main.c        ****                 UART_1_PutString("[Status]    No valid frame yet\r\n");
 5912              		.loc 1 1152 0
 5913 0bda 3148     		ldr	r0, .L307+20
 5914 0bdc FFF7FEFF 		bl	UART_1_PutString
 5915              	.L298:
1153:main.c        ****             }
1154:main.c        **** 
1155:main.c        ****             /* Joystick */
1156:main.c        ****             char lr_s, ud_s;
1157:main.c        ****             int16 lr_i, lr_f, ud_i, ud_f;
1158:main.c        ****             decomp(cmd.u[CH_X], &lr_i, &lr_f, &lr_s);
 5916              		.loc 1 1158 0 discriminator 3
 5917 0be0 D7F85001 		ldr	r0, [r7, #336]	@ float
 5918 0be4 07F21313 		addw	r3, r7, #275
 5919 0be8 07F58772 		add	r2, r7, #270
 5920 0bec 07F58871 		add	r1, r7, #272
 5921 0bf0 FFF7FEFF 		bl	decomp
1159:main.c        ****             decomp(cmd.u[CH_Y], &ud_i, &ud_f, &ud_s);
 5922              		.loc 1 1159 0 discriminator 3
 5923 0bf4 D7F85401 		ldr	r0, [r7, #340]	@ float
 5924 0bf8 07F58973 		add	r3, r7, #274
 5925 0bfc 07F58572 		add	r2, r7, #266
 5926 0c00 07F58671 		add	r1, r7, #268
 5927 0c04 FFF7FEFF 		bl	decomp
1160:main.c        ****             sprintf(tx,
 5928              		.loc 1 1160 0 discriminator 3
 5929 0c08 07F21313 		addw	r3, r7, #275
 5930 0c0c 1B78     		ldrb	r3, [r3]	@ zero_extendqisi2
 5931 0c0e 9846     		mov	r8, r3
ARM GAS  C:\Users\JENNEW~1\AppData\Local\Temp\ccHH9OS0.s 			page 137


 5932 0c10 07F58873 		add	r3, r7, #272
 5933 0c14 B3F90030 		ldrsh	r3, [r3]
 5934 0c18 9946     		mov	r9, r3
 5935 0c1a 07F58773 		add	r3, r7, #270
 5936 0c1e B3F90030 		ldrsh	r3, [r3]
 5937 0c22 1C46     		mov	r4, r3
 5938 0c24 97F85C31 		ldrb	r3, [r7, #348]	@ zero_extendqisi2
 5939 0c28 1846     		mov	r0, r3
 5940 0c2a FFF7FEFF 		bl	mode_to_str
 5941 0c2e 0546     		mov	r5, r0
 5942 0c30 07F58973 		add	r3, r7, #274
 5943 0c34 1B78     		ldrb	r3, [r3]	@ zero_extendqisi2
 5944 0c36 1E46     		mov	r6, r3
 5945 0c38 07F58673 		add	r3, r7, #268
 5946 0c3c B3F90030 		ldrsh	r3, [r3]
 5947 0c40 FB61     		str	r3, [r7, #28]
 5948 0c42 07F58573 		add	r3, r7, #266
 5949 0c46 B3F90030 		ldrsh	r3, [r3]
 5950 0c4a BB61     		str	r3, [r7, #24]
 5951 0c4c 97F85C31 		ldrb	r3, [r7, #348]	@ zero_extendqisi2
 5952 0c50 1846     		mov	r0, r3
 5953 0c52 FFF7FEFF 		bl	mode_to_str
 5954 0c56 0346     		mov	r3, r0
 5955 0c58 07F5B070 		add	r0, r7, #352
 5956 0c5c 0593     		str	r3, [sp, #20]
 5957 0c5e BA69     		ldr	r2, [r7, #24]
 5958 0c60 0492     		str	r2, [sp, #16]
 5959 0c62 FB69     		ldr	r3, [r7, #28]
 5960 0c64 0393     		str	r3, [sp, #12]
 5961 0c66 0296     		str	r6, [sp, #8]
 5962 0c68 0195     		str	r5, [sp, #4]
 5963 0c6a 0094     		str	r4, [sp]
 5964 0c6c 4B46     		mov	r3, r9
 5965 0c6e 4246     		mov	r2, r8
 5966 0c70 0C49     		ldr	r1, .L307+24
 5967 0c72 FFF7FEFF 		bl	sprintf
1161:main.c        ****                 "[Joystick]  L/R=%c%d.%02d (%s)  U/D=%c%d.%02d (%s)\r\n",
1162:main.c        ****                 lr_s, (int)lr_i, (int)lr_f, mode_to_str(ctrl_mode),
1163:main.c        ****                 ud_s, (int)ud_i, (int)ud_f, mode_to_str(ctrl_mode));
1164:main.c        ****             UART_1_PutString(tx);
 5968              		.loc 1 1164 0 discriminator 3
 5969 0c76 07F5B073 		add	r3, r7, #352
 5970 0c7a 1846     		mov	r0, r3
 5971 0c7c FFF7FEFF 		bl	UART_1_PutString
1165:main.c        **** 
1166:main.c        ****             /* Clear error flags */
1167:main.c        ****             g_movi.statistics.uart_err_flags = 0u;
 5972              		.loc 1 1167 0 discriminator 3
 5973 0c80 044B     		ldr	r3, .L307+8
 5974 0c82 0022     		movs	r2, #0
 5975 0c84 83F80A21 		strb	r2, [r3, #266]
 5976              	.LBE55:
 5977              	.LBE46:
1168:main.c        ****         }
1169:main.c        ****     }
 5978              		.loc 1 1169 0 discriminator 3
 5979 0c88 FFF74FBA 		b	.L299
ARM GAS  C:\Users\JENNEW~1\AppData\Local\Temp\ccHH9OS0.s 			page 138


 5980              	.L308:
 5981              		.align	2
 5982              	.L307:
 5983 0c8c 5C150000 		.word	.LC113
 5984 0c90 60150000 		.word	.LC114
 5985 0c94 00000000 		.word	g_movi
 5986 0c98 00002041 		.word	1092616192
 5987 0c9c AC150000 		.word	.LC115
 5988 0ca0 1C160000 		.word	.LC116
 5989 0ca4 40160000 		.word	.LC117
 5990              		.cfi_endproc
 5991              	.LFE79:
 5992              		.size	main, .-main
 5993              		.bss
 5994              		.align	2
 5995              	last_tx_ms.8489:
 5996 0244 00000000 		.space	4
 5997              		.align	2
 5998              	last_diag_ms.8490:
 5999 0248 00000000 		.space	4
 6000              		.text
 6001              	.Letext0:
 6002              		.file 2 "c:\\program files (x86)\\cypress\\psoc creator\\4.4\\psoc creator\\import\\gnu\\arm\\5.4.
 6003              		.file 3 "c:\\program files (x86)\\cypress\\psoc creator\\4.4\\psoc creator\\import\\gnu\\arm\\5.4.
 6004              		.file 4 "Generated_Source\\PSoC5/cytypes.h"
 6005              		.file 5 "joystick.h"
 6006              		.file 6 "movi_comm.h"
 6007              		.file 7 "QX_App_Config.h"
 6008              		.file 8 "QX_Protocol_App.h"
 6009              		.file 9 "movi_rb.h"
 6010              		.file 10 "Generated_Source\\PSoC5/core_cm3.h"
 6011              		.section	.debug_info,"",%progbits
 6012              	.Ldebug_info0:
 6013 0000 6E1A0000 		.4byte	0x1a6e
 6014 0004 0400     		.2byte	0x4
 6015 0006 00000000 		.4byte	.Ldebug_abbrev0
 6016 000a 04       		.byte	0x4
 6017 000b 01       		.uleb128 0x1
 6018 000c 47050000 		.4byte	.LASF265
 6019 0010 0C       		.byte	0xc
 6020 0011 46060000 		.4byte	.LASF266
 6021 0015 08080000 		.4byte	.LASF267
 6022 0019 00000000 		.4byte	.Ldebug_ranges0+0
 6023 001d 00000000 		.4byte	0
 6024 0021 00000000 		.4byte	.Ldebug_line0
 6025 0025 02       		.uleb128 0x2
 6026 0026 01       		.byte	0x1
 6027 0027 06       		.byte	0x6
 6028 0028 D9010000 		.4byte	.LASF0
 6029 002c 03       		.uleb128 0x3
 6030 002d FA000000 		.4byte	.LASF2
 6031 0031 02       		.byte	0x2
 6032 0032 1D       		.byte	0x1d
 6033 0033 37000000 		.4byte	0x37
 6034 0037 02       		.uleb128 0x2
 6035 0038 01       		.byte	0x1
 6036 0039 08       		.byte	0x8
ARM GAS  C:\Users\JENNEW~1\AppData\Local\Temp\ccHH9OS0.s 			page 139


 6037 003a 27020000 		.4byte	.LASF1
 6038 003e 03       		.uleb128 0x3
 6039 003f B7090000 		.4byte	.LASF3
 6040 0043 02       		.byte	0x2
 6041 0044 29       		.byte	0x29
 6042 0045 49000000 		.4byte	0x49
 6043 0049 02       		.uleb128 0x2
 6044 004a 02       		.byte	0x2
 6045 004b 05       		.byte	0x5
 6046 004c 930A0000 		.4byte	.LASF4
 6047 0050 03       		.uleb128 0x3
 6048 0051 8B020000 		.4byte	.LASF5
 6049 0055 02       		.byte	0x2
 6050 0056 2B       		.byte	0x2b
 6051 0057 5B000000 		.4byte	0x5b
 6052 005b 02       		.uleb128 0x2
 6053 005c 02       		.byte	0x2
 6054 005d 07       		.byte	0x7
 6055 005e A90B0000 		.4byte	.LASF6
 6056 0062 03       		.uleb128 0x3
 6057 0063 D40B0000 		.4byte	.LASF7
 6058 0067 02       		.byte	0x2
 6059 0068 3F       		.byte	0x3f
 6060 0069 6D000000 		.4byte	0x6d
 6061 006d 02       		.uleb128 0x2
 6062 006e 04       		.byte	0x4
 6063 006f 05       		.byte	0x5
 6064 0070 5D010000 		.4byte	.LASF8
 6065 0074 03       		.uleb128 0x3
 6066 0075 E1050000 		.4byte	.LASF9
 6067 0079 02       		.byte	0x2
 6068 007a 41       		.byte	0x41
 6069 007b 7F000000 		.4byte	0x7f
 6070 007f 02       		.uleb128 0x2
 6071 0080 04       		.byte	0x4
 6072 0081 07       		.byte	0x7
 6073 0082 14040000 		.4byte	.LASF10
 6074 0086 02       		.uleb128 0x2
 6075 0087 08       		.byte	0x8
 6076 0088 05       		.byte	0x5
 6077 0089 F6050000 		.4byte	.LASF11
 6078 008d 02       		.uleb128 0x2
 6079 008e 08       		.byte	0x8
 6080 008f 07       		.byte	0x7
 6081 0090 DF080000 		.4byte	.LASF12
 6082 0094 04       		.uleb128 0x4
 6083 0095 04       		.byte	0x4
 6084 0096 05       		.byte	0x5
 6085 0097 696E7400 		.ascii	"int\000"
 6086 009b 02       		.uleb128 0x2
 6087 009c 04       		.byte	0x4
 6088 009d 07       		.byte	0x7
 6089 009e F3060000 		.4byte	.LASF13
 6090 00a2 03       		.uleb128 0x3
 6091 00a3 E5010000 		.4byte	.LASF14
 6092 00a7 03       		.byte	0x3
 6093 00a8 18       		.byte	0x18
ARM GAS  C:\Users\JENNEW~1\AppData\Local\Temp\ccHH9OS0.s 			page 140


 6094 00a9 2C000000 		.4byte	0x2c
 6095 00ad 03       		.uleb128 0x3
 6096 00ae B30A0000 		.4byte	.LASF15
 6097 00b2 03       		.byte	0x3
 6098 00b3 20       		.byte	0x20
 6099 00b4 3E000000 		.4byte	0x3e
 6100 00b8 03       		.uleb128 0x3
 6101 00b9 1A090000 		.4byte	.LASF16
 6102 00bd 03       		.byte	0x3
 6103 00be 24       		.byte	0x24
 6104 00bf 50000000 		.4byte	0x50
 6105 00c3 03       		.uleb128 0x3
 6106 00c4 69000000 		.4byte	.LASF17
 6107 00c8 03       		.byte	0x3
 6108 00c9 2C       		.byte	0x2c
 6109 00ca 62000000 		.4byte	0x62
 6110 00ce 03       		.uleb128 0x3
 6111 00cf 4B0B0000 		.4byte	.LASF18
 6112 00d3 03       		.byte	0x3
 6113 00d4 30       		.byte	0x30
 6114 00d5 74000000 		.4byte	0x74
 6115 00d9 05       		.uleb128 0x5
 6116 00da 760A0000 		.4byte	.LASF19
 6117 00de 04       		.byte	0x4
 6118 00df E901     		.2byte	0x1e9
 6119 00e1 37000000 		.4byte	0x37
 6120 00e5 05       		.uleb128 0x5
 6121 00e6 2A0C0000 		.4byte	.LASF20
 6122 00ea 04       		.byte	0x4
 6123 00eb EA01     		.2byte	0x1ea
 6124 00ed 5B000000 		.4byte	0x5b
 6125 00f1 05       		.uleb128 0x5
 6126 00f2 7B000000 		.4byte	.LASF21
 6127 00f6 04       		.byte	0x4
 6128 00f7 EB01     		.2byte	0x1eb
 6129 00f9 7F000000 		.4byte	0x7f
 6130 00fd 05       		.uleb128 0x5
 6131 00fe 150B0000 		.4byte	.LASF22
 6132 0102 04       		.byte	0x4
 6133 0103 ED01     		.2byte	0x1ed
 6134 0105 49000000 		.4byte	0x49
 6135 0109 05       		.uleb128 0x5
 6136 010a C90B0000 		.4byte	.LASF23
 6137 010e 04       		.byte	0x4
 6138 010f EE01     		.2byte	0x1ee
 6139 0111 6D000000 		.4byte	0x6d
 6140 0115 02       		.uleb128 0x2
 6141 0116 04       		.byte	0x4
 6142 0117 04       		.byte	0x4
 6143 0118 D0060000 		.4byte	.LASF24
 6144 011c 02       		.uleb128 0x2
 6145 011d 08       		.byte	0x8
 6146 011e 04       		.byte	0x4
 6147 011f 3F060000 		.4byte	.LASF25
 6148 0123 02       		.uleb128 0x2
 6149 0124 01       		.byte	0x1
 6150 0125 08       		.byte	0x8
ARM GAS  C:\Users\JENNEW~1\AppData\Local\Temp\ccHH9OS0.s 			page 141


 6151 0126 66020000 		.4byte	.LASF26
 6152 012a 05       		.uleb128 0x5
 6153 012b 9C090000 		.4byte	.LASF27
 6154 012f 04       		.byte	0x4
 6155 0130 9302     		.2byte	0x293
 6156 0132 36010000 		.4byte	0x136
 6157 0136 06       		.uleb128 0x6
 6158 0137 D9000000 		.4byte	0xd9
 6159 013b 06       		.uleb128 0x6
 6160 013c F1000000 		.4byte	0xf1
 6161 0140 02       		.uleb128 0x2
 6162 0141 08       		.byte	0x8
 6163 0142 04       		.byte	0x4
 6164 0143 D7070000 		.4byte	.LASF28
 6165 0147 02       		.uleb128 0x2
 6166 0148 04       		.byte	0x4
 6167 0149 07       		.byte	0x7
 6168 014a 2D000000 		.4byte	.LASF29
 6169 014e 07       		.uleb128 0x7
 6170 014f 04       		.byte	0x4
 6171 0150 08       		.uleb128 0x8
 6172 0151 04       		.byte	0x4
 6173 0152 23010000 		.4byte	0x123
 6174 0156 08       		.uleb128 0x8
 6175 0157 04       		.byte	0x4
 6176 0158 5C010000 		.4byte	0x15c
 6177 015c 09       		.uleb128 0x9
 6178 015d 23010000 		.4byte	0x123
 6179 0161 06       		.uleb128 0x6
 6180 0162 A2000000 		.4byte	0xa2
 6181 0166 06       		.uleb128 0x6
 6182 0167 B8000000 		.4byte	0xb8
 6183 016b 0A       		.uleb128 0xa
 6184 016c 01       		.byte	0x1
 6185 016d 37000000 		.4byte	0x37
 6186 0171 05       		.byte	0x5
 6187 0172 38       		.byte	0x38
 6188 0173 8A010000 		.4byte	0x18a
 6189 0177 0B       		.uleb128 0xb
 6190 0178 D9040000 		.4byte	.LASF30
 6191 017c 00       		.byte	0
 6192 017d 0B       		.uleb128 0xb
 6193 017e 00030000 		.4byte	.LASF31
 6194 0182 01       		.byte	0x1
 6195 0183 0B       		.uleb128 0xb
 6196 0184 5F070000 		.4byte	.LASF32
 6197 0188 02       		.byte	0x2
 6198 0189 00       		.byte	0
 6199 018a 03       		.uleb128 0x3
 6200 018b 8E070000 		.4byte	.LASF33
 6201 018f 05       		.byte	0x5
 6202 0190 3C       		.byte	0x3c
 6203 0191 6B010000 		.4byte	0x16b
 6204 0195 0C       		.uleb128 0xc
 6205 0196 0E       		.byte	0xe
 6206 0197 05       		.byte	0x5
 6207 0198 40       		.byte	0x40
ARM GAS  C:\Users\JENNEW~1\AppData\Local\Temp\ccHH9OS0.s 			page 142


 6208 0199 CE010000 		.4byte	0x1ce
 6209 019d 0D       		.uleb128 0xd
 6210 019e CF0B0000 		.4byte	.LASF34
 6211 01a2 05       		.byte	0x5
 6212 01a3 41       		.byte	0x41
 6213 01a4 CE010000 		.4byte	0x1ce
 6214 01a8 00       		.byte	0
 6215 01a9 0D       		.uleb128 0xd
 6216 01aa 96080000 		.4byte	.LASF35
 6217 01ae 05       		.byte	0x5
 6218 01af 42       		.byte	0x42
 6219 01b0 CE010000 		.4byte	0x1ce
 6220 01b4 04       		.byte	0x4
 6221 01b5 0D       		.uleb128 0xd
 6222 01b6 DF020000 		.4byte	.LASF36
 6223 01ba 05       		.byte	0x5
 6224 01bb 43       		.byte	0x43
 6225 01bc CE010000 		.4byte	0x1ce
 6226 01c0 08       		.byte	0x8
 6227 01c1 0D       		.uleb128 0xd
 6228 01c2 F20A0000 		.4byte	.LASF37
 6229 01c6 05       		.byte	0x5
 6230 01c7 44       		.byte	0x44
 6231 01c8 D9000000 		.4byte	0xd9
 6232 01cc 0C       		.byte	0xc
 6233 01cd 00       		.byte	0
 6234 01ce 0E       		.uleb128 0xe
 6235 01cf FD000000 		.4byte	0xfd
 6236 01d3 DE010000 		.4byte	0x1de
 6237 01d7 0F       		.uleb128 0xf
 6238 01d8 47010000 		.4byte	0x147
 6239 01dc 01       		.byte	0x1
 6240 01dd 00       		.byte	0
 6241 01de 03       		.uleb128 0x3
 6242 01df 71000000 		.4byte	.LASF38
 6243 01e3 05       		.byte	0x5
 6244 01e4 45       		.byte	0x45
 6245 01e5 95010000 		.4byte	0x195
 6246 01e9 0A       		.uleb128 0xa
 6247 01ea 01       		.byte	0x1
 6248 01eb 37000000 		.4byte	0x37
 6249 01ef 05       		.byte	0x5
 6250 01f0 48       		.byte	0x48
 6251 01f1 0E020000 		.4byte	0x20e
 6252 01f5 0B       		.uleb128 0xb
 6253 01f6 F60B0000 		.4byte	.LASF39
 6254 01fa 00       		.byte	0
 6255 01fb 0B       		.uleb128 0xb
 6256 01fc 67040000 		.4byte	.LASF40
 6257 0200 01       		.byte	0x1
 6258 0201 0B       		.uleb128 0xb
 6259 0202 9B080000 		.4byte	.LASF41
 6260 0206 02       		.byte	0x2
 6261 0207 0B       		.uleb128 0xb
 6262 0208 00000000 		.4byte	.LASF42
 6263 020c 03       		.byte	0x3
 6264 020d 00       		.byte	0
ARM GAS  C:\Users\JENNEW~1\AppData\Local\Temp\ccHH9OS0.s 			page 143


 6265 020e 03       		.uleb128 0x3
 6266 020f 8B0B0000 		.4byte	.LASF43
 6267 0213 05       		.byte	0x5
 6268 0214 4D       		.byte	0x4d
 6269 0215 E9010000 		.4byte	0x1e9
 6270 0219 0C       		.uleb128 0xc
 6271 021a 08       		.byte	0x8
 6272 021b 05       		.byte	0x5
 6273 021c 50       		.byte	0x50
 6274 021d 2C020000 		.4byte	0x22c
 6275 0221 10       		.uleb128 0x10
 6276 0222 7500     		.ascii	"u\000"
 6277 0224 05       		.byte	0x5
 6278 0225 51       		.byte	0x51
 6279 0226 2C020000 		.4byte	0x22c
 6280 022a 00       		.byte	0
 6281 022b 00       		.byte	0
 6282 022c 0E       		.uleb128 0xe
 6283 022d 15010000 		.4byte	0x115
 6284 0231 3C020000 		.4byte	0x23c
 6285 0235 0F       		.uleb128 0xf
 6286 0236 47010000 		.4byte	0x147
 6287 023a 01       		.byte	0x1
 6288 023b 00       		.byte	0
 6289 023c 03       		.uleb128 0x3
 6290 023d EC050000 		.4byte	.LASF44
 6291 0241 05       		.byte	0x5
 6292 0242 52       		.byte	0x52
 6293 0243 19020000 		.4byte	0x219
 6294 0247 0A       		.uleb128 0xa
 6295 0248 01       		.byte	0x1
 6296 0249 37000000 		.4byte	0x37
 6297 024d 06       		.byte	0x6
 6298 024e 1D       		.byte	0x1d
 6299 024f 66020000 		.4byte	0x266
 6300 0253 0B       		.uleb128 0xb
 6301 0254 EE0B0000 		.4byte	.LASF45
 6302 0258 00       		.byte	0
 6303 0259 0B       		.uleb128 0xb
 6304 025a F6010000 		.4byte	.LASF46
 6305 025e 01       		.byte	0x1
 6306 025f 0B       		.uleb128 0xb
 6307 0260 04020000 		.4byte	.LASF47
 6308 0264 02       		.byte	0x2
 6309 0265 00       		.byte	0
 6310 0266 03       		.uleb128 0x3
 6311 0267 7D020000 		.4byte	.LASF48
 6312 026b 06       		.byte	0x6
 6313 026c 21       		.byte	0x21
 6314 026d 47020000 		.4byte	0x247
 6315 0271 0C       		.uleb128 0xc
 6316 0272 08       		.byte	0x8
 6317 0273 06       		.byte	0x6
 6318 0274 23       		.byte	0x23
 6319 0275 92020000 		.4byte	0x292
 6320 0279 10       		.uleb128 0x10
 6321 027a 63747800 		.ascii	"ctx\000"
ARM GAS  C:\Users\JENNEW~1\AppData\Local\Temp\ccHH9OS0.s 			page 144


 6322 027e 06       		.byte	0x6
 6323 027f 24       		.byte	0x24
 6324 0280 4E010000 		.4byte	0x14e
 6325 0284 00       		.byte	0
 6326 0285 0D       		.uleb128 0xd
 6327 0286 BF040000 		.4byte	.LASF49
 6328 028a 06       		.byte	0x6
 6329 028b 25       		.byte	0x25
 6330 028c A2020000 		.4byte	0x2a2
 6331 0290 04       		.byte	0x4
 6332 0291 00       		.byte	0
 6333 0292 11       		.uleb128 0x11
 6334 0293 A2020000 		.4byte	0x2a2
 6335 0297 12       		.uleb128 0x12
 6336 0298 4E010000 		.4byte	0x14e
 6337 029c 12       		.uleb128 0x12
 6338 029d A2000000 		.4byte	0xa2
 6339 02a1 00       		.byte	0
 6340 02a2 08       		.uleb128 0x8
 6341 02a3 04       		.byte	0x4
 6342 02a4 92020000 		.4byte	0x292
 6343 02a8 03       		.uleb128 0x3
 6344 02a9 D3090000 		.4byte	.LASF50
 6345 02ad 06       		.byte	0x6
 6346 02ae 26       		.byte	0x26
 6347 02af 71020000 		.4byte	0x271
 6348 02b3 0A       		.uleb128 0xa
 6349 02b4 01       		.byte	0x1
 6350 02b5 37000000 		.4byte	0x37
 6351 02b9 07       		.byte	0x7
 6352 02ba 2F       		.byte	0x2f
 6353 02bb CC020000 		.4byte	0x2cc
 6354 02bf 0B       		.uleb128 0xb
 6355 02c0 CC080000 		.4byte	.LASF51
 6356 02c4 00       		.byte	0
 6357 02c5 0B       		.uleb128 0xb
 6358 02c6 5A060000 		.4byte	.LASF52
 6359 02ca 01       		.byte	0x1
 6360 02cb 00       		.byte	0
 6361 02cc 13       		.uleb128 0x13
 6362 02cd AE000000 		.4byte	.LASF268
 6363 02d1 01       		.byte	0x1
 6364 02d2 37000000 		.4byte	0x37
 6365 02d6 08       		.byte	0x8
 6366 02d7 4D       		.byte	0x4d
 6367 02d8 EF020000 		.4byte	0x2ef
 6368 02dc 0B       		.uleb128 0xb
 6369 02dd A4020000 		.4byte	.LASF53
 6370 02e1 00       		.byte	0
 6371 02e2 0B       		.uleb128 0xb
 6372 02e3 AF030000 		.4byte	.LASF54
 6373 02e7 01       		.byte	0x1
 6374 02e8 0B       		.uleb128 0xb
 6375 02e9 9B040000 		.4byte	.LASF55
 6376 02ed 02       		.byte	0x2
 6377 02ee 00       		.byte	0
 6378 02ef 03       		.uleb128 0x3
ARM GAS  C:\Users\JENNEW~1\AppData\Local\Temp\ccHH9OS0.s 			page 145


 6379 02f0 280A0000 		.4byte	.LASF56
 6380 02f4 08       		.byte	0x8
 6381 02f5 51       		.byte	0x51
 6382 02f6 CC020000 		.4byte	0x2cc
 6383 02fa 0C       		.uleb128 0xc
 6384 02fb 14       		.byte	0x14
 6385 02fc 06       		.byte	0x6
 6386 02fd 2A       		.byte	0x2a
 6387 02fe 63030000 		.4byte	0x363
 6388 0302 10       		.uleb128 0x10
 6389 0303 70616E00 		.ascii	"pan\000"
 6390 0307 06       		.byte	0x6
 6391 0308 2B       		.byte	0x2b
 6392 0309 15010000 		.4byte	0x115
 6393 030d 00       		.byte	0
 6394 030e 0D       		.uleb128 0xd
 6395 030f A6090000 		.4byte	.LASF57
 6396 0313 06       		.byte	0x6
 6397 0314 2C       		.byte	0x2c
 6398 0315 15010000 		.4byte	0x115
 6399 0319 04       		.byte	0x4
 6400 031a 0D       		.uleb128 0xd
 6401 031b BC0B0000 		.4byte	.LASF58
 6402 031f 06       		.byte	0x6
 6403 0320 2D       		.byte	0x2d
 6404 0321 15010000 		.4byte	0x115
 6405 0325 08       		.byte	0x8
 6406 0326 0D       		.uleb128 0xd
 6407 0327 C3080000 		.4byte	.LASF59
 6408 032b 06       		.byte	0x6
 6409 032c 2E       		.byte	0x2e
 6410 032d EF020000 		.4byte	0x2ef
 6411 0331 0C       		.byte	0xc
 6412 0332 0D       		.uleb128 0xd
 6413 0333 3E0A0000 		.4byte	.LASF60
 6414 0337 06       		.byte	0x6
 6415 0338 2F       		.byte	0x2f
 6416 0339 EF020000 		.4byte	0x2ef
 6417 033d 0D       		.byte	0xd
 6418 033e 0D       		.uleb128 0xd
 6419 033f 33070000 		.4byte	.LASF61
 6420 0343 06       		.byte	0x6
 6421 0344 30       		.byte	0x30
 6422 0345 EF020000 		.4byte	0x2ef
 6423 0349 0E       		.byte	0xe
 6424 034a 0D       		.uleb128 0xd
 6425 034b 26060000 		.4byte	.LASF62
 6426 034f 06       		.byte	0x6
 6427 0350 31       		.byte	0x31
 6428 0351 A2000000 		.4byte	0xa2
 6429 0355 0F       		.byte	0xf
 6430 0356 0D       		.uleb128 0xd
 6431 0357 030B0000 		.4byte	.LASF63
 6432 035b 06       		.byte	0x6
 6433 035c 32       		.byte	0x32
 6434 035d A2000000 		.4byte	0xa2
 6435 0361 10       		.byte	0x10
ARM GAS  C:\Users\JENNEW~1\AppData\Local\Temp\ccHH9OS0.s 			page 146


 6436 0362 00       		.byte	0
 6437 0363 03       		.uleb128 0x3
 6438 0364 08070000 		.4byte	.LASF64
 6439 0368 06       		.byte	0x6
 6440 0369 33       		.byte	0x33
 6441 036a FA020000 		.4byte	0x2fa
 6442 036e 0C       		.uleb128 0xc
 6443 036f D8       		.byte	0xd8
 6444 0370 06       		.byte	0x6
 6445 0371 35       		.byte	0x35
 6446 0372 5F060000 		.4byte	0x65f
 6447 0376 0D       		.uleb128 0xd
 6448 0377 F20A0000 		.4byte	.LASF37
 6449 037b 06       		.byte	0x6
 6450 037c 37       		.byte	0x37
 6451 037d 5F060000 		.4byte	0x65f
 6452 0381 00       		.byte	0
 6453 0382 0D       		.uleb128 0xd
 6454 0383 7C0B0000 		.4byte	.LASF65
 6455 0387 06       		.byte	0x6
 6456 0388 38       		.byte	0x38
 6457 0389 15010000 		.4byte	0x115
 6458 038d 04       		.byte	0x4
 6459 038e 0D       		.uleb128 0xd
 6460 038f F0020000 		.4byte	.LASF66
 6461 0393 06       		.byte	0x6
 6462 0394 39       		.byte	0x39
 6463 0395 15010000 		.4byte	0x115
 6464 0399 08       		.byte	0x8
 6465 039a 0D       		.uleb128 0xd
 6466 039b 1A010000 		.4byte	.LASF67
 6467 039f 06       		.byte	0x6
 6468 03a0 3B       		.byte	0x3b
 6469 03a1 15010000 		.4byte	0x115
 6470 03a5 0C       		.byte	0xc
 6471 03a6 0D       		.uleb128 0xd
 6472 03a7 E8000000 		.4byte	.LASF68
 6473 03ab 06       		.byte	0x6
 6474 03ac 3C       		.byte	0x3c
 6475 03ad 15010000 		.4byte	0x115
 6476 03b1 10       		.byte	0x10
 6477 03b2 0D       		.uleb128 0xd
 6478 03b3 F1000000 		.4byte	.LASF69
 6479 03b7 06       		.byte	0x6
 6480 03b8 3D       		.byte	0x3d
 6481 03b9 15010000 		.4byte	0x115
 6482 03bd 14       		.byte	0x14
 6483 03be 0D       		.uleb128 0xd
 6484 03bf 8B010000 		.4byte	.LASF70
 6485 03c3 06       		.byte	0x6
 6486 03c4 3E       		.byte	0x3e
 6487 03c5 15010000 		.4byte	0x115
 6488 03c9 18       		.byte	0x18
 6489 03ca 0D       		.uleb128 0xd
 6490 03cb 44070000 		.4byte	.LASF71
 6491 03cf 06       		.byte	0x6
 6492 03d0 3F       		.byte	0x3f
ARM GAS  C:\Users\JENNEW~1\AppData\Local\Temp\ccHH9OS0.s 			page 147


 6493 03d1 A2000000 		.4byte	0xa2
 6494 03d5 1C       		.byte	0x1c
 6495 03d6 0D       		.uleb128 0xd
 6496 03d7 15000000 		.4byte	.LASF72
 6497 03db 06       		.byte	0x6
 6498 03dc 40       		.byte	0x40
 6499 03dd A2000000 		.4byte	0xa2
 6500 03e1 1D       		.byte	0x1d
 6501 03e2 0D       		.uleb128 0xd
 6502 03e3 C0000000 		.4byte	.LASF73
 6503 03e7 06       		.byte	0x6
 6504 03e8 43       		.byte	0x43
 6505 03e9 5F060000 		.4byte	0x65f
 6506 03ed 1E       		.byte	0x1e
 6507 03ee 0D       		.uleb128 0xd
 6508 03ef 51010000 		.4byte	.LASF74
 6509 03f3 06       		.byte	0x6
 6510 03f4 44       		.byte	0x44
 6511 03f5 15010000 		.4byte	0x115
 6512 03f9 20       		.byte	0x20
 6513 03fa 0D       		.uleb128 0xd
 6514 03fb 190C0000 		.4byte	.LASF75
 6515 03ff 06       		.byte	0x6
 6516 0400 45       		.byte	0x45
 6517 0401 15010000 		.4byte	0x115
 6518 0405 24       		.byte	0x24
 6519 0406 0D       		.uleb128 0xd
 6520 0407 C8010000 		.4byte	.LASF76
 6521 040b 06       		.byte	0x6
 6522 040c 46       		.byte	0x46
 6523 040d 15010000 		.4byte	0x115
 6524 0411 28       		.byte	0x28
 6525 0412 0D       		.uleb128 0xd
 6526 0413 1B030000 		.4byte	.LASF77
 6527 0417 06       		.byte	0x6
 6528 0418 47       		.byte	0x47
 6529 0419 15010000 		.4byte	0x115
 6530 041d 2C       		.byte	0x2c
 6531 041e 0D       		.uleb128 0xd
 6532 041f 16060000 		.4byte	.LASF78
 6533 0423 06       		.byte	0x6
 6534 0424 48       		.byte	0x48
 6535 0425 15010000 		.4byte	0x115
 6536 0429 30       		.byte	0x30
 6537 042a 0D       		.uleb128 0xd
 6538 042b 48040000 		.4byte	.LASF79
 6539 042f 06       		.byte	0x6
 6540 0430 49       		.byte	0x49
 6541 0431 15010000 		.4byte	0x115
 6542 0435 34       		.byte	0x34
 6543 0436 0D       		.uleb128 0xd
 6544 0437 5C030000 		.4byte	.LASF80
 6545 043b 06       		.byte	0x6
 6546 043c 4A       		.byte	0x4a
 6547 043d 15010000 		.4byte	0x115
 6548 0441 38       		.byte	0x38
 6549 0442 0D       		.uleb128 0xd
ARM GAS  C:\Users\JENNEW~1\AppData\Local\Temp\ccHH9OS0.s 			page 148


 6550 0443 08040000 		.4byte	.LASF81
 6551 0447 06       		.byte	0x6
 6552 0448 4B       		.byte	0x4b
 6553 0449 15010000 		.4byte	0x115
 6554 044d 3C       		.byte	0x3c
 6555 044e 0D       		.uleb128 0xd
 6556 044f B3040000 		.4byte	.LASF82
 6557 0453 06       		.byte	0x6
 6558 0454 4D       		.byte	0x4d
 6559 0455 C3000000 		.4byte	0xc3
 6560 0459 40       		.byte	0x40
 6561 045a 0D       		.uleb128 0xd
 6562 045b 700B0000 		.4byte	.LASF83
 6563 045f 06       		.byte	0x6
 6564 0460 4E       		.byte	0x4e
 6565 0461 C3000000 		.4byte	0xc3
 6566 0465 44       		.byte	0x44
 6567 0466 0D       		.uleb128 0xd
 6568 0467 53070000 		.4byte	.LASF84
 6569 046b 06       		.byte	0x6
 6570 046c 4F       		.byte	0x4f
 6571 046d C3000000 		.4byte	0xc3
 6572 0471 48       		.byte	0x48
 6573 0472 0D       		.uleb128 0xd
 6574 0473 67030000 		.4byte	.LASF85
 6575 0477 06       		.byte	0x6
 6576 0478 50       		.byte	0x50
 6577 0479 AD000000 		.4byte	0xad
 6578 047d 4C       		.byte	0x4c
 6579 047e 0D       		.uleb128 0xd
 6580 047f AB090000 		.4byte	.LASF86
 6581 0483 06       		.byte	0x6
 6582 0484 51       		.byte	0x51
 6583 0485 AD000000 		.4byte	0xad
 6584 0489 4E       		.byte	0x4e
 6585 048a 0D       		.uleb128 0xd
 6586 048b B3000000 		.4byte	.LASF87
 6587 048f 06       		.byte	0x6
 6588 0490 52       		.byte	0x52
 6589 0491 AD000000 		.4byte	0xad
 6590 0495 50       		.byte	0x50
 6591 0496 0D       		.uleb128 0xd
 6592 0497 66010000 		.4byte	.LASF88
 6593 049b 06       		.byte	0x6
 6594 049c 53       		.byte	0x53
 6595 049d AD000000 		.4byte	0xad
 6596 04a1 52       		.byte	0x52
 6597 04a2 0D       		.uleb128 0xd
 6598 04a3 E9070000 		.4byte	.LASF89
 6599 04a7 06       		.byte	0x6
 6600 04a8 54       		.byte	0x54
 6601 04a9 AD000000 		.4byte	0xad
 6602 04ad 54       		.byte	0x54
 6603 04ae 0D       		.uleb128 0xd
 6604 04af F80A0000 		.4byte	.LASF90
 6605 04b3 06       		.byte	0x6
 6606 04b4 57       		.byte	0x57
ARM GAS  C:\Users\JENNEW~1\AppData\Local\Temp\ccHH9OS0.s 			page 149


 6607 04b5 5F060000 		.4byte	0x65f
 6608 04b9 56       		.byte	0x56
 6609 04ba 0D       		.uleb128 0xd
 6610 04bb 020C0000 		.4byte	.LASF91
 6611 04bf 06       		.byte	0x6
 6612 04c0 58       		.byte	0x58
 6613 04c1 15010000 		.4byte	0x115
 6614 04c5 58       		.byte	0x58
 6615 04c6 0D       		.uleb128 0xd
 6616 04c7 5F090000 		.4byte	.LASF92
 6617 04cb 06       		.byte	0x6
 6618 04cc 59       		.byte	0x59
 6619 04cd 15010000 		.4byte	0x115
 6620 04d1 5C       		.byte	0x5c
 6621 04d2 0D       		.uleb128 0xd
 6622 04d3 9F030000 		.4byte	.LASF93
 6623 04d7 06       		.byte	0x6
 6624 04d8 5F       		.byte	0x5f
 6625 04d9 5F060000 		.4byte	0x65f
 6626 04dd 60       		.byte	0x60
 6627 04de 0D       		.uleb128 0xd
 6628 04df 6B020000 		.4byte	.LASF94
 6629 04e3 06       		.byte	0x6
 6630 04e4 60       		.byte	0x60
 6631 04e5 15010000 		.4byte	0x115
 6632 04e9 64       		.byte	0x64
 6633 04ea 0D       		.uleb128 0xd
 6634 04eb 8A000000 		.4byte	.LASF95
 6635 04ef 06       		.byte	0x6
 6636 04f0 61       		.byte	0x61
 6637 04f1 15010000 		.4byte	0x115
 6638 04f5 68       		.byte	0x68
 6639 04f6 0D       		.uleb128 0xd
 6640 04f7 82070000 		.4byte	.LASF96
 6641 04fb 06       		.byte	0x6
 6642 04fc 62       		.byte	0x62
 6643 04fd 15010000 		.4byte	0x115
 6644 0501 6C       		.byte	0x6c
 6645 0502 0D       		.uleb128 0xd
 6646 0503 B2080000 		.4byte	.LASF97
 6647 0507 06       		.byte	0x6
 6648 0508 63       		.byte	0x63
 6649 0509 15010000 		.4byte	0x115
 6650 050d 70       		.byte	0x70
 6651 050e 0D       		.uleb128 0xd
 6652 050f 04060000 		.4byte	.LASF98
 6653 0513 06       		.byte	0x6
 6654 0514 64       		.byte	0x64
 6655 0515 15010000 		.4byte	0x115
 6656 0519 74       		.byte	0x74
 6657 051a 0D       		.uleb128 0xd
 6658 051b C9040000 		.4byte	.LASF99
 6659 051f 06       		.byte	0x6
 6660 0520 65       		.byte	0x65
 6661 0521 15010000 		.4byte	0x115
 6662 0525 78       		.byte	0x78
 6663 0526 0D       		.uleb128 0xd
ARM GAS  C:\Users\JENNEW~1\AppData\Local\Temp\ccHH9OS0.s 			page 150


 6664 0527 F6070000 		.4byte	.LASF100
 6665 052b 06       		.byte	0x6
 6666 052c 66       		.byte	0x66
 6667 052d 15010000 		.4byte	0x115
 6668 0531 7C       		.byte	0x7c
 6669 0532 0D       		.uleb128 0xd
 6670 0533 17050000 		.4byte	.LASF101
 6671 0537 06       		.byte	0x6
 6672 0538 67       		.byte	0x67
 6673 0539 15010000 		.4byte	0x115
 6674 053d 80       		.byte	0x80
 6675 053e 0D       		.uleb128 0xd
 6676 053f 0A030000 		.4byte	.LASF102
 6677 0543 06       		.byte	0x6
 6678 0544 68       		.byte	0x68
 6679 0545 15010000 		.4byte	0x115
 6680 0549 84       		.byte	0x84
 6681 054a 0D       		.uleb128 0xd
 6682 054b 51090000 		.4byte	.LASF103
 6683 054f 06       		.byte	0x6
 6684 0550 6C       		.byte	0x6c
 6685 0551 5F060000 		.4byte	0x65f
 6686 0555 88       		.byte	0x88
 6687 0556 0D       		.uleb128 0xd
 6688 0557 04010000 		.4byte	.LASF104
 6689 055b 06       		.byte	0x6
 6690 055c 6D       		.byte	0x6d
 6691 055d 15010000 		.4byte	0x115
 6692 0561 8C       		.byte	0x8c
 6693 0562 0D       		.uleb128 0xd
 6694 0563 8E030000 		.4byte	.LASF105
 6695 0567 06       		.byte	0x6
 6696 0568 6E       		.byte	0x6e
 6697 0569 A2000000 		.4byte	0xa2
 6698 056d 90       		.byte	0x90
 6699 056e 0D       		.uleb128 0xd
 6700 056f 94010000 		.4byte	.LASF106
 6701 0573 06       		.byte	0x6
 6702 0574 6F       		.byte	0x6f
 6703 0575 15010000 		.4byte	0x115
 6704 0579 94       		.byte	0x94
 6705 057a 0D       		.uleb128 0xd
 6706 057b DE0B0000 		.4byte	.LASF107
 6707 057f 06       		.byte	0x6
 6708 0580 70       		.byte	0x70
 6709 0581 A2000000 		.4byte	0xa2
 6710 0585 98       		.byte	0x98
 6711 0586 0D       		.uleb128 0xd
 6712 0587 F6080000 		.4byte	.LASF108
 6713 058b 06       		.byte	0x6
 6714 058c 71       		.byte	0x71
 6715 058d AD000000 		.4byte	0xad
 6716 0591 9A       		.byte	0x9a
 6717 0592 0D       		.uleb128 0xd
 6718 0593 3D030000 		.4byte	.LASF109
 6719 0597 06       		.byte	0x6
 6720 0598 72       		.byte	0x72
ARM GAS  C:\Users\JENNEW~1\AppData\Local\Temp\ccHH9OS0.s 			page 151


 6721 0599 AD000000 		.4byte	0xad
 6722 059d 9C       		.byte	0x9c
 6723 059e 0D       		.uleb128 0xd
 6724 059f 53040000 		.4byte	.LASF110
 6725 05a3 06       		.byte	0x6
 6726 05a4 73       		.byte	0x73
 6727 05a5 15010000 		.4byte	0x115
 6728 05a9 A0       		.byte	0xa0
 6729 05aa 0D       		.uleb128 0xd
 6730 05ab 73060000 		.4byte	.LASF111
 6731 05af 06       		.byte	0x6
 6732 05b0 74       		.byte	0x74
 6733 05b1 AD000000 		.4byte	0xad
 6734 05b5 A4       		.byte	0xa4
 6735 05b6 0D       		.uleb128 0xd
 6736 05b7 DE090000 		.4byte	.LASF112
 6737 05bb 06       		.byte	0x6
 6738 05bc 75       		.byte	0x75
 6739 05bd AD000000 		.4byte	0xad
 6740 05c1 A6       		.byte	0xa6
 6741 05c2 0D       		.uleb128 0xd
 6742 05c3 E3040000 		.4byte	.LASF113
 6743 05c7 06       		.byte	0x6
 6744 05c8 76       		.byte	0x76
 6745 05c9 AD000000 		.4byte	0xad
 6746 05cd A8       		.byte	0xa8
 6747 05ce 0D       		.uleb128 0xd
 6748 05cf D0000000 		.4byte	.LASF114
 6749 05d3 06       		.byte	0x6
 6750 05d4 77       		.byte	0x77
 6751 05d5 15010000 		.4byte	0x115
 6752 05d9 AC       		.byte	0xac
 6753 05da 0D       		.uleb128 0xd
 6754 05db 78010000 		.4byte	.LASF115
 6755 05df 06       		.byte	0x6
 6756 05e0 78       		.byte	0x78
 6757 05e1 AD000000 		.4byte	0xad
 6758 05e5 B0       		.byte	0xb0
 6759 05e6 0D       		.uleb128 0xd
 6760 05e7 D5020000 		.4byte	.LASF116
 6761 05eb 06       		.byte	0x6
 6762 05ec 7C       		.byte	0x7c
 6763 05ed 5F060000 		.4byte	0x65f
 6764 05f1 B2       		.byte	0xb2
 6765 05f2 0D       		.uleb128 0xd
 6766 05f3 70070000 		.4byte	.LASF117
 6767 05f7 06       		.byte	0x6
 6768 05f8 7D       		.byte	0x7d
 6769 05f9 15010000 		.4byte	0x115
 6770 05fd B4       		.byte	0xb4
 6771 05fe 0D       		.uleb128 0xd
 6772 05ff 76070000 		.4byte	.LASF118
 6773 0603 06       		.byte	0x6
 6774 0604 7E       		.byte	0x7e
 6775 0605 15010000 		.4byte	0x115
 6776 0609 B8       		.byte	0xb8
 6777 060a 0D       		.uleb128 0xd
ARM GAS  C:\Users\JENNEW~1\AppData\Local\Temp\ccHH9OS0.s 			page 152


 6778 060b 7C070000 		.4byte	.LASF119
 6779 060f 06       		.byte	0x6
 6780 0610 7F       		.byte	0x7f
 6781 0611 15010000 		.4byte	0x115
 6782 0615 BC       		.byte	0xbc
 6783 0616 0D       		.uleb128 0xd
 6784 0617 96020000 		.4byte	.LASF120
 6785 061b 06       		.byte	0x6
 6786 061c 80       		.byte	0x80
 6787 061d 15010000 		.4byte	0x115
 6788 0621 C0       		.byte	0xc0
 6789 0622 0D       		.uleb128 0xd
 6790 0623 A00B0000 		.4byte	.LASF121
 6791 0627 06       		.byte	0x6
 6792 0628 81       		.byte	0x81
 6793 0629 15010000 		.4byte	0x115
 6794 062d C4       		.byte	0xc4
 6795 062e 0D       		.uleb128 0xd
 6796 062f C8030000 		.4byte	.LASF122
 6797 0633 06       		.byte	0x6
 6798 0634 82       		.byte	0x82
 6799 0635 15010000 		.4byte	0x115
 6800 0639 C8       		.byte	0xc8
 6801 063a 0D       		.uleb128 0xd
 6802 063b D2030000 		.4byte	.LASF123
 6803 063f 06       		.byte	0x6
 6804 0640 83       		.byte	0x83
 6805 0641 15010000 		.4byte	0x115
 6806 0645 CC       		.byte	0xcc
 6807 0646 0D       		.uleb128 0xd
 6808 0647 DC030000 		.4byte	.LASF124
 6809 064b 06       		.byte	0x6
 6810 064c 84       		.byte	0x84
 6811 064d 15010000 		.4byte	0x115
 6812 0651 D0       		.byte	0xd0
 6813 0652 0D       		.uleb128 0xd
 6814 0653 D70A0000 		.4byte	.LASF125
 6815 0657 06       		.byte	0x6
 6816 0658 85       		.byte	0x85
 6817 0659 15010000 		.4byte	0x115
 6818 065d D4       		.byte	0xd4
 6819 065e 00       		.byte	0
 6820 065f 02       		.uleb128 0x2
 6821 0660 01       		.byte	0x1
 6822 0661 02       		.byte	0x2
 6823 0662 59020000 		.4byte	.LASF126
 6824 0666 03       		.uleb128 0x3
 6825 0667 F7040000 		.4byte	.LASF127
 6826 066b 06       		.byte	0x6
 6827 066c 86       		.byte	0x86
 6828 066d 6E030000 		.4byte	0x36e
 6829 0671 0C       		.uleb128 0xc
 6830 0672 18       		.byte	0x18
 6831 0673 06       		.byte	0x6
 6832 0674 88       		.byte	0x88
 6833 0675 CE060000 		.4byte	0x6ce
 6834 0679 0D       		.uleb128 0xd
ARM GAS  C:\Users\JENNEW~1\AppData\Local\Temp\ccHH9OS0.s 			page 153


 6835 067a 350B0000 		.4byte	.LASF128
 6836 067e 06       		.byte	0x6
 6837 067f 89       		.byte	0x89
 6838 0680 CE000000 		.4byte	0xce
 6839 0684 00       		.byte	0
 6840 0685 0D       		.uleb128 0xd
 6841 0686 36010000 		.4byte	.LASF129
 6842 068a 06       		.byte	0x6
 6843 068b 8A       		.byte	0x8a
 6844 068c CE000000 		.4byte	0xce
 6845 0690 04       		.byte	0x4
 6846 0691 0D       		.uleb128 0xd
 6847 0692 48020000 		.4byte	.LASF130
 6848 0696 06       		.byte	0x6
 6849 0697 8B       		.byte	0x8b
 6850 0698 CE000000 		.4byte	0xce
 6851 069c 08       		.byte	0x8
 6852 069d 0D       		.uleb128 0xd
 6853 069e 4C030000 		.4byte	.LASF131
 6854 06a2 06       		.byte	0x6
 6855 06a3 8C       		.byte	0x8c
 6856 06a4 CE000000 		.4byte	0xce
 6857 06a8 0C       		.byte	0xc
 6858 06a9 0D       		.uleb128 0xd
 6859 06aa C7060000 		.4byte	.LASF132
 6860 06ae 06       		.byte	0x6
 6861 06af 8D       		.byte	0x8d
 6862 06b0 CE000000 		.4byte	0xce
 6863 06b4 10       		.byte	0x10
 6864 06b5 0D       		.uleb128 0xd
 6865 06b6 A8070000 		.4byte	.LASF133
 6866 06ba 06       		.byte	0x6
 6867 06bb 8E       		.byte	0x8e
 6868 06bc B8000000 		.4byte	0xb8
 6869 06c0 14       		.byte	0x14
 6870 06c1 0D       		.uleb128 0xd
 6871 06c2 73030000 		.4byte	.LASF134
 6872 06c6 06       		.byte	0x6
 6873 06c7 8F       		.byte	0x8f
 6874 06c8 A2000000 		.4byte	0xa2
 6875 06cc 16       		.byte	0x16
 6876 06cd 00       		.byte	0
 6877 06ce 03       		.uleb128 0x3
 6878 06cf 3F010000 		.4byte	.LASF135
 6879 06d3 06       		.byte	0x6
 6880 06d4 90       		.byte	0x90
 6881 06d5 71060000 		.4byte	0x671
 6882 06d9 14       		.uleb128 0x14
 6883 06da 0601     		.2byte	0x106
 6884 06dc 09       		.byte	0x9
 6885 06dd 20       		.byte	0x20
 6886 06de 16070000 		.4byte	0x716
 6887 06e2 10       		.uleb128 0x10
 6888 06e3 62756600 		.ascii	"buf\000"
 6889 06e7 09       		.byte	0x9
 6890 06e8 21       		.byte	0x21
 6891 06e9 26070000 		.4byte	0x726
ARM GAS  C:\Users\JENNEW~1\AppData\Local\Temp\ccHH9OS0.s 			page 154


 6892 06ed 00       		.byte	0
 6893 06ee 15       		.uleb128 0x15
 6894 06ef AD010000 		.4byte	.LASF136
 6895 06f3 09       		.byte	0x9
 6896 06f4 22       		.byte	0x22
 6897 06f5 66010000 		.4byte	0x166
 6898 06f9 0001     		.2byte	0x100
 6899 06fb 15       		.uleb128 0x15
 6900 06fc 41000000 		.4byte	.LASF137
 6901 0700 09       		.byte	0x9
 6902 0701 23       		.byte	0x23
 6903 0702 66010000 		.4byte	0x166
 6904 0706 0201     		.2byte	0x102
 6905 0708 15       		.uleb128 0x15
 6906 0709 060A0000 		.4byte	.LASF138
 6907 070d 09       		.byte	0x9
 6908 070e 24       		.byte	0x24
 6909 070f 66010000 		.4byte	0x166
 6910 0713 0401     		.2byte	0x104
 6911 0715 00       		.byte	0
 6912 0716 0E       		.uleb128 0xe
 6913 0717 61010000 		.4byte	0x161
 6914 071b 26070000 		.4byte	0x726
 6915 071f 0F       		.uleb128 0xf
 6916 0720 47010000 		.4byte	0x147
 6917 0724 FF       		.byte	0xff
 6918 0725 00       		.byte	0
 6919 0726 06       		.uleb128 0x6
 6920 0727 16070000 		.4byte	0x716
 6921 072b 03       		.uleb128 0x3
 6922 072c 1B0B0000 		.4byte	.LASF139
 6923 0730 09       		.byte	0x9
 6924 0731 25       		.byte	0x25
 6925 0732 D9060000 		.4byte	0x6d9
 6926 0736 14       		.uleb128 0x14
 6927 0737 4002     		.2byte	0x240
 6928 0739 06       		.byte	0x6
 6929 073a 94       		.byte	0x94
 6930 073b D7070000 		.4byte	0x7d7
 6931 073f 10       		.uleb128 0x10
 6932 0740 68616C00 		.ascii	"hal\000"
 6933 0744 06       		.byte	0x6
 6934 0745 95       		.byte	0x95
 6935 0746 A8020000 		.4byte	0x2a8
 6936 074a 00       		.byte	0
 6937 074b 10       		.uleb128 0x10
 6938 074c 63746C00 		.ascii	"ctl\000"
 6939 0750 06       		.byte	0x6
 6940 0751 96       		.byte	0x96
 6941 0752 63030000 		.4byte	0x363
 6942 0756 08       		.byte	0x8
 6943 0757 0D       		.uleb128 0xd
 6944 0758 39040000 		.4byte	.LASF140
 6945 075c 06       		.byte	0x6
 6946 075d 97       		.byte	0x97
 6947 075e 66060000 		.4byte	0x666
 6948 0762 1C       		.byte	0x1c
ARM GAS  C:\Users\JENNEW~1\AppData\Local\Temp\ccHH9OS0.s 			page 155


 6949 0763 0D       		.uleb128 0xd
 6950 0764 E70A0000 		.4byte	.LASF141
 6951 0768 06       		.byte	0x6
 6952 0769 98       		.byte	0x98
 6953 076a CE060000 		.4byte	0x6ce
 6954 076e F4       		.byte	0xf4
 6955 076f 16       		.uleb128 0x16
 6956 0770 726200   		.ascii	"rb\000"
 6957 0773 06       		.byte	0x6
 6958 0774 99       		.byte	0x99
 6959 0775 2B070000 		.4byte	0x72b
 6960 0779 0C01     		.2byte	0x10c
 6961 077b 15       		.uleb128 0x15
 6962 077c 84080000 		.4byte	.LASF142
 6963 0780 06       		.byte	0x6
 6964 0781 9F       		.byte	0x9f
 6965 0782 B8000000 		.4byte	0xb8
 6966 0786 1202     		.2byte	0x212
 6967 0788 15       		.uleb128 0x15
 6968 0789 110A0000 		.4byte	.LASF143
 6969 078d 06       		.byte	0x6
 6970 078e A0       		.byte	0xa0
 6971 078f CE000000 		.4byte	0xce
 6972 0793 1402     		.2byte	0x214
 6973 0795 15       		.uleb128 0x15
 6974 0796 400C0000 		.4byte	.LASF144
 6975 079a 06       		.byte	0x6
 6976 079b A1       		.byte	0xa1
 6977 079c 5F060000 		.4byte	0x65f
 6978 07a0 1802     		.2byte	0x218
 6979 07a2 15       		.uleb128 0x15
 6980 07a3 C4070000 		.4byte	.LASF145
 6981 07a7 06       		.byte	0x6
 6982 07a8 A2       		.byte	0xa2
 6983 07a9 B8000000 		.4byte	0xb8
 6984 07ad 1A02     		.2byte	0x21a
 6985 07af 15       		.uleb128 0x15
 6986 07b0 640B0000 		.4byte	.LASF146
 6987 07b4 06       		.byte	0x6
 6988 07b5 A3       		.byte	0xa3
 6989 07b6 B8000000 		.4byte	0xb8
 6990 07ba 1C02     		.2byte	0x21c
 6991 07bc 15       		.uleb128 0x15
 6992 07bd 250B0000 		.4byte	.LASF147
 6993 07c1 06       		.byte	0x6
 6994 07c2 A9       		.byte	0xa9
 6995 07c3 D7070000 		.4byte	0x7d7
 6996 07c7 1E02     		.2byte	0x21e
 6997 07c9 15       		.uleb128 0x15
 6998 07ca 480A0000 		.4byte	.LASF148
 6999 07ce 06       		.byte	0x6
 7000 07cf AA       		.byte	0xaa
 7001 07d0 A2000000 		.4byte	0xa2
 7002 07d4 3E02     		.2byte	0x23e
 7003 07d6 00       		.byte	0
 7004 07d7 0E       		.uleb128 0xe
 7005 07d8 A2000000 		.4byte	0xa2
ARM GAS  C:\Users\JENNEW~1\AppData\Local\Temp\ccHH9OS0.s 			page 156


 7006 07dc E7070000 		.4byte	0x7e7
 7007 07e0 0F       		.uleb128 0xf
 7008 07e1 47010000 		.4byte	0x147
 7009 07e5 1F       		.byte	0x1f
 7010 07e6 00       		.byte	0
 7011 07e7 03       		.uleb128 0x3
 7012 07e8 3C020000 		.4byte	.LASF149
 7013 07ec 06       		.byte	0x6
 7014 07ed AB       		.byte	0xab
 7015 07ee 36070000 		.4byte	0x736
 7016 07f2 0A       		.uleb128 0xa
 7017 07f3 01       		.byte	0x1
 7018 07f4 37000000 		.4byte	0x37
 7019 07f8 01       		.byte	0x1
 7020 07f9 3E       		.byte	0x3e
 7021 07fa 11080000 		.4byte	0x811
 7022 07fe 0B       		.uleb128 0xb
 7023 07ff A20A0000 		.4byte	.LASF150
 7024 0803 00       		.byte	0
 7025 0804 0B       		.uleb128 0xb
 7026 0805 7D040000 		.4byte	.LASF151
 7027 0809 01       		.byte	0x1
 7028 080a 0B       		.uleb128 0xb
 7029 080b 9F060000 		.4byte	.LASF152
 7030 080f 02       		.byte	0x2
 7031 0810 00       		.byte	0
 7032 0811 03       		.uleb128 0x3
 7033 0812 F1090000 		.4byte	.LASF153
 7034 0816 01       		.byte	0x1
 7035 0817 42       		.byte	0x42
 7036 0818 F2070000 		.4byte	0x7f2
 7037 081c 17       		.uleb128 0x17
 7038 081d A4040000 		.4byte	.LASF154
 7039 0821 01       		.byte	0x1
 7040 0822 4B       		.byte	0x4b
 7041 0823 00000000 		.4byte	.LFB64
 7042 0827 1C000000 		.4byte	.LFE64-.LFB64
 7043 082b 01       		.uleb128 0x1
 7044 082c 9C       		.byte	0x9c
 7045 082d 4C080000 		.4byte	0x84c
 7046 0831 18       		.uleb128 0x18
 7047 0832 63747800 		.ascii	"ctx\000"
 7048 0836 01       		.byte	0x1
 7049 0837 4B       		.byte	0x4b
 7050 0838 4E010000 		.4byte	0x14e
 7051 083c 02       		.uleb128 0x2
 7052 083d 91       		.byte	0x91
 7053 083e 74       		.sleb128 -12
 7054 083f 18       		.uleb128 0x18
 7055 0840 6200     		.ascii	"b\000"
 7056 0842 01       		.byte	0x1
 7057 0843 4B       		.byte	0x4b
 7058 0844 A2000000 		.4byte	0xa2
 7059 0848 02       		.uleb128 0x2
 7060 0849 91       		.byte	0x91
 7061 084a 73       		.sleb128 -13
 7062 084b 00       		.byte	0
ARM GAS  C:\Users\JENNEW~1\AppData\Local\Temp\ccHH9OS0.s 			page 157


 7063 084c 19       		.uleb128 0x19
 7064 084d 46000000 		.4byte	.LASF269
 7065 0851 01       		.byte	0x1
 7066 0852 58       		.byte	0x58
 7067 0853 00000000 		.4byte	.LFB65
 7068 0857 60000000 		.4byte	.LFE65-.LFB65
 7069 085b 01       		.uleb128 0x1
 7070 085c 9C       		.byte	0x9c
 7071 085d 85080000 		.4byte	0x885
 7072 0861 1A       		.uleb128 0x1a
 7073 0862 737400   		.ascii	"st\000"
 7074 0865 01       		.byte	0x1
 7075 0866 5A       		.byte	0x5a
 7076 0867 D9000000 		.4byte	0xd9
 7077 086b 02       		.uleb128 0x2
 7078 086c 91       		.byte	0x91
 7079 086d 77       		.sleb128 -9
 7080 086e 1B       		.uleb128 0x1b
 7081 086f 30000000 		.4byte	.LBB2
 7082 0873 10000000 		.4byte	.LBE2-.LBB2
 7083 0877 1A       		.uleb128 0x1a
 7084 0878 6200     		.ascii	"b\000"
 7085 087a 01       		.byte	0x1
 7086 087b 68       		.byte	0x68
 7087 087c D9000000 		.4byte	0xd9
 7088 0880 02       		.uleb128 0x2
 7089 0881 91       		.byte	0x91
 7090 0882 76       		.sleb128 -10
 7091 0883 00       		.byte	0
 7092 0884 00       		.byte	0
 7093 0885 1C       		.uleb128 0x1c
 7094 0886 B2010000 		.4byte	.LASF270
 7095 088a 01       		.byte	0x1
 7096 088b 6E       		.byte	0x6e
 7097 088c 00000000 		.4byte	.LFB66
 7098 0890 1C000000 		.4byte	.LFE66-.LFB66
 7099 0894 01       		.uleb128 0x1
 7100 0895 9C       		.byte	0x9c
 7101 0896 17       		.uleb128 0x17
 7102 0897 BD070000 		.4byte	.LASF155
 7103 089b 01       		.byte	0x1
 7104 089c 79       		.byte	0x79
 7105 089d 00000000 		.4byte	.LFB67
 7106 08a1 A8000000 		.4byte	.LFE67-.LFB67
 7107 08a5 01       		.uleb128 0x1
 7108 08a6 9C       		.byte	0x9c
 7109 08a7 E4080000 		.4byte	0x8e4
 7110 08ab 18       		.uleb128 0x18
 7111 08ac 76616C00 		.ascii	"val\000"
 7112 08b0 01       		.byte	0x1
 7113 08b1 79       		.byte	0x79
 7114 08b2 15010000 		.4byte	0x115
 7115 08b6 02       		.uleb128 0x2
 7116 08b7 91       		.byte	0x91
 7117 08b8 74       		.sleb128 -12
 7118 08b9 1D       		.uleb128 0x1d
 7119 08ba E2060000 		.4byte	.LASF156
ARM GAS  C:\Users\JENNEW~1\AppData\Local\Temp\ccHH9OS0.s 			page 158


 7120 08be 01       		.byte	0x1
 7121 08bf 79       		.byte	0x79
 7122 08c0 E4080000 		.4byte	0x8e4
 7123 08c4 02       		.uleb128 0x2
 7124 08c5 91       		.byte	0x91
 7125 08c6 70       		.sleb128 -16
 7126 08c7 1D       		.uleb128 0x1d
 7127 08c8 36000000 		.4byte	.LASF157
 7128 08cc 01       		.byte	0x1
 7129 08cd 79       		.byte	0x79
 7130 08ce E4080000 		.4byte	0x8e4
 7131 08d2 02       		.uleb128 0x2
 7132 08d3 91       		.byte	0x91
 7133 08d4 6C       		.sleb128 -20
 7134 08d5 1D       		.uleb128 0x1d
 7135 08d6 6A060000 		.4byte	.LASF158
 7136 08da 01       		.byte	0x1
 7137 08db 79       		.byte	0x79
 7138 08dc 50010000 		.4byte	0x150
 7139 08e0 02       		.uleb128 0x2
 7140 08e1 91       		.byte	0x91
 7141 08e2 68       		.sleb128 -24
 7142 08e3 00       		.byte	0
 7143 08e4 08       		.uleb128 0x8
 7144 08e5 04       		.byte	0x4
 7145 08e6 FD000000 		.4byte	0xfd
 7146 08ea 17       		.uleb128 0x17
 7147 08eb BB0A0000 		.4byte	.LASF159
 7148 08ef 01       		.byte	0x1
 7149 08f0 82       		.byte	0x82
 7150 08f1 00000000 		.4byte	.LFB68
 7151 08f5 BC010000 		.4byte	.LFE68-.LFB68
 7152 08f9 01       		.uleb128 0x1
 7153 08fa 9C       		.byte	0x9c
 7154 08fb 300A0000 		.4byte	0xa30
 7155 08ff 18       		.uleb128 0x18
 7156 0900 737400   		.ascii	"st\000"
 7157 0903 01       		.byte	0x1
 7158 0904 82       		.byte	0x82
 7159 0905 300A0000 		.4byte	0xa30
 7160 0909 03       		.uleb128 0x3
 7161 090a 91       		.byte	0x91
 7162 090b BC7F     		.sleb128 -68
 7163 090d 1D       		.uleb128 0x1d
 7164 090e E8060000 		.4byte	.LASF160
 7165 0912 01       		.byte	0x1
 7166 0913 83       		.byte	0x83
 7167 0914 50010000 		.4byte	0x150
 7168 0918 03       		.uleb128 0x3
 7169 0919 91       		.byte	0x91
 7170 091a B87F     		.sleb128 -72
 7171 091c 1D       		.uleb128 0x1d
 7172 091d DC060000 		.4byte	.LASF161
 7173 0921 01       		.byte	0x1
 7174 0922 83       		.byte	0x83
 7175 0923 E4080000 		.4byte	0x8e4
 7176 0927 03       		.uleb128 0x3
ARM GAS  C:\Users\JENNEW~1\AppData\Local\Temp\ccHH9OS0.s 			page 159


 7177 0928 91       		.byte	0x91
 7178 0929 B47F     		.sleb128 -76
 7179 092b 1D       		.uleb128 0x1d
 7180 092c D6060000 		.4byte	.LASF162
 7181 0930 01       		.byte	0x1
 7182 0931 83       		.byte	0x83
 7183 0932 E4080000 		.4byte	0x8e4
 7184 0936 03       		.uleb128 0x3
 7185 0937 91       		.byte	0x91
 7186 0938 B07F     		.sleb128 -80
 7187 093a 1D       		.uleb128 0x1d
 7188 093b 2C070000 		.4byte	.LASF163
 7189 093f 01       		.byte	0x1
 7190 0940 84       		.byte	0x84
 7191 0941 50010000 		.4byte	0x150
 7192 0945 02       		.uleb128 0x2
 7193 0946 91       		.byte	0x91
 7194 0947 00       		.sleb128 0
 7195 0948 1D       		.uleb128 0x1d
 7196 0949 25070000 		.4byte	.LASF164
 7197 094d 01       		.byte	0x1
 7198 094e 84       		.byte	0x84
 7199 094f E4080000 		.4byte	0x8e4
 7200 0953 02       		.uleb128 0x2
 7201 0954 91       		.byte	0x91
 7202 0955 04       		.sleb128 4
 7203 0956 1D       		.uleb128 0x1d
 7204 0957 1E070000 		.4byte	.LASF165
 7205 095b 01       		.byte	0x1
 7206 095c 84       		.byte	0x84
 7207 095d E4080000 		.4byte	0x8e4
 7208 0961 02       		.uleb128 0x2
 7209 0962 91       		.byte	0x91
 7210 0963 08       		.sleb128 8
 7211 0964 1D       		.uleb128 0x1d
 7212 0965 6A0A0000 		.4byte	.LASF166
 7213 0969 01       		.byte	0x1
 7214 096a 85       		.byte	0x85
 7215 096b 50010000 		.4byte	0x150
 7216 096f 02       		.uleb128 0x2
 7217 0970 91       		.byte	0x91
 7218 0971 0C       		.sleb128 12
 7219 0972 1D       		.uleb128 0x1d
 7220 0973 630A0000 		.4byte	.LASF167
 7221 0977 01       		.byte	0x1
 7222 0978 85       		.byte	0x85
 7223 0979 E4080000 		.4byte	0x8e4
 7224 097d 02       		.uleb128 0x2
 7225 097e 91       		.byte	0x91
 7226 097f 10       		.sleb128 16
 7227 0980 1D       		.uleb128 0x1d
 7228 0981 5C0A0000 		.4byte	.LASF168
 7229 0985 01       		.byte	0x1
 7230 0986 85       		.byte	0x85
 7231 0987 E4080000 		.4byte	0x8e4
 7232 098b 02       		.uleb128 0x2
 7233 098c 91       		.byte	0x91
ARM GAS  C:\Users\JENNEW~1\AppData\Local\Temp\ccHH9OS0.s 			page 160


 7234 098d 14       		.sleb128 20
 7235 098e 1A       		.uleb128 0x1a
 7236 098f 7200     		.ascii	"r\000"
 7237 0991 01       		.byte	0x1
 7238 0992 87       		.byte	0x87
 7239 0993 15010000 		.4byte	0x115
 7240 0997 02       		.uleb128 0x2
 7241 0998 91       		.byte	0x91
 7242 0999 6C       		.sleb128 -20
 7243 099a 1A       		.uleb128 0x1a
 7244 099b 696900   		.ascii	"ii\000"
 7245 099e 01       		.byte	0x1
 7246 099f 88       		.byte	0x88
 7247 09a0 15010000 		.4byte	0x115
 7248 09a4 02       		.uleb128 0x2
 7249 09a5 91       		.byte	0x91
 7250 09a6 68       		.sleb128 -24
 7251 09a7 1A       		.uleb128 0x1a
 7252 09a8 6A00     		.ascii	"j\000"
 7253 09aa 01       		.byte	0x1
 7254 09ab 89       		.byte	0x89
 7255 09ac 15010000 		.4byte	0x115
 7256 09b0 02       		.uleb128 0x2
 7257 09b1 91       		.byte	0x91
 7258 09b2 64       		.sleb128 -28
 7259 09b3 1A       		.uleb128 0x1a
 7260 09b4 6B00     		.ascii	"k\000"
 7261 09b6 01       		.byte	0x1
 7262 09b7 8A       		.byte	0x8a
 7263 09b8 15010000 		.4byte	0x115
 7264 09bc 02       		.uleb128 0x2
 7265 09bd 91       		.byte	0x91
 7266 09be 60       		.sleb128 -32
 7267 09bf 1E       		.uleb128 0x1e
 7268 09c0 8A0A0000 		.4byte	.LASF169
 7269 09c4 01       		.byte	0x1
 7270 09c5 8C       		.byte	0x8c
 7271 09c6 15010000 		.4byte	0x115
 7272 09ca 02       		.uleb128 0x2
 7273 09cb 91       		.byte	0x91
 7274 09cc 5C       		.sleb128 -36
 7275 09cd 1E       		.uleb128 0x1e
 7276 09ce 810A0000 		.4byte	.LASF170
 7277 09d2 01       		.byte	0x1
 7278 09d3 8D       		.byte	0x8d
 7279 09d4 15010000 		.4byte	0x115
 7280 09d8 02       		.uleb128 0x2
 7281 09d9 91       		.byte	0x91
 7282 09da 58       		.sleb128 -40
 7283 09db 1E       		.uleb128 0x1e
 7284 09dc 2A050000 		.4byte	.LASF171
 7285 09e0 01       		.byte	0x1
 7286 09e1 8E       		.byte	0x8e
 7287 09e2 15010000 		.4byte	0x115
 7288 09e6 02       		.uleb128 0x2
 7289 09e7 91       		.byte	0x91
 7290 09e8 54       		.sleb128 -44
ARM GAS  C:\Users\JENNEW~1\AppData\Local\Temp\ccHH9OS0.s 			page 161


 7291 09e9 1E       		.uleb128 0x1e
 7292 09ea AA020000 		.4byte	.LASF172
 7293 09ee 01       		.byte	0x1
 7294 09ef 90       		.byte	0x90
 7295 09f0 15010000 		.4byte	0x115
 7296 09f4 02       		.uleb128 0x2
 7297 09f5 91       		.byte	0x91
 7298 09f6 50       		.sleb128 -48
 7299 09f7 1E       		.uleb128 0x1e
 7300 09f8 ED010000 		.4byte	.LASF173
 7301 09fc 01       		.byte	0x1
 7302 09fd 91       		.byte	0x91
 7303 09fe 15010000 		.4byte	0x115
 7304 0a02 02       		.uleb128 0x2
 7305 0a03 91       		.byte	0x91
 7306 0a04 4C       		.sleb128 -52
 7307 0a05 1E       		.uleb128 0x1e
 7308 0a06 8D060000 		.4byte	.LASF174
 7309 0a0a 01       		.byte	0x1
 7310 0a0b 95       		.byte	0x95
 7311 0a0c 15010000 		.4byte	0x115
 7312 0a10 02       		.uleb128 0x2
 7313 0a11 91       		.byte	0x91
 7314 0a12 48       		.sleb128 -56
 7315 0a13 1E       		.uleb128 0x1e
 7316 0a14 7F090000 		.4byte	.LASF175
 7317 0a18 01       		.byte	0x1
 7318 0a19 96       		.byte	0x96
 7319 0a1a 15010000 		.4byte	0x115
 7320 0a1e 02       		.uleb128 0x2
 7321 0a1f 91       		.byte	0x91
 7322 0a20 44       		.sleb128 -60
 7323 0a21 1E       		.uleb128 0x1e
 7324 0a22 2D060000 		.4byte	.LASF176
 7325 0a26 01       		.byte	0x1
 7326 0a27 97       		.byte	0x97
 7327 0a28 15010000 		.4byte	0x115
 7328 0a2c 02       		.uleb128 0x2
 7329 0a2d 91       		.byte	0x91
 7330 0a2e 40       		.sleb128 -64
 7331 0a2f 00       		.byte	0
 7332 0a30 08       		.uleb128 0x8
 7333 0a31 04       		.byte	0x4
 7334 0a32 360A0000 		.4byte	0xa36
 7335 0a36 09       		.uleb128 0x9
 7336 0a37 66060000 		.4byte	0x666
 7337 0a3b 1F       		.uleb128 0x1f
 7338 0a3c B1070000 		.4byte	.LASF185
 7339 0a40 01       		.byte	0x1
 7340 0a41 9E       		.byte	0x9e
 7341 0a42 56010000 		.4byte	0x156
 7342 0a46 00000000 		.4byte	.LFB69
 7343 0a4a 38000000 		.4byte	.LFE69-.LFB69
 7344 0a4e 01       		.uleb128 0x1
 7345 0a4f 9C       		.byte	0x9c
 7346 0a50 610A0000 		.4byte	0xa61
 7347 0a54 18       		.uleb128 0x18
ARM GAS  C:\Users\JENNEW~1\AppData\Local\Temp\ccHH9OS0.s 			page 162


 7348 0a55 6D00     		.ascii	"m\000"
 7349 0a57 01       		.byte	0x1
 7350 0a58 9E       		.byte	0x9e
 7351 0a59 EF020000 		.4byte	0x2ef
 7352 0a5d 02       		.uleb128 0x2
 7353 0a5e 91       		.byte	0x91
 7354 0a5f 77       		.sleb128 -9
 7355 0a60 00       		.byte	0
 7356 0a61 17       		.uleb128 0x17
 7357 0a62 B4020000 		.4byte	.LASF177
 7358 0a66 01       		.byte	0x1
 7359 0a67 A7       		.byte	0xa7
 7360 0a68 00000000 		.4byte	.LFB70
 7361 0a6c 78000000 		.4byte	.LFE70-.LFB70
 7362 0a70 01       		.uleb128 0x1
 7363 0a71 9C       		.byte	0x9c
 7364 0a72 930A0000 		.4byte	0xa93
 7365 0a76 1D       		.uleb128 0x1d
 7366 0a77 250C0000 		.4byte	.LASF178
 7367 0a7b 01       		.byte	0x1
 7368 0a7c A7       		.byte	0xa7
 7369 0a7d 0E020000 		.4byte	0x20e
 7370 0a81 02       		.uleb128 0x2
 7371 0a82 91       		.byte	0x91
 7372 0a83 77       		.sleb128 -9
 7373 0a84 18       		.uleb128 0x18
 7374 0a85 6E6F7700 		.ascii	"now\000"
 7375 0a89 01       		.byte	0x1
 7376 0a8a A7       		.byte	0xa7
 7377 0a8b 0E020000 		.4byte	0x20e
 7378 0a8f 02       		.uleb128 0x2
 7379 0a90 91       		.byte	0x91
 7380 0a91 76       		.sleb128 -10
 7381 0a92 00       		.byte	0
 7382 0a93 17       		.uleb128 0x17
 7383 0a94 93040000 		.4byte	.LASF179
 7384 0a98 01       		.byte	0x1
 7385 0a99 B9       		.byte	0xb9
 7386 0a9a 00000000 		.4byte	.LFB71
 7387 0a9e 58000000 		.4byte	.LFE71-.LFB71
 7388 0aa2 01       		.uleb128 0x1
 7389 0aa3 9C       		.byte	0x9c
 7390 0aa4 EF0A0000 		.4byte	0xaef
 7391 0aa8 1D       		.uleb128 0x1d
 7392 0aa9 26040000 		.4byte	.LASF180
 7393 0aad 01       		.byte	0x1
 7394 0aae B9       		.byte	0xb9
 7395 0aaf EF0A0000 		.4byte	0xaef
 7396 0ab3 02       		.uleb128 0x2
 7397 0ab4 91       		.byte	0x91
 7398 0ab5 74       		.sleb128 -12
 7399 0ab6 1D       		.uleb128 0x1d
 7400 0ab7 9D0A0000 		.4byte	.LASF181
 7401 0abb 01       		.byte	0x1
 7402 0abc B9       		.byte	0xb9
 7403 0abd F50A0000 		.4byte	0xaf5
 7404 0ac1 02       		.uleb128 0x2
ARM GAS  C:\Users\JENNEW~1\AppData\Local\Temp\ccHH9OS0.s 			page 163


 7405 0ac2 91       		.byte	0x91
 7406 0ac3 70       		.sleb128 -16
 7407 0ac4 1D       		.uleb128 0x1d
 7408 0ac5 2D030000 		.4byte	.LASF182
 7409 0ac9 01       		.byte	0x1
 7410 0aca BA       		.byte	0xba
 7411 0acb FB0A0000 		.4byte	0xafb
 7412 0acf 02       		.uleb128 0x2
 7413 0ad0 91       		.byte	0x91
 7414 0ad1 6C       		.sleb128 -20
 7415 0ad2 1D       		.uleb128 0x1d
 7416 0ad3 2B040000 		.4byte	.LASF183
 7417 0ad7 01       		.byte	0x1
 7418 0ad8 BA       		.byte	0xba
 7419 0ad9 FB0A0000 		.4byte	0xafb
 7420 0add 02       		.uleb128 0x2
 7421 0ade 91       		.byte	0x91
 7422 0adf 68       		.sleb128 -24
 7423 0ae0 1D       		.uleb128 0x1d
 7424 0ae1 9D000000 		.4byte	.LASF184
 7425 0ae5 01       		.byte	0x1
 7426 0ae6 BB       		.byte	0xbb
 7427 0ae7 010B0000 		.4byte	0xb01
 7428 0aeb 02       		.uleb128 0x2
 7429 0aec 91       		.byte	0x91
 7430 0aed 00       		.sleb128 0
 7431 0aee 00       		.byte	0
 7432 0aef 08       		.uleb128 0x8
 7433 0af0 04       		.byte	0x4
 7434 0af1 E7070000 		.4byte	0x7e7
 7435 0af5 08       		.uleb128 0x8
 7436 0af6 04       		.byte	0x4
 7437 0af7 11080000 		.4byte	0x811
 7438 0afb 08       		.uleb128 0x8
 7439 0afc 04       		.byte	0x4
 7440 0afd D9000000 		.4byte	0xd9
 7441 0b01 08       		.uleb128 0x8
 7442 0b02 04       		.byte	0x4
 7443 0b03 EF020000 		.4byte	0x2ef
 7444 0b07 1F       		.uleb128 0x1f
 7445 0b08 40040000 		.4byte	.LASF186
 7446 0b0c 01       		.byte	0x1
 7447 0b0d D4       		.byte	0xd4
 7448 0b0e 23010000 		.4byte	0x123
 7449 0b12 00000000 		.4byte	.LFB72
 7450 0b16 52000000 		.4byte	.LFE72-.LFB72
 7451 0b1a 01       		.uleb128 0x1
 7452 0b1b 9C       		.byte	0x9c
 7453 0b1c 750B0000 		.4byte	0xb75
 7454 0b20 18       		.uleb128 0x18
 7455 0b21 72617700 		.ascii	"raw\000"
 7456 0b25 01       		.byte	0x1
 7457 0b26 D4       		.byte	0xd4
 7458 0b27 C3000000 		.4byte	0xc3
 7459 0b2b 02       		.uleb128 0x2
 7460 0b2c 91       		.byte	0x91
 7461 0b2d 6C       		.sleb128 -20
ARM GAS  C:\Users\JENNEW~1\AppData\Local\Temp\ccHH9OS0.s 			page 164


 7462 0b2e 1D       		.uleb128 0x1d
 7463 0b2f 82030000 		.4byte	.LASF187
 7464 0b33 01       		.byte	0x1
 7465 0b34 D4       		.byte	0xd4
 7466 0b35 C3000000 		.4byte	0xc3
 7467 0b39 02       		.uleb128 0x2
 7468 0b3a 91       		.byte	0x91
 7469 0b3b 68       		.sleb128 -24
 7470 0b3c 1D       		.uleb128 0x1d
 7471 0b3d E2060000 		.4byte	.LASF156
 7472 0b41 01       		.byte	0x1
 7473 0b42 D5       		.byte	0xd5
 7474 0b43 750B0000 		.4byte	0xb75
 7475 0b47 02       		.uleb128 0x2
 7476 0b48 91       		.byte	0x91
 7477 0b49 64       		.sleb128 -28
 7478 0b4a 1D       		.uleb128 0x1d
 7479 0b4b 36000000 		.4byte	.LASF157
 7480 0b4f 01       		.byte	0x1
 7481 0b50 D5       		.byte	0xd5
 7482 0b51 750B0000 		.4byte	0xb75
 7483 0b55 02       		.uleb128 0x2
 7484 0b56 91       		.byte	0x91
 7485 0b57 60       		.sleb128 -32
 7486 0b58 1E       		.uleb128 0x1e
 7487 0b59 98000000 		.4byte	.LASF188
 7488 0b5d 01       		.byte	0x1
 7489 0b5e D7       		.byte	0xd7
 7490 0b5f 23010000 		.4byte	0x123
 7491 0b63 02       		.uleb128 0x2
 7492 0b64 91       		.byte	0x91
 7493 0b65 77       		.sleb128 -9
 7494 0b66 1A       		.uleb128 0x1a
 7495 0b67 61627300 		.ascii	"abs\000"
 7496 0b6b 01       		.byte	0x1
 7497 0b6c D8       		.byte	0xd8
 7498 0b6d C3000000 		.4byte	0xc3
 7499 0b71 02       		.uleb128 0x2
 7500 0b72 91       		.byte	0x91
 7501 0b73 70       		.sleb128 -16
 7502 0b74 00       		.byte	0
 7503 0b75 08       		.uleb128 0x8
 7504 0b76 04       		.byte	0x4
 7505 0b77 6D000000 		.4byte	0x6d
 7506 0b7b 17       		.uleb128 0x17
 7507 0b7c 33050000 		.4byte	.LASF189
 7508 0b80 01       		.byte	0x1
 7509 0b81 FE       		.byte	0xfe
 7510 0b82 00000000 		.4byte	.LFB73
 7511 0b86 D0050000 		.4byte	.LFE73-.LFB73
 7512 0b8a 01       		.uleb128 0x1
 7513 0b8b 9C       		.byte	0x9c
 7514 0b8c DA0D0000 		.4byte	0xdda
 7515 0b90 18       		.uleb128 0x18
 7516 0b91 737400   		.ascii	"st\000"
 7517 0b94 01       		.byte	0x1
 7518 0b95 FE       		.byte	0xfe
ARM GAS  C:\Users\JENNEW~1\AppData\Local\Temp\ccHH9OS0.s 			page 165


 7519 0b96 300A0000 		.4byte	0xa30
 7520 0b9a 03       		.uleb128 0x3
 7521 0b9b 91       		.byte	0x91
 7522 0b9c 947E     		.sleb128 -236
 7523 0b9e 18       		.uleb128 0x18
 7524 0b9f 647400   		.ascii	"dt\000"
 7525 0ba2 01       		.byte	0x1
 7526 0ba3 FE       		.byte	0xfe
 7527 0ba4 CE000000 		.4byte	0xce
 7528 0ba8 03       		.uleb128 0x3
 7529 0ba9 91       		.byte	0x91
 7530 0baa 907E     		.sleb128 -240
 7531 0bac 1D       		.uleb128 0x1d
 7532 0bad 130C0000 		.4byte	.LASF190
 7533 0bb1 01       		.byte	0x1
 7534 0bb2 FF       		.byte	0xff
 7535 0bb3 B8000000 		.4byte	0xb8
 7536 0bb7 03       		.uleb128 0x3
 7537 0bb8 91       		.byte	0x91
 7538 0bb9 8E7E     		.sleb128 -242
 7539 0bbb 18       		.uleb128 0x18
 7540 0bbc 7000     		.ascii	"p\000"
 7541 0bbe 01       		.byte	0x1
 7542 0bbf FF       		.byte	0xff
 7543 0bc0 DA0D0000 		.4byte	0xdda
 7544 0bc4 03       		.uleb128 0x3
 7545 0bc5 91       		.byte	0x91
 7546 0bc6 887E     		.sleb128 -248
 7547 0bc8 1D       		.uleb128 0x1d
 7548 0bc9 1E0A0000 		.4byte	.LASF191
 7549 0bcd 01       		.byte	0x1
 7550 0bce FF       		.byte	0xff
 7551 0bcf A2000000 		.4byte	0xa2
 7552 0bd3 02       		.uleb128 0x2
 7553 0bd4 91       		.byte	0x91
 7554 0bd5 00       		.sleb128 0
 7555 0bd6 20       		.uleb128 0x20
 7556 0bd7 62756600 		.ascii	"buf\000"
 7557 0bdb 01       		.byte	0x1
 7558 0bdc 0101     		.2byte	0x101
 7559 0bde E50D0000 		.4byte	0xde5
 7560 0be2 03       		.uleb128 0x3
 7561 0be3 91       		.byte	0x91
 7562 0be4 B47E     		.sleb128 -204
 7563 0be6 20       		.uleb128 0x20
 7564 0be7 7300     		.ascii	"s\000"
 7565 0be9 01       		.byte	0x1
 7566 0bea 1F01     		.2byte	0x11f
 7567 0bec 23010000 		.4byte	0x123
 7568 0bf0 03       		.uleb128 0x3
 7569 0bf1 91       		.byte	0x91
 7570 0bf2 B37E     		.sleb128 -205
 7571 0bf4 20       		.uleb128 0x20
 7572 0bf5 766900   		.ascii	"vi\000"
 7573 0bf8 01       		.byte	0x1
 7574 0bf9 1F01     		.2byte	0x11f
 7575 0bfb FD000000 		.4byte	0xfd
ARM GAS  C:\Users\JENNEW~1\AppData\Local\Temp\ccHH9OS0.s 			page 166


 7576 0bff 03       		.uleb128 0x3
 7577 0c00 91       		.byte	0x91
 7578 0c01 B07E     		.sleb128 -208
 7579 0c03 20       		.uleb128 0x20
 7580 0c04 766600   		.ascii	"vf\000"
 7581 0c07 01       		.byte	0x1
 7582 0c08 1F01     		.2byte	0x11f
 7583 0c0a FD000000 		.4byte	0xfd
 7584 0c0e 03       		.uleb128 0x3
 7585 0c0f 91       		.byte	0x91
 7586 0c10 AE7E     		.sleb128 -210
 7587 0c12 20       		.uleb128 0x20
 7588 0c13 723100   		.ascii	"r1\000"
 7589 0c16 01       		.byte	0x1
 7590 0c17 2001     		.2byte	0x120
 7591 0c19 AD000000 		.4byte	0xad
 7592 0c1d 02       		.uleb128 0x2
 7593 0c1e 91       		.byte	0x91
 7594 0c1f 66       		.sleb128 -26
 7595 0c20 20       		.uleb128 0x20
 7596 0c21 723300   		.ascii	"r3\000"
 7597 0c24 01       		.byte	0x1
 7598 0c25 2101     		.2byte	0x121
 7599 0c27 AD000000 		.4byte	0xad
 7600 0c2b 02       		.uleb128 0x2
 7601 0c2c 91       		.byte	0x91
 7602 0c2d 64       		.sleb128 -28
 7603 0c2e 20       		.uleb128 0x20
 7604 0c2f 723500   		.ascii	"r5\000"
 7605 0c32 01       		.byte	0x1
 7606 0c33 2201     		.2byte	0x122
 7607 0c35 AD000000 		.4byte	0xad
 7608 0c39 02       		.uleb128 0x2
 7609 0c3a 91       		.byte	0x91
 7610 0c3b 62       		.sleb128 -30
 7611 0c3c 20       		.uleb128 0x20
 7612 0c3d 723700   		.ascii	"r7\000"
 7613 0c40 01       		.byte	0x1
 7614 0c41 3C01     		.2byte	0x13c
 7615 0c43 AD000000 		.4byte	0xad
 7616 0c47 02       		.uleb128 0x2
 7617 0c48 91       		.byte	0x91
 7618 0c49 60       		.sleb128 -32
 7619 0c4a 20       		.uleb128 0x20
 7620 0c4b 723900   		.ascii	"r9\000"
 7621 0c4e 01       		.byte	0x1
 7622 0c4f 3D01     		.2byte	0x13d
 7623 0c51 AD000000 		.4byte	0xad
 7624 0c55 02       		.uleb128 0x2
 7625 0c56 91       		.byte	0x91
 7626 0c57 5E       		.sleb128 -34
 7627 0c58 20       		.uleb128 0x20
 7628 0c59 72313100 		.ascii	"r11\000"
 7629 0c5d 01       		.byte	0x1
 7630 0c5e 3E01     		.2byte	0x13e
 7631 0c60 AD000000 		.4byte	0xad
 7632 0c64 02       		.uleb128 0x2
ARM GAS  C:\Users\JENNEW~1\AppData\Local\Temp\ccHH9OS0.s 			page 167


 7633 0c65 91       		.byte	0x91
 7634 0c66 5C       		.sleb128 -36
 7635 0c67 20       		.uleb128 0x20
 7636 0c68 72313300 		.ascii	"r13\000"
 7637 0c6c 01       		.byte	0x1
 7638 0c6d 3F01     		.2byte	0x13f
 7639 0c6f AD000000 		.4byte	0xad
 7640 0c73 02       		.uleb128 0x2
 7641 0c74 91       		.byte	0x91
 7642 0c75 5A       		.sleb128 -38
 7643 0c76 20       		.uleb128 0x20
 7644 0c77 72313500 		.ascii	"r15\000"
 7645 0c7b 01       		.byte	0x1
 7646 0c7c 4001     		.2byte	0x140
 7647 0c7e AD000000 		.4byte	0xad
 7648 0c82 02       		.uleb128 0x2
 7649 0c83 91       		.byte	0x91
 7650 0c84 58       		.sleb128 -40
 7651 0c85 20       		.uleb128 0x20
 7652 0c86 72313700 		.ascii	"r17\000"
 7653 0c8a 01       		.byte	0x1
 7654 0c8b 4101     		.2byte	0x141
 7655 0c8d AD000000 		.4byte	0xad
 7656 0c91 02       		.uleb128 0x2
 7657 0c92 91       		.byte	0x91
 7658 0c93 56       		.sleb128 -42
 7659 0c94 21       		.uleb128 0x21
 7660 0c95 30000000 		.4byte	.LBB3
 7661 0c99 C2000000 		.4byte	.LBE3-.LBB3
 7662 0c9d D80C0000 		.4byte	0xcd8
 7663 0ca1 20       		.uleb128 0x20
 7664 0ca2 726F7700 		.ascii	"row\000"
 7665 0ca6 01       		.byte	0x1
 7666 0ca7 0C01     		.2byte	0x10c
 7667 0ca9 A2000000 		.4byte	0xa2
 7668 0cad 02       		.uleb128 0x2
 7669 0cae 91       		.byte	0x91
 7670 0caf 6F       		.sleb128 -17
 7671 0cb0 20       		.uleb128 0x20
 7672 0cb1 636F6C00 		.ascii	"col\000"
 7673 0cb5 01       		.byte	0x1
 7674 0cb6 0C01     		.2byte	0x10c
 7675 0cb8 A2000000 		.4byte	0xa2
 7676 0cbc 02       		.uleb128 0x2
 7677 0cbd 91       		.byte	0x91
 7678 0cbe 6E       		.sleb128 -18
 7679 0cbf 1B       		.uleb128 0x1b
 7680 0cc0 38000000 		.4byte	.LBB4
 7681 0cc4 A4000000 		.4byte	.LBE4-.LBB4
 7682 0cc8 20       		.uleb128 0x20
 7683 0cc9 627000   		.ascii	"bp\000"
 7684 0ccc 01       		.byte	0x1
 7685 0ccd 0E01     		.2byte	0x10e
 7686 0ccf 50010000 		.4byte	0x150
 7687 0cd3 02       		.uleb128 0x2
 7688 0cd4 91       		.byte	0x91
 7689 0cd5 68       		.sleb128 -24
ARM GAS  C:\Users\JENNEW~1\AppData\Local\Temp\ccHH9OS0.s 			page 168


 7690 0cd6 00       		.byte	0
 7691 0cd7 00       		.byte	0
 7692 0cd8 21       		.uleb128 0x21
 7693 0cd9 1E010000 		.4byte	.LBB5
 7694 0cdd 14000000 		.4byte	.LBE5-.LBB5
 7695 0ce1 F50C0000 		.4byte	0xcf5
 7696 0ce5 20       		.uleb128 0x20
 7697 0ce6 5F7600   		.ascii	"_v\000"
 7698 0ce9 01       		.byte	0x1
 7699 0cea 2001     		.2byte	0x120
 7700 0cec AD000000 		.4byte	0xad
 7701 0cf0 03       		.uleb128 0x3
 7702 0cf1 91       		.byte	0x91
 7703 0cf2 AC7E     		.sleb128 -212
 7704 0cf4 00       		.byte	0
 7705 0cf5 21       		.uleb128 0x21
 7706 0cf6 42010000 		.4byte	.LBB6
 7707 0cfa 14000000 		.4byte	.LBE6-.LBB6
 7708 0cfe 120D0000 		.4byte	0xd12
 7709 0d02 20       		.uleb128 0x20
 7710 0d03 5F7600   		.ascii	"_v\000"
 7711 0d06 01       		.byte	0x1
 7712 0d07 2101     		.2byte	0x121
 7713 0d09 AD000000 		.4byte	0xad
 7714 0d0d 03       		.uleb128 0x3
 7715 0d0e 91       		.byte	0x91
 7716 0d0f AA7E     		.sleb128 -214
 7717 0d11 00       		.byte	0
 7718 0d12 21       		.uleb128 0x21
 7719 0d13 66010000 		.4byte	.LBB7
 7720 0d17 14000000 		.4byte	.LBE7-.LBB7
 7721 0d1b 2F0D0000 		.4byte	0xd2f
 7722 0d1f 20       		.uleb128 0x20
 7723 0d20 5F7600   		.ascii	"_v\000"
 7724 0d23 01       		.byte	0x1
 7725 0d24 2201     		.2byte	0x122
 7726 0d26 AD000000 		.4byte	0xad
 7727 0d2a 03       		.uleb128 0x3
 7728 0d2b 91       		.byte	0x91
 7729 0d2c A87E     		.sleb128 -216
 7730 0d2e 00       		.byte	0
 7731 0d2f 21       		.uleb128 0x21
 7732 0d30 B0020000 		.4byte	.LBB8
 7733 0d34 14000000 		.4byte	.LBE8-.LBB8
 7734 0d38 4C0D0000 		.4byte	0xd4c
 7735 0d3c 20       		.uleb128 0x20
 7736 0d3d 5F7600   		.ascii	"_v\000"
 7737 0d40 01       		.byte	0x1
 7738 0d41 3C01     		.2byte	0x13c
 7739 0d43 AD000000 		.4byte	0xad
 7740 0d47 03       		.uleb128 0x3
 7741 0d48 91       		.byte	0x91
 7742 0d49 A67E     		.sleb128 -218
 7743 0d4b 00       		.byte	0
 7744 0d4c 21       		.uleb128 0x21
 7745 0d4d D4020000 		.4byte	.LBB9
 7746 0d51 16000000 		.4byte	.LBE9-.LBB9
ARM GAS  C:\Users\JENNEW~1\AppData\Local\Temp\ccHH9OS0.s 			page 169


 7747 0d55 690D0000 		.4byte	0xd69
 7748 0d59 20       		.uleb128 0x20
 7749 0d5a 5F7600   		.ascii	"_v\000"
 7750 0d5d 01       		.byte	0x1
 7751 0d5e 3D01     		.2byte	0x13d
 7752 0d60 AD000000 		.4byte	0xad
 7753 0d64 03       		.uleb128 0x3
 7754 0d65 91       		.byte	0x91
 7755 0d66 A47E     		.sleb128 -220
 7756 0d68 00       		.byte	0
 7757 0d69 21       		.uleb128 0x21
 7758 0d6a FA020000 		.4byte	.LBB10
 7759 0d6e 16000000 		.4byte	.LBE10-.LBB10
 7760 0d72 860D0000 		.4byte	0xd86
 7761 0d76 20       		.uleb128 0x20
 7762 0d77 5F7600   		.ascii	"_v\000"
 7763 0d7a 01       		.byte	0x1
 7764 0d7b 3E01     		.2byte	0x13e
 7765 0d7d AD000000 		.4byte	0xad
 7766 0d81 03       		.uleb128 0x3
 7767 0d82 91       		.byte	0x91
 7768 0d83 A27E     		.sleb128 -222
 7769 0d85 00       		.byte	0
 7770 0d86 21       		.uleb128 0x21
 7771 0d87 20030000 		.4byte	.LBB11
 7772 0d8b 16000000 		.4byte	.LBE11-.LBB11
 7773 0d8f A30D0000 		.4byte	0xda3
 7774 0d93 20       		.uleb128 0x20
 7775 0d94 5F7600   		.ascii	"_v\000"
 7776 0d97 01       		.byte	0x1
 7777 0d98 3F01     		.2byte	0x13f
 7778 0d9a AD000000 		.4byte	0xad
 7779 0d9e 03       		.uleb128 0x3
 7780 0d9f 91       		.byte	0x91
 7781 0da0 A07E     		.sleb128 -224
 7782 0da2 00       		.byte	0
 7783 0da3 21       		.uleb128 0x21
 7784 0da4 46030000 		.4byte	.LBB12
 7785 0da8 16000000 		.4byte	.LBE12-.LBB12
 7786 0dac C00D0000 		.4byte	0xdc0
 7787 0db0 20       		.uleb128 0x20
 7788 0db1 5F7600   		.ascii	"_v\000"
 7789 0db4 01       		.byte	0x1
 7790 0db5 4001     		.2byte	0x140
 7791 0db7 AD000000 		.4byte	0xad
 7792 0dbb 03       		.uleb128 0x3
 7793 0dbc 91       		.byte	0x91
 7794 0dbd 9E7E     		.sleb128 -226
 7795 0dbf 00       		.byte	0
 7796 0dc0 1B       		.uleb128 0x1b
 7797 0dc1 6C030000 		.4byte	.LBB13
 7798 0dc5 16000000 		.4byte	.LBE13-.LBB13
 7799 0dc9 20       		.uleb128 0x20
 7800 0dca 5F7600   		.ascii	"_v\000"
 7801 0dcd 01       		.byte	0x1
 7802 0dce 4101     		.2byte	0x141
 7803 0dd0 AD000000 		.4byte	0xad
ARM GAS  C:\Users\JENNEW~1\AppData\Local\Temp\ccHH9OS0.s 			page 170


 7804 0dd4 03       		.uleb128 0x3
 7805 0dd5 91       		.byte	0x91
 7806 0dd6 9C7E     		.sleb128 -228
 7807 0dd8 00       		.byte	0
 7808 0dd9 00       		.byte	0
 7809 0dda 08       		.uleb128 0x8
 7810 0ddb 04       		.byte	0x4
 7811 0ddc E00D0000 		.4byte	0xde0
 7812 0de0 09       		.uleb128 0x9
 7813 0de1 A2000000 		.4byte	0xa2
 7814 0de5 0E       		.uleb128 0xe
 7815 0de6 23010000 		.4byte	0x123
 7816 0dea F50D0000 		.4byte	0xdf5
 7817 0dee 0F       		.uleb128 0xf
 7818 0def 47010000 		.4byte	0x147
 7819 0df3 9F       		.byte	0x9f
 7820 0df4 00       		.byte	0
 7821 0df5 22       		.uleb128 0x22
 7822 0df6 310C0000 		.4byte	.LASF192
 7823 0dfa 01       		.byte	0x1
 7824 0dfb 6401     		.2byte	0x164
 7825 0dfd 00000000 		.4byte	.LFB74
 7826 0e01 34050000 		.4byte	.LFE74-.LFB74
 7827 0e05 01       		.uleb128 0x1
 7828 0e06 9C       		.byte	0x9c
 7829 0e07 7A0F0000 		.4byte	0xf7a
 7830 0e0b 23       		.uleb128 0x23
 7831 0e0c 737400   		.ascii	"st\000"
 7832 0e0f 01       		.byte	0x1
 7833 0e10 6401     		.2byte	0x164
 7834 0e12 300A0000 		.4byte	0xa30
 7835 0e16 03       		.uleb128 0x3
 7836 0e17 91       		.byte	0x91
 7837 0e18 9C7E     		.sleb128 -228
 7838 0e1a 23       		.uleb128 0x23
 7839 0e1b 647400   		.ascii	"dt\000"
 7840 0e1e 01       		.byte	0x1
 7841 0e1f 6401     		.2byte	0x164
 7842 0e21 CE000000 		.4byte	0xce
 7843 0e25 03       		.uleb128 0x3
 7844 0e26 91       		.byte	0x91
 7845 0e27 987E     		.sleb128 -232
 7846 0e29 24       		.uleb128 0x24
 7847 0e2a 130C0000 		.4byte	.LASF190
 7848 0e2e 01       		.byte	0x1
 7849 0e2f 6501     		.2byte	0x165
 7850 0e31 B8000000 		.4byte	0xb8
 7851 0e35 03       		.uleb128 0x3
 7852 0e36 91       		.byte	0x91
 7853 0e37 967E     		.sleb128 -234
 7854 0e39 23       		.uleb128 0x23
 7855 0e3a 7000     		.ascii	"p\000"
 7856 0e3c 01       		.byte	0x1
 7857 0e3d 6501     		.2byte	0x165
 7858 0e3f DA0D0000 		.4byte	0xdda
 7859 0e43 03       		.uleb128 0x3
 7860 0e44 91       		.byte	0x91
ARM GAS  C:\Users\JENNEW~1\AppData\Local\Temp\ccHH9OS0.s 			page 171


 7861 0e45 907E     		.sleb128 -240
 7862 0e47 24       		.uleb128 0x24
 7863 0e48 1E0A0000 		.4byte	.LASF191
 7864 0e4c 01       		.byte	0x1
 7865 0e4d 6501     		.2byte	0x165
 7866 0e4f A2000000 		.4byte	0xa2
 7867 0e53 02       		.uleb128 0x2
 7868 0e54 91       		.byte	0x91
 7869 0e55 00       		.sleb128 0
 7870 0e56 20       		.uleb128 0x20
 7871 0e57 62756600 		.ascii	"buf\000"
 7872 0e5b 01       		.byte	0x1
 7873 0e5c 6701     		.2byte	0x167
 7874 0e5e E50D0000 		.4byte	0xde5
 7875 0e62 03       		.uleb128 0x3
 7876 0e63 91       		.byte	0x91
 7877 0e64 B07E     		.sleb128 -208
 7878 0e66 25       		.uleb128 0x25
 7879 0e67 D2010000 		.4byte	.LASF193
 7880 0e6b 01       		.byte	0x1
 7881 0e6c 8201     		.2byte	0x182
 7882 0e6e 6D000000 		.4byte	0x6d
 7883 0e72 03       		.uleb128 0x3
 7884 0e73 91       		.byte	0x91
 7885 0e74 AC7E     		.sleb128 -212
 7886 0e76 25       		.uleb128 0x25
 7887 0e77 5A000000 		.4byte	.LASF194
 7888 0e7b 01       		.byte	0x1
 7889 0e7c 8201     		.2byte	0x182
 7890 0e7e 6D000000 		.4byte	0x6d
 7891 0e82 03       		.uleb128 0x3
 7892 0e83 91       		.byte	0x91
 7893 0e84 A87E     		.sleb128 -216
 7894 0e86 25       		.uleb128 0x25
 7895 0e87 98000000 		.4byte	.LASF188
 7896 0e8b 01       		.byte	0x1
 7897 0e8c 8301     		.2byte	0x183
 7898 0e8e 23010000 		.4byte	0x123
 7899 0e92 02       		.uleb128 0x2
 7900 0e93 91       		.byte	0x91
 7901 0e94 5B       		.sleb128 -37
 7902 0e95 20       		.uleb128 0x20
 7903 0e96 7300     		.ascii	"s\000"
 7904 0e98 01       		.byte	0x1
 7905 0e99 8401     		.2byte	0x184
 7906 0e9b 23010000 		.4byte	0x123
 7907 0e9f 03       		.uleb128 0x3
 7908 0ea0 91       		.byte	0x91
 7909 0ea1 A77E     		.sleb128 -217
 7910 0ea3 20       		.uleb128 0x20
 7911 0ea4 766900   		.ascii	"vi\000"
 7912 0ea7 01       		.byte	0x1
 7913 0ea8 8401     		.2byte	0x184
 7914 0eaa FD000000 		.4byte	0xfd
 7915 0eae 03       		.uleb128 0x3
 7916 0eaf 91       		.byte	0x91
 7917 0eb0 A47E     		.sleb128 -220
ARM GAS  C:\Users\JENNEW~1\AppData\Local\Temp\ccHH9OS0.s 			page 172


 7918 0eb2 20       		.uleb128 0x20
 7919 0eb3 766600   		.ascii	"vf\000"
 7920 0eb6 01       		.byte	0x1
 7921 0eb7 8401     		.2byte	0x184
 7922 0eb9 FD000000 		.4byte	0xfd
 7923 0ebd 03       		.uleb128 0x3
 7924 0ebe 91       		.byte	0x91
 7925 0ebf A27E     		.sleb128 -222
 7926 0ec1 25       		.uleb128 0x25
 7927 0ec2 53020000 		.4byte	.LASF195
 7928 0ec6 01       		.byte	0x1
 7929 0ec7 8701     		.2byte	0x187
 7930 0ec9 C3000000 		.4byte	0xc3
 7931 0ecd 02       		.uleb128 0x2
 7932 0ece 91       		.byte	0x91
 7933 0ecf 64       		.sleb128 -28
 7934 0ed0 25       		.uleb128 0x25
 7935 0ed1 C2030000 		.4byte	.LASF196
 7936 0ed5 01       		.byte	0x1
 7937 0ed6 8801     		.2byte	0x188
 7938 0ed8 C3000000 		.4byte	0xc3
 7939 0edc 02       		.uleb128 0x2
 7940 0edd 91       		.byte	0x91
 7941 0ede 60       		.sleb128 -32
 7942 0edf 25       		.uleb128 0x25
 7943 0ee0 E3070000 		.4byte	.LASF197
 7944 0ee4 01       		.byte	0x1
 7945 0ee5 8901     		.2byte	0x189
 7946 0ee7 C3000000 		.4byte	0xc3
 7947 0eeb 02       		.uleb128 0x2
 7948 0eec 91       		.byte	0x91
 7949 0eed 5C       		.sleb128 -36
 7950 0eee 25       		.uleb128 0x25
 7951 0eef 0D0C0000 		.4byte	.LASF198
 7952 0ef3 01       		.byte	0x1
 7953 0ef4 A101     		.2byte	0x1a1
 7954 0ef6 AD000000 		.4byte	0xad
 7955 0efa 02       		.uleb128 0x2
 7956 0efb 91       		.byte	0x91
 7957 0efc 58       		.sleb128 -40
 7958 0efd 25       		.uleb128 0x25
 7959 0efe 450B0000 		.4byte	.LASF199
 7960 0f02 01       		.byte	0x1
 7961 0f03 A201     		.2byte	0x1a2
 7962 0f05 AD000000 		.4byte	0xad
 7963 0f09 02       		.uleb128 0x2
 7964 0f0a 91       		.byte	0x91
 7965 0f0b 56       		.sleb128 -42
 7966 0f0c 25       		.uleb128 0x25
 7967 0f0d D5050000 		.4byte	.LASF200
 7968 0f11 01       		.byte	0x1
 7969 0f12 A301     		.2byte	0x1a3
 7970 0f14 AD000000 		.4byte	0xad
 7971 0f18 02       		.uleb128 0x2
 7972 0f19 91       		.byte	0x91
 7973 0f1a 54       		.sleb128 -44
 7974 0f1b 25       		.uleb128 0x25
ARM GAS  C:\Users\JENNEW~1\AppData\Local\Temp\ccHH9OS0.s 			page 173


 7975 0f1c 01040000 		.4byte	.LASF201
 7976 0f20 01       		.byte	0x1
 7977 0f21 A401     		.2byte	0x1a4
 7978 0f23 AD000000 		.4byte	0xad
 7979 0f27 02       		.uleb128 0x2
 7980 0f28 91       		.byte	0x91
 7981 0f29 52       		.sleb128 -46
 7982 0f2a 25       		.uleb128 0x25
 7983 0f2b 35020000 		.4byte	.LASF202
 7984 0f2f 01       		.byte	0x1
 7985 0f30 A501     		.2byte	0x1a5
 7986 0f32 AD000000 		.4byte	0xad
 7987 0f36 02       		.uleb128 0x2
 7988 0f37 91       		.byte	0x91
 7989 0f38 50       		.sleb128 -48
 7990 0f39 1B       		.uleb128 0x1b
 7991 0f3a 30000000 		.4byte	.LBB14
 7992 0f3e C2000000 		.4byte	.LBE14-.LBB14
 7993 0f42 20       		.uleb128 0x20
 7994 0f43 726F7700 		.ascii	"row\000"
 7995 0f47 01       		.byte	0x1
 7996 0f48 7001     		.2byte	0x170
 7997 0f4a A2000000 		.4byte	0xa2
 7998 0f4e 02       		.uleb128 0x2
 7999 0f4f 91       		.byte	0x91
 8000 0f50 6F       		.sleb128 -17
 8001 0f51 20       		.uleb128 0x20
 8002 0f52 636F6C00 		.ascii	"col\000"
 8003 0f56 01       		.byte	0x1
 8004 0f57 7001     		.2byte	0x170
 8005 0f59 A2000000 		.4byte	0xa2
 8006 0f5d 02       		.uleb128 0x2
 8007 0f5e 91       		.byte	0x91
 8008 0f5f 6E       		.sleb128 -18
 8009 0f60 1B       		.uleb128 0x1b
 8010 0f61 38000000 		.4byte	.LBB15
 8011 0f65 A4000000 		.4byte	.LBE15-.LBB15
 8012 0f69 20       		.uleb128 0x20
 8013 0f6a 627000   		.ascii	"bp\000"
 8014 0f6d 01       		.byte	0x1
 8015 0f6e 7201     		.2byte	0x172
 8016 0f70 50010000 		.4byte	0x150
 8017 0f74 02       		.uleb128 0x2
 8018 0f75 91       		.byte	0x91
 8019 0f76 68       		.sleb128 -24
 8020 0f77 00       		.byte	0
 8021 0f78 00       		.byte	0
 8022 0f79 00       		.byte	0
 8023 0f7a 22       		.uleb128 0x22
 8024 0f7b 540B0000 		.4byte	.LASF203
 8025 0f7f 01       		.byte	0x1
 8026 0f80 C301     		.2byte	0x1c3
 8027 0f82 00000000 		.4byte	.LFB75
 8028 0f86 40040000 		.4byte	.LFE75-.LFB75
 8029 0f8a 01       		.uleb128 0x1
 8030 0f8b 9C       		.byte	0x9c
 8031 0f8c 30110000 		.4byte	0x1130
ARM GAS  C:\Users\JENNEW~1\AppData\Local\Temp\ccHH9OS0.s 			page 174


 8032 0f90 23       		.uleb128 0x23
 8033 0f91 737400   		.ascii	"st\000"
 8034 0f94 01       		.byte	0x1
 8035 0f95 C301     		.2byte	0x1c3
 8036 0f97 300A0000 		.4byte	0xa30
 8037 0f9b 03       		.uleb128 0x3
 8038 0f9c 91       		.byte	0x91
 8039 0f9d A47E     		.sleb128 -220
 8040 0f9f 23       		.uleb128 0x23
 8041 0fa0 647400   		.ascii	"dt\000"
 8042 0fa3 01       		.byte	0x1
 8043 0fa4 C301     		.2byte	0x1c3
 8044 0fa6 CE000000 		.4byte	0xce
 8045 0faa 03       		.uleb128 0x3
 8046 0fab 91       		.byte	0x91
 8047 0fac A07E     		.sleb128 -224
 8048 0fae 24       		.uleb128 0x24
 8049 0faf 130C0000 		.4byte	.LASF190
 8050 0fb3 01       		.byte	0x1
 8051 0fb4 C401     		.2byte	0x1c4
 8052 0fb6 B8000000 		.4byte	0xb8
 8053 0fba 03       		.uleb128 0x3
 8054 0fbb 91       		.byte	0x91
 8055 0fbc 9E7E     		.sleb128 -226
 8056 0fbe 23       		.uleb128 0x23
 8057 0fbf 7000     		.ascii	"p\000"
 8058 0fc1 01       		.byte	0x1
 8059 0fc2 C401     		.2byte	0x1c4
 8060 0fc4 DA0D0000 		.4byte	0xdda
 8061 0fc8 03       		.uleb128 0x3
 8062 0fc9 91       		.byte	0x91
 8063 0fca 987E     		.sleb128 -232
 8064 0fcc 24       		.uleb128 0x24
 8065 0fcd 1E0A0000 		.4byte	.LASF191
 8066 0fd1 01       		.byte	0x1
 8067 0fd2 C401     		.2byte	0x1c4
 8068 0fd4 A2000000 		.4byte	0xa2
 8069 0fd8 02       		.uleb128 0x2
 8070 0fd9 91       		.byte	0x91
 8071 0fda 00       		.sleb128 0
 8072 0fdb 20       		.uleb128 0x20
 8073 0fdc 62756600 		.ascii	"buf\000"
 8074 0fe0 01       		.byte	0x1
 8075 0fe1 C601     		.2byte	0x1c6
 8076 0fe3 E50D0000 		.4byte	0xde5
 8077 0fe7 03       		.uleb128 0x3
 8078 0fe8 91       		.byte	0x91
 8079 0fe9 BC7E     		.sleb128 -196
 8080 0feb 20       		.uleb128 0x20
 8081 0fec 7300     		.ascii	"s\000"
 8082 0fee 01       		.byte	0x1
 8083 0fef E001     		.2byte	0x1e0
 8084 0ff1 23010000 		.4byte	0x123
 8085 0ff5 03       		.uleb128 0x3
 8086 0ff6 91       		.byte	0x91
 8087 0ff7 BB7E     		.sleb128 -197
 8088 0ff9 20       		.uleb128 0x20
ARM GAS  C:\Users\JENNEW~1\AppData\Local\Temp\ccHH9OS0.s 			page 175


 8089 0ffa 766900   		.ascii	"vi\000"
 8090 0ffd 01       		.byte	0x1
 8091 0ffe E001     		.2byte	0x1e0
 8092 1000 FD000000 		.4byte	0xfd
 8093 1004 03       		.uleb128 0x3
 8094 1005 91       		.byte	0x91
 8095 1006 B87E     		.sleb128 -200
 8096 1008 20       		.uleb128 0x20
 8097 1009 766600   		.ascii	"vf\000"
 8098 100c 01       		.byte	0x1
 8099 100d E001     		.2byte	0x1e0
 8100 100f FD000000 		.4byte	0xfd
 8101 1013 03       		.uleb128 0x3
 8102 1014 91       		.byte	0x91
 8103 1015 B67E     		.sleb128 -202
 8104 1017 25       		.uleb128 0x25
 8105 1018 82000000 		.4byte	.LASF204
 8106 101c 01       		.byte	0x1
 8107 101d E601     		.2byte	0x1e6
 8108 101f AD000000 		.4byte	0xad
 8109 1023 02       		.uleb128 0x2
 8110 1024 91       		.byte	0x91
 8111 1025 66       		.sleb128 -26
 8112 1026 25       		.uleb128 0x25
 8113 1027 88090000 		.4byte	.LASF205
 8114 102b 01       		.byte	0x1
 8115 102c E701     		.2byte	0x1e7
 8116 102e AD000000 		.4byte	0xad
 8117 1032 02       		.uleb128 0x2
 8118 1033 91       		.byte	0x91
 8119 1034 64       		.sleb128 -28
 8120 1035 25       		.uleb128 0x25
 8121 1036 00070000 		.4byte	.LASF206
 8122 103a 01       		.byte	0x1
 8123 103b E801     		.2byte	0x1e8
 8124 103d AD000000 		.4byte	0xad
 8125 1041 02       		.uleb128 0x2
 8126 1042 91       		.byte	0x91
 8127 1043 62       		.sleb128 -30
 8128 1044 21       		.uleb128 0x21
 8129 1045 30000000 		.4byte	.LBB16
 8130 1049 C2000000 		.4byte	.LBE16-.LBB16
 8131 104d 88100000 		.4byte	0x1088
 8132 1051 20       		.uleb128 0x20
 8133 1052 726F7700 		.ascii	"row\000"
 8134 1056 01       		.byte	0x1
 8135 1057 CF01     		.2byte	0x1cf
 8136 1059 A2000000 		.4byte	0xa2
 8137 105d 02       		.uleb128 0x2
 8138 105e 91       		.byte	0x91
 8139 105f 6F       		.sleb128 -17
 8140 1060 20       		.uleb128 0x20
 8141 1061 636F6C00 		.ascii	"col\000"
 8142 1065 01       		.byte	0x1
 8143 1066 CF01     		.2byte	0x1cf
 8144 1068 A2000000 		.4byte	0xa2
 8145 106c 02       		.uleb128 0x2
ARM GAS  C:\Users\JENNEW~1\AppData\Local\Temp\ccHH9OS0.s 			page 176


 8146 106d 91       		.byte	0x91
 8147 106e 6E       		.sleb128 -18
 8148 106f 1B       		.uleb128 0x1b
 8149 1070 38000000 		.4byte	.LBB17
 8150 1074 A4000000 		.4byte	.LBE17-.LBB17
 8151 1078 20       		.uleb128 0x20
 8152 1079 627000   		.ascii	"bp\000"
 8153 107c 01       		.byte	0x1
 8154 107d D101     		.2byte	0x1d1
 8155 107f 50010000 		.4byte	0x150
 8156 1083 02       		.uleb128 0x2
 8157 1084 91       		.byte	0x91
 8158 1085 68       		.sleb128 -24
 8159 1086 00       		.byte	0
 8160 1087 00       		.byte	0
 8161 1088 21       		.uleb128 0x21
 8162 1089 1E010000 		.4byte	.LBB18
 8163 108d 12000000 		.4byte	.LBE18-.LBB18
 8164 1091 A5100000 		.4byte	0x10a5
 8165 1095 20       		.uleb128 0x20
 8166 1096 5F7600   		.ascii	"_v\000"
 8167 1099 01       		.byte	0x1
 8168 109a E601     		.2byte	0x1e6
 8169 109c AD000000 		.4byte	0xad
 8170 10a0 03       		.uleb128 0x3
 8171 10a1 91       		.byte	0x91
 8172 10a2 B47E     		.sleb128 -204
 8173 10a4 00       		.byte	0
 8174 10a5 21       		.uleb128 0x21
 8175 10a6 64010000 		.4byte	.LBB19
 8176 10aa 14000000 		.4byte	.LBE19-.LBB19
 8177 10ae C2100000 		.4byte	0x10c2
 8178 10b2 20       		.uleb128 0x20
 8179 10b3 5F7600   		.ascii	"_v\000"
 8180 10b6 01       		.byte	0x1
 8181 10b7 E801     		.2byte	0x1e8
 8182 10b9 AD000000 		.4byte	0xad
 8183 10bd 03       		.uleb128 0x3
 8184 10be 91       		.byte	0x91
 8185 10bf B27E     		.sleb128 -206
 8186 10c1 00       		.byte	0
 8187 10c2 1B       		.uleb128 0x1b
 8188 10c3 8C020000 		.4byte	.LBB20
 8189 10c7 92010000 		.4byte	.LBE20-.LBB20
 8190 10cb 25       		.uleb128 0x25
 8191 10cc 61000000 		.4byte	.LASF207
 8192 10d0 01       		.byte	0x1
 8193 10d1 FB01     		.2byte	0x1fb
 8194 10d3 AD000000 		.4byte	0xad
 8195 10d7 02       		.uleb128 0x2
 8196 10d8 91       		.byte	0x91
 8197 10d9 60       		.sleb128 -32
 8198 10da 25       		.uleb128 0x25
 8199 10db 32090000 		.4byte	.LASF208
 8200 10df 01       		.byte	0x1
 8201 10e0 FC01     		.2byte	0x1fc
 8202 10e2 AD000000 		.4byte	0xad
ARM GAS  C:\Users\JENNEW~1\AppData\Local\Temp\ccHH9OS0.s 			page 177


 8203 10e6 02       		.uleb128 0x2
 8204 10e7 91       		.byte	0x91
 8205 10e8 5E       		.sleb128 -34
 8206 10e9 25       		.uleb128 0x25
 8207 10ea BF060000 		.4byte	.LASF209
 8208 10ee 01       		.byte	0x1
 8209 10ef FD01     		.2byte	0x1fd
 8210 10f1 AD000000 		.4byte	0xad
 8211 10f5 02       		.uleb128 0x2
 8212 10f6 91       		.byte	0x91
 8213 10f7 5C       		.sleb128 -36
 8214 10f8 21       		.uleb128 0x21
 8215 10f9 94020000 		.4byte	.LBB21
 8216 10fd 14000000 		.4byte	.LBE21-.LBB21
 8217 1101 15110000 		.4byte	0x1115
 8218 1105 20       		.uleb128 0x20
 8219 1106 5F7600   		.ascii	"_v\000"
 8220 1109 01       		.byte	0x1
 8221 110a FB01     		.2byte	0x1fb
 8222 110c AD000000 		.4byte	0xad
 8223 1110 03       		.uleb128 0x3
 8224 1111 91       		.byte	0x91
 8225 1112 B07E     		.sleb128 -208
 8226 1114 00       		.byte	0
 8227 1115 1B       		.uleb128 0x1b
 8228 1116 DE020000 		.4byte	.LBB22
 8229 111a 14000000 		.4byte	.LBE22-.LBB22
 8230 111e 20       		.uleb128 0x20
 8231 111f 5F7600   		.ascii	"_v\000"
 8232 1122 01       		.byte	0x1
 8233 1123 FD01     		.2byte	0x1fd
 8234 1125 AD000000 		.4byte	0xad
 8235 1129 03       		.uleb128 0x3
 8236 112a 91       		.byte	0x91
 8237 112b AE7E     		.sleb128 -210
 8238 112d 00       		.byte	0
 8239 112e 00       		.byte	0
 8240 112f 00       		.byte	0
 8241 1130 22       		.uleb128 0x22
 8242 1131 14020000 		.4byte	.LASF210
 8243 1135 01       		.byte	0x1
 8244 1136 1002     		.2byte	0x210
 8245 1138 00000000 		.4byte	.LFB76
 8246 113c 54050000 		.4byte	.LFE76-.LFB76
 8247 1140 01       		.uleb128 0x1
 8248 1141 9C       		.byte	0x9c
 8249 1142 05130000 		.4byte	0x1305
 8250 1146 23       		.uleb128 0x23
 8251 1147 737400   		.ascii	"st\000"
 8252 114a 01       		.byte	0x1
 8253 114b 1002     		.2byte	0x210
 8254 114d 300A0000 		.4byte	0xa30
 8255 1151 03       		.uleb128 0x3
 8256 1152 91       		.byte	0x91
 8257 1153 A47E     		.sleb128 -220
 8258 1155 23       		.uleb128 0x23
 8259 1156 647400   		.ascii	"dt\000"
ARM GAS  C:\Users\JENNEW~1\AppData\Local\Temp\ccHH9OS0.s 			page 178


 8260 1159 01       		.byte	0x1
 8261 115a 1002     		.2byte	0x210
 8262 115c CE000000 		.4byte	0xce
 8263 1160 03       		.uleb128 0x3
 8264 1161 91       		.byte	0x91
 8265 1162 A07E     		.sleb128 -224
 8266 1164 24       		.uleb128 0x24
 8267 1165 130C0000 		.4byte	.LASF190
 8268 1169 01       		.byte	0x1
 8269 116a 1102     		.2byte	0x211
 8270 116c B8000000 		.4byte	0xb8
 8271 1170 03       		.uleb128 0x3
 8272 1171 91       		.byte	0x91
 8273 1172 9E7E     		.sleb128 -226
 8274 1174 23       		.uleb128 0x23
 8275 1175 7000     		.ascii	"p\000"
 8276 1177 01       		.byte	0x1
 8277 1178 1102     		.2byte	0x211
 8278 117a DA0D0000 		.4byte	0xdda
 8279 117e 03       		.uleb128 0x3
 8280 117f 91       		.byte	0x91
 8281 1180 987E     		.sleb128 -232
 8282 1182 24       		.uleb128 0x24
 8283 1183 1E0A0000 		.4byte	.LASF191
 8284 1187 01       		.byte	0x1
 8285 1188 1102     		.2byte	0x211
 8286 118a A2000000 		.4byte	0xa2
 8287 118e 02       		.uleb128 0x2
 8288 118f 91       		.byte	0x91
 8289 1190 00       		.sleb128 0
 8290 1191 20       		.uleb128 0x20
 8291 1192 62756600 		.ascii	"buf\000"
 8292 1196 01       		.byte	0x1
 8293 1197 1302     		.2byte	0x213
 8294 1199 E50D0000 		.4byte	0xde5
 8295 119d 03       		.uleb128 0x3
 8296 119e 91       		.byte	0x91
 8297 119f B47E     		.sleb128 -204
 8298 11a1 20       		.uleb128 0x20
 8299 11a2 7300     		.ascii	"s\000"
 8300 11a4 01       		.byte	0x1
 8301 11a5 2D02     		.2byte	0x22d
 8302 11a7 23010000 		.4byte	0x123
 8303 11ab 03       		.uleb128 0x3
 8304 11ac 91       		.byte	0x91
 8305 11ad B37E     		.sleb128 -205
 8306 11af 20       		.uleb128 0x20
 8307 11b0 766900   		.ascii	"vi\000"
 8308 11b3 01       		.byte	0x1
 8309 11b4 2D02     		.2byte	0x22d
 8310 11b6 FD000000 		.4byte	0xfd
 8311 11ba 03       		.uleb128 0x3
 8312 11bb 91       		.byte	0x91
 8313 11bc B07E     		.sleb128 -208
 8314 11be 20       		.uleb128 0x20
 8315 11bf 766600   		.ascii	"vf\000"
 8316 11c2 01       		.byte	0x1
ARM GAS  C:\Users\JENNEW~1\AppData\Local\Temp\ccHH9OS0.s 			page 179


 8317 11c3 2D02     		.2byte	0x22d
 8318 11c5 FD000000 		.4byte	0xfd
 8319 11c9 03       		.uleb128 0x3
 8320 11ca 91       		.byte	0x91
 8321 11cb AE7E     		.sleb128 -210
 8322 11cd 25       		.uleb128 0x25
 8323 11ce 4D060000 		.4byte	.LASF211
 8324 11d2 01       		.byte	0x1
 8325 11d3 3002     		.2byte	0x230
 8326 11d5 AD000000 		.4byte	0xad
 8327 11d9 02       		.uleb128 0x2
 8328 11da 91       		.byte	0x91
 8329 11db 66       		.sleb128 -26
 8330 11dc 21       		.uleb128 0x21
 8331 11dd 30000000 		.4byte	.LBB23
 8332 11e1 C2000000 		.4byte	.LBE23-.LBB23
 8333 11e5 20120000 		.4byte	0x1220
 8334 11e9 20       		.uleb128 0x20
 8335 11ea 726F7700 		.ascii	"row\000"
 8336 11ee 01       		.byte	0x1
 8337 11ef 1C02     		.2byte	0x21c
 8338 11f1 A2000000 		.4byte	0xa2
 8339 11f5 02       		.uleb128 0x2
 8340 11f6 91       		.byte	0x91
 8341 11f7 6F       		.sleb128 -17
 8342 11f8 20       		.uleb128 0x20
 8343 11f9 636F6C00 		.ascii	"col\000"
 8344 11fd 01       		.byte	0x1
 8345 11fe 1C02     		.2byte	0x21c
 8346 1200 A2000000 		.4byte	0xa2
 8347 1204 02       		.uleb128 0x2
 8348 1205 91       		.byte	0x91
 8349 1206 6E       		.sleb128 -18
 8350 1207 1B       		.uleb128 0x1b
 8351 1208 38000000 		.4byte	.LBB24
 8352 120c A4000000 		.4byte	.LBE24-.LBB24
 8353 1210 20       		.uleb128 0x20
 8354 1211 627000   		.ascii	"bp\000"
 8355 1214 01       		.byte	0x1
 8356 1215 1E02     		.2byte	0x21e
 8357 1217 50010000 		.4byte	0x150
 8358 121b 02       		.uleb128 0x2
 8359 121c 91       		.byte	0x91
 8360 121d 68       		.sleb128 -24
 8361 121e 00       		.byte	0
 8362 121f 00       		.byte	0
 8363 1220 21       		.uleb128 0x21
 8364 1221 34020000 		.4byte	.LBB25
 8365 1225 42000000 		.4byte	.LBE25-.LBB25
 8366 1229 3D120000 		.4byte	0x123d
 8367 122d 25       		.uleb128 0x25
 8368 122e 3C000000 		.4byte	.LASF212
 8369 1232 01       		.byte	0x1
 8370 1233 4402     		.2byte	0x244
 8371 1235 AD000000 		.4byte	0xad
 8372 1239 02       		.uleb128 0x2
 8373 123a 91       		.byte	0x91
ARM GAS  C:\Users\JENNEW~1\AppData\Local\Temp\ccHH9OS0.s 			page 180


 8374 123b 64       		.sleb128 -28
 8375 123c 00       		.byte	0
 8376 123d 21       		.uleb128 0x21
 8377 123e 7E020000 		.4byte	.LBB26
 8378 1242 42000000 		.4byte	.LBE26-.LBB26
 8379 1246 5A120000 		.4byte	0x125a
 8380 124a 25       		.uleb128 0x25
 8381 124b 5F020000 		.4byte	.LASF213
 8382 124f 01       		.byte	0x1
 8383 1250 4A02     		.2byte	0x24a
 8384 1252 AD000000 		.4byte	0xad
 8385 1256 02       		.uleb128 0x2
 8386 1257 91       		.byte	0x91
 8387 1258 62       		.sleb128 -30
 8388 1259 00       		.byte	0
 8389 125a 21       		.uleb128 0x21
 8390 125b C8020000 		.4byte	.LBB27
 8391 125f AC000000 		.4byte	.LBE27-.LBB27
 8392 1263 77120000 		.4byte	0x1277
 8393 1267 25       		.uleb128 0x25
 8394 1268 7D080000 		.4byte	.LASF214
 8395 126c 01       		.byte	0x1
 8396 126d 5002     		.2byte	0x250
 8397 126f AD000000 		.4byte	0xad
 8398 1273 02       		.uleb128 0x2
 8399 1274 91       		.byte	0x91
 8400 1275 60       		.sleb128 -32
 8401 1276 00       		.byte	0
 8402 1277 21       		.uleb128 0x21
 8403 1278 82030000 		.4byte	.LBB28
 8404 127c 40000000 		.4byte	.LBE28-.LBB28
 8405 1280 94120000 		.4byte	0x1294
 8406 1284 25       		.uleb128 0x25
 8407 1285 CA000000 		.4byte	.LASF215
 8408 1289 01       		.byte	0x1
 8409 128a 5A02     		.2byte	0x25a
 8410 128c AD000000 		.4byte	0xad
 8411 1290 02       		.uleb128 0x2
 8412 1291 91       		.byte	0x91
 8413 1292 5E       		.sleb128 -34
 8414 1293 00       		.byte	0
 8415 1294 21       		.uleb128 0x21
 8416 1295 CA030000 		.4byte	.LBB29
 8417 1299 42000000 		.4byte	.LBE29-.LBB29
 8418 129d B1120000 		.4byte	0x12b1
 8419 12a1 25       		.uleb128 0x25
 8420 12a2 A9030000 		.4byte	.LASF216
 8421 12a6 01       		.byte	0x1
 8422 12a7 5F02     		.2byte	0x25f
 8423 12a9 AD000000 		.4byte	0xad
 8424 12ad 02       		.uleb128 0x2
 8425 12ae 91       		.byte	0x91
 8426 12af 5C       		.sleb128 -36
 8427 12b0 00       		.byte	0
 8428 12b1 21       		.uleb128 0x21
 8429 12b2 14040000 		.4byte	.LBB30
 8430 12b6 40000000 		.4byte	.LBE30-.LBB30
ARM GAS  C:\Users\JENNEW~1\AppData\Local\Temp\ccHH9OS0.s 			page 181


 8431 12ba CE120000 		.4byte	0x12ce
 8432 12be 25       		.uleb128 0x25
 8433 12bf C2030000 		.4byte	.LASF196
 8434 12c3 01       		.byte	0x1
 8435 12c4 6502     		.2byte	0x265
 8436 12c6 AD000000 		.4byte	0xad
 8437 12ca 02       		.uleb128 0x2
 8438 12cb 91       		.byte	0x91
 8439 12cc 5A       		.sleb128 -38
 8440 12cd 00       		.byte	0
 8441 12ce 21       		.uleb128 0x21
 8442 12cf 5C040000 		.4byte	.LBB31
 8443 12d3 78000000 		.4byte	.LBE31-.LBB31
 8444 12d7 EB120000 		.4byte	0x12eb
 8445 12db 25       		.uleb128 0x25
 8446 12dc A1090000 		.4byte	.LASF217
 8447 12e0 01       		.byte	0x1
 8448 12e1 6A02     		.2byte	0x26a
 8449 12e3 AD000000 		.4byte	0xad
 8450 12e7 02       		.uleb128 0x2
 8451 12e8 91       		.byte	0x91
 8452 12e9 58       		.sleb128 -40
 8453 12ea 00       		.byte	0
 8454 12eb 1B       		.uleb128 0x1b
 8455 12ec DC040000 		.4byte	.LBB32
 8456 12f0 42000000 		.4byte	.LBE32-.LBB32
 8457 12f4 25       		.uleb128 0x25
 8458 12f5 14090000 		.4byte	.LASF218
 8459 12f9 01       		.byte	0x1
 8460 12fa 7102     		.2byte	0x271
 8461 12fc AD000000 		.4byte	0xad
 8462 1300 02       		.uleb128 0x2
 8463 1301 91       		.byte	0x91
 8464 1302 56       		.sleb128 -42
 8465 1303 00       		.byte	0
 8466 1304 00       		.byte	0
 8467 1305 22       		.uleb128 0x22
 8468 1306 23090000 		.4byte	.LASF219
 8469 130a 01       		.byte	0x1
 8470 130b 7A02     		.2byte	0x27a
 8471 130d 00000000 		.4byte	.LFB77
 8472 1311 F4040000 		.4byte	.LFE77-.LFB77
 8473 1315 01       		.uleb128 0x1
 8474 1316 9C       		.byte	0x9c
 8475 1317 49150000 		.4byte	0x1549
 8476 131b 23       		.uleb128 0x23
 8477 131c 737400   		.ascii	"st\000"
 8478 131f 01       		.byte	0x1
 8479 1320 7A02     		.2byte	0x27a
 8480 1322 300A0000 		.4byte	0xa30
 8481 1326 03       		.uleb128 0x3
 8482 1327 91       		.byte	0x91
 8483 1328 9C7E     		.sleb128 -228
 8484 132a 23       		.uleb128 0x23
 8485 132b 647400   		.ascii	"dt\000"
 8486 132e 01       		.byte	0x1
 8487 132f 7A02     		.2byte	0x27a
ARM GAS  C:\Users\JENNEW~1\AppData\Local\Temp\ccHH9OS0.s 			page 182


 8488 1331 CE000000 		.4byte	0xce
 8489 1335 03       		.uleb128 0x3
 8490 1336 91       		.byte	0x91
 8491 1337 987E     		.sleb128 -232
 8492 1339 24       		.uleb128 0x24
 8493 133a 130C0000 		.4byte	.LASF190
 8494 133e 01       		.byte	0x1
 8495 133f 7B02     		.2byte	0x27b
 8496 1341 B8000000 		.4byte	0xb8
 8497 1345 03       		.uleb128 0x3
 8498 1346 91       		.byte	0x91
 8499 1347 967E     		.sleb128 -234
 8500 1349 23       		.uleb128 0x23
 8501 134a 7000     		.ascii	"p\000"
 8502 134c 01       		.byte	0x1
 8503 134d 7B02     		.2byte	0x27b
 8504 134f DA0D0000 		.4byte	0xdda
 8505 1353 03       		.uleb128 0x3
 8506 1354 91       		.byte	0x91
 8507 1355 907E     		.sleb128 -240
 8508 1357 24       		.uleb128 0x24
 8509 1358 1E0A0000 		.4byte	.LASF191
 8510 135c 01       		.byte	0x1
 8511 135d 7B02     		.2byte	0x27b
 8512 135f A2000000 		.4byte	0xa2
 8513 1363 02       		.uleb128 0x2
 8514 1364 91       		.byte	0x91
 8515 1365 00       		.sleb128 0
 8516 1366 20       		.uleb128 0x20
 8517 1367 62756600 		.ascii	"buf\000"
 8518 136b 01       		.byte	0x1
 8519 136c 7D02     		.2byte	0x27d
 8520 136e E50D0000 		.4byte	0xde5
 8521 1372 03       		.uleb128 0x3
 8522 1373 91       		.byte	0x91
 8523 1374 BC7E     		.sleb128 -196
 8524 1376 20       		.uleb128 0x20
 8525 1377 7300     		.ascii	"s\000"
 8526 1379 01       		.byte	0x1
 8527 137a 8A02     		.2byte	0x28a
 8528 137c 23010000 		.4byte	0x123
 8529 1380 03       		.uleb128 0x3
 8530 1381 91       		.byte	0x91
 8531 1382 BB7E     		.sleb128 -197
 8532 1384 20       		.uleb128 0x20
 8533 1385 766900   		.ascii	"vi\000"
 8534 1388 01       		.byte	0x1
 8535 1389 8A02     		.2byte	0x28a
 8536 138b FD000000 		.4byte	0xfd
 8537 138f 03       		.uleb128 0x3
 8538 1390 91       		.byte	0x91
 8539 1391 B87E     		.sleb128 -200
 8540 1393 20       		.uleb128 0x20
 8541 1394 766600   		.ascii	"vf\000"
 8542 1397 01       		.byte	0x1
 8543 1398 8A02     		.2byte	0x28a
 8544 139a FD000000 		.4byte	0xfd
ARM GAS  C:\Users\JENNEW~1\AppData\Local\Temp\ccHH9OS0.s 			page 183


 8545 139e 03       		.uleb128 0x3
 8546 139f 91       		.byte	0x91
 8547 13a0 B67E     		.sleb128 -202
 8548 13a2 20       		.uleb128 0x20
 8549 13a3 785F7200 		.ascii	"x_r\000"
 8550 13a7 01       		.byte	0x1
 8551 13a8 8C02     		.2byte	0x28c
 8552 13aa AD000000 		.4byte	0xad
 8553 13ae 02       		.uleb128 0x2
 8554 13af 91       		.byte	0x91
 8555 13b0 6E       		.sleb128 -18
 8556 13b1 20       		.uleb128 0x20
 8557 13b2 795F7200 		.ascii	"y_r\000"
 8558 13b6 01       		.byte	0x1
 8559 13b7 8D02     		.2byte	0x28d
 8560 13b9 AD000000 		.4byte	0xad
 8561 13bd 02       		.uleb128 0x2
 8562 13be 91       		.byte	0x91
 8563 13bf 6C       		.sleb128 -20
 8564 13c0 20       		.uleb128 0x20
 8565 13c1 7A5F7200 		.ascii	"z_r\000"
 8566 13c5 01       		.byte	0x1
 8567 13c6 8E02     		.2byte	0x28e
 8568 13c8 AD000000 		.4byte	0xad
 8569 13cc 02       		.uleb128 0x2
 8570 13cd 91       		.byte	0x91
 8571 13ce 6A       		.sleb128 -22
 8572 13cf 21       		.uleb128 0x21
 8573 13d0 5C000000 		.4byte	.LBB33
 8574 13d4 14000000 		.4byte	.LBE33-.LBB33
 8575 13d8 EC130000 		.4byte	0x13ec
 8576 13dc 20       		.uleb128 0x20
 8577 13dd 5F7600   		.ascii	"_v\000"
 8578 13e0 01       		.byte	0x1
 8579 13e1 8C02     		.2byte	0x28c
 8580 13e3 AD000000 		.4byte	0xad
 8581 13e7 03       		.uleb128 0x3
 8582 13e8 91       		.byte	0x91
 8583 13e9 B47E     		.sleb128 -204
 8584 13eb 00       		.byte	0
 8585 13ec 21       		.uleb128 0x21
 8586 13ed 80000000 		.4byte	.LBB34
 8587 13f1 14000000 		.4byte	.LBE34-.LBB34
 8588 13f5 09140000 		.4byte	0x1409
 8589 13f9 20       		.uleb128 0x20
 8590 13fa 5F7600   		.ascii	"_v\000"
 8591 13fd 01       		.byte	0x1
 8592 13fe 8D02     		.2byte	0x28d
 8593 1400 AD000000 		.4byte	0xad
 8594 1404 03       		.uleb128 0x3
 8595 1405 91       		.byte	0x91
 8596 1406 B27E     		.sleb128 -206
 8597 1408 00       		.byte	0
 8598 1409 21       		.uleb128 0x21
 8599 140a A4000000 		.4byte	.LBB35
 8600 140e 14000000 		.4byte	.LBE35-.LBB35
 8601 1412 26140000 		.4byte	0x1426
ARM GAS  C:\Users\JENNEW~1\AppData\Local\Temp\ccHH9OS0.s 			page 184


 8602 1416 20       		.uleb128 0x20
 8603 1417 5F7600   		.ascii	"_v\000"
 8604 141a 01       		.byte	0x1
 8605 141b 8E02     		.2byte	0x28e
 8606 141d AD000000 		.4byte	0xad
 8607 1421 03       		.uleb128 0x3
 8608 1422 91       		.byte	0x91
 8609 1423 B07E     		.sleb128 -208
 8610 1425 00       		.byte	0
 8611 1426 21       		.uleb128 0x21
 8612 1427 C4010000 		.4byte	.LBB36
 8613 142b F2000000 		.4byte	.LBE36-.LBB36
 8614 142f 88140000 		.4byte	0x1488
 8615 1433 25       		.uleb128 0x25
 8616 1434 6A070000 		.4byte	.LASF220
 8617 1438 01       		.byte	0x1
 8618 1439 A002     		.2byte	0x2a0
 8619 143b AD000000 		.4byte	0xad
 8620 143f 02       		.uleb128 0x2
 8621 1440 91       		.byte	0x91
 8622 1441 68       		.sleb128 -24
 8623 1442 25       		.uleb128 0x25
 8624 1443 13010000 		.4byte	.LASF221
 8625 1447 01       		.byte	0x1
 8626 1448 A102     		.2byte	0x2a1
 8627 144a AD000000 		.4byte	0xad
 8628 144e 02       		.uleb128 0x2
 8629 144f 91       		.byte	0x91
 8630 1450 66       		.sleb128 -26
 8631 1451 21       		.uleb128 0x21
 8632 1452 CC010000 		.4byte	.LBB37
 8633 1456 14000000 		.4byte	.LBE37-.LBB37
 8634 145a 6E140000 		.4byte	0x146e
 8635 145e 20       		.uleb128 0x20
 8636 145f 5F7600   		.ascii	"_v\000"
 8637 1462 01       		.byte	0x1
 8638 1463 A002     		.2byte	0x2a0
 8639 1465 AD000000 		.4byte	0xad
 8640 1469 03       		.uleb128 0x3
 8641 146a 91       		.byte	0x91
 8642 146b AE7E     		.sleb128 -210
 8643 146d 00       		.byte	0
 8644 146e 1B       		.uleb128 0x1b
 8645 146f F0010000 		.4byte	.LBB38
 8646 1473 16000000 		.4byte	.LBE38-.LBB38
 8647 1477 20       		.uleb128 0x20
 8648 1478 5F7600   		.ascii	"_v\000"
 8649 147b 01       		.byte	0x1
 8650 147c A102     		.2byte	0x2a1
 8651 147e AD000000 		.4byte	0xad
 8652 1482 03       		.uleb128 0x3
 8653 1483 91       		.byte	0x91
 8654 1484 AC7E     		.sleb128 -212
 8655 1486 00       		.byte	0
 8656 1487 00       		.byte	0
 8657 1488 21       		.uleb128 0x21
 8658 1489 C0020000 		.4byte	.LBB39
ARM GAS  C:\Users\JENNEW~1\AppData\Local\Temp\ccHH9OS0.s 			page 185


 8659 148d 92010000 		.4byte	.LBE39-.LBB39
 8660 1491 16150000 		.4byte	0x1516
 8661 1495 25       		.uleb128 0x25
 8662 1496 DC050000 		.4byte	.LASF222
 8663 149a 01       		.byte	0x1
 8664 149b AC02     		.2byte	0x2ac
 8665 149d AD000000 		.4byte	0xad
 8666 14a1 02       		.uleb128 0x2
 8667 14a2 91       		.byte	0x91
 8668 14a3 64       		.sleb128 -28
 8669 14a4 25       		.uleb128 0x25
 8670 14a5 35060000 		.4byte	.LASF223
 8671 14a9 01       		.byte	0x1
 8672 14aa AD02     		.2byte	0x2ad
 8673 14ac AD000000 		.4byte	0xad
 8674 14b0 02       		.uleb128 0x2
 8675 14b1 91       		.byte	0x91
 8676 14b2 62       		.sleb128 -30
 8677 14b3 25       		.uleb128 0x25
 8678 14b4 400B0000 		.4byte	.LASF224
 8679 14b8 01       		.byte	0x1
 8680 14b9 AE02     		.2byte	0x2ae
 8681 14bb AD000000 		.4byte	0xad
 8682 14bf 02       		.uleb128 0x2
 8683 14c0 91       		.byte	0x91
 8684 14c1 60       		.sleb128 -32
 8685 14c2 21       		.uleb128 0x21
 8686 14c3 C8020000 		.4byte	.LBB40
 8687 14c7 16000000 		.4byte	.LBE40-.LBB40
 8688 14cb DF140000 		.4byte	0x14df
 8689 14cf 20       		.uleb128 0x20
 8690 14d0 5F7600   		.ascii	"_v\000"
 8691 14d3 01       		.byte	0x1
 8692 14d4 AC02     		.2byte	0x2ac
 8693 14d6 AD000000 		.4byte	0xad
 8694 14da 03       		.uleb128 0x3
 8695 14db 91       		.byte	0x91
 8696 14dc AA7E     		.sleb128 -214
 8697 14de 00       		.byte	0
 8698 14df 21       		.uleb128 0x21
 8699 14e0 EE020000 		.4byte	.LBB41
 8700 14e4 16000000 		.4byte	.LBE41-.LBB41
 8701 14e8 FC140000 		.4byte	0x14fc
 8702 14ec 20       		.uleb128 0x20
 8703 14ed 5F7600   		.ascii	"_v\000"
 8704 14f0 01       		.byte	0x1
 8705 14f1 AD02     		.2byte	0x2ad
 8706 14f3 AD000000 		.4byte	0xad
 8707 14f7 03       		.uleb128 0x3
 8708 14f8 91       		.byte	0x91
 8709 14f9 A87E     		.sleb128 -216
 8710 14fb 00       		.byte	0
 8711 14fc 1B       		.uleb128 0x1b
 8712 14fd 14030000 		.4byte	.LBB42
 8713 1501 16000000 		.4byte	.LBE42-.LBB42
 8714 1505 20       		.uleb128 0x20
 8715 1506 5F7600   		.ascii	"_v\000"
ARM GAS  C:\Users\JENNEW~1\AppData\Local\Temp\ccHH9OS0.s 			page 186


 8716 1509 01       		.byte	0x1
 8717 150a AE02     		.2byte	0x2ae
 8718 150c AD000000 		.4byte	0xad
 8719 1510 03       		.uleb128 0x3
 8720 1511 91       		.byte	0x91
 8721 1512 A67E     		.sleb128 -218
 8722 1514 00       		.byte	0
 8723 1515 00       		.byte	0
 8724 1516 1B       		.uleb128 0x1b
 8725 1517 5A040000 		.4byte	.LBB43
 8726 151b 7A000000 		.4byte	.LBE43-.LBB43
 8727 151f 25       		.uleb128 0x25
 8728 1520 17070000 		.4byte	.LASF225
 8729 1524 01       		.byte	0x1
 8730 1525 BD02     		.2byte	0x2bd
 8731 1527 AD000000 		.4byte	0xad
 8732 152b 02       		.uleb128 0x2
 8733 152c 91       		.byte	0x91
 8734 152d 5E       		.sleb128 -34
 8735 152e 1B       		.uleb128 0x1b
 8736 152f 62040000 		.4byte	.LBB44
 8737 1533 16000000 		.4byte	.LBE44-.LBB44
 8738 1537 20       		.uleb128 0x20
 8739 1538 5F7600   		.ascii	"_v\000"
 8740 153b 01       		.byte	0x1
 8741 153c BD02     		.2byte	0x2bd
 8742 153e AD000000 		.4byte	0xad
 8743 1542 03       		.uleb128 0x3
 8744 1543 91       		.byte	0x91
 8745 1544 A47E     		.sleb128 -220
 8746 1546 00       		.byte	0
 8747 1547 00       		.byte	0
 8748 1548 00       		.byte	0
 8749 1549 22       		.uleb128 0x22
 8750 154a 6B090000 		.4byte	.LASF226
 8751 154e 01       		.byte	0x1
 8752 154f C902     		.2byte	0x2c9
 8753 1551 00000000 		.4byte	.LFB78
 8754 1555 6C010000 		.4byte	.LFE78-.LFB78
 8755 1559 01       		.uleb128 0x1
 8756 155a 9C       		.byte	0x9c
 8757 155b E0150000 		.4byte	0x15e0
 8758 155f 23       		.uleb128 0x23
 8759 1560 6D00     		.ascii	"m\000"
 8760 1562 01       		.byte	0x1
 8761 1563 C902     		.2byte	0x2c9
 8762 1565 EF0A0000 		.4byte	0xaef
 8763 1569 03       		.uleb128 0x3
 8764 156a 91       		.byte	0x91
 8765 156b CC7D     		.sleb128 -308
 8766 156d 23       		.uleb128 0x23
 8767 156e 647400   		.ascii	"dt\000"
 8768 1571 01       		.byte	0x1
 8769 1572 C902     		.2byte	0x2c9
 8770 1574 CE000000 		.4byte	0xce
 8771 1578 03       		.uleb128 0x3
 8772 1579 91       		.byte	0x91
ARM GAS  C:\Users\JENNEW~1\AppData\Local\Temp\ccHH9OS0.s 			page 187


 8773 157a C87D     		.sleb128 -312
 8774 157c 20       		.uleb128 0x20
 8775 157d 737400   		.ascii	"st\000"
 8776 1580 01       		.byte	0x1
 8777 1581 CB02     		.2byte	0x2cb
 8778 1583 66060000 		.4byte	0x666
 8779 1587 03       		.uleb128 0x3
 8780 1588 91       		.byte	0x91
 8781 1589 947E     		.sleb128 -236
 8782 158b 20       		.uleb128 0x20
 8783 158c 6C656E00 		.ascii	"len\000"
 8784 1590 01       		.byte	0x1
 8785 1591 CD02     		.2byte	0x2cd
 8786 1593 B8000000 		.4byte	0xb8
 8787 1597 02       		.uleb128 0x2
 8788 1598 91       		.byte	0x91
 8789 1599 76       		.sleb128 -10
 8790 159a 25       		.uleb128 0x25
 8791 159b AF020000 		.4byte	.LASF227
 8792 159f 01       		.byte	0x1
 8793 15a0 CE02     		.2byte	0x2ce
 8794 15a2 B8000000 		.4byte	0xb8
 8795 15a6 02       		.uleb128 0x2
 8796 15a7 91       		.byte	0x91
 8797 15a8 74       		.sleb128 -12
 8798 15a9 20       		.uleb128 0x20
 8799 15aa 7000     		.ascii	"p\000"
 8800 15ac 01       		.byte	0x1
 8801 15ad CF02     		.2byte	0x2cf
 8802 15af DA0D0000 		.4byte	0xdda
 8803 15b3 02       		.uleb128 0x2
 8804 15b4 91       		.byte	0x91
 8805 15b5 70       		.sleb128 -16
 8806 15b6 25       		.uleb128 0x25
 8807 15b7 1E0A0000 		.4byte	.LASF191
 8808 15bb 01       		.byte	0x1
 8809 15bc D002     		.2byte	0x2d0
 8810 15be A2000000 		.4byte	0xa2
 8811 15c2 02       		.uleb128 0x2
 8812 15c3 91       		.byte	0x91
 8813 15c4 6F       		.sleb128 -17
 8814 15c5 1B       		.uleb128 0x1b
 8815 15c6 40010000 		.4byte	.LBB45
 8816 15ca 1C000000 		.4byte	.LBE45-.LBB45
 8817 15ce 20       		.uleb128 0x20
 8818 15cf 62756600 		.ascii	"buf\000"
 8819 15d3 01       		.byte	0x1
 8820 15d4 D902     		.2byte	0x2d9
 8821 15d6 E0150000 		.4byte	0x15e0
 8822 15da 03       		.uleb128 0x3
 8823 15db 91       		.byte	0x91
 8824 15dc D47D     		.sleb128 -300
 8825 15de 00       		.byte	0
 8826 15df 00       		.byte	0
 8827 15e0 0E       		.uleb128 0xe
 8828 15e1 23010000 		.4byte	0x123
 8829 15e5 F0150000 		.4byte	0x15f0
ARM GAS  C:\Users\JENNEW~1\AppData\Local\Temp\ccHH9OS0.s 			page 188


 8830 15e9 0F       		.uleb128 0xf
 8831 15ea 47010000 		.4byte	0x147
 8832 15ee 3F       		.byte	0x3f
 8833 15ef 00       		.byte	0
 8834 15f0 26       		.uleb128 0x26
 8835 15f1 73010000 		.4byte	.LASF271
 8836 15f5 01       		.byte	0x1
 8837 15f6 E502     		.2byte	0x2e5
 8838 15f8 94000000 		.4byte	0x94
 8839 15fc 00000000 		.4byte	.LFB79
 8840 1600 A80C0000 		.4byte	.LFE79-.LFB79
 8841 1604 01       		.uleb128 0x1
 8842 1605 9C       		.byte	0x9c
 8843 1606 281A0000 		.4byte	0x1a28
 8844 160a 20       		.uleb128 0x20
 8845 160b 747800   		.ascii	"tx\000"
 8846 160e 01       		.byte	0x1
 8847 160f E702     		.2byte	0x2e7
 8848 1611 E50D0000 		.4byte	0xde5
 8849 1615 03       		.uleb128 0x3
 8850 1616 91       		.byte	0x91
 8851 1617 F87D     		.sleb128 -264
 8852 1619 20       		.uleb128 0x20
 8853 161a 636800   		.ascii	"ch\000"
 8854 161d 01       		.byte	0x1
 8855 161e E802     		.2byte	0x2e8
 8856 1620 D9000000 		.4byte	0xd9
 8857 1624 02       		.uleb128 0x2
 8858 1625 91       		.byte	0x91
 8859 1626 53       		.sleb128 -45
 8860 1627 25       		.uleb128 0x25
 8861 1628 DF000000 		.4byte	.LASF228
 8862 162c 01       		.byte	0x1
 8863 162d EB02     		.2byte	0x2eb
 8864 162f 11080000 		.4byte	0x811
 8865 1633 03       		.uleb128 0x3
 8866 1634 91       		.byte	0x91
 8867 1635 F77D     		.sleb128 -265
 8868 1637 25       		.uleb128 0x25
 8869 1638 2D030000 		.4byte	.LASF182
 8870 163c 01       		.byte	0x1
 8871 163d EE02     		.2byte	0x2ee
 8872 163f D9000000 		.4byte	0xd9
 8873 1643 03       		.uleb128 0x3
 8874 1644 91       		.byte	0x91
 8875 1645 F67D     		.sleb128 -266
 8876 1647 25       		.uleb128 0x25
 8877 1648 2B040000 		.4byte	.LASF183
 8878 164c 01       		.byte	0x1
 8879 164d EF02     		.2byte	0x2ef
 8880 164f D9000000 		.4byte	0xd9
 8881 1653 03       		.uleb128 0x3
 8882 1654 91       		.byte	0x91
 8883 1655 F57D     		.sleb128 -267
 8884 1657 25       		.uleb128 0x25
 8885 1658 90090000 		.4byte	.LASF229
 8886 165c 01       		.byte	0x1
ARM GAS  C:\Users\JENNEW~1\AppData\Local\Temp\ccHH9OS0.s 			page 189


 8887 165d F002     		.2byte	0x2f0
 8888 165f D9000000 		.4byte	0xd9
 8889 1663 02       		.uleb128 0x2
 8890 1664 91       		.byte	0x91
 8891 1665 5F       		.sleb128 -33
 8892 1666 25       		.uleb128 0x25
 8893 1667 9D000000 		.4byte	.LASF184
 8894 166b 01       		.byte	0x1
 8895 166c F202     		.2byte	0x2f2
 8896 166e EF020000 		.4byte	0x2ef
 8897 1672 03       		.uleb128 0x3
 8898 1673 91       		.byte	0x91
 8899 1674 F47D     		.sleb128 -268
 8900 1676 25       		.uleb128 0x25
 8901 1677 F6030000 		.4byte	.LASF230
 8902 167b 01       		.byte	0x1
 8903 167c F402     		.2byte	0x2f4
 8904 167e F1000000 		.4byte	0xf1
 8905 1682 05       		.uleb128 0x5
 8906 1683 03       		.byte	0x3
 8907 1684 44020000 		.4byte	last_tx_ms.8489
 8908 1688 25       		.uleb128 0x25
 8909 1689 080B0000 		.4byte	.LASF231
 8910 168d 01       		.byte	0x1
 8911 168e F502     		.2byte	0x2f5
 8912 1690 F1000000 		.4byte	0xf1
 8913 1694 05       		.uleb128 0x5
 8914 1695 03       		.byte	0x3
 8915 1696 48020000 		.4byte	last_diag_ms.8490
 8916 169a 25       		.uleb128 0x25
 8917 169b 3D070000 		.4byte	.LASF232
 8918 169f 01       		.byte	0x1
 8919 16a0 F702     		.2byte	0x2f7
 8920 16a2 CE010000 		.4byte	0x1ce
 8921 16a6 03       		.uleb128 0x3
 8922 16a7 91       		.byte	0x91
 8923 16a8 F07D     		.sleb128 -272
 8924 16aa 20       		.uleb128 0x20
 8925 16ab 636D6400 		.ascii	"cmd\000"
 8926 16af 01       		.byte	0x1
 8927 16b0 F802     		.2byte	0x2f8
 8928 16b2 3C020000 		.4byte	0x23c
 8929 16b6 03       		.uleb128 0x3
 8930 16b7 91       		.byte	0x91
 8931 16b8 E87D     		.sleb128 -280
 8932 16ba 20       		.uleb128 0x20
 8933 16bb 63746C00 		.ascii	"ctl\000"
 8934 16bf 01       		.byte	0x1
 8935 16c0 FC02     		.2byte	0x2fc
 8936 16c2 63030000 		.4byte	0x363
 8937 16c6 03       		.uleb128 0x3
 8938 16c7 91       		.byte	0x91
 8939 16c8 D47D     		.sleb128 -300
 8940 16ca 25       		.uleb128 0x25
 8941 16cb 0B090000 		.4byte	.LASF233
 8942 16cf 01       		.byte	0x1
 8943 16d0 FE02     		.2byte	0x2fe
ARM GAS  C:\Users\JENNEW~1\AppData\Local\Temp\ccHH9OS0.s 			page 190


 8944 16d2 0E020000 		.4byte	0x20e
 8945 16d6 02       		.uleb128 0x2
 8946 16d7 91       		.byte	0x91
 8947 16d8 5E       		.sleb128 -34
 8948 16d9 25       		.uleb128 0x25
 8949 16da 24000000 		.4byte	.LASF234
 8950 16de 01       		.byte	0x1
 8951 16df FF02     		.2byte	0x2ff
 8952 16e1 DE010000 		.4byte	0x1de
 8953 16e5 03       		.uleb128 0x3
 8954 16e6 91       		.byte	0x91
 8955 16e7 C47D     		.sleb128 -316
 8956 16e9 20       		.uleb128 0x20
 8957 16ea 6900     		.ascii	"i\000"
 8958 16ec 01       		.byte	0x1
 8959 16ed 0003     		.2byte	0x300
 8960 16ef D9000000 		.4byte	0xd9
 8961 16f3 02       		.uleb128 0x2
 8962 16f4 91       		.byte	0x91
 8963 16f5 5D       		.sleb128 -35
 8964 16f6 25       		.uleb128 0x25
 8965 16f7 B4030000 		.4byte	.LASF235
 8966 16fb 01       		.byte	0x1
 8967 16fc 0703     		.2byte	0x307
 8968 16fe 8A010000 		.4byte	0x18a
 8969 1702 02       		.uleb128 0x2
 8970 1703 91       		.byte	0x91
 8971 1704 5C       		.sleb128 -36
 8972 1705 25       		.uleb128 0x25
 8973 1706 05050000 		.4byte	.LASF236
 8974 170a 01       		.byte	0x1
 8975 170b 0803     		.2byte	0x308
 8976 170d D9000000 		.4byte	0xd9
 8977 1711 02       		.uleb128 0x2
 8978 1712 91       		.byte	0x91
 8979 1713 5B       		.sleb128 -37
 8980 1714 25       		.uleb128 0x25
 8981 1715 3A090000 		.4byte	.LASF237
 8982 1719 01       		.byte	0x1
 8983 171a 0A03     		.2byte	0x30a
 8984 171c F1000000 		.4byte	0xf1
 8985 1720 02       		.uleb128 0x2
 8986 1721 91       		.byte	0x91
 8987 1722 54       		.sleb128 -44
 8988 1723 1B       		.uleb128 0x1b
 8989 1724 2A010000 		.4byte	.LBB46
 8990 1728 5E0B0000 		.4byte	.LBE46-.LBB46
 8991 172c 25       		.uleb128 0x25
 8992 172d 52060000 		.4byte	.LASF238
 8993 1731 01       		.byte	0x1
 8994 1732 C403     		.2byte	0x3c4
 8995 1734 0E020000 		.4byte	0x20e
 8996 1738 02       		.uleb128 0x2
 8997 1739 91       		.byte	0x91
 8998 173a 4D       		.sleb128 -51
 8999 173b 25       		.uleb128 0x25
 9000 173c C1090000 		.4byte	.LASF239
ARM GAS  C:\Users\JENNEW~1\AppData\Local\Temp\ccHH9OS0.s 			page 191


 9001 1740 01       		.byte	0x1
 9002 1741 E803     		.2byte	0x3e8
 9003 1743 D9000000 		.4byte	0xd9
 9004 1747 02       		.uleb128 0x2
 9005 1748 91       		.byte	0x91
 9006 1749 47       		.sleb128 -57
 9007 174a 21       		.uleb128 0x21
 9008 174b 24040000 		.4byte	.LBB47
 9009 174f 46000000 		.4byte	.LBE47-.LBB47
 9010 1753 65170000 		.4byte	0x1765
 9011 1757 20       		.uleb128 0x20
 9012 1758 7200     		.ascii	"r\000"
 9013 175a 01       		.byte	0x1
 9014 175b 9103     		.2byte	0x391
 9015 175d 66020000 		.4byte	0x266
 9016 1761 02       		.uleb128 0x2
 9017 1762 91       		.byte	0x91
 9018 1763 4E       		.sleb128 -50
 9019 1764 00       		.byte	0
 9020 1765 21       		.uleb128 0x21
 9021 1766 7C040000 		.4byte	.LBB48
 9022 176a 46000000 		.4byte	.LBE48-.LBB48
 9023 176e 80170000 		.4byte	0x1780
 9024 1772 20       		.uleb128 0x20
 9025 1773 7200     		.ascii	"r\000"
 9026 1775 01       		.byte	0x1
 9027 1776 9B03     		.2byte	0x39b
 9028 1778 66020000 		.4byte	0x266
 9029 177c 02       		.uleb128 0x2
 9030 177d 91       		.byte	0x91
 9031 177e 4F       		.sleb128 -49
 9032 177f 00       		.byte	0
 9033 1780 21       		.uleb128 0x21
 9034 1781 D4040000 		.4byte	.LBB49
 9035 1785 46000000 		.4byte	.LBE49-.LBB49
 9036 1789 9B170000 		.4byte	0x179b
 9037 178d 20       		.uleb128 0x20
 9038 178e 7200     		.ascii	"r\000"
 9039 1790 01       		.byte	0x1
 9040 1791 A503     		.2byte	0x3a5
 9041 1793 66020000 		.4byte	0x266
 9042 1797 02       		.uleb128 0x2
 9043 1798 91       		.byte	0x91
 9044 1799 50       		.sleb128 -48
 9045 179a 00       		.byte	0
 9046 179b 21       		.uleb128 0x21
 9047 179c 2C050000 		.4byte	.LBB50
 9048 17a0 46000000 		.4byte	.LBE50-.LBB50
 9049 17a4 B6170000 		.4byte	0x17b6
 9050 17a8 20       		.uleb128 0x20
 9051 17a9 7200     		.ascii	"r\000"
 9052 17ab 01       		.byte	0x1
 9053 17ac AF03     		.2byte	0x3af
 9054 17ae 66020000 		.4byte	0x266
 9055 17b2 02       		.uleb128 0x2
 9056 17b3 91       		.byte	0x91
 9057 17b4 51       		.sleb128 -47
ARM GAS  C:\Users\JENNEW~1\AppData\Local\Temp\ccHH9OS0.s 			page 192


 9058 17b5 00       		.byte	0
 9059 17b6 21       		.uleb128 0x21
 9060 17b7 84050000 		.4byte	.LBB51
 9061 17bb 48000000 		.4byte	.LBE51-.LBB51
 9062 17bf D1170000 		.4byte	0x17d1
 9063 17c3 20       		.uleb128 0x20
 9064 17c4 7200     		.ascii	"r\000"
 9065 17c6 01       		.byte	0x1
 9066 17c7 B903     		.2byte	0x3b9
 9067 17c9 66020000 		.4byte	0x266
 9068 17cd 02       		.uleb128 0x2
 9069 17ce 91       		.byte	0x91
 9070 17cf 52       		.sleb128 -46
 9071 17d0 00       		.byte	0
 9072 17d1 21       		.uleb128 0x21
 9073 17d2 08060000 		.4byte	.LBB52
 9074 17d6 2A000000 		.4byte	.LBE52-.LBB52
 9075 17da ED170000 		.4byte	0x17ed
 9076 17de 20       		.uleb128 0x20
 9077 17df 647400   		.ascii	"dt\000"
 9078 17e2 01       		.byte	0x1
 9079 17e3 D403     		.2byte	0x3d4
 9080 17e5 CE000000 		.4byte	0xce
 9081 17e9 02       		.uleb128 0x2
 9082 17ea 91       		.byte	0x91
 9083 17eb 48       		.sleb128 -56
 9084 17ec 00       		.byte	0
 9085 17ed 21       		.uleb128 0x21
 9086 17ee 3E070000 		.4byte	.LBB53
 9087 17f2 78000000 		.4byte	.LBE53-.LBB53
 9088 17f6 39180000 		.4byte	0x1839
 9089 17fa 25       		.uleb128 0x25
 9090 17fb A3010000 		.4byte	.LASF240
 9091 17ff 01       		.byte	0x1
 9092 1800 0204     		.2byte	0x402
 9093 1802 FD000000 		.4byte	0xfd
 9094 1806 02       		.uleb128 0x2
 9095 1807 91       		.byte	0x91
 9096 1808 44       		.sleb128 -60
 9097 1809 25       		.uleb128 0x25
 9098 180a 46090000 		.4byte	.LASF241
 9099 180e 01       		.byte	0x1
 9100 180f 0304     		.2byte	0x403
 9101 1811 FD000000 		.4byte	0xfd
 9102 1815 02       		.uleb128 0x2
 9103 1816 91       		.byte	0x91
 9104 1817 42       		.sleb128 -62
 9105 1818 25       		.uleb128 0x25
 9106 1819 230A0000 		.4byte	.LASF242
 9107 181d 01       		.byte	0x1
 9108 181e 0404     		.2byte	0x404
 9109 1820 09010000 		.4byte	0x109
 9110 1824 03       		.uleb128 0x3
 9111 1825 91       		.byte	0x91
 9112 1826 BC7F     		.sleb128 -68
 9113 1828 25       		.uleb128 0x25
 9114 1829 78020000 		.4byte	.LASF243
ARM GAS  C:\Users\JENNEW~1\AppData\Local\Temp\ccHH9OS0.s 			page 193


 9115 182d 01       		.byte	0x1
 9116 182e 0504     		.2byte	0x405
 9117 1830 09010000 		.4byte	0x109
 9118 1834 03       		.uleb128 0x3
 9119 1835 91       		.byte	0x91
 9120 1836 B87F     		.sleb128 -72
 9121 1838 00       		.byte	0
 9122 1839 21       		.uleb128 0x21
 9123 183a C0070000 		.4byte	.LBB54
 9124 183e 32000000 		.4byte	.LBE54-.LBB54
 9125 1842 55180000 		.4byte	0x1855
 9126 1846 20       		.uleb128 0x20
 9127 1847 6E00     		.ascii	"n\000"
 9128 1849 01       		.byte	0x1
 9129 184a 0E04     		.2byte	0x40e
 9130 184c E5000000 		.4byte	0xe5
 9131 1850 03       		.uleb128 0x3
 9132 1851 91       		.byte	0x91
 9133 1852 B67F     		.sleb128 -74
 9134 1854 00       		.byte	0
 9135 1855 1B       		.uleb128 0x1b
 9136 1856 F6080000 		.4byte	.LBB55
 9137 185a 92030000 		.4byte	.LBE55-.LBB55
 9138 185e 25       		.uleb128 0x25
 9139 185f 28010000 		.4byte	.LASF244
 9140 1863 01       		.byte	0x1
 9141 1864 4704     		.2byte	0x447
 9142 1866 F1000000 		.4byte	0xf1
 9143 186a 03       		.uleb128 0x3
 9144 186b 91       		.byte	0x91
 9145 186c B07F     		.sleb128 -80
 9146 186e 25       		.uleb128 0x25
 9147 186f 96060000 		.4byte	.LASF245
 9148 1873 01       		.byte	0x1
 9149 1874 4804     		.2byte	0x448
 9150 1876 F1000000 		.4byte	0xf1
 9151 187a 03       		.uleb128 0x3
 9152 187b 91       		.byte	0x91
 9153 187c AC7F     		.sleb128 -84
 9154 187e 25       		.uleb128 0x25
 9155 187f 84060000 		.4byte	.LASF246
 9156 1883 01       		.byte	0x1
 9157 1884 4904     		.2byte	0x449
 9158 1886 F1000000 		.4byte	0xf1
 9159 188a 03       		.uleb128 0x3
 9160 188b 91       		.byte	0x91
 9161 188c A87F     		.sleb128 -88
 9162 188e 25       		.uleb128 0x25
 9163 188f C10B0000 		.4byte	.LASF247
 9164 1893 01       		.byte	0x1
 9165 1894 4A04     		.2byte	0x44a
 9166 1896 F1000000 		.4byte	0xf1
 9167 189a 03       		.uleb128 0x3
 9168 189b 91       		.byte	0x91
 9169 189c A47F     		.sleb128 -92
 9170 189e 20       		.uleb128 0x20
 9171 189f 7300     		.ascii	"s\000"
ARM GAS  C:\Users\JENNEW~1\AppData\Local\Temp\ccHH9OS0.s 			page 194


 9172 18a1 01       		.byte	0x1
 9173 18a2 5204     		.2byte	0x452
 9174 18a4 CE060000 		.4byte	0x6ce
 9175 18a8 03       		.uleb128 0x3
 9176 18a9 91       		.byte	0x91
 9177 18aa AC7D     		.sleb128 -340
 9178 18ac 20       		.uleb128 0x20
 9179 18ad 737400   		.ascii	"st\000"
 9180 18b0 01       		.byte	0x1
 9181 18b1 5E04     		.2byte	0x45e
 9182 18b3 66060000 		.4byte	0x666
 9183 18b7 03       		.uleb128 0x3
 9184 18b8 91       		.byte	0x91
 9185 18b9 B87B     		.sleb128 -584
 9186 18bb 25       		.uleb128 0x25
 9187 18bc 0C0A0000 		.4byte	.LASF248
 9188 18c0 01       		.byte	0x1
 9189 18c1 8404     		.2byte	0x484
 9190 18c3 23010000 		.4byte	0x123
 9191 18c7 03       		.uleb128 0x3
 9192 18c8 91       		.byte	0x91
 9193 18c9 AB7D     		.sleb128 -341
 9194 18cb 25       		.uleb128 0x25
 9195 18cc 7C0A0000 		.4byte	.LASF249
 9196 18d0 01       		.byte	0x1
 9197 18d1 8404     		.2byte	0x484
 9198 18d3 23010000 		.4byte	0x123
 9199 18d7 03       		.uleb128 0x3
 9200 18d8 91       		.byte	0x91
 9201 18d9 AA7D     		.sleb128 -342
 9202 18db 25       		.uleb128 0x25
 9203 18dc 010A0000 		.4byte	.LASF250
 9204 18e0 01       		.byte	0x1
 9205 18e1 8504     		.2byte	0x485
 9206 18e3 FD000000 		.4byte	0xfd
 9207 18e7 03       		.uleb128 0x3
 9208 18e8 91       		.byte	0x91
 9209 18e9 A87D     		.sleb128 -344
 9210 18eb 25       		.uleb128 0x25
 9211 18ec FC090000 		.4byte	.LASF251
 9212 18f0 01       		.byte	0x1
 9213 18f1 8504     		.2byte	0x485
 9214 18f3 FD000000 		.4byte	0xfd
 9215 18f7 03       		.uleb128 0x3
 9216 18f8 91       		.byte	0x91
 9217 18f9 A67D     		.sleb128 -346
 9218 18fb 25       		.uleb128 0x25
 9219 18fc 3A060000 		.4byte	.LASF252
 9220 1900 01       		.byte	0x1
 9221 1901 8504     		.2byte	0x485
 9222 1903 FD000000 		.4byte	0xfd
 9223 1907 03       		.uleb128 0x3
 9224 1908 91       		.byte	0x91
 9225 1909 A47D     		.sleb128 -348
 9226 190b 25       		.uleb128 0x25
 9227 190c 710A0000 		.4byte	.LASF253
 9228 1910 01       		.byte	0x1
ARM GAS  C:\Users\JENNEW~1\AppData\Local\Temp\ccHH9OS0.s 			page 195


 9229 1911 8504     		.2byte	0x485
 9230 1913 FD000000 		.4byte	0xfd
 9231 1917 03       		.uleb128 0x3
 9232 1918 91       		.byte	0x91
 9233 1919 A27D     		.sleb128 -350
 9234 191b 1B       		.uleb128 0x1b
 9235 191c 2C0A0000 		.4byte	.LBB56
 9236 1920 AC010000 		.4byte	.LBE56-.LBB56
 9237 1924 25       		.uleb128 0x25
 9238 1925 E8060000 		.4byte	.LASF160
 9239 1929 01       		.byte	0x1
 9240 192a 6304     		.2byte	0x463
 9241 192c 23010000 		.4byte	0x123
 9242 1930 03       		.uleb128 0x3
 9243 1931 91       		.byte	0x91
 9244 1932 A17D     		.sleb128 -351
 9245 1934 25       		.uleb128 0x25
 9246 1935 2C070000 		.4byte	.LASF163
 9247 1939 01       		.byte	0x1
 9248 193a 6304     		.2byte	0x463
 9249 193c 23010000 		.4byte	0x123
 9250 1940 03       		.uleb128 0x3
 9251 1941 91       		.byte	0x91
 9252 1942 A07D     		.sleb128 -352
 9253 1944 25       		.uleb128 0x25
 9254 1945 6A0A0000 		.4byte	.LASF166
 9255 1949 01       		.byte	0x1
 9256 194a 6304     		.2byte	0x463
 9257 194c 23010000 		.4byte	0x123
 9258 1950 03       		.uleb128 0x3
 9259 1951 91       		.byte	0x91
 9260 1952 9F7D     		.sleb128 -353
 9261 1954 25       		.uleb128 0x25
 9262 1955 DC060000 		.4byte	.LASF161
 9263 1959 01       		.byte	0x1
 9264 195a 6404     		.2byte	0x464
 9265 195c FD000000 		.4byte	0xfd
 9266 1960 03       		.uleb128 0x3
 9267 1961 91       		.byte	0x91
 9268 1962 9C7D     		.sleb128 -356
 9269 1964 25       		.uleb128 0x25
 9270 1965 D6060000 		.4byte	.LASF162
 9271 1969 01       		.byte	0x1
 9272 196a 6404     		.2byte	0x464
 9273 196c FD000000 		.4byte	0xfd
 9274 1970 03       		.uleb128 0x3
 9275 1971 91       		.byte	0x91
 9276 1972 9A7D     		.sleb128 -358
 9277 1974 25       		.uleb128 0x25
 9278 1975 25070000 		.4byte	.LASF164
 9279 1979 01       		.byte	0x1
 9280 197a 6404     		.2byte	0x464
 9281 197c FD000000 		.4byte	0xfd
 9282 1980 03       		.uleb128 0x3
 9283 1981 91       		.byte	0x91
 9284 1982 987D     		.sleb128 -360
 9285 1984 25       		.uleb128 0x25
ARM GAS  C:\Users\JENNEW~1\AppData\Local\Temp\ccHH9OS0.s 			page 196


 9286 1985 1E070000 		.4byte	.LASF165
 9287 1989 01       		.byte	0x1
 9288 198a 6404     		.2byte	0x464
 9289 198c FD000000 		.4byte	0xfd
 9290 1990 03       		.uleb128 0x3
 9291 1991 91       		.byte	0x91
 9292 1992 967D     		.sleb128 -362
 9293 1994 25       		.uleb128 0x25
 9294 1995 630A0000 		.4byte	.LASF167
 9295 1999 01       		.byte	0x1
 9296 199a 6404     		.2byte	0x464
 9297 199c FD000000 		.4byte	0xfd
 9298 19a0 03       		.uleb128 0x3
 9299 19a1 91       		.byte	0x91
 9300 19a2 947D     		.sleb128 -364
 9301 19a4 25       		.uleb128 0x25
 9302 19a5 5C0A0000 		.4byte	.LASF168
 9303 19a9 01       		.byte	0x1
 9304 19aa 6404     		.2byte	0x464
 9305 19ac FD000000 		.4byte	0xfd
 9306 19b0 03       		.uleb128 0x3
 9307 19b1 91       		.byte	0x91
 9308 19b2 927D     		.sleb128 -366
 9309 19b4 25       		.uleb128 0x25
 9310 19b5 EE060000 		.4byte	.LASF254
 9311 19b9 01       		.byte	0x1
 9312 19ba 6A04     		.2byte	0x46a
 9313 19bc FD000000 		.4byte	0xfd
 9314 19c0 03       		.uleb128 0x3
 9315 19c1 91       		.byte	0x91
 9316 19c2 A27F     		.sleb128 -94
 9317 19c4 25       		.uleb128 0x25
 9318 19c5 9B0B0000 		.4byte	.LASF255
 9319 19c9 01       		.byte	0x1
 9320 19ca 6B04     		.2byte	0x46b
 9321 19cc FD000000 		.4byte	0xfd
 9322 19d0 03       		.uleb128 0x3
 9323 19d1 91       		.byte	0x91
 9324 19d2 A07F     		.sleb128 -96
 9325 19d4 25       		.uleb128 0x25
 9326 19d5 31010000 		.4byte	.LASF256
 9327 19d9 01       		.byte	0x1
 9328 19da 6C04     		.2byte	0x46c
 9329 19dc FD000000 		.4byte	0xfd
 9330 19e0 03       		.uleb128 0x3
 9331 19e1 91       		.byte	0x91
 9332 19e2 9E7F     		.sleb128 -98
 9333 19e4 25       		.uleb128 0x25
 9334 19e5 23010000 		.4byte	.LASF257
 9335 19e9 01       		.byte	0x1
 9336 19ea 6D04     		.2byte	0x46d
 9337 19ec FD000000 		.4byte	0xfd
 9338 19f0 03       		.uleb128 0x3
 9339 19f1 91       		.byte	0x91
 9340 19f2 9C7F     		.sleb128 -100
 9341 19f4 25       		.uleb128 0x25
 9342 19f5 EE030000 		.4byte	.LASF258
ARM GAS  C:\Users\JENNEW~1\AppData\Local\Temp\ccHH9OS0.s 			page 197


 9343 19f9 01       		.byte	0x1
 9344 19fa 6F04     		.2byte	0x46f
 9345 19fc D9000000 		.4byte	0xd9
 9346 1a00 03       		.uleb128 0x3
 9347 1a01 91       		.byte	0x91
 9348 1a02 9B7F     		.sleb128 -101
 9349 1a04 25       		.uleb128 0x25
 9350 1a05 E6030000 		.4byte	.LASF259
 9351 1a09 01       		.byte	0x1
 9352 1a0a 7004     		.2byte	0x470
 9353 1a0c D9000000 		.4byte	0xd9
 9354 1a10 03       		.uleb128 0x3
 9355 1a11 91       		.byte	0x91
 9356 1a12 9A7F     		.sleb128 -102
 9357 1a14 25       		.uleb128 0x25
 9358 1a15 A0070000 		.4byte	.LASF260
 9359 1a19 01       		.byte	0x1
 9360 1a1a 7104     		.2byte	0x471
 9361 1a1c D9000000 		.4byte	0xd9
 9362 1a20 03       		.uleb128 0x3
 9363 1a21 91       		.byte	0x91
 9364 1a22 997F     		.sleb128 -103
 9365 1a24 00       		.byte	0
 9366 1a25 00       		.byte	0
 9367 1a26 00       		.byte	0
 9368 1a27 00       		.byte	0
 9369 1a28 1E       		.uleb128 0x1e
 9370 1a29 A7000000 		.4byte	.LASF261
 9371 1a2d 01       		.byte	0x1
 9372 1a2e 49       		.byte	0x49
 9373 1a2f E7070000 		.4byte	0x7e7
 9374 1a33 05       		.uleb128 0x5
 9375 1a34 03       		.byte	0x3
 9376 1a35 00000000 		.4byte	g_movi
 9377 1a39 1E       		.uleb128 0x1e
 9378 1a3a CE0A0000 		.4byte	.LASF262
 9379 1a3e 01       		.byte	0x1
 9380 1a3f 51       		.byte	0x51
 9381 1a40 4A1A0000 		.4byte	0x1a4a
 9382 1a44 05       		.uleb128 0x5
 9383 1a45 03       		.byte	0x3
 9384 1a46 00000000 		.4byte	MOVI_HAL
 9385 1a4a 09       		.uleb128 0x9
 9386 1a4b A8020000 		.4byte	0x2a8
 9387 1a4f 27       		.uleb128 0x27
 9388 1a50 B2060000 		.4byte	.LASF263
 9389 1a54 0A       		.byte	0xa
 9390 1a55 1207     		.2byte	0x712
 9391 1a57 5B1A0000 		.4byte	0x1a5b
 9392 1a5b 06       		.uleb128 0x6
 9393 1a5c C3000000 		.4byte	0xc3
 9394 1a60 28       		.uleb128 0x28
 9395 1a61 E6020000 		.4byte	.LASF264
 9396 1a65 01       		.byte	0x1
 9397 1a66 56       		.byte	0x56
 9398 1a67 3B010000 		.4byte	0x13b
 9399 1a6b 05       		.uleb128 0x5
ARM GAS  C:\Users\JENNEW~1\AppData\Local\Temp\ccHH9OS0.s 			page 198


 9400 1a6c 03       		.byte	0x3
 9401 1a6d 00000000 		.4byte	g_tick_ms
 9402 1a71 00       		.byte	0
 9403              		.section	.debug_abbrev,"",%progbits
 9404              	.Ldebug_abbrev0:
 9405 0000 01       		.uleb128 0x1
 9406 0001 11       		.uleb128 0x11
 9407 0002 01       		.byte	0x1
 9408 0003 25       		.uleb128 0x25
 9409 0004 0E       		.uleb128 0xe
 9410 0005 13       		.uleb128 0x13
 9411 0006 0B       		.uleb128 0xb
 9412 0007 03       		.uleb128 0x3
 9413 0008 0E       		.uleb128 0xe
 9414 0009 1B       		.uleb128 0x1b
 9415 000a 0E       		.uleb128 0xe
 9416 000b 55       		.uleb128 0x55
 9417 000c 17       		.uleb128 0x17
 9418 000d 11       		.uleb128 0x11
 9419 000e 01       		.uleb128 0x1
 9420 000f 10       		.uleb128 0x10
 9421 0010 17       		.uleb128 0x17
 9422 0011 00       		.byte	0
 9423 0012 00       		.byte	0
 9424 0013 02       		.uleb128 0x2
 9425 0014 24       		.uleb128 0x24
 9426 0015 00       		.byte	0
 9427 0016 0B       		.uleb128 0xb
 9428 0017 0B       		.uleb128 0xb
 9429 0018 3E       		.uleb128 0x3e
 9430 0019 0B       		.uleb128 0xb
 9431 001a 03       		.uleb128 0x3
 9432 001b 0E       		.uleb128 0xe
 9433 001c 00       		.byte	0
 9434 001d 00       		.byte	0
 9435 001e 03       		.uleb128 0x3
 9436 001f 16       		.uleb128 0x16
 9437 0020 00       		.byte	0
 9438 0021 03       		.uleb128 0x3
 9439 0022 0E       		.uleb128 0xe
 9440 0023 3A       		.uleb128 0x3a
 9441 0024 0B       		.uleb128 0xb
 9442 0025 3B       		.uleb128 0x3b
 9443 0026 0B       		.uleb128 0xb
 9444 0027 49       		.uleb128 0x49
 9445 0028 13       		.uleb128 0x13
 9446 0029 00       		.byte	0
 9447 002a 00       		.byte	0
 9448 002b 04       		.uleb128 0x4
 9449 002c 24       		.uleb128 0x24
 9450 002d 00       		.byte	0
 9451 002e 0B       		.uleb128 0xb
 9452 002f 0B       		.uleb128 0xb
 9453 0030 3E       		.uleb128 0x3e
 9454 0031 0B       		.uleb128 0xb
 9455 0032 03       		.uleb128 0x3
 9456 0033 08       		.uleb128 0x8
ARM GAS  C:\Users\JENNEW~1\AppData\Local\Temp\ccHH9OS0.s 			page 199


 9457 0034 00       		.byte	0
 9458 0035 00       		.byte	0
 9459 0036 05       		.uleb128 0x5
 9460 0037 16       		.uleb128 0x16
 9461 0038 00       		.byte	0
 9462 0039 03       		.uleb128 0x3
 9463 003a 0E       		.uleb128 0xe
 9464 003b 3A       		.uleb128 0x3a
 9465 003c 0B       		.uleb128 0xb
 9466 003d 3B       		.uleb128 0x3b
 9467 003e 05       		.uleb128 0x5
 9468 003f 49       		.uleb128 0x49
 9469 0040 13       		.uleb128 0x13
 9470 0041 00       		.byte	0
 9471 0042 00       		.byte	0
 9472 0043 06       		.uleb128 0x6
 9473 0044 35       		.uleb128 0x35
 9474 0045 00       		.byte	0
 9475 0046 49       		.uleb128 0x49
 9476 0047 13       		.uleb128 0x13
 9477 0048 00       		.byte	0
 9478 0049 00       		.byte	0
 9479 004a 07       		.uleb128 0x7
 9480 004b 0F       		.uleb128 0xf
 9481 004c 00       		.byte	0
 9482 004d 0B       		.uleb128 0xb
 9483 004e 0B       		.uleb128 0xb
 9484 004f 00       		.byte	0
 9485 0050 00       		.byte	0
 9486 0051 08       		.uleb128 0x8
 9487 0052 0F       		.uleb128 0xf
 9488 0053 00       		.byte	0
 9489 0054 0B       		.uleb128 0xb
 9490 0055 0B       		.uleb128 0xb
 9491 0056 49       		.uleb128 0x49
 9492 0057 13       		.uleb128 0x13
 9493 0058 00       		.byte	0
 9494 0059 00       		.byte	0
 9495 005a 09       		.uleb128 0x9
 9496 005b 26       		.uleb128 0x26
 9497 005c 00       		.byte	0
 9498 005d 49       		.uleb128 0x49
 9499 005e 13       		.uleb128 0x13
 9500 005f 00       		.byte	0
 9501 0060 00       		.byte	0
 9502 0061 0A       		.uleb128 0xa
 9503 0062 04       		.uleb128 0x4
 9504 0063 01       		.byte	0x1
 9505 0064 0B       		.uleb128 0xb
 9506 0065 0B       		.uleb128 0xb
 9507 0066 49       		.uleb128 0x49
 9508 0067 13       		.uleb128 0x13
 9509 0068 3A       		.uleb128 0x3a
 9510 0069 0B       		.uleb128 0xb
 9511 006a 3B       		.uleb128 0x3b
 9512 006b 0B       		.uleb128 0xb
 9513 006c 01       		.uleb128 0x1
ARM GAS  C:\Users\JENNEW~1\AppData\Local\Temp\ccHH9OS0.s 			page 200


 9514 006d 13       		.uleb128 0x13
 9515 006e 00       		.byte	0
 9516 006f 00       		.byte	0
 9517 0070 0B       		.uleb128 0xb
 9518 0071 28       		.uleb128 0x28
 9519 0072 00       		.byte	0
 9520 0073 03       		.uleb128 0x3
 9521 0074 0E       		.uleb128 0xe
 9522 0075 1C       		.uleb128 0x1c
 9523 0076 0B       		.uleb128 0xb
 9524 0077 00       		.byte	0
 9525 0078 00       		.byte	0
 9526 0079 0C       		.uleb128 0xc
 9527 007a 13       		.uleb128 0x13
 9528 007b 01       		.byte	0x1
 9529 007c 0B       		.uleb128 0xb
 9530 007d 0B       		.uleb128 0xb
 9531 007e 3A       		.uleb128 0x3a
 9532 007f 0B       		.uleb128 0xb
 9533 0080 3B       		.uleb128 0x3b
 9534 0081 0B       		.uleb128 0xb
 9535 0082 01       		.uleb128 0x1
 9536 0083 13       		.uleb128 0x13
 9537 0084 00       		.byte	0
 9538 0085 00       		.byte	0
 9539 0086 0D       		.uleb128 0xd
 9540 0087 0D       		.uleb128 0xd
 9541 0088 00       		.byte	0
 9542 0089 03       		.uleb128 0x3
 9543 008a 0E       		.uleb128 0xe
 9544 008b 3A       		.uleb128 0x3a
 9545 008c 0B       		.uleb128 0xb
 9546 008d 3B       		.uleb128 0x3b
 9547 008e 0B       		.uleb128 0xb
 9548 008f 49       		.uleb128 0x49
 9549 0090 13       		.uleb128 0x13
 9550 0091 38       		.uleb128 0x38
 9551 0092 0B       		.uleb128 0xb
 9552 0093 00       		.byte	0
 9553 0094 00       		.byte	0
 9554 0095 0E       		.uleb128 0xe
 9555 0096 01       		.uleb128 0x1
 9556 0097 01       		.byte	0x1
 9557 0098 49       		.uleb128 0x49
 9558 0099 13       		.uleb128 0x13
 9559 009a 01       		.uleb128 0x1
 9560 009b 13       		.uleb128 0x13
 9561 009c 00       		.byte	0
 9562 009d 00       		.byte	0
 9563 009e 0F       		.uleb128 0xf
 9564 009f 21       		.uleb128 0x21
 9565 00a0 00       		.byte	0
 9566 00a1 49       		.uleb128 0x49
 9567 00a2 13       		.uleb128 0x13
 9568 00a3 2F       		.uleb128 0x2f
 9569 00a4 0B       		.uleb128 0xb
 9570 00a5 00       		.byte	0
ARM GAS  C:\Users\JENNEW~1\AppData\Local\Temp\ccHH9OS0.s 			page 201


 9571 00a6 00       		.byte	0
 9572 00a7 10       		.uleb128 0x10
 9573 00a8 0D       		.uleb128 0xd
 9574 00a9 00       		.byte	0
 9575 00aa 03       		.uleb128 0x3
 9576 00ab 08       		.uleb128 0x8
 9577 00ac 3A       		.uleb128 0x3a
 9578 00ad 0B       		.uleb128 0xb
 9579 00ae 3B       		.uleb128 0x3b
 9580 00af 0B       		.uleb128 0xb
 9581 00b0 49       		.uleb128 0x49
 9582 00b1 13       		.uleb128 0x13
 9583 00b2 38       		.uleb128 0x38
 9584 00b3 0B       		.uleb128 0xb
 9585 00b4 00       		.byte	0
 9586 00b5 00       		.byte	0
 9587 00b6 11       		.uleb128 0x11
 9588 00b7 15       		.uleb128 0x15
 9589 00b8 01       		.byte	0x1
 9590 00b9 27       		.uleb128 0x27
 9591 00ba 19       		.uleb128 0x19
 9592 00bb 01       		.uleb128 0x1
 9593 00bc 13       		.uleb128 0x13
 9594 00bd 00       		.byte	0
 9595 00be 00       		.byte	0
 9596 00bf 12       		.uleb128 0x12
 9597 00c0 05       		.uleb128 0x5
 9598 00c1 00       		.byte	0
 9599 00c2 49       		.uleb128 0x49
 9600 00c3 13       		.uleb128 0x13
 9601 00c4 00       		.byte	0
 9602 00c5 00       		.byte	0
 9603 00c6 13       		.uleb128 0x13
 9604 00c7 04       		.uleb128 0x4
 9605 00c8 01       		.byte	0x1
 9606 00c9 03       		.uleb128 0x3
 9607 00ca 0E       		.uleb128 0xe
 9608 00cb 0B       		.uleb128 0xb
 9609 00cc 0B       		.uleb128 0xb
 9610 00cd 49       		.uleb128 0x49
 9611 00ce 13       		.uleb128 0x13
 9612 00cf 3A       		.uleb128 0x3a
 9613 00d0 0B       		.uleb128 0xb
 9614 00d1 3B       		.uleb128 0x3b
 9615 00d2 0B       		.uleb128 0xb
 9616 00d3 01       		.uleb128 0x1
 9617 00d4 13       		.uleb128 0x13
 9618 00d5 00       		.byte	0
 9619 00d6 00       		.byte	0
 9620 00d7 14       		.uleb128 0x14
 9621 00d8 13       		.uleb128 0x13
 9622 00d9 01       		.byte	0x1
 9623 00da 0B       		.uleb128 0xb
 9624 00db 05       		.uleb128 0x5
 9625 00dc 3A       		.uleb128 0x3a
 9626 00dd 0B       		.uleb128 0xb
 9627 00de 3B       		.uleb128 0x3b
ARM GAS  C:\Users\JENNEW~1\AppData\Local\Temp\ccHH9OS0.s 			page 202


 9628 00df 0B       		.uleb128 0xb
 9629 00e0 01       		.uleb128 0x1
 9630 00e1 13       		.uleb128 0x13
 9631 00e2 00       		.byte	0
 9632 00e3 00       		.byte	0
 9633 00e4 15       		.uleb128 0x15
 9634 00e5 0D       		.uleb128 0xd
 9635 00e6 00       		.byte	0
 9636 00e7 03       		.uleb128 0x3
 9637 00e8 0E       		.uleb128 0xe
 9638 00e9 3A       		.uleb128 0x3a
 9639 00ea 0B       		.uleb128 0xb
 9640 00eb 3B       		.uleb128 0x3b
 9641 00ec 0B       		.uleb128 0xb
 9642 00ed 49       		.uleb128 0x49
 9643 00ee 13       		.uleb128 0x13
 9644 00ef 38       		.uleb128 0x38
 9645 00f0 05       		.uleb128 0x5
 9646 00f1 00       		.byte	0
 9647 00f2 00       		.byte	0
 9648 00f3 16       		.uleb128 0x16
 9649 00f4 0D       		.uleb128 0xd
 9650 00f5 00       		.byte	0
 9651 00f6 03       		.uleb128 0x3
 9652 00f7 08       		.uleb128 0x8
 9653 00f8 3A       		.uleb128 0x3a
 9654 00f9 0B       		.uleb128 0xb
 9655 00fa 3B       		.uleb128 0x3b
 9656 00fb 0B       		.uleb128 0xb
 9657 00fc 49       		.uleb128 0x49
 9658 00fd 13       		.uleb128 0x13
 9659 00fe 38       		.uleb128 0x38
 9660 00ff 05       		.uleb128 0x5
 9661 0100 00       		.byte	0
 9662 0101 00       		.byte	0
 9663 0102 17       		.uleb128 0x17
 9664 0103 2E       		.uleb128 0x2e
 9665 0104 01       		.byte	0x1
 9666 0105 03       		.uleb128 0x3
 9667 0106 0E       		.uleb128 0xe
 9668 0107 3A       		.uleb128 0x3a
 9669 0108 0B       		.uleb128 0xb
 9670 0109 3B       		.uleb128 0x3b
 9671 010a 0B       		.uleb128 0xb
 9672 010b 27       		.uleb128 0x27
 9673 010c 19       		.uleb128 0x19
 9674 010d 11       		.uleb128 0x11
 9675 010e 01       		.uleb128 0x1
 9676 010f 12       		.uleb128 0x12
 9677 0110 06       		.uleb128 0x6
 9678 0111 40       		.uleb128 0x40
 9679 0112 18       		.uleb128 0x18
 9680 0113 9642     		.uleb128 0x2116
 9681 0115 19       		.uleb128 0x19
 9682 0116 01       		.uleb128 0x1
 9683 0117 13       		.uleb128 0x13
 9684 0118 00       		.byte	0
ARM GAS  C:\Users\JENNEW~1\AppData\Local\Temp\ccHH9OS0.s 			page 203


 9685 0119 00       		.byte	0
 9686 011a 18       		.uleb128 0x18
 9687 011b 05       		.uleb128 0x5
 9688 011c 00       		.byte	0
 9689 011d 03       		.uleb128 0x3
 9690 011e 08       		.uleb128 0x8
 9691 011f 3A       		.uleb128 0x3a
 9692 0120 0B       		.uleb128 0xb
 9693 0121 3B       		.uleb128 0x3b
 9694 0122 0B       		.uleb128 0xb
 9695 0123 49       		.uleb128 0x49
 9696 0124 13       		.uleb128 0x13
 9697 0125 02       		.uleb128 0x2
 9698 0126 18       		.uleb128 0x18
 9699 0127 00       		.byte	0
 9700 0128 00       		.byte	0
 9701 0129 19       		.uleb128 0x19
 9702 012a 2E       		.uleb128 0x2e
 9703 012b 01       		.byte	0x1
 9704 012c 3F       		.uleb128 0x3f
 9705 012d 19       		.uleb128 0x19
 9706 012e 03       		.uleb128 0x3
 9707 012f 0E       		.uleb128 0xe
 9708 0130 3A       		.uleb128 0x3a
 9709 0131 0B       		.uleb128 0xb
 9710 0132 3B       		.uleb128 0x3b
 9711 0133 0B       		.uleb128 0xb
 9712 0134 27       		.uleb128 0x27
 9713 0135 19       		.uleb128 0x19
 9714 0136 11       		.uleb128 0x11
 9715 0137 01       		.uleb128 0x1
 9716 0138 12       		.uleb128 0x12
 9717 0139 06       		.uleb128 0x6
 9718 013a 40       		.uleb128 0x40
 9719 013b 18       		.uleb128 0x18
 9720 013c 9642     		.uleb128 0x2116
 9721 013e 19       		.uleb128 0x19
 9722 013f 01       		.uleb128 0x1
 9723 0140 13       		.uleb128 0x13
 9724 0141 00       		.byte	0
 9725 0142 00       		.byte	0
 9726 0143 1A       		.uleb128 0x1a
 9727 0144 34       		.uleb128 0x34
 9728 0145 00       		.byte	0
 9729 0146 03       		.uleb128 0x3
 9730 0147 08       		.uleb128 0x8
 9731 0148 3A       		.uleb128 0x3a
 9732 0149 0B       		.uleb128 0xb
 9733 014a 3B       		.uleb128 0x3b
 9734 014b 0B       		.uleb128 0xb
 9735 014c 49       		.uleb128 0x49
 9736 014d 13       		.uleb128 0x13
 9737 014e 02       		.uleb128 0x2
 9738 014f 18       		.uleb128 0x18
 9739 0150 00       		.byte	0
 9740 0151 00       		.byte	0
 9741 0152 1B       		.uleb128 0x1b
ARM GAS  C:\Users\JENNEW~1\AppData\Local\Temp\ccHH9OS0.s 			page 204


 9742 0153 0B       		.uleb128 0xb
 9743 0154 01       		.byte	0x1
 9744 0155 11       		.uleb128 0x11
 9745 0156 01       		.uleb128 0x1
 9746 0157 12       		.uleb128 0x12
 9747 0158 06       		.uleb128 0x6
 9748 0159 00       		.byte	0
 9749 015a 00       		.byte	0
 9750 015b 1C       		.uleb128 0x1c
 9751 015c 2E       		.uleb128 0x2e
 9752 015d 00       		.byte	0
 9753 015e 3F       		.uleb128 0x3f
 9754 015f 19       		.uleb128 0x19
 9755 0160 03       		.uleb128 0x3
 9756 0161 0E       		.uleb128 0xe
 9757 0162 3A       		.uleb128 0x3a
 9758 0163 0B       		.uleb128 0xb
 9759 0164 3B       		.uleb128 0x3b
 9760 0165 0B       		.uleb128 0xb
 9761 0166 27       		.uleb128 0x27
 9762 0167 19       		.uleb128 0x19
 9763 0168 11       		.uleb128 0x11
 9764 0169 01       		.uleb128 0x1
 9765 016a 12       		.uleb128 0x12
 9766 016b 06       		.uleb128 0x6
 9767 016c 40       		.uleb128 0x40
 9768 016d 18       		.uleb128 0x18
 9769 016e 9642     		.uleb128 0x2116
 9770 0170 19       		.uleb128 0x19
 9771 0171 00       		.byte	0
 9772 0172 00       		.byte	0
 9773 0173 1D       		.uleb128 0x1d
 9774 0174 05       		.uleb128 0x5
 9775 0175 00       		.byte	0
 9776 0176 03       		.uleb128 0x3
 9777 0177 0E       		.uleb128 0xe
 9778 0178 3A       		.uleb128 0x3a
 9779 0179 0B       		.uleb128 0xb
 9780 017a 3B       		.uleb128 0x3b
 9781 017b 0B       		.uleb128 0xb
 9782 017c 49       		.uleb128 0x49
 9783 017d 13       		.uleb128 0x13
 9784 017e 02       		.uleb128 0x2
 9785 017f 18       		.uleb128 0x18
 9786 0180 00       		.byte	0
 9787 0181 00       		.byte	0
 9788 0182 1E       		.uleb128 0x1e
 9789 0183 34       		.uleb128 0x34
 9790 0184 00       		.byte	0
 9791 0185 03       		.uleb128 0x3
 9792 0186 0E       		.uleb128 0xe
 9793 0187 3A       		.uleb128 0x3a
 9794 0188 0B       		.uleb128 0xb
 9795 0189 3B       		.uleb128 0x3b
 9796 018a 0B       		.uleb128 0xb
 9797 018b 49       		.uleb128 0x49
 9798 018c 13       		.uleb128 0x13
ARM GAS  C:\Users\JENNEW~1\AppData\Local\Temp\ccHH9OS0.s 			page 205


 9799 018d 02       		.uleb128 0x2
 9800 018e 18       		.uleb128 0x18
 9801 018f 00       		.byte	0
 9802 0190 00       		.byte	0
 9803 0191 1F       		.uleb128 0x1f
 9804 0192 2E       		.uleb128 0x2e
 9805 0193 01       		.byte	0x1
 9806 0194 03       		.uleb128 0x3
 9807 0195 0E       		.uleb128 0xe
 9808 0196 3A       		.uleb128 0x3a
 9809 0197 0B       		.uleb128 0xb
 9810 0198 3B       		.uleb128 0x3b
 9811 0199 0B       		.uleb128 0xb
 9812 019a 27       		.uleb128 0x27
 9813 019b 19       		.uleb128 0x19
 9814 019c 49       		.uleb128 0x49
 9815 019d 13       		.uleb128 0x13
 9816 019e 11       		.uleb128 0x11
 9817 019f 01       		.uleb128 0x1
 9818 01a0 12       		.uleb128 0x12
 9819 01a1 06       		.uleb128 0x6
 9820 01a2 40       		.uleb128 0x40
 9821 01a3 18       		.uleb128 0x18
 9822 01a4 9742     		.uleb128 0x2117
 9823 01a6 19       		.uleb128 0x19
 9824 01a7 01       		.uleb128 0x1
 9825 01a8 13       		.uleb128 0x13
 9826 01a9 00       		.byte	0
 9827 01aa 00       		.byte	0
 9828 01ab 20       		.uleb128 0x20
 9829 01ac 34       		.uleb128 0x34
 9830 01ad 00       		.byte	0
 9831 01ae 03       		.uleb128 0x3
 9832 01af 08       		.uleb128 0x8
 9833 01b0 3A       		.uleb128 0x3a
 9834 01b1 0B       		.uleb128 0xb
 9835 01b2 3B       		.uleb128 0x3b
 9836 01b3 05       		.uleb128 0x5
 9837 01b4 49       		.uleb128 0x49
 9838 01b5 13       		.uleb128 0x13
 9839 01b6 02       		.uleb128 0x2
 9840 01b7 18       		.uleb128 0x18
 9841 01b8 00       		.byte	0
 9842 01b9 00       		.byte	0
 9843 01ba 21       		.uleb128 0x21
 9844 01bb 0B       		.uleb128 0xb
 9845 01bc 01       		.byte	0x1
 9846 01bd 11       		.uleb128 0x11
 9847 01be 01       		.uleb128 0x1
 9848 01bf 12       		.uleb128 0x12
 9849 01c0 06       		.uleb128 0x6
 9850 01c1 01       		.uleb128 0x1
 9851 01c2 13       		.uleb128 0x13
 9852 01c3 00       		.byte	0
 9853 01c4 00       		.byte	0
 9854 01c5 22       		.uleb128 0x22
 9855 01c6 2E       		.uleb128 0x2e
ARM GAS  C:\Users\JENNEW~1\AppData\Local\Temp\ccHH9OS0.s 			page 206


 9856 01c7 01       		.byte	0x1
 9857 01c8 03       		.uleb128 0x3
 9858 01c9 0E       		.uleb128 0xe
 9859 01ca 3A       		.uleb128 0x3a
 9860 01cb 0B       		.uleb128 0xb
 9861 01cc 3B       		.uleb128 0x3b
 9862 01cd 05       		.uleb128 0x5
 9863 01ce 27       		.uleb128 0x27
 9864 01cf 19       		.uleb128 0x19
 9865 01d0 11       		.uleb128 0x11
 9866 01d1 01       		.uleb128 0x1
 9867 01d2 12       		.uleb128 0x12
 9868 01d3 06       		.uleb128 0x6
 9869 01d4 40       		.uleb128 0x40
 9870 01d5 18       		.uleb128 0x18
 9871 01d6 9642     		.uleb128 0x2116
 9872 01d8 19       		.uleb128 0x19
 9873 01d9 01       		.uleb128 0x1
 9874 01da 13       		.uleb128 0x13
 9875 01db 00       		.byte	0
 9876 01dc 00       		.byte	0
 9877 01dd 23       		.uleb128 0x23
 9878 01de 05       		.uleb128 0x5
 9879 01df 00       		.byte	0
 9880 01e0 03       		.uleb128 0x3
 9881 01e1 08       		.uleb128 0x8
 9882 01e2 3A       		.uleb128 0x3a
 9883 01e3 0B       		.uleb128 0xb
 9884 01e4 3B       		.uleb128 0x3b
 9885 01e5 05       		.uleb128 0x5
 9886 01e6 49       		.uleb128 0x49
 9887 01e7 13       		.uleb128 0x13
 9888 01e8 02       		.uleb128 0x2
 9889 01e9 18       		.uleb128 0x18
 9890 01ea 00       		.byte	0
 9891 01eb 00       		.byte	0
 9892 01ec 24       		.uleb128 0x24
 9893 01ed 05       		.uleb128 0x5
 9894 01ee 00       		.byte	0
 9895 01ef 03       		.uleb128 0x3
 9896 01f0 0E       		.uleb128 0xe
 9897 01f1 3A       		.uleb128 0x3a
 9898 01f2 0B       		.uleb128 0xb
 9899 01f3 3B       		.uleb128 0x3b
 9900 01f4 05       		.uleb128 0x5
 9901 01f5 49       		.uleb128 0x49
 9902 01f6 13       		.uleb128 0x13
 9903 01f7 02       		.uleb128 0x2
 9904 01f8 18       		.uleb128 0x18
 9905 01f9 00       		.byte	0
 9906 01fa 00       		.byte	0
 9907 01fb 25       		.uleb128 0x25
 9908 01fc 34       		.uleb128 0x34
 9909 01fd 00       		.byte	0
 9910 01fe 03       		.uleb128 0x3
 9911 01ff 0E       		.uleb128 0xe
 9912 0200 3A       		.uleb128 0x3a
ARM GAS  C:\Users\JENNEW~1\AppData\Local\Temp\ccHH9OS0.s 			page 207


 9913 0201 0B       		.uleb128 0xb
 9914 0202 3B       		.uleb128 0x3b
 9915 0203 05       		.uleb128 0x5
 9916 0204 49       		.uleb128 0x49
 9917 0205 13       		.uleb128 0x13
 9918 0206 02       		.uleb128 0x2
 9919 0207 18       		.uleb128 0x18
 9920 0208 00       		.byte	0
 9921 0209 00       		.byte	0
 9922 020a 26       		.uleb128 0x26
 9923 020b 2E       		.uleb128 0x2e
 9924 020c 01       		.byte	0x1
 9925 020d 3F       		.uleb128 0x3f
 9926 020e 19       		.uleb128 0x19
 9927 020f 03       		.uleb128 0x3
 9928 0210 0E       		.uleb128 0xe
 9929 0211 3A       		.uleb128 0x3a
 9930 0212 0B       		.uleb128 0xb
 9931 0213 3B       		.uleb128 0x3b
 9932 0214 05       		.uleb128 0x5
 9933 0215 27       		.uleb128 0x27
 9934 0216 19       		.uleb128 0x19
 9935 0217 49       		.uleb128 0x49
 9936 0218 13       		.uleb128 0x13
 9937 0219 11       		.uleb128 0x11
 9938 021a 01       		.uleb128 0x1
 9939 021b 12       		.uleb128 0x12
 9940 021c 06       		.uleb128 0x6
 9941 021d 40       		.uleb128 0x40
 9942 021e 18       		.uleb128 0x18
 9943 021f 9642     		.uleb128 0x2116
 9944 0221 19       		.uleb128 0x19
 9945 0222 01       		.uleb128 0x1
 9946 0223 13       		.uleb128 0x13
 9947 0224 00       		.byte	0
 9948 0225 00       		.byte	0
 9949 0226 27       		.uleb128 0x27
 9950 0227 34       		.uleb128 0x34
 9951 0228 00       		.byte	0
 9952 0229 03       		.uleb128 0x3
 9953 022a 0E       		.uleb128 0xe
 9954 022b 3A       		.uleb128 0x3a
 9955 022c 0B       		.uleb128 0xb
 9956 022d 3B       		.uleb128 0x3b
 9957 022e 05       		.uleb128 0x5
 9958 022f 49       		.uleb128 0x49
 9959 0230 13       		.uleb128 0x13
 9960 0231 3F       		.uleb128 0x3f
 9961 0232 19       		.uleb128 0x19
 9962 0233 3C       		.uleb128 0x3c
 9963 0234 19       		.uleb128 0x19
 9964 0235 00       		.byte	0
 9965 0236 00       		.byte	0
 9966 0237 28       		.uleb128 0x28
 9967 0238 34       		.uleb128 0x34
 9968 0239 00       		.byte	0
 9969 023a 03       		.uleb128 0x3
ARM GAS  C:\Users\JENNEW~1\AppData\Local\Temp\ccHH9OS0.s 			page 208


 9970 023b 0E       		.uleb128 0xe
 9971 023c 3A       		.uleb128 0x3a
 9972 023d 0B       		.uleb128 0xb
 9973 023e 3B       		.uleb128 0x3b
 9974 023f 0B       		.uleb128 0xb
 9975 0240 49       		.uleb128 0x49
 9976 0241 13       		.uleb128 0x13
 9977 0242 3F       		.uleb128 0x3f
 9978 0243 19       		.uleb128 0x19
 9979 0244 02       		.uleb128 0x2
 9980 0245 18       		.uleb128 0x18
 9981 0246 00       		.byte	0
 9982 0247 00       		.byte	0
 9983 0248 00       		.byte	0
 9984              		.section	.debug_aranges,"",%progbits
 9985 0000 94000000 		.4byte	0x94
 9986 0004 0200     		.2byte	0x2
 9987 0006 00000000 		.4byte	.Ldebug_info0
 9988 000a 04       		.byte	0x4
 9989 000b 00       		.byte	0
 9990 000c 0000     		.2byte	0
 9991 000e 0000     		.2byte	0
 9992 0010 00000000 		.4byte	.LFB64
 9993 0014 1C000000 		.4byte	.LFE64-.LFB64
 9994 0018 00000000 		.4byte	.LFB65
 9995 001c 60000000 		.4byte	.LFE65-.LFB65
 9996 0020 00000000 		.4byte	.LFB66
 9997 0024 1C000000 		.4byte	.LFE66-.LFB66
 9998 0028 00000000 		.4byte	.LFB67
 9999 002c A8000000 		.4byte	.LFE67-.LFB67
 10000 0030 00000000 		.4byte	.LFB68
 10001 0034 BC010000 		.4byte	.LFE68-.LFB68
 10002 0038 00000000 		.4byte	.LFB69
 10003 003c 38000000 		.4byte	.LFE69-.LFB69
 10004 0040 00000000 		.4byte	.LFB70
 10005 0044 78000000 		.4byte	.LFE70-.LFB70
 10006 0048 00000000 		.4byte	.LFB71
 10007 004c 58000000 		.4byte	.LFE71-.LFB71
 10008 0050 00000000 		.4byte	.LFB72
 10009 0054 52000000 		.4byte	.LFE72-.LFB72
 10010 0058 00000000 		.4byte	.LFB73
 10011 005c D0050000 		.4byte	.LFE73-.LFB73
 10012 0060 00000000 		.4byte	.LFB74
 10013 0064 34050000 		.4byte	.LFE74-.LFB74
 10014 0068 00000000 		.4byte	.LFB75
 10015 006c 40040000 		.4byte	.LFE75-.LFB75
 10016 0070 00000000 		.4byte	.LFB76
 10017 0074 54050000 		.4byte	.LFE76-.LFB76
 10018 0078 00000000 		.4byte	.LFB77
 10019 007c F4040000 		.4byte	.LFE77-.LFB77
 10020 0080 00000000 		.4byte	.LFB78
 10021 0084 6C010000 		.4byte	.LFE78-.LFB78
 10022 0088 00000000 		.4byte	.LFB79
 10023 008c A80C0000 		.4byte	.LFE79-.LFB79
 10024 0090 00000000 		.4byte	0
 10025 0094 00000000 		.4byte	0
 10026              		.section	.debug_ranges,"",%progbits
ARM GAS  C:\Users\JENNEW~1\AppData\Local\Temp\ccHH9OS0.s 			page 209


 10027              	.Ldebug_ranges0:
 10028 0000 00000000 		.4byte	.LFB64
 10029 0004 1C000000 		.4byte	.LFE64
 10030 0008 00000000 		.4byte	.LFB65
 10031 000c 60000000 		.4byte	.LFE65
 10032 0010 00000000 		.4byte	.LFB66
 10033 0014 1C000000 		.4byte	.LFE66
 10034 0018 00000000 		.4byte	.LFB67
 10035 001c A8000000 		.4byte	.LFE67
 10036 0020 00000000 		.4byte	.LFB68
 10037 0024 BC010000 		.4byte	.LFE68
 10038 0028 00000000 		.4byte	.LFB69
 10039 002c 38000000 		.4byte	.LFE69
 10040 0030 00000000 		.4byte	.LFB70
 10041 0034 78000000 		.4byte	.LFE70
 10042 0038 00000000 		.4byte	.LFB71
 10043 003c 58000000 		.4byte	.LFE71
 10044 0040 00000000 		.4byte	.LFB72
 10045 0044 52000000 		.4byte	.LFE72
 10046 0048 00000000 		.4byte	.LFB73
 10047 004c D0050000 		.4byte	.LFE73
 10048 0050 00000000 		.4byte	.LFB74
 10049 0054 34050000 		.4byte	.LFE74
 10050 0058 00000000 		.4byte	.LFB75
 10051 005c 40040000 		.4byte	.LFE75
 10052 0060 00000000 		.4byte	.LFB76
 10053 0064 54050000 		.4byte	.LFE76
 10054 0068 00000000 		.4byte	.LFB77
 10055 006c F4040000 		.4byte	.LFE77
 10056 0070 00000000 		.4byte	.LFB78
 10057 0074 6C010000 		.4byte	.LFE78
 10058 0078 00000000 		.4byte	.LFB79
 10059 007c A80C0000 		.4byte	.LFE79
 10060 0080 00000000 		.4byte	0
 10061 0084 00000000 		.4byte	0
 10062              		.section	.debug_line,"",%progbits
 10063              	.Ldebug_line0:
 10064 0000 8C0D0000 		.section	.debug_str,"MS",%progbits,1
 10064      02009E01 
 10064      00000201 
 10064      FB0E0D00 
 10064      01010101 
 10065              	.LASF42:
 10066 0000 4A4F595F 		.ascii	"JOY_CAL_CONFIRM_SAVE\000"
 10066      43414C5F 
 10066      434F4E46 
 10066      49524D5F 
 10066      53415645 
 10067              	.LASF72:
 10068 0015 67696D62 		.ascii	"gimbal_status2\000"
 10068      616C5F73 
 10068      74617475 
 10068      733200
 10069              	.LASF234:
 10070 0024 64656661 		.ascii	"defaults\000"
 10070      756C7473 
 10070      00
ARM GAS  C:\Users\JENNEW~1\AppData\Local\Temp\ccHH9OS0.s 			page 210


 10071              	.LASF29:
 10072 002d 73697A65 		.ascii	"sizetype\000"
 10072      74797065 
 10072      00
 10073              	.LASF157:
 10074 0036 665F6F75 		.ascii	"f_out\000"
 10074      7400
 10075              	.LASF212:
 10076 003c 73745F72 		.ascii	"st_r\000"
 10076      00
 10077              	.LASF137:
 10078 0041 7461696C 		.ascii	"tail\000"
 10078      00
 10079              	.LASF269:
 10080 0046 6973725F 		.ascii	"isr_rx_movi_Handler\000"
 10080      72785F6D 
 10080      6F76695F 
 10080      48616E64 
 10080      6C657200 
 10081              	.LASF194:
 10082 005a 665F7061 		.ascii	"f_part\000"
 10082      727400
 10083              	.LASF207:
 10084 0061 726F6330 		.ascii	"roc0_le\000"
 10084      5F6C6500 
 10085              	.LASF17:
 10086 0069 696E7433 		.ascii	"int32_t\000"
 10086      325F7400 
 10087              	.LASF38:
 10088 0071 6A6F795F 		.ascii	"joy_cal_t\000"
 10088      63616C5F 
 10088      7400
 10089              	.LASF21:
 10090 007b 75696E74 		.ascii	"uint32\000"
 10090      333200
 10091              	.LASF204:
 10092 0082 616C7430 		.ascii	"alt0_le\000"
 10092      5F6C6500 
 10093              	.LASF95:
 10094 008a 6174745F 		.ascii	"att_pitch_deg\000"
 10094      70697463 
 10094      685F6465 
 10094      6700
 10095              	.LASF188:
 10096 0098 7369676E 		.ascii	"sign\000"
 10096      00
 10097              	.LASF184:
 10098 009d 6374726C 		.ascii	"ctrl_mode\000"
 10098      5F6D6F64 
 10098      6500
 10099              	.LASF261:
 10100 00a7 675F6D6F 		.ascii	"g_movi\000"
 10100      766900
 10101              	.LASF268:
 10102 00ae 74797065 		.ascii	"type\000"
 10102      00
 10103              	.LASF87:
ARM GAS  C:\Users\JENNEW~1\AppData\Local\Temp\ccHH9OS0.s 			page 211


 10104 00b3 6770735F 		.ascii	"gps_raw_hacc\000"
 10104      7261775F 
 10104      68616363 
 10104      00
 10105              	.LASF73:
 10106 00c0 6770735F 		.ascii	"gps_valid\000"
 10106      76616C69 
 10106      6400
 10107              	.LASF215:
 10108 00ca 696D755F 		.ascii	"imu_r\000"
 10108      7200
 10109              	.LASF114:
 10110 00d0 73797373 		.ascii	"sysstat_batt_a\000"
 10110      7461745F 
 10110      62617474 
 10110      5F6100
 10111              	.LASF228:
 10112 00df 6170705F 		.ascii	"app_mode\000"
 10112      6D6F6465 
 10112      00
 10113              	.LASF68:
 10114 00e8 67696D62 		.ascii	"gimbal_i\000"
 10114      616C5F69 
 10114      00
 10115              	.LASF69:
 10116 00f1 67696D62 		.ascii	"gimbal_j\000"
 10116      616C5F6A 
 10116      00
 10117              	.LASF2:
 10118 00fa 5F5F7569 		.ascii	"__uint8_t\000"
 10118      6E74385F 
 10118      7400
 10119              	.LASF104:
 10120 0104 73797373 		.ascii	"sysstat_batt_v\000"
 10120      7461745F 
 10120      62617474 
 10120      5F7600
 10121              	.LASF221:
 10122 0113 66726571 		.ascii	"freq_r\000"
 10122      5F7200
 10123              	.LASF67:
 10124 011a 67696D62 		.ascii	"gimbal_r\000"
 10124      616C5F72 
 10124      00
 10125              	.LASF257:
 10126 0123 76725F66 		.ascii	"vr_f\000"
 10126      00
 10127              	.LASF244:
 10128 0128 6D735F74 		.ascii	"ms_total\000"
 10128      6F74616C 
 10128      00
 10129              	.LASF256:
 10130 0131 76725F69 		.ascii	"vr_i\000"
 10130      00
 10131              	.LASF129:
 10132 0136 74785F62 		.ascii	"tx_bytes\000"
 10132      79746573 
ARM GAS  C:\Users\JENNEW~1\AppData\Local\Temp\ccHH9OS0.s 			page 212


 10132      00
 10133              	.LASF135:
 10134 013f 6D6F7669 		.ascii	"movi_statistics_t\000"
 10134      5F737461 
 10134      74697374 
 10134      6963735F 
 10134      7400
 10135              	.LASF74:
 10136 0151 6770735F 		.ascii	"gps_lat_deg\000"
 10136      6C61745F 
 10136      64656700 
 10137              	.LASF8:
 10138 015d 6C6F6E67 		.ascii	"long int\000"
 10138      20696E74 
 10138      00
 10139              	.LASF88:
 10140 0166 6770735F 		.ascii	"gps_raw_vacc\000"
 10140      7261775F 
 10140      76616363 
 10140      00
 10141              	.LASF271:
 10142 0173 6D61696E 		.ascii	"main\000"
 10142      00
 10143              	.LASF115:
 10144 0178 73797373 		.ascii	"sysstat_charge_mah\000"
 10144      7461745F 
 10144      63686172 
 10144      67655F6D 
 10144      616800
 10145              	.LASF70:
 10146 018b 67696D62 		.ascii	"gimbal_k\000"
 10146      616C5F6B 
 10146      00
 10147              	.LASF106:
 10148 0194 73797373 		.ascii	"sysstat_temp_c\000"
 10148      7461745F 
 10148      74656D70 
 10148      5F6300
 10149              	.LASF240:
 10150 01a3 70616E5F 		.ascii	"pan_milli\000"
 10150      6D696C6C 
 10150      6900
 10151              	.LASF136:
 10152 01ad 68656164 		.ascii	"head\000"
 10152      00
 10153              	.LASF270:
 10154 01b2 6973725F 		.ascii	"isr_Looptimer_Handler\000"
 10154      4C6F6F70 
 10154      74696D65 
 10154      725F4861 
 10154      6E646C65 
 10155              	.LASF76:
 10156 01c8 6770735F 		.ascii	"gps_alt_m\000"
 10156      616C745F 
 10156      6D00
 10157              	.LASF193:
 10158 01d2 695F7061 		.ascii	"i_part\000"
ARM GAS  C:\Users\JENNEW~1\AppData\Local\Temp\ccHH9OS0.s 			page 213


 10158      727400
 10159              	.LASF0:
 10160 01d9 7369676E 		.ascii	"signed char\000"
 10160      65642063 
 10160      68617200 
 10161              	.LASF14:
 10162 01e5 75696E74 		.ascii	"uint8_t\000"
 10162      385F7400 
 10163              	.LASF173:
 10164 01ed 74696C74 		.ascii	"tilt_deg\000"
 10164      5F646567 
 10164      00
 10165              	.LASF46:
 10166 01f6 4D4F5649 		.ascii	"MOVI_ERR_UART\000"
 10166      5F455252 
 10166      5F554152 
 10166      5400
 10167              	.LASF47:
 10168 0204 4D4F5649 		.ascii	"MOVI_ERR_ENCODE\000"
 10168      5F455252 
 10168      5F454E43 
 10168      4F444500 
 10169              	.LASF210:
 10170 0214 7072696E 		.ascii	"print_test_sysstat\000"
 10170      745F7465 
 10170      73745F73 
 10170      79737374 
 10170      617400
 10171              	.LASF1:
 10172 0227 756E7369 		.ascii	"unsigned char\000"
 10172      676E6564 
 10172      20636861 
 10172      7200
 10173              	.LASF202:
 10174 0235 73616363 		.ascii	"sacc_r\000"
 10174      5F7200
 10175              	.LASF149:
 10176 023c 6D6F7669 		.ascii	"movi_comm_t\000"
 10176      5F636F6D 
 10176      6D5F7400 
 10177              	.LASF130:
 10178 0248 72785F70 		.ascii	"rx_packets\000"
 10178      61636B65 
 10178      747300
 10179              	.LASF195:
 10180 0253 6C6F6E5F 		.ascii	"lon_r\000"
 10180      7200
 10181              	.LASF126:
 10182 0259 5F426F6F 		.ascii	"_Bool\000"
 10182      6C00
 10183              	.LASF213:
 10184 025f 74696D65 		.ascii	"time_r\000"
 10184      5F7200
 10185              	.LASF26:
 10186 0266 63686172 		.ascii	"char\000"
 10186      00
 10187              	.LASF94:
ARM GAS  C:\Users\JENNEW~1\AppData\Local\Temp\ccHH9OS0.s 			page 214


 10188 026b 6174745F 		.ascii	"att_roll_deg\000"
 10188      726F6C6C 
 10188      5F646567 
 10188      00
 10189              	.LASF243:
 10190 0278 795F6D76 		.ascii	"y_mv\000"
 10190      00
 10191              	.LASF48:
 10192 027d 6D6F7669 		.ascii	"movi_result_t\000"
 10192      5F726573 
 10192      756C745F 
 10192      7400
 10193              	.LASF5:
 10194 028b 5F5F7569 		.ascii	"__uint16_t\000"
 10194      6E743136 
 10194      5F7400
 10195              	.LASF120:
 10196 0296 6D61675F 		.ascii	"mag_magnitude\000"
 10196      6D61676E 
 10196      69747564 
 10196      6500
 10197              	.LASF53:
 10198 02a4 44454645 		.ascii	"DEFER\000"
 10198      5200
 10199              	.LASF172:
 10200 02aa 73696E70 		.ascii	"sinp\000"
 10200      00
 10201              	.LASF227:
 10202 02af 61747472 		.ascii	"attr\000"
 10202      00
 10203              	.LASF177:
 10204 02b4 7072696E 		.ascii	"print_cal_prompt_on_state_change\000"
 10204      745F6361 
 10204      6C5F7072 
 10204      6F6D7074 
 10204      5F6F6E5F 
 10205              	.LASF116:
 10206 02d5 6D61675F 		.ascii	"mag_valid\000"
 10206      76616C69 
 10206      6400
 10207              	.LASF36:
 10208 02df 63656E74 		.ascii	"center\000"
 10208      657200
 10209              	.LASF264:
 10210 02e6 675F7469 		.ascii	"g_tick_ms\000"
 10210      636B5F6D 
 10210      7300
 10211              	.LASF66:
 10212 02f0 62617474 		.ascii	"battery_right_v\000"
 10212      6572795F 
 10212      72696768 
 10212      745F7600 
 10213              	.LASF31:
 10214 0300 53454E53 		.ascii	"SENSE_MED\000"
 10214      455F4D45 
 10214      4400
 10215              	.LASF102:
ARM GAS  C:\Users\JENNEW~1\AppData\Local\Temp\ccHH9OS0.s 			page 215


 10216 030a 6174745F 		.ascii	"att_yaw_rate_dps\000"
 10216      7961775F 
 10216      72617465 
 10216      5F647073 
 10216      00
 10217              	.LASF77:
 10218 031b 6770735F 		.ascii	"gps_ground_spd_ms\000"
 10218      67726F75 
 10218      6E645F73 
 10218      70645F6D 
 10218      7300
 10219              	.LASF182:
 10220 032d 6A6F7973 		.ascii	"joystick_active\000"
 10220      7469636B 
 10220      5F616374 
 10220      69766500 
 10221              	.LASF109:
 10222 033d 73797373 		.ascii	"sysstat_time_s\000"
 10222      7461745F 
 10222      74696D65 
 10222      5F7300
 10223              	.LASF131:
 10224 034c 72785F62 		.ascii	"rx_bad_checksum\000"
 10224      61645F63 
 10224      6865636B 
 10224      73756D00 
 10225              	.LASF80:
 10226 035c 6770735F 		.ascii	"gps_vacc_m\000"
 10226      76616363 
 10226      5F6D00
 10227              	.LASF85:
 10228 0367 6770735F 		.ascii	"gps_raw_spd\000"
 10228      7261775F 
 10228      73706400 
 10229              	.LASF134:
 10230 0373 75617274 		.ascii	"uart_err_flags\000"
 10230      5F657272 
 10230      5F666C61 
 10230      677300
 10231              	.LASF187:
 10232 0382 7363616C 		.ascii	"scale_pow10\000"
 10232      655F706F 
 10232      77313000 
 10233              	.LASF105:
 10234 038e 73797373 		.ascii	"sysstat_gps_sats\000"
 10234      7461745F 
 10234      6770735F 
 10234      73617473 
 10234      00
 10235              	.LASF93:
 10236 039f 6174745F 		.ascii	"att_valid\000"
 10236      76616C69 
 10236      6400
 10237              	.LASF216:
 10238 03a9 63616D5F 		.ascii	"cam_r\000"
 10238      7200
 10239              	.LASF54:
ARM GAS  C:\Users\JENNEW~1\AppData\Local\Temp\ccHH9OS0.s 			page 216


 10240 03af 52415445 		.ascii	"RATE\000"
 10240      00
 10241              	.LASF235:
 10242 03b4 63757272 		.ascii	"current_sense\000"
 10242      656E745F 
 10242      73656E73 
 10242      6500
 10243              	.LASF196:
 10244 03c2 6C61745F 		.ascii	"lat_r\000"
 10244      7200
 10245              	.LASF122:
 10246 03c8 6D61675F 		.ascii	"mag_off_x\000"
 10246      6F66665F 
 10246      7800
 10247              	.LASF123:
 10248 03d2 6D61675F 		.ascii	"mag_off_y\000"
 10248      6F66665F 
 10248      7900
 10249              	.LASF124:
 10250 03dc 6D61675F 		.ascii	"mag_off_z\000"
 10250      6F66665F 
 10250      7A00
 10251              	.LASF259:
 10252 03e6 6472765F 		.ascii	"drv_err\000"
 10252      65727200 
 10253              	.LASF258:
 10254 03ee 696D755F 		.ascii	"imu_err\000"
 10254      65727200 
 10255              	.LASF230:
 10256 03f6 6C617374 		.ascii	"last_tx_ms\000"
 10256      5F74785F 
 10256      6D7300
 10257              	.LASF201:
 10258 0401 76616363 		.ascii	"vacc_r\000"
 10258      5F7200
 10259              	.LASF81:
 10260 0408 6770735F 		.ascii	"gps_sacc_ms\000"
 10260      73616363 
 10260      5F6D7300 
 10261              	.LASF10:
 10262 0414 6C6F6E67 		.ascii	"long unsigned int\000"
 10262      20756E73 
 10262      69676E65 
 10262      6420696E 
 10262      7400
 10263              	.LASF180:
 10264 0426 6D6F7669 		.ascii	"movi\000"
 10264      00
 10265              	.LASF183:
 10266 042b 73747265 		.ascii	"streaming_adc\000"
 10266      616D696E 
 10266      675F6164 
 10266      6300
 10267              	.LASF140:
 10268 0439 73746174 		.ascii	"status\000"
 10268      757300
 10269              	.LASF186:
ARM GAS  C:\Users\JENNEW~1\AppData\Local\Temp\ccHH9OS0.s 			page 217


 10270 0440 73706C69 		.ascii	"split32\000"
 10270      74333200 
 10271              	.LASF79:
 10272 0448 6770735F 		.ascii	"gps_hacc_m\000"
 10272      68616363 
 10272      5F6D00
 10273              	.LASF110:
 10274 0453 73797373 		.ascii	"sysstat_pressure_mb\000"
 10274      7461745F 
 10274      70726573 
 10274      73757265 
 10274      5F6D6200 
 10275              	.LASF40:
 10276 0467 4A4F595F 		.ascii	"JOY_CAL_RANGE_CAPTURE\000"
 10276      43414C5F 
 10276      52414E47 
 10276      455F4341 
 10276      50545552 
 10277              	.LASF151:
 10278 047d 4150505F 		.ascii	"APP_MODE_MOVI_CONTROL\000"
 10278      4D4F4445 
 10278      5F4D4F56 
 10278      495F434F 
 10278      4E54524F 
 10279              	.LASF179:
 10280 0493 646F5F6B 		.ascii	"do_kill\000"
 10280      696C6C00 
 10281              	.LASF55:
 10282 049b 4142534F 		.ascii	"ABSOLUTE\000"
 10282      4C555445 
 10282      00
 10283              	.LASF154:
 10284 04a4 6D6F7669 		.ascii	"movi_uart_putc\000"
 10284      5F756172 
 10284      745F7075 
 10284      746300
 10285              	.LASF82:
 10286 04b3 6770735F 		.ascii	"gps_raw_lat\000"
 10286      7261775F 
 10286      6C617400 
 10287              	.LASF49:
 10288 04bf 75617274 		.ascii	"uart_putc\000"
 10288      5F707574 
 10288      6300
 10289              	.LASF99:
 10290 04c9 6174745F 		.ascii	"att_yaw_err_deg\000"
 10290      7961775F 
 10290      6572725F 
 10290      64656700 
 10291              	.LASF30:
 10292 04d9 53454E53 		.ascii	"SENSE_LOW\000"
 10292      455F4C4F 
 10292      5700
 10293              	.LASF113:
 10294 04e3 73797373 		.ascii	"sysstat_imu_latency\000"
 10294      7461745F 
 10294      696D755F 
ARM GAS  C:\Users\JENNEW~1\AppData\Local\Temp\ccHH9OS0.s 			page 218


 10294      6C617465 
 10294      6E637900 
 10295              	.LASF127:
 10296 04f7 6D6F7669 		.ascii	"movi_status_t\000"
 10296      5F737461 
 10296      7475735F 
 10296      7400
 10297              	.LASF236:
 10298 0505 6C617374 		.ascii	"last_button_state\000"
 10298      5F627574 
 10298      746F6E5F 
 10298      73746174 
 10298      6500
 10299              	.LASF101:
 10300 0517 6174745F 		.ascii	"att_pitch_rate_dps\000"
 10300      70697463 
 10300      685F7261 
 10300      74655F64 
 10300      707300
 10301              	.LASF171:
 10302 052a 726F6C6C 		.ascii	"roll_deg\000"
 10302      5F646567 
 10302      00
 10303              	.LASF189:
 10304 0533 7072696E 		.ascii	"print_test_attitude\000"
 10304      745F7465 
 10304      73745F61 
 10304      74746974 
 10304      75646500 
 10305              	.LASF265:
 10306 0547 474E5520 		.ascii	"GNU C11 5.4.1 20160609 (release) [ARM/embedded-5-br"
 10306      43313120 
 10306      352E342E 
 10306      31203230 
 10306      31363036 
 10307 057a 616E6368 		.ascii	"anch revision 237715] -mcpu=cortex-m3 -mthumb -g -O"
 10307      20726576 
 10307      6973696F 
 10307      6E203233 
 10307      37373135 
 10308 05ad 30202D66 		.ascii	"0 -ffunction-sections -ffat-lto-objects\000"
 10308      66756E63 
 10308      74696F6E 
 10308      2D736563 
 10308      74696F6E 
 10309              	.LASF200:
 10310 05d5 68616363 		.ascii	"hacc_r\000"
 10310      5F7200
 10311              	.LASF222:
 10312 05dc 6F785F72 		.ascii	"ox_r\000"
 10312      00
 10313              	.LASF9:
 10314 05e1 5F5F7569 		.ascii	"__uint32_t\000"
 10314      6E743332 
 10314      5F7400
 10315              	.LASF44:
 10316 05ec 6A6F795F 		.ascii	"joy_cmd_t\000"
ARM GAS  C:\Users\JENNEW~1\AppData\Local\Temp\ccHH9OS0.s 			page 219


 10316      636D645F 
 10316      7400
 10317              	.LASF11:
 10318 05f6 6C6F6E67 		.ascii	"long long int\000"
 10318      206C6F6E 
 10318      6720696E 
 10318      7400
 10319              	.LASF98:
 10320 0604 6174745F 		.ascii	"att_pitch_err_deg\000"
 10320      70697463 
 10320      685F6572 
 10320      725F6465 
 10320      6700
 10321              	.LASF78:
 10322 0616 6770735F 		.ascii	"gps_heading_deg\000"
 10322      68656164 
 10322      696E675F 
 10322      64656700 
 10323              	.LASF62:
 10324 0626 656E6162 		.ascii	"enable\000"
 10324      6C6500
 10325              	.LASF176:
 10326 062d 70616E5F 		.ascii	"pan_deg\000"
 10326      64656700 
 10327              	.LASF223:
 10328 0635 6F795F72 		.ascii	"oy_r\000"
 10328      00
 10329              	.LASF252:
 10330 063a 75645F69 		.ascii	"ud_i\000"
 10330      00
 10331              	.LASF25:
 10332 063f 646F7562 		.ascii	"double\000"
 10332      6C6500
 10333              	.LASF266:
 10334 0646 6D61696E 		.ascii	"main.c\000"
 10334      2E6300
 10335              	.LASF211:
 10336 064d 62765F72 		.ascii	"bv_r\000"
 10336      00
 10337              	.LASF238:
 10338 0652 63616C5F 		.ascii	"cal_now\000"
 10338      6E6F7700 
 10339              	.LASF52:
 10340 065a 51585F4E 		.ascii	"QX_NUM_OF_PORTS\000"
 10340      554D5F4F 
 10340      465F504F 
 10340      52545300 
 10341              	.LASF158:
 10342 066a 7369676E 		.ascii	"sign_out\000"
 10342      5F6F7574 
 10342      00
 10343              	.LASF111:
 10344 0673 73797373 		.ascii	"sysstat_imu_rate\000"
 10344      7461745F 
 10344      696D755F 
 10344      72617465 
 10344      00
ARM GAS  C:\Users\JENNEW~1\AppData\Local\Temp\ccHH9OS0.s 			page 220


 10345              	.LASF246:
 10346 0684 6D696E5F 		.ascii	"min_part\000"
 10346      70617274 
 10346      00
 10347              	.LASF174:
 10348 068d 73696E79 		.ascii	"siny_val\000"
 10348      5F76616C 
 10348      00
 10349              	.LASF245:
 10350 0696 7365635F 		.ascii	"sec_part\000"
 10350      70617274 
 10350      00
 10351              	.LASF152:
 10352 069f 4150505F 		.ascii	"APP_MODE_MOVI_TEST\000"
 10352      4D4F4445 
 10352      5F4D4F56 
 10352      495F5445 
 10352      535400
 10353              	.LASF263:
 10354 06b2 49544D5F 		.ascii	"ITM_RxBuffer\000"
 10354      52784275 
 10354      66666572 
 10354      00
 10355              	.LASF209:
 10356 06bf 726F6331 		.ascii	"roc1_le\000"
 10356      5F6C6500 
 10357              	.LASF132:
 10358 06c7 72785F62 		.ascii	"rx_bytes\000"
 10358      79746573 
 10358      00
 10359              	.LASF24:
 10360 06d0 666C6F61 		.ascii	"float\000"
 10360      7400
 10361              	.LASF162:
 10362 06d6 70616E5F 		.ascii	"pan_f\000"
 10362      6600
 10363              	.LASF161:
 10364 06dc 70616E5F 		.ascii	"pan_i\000"
 10364      6900
 10365              	.LASF156:
 10366 06e2 695F6F75 		.ascii	"i_out\000"
 10366      7400
 10367              	.LASF160:
 10368 06e8 70616E5F 		.ascii	"pan_s\000"
 10368      7300
 10369              	.LASF254:
 10370 06ee 766C5F69 		.ascii	"vl_i\000"
 10370      00
 10371              	.LASF13:
 10372 06f3 756E7369 		.ascii	"unsigned int\000"
 10372      676E6564 
 10372      20696E74 
 10372      00
 10373              	.LASF206:
 10374 0700 616C7431 		.ascii	"alt1_le\000"
 10374      5F6C6500 
 10375              	.LASF64:
ARM GAS  C:\Users\JENNEW~1\AppData\Local\Temp\ccHH9OS0.s 			page 221


 10376 0708 6D6F7669 		.ascii	"movi_control_t\000"
 10376      5F636F6E 
 10376      74726F6C 
 10376      5F7400
 10377              	.LASF225:
 10378 0717 6465636C 		.ascii	"decl_r\000"
 10378      5F7200
 10379              	.LASF165:
 10380 071e 74696C74 		.ascii	"tilt_f\000"
 10380      5F6600
 10381              	.LASF164:
 10382 0725 74696C74 		.ascii	"tilt_i\000"
 10382      5F6900
 10383              	.LASF163:
 10384 072c 74696C74 		.ascii	"tilt_s\000"
 10384      5F7300
 10385              	.LASF61:
 10386 0733 726F6C6C 		.ascii	"roll_mode\000"
 10386      5F6D6F64 
 10386      6500
 10387              	.LASF232:
 10388 073d 636F756E 		.ascii	"counts\000"
 10388      747300
 10389              	.LASF71:
 10390 0744 67696D62 		.ascii	"gimbal_status1\000"
 10390      616C5F73 
 10390      74617475 
 10390      733100
 10391              	.LASF84:
 10392 0753 6770735F 		.ascii	"gps_raw_alt\000"
 10392      7261775F 
 10392      616C7400 
 10393              	.LASF32:
 10394 075f 53454E53 		.ascii	"SENSE_HIGH\000"
 10394      455F4849 
 10394      474800
 10395              	.LASF220:
 10396 076a 6D61675F 		.ascii	"mag_r\000"
 10396      7200
 10397              	.LASF117:
 10398 0770 6D61675F 		.ascii	"mag_x\000"
 10398      7800
 10399              	.LASF118:
 10400 0776 6D61675F 		.ascii	"mag_y\000"
 10400      7900
 10401              	.LASF119:
 10402 077c 6D61675F 		.ascii	"mag_z\000"
 10402      7A00
 10403              	.LASF96:
 10404 0782 6174745F 		.ascii	"att_yaw_deg\000"
 10404      7961775F 
 10404      64656700 
 10405              	.LASF33:
 10406 078e 6A6F795F 		.ascii	"joy_sensitivity_t\000"
 10406      73656E73 
 10406      69746976 
 10406      6974795F 
ARM GAS  C:\Users\JENNEW~1\AppData\Local\Temp\ccHH9OS0.s 			page 222


 10406      7400
 10407              	.LASF260:
 10408 07a0 67626C5F 		.ascii	"gbl_err\000"
 10408      65727200 
 10409              	.LASF133:
 10410 07a8 72625F64 		.ascii	"rb_drops\000"
 10410      726F7073 
 10410      00
 10411              	.LASF185:
 10412 07b1 6D6F6465 		.ascii	"mode_to_str\000"
 10412      5F746F5F 
 10412      73747200 
 10413              	.LASF155:
 10414 07bd 6465636F 		.ascii	"decomp\000"
 10414      6D7000
 10415              	.LASF145:
 10416 07c4 74657374 		.ascii	"test_response_attr\000"
 10416      5F726573 
 10416      706F6E73 
 10416      655F6174 
 10416      747200
 10417              	.LASF28:
 10418 07d7 6C6F6E67 		.ascii	"long double\000"
 10418      20646F75 
 10418      626C6500 
 10419              	.LASF197:
 10420 07e3 616C745F 		.ascii	"alt_r\000"
 10420      7200
 10421              	.LASF89:
 10422 07e9 6770735F 		.ascii	"gps_raw_sacc\000"
 10422      7261775F 
 10422      73616363 
 10422      00
 10423              	.LASF100:
 10424 07f6 6174745F 		.ascii	"att_roll_rate_dps\000"
 10424      726F6C6C 
 10424      5F726174 
 10424      655F6470 
 10424      7300
 10425              	.LASF267:
 10426 0808 433A5C55 		.ascii	"C:\\Users\\Jennewein\\Documents\\hamish-workspace\\"
 10426      73657273 
 10426      5C4A656E 
 10426      6E657765 
 10426      696E5C44 
 10427 0836 50536F43 		.ascii	"PSoC-Programs\\test_projects\\Proj06_freefly_uart_c"
 10427      2D50726F 
 10427      6772616D 
 10427      735C7465 
 10427      73745F70 
 10428 0867 6F6E7472 		.ascii	"ontrol_test_gps.cydsn\000"
 10428      6F6C5F74 
 10428      6573745F 
 10428      6770732E 
 10428      63796473 
 10429              	.LASF214:
 10430 087d 70726573 		.ascii	"pres_r\000"
ARM GAS  C:\Users\JENNEW~1\AppData\Local\Temp\ccHH9OS0.s 			page 223


 10430      5F7200
 10431              	.LASF142:
 10432 0884 74657374 		.ascii	"test_pending_attr\000"
 10432      5F70656E 
 10432      64696E67 
 10432      5F617474 
 10432      7200
 10433              	.LASF35:
 10434 0896 6D617876 		.ascii	"maxv\000"
 10434      00
 10435              	.LASF41:
 10436 089b 4A4F595F 		.ascii	"JOY_CAL_CENTER_CAPTURE\000"
 10436      43414C5F 
 10436      43454E54 
 10436      45525F43 
 10436      41505455 
 10437              	.LASF97:
 10438 08b2 6174745F 		.ascii	"att_roll_err_deg\000"
 10438      726F6C6C 
 10438      5F657272 
 10438      5F646567 
 10438      00
 10439              	.LASF59:
 10440 08c3 70616E5F 		.ascii	"pan_mode\000"
 10440      6D6F6465 
 10440      00
 10441              	.LASF51:
 10442 08cc 51585F43 		.ascii	"QX_COMMS_PORT_UART\000"
 10442      4F4D4D53 
 10442      5F504F52 
 10442      545F5541 
 10442      525400
 10443              	.LASF12:
 10444 08df 6C6F6E67 		.ascii	"long long unsigned int\000"
 10444      206C6F6E 
 10444      6720756E 
 10444      7369676E 
 10444      65642069 
 10445              	.LASF108:
 10446 08f6 73797373 		.ascii	"sysstat_status_flags\000"
 10446      7461745F 
 10446      73746174 
 10446      75735F66 
 10446      6C616773 
 10447              	.LASF233:
 10448 090b 63616C5F 		.ascii	"cal_prev\000"
 10448      70726576 
 10448      00
 10449              	.LASF218:
 10450 0914 6368675F 		.ascii	"chg_r\000"
 10450      7200
 10451              	.LASF16:
 10452 091a 75696E74 		.ascii	"uint16_t\000"
 10452      31365F74 
 10452      00
 10453              	.LASF219:
 10454 0923 7072696E 		.ascii	"print_test_mag\000"
ARM GAS  C:\Users\JENNEW~1\AppData\Local\Temp\ccHH9OS0.s 			page 224


 10454      745F7465 
 10454      73745F6D 
 10454      616700
 10455              	.LASF208:
 10456 0932 726F6330 		.ascii	"roc0_be\000"
 10456      5F626500 
 10457              	.LASF237:
 10458 093a 696E7665 		.ascii	"invert_mask\000"
 10458      72745F6D 
 10458      61736B00 
 10459              	.LASF241:
 10460 0946 74696C74 		.ascii	"tilt_milli\000"
 10460      5F6D696C 
 10460      6C6900
 10461              	.LASF103:
 10462 0951 73797373 		.ascii	"sysstat_valid\000"
 10462      7461745F 
 10462      76616C69 
 10462      6400
 10463              	.LASF92:
 10464 095f 6261726F 		.ascii	"baro_roc_ms\000"
 10464      5F726F63 
 10464      5F6D7300 
 10465              	.LASF226:
 10466 096b 7072696E 		.ascii	"print_test_response\000"
 10466      745F7465 
 10466      73745F72 
 10466      6573706F 
 10466      6E736500 
 10467              	.LASF175:
 10468 097f 636F7379 		.ascii	"cosy_val\000"
 10468      5F76616C 
 10468      00
 10469              	.LASF205:
 10470 0988 616C7430 		.ascii	"alt0_be\000"
 10470      5F626500 
 10471              	.LASF229:
 10472 0990 64696167 		.ascii	"diag_active\000"
 10472      5F616374 
 10472      69766500 
 10473              	.LASF27:
 10474 099c 72656738 		.ascii	"reg8\000"
 10474      00
 10475              	.LASF217:
 10476 09a1 62615F72 		.ascii	"ba_r\000"
 10476      00
 10477              	.LASF57:
 10478 09a6 74696C74 		.ascii	"tilt\000"
 10478      00
 10479              	.LASF86:
 10480 09ab 6770735F 		.ascii	"gps_raw_hdg\000"
 10480      7261775F 
 10480      68646700 
 10481              	.LASF3:
 10482 09b7 5F5F696E 		.ascii	"__int16_t\000"
 10482      7431365F 
 10482      7400
ARM GAS  C:\Users\JENNEW~1\AppData\Local\Temp\ccHH9OS0.s 			page 225


 10483              	.LASF239:
 10484 09c1 63757272 		.ascii	"current_pin_state\000"
 10484      656E745F 
 10484      70696E5F 
 10484      73746174 
 10484      6500
 10485              	.LASF50:
 10486 09d3 6D6F7669 		.ascii	"movi_hal_t\000"
 10486      5F68616C 
 10486      5F7400
 10487              	.LASF112:
 10488 09de 73797373 		.ascii	"sysstat_cam_status\000"
 10488      7461745F 
 10488      63616D5F 
 10488      73746174 
 10488      757300
 10489              	.LASF153:
 10490 09f1 6170705F 		.ascii	"app_mode_t\000"
 10490      6D6F6465 
 10490      5F7400
 10491              	.LASF251:
 10492 09fc 6C725F66 		.ascii	"lr_f\000"
 10492      00
 10493              	.LASF250:
 10494 0a01 6C725F69 		.ascii	"lr_i\000"
 10494      00
 10495              	.LASF138:
 10496 0a06 64726F70 		.ascii	"drops\000"
 10496      7300
 10497              	.LASF248:
 10498 0a0c 6C725F73 		.ascii	"lr_s\000"
 10498      00
 10499              	.LASF143:
 10500 0a11 74657374 		.ascii	"test_sent_ms\000"
 10500      5F73656E 
 10500      745F6D73 
 10500      00
 10501              	.LASF191:
 10502 0a1e 706C656E 		.ascii	"plen\000"
 10502      00
 10503              	.LASF242:
 10504 0a23 785F6D76 		.ascii	"x_mv\000"
 10504      00
 10505              	.LASF56:
 10506 0a28 66665F61 		.ascii	"ff_api_control_type_e\000"
 10506      70695F63 
 10506      6F6E7472 
 10506      6F6C5F74 
 10506      7970655F 
 10507              	.LASF60:
 10508 0a3e 74696C74 		.ascii	"tilt_mode\000"
 10508      5F6D6F64 
 10508      6500
 10509              	.LASF148:
 10510 0a48 74657374 		.ascii	"test_rx_payload_len\000"
 10510      5F72785F 
 10510      7061796C 
ARM GAS  C:\Users\JENNEW~1\AppData\Local\Temp\ccHH9OS0.s 			page 226


 10510      6F61645F 
 10510      6C656E00 
 10511              	.LASF168:
 10512 0a5c 726F6C6C 		.ascii	"roll_f\000"
 10512      5F6600
 10513              	.LASF167:
 10514 0a63 726F6C6C 		.ascii	"roll_i\000"
 10514      5F6900
 10515              	.LASF166:
 10516 0a6a 726F6C6C 		.ascii	"roll_s\000"
 10516      5F7300
 10517              	.LASF253:
 10518 0a71 75645F66 		.ascii	"ud_f\000"
 10518      00
 10519              	.LASF19:
 10520 0a76 75696E74 		.ascii	"uint8\000"
 10520      3800
 10521              	.LASF249:
 10522 0a7c 75645F73 		.ascii	"ud_s\000"
 10522      00
 10523              	.LASF170:
 10524 0a81 636F7372 		.ascii	"cosr_val\000"
 10524      5F76616C 
 10524      00
 10525              	.LASF169:
 10526 0a8a 73696E72 		.ascii	"sinr_val\000"
 10526      5F76616C 
 10526      00
 10527              	.LASF4:
 10528 0a93 73686F72 		.ascii	"short int\000"
 10528      7420696E 
 10528      7400
 10529              	.LASF181:
 10530 0a9d 6D6F6465 		.ascii	"mode\000"
 10530      00
 10531              	.LASF150:
 10532 0aa2 4150505F 		.ascii	"APP_MODE_STANDBY\000"
 10532      4D4F4445 
 10532      5F535441 
 10532      4E444259 
 10532      00
 10533              	.LASF15:
 10534 0ab3 696E7431 		.ascii	"int16_t\000"
 10534      365F7400 
 10535              	.LASF159:
 10536 0abb 636F6D70 		.ascii	"compute_euler_ints\000"
 10536      7574655F 
 10536      65756C65 
 10536      725F696E 
 10536      747300
 10537              	.LASF262:
 10538 0ace 4D4F5649 		.ascii	"MOVI_HAL\000"
 10538      5F48414C 
 10538      00
 10539              	.LASF125:
 10540 0ad7 6D61675F 		.ascii	"mag_declination\000"
 10540      6465636C 
ARM GAS  C:\Users\JENNEW~1\AppData\Local\Temp\ccHH9OS0.s 			page 227


 10540      696E6174 
 10540      696F6E00 
 10541              	.LASF141:
 10542 0ae7 73746174 		.ascii	"statistics\000"
 10542      69737469 
 10542      637300
 10543              	.LASF37:
 10544 0af2 76616C69 		.ascii	"valid\000"
 10544      6400
 10545              	.LASF90:
 10546 0af8 6261726F 		.ascii	"baro_valid\000"
 10546      5F76616C 
 10546      696400
 10547              	.LASF63:
 10548 0b03 6B696C6C 		.ascii	"kill\000"
 10548      00
 10549              	.LASF231:
 10550 0b08 6C617374 		.ascii	"last_diag_ms\000"
 10550      5F646961 
 10550      675F6D73 
 10550      00
 10551              	.LASF22:
 10552 0b15 696E7431 		.ascii	"int16\000"
 10552      3600
 10553              	.LASF139:
 10554 0b1b 6D6F7669 		.ascii	"movi_rb_t\000"
 10554      5F72625F 
 10554      7400
 10555              	.LASF147:
 10556 0b25 74657374 		.ascii	"test_rx_payload\000"
 10556      5F72785F 
 10556      7061796C 
 10556      6F616400 
 10557              	.LASF128:
 10558 0b35 74785F70 		.ascii	"tx_packets\000"
 10558      61636B65 
 10558      747300
 10559              	.LASF224:
 10560 0b40 6F7A5F72 		.ascii	"oz_r\000"
 10560      00
 10561              	.LASF199:
 10562 0b45 6864675F 		.ascii	"hdg_r\000"
 10562      7200
 10563              	.LASF18:
 10564 0b4b 75696E74 		.ascii	"uint32_t\000"
 10564      33325F74 
 10564      00
 10565              	.LASF203:
 10566 0b54 7072696E 		.ascii	"print_test_baro\000"
 10566      745F7465 
 10566      73745F62 
 10566      61726F00 
 10567              	.LASF146:
 10568 0b64 74657374 		.ascii	"test_rx_len\000"
 10568      5F72785F 
 10568      6C656E00 
 10569              	.LASF83:
ARM GAS  C:\Users\JENNEW~1\AppData\Local\Temp\ccHH9OS0.s 			page 228


 10570 0b70 6770735F 		.ascii	"gps_raw_lon\000"
 10570      7261775F 
 10570      6C6F6E00 
 10571              	.LASF65:
 10572 0b7c 62617474 		.ascii	"battery_left_v\000"
 10572      6572795F 
 10572      6C656674 
 10572      5F7600
 10573              	.LASF43:
 10574 0b8b 6A6F795F 		.ascii	"joy_cal_state_t\000"
 10574      63616C5F 
 10574      73746174 
 10574      655F7400 
 10575              	.LASF255:
 10576 0b9b 766C5F66 		.ascii	"vl_f\000"
 10576      00
 10577              	.LASF121:
 10578 0ba0 6D61675F 		.ascii	"mag_freq\000"
 10578      66726571 
 10578      00
 10579              	.LASF6:
 10580 0ba9 73686F72 		.ascii	"short unsigned int\000"
 10580      7420756E 
 10580      7369676E 
 10580      65642069 
 10580      6E7400
 10581              	.LASF58:
 10582 0bbc 726F6C6C 		.ascii	"roll\000"
 10582      00
 10583              	.LASF247:
 10584 0bc1 68725F70 		.ascii	"hr_part\000"
 10584      61727400 
 10585              	.LASF23:
 10586 0bc9 696E7433 		.ascii	"int32\000"
 10586      3200
 10587              	.LASF34:
 10588 0bcf 6D696E76 		.ascii	"minv\000"
 10588      00
 10589              	.LASF7:
 10590 0bd4 5F5F696E 		.ascii	"__int32_t\000"
 10590      7433325F 
 10590      7400
 10591              	.LASF107:
 10592 0bde 73797373 		.ascii	"sysstat_cpu_pct\000"
 10592      7461745F 
 10592      6370755F 
 10592      70637400 
 10593              	.LASF45:
 10594 0bee 4D4F5649 		.ascii	"MOVI_OK\000"
 10594      5F4F4B00 
 10595              	.LASF39:
 10596 0bf6 4A4F595F 		.ascii	"JOY_CAL_OFF\000"
 10596      43414C5F 
 10596      4F464600 
 10597              	.LASF91:
 10598 0c02 6261726F 		.ascii	"baro_alt_m\000"
 10598      5F616C74 
ARM GAS  C:\Users\JENNEW~1\AppData\Local\Temp\ccHH9OS0.s 			page 229


 10598      5F6D00
 10599              	.LASF198:
 10600 0c0d 7370645F 		.ascii	"spd_r\000"
 10600      7200
 10601              	.LASF190:
 10602 0c13 72786C65 		.ascii	"rxlen\000"
 10602      6E00
 10603              	.LASF75:
 10604 0c19 6770735F 		.ascii	"gps_lon_deg\000"
 10604      6C6F6E5F 
 10604      64656700 
 10605              	.LASF178:
 10606 0c25 70726576 		.ascii	"prev\000"
 10606      00
 10607              	.LASF20:
 10608 0c2a 75696E74 		.ascii	"uint16\000"
 10608      313600
 10609              	.LASF192:
 10610 0c31 7072696E 		.ascii	"print_test_gps\000"
 10610      745F7465 
 10610      73745F67 
 10610      707300
 10611              	.LASF144:
 10612 0c40 74657374 		.ascii	"test_response_ready\000"
 10612      5F726573 
 10612      706F6E73 
 10612      655F7265 
 10612      61647900 
 10613              		.ident	"GCC: (GNU Tools for ARM Embedded Processors) 5.4.1 20160609 (release) [ARM/embedded-5-bran
