ARM GAS  C:\Users\JENNEW~1\AppData\Local\Temp\ccHH9OS0.s 			page 1


   1              		.syntax unified
   2              		.cpu cortex-m3
   3              		.fpu softvfp
   4              		.eabi_attribute 20, 1
   5              		.eabi_attribute 21, 1
   6              		.eabi_attribute 23, 3
   7              		.eabi_attribute 24, 1
   8              		.eabi_attribute 25, 1
   9              		.eabi_attribute 26, 1
  10              		.eabi_attribute 30, 6
  11              		.eabi_attribute 34, 1
  12              		.eabi_attribute 18, 4
  13              		.thumb
  14              		.syntax unified
  15              		.file	"main.c"
  16              		.text
  17              	.Ltext0:
  18              		.cfi_sections	.debug_frame
  19              		.bss
  20              		.align	2
  21              	g_movi:
  22 0000 00000000 		.space	576
  22      00000000 
  22      00000000 
  22      00000000 
  22      00000000 
  23              		.section	.text.movi_uart_putc,"ax",%progbits
  24              		.align	2
  25              		.thumb
  26              		.thumb_func
  27              		.type	movi_uart_putc, %function
  28              	movi_uart_putc:
  29              	.LFB64:
  30              		.file 1 "main.c"
   1:main.c        **** /* main.c
   2:main.c        ****  * Author: Hamish Johnson
   3:main.c        ****  * Org: Quantum Internet Systems Lab, SFU, Physics
   4:main.c        ****  * Date: March 2026
   5:main.c        ****  *
   6:main.c        ****  * Uses:
   7:main.c        ****  *  - adc_balanced.c/.h  : round-robin ADC sampling over AMux (N_CH channels)
   8:main.c        ****  *  - joystick.c/.h      : calibration + mapping (deadband, inversion, scaling)
   9:main.c        ****  *  - movi_comm.c/.h     : MōVI Pro QX protocol HAL
  10:main.c        ****  *
  11:main.c        ****  * Application modes (app_mode):
  12:main.c        ****  *   STANDBY      : passive — pump() runs, diag prints [Status] at 1 Hz if valid
  13:main.c        ****  *   MOVI_CONTROL : sends QX277 at 10 Hz, 1 Hz diag w/ [Serial][Status][Joystick]
  14:main.c        ****  *   MOVI_TEST    : one-shot query mode — sends single attr read, prints verbose
  15:main.c        ****  *                  response or 2-second timeout.  No periodic TX or diag block.
  16:main.c        ****  *
  17:main.c        ****  * CLI keys — STANDBY / MOVI_CONTROL:
  18:main.c        ****  *   m : toggle STANDBY <-> MOVI_CONTROL
  19:main.c        ****  *   j : toggle joystick active (feeds pan/tilt commands)
  20:main.c        ****  *   l : cycle control mode DEFER -> RATE -> ABSOLUTE -> DEFER
  21:main.c        ****  *   k : kill motion, return to STANDBY, keep printing
  22:main.c        ****  *   x : kill motion, return to STANDBY, stop printing
  23:main.c        ****  *   s : toggle raw ADC stream
ARM GAS  C:\Users\JENNEW~1\AppData\Local\Temp\ccHH9OS0.s 			page 2


  24:main.c        ****  *   c : calibration advance
  25:main.c        ****  *   t : enter MOVI_TEST mode (from STANDBY only)
  26:main.c        ****  *
  27:main.c        ****  * CLI keys — MOVI_TEST:
  28:main.c        ****  *   a : request attr 22  — gimbal attitude (euler: roll/pitch/yaw + errors + rates)
  29:main.c        ****  *   g : request attr  4  — GPS (lat/lon/alt/speed/heading/accuracy)
  30:main.c        ****  *   b : request attr  3  — baro altitude + rate of climb
  31:main.c        ****  *   s : request attr  1  — system status (battery, sats, temp, CPU, pressure)
  32:main.c        ****  *   n : request attr 12  — magnetometer (XYZ, magnitude, freq, offsets, declination)
  33:main.c        ****  *   t : exit MOVI_TEST, return to STANDBY
  34:main.c        ****  *   k/x : kill + exit to STANDBY
  35:main.c        ****  */
  36:main.c        **** 
  37:main.c        **** #include <project.h>
  38:main.c        **** #include <stdio.h>
  39:main.c        **** #include <math.h>
  40:main.c        **** 
  41:main.c        **** #include "adc_balanced.h"
  42:main.c        **** #include "joystick.h"
  43:main.c        **** #include "movi_comm.h"
  44:main.c        **** 
  45:main.c        **** /* =========================================================================
  46:main.c        ****  * Constants
  47:main.c        ****  * ========================================================================= */
  48:main.c        **** #define TRANSMIT_BUFFER_SIZE  160u
  49:main.c        **** #define MOVI_TX_PERIOD_MS     100u   /* 10 Hz control TX                     */
  50:main.c        **** #define DIAG_PERIOD_MS        1000u  /* 1 Hz diagnostic print (MOVI_CONTROL) */
  51:main.c        **** #define TEST_TIMEOUT_MS       2000u  /* test mode: max wait for response      */
  52:main.c        **** 
  53:main.c        **** #define FALSE  0
  54:main.c        **** #define TRUE   1
  55:main.c        **** 
  56:main.c        **** #define CH_X (0u)  /* pan  */
  57:main.c        **** #define CH_Y (1u)  /* tilt */
  58:main.c        **** 
  59:main.c        **** /* =========================================================================
  60:main.c        ****  * App mode state machine
  61:main.c        ****  * ========================================================================= */
  62:main.c        **** typedef enum {
  63:main.c        ****     APP_MODE_STANDBY      = 0,
  64:main.c        ****     APP_MODE_MOVI_CONTROL = 1,
  65:main.c        ****     APP_MODE_MOVI_TEST    = 2,
  66:main.c        **** } app_mode_t;
  67:main.c        **** 
  68:main.c        **** 
  69:main.c        **** 
  70:main.c        **** /* =========================================================================
  71:main.c        ****  * Hardware / globals
  72:main.c        ****  * ========================================================================= */
  73:main.c        **** static movi_comm_t g_movi;
  74:main.c        **** 
  75:main.c        **** static void movi_uart_putc(void* ctx, uint8_t b)
  76:main.c        **** {
  31              		.loc 1 76 0
  32              		.cfi_startproc
  33              		@ args = 0, pretend = 0, frame = 8
  34              		@ frame_needed = 1, uses_anonymous_args = 0
ARM GAS  C:\Users\JENNEW~1\AppData\Local\Temp\ccHH9OS0.s 			page 3


  35 0000 80B5     		push	{r7, lr}
  36              		.cfi_def_cfa_offset 8
  37              		.cfi_offset 7, -8
  38              		.cfi_offset 14, -4
  39 0002 82B0     		sub	sp, sp, #8
  40              		.cfi_def_cfa_offset 16
  41 0004 00AF     		add	r7, sp, #0
  42              		.cfi_def_cfa_register 7
  43 0006 7860     		str	r0, [r7, #4]
  44 0008 0B46     		mov	r3, r1
  45 000a FB70     		strb	r3, [r7, #3]
  77:main.c        ****     (void)ctx;
  78:main.c        ****     UART_MOVI_PutChar((char)b);
  46              		.loc 1 78 0
  47 000c FB78     		ldrb	r3, [r7, #3]	@ zero_extendqisi2
  48 000e 1846     		mov	r0, r3
  49 0010 FFF7FEFF 		bl	UART_MOVI_PutChar
  79:main.c        **** }
  50              		.loc 1 79 0
  51 0014 00BF     		nop
  52 0016 0837     		adds	r7, r7, #8
  53              		.cfi_def_cfa_offset 8
  54 0018 BD46     		mov	sp, r7
  55              		.cfi_def_cfa_register 13
  56              		@ sp needed
  57 001a 80BD     		pop	{r7, pc}
  58              		.cfi_endproc
  59              	.LFE64:
  60              		.size	movi_uart_putc, .-movi_uart_putc
  61              		.section	.rodata
  62              		.align	2
  63              		.type	MOVI_HAL, %object
  64              		.size	MOVI_HAL, 8
  65              	MOVI_HAL:
  66 0000 00000000 		.word	0
  67 0004 00000000 		.word	movi_uart_putc
  68              		.global	g_tick_ms
  69              		.bss
  70              		.align	2
  71              		.type	g_tick_ms, %object
  72              		.size	g_tick_ms, 4
  73              	g_tick_ms:
  74 0240 00000000 		.space	4
  75              		.section	.text.isr_rx_movi_Handler,"ax",%progbits
  76              		.align	2
  77              		.global	isr_rx_movi_Handler
  78              		.thumb
  79              		.thumb_func
  80              		.type	isr_rx_movi_Handler, %function
  81              	isr_rx_movi_Handler:
  82              	.LFB65:
  80:main.c        **** 
  81:main.c        **** static const movi_hal_t MOVI_HAL = {
  82:main.c        ****     .ctx       = NULL,
  83:main.c        ****     .uart_putc = movi_uart_putc
  84:main.c        **** };
  85:main.c        **** 
ARM GAS  C:\Users\JENNEW~1\AppData\Local\Temp\ccHH9OS0.s 			page 4


  86:main.c        **** volatile uint32 g_tick_ms = 0u;
  87:main.c        **** 
  88:main.c        **** CY_ISR(isr_rx_movi_Handler)
  89:main.c        **** {
  83              		.loc 1 89 0
  84              		.cfi_startproc
  85              		@ args = 0, pretend = 0, frame = 8
  86              		@ frame_needed = 1, uses_anonymous_args = 0
  87 0000 80B5     		push	{r7, lr}
  88              		.cfi_def_cfa_offset 8
  89              		.cfi_offset 7, -8
  90              		.cfi_offset 14, -4
  91 0002 82B0     		sub	sp, sp, #8
  92              		.cfi_def_cfa_offset 16
  93 0004 00AF     		add	r7, sp, #0
  94              		.cfi_def_cfa_register 7
  95              	.L5:
  90:main.c        ****     uint8 st;
  91:main.c        ****     do {
  92:main.c        ****         st = UART_MOVI_RXSTATUS_REG;
  96              		.loc 1 92 0
  97 0006 134B     		ldr	r3, .L6
  98 0008 1B78     		ldrb	r3, [r3]
  99 000a FB71     		strb	r3, [r7, #7]
  93:main.c        ****         if (st & (UART_MOVI_RX_STS_BREAK     |
 100              		.loc 1 93 0
 101 000c FB79     		ldrb	r3, [r7, #7]	@ zero_extendqisi2
 102 000e 03F01E03 		and	r3, r3, #30
 103 0012 002B     		cmp	r3, #0
 104 0014 07D0     		beq	.L3
  94:main.c        ****                   UART_MOVI_RX_STS_PAR_ERROR |
  95:main.c        ****                   UART_MOVI_RX_STS_STOP_ERROR|
  96:main.c        ****                   UART_MOVI_RX_STS_OVERRUN)) {
  97:main.c        ****             movi_comm_on_uart_error_flags(&g_movi,
 105              		.loc 1 97 0
 106 0016 FB79     		ldrb	r3, [r7, #7]
 107 0018 03F01E03 		and	r3, r3, #30
 108 001c DBB2     		uxtb	r3, r3
 109 001e 1946     		mov	r1, r3
 110 0020 0D48     		ldr	r0, .L6+4
 111 0022 FFF7FEFF 		bl	movi_comm_on_uart_error_flags
 112              	.L3:
  98:main.c        ****                 (uint8)(st & (UART_MOVI_RX_STS_BREAK     |
  99:main.c        ****                               UART_MOVI_RX_STS_PAR_ERROR |
 100:main.c        ****                               UART_MOVI_RX_STS_STOP_ERROR|
 101:main.c        ****                               UART_MOVI_RX_STS_OVERRUN)));
 102:main.c        ****         }
 103:main.c        ****         if (st & UART_MOVI_RX_STS_FIFO_NOTEMPTY) {
 113              		.loc 1 103 0
 114 0026 FB79     		ldrb	r3, [r7, #7]	@ zero_extendqisi2
 115 0028 03F02003 		and	r3, r3, #32
 116 002c 002B     		cmp	r3, #0
 117 002e 07D0     		beq	.L4
 118              	.LBB2:
 104:main.c        ****             uint8 b = UART_MOVI_RXDATA_REG;
 119              		.loc 1 104 0
 120 0030 0A4B     		ldr	r3, .L6+8
ARM GAS  C:\Users\JENNEW~1\AppData\Local\Temp\ccHH9OS0.s 			page 5


 121 0032 1B78     		ldrb	r3, [r3]
 122 0034 BB71     		strb	r3, [r7, #6]
 105:main.c        ****             movi_comm_on_rx_byte(&g_movi, b);
 123              		.loc 1 105 0
 124 0036 BB79     		ldrb	r3, [r7, #6]	@ zero_extendqisi2
 125 0038 1946     		mov	r1, r3
 126 003a 0748     		ldr	r0, .L6+4
 127 003c FFF7FEFF 		bl	movi_comm_on_rx_byte
 128              	.L4:
 129              	.LBE2:
 106:main.c        ****         }
 107:main.c        ****     } while (st & UART_MOVI_RX_STS_FIFO_NOTEMPTY);
 130              		.loc 1 107 0
 131 0040 FB79     		ldrb	r3, [r7, #7]	@ zero_extendqisi2
 132 0042 03F02003 		and	r3, r3, #32
 133 0046 002B     		cmp	r3, #0
 134 0048 DDD1     		bne	.L5
 108:main.c        **** }
 135              		.loc 1 108 0
 136 004a 00BF     		nop
 137 004c 0837     		adds	r7, r7, #8
 138              		.cfi_def_cfa_offset 8
 139 004e BD46     		mov	sp, r7
 140              		.cfi_def_cfa_register 13
 141              		@ sp needed
 142 0050 80BD     		pop	{r7, pc}
 143              	.L7:
 144 0052 00BF     		.align	2
 145              	.L6:
 146 0054 69640040 		.word	1073767529
 147 0058 00000000 		.word	g_movi
 148 005c 49640040 		.word	1073767497
 149              		.cfi_endproc
 150              	.LFE65:
 151              		.size	isr_rx_movi_Handler, .-isr_rx_movi_Handler
 152              		.section	.text.isr_Looptimer_Handler,"ax",%progbits
 153              		.align	2
 154              		.global	isr_Looptimer_Handler
 155              		.thumb
 156              		.thumb_func
 157              		.type	isr_Looptimer_Handler, %function
 158              	isr_Looptimer_Handler:
 159              	.LFB66:
 109:main.c        **** 
 110:main.c        **** CY_ISR(isr_Looptimer_Handler)
 111:main.c        **** {
 160              		.loc 1 111 0
 161              		.cfi_startproc
 162              		@ args = 0, pretend = 0, frame = 0
 163              		@ frame_needed = 1, uses_anonymous_args = 0
 164 0000 80B5     		push	{r7, lr}
 165              		.cfi_def_cfa_offset 8
 166              		.cfi_offset 7, -8
 167              		.cfi_offset 14, -4
 168 0002 00AF     		add	r7, sp, #0
 169              		.cfi_def_cfa_register 7
 112:main.c        ****     g_tick_ms++;
ARM GAS  C:\Users\JENNEW~1\AppData\Local\Temp\ccHH9OS0.s 			page 6


 170              		.loc 1 112 0
 171 0004 044B     		ldr	r3, .L9
 172 0006 1B68     		ldr	r3, [r3]
 173 0008 0133     		adds	r3, r3, #1
 174 000a 034A     		ldr	r2, .L9
 175 000c 1360     		str	r3, [r2]
 113:main.c        ****     Looptimer_ReadStatusRegister();
 176              		.loc 1 113 0
 177 000e FFF7FEFF 		bl	Looptimer_ReadStatusRegister
 114:main.c        **** }
 178              		.loc 1 114 0
 179 0012 00BF     		nop
 180 0014 80BD     		pop	{r7, pc}
 181              	.L10:
 182 0016 00BF     		.align	2
 183              	.L9:
 184 0018 00000000 		.word	g_tick_ms
 185              		.cfi_endproc
 186              	.LFE66:
 187              		.size	isr_Looptimer_Handler, .-isr_Looptimer_Handler
 188              		.global	__aeabi_fcmplt
 189              		.global	__aeabi_f2iz
 190              		.global	__aeabi_i2f
 191              		.global	__aeabi_fsub
 192              		.global	__aeabi_fmul
 193              		.section	.text.decomp,"ax",%progbits
 194              		.align	2
 195              		.thumb
 196              		.thumb_func
 197              		.type	decomp, %function
 198              	decomp:
 199              	.LFB67:
 115:main.c        **** 
 116:main.c        **** /* =========================================================================
 117:main.c        ****  * Helpers
 118:main.c        ****  * ========================================================================= */
 119:main.c        **** 
 120:main.c        **** /* Decompose signed float to sign char + integer + 2-decimal fraction. */
 121:main.c        **** static void decomp(float val, int16* i_out, int16* f_out, char* sign_out)
 122:main.c        **** {
 200              		.loc 1 122 0
 201              		.cfi_startproc
 202              		@ args = 0, pretend = 0, frame = 16
 203              		@ frame_needed = 1, uses_anonymous_args = 0
 204 0000 80B5     		push	{r7, lr}
 205              		.cfi_def_cfa_offset 8
 206              		.cfi_offset 7, -8
 207              		.cfi_offset 14, -4
 208 0002 84B0     		sub	sp, sp, #16
 209              		.cfi_def_cfa_offset 24
 210 0004 00AF     		add	r7, sp, #0
 211              		.cfi_def_cfa_register 7
 212 0006 F860     		str	r0, [r7, #12]	@ float
 213 0008 B960     		str	r1, [r7, #8]
 214 000a 7A60     		str	r2, [r7, #4]
 215 000c 3B60     		str	r3, [r7]
 123:main.c        ****     *sign_out = (val < 0.0f) ? '-' : ' ';
ARM GAS  C:\Users\JENNEW~1\AppData\Local\Temp\ccHH9OS0.s 			page 7


 216              		.loc 1 123 0
 217 000e 4FF00001 		mov	r1, #0
 218 0012 F868     		ldr	r0, [r7, #12]	@ float
 219 0014 FFF7FEFF 		bl	__aeabi_fcmplt
 220 0018 0346     		mov	r3, r0
 221 001a 002B     		cmp	r3, #0
 222 001c 01D0     		beq	.L20
 223              		.loc 1 123 0 is_stmt 0 discriminator 1
 224 001e 2D22     		movs	r2, #45
 225 0020 00E0     		b	.L14
 226              	.L20:
 227              		.loc 1 123 0 discriminator 2
 228 0022 2022     		movs	r2, #32
 229              	.L14:
 230              		.loc 1 123 0 discriminator 4
 231 0024 3B68     		ldr	r3, [r7]
 232 0026 1A70     		strb	r2, [r3]
 124:main.c        ****     if (val < 0.0f) val = -val;
 233              		.loc 1 124 0 is_stmt 1 discriminator 4
 234 0028 4FF00001 		mov	r1, #0
 235 002c F868     		ldr	r0, [r7, #12]	@ float
 236 002e FFF7FEFF 		bl	__aeabi_fcmplt
 237 0032 0346     		mov	r3, r0
 238 0034 002B     		cmp	r3, #0
 239 0036 03D0     		beq	.L15
 240              		.loc 1 124 0 is_stmt 0 discriminator 1
 241 0038 FB68     		ldr	r3, [r7, #12]
 242 003a 83F00043 		eor	r3, r3, #-2147483648
 243 003e FB60     		str	r3, [r7, #12]	@ float
 244              	.L15:
 125:main.c        ****     *i_out = (int16)val;
 245              		.loc 1 125 0 is_stmt 1
 246 0040 F868     		ldr	r0, [r7, #12]	@ float
 247 0042 FFF7FEFF 		bl	__aeabi_f2iz
 248 0046 0346     		mov	r3, r0
 249 0048 1AB2     		sxth	r2, r3
 250 004a BB68     		ldr	r3, [r7, #8]
 251 004c 1A80     		strh	r2, [r3]	@ movhi
 126:main.c        ****     *f_out = (int16)((val - (float)*i_out) * 100.0f);
 252              		.loc 1 126 0
 253 004e BB68     		ldr	r3, [r7, #8]
 254 0050 B3F90030 		ldrsh	r3, [r3]
 255 0054 1846     		mov	r0, r3
 256 0056 FFF7FEFF 		bl	__aeabi_i2f
 257 005a 0346     		mov	r3, r0
 258 005c 1946     		mov	r1, r3
 259 005e F868     		ldr	r0, [r7, #12]	@ float
 260 0060 FFF7FEFF 		bl	__aeabi_fsub
 261 0064 0346     		mov	r3, r0
 262 0066 0F49     		ldr	r1, .L22
 263 0068 1846     		mov	r0, r3
 264 006a FFF7FEFF 		bl	__aeabi_fmul
 265 006e 0346     		mov	r3, r0
 266 0070 1846     		mov	r0, r3
 267 0072 FFF7FEFF 		bl	__aeabi_f2iz
 268 0076 0346     		mov	r3, r0
 269 0078 1AB2     		sxth	r2, r3
ARM GAS  C:\Users\JENNEW~1\AppData\Local\Temp\ccHH9OS0.s 			page 8


 270 007a 7B68     		ldr	r3, [r7, #4]
 271 007c 1A80     		strh	r2, [r3]	@ movhi
 127:main.c        ****     if (*f_out < 0) *f_out = -*f_out;
 272              		.loc 1 127 0
 273 007e 7B68     		ldr	r3, [r7, #4]
 274 0080 B3F90030 		ldrsh	r3, [r3]
 275 0084 002B     		cmp	r3, #0
 276 0086 08DA     		bge	.L21
 277              		.loc 1 127 0 is_stmt 0 discriminator 1
 278 0088 7B68     		ldr	r3, [r7, #4]
 279 008a B3F90030 		ldrsh	r3, [r3]
 280 008e 9BB2     		uxth	r3, r3
 281 0090 5B42     		negs	r3, r3
 282 0092 9BB2     		uxth	r3, r3
 283 0094 1AB2     		sxth	r2, r3
 284 0096 7B68     		ldr	r3, [r7, #4]
 285 0098 1A80     		strh	r2, [r3]	@ movhi
 286              	.L21:
 128:main.c        **** }
 287              		.loc 1 128 0 is_stmt 1
 288 009a 00BF     		nop
 289 009c 1037     		adds	r7, r7, #16
 290              		.cfi_def_cfa_offset 8
 291 009e BD46     		mov	sp, r7
 292              		.cfi_def_cfa_register 13
 293              		@ sp needed
 294 00a0 80BD     		pop	{r7, pc}
 295              	.L23:
 296 00a2 00BF     		.align	2
 297              	.L22:
 298 00a4 0000C842 		.word	1120403456
 299              		.cfi_endproc
 300              	.LFE67:
 301              		.size	decomp, .-decomp
 302              		.global	__aeabi_fadd
 303              		.global	__aeabi_fcmpge
 304              		.global	__aeabi_fcmple
 305              		.section	.text.compute_euler_ints,"ax",%progbits
 306              		.align	2
 307              		.thumb
 308              		.thumb_func
 309              		.type	compute_euler_ints, %function
 310              	compute_euler_ints:
 311              	.LFB68:
 129:main.c        **** 
 130:main.c        **** static void compute_euler_ints(const movi_status_t* st,
 131:main.c        ****                                 char* pan_s,  int16* pan_i,  int16* pan_f,
 132:main.c        ****                                 char* tilt_s, int16* tilt_i, int16* tilt_f,
 133:main.c        ****                                 char* roll_s, int16* roll_i, int16* roll_f)
 134:main.c        **** {
 312              		.loc 1 134 0
 313              		.cfi_startproc
 314              		@ args = 24, pretend = 0, frame = 64
 315              		@ frame_needed = 1, uses_anonymous_args = 0
 316 0000 90B5     		push	{r4, r7, lr}
 317              		.cfi_def_cfa_offset 12
 318              		.cfi_offset 4, -12
ARM GAS  C:\Users\JENNEW~1\AppData\Local\Temp\ccHH9OS0.s 			page 9


 319              		.cfi_offset 7, -8
 320              		.cfi_offset 14, -4
 321 0002 91B0     		sub	sp, sp, #68
 322              		.cfi_def_cfa_offset 80
 323 0004 00AF     		add	r7, sp, #0
 324              		.cfi_def_cfa_register 7
 325 0006 F860     		str	r0, [r7, #12]
 326 0008 B960     		str	r1, [r7, #8]
 327 000a 7A60     		str	r2, [r7, #4]
 328 000c 3B60     		str	r3, [r7]
 135:main.c        ****     float r  = st->gimbal_r;
 329              		.loc 1 135 0
 330 000e FB68     		ldr	r3, [r7, #12]
 331 0010 DB68     		ldr	r3, [r3, #12]	@ float
 332 0012 FB63     		str	r3, [r7, #60]	@ float
 136:main.c        ****     float ii = st->gimbal_i;
 333              		.loc 1 136 0
 334 0014 FB68     		ldr	r3, [r7, #12]
 335 0016 1B69     		ldr	r3, [r3, #16]	@ float
 336 0018 BB63     		str	r3, [r7, #56]	@ float
 137:main.c        ****     float j  = st->gimbal_j;
 337              		.loc 1 137 0
 338 001a FB68     		ldr	r3, [r7, #12]
 339 001c 5B69     		ldr	r3, [r3, #20]	@ float
 340 001e 7B63     		str	r3, [r7, #52]	@ float
 138:main.c        ****     float k  = st->gimbal_k;
 341              		.loc 1 138 0
 342 0020 FB68     		ldr	r3, [r7, #12]
 343 0022 9B69     		ldr	r3, [r3, #24]	@ float
 344 0024 3B63     		str	r3, [r7, #48]	@ float
 139:main.c        **** 
 140:main.c        ****     float sinr_val = 2.0f * (r*ii + j*k);
 345              		.loc 1 140 0
 346 0026 B96B     		ldr	r1, [r7, #56]	@ float
 347 0028 F86B     		ldr	r0, [r7, #60]	@ float
 348 002a FFF7FEFF 		bl	__aeabi_fmul
 349 002e 0346     		mov	r3, r0
 350 0030 1C46     		mov	r4, r3
 351 0032 396B     		ldr	r1, [r7, #48]	@ float
 352 0034 786B     		ldr	r0, [r7, #52]	@ float
 353 0036 FFF7FEFF 		bl	__aeabi_fmul
 354 003a 0346     		mov	r3, r0
 355 003c 1946     		mov	r1, r3
 356 003e 2046     		mov	r0, r4
 357 0040 FFF7FEFF 		bl	__aeabi_fadd
 358 0044 0346     		mov	r3, r0
 359 0046 1946     		mov	r1, r3
 360 0048 1846     		mov	r0, r3
 361 004a FFF7FEFF 		bl	__aeabi_fadd
 362 004e 0346     		mov	r3, r0
 363 0050 FB62     		str	r3, [r7, #44]	@ float
 141:main.c        ****     float cosr_val = 1.0f - 2.0f * (ii*ii + j*j);
 364              		.loc 1 141 0
 365 0052 B96B     		ldr	r1, [r7, #56]	@ float
 366 0054 B86B     		ldr	r0, [r7, #56]	@ float
 367 0056 FFF7FEFF 		bl	__aeabi_fmul
 368 005a 0346     		mov	r3, r0
ARM GAS  C:\Users\JENNEW~1\AppData\Local\Temp\ccHH9OS0.s 			page 10


 369 005c 1C46     		mov	r4, r3
 370 005e 796B     		ldr	r1, [r7, #52]	@ float
 371 0060 786B     		ldr	r0, [r7, #52]	@ float
 372 0062 FFF7FEFF 		bl	__aeabi_fmul
 373 0066 0346     		mov	r3, r0
 374 0068 1946     		mov	r1, r3
 375 006a 2046     		mov	r0, r4
 376 006c FFF7FEFF 		bl	__aeabi_fadd
 377 0070 0346     		mov	r3, r0
 378 0072 1946     		mov	r1, r3
 379 0074 1846     		mov	r0, r3
 380 0076 FFF7FEFF 		bl	__aeabi_fadd
 381 007a 0346     		mov	r3, r0
 382 007c 1946     		mov	r1, r3
 383 007e 4FF07E50 		mov	r0, #1065353216
 384 0082 FFF7FEFF 		bl	__aeabi_fsub
 385 0086 0346     		mov	r3, r0
 386 0088 BB62     		str	r3, [r7, #40]	@ float
 142:main.c        ****     float roll_deg = atan2f(sinr_val, cosr_val) * 57.2958f;
 387              		.loc 1 142 0
 388 008a B96A     		ldr	r1, [r7, #40]	@ float
 389 008c F86A     		ldr	r0, [r7, #44]	@ float
 390 008e FFF7FEFF 		bl	atan2f
 391 0092 0346     		mov	r3, r0
 392 0094 4549     		ldr	r1, .L35
 393 0096 1846     		mov	r0, r3
 394 0098 FFF7FEFF 		bl	__aeabi_fmul
 395 009c 0346     		mov	r3, r0
 396 009e 7B62     		str	r3, [r7, #36]	@ float
 143:main.c        **** 
 144:main.c        ****     float sinp = 2.0f * (r*j - k*ii);
 397              		.loc 1 144 0
 398 00a0 796B     		ldr	r1, [r7, #52]	@ float
 399 00a2 F86B     		ldr	r0, [r7, #60]	@ float
 400 00a4 FFF7FEFF 		bl	__aeabi_fmul
 401 00a8 0346     		mov	r3, r0
 402 00aa 1C46     		mov	r4, r3
 403 00ac B96B     		ldr	r1, [r7, #56]	@ float
 404 00ae 386B     		ldr	r0, [r7, #48]	@ float
 405 00b0 FFF7FEFF 		bl	__aeabi_fmul
 406 00b4 0346     		mov	r3, r0
 407 00b6 1946     		mov	r1, r3
 408 00b8 2046     		mov	r0, r4
 409 00ba FFF7FEFF 		bl	__aeabi_fsub
 410 00be 0346     		mov	r3, r0
 411 00c0 1946     		mov	r1, r3
 412 00c2 1846     		mov	r0, r3
 413 00c4 FFF7FEFF 		bl	__aeabi_fadd
 414 00c8 0346     		mov	r3, r0
 415 00ca 3B62     		str	r3, [r7, #32]	@ float
 145:main.c        ****     float tilt_deg = (sinp >=  1.0f) ?  90.0f :
 416              		.loc 1 145 0
 417 00cc 4FF07E51 		mov	r1, #1065353216
 418 00d0 386A     		ldr	r0, [r7, #32]	@ float
 419 00d2 FFF7FEFF 		bl	__aeabi_fcmpge
 420 00d6 0346     		mov	r3, r0
 421 00d8 002B     		cmp	r3, #0
ARM GAS  C:\Users\JENNEW~1\AppData\Local\Temp\ccHH9OS0.s 			page 11


 422 00da 01D0     		beq	.L33
 423              		.loc 1 145 0 is_stmt 0 discriminator 1
 424 00dc 344B     		ldr	r3, .L35+4
 425 00de 11E0     		b	.L27
 426              	.L33:
 146:main.c        ****                      (sinp <= -1.0f) ? -90.0f :
 427              		.loc 1 146 0 is_stmt 1
 428 00e0 3449     		ldr	r1, .L35+8
 429 00e2 386A     		ldr	r0, [r7, #32]	@ float
 430 00e4 FFF7FEFF 		bl	__aeabi_fcmple
 431 00e8 0346     		mov	r3, r0
 432 00ea 002B     		cmp	r3, #0
 433 00ec 01D0     		beq	.L34
 434              		.loc 1 146 0 is_stmt 0 discriminator 1
 435 00ee 324B     		ldr	r3, .L35+12
 436 00f0 08E0     		b	.L27
 437              	.L34:
 147:main.c        ****                      asinf(sinp) * 57.2958f;
 438              		.loc 1 147 0 is_stmt 1 discriminator 2
 439 00f2 386A     		ldr	r0, [r7, #32]	@ float
 440 00f4 FFF7FEFF 		bl	asinf
 441 00f8 0346     		mov	r3, r0
 146:main.c        ****                      (sinp <= -1.0f) ? -90.0f :
 442              		.loc 1 146 0 discriminator 2
 443 00fa 2C49     		ldr	r1, .L35
 444 00fc 1846     		mov	r0, r3
 445 00fe FFF7FEFF 		bl	__aeabi_fmul
 446 0102 0346     		mov	r3, r0
 447              	.L27:
 145:main.c        ****     float tilt_deg = (sinp >=  1.0f) ?  90.0f :
 448              		.loc 1 145 0 discriminator 2
 449 0104 FB61     		str	r3, [r7, #28]	@ float
 148:main.c        **** 
 149:main.c        ****     float siny_val = 2.0f * (r*k + ii*j);
 450              		.loc 1 149 0 discriminator 2
 451 0106 396B     		ldr	r1, [r7, #48]	@ float
 452 0108 F86B     		ldr	r0, [r7, #60]	@ float
 453 010a FFF7FEFF 		bl	__aeabi_fmul
 454 010e 0346     		mov	r3, r0
 455 0110 1C46     		mov	r4, r3
 456 0112 796B     		ldr	r1, [r7, #52]	@ float
 457 0114 B86B     		ldr	r0, [r7, #56]	@ float
 458 0116 FFF7FEFF 		bl	__aeabi_fmul
 459 011a 0346     		mov	r3, r0
 460 011c 1946     		mov	r1, r3
 461 011e 2046     		mov	r0, r4
 462 0120 FFF7FEFF 		bl	__aeabi_fadd
 463 0124 0346     		mov	r3, r0
 464 0126 1946     		mov	r1, r3
 465 0128 1846     		mov	r0, r3
 466 012a FFF7FEFF 		bl	__aeabi_fadd
 467 012e 0346     		mov	r3, r0
 468 0130 BB61     		str	r3, [r7, #24]	@ float
 150:main.c        ****     float cosy_val = 1.0f - 2.0f * (j*j + k*k);
 469              		.loc 1 150 0 discriminator 2
 470 0132 796B     		ldr	r1, [r7, #52]	@ float
 471 0134 786B     		ldr	r0, [r7, #52]	@ float
ARM GAS  C:\Users\JENNEW~1\AppData\Local\Temp\ccHH9OS0.s 			page 12


 472 0136 FFF7FEFF 		bl	__aeabi_fmul
 473 013a 0346     		mov	r3, r0
 474 013c 1C46     		mov	r4, r3
 475 013e 396B     		ldr	r1, [r7, #48]	@ float
 476 0140 386B     		ldr	r0, [r7, #48]	@ float
 477 0142 FFF7FEFF 		bl	__aeabi_fmul
 478 0146 0346     		mov	r3, r0
 479 0148 1946     		mov	r1, r3
 480 014a 2046     		mov	r0, r4
 481 014c FFF7FEFF 		bl	__aeabi_fadd
 482 0150 0346     		mov	r3, r0
 483 0152 1946     		mov	r1, r3
 484 0154 1846     		mov	r0, r3
 485 0156 FFF7FEFF 		bl	__aeabi_fadd
 486 015a 0346     		mov	r3, r0
 487 015c 1946     		mov	r1, r3
 488 015e 4FF07E50 		mov	r0, #1065353216
 489 0162 FFF7FEFF 		bl	__aeabi_fsub
 490 0166 0346     		mov	r3, r0
 491 0168 7B61     		str	r3, [r7, #20]	@ float
 151:main.c        ****     float pan_deg  = atan2f(siny_val, cosy_val) * 57.2958f;
 492              		.loc 1 151 0 discriminator 2
 493 016a 7969     		ldr	r1, [r7, #20]	@ float
 494 016c B869     		ldr	r0, [r7, #24]	@ float
 495 016e FFF7FEFF 		bl	atan2f
 496 0172 0346     		mov	r3, r0
 497 0174 0D49     		ldr	r1, .L35
 498 0176 1846     		mov	r0, r3
 499 0178 FFF7FEFF 		bl	__aeabi_fmul
 500 017c 0346     		mov	r3, r0
 501 017e 3B61     		str	r3, [r7, #16]	@ float
 152:main.c        **** 
 153:main.c        ****     decomp(pan_deg,  pan_i,  pan_f,  pan_s);
 502              		.loc 1 153 0 discriminator 2
 503 0180 BB68     		ldr	r3, [r7, #8]
 504 0182 3A68     		ldr	r2, [r7]
 505 0184 7968     		ldr	r1, [r7, #4]
 506 0186 3869     		ldr	r0, [r7, #16]	@ float
 507 0188 FFF7FEFF 		bl	decomp
 154:main.c        ****     decomp(tilt_deg, tilt_i, tilt_f, tilt_s);
 508              		.loc 1 154 0 discriminator 2
 509 018c 3B6D     		ldr	r3, [r7, #80]
 510 018e BA6D     		ldr	r2, [r7, #88]
 511 0190 796D     		ldr	r1, [r7, #84]
 512 0192 F869     		ldr	r0, [r7, #28]	@ float
 513 0194 FFF7FEFF 		bl	decomp
 155:main.c        ****     decomp(roll_deg, roll_i, roll_f, roll_s);
 514              		.loc 1 155 0 discriminator 2
 515 0198 FB6D     		ldr	r3, [r7, #92]
 516 019a 7A6E     		ldr	r2, [r7, #100]
 517 019c 396E     		ldr	r1, [r7, #96]
 518 019e 786A     		ldr	r0, [r7, #36]	@ float
 519 01a0 FFF7FEFF 		bl	decomp
 156:main.c        **** }
 520              		.loc 1 156 0 discriminator 2
 521 01a4 00BF     		nop
 522 01a6 4437     		adds	r7, r7, #68
ARM GAS  C:\Users\JENNEW~1\AppData\Local\Temp\ccHH9OS0.s 			page 13


 523              		.cfi_def_cfa_offset 12
 524 01a8 BD46     		mov	sp, r7
 525              		.cfi_def_cfa_register 13
 526              		@ sp needed
 527 01aa 90BD     		pop	{r4, r7, pc}
 528              	.L36:
 529              		.align	2
 530              	.L35:
 531 01ac E62E6542 		.word	1113927398
 532 01b0 0000B442 		.word	1119092736
 533 01b4 000080BF 		.word	-1082130432
 534 01b8 0000B4C2 		.word	-1028390912
 535              		.cfi_endproc
 536              	.LFE68:
 537              		.size	compute_euler_ints, .-compute_euler_ints
 538              		.section	.rodata
 539              		.align	2
 540              	.LC0:
 541 0008 52415445 		.ascii	"RATE\000"
 541      00
 542 000d 000000   		.align	2
 543              	.LC1:
 544 0010 41425320 		.ascii	"ABS \000"
 544      00
 545 0015 000000   		.align	2
 546              	.LC2:
 547 0018 44454652 		.ascii	"DEFR\000"
 547      00
 548              		.section	.text.mode_to_str,"ax",%progbits
 549              		.align	2
 550              		.thumb
 551              		.thumb_func
 552              		.type	mode_to_str, %function
 553              	mode_to_str:
 554              	.LFB69:
 157:main.c        **** 
 158:main.c        **** static const char* mode_to_str(ff_api_control_type_e m)
 159:main.c        **** {
 555              		.loc 1 159 0
 556              		.cfi_startproc
 557              		@ args = 0, pretend = 0, frame = 8
 558              		@ frame_needed = 1, uses_anonymous_args = 0
 559              		@ link register save eliminated.
 560 0000 80B4     		push	{r7}
 561              		.cfi_def_cfa_offset 4
 562              		.cfi_offset 7, -4
 563 0002 83B0     		sub	sp, sp, #12
 564              		.cfi_def_cfa_offset 16
 565 0004 00AF     		add	r7, sp, #0
 566              		.cfi_def_cfa_register 7
 567 0006 0346     		mov	r3, r0
 568 0008 FB71     		strb	r3, [r7, #7]
 160:main.c        ****     switch (m) {
 569              		.loc 1 160 0
 570 000a FB79     		ldrb	r3, [r7, #7]	@ zero_extendqisi2
 571 000c 012B     		cmp	r3, #1
 572 000e 02D0     		beq	.L39
ARM GAS  C:\Users\JENNEW~1\AppData\Local\Temp\ccHH9OS0.s 			page 14


 573 0010 022B     		cmp	r3, #2
 574 0012 02D0     		beq	.L40
 575 0014 03E0     		b	.L42
 576              	.L39:
 161:main.c        ****         case RATE:     return "RATE";
 577              		.loc 1 161 0
 578 0016 054B     		ldr	r3, .L43
 579 0018 02E0     		b	.L41
 580              	.L40:
 162:main.c        ****         case ABSOLUTE: return "ABS ";
 581              		.loc 1 162 0
 582 001a 054B     		ldr	r3, .L43+4
 583 001c 00E0     		b	.L41
 584              	.L42:
 163:main.c        ****         default:       return "DEFR";
 585              		.loc 1 163 0
 586 001e 054B     		ldr	r3, .L43+8
 587              	.L41:
 164:main.c        ****     }
 165:main.c        **** }
 588              		.loc 1 165 0
 589 0020 1846     		mov	r0, r3
 590 0022 0C37     		adds	r7, r7, #12
 591              		.cfi_def_cfa_offset 4
 592 0024 BD46     		mov	sp, r7
 593              		.cfi_def_cfa_register 13
 594              		@ sp needed
 595 0026 80BC     		pop	{r7}
 596              		.cfi_restore 7
 597              		.cfi_def_cfa_offset 0
 598 0028 7047     		bx	lr
 599              	.L44:
 600 002a 00BF     		.align	2
 601              	.L43:
 602 002c 08000000 		.word	.LC0
 603 0030 10000000 		.word	.LC1
 604 0034 18000000 		.word	.LC2
 605              		.cfi_endproc
 606              	.LFE69:
 607              		.size	mode_to_str, .-mode_to_str
 608              		.section	.rodata
 609 001d 000000   		.align	2
 610              	.LC3:
 611 0020 0D0A5B43 		.ascii	"\015\012[CAL] Step 1: Move joystick through FULL ra"
 611      414C5D20 
 611      53746570 
 611      20313A20 
 611      4D6F7665 
 612 004d 6E67652C 		.ascii	"nge, then release to center.\015\012\000"
 612      20746865 
 612      6E207265 
 612      6C656173 
 612      6520746F 
 613              		.align	2
 614              	.LC4:
 615 006c 5B43414C 		.ascii	"[CAL] Press 'c' to proceed to center capture, 'x' t"
 615      5D205072 
ARM GAS  C:\Users\JENNEW~1\AppData\Local\Temp\ccHH9OS0.s 			page 15


 615      65737320 
 615      27632720 
 615      746F2070 
 616 009f 6F206361 		.ascii	"o cancel.\015\012\000"
 616      6E63656C 
 616      2E0D0A00 
 617 00ab 00       		.align	2
 618              	.LC5:
 619 00ac 0D0A5B43 		.ascii	"\015\012[CAL] Step 2: Hold center -- averaging...\015"
 619      414C5D20 
 619      53746570 
 619      20323A20 
 619      486F6C64 
 620 00d8 0A00     		.ascii	"\012\000"
 621 00da 0000     		.align	2
 622              	.LC6:
 623 00dc 0D0A5B43 		.ascii	"\015\012[CAL] Step 3: Center captured. Press 'c' to"
 623      414C5D20 
 623      53746570 
 623      20333A20 
 623      43656E74 
 624 0109 20534156 		.ascii	" SAVE, 'x' to cancel.\015\012\000"
 624      452C2027 
 624      78272074 
 624      6F206361 
 624      6E63656C 
 625 0121 000000   		.align	2
 626              	.LC7:
 627 0124 5B43414C 		.ascii	"[CAL] Exited.\015\012\000"
 627      5D204578 
 627      69746564 
 627      2E0D0A00 
 628              		.section	.text.print_cal_prompt_on_state_change,"ax",%progbits
 629              		.align	2
 630              		.thumb
 631              		.thumb_func
 632              		.type	print_cal_prompt_on_state_change, %function
 633              	print_cal_prompt_on_state_change:
 634              	.LFB70:
 166:main.c        **** 
 167:main.c        **** static void print_cal_prompt_on_state_change(joy_cal_state_t prev, joy_cal_state_t now)
 168:main.c        **** {
 635              		.loc 1 168 0
 636              		.cfi_startproc
 637              		@ args = 0, pretend = 0, frame = 8
 638              		@ frame_needed = 1, uses_anonymous_args = 0
 639 0000 80B5     		push	{r7, lr}
 640              		.cfi_def_cfa_offset 8
 641              		.cfi_offset 7, -8
 642              		.cfi_offset 14, -4
 643 0002 82B0     		sub	sp, sp, #8
 644              		.cfi_def_cfa_offset 16
 645 0004 00AF     		add	r7, sp, #0
 646              		.cfi_def_cfa_register 7
 647 0006 0346     		mov	r3, r0
 648 0008 0A46     		mov	r2, r1
 649 000a FB71     		strb	r3, [r7, #7]
ARM GAS  C:\Users\JENNEW~1\AppData\Local\Temp\ccHH9OS0.s 			page 16


 650 000c 1346     		mov	r3, r2
 651 000e BB71     		strb	r3, [r7, #6]
 169:main.c        ****     if (prev == now) return;
 652              		.loc 1 169 0
 653 0010 FA79     		ldrb	r2, [r7, #7]	@ zero_extendqisi2
 654 0012 BB79     		ldrb	r3, [r7, #6]	@ zero_extendqisi2
 655 0014 9A42     		cmp	r2, r3
 656 0016 21D0     		beq	.L51
 170:main.c        ****     if (now == JOY_CAL_RANGE_CAPTURE) {
 657              		.loc 1 170 0
 658 0018 BB79     		ldrb	r3, [r7, #6]	@ zero_extendqisi2
 659 001a 012B     		cmp	r3, #1
 660 001c 06D1     		bne	.L48
 171:main.c        ****         UART_1_PutString("\r\n[CAL] Step 1: Move joystick through FULL range, then release to cente
 661              		.loc 1 171 0
 662 001e 1148     		ldr	r0, .L52
 663 0020 FFF7FEFF 		bl	UART_1_PutString
 172:main.c        ****         UART_1_PutString("[CAL] Press 'c' to proceed to center capture, 'x' to cancel.\r\n");
 664              		.loc 1 172 0
 665 0024 1048     		ldr	r0, .L52+4
 666 0026 FFF7FEFF 		bl	UART_1_PutString
 667 002a 18E0     		b	.L45
 668              	.L48:
 173:main.c        ****     } else if (now == JOY_CAL_CENTER_CAPTURE) {
 669              		.loc 1 173 0
 670 002c BB79     		ldrb	r3, [r7, #6]	@ zero_extendqisi2
 671 002e 022B     		cmp	r3, #2
 672 0030 03D1     		bne	.L49
 174:main.c        ****         UART_1_PutString("\r\n[CAL] Step 2: Hold center -- averaging...\r\n");
 673              		.loc 1 174 0
 674 0032 0E48     		ldr	r0, .L52+8
 675 0034 FFF7FEFF 		bl	UART_1_PutString
 676 0038 11E0     		b	.L45
 677              	.L49:
 175:main.c        ****     } else if (now == JOY_CAL_CONFIRM_SAVE) {
 678              		.loc 1 175 0
 679 003a BB79     		ldrb	r3, [r7, #6]	@ zero_extendqisi2
 680 003c 032B     		cmp	r3, #3
 681 003e 03D1     		bne	.L50
 176:main.c        ****         UART_1_PutString("\r\n[CAL] Step 3: Center captured. Press 'c' to SAVE, 'x' to cancel.\r\n"
 682              		.loc 1 176 0
 683 0040 0B48     		ldr	r0, .L52+12
 684 0042 FFF7FEFF 		bl	UART_1_PutString
 685 0046 0AE0     		b	.L45
 686              	.L50:
 177:main.c        ****     } else if (now == JOY_CAL_OFF && prev != JOY_CAL_OFF) {
 687              		.loc 1 177 0
 688 0048 BB79     		ldrb	r3, [r7, #6]	@ zero_extendqisi2
 689 004a 002B     		cmp	r3, #0
 690 004c 07D1     		bne	.L45
 691              		.loc 1 177 0 is_stmt 0 discriminator 1
 692 004e FB79     		ldrb	r3, [r7, #7]	@ zero_extendqisi2
 693 0050 002B     		cmp	r3, #0
 694 0052 04D0     		beq	.L45
 178:main.c        ****         UART_1_PutString("[CAL] Exited.\r\n");
 695              		.loc 1 178 0 is_stmt 1
 696 0054 0748     		ldr	r0, .L52+16
ARM GAS  C:\Users\JENNEW~1\AppData\Local\Temp\ccHH9OS0.s 			page 17


 697 0056 FFF7FEFF 		bl	UART_1_PutString
 698 005a 00E0     		b	.L45
 699              	.L51:
 169:main.c        ****     if (now == JOY_CAL_RANGE_CAPTURE) {
 700              		.loc 1 169 0
 701 005c 00BF     		nop
 702              	.L45:
 179:main.c        ****     }
 180:main.c        **** }
 703              		.loc 1 180 0
 704 005e 0837     		adds	r7, r7, #8
 705              		.cfi_def_cfa_offset 8
 706 0060 BD46     		mov	sp, r7
 707              		.cfi_def_cfa_register 13
 708              		@ sp needed
 709 0062 80BD     		pop	{r7, pc}
 710              	.L53:
 711              		.align	2
 712              	.L52:
 713 0064 20000000 		.word	.LC3
 714 0068 6C000000 		.word	.LC4
 715 006c AC000000 		.word	.LC5
 716 0070 DC000000 		.word	.LC6
 717 0074 24010000 		.word	.LC7
 718              		.cfi_endproc
 719              	.LFE70:
 720              		.size	print_cal_prompt_on_state_change, .-print_cal_prompt_on_state_change
 721              		.section	.rodata
 722              		.align	2
 723              	.LC8:
 724 0134 5B434C49 		.ascii	"[CLI] Kill packet sent\015\012\000"
 724      5D204B69 
 724      6C6C2070 
 724      61636B65 
 724      74207365 
 725 014d 000000   		.align	2
 726              	.LC9:
 727 0150 5B434C49 		.ascii	"[CLI] All stopped  Mode: DEFR  -> STANDBY\015\012\000"
 727      5D20416C 
 727      6C207374 
 727      6F707065 
 727      6420204D 
 728              		.section	.text.do_kill,"ax",%progbits
 729              		.align	2
 730              		.thumb
 731              		.thumb_func
 732              		.type	do_kill, %function
 733              	do_kill:
 734              	.LFB71:
 181:main.c        **** 
 182:main.c        **** /* =========================================================================
 183:main.c        ****  * kill helper — common to 'k' and 'x'
 184:main.c        ****  * ========================================================================= */
 185:main.c        **** static void do_kill(movi_comm_t* movi, app_mode_t* mode,
 186:main.c        ****                     uint8* joystick_active, uint8* streaming_adc,
 187:main.c        ****                     ff_api_control_type_e* ctrl_mode)
 188:main.c        **** {
ARM GAS  C:\Users\JENNEW~1\AppData\Local\Temp\ccHH9OS0.s 			page 18


 735              		.loc 1 188 0
 736              		.cfi_startproc
 737              		@ args = 4, pretend = 0, frame = 16
 738              		@ frame_needed = 1, uses_anonymous_args = 0
 739 0000 80B5     		push	{r7, lr}
 740              		.cfi_def_cfa_offset 8
 741              		.cfi_offset 7, -8
 742              		.cfi_offset 14, -4
 743 0002 84B0     		sub	sp, sp, #16
 744              		.cfi_def_cfa_offset 24
 745 0004 00AF     		add	r7, sp, #0
 746              		.cfi_def_cfa_register 7
 747 0006 F860     		str	r0, [r7, #12]
 748 0008 B960     		str	r1, [r7, #8]
 749 000a 7A60     		str	r2, [r7, #4]
 750 000c 3B60     		str	r3, [r7]
 189:main.c        ****     if (*mode == APP_MODE_MOVI_CONTROL) {
 751              		.loc 1 189 0
 752 000e BB68     		ldr	r3, [r7, #8]
 753 0010 1B78     		ldrb	r3, [r3]	@ zero_extendqisi2
 754 0012 012B     		cmp	r3, #1
 755 0014 05D1     		bne	.L55
 190:main.c        ****         movi_comm_kill(movi);
 756              		.loc 1 190 0
 757 0016 F868     		ldr	r0, [r7, #12]
 758 0018 FFF7FEFF 		bl	movi_comm_kill
 191:main.c        ****         UART_1_PutString("[CLI] Kill packet sent\r\n");
 759              		.loc 1 191 0
 760 001c 0C48     		ldr	r0, .L56
 761 001e FFF7FEFF 		bl	UART_1_PutString
 762              	.L55:
 192:main.c        ****     }
 193:main.c        ****     *joystick_active = FALSE;
 763              		.loc 1 193 0
 764 0022 7B68     		ldr	r3, [r7, #4]
 765 0024 0022     		movs	r2, #0
 766 0026 1A70     		strb	r2, [r3]
 194:main.c        ****     *mode            = APP_MODE_STANDBY;
 767              		.loc 1 194 0
 768 0028 BB68     		ldr	r3, [r7, #8]
 769 002a 0022     		movs	r2, #0
 770 002c 1A70     		strb	r2, [r3]
 195:main.c        ****     *streaming_adc   = FALSE;
 771              		.loc 1 195 0
 772 002e 3B68     		ldr	r3, [r7]
 773 0030 0022     		movs	r2, #0
 774 0032 1A70     		strb	r2, [r3]
 196:main.c        ****     *ctrl_mode       = DEFER;
 775              		.loc 1 196 0
 776 0034 BB69     		ldr	r3, [r7, #24]
 777 0036 0022     		movs	r2, #0
 778 0038 1A70     		strb	r2, [r3]
 197:main.c        ****     joystick_on_key('x');
 779              		.loc 1 197 0
 780 003a 7820     		movs	r0, #120
 781 003c FFF7FEFF 		bl	joystick_on_key
 198:main.c        ****     UART_1_PutString("[CLI] All stopped  Mode: DEFR  -> STANDBY\r\n");
ARM GAS  C:\Users\JENNEW~1\AppData\Local\Temp\ccHH9OS0.s 			page 19


 782              		.loc 1 198 0
 783 0040 0448     		ldr	r0, .L56+4
 784 0042 FFF7FEFF 		bl	UART_1_PutString
 199:main.c        **** }
 785              		.loc 1 199 0
 786 0046 00BF     		nop
 787 0048 1037     		adds	r7, r7, #16
 788              		.cfi_def_cfa_offset 8
 789 004a BD46     		mov	sp, r7
 790              		.cfi_def_cfa_register 13
 791              		@ sp needed
 792 004c 80BD     		pop	{r7, pc}
 793              	.L57:
 794 004e 00BF     		.align	2
 795              	.L56:
 796 0050 34010000 		.word	.LC8
 797 0054 50010000 		.word	.LC9
 798              		.cfi_endproc
 799              	.LFE71:
 800              		.size	do_kill, .-do_kill
 801              		.section	.text.split32,"ax",%progbits
 802              		.align	2
 803              		.thumb
 804              		.thumb_func
 805              		.type	split32, %function
 806              	split32:
 807              	.LFB72:
 200:main.c        **** 
 201:main.c        **** /* =========================================================================
 202:main.c        ****  * Test mode verbose print functions
 203:main.c        ****  * Each prints one header line then per-field lines showing:
 204:main.c        ****  *   offset | type/scale annotation | raw value | => | scaled value + unit
 205:main.c        ****  * This lets you cross-check the java ParameterStructure offsets against
 206:main.c        ****  * what actually arrives in the packet.
 207:main.c        ****  * ========================================================================= */
 208:main.c        **** 
 209:main.c        **** /* Helper: split int32 at a power-of-10 boundary for printing without %f.
 210:main.c        ****  * Returns sign char, integer part, and fractional part as separate ints.
 211:main.c        ****  * scale_pow10 must be 10, 100, 1000, or 10000000.                        */
 212:main.c        **** static char split32(int32_t raw, int32_t scale_pow10,
 213:main.c        ****                     long* i_out, long* f_out)
 214:main.c        **** {
 808              		.loc 1 214 0
 809              		.cfi_startproc
 810              		@ args = 0, pretend = 0, frame = 24
 811              		@ frame_needed = 1, uses_anonymous_args = 0
 812              		@ link register save eliminated.
 813 0000 80B4     		push	{r7}
 814              		.cfi_def_cfa_offset 4
 815              		.cfi_offset 7, -4
 816 0002 87B0     		sub	sp, sp, #28
 817              		.cfi_def_cfa_offset 32
 818 0004 00AF     		add	r7, sp, #0
 819              		.cfi_def_cfa_register 7
 820 0006 F860     		str	r0, [r7, #12]
 821 0008 B960     		str	r1, [r7, #8]
 822 000a 7A60     		str	r2, [r7, #4]
ARM GAS  C:\Users\JENNEW~1\AppData\Local\Temp\ccHH9OS0.s 			page 20


 823 000c 3B60     		str	r3, [r7]
 215:main.c        ****     char sign = (raw < 0) ? '-' : '+';
 824              		.loc 1 215 0
 825 000e FB68     		ldr	r3, [r7, #12]
 826 0010 002B     		cmp	r3, #0
 827 0012 01DA     		bge	.L59
 828              		.loc 1 215 0 is_stmt 0 discriminator 1
 829 0014 2D23     		movs	r3, #45
 830 0016 00E0     		b	.L60
 831              	.L59:
 832              		.loc 1 215 0 discriminator 2
 833 0018 2B23     		movs	r3, #43
 834              	.L60:
 835              		.loc 1 215 0 discriminator 4
 836 001a FB75     		strb	r3, [r7, #23]
 216:main.c        ****     int32_t abs = (raw < 0) ? -raw : raw;
 837              		.loc 1 216 0 is_stmt 1 discriminator 4
 838 001c FB68     		ldr	r3, [r7, #12]
 839 001e 002B     		cmp	r3, #0
 840 0020 B8BF     		it	lt
 841 0022 5B42     		rsblt	r3, r3, #0
 842 0024 3B61     		str	r3, [r7, #16]
 217:main.c        ****     *i_out = (long)(abs / scale_pow10);
 843              		.loc 1 217 0 discriminator 4
 844 0026 3A69     		ldr	r2, [r7, #16]
 845 0028 BB68     		ldr	r3, [r7, #8]
 846 002a 92FBF3F2 		sdiv	r2, r2, r3
 847 002e 7B68     		ldr	r3, [r7, #4]
 848 0030 1A60     		str	r2, [r3]
 218:main.c        ****     *f_out = (long)(abs % scale_pow10);
 849              		.loc 1 218 0 discriminator 4
 850 0032 3B69     		ldr	r3, [r7, #16]
 851 0034 BA68     		ldr	r2, [r7, #8]
 852 0036 93FBF2F2 		sdiv	r2, r3, r2
 853 003a B968     		ldr	r1, [r7, #8]
 854 003c 01FB02F2 		mul	r2, r1, r2
 855 0040 9A1A     		subs	r2, r3, r2
 856 0042 3B68     		ldr	r3, [r7]
 857 0044 1A60     		str	r2, [r3]
 219:main.c        ****     return sign;
 858              		.loc 1 219 0 discriminator 4
 859 0046 FB7D     		ldrb	r3, [r7, #23]	@ zero_extendqisi2
 220:main.c        **** }
 860              		.loc 1 220 0 discriminator 4
 861 0048 1846     		mov	r0, r3
 862 004a 1C37     		adds	r7, r7, #28
 863              		.cfi_def_cfa_offset 4
 864 004c BD46     		mov	sp, r7
 865              		.cfi_def_cfa_register 13
 866              		@ sp needed
 867 004e 80BC     		pop	{r7}
 868              		.cfi_restore 7
 869              		.cfi_def_cfa_offset 0
 870 0050 7047     		bx	lr
 871              		.cfi_endproc
 872              	.LFE72:
 873              		.size	split32, .-split32
ARM GAS  C:\Users\JENNEW~1\AppData\Local\Temp\ccHH9OS0.s 			page 21


 874 0052 00BF     		.section	.rodata
 875              		.align	2
 876              	.LC10:
 877 017c 0D0A5B54 		.ascii	"\015\012[TEST][Att] attr=22  dt=%lums  rxlen=%u  sn"
 877      4553545D 
 877      5B417474 
 877      5D206174 
 877      74723D32 
 878 01a9 61706C65 		.ascii	"aplen=%u\015\012\000"
 878      6E3D2575 
 878      0D0A00
 879              		.align	2
 880              	.LC11:
 881 01b4 20206F66 		.ascii	"  off%02u:\000"
 881      66253032 
 881      753A00
 882 01bf 00       		.align	2
 883              	.LC12:
 884 01c0 20253032 		.ascii	" %02X\000"
 884      5800
 885 01c6 0000     		.align	2
 886              	.LC13:
 887 01c8 0D0A00   		.ascii	"\015\012\000"
 888 01cb 00       		.align	2
 889              	.LC14:
 890 01cc 20204552 		.ascii	"  ERROR: snapshot only %u bytes -- BLE bridge trunc"
 890      524F523A 
 890      20736E61 
 890      7073686F 
 890      74206F6E 
 891 01ff 6174696F 		.ascii	"ation?\015\012\000"
 891      6E3F0D0A 
 891      00
 892              		.global	__aeabi_fdiv
 893              		.align	2
 894              	.LC15:
 895 0208 20206F66 		.ascii	"  off  1  int16  /100   raw=%6d  =>  %c%d.%02d deg "
 895      66202031 
 895      2020696E 
 895      74313620 
 895      202F3130 
 896 023b 205B5049 		.ascii	" [PITCH]\015\012\000"
 896      5443485D 
 896      0D0A00
 897 0246 0000     		.align	2
 898              	.LC16:
 899 0248 20206F66 		.ascii	"  off  3  int16  /100   raw=%6d  =>  %c%d.%02d deg "
 899      66202033 
 899      2020696E 
 899      74313620 
 899      202F3130 
 900 027b 205B5941 		.ascii	" [YAW]\015\012\000"
 900      575D0D0A 
 900      00
 901              		.align	2
 902              	.LC17:
 903 0284 20206F66 		.ascii	"  off  5  int16  /100   raw=%6d  =>  %c%d.%02d deg "
ARM GAS  C:\Users\JENNEW~1\AppData\Local\Temp\ccHH9OS0.s 			page 22


 903      66202035 
 903      2020696E 
 903      74313620 
 903      202F3130 
 904 02b7 205B524F 		.ascii	" [ROLL]\015\012\000"
 904      4C4C5D0D 
 904      0A00
 905 02c1 000000   		.align	2
 906              	.LC18:
 907 02c4 20202873 		.ascii	"  (snap only %u bytes -- err/rate fields off 7-17 u"
 907      6E617020 
 907      6F6E6C79 
 907      20257520 
 907      62797465 
 908 02f7 6E617661 		.ascii	"navailable)\015\012\000"
 908      696C6162 
 908      6C65290D 
 908      0A00
 909 0305 000000   		.align	2
 910              	.LC19:
 911 0308 20202D2D 		.ascii	"  -- error + rate fields (off 7-17) --\015\012\000"
 911      20657272 
 911      6F72202B 
 911      20726174 
 911      65206669 
 912 0331 000000   		.align	2
 913              	.LC20:
 914 0334 20206F66 		.ascii	"  off  7  int16  /10    raw=%6d  =>  %c%d.%02d  [ro"
 914      66202037 
 914      2020696E 
 914      74313620 
 914      202F3130 
 915 0367 6C6C5F65 		.ascii	"ll_err deg]\015\012\000"
 915      72722064 
 915      65675D0D 
 915      0A00
 916 0375 000000   		.align	2
 917              	.LC21:
 918 0378 20206F66 		.ascii	"  off  9  int16  /10    raw=%6d  =>  %c%d.%02d  [pi"
 918      66202039 
 918      2020696E 
 918      74313620 
 918      202F3130 
 919 03ab 7463685F 		.ascii	"tch_err deg]\015\012\000"
 919      65727220 
 919      6465675D 
 919      0D0A00
 920 03ba 0000     		.align	2
 921              	.LC22:
 922 03bc 20206F66 		.ascii	"  off 11  int16  /10    raw=%6d  =>  %c%d.%02d  [ya"
 922      66203131 
 922      2020696E 
 922      74313620 
 922      202F3130 
 923 03ef 775F6572 		.ascii	"w_err deg]\015\012\000"
 923      72206465 
 923      675D0D0A 
ARM GAS  C:\Users\JENNEW~1\AppData\Local\Temp\ccHH9OS0.s 			page 23


 923      00
 924              		.align	2
 925              	.LC23:
 926 03fc 20206F66 		.ascii	"  off 13  int16  /10    raw=%6d  =>  %c%d.%02d  [ro"
 926      66203133 
 926      2020696E 
 926      74313620 
 926      202F3130 
 927 042f 6C6C5F72 		.ascii	"ll_rate_cmd deg/s]\015\012\000"
 927      6174655F 
 927      636D6420 
 927      6465672F 
 927      735D0D0A 
 928              		.align	2
 929              	.LC24:
 930 0444 20206F66 		.ascii	"  off 15  int16  /10    raw=%6d  =>  %c%d.%02d  [pi"
 930      66203135 
 930      2020696E 
 930      74313620 
 930      202F3130 
 931 0477 7463685F 		.ascii	"tch_rate_cmd deg/s]\015\012\000"
 931      72617465 
 931      5F636D64 
 931      20646567 
 931      2F735D0D 
 932 048d 000000   		.align	2
 933              	.LC25:
 934 0490 20206F66 		.ascii	"  off 17  int16  /10    raw=%6d  =>  %c%d.%02d  [ya"
 934      66203137 
 934      2020696E 
 934      74313620 
 934      202F3130 
 935 04c3 775F7261 		.ascii	"w_rate_cmd deg/s]\015\012\000"
 935      74655F63 
 935      6D642064 
 935      65672F73 
 935      5D0D0A00 
 936              		.section	.text.print_test_attitude,"ax",%progbits
 937              		.align	2
 938              		.thumb
 939              		.thumb_func
 940              		.type	print_test_attitude, %function
 941              	print_test_attitude:
 942              	.LFB73:
 221:main.c        **** 
 222:main.c        **** /* -------------------------------------------------------------------------
 223:main.c        ****  * Test print functions — all take (dt, rxlen, snapshot_payload, snap_plen).
 224:main.c        ****  * Raw values are read directly from the snapshot bytes (p), not from
 225:main.c        ****  * movi_status_t floats, to guarantee we see exactly what the GCU sent
 226:main.c        ****  * before the next attr 287 push could overwrite RxMsg.
 227:main.c        ****  * ------------------------------------------------------------------------- */
 228:main.c        **** 
 229:main.c        **** /* Macro: read int16 LE from snapshot at byte offset off.
 230:main.c        ****  * Returns 0 if snapshot is too short.                    */
 231:main.c        **** #define SNAP16(p, plen, off) \
 232:main.c        ****     (((off) + 2u <= (plen)) ? ({ int16_t _v; memcpy(&_v, (p)+(off), 2); _v; }) : (int16_t)0)
 233:main.c        **** 
ARM GAS  C:\Users\JENNEW~1\AppData\Local\Temp\ccHH9OS0.s 			page 24


 234:main.c        **** /* Macro: read int32 LE from snapshot at byte offset off. */
 235:main.c        **** #define SNAP32(p, plen, off) \
 236:main.c        ****     (((off) + 4u <= (plen)) ? ({ int32_t _v; memcpy(&_v, (p)+(off), 4); _v; }) : (int32_t)0)
 237:main.c        **** 
 238:main.c        **** /* Macro: read int16 big-endian from snapshot. */
 239:main.c        **** #define SNAP16BE(p, plen, off) \
 240:main.c        ****     (((off) + 2u <= (plen)) \
 241:main.c        ****         ? (int16_t)(((uint16_t)(p)[(off)] << 8) | (uint16_t)(p)[(off)+1u]) \
 242:main.c        ****         : (int16_t)0)
 243:main.c        **** 
 244:main.c        **** /* Macro: read int32 big-endian from snapshot. */
 245:main.c        **** #define SNAP32BE(p, plen, off) \
 246:main.c        ****     (((off) + 4u <= (plen)) \
 247:main.c        ****         ? (int32_t)(  ((uint32_t)(p)[(off)]   << 24) \
 248:main.c        ****                     | ((uint32_t)(p)[(off)+1u] << 16) \
 249:main.c        ****                     | ((uint32_t)(p)[(off)+2u] <<  8) \
 250:main.c        ****                     |  (uint32_t)(p)[(off)+3u]) \
 251:main.c        ****         : (int32_t)0)
 252:main.c        **** 
 253:main.c        **** /* --- attr 22: Gimbal attitude (euler) --- */
 254:main.c        **** static void print_test_attitude(const movi_status_t* st, uint32_t dt,
 255:main.c        ****                                  uint16_t rxlen, const uint8_t* p, uint8_t plen)
 256:main.c        **** {
 943              		.loc 1 256 0
 944              		.cfi_startproc
 945              		@ args = 4, pretend = 0, frame = 232
 946              		@ frame_needed = 1, uses_anonymous_args = 0
 947 0000 90B5     		push	{r4, r7, lr}
 948              		.cfi_def_cfa_offset 12
 949              		.cfi_offset 4, -12
 950              		.cfi_offset 7, -8
 951              		.cfi_offset 14, -4
 952 0002 BDB0     		sub	sp, sp, #244
 953              		.cfi_def_cfa_offset 256
 954 0004 02AF     		add	r7, sp, #8
 955              		.cfi_def_cfa 7, 248
 956 0006 F860     		str	r0, [r7, #12]
 957 0008 B960     		str	r1, [r7, #8]
 958 000a 3B60     		str	r3, [r7]
 959 000c 1346     		mov	r3, r2	@ movhi
 960 000e FB80     		strh	r3, [r7, #6]	@ movhi
 257:main.c        ****     char buf[TRANSMIT_BUFFER_SIZE];
 258:main.c        ****     (void)st;  /* parsed floats not used — we read direct from snapshot */
 259:main.c        **** 
 260:main.c        ****     sprintf(buf, "\r\n[TEST][Att] attr=22  dt=%lums  rxlen=%u  snaplen=%u\r\n",
 961              		.loc 1 260 0
 962 0010 FA88     		ldrh	r2, [r7, #6]
 963 0012 97F8F830 		ldrb	r3, [r7, #248]	@ zero_extendqisi2
 964 0016 07F12C00 		add	r0, r7, #44
 965 001a 0093     		str	r3, [sp]
 966 001c 1346     		mov	r3, r2
 967 001e BA68     		ldr	r2, [r7, #8]
 968 0020 D849     		ldr	r1, .L90
 969 0022 FFF7FEFF 		bl	sprintf
 261:main.c        ****             (unsigned long)dt, (unsigned)rxlen, (unsigned)plen);
 262:main.c        ****     UART_1_PutString(buf);
 970              		.loc 1 262 0
ARM GAS  C:\Users\JENNEW~1\AppData\Local\Temp\ccHH9OS0.s 			page 25


 971 0026 07F12C03 		add	r3, r7, #44
 972 002a 1846     		mov	r0, r3
 973 002c FFF7FEFF 		bl	UART_1_PutString
 974              	.LBB3:
 263:main.c        **** 
 264:main.c        ****     /* Raw hex dump — all snapshot bytes, 8 per row.
 265:main.c        ****      * Lets us verify exact wire bytes vs Java ParameterStructure offsets.
 266:main.c        ****      * Format:  off00: XX XX XX XX  XX XX XX XX               */
 267:main.c        ****     {
 268:main.c        ****         uint8_t row, col;
 269:main.c        ****         for (row = 0u; row < plen; row += 8u) {
 975              		.loc 1 269 0
 976 0030 0023     		movs	r3, #0
 977 0032 87F8E730 		strb	r3, [r7, #231]
 978 0036 56E0     		b	.L63
 979              	.L67:
 980              	.LBB4:
 270:main.c        ****             char* bp = buf;
 981              		.loc 1 270 0
 982 0038 07F12C03 		add	r3, r7, #44
 983 003c C7F8E030 		str	r3, [r7, #224]
 271:main.c        ****             bp += sprintf(bp, "  off%02u:", (unsigned)row);
 984              		.loc 1 271 0
 985 0040 97F8E730 		ldrb	r3, [r7, #231]	@ zero_extendqisi2
 986 0044 1A46     		mov	r2, r3
 987 0046 D049     		ldr	r1, .L90+4
 988 0048 D7F8E000 		ldr	r0, [r7, #224]
 989 004c FFF7FEFF 		bl	sprintf
 990 0050 0346     		mov	r3, r0
 991 0052 1A46     		mov	r2, r3
 992 0054 D7F8E030 		ldr	r3, [r7, #224]
 993 0058 1344     		add	r3, r3, r2
 994 005a C7F8E030 		str	r3, [r7, #224]
 272:main.c        ****             for (col = 0u; col < 8u && (row + col) < plen; col++) {
 995              		.loc 1 272 0
 996 005e 0023     		movs	r3, #0
 997 0060 87F8E630 		strb	r3, [r7, #230]
 998 0064 1AE0     		b	.L64
 999              	.L66:
 273:main.c        ****                 bp += sprintf(bp, " %02X", (unsigned)p[row + col]);
 1000              		.loc 1 273 0 discriminator 4
 1001 0066 97F8E720 		ldrb	r2, [r7, #231]	@ zero_extendqisi2
 1002 006a 97F8E630 		ldrb	r3, [r7, #230]	@ zero_extendqisi2
 1003 006e 1344     		add	r3, r3, r2
 1004 0070 1A46     		mov	r2, r3
 1005 0072 3B68     		ldr	r3, [r7]
 1006 0074 1344     		add	r3, r3, r2
 1007 0076 1B78     		ldrb	r3, [r3]	@ zero_extendqisi2
 1008 0078 1A46     		mov	r2, r3
 1009 007a C449     		ldr	r1, .L90+8
 1010 007c D7F8E000 		ldr	r0, [r7, #224]
 1011 0080 FFF7FEFF 		bl	sprintf
 1012 0084 0346     		mov	r3, r0
 1013 0086 1A46     		mov	r2, r3
 1014 0088 D7F8E030 		ldr	r3, [r7, #224]
 1015 008c 1344     		add	r3, r3, r2
 1016 008e C7F8E030 		str	r3, [r7, #224]
ARM GAS  C:\Users\JENNEW~1\AppData\Local\Temp\ccHH9OS0.s 			page 26


 272:main.c        ****             for (col = 0u; col < 8u && (row + col) < plen; col++) {
 1017              		.loc 1 272 0 discriminator 4
 1018 0092 97F8E630 		ldrb	r3, [r7, #230]	@ zero_extendqisi2
 1019 0096 0133     		adds	r3, r3, #1
 1020 0098 87F8E630 		strb	r3, [r7, #230]
 1021              	.L64:
 272:main.c        ****             for (col = 0u; col < 8u && (row + col) < plen; col++) {
 1022              		.loc 1 272 0 is_stmt 0 discriminator 1
 1023 009c 97F8E630 		ldrb	r3, [r7, #230]	@ zero_extendqisi2
 1024 00a0 072B     		cmp	r3, #7
 1025 00a2 08D8     		bhi	.L65
 272:main.c        ****             for (col = 0u; col < 8u && (row + col) < plen; col++) {
 1026              		.loc 1 272 0 discriminator 3
 1027 00a4 97F8E720 		ldrb	r2, [r7, #231]	@ zero_extendqisi2
 1028 00a8 97F8E630 		ldrb	r3, [r7, #230]	@ zero_extendqisi2
 1029 00ac 1A44     		add	r2, r2, r3
 1030 00ae 97F8F830 		ldrb	r3, [r7, #248]	@ zero_extendqisi2
 1031 00b2 9A42     		cmp	r2, r3
 1032 00b4 D7DB     		blt	.L66
 1033              	.L65:
 274:main.c        ****             }
 275:main.c        ****             bp += sprintf(bp, "\r\n");
 1034              		.loc 1 275 0 is_stmt 1 discriminator 2
 1035 00b6 D7F8E030 		ldr	r3, [r7, #224]
 1036 00ba B54A     		ldr	r2, .L90+12
 1037 00bc 1188     		ldrh	r1, [r2]	@ unaligned
 1038 00be 9278     		ldrb	r2, [r2, #2]
 1039 00c0 1980     		strh	r1, [r3]	@ unaligned
 1040 00c2 9A70     		strb	r2, [r3, #2]
 1041 00c4 0223     		movs	r3, #2
 1042 00c6 1A46     		mov	r2, r3
 1043 00c8 D7F8E030 		ldr	r3, [r7, #224]
 1044 00cc 1344     		add	r3, r3, r2
 1045 00ce C7F8E030 		str	r3, [r7, #224]
 276:main.c        ****             UART_1_PutString(buf);
 1046              		.loc 1 276 0 discriminator 2
 1047 00d2 07F12C03 		add	r3, r7, #44
 1048 00d6 1846     		mov	r0, r3
 1049 00d8 FFF7FEFF 		bl	UART_1_PutString
 1050              	.LBE4:
 269:main.c        ****             char* bp = buf;
 1051              		.loc 1 269 0 discriminator 2
 1052 00dc 97F8E730 		ldrb	r3, [r7, #231]
 1053 00e0 0833     		adds	r3, r3, #8
 1054 00e2 87F8E730 		strb	r3, [r7, #231]
 1055              	.L63:
 269:main.c        ****             char* bp = buf;
 1056              		.loc 1 269 0 is_stmt 0 discriminator 1
 1057 00e6 97F8E720 		ldrb	r2, [r7, #231]	@ zero_extendqisi2
 1058 00ea 97F8F830 		ldrb	r3, [r7, #248]	@ zero_extendqisi2
 1059 00ee 9A42     		cmp	r2, r3
 1060 00f0 A2D3     		bcc	.L67
 1061              	.LBE3:
 277:main.c        ****         }
 278:main.c        ****     }
 279:main.c        **** 
 280:main.c        ****     if (plen < 6u) {
ARM GAS  C:\Users\JENNEW~1\AppData\Local\Temp\ccHH9OS0.s 			page 27


 1062              		.loc 1 280 0 is_stmt 1
 1063 00f2 97F8F830 		ldrb	r3, [r7, #248]	@ zero_extendqisi2
 1064 00f6 052B     		cmp	r3, #5
 1065 00f8 0DD8     		bhi	.L68
 281:main.c        ****         sprintf(buf, "  ERROR: snapshot only %u bytes -- BLE bridge truncation?\r\n",
 1066              		.loc 1 281 0
 1067 00fa 97F8F820 		ldrb	r2, [r7, #248]	@ zero_extendqisi2
 1068 00fe 07F12C03 		add	r3, r7, #44
 1069 0102 A449     		ldr	r1, .L90+16
 1070 0104 1846     		mov	r0, r3
 1071 0106 FFF7FEFF 		bl	sprintf
 282:main.c        ****                 (unsigned)plen);
 283:main.c        ****         UART_1_PutString(buf);
 1072              		.loc 1 283 0
 1073 010a 07F12C03 		add	r3, r7, #44
 1074 010e 1846     		mov	r0, r3
 1075 0110 FFF7FEFF 		bl	UART_1_PutString
 284:main.c        ****         return;
 1076              		.loc 1 284 0
 1077 0114 4BE2     		b	.L62
 1078              	.L68:
 285:main.c        ****     }
 286:main.c        **** 
 287:main.c        ****     char s; int16 vi, vf;
 288:main.c        ****     int16_t r1 = SNAP16(p, plen,  1);
 1079              		.loc 1 288 0
 1080 0116 97F8F830 		ldrb	r3, [r7, #248]	@ zero_extendqisi2
 1081 011a 022B     		cmp	r3, #2
 1082 011c 0AD9     		bls	.L70
 1083              	.LBB5:
 1084              		.loc 1 288 0 is_stmt 0 discriminator 1
 1085 011e 3B68     		ldr	r3, [r7]
 1086 0120 591C     		adds	r1, r3, #1
 1087 0122 07F12403 		add	r3, r7, #36
 1088 0126 0222     		movs	r2, #2
 1089 0128 1846     		mov	r0, r3
 1090 012a FFF7FEFF 		bl	memcpy
 1091 012e B7F92430 		ldrsh	r3, [r7, #36]
 1092              	.LBE5:
 1093 0132 00E0     		b	.L71
 1094              	.L70:
 1095              		.loc 1 288 0 discriminator 2
 1096 0134 0023     		movs	r3, #0
 1097              	.L71:
 1098              		.loc 1 288 0 discriminator 4
 1099 0136 A7F8DE30 		strh	r3, [r7, #222]	@ movhi
 289:main.c        ****     int16_t r3 = SNAP16(p, plen,  3);
 1100              		.loc 1 289 0 is_stmt 1 discriminator 4
 1101 013a 97F8F830 		ldrb	r3, [r7, #248]	@ zero_extendqisi2
 1102 013e 042B     		cmp	r3, #4
 1103 0140 0AD9     		bls	.L72
 1104              	.LBB6:
 1105              		.loc 1 289 0 is_stmt 0 discriminator 1
 1106 0142 3B68     		ldr	r3, [r7]
 1107 0144 D91C     		adds	r1, r3, #3
 1108 0146 07F12203 		add	r3, r7, #34
 1109 014a 0222     		movs	r2, #2
ARM GAS  C:\Users\JENNEW~1\AppData\Local\Temp\ccHH9OS0.s 			page 28


 1110 014c 1846     		mov	r0, r3
 1111 014e FFF7FEFF 		bl	memcpy
 1112 0152 B7F92230 		ldrsh	r3, [r7, #34]
 1113              	.LBE6:
 1114 0156 00E0     		b	.L73
 1115              	.L72:
 1116              		.loc 1 289 0 discriminator 2
 1117 0158 0023     		movs	r3, #0
 1118              	.L73:
 1119              		.loc 1 289 0 discriminator 4
 1120 015a A7F8DC30 		strh	r3, [r7, #220]	@ movhi
 290:main.c        ****     int16_t r5 = SNAP16(p, plen,  5);
 1121              		.loc 1 290 0 is_stmt 1 discriminator 4
 1122 015e 97F8F830 		ldrb	r3, [r7, #248]	@ zero_extendqisi2
 1123 0162 062B     		cmp	r3, #6
 1124 0164 0AD9     		bls	.L74
 1125              	.LBB7:
 1126              		.loc 1 290 0 is_stmt 0 discriminator 1
 1127 0166 3B68     		ldr	r3, [r7]
 1128 0168 591D     		adds	r1, r3, #5
 1129 016a 07F12003 		add	r3, r7, #32
 1130 016e 0222     		movs	r2, #2
 1131 0170 1846     		mov	r0, r3
 1132 0172 FFF7FEFF 		bl	memcpy
 1133 0176 B7F92030 		ldrsh	r3, [r7, #32]
 1134              	.LBE7:
 1135 017a 00E0     		b	.L75
 1136              	.L74:
 1137              		.loc 1 290 0 discriminator 2
 1138 017c 0023     		movs	r3, #0
 1139              	.L75:
 1140              		.loc 1 290 0 discriminator 4
 1141 017e A7F8DA30 		strh	r3, [r7, #218]	@ movhi
 291:main.c        **** 
 292:main.c        ****     /* Axis order confirmed from live GCU data: off1=Pitch off3=Yaw off5=Roll */
 293:main.c        ****     decomp((float)r1 / 100.0f, &vi, &vf, &s);
 1142              		.loc 1 293 0 is_stmt 1 discriminator 4
 1143 0182 B7F9DE30 		ldrsh	r3, [r7, #222]
 1144 0186 1846     		mov	r0, r3
 1145 0188 FFF7FEFF 		bl	__aeabi_i2f
 1146 018c 0346     		mov	r3, r0
 1147 018e 8249     		ldr	r1, .L90+20
 1148 0190 1846     		mov	r0, r3
 1149 0192 FFF7FEFF 		bl	__aeabi_fdiv
 1150 0196 0346     		mov	r3, r0
 1151 0198 1846     		mov	r0, r3
 1152 019a 07F12B03 		add	r3, r7, #43
 1153 019e 07F12602 		add	r2, r7, #38
 1154 01a2 07F12801 		add	r1, r7, #40
 1155 01a6 FFF7FEFF 		bl	decomp
 294:main.c        ****     sprintf(buf, "  off  1  int16  /100   raw=%6d  =>  %c%d.%02d deg  [PITCH]\r\n",
 1156              		.loc 1 294 0 discriminator 4
 1157 01aa B7F9DE20 		ldrsh	r2, [r7, #222]
 1158 01ae 97F82B30 		ldrb	r3, [r7, #43]	@ zero_extendqisi2
 1159 01b2 1C46     		mov	r4, r3
 1160 01b4 B7F92830 		ldrsh	r3, [r7, #40]
 1161 01b8 B7F92610 		ldrsh	r1, [r7, #38]
ARM GAS  C:\Users\JENNEW~1\AppData\Local\Temp\ccHH9OS0.s 			page 29


 1162 01bc 07F12C00 		add	r0, r7, #44
 1163 01c0 0191     		str	r1, [sp, #4]
 1164 01c2 0093     		str	r3, [sp]
 1165 01c4 2346     		mov	r3, r4
 1166 01c6 7549     		ldr	r1, .L90+24
 1167 01c8 FFF7FEFF 		bl	sprintf
 295:main.c        ****             (int)r1, s, (int)vi, (int)vf);
 296:main.c        ****     UART_1_PutString(buf);
 1168              		.loc 1 296 0 discriminator 4
 1169 01cc 07F12C03 		add	r3, r7, #44
 1170 01d0 1846     		mov	r0, r3
 1171 01d2 FFF7FEFF 		bl	UART_1_PutString
 297:main.c        **** 
 298:main.c        ****     decomp((float)r3 / 100.0f, &vi, &vf, &s);
 1172              		.loc 1 298 0 discriminator 4
 1173 01d6 B7F9DC30 		ldrsh	r3, [r7, #220]
 1174 01da 1846     		mov	r0, r3
 1175 01dc FFF7FEFF 		bl	__aeabi_i2f
 1176 01e0 0346     		mov	r3, r0
 1177 01e2 6D49     		ldr	r1, .L90+20
 1178 01e4 1846     		mov	r0, r3
 1179 01e6 FFF7FEFF 		bl	__aeabi_fdiv
 1180 01ea 0346     		mov	r3, r0
 1181 01ec 1846     		mov	r0, r3
 1182 01ee 07F12B03 		add	r3, r7, #43
 1183 01f2 07F12602 		add	r2, r7, #38
 1184 01f6 07F12801 		add	r1, r7, #40
 1185 01fa FFF7FEFF 		bl	decomp
 299:main.c        ****     sprintf(buf, "  off  3  int16  /100   raw=%6d  =>  %c%d.%02d deg  [YAW]\r\n",
 1186              		.loc 1 299 0 discriminator 4
 1187 01fe B7F9DC20 		ldrsh	r2, [r7, #220]
 1188 0202 97F82B30 		ldrb	r3, [r7, #43]	@ zero_extendqisi2
 1189 0206 1C46     		mov	r4, r3
 1190 0208 B7F92830 		ldrsh	r3, [r7, #40]
 1191 020c B7F92610 		ldrsh	r1, [r7, #38]
 1192 0210 07F12C00 		add	r0, r7, #44
 1193 0214 0191     		str	r1, [sp, #4]
 1194 0216 0093     		str	r3, [sp]
 1195 0218 2346     		mov	r3, r4
 1196 021a 6149     		ldr	r1, .L90+28
 1197 021c FFF7FEFF 		bl	sprintf
 300:main.c        ****             (int)r3, s, (int)vi, (int)vf);
 301:main.c        ****     UART_1_PutString(buf);
 1198              		.loc 1 301 0 discriminator 4
 1199 0220 07F12C03 		add	r3, r7, #44
 1200 0224 1846     		mov	r0, r3
 1201 0226 FFF7FEFF 		bl	UART_1_PutString
 302:main.c        **** 
 303:main.c        ****     decomp((float)r5 / 100.0f, &vi, &vf, &s);
 1202              		.loc 1 303 0 discriminator 4
 1203 022a B7F9DA30 		ldrsh	r3, [r7, #218]
 1204 022e 1846     		mov	r0, r3
 1205 0230 FFF7FEFF 		bl	__aeabi_i2f
 1206 0234 0346     		mov	r3, r0
 1207 0236 5849     		ldr	r1, .L90+20
 1208 0238 1846     		mov	r0, r3
 1209 023a FFF7FEFF 		bl	__aeabi_fdiv
ARM GAS  C:\Users\JENNEW~1\AppData\Local\Temp\ccHH9OS0.s 			page 30


 1210 023e 0346     		mov	r3, r0
 1211 0240 1846     		mov	r0, r3
 1212 0242 07F12B03 		add	r3, r7, #43
 1213 0246 07F12602 		add	r2, r7, #38
 1214 024a 07F12801 		add	r1, r7, #40
 1215 024e FFF7FEFF 		bl	decomp
 304:main.c        ****     sprintf(buf, "  off  5  int16  /100   raw=%6d  =>  %c%d.%02d deg  [ROLL]\r\n",
 1216              		.loc 1 304 0 discriminator 4
 1217 0252 B7F9DA20 		ldrsh	r2, [r7, #218]
 1218 0256 97F82B30 		ldrb	r3, [r7, #43]	@ zero_extendqisi2
 1219 025a 1C46     		mov	r4, r3
 1220 025c B7F92830 		ldrsh	r3, [r7, #40]
 1221 0260 B7F92610 		ldrsh	r1, [r7, #38]
 1222 0264 07F12C00 		add	r0, r7, #44
 1223 0268 0191     		str	r1, [sp, #4]
 1224 026a 0093     		str	r3, [sp]
 1225 026c 2346     		mov	r3, r4
 1226 026e 4D49     		ldr	r1, .L90+32
 1227 0270 FFF7FEFF 		bl	sprintf
 305:main.c        ****             (int)r5, s, (int)vi, (int)vf);
 306:main.c        ****     UART_1_PutString(buf);
 1228              		.loc 1 306 0 discriminator 4
 1229 0274 07F12C03 		add	r3, r7, #44
 1230 0278 1846     		mov	r0, r3
 1231 027a FFF7FEFF 		bl	UART_1_PutString
 307:main.c        **** 
 308:main.c        ****     if (plen < 19u) {
 1232              		.loc 1 308 0 discriminator 4
 1233 027e 97F8F830 		ldrb	r3, [r7, #248]	@ zero_extendqisi2
 1234 0282 122B     		cmp	r3, #18
 1235 0284 0DD8     		bhi	.L76
 309:main.c        ****         sprintf(buf, "  (snap only %u bytes -- err/rate fields off 7-17 unavailable)\r\n",
 1236              		.loc 1 309 0
 1237 0286 97F8F820 		ldrb	r2, [r7, #248]	@ zero_extendqisi2
 1238 028a 07F12C03 		add	r3, r7, #44
 1239 028e 4649     		ldr	r1, .L90+36
 1240 0290 1846     		mov	r0, r3
 1241 0292 FFF7FEFF 		bl	sprintf
 310:main.c        ****                 (unsigned)plen);
 311:main.c        ****         UART_1_PutString(buf);
 1242              		.loc 1 311 0
 1243 0296 07F12C03 		add	r3, r7, #44
 1244 029a 1846     		mov	r0, r3
 1245 029c FFF7FEFF 		bl	UART_1_PutString
 312:main.c        ****         return;
 1246              		.loc 1 312 0
 1247 02a0 85E1     		b	.L62
 1248              	.L76:
 313:main.c        ****     }
 314:main.c        **** 
 315:main.c        ****     UART_1_PutString("  -- error + rate fields (off 7-17) --\r\n");
 1249              		.loc 1 315 0
 1250 02a2 4248     		ldr	r0, .L90+40
 1251 02a4 FFF7FEFF 		bl	UART_1_PutString
 316:main.c        ****     int16_t r7  = SNAP16(p, plen,  7);
 1252              		.loc 1 316 0
 1253 02a8 97F8F830 		ldrb	r3, [r7, #248]	@ zero_extendqisi2
ARM GAS  C:\Users\JENNEW~1\AppData\Local\Temp\ccHH9OS0.s 			page 31


 1254 02ac 082B     		cmp	r3, #8
 1255 02ae 0AD9     		bls	.L77
 1256              	.LBB8:
 1257              		.loc 1 316 0 is_stmt 0 discriminator 1
 1258 02b0 3B68     		ldr	r3, [r7]
 1259 02b2 D91D     		adds	r1, r3, #7
 1260 02b4 07F11E03 		add	r3, r7, #30
 1261 02b8 0222     		movs	r2, #2
 1262 02ba 1846     		mov	r0, r3
 1263 02bc FFF7FEFF 		bl	memcpy
 1264 02c0 B7F91E30 		ldrsh	r3, [r7, #30]
 1265              	.LBE8:
 1266 02c4 00E0     		b	.L78
 1267              	.L77:
 1268              		.loc 1 316 0 discriminator 2
 1269 02c6 0023     		movs	r3, #0
 1270              	.L78:
 1271              		.loc 1 316 0 discriminator 4
 1272 02c8 A7F8D830 		strh	r3, [r7, #216]	@ movhi
 317:main.c        ****     int16_t r9  = SNAP16(p, plen,  9);
 1273              		.loc 1 317 0 is_stmt 1 discriminator 4
 1274 02cc 97F8F830 		ldrb	r3, [r7, #248]	@ zero_extendqisi2
 1275 02d0 0A2B     		cmp	r3, #10
 1276 02d2 0BD9     		bls	.L79
 1277              	.LBB9:
 1278              		.loc 1 317 0 is_stmt 0 discriminator 1
 1279 02d4 3B68     		ldr	r3, [r7]
 1280 02d6 03F10901 		add	r1, r3, #9
 1281 02da 07F11C03 		add	r3, r7, #28
 1282 02de 0222     		movs	r2, #2
 1283 02e0 1846     		mov	r0, r3
 1284 02e2 FFF7FEFF 		bl	memcpy
 1285 02e6 B7F91C30 		ldrsh	r3, [r7, #28]
 1286              	.LBE9:
 1287 02ea 00E0     		b	.L80
 1288              	.L79:
 1289              		.loc 1 317 0 discriminator 2
 1290 02ec 0023     		movs	r3, #0
 1291              	.L80:
 1292              		.loc 1 317 0 discriminator 4
 1293 02ee A7F8D630 		strh	r3, [r7, #214]	@ movhi
 318:main.c        ****     int16_t r11 = SNAP16(p, plen, 11);
 1294              		.loc 1 318 0 is_stmt 1 discriminator 4
 1295 02f2 97F8F830 		ldrb	r3, [r7, #248]	@ zero_extendqisi2
 1296 02f6 0C2B     		cmp	r3, #12
 1297 02f8 0BD9     		bls	.L81
 1298              	.LBB10:
 1299              		.loc 1 318 0 is_stmt 0 discriminator 1
 1300 02fa 3B68     		ldr	r3, [r7]
 1301 02fc 03F10B01 		add	r1, r3, #11
 1302 0300 07F11A03 		add	r3, r7, #26
 1303 0304 0222     		movs	r2, #2
 1304 0306 1846     		mov	r0, r3
 1305 0308 FFF7FEFF 		bl	memcpy
 1306 030c B7F91A30 		ldrsh	r3, [r7, #26]
 1307              	.LBE10:
 1308 0310 00E0     		b	.L82
ARM GAS  C:\Users\JENNEW~1\AppData\Local\Temp\ccHH9OS0.s 			page 32


 1309              	.L81:
 1310              		.loc 1 318 0 discriminator 2
 1311 0312 0023     		movs	r3, #0
 1312              	.L82:
 1313              		.loc 1 318 0 discriminator 4
 1314 0314 A7F8D430 		strh	r3, [r7, #212]	@ movhi
 319:main.c        ****     int16_t r13 = SNAP16(p, plen, 13);
 1315              		.loc 1 319 0 is_stmt 1 discriminator 4
 1316 0318 97F8F830 		ldrb	r3, [r7, #248]	@ zero_extendqisi2
 1317 031c 0E2B     		cmp	r3, #14
 1318 031e 0BD9     		bls	.L83
 1319              	.LBB11:
 1320              		.loc 1 319 0 is_stmt 0 discriminator 1
 1321 0320 3B68     		ldr	r3, [r7]
 1322 0322 03F10D01 		add	r1, r3, #13
 1323 0326 07F11803 		add	r3, r7, #24
 1324 032a 0222     		movs	r2, #2
 1325 032c 1846     		mov	r0, r3
 1326 032e FFF7FEFF 		bl	memcpy
 1327 0332 B7F91830 		ldrsh	r3, [r7, #24]
 1328              	.LBE11:
 1329 0336 00E0     		b	.L84
 1330              	.L83:
 1331              		.loc 1 319 0 discriminator 2
 1332 0338 0023     		movs	r3, #0
 1333              	.L84:
 1334              		.loc 1 319 0 discriminator 4
 1335 033a A7F8D230 		strh	r3, [r7, #210]	@ movhi
 320:main.c        ****     int16_t r15 = SNAP16(p, plen, 15);
 1336              		.loc 1 320 0 is_stmt 1 discriminator 4
 1337 033e 97F8F830 		ldrb	r3, [r7, #248]	@ zero_extendqisi2
 1338 0342 102B     		cmp	r3, #16
 1339 0344 0BD9     		bls	.L85
 1340              	.LBB12:
 1341              		.loc 1 320 0 is_stmt 0 discriminator 1
 1342 0346 3B68     		ldr	r3, [r7]
 1343 0348 03F10F01 		add	r1, r3, #15
 1344 034c 07F11603 		add	r3, r7, #22
 1345 0350 0222     		movs	r2, #2
 1346 0352 1846     		mov	r0, r3
 1347 0354 FFF7FEFF 		bl	memcpy
 1348 0358 B7F91630 		ldrsh	r3, [r7, #22]
 1349              	.LBE12:
 1350 035c 00E0     		b	.L86
 1351              	.L85:
 1352              		.loc 1 320 0 discriminator 2
 1353 035e 0023     		movs	r3, #0
 1354              	.L86:
 1355              		.loc 1 320 0 discriminator 4
 1356 0360 A7F8D030 		strh	r3, [r7, #208]	@ movhi
 321:main.c        ****     int16_t r17 = SNAP16(p, plen, 17);
 1357              		.loc 1 321 0 is_stmt 1 discriminator 4
 1358 0364 97F8F830 		ldrb	r3, [r7, #248]	@ zero_extendqisi2
 1359 0368 122B     		cmp	r3, #18
 1360 036a 21D9     		bls	.L87
 1361              	.LBB13:
 1362              		.loc 1 321 0 is_stmt 0 discriminator 1
ARM GAS  C:\Users\JENNEW~1\AppData\Local\Temp\ccHH9OS0.s 			page 33


 1363 036c 3B68     		ldr	r3, [r7]
 1364 036e 03F11101 		add	r1, r3, #17
 1365 0372 07F11403 		add	r3, r7, #20
 1366 0376 0222     		movs	r2, #2
 1367 0378 1846     		mov	r0, r3
 1368 037a FFF7FEFF 		bl	memcpy
 1369 037e B7F91430 		ldrsh	r3, [r7, #20]
 1370              	.LBE13:
 1371 0382 16E0     		b	.L88
 1372              	.L91:
 1373              		.align	2
 1374              	.L90:
 1375 0384 7C010000 		.word	.LC10
 1376 0388 B4010000 		.word	.LC11
 1377 038c C0010000 		.word	.LC12
 1378 0390 C8010000 		.word	.LC13
 1379 0394 CC010000 		.word	.LC14
 1380 0398 0000C842 		.word	1120403456
 1381 039c 08020000 		.word	.LC15
 1382 03a0 48020000 		.word	.LC16
 1383 03a4 84020000 		.word	.LC17
 1384 03a8 C4020000 		.word	.LC18
 1385 03ac 08030000 		.word	.LC19
 1386              	.L87:
 1387              		.loc 1 321 0 discriminator 2
 1388 03b0 0023     		movs	r3, #0
 1389              	.L88:
 1390              		.loc 1 321 0 discriminator 4
 1391 03b2 A7F8CE30 		strh	r3, [r7, #206]	@ movhi
 322:main.c        **** 
 323:main.c        ****     decomp((float)r7  / 10.0f, &vi, &vf, &s);
 1392              		.loc 1 323 0 is_stmt 1 discriminator 4
 1393 03b6 B7F9D830 		ldrsh	r3, [r7, #216]
 1394 03ba 1846     		mov	r0, r3
 1395 03bc FFF7FEFF 		bl	__aeabi_i2f
 1396 03c0 0346     		mov	r3, r0
 1397 03c2 7C49     		ldr	r1, .L92
 1398 03c4 1846     		mov	r0, r3
 1399 03c6 FFF7FEFF 		bl	__aeabi_fdiv
 1400 03ca 0346     		mov	r3, r0
 1401 03cc 1846     		mov	r0, r3
 1402 03ce 07F12B03 		add	r3, r7, #43
 1403 03d2 07F12602 		add	r2, r7, #38
 1404 03d6 07F12801 		add	r1, r7, #40
 1405 03da FFF7FEFF 		bl	decomp
 324:main.c        ****     sprintf(buf, "  off  7  int16  /10    raw=%6d  =>  %c%d.%02d  [roll_err deg]\r\n",
 1406              		.loc 1 324 0 discriminator 4
 1407 03de B7F9D820 		ldrsh	r2, [r7, #216]
 1408 03e2 97F82B30 		ldrb	r3, [r7, #43]	@ zero_extendqisi2
 1409 03e6 1C46     		mov	r4, r3
 1410 03e8 B7F92830 		ldrsh	r3, [r7, #40]
 1411 03ec B7F92610 		ldrsh	r1, [r7, #38]
 1412 03f0 07F12C00 		add	r0, r7, #44
 1413 03f4 0191     		str	r1, [sp, #4]
 1414 03f6 0093     		str	r3, [sp]
 1415 03f8 2346     		mov	r3, r4
 1416 03fa 6F49     		ldr	r1, .L92+4
ARM GAS  C:\Users\JENNEW~1\AppData\Local\Temp\ccHH9OS0.s 			page 34


 1417 03fc FFF7FEFF 		bl	sprintf
 325:main.c        ****             (int)r7, s, (int)vi, (int)vf);
 326:main.c        ****     UART_1_PutString(buf);
 1418              		.loc 1 326 0 discriminator 4
 1419 0400 07F12C03 		add	r3, r7, #44
 1420 0404 1846     		mov	r0, r3
 1421 0406 FFF7FEFF 		bl	UART_1_PutString
 327:main.c        **** 
 328:main.c        ****     decomp((float)r9  / 10.0f, &vi, &vf, &s);
 1422              		.loc 1 328 0 discriminator 4
 1423 040a B7F9D630 		ldrsh	r3, [r7, #214]
 1424 040e 1846     		mov	r0, r3
 1425 0410 FFF7FEFF 		bl	__aeabi_i2f
 1426 0414 0346     		mov	r3, r0
 1427 0416 6749     		ldr	r1, .L92
 1428 0418 1846     		mov	r0, r3
 1429 041a FFF7FEFF 		bl	__aeabi_fdiv
 1430 041e 0346     		mov	r3, r0
 1431 0420 1846     		mov	r0, r3
 1432 0422 07F12B03 		add	r3, r7, #43
 1433 0426 07F12602 		add	r2, r7, #38
 1434 042a 07F12801 		add	r1, r7, #40
 1435 042e FFF7FEFF 		bl	decomp
 329:main.c        ****     sprintf(buf, "  off  9  int16  /10    raw=%6d  =>  %c%d.%02d  [pitch_err deg]\r\n",
 1436              		.loc 1 329 0 discriminator 4
 1437 0432 B7F9D620 		ldrsh	r2, [r7, #214]
 1438 0436 97F82B30 		ldrb	r3, [r7, #43]	@ zero_extendqisi2
 1439 043a 1C46     		mov	r4, r3
 1440 043c B7F92830 		ldrsh	r3, [r7, #40]
 1441 0440 B7F92610 		ldrsh	r1, [r7, #38]
 1442 0444 07F12C00 		add	r0, r7, #44
 1443 0448 0191     		str	r1, [sp, #4]
 1444 044a 0093     		str	r3, [sp]
 1445 044c 2346     		mov	r3, r4
 1446 044e 5B49     		ldr	r1, .L92+8
 1447 0450 FFF7FEFF 		bl	sprintf
 330:main.c        ****             (int)r9, s, (int)vi, (int)vf);
 331:main.c        ****     UART_1_PutString(buf);
 1448              		.loc 1 331 0 discriminator 4
 1449 0454 07F12C03 		add	r3, r7, #44
 1450 0458 1846     		mov	r0, r3
 1451 045a FFF7FEFF 		bl	UART_1_PutString
 332:main.c        **** 
 333:main.c        ****     decomp((float)r11 / 10.0f, &vi, &vf, &s);
 1452              		.loc 1 333 0 discriminator 4
 1453 045e B7F9D430 		ldrsh	r3, [r7, #212]
 1454 0462 1846     		mov	r0, r3
 1455 0464 FFF7FEFF 		bl	__aeabi_i2f
 1456 0468 0346     		mov	r3, r0
 1457 046a 5249     		ldr	r1, .L92
 1458 046c 1846     		mov	r0, r3
 1459 046e FFF7FEFF 		bl	__aeabi_fdiv
 1460 0472 0346     		mov	r3, r0
 1461 0474 1846     		mov	r0, r3
 1462 0476 07F12B03 		add	r3, r7, #43
 1463 047a 07F12602 		add	r2, r7, #38
 1464 047e 07F12801 		add	r1, r7, #40
ARM GAS  C:\Users\JENNEW~1\AppData\Local\Temp\ccHH9OS0.s 			page 35


 1465 0482 FFF7FEFF 		bl	decomp
 334:main.c        ****     sprintf(buf, "  off 11  int16  /10    raw=%6d  =>  %c%d.%02d  [yaw_err deg]\r\n",
 1466              		.loc 1 334 0 discriminator 4
 1467 0486 B7F9D420 		ldrsh	r2, [r7, #212]
 1468 048a 97F82B30 		ldrb	r3, [r7, #43]	@ zero_extendqisi2
 1469 048e 1C46     		mov	r4, r3
 1470 0490 B7F92830 		ldrsh	r3, [r7, #40]
 1471 0494 B7F92610 		ldrsh	r1, [r7, #38]
 1472 0498 07F12C00 		add	r0, r7, #44
 1473 049c 0191     		str	r1, [sp, #4]
 1474 049e 0093     		str	r3, [sp]
 1475 04a0 2346     		mov	r3, r4
 1476 04a2 4749     		ldr	r1, .L92+12
 1477 04a4 FFF7FEFF 		bl	sprintf
 335:main.c        ****             (int)r11, s, (int)vi, (int)vf);
 336:main.c        ****     UART_1_PutString(buf);
 1478              		.loc 1 336 0 discriminator 4
 1479 04a8 07F12C03 		add	r3, r7, #44
 1480 04ac 1846     		mov	r0, r3
 1481 04ae FFF7FEFF 		bl	UART_1_PutString
 337:main.c        **** 
 338:main.c        ****     decomp((float)r13 / 10.0f, &vi, &vf, &s);
 1482              		.loc 1 338 0 discriminator 4
 1483 04b2 B7F9D230 		ldrsh	r3, [r7, #210]
 1484 04b6 1846     		mov	r0, r3
 1485 04b8 FFF7FEFF 		bl	__aeabi_i2f
 1486 04bc 0346     		mov	r3, r0
 1487 04be 3D49     		ldr	r1, .L92
 1488 04c0 1846     		mov	r0, r3
 1489 04c2 FFF7FEFF 		bl	__aeabi_fdiv
 1490 04c6 0346     		mov	r3, r0
 1491 04c8 1846     		mov	r0, r3
 1492 04ca 07F12B03 		add	r3, r7, #43
 1493 04ce 07F12602 		add	r2, r7, #38
 1494 04d2 07F12801 		add	r1, r7, #40
 1495 04d6 FFF7FEFF 		bl	decomp
 339:main.c        ****     sprintf(buf, "  off 13  int16  /10    raw=%6d  =>  %c%d.%02d  [roll_rate_cmd deg/s]\r\n",
 1496              		.loc 1 339 0 discriminator 4
 1497 04da B7F9D220 		ldrsh	r2, [r7, #210]
 1498 04de 97F82B30 		ldrb	r3, [r7, #43]	@ zero_extendqisi2
 1499 04e2 1C46     		mov	r4, r3
 1500 04e4 B7F92830 		ldrsh	r3, [r7, #40]
 1501 04e8 B7F92610 		ldrsh	r1, [r7, #38]
 1502 04ec 07F12C00 		add	r0, r7, #44
 1503 04f0 0191     		str	r1, [sp, #4]
 1504 04f2 0093     		str	r3, [sp]
 1505 04f4 2346     		mov	r3, r4
 1506 04f6 3349     		ldr	r1, .L92+16
 1507 04f8 FFF7FEFF 		bl	sprintf
 340:main.c        ****             (int)r13, s, (int)vi, (int)vf);
 341:main.c        ****     UART_1_PutString(buf);
 1508              		.loc 1 341 0 discriminator 4
 1509 04fc 07F12C03 		add	r3, r7, #44
 1510 0500 1846     		mov	r0, r3
 1511 0502 FFF7FEFF 		bl	UART_1_PutString
 342:main.c        **** 
 343:main.c        ****     decomp((float)r15 / 10.0f, &vi, &vf, &s);
ARM GAS  C:\Users\JENNEW~1\AppData\Local\Temp\ccHH9OS0.s 			page 36


 1512              		.loc 1 343 0 discriminator 4
 1513 0506 B7F9D030 		ldrsh	r3, [r7, #208]
 1514 050a 1846     		mov	r0, r3
 1515 050c FFF7FEFF 		bl	__aeabi_i2f
 1516 0510 0346     		mov	r3, r0
 1517 0512 2849     		ldr	r1, .L92
 1518 0514 1846     		mov	r0, r3
 1519 0516 FFF7FEFF 		bl	__aeabi_fdiv
 1520 051a 0346     		mov	r3, r0
 1521 051c 1846     		mov	r0, r3
 1522 051e 07F12B03 		add	r3, r7, #43
 1523 0522 07F12602 		add	r2, r7, #38
 1524 0526 07F12801 		add	r1, r7, #40
 1525 052a FFF7FEFF 		bl	decomp
 344:main.c        ****     sprintf(buf, "  off 15  int16  /10    raw=%6d  =>  %c%d.%02d  [pitch_rate_cmd deg/s]\r\n",
 1526              		.loc 1 344 0 discriminator 4
 1527 052e B7F9D020 		ldrsh	r2, [r7, #208]
 1528 0532 97F82B30 		ldrb	r3, [r7, #43]	@ zero_extendqisi2
 1529 0536 1C46     		mov	r4, r3
 1530 0538 B7F92830 		ldrsh	r3, [r7, #40]
 1531 053c B7F92610 		ldrsh	r1, [r7, #38]
 1532 0540 07F12C00 		add	r0, r7, #44
 1533 0544 0191     		str	r1, [sp, #4]
 1534 0546 0093     		str	r3, [sp]
 1535 0548 2346     		mov	r3, r4
 1536 054a 1F49     		ldr	r1, .L92+20
 1537 054c FFF7FEFF 		bl	sprintf
 345:main.c        ****             (int)r15, s, (int)vi, (int)vf);
 346:main.c        ****     UART_1_PutString(buf);
 1538              		.loc 1 346 0 discriminator 4
 1539 0550 07F12C03 		add	r3, r7, #44
 1540 0554 1846     		mov	r0, r3
 1541 0556 FFF7FEFF 		bl	UART_1_PutString
 347:main.c        **** 
 348:main.c        ****     decomp((float)r17 / 10.0f, &vi, &vf, &s);
 1542              		.loc 1 348 0 discriminator 4
 1543 055a B7F9CE30 		ldrsh	r3, [r7, #206]
 1544 055e 1846     		mov	r0, r3
 1545 0560 FFF7FEFF 		bl	__aeabi_i2f
 1546 0564 0346     		mov	r3, r0
 1547 0566 1349     		ldr	r1, .L92
 1548 0568 1846     		mov	r0, r3
 1549 056a FFF7FEFF 		bl	__aeabi_fdiv
 1550 056e 0346     		mov	r3, r0
 1551 0570 1846     		mov	r0, r3
 1552 0572 07F12B03 		add	r3, r7, #43
 1553 0576 07F12602 		add	r2, r7, #38
 1554 057a 07F12801 		add	r1, r7, #40
 1555 057e FFF7FEFF 		bl	decomp
 349:main.c        ****     sprintf(buf, "  off 17  int16  /10    raw=%6d  =>  %c%d.%02d  [yaw_rate_cmd deg/s]\r\n",
 1556              		.loc 1 349 0 discriminator 4
 1557 0582 B7F9CE20 		ldrsh	r2, [r7, #206]
 1558 0586 97F82B30 		ldrb	r3, [r7, #43]	@ zero_extendqisi2
 1559 058a 1C46     		mov	r4, r3
 1560 058c B7F92830 		ldrsh	r3, [r7, #40]
 1561 0590 B7F92610 		ldrsh	r1, [r7, #38]
 1562 0594 07F12C00 		add	r0, r7, #44
ARM GAS  C:\Users\JENNEW~1\AppData\Local\Temp\ccHH9OS0.s 			page 37


 1563 0598 0191     		str	r1, [sp, #4]
 1564 059a 0093     		str	r3, [sp]
 1565 059c 2346     		mov	r3, r4
 1566 059e 0B49     		ldr	r1, .L92+24
 1567 05a0 FFF7FEFF 		bl	sprintf
 350:main.c        ****             (int)r17, s, (int)vi, (int)vf);
 351:main.c        ****     UART_1_PutString(buf);
 1568              		.loc 1 351 0 discriminator 4
 1569 05a4 07F12C03 		add	r3, r7, #44
 1570 05a8 1846     		mov	r0, r3
 1571 05aa FFF7FEFF 		bl	UART_1_PutString
 1572              	.L62:
 352:main.c        **** }
 1573              		.loc 1 352 0
 1574 05ae EC37     		adds	r7, r7, #236
 1575              		.cfi_def_cfa_offset 12
 1576 05b0 BD46     		mov	sp, r7
 1577              		.cfi_def_cfa_register 13
 1578              		@ sp needed
 1579 05b2 90BD     		pop	{r4, r7, pc}
 1580              	.L93:
 1581              		.align	2
 1582              	.L92:
 1583 05b4 00002041 		.word	1092616192
 1584 05b8 34030000 		.word	.LC20
 1585 05bc 78030000 		.word	.LC21
 1586 05c0 BC030000 		.word	.LC22
 1587 05c4 FC030000 		.word	.LC23
 1588 05c8 44040000 		.word	.LC24
 1589 05cc 90040000 		.word	.LC25
 1590              		.cfi_endproc
 1591              	.LFE73:
 1592              		.size	print_test_attitude, .-print_test_attitude
 1593              		.section	.rodata
 1594 04d7 00       		.align	2
 1595              	.LC26:
 1596 04d8 0D0A5B54 		.ascii	"\015\012[TEST][GPS] attr=4  dt=%lums  rxlen=%u  sna"
 1596      4553545D 
 1596      5B475053 
 1596      5D206174 
 1596      74723D34 
 1597 0505 706C656E 		.ascii	"plen=%u\015\012\000"
 1597      3D25750D 
 1597      0A00
 1598 050f 00       		.align	2
 1599              	.LC27:
 1600 0510 20204552 		.ascii	"  ERROR: snapshot only %u bytes -- need 12 minimum\015"
 1600      524F523A 
 1600      20736E61 
 1600      7073686F 
 1600      74206F6E 
 1601 0543 0A00     		.ascii	"\012\000"
 1602 0545 000000   		.align	2
 1603              	.LC28:
 1604 0548 20206F66 		.ascii	"  off  0  int32BE /1e7   raw=%ld  =>  %c%ld.%07ld d"
 1604      66202030 
 1604      2020696E 
ARM GAS  C:\Users\JENNEW~1\AppData\Local\Temp\ccHH9OS0.s 			page 38


 1604      74333242 
 1604      45202F31 
 1605 057b 65672020 		.ascii	"eg  [LON]\015\012\000"
 1605      5B4C4F4E 
 1605      5D0D0A00 
 1606 0587 00       		.align	2
 1607              	.LC29:
 1608 0588 20206F66 		.ascii	"  off  4  int32BE /1e7   raw=%ld  =>  %c%ld.%07ld d"
 1608      66202034 
 1608      2020696E 
 1608      74333242 
 1608      45202F31 
 1609 05bb 65672020 		.ascii	"eg  [LAT]\015\012\000"
 1609      5B4C4154 
 1609      5D0D0A00 
 1610 05c7 00       		.align	2
 1611              	.LC30:
 1612 05c8 20206F66 		.ascii	"  off  8  int32BE /1000  raw=%ld  =>  %c%ld.%03ld m"
 1612      66202038 
 1612      2020696E 
 1612      74333242 
 1612      45202F31 
 1613 05fb 204D534C 		.ascii	" MSL  [ALT]\015\012\000"
 1613      20205B41 
 1613      4C545D0D 
 1613      0A00
 1614 0609 000000   		.align	2
 1615              	.LC31:
 1616 060c 20202873 		.ascii	"  (snap only %u bytes -- speed/hdg/acc fields unava"
 1616      6E617020 
 1616      6F6E6C79 
 1616      20257520 
 1616      62797465 
 1617 063f 696C6162 		.ascii	"ilable)\015\012\000"
 1617      6C65290D 
 1617      0A00
 1618 0649 000000   		.align	2
 1619              	.LC32:
 1620 064c 20206F66 		.ascii	"  off 12  int16BE /100   raw=%6d  =>  %c%d.%02d m/s"
 1620      66203132 
 1620      2020696E 
 1620      74313642 
 1620      45202F31 
 1621 067f 20205B47 		.ascii	"  [GND SPD]\015\012\000"
 1621      4E442053 
 1621      50445D0D 
 1621      0A00
 1622 068d 000000   		.align	2
 1623              	.LC33:
 1624 0690 20206F66 		.ascii	"  off 14  int16BE /10    raw=%6d  =>  %c%d.%02d deg"
 1624      66203134 
 1624      2020696E 
 1624      74313642 
 1624      45202F31 
 1625 06c3 20205B48 		.ascii	"  [HDG]\015\012\000"
 1625      44475D0D 
 1625      0A00
ARM GAS  C:\Users\JENNEW~1\AppData\Local\Temp\ccHH9OS0.s 			page 39


 1626 06cd 000000   		.align	2
 1627              	.LC34:
 1628 06d0 20206F66 		.ascii	"  off 16  int16BE /100   raw=%6d  =>  %c%d.%02d m  "
 1628      66203136 
 1628      2020696E 
 1628      74313642 
 1628      45202F31 
 1629 0703 5B484143 		.ascii	"[HACC]\015\012\000"
 1629      435D0D0A 
 1629      00
 1630              		.align	2
 1631              	.LC35:
 1632 070c 20206F66 		.ascii	"  off 18  int16BE /100   raw=%6d  =>  %c%d.%02d m  "
 1632      66203138 
 1632      2020696E 
 1632      74313642 
 1632      45202F31 
 1633 073f 5B564143 		.ascii	"[VACC]\015\012\000"
 1633      435D0D0A 
 1633      00
 1634              		.align	2
 1635              	.LC36:
 1636 0748 20206F66 		.ascii	"  off 20  int16BE /100   raw=%6d  =>  %c%d.%02d m/s"
 1636      66203230 
 1636      2020696E 
 1636      74313642 
 1636      45202F31 
 1637 077b 20205B53 		.ascii	"  [SACC]\015\012\000"
 1637      4143435D 
 1637      0D0A00
 1638              		.section	.text.print_test_gps,"ax",%progbits
 1639              		.align	2
 1640              		.thumb
 1641              		.thumb_func
 1642              		.type	print_test_gps, %function
 1643              	print_test_gps:
 1644              	.LFB74:
 353:main.c        **** 
 354:main.c        **** /* --- attr 4: GPS ---
 355:main.c        ****  * Big-endian, no sub-index. off 0=lon, off 4=lat (confirmed). */
 356:main.c        **** static void print_test_gps(const movi_status_t* st, uint32_t dt,
 357:main.c        ****                             uint16_t rxlen, const uint8_t* p, uint8_t plen)
 358:main.c        **** {
 1645              		.loc 1 358 0
 1646              		.cfi_startproc
 1647              		@ args = 4, pretend = 0, frame = 224
 1648              		@ frame_needed = 1, uses_anonymous_args = 0
 1649 0000 90B5     		push	{r4, r7, lr}
 1650              		.cfi_def_cfa_offset 12
 1651              		.cfi_offset 4, -12
 1652              		.cfi_offset 7, -8
 1653              		.cfi_offset 14, -4
 1654 0002 BBB0     		sub	sp, sp, #236
 1655              		.cfi_def_cfa_offset 248
 1656 0004 02AF     		add	r7, sp, #8
 1657              		.cfi_def_cfa 7, 240
 1658 0006 F860     		str	r0, [r7, #12]
ARM GAS  C:\Users\JENNEW~1\AppData\Local\Temp\ccHH9OS0.s 			page 40


 1659 0008 B960     		str	r1, [r7, #8]
 1660 000a 3B60     		str	r3, [r7]
 1661 000c 1346     		mov	r3, r2	@ movhi
 1662 000e FB80     		strh	r3, [r7, #6]	@ movhi
 359:main.c        ****     char buf[TRANSMIT_BUFFER_SIZE];
 360:main.c        ****     (void)st;
 361:main.c        **** 
 362:main.c        ****     sprintf(buf, "\r\n[TEST][GPS] attr=4  dt=%lums  rxlen=%u  snaplen=%u\r\n",
 1663              		.loc 1 362 0
 1664 0010 FA88     		ldrh	r2, [r7, #6]
 1665 0012 97F8F030 		ldrb	r3, [r7, #240]	@ zero_extendqisi2
 1666 0016 07F12000 		add	r0, r7, #32
 1667 001a 0093     		str	r3, [sp]
 1668 001c 1346     		mov	r3, r2
 1669 001e BA68     		ldr	r2, [r7, #8]
 1670 0020 C049     		ldr	r1, .L120
 1671 0022 FFF7FEFF 		bl	sprintf
 363:main.c        ****             (unsigned long)dt, (unsigned)rxlen, (unsigned)plen);
 364:main.c        ****     UART_1_PutString(buf);
 1672              		.loc 1 364 0
 1673 0026 07F12003 		add	r3, r7, #32
 1674 002a 1846     		mov	r0, r3
 1675 002c FFF7FEFF 		bl	UART_1_PutString
 1676              	.LBB14:
 365:main.c        **** 
 366:main.c        ****     /* Raw hex dump */
 367:main.c        ****     {
 368:main.c        ****         uint8_t row, col;
 369:main.c        ****         for (row = 0u; row < plen; row += 8u) {
 1677              		.loc 1 369 0
 1678 0030 0023     		movs	r3, #0
 1679 0032 87F8DF30 		strb	r3, [r7, #223]
 1680 0036 56E0     		b	.L95
 1681              	.L99:
 1682              	.LBB15:
 370:main.c        ****             char* bp = buf;
 1683              		.loc 1 370 0
 1684 0038 07F12003 		add	r3, r7, #32
 1685 003c C7F8D830 		str	r3, [r7, #216]
 371:main.c        ****             bp += sprintf(bp, "  off%02u:", (unsigned)row);
 1686              		.loc 1 371 0
 1687 0040 97F8DF30 		ldrb	r3, [r7, #223]	@ zero_extendqisi2
 1688 0044 1A46     		mov	r2, r3
 1689 0046 B849     		ldr	r1, .L120+4
 1690 0048 D7F8D800 		ldr	r0, [r7, #216]
 1691 004c FFF7FEFF 		bl	sprintf
 1692 0050 0346     		mov	r3, r0
 1693 0052 1A46     		mov	r2, r3
 1694 0054 D7F8D830 		ldr	r3, [r7, #216]
 1695 0058 1344     		add	r3, r3, r2
 1696 005a C7F8D830 		str	r3, [r7, #216]
 372:main.c        ****             for (col = 0u; col < 8u && (row + col) < plen; col++)
 1697              		.loc 1 372 0
 1698 005e 0023     		movs	r3, #0
 1699 0060 87F8DE30 		strb	r3, [r7, #222]
 1700 0064 1AE0     		b	.L96
 1701              	.L98:
ARM GAS  C:\Users\JENNEW~1\AppData\Local\Temp\ccHH9OS0.s 			page 41


 373:main.c        ****                 bp += sprintf(bp, " %02X", (unsigned)p[row + col]);
 1702              		.loc 1 373 0 discriminator 4
 1703 0066 97F8DF20 		ldrb	r2, [r7, #223]	@ zero_extendqisi2
 1704 006a 97F8DE30 		ldrb	r3, [r7, #222]	@ zero_extendqisi2
 1705 006e 1344     		add	r3, r3, r2
 1706 0070 1A46     		mov	r2, r3
 1707 0072 3B68     		ldr	r3, [r7]
 1708 0074 1344     		add	r3, r3, r2
 1709 0076 1B78     		ldrb	r3, [r3]	@ zero_extendqisi2
 1710 0078 1A46     		mov	r2, r3
 1711 007a AC49     		ldr	r1, .L120+8
 1712 007c D7F8D800 		ldr	r0, [r7, #216]
 1713 0080 FFF7FEFF 		bl	sprintf
 1714 0084 0346     		mov	r3, r0
 1715 0086 1A46     		mov	r2, r3
 1716 0088 D7F8D830 		ldr	r3, [r7, #216]
 1717 008c 1344     		add	r3, r3, r2
 1718 008e C7F8D830 		str	r3, [r7, #216]
 372:main.c        ****             for (col = 0u; col < 8u && (row + col) < plen; col++)
 1719              		.loc 1 372 0 discriminator 4
 1720 0092 97F8DE30 		ldrb	r3, [r7, #222]	@ zero_extendqisi2
 1721 0096 0133     		adds	r3, r3, #1
 1722 0098 87F8DE30 		strb	r3, [r7, #222]
 1723              	.L96:
 372:main.c        ****             for (col = 0u; col < 8u && (row + col) < plen; col++)
 1724              		.loc 1 372 0 is_stmt 0 discriminator 1
 1725 009c 97F8DE30 		ldrb	r3, [r7, #222]	@ zero_extendqisi2
 1726 00a0 072B     		cmp	r3, #7
 1727 00a2 08D8     		bhi	.L97
 372:main.c        ****             for (col = 0u; col < 8u && (row + col) < plen; col++)
 1728              		.loc 1 372 0 discriminator 3
 1729 00a4 97F8DF20 		ldrb	r2, [r7, #223]	@ zero_extendqisi2
 1730 00a8 97F8DE30 		ldrb	r3, [r7, #222]	@ zero_extendqisi2
 1731 00ac 1A44     		add	r2, r2, r3
 1732 00ae 97F8F030 		ldrb	r3, [r7, #240]	@ zero_extendqisi2
 1733 00b2 9A42     		cmp	r2, r3
 1734 00b4 D7DB     		blt	.L98
 1735              	.L97:
 374:main.c        ****             bp += sprintf(bp, "\r\n");
 1736              		.loc 1 374 0 is_stmt 1 discriminator 2
 1737 00b6 D7F8D830 		ldr	r3, [r7, #216]
 1738 00ba 9D4A     		ldr	r2, .L120+12
 1739 00bc 1188     		ldrh	r1, [r2]	@ unaligned
 1740 00be 9278     		ldrb	r2, [r2, #2]
 1741 00c0 1980     		strh	r1, [r3]	@ unaligned
 1742 00c2 9A70     		strb	r2, [r3, #2]
 1743 00c4 0223     		movs	r3, #2
 1744 00c6 1A46     		mov	r2, r3
 1745 00c8 D7F8D830 		ldr	r3, [r7, #216]
 1746 00cc 1344     		add	r3, r3, r2
 1747 00ce C7F8D830 		str	r3, [r7, #216]
 375:main.c        ****             UART_1_PutString(buf);
 1748              		.loc 1 375 0 discriminator 2
 1749 00d2 07F12003 		add	r3, r7, #32
 1750 00d6 1846     		mov	r0, r3
 1751 00d8 FFF7FEFF 		bl	UART_1_PutString
 1752              	.LBE15:
ARM GAS  C:\Users\JENNEW~1\AppData\Local\Temp\ccHH9OS0.s 			page 42


 369:main.c        ****             char* bp = buf;
 1753              		.loc 1 369 0 discriminator 2
 1754 00dc 97F8DF30 		ldrb	r3, [r7, #223]
 1755 00e0 0833     		adds	r3, r3, #8
 1756 00e2 87F8DF30 		strb	r3, [r7, #223]
 1757              	.L95:
 369:main.c        ****             char* bp = buf;
 1758              		.loc 1 369 0 is_stmt 0 discriminator 1
 1759 00e6 97F8DF20 		ldrb	r2, [r7, #223]	@ zero_extendqisi2
 1760 00ea 97F8F030 		ldrb	r3, [r7, #240]	@ zero_extendqisi2
 1761 00ee 9A42     		cmp	r2, r3
 1762 00f0 A2D3     		bcc	.L99
 1763              	.LBE14:
 376:main.c        ****         }
 377:main.c        ****     }
 378:main.c        **** 
 379:main.c        ****     if (plen < 12u) {
 1764              		.loc 1 379 0 is_stmt 1
 1765 00f2 97F8F030 		ldrb	r3, [r7, #240]	@ zero_extendqisi2
 1766 00f6 0B2B     		cmp	r3, #11
 1767 00f8 0DD8     		bhi	.L100
 380:main.c        ****         sprintf(buf, "  ERROR: snapshot only %u bytes -- need 12 minimum\r\n",
 1768              		.loc 1 380 0
 1769 00fa 97F8F020 		ldrb	r2, [r7, #240]	@ zero_extendqisi2
 1770 00fe 07F12003 		add	r3, r7, #32
 1771 0102 8C49     		ldr	r1, .L120+16
 1772 0104 1846     		mov	r0, r3
 1773 0106 FFF7FEFF 		bl	sprintf
 381:main.c        ****                 (unsigned)plen);
 382:main.c        ****         UART_1_PutString(buf);
 1774              		.loc 1 382 0
 1775 010a 07F12003 		add	r3, r7, #32
 1776 010e 1846     		mov	r0, r3
 1777 0110 FFF7FEFF 		bl	UART_1_PutString
 383:main.c        ****         return;
 1778              		.loc 1 383 0
 1779 0114 FDE1     		b	.L94
 1780              	.L100:
 384:main.c        ****     }
 385:main.c        **** 
 386:main.c        ****     long i_part, f_part;
 387:main.c        ****     char sign;
 388:main.c        ****     char s; int16 vi, vf;
 389:main.c        **** 
 390:main.c        ****     /* int32 BE, no sub-index: lon at off 0, lat at off 4 */
 391:main.c        ****     int32_t lon_r = SNAP32BE(p, plen,  0);
 1781              		.loc 1 391 0
 1782 0116 97F8F030 		ldrb	r3, [r7, #240]	@ zero_extendqisi2
 1783 011a 032B     		cmp	r3, #3
 1784 011c 11D9     		bls	.L102
 1785              		.loc 1 391 0 is_stmt 0 discriminator 1
 1786 011e 3B68     		ldr	r3, [r7]
 1787 0120 1B78     		ldrb	r3, [r3]	@ zero_extendqisi2
 1788 0122 1A06     		lsls	r2, r3, #24
 1789 0124 3B68     		ldr	r3, [r7]
 1790 0126 0133     		adds	r3, r3, #1
 1791 0128 1B78     		ldrb	r3, [r3]	@ zero_extendqisi2
ARM GAS  C:\Users\JENNEW~1\AppData\Local\Temp\ccHH9OS0.s 			page 43


 1792 012a 1B04     		lsls	r3, r3, #16
 1793 012c 1A43     		orrs	r2, r2, r3
 1794 012e 3B68     		ldr	r3, [r7]
 1795 0130 0233     		adds	r3, r3, #2
 1796 0132 1B78     		ldrb	r3, [r3]	@ zero_extendqisi2
 1797 0134 1B02     		lsls	r3, r3, #8
 1798 0136 1343     		orrs	r3, r3, r2
 1799 0138 3A68     		ldr	r2, [r7]
 1800 013a 0332     		adds	r2, r2, #3
 1801 013c 1278     		ldrb	r2, [r2]	@ zero_extendqisi2
 1802 013e 1343     		orrs	r3, r3, r2
 1803 0140 00E0     		b	.L103
 1804              	.L102:
 1805              		.loc 1 391 0 discriminator 2
 1806 0142 0023     		movs	r3, #0
 1807              	.L103:
 1808              		.loc 1 391 0 discriminator 4
 1809 0144 C7F8D430 		str	r3, [r7, #212]
 392:main.c        ****     int32_t lat_r = SNAP32BE(p, plen,  4);
 1810              		.loc 1 392 0 is_stmt 1 discriminator 4
 1811 0148 97F8F030 		ldrb	r3, [r7, #240]	@ zero_extendqisi2
 1812 014c 072B     		cmp	r3, #7
 1813 014e 12D9     		bls	.L104
 1814              		.loc 1 392 0 is_stmt 0 discriminator 1
 1815 0150 3B68     		ldr	r3, [r7]
 1816 0152 0433     		adds	r3, r3, #4
 1817 0154 1B78     		ldrb	r3, [r3]	@ zero_extendqisi2
 1818 0156 1A06     		lsls	r2, r3, #24
 1819 0158 3B68     		ldr	r3, [r7]
 1820 015a 0533     		adds	r3, r3, #5
 1821 015c 1B78     		ldrb	r3, [r3]	@ zero_extendqisi2
 1822 015e 1B04     		lsls	r3, r3, #16
 1823 0160 1A43     		orrs	r2, r2, r3
 1824 0162 3B68     		ldr	r3, [r7]
 1825 0164 0633     		adds	r3, r3, #6
 1826 0166 1B78     		ldrb	r3, [r3]	@ zero_extendqisi2
 1827 0168 1B02     		lsls	r3, r3, #8
 1828 016a 1343     		orrs	r3, r3, r2
 1829 016c 3A68     		ldr	r2, [r7]
 1830 016e 0732     		adds	r2, r2, #7
 1831 0170 1278     		ldrb	r2, [r2]	@ zero_extendqisi2
 1832 0172 1343     		orrs	r3, r3, r2
 1833 0174 00E0     		b	.L105
 1834              	.L104:
 1835              		.loc 1 392 0 discriminator 2
 1836 0176 0023     		movs	r3, #0
 1837              	.L105:
 1838              		.loc 1 392 0 discriminator 4
 1839 0178 C7F8D030 		str	r3, [r7, #208]
 393:main.c        ****     int32_t alt_r = SNAP32BE(p, plen,  8);
 1840              		.loc 1 393 0 is_stmt 1 discriminator 4
 1841 017c 97F8F030 		ldrb	r3, [r7, #240]	@ zero_extendqisi2
 1842 0180 0B2B     		cmp	r3, #11
 1843 0182 12D9     		bls	.L106
 1844              		.loc 1 393 0 is_stmt 0 discriminator 1
 1845 0184 3B68     		ldr	r3, [r7]
 1846 0186 0833     		adds	r3, r3, #8
ARM GAS  C:\Users\JENNEW~1\AppData\Local\Temp\ccHH9OS0.s 			page 44


 1847 0188 1B78     		ldrb	r3, [r3]	@ zero_extendqisi2
 1848 018a 1A06     		lsls	r2, r3, #24
 1849 018c 3B68     		ldr	r3, [r7]
 1850 018e 0933     		adds	r3, r3, #9
 1851 0190 1B78     		ldrb	r3, [r3]	@ zero_extendqisi2
 1852 0192 1B04     		lsls	r3, r3, #16
 1853 0194 1A43     		orrs	r2, r2, r3
 1854 0196 3B68     		ldr	r3, [r7]
 1855 0198 0A33     		adds	r3, r3, #10
 1856 019a 1B78     		ldrb	r3, [r3]	@ zero_extendqisi2
 1857 019c 1B02     		lsls	r3, r3, #8
 1858 019e 1343     		orrs	r3, r3, r2
 1859 01a0 3A68     		ldr	r2, [r7]
 1860 01a2 0B32     		adds	r2, r2, #11
 1861 01a4 1278     		ldrb	r2, [r2]	@ zero_extendqisi2
 1862 01a6 1343     		orrs	r3, r3, r2
 1863 01a8 00E0     		b	.L107
 1864              	.L106:
 1865              		.loc 1 393 0 discriminator 2
 1866 01aa 0023     		movs	r3, #0
 1867              	.L107:
 1868              		.loc 1 393 0 discriminator 4
 1869 01ac C7F8CC30 		str	r3, [r7, #204]
 394:main.c        **** 
 395:main.c        ****     sign = split32(lon_r, 10000000L, &i_part, &f_part);
 1870              		.loc 1 395 0 is_stmt 1 discriminator 4
 1871 01b0 07F11803 		add	r3, r7, #24
 1872 01b4 07F11C02 		add	r2, r7, #28
 1873 01b8 5F49     		ldr	r1, .L120+20
 1874 01ba D7F8D400 		ldr	r0, [r7, #212]
 1875 01be FFF7FEFF 		bl	split32
 1876 01c2 0346     		mov	r3, r0
 1877 01c4 87F8CB30 		strb	r3, [r7, #203]
 396:main.c        ****     sprintf(buf, "  off  0  int32BE /1e7   raw=%ld  =>  %c%ld.%07ld deg  [LON]\r\n",
 1878              		.loc 1 396 0 discriminator 4
 1879 01c8 97F8CB10 		ldrb	r1, [r7, #203]	@ zero_extendqisi2
 1880 01cc FB69     		ldr	r3, [r7, #28]
 1881 01ce BA69     		ldr	r2, [r7, #24]
 1882 01d0 07F12000 		add	r0, r7, #32
 1883 01d4 0192     		str	r2, [sp, #4]
 1884 01d6 0093     		str	r3, [sp]
 1885 01d8 0B46     		mov	r3, r1
 1886 01da D7F8D420 		ldr	r2, [r7, #212]
 1887 01de 5749     		ldr	r1, .L120+24
 1888 01e0 FFF7FEFF 		bl	sprintf
 397:main.c        ****             (long)lon_r, sign, i_part, f_part);
 398:main.c        ****     UART_1_PutString(buf);
 1889              		.loc 1 398 0 discriminator 4
 1890 01e4 07F12003 		add	r3, r7, #32
 1891 01e8 1846     		mov	r0, r3
 1892 01ea FFF7FEFF 		bl	UART_1_PutString
 399:main.c        **** 
 400:main.c        ****     sign = split32(lat_r, 10000000L, &i_part, &f_part);
 1893              		.loc 1 400 0 discriminator 4
 1894 01ee 07F11803 		add	r3, r7, #24
 1895 01f2 07F11C02 		add	r2, r7, #28
 1896 01f6 5049     		ldr	r1, .L120+20
ARM GAS  C:\Users\JENNEW~1\AppData\Local\Temp\ccHH9OS0.s 			page 45


 1897 01f8 D7F8D000 		ldr	r0, [r7, #208]
 1898 01fc FFF7FEFF 		bl	split32
 1899 0200 0346     		mov	r3, r0
 1900 0202 87F8CB30 		strb	r3, [r7, #203]
 401:main.c        ****     sprintf(buf, "  off  4  int32BE /1e7   raw=%ld  =>  %c%ld.%07ld deg  [LAT]\r\n",
 1901              		.loc 1 401 0 discriminator 4
 1902 0206 97F8CB10 		ldrb	r1, [r7, #203]	@ zero_extendqisi2
 1903 020a FB69     		ldr	r3, [r7, #28]
 1904 020c BA69     		ldr	r2, [r7, #24]
 1905 020e 07F12000 		add	r0, r7, #32
 1906 0212 0192     		str	r2, [sp, #4]
 1907 0214 0093     		str	r3, [sp]
 1908 0216 0B46     		mov	r3, r1
 1909 0218 D7F8D020 		ldr	r2, [r7, #208]
 1910 021c 4849     		ldr	r1, .L120+28
 1911 021e FFF7FEFF 		bl	sprintf
 402:main.c        ****             (long)lat_r, sign, i_part, f_part);
 403:main.c        ****     UART_1_PutString(buf);
 1912              		.loc 1 403 0 discriminator 4
 1913 0222 07F12003 		add	r3, r7, #32
 1914 0226 1846     		mov	r0, r3
 1915 0228 FFF7FEFF 		bl	UART_1_PutString
 404:main.c        **** 
 405:main.c        ****     sign = split32(alt_r, 1000L, &i_part, &f_part);
 1916              		.loc 1 405 0 discriminator 4
 1917 022c 07F11803 		add	r3, r7, #24
 1918 0230 07F11C02 		add	r2, r7, #28
 1919 0234 4FF47A71 		mov	r1, #1000
 1920 0238 D7F8CC00 		ldr	r0, [r7, #204]
 1921 023c FFF7FEFF 		bl	split32
 1922 0240 0346     		mov	r3, r0
 1923 0242 87F8CB30 		strb	r3, [r7, #203]
 406:main.c        ****     sprintf(buf, "  off  8  int32BE /1000  raw=%ld  =>  %c%ld.%03ld m MSL  [ALT]\r\n",
 1924              		.loc 1 406 0 discriminator 4
 1925 0246 97F8CB10 		ldrb	r1, [r7, #203]	@ zero_extendqisi2
 1926 024a FB69     		ldr	r3, [r7, #28]
 1927 024c BA69     		ldr	r2, [r7, #24]
 1928 024e 07F12000 		add	r0, r7, #32
 1929 0252 0192     		str	r2, [sp, #4]
 1930 0254 0093     		str	r3, [sp]
 1931 0256 0B46     		mov	r3, r1
 1932 0258 D7F8CC20 		ldr	r2, [r7, #204]
 1933 025c 3949     		ldr	r1, .L120+32
 1934 025e FFF7FEFF 		bl	sprintf
 407:main.c        ****             (long)alt_r, sign, i_part, f_part);
 408:main.c        ****     UART_1_PutString(buf);
 1935              		.loc 1 408 0 discriminator 4
 1936 0262 07F12003 		add	r3, r7, #32
 1937 0266 1846     		mov	r0, r3
 1938 0268 FFF7FEFF 		bl	UART_1_PutString
 409:main.c        **** 
 410:main.c        ****     if (plen < 22u) {
 1939              		.loc 1 410 0 discriminator 4
 1940 026c 97F8F030 		ldrb	r3, [r7, #240]	@ zero_extendqisi2
 1941 0270 152B     		cmp	r3, #21
 1942 0272 0DD8     		bhi	.L108
 411:main.c        ****         sprintf(buf, "  (snap only %u bytes -- speed/hdg/acc fields unavailable)\r\n",
ARM GAS  C:\Users\JENNEW~1\AppData\Local\Temp\ccHH9OS0.s 			page 46


 1943              		.loc 1 411 0
 1944 0274 97F8F020 		ldrb	r2, [r7, #240]	@ zero_extendqisi2
 1945 0278 07F12003 		add	r3, r7, #32
 1946 027c 3249     		ldr	r1, .L120+36
 1947 027e 1846     		mov	r0, r3
 1948 0280 FFF7FEFF 		bl	sprintf
 412:main.c        ****                 (unsigned)plen);
 413:main.c        ****         UART_1_PutString(buf);
 1949              		.loc 1 413 0
 1950 0284 07F12003 		add	r3, r7, #32
 1951 0288 1846     		mov	r0, r3
 1952 028a FFF7FEFF 		bl	UART_1_PutString
 414:main.c        ****         return;
 1953              		.loc 1 414 0
 1954 028e 40E1     		b	.L94
 1955              	.L108:
 415:main.c        ****     }
 416:main.c        **** 
 417:main.c        ****     int16_t spd_r  = SNAP16BE(p, plen, 12);
 1956              		.loc 1 417 0
 1957 0290 97F8F030 		ldrb	r3, [r7, #240]	@ zero_extendqisi2
 1958 0294 0D2B     		cmp	r3, #13
 1959 0296 0BD9     		bls	.L109
 1960              		.loc 1 417 0 is_stmt 0 discriminator 1
 1961 0298 3B68     		ldr	r3, [r7]
 1962 029a 0C33     		adds	r3, r3, #12
 1963 029c 1B78     		ldrb	r3, [r3]	@ zero_extendqisi2
 1964 029e 1B02     		lsls	r3, r3, #8
 1965 02a0 1AB2     		sxth	r2, r3
 1966 02a2 3B68     		ldr	r3, [r7]
 1967 02a4 0D33     		adds	r3, r3, #13
 1968 02a6 1B78     		ldrb	r3, [r3]	@ zero_extendqisi2
 1969 02a8 1BB2     		sxth	r3, r3
 1970 02aa 1343     		orrs	r3, r3, r2
 1971 02ac 1BB2     		sxth	r3, r3
 1972 02ae 00E0     		b	.L110
 1973              	.L109:
 1974              		.loc 1 417 0 discriminator 2
 1975 02b0 0023     		movs	r3, #0
 1976              	.L110:
 1977              		.loc 1 417 0 discriminator 4
 1978 02b2 A7F8C830 		strh	r3, [r7, #200]	@ movhi
 418:main.c        ****     int16_t hdg_r  = SNAP16BE(p, plen, 14);
 1979              		.loc 1 418 0 is_stmt 1 discriminator 4
 1980 02b6 97F8F030 		ldrb	r3, [r7, #240]	@ zero_extendqisi2
 1981 02ba 0F2B     		cmp	r3, #15
 1982 02bc 0BD9     		bls	.L111
 1983              		.loc 1 418 0 is_stmt 0 discriminator 1
 1984 02be 3B68     		ldr	r3, [r7]
 1985 02c0 0E33     		adds	r3, r3, #14
 1986 02c2 1B78     		ldrb	r3, [r3]	@ zero_extendqisi2
 1987 02c4 1B02     		lsls	r3, r3, #8
 1988 02c6 1AB2     		sxth	r2, r3
 1989 02c8 3B68     		ldr	r3, [r7]
 1990 02ca 0F33     		adds	r3, r3, #15
 1991 02cc 1B78     		ldrb	r3, [r3]	@ zero_extendqisi2
 1992 02ce 1BB2     		sxth	r3, r3
ARM GAS  C:\Users\JENNEW~1\AppData\Local\Temp\ccHH9OS0.s 			page 47


 1993 02d0 1343     		orrs	r3, r3, r2
 1994 02d2 1BB2     		sxth	r3, r3
 1995 02d4 00E0     		b	.L112
 1996              	.L111:
 1997              		.loc 1 418 0 discriminator 2
 1998 02d6 0023     		movs	r3, #0
 1999              	.L112:
 2000              		.loc 1 418 0 discriminator 4
 2001 02d8 A7F8C630 		strh	r3, [r7, #198]	@ movhi
 419:main.c        ****     int16_t hacc_r = SNAP16BE(p, plen, 16);
 2002              		.loc 1 419 0 is_stmt 1 discriminator 4
 2003 02dc 97F8F030 		ldrb	r3, [r7, #240]	@ zero_extendqisi2
 2004 02e0 112B     		cmp	r3, #17
 2005 02e2 0BD9     		bls	.L113
 2006              		.loc 1 419 0 is_stmt 0 discriminator 1
 2007 02e4 3B68     		ldr	r3, [r7]
 2008 02e6 1033     		adds	r3, r3, #16
 2009 02e8 1B78     		ldrb	r3, [r3]	@ zero_extendqisi2
 2010 02ea 1B02     		lsls	r3, r3, #8
 2011 02ec 1AB2     		sxth	r2, r3
 2012 02ee 3B68     		ldr	r3, [r7]
 2013 02f0 1133     		adds	r3, r3, #17
 2014 02f2 1B78     		ldrb	r3, [r3]	@ zero_extendqisi2
 2015 02f4 1BB2     		sxth	r3, r3
 2016 02f6 1343     		orrs	r3, r3, r2
 2017 02f8 1BB2     		sxth	r3, r3
 2018 02fa 00E0     		b	.L114
 2019              	.L113:
 2020              		.loc 1 419 0 discriminator 2
 2021 02fc 0023     		movs	r3, #0
 2022              	.L114:
 2023              		.loc 1 419 0 discriminator 4
 2024 02fe A7F8C430 		strh	r3, [r7, #196]	@ movhi
 420:main.c        ****     int16_t vacc_r = SNAP16BE(p, plen, 18);
 2025              		.loc 1 420 0 is_stmt 1 discriminator 4
 2026 0302 97F8F030 		ldrb	r3, [r7, #240]	@ zero_extendqisi2
 2027 0306 132B     		cmp	r3, #19
 2028 0308 20D9     		bls	.L115
 2029              		.loc 1 420 0 is_stmt 0 discriminator 1
 2030 030a 3B68     		ldr	r3, [r7]
 2031 030c 1233     		adds	r3, r3, #18
 2032 030e 1B78     		ldrb	r3, [r3]	@ zero_extendqisi2
 2033 0310 1B02     		lsls	r3, r3, #8
 2034 0312 1AB2     		sxth	r2, r3
 2035 0314 3B68     		ldr	r3, [r7]
 2036 0316 1333     		adds	r3, r3, #19
 2037 0318 1B78     		ldrb	r3, [r3]	@ zero_extendqisi2
 2038 031a 1BB2     		sxth	r3, r3
 2039 031c 1343     		orrs	r3, r3, r2
 2040 031e 1BB2     		sxth	r3, r3
 2041 0320 15E0     		b	.L116
 2042              	.L121:
 2043 0322 00BF     		.align	2
 2044              	.L120:
 2045 0324 D8040000 		.word	.LC26
 2046 0328 B4010000 		.word	.LC11
 2047 032c C0010000 		.word	.LC12
ARM GAS  C:\Users\JENNEW~1\AppData\Local\Temp\ccHH9OS0.s 			page 48


 2048 0330 C8010000 		.word	.LC13
 2049 0334 10050000 		.word	.LC27
 2050 0338 80969800 		.word	10000000
 2051 033c 48050000 		.word	.LC28
 2052 0340 88050000 		.word	.LC29
 2053 0344 C8050000 		.word	.LC30
 2054 0348 0C060000 		.word	.LC31
 2055              	.L115:
 2056              		.loc 1 420 0 discriminator 2
 2057 034c 0023     		movs	r3, #0
 2058              	.L116:
 2059              		.loc 1 420 0 discriminator 4
 2060 034e A7F8C230 		strh	r3, [r7, #194]	@ movhi
 421:main.c        ****     int16_t sacc_r = SNAP16BE(p, plen, 20);
 2061              		.loc 1 421 0 is_stmt 1 discriminator 4
 2062 0352 97F8F030 		ldrb	r3, [r7, #240]	@ zero_extendqisi2
 2063 0356 152B     		cmp	r3, #21
 2064 0358 0BD9     		bls	.L117
 2065              		.loc 1 421 0 is_stmt 0 discriminator 1
 2066 035a 3B68     		ldr	r3, [r7]
 2067 035c 1433     		adds	r3, r3, #20
 2068 035e 1B78     		ldrb	r3, [r3]	@ zero_extendqisi2
 2069 0360 1B02     		lsls	r3, r3, #8
 2070 0362 1AB2     		sxth	r2, r3
 2071 0364 3B68     		ldr	r3, [r7]
 2072 0366 1533     		adds	r3, r3, #21
 2073 0368 1B78     		ldrb	r3, [r3]	@ zero_extendqisi2
 2074 036a 1BB2     		sxth	r3, r3
 2075 036c 1343     		orrs	r3, r3, r2
 2076 036e 1BB2     		sxth	r3, r3
 2077 0370 00E0     		b	.L118
 2078              	.L117:
 2079              		.loc 1 421 0 discriminator 2
 2080 0372 0023     		movs	r3, #0
 2081              	.L118:
 2082              		.loc 1 421 0 discriminator 4
 2083 0374 A7F8C030 		strh	r3, [r7, #192]	@ movhi
 422:main.c        **** 
 423:main.c        ****     decomp((float)spd_r  / 100.0f, &vi, &vf, &s);
 2084              		.loc 1 423 0 is_stmt 1 discriminator 4
 2085 0378 B7F9C830 		ldrsh	r3, [r7, #200]
 2086 037c 1846     		mov	r0, r3
 2087 037e FFF7FEFF 		bl	__aeabi_i2f
 2088 0382 0346     		mov	r3, r0
 2089 0384 6449     		ldr	r1, .L122
 2090 0386 1846     		mov	r0, r3
 2091 0388 FFF7FEFF 		bl	__aeabi_fdiv
 2092 038c 0346     		mov	r3, r0
 2093 038e 1846     		mov	r0, r3
 2094 0390 07F11703 		add	r3, r7, #23
 2095 0394 07F11202 		add	r2, r7, #18
 2096 0398 07F11401 		add	r1, r7, #20
 2097 039c FFF7FEFF 		bl	decomp
 424:main.c        ****     sprintf(buf, "  off 12  int16BE /100   raw=%6d  =>  %c%d.%02d m/s  [GND SPD]\r\n",
 2098              		.loc 1 424 0 discriminator 4
 2099 03a0 B7F9C820 		ldrsh	r2, [r7, #200]
 2100 03a4 FB7D     		ldrb	r3, [r7, #23]	@ zero_extendqisi2
ARM GAS  C:\Users\JENNEW~1\AppData\Local\Temp\ccHH9OS0.s 			page 49


 2101 03a6 1C46     		mov	r4, r3
 2102 03a8 B7F91430 		ldrsh	r3, [r7, #20]
 2103 03ac B7F91210 		ldrsh	r1, [r7, #18]
 2104 03b0 07F12000 		add	r0, r7, #32
 2105 03b4 0191     		str	r1, [sp, #4]
 2106 03b6 0093     		str	r3, [sp]
 2107 03b8 2346     		mov	r3, r4
 2108 03ba 5849     		ldr	r1, .L122+4
 2109 03bc FFF7FEFF 		bl	sprintf
 425:main.c        ****             (int)spd_r, s, (int)vi, (int)vf);
 426:main.c        ****     UART_1_PutString(buf);
 2110              		.loc 1 426 0 discriminator 4
 2111 03c0 07F12003 		add	r3, r7, #32
 2112 03c4 1846     		mov	r0, r3
 2113 03c6 FFF7FEFF 		bl	UART_1_PutString
 427:main.c        **** 
 428:main.c        ****     decomp((float)hdg_r  / 10.0f,  &vi, &vf, &s);
 2114              		.loc 1 428 0 discriminator 4
 2115 03ca B7F9C630 		ldrsh	r3, [r7, #198]
 2116 03ce 1846     		mov	r0, r3
 2117 03d0 FFF7FEFF 		bl	__aeabi_i2f
 2118 03d4 0346     		mov	r3, r0
 2119 03d6 5249     		ldr	r1, .L122+8
 2120 03d8 1846     		mov	r0, r3
 2121 03da FFF7FEFF 		bl	__aeabi_fdiv
 2122 03de 0346     		mov	r3, r0
 2123 03e0 1846     		mov	r0, r3
 2124 03e2 07F11703 		add	r3, r7, #23
 2125 03e6 07F11202 		add	r2, r7, #18
 2126 03ea 07F11401 		add	r1, r7, #20
 2127 03ee FFF7FEFF 		bl	decomp
 429:main.c        ****     sprintf(buf, "  off 14  int16BE /10    raw=%6d  =>  %c%d.%02d deg  [HDG]\r\n",
 2128              		.loc 1 429 0 discriminator 4
 2129 03f2 B7F9C620 		ldrsh	r2, [r7, #198]
 2130 03f6 FB7D     		ldrb	r3, [r7, #23]	@ zero_extendqisi2
 2131 03f8 1C46     		mov	r4, r3
 2132 03fa B7F91430 		ldrsh	r3, [r7, #20]
 2133 03fe B7F91210 		ldrsh	r1, [r7, #18]
 2134 0402 07F12000 		add	r0, r7, #32
 2135 0406 0191     		str	r1, [sp, #4]
 2136 0408 0093     		str	r3, [sp]
 2137 040a 2346     		mov	r3, r4
 2138 040c 4549     		ldr	r1, .L122+12
 2139 040e FFF7FEFF 		bl	sprintf
 430:main.c        ****             (int)hdg_r, s, (int)vi, (int)vf);
 431:main.c        ****     UART_1_PutString(buf);
 2140              		.loc 1 431 0 discriminator 4
 2141 0412 07F12003 		add	r3, r7, #32
 2142 0416 1846     		mov	r0, r3
 2143 0418 FFF7FEFF 		bl	UART_1_PutString
 432:main.c        **** 
 433:main.c        ****     decomp((float)hacc_r / 100.0f, &vi, &vf, &s);
 2144              		.loc 1 433 0 discriminator 4
 2145 041c B7F9C430 		ldrsh	r3, [r7, #196]
 2146 0420 1846     		mov	r0, r3
 2147 0422 FFF7FEFF 		bl	__aeabi_i2f
 2148 0426 0346     		mov	r3, r0
ARM GAS  C:\Users\JENNEW~1\AppData\Local\Temp\ccHH9OS0.s 			page 50


 2149 0428 3B49     		ldr	r1, .L122
 2150 042a 1846     		mov	r0, r3
 2151 042c FFF7FEFF 		bl	__aeabi_fdiv
 2152 0430 0346     		mov	r3, r0
 2153 0432 1846     		mov	r0, r3
 2154 0434 07F11703 		add	r3, r7, #23
 2155 0438 07F11202 		add	r2, r7, #18
 2156 043c 07F11401 		add	r1, r7, #20
 2157 0440 FFF7FEFF 		bl	decomp
 434:main.c        ****     sprintf(buf, "  off 16  int16BE /100   raw=%6d  =>  %c%d.%02d m  [HACC]\r\n",
 2158              		.loc 1 434 0 discriminator 4
 2159 0444 B7F9C420 		ldrsh	r2, [r7, #196]
 2160 0448 FB7D     		ldrb	r3, [r7, #23]	@ zero_extendqisi2
 2161 044a 1C46     		mov	r4, r3
 2162 044c B7F91430 		ldrsh	r3, [r7, #20]
 2163 0450 B7F91210 		ldrsh	r1, [r7, #18]
 2164 0454 07F12000 		add	r0, r7, #32
 2165 0458 0191     		str	r1, [sp, #4]
 2166 045a 0093     		str	r3, [sp]
 2167 045c 2346     		mov	r3, r4
 2168 045e 3249     		ldr	r1, .L122+16
 2169 0460 FFF7FEFF 		bl	sprintf
 435:main.c        ****             (int)hacc_r, s, (int)vi, (int)vf);
 436:main.c        ****     UART_1_PutString(buf);
 2170              		.loc 1 436 0 discriminator 4
 2171 0464 07F12003 		add	r3, r7, #32
 2172 0468 1846     		mov	r0, r3
 2173 046a FFF7FEFF 		bl	UART_1_PutString
 437:main.c        **** 
 438:main.c        ****     decomp((float)vacc_r / 100.0f, &vi, &vf, &s);
 2174              		.loc 1 438 0 discriminator 4
 2175 046e B7F9C230 		ldrsh	r3, [r7, #194]
 2176 0472 1846     		mov	r0, r3
 2177 0474 FFF7FEFF 		bl	__aeabi_i2f
 2178 0478 0346     		mov	r3, r0
 2179 047a 2749     		ldr	r1, .L122
 2180 047c 1846     		mov	r0, r3
 2181 047e FFF7FEFF 		bl	__aeabi_fdiv
 2182 0482 0346     		mov	r3, r0
 2183 0484 1846     		mov	r0, r3
 2184 0486 07F11703 		add	r3, r7, #23
 2185 048a 07F11202 		add	r2, r7, #18
 2186 048e 07F11401 		add	r1, r7, #20
 2187 0492 FFF7FEFF 		bl	decomp
 439:main.c        ****     sprintf(buf, "  off 18  int16BE /100   raw=%6d  =>  %c%d.%02d m  [VACC]\r\n",
 2188              		.loc 1 439 0 discriminator 4
 2189 0496 B7F9C220 		ldrsh	r2, [r7, #194]
 2190 049a FB7D     		ldrb	r3, [r7, #23]	@ zero_extendqisi2
 2191 049c 1C46     		mov	r4, r3
 2192 049e B7F91430 		ldrsh	r3, [r7, #20]
 2193 04a2 B7F91210 		ldrsh	r1, [r7, #18]
 2194 04a6 07F12000 		add	r0, r7, #32
 2195 04aa 0191     		str	r1, [sp, #4]
 2196 04ac 0093     		str	r3, [sp]
 2197 04ae 2346     		mov	r3, r4
 2198 04b0 1E49     		ldr	r1, .L122+20
 2199 04b2 FFF7FEFF 		bl	sprintf
ARM GAS  C:\Users\JENNEW~1\AppData\Local\Temp\ccHH9OS0.s 			page 51


 440:main.c        ****             (int)vacc_r, s, (int)vi, (int)vf);
 441:main.c        ****     UART_1_PutString(buf);
 2200              		.loc 1 441 0 discriminator 4
 2201 04b6 07F12003 		add	r3, r7, #32
 2202 04ba 1846     		mov	r0, r3
 2203 04bc FFF7FEFF 		bl	UART_1_PutString
 442:main.c        **** 
 443:main.c        ****     decomp((float)sacc_r / 100.0f, &vi, &vf, &s);
 2204              		.loc 1 443 0 discriminator 4
 2205 04c0 B7F9C030 		ldrsh	r3, [r7, #192]
 2206 04c4 1846     		mov	r0, r3
 2207 04c6 FFF7FEFF 		bl	__aeabi_i2f
 2208 04ca 0346     		mov	r3, r0
 2209 04cc 1249     		ldr	r1, .L122
 2210 04ce 1846     		mov	r0, r3
 2211 04d0 FFF7FEFF 		bl	__aeabi_fdiv
 2212 04d4 0346     		mov	r3, r0
 2213 04d6 1846     		mov	r0, r3
 2214 04d8 07F11703 		add	r3, r7, #23
 2215 04dc 07F11202 		add	r2, r7, #18
 2216 04e0 07F11401 		add	r1, r7, #20
 2217 04e4 FFF7FEFF 		bl	decomp
 444:main.c        ****     sprintf(buf, "  off 20  int16BE /100   raw=%6d  =>  %c%d.%02d m/s  [SACC]\r\n",
 2218              		.loc 1 444 0 discriminator 4
 2219 04e8 B7F9C020 		ldrsh	r2, [r7, #192]
 2220 04ec FB7D     		ldrb	r3, [r7, #23]	@ zero_extendqisi2
 2221 04ee 1C46     		mov	r4, r3
 2222 04f0 B7F91430 		ldrsh	r3, [r7, #20]
 2223 04f4 B7F91210 		ldrsh	r1, [r7, #18]
 2224 04f8 07F12000 		add	r0, r7, #32
 2225 04fc 0191     		str	r1, [sp, #4]
 2226 04fe 0093     		str	r3, [sp]
 2227 0500 2346     		mov	r3, r4
 2228 0502 0B49     		ldr	r1, .L122+24
 2229 0504 FFF7FEFF 		bl	sprintf
 445:main.c        ****             (int)sacc_r, s, (int)vi, (int)vf);
 446:main.c        ****     UART_1_PutString(buf);
 2230              		.loc 1 446 0 discriminator 4
 2231 0508 07F12003 		add	r3, r7, #32
 2232 050c 1846     		mov	r0, r3
 2233 050e FFF7FEFF 		bl	UART_1_PutString
 2234              	.L94:
 447:main.c        **** }
 2235              		.loc 1 447 0
 2236 0512 E437     		adds	r7, r7, #228
 2237              		.cfi_def_cfa_offset 12
 2238 0514 BD46     		mov	sp, r7
 2239              		.cfi_def_cfa_register 13
 2240              		@ sp needed
 2241 0516 90BD     		pop	{r4, r7, pc}
 2242              	.L123:
 2243              		.align	2
 2244              	.L122:
 2245 0518 0000C842 		.word	1120403456
 2246 051c 4C060000 		.word	.LC32
 2247 0520 00002041 		.word	1092616192
 2248 0524 90060000 		.word	.LC33
ARM GAS  C:\Users\JENNEW~1\AppData\Local\Temp\ccHH9OS0.s 			page 52


 2249 0528 D0060000 		.word	.LC34
 2250 052c 0C070000 		.word	.LC35
 2251 0530 48070000 		.word	.LC36
 2252              		.cfi_endproc
 2253              	.LFE74:
 2254              		.size	print_test_gps, .-print_test_gps
 2255              		.section	.rodata
 2256 0786 0000     		.align	2
 2257              	.LC37:
 2258 0788 0D0A5B54 		.ascii	"\015\012[TEST][Baro] attr=3  dt=%lums  rxlen=%u  sn"
 2258      4553545D 
 2258      5B426172 
 2258      6F5D2061 
 2258      7474723D 
 2259 07b5 61706C65 		.ascii	"aplen=%u\015\012\000"
 2259      6E3D2575 
 2259      0D0A00
 2260              		.align	2
 2261              	.LC38:
 2262 07c0 20204552 		.ascii	"  ERROR: snapshot only %u bytes\015\012\000"
 2262      524F523A 
 2262      20736E61 
 2262      7073686F 
 2262      74206F6E 
 2263 07e2 0000     		.align	2
 2264              	.LC39:
 2265 07e4 20206F66 		.ascii	"  off  0  int16LE /10  raw=%6d  =>  %c%d.%02d m  [A"
 2265      66202030 
 2265      2020696E 
 2265      7431364C 
 2265      45202F31 
 2266 0817 4C542069 		.ascii	"LT if no-subix LE]\015\012\000"
 2266      66206E6F 
 2266      2D737562 
 2266      6978204C 
 2266      455D0D0A 
 2267              		.align	2
 2268              	.LC40:
 2269 082c 20206F66 		.ascii	"  off  0  int16BE /10  raw=%6d  =>  %c%d.%02d m  [A"
 2269      66202030 
 2269      2020696E 
 2269      74313642 
 2269      45202F31 
 2270 085f 4C542069 		.ascii	"LT if no-subix BE]\015\012\000"
 2270      66206E6F 
 2270      2D737562 
 2270      69782042 
 2270      455D0D0A 
 2271              		.align	2
 2272              	.LC41:
 2273 0874 20206F66 		.ascii	"  off  1  int16LE /10  raw=%6d  =>  %c%d.%02d m  [A"
 2273      66202031 
 2273      2020696E 
 2273      7431364C 
 2273      45202F31 
 2274 08a7 4C542069 		.ascii	"LT if sub-ix LE]\015\012\000"
 2274      66207375 
ARM GAS  C:\Users\JENNEW~1\AppData\Local\Temp\ccHH9OS0.s 			page 53


 2274      622D6978 
 2274      204C455D 
 2274      0D0A00
 2275 08ba 0000     		.align	2
 2276              	.LC42:
 2277 08bc 20202D2D 		.ascii	"  -- ROC --\015\012\000"
 2277      20524F43 
 2277      202D2D0D 
 2277      0A00
 2278 08ca 0000     		.align	2
 2279              	.LC43:
 2280 08cc 20206F66 		.ascii	"  off  2  int16LE /100 raw=%6d  =>  %c%d.%02d m/s  "
 2280      66202032 
 2280      2020696E 
 2280      7431364C 
 2280      45202F31 
 2281 08ff 5B524F43 		.ascii	"[ROC no-subix LE]\015\012\000"
 2281      206E6F2D 
 2281      73756269 
 2281      78204C45 
 2281      5D0D0A00 
 2282 0913 00       		.align	2
 2283              	.LC44:
 2284 0914 20206F66 		.ascii	"  off  2  int16BE /100 raw=%6d  =>  %c%d.%02d m/s  "
 2284      66202032 
 2284      2020696E 
 2284      74313642 
 2284      45202F31 
 2285 0947 5B524F43 		.ascii	"[ROC no-subix BE]\015\012\000"
 2285      206E6F2D 
 2285      73756269 
 2285      78204245 
 2285      5D0D0A00 
 2286 095b 00       		.align	2
 2287              	.LC45:
 2288 095c 20206F66 		.ascii	"  off  3  int16LE /100 raw=%6d  =>  %c%d.%02d m/s  "
 2288      66202033 
 2288      2020696E 
 2288      7431364C 
 2288      45202F31 
 2289 098f 5B524F43 		.ascii	"[ROC sub-ix LE]\015\012\000"
 2289      20737562 
 2289      2D697820 
 2289      4C455D0D 
 2289      0A00
 2290 09a1 000000   		.align	2
 2291              	.LC46:
 2292 09a4 2020436F 		.ascii	"  Compare altitude to known barometric reference to"
 2292      6D706172 
 2292      6520616C 
 2292      74697475 
 2292      64652074 
 2293 09d7 20706963 		.ascii	" pick correct interpretation.\015\012\000"
 2293      6B20636F 
 2293      72726563 
 2293      7420696E 
 2293      74657270 
ARM GAS  C:\Users\JENNEW~1\AppData\Local\Temp\ccHH9OS0.s 			page 54


 2294              		.section	.text.print_test_baro,"ax",%progbits
 2295              		.align	2
 2296              		.thumb
 2297              		.thumb_func
 2298              		.type	print_test_baro, %function
 2299              	print_test_baro:
 2300              	.LFB75:
 448:main.c        **** 
 449:main.c        **** /* --- attr 3: Baro ---
 450:main.c        ****  * Endianness and sub-index unconfirmed — hex dump included for verification. */
 451:main.c        **** static void print_test_baro(const movi_status_t* st, uint32_t dt,
 452:main.c        ****                              uint16_t rxlen, const uint8_t* p, uint8_t plen)
 453:main.c        **** {
 2301              		.loc 1 453 0
 2302              		.cfi_startproc
 2303              		@ args = 4, pretend = 0, frame = 216
 2304              		@ frame_needed = 1, uses_anonymous_args = 0
 2305 0000 90B5     		push	{r4, r7, lr}
 2306              		.cfi_def_cfa_offset 12
 2307              		.cfi_offset 4, -12
 2308              		.cfi_offset 7, -8
 2309              		.cfi_offset 14, -4
 2310 0002 B9B0     		sub	sp, sp, #228
 2311              		.cfi_def_cfa_offset 240
 2312 0004 02AF     		add	r7, sp, #8
 2313              		.cfi_def_cfa 7, 232
 2314 0006 F860     		str	r0, [r7, #12]
 2315 0008 B960     		str	r1, [r7, #8]
 2316 000a 3B60     		str	r3, [r7]
 2317 000c 1346     		mov	r3, r2	@ movhi
 2318 000e FB80     		strh	r3, [r7, #6]	@ movhi
 454:main.c        ****     char buf[TRANSMIT_BUFFER_SIZE];
 455:main.c        ****     (void)st;
 456:main.c        **** 
 457:main.c        ****     sprintf(buf, "\r\n[TEST][Baro] attr=3  dt=%lums  rxlen=%u  snaplen=%u\r\n",
 2319              		.loc 1 457 0
 2320 0010 FA88     		ldrh	r2, [r7, #6]
 2321 0012 97F8E830 		ldrb	r3, [r7, #232]	@ zero_extendqisi2
 2322 0016 07F12400 		add	r0, r7, #36
 2323 001a 0093     		str	r3, [sp]
 2324 001c 1346     		mov	r3, r2
 2325 001e BA68     		ldr	r2, [r7, #8]
 2326 0020 B449     		ldr	r1, .L145
 2327 0022 FFF7FEFF 		bl	sprintf
 458:main.c        ****             (unsigned long)dt, (unsigned)rxlen, (unsigned)plen);
 459:main.c        ****     UART_1_PutString(buf);
 2328              		.loc 1 459 0
 2329 0026 07F12403 		add	r3, r7, #36
 2330 002a 1846     		mov	r0, r3
 2331 002c FFF7FEFF 		bl	UART_1_PutString
 2332              	.LBB16:
 460:main.c        **** 
 461:main.c        ****     /* Hex dump — needed to determine correct endianness / sub-index */
 462:main.c        ****     {
 463:main.c        ****         uint8_t row, col;
 464:main.c        ****         for (row = 0u; row < plen; row += 8u) {
 2333              		.loc 1 464 0
ARM GAS  C:\Users\JENNEW~1\AppData\Local\Temp\ccHH9OS0.s 			page 55


 2334 0030 0023     		movs	r3, #0
 2335 0032 87F8D730 		strb	r3, [r7, #215]
 2336 0036 56E0     		b	.L125
 2337              	.L129:
 2338              	.LBB17:
 465:main.c        ****             char* bp = buf;
 2339              		.loc 1 465 0
 2340 0038 07F12403 		add	r3, r7, #36
 2341 003c C7F8D030 		str	r3, [r7, #208]
 466:main.c        ****             bp += sprintf(bp, "  off%02u:", (unsigned)row);
 2342              		.loc 1 466 0
 2343 0040 97F8D730 		ldrb	r3, [r7, #215]	@ zero_extendqisi2
 2344 0044 1A46     		mov	r2, r3
 2345 0046 AC49     		ldr	r1, .L145+4
 2346 0048 D7F8D000 		ldr	r0, [r7, #208]
 2347 004c FFF7FEFF 		bl	sprintf
 2348 0050 0346     		mov	r3, r0
 2349 0052 1A46     		mov	r2, r3
 2350 0054 D7F8D030 		ldr	r3, [r7, #208]
 2351 0058 1344     		add	r3, r3, r2
 2352 005a C7F8D030 		str	r3, [r7, #208]
 467:main.c        ****             for (col = 0u; col < 8u && (row + col) < plen; col++)
 2353              		.loc 1 467 0
 2354 005e 0023     		movs	r3, #0
 2355 0060 87F8D630 		strb	r3, [r7, #214]
 2356 0064 1AE0     		b	.L126
 2357              	.L128:
 468:main.c        ****                 bp += sprintf(bp, " %02X", (unsigned)p[row + col]);
 2358              		.loc 1 468 0 discriminator 4
 2359 0066 97F8D720 		ldrb	r2, [r7, #215]	@ zero_extendqisi2
 2360 006a 97F8D630 		ldrb	r3, [r7, #214]	@ zero_extendqisi2
 2361 006e 1344     		add	r3, r3, r2
 2362 0070 1A46     		mov	r2, r3
 2363 0072 3B68     		ldr	r3, [r7]
 2364 0074 1344     		add	r3, r3, r2
 2365 0076 1B78     		ldrb	r3, [r3]	@ zero_extendqisi2
 2366 0078 1A46     		mov	r2, r3
 2367 007a A049     		ldr	r1, .L145+8
 2368 007c D7F8D000 		ldr	r0, [r7, #208]
 2369 0080 FFF7FEFF 		bl	sprintf
 2370 0084 0346     		mov	r3, r0
 2371 0086 1A46     		mov	r2, r3
 2372 0088 D7F8D030 		ldr	r3, [r7, #208]
 2373 008c 1344     		add	r3, r3, r2
 2374 008e C7F8D030 		str	r3, [r7, #208]
 467:main.c        ****             for (col = 0u; col < 8u && (row + col) < plen; col++)
 2375              		.loc 1 467 0 discriminator 4
 2376 0092 97F8D630 		ldrb	r3, [r7, #214]	@ zero_extendqisi2
 2377 0096 0133     		adds	r3, r3, #1
 2378 0098 87F8D630 		strb	r3, [r7, #214]
 2379              	.L126:
 467:main.c        ****             for (col = 0u; col < 8u && (row + col) < plen; col++)
 2380              		.loc 1 467 0 is_stmt 0 discriminator 1
 2381 009c 97F8D630 		ldrb	r3, [r7, #214]	@ zero_extendqisi2
 2382 00a0 072B     		cmp	r3, #7
 2383 00a2 08D8     		bhi	.L127
 467:main.c        ****             for (col = 0u; col < 8u && (row + col) < plen; col++)
ARM GAS  C:\Users\JENNEW~1\AppData\Local\Temp\ccHH9OS0.s 			page 56


 2384              		.loc 1 467 0 discriminator 3
 2385 00a4 97F8D720 		ldrb	r2, [r7, #215]	@ zero_extendqisi2
 2386 00a8 97F8D630 		ldrb	r3, [r7, #214]	@ zero_extendqisi2
 2387 00ac 1A44     		add	r2, r2, r3
 2388 00ae 97F8E830 		ldrb	r3, [r7, #232]	@ zero_extendqisi2
 2389 00b2 9A42     		cmp	r2, r3
 2390 00b4 D7DB     		blt	.L128
 2391              	.L127:
 469:main.c        ****             bp += sprintf(bp, "\r\n");
 2392              		.loc 1 469 0 is_stmt 1 discriminator 2
 2393 00b6 D7F8D030 		ldr	r3, [r7, #208]
 2394 00ba 914A     		ldr	r2, .L145+12
 2395 00bc 1188     		ldrh	r1, [r2]	@ unaligned
 2396 00be 9278     		ldrb	r2, [r2, #2]
 2397 00c0 1980     		strh	r1, [r3]	@ unaligned
 2398 00c2 9A70     		strb	r2, [r3, #2]
 2399 00c4 0223     		movs	r3, #2
 2400 00c6 1A46     		mov	r2, r3
 2401 00c8 D7F8D030 		ldr	r3, [r7, #208]
 2402 00cc 1344     		add	r3, r3, r2
 2403 00ce C7F8D030 		str	r3, [r7, #208]
 470:main.c        ****             UART_1_PutString(buf);
 2404              		.loc 1 470 0 discriminator 2
 2405 00d2 07F12403 		add	r3, r7, #36
 2406 00d6 1846     		mov	r0, r3
 2407 00d8 FFF7FEFF 		bl	UART_1_PutString
 2408              	.LBE17:
 464:main.c        ****             char* bp = buf;
 2409              		.loc 1 464 0 discriminator 2
 2410 00dc 97F8D730 		ldrb	r3, [r7, #215]
 2411 00e0 0833     		adds	r3, r3, #8
 2412 00e2 87F8D730 		strb	r3, [r7, #215]
 2413              	.L125:
 464:main.c        ****             char* bp = buf;
 2414              		.loc 1 464 0 is_stmt 0 discriminator 1
 2415 00e6 97F8D720 		ldrb	r2, [r7, #215]	@ zero_extendqisi2
 2416 00ea 97F8E830 		ldrb	r3, [r7, #232]	@ zero_extendqisi2
 2417 00ee 9A42     		cmp	r2, r3
 2418 00f0 A2D3     		bcc	.L129
 2419              	.LBE16:
 471:main.c        ****         }
 472:main.c        ****     }
 473:main.c        **** 
 474:main.c        ****     if (plen < 4u) {
 2420              		.loc 1 474 0 is_stmt 1
 2421 00f2 97F8E830 		ldrb	r3, [r7, #232]	@ zero_extendqisi2
 2422 00f6 032B     		cmp	r3, #3
 2423 00f8 0DD8     		bhi	.L130
 475:main.c        ****         sprintf(buf, "  ERROR: snapshot only %u bytes\r\n", (unsigned)plen);
 2424              		.loc 1 475 0
 2425 00fa 97F8E820 		ldrb	r2, [r7, #232]	@ zero_extendqisi2
 2426 00fe 07F12403 		add	r3, r7, #36
 2427 0102 8049     		ldr	r1, .L145+16
 2428 0104 1846     		mov	r0, r3
 2429 0106 FFF7FEFF 		bl	sprintf
 476:main.c        ****         UART_1_PutString(buf);
 2430              		.loc 1 476 0
ARM GAS  C:\Users\JENNEW~1\AppData\Local\Temp\ccHH9OS0.s 			page 57


 2431 010a 07F12403 		add	r3, r7, #36
 2432 010e 1846     		mov	r0, r3
 2433 0110 FFF7FEFF 		bl	UART_1_PutString
 2434 0114 86E1     		b	.L124
 2435              	.L130:
 477:main.c        ****         return;
 478:main.c        ****     }
 479:main.c        **** 
 480:main.c        ****     char s; int16 vi, vf;
 481:main.c        **** 
 482:main.c        ****     /* Try both sub-index (off 1) and no-sub-index (off 0) interpretations.
 483:main.c        ****      * GPS and sysstat have no sub-index (BE from off 0).
 484:main.c        ****      * Attr 22 has sub-index (LE from off 1).
 485:main.c        ****      * Compare against a known altitude reference to determine which is correct. */
 486:main.c        ****     int16_t alt0_le = SNAP16(p, plen, 0);   /* LE from off 0 (no sub-ix) */
 2436              		.loc 1 486 0
 2437 0116 97F8E830 		ldrb	r3, [r7, #232]	@ zero_extendqisi2
 2438 011a 012B     		cmp	r3, #1
 2439 011c 09D9     		bls	.L132
 2440              	.LBB18:
 2441              		.loc 1 486 0 is_stmt 0 discriminator 1
 2442 011e 07F11C03 		add	r3, r7, #28
 2443 0122 0222     		movs	r2, #2
 2444 0124 3968     		ldr	r1, [r7]
 2445 0126 1846     		mov	r0, r3
 2446 0128 FFF7FEFF 		bl	memcpy
 2447 012c B7F91C30 		ldrsh	r3, [r7, #28]
 2448              	.LBE18:
 2449 0130 00E0     		b	.L133
 2450              	.L132:
 2451              		.loc 1 486 0 discriminator 2
 2452 0132 0023     		movs	r3, #0
 2453              	.L133:
 2454              		.loc 1 486 0 discriminator 4
 2455 0134 A7F8CE30 		strh	r3, [r7, #206]	@ movhi
 487:main.c        ****     int16_t alt0_be = SNAP16BE(p, plen, 0); /* BE from off 0 (no sub-ix) */
 2456              		.loc 1 487 0 is_stmt 1 discriminator 4
 2457 0138 97F8E830 		ldrb	r3, [r7, #232]	@ zero_extendqisi2
 2458 013c 012B     		cmp	r3, #1
 2459 013e 0AD9     		bls	.L134
 2460              		.loc 1 487 0 is_stmt 0 discriminator 1
 2461 0140 3B68     		ldr	r3, [r7]
 2462 0142 1B78     		ldrb	r3, [r3]	@ zero_extendqisi2
 2463 0144 1B02     		lsls	r3, r3, #8
 2464 0146 1AB2     		sxth	r2, r3
 2465 0148 3B68     		ldr	r3, [r7]
 2466 014a 0133     		adds	r3, r3, #1
 2467 014c 1B78     		ldrb	r3, [r3]	@ zero_extendqisi2
 2468 014e 1BB2     		sxth	r3, r3
 2469 0150 1343     		orrs	r3, r3, r2
 2470 0152 1BB2     		sxth	r3, r3
 2471 0154 00E0     		b	.L135
 2472              	.L134:
 2473              		.loc 1 487 0 discriminator 2
 2474 0156 0023     		movs	r3, #0
 2475              	.L135:
 2476              		.loc 1 487 0 discriminator 4
ARM GAS  C:\Users\JENNEW~1\AppData\Local\Temp\ccHH9OS0.s 			page 58


 2477 0158 A7F8CC30 		strh	r3, [r7, #204]	@ movhi
 488:main.c        ****     int16_t alt1_le = SNAP16(p, plen, 1);   /* LE from off 1 (sub-ix)    */
 2478              		.loc 1 488 0 is_stmt 1 discriminator 4
 2479 015c 97F8E830 		ldrb	r3, [r7, #232]	@ zero_extendqisi2
 2480 0160 022B     		cmp	r3, #2
 2481 0162 0AD9     		bls	.L136
 2482              	.LBB19:
 2483              		.loc 1 488 0 is_stmt 0 discriminator 1
 2484 0164 3B68     		ldr	r3, [r7]
 2485 0166 591C     		adds	r1, r3, #1
 2486 0168 07F11A03 		add	r3, r7, #26
 2487 016c 0222     		movs	r2, #2
 2488 016e 1846     		mov	r0, r3
 2489 0170 FFF7FEFF 		bl	memcpy
 2490 0174 B7F91A30 		ldrsh	r3, [r7, #26]
 2491              	.LBE19:
 2492 0178 00E0     		b	.L137
 2493              	.L136:
 2494              		.loc 1 488 0 discriminator 2
 2495 017a 0023     		movs	r3, #0
 2496              	.L137:
 2497              		.loc 1 488 0 discriminator 4
 2498 017c A7F8CA30 		strh	r3, [r7, #202]	@ movhi
 489:main.c        **** 
 490:main.c        ****     decomp((float)alt0_le / 10.0f, &vi, &vf, &s);
 2499              		.loc 1 490 0 is_stmt 1 discriminator 4
 2500 0180 B7F9CE30 		ldrsh	r3, [r7, #206]
 2501 0184 1846     		mov	r0, r3
 2502 0186 FFF7FEFF 		bl	__aeabi_i2f
 2503 018a 0346     		mov	r3, r0
 2504 018c 5E49     		ldr	r1, .L145+20
 2505 018e 1846     		mov	r0, r3
 2506 0190 FFF7FEFF 		bl	__aeabi_fdiv
 2507 0194 0346     		mov	r3, r0
 2508 0196 1846     		mov	r0, r3
 2509 0198 07F12303 		add	r3, r7, #35
 2510 019c 07F11E02 		add	r2, r7, #30
 2511 01a0 07F12001 		add	r1, r7, #32
 2512 01a4 FFF7FEFF 		bl	decomp
 491:main.c        ****     sprintf(buf, "  off  0  int16LE /10  raw=%6d  =>  %c%d.%02d m  [ALT if no-subix LE]\r\n",
 2513              		.loc 1 491 0 discriminator 4
 2514 01a8 B7F9CE20 		ldrsh	r2, [r7, #206]
 2515 01ac 97F82330 		ldrb	r3, [r7, #35]	@ zero_extendqisi2
 2516 01b0 1C46     		mov	r4, r3
 2517 01b2 B7F92030 		ldrsh	r3, [r7, #32]
 2518 01b6 B7F91E10 		ldrsh	r1, [r7, #30]
 2519 01ba 07F12400 		add	r0, r7, #36
 2520 01be 0191     		str	r1, [sp, #4]
 2521 01c0 0093     		str	r3, [sp]
 2522 01c2 2346     		mov	r3, r4
 2523 01c4 5149     		ldr	r1, .L145+24
 2524 01c6 FFF7FEFF 		bl	sprintf
 492:main.c        ****             (int)alt0_le, s, (int)vi, (int)vf);
 493:main.c        ****     UART_1_PutString(buf);
 2525              		.loc 1 493 0 discriminator 4
 2526 01ca 07F12403 		add	r3, r7, #36
 2527 01ce 1846     		mov	r0, r3
ARM GAS  C:\Users\JENNEW~1\AppData\Local\Temp\ccHH9OS0.s 			page 59


 2528 01d0 FFF7FEFF 		bl	UART_1_PutString
 494:main.c        **** 
 495:main.c        ****     decomp((float)alt0_be / 10.0f, &vi, &vf, &s);
 2529              		.loc 1 495 0 discriminator 4
 2530 01d4 B7F9CC30 		ldrsh	r3, [r7, #204]
 2531 01d8 1846     		mov	r0, r3
 2532 01da FFF7FEFF 		bl	__aeabi_i2f
 2533 01de 0346     		mov	r3, r0
 2534 01e0 4949     		ldr	r1, .L145+20
 2535 01e2 1846     		mov	r0, r3
 2536 01e4 FFF7FEFF 		bl	__aeabi_fdiv
 2537 01e8 0346     		mov	r3, r0
 2538 01ea 1846     		mov	r0, r3
 2539 01ec 07F12303 		add	r3, r7, #35
 2540 01f0 07F11E02 		add	r2, r7, #30
 2541 01f4 07F12001 		add	r1, r7, #32
 2542 01f8 FFF7FEFF 		bl	decomp
 496:main.c        ****     sprintf(buf, "  off  0  int16BE /10  raw=%6d  =>  %c%d.%02d m  [ALT if no-subix BE]\r\n",
 2543              		.loc 1 496 0 discriminator 4
 2544 01fc B7F9CC20 		ldrsh	r2, [r7, #204]
 2545 0200 97F82330 		ldrb	r3, [r7, #35]	@ zero_extendqisi2
 2546 0204 1C46     		mov	r4, r3
 2547 0206 B7F92030 		ldrsh	r3, [r7, #32]
 2548 020a B7F91E10 		ldrsh	r1, [r7, #30]
 2549 020e 07F12400 		add	r0, r7, #36
 2550 0212 0191     		str	r1, [sp, #4]
 2551 0214 0093     		str	r3, [sp]
 2552 0216 2346     		mov	r3, r4
 2553 0218 3D49     		ldr	r1, .L145+28
 2554 021a FFF7FEFF 		bl	sprintf
 497:main.c        ****             (int)alt0_be, s, (int)vi, (int)vf);
 498:main.c        ****     UART_1_PutString(buf);
 2555              		.loc 1 498 0 discriminator 4
 2556 021e 07F12403 		add	r3, r7, #36
 2557 0222 1846     		mov	r0, r3
 2558 0224 FFF7FEFF 		bl	UART_1_PutString
 499:main.c        **** 
 500:main.c        ****     decomp((float)alt1_le / 10.0f, &vi, &vf, &s);
 2559              		.loc 1 500 0 discriminator 4
 2560 0228 B7F9CA30 		ldrsh	r3, [r7, #202]
 2561 022c 1846     		mov	r0, r3
 2562 022e FFF7FEFF 		bl	__aeabi_i2f
 2563 0232 0346     		mov	r3, r0
 2564 0234 3449     		ldr	r1, .L145+20
 2565 0236 1846     		mov	r0, r3
 2566 0238 FFF7FEFF 		bl	__aeabi_fdiv
 2567 023c 0346     		mov	r3, r0
 2568 023e 1846     		mov	r0, r3
 2569 0240 07F12303 		add	r3, r7, #35
 2570 0244 07F11E02 		add	r2, r7, #30
 2571 0248 07F12001 		add	r1, r7, #32
 2572 024c FFF7FEFF 		bl	decomp
 501:main.c        ****     sprintf(buf, "  off  1  int16LE /10  raw=%6d  =>  %c%d.%02d m  [ALT if sub-ix LE]\r\n",
 2573              		.loc 1 501 0 discriminator 4
 2574 0250 B7F9CA20 		ldrsh	r2, [r7, #202]
 2575 0254 97F82330 		ldrb	r3, [r7, #35]	@ zero_extendqisi2
 2576 0258 1C46     		mov	r4, r3
ARM GAS  C:\Users\JENNEW~1\AppData\Local\Temp\ccHH9OS0.s 			page 60


 2577 025a B7F92030 		ldrsh	r3, [r7, #32]
 2578 025e B7F91E10 		ldrsh	r1, [r7, #30]
 2579 0262 07F12400 		add	r0, r7, #36
 2580 0266 0191     		str	r1, [sp, #4]
 2581 0268 0093     		str	r3, [sp]
 2582 026a 2346     		mov	r3, r4
 2583 026c 2949     		ldr	r1, .L145+32
 2584 026e FFF7FEFF 		bl	sprintf
 502:main.c        ****             (int)alt1_le, s, (int)vi, (int)vf);
 503:main.c        ****     UART_1_PutString(buf);
 2585              		.loc 1 503 0 discriminator 4
 2586 0272 07F12403 		add	r3, r7, #36
 2587 0276 1846     		mov	r0, r3
 2588 0278 FFF7FEFF 		bl	UART_1_PutString
 504:main.c        **** 
 505:main.c        ****     UART_1_PutString("  -- ROC --\r\n");
 2589              		.loc 1 505 0 discriminator 4
 2590 027c 2648     		ldr	r0, .L145+36
 2591 027e FFF7FEFF 		bl	UART_1_PutString
 506:main.c        ****     if (plen >= 6u) {
 2592              		.loc 1 506 0 discriminator 4
 2593 0282 97F8E830 		ldrb	r3, [r7, #232]	@ zero_extendqisi2
 2594 0286 052B     		cmp	r3, #5
 2595 0288 40F2C980 		bls	.L138
 2596              	.LBB20:
 507:main.c        ****         int16_t roc0_le = SNAP16(p, plen, 2);
 2597              		.loc 1 507 0
 2598 028c 97F8E830 		ldrb	r3, [r7, #232]	@ zero_extendqisi2
 2599 0290 032B     		cmp	r3, #3
 2600 0292 0AD9     		bls	.L139
 2601              	.LBB21:
 2602              		.loc 1 507 0 is_stmt 0 discriminator 1
 2603 0294 3B68     		ldr	r3, [r7]
 2604 0296 991C     		adds	r1, r3, #2
 2605 0298 07F11803 		add	r3, r7, #24
 2606 029c 0222     		movs	r2, #2
 2607 029e 1846     		mov	r0, r3
 2608 02a0 FFF7FEFF 		bl	memcpy
 2609 02a4 B7F91830 		ldrsh	r3, [r7, #24]
 2610              	.LBE21:
 2611 02a8 00E0     		b	.L140
 2612              	.L139:
 2613              		.loc 1 507 0 discriminator 2
 2614 02aa 0023     		movs	r3, #0
 2615              	.L140:
 2616              		.loc 1 507 0 discriminator 4
 2617 02ac A7F8C830 		strh	r3, [r7, #200]	@ movhi
 508:main.c        ****         int16_t roc0_be = SNAP16BE(p, plen, 2);
 2618              		.loc 1 508 0 is_stmt 1 discriminator 4
 2619 02b0 97F8E830 		ldrb	r3, [r7, #232]	@ zero_extendqisi2
 2620 02b4 032B     		cmp	r3, #3
 2621 02b6 0BD9     		bls	.L141
 2622              		.loc 1 508 0 is_stmt 0 discriminator 1
 2623 02b8 3B68     		ldr	r3, [r7]
 2624 02ba 0233     		adds	r3, r3, #2
 2625 02bc 1B78     		ldrb	r3, [r3]	@ zero_extendqisi2
 2626 02be 1B02     		lsls	r3, r3, #8
ARM GAS  C:\Users\JENNEW~1\AppData\Local\Temp\ccHH9OS0.s 			page 61


 2627 02c0 1AB2     		sxth	r2, r3
 2628 02c2 3B68     		ldr	r3, [r7]
 2629 02c4 0333     		adds	r3, r3, #3
 2630 02c6 1B78     		ldrb	r3, [r3]	@ zero_extendqisi2
 2631 02c8 1BB2     		sxth	r3, r3
 2632 02ca 1343     		orrs	r3, r3, r2
 2633 02cc 1BB2     		sxth	r3, r3
 2634 02ce 00E0     		b	.L142
 2635              	.L141:
 2636              		.loc 1 508 0 discriminator 2
 2637 02d0 0023     		movs	r3, #0
 2638              	.L142:
 2639              		.loc 1 508 0 discriminator 4
 2640 02d2 A7F8C630 		strh	r3, [r7, #198]	@ movhi
 509:main.c        ****         int16_t roc1_le = SNAP16(p, plen, 3);
 2641              		.loc 1 509 0 is_stmt 1 discriminator 4
 2642 02d6 97F8E830 		ldrb	r3, [r7, #232]	@ zero_extendqisi2
 2643 02da 042B     		cmp	r3, #4
 2644 02dc 1ED9     		bls	.L143
 2645              	.LBB22:
 2646              		.loc 1 509 0 is_stmt 0 discriminator 1
 2647 02de 3B68     		ldr	r3, [r7]
 2648 02e0 D91C     		adds	r1, r3, #3
 2649 02e2 07F11603 		add	r3, r7, #22
 2650 02e6 0222     		movs	r2, #2
 2651 02e8 1846     		mov	r0, r3
 2652 02ea FFF7FEFF 		bl	memcpy
 2653 02ee B7F91630 		ldrsh	r3, [r7, #22]
 2654              	.LBE22:
 2655 02f2 14E0     		b	.L144
 2656              	.L146:
 2657              		.align	2
 2658              	.L145:
 2659 02f4 88070000 		.word	.LC37
 2660 02f8 B4010000 		.word	.LC11
 2661 02fc C0010000 		.word	.LC12
 2662 0300 C8010000 		.word	.LC13
 2663 0304 C0070000 		.word	.LC38
 2664 0308 00002041 		.word	1092616192
 2665 030c E4070000 		.word	.LC39
 2666 0310 2C080000 		.word	.LC40
 2667 0314 74080000 		.word	.LC41
 2668 0318 BC080000 		.word	.LC42
 2669              	.L143:
 2670              		.loc 1 509 0 discriminator 2
 2671 031c 0023     		movs	r3, #0
 2672              	.L144:
 2673              		.loc 1 509 0 discriminator 4
 2674 031e A7F8C430 		strh	r3, [r7, #196]	@ movhi
 510:main.c        ****         decomp((float)roc0_le / 100.0f, &vi, &vf, &s);
 2675              		.loc 1 510 0 is_stmt 1 discriminator 4
 2676 0322 B7F9C830 		ldrsh	r3, [r7, #200]
 2677 0326 1846     		mov	r0, r3
 2678 0328 FFF7FEFF 		bl	__aeabi_i2f
 2679 032c 0346     		mov	r3, r0
 2680 032e 3F49     		ldr	r1, .L147
 2681 0330 1846     		mov	r0, r3
ARM GAS  C:\Users\JENNEW~1\AppData\Local\Temp\ccHH9OS0.s 			page 62


 2682 0332 FFF7FEFF 		bl	__aeabi_fdiv
 2683 0336 0346     		mov	r3, r0
 2684 0338 1846     		mov	r0, r3
 2685 033a 07F12303 		add	r3, r7, #35
 2686 033e 07F11E02 		add	r2, r7, #30
 2687 0342 07F12001 		add	r1, r7, #32
 2688 0346 FFF7FEFF 		bl	decomp
 511:main.c        ****         sprintf(buf, "  off  2  int16LE /100 raw=%6d  =>  %c%d.%02d m/s  [ROC no-subix LE]\r\n",
 2689              		.loc 1 511 0 discriminator 4
 2690 034a B7F9C820 		ldrsh	r2, [r7, #200]
 2691 034e 97F82330 		ldrb	r3, [r7, #35]	@ zero_extendqisi2
 2692 0352 1C46     		mov	r4, r3
 2693 0354 B7F92030 		ldrsh	r3, [r7, #32]
 2694 0358 B7F91E10 		ldrsh	r1, [r7, #30]
 2695 035c 07F12400 		add	r0, r7, #36
 2696 0360 0191     		str	r1, [sp, #4]
 2697 0362 0093     		str	r3, [sp]
 2698 0364 2346     		mov	r3, r4
 2699 0366 3249     		ldr	r1, .L147+4
 2700 0368 FFF7FEFF 		bl	sprintf
 512:main.c        ****                 (int)roc0_le, s, (int)vi, (int)vf);
 513:main.c        ****         UART_1_PutString(buf);
 2701              		.loc 1 513 0 discriminator 4
 2702 036c 07F12403 		add	r3, r7, #36
 2703 0370 1846     		mov	r0, r3
 2704 0372 FFF7FEFF 		bl	UART_1_PutString
 514:main.c        ****         decomp((float)roc0_be / 100.0f, &vi, &vf, &s);
 2705              		.loc 1 514 0 discriminator 4
 2706 0376 B7F9C630 		ldrsh	r3, [r7, #198]
 2707 037a 1846     		mov	r0, r3
 2708 037c FFF7FEFF 		bl	__aeabi_i2f
 2709 0380 0346     		mov	r3, r0
 2710 0382 2A49     		ldr	r1, .L147
 2711 0384 1846     		mov	r0, r3
 2712 0386 FFF7FEFF 		bl	__aeabi_fdiv
 2713 038a 0346     		mov	r3, r0
 2714 038c 1846     		mov	r0, r3
 2715 038e 07F12303 		add	r3, r7, #35
 2716 0392 07F11E02 		add	r2, r7, #30
 2717 0396 07F12001 		add	r1, r7, #32
 2718 039a FFF7FEFF 		bl	decomp
 515:main.c        ****         sprintf(buf, "  off  2  int16BE /100 raw=%6d  =>  %c%d.%02d m/s  [ROC no-subix BE]\r\n",
 2719              		.loc 1 515 0 discriminator 4
 2720 039e B7F9C620 		ldrsh	r2, [r7, #198]
 2721 03a2 97F82330 		ldrb	r3, [r7, #35]	@ zero_extendqisi2
 2722 03a6 1C46     		mov	r4, r3
 2723 03a8 B7F92030 		ldrsh	r3, [r7, #32]
 2724 03ac B7F91E10 		ldrsh	r1, [r7, #30]
 2725 03b0 07F12400 		add	r0, r7, #36
 2726 03b4 0191     		str	r1, [sp, #4]
 2727 03b6 0093     		str	r3, [sp]
 2728 03b8 2346     		mov	r3, r4
 2729 03ba 1E49     		ldr	r1, .L147+8
 2730 03bc FFF7FEFF 		bl	sprintf
 516:main.c        ****                 (int)roc0_be, s, (int)vi, (int)vf);
 517:main.c        ****         UART_1_PutString(buf);
 2731              		.loc 1 517 0 discriminator 4
ARM GAS  C:\Users\JENNEW~1\AppData\Local\Temp\ccHH9OS0.s 			page 63


 2732 03c0 07F12403 		add	r3, r7, #36
 2733 03c4 1846     		mov	r0, r3
 2734 03c6 FFF7FEFF 		bl	UART_1_PutString
 518:main.c        ****         decomp((float)roc1_le / 100.0f, &vi, &vf, &s);
 2735              		.loc 1 518 0 discriminator 4
 2736 03ca B7F9C430 		ldrsh	r3, [r7, #196]
 2737 03ce 1846     		mov	r0, r3
 2738 03d0 FFF7FEFF 		bl	__aeabi_i2f
 2739 03d4 0346     		mov	r3, r0
 2740 03d6 1549     		ldr	r1, .L147
 2741 03d8 1846     		mov	r0, r3
 2742 03da FFF7FEFF 		bl	__aeabi_fdiv
 2743 03de 0346     		mov	r3, r0
 2744 03e0 1846     		mov	r0, r3
 2745 03e2 07F12303 		add	r3, r7, #35
 2746 03e6 07F11E02 		add	r2, r7, #30
 2747 03ea 07F12001 		add	r1, r7, #32
 2748 03ee FFF7FEFF 		bl	decomp
 519:main.c        ****         sprintf(buf, "  off  3  int16LE /100 raw=%6d  =>  %c%d.%02d m/s  [ROC sub-ix LE]\r\n",
 2749              		.loc 1 519 0 discriminator 4
 2750 03f2 B7F9C420 		ldrsh	r2, [r7, #196]
 2751 03f6 97F82330 		ldrb	r3, [r7, #35]	@ zero_extendqisi2
 2752 03fa 1C46     		mov	r4, r3
 2753 03fc B7F92030 		ldrsh	r3, [r7, #32]
 2754 0400 B7F91E10 		ldrsh	r1, [r7, #30]
 2755 0404 07F12400 		add	r0, r7, #36
 2756 0408 0191     		str	r1, [sp, #4]
 2757 040a 0093     		str	r3, [sp]
 2758 040c 2346     		mov	r3, r4
 2759 040e 0A49     		ldr	r1, .L147+12
 2760 0410 FFF7FEFF 		bl	sprintf
 520:main.c        ****                 (int)roc1_le, s, (int)vi, (int)vf);
 521:main.c        ****         UART_1_PutString(buf);
 2761              		.loc 1 521 0 discriminator 4
 2762 0414 07F12403 		add	r3, r7, #36
 2763 0418 1846     		mov	r0, r3
 2764 041a FFF7FEFF 		bl	UART_1_PutString
 2765              	.L138:
 2766              	.LBE20:
 522:main.c        ****     }
 523:main.c        ****     UART_1_PutString("  Compare altitude to known barometric reference to pick correct interpretati
 2767              		.loc 1 523 0
 2768 041e 0748     		ldr	r0, .L147+16
 2769 0420 FFF7FEFF 		bl	UART_1_PutString
 2770              	.L124:
 524:main.c        **** }
 2771              		.loc 1 524 0
 2772 0424 DC37     		adds	r7, r7, #220
 2773              		.cfi_def_cfa_offset 12
 2774 0426 BD46     		mov	sp, r7
 2775              		.cfi_def_cfa_register 13
 2776              		@ sp needed
 2777 0428 90BD     		pop	{r4, r7, pc}
 2778              	.L148:
 2779 042a 00BF     		.align	2
 2780              	.L147:
 2781 042c 0000C842 		.word	1120403456
ARM GAS  C:\Users\JENNEW~1\AppData\Local\Temp\ccHH9OS0.s 			page 64


 2782 0430 CC080000 		.word	.LC43
 2783 0434 14090000 		.word	.LC44
 2784 0438 5C090000 		.word	.LC45
 2785 043c A4090000 		.word	.LC46
 2786              		.cfi_endproc
 2787              	.LFE75:
 2788              		.size	print_test_baro, .-print_test_baro
 2789              		.section	.rodata
 2790 09f7 00       		.align	2
 2791              	.LC47:
 2792 09f8 0D0A5B54 		.ascii	"\015\012[TEST][Stat] attr=1  dt=%lums  rxlen=%u  sn"
 2792      4553545D 
 2792      5B537461 
 2792      745D2061 
 2792      7474723D 
 2793 0a25 61706C65 		.ascii	"aplen=%u\015\012\000"
 2793      6E3D2575 
 2793      0D0A00
 2794              		.align	2
 2795              	.LC48:
 2796 0a30 20206F66 		.ascii	"  off  0  int16BE /100   raw=%6d  =>  %c%d.%02d V  "
 2796      66202030 
 2796      2020696E 
 2796      74313642 
 2796      45202F31 
 2797 0a63 5B424154 		.ascii	"[BATT V] *\015\012\000"
 2797      5420565D 
 2797      202A0D0A 
 2797      00
 2798              		.align	2
 2799              	.LC49:
 2800 0a70 20206F66 		.ascii	"  off  2  uint8   /1     raw=%3u  =>  %u  [GPS SATS"
 2800      66202032 
 2800      20207569 
 2800      6E743820 
 2800      20202F31 
 2801 0aa3 5D202A0D 		.ascii	"] *\015\012\000"
 2801      0A00
 2802 0aa9 000000   		.align	2
 2803              	.LC50:
 2804 0aac 20206F66 		.ascii	"  off  3  uint8   /3     raw=%3u  =>  %d.%02d C  [T"
 2804      66202033 
 2804      20207569 
 2804      6E743820 
 2804      20202F33 
 2805 0adf 454D505D 		.ascii	"EMP] *\015\012\000"
 2805      202A0D0A 
 2805      00
 2806              		.align	2
 2807              	.LC51:
 2808 0ae8 20206F66 		.ascii	"  off  4  uint8   /1     raw=%3u  =>  %u%%  [CPU]\015"
 2808      66202034 
 2808      20207569 
 2808      6E743820 
 2808      20202F31 
 2809 0b1a 0A00     		.ascii	"\012\000"
 2810              		.align	2
ARM GAS  C:\Users\JENNEW~1\AppData\Local\Temp\ccHH9OS0.s 			page 65


 2811              	.LC52:
 2812 0b1c 20206F66 		.ascii	"  off  5  int16BE flags  raw=0x%04X  [STATUS FLAGS]"
 2812      66202035 
 2812      2020696E 
 2812      74313642 
 2812      4520666C 
 2813 0b4f 0D0A00   		.ascii	"\015\012\000"
 2814 0b52 0000     		.align	2
 2815              	.LC53:
 2816 0b54 20206F66 		.ascii	"  off  7  int16BE /1     raw=%6d  =>  %d s  [TIME]\015"
 2816      66202037 
 2816      2020696E 
 2816      74313642 
 2816      45202F31 
 2817 0b87 0A00     		.ascii	"\012\000"
 2818 0b89 000000   		.align	2
 2819              	.LC54:
 2820 0b8c 20206F66 		.ascii	"  off  9  int16BE /10    raw=%6d  =>  %c%d.%02d mb "
 2820      66202039 
 2820      2020696E 
 2820      74313642 
 2820      45202F31 
 2821 0bbf 205B5052 		.ascii	" [PRESSURE] *\015\012\000"
 2821      45535355 
 2821      52455D20 
 2821      2A0D0A00 
 2822 0bcf 00       		.align	2
 2823              	.LC55:
 2824 0bd0 20202D2D 		.ascii	"  -- fields below provisional (not yet iOS-verified"
 2824      20666965 
 2824      6C647320 
 2824      62656C6F 
 2824      77207072 
 2825 0c03 29202D2D 		.ascii	") --\015\012\000"
 2825      0D0A00
 2826 0c0a 0000     		.align	2
 2827              	.LC56:
 2828 0c0c 20206F66 		.ascii	"  off 11  int16BE /1     raw=%6d  [IMU RATE]\015\012"
 2828      66203131 
 2828      2020696E 
 2828      74313642 
 2828      45202F31 
 2829 0c3a 00       		.ascii	"\000"
 2830 0c3b 00       		.align	2
 2831              	.LC57:
 2832 0c3c 20206F66 		.ascii	"  off 13  int16BE flags  raw=0x%04X  [CAM STATUS]\015"
 2832      66203133 
 2832      2020696E 
 2832      74313642 
 2832      4520666C 
 2833 0c6e 0A00     		.ascii	"\012\000"
 2834              		.align	2
 2835              	.LC58:
 2836 0c70 20206F66 		.ascii	"  off 16  int16BE /1     raw=%6d  [IMU LATENCY]\015"
 2836      66203136 
 2836      2020696E 
 2836      74313642 
ARM GAS  C:\Users\JENNEW~1\AppData\Local\Temp\ccHH9OS0.s 			page 66


 2836      45202F31 
 2837 0ca0 0A00     		.ascii	"\012\000"
 2838 0ca2 0000     		.align	2
 2839              	.LC59:
 2840 0ca4 20206F66 		.ascii	"  off 18  int16BE /100   raw=%6d  =>  %c%d.%02d A  "
 2840      66203138 
 2840      2020696E 
 2840      74313642 
 2840      45202F31 
 2841 0cd7 5B424154 		.ascii	"[BATT A]\015\012\000"
 2841      5420415D 
 2841      0D0A00
 2842 0ce2 0000     		.align	2
 2843              	.LC60:
 2844 0ce4 20206F66 		.ascii	"  off 20  int16BE /1     raw=%6d  =>  %d mAh  [CHAR"
 2844      66203230 
 2844      2020696E 
 2844      74313642 
 2844      45202F31 
 2845 0d17 47452055 		.ascii	"GE USED]\015\012\000"
 2845      5345445D 
 2845      0D0A00
 2846 0d22 0000     		.align	2
 2847              	.LC61:
 2848 0d24 2020282A 		.ascii	"  (* = confirmed against iOS app)\015\012\000"
 2848      203D2063 
 2848      6F6E6669 
 2848      726D6564 
 2848      20616761 
 2849              		.section	.text.print_test_sysstat,"ax",%progbits
 2850              		.align	2
 2851              		.thumb
 2852              		.thumb_func
 2853              		.type	print_test_sysstat, %function
 2854              	print_test_sysstat:
 2855              	.LFB76:
 525:main.c        **** 
 526:main.c        **** /* --- attr 1: System status ---
 527:main.c        ****  * Big-endian, no sub-index. Fields off 0-10 confirmed; off 11+ provisional. */
 528:main.c        **** static void print_test_sysstat(const movi_status_t* st, uint32_t dt,
 529:main.c        ****                                 uint16_t rxlen, const uint8_t* p, uint8_t plen)
 530:main.c        **** {
 2856              		.loc 1 530 0
 2857              		.cfi_startproc
 2858              		@ args = 4, pretend = 0, frame = 216
 2859              		@ frame_needed = 1, uses_anonymous_args = 0
 2860 0000 B0B5     		push	{r4, r5, r7, lr}
 2861              		.cfi_def_cfa_offset 16
 2862              		.cfi_offset 4, -16
 2863              		.cfi_offset 5, -12
 2864              		.cfi_offset 7, -8
 2865              		.cfi_offset 14, -4
 2866 0002 B8B0     		sub	sp, sp, #224
 2867              		.cfi_def_cfa_offset 240
 2868 0004 02AF     		add	r7, sp, #8
 2869              		.cfi_def_cfa 7, 232
 2870 0006 F860     		str	r0, [r7, #12]
ARM GAS  C:\Users\JENNEW~1\AppData\Local\Temp\ccHH9OS0.s 			page 67


 2871 0008 B960     		str	r1, [r7, #8]
 2872 000a 3B60     		str	r3, [r7]
 2873 000c 1346     		mov	r3, r2	@ movhi
 2874 000e FB80     		strh	r3, [r7, #6]	@ movhi
 531:main.c        ****     char buf[TRANSMIT_BUFFER_SIZE];
 532:main.c        ****     (void)st;
 533:main.c        **** 
 534:main.c        ****     sprintf(buf, "\r\n[TEST][Stat] attr=1  dt=%lums  rxlen=%u  snaplen=%u\r\n",
 2875              		.loc 1 534 0
 2876 0010 FA88     		ldrh	r2, [r7, #6]
 2877 0012 97F8E830 		ldrb	r3, [r7, #232]	@ zero_extendqisi2
 2878 0016 07F11C00 		add	r0, r7, #28
 2879 001a 0093     		str	r3, [sp]
 2880 001c 1346     		mov	r3, r2
 2881 001e BA68     		ldr	r2, [r7, #8]
 2882 0020 B149     		ldr	r1, .L184
 2883 0022 FFF7FEFF 		bl	sprintf
 535:main.c        ****             (unsigned long)dt, (unsigned)rxlen, (unsigned)plen);
 536:main.c        ****     UART_1_PutString(buf);
 2884              		.loc 1 536 0
 2885 0026 07F11C03 		add	r3, r7, #28
 2886 002a 1846     		mov	r0, r3
 2887 002c FFF7FEFF 		bl	UART_1_PutString
 2888              	.LBB23:
 537:main.c        **** 
 538:main.c        ****     /* Raw hex dump */
 539:main.c        ****     {
 540:main.c        ****         uint8_t row, col;
 541:main.c        ****         for (row = 0u; row < plen; row += 8u) {
 2889              		.loc 1 541 0
 2890 0030 0023     		movs	r3, #0
 2891 0032 87F8D730 		strb	r3, [r7, #215]
 2892 0036 56E0     		b	.L150
 2893              	.L154:
 2894              	.LBB24:
 542:main.c        ****             char* bp = buf;
 2895              		.loc 1 542 0
 2896 0038 07F11C03 		add	r3, r7, #28
 2897 003c C7F8D030 		str	r3, [r7, #208]
 543:main.c        ****             bp += sprintf(bp, "  off%02u:", (unsigned)row);
 2898              		.loc 1 543 0
 2899 0040 97F8D730 		ldrb	r3, [r7, #215]	@ zero_extendqisi2
 2900 0044 1A46     		mov	r2, r3
 2901 0046 A949     		ldr	r1, .L184+4
 2902 0048 D7F8D000 		ldr	r0, [r7, #208]
 2903 004c FFF7FEFF 		bl	sprintf
 2904 0050 0346     		mov	r3, r0
 2905 0052 1A46     		mov	r2, r3
 2906 0054 D7F8D030 		ldr	r3, [r7, #208]
 2907 0058 1344     		add	r3, r3, r2
 2908 005a C7F8D030 		str	r3, [r7, #208]
 544:main.c        ****             for (col = 0u; col < 8u && (row + col) < plen; col++)
 2909              		.loc 1 544 0
 2910 005e 0023     		movs	r3, #0
 2911 0060 87F8D630 		strb	r3, [r7, #214]
 2912 0064 1AE0     		b	.L151
 2913              	.L153:
ARM GAS  C:\Users\JENNEW~1\AppData\Local\Temp\ccHH9OS0.s 			page 68


 545:main.c        ****                 bp += sprintf(bp, " %02X", (unsigned)p[row + col]);
 2914              		.loc 1 545 0 discriminator 4
 2915 0066 97F8D720 		ldrb	r2, [r7, #215]	@ zero_extendqisi2
 2916 006a 97F8D630 		ldrb	r3, [r7, #214]	@ zero_extendqisi2
 2917 006e 1344     		add	r3, r3, r2
 2918 0070 1A46     		mov	r2, r3
 2919 0072 3B68     		ldr	r3, [r7]
 2920 0074 1344     		add	r3, r3, r2
 2921 0076 1B78     		ldrb	r3, [r3]	@ zero_extendqisi2
 2922 0078 1A46     		mov	r2, r3
 2923 007a 9D49     		ldr	r1, .L184+8
 2924 007c D7F8D000 		ldr	r0, [r7, #208]
 2925 0080 FFF7FEFF 		bl	sprintf
 2926 0084 0346     		mov	r3, r0
 2927 0086 1A46     		mov	r2, r3
 2928 0088 D7F8D030 		ldr	r3, [r7, #208]
 2929 008c 1344     		add	r3, r3, r2
 2930 008e C7F8D030 		str	r3, [r7, #208]
 544:main.c        ****             for (col = 0u; col < 8u && (row + col) < plen; col++)
 2931              		.loc 1 544 0 discriminator 4
 2932 0092 97F8D630 		ldrb	r3, [r7, #214]	@ zero_extendqisi2
 2933 0096 0133     		adds	r3, r3, #1
 2934 0098 87F8D630 		strb	r3, [r7, #214]
 2935              	.L151:
 544:main.c        ****             for (col = 0u; col < 8u && (row + col) < plen; col++)
 2936              		.loc 1 544 0 is_stmt 0 discriminator 1
 2937 009c 97F8D630 		ldrb	r3, [r7, #214]	@ zero_extendqisi2
 2938 00a0 072B     		cmp	r3, #7
 2939 00a2 08D8     		bhi	.L152
 544:main.c        ****             for (col = 0u; col < 8u && (row + col) < plen; col++)
 2940              		.loc 1 544 0 discriminator 3
 2941 00a4 97F8D720 		ldrb	r2, [r7, #215]	@ zero_extendqisi2
 2942 00a8 97F8D630 		ldrb	r3, [r7, #214]	@ zero_extendqisi2
 2943 00ac 1A44     		add	r2, r2, r3
 2944 00ae 97F8E830 		ldrb	r3, [r7, #232]	@ zero_extendqisi2
 2945 00b2 9A42     		cmp	r2, r3
 2946 00b4 D7DB     		blt	.L153
 2947              	.L152:
 546:main.c        ****             bp += sprintf(bp, "\r\n");
 2948              		.loc 1 546 0 is_stmt 1 discriminator 2
 2949 00b6 D7F8D030 		ldr	r3, [r7, #208]
 2950 00ba 8E4A     		ldr	r2, .L184+12
 2951 00bc 1188     		ldrh	r1, [r2]	@ unaligned
 2952 00be 9278     		ldrb	r2, [r2, #2]
 2953 00c0 1980     		strh	r1, [r3]	@ unaligned
 2954 00c2 9A70     		strb	r2, [r3, #2]
 2955 00c4 0223     		movs	r3, #2
 2956 00c6 1A46     		mov	r2, r3
 2957 00c8 D7F8D030 		ldr	r3, [r7, #208]
 2958 00cc 1344     		add	r3, r3, r2
 2959 00ce C7F8D030 		str	r3, [r7, #208]
 547:main.c        ****             UART_1_PutString(buf);
 2960              		.loc 1 547 0 discriminator 2
 2961 00d2 07F11C03 		add	r3, r7, #28
 2962 00d6 1846     		mov	r0, r3
 2963 00d8 FFF7FEFF 		bl	UART_1_PutString
 2964              	.LBE24:
ARM GAS  C:\Users\JENNEW~1\AppData\Local\Temp\ccHH9OS0.s 			page 69


 541:main.c        ****             char* bp = buf;
 2965              		.loc 1 541 0 discriminator 2
 2966 00dc 97F8D730 		ldrb	r3, [r7, #215]
 2967 00e0 0833     		adds	r3, r3, #8
 2968 00e2 87F8D730 		strb	r3, [r7, #215]
 2969              	.L150:
 541:main.c        ****             char* bp = buf;
 2970              		.loc 1 541 0 is_stmt 0 discriminator 1
 2971 00e6 97F8D720 		ldrb	r2, [r7, #215]	@ zero_extendqisi2
 2972 00ea 97F8E830 		ldrb	r3, [r7, #232]	@ zero_extendqisi2
 2973 00ee 9A42     		cmp	r2, r3
 2974 00f0 A2D3     		bcc	.L154
 2975              	.LBE23:
 548:main.c        ****         }
 549:main.c        ****     }
 550:main.c        **** 
 551:main.c        ****     if (plen < 5u) {
 2976              		.loc 1 551 0 is_stmt 1
 2977 00f2 97F8E830 		ldrb	r3, [r7, #232]	@ zero_extendqisi2
 2978 00f6 042B     		cmp	r3, #4
 2979 00f8 0DD8     		bhi	.L155
 552:main.c        ****         sprintf(buf, "  ERROR: snapshot only %u bytes\r\n", (unsigned)plen);
 2980              		.loc 1 552 0
 2981 00fa 97F8E820 		ldrb	r2, [r7, #232]	@ zero_extendqisi2
 2982 00fe 07F11C03 		add	r3, r7, #28
 2983 0102 7D49     		ldr	r1, .L184+16
 2984 0104 1846     		mov	r0, r3
 2985 0106 FFF7FEFF 		bl	sprintf
 553:main.c        ****         UART_1_PutString(buf);
 2986              		.loc 1 553 0
 2987 010a 07F11C03 		add	r3, r7, #28
 2988 010e 1846     		mov	r0, r3
 2989 0110 FFF7FEFF 		bl	UART_1_PutString
 2990 0114 06E2     		b	.L149
 2991              	.L155:
 554:main.c        ****         return;
 555:main.c        ****     }
 556:main.c        **** 
 557:main.c        ****     char s; int16 vi, vf;
 558:main.c        **** 
 559:main.c        ****     /* --- Confirmed fields --- */
 560:main.c        ****     int16_t bv_r = SNAP16BE(p, plen, 0);
 2992              		.loc 1 560 0
 2993 0116 97F8E830 		ldrb	r3, [r7, #232]	@ zero_extendqisi2
 2994 011a 012B     		cmp	r3, #1
 2995 011c 0AD9     		bls	.L157
 2996              		.loc 1 560 0 is_stmt 0 discriminator 1
 2997 011e 3B68     		ldr	r3, [r7]
 2998 0120 1B78     		ldrb	r3, [r3]	@ zero_extendqisi2
 2999 0122 1B02     		lsls	r3, r3, #8
 3000 0124 1AB2     		sxth	r2, r3
 3001 0126 3B68     		ldr	r3, [r7]
 3002 0128 0133     		adds	r3, r3, #1
 3003 012a 1B78     		ldrb	r3, [r3]	@ zero_extendqisi2
 3004 012c 1BB2     		sxth	r3, r3
 3005 012e 1343     		orrs	r3, r3, r2
 3006 0130 1BB2     		sxth	r3, r3
ARM GAS  C:\Users\JENNEW~1\AppData\Local\Temp\ccHH9OS0.s 			page 70


 3007 0132 00E0     		b	.L158
 3008              	.L157:
 3009              		.loc 1 560 0 discriminator 2
 3010 0134 0023     		movs	r3, #0
 3011              	.L158:
 3012              		.loc 1 560 0 discriminator 4
 3013 0136 A7F8CE30 		strh	r3, [r7, #206]	@ movhi
 561:main.c        ****     decomp((float)bv_r / 100.0f, &vi, &vf, &s);
 3014              		.loc 1 561 0 is_stmt 1 discriminator 4
 3015 013a B7F9CE30 		ldrsh	r3, [r7, #206]
 3016 013e 1846     		mov	r0, r3
 3017 0140 FFF7FEFF 		bl	__aeabi_i2f
 3018 0144 0346     		mov	r3, r0
 3019 0146 6D49     		ldr	r1, .L184+20
 3020 0148 1846     		mov	r0, r3
 3021 014a FFF7FEFF 		bl	__aeabi_fdiv
 3022 014e 0346     		mov	r3, r0
 3023 0150 1846     		mov	r0, r3
 3024 0152 07F11B03 		add	r3, r7, #27
 3025 0156 07F11602 		add	r2, r7, #22
 3026 015a 07F11801 		add	r1, r7, #24
 3027 015e FFF7FEFF 		bl	decomp
 562:main.c        ****     sprintf(buf, "  off  0  int16BE /100   raw=%6d  =>  %c%d.%02d V  [BATT V] *\r\n",
 3028              		.loc 1 562 0 discriminator 4
 3029 0162 B7F9CE20 		ldrsh	r2, [r7, #206]
 3030 0166 FB7E     		ldrb	r3, [r7, #27]	@ zero_extendqisi2
 3031 0168 1C46     		mov	r4, r3
 3032 016a B7F91830 		ldrsh	r3, [r7, #24]
 3033 016e B7F91610 		ldrsh	r1, [r7, #22]
 3034 0172 07F11C00 		add	r0, r7, #28
 3035 0176 0191     		str	r1, [sp, #4]
 3036 0178 0093     		str	r3, [sp]
 3037 017a 2346     		mov	r3, r4
 3038 017c 6049     		ldr	r1, .L184+24
 3039 017e FFF7FEFF 		bl	sprintf
 563:main.c        ****             (int)bv_r, s, (int)vi, (int)vf);
 564:main.c        ****     UART_1_PutString(buf);
 3040              		.loc 1 564 0 discriminator 4
 3041 0182 07F11C03 		add	r3, r7, #28
 3042 0186 1846     		mov	r0, r3
 3043 0188 FFF7FEFF 		bl	UART_1_PutString
 565:main.c        **** 
 566:main.c        ****     sprintf(buf, "  off  2  uint8   /1     raw=%3u  =>  %u  [GPS SATS] *\r\n",
 567:main.c        ****             (unsigned)p[2], (unsigned)p[2]);
 3044              		.loc 1 567 0 discriminator 4
 3045 018c 3B68     		ldr	r3, [r7]
 3046 018e 0233     		adds	r3, r3, #2
 3047 0190 1B78     		ldrb	r3, [r3]	@ zero_extendqisi2
 566:main.c        ****             (unsigned)p[2], (unsigned)p[2]);
 3048              		.loc 1 566 0 discriminator 4
 3049 0192 1A46     		mov	r2, r3
 3050              		.loc 1 567 0 discriminator 4
 3051 0194 3B68     		ldr	r3, [r7]
 3052 0196 0233     		adds	r3, r3, #2
 3053 0198 1B78     		ldrb	r3, [r3]	@ zero_extendqisi2
 566:main.c        ****             (unsigned)p[2], (unsigned)p[2]);
 3054              		.loc 1 566 0 discriminator 4
ARM GAS  C:\Users\JENNEW~1\AppData\Local\Temp\ccHH9OS0.s 			page 71


 3055 019a 07F11C00 		add	r0, r7, #28
 3056 019e 5949     		ldr	r1, .L184+28
 3057 01a0 FFF7FEFF 		bl	sprintf
 568:main.c        ****     UART_1_PutString(buf);
 3058              		.loc 1 568 0 discriminator 4
 3059 01a4 07F11C03 		add	r3, r7, #28
 3060 01a8 1846     		mov	r0, r3
 3061 01aa FFF7FEFF 		bl	UART_1_PutString
 569:main.c        **** 
 570:main.c        ****     sprintf(buf, "  off  3  uint8   /3     raw=%3u  =>  %d.%02d C  [TEMP] *\r\n",
 571:main.c        ****             (unsigned)p[3], (int)(p[3]/3u), (int)((p[3]%3u)*33u));
 3062              		.loc 1 571 0 discriminator 4
 3063 01ae 3B68     		ldr	r3, [r7]
 3064 01b0 0333     		adds	r3, r3, #3
 3065 01b2 1B78     		ldrb	r3, [r3]	@ zero_extendqisi2
 570:main.c        ****             (unsigned)p[3], (int)(p[3]/3u), (int)((p[3]%3u)*33u));
 3066              		.loc 1 570 0 discriminator 4
 3067 01b4 1C46     		mov	r4, r3
 3068              		.loc 1 571 0 discriminator 4
 3069 01b6 3B68     		ldr	r3, [r7]
 3070 01b8 0333     		adds	r3, r3, #3
 3071 01ba 1B78     		ldrb	r3, [r3]	@ zero_extendqisi2
 570:main.c        ****             (unsigned)p[3], (int)(p[3]/3u), (int)((p[3]%3u)*33u));
 3072              		.loc 1 570 0 discriminator 4
 3073 01bc 524A     		ldr	r2, .L184+32
 3074 01be A2FB0323 		umull	r2, r3, r2, r3
 3075 01c2 5B08     		lsrs	r3, r3, #1
 3076 01c4 DBB2     		uxtb	r3, r3
 3077 01c6 1D46     		mov	r5, r3
 3078              		.loc 1 571 0 discriminator 4
 3079 01c8 3B68     		ldr	r3, [r7]
 3080 01ca 0333     		adds	r3, r3, #3
 3081 01cc 1A78     		ldrb	r2, [r3]	@ zero_extendqisi2
 3082 01ce 4E4B     		ldr	r3, .L184+32
 3083 01d0 A3FB0213 		umull	r1, r3, r3, r2
 3084 01d4 5908     		lsrs	r1, r3, #1
 3085 01d6 0B46     		mov	r3, r1
 3086 01d8 5B00     		lsls	r3, r3, #1
 3087 01da 0B44     		add	r3, r3, r1
 3088 01dc D31A     		subs	r3, r2, r3
 3089 01de DBB2     		uxtb	r3, r3
 3090 01e0 1A46     		mov	r2, r3
 3091 01e2 1346     		mov	r3, r2
 3092 01e4 5B01     		lsls	r3, r3, #5
 3093 01e6 1344     		add	r3, r3, r2
 570:main.c        ****             (unsigned)p[3], (int)(p[3]/3u), (int)((p[3]%3u)*33u));
 3094              		.loc 1 570 0 discriminator 4
 3095 01e8 07F11C00 		add	r0, r7, #28
 3096 01ec 0093     		str	r3, [sp]
 3097 01ee 2B46     		mov	r3, r5
 3098 01f0 2246     		mov	r2, r4
 3099 01f2 4649     		ldr	r1, .L184+36
 3100 01f4 FFF7FEFF 		bl	sprintf
 572:main.c        ****     UART_1_PutString(buf);
 3101              		.loc 1 572 0 discriminator 4
 3102 01f8 07F11C03 		add	r3, r7, #28
 3103 01fc 1846     		mov	r0, r3
ARM GAS  C:\Users\JENNEW~1\AppData\Local\Temp\ccHH9OS0.s 			page 72


 3104 01fe FFF7FEFF 		bl	UART_1_PutString
 573:main.c        **** 
 574:main.c        ****     if (plen >= 5u) {
 3105              		.loc 1 574 0 discriminator 4
 3106 0202 97F8E830 		ldrb	r3, [r7, #232]	@ zero_extendqisi2
 3107 0206 042B     		cmp	r3, #4
 3108 0208 10D9     		bls	.L159
 575:main.c        ****         sprintf(buf, "  off  4  uint8   /1     raw=%3u  =>  %u%%  [CPU]\r\n",
 576:main.c        ****                 (unsigned)p[4], (unsigned)p[4]);
 3109              		.loc 1 576 0
 3110 020a 3B68     		ldr	r3, [r7]
 3111 020c 0433     		adds	r3, r3, #4
 3112 020e 1B78     		ldrb	r3, [r3]	@ zero_extendqisi2
 575:main.c        ****         sprintf(buf, "  off  4  uint8   /1     raw=%3u  =>  %u%%  [CPU]\r\n",
 3113              		.loc 1 575 0
 3114 0210 1A46     		mov	r2, r3
 3115              		.loc 1 576 0
 3116 0212 3B68     		ldr	r3, [r7]
 3117 0214 0433     		adds	r3, r3, #4
 3118 0216 1B78     		ldrb	r3, [r3]	@ zero_extendqisi2
 575:main.c        ****         sprintf(buf, "  off  4  uint8   /1     raw=%3u  =>  %u%%  [CPU]\r\n",
 3119              		.loc 1 575 0
 3120 0218 07F11C00 		add	r0, r7, #28
 3121 021c 3C49     		ldr	r1, .L184+40
 3122 021e FFF7FEFF 		bl	sprintf
 577:main.c        ****         UART_1_PutString(buf);
 3123              		.loc 1 577 0
 3124 0222 07F11C03 		add	r3, r7, #28
 3125 0226 1846     		mov	r0, r3
 3126 0228 FFF7FEFF 		bl	UART_1_PutString
 3127              	.L159:
 578:main.c        ****     }
 579:main.c        ****     if (plen >= 7u) {
 3128              		.loc 1 579 0
 3129 022c 97F8E830 		ldrb	r3, [r7, #232]	@ zero_extendqisi2
 3130 0230 062B     		cmp	r3, #6
 3131 0232 20D9     		bls	.L160
 3132              	.LBB25:
 580:main.c        ****         int16_t st_r = SNAP16BE(p, plen, 5);
 3133              		.loc 1 580 0
 3134 0234 97F8E830 		ldrb	r3, [r7, #232]	@ zero_extendqisi2
 3135 0238 062B     		cmp	r3, #6
 3136 023a 0BD9     		bls	.L161
 3137              		.loc 1 580 0 is_stmt 0 discriminator 1
 3138 023c 3B68     		ldr	r3, [r7]
 3139 023e 0533     		adds	r3, r3, #5
 3140 0240 1B78     		ldrb	r3, [r3]	@ zero_extendqisi2
 3141 0242 1B02     		lsls	r3, r3, #8
 3142 0244 1AB2     		sxth	r2, r3
 3143 0246 3B68     		ldr	r3, [r7]
 3144 0248 0633     		adds	r3, r3, #6
 3145 024a 1B78     		ldrb	r3, [r3]	@ zero_extendqisi2
 3146 024c 1BB2     		sxth	r3, r3
 3147 024e 1343     		orrs	r3, r3, r2
 3148 0250 1BB2     		sxth	r3, r3
 3149 0252 00E0     		b	.L162
 3150              	.L161:
ARM GAS  C:\Users\JENNEW~1\AppData\Local\Temp\ccHH9OS0.s 			page 73


 3151              		.loc 1 580 0 discriminator 2
 3152 0254 0023     		movs	r3, #0
 3153              	.L162:
 3154              		.loc 1 580 0 discriminator 4
 3155 0256 A7F8CC30 		strh	r3, [r7, #204]	@ movhi
 581:main.c        ****         sprintf(buf, "  off  5  int16BE flags  raw=0x%04X  [STATUS FLAGS]\r\n",
 582:main.c        ****                 (unsigned)(uint16_t)st_r);
 3156              		.loc 1 582 0 is_stmt 1 discriminator 4
 3157 025a B7F8CC30 		ldrh	r3, [r7, #204]
 581:main.c        ****         sprintf(buf, "  off  5  int16BE flags  raw=0x%04X  [STATUS FLAGS]\r\n",
 3158              		.loc 1 581 0 discriminator 4
 3159 025e 1A46     		mov	r2, r3
 3160 0260 07F11C03 		add	r3, r7, #28
 3161 0264 2B49     		ldr	r1, .L184+44
 3162 0266 1846     		mov	r0, r3
 3163 0268 FFF7FEFF 		bl	sprintf
 583:main.c        ****         UART_1_PutString(buf);
 3164              		.loc 1 583 0 discriminator 4
 3165 026c 07F11C03 		add	r3, r7, #28
 3166 0270 1846     		mov	r0, r3
 3167 0272 FFF7FEFF 		bl	UART_1_PutString
 3168              	.L160:
 3169              	.LBE25:
 584:main.c        ****     }
 585:main.c        ****     if (plen >= 9u) {
 3170              		.loc 1 585 0
 3171 0276 97F8E830 		ldrb	r3, [r7, #232]	@ zero_extendqisi2
 3172 027a 082B     		cmp	r3, #8
 3173 027c 20D9     		bls	.L163
 3174              	.LBB26:
 586:main.c        ****         int16_t time_r = SNAP16BE(p, plen, 7);
 3175              		.loc 1 586 0
 3176 027e 97F8E830 		ldrb	r3, [r7, #232]	@ zero_extendqisi2
 3177 0282 082B     		cmp	r3, #8
 3178 0284 0BD9     		bls	.L164
 3179              		.loc 1 586 0 is_stmt 0 discriminator 1
 3180 0286 3B68     		ldr	r3, [r7]
 3181 0288 0733     		adds	r3, r3, #7
 3182 028a 1B78     		ldrb	r3, [r3]	@ zero_extendqisi2
 3183 028c 1B02     		lsls	r3, r3, #8
 3184 028e 1AB2     		sxth	r2, r3
 3185 0290 3B68     		ldr	r3, [r7]
 3186 0292 0833     		adds	r3, r3, #8
 3187 0294 1B78     		ldrb	r3, [r3]	@ zero_extendqisi2
 3188 0296 1BB2     		sxth	r3, r3
 3189 0298 1343     		orrs	r3, r3, r2
 3190 029a 1BB2     		sxth	r3, r3
 3191 029c 00E0     		b	.L165
 3192              	.L164:
 3193              		.loc 1 586 0 discriminator 2
 3194 029e 0023     		movs	r3, #0
 3195              	.L165:
 3196              		.loc 1 586 0 discriminator 4
 3197 02a0 A7F8CA30 		strh	r3, [r7, #202]	@ movhi
 587:main.c        ****         sprintf(buf, "  off  7  int16BE /1     raw=%6d  =>  %d s  [TIME]\r\n",
 3198              		.loc 1 587 0 is_stmt 1 discriminator 4
 3199 02a4 B7F9CA20 		ldrsh	r2, [r7, #202]
ARM GAS  C:\Users\JENNEW~1\AppData\Local\Temp\ccHH9OS0.s 			page 74


 3200 02a8 B7F9CA30 		ldrsh	r3, [r7, #202]
 3201 02ac 07F11C00 		add	r0, r7, #28
 3202 02b0 1949     		ldr	r1, .L184+48
 3203 02b2 FFF7FEFF 		bl	sprintf
 588:main.c        ****                 (int)time_r, (int)time_r);
 589:main.c        ****         UART_1_PutString(buf);
 3204              		.loc 1 589 0 discriminator 4
 3205 02b6 07F11C03 		add	r3, r7, #28
 3206 02ba 1846     		mov	r0, r3
 3207 02bc FFF7FEFF 		bl	UART_1_PutString
 3208              	.L163:
 3209              	.LBE26:
 590:main.c        ****     }
 591:main.c        ****     if (plen >= 11u) {
 3210              		.loc 1 591 0
 3211 02c0 97F8E830 		ldrb	r3, [r7, #232]	@ zero_extendqisi2
 3212 02c4 0A2B     		cmp	r3, #10
 3213 02c6 55D9     		bls	.L166
 3214              	.LBB27:
 592:main.c        ****         int16_t pres_r = SNAP16BE(p, plen, 9);
 3215              		.loc 1 592 0
 3216 02c8 97F8E830 		ldrb	r3, [r7, #232]	@ zero_extendqisi2
 3217 02cc 0A2B     		cmp	r3, #10
 3218 02ce 25D9     		bls	.L167
 3219              		.loc 1 592 0 is_stmt 0 discriminator 1
 3220 02d0 3B68     		ldr	r3, [r7]
 3221 02d2 0933     		adds	r3, r3, #9
 3222 02d4 1B78     		ldrb	r3, [r3]	@ zero_extendqisi2
 3223 02d6 1B02     		lsls	r3, r3, #8
 3224 02d8 1AB2     		sxth	r2, r3
 3225 02da 3B68     		ldr	r3, [r7]
 3226 02dc 0A33     		adds	r3, r3, #10
 3227 02de 1B78     		ldrb	r3, [r3]	@ zero_extendqisi2
 3228 02e0 1BB2     		sxth	r3, r3
 3229 02e2 1343     		orrs	r3, r3, r2
 3230 02e4 1BB2     		sxth	r3, r3
 3231 02e6 1AE0     		b	.L168
 3232              	.L185:
 3233              		.align	2
 3234              	.L184:
 3235 02e8 F8090000 		.word	.LC47
 3236 02ec B4010000 		.word	.LC11
 3237 02f0 C0010000 		.word	.LC12
 3238 02f4 C8010000 		.word	.LC13
 3239 02f8 C0070000 		.word	.LC38
 3240 02fc 0000C842 		.word	1120403456
 3241 0300 300A0000 		.word	.LC48
 3242 0304 700A0000 		.word	.LC49
 3243 0308 ABAAAAAA 		.word	-1431655765
 3244 030c AC0A0000 		.word	.LC50
 3245 0310 E80A0000 		.word	.LC51
 3246 0314 1C0B0000 		.word	.LC52
 3247 0318 540B0000 		.word	.LC53
 3248              	.L167:
 3249              		.loc 1 592 0 discriminator 2
 3250 031c 0023     		movs	r3, #0
 3251              	.L168:
ARM GAS  C:\Users\JENNEW~1\AppData\Local\Temp\ccHH9OS0.s 			page 75


 3252              		.loc 1 592 0 discriminator 4
 3253 031e A7F8C830 		strh	r3, [r7, #200]	@ movhi
 593:main.c        ****         decomp((float)pres_r / 10.0f, &vi, &vf, &s);
 3254              		.loc 1 593 0 is_stmt 1 discriminator 4
 3255 0322 B7F9C830 		ldrsh	r3, [r7, #200]
 3256 0326 1846     		mov	r0, r3
 3257 0328 FFF7FEFF 		bl	__aeabi_i2f
 3258 032c 0346     		mov	r3, r0
 3259 032e 7F49     		ldr	r1, .L186
 3260 0330 1846     		mov	r0, r3
 3261 0332 FFF7FEFF 		bl	__aeabi_fdiv
 3262 0336 0346     		mov	r3, r0
 3263 0338 1846     		mov	r0, r3
 3264 033a 07F11B03 		add	r3, r7, #27
 3265 033e 07F11602 		add	r2, r7, #22
 3266 0342 07F11801 		add	r1, r7, #24
 3267 0346 FFF7FEFF 		bl	decomp
 594:main.c        ****         sprintf(buf, "  off  9  int16BE /10    raw=%6d  =>  %c%d.%02d mb  [PRESSURE] *\r\n",
 3268              		.loc 1 594 0 discriminator 4
 3269 034a B7F9C820 		ldrsh	r2, [r7, #200]
 3270 034e FB7E     		ldrb	r3, [r7, #27]	@ zero_extendqisi2
 3271 0350 1C46     		mov	r4, r3
 3272 0352 B7F91830 		ldrsh	r3, [r7, #24]
 3273 0356 B7F91610 		ldrsh	r1, [r7, #22]
 3274 035a 07F11C00 		add	r0, r7, #28
 3275 035e 0191     		str	r1, [sp, #4]
 3276 0360 0093     		str	r3, [sp]
 3277 0362 2346     		mov	r3, r4
 3278 0364 7249     		ldr	r1, .L186+4
 3279 0366 FFF7FEFF 		bl	sprintf
 595:main.c        ****                 (int)pres_r, s, (int)vi, (int)vf);
 596:main.c        ****         UART_1_PutString(buf);
 3280              		.loc 1 596 0 discriminator 4
 3281 036a 07F11C03 		add	r3, r7, #28
 3282 036e 1846     		mov	r0, r3
 3283 0370 FFF7FEFF 		bl	UART_1_PutString
 3284              	.L166:
 3285              	.LBE27:
 597:main.c        ****     }
 598:main.c        **** 
 599:main.c        ****     UART_1_PutString("  -- fields below provisional (not yet iOS-verified) --\r\n");
 3286              		.loc 1 599 0
 3287 0374 6F48     		ldr	r0, .L186+8
 3288 0376 FFF7FEFF 		bl	UART_1_PutString
 600:main.c        **** 
 601:main.c        ****     if (plen >= 13u) {
 3289              		.loc 1 601 0
 3290 037a 97F8E830 		ldrb	r3, [r7, #232]	@ zero_extendqisi2
 3291 037e 0C2B     		cmp	r3, #12
 3292 0380 1FD9     		bls	.L169
 3293              	.LBB28:
 602:main.c        ****         int16_t imu_r = SNAP16BE(p, plen, 11);
 3294              		.loc 1 602 0
 3295 0382 97F8E830 		ldrb	r3, [r7, #232]	@ zero_extendqisi2
 3296 0386 0C2B     		cmp	r3, #12
 3297 0388 0BD9     		bls	.L170
 3298              		.loc 1 602 0 is_stmt 0 discriminator 1
ARM GAS  C:\Users\JENNEW~1\AppData\Local\Temp\ccHH9OS0.s 			page 76


 3299 038a 3B68     		ldr	r3, [r7]
 3300 038c 0B33     		adds	r3, r3, #11
 3301 038e 1B78     		ldrb	r3, [r3]	@ zero_extendqisi2
 3302 0390 1B02     		lsls	r3, r3, #8
 3303 0392 1AB2     		sxth	r2, r3
 3304 0394 3B68     		ldr	r3, [r7]
 3305 0396 0C33     		adds	r3, r3, #12
 3306 0398 1B78     		ldrb	r3, [r3]	@ zero_extendqisi2
 3307 039a 1BB2     		sxth	r3, r3
 3308 039c 1343     		orrs	r3, r3, r2
 3309 039e 1BB2     		sxth	r3, r3
 3310 03a0 00E0     		b	.L171
 3311              	.L170:
 3312              		.loc 1 602 0 discriminator 2
 3313 03a2 0023     		movs	r3, #0
 3314              	.L171:
 3315              		.loc 1 602 0 discriminator 4
 3316 03a4 A7F8C630 		strh	r3, [r7, #198]	@ movhi
 603:main.c        ****         sprintf(buf, "  off 11  int16BE /1     raw=%6d  [IMU RATE]\r\n", (int)imu_r);
 3317              		.loc 1 603 0 is_stmt 1 discriminator 4
 3318 03a8 B7F9C620 		ldrsh	r2, [r7, #198]
 3319 03ac 07F11C03 		add	r3, r7, #28
 3320 03b0 6149     		ldr	r1, .L186+12
 3321 03b2 1846     		mov	r0, r3
 3322 03b4 FFF7FEFF 		bl	sprintf
 604:main.c        ****         UART_1_PutString(buf);
 3323              		.loc 1 604 0 discriminator 4
 3324 03b8 07F11C03 		add	r3, r7, #28
 3325 03bc 1846     		mov	r0, r3
 3326 03be FFF7FEFF 		bl	UART_1_PutString
 3327              	.L169:
 3328              	.LBE28:
 605:main.c        ****     }
 606:main.c        ****     if (plen >= 15u) {
 3329              		.loc 1 606 0
 3330 03c2 97F8E830 		ldrb	r3, [r7, #232]	@ zero_extendqisi2
 3331 03c6 0E2B     		cmp	r3, #14
 3332 03c8 20D9     		bls	.L172
 3333              	.LBB29:
 607:main.c        ****         int16_t cam_r = SNAP16BE(p, plen, 13);
 3334              		.loc 1 607 0
 3335 03ca 97F8E830 		ldrb	r3, [r7, #232]	@ zero_extendqisi2
 3336 03ce 0E2B     		cmp	r3, #14
 3337 03d0 0BD9     		bls	.L173
 3338              		.loc 1 607 0 is_stmt 0 discriminator 1
 3339 03d2 3B68     		ldr	r3, [r7]
 3340 03d4 0D33     		adds	r3, r3, #13
 3341 03d6 1B78     		ldrb	r3, [r3]	@ zero_extendqisi2
 3342 03d8 1B02     		lsls	r3, r3, #8
 3343 03da 1AB2     		sxth	r2, r3
 3344 03dc 3B68     		ldr	r3, [r7]
 3345 03de 0E33     		adds	r3, r3, #14
 3346 03e0 1B78     		ldrb	r3, [r3]	@ zero_extendqisi2
 3347 03e2 1BB2     		sxth	r3, r3
 3348 03e4 1343     		orrs	r3, r3, r2
 3349 03e6 1BB2     		sxth	r3, r3
 3350 03e8 00E0     		b	.L174
ARM GAS  C:\Users\JENNEW~1\AppData\Local\Temp\ccHH9OS0.s 			page 77


 3351              	.L173:
 3352              		.loc 1 607 0 discriminator 2
 3353 03ea 0023     		movs	r3, #0
 3354              	.L174:
 3355              		.loc 1 607 0 discriminator 4
 3356 03ec A7F8C430 		strh	r3, [r7, #196]	@ movhi
 608:main.c        ****         sprintf(buf, "  off 13  int16BE flags  raw=0x%04X  [CAM STATUS]\r\n",
 609:main.c        ****                 (unsigned)(uint16_t)cam_r);
 3357              		.loc 1 609 0 is_stmt 1 discriminator 4
 3358 03f0 B7F8C430 		ldrh	r3, [r7, #196]
 608:main.c        ****         sprintf(buf, "  off 13  int16BE flags  raw=0x%04X  [CAM STATUS]\r\n",
 3359              		.loc 1 608 0 discriminator 4
 3360 03f4 1A46     		mov	r2, r3
 3361 03f6 07F11C03 		add	r3, r7, #28
 3362 03fa 5049     		ldr	r1, .L186+16
 3363 03fc 1846     		mov	r0, r3
 3364 03fe FFF7FEFF 		bl	sprintf
 610:main.c        ****         UART_1_PutString(buf);
 3365              		.loc 1 610 0 discriminator 4
 3366 0402 07F11C03 		add	r3, r7, #28
 3367 0406 1846     		mov	r0, r3
 3368 0408 FFF7FEFF 		bl	UART_1_PutString
 3369              	.L172:
 3370              	.LBE29:
 611:main.c        ****     }
 612:main.c        ****     if (plen >= 18u) {
 3371              		.loc 1 612 0
 3372 040c 97F8E830 		ldrb	r3, [r7, #232]	@ zero_extendqisi2
 3373 0410 112B     		cmp	r3, #17
 3374 0412 1FD9     		bls	.L175
 3375              	.LBB30:
 613:main.c        ****         int16_t lat_r = SNAP16BE(p, plen, 16);
 3376              		.loc 1 613 0
 3377 0414 97F8E830 		ldrb	r3, [r7, #232]	@ zero_extendqisi2
 3378 0418 112B     		cmp	r3, #17
 3379 041a 0BD9     		bls	.L176
 3380              		.loc 1 613 0 is_stmt 0 discriminator 1
 3381 041c 3B68     		ldr	r3, [r7]
 3382 041e 1033     		adds	r3, r3, #16
 3383 0420 1B78     		ldrb	r3, [r3]	@ zero_extendqisi2
 3384 0422 1B02     		lsls	r3, r3, #8
 3385 0424 1AB2     		sxth	r2, r3
 3386 0426 3B68     		ldr	r3, [r7]
 3387 0428 1133     		adds	r3, r3, #17
 3388 042a 1B78     		ldrb	r3, [r3]	@ zero_extendqisi2
 3389 042c 1BB2     		sxth	r3, r3
 3390 042e 1343     		orrs	r3, r3, r2
 3391 0430 1BB2     		sxth	r3, r3
 3392 0432 00E0     		b	.L177
 3393              	.L176:
 3394              		.loc 1 613 0 discriminator 2
 3395 0434 0023     		movs	r3, #0
 3396              	.L177:
 3397              		.loc 1 613 0 discriminator 4
 3398 0436 A7F8C230 		strh	r3, [r7, #194]	@ movhi
 614:main.c        ****         sprintf(buf, "  off 16  int16BE /1     raw=%6d  [IMU LATENCY]\r\n", (int)lat_r);
 3399              		.loc 1 614 0 is_stmt 1 discriminator 4
ARM GAS  C:\Users\JENNEW~1\AppData\Local\Temp\ccHH9OS0.s 			page 78


 3400 043a B7F9C220 		ldrsh	r2, [r7, #194]
 3401 043e 07F11C03 		add	r3, r7, #28
 3402 0442 3F49     		ldr	r1, .L186+20
 3403 0444 1846     		mov	r0, r3
 3404 0446 FFF7FEFF 		bl	sprintf
 615:main.c        ****         UART_1_PutString(buf);
 3405              		.loc 1 615 0 discriminator 4
 3406 044a 07F11C03 		add	r3, r7, #28
 3407 044e 1846     		mov	r0, r3
 3408 0450 FFF7FEFF 		bl	UART_1_PutString
 3409              	.L175:
 3410              	.LBE30:
 616:main.c        ****     }
 617:main.c        ****     if (plen >= 20u) {
 3411              		.loc 1 617 0
 3412 0454 97F8E830 		ldrb	r3, [r7, #232]	@ zero_extendqisi2
 3413 0458 132B     		cmp	r3, #19
 3414 045a 3BD9     		bls	.L178
 3415              	.LBB31:
 618:main.c        ****         int16_t ba_r = SNAP16BE(p, plen, 18);
 3416              		.loc 1 618 0
 3417 045c 97F8E830 		ldrb	r3, [r7, #232]	@ zero_extendqisi2
 3418 0460 132B     		cmp	r3, #19
 3419 0462 0BD9     		bls	.L179
 3420              		.loc 1 618 0 is_stmt 0 discriminator 1
 3421 0464 3B68     		ldr	r3, [r7]
 3422 0466 1233     		adds	r3, r3, #18
 3423 0468 1B78     		ldrb	r3, [r3]	@ zero_extendqisi2
 3424 046a 1B02     		lsls	r3, r3, #8
 3425 046c 1AB2     		sxth	r2, r3
 3426 046e 3B68     		ldr	r3, [r7]
 3427 0470 1333     		adds	r3, r3, #19
 3428 0472 1B78     		ldrb	r3, [r3]	@ zero_extendqisi2
 3429 0474 1BB2     		sxth	r3, r3
 3430 0476 1343     		orrs	r3, r3, r2
 3431 0478 1BB2     		sxth	r3, r3
 3432 047a 00E0     		b	.L180
 3433              	.L179:
 3434              		.loc 1 618 0 discriminator 2
 3435 047c 0023     		movs	r3, #0
 3436              	.L180:
 3437              		.loc 1 618 0 discriminator 4
 3438 047e A7F8C030 		strh	r3, [r7, #192]	@ movhi
 619:main.c        ****         decomp((float)ba_r / 100.0f, &vi, &vf, &s);
 3439              		.loc 1 619 0 is_stmt 1 discriminator 4
 3440 0482 B7F9C030 		ldrsh	r3, [r7, #192]
 3441 0486 1846     		mov	r0, r3
 3442 0488 FFF7FEFF 		bl	__aeabi_i2f
 3443 048c 0346     		mov	r3, r0
 3444 048e 2D49     		ldr	r1, .L186+24
 3445 0490 1846     		mov	r0, r3
 3446 0492 FFF7FEFF 		bl	__aeabi_fdiv
 3447 0496 0346     		mov	r3, r0
 3448 0498 1846     		mov	r0, r3
 3449 049a 07F11B03 		add	r3, r7, #27
 3450 049e 07F11602 		add	r2, r7, #22
 3451 04a2 07F11801 		add	r1, r7, #24
ARM GAS  C:\Users\JENNEW~1\AppData\Local\Temp\ccHH9OS0.s 			page 79


 3452 04a6 FFF7FEFF 		bl	decomp
 620:main.c        ****         sprintf(buf, "  off 18  int16BE /100   raw=%6d  =>  %c%d.%02d A  [BATT A]\r\n",
 3453              		.loc 1 620 0 discriminator 4
 3454 04aa B7F9C020 		ldrsh	r2, [r7, #192]
 3455 04ae FB7E     		ldrb	r3, [r7, #27]	@ zero_extendqisi2
 3456 04b0 1C46     		mov	r4, r3
 3457 04b2 B7F91830 		ldrsh	r3, [r7, #24]
 3458 04b6 B7F91610 		ldrsh	r1, [r7, #22]
 3459 04ba 07F11C00 		add	r0, r7, #28
 3460 04be 0191     		str	r1, [sp, #4]
 3461 04c0 0093     		str	r3, [sp]
 3462 04c2 2346     		mov	r3, r4
 3463 04c4 2049     		ldr	r1, .L186+28
 3464 04c6 FFF7FEFF 		bl	sprintf
 621:main.c        ****                 (int)ba_r, s, (int)vi, (int)vf);
 622:main.c        ****         UART_1_PutString(buf);
 3465              		.loc 1 622 0 discriminator 4
 3466 04ca 07F11C03 		add	r3, r7, #28
 3467 04ce 1846     		mov	r0, r3
 3468 04d0 FFF7FEFF 		bl	UART_1_PutString
 3469              	.L178:
 3470              	.LBE31:
 623:main.c        ****     }
 624:main.c        ****     if (plen >= 22u) {
 3471              		.loc 1 624 0
 3472 04d4 97F8E830 		ldrb	r3, [r7, #232]	@ zero_extendqisi2
 3473 04d8 152B     		cmp	r3, #21
 3474 04da 20D9     		bls	.L181
 3475              	.LBB32:
 625:main.c        ****         int16_t chg_r = SNAP16BE(p, plen, 20);
 3476              		.loc 1 625 0
 3477 04dc 97F8E830 		ldrb	r3, [r7, #232]	@ zero_extendqisi2
 3478 04e0 152B     		cmp	r3, #21
 3479 04e2 0BD9     		bls	.L182
 3480              		.loc 1 625 0 is_stmt 0 discriminator 1
 3481 04e4 3B68     		ldr	r3, [r7]
 3482 04e6 1433     		adds	r3, r3, #20
 3483 04e8 1B78     		ldrb	r3, [r3]	@ zero_extendqisi2
 3484 04ea 1B02     		lsls	r3, r3, #8
 3485 04ec 1AB2     		sxth	r2, r3
 3486 04ee 3B68     		ldr	r3, [r7]
 3487 04f0 1533     		adds	r3, r3, #21
 3488 04f2 1B78     		ldrb	r3, [r3]	@ zero_extendqisi2
 3489 04f4 1BB2     		sxth	r3, r3
 3490 04f6 1343     		orrs	r3, r3, r2
 3491 04f8 1BB2     		sxth	r3, r3
 3492 04fa 00E0     		b	.L183
 3493              	.L182:
 3494              		.loc 1 625 0 discriminator 2
 3495 04fc 0023     		movs	r3, #0
 3496              	.L183:
 3497              		.loc 1 625 0 discriminator 4
 3498 04fe A7F8BE30 		strh	r3, [r7, #190]	@ movhi
 626:main.c        ****         sprintf(buf, "  off 20  int16BE /1     raw=%6d  =>  %d mAh  [CHARGE USED]\r\n",
 3499              		.loc 1 626 0 is_stmt 1 discriminator 4
 3500 0502 B7F9BE20 		ldrsh	r2, [r7, #190]
 3501 0506 B7F9BE30 		ldrsh	r3, [r7, #190]
ARM GAS  C:\Users\JENNEW~1\AppData\Local\Temp\ccHH9OS0.s 			page 80


 3502 050a 07F11C00 		add	r0, r7, #28
 3503 050e 0F49     		ldr	r1, .L186+32
 3504 0510 FFF7FEFF 		bl	sprintf
 627:main.c        ****                 (int)chg_r, (int)chg_r);
 628:main.c        ****         UART_1_PutString(buf);
 3505              		.loc 1 628 0 discriminator 4
 3506 0514 07F11C03 		add	r3, r7, #28
 3507 0518 1846     		mov	r0, r3
 3508 051a FFF7FEFF 		bl	UART_1_PutString
 3509              	.L181:
 3510              	.LBE32:
 629:main.c        ****     }
 630:main.c        ****     UART_1_PutString("  (* = confirmed against iOS app)\r\n");
 3511              		.loc 1 630 0
 3512 051e 0C48     		ldr	r0, .L186+36
 3513 0520 FFF7FEFF 		bl	UART_1_PutString
 3514              	.L149:
 631:main.c        **** }
 3515              		.loc 1 631 0
 3516 0524 D837     		adds	r7, r7, #216
 3517              		.cfi_def_cfa_offset 16
 3518 0526 BD46     		mov	sp, r7
 3519              		.cfi_def_cfa_register 13
 3520              		@ sp needed
 3521 0528 B0BD     		pop	{r4, r5, r7, pc}
 3522              	.L187:
 3523 052a 00BF     		.align	2
 3524              	.L186:
 3525 052c 00002041 		.word	1092616192
 3526 0530 8C0B0000 		.word	.LC54
 3527 0534 D00B0000 		.word	.LC55
 3528 0538 0C0C0000 		.word	.LC56
 3529 053c 3C0C0000 		.word	.LC57
 3530 0540 700C0000 		.word	.LC58
 3531 0544 0000C842 		.word	1120403456
 3532 0548 A40C0000 		.word	.LC59
 3533 054c E40C0000 		.word	.LC60
 3534 0550 240D0000 		.word	.LC61
 3535              		.cfi_endproc
 3536              	.LFE76:
 3537              		.size	print_test_sysstat, .-print_test_sysstat
 3538              		.section	.rodata
 3539              		.align	2
 3540              	.LC62:
 3541 0d48 0D0A5B54 		.ascii	"\015\012[TEST][Mag] attr=12  dt=%lums  rxlen=%u  sn"
 3541      4553545D 
 3541      5B4D6167 
 3541      5D206174 
 3541      74723D31 
 3542 0d75 61706C65 		.ascii	"aplen=%u\015\012\000"
 3542      6E3D2575 
 3542      0D0A00
 3543              		.align	2
 3544              	.LC63:
 3545 0d80 20206F66 		.ascii	"  off  1  int16  /1000  raw=%6d  =>  %c%d.%02d  [MA"
 3545      66202031 
 3545      2020696E 
ARM GAS  C:\Users\JENNEW~1\AppData\Local\Temp\ccHH9OS0.s 			page 81


 3545      74313620 
 3545      202F3130 
 3546 0db3 4720585D 		.ascii	"G X]\015\012\000"
 3546      0D0A00
 3547 0dba 0000     		.align	2
 3548              	.LC64:
 3549 0dbc 20206F66 		.ascii	"  off  3  int16  /1000  raw=%6d  =>  %c%d.%02d  [MA"
 3549      66202033 
 3549      2020696E 
 3549      74313620 
 3549      202F3130 
 3550 0def 4720595D 		.ascii	"G Y]\015\012\000"
 3550      0D0A00
 3551 0df6 0000     		.align	2
 3552              	.LC65:
 3553 0df8 20206F66 		.ascii	"  off  5  int16  /1000  raw=%6d  =>  %c%d.%02d  [MA"
 3553      66202035 
 3553      2020696E 
 3553      74313620 
 3553      202F3130 
 3554 0e2b 47205A5D 		.ascii	"G Z]\015\012\000"
 3554      0D0A00
 3555 0e32 0000     		.align	2
 3556              	.LC66:
 3557 0e34 20206F66 		.ascii	"  off  7  int16  /100   raw=%6d  =>  %c%d.%02d  [MA"
 3557      66202037 
 3557      2020696E 
 3557      74313620 
 3557      202F3130 
 3558 0e67 474E4954 		.ascii	"GNITUDE]\015\012\000"
 3558      5544455D 
 3558      0D0A00
 3559 0e72 0000     		.align	2
 3560              	.LC67:
 3561 0e74 20206F66 		.ascii	"  off  9  int16  /100   raw=%6d  =>  %c%d.%02d Hz  "
 3561      66202039 
 3561      2020696E 
 3561      74313620 
 3561      202F3130 
 3562 0ea7 5B465245 		.ascii	"[FREQ]\015\012\000"
 3562      515D0D0A 
 3562      00
 3563              		.align	2
 3564              	.LC68:
 3565 0eb0 20206F66 		.ascii	"  off 11  int16  /1000  raw=%6d  =>  %c%d.%02d  [OF"
 3565      66203131 
 3565      2020696E 
 3565      74313620 
 3565      202F3130 
 3566 0ee3 4620585D 		.ascii	"F X]\015\012\000"
 3566      0D0A00
 3567 0eea 0000     		.align	2
 3568              	.LC69:
 3569 0eec 20206F66 		.ascii	"  off 13  int16  /1000  raw=%6d  =>  %c%d.%02d  [OF"
 3569      66203133 
 3569      2020696E 
 3569      74313620 
ARM GAS  C:\Users\JENNEW~1\AppData\Local\Temp\ccHH9OS0.s 			page 82


 3569      202F3130 
 3570 0f1f 4620595D 		.ascii	"F Y]\015\012\000"
 3570      0D0A00
 3571 0f26 0000     		.align	2
 3572              	.LC70:
 3573 0f28 20206F66 		.ascii	"  off 15  int16  /1000  raw=%6d  =>  %c%d.%02d  [OF"
 3573      66203135 
 3573      2020696E 
 3573      74313620 
 3573      202F3130 
 3574 0f5b 46205A5D 		.ascii	"F Z]\015\012\000"
 3574      0D0A00
 3575 0f62 0000     		.align	2
 3576              	.LC71:
 3577 0f64 20206F66 		.ascii	"  off 17  int16  /10    raw=%6d  =>  %c%d.%02d deg "
 3577      66203137 
 3577      2020696E 
 3577      74313620 
 3577      202F3130 
 3578 0f97 205B4445 		.ascii	" [DECLINATION]\015\012\000"
 3578      434C494E 
 3578      4154494F 
 3578      4E5D0D0A 
 3578      00
 3579              		.section	.text.print_test_mag,"ax",%progbits
 3580              		.align	2
 3581              		.thumb
 3582              		.thumb_func
 3583              		.type	print_test_mag, %function
 3584              	print_test_mag:
 3585              	.LFB77:
 632:main.c        **** 
 633:main.c        **** /* --- attr 12: Magnetometer --- */
 634:main.c        **** static void print_test_mag(const movi_status_t* st, uint32_t dt,
 635:main.c        ****                             uint16_t rxlen, const uint8_t* p, uint8_t plen)
 636:main.c        **** {
 3586              		.loc 1 636 0
 3587              		.cfi_startproc
 3588              		@ args = 4, pretend = 0, frame = 224
 3589              		@ frame_needed = 1, uses_anonymous_args = 0
 3590 0000 90B5     		push	{r4, r7, lr}
 3591              		.cfi_def_cfa_offset 12
 3592              		.cfi_offset 4, -12
 3593              		.cfi_offset 7, -8
 3594              		.cfi_offset 14, -4
 3595 0002 BBB0     		sub	sp, sp, #236
 3596              		.cfi_def_cfa_offset 248
 3597 0004 02AF     		add	r7, sp, #8
 3598              		.cfi_def_cfa 7, 240
 3599 0006 F860     		str	r0, [r7, #12]
 3600 0008 B960     		str	r1, [r7, #8]
 3601 000a 3B60     		str	r3, [r7]
 3602 000c 1346     		mov	r3, r2	@ movhi
 3603 000e FB80     		strh	r3, [r7, #6]	@ movhi
 637:main.c        ****     char buf[TRANSMIT_BUFFER_SIZE];
 638:main.c        ****     (void)st;
 639:main.c        **** 
ARM GAS  C:\Users\JENNEW~1\AppData\Local\Temp\ccHH9OS0.s 			page 83


 640:main.c        ****     sprintf(buf, "\r\n[TEST][Mag] attr=12  dt=%lums  rxlen=%u  snaplen=%u\r\n",
 3604              		.loc 1 640 0
 3605 0010 FA88     		ldrh	r2, [r7, #6]
 3606 0012 97F8F030 		ldrb	r3, [r7, #240]	@ zero_extendqisi2
 3607 0016 07F12C00 		add	r0, r7, #44
 3608 001a 0093     		str	r3, [sp]
 3609 001c 1346     		mov	r3, r2
 3610 001e BA68     		ldr	r2, [r7, #8]
 3611 0020 C249     		ldr	r1, .L212
 3612 0022 FFF7FEFF 		bl	sprintf
 641:main.c        ****             (unsigned long)dt, (unsigned)rxlen, (unsigned)plen);
 642:main.c        ****     UART_1_PutString(buf);
 3613              		.loc 1 642 0
 3614 0026 07F12C03 		add	r3, r7, #44
 3615 002a 1846     		mov	r0, r3
 3616 002c FFF7FEFF 		bl	UART_1_PutString
 643:main.c        **** 
 644:main.c        ****     if (plen < 6u) {
 3617              		.loc 1 644 0
 3618 0030 97F8F030 		ldrb	r3, [r7, #240]	@ zero_extendqisi2
 3619 0034 052B     		cmp	r3, #5
 3620 0036 0DD8     		bhi	.L189
 645:main.c        ****         sprintf(buf, "  ERROR: snapshot only %u bytes\r\n", (unsigned)plen);
 3621              		.loc 1 645 0
 3622 0038 97F8F020 		ldrb	r2, [r7, #240]	@ zero_extendqisi2
 3623 003c 07F12C03 		add	r3, r7, #44
 3624 0040 BB49     		ldr	r1, .L212+4
 3625 0042 1846     		mov	r0, r3
 3626 0044 FFF7FEFF 		bl	sprintf
 646:main.c        ****         UART_1_PutString(buf);
 3627              		.loc 1 646 0
 3628 0048 07F12C03 		add	r3, r7, #44
 3629 004c 1846     		mov	r0, r3
 3630 004e FFF7FEFF 		bl	UART_1_PutString
 3631 0052 3FE2     		b	.L188
 3632              	.L189:
 647:main.c        ****         return;
 648:main.c        ****     }
 649:main.c        **** 
 650:main.c        ****     char s; int16 vi, vf;
 651:main.c        **** 
 652:main.c        ****     int16_t x_r  = SNAP16(p, plen,  1);
 3633              		.loc 1 652 0
 3634 0054 97F8F030 		ldrb	r3, [r7, #240]	@ zero_extendqisi2
 3635 0058 022B     		cmp	r3, #2
 3636 005a 0AD9     		bls	.L191
 3637              	.LBB33:
 3638              		.loc 1 652 0 is_stmt 0 discriminator 1
 3639 005c 3B68     		ldr	r3, [r7]
 3640 005e 591C     		adds	r1, r3, #1
 3641 0060 07F12403 		add	r3, r7, #36
 3642 0064 0222     		movs	r2, #2
 3643 0066 1846     		mov	r0, r3
 3644 0068 FFF7FEFF 		bl	memcpy
 3645 006c B7F92430 		ldrsh	r3, [r7, #36]
 3646              	.LBE33:
 3647 0070 00E0     		b	.L192
ARM GAS  C:\Users\JENNEW~1\AppData\Local\Temp\ccHH9OS0.s 			page 84


 3648              	.L191:
 3649              		.loc 1 652 0 discriminator 2
 3650 0072 0023     		movs	r3, #0
 3651              	.L192:
 3652              		.loc 1 652 0 discriminator 4
 3653 0074 A7F8DE30 		strh	r3, [r7, #222]	@ movhi
 653:main.c        ****     int16_t y_r  = SNAP16(p, plen,  3);
 3654              		.loc 1 653 0 is_stmt 1 discriminator 4
 3655 0078 97F8F030 		ldrb	r3, [r7, #240]	@ zero_extendqisi2
 3656 007c 042B     		cmp	r3, #4
 3657 007e 0AD9     		bls	.L193
 3658              	.LBB34:
 3659              		.loc 1 653 0 is_stmt 0 discriminator 1
 3660 0080 3B68     		ldr	r3, [r7]
 3661 0082 D91C     		adds	r1, r3, #3
 3662 0084 07F12203 		add	r3, r7, #34
 3663 0088 0222     		movs	r2, #2
 3664 008a 1846     		mov	r0, r3
 3665 008c FFF7FEFF 		bl	memcpy
 3666 0090 B7F92230 		ldrsh	r3, [r7, #34]
 3667              	.LBE34:
 3668 0094 00E0     		b	.L194
 3669              	.L193:
 3670              		.loc 1 653 0 discriminator 2
 3671 0096 0023     		movs	r3, #0
 3672              	.L194:
 3673              		.loc 1 653 0 discriminator 4
 3674 0098 A7F8DC30 		strh	r3, [r7, #220]	@ movhi
 654:main.c        ****     int16_t z_r  = SNAP16(p, plen,  5);
 3675              		.loc 1 654 0 is_stmt 1 discriminator 4
 3676 009c 97F8F030 		ldrb	r3, [r7, #240]	@ zero_extendqisi2
 3677 00a0 062B     		cmp	r3, #6
 3678 00a2 0AD9     		bls	.L195
 3679              	.LBB35:
 3680              		.loc 1 654 0 is_stmt 0 discriminator 1
 3681 00a4 3B68     		ldr	r3, [r7]
 3682 00a6 591D     		adds	r1, r3, #5
 3683 00a8 07F12003 		add	r3, r7, #32
 3684 00ac 0222     		movs	r2, #2
 3685 00ae 1846     		mov	r0, r3
 3686 00b0 FFF7FEFF 		bl	memcpy
 3687 00b4 B7F92030 		ldrsh	r3, [r7, #32]
 3688              	.LBE35:
 3689 00b8 00E0     		b	.L196
 3690              	.L195:
 3691              		.loc 1 654 0 discriminator 2
 3692 00ba 0023     		movs	r3, #0
 3693              	.L196:
 3694              		.loc 1 654 0 discriminator 4
 3695 00bc A7F8DA30 		strh	r3, [r7, #218]	@ movhi
 655:main.c        **** 
 656:main.c        ****     decomp((float)x_r / 1000.0f, &vi, &vf, &s);
 3696              		.loc 1 656 0 is_stmt 1 discriminator 4
 3697 00c0 B7F9DE30 		ldrsh	r3, [r7, #222]
 3698 00c4 1846     		mov	r0, r3
 3699 00c6 FFF7FEFF 		bl	__aeabi_i2f
 3700 00ca 0346     		mov	r3, r0
ARM GAS  C:\Users\JENNEW~1\AppData\Local\Temp\ccHH9OS0.s 			page 85


 3701 00cc 9949     		ldr	r1, .L212+8
 3702 00ce 1846     		mov	r0, r3
 3703 00d0 FFF7FEFF 		bl	__aeabi_fdiv
 3704 00d4 0346     		mov	r3, r0
 3705 00d6 1846     		mov	r0, r3
 3706 00d8 07F12B03 		add	r3, r7, #43
 3707 00dc 07F12602 		add	r2, r7, #38
 3708 00e0 07F12801 		add	r1, r7, #40
 3709 00e4 FFF7FEFF 		bl	decomp
 657:main.c        ****     sprintf(buf, "  off  1  int16  /1000  raw=%6d  =>  %c%d.%02d  [MAG X]\r\n",
 3710              		.loc 1 657 0 discriminator 4
 3711 00e8 B7F9DE20 		ldrsh	r2, [r7, #222]
 3712 00ec 97F82B30 		ldrb	r3, [r7, #43]	@ zero_extendqisi2
 3713 00f0 1C46     		mov	r4, r3
 3714 00f2 B7F92830 		ldrsh	r3, [r7, #40]
 3715 00f6 B7F92610 		ldrsh	r1, [r7, #38]
 3716 00fa 07F12C00 		add	r0, r7, #44
 3717 00fe 0191     		str	r1, [sp, #4]
 3718 0100 0093     		str	r3, [sp]
 3719 0102 2346     		mov	r3, r4
 3720 0104 8C49     		ldr	r1, .L212+12
 3721 0106 FFF7FEFF 		bl	sprintf
 658:main.c        ****             (int)x_r, s, (int)vi, (int)vf);
 659:main.c        ****     UART_1_PutString(buf);
 3722              		.loc 1 659 0 discriminator 4
 3723 010a 07F12C03 		add	r3, r7, #44
 3724 010e 1846     		mov	r0, r3
 3725 0110 FFF7FEFF 		bl	UART_1_PutString
 660:main.c        **** 
 661:main.c        ****     decomp((float)y_r / 1000.0f, &vi, &vf, &s);
 3726              		.loc 1 661 0 discriminator 4
 3727 0114 B7F9DC30 		ldrsh	r3, [r7, #220]
 3728 0118 1846     		mov	r0, r3
 3729 011a FFF7FEFF 		bl	__aeabi_i2f
 3730 011e 0346     		mov	r3, r0
 3731 0120 8449     		ldr	r1, .L212+8
 3732 0122 1846     		mov	r0, r3
 3733 0124 FFF7FEFF 		bl	__aeabi_fdiv
 3734 0128 0346     		mov	r3, r0
 3735 012a 1846     		mov	r0, r3
 3736 012c 07F12B03 		add	r3, r7, #43
 3737 0130 07F12602 		add	r2, r7, #38
 3738 0134 07F12801 		add	r1, r7, #40
 3739 0138 FFF7FEFF 		bl	decomp
 662:main.c        ****     sprintf(buf, "  off  3  int16  /1000  raw=%6d  =>  %c%d.%02d  [MAG Y]\r\n",
 3740              		.loc 1 662 0 discriminator 4
 3741 013c B7F9DC20 		ldrsh	r2, [r7, #220]
 3742 0140 97F82B30 		ldrb	r3, [r7, #43]	@ zero_extendqisi2
 3743 0144 1C46     		mov	r4, r3
 3744 0146 B7F92830 		ldrsh	r3, [r7, #40]
 3745 014a B7F92610 		ldrsh	r1, [r7, #38]
 3746 014e 07F12C00 		add	r0, r7, #44
 3747 0152 0191     		str	r1, [sp, #4]
 3748 0154 0093     		str	r3, [sp]
 3749 0156 2346     		mov	r3, r4
 3750 0158 7849     		ldr	r1, .L212+16
 3751 015a FFF7FEFF 		bl	sprintf
ARM GAS  C:\Users\JENNEW~1\AppData\Local\Temp\ccHH9OS0.s 			page 86


 663:main.c        ****             (int)y_r, s, (int)vi, (int)vf);
 664:main.c        ****     UART_1_PutString(buf);
 3752              		.loc 1 664 0 discriminator 4
 3753 015e 07F12C03 		add	r3, r7, #44
 3754 0162 1846     		mov	r0, r3
 3755 0164 FFF7FEFF 		bl	UART_1_PutString
 665:main.c        **** 
 666:main.c        ****     decomp((float)z_r / 1000.0f, &vi, &vf, &s);
 3756              		.loc 1 666 0 discriminator 4
 3757 0168 B7F9DA30 		ldrsh	r3, [r7, #218]
 3758 016c 1846     		mov	r0, r3
 3759 016e FFF7FEFF 		bl	__aeabi_i2f
 3760 0172 0346     		mov	r3, r0
 3761 0174 6F49     		ldr	r1, .L212+8
 3762 0176 1846     		mov	r0, r3
 3763 0178 FFF7FEFF 		bl	__aeabi_fdiv
 3764 017c 0346     		mov	r3, r0
 3765 017e 1846     		mov	r0, r3
 3766 0180 07F12B03 		add	r3, r7, #43
 3767 0184 07F12602 		add	r2, r7, #38
 3768 0188 07F12801 		add	r1, r7, #40
 3769 018c FFF7FEFF 		bl	decomp
 667:main.c        ****     sprintf(buf, "  off  5  int16  /1000  raw=%6d  =>  %c%d.%02d  [MAG Z]\r\n",
 3770              		.loc 1 667 0 discriminator 4
 3771 0190 B7F9DA20 		ldrsh	r2, [r7, #218]
 3772 0194 97F82B30 		ldrb	r3, [r7, #43]	@ zero_extendqisi2
 3773 0198 1C46     		mov	r4, r3
 3774 019a B7F92830 		ldrsh	r3, [r7, #40]
 3775 019e B7F92610 		ldrsh	r1, [r7, #38]
 3776 01a2 07F12C00 		add	r0, r7, #44
 3777 01a6 0191     		str	r1, [sp, #4]
 3778 01a8 0093     		str	r3, [sp]
 3779 01aa 2346     		mov	r3, r4
 3780 01ac 6449     		ldr	r1, .L212+20
 3781 01ae FFF7FEFF 		bl	sprintf
 668:main.c        ****             (int)z_r, s, (int)vi, (int)vf);
 669:main.c        ****     UART_1_PutString(buf);
 3782              		.loc 1 669 0 discriminator 4
 3783 01b2 07F12C03 		add	r3, r7, #44
 3784 01b6 1846     		mov	r0, r3
 3785 01b8 FFF7FEFF 		bl	UART_1_PutString
 670:main.c        **** 
 671:main.c        ****     if (plen >= 11u) {
 3786              		.loc 1 671 0 discriminator 4
 3787 01bc 97F8F030 		ldrb	r3, [r7, #240]	@ zero_extendqisi2
 3788 01c0 0A2B     		cmp	r3, #10
 3789 01c2 78D9     		bls	.L197
 3790              	.LBB36:
 672:main.c        ****         int16_t mag_r  = SNAP16(p, plen,  7);
 3791              		.loc 1 672 0
 3792 01c4 97F8F030 		ldrb	r3, [r7, #240]	@ zero_extendqisi2
 3793 01c8 082B     		cmp	r3, #8
 3794 01ca 0AD9     		bls	.L198
 3795              	.LBB37:
 3796              		.loc 1 672 0 is_stmt 0 discriminator 1
 3797 01cc 3B68     		ldr	r3, [r7]
 3798 01ce D91D     		adds	r1, r3, #7
ARM GAS  C:\Users\JENNEW~1\AppData\Local\Temp\ccHH9OS0.s 			page 87


 3799 01d0 07F11E03 		add	r3, r7, #30
 3800 01d4 0222     		movs	r2, #2
 3801 01d6 1846     		mov	r0, r3
 3802 01d8 FFF7FEFF 		bl	memcpy
 3803 01dc B7F91E30 		ldrsh	r3, [r7, #30]
 3804              	.LBE37:
 3805 01e0 00E0     		b	.L199
 3806              	.L198:
 3807              		.loc 1 672 0 discriminator 2
 3808 01e2 0023     		movs	r3, #0
 3809              	.L199:
 3810              		.loc 1 672 0 discriminator 4
 3811 01e4 A7F8D830 		strh	r3, [r7, #216]	@ movhi
 673:main.c        ****         int16_t freq_r = SNAP16(p, plen,  9);
 3812              		.loc 1 673 0 is_stmt 1 discriminator 4
 3813 01e8 97F8F030 		ldrb	r3, [r7, #240]	@ zero_extendqisi2
 3814 01ec 0A2B     		cmp	r3, #10
 3815 01ee 0BD9     		bls	.L200
 3816              	.LBB38:
 3817              		.loc 1 673 0 is_stmt 0 discriminator 1
 3818 01f0 3B68     		ldr	r3, [r7]
 3819 01f2 03F10901 		add	r1, r3, #9
 3820 01f6 07F11C03 		add	r3, r7, #28
 3821 01fa 0222     		movs	r2, #2
 3822 01fc 1846     		mov	r0, r3
 3823 01fe FFF7FEFF 		bl	memcpy
 3824 0202 B7F91C30 		ldrsh	r3, [r7, #28]
 3825              	.LBE38:
 3826 0206 00E0     		b	.L201
 3827              	.L200:
 3828              		.loc 1 673 0 discriminator 2
 3829 0208 0023     		movs	r3, #0
 3830              	.L201:
 3831              		.loc 1 673 0 discriminator 4
 3832 020a A7F8D630 		strh	r3, [r7, #214]	@ movhi
 674:main.c        ****         decomp((float)mag_r  / 100.0f, &vi, &vf, &s);
 3833              		.loc 1 674 0 is_stmt 1 discriminator 4
 3834 020e B7F9D830 		ldrsh	r3, [r7, #216]
 3835 0212 1846     		mov	r0, r3
 3836 0214 FFF7FEFF 		bl	__aeabi_i2f
 3837 0218 0346     		mov	r3, r0
 3838 021a 4A49     		ldr	r1, .L212+24
 3839 021c 1846     		mov	r0, r3
 3840 021e FFF7FEFF 		bl	__aeabi_fdiv
 3841 0222 0346     		mov	r3, r0
 3842 0224 1846     		mov	r0, r3
 3843 0226 07F12B03 		add	r3, r7, #43
 3844 022a 07F12602 		add	r2, r7, #38
 3845 022e 07F12801 		add	r1, r7, #40
 3846 0232 FFF7FEFF 		bl	decomp
 675:main.c        ****         sprintf(buf, "  off  7  int16  /100   raw=%6d  =>  %c%d.%02d  [MAGNITUDE]\r\n",
 3847              		.loc 1 675 0 discriminator 4
 3848 0236 B7F9D820 		ldrsh	r2, [r7, #216]
 3849 023a 97F82B30 		ldrb	r3, [r7, #43]	@ zero_extendqisi2
 3850 023e 1C46     		mov	r4, r3
 3851 0240 B7F92830 		ldrsh	r3, [r7, #40]
 3852 0244 B7F92610 		ldrsh	r1, [r7, #38]
ARM GAS  C:\Users\JENNEW~1\AppData\Local\Temp\ccHH9OS0.s 			page 88


 3853 0248 07F12C00 		add	r0, r7, #44
 3854 024c 0191     		str	r1, [sp, #4]
 3855 024e 0093     		str	r3, [sp]
 3856 0250 2346     		mov	r3, r4
 3857 0252 3D49     		ldr	r1, .L212+28
 3858 0254 FFF7FEFF 		bl	sprintf
 676:main.c        ****                 (int)mag_r, s, (int)vi, (int)vf);
 677:main.c        ****         UART_1_PutString(buf);
 3859              		.loc 1 677 0 discriminator 4
 3860 0258 07F12C03 		add	r3, r7, #44
 3861 025c 1846     		mov	r0, r3
 3862 025e FFF7FEFF 		bl	UART_1_PutString
 678:main.c        ****         decomp((float)freq_r / 100.0f, &vi, &vf, &s);
 3863              		.loc 1 678 0 discriminator 4
 3864 0262 B7F9D630 		ldrsh	r3, [r7, #214]
 3865 0266 1846     		mov	r0, r3
 3866 0268 FFF7FEFF 		bl	__aeabi_i2f
 3867 026c 0346     		mov	r3, r0
 3868 026e 3549     		ldr	r1, .L212+24
 3869 0270 1846     		mov	r0, r3
 3870 0272 FFF7FEFF 		bl	__aeabi_fdiv
 3871 0276 0346     		mov	r3, r0
 3872 0278 1846     		mov	r0, r3
 3873 027a 07F12B03 		add	r3, r7, #43
 3874 027e 07F12602 		add	r2, r7, #38
 3875 0282 07F12801 		add	r1, r7, #40
 3876 0286 FFF7FEFF 		bl	decomp
 679:main.c        ****         sprintf(buf, "  off  9  int16  /100   raw=%6d  =>  %c%d.%02d Hz  [FREQ]\r\n",
 3877              		.loc 1 679 0 discriminator 4
 3878 028a B7F9D620 		ldrsh	r2, [r7, #214]
 3879 028e 97F82B30 		ldrb	r3, [r7, #43]	@ zero_extendqisi2
 3880 0292 1C46     		mov	r4, r3
 3881 0294 B7F92830 		ldrsh	r3, [r7, #40]
 3882 0298 B7F92610 		ldrsh	r1, [r7, #38]
 3883 029c 07F12C00 		add	r0, r7, #44
 3884 02a0 0191     		str	r1, [sp, #4]
 3885 02a2 0093     		str	r3, [sp]
 3886 02a4 2346     		mov	r3, r4
 3887 02a6 2949     		ldr	r1, .L212+32
 3888 02a8 FFF7FEFF 		bl	sprintf
 680:main.c        ****                 (int)freq_r, s, (int)vi, (int)vf);
 681:main.c        ****         UART_1_PutString(buf);
 3889              		.loc 1 681 0 discriminator 4
 3890 02ac 07F12C03 		add	r3, r7, #44
 3891 02b0 1846     		mov	r0, r3
 3892 02b2 FFF7FEFF 		bl	UART_1_PutString
 3893              	.L197:
 3894              	.LBE36:
 682:main.c        ****     }
 683:main.c        ****     if (plen >= 17u) {
 3895              		.loc 1 683 0
 3896 02b6 97F8F030 		ldrb	r3, [r7, #240]	@ zero_extendqisi2
 3897 02ba 102B     		cmp	r3, #16
 3898 02bc 40F2C980 		bls	.L202
 3899              	.LBB39:
 684:main.c        ****         int16_t ox_r = SNAP16(p, plen, 11);
 3900              		.loc 1 684 0
ARM GAS  C:\Users\JENNEW~1\AppData\Local\Temp\ccHH9OS0.s 			page 89


 3901 02c0 97F8F030 		ldrb	r3, [r7, #240]	@ zero_extendqisi2
 3902 02c4 0C2B     		cmp	r3, #12
 3903 02c6 0BD9     		bls	.L203
 3904              	.LBB40:
 3905              		.loc 1 684 0 is_stmt 0 discriminator 1
 3906 02c8 3B68     		ldr	r3, [r7]
 3907 02ca 03F10B01 		add	r1, r3, #11
 3908 02ce 07F11A03 		add	r3, r7, #26
 3909 02d2 0222     		movs	r2, #2
 3910 02d4 1846     		mov	r0, r3
 3911 02d6 FFF7FEFF 		bl	memcpy
 3912 02da B7F91A30 		ldrsh	r3, [r7, #26]
 3913              	.LBE40:
 3914 02de 00E0     		b	.L204
 3915              	.L203:
 3916              		.loc 1 684 0 discriminator 2
 3917 02e0 0023     		movs	r3, #0
 3918              	.L204:
 3919              		.loc 1 684 0 discriminator 4
 3920 02e2 A7F8D430 		strh	r3, [r7, #212]	@ movhi
 685:main.c        ****         int16_t oy_r = SNAP16(p, plen, 13);
 3921              		.loc 1 685 0 is_stmt 1 discriminator 4
 3922 02e6 97F8F030 		ldrb	r3, [r7, #240]	@ zero_extendqisi2
 3923 02ea 0E2B     		cmp	r3, #14
 3924 02ec 0BD9     		bls	.L205
 3925              	.LBB41:
 3926              		.loc 1 685 0 is_stmt 0 discriminator 1
 3927 02ee 3B68     		ldr	r3, [r7]
 3928 02f0 03F10D01 		add	r1, r3, #13
 3929 02f4 07F11803 		add	r3, r7, #24
 3930 02f8 0222     		movs	r2, #2
 3931 02fa 1846     		mov	r0, r3
 3932 02fc FFF7FEFF 		bl	memcpy
 3933 0300 B7F91830 		ldrsh	r3, [r7, #24]
 3934              	.LBE41:
 3935 0304 00E0     		b	.L206
 3936              	.L205:
 3937              		.loc 1 685 0 discriminator 2
 3938 0306 0023     		movs	r3, #0
 3939              	.L206:
 3940              		.loc 1 685 0 discriminator 4
 3941 0308 A7F8D230 		strh	r3, [r7, #210]	@ movhi
 686:main.c        ****         int16_t oz_r = SNAP16(p, plen, 15);
 3942              		.loc 1 686 0 is_stmt 1 discriminator 4
 3943 030c 97F8F030 		ldrb	r3, [r7, #240]	@ zero_extendqisi2
 3944 0310 102B     		cmp	r3, #16
 3945 0312 1DD9     		bls	.L207
 3946              	.LBB42:
 3947              		.loc 1 686 0 is_stmt 0 discriminator 1
 3948 0314 3B68     		ldr	r3, [r7]
 3949 0316 03F10F01 		add	r1, r3, #15
 3950 031a 07F11603 		add	r3, r7, #22
 3951 031e 0222     		movs	r2, #2
 3952 0320 1846     		mov	r0, r3
 3953 0322 FFF7FEFF 		bl	memcpy
 3954 0326 B7F91630 		ldrsh	r3, [r7, #22]
 3955              	.LBE42:
ARM GAS  C:\Users\JENNEW~1\AppData\Local\Temp\ccHH9OS0.s 			page 90


 3956 032a 12E0     		b	.L208
 3957              	.L213:
 3958              		.align	2
 3959              	.L212:
 3960 032c 480D0000 		.word	.LC62
 3961 0330 C0070000 		.word	.LC38
 3962 0334 00007A44 		.word	1148846080
 3963 0338 800D0000 		.word	.LC63
 3964 033c BC0D0000 		.word	.LC64
 3965 0340 F80D0000 		.word	.LC65
 3966 0344 0000C842 		.word	1120403456
 3967 0348 340E0000 		.word	.LC66
 3968 034c 740E0000 		.word	.LC67
 3969              	.L207:
 3970              		.loc 1 686 0 discriminator 2
 3971 0350 0023     		movs	r3, #0
 3972              	.L208:
 3973              		.loc 1 686 0 discriminator 4
 3974 0352 A7F8D030 		strh	r3, [r7, #208]	@ movhi
 687:main.c        ****         decomp((float)ox_r / 1000.0f, &vi, &vf, &s);
 3975              		.loc 1 687 0 is_stmt 1 discriminator 4
 3976 0356 B7F9D430 		ldrsh	r3, [r7, #212]
 3977 035a 1846     		mov	r0, r3
 3978 035c FFF7FEFF 		bl	__aeabi_i2f
 3979 0360 0346     		mov	r3, r0
 3980 0362 5E49     		ldr	r1, .L214
 3981 0364 1846     		mov	r0, r3
 3982 0366 FFF7FEFF 		bl	__aeabi_fdiv
 3983 036a 0346     		mov	r3, r0
 3984 036c 1846     		mov	r0, r3
 3985 036e 07F12B03 		add	r3, r7, #43
 3986 0372 07F12602 		add	r2, r7, #38
 3987 0376 07F12801 		add	r1, r7, #40
 3988 037a FFF7FEFF 		bl	decomp
 688:main.c        ****         sprintf(buf, "  off 11  int16  /1000  raw=%6d  =>  %c%d.%02d  [OFF X]\r\n",
 3989              		.loc 1 688 0 discriminator 4
 3990 037e B7F9D420 		ldrsh	r2, [r7, #212]
 3991 0382 97F82B30 		ldrb	r3, [r7, #43]	@ zero_extendqisi2
 3992 0386 1C46     		mov	r4, r3
 3993 0388 B7F92830 		ldrsh	r3, [r7, #40]
 3994 038c B7F92610 		ldrsh	r1, [r7, #38]
 3995 0390 07F12C00 		add	r0, r7, #44
 3996 0394 0191     		str	r1, [sp, #4]
 3997 0396 0093     		str	r3, [sp]
 3998 0398 2346     		mov	r3, r4
 3999 039a 5149     		ldr	r1, .L214+4
 4000 039c FFF7FEFF 		bl	sprintf
 689:main.c        ****                 (int)ox_r, s, (int)vi, (int)vf);
 690:main.c        ****         UART_1_PutString(buf);
 4001              		.loc 1 690 0 discriminator 4
 4002 03a0 07F12C03 		add	r3, r7, #44
 4003 03a4 1846     		mov	r0, r3
 4004 03a6 FFF7FEFF 		bl	UART_1_PutString
 691:main.c        ****         decomp((float)oy_r / 1000.0f, &vi, &vf, &s);
 4005              		.loc 1 691 0 discriminator 4
 4006 03aa B7F9D230 		ldrsh	r3, [r7, #210]
 4007 03ae 1846     		mov	r0, r3
ARM GAS  C:\Users\JENNEW~1\AppData\Local\Temp\ccHH9OS0.s 			page 91


 4008 03b0 FFF7FEFF 		bl	__aeabi_i2f
 4009 03b4 0346     		mov	r3, r0
 4010 03b6 4949     		ldr	r1, .L214
 4011 03b8 1846     		mov	r0, r3
 4012 03ba FFF7FEFF 		bl	__aeabi_fdiv
 4013 03be 0346     		mov	r3, r0
 4014 03c0 1846     		mov	r0, r3
 4015 03c2 07F12B03 		add	r3, r7, #43
 4016 03c6 07F12602 		add	r2, r7, #38
 4017 03ca 07F12801 		add	r1, r7, #40
 4018 03ce FFF7FEFF 		bl	decomp
 692:main.c        ****         sprintf(buf, "  off 13  int16  /1000  raw=%6d  =>  %c%d.%02d  [OFF Y]\r\n",
 4019              		.loc 1 692 0 discriminator 4
 4020 03d2 B7F9D220 		ldrsh	r2, [r7, #210]
 4021 03d6 97F82B30 		ldrb	r3, [r7, #43]	@ zero_extendqisi2
 4022 03da 1C46     		mov	r4, r3
 4023 03dc B7F92830 		ldrsh	r3, [r7, #40]
 4024 03e0 B7F92610 		ldrsh	r1, [r7, #38]
 4025 03e4 07F12C00 		add	r0, r7, #44
 4026 03e8 0191     		str	r1, [sp, #4]
 4027 03ea 0093     		str	r3, [sp]
 4028 03ec 2346     		mov	r3, r4
 4029 03ee 3D49     		ldr	r1, .L214+8
 4030 03f0 FFF7FEFF 		bl	sprintf
 693:main.c        ****                 (int)oy_r, s, (int)vi, (int)vf);
 694:main.c        ****         UART_1_PutString(buf);
 4031              		.loc 1 694 0 discriminator 4
 4032 03f4 07F12C03 		add	r3, r7, #44
 4033 03f8 1846     		mov	r0, r3
 4034 03fa FFF7FEFF 		bl	UART_1_PutString
 695:main.c        ****         decomp((float)oz_r / 1000.0f, &vi, &vf, &s);
 4035              		.loc 1 695 0 discriminator 4
 4036 03fe B7F9D030 		ldrsh	r3, [r7, #208]
 4037 0402 1846     		mov	r0, r3
 4038 0404 FFF7FEFF 		bl	__aeabi_i2f
 4039 0408 0346     		mov	r3, r0
 4040 040a 3449     		ldr	r1, .L214
 4041 040c 1846     		mov	r0, r3
 4042 040e FFF7FEFF 		bl	__aeabi_fdiv
 4043 0412 0346     		mov	r3, r0
 4044 0414 1846     		mov	r0, r3
 4045 0416 07F12B03 		add	r3, r7, #43
 4046 041a 07F12602 		add	r2, r7, #38
 4047 041e 07F12801 		add	r1, r7, #40
 4048 0422 FFF7FEFF 		bl	decomp
 696:main.c        ****         sprintf(buf, "  off 15  int16  /1000  raw=%6d  =>  %c%d.%02d  [OFF Z]\r\n",
 4049              		.loc 1 696 0 discriminator 4
 4050 0426 B7F9D020 		ldrsh	r2, [r7, #208]
 4051 042a 97F82B30 		ldrb	r3, [r7, #43]	@ zero_extendqisi2
 4052 042e 1C46     		mov	r4, r3
 4053 0430 B7F92830 		ldrsh	r3, [r7, #40]
 4054 0434 B7F92610 		ldrsh	r1, [r7, #38]
 4055 0438 07F12C00 		add	r0, r7, #44
 4056 043c 0191     		str	r1, [sp, #4]
 4057 043e 0093     		str	r3, [sp]
 4058 0440 2346     		mov	r3, r4
 4059 0442 2949     		ldr	r1, .L214+12
ARM GAS  C:\Users\JENNEW~1\AppData\Local\Temp\ccHH9OS0.s 			page 92


 4060 0444 FFF7FEFF 		bl	sprintf
 697:main.c        ****                 (int)oz_r, s, (int)vi, (int)vf);
 698:main.c        ****         UART_1_PutString(buf);
 4061              		.loc 1 698 0 discriminator 4
 4062 0448 07F12C03 		add	r3, r7, #44
 4063 044c 1846     		mov	r0, r3
 4064 044e FFF7FEFF 		bl	UART_1_PutString
 4065              	.L202:
 4066              	.LBE39:
 699:main.c        ****     }
 700:main.c        ****     if (plen >= 19u) {
 4067              		.loc 1 700 0
 4068 0452 97F8F030 		ldrb	r3, [r7, #240]	@ zero_extendqisi2
 4069 0456 122B     		cmp	r3, #18
 4070 0458 3CD9     		bls	.L188
 4071              	.LBB43:
 701:main.c        ****         int16_t decl_r = SNAP16(p, plen, 17);
 4072              		.loc 1 701 0
 4073 045a 97F8F030 		ldrb	r3, [r7, #240]	@ zero_extendqisi2
 4074 045e 122B     		cmp	r3, #18
 4075 0460 0BD9     		bls	.L210
 4076              	.LBB44:
 4077              		.loc 1 701 0 is_stmt 0 discriminator 1
 4078 0462 3B68     		ldr	r3, [r7]
 4079 0464 03F11101 		add	r1, r3, #17
 4080 0468 07F11403 		add	r3, r7, #20
 4081 046c 0222     		movs	r2, #2
 4082 046e 1846     		mov	r0, r3
 4083 0470 FFF7FEFF 		bl	memcpy
 4084 0474 B7F91430 		ldrsh	r3, [r7, #20]
 4085              	.LBE44:
 4086 0478 00E0     		b	.L211
 4087              	.L210:
 4088              		.loc 1 701 0 discriminator 2
 4089 047a 0023     		movs	r3, #0
 4090              	.L211:
 4091              		.loc 1 701 0 discriminator 4
 4092 047c A7F8CE30 		strh	r3, [r7, #206]	@ movhi
 702:main.c        ****         decomp((float)decl_r / 10.0f, &vi, &vf, &s);
 4093              		.loc 1 702 0 is_stmt 1 discriminator 4
 4094 0480 B7F9CE30 		ldrsh	r3, [r7, #206]
 4095 0484 1846     		mov	r0, r3
 4096 0486 FFF7FEFF 		bl	__aeabi_i2f
 4097 048a 0346     		mov	r3, r0
 4098 048c 1749     		ldr	r1, .L214+16
 4099 048e 1846     		mov	r0, r3
 4100 0490 FFF7FEFF 		bl	__aeabi_fdiv
 4101 0494 0346     		mov	r3, r0
 4102 0496 1846     		mov	r0, r3
 4103 0498 07F12B03 		add	r3, r7, #43
 4104 049c 07F12602 		add	r2, r7, #38
 4105 04a0 07F12801 		add	r1, r7, #40
 4106 04a4 FFF7FEFF 		bl	decomp
 703:main.c        ****         sprintf(buf, "  off 17  int16  /10    raw=%6d  =>  %c%d.%02d deg  [DECLINATION]\r\n",
 4107              		.loc 1 703 0 discriminator 4
 4108 04a8 B7F9CE20 		ldrsh	r2, [r7, #206]
 4109 04ac 97F82B30 		ldrb	r3, [r7, #43]	@ zero_extendqisi2
ARM GAS  C:\Users\JENNEW~1\AppData\Local\Temp\ccHH9OS0.s 			page 93


 4110 04b0 1C46     		mov	r4, r3
 4111 04b2 B7F92830 		ldrsh	r3, [r7, #40]
 4112 04b6 B7F92610 		ldrsh	r1, [r7, #38]
 4113 04ba 07F12C00 		add	r0, r7, #44
 4114 04be 0191     		str	r1, [sp, #4]
 4115 04c0 0093     		str	r3, [sp]
 4116 04c2 2346     		mov	r3, r4
 4117 04c4 0A49     		ldr	r1, .L214+20
 4118 04c6 FFF7FEFF 		bl	sprintf
 704:main.c        ****                 (int)decl_r, s, (int)vi, (int)vf);
 705:main.c        ****         UART_1_PutString(buf);
 4119              		.loc 1 705 0 discriminator 4
 4120 04ca 07F12C03 		add	r3, r7, #44
 4121 04ce 1846     		mov	r0, r3
 4122 04d0 FFF7FEFF 		bl	UART_1_PutString
 4123              	.L188:
 4124              	.LBE43:
 706:main.c        ****     }
 707:main.c        **** }
 4125              		.loc 1 707 0
 4126 04d4 E437     		adds	r7, r7, #228
 4127              		.cfi_def_cfa_offset 12
 4128 04d6 BD46     		mov	sp, r7
 4129              		.cfi_def_cfa_register 13
 4130              		@ sp needed
 4131 04d8 90BD     		pop	{r4, r7, pc}
 4132              	.L215:
 4133 04da 00BF     		.align	2
 4134              	.L214:
 4135 04dc 00007A44 		.word	1148846080
 4136 04e0 B00E0000 		.word	.LC68
 4137 04e4 EC0E0000 		.word	.LC69
 4138 04e8 280F0000 		.word	.LC70
 4139 04ec 00002041 		.word	1092616192
 4140 04f0 640F0000 		.word	.LC71
 4141              		.cfi_endproc
 4142              	.LFE77:
 4143              		.size	print_test_mag, .-print_test_mag
 4144              		.section	.rodata
 4145              		.align	2
 4146              	.LC72:
 4147 0fa8 5B544553 		.ascii	"[TEST] attr=%u responded -- no printer defined\015\012"
 4147      545D2061 
 4147      7474723D 
 4147      25752072 
 4147      6573706F 
 4148 0fd8 00       		.ascii	"\000"
 4149              		.section	.text.print_test_response,"ax",%progbits
 4150              		.align	2
 4151              		.thumb
 4152              		.thumb_func
 4153              		.type	print_test_response, %function
 4154              	print_test_response:
 4155              	.LFB78:
 708:main.c        **** 
 709:main.c        **** /* Dispatcher: called from main loop when test_response_ready is set.
 710:main.c        ****  * Passes the snapshotted payload bytes directly to each printer so
ARM GAS  C:\Users\JENNEW~1\AppData\Local\Temp\ccHH9OS0.s 			page 94


 711:main.c        ****  * they read from the frozen copy, not from RxMsg (which may already
 712:main.c        ****  * have been overwritten by the next attr 287 push).                  */
 713:main.c        **** static void print_test_response(movi_comm_t* m, uint32_t dt)
 714:main.c        **** {
 4156              		.loc 1 714 0
 4157              		.cfi_startproc
 4158              		@ args = 0, pretend = 0, frame = 304
 4159              		@ frame_needed = 1, uses_anonymous_args = 0
 4160 0000 80B5     		push	{r7, lr}
 4161              		.cfi_def_cfa_offset 8
 4162              		.cfi_offset 7, -8
 4163              		.cfi_offset 14, -4
 4164 0002 CEB0     		sub	sp, sp, #312
 4165              		.cfi_def_cfa_offset 320
 4166 0004 02AF     		add	r7, sp, #8
 4167              		.cfi_def_cfa 7, 312
 4168 0006 3B1D     		adds	r3, r7, #4
 4169 0008 1860     		str	r0, [r3]
 4170 000a 3B46     		mov	r3, r7
 4171 000c 1960     		str	r1, [r3]
 715:main.c        ****     movi_status_t st;
 716:main.c        ****     movi_comm_get_status(m, &st);
 4172              		.loc 1 716 0
 4173 000e 07F14C02 		add	r2, r7, #76
 4174 0012 3B1D     		adds	r3, r7, #4
 4175 0014 1146     		mov	r1, r2
 4176 0016 1868     		ldr	r0, [r3]
 4177 0018 FFF7FEFF 		bl	movi_comm_get_status
 717:main.c        ****     uint16_t len      = m->test_rx_len;
 4178              		.loc 1 717 0
 4179 001c 3B1D     		adds	r3, r7, #4
 4180 001e 1B68     		ldr	r3, [r3]
 4181 0020 B3F81C32 		ldrh	r3, [r3, #540]	@ movhi
 4182 0024 A7F82E31 		strh	r3, [r7, #302]	@ movhi
 718:main.c        ****     uint16_t attr     = m->test_response_attr;
 4183              		.loc 1 718 0
 4184 0028 3B1D     		adds	r3, r7, #4
 4185 002a 1B68     		ldr	r3, [r3]
 4186 002c B3F81A32 		ldrh	r3, [r3, #538]	@ movhi
 4187 0030 A7F82C31 		strh	r3, [r7, #300]	@ movhi
 719:main.c        ****     const uint8_t *p  = m->test_rx_payload;
 4188              		.loc 1 719 0
 4189 0034 3B1D     		adds	r3, r7, #4
 4190 0036 1B68     		ldr	r3, [r3]
 4191 0038 03F21E23 		addw	r3, r3, #542
 4192 003c C7F82831 		str	r3, [r7, #296]
 720:main.c        ****     uint8_t  plen     = m->test_rx_payload_len;
 4193              		.loc 1 720 0
 4194 0040 3B1D     		adds	r3, r7, #4
 4195 0042 1B68     		ldr	r3, [r3]
 4196 0044 93F83E32 		ldrb	r3, [r3, #574]
 4197 0048 87F82731 		strb	r3, [r7, #295]
 721:main.c        **** 
 722:main.c        ****     switch (attr) {
 4198              		.loc 1 722 0
 4199 004c B7F82C31 		ldrh	r3, [r7, #300]
 4200 0050 013B     		subs	r3, r3, #1
ARM GAS  C:\Users\JENNEW~1\AppData\Local\Temp\ccHH9OS0.s 			page 95


 4201 0052 152B     		cmp	r3, #21
 4202 0054 74D8     		bhi	.L217
 4203 0056 01A2     		adr	r2, .L219
 4204 0058 52F823F0 		ldr	pc, [r2, r3, lsl #2]
 4205              		.p2align 2
 4206              	.L219:
 4207 005c 09010000 		.word	.L218+1
 4208 0060 41010000 		.word	.L217+1
 4209 0064 ED000000 		.word	.L220+1
 4210 0068 D1000000 		.word	.L221+1
 4211 006c 41010000 		.word	.L217+1
 4212 0070 41010000 		.word	.L217+1
 4213 0074 41010000 		.word	.L217+1
 4214 0078 41010000 		.word	.L217+1
 4215 007c 41010000 		.word	.L217+1
 4216 0080 41010000 		.word	.L217+1
 4217 0084 41010000 		.word	.L217+1
 4218 0088 25010000 		.word	.L222+1
 4219 008c 41010000 		.word	.L217+1
 4220 0090 41010000 		.word	.L217+1
 4221 0094 41010000 		.word	.L217+1
 4222 0098 41010000 		.word	.L217+1
 4223 009c 41010000 		.word	.L217+1
 4224 00a0 41010000 		.word	.L217+1
 4225 00a4 41010000 		.word	.L217+1
 4226 00a8 41010000 		.word	.L217+1
 4227 00ac 41010000 		.word	.L217+1
 4228 00b0 B5000000 		.word	.L223+1
 4229              		.p2align 1
 4230              	.L223:
 723:main.c        ****         case 22u: print_test_attitude(&st, dt, len, p, plen); break;
 4231              		.loc 1 723 0
 4232 00b4 B7F82E21 		ldrh	r2, [r7, #302]
 4233 00b8 3946     		mov	r1, r7
 4234 00ba 07F14C00 		add	r0, r7, #76
 4235 00be 97F82731 		ldrb	r3, [r7, #295]	@ zero_extendqisi2
 4236 00c2 0093     		str	r3, [sp]
 4237 00c4 D7F82831 		ldr	r3, [r7, #296]
 4238 00c8 0968     		ldr	r1, [r1]
 4239 00ca FFF7FEFF 		bl	print_test_attitude
 4240 00ce 45E0     		b	.L224
 4241              	.L221:
 724:main.c        ****         case  4u: print_test_gps(&st, dt, len, p, plen);      break;
 4242              		.loc 1 724 0
 4243 00d0 B7F82E21 		ldrh	r2, [r7, #302]
 4244 00d4 3946     		mov	r1, r7
 4245 00d6 07F14C00 		add	r0, r7, #76
 4246 00da 97F82731 		ldrb	r3, [r7, #295]	@ zero_extendqisi2
 4247 00de 0093     		str	r3, [sp]
 4248 00e0 D7F82831 		ldr	r3, [r7, #296]
 4249 00e4 0968     		ldr	r1, [r1]
 4250 00e6 FFF7FEFF 		bl	print_test_gps
 4251 00ea 37E0     		b	.L224
 4252              	.L220:
 725:main.c        ****         case  3u: print_test_baro(&st, dt, len, p, plen);     break;
 4253              		.loc 1 725 0
 4254 00ec B7F82E21 		ldrh	r2, [r7, #302]
ARM GAS  C:\Users\JENNEW~1\AppData\Local\Temp\ccHH9OS0.s 			page 96


 4255 00f0 3946     		mov	r1, r7
 4256 00f2 07F14C00 		add	r0, r7, #76
 4257 00f6 97F82731 		ldrb	r3, [r7, #295]	@ zero_extendqisi2
 4258 00fa 0093     		str	r3, [sp]
 4259 00fc D7F82831 		ldr	r3, [r7, #296]
 4260 0100 0968     		ldr	r1, [r1]
 4261 0102 FFF7FEFF 		bl	print_test_baro
 4262 0106 29E0     		b	.L224
 4263              	.L218:
 726:main.c        ****         case  1u: print_test_sysstat(&st, dt, len, p, plen);  break;
 4264              		.loc 1 726 0
 4265 0108 B7F82E21 		ldrh	r2, [r7, #302]
 4266 010c 3946     		mov	r1, r7
 4267 010e 07F14C00 		add	r0, r7, #76
 4268 0112 97F82731 		ldrb	r3, [r7, #295]	@ zero_extendqisi2
 4269 0116 0093     		str	r3, [sp]
 4270 0118 D7F82831 		ldr	r3, [r7, #296]
 4271 011c 0968     		ldr	r1, [r1]
 4272 011e FFF7FEFF 		bl	print_test_sysstat
 4273 0122 1BE0     		b	.L224
 4274              	.L222:
 727:main.c        ****         case 12u: print_test_mag(&st, dt, len, p, plen);      break;
 4275              		.loc 1 727 0
 4276 0124 B7F82E21 		ldrh	r2, [r7, #302]
 4277 0128 3946     		mov	r1, r7
 4278 012a 07F14C00 		add	r0, r7, #76
 4279 012e 97F82731 		ldrb	r3, [r7, #295]	@ zero_extendqisi2
 4280 0132 0093     		str	r3, [sp]
 4281 0134 D7F82831 		ldr	r3, [r7, #296]
 4282 0138 0968     		ldr	r1, [r1]
 4283 013a FFF7FEFF 		bl	print_test_mag
 4284 013e 0DE0     		b	.L224
 4285              	.L217:
 4286              	.LBB45:
 728:main.c        ****         default: {
 729:main.c        ****             char buf[64];
 730:main.c        ****             sprintf(buf, "[TEST] attr=%u responded -- no printer defined\r\n",
 4287              		.loc 1 730 0
 4288 0140 B7F82C21 		ldrh	r2, [r7, #300]
 4289 0144 07F10C03 		add	r3, r7, #12
 4290 0148 0749     		ldr	r1, .L225
 4291 014a 1846     		mov	r0, r3
 4292 014c FFF7FEFF 		bl	sprintf
 731:main.c        ****                     (unsigned)attr);
 732:main.c        ****             UART_1_PutString(buf);
 4293              		.loc 1 732 0
 4294 0150 07F10C03 		add	r3, r7, #12
 4295 0154 1846     		mov	r0, r3
 4296 0156 FFF7FEFF 		bl	UART_1_PutString
 733:main.c        ****             break;
 4297              		.loc 1 733 0
 4298 015a 00BF     		nop
 4299              	.L224:
 4300              	.LBE45:
 734:main.c        ****         }
 735:main.c        ****     }
 736:main.c        **** }
ARM GAS  C:\Users\JENNEW~1\AppData\Local\Temp\ccHH9OS0.s 			page 97


 4301              		.loc 1 736 0 discriminator 1
 4302 015c 00BF     		nop
 4303 015e 07F59877 		add	r7, r7, #304
 4304              		.cfi_def_cfa_offset 8
 4305 0162 BD46     		mov	sp, r7
 4306              		.cfi_def_cfa_register 13
 4307              		@ sp needed
 4308 0164 80BD     		pop	{r7, pc}
 4309              	.L226:
 4310 0166 00BF     		.align	2
 4311              	.L225:
 4312 0168 A80F0000 		.word	.LC72
 4313              		.cfi_endproc
 4314              	.LFE78:
 4315              		.size	print_test_response, .-print_test_response
 4316              		.section	.rodata
 4317 0fd9 000000   		.align	2
 4318              	.LC73:
 4319 0fdc 0D0A3D3D 		.ascii	"\015\012========================================\015"
 4319      3D3D3D3D 
 4319      3D3D3D3D 
 4319      3D3D3D3D 
 4319      3D3D3D3D 
 4320 1007 0A00     		.ascii	"\012\000"
 4321 1009 000000   		.align	2
 4322              	.LC74:
 4323 100c 20204D6F 		.ascii	"  MoVI Pro Controller  PSoC 5LP\015\012\000"
 4323      56492050 
 4323      726F2043 
 4323      6F6E7472 
 4323      6F6C6C65 
 4324 102e 0000     		.align	2
 4325              	.LC75:
 4326 1030 3D3D3D3D 		.ascii	"========================================\015\012\000"
 4326      3D3D3D3D 
 4326      3D3D3D3D 
 4326      3D3D3D3D 
 4326      3D3D3D3D 
 4327 105b 00       		.align	2
 4328              	.LC76:
 4329 105c 20206D3D 		.ascii	"  m=movi ctrl  t=test mode  j=joystick\015\012\000"
 4329      6D6F7669 
 4329      20637472 
 4329      6C202074 
 4329      3D746573 
 4330 1085 000000   		.align	2
 4331              	.LC77:
 4332 1088 20206C3D 		.ascii	"  l=mode  s=adc  c=cal  k=kill  x=kill+quiet\015\012"
 4332      6D6F6465 
 4332      2020733D 
 4332      61646320 
 4332      20633D63 
 4333 10b6 00       		.ascii	"\000"
 4334 10b7 00       		.align	2
 4335              	.LC78:
 4336 10b8 20202D2D 		.ascii	"  -- In test mode --\015\012\000"
 4336      20496E20 
ARM GAS  C:\Users\JENNEW~1\AppData\Local\Temp\ccHH9OS0.s 			page 98


 4336      74657374 
 4336      206D6F64 
 4336      65202D2D 
 4337 10cf 00       		.align	2
 4338              	.LC79:
 4339 10d0 2020613D 		.ascii	"  a=attitude  g=GPS  b=baro  s=status  n=mag\015\012"
 4339      61747469 
 4339      74756465 
 4339      2020673D 
 4339      47505320 
 4340 10fe 00       		.ascii	"\000"
 4341 10ff 00       		.align	2
 4342              	.LC80:
 4343 1100 2020743D 		.ascii	"  t=exit test  (2s timeout per query)\015\012\000"
 4343      65786974 
 4343      20746573 
 4343      74202028 
 4343      32732074 
 4344              		.align	2
 4345              	.LC81:
 4346 1128 5B496E69 		.ascii	"[Init] MoVI UART ready\015\012\000"
 4346      745D204D 
 4346      6F564920 
 4346      55415254 
 4346      20726561 
 4347 1141 000000   		.align	2
 4348              	.LC82:
 4349 1144 5B496E69 		.ascii	"[Init] ADC + Joystick ready\015\012\000"
 4349      745D2041 
 4349      4443202B 
 4349      204A6F79 
 4349      73746963 
 4350 1162 0000     		.align	2
 4351              	.LC83:
 4352 1164 5B496E69 		.ascii	"[Init] Loop timer ready\015\012\000"
 4352      745D204C 
 4352      6F6F7020 
 4352      74696D65 
 4352      72207265 
 4353 117e 0000     		.align	2
 4354              	.LC84:
 4355 1180 5B496E69 		.ascii	"[Init] Mode: STANDBY\015\012\000"
 4355      745D204D 
 4355      6F64653A 
 4355      20535441 
 4355      4E444259 
 4356 1197 00       		.align	2
 4357              	.LC85:
 4358 1198 5B434C49 		.ascii	"[CLI] -> MOVI_CONTROL  TX active\015\012\000"
 4358      5D202D3E 
 4358      204D4F56 
 4358      495F434F 
 4358      4E54524F 
 4359 11bb 00       		.align	2
 4360              	.LC86:
 4361 11bc 5B434C49 		.ascii	"[CLI] -> STANDBY  TX stopped\015\012\000"
 4361      5D202D3E 
ARM GAS  C:\Users\JENNEW~1\AppData\Local\Temp\ccHH9OS0.s 			page 99


 4361      20535441 
 4361      4E444259 
 4361      20205458 
 4362 11db 00       		.align	2
 4363              	.LC87:
 4364 11dc 5B434C49 		.ascii	"[CLI] -> MOVI_TEST\015\012\000"
 4364      5D202D3E 
 4364      204D4F56 
 4364      495F5445 
 4364      53540D0A 
 4365 11f1 000000   		.align	2
 4366              	.LC88:
 4367 11f4 2020743D 		.ascii	"  t=exit  k/x=kill+exit  (2s timeout per query)\015"
 4367      65786974 
 4367      20206B2F 
 4367      783D6B69 
 4367      6C6C2B65 
 4368 1224 0A00     		.ascii	"\012\000"
 4369 1226 0000     		.align	2
 4370              	.LC89:
 4371 1228 5B434C49 		.ascii	"[CLI] Enter STANDBY first (m to stop ctrl)\015\012\000"
 4371      5D20456E 
 4371      74657220 
 4371      5354414E 
 4371      44425920 
 4372 1255 000000   		.align	2
 4373              	.LC90:
 4374 1258 5B434C49 		.ascii	"[CLI] Joystick ON\015\012\000"
 4374      5D204A6F 
 4374      79737469 
 4374      636B204F 
 4374      4E0D0A00 
 4375              		.align	2
 4376              	.LC91:
 4377 126c 5B434C49 		.ascii	"[CLI] Joystick OFF\015\012\000"
 4377      5D204A6F 
 4377      79737469 
 4377      636B204F 
 4377      46460D0A 
 4378 1281 000000   		.align	2
 4379              	.LC92:
 4380 1284 5B434C49 		.ascii	"[CLI] Mode: %s\015\012\000"
 4380      5D204D6F 
 4380      64653A20 
 4380      25730D0A 
 4380      00
 4381 1295 000000   		.align	2
 4382              	.LC93:
 4383 1298 5B434C49 		.ascii	"[CLI] Output paused. Press m or j to resume.\015\012"
 4383      5D204F75 
 4383      74707574 
 4383      20706175 
 4383      7365642E 
 4384 12c6 00       		.ascii	"\000"
 4385 12c7 00       		.align	2
 4386              	.LC94:
 4387 12c8 5B434C49 		.ascii	"[CLI] ADC stream ON\015\012\000"
ARM GAS  C:\Users\JENNEW~1\AppData\Local\Temp\ccHH9OS0.s 			page 100


 4387      5D204144 
 4387      43207374 
 4387      7265616D 
 4387      204F4E0D 
 4388 12de 0000     		.align	2
 4389              	.LC95:
 4390 12e0 5B434C49 		.ascii	"[CLI] ADC stream OFF\015\012\000"
 4390      5D204144 
 4390      43207374 
 4390      7265616D 
 4390      204F4646 
 4391 12f7 00       		.align	2
 4392              	.LC96:
 4393 12f8 5B544553 		.ascii	"[TEST] -> STANDBY\015\012\000"
 4393      545D202D 
 4393      3E205354 
 4393      414E4442 
 4393      590D0A00 
 4394              		.align	2
 4395              	.LC97:
 4396 130c 5B434C49 		.ascii	"[CLI] Output paused.\015\012\000"
 4396      5D204F75 
 4396      74707574 
 4396      20706175 
 4396      7365642E 
 4397 1323 00       		.align	2
 4398              	.LC98:
 4399 1324 4F4B00   		.ascii	"OK\000"
 4400 1327 00       		.align	2
 4401              	.LC99:
 4402 1328 55415254 		.ascii	"UART_ERR\000"
 4402      5F455252 
 4402      00
 4403 1331 000000   		.align	2
 4404              	.LC100:
 4405 1334 5B544553 		.ascii	"[TEST] Sent attr 22 (attitude) at t=%lums  result=%"
 4405      545D2053 
 4405      656E7420 
 4405      61747472 
 4405      20323220 
 4406 1367 730D0A00 		.ascii	"s\015\012\000"
 4407 136b 00       		.align	2
 4408              	.LC101:
 4409 136c 5B544553 		.ascii	"[TEST] Waiting up to 2s...\015\012\000"
 4409      545D2057 
 4409      61697469 
 4409      6E672075 
 4409      7020746F 
 4410 1389 000000   		.align	2
 4411              	.LC102:
 4412 138c 5B544553 		.ascii	"[TEST] Sent attr 4 (GPS) at t=%lums  result=%s\015\012"
 4412      545D2053 
 4412      656E7420 
 4412      61747472 
 4412      20342028 
 4413 13bc 00       		.ascii	"\000"
 4414 13bd 000000   		.align	2
ARM GAS  C:\Users\JENNEW~1\AppData\Local\Temp\ccHH9OS0.s 			page 101


 4415              	.LC103:
 4416 13c0 5B544553 		.ascii	"[TEST] Sent attr 3 (baro) at t=%lums  result=%s\015"
 4416      545D2053 
 4416      656E7420 
 4416      61747472 
 4416      20332028 
 4417 13f0 0A00     		.ascii	"\012\000"
 4418 13f2 0000     		.align	2
 4419              	.LC104:
 4420 13f4 5B544553 		.ascii	"[TEST] Sent attr 1 (system status) at t=%lums  resu"
 4420      545D2053 
 4420      656E7420 
 4420      61747472 
 4420      20312028 
 4421 1427 6C743D25 		.ascii	"lt=%s\015\012\000"
 4421      730D0A00 
 4422 142f 00       		.align	2
 4423              	.LC105:
 4424 1430 5B544553 		.ascii	"[TEST] Sent attr 12 (magnetometer) at t=%lums  resu"
 4424      545D2053 
 4424      656E7420 
 4424      61747472 
 4424      20313220 
 4425 1463 6C743D25 		.ascii	"lt=%s\015\012\000"
 4425      730D0A00 
 4426 146b 00       		.align	2
 4427              	.LC106:
 4428 146c 5B544553 		.ascii	"[TEST] TIMEOUT -- attr=%u  no response in %lums\015"
 4428      545D2054 
 4428      494D454F 
 4428      5554202D 
 4428      2D206174 
 4429 149c 0A00     		.ascii	"\012\000"
 4430 149e 0000     		.align	2
 4431              	.LC107:
 4432 14a0 5B544553 		.ascii	"[TEST] Check: RX count still rising? BLE bridge ali"
 4432      545D2043 
 4432      6865636B 
 4432      3A205258 
 4432      20636F75 
 4433 14d3 76653F0D 		.ascii	"ve?\015\012\000"
 4433      0A00
 4434 14d9 000000   		.align	2
 4435              	.LC108:
 4436 14dc 4D6F6465 		.ascii	"Mode Switched!\015\012\000"
 4436      20537769 
 4436      74636865 
 4436      64210D0A 
 4436      00
 4437 14ed 000000   		.align	2
 4438              	.LC109:
 4439 14f0 583A256C 		.ascii	"X:%ld mV Y:%ld mV  pan:%d/1000  tilt:%d/1000\015\012"
 4439      64206D56 
 4439      20593A25 
 4439      6C64206D 
 4439      56202070 
 4440 151e 00       		.ascii	"\000"
ARM GAS  C:\Users\JENNEW~1\AppData\Local\Temp\ccHH9OS0.s 			page 102


 4441 151f 00       		.align	2
 4442              	.LC110:
 4443 1520 5B43414C 		.ascii	"[CAL] Center samples: %u/%u\015\012\000"
 4443      5D204365 
 4443      6E746572 
 4443      2073616D 
 4443      706C6573 
 4444 153e 0000     		.align	2
 4445              	.LC111:
 4446 1540 20202530 		.ascii	"  %02lu:%02lu:%02lu\015\012\000"
 4446      326C753A 
 4446      2530326C 
 4446      753A2530 
 4446      326C750D 
 4447 1556 0000     		.align	2
 4448              	.LC112:
 4449 1558 4F4E2000 		.ascii	"ON \000"
 4450              		.align	2
 4451              	.LC113:
 4452 155c 4F464600 		.ascii	"OFF\000"
 4453              		.align	2
 4454              	.LC114:
 4455 1560 5B536572 		.ascii	"[Serial]    TX:%lu RX:%lu | csum:%lu err:0x%02X | C"
 4455      69616C5D 
 4455      20202020 
 4455      54583A25 
 4455      6C752052 
 4456 1593 4F4D4D53 		.ascii	"OMMS:ON JOYSTICK:%s\015\012\000"
 4456      3A4F4E20 
 4456      4A4F5953 
 4456      5449434B 
 4456      3A25730D 
 4457 15a9 000000   		.align	2
 4458              	.LC115:
 4459 15ac 5B537461 		.ascii	"[Status]    Pan=%c%3d.%02d  Tilt=%c%3d.%02d  Roll=%"
 4459      7475735D 
 4459      20202020 
 4459      50616E3D 
 4459      25632533 
 4460 15df 63253364 		.ascii	"c%3d.%02d | L=%2d.%1dV R=%2d.%1dV | IMU:%d DRV:%d E"
 4460      2E253032 
 4460      64207C20 
 4460      4C3D2532 
 4460      642E2531 
 4461 1612 52523A25 		.ascii	"RR:%d\015\012\000"
 4461      640D0A00 
 4462 161a 0000     		.align	2
 4463              	.LC116:
 4464 161c 5B537461 		.ascii	"[Status]    No valid frame yet\015\012\000"
 4464      7475735D 
 4464      20202020 
 4464      4E6F2076 
 4464      616C6964 
 4465 163d 000000   		.align	2
 4466              	.LC117:
 4467 1640 5B4A6F79 		.ascii	"[Joystick]  L/R=%c%d.%02d (%s)  U/D=%c%d.%02d (%s)\015"
 4467      73746963 
ARM GAS  C:\Users\JENNEW~1\AppData\Local\Temp\ccHH9OS0.s 			page 103


 4467      6B5D2020 
 4467      4C2F523D 
 4467      25632564 
 4468 1673 0A00     		.ascii	"\012\000"
 4469              		.section	.text.main,"ax",%progbits
 4470              		.align	2
 4471              		.global	main
 4472              		.thumb
 4473              		.thumb_func
 4474              		.type	main, %function
 4475              	main:
 4476              	.LFB79:
 737:main.c        **** 
 738:main.c        **** /* =========================================================================
 739:main.c        ****  * main
 740:main.c        ****  * ========================================================================= */
 741:main.c        **** int main(void)
 742:main.c        **** {
 4477              		.loc 1 742 0
 4478              		.cfi_startproc
 4479              		@ args = 0, pretend = 0, frame = 584
 4480              		@ frame_needed = 1, uses_anonymous_args = 0
 4481 0000 2DE9F043 		push	{r4, r5, r6, r7, r8, r9, lr}
 4482              		.cfi_def_cfa_offset 28
 4483              		.cfi_offset 4, -28
 4484              		.cfi_offset 5, -24
 4485              		.cfi_offset 6, -20
 4486              		.cfi_offset 7, -16
 4487              		.cfi_offset 8, -12
 4488              		.cfi_offset 9, -8
 4489              		.cfi_offset 14, -4
 4490 0004 ADF5217D 		sub	sp, sp, #644
 4491              		.cfi_def_cfa_offset 672
 4492 0008 0EAF     		add	r7, sp, #56
 4493              		.cfi_def_cfa 7, 616
 743:main.c        ****     char tx[TRANSMIT_BUFFER_SIZE];
 744:main.c        ****     uint8 ch;
 745:main.c        **** 
 746:main.c        ****     /* Application mode */
 747:main.c        ****     app_mode_t app_mode = APP_MODE_STANDBY;
 4494              		.loc 1 747 0
 4495 000a 0023     		movs	r3, #0
 4496 000c 87F85F31 		strb	r3, [r7, #351]
 748:main.c        **** 
 749:main.c        ****     /* Sub-flags (valid in any mode) */
 750:main.c        ****     uint8 joystick_active = FALSE;
 4497              		.loc 1 750 0
 4498 0010 0023     		movs	r3, #0
 4499 0012 87F85E31 		strb	r3, [r7, #350]
 751:main.c        ****     uint8 streaming_adc   = FALSE;
 4500              		.loc 1 751 0
 4501 0016 0023     		movs	r3, #0
 4502 0018 87F85D31 		strb	r3, [r7, #349]
 752:main.c        ****     uint8 diag_active     = FALSE;
 4503              		.loc 1 752 0
 4504 001c 0023     		movs	r3, #0
 4505 001e 87F84732 		strb	r3, [r7, #583]
ARM GAS  C:\Users\JENNEW~1\AppData\Local\Temp\ccHH9OS0.s 			page 104


 753:main.c        **** 
 754:main.c        ****     ff_api_control_type_e ctrl_mode = DEFER;
 4506              		.loc 1 754 0
 4507 0022 0023     		movs	r3, #0
 4508 0024 87F85C31 		strb	r3, [r7, #348]
 755:main.c        **** 
 756:main.c        ****     static uint32 last_tx_ms   = 0u;
 757:main.c        ****     static uint32 last_diag_ms = 0u;
 758:main.c        **** 
 759:main.c        ****     int16     counts[N_CH];
 760:main.c        ****     joy_cmd_t cmd;
 761:main.c        ****     cmd.u[0] = 0.0f;
 4509              		.loc 1 761 0
 4510 0028 4FF00003 		mov	r3, #0
 4511 002c C7F85031 		str	r3, [r7, #336]	@ float
 762:main.c        ****     cmd.u[1] = 0.0f;
 4512              		.loc 1 762 0
 4513 0030 4FF00003 		mov	r3, #0
 4514 0034 C7F85431 		str	r3, [r7, #340]	@ float
 763:main.c        **** 
 764:main.c        ****     movi_control_t ctl;
 765:main.c        **** 
 766:main.c        ****     joy_cal_state_t cal_prev = JOY_CAL_OFF;
 4515              		.loc 1 766 0
 4516 0038 0023     		movs	r3, #0
 4517 003a 87F84632 		strb	r3, [r7, #582]
 767:main.c        ****     joy_cal_t defaults;
 768:main.c        ****     uint8 i;
 769:main.c        ****     for (i = 0u; i < (uint8)N_CH; i++) {
 4518              		.loc 1 769 0
 4519 003e 0023     		movs	r3, #0
 4520 0040 87F84532 		strb	r3, [r7, #581]
 4521 0044 1BE0     		b	.L228
 4522              	.L229:
 770:main.c        ****         defaults.minv[i]   = 0;
 4523              		.loc 1 770 0 discriminator 3
 4524 0046 97F84522 		ldrb	r2, [r7, #581]	@ zero_extendqisi2
 4525 004a 07F59673 		add	r3, r7, #300
 4526 004e 0021     		movs	r1, #0
 4527 0050 23F81210 		strh	r1, [r3, r2, lsl #1]	@ movhi
 771:main.c        ****         defaults.maxv[i]   = 255;
 4528              		.loc 1 771 0 discriminator 3
 4529 0054 97F84532 		ldrb	r3, [r7, #581]	@ zero_extendqisi2
 4530 0058 07F59672 		add	r2, r7, #300
 4531 005c 5B00     		lsls	r3, r3, #1
 4532 005e 1344     		add	r3, r3, r2
 4533 0060 FF22     		movs	r2, #255
 4534 0062 9A80     		strh	r2, [r3, #4]	@ movhi
 772:main.c        ****         defaults.center[i] = 128;
 4535              		.loc 1 772 0 discriminator 3
 4536 0064 97F84522 		ldrb	r2, [r7, #581]	@ zero_extendqisi2
 4537 0068 07F59673 		add	r3, r7, #300
 4538 006c 0432     		adds	r2, r2, #4
 4539 006e 8021     		movs	r1, #128
 4540 0070 23F81210 		strh	r1, [r3, r2, lsl #1]	@ movhi
 769:main.c        ****         defaults.minv[i]   = 0;
 4541              		.loc 1 769 0 discriminator 3
ARM GAS  C:\Users\JENNEW~1\AppData\Local\Temp\ccHH9OS0.s 			page 105


 4542 0074 97F84532 		ldrb	r3, [r7, #581]	@ zero_extendqisi2
 4543 0078 0133     		adds	r3, r3, #1
 4544 007a 87F84532 		strb	r3, [r7, #581]
 4545              	.L228:
 769:main.c        ****         defaults.minv[i]   = 0;
 4546              		.loc 1 769 0 is_stmt 0 discriminator 1
 4547 007e 97F84532 		ldrb	r3, [r7, #581]	@ zero_extendqisi2
 4548 0082 012B     		cmp	r3, #1
 4549 0084 DFD9     		bls	.L229
 773:main.c        ****     }
 774:main.c        ****     defaults.valid = 0u;
 4550              		.loc 1 774 0 is_stmt 1
 4551 0086 07F59673 		add	r3, r7, #300
 4552 008a 0022     		movs	r2, #0
 4553 008c 1A73     		strb	r2, [r3, #12]
 775:main.c        ****     joy_sensitivity_t current_sense = SENSE_MED;
 4554              		.loc 1 775 0
 4555 008e 0123     		movs	r3, #1
 4556 0090 87F84432 		strb	r3, [r7, #580]
 776:main.c        ****     uint8 last_button_state = 1;
 4557              		.loc 1 776 0
 4558 0094 0123     		movs	r3, #1
 4559 0096 87F84332 		strb	r3, [r7, #579]
 777:main.c        **** 
 778:main.c        ****     uint32 invert_mask = (1u << CH_X);
 4560              		.loc 1 778 0
 4561 009a 0123     		movs	r3, #1
 4562 009c C7F83C32 		str	r3, [r7, #572]
 779:main.c        **** 
 780:main.c        ****     /* ------------------------------------------------------------------
 781:main.c        ****      * Hardware init
 782:main.c        ****      * ------------------------------------------------------------------ */
 783:main.c        ****     CyGlobalIntEnable;
 4563              		.loc 1 783 0
