ARM GAS  C:\Users\JENNEW~1\AppData\Local\Temp\ccGi2R4N.s 			page 1


   1              		.syntax unified
   2              		.cpu cortex-m3
   3              		.fpu softvfp
   4              		.eabi_attribute 20, 1
   5              		.eabi_attribute 21, 1
   6              		.eabi_attribute 23, 3
   7              		.eabi_attribute 24, 1
   8              		.eabi_attribute 25, 1
   9              		.eabi_attribute 26, 1
  10              		.eabi_attribute 30, 6
  11              		.eabi_attribute 34, 1
  12              		.eabi_attribute 18, 4
  13              		.thumb
  14              		.syntax unified
  15              		.file	"movi_comm.c"
  16              		.text
  17              	.Ltext0:
  18              		.cfi_sections	.debug_frame
  19              		.global	__aeabi_i2f
  20              		.global	__aeabi_fdiv
  21              		.section	.text.parse_gps_from_rxmsg,"ax",%progbits
  22              		.align	2
  23              		.thumb
  24              		.thumb_func
  25              		.type	parse_gps_from_rxmsg, %function
  26              	parse_gps_from_rxmsg:
  27              	.LFB1:
  28              		.file 1 "movi_comm.c"
   1:movi_comm.c   **** #include "movi_comm.h"
   2:movi_comm.c   **** #include <string.h>
   3:movi_comm.c   **** #include <stdio.h>
   4:movi_comm.c   **** 
   5:movi_comm.c   **** /* Freefly/QX */
   6:movi_comm.c   **** #include "QX_Protocol.h"
   7:movi_comm.c   **** #include "simple_buffer.h"
   8:movi_comm.c   **** 
   9:movi_comm.c   **** #define MOVI_QX_PORT        (QX_COMMS_PORT_UART)
  10:movi_comm.c   **** #define GPS_POLL_PERIOD_MS  200u   /* 5 Hz */
  11:movi_comm.c   **** 
  12:movi_comm.c   **** /* -----------------------------------------------------------------------
  13:movi_comm.c   ****  * GPS parsing — no separate QX client needed.
  14:movi_comm.c   ****  * QX_StreamRxCharSM populates QX_CommsPorts[port].RxMsg before returning.
  15:movi_comm.c   ****  * We inspect it inline in movi_comm_pump after got_packet is true.
  16:movi_comm.c   ****  * ----------------------------------------------------------------------- */
  17:movi_comm.c   **** static void parse_gps_from_rxmsg(movi_status_t *st)
  18:movi_comm.c   **** {
  29              		.loc 1 18 0
  30              		.cfi_startproc
  31              		@ args = 0, pretend = 0, frame = 40
  32              		@ frame_needed = 1, uses_anonymous_args = 0
  33 0000 80B5     		push	{r7, lr}
  34              		.cfi_def_cfa_offset 8
  35              		.cfi_offset 7, -8
  36              		.cfi_offset 14, -4
  37 0002 8AB0     		sub	sp, sp, #40
  38              		.cfi_def_cfa_offset 48
  39 0004 00AF     		add	r7, sp, #0
ARM GAS  C:\Users\JENNEW~1\AppData\Local\Temp\ccGi2R4N.s 			page 2


  40              		.cfi_def_cfa_register 7
  41 0006 7860     		str	r0, [r7, #4]
  19:movi_comm.c   ****     const QX_Msg_t *msg = &QX_CommsPorts[MOVI_QX_PORT].RxMsg;
  42              		.loc 1 19 0
  43 0008 684B     		ldr	r3, .L10
  44 000a 7B62     		str	r3, [r7, #36]
  20:movi_comm.c   **** 
  21:movi_comm.c   ****     if (msg->Header.Attrib != 4u) return;
  45              		.loc 1 21 0
  46 000c 7B6A     		ldr	r3, [r7, #36]
  47 000e DB68     		ldr	r3, [r3, #12]
  48 0010 042B     		cmp	r3, #4
  49 0012 40F0C380 		bne	.L7
  22:movi_comm.c   ****     if (msg->Header.MsgLength < 23u) return;
  50              		.loc 1 22 0
  51 0016 7B6A     		ldr	r3, [r7, #36]
  52 0018 1B89     		ldrh	r3, [r3, #8]
  53 001a 162B     		cmp	r3, #22
  54 001c 40F2C080 		bls	.L8
  23:movi_comm.c   **** 
  24:movi_comm.c   ****     const uint8_t *p = msg->BufPayloadStart_p;
  55              		.loc 1 24 0
  56 0020 7B6A     		ldr	r3, [r7, #36]
  57 0022 DB6E     		ldr	r3, [r3, #108]
  58 0024 3B62     		str	r3, [r7, #32]
  25:movi_comm.c   ****     if (!p) return;
  59              		.loc 1 25 0
  60 0026 3B6A     		ldr	r3, [r7, #32]
  61 0028 002B     		cmp	r3, #0
  62 002a 00F0BB80 		beq	.L9
  26:movi_comm.c   **** 
  27:movi_comm.c   ****     /* Offsets from Firmware6_2 ParameterStructure (1-based, byte 0 is
  28:movi_comm.c   ****      * the QX sub-index byte).  All little-endian.                        */
  29:movi_comm.c   ****     int32_t lon_raw, lat_raw, alt_raw;
  30:movi_comm.c   ****     int16_t spd_raw, hdg_raw, hacc_raw, vacc_raw, sacc_raw;
  31:movi_comm.c   **** 
  32:movi_comm.c   ****     memcpy(&lon_raw,  p + 1,  4);   /* Longitude    scale 1e7   */
  63              		.loc 1 32 0
  64 002e 3B6A     		ldr	r3, [r7, #32]
  65 0030 591C     		adds	r1, r3, #1
  66 0032 07F11C03 		add	r3, r7, #28
  67 0036 0422     		movs	r2, #4
  68 0038 1846     		mov	r0, r3
  69 003a FFF7FEFF 		bl	memcpy
  33:movi_comm.c   ****     memcpy(&lat_raw,  p + 5,  4);   /* Latitude     scale 1e7   */
  70              		.loc 1 33 0
  71 003e 3B6A     		ldr	r3, [r7, #32]
  72 0040 591D     		adds	r1, r3, #5
  73 0042 07F11803 		add	r3, r7, #24
  74 0046 0422     		movs	r2, #4
  75 0048 1846     		mov	r0, r3
  76 004a FFF7FEFF 		bl	memcpy
  34:movi_comm.c   ****     memcpy(&alt_raw,  p + 9,  4);   /* Altitude     scale 1000  */
  77              		.loc 1 34 0
  78 004e 3B6A     		ldr	r3, [r7, #32]
  79 0050 03F10901 		add	r1, r3, #9
  80 0054 07F11403 		add	r3, r7, #20
ARM GAS  C:\Users\JENNEW~1\AppData\Local\Temp\ccGi2R4N.s 			page 3


  81 0058 0422     		movs	r2, #4
  82 005a 1846     		mov	r0, r3
  83 005c FFF7FEFF 		bl	memcpy
  35:movi_comm.c   ****     memcpy(&spd_raw,  p + 13, 2);   /* Ground speed scale 100   */
  84              		.loc 1 35 0
  85 0060 3B6A     		ldr	r3, [r7, #32]
  86 0062 03F10D01 		add	r1, r3, #13
  87 0066 07F11203 		add	r3, r7, #18
  88 006a 0222     		movs	r2, #2
  89 006c 1846     		mov	r0, r3
  90 006e FFF7FEFF 		bl	memcpy
  36:movi_comm.c   ****     memcpy(&hdg_raw,  p + 15, 2);   /* Heading      scale 10    */
  91              		.loc 1 36 0
  92 0072 3B6A     		ldr	r3, [r7, #32]
  93 0074 03F10F01 		add	r1, r3, #15
  94 0078 07F11003 		add	r3, r7, #16
  95 007c 0222     		movs	r2, #2
  96 007e 1846     		mov	r0, r3
  97 0080 FFF7FEFF 		bl	memcpy
  37:movi_comm.c   ****     memcpy(&hacc_raw, p + 17, 2);   /* Hacc         scale 100   */
  98              		.loc 1 37 0
  99 0084 3B6A     		ldr	r3, [r7, #32]
 100 0086 03F11101 		add	r1, r3, #17
 101 008a 07F10E03 		add	r3, r7, #14
 102 008e 0222     		movs	r2, #2
 103 0090 1846     		mov	r0, r3
 104 0092 FFF7FEFF 		bl	memcpy
  38:movi_comm.c   ****     memcpy(&vacc_raw, p + 19, 2);   /* Vacc         scale 100   */
 105              		.loc 1 38 0
 106 0096 3B6A     		ldr	r3, [r7, #32]
 107 0098 03F11301 		add	r1, r3, #19
 108 009c 07F10C03 		add	r3, r7, #12
 109 00a0 0222     		movs	r2, #2
 110 00a2 1846     		mov	r0, r3
 111 00a4 FFF7FEFF 		bl	memcpy
  39:movi_comm.c   ****     memcpy(&sacc_raw, p + 21, 2);   /* Sacc         scale 100   */
 112              		.loc 1 39 0
 113 00a8 3B6A     		ldr	r3, [r7, #32]
 114 00aa 03F11501 		add	r1, r3, #21
 115 00ae 07F10A03 		add	r3, r7, #10
 116 00b2 0222     		movs	r2, #2
 117 00b4 1846     		mov	r0, r3
 118 00b6 FFF7FEFF 		bl	memcpy
  40:movi_comm.c   **** 
  41:movi_comm.c   ****     st->gps_lat_deg       = (float)lat_raw  / 1e7f;
 119              		.loc 1 41 0
 120 00ba BB69     		ldr	r3, [r7, #24]
 121 00bc 1846     		mov	r0, r3
 122 00be FFF7FEFF 		bl	__aeabi_i2f
 123 00c2 0346     		mov	r3, r0
 124 00c4 3A49     		ldr	r1, .L10+4
 125 00c6 1846     		mov	r0, r3
 126 00c8 FFF7FEFF 		bl	__aeabi_fdiv
 127 00cc 0346     		mov	r3, r0
 128 00ce 1A46     		mov	r2, r3
 129 00d0 7B68     		ldr	r3, [r7, #4]
 130 00d2 1A62     		str	r2, [r3, #32]	@ float
ARM GAS  C:\Users\JENNEW~1\AppData\Local\Temp\ccGi2R4N.s 			page 4


  42:movi_comm.c   ****     st->gps_lon_deg       = (float)lon_raw  / 1e7f;
 131              		.loc 1 42 0
 132 00d4 FB69     		ldr	r3, [r7, #28]
 133 00d6 1846     		mov	r0, r3
 134 00d8 FFF7FEFF 		bl	__aeabi_i2f
 135 00dc 0346     		mov	r3, r0
 136 00de 3449     		ldr	r1, .L10+4
 137 00e0 1846     		mov	r0, r3
 138 00e2 FFF7FEFF 		bl	__aeabi_fdiv
 139 00e6 0346     		mov	r3, r0
 140 00e8 1A46     		mov	r2, r3
 141 00ea 7B68     		ldr	r3, [r7, #4]
 142 00ec 5A62     		str	r2, [r3, #36]	@ float
  43:movi_comm.c   ****     st->gps_alt_m         = (float)alt_raw  / 1000.0f;
 143              		.loc 1 43 0
 144 00ee 7B69     		ldr	r3, [r7, #20]
 145 00f0 1846     		mov	r0, r3
 146 00f2 FFF7FEFF 		bl	__aeabi_i2f
 147 00f6 0346     		mov	r3, r0
 148 00f8 2E49     		ldr	r1, .L10+8
 149 00fa 1846     		mov	r0, r3
 150 00fc FFF7FEFF 		bl	__aeabi_fdiv
 151 0100 0346     		mov	r3, r0
 152 0102 1A46     		mov	r2, r3
 153 0104 7B68     		ldr	r3, [r7, #4]
 154 0106 9A62     		str	r2, [r3, #40]	@ float
  44:movi_comm.c   ****     st->gps_ground_spd_ms = (float)spd_raw  / 100.0f;
 155              		.loc 1 44 0
 156 0108 B7F91230 		ldrsh	r3, [r7, #18]
 157 010c 1846     		mov	r0, r3
 158 010e FFF7FEFF 		bl	__aeabi_i2f
 159 0112 0346     		mov	r3, r0
 160 0114 2849     		ldr	r1, .L10+12
 161 0116 1846     		mov	r0, r3
 162 0118 FFF7FEFF 		bl	__aeabi_fdiv
 163 011c 0346     		mov	r3, r0
 164 011e 1A46     		mov	r2, r3
 165 0120 7B68     		ldr	r3, [r7, #4]
 166 0122 DA62     		str	r2, [r3, #44]	@ float
  45:movi_comm.c   ****     st->gps_heading_deg   = (float)hdg_raw  / 10.0f;
 167              		.loc 1 45 0
 168 0124 B7F91030 		ldrsh	r3, [r7, #16]
 169 0128 1846     		mov	r0, r3
 170 012a FFF7FEFF 		bl	__aeabi_i2f
 171 012e 0346     		mov	r3, r0
 172 0130 2249     		ldr	r1, .L10+16
 173 0132 1846     		mov	r0, r3
 174 0134 FFF7FEFF 		bl	__aeabi_fdiv
 175 0138 0346     		mov	r3, r0
 176 013a 1A46     		mov	r2, r3
 177 013c 7B68     		ldr	r3, [r7, #4]
 178 013e 1A63     		str	r2, [r3, #48]	@ float
  46:movi_comm.c   ****     st->gps_hacc_m        = (float)hacc_raw / 100.0f;
 179              		.loc 1 46 0
 180 0140 B7F90E30 		ldrsh	r3, [r7, #14]
 181 0144 1846     		mov	r0, r3
 182 0146 FFF7FEFF 		bl	__aeabi_i2f
ARM GAS  C:\Users\JENNEW~1\AppData\Local\Temp\ccGi2R4N.s 			page 5


 183 014a 0346     		mov	r3, r0
 184 014c 1A49     		ldr	r1, .L10+12
 185 014e 1846     		mov	r0, r3
 186 0150 FFF7FEFF 		bl	__aeabi_fdiv
 187 0154 0346     		mov	r3, r0
 188 0156 1A46     		mov	r2, r3
 189 0158 7B68     		ldr	r3, [r7, #4]
 190 015a 5A63     		str	r2, [r3, #52]	@ float
  47:movi_comm.c   ****     st->gps_vacc_m        = (float)vacc_raw / 100.0f;
 191              		.loc 1 47 0
 192 015c B7F90C30 		ldrsh	r3, [r7, #12]
 193 0160 1846     		mov	r0, r3
 194 0162 FFF7FEFF 		bl	__aeabi_i2f
 195 0166 0346     		mov	r3, r0
 196 0168 1349     		ldr	r1, .L10+12
 197 016a 1846     		mov	r0, r3
 198 016c FFF7FEFF 		bl	__aeabi_fdiv
 199 0170 0346     		mov	r3, r0
 200 0172 1A46     		mov	r2, r3
 201 0174 7B68     		ldr	r3, [r7, #4]
 202 0176 9A63     		str	r2, [r3, #56]	@ float
  48:movi_comm.c   ****     st->gps_sacc_ms       = (float)sacc_raw / 100.0f;
 203              		.loc 1 48 0
 204 0178 B7F90A30 		ldrsh	r3, [r7, #10]
 205 017c 1846     		mov	r0, r3
 206 017e FFF7FEFF 		bl	__aeabi_i2f
 207 0182 0346     		mov	r3, r0
 208 0184 0C49     		ldr	r1, .L10+12
 209 0186 1846     		mov	r0, r3
 210 0188 FFF7FEFF 		bl	__aeabi_fdiv
 211 018c 0346     		mov	r3, r0
 212 018e 1A46     		mov	r2, r3
 213 0190 7B68     		ldr	r3, [r7, #4]
 214 0192 DA63     		str	r2, [r3, #60]	@ float
  49:movi_comm.c   ****     st->gps_valid         = true;
 215              		.loc 1 49 0
 216 0194 7B68     		ldr	r3, [r7, #4]
 217 0196 0122     		movs	r2, #1
 218 0198 9A77     		strb	r2, [r3, #30]
 219 019a 04E0     		b	.L1
 220              	.L7:
  21:movi_comm.c   ****     if (msg->Header.MsgLength < 23u) return;
 221              		.loc 1 21 0
 222 019c 00BF     		nop
 223 019e 02E0     		b	.L1
 224              	.L8:
  22:movi_comm.c   **** 
 225              		.loc 1 22 0
 226 01a0 00BF     		nop
 227 01a2 00E0     		b	.L1
 228              	.L9:
  25:movi_comm.c   **** 
 229              		.loc 1 25 0
 230 01a4 00BF     		nop
 231              	.L1:
  50:movi_comm.c   **** }
 232              		.loc 1 50 0
ARM GAS  C:\Users\JENNEW~1\AppData\Local\Temp\ccGi2R4N.s 			page 6


 233 01a6 2837     		adds	r7, r7, #40
 234              		.cfi_def_cfa_offset 8
 235 01a8 BD46     		mov	sp, r7
 236              		.cfi_def_cfa_register 13
 237              		@ sp needed
 238 01aa 80BD     		pop	{r7, pc}
 239              	.L11:
 240              		.align	2
 241              	.L10:
 242 01ac 04000000 		.word	QX_CommsPorts+4
 243 01b0 8096184B 		.word	1259902592
 244 01b4 00007A44 		.word	1148846080
 245 01b8 0000C842 		.word	1120403456
 246 01bc 00002041 		.word	1092616192
 247              		.cfi_endproc
 248              	.LFE1:
 249              		.size	parse_gps_from_rxmsg, .-parse_gps_from_rxmsg
 250              		.section	.text.load_freefly_control_from_movi,"ax",%progbits
 251              		.align	2
 252              		.thumb
 253              		.thumb_func
 254              		.type	load_freefly_control_from_movi, %function
 255              	load_freefly_control_from_movi:
 256              	.LFB2:
  51:movi_comm.c   **** 
  52:movi_comm.c   **** static void load_freefly_control_from_movi(const movi_control_t* in)
  53:movi_comm.c   **** {
 257              		.loc 1 53 0
 258              		.cfi_startproc
 259              		@ args = 0, pretend = 0, frame = 8
 260              		@ frame_needed = 1, uses_anonymous_args = 0
 261              		@ link register save eliminated.
 262 0000 80B4     		push	{r7}
 263              		.cfi_def_cfa_offset 4
 264              		.cfi_offset 7, -4
 265 0002 83B0     		sub	sp, sp, #12
 266              		.cfi_def_cfa_offset 16
 267 0004 00AF     		add	r7, sp, #0
 268              		.cfi_def_cfa_register 7
 269 0006 7860     		str	r0, [r7, #4]
  54:movi_comm.c   ****     /* If you want enable to “gate” output, do it here */
  55:movi_comm.c   ****     if (in->enable == 0u) {
 270              		.loc 1 55 0
 271 0008 7B68     		ldr	r3, [r7, #4]
 272 000a DB7B     		ldrb	r3, [r3, #15]	@ zero_extendqisi2
 273 000c 002B     		cmp	r3, #0
 274 000e 2ED1     		bne	.L13
  56:movi_comm.c   ****         FreeflyAPI.control.pan.type  = DEFER;
 275              		.loc 1 56 0
 276 0010 444B     		ldr	r3, .L17
 277 0012 0022     		movs	r2, #0
 278 0014 1A75     		strb	r2, [r3, #20]
  57:movi_comm.c   ****         FreeflyAPI.control.tilt.type = DEFER;
 279              		.loc 1 57 0
 280 0016 434B     		ldr	r3, .L17
 281 0018 0022     		movs	r2, #0
 282 001a 1A77     		strb	r2, [r3, #28]
ARM GAS  C:\Users\JENNEW~1\AppData\Local\Temp\ccGi2R4N.s 			page 7


  58:movi_comm.c   ****         FreeflyAPI.control.roll.type = DEFER;
 283              		.loc 1 58 0
 284 001c 414B     		ldr	r3, .L17
 285 001e 0022     		movs	r2, #0
 286 0020 83F82420 		strb	r2, [r3, #36]
  59:movi_comm.c   ****         FreeflyAPI.control.focus.type = DEFER;
 287              		.loc 1 59 0
 288 0024 3F4B     		ldr	r3, .L17
 289 0026 0022     		movs	r2, #0
 290 0028 83F82C20 		strb	r2, [r3, #44]
  60:movi_comm.c   ****         FreeflyAPI.control.iris.type  = DEFER;
 291              		.loc 1 60 0
 292 002c 3D4B     		ldr	r3, .L17
 293 002e 0022     		movs	r2, #0
 294 0030 83F83420 		strb	r2, [r3, #52]
  61:movi_comm.c   ****         FreeflyAPI.control.zoom.type  = DEFER;
 295              		.loc 1 61 0
 296 0034 3B4B     		ldr	r3, .L17
 297 0036 0022     		movs	r2, #0
 298 0038 83F83C20 		strb	r2, [r3, #60]
  62:movi_comm.c   **** 
  63:movi_comm.c   ****         FreeflyAPI.control.pan.value  = 0.0f;
 299              		.loc 1 63 0
 300 003c 394B     		ldr	r3, .L17
 301 003e 4FF00002 		mov	r2, #0
 302 0042 1A61     		str	r2, [r3, #16]	@ float
  64:movi_comm.c   ****         FreeflyAPI.control.tilt.value = 0.0f;
 303              		.loc 1 64 0
 304 0044 374B     		ldr	r3, .L17
 305 0046 4FF00002 		mov	r2, #0
 306 004a 9A61     		str	r2, [r3, #24]	@ float
  65:movi_comm.c   ****         FreeflyAPI.control.roll.value = 0.0f;
 307              		.loc 1 65 0
 308 004c 354B     		ldr	r3, .L17
 309 004e 4FF00002 		mov	r2, #0
 310 0052 1A62     		str	r2, [r3, #32]	@ float
  66:movi_comm.c   ****         FreeflyAPI.control.focus.value = 0.0f;
 311              		.loc 1 66 0
 312 0054 334B     		ldr	r3, .L17
 313 0056 4FF00002 		mov	r2, #0
 314 005a 9A62     		str	r2, [r3, #40]	@ float
  67:movi_comm.c   ****         FreeflyAPI.control.iris.value  = 0.0f;
 315              		.loc 1 67 0
 316 005c 314B     		ldr	r3, .L17
 317 005e 4FF00002 		mov	r2, #0
 318 0062 1A63     		str	r2, [r3, #48]	@ float
  68:movi_comm.c   ****         FreeflyAPI.control.zoom.value  = 0.0f;
 319              		.loc 1 68 0
 320 0064 2F4B     		ldr	r3, .L17
 321 0066 4FF00002 		mov	r2, #0
 322 006a 9A63     		str	r2, [r3, #56]	@ float
 323 006c 30E0     		b	.L14
 324              	.L13:
  69:movi_comm.c   ****     } else {
  70:movi_comm.c   ****         FreeflyAPI.control.pan.type  = in->pan_mode;
 325              		.loc 1 70 0
 326 006e 7B68     		ldr	r3, [r7, #4]
ARM GAS  C:\Users\JENNEW~1\AppData\Local\Temp\ccGi2R4N.s 			page 8


 327 0070 1A7B     		ldrb	r2, [r3, #12]	@ zero_extendqisi2
 328 0072 2C4B     		ldr	r3, .L17
 329 0074 1A75     		strb	r2, [r3, #20]
  71:movi_comm.c   ****         FreeflyAPI.control.tilt.type = in->tilt_mode;
 330              		.loc 1 71 0
 331 0076 7B68     		ldr	r3, [r7, #4]
 332 0078 5A7B     		ldrb	r2, [r3, #13]	@ zero_extendqisi2
 333 007a 2A4B     		ldr	r3, .L17
 334 007c 1A77     		strb	r2, [r3, #28]
  72:movi_comm.c   ****         FreeflyAPI.control.roll.type = in->roll_mode;
 335              		.loc 1 72 0
 336 007e 7B68     		ldr	r3, [r7, #4]
 337 0080 9A7B     		ldrb	r2, [r3, #14]	@ zero_extendqisi2
 338 0082 284B     		ldr	r3, .L17
 339 0084 83F82420 		strb	r2, [r3, #36]
  73:movi_comm.c   **** 
  74:movi_comm.c   ****         FreeflyAPI.control.pan.value  = in->pan;
 340              		.loc 1 74 0
 341 0088 7B68     		ldr	r3, [r7, #4]
 342 008a 1B68     		ldr	r3, [r3]	@ float
 343 008c 254A     		ldr	r2, .L17
 344 008e 1361     		str	r3, [r2, #16]	@ float
  75:movi_comm.c   ****         FreeflyAPI.control.tilt.value = in->tilt;
 345              		.loc 1 75 0
 346 0090 7B68     		ldr	r3, [r7, #4]
 347 0092 5B68     		ldr	r3, [r3, #4]	@ float
 348 0094 234A     		ldr	r2, .L17
 349 0096 9361     		str	r3, [r2, #24]	@ float
  76:movi_comm.c   ****         FreeflyAPI.control.roll.value = in->roll;
 350              		.loc 1 76 0
 351 0098 7B68     		ldr	r3, [r7, #4]
 352 009a 9B68     		ldr	r3, [r3, #8]	@ float
 353 009c 214A     		ldr	r2, .L17
 354 009e 1362     		str	r3, [r2, #32]	@ float
  77:movi_comm.c   **** 
  78:movi_comm.c   ****         /* Leave lens DEFER for now */
  79:movi_comm.c   ****         FreeflyAPI.control.focus.type = DEFER;
 355              		.loc 1 79 0
 356 00a0 204B     		ldr	r3, .L17
 357 00a2 0022     		movs	r2, #0
 358 00a4 83F82C20 		strb	r2, [r3, #44]
  80:movi_comm.c   ****         FreeflyAPI.control.iris.type  = DEFER;
 359              		.loc 1 80 0
 360 00a8 1E4B     		ldr	r3, .L17
 361 00aa 0022     		movs	r2, #0
 362 00ac 83F83420 		strb	r2, [r3, #52]
  81:movi_comm.c   ****         FreeflyAPI.control.zoom.type  = DEFER;
 363              		.loc 1 81 0
 364 00b0 1C4B     		ldr	r3, .L17
 365 00b2 0022     		movs	r2, #0
 366 00b4 83F83C20 		strb	r2, [r3, #60]
  82:movi_comm.c   ****         FreeflyAPI.control.focus.value = 0.0f;
 367              		.loc 1 82 0
 368 00b8 1A4B     		ldr	r3, .L17
 369 00ba 4FF00002 		mov	r2, #0
 370 00be 9A62     		str	r2, [r3, #40]	@ float
  83:movi_comm.c   ****         FreeflyAPI.control.iris.value  = 0.0f;
ARM GAS  C:\Users\JENNEW~1\AppData\Local\Temp\ccGi2R4N.s 			page 9


 371              		.loc 1 83 0
 372 00c0 184B     		ldr	r3, .L17
 373 00c2 4FF00002 		mov	r2, #0
 374 00c6 1A63     		str	r2, [r3, #48]	@ float
  84:movi_comm.c   ****         FreeflyAPI.control.zoom.value  = 0.0f;
 375              		.loc 1 84 0
 376 00c8 164B     		ldr	r3, .L17
 377 00ca 4FF00002 		mov	r2, #0
 378 00ce 9A63     		str	r2, [r3, #56]	@ float
 379              	.L14:
  85:movi_comm.c   ****     }
  86:movi_comm.c   **** 
  87:movi_comm.c   ****     /* One-shot kill flag */
  88:movi_comm.c   ****     FreeflyAPI.control.gimbal_kill = (in->kill ? 1u : 0u);
 380              		.loc 1 88 0
 381 00d0 7B68     		ldr	r3, [r7, #4]
 382 00d2 1B7C     		ldrb	r3, [r3, #16]	@ zero_extendqisi2
 383 00d4 002B     		cmp	r3, #0
 384 00d6 01D0     		beq	.L15
 385              		.loc 1 88 0 is_stmt 0 discriminator 1
 386 00d8 0122     		movs	r2, #1
 387 00da 00E0     		b	.L16
 388              	.L15:
 389              		.loc 1 88 0 discriminator 2
 390 00dc 0022     		movs	r2, #0
 391              	.L16:
 392              		.loc 1 88 0 discriminator 4
 393 00de 114B     		ldr	r3, .L17
 394 00e0 1A73     		strb	r2, [r3, #12]
  89:movi_comm.c   **** 
  90:movi_comm.c   ****     /* Most setups use euler-style controls; leave quaternions off */
  91:movi_comm.c   ****     FreeflyAPI.control.gimbal_position_type_quaternions = 0u;
 395              		.loc 1 91 0 is_stmt 1 discriminator 4
 396 00e2 104B     		ldr	r3, .L17
 397 00e4 0022     		movs	r2, #0
 398 00e6 5A73     		strb	r2, [r3, #13]
  92:movi_comm.c   **** 
  93:movi_comm.c   ****     /* Leave FIZ flags alone unless you wire them */
  94:movi_comm.c   ****     FreeflyAPI.control.fiz_clearFaults_all_flag  = 0u;
 399              		.loc 1 94 0 discriminator 4
 400 00e8 0E4B     		ldr	r3, .L17
 401 00ea 0022     		movs	r2, #0
 402 00ec 83F84020 		strb	r2, [r3, #64]
  95:movi_comm.c   ****     FreeflyAPI.control.fiz_autoCalStart_all_flag = 0u;
 403              		.loc 1 95 0 discriminator 4
 404 00f0 0C4B     		ldr	r3, .L17
 405 00f2 0022     		movs	r2, #0
 406 00f4 83F84120 		strb	r2, [r3, #65]
  96:movi_comm.c   ****     FreeflyAPI.control.fiz_record_button_flag    = 0u;
 407              		.loc 1 96 0 discriminator 4
 408 00f8 0A4B     		ldr	r3, .L17
 409 00fa 0022     		movs	r2, #0
 410 00fc 83F84220 		strb	r2, [r3, #66]
  97:movi_comm.c   ****     FreeflyAPI.control.fiz_setSubRangeLim_F_flag = 0u;
 411              		.loc 1 97 0 discriminator 4
 412 0100 084B     		ldr	r3, .L17
 413 0102 0022     		movs	r2, #0
ARM GAS  C:\Users\JENNEW~1\AppData\Local\Temp\ccGi2R4N.s 			page 10


 414 0104 83F84320 		strb	r2, [r3, #67]
  98:movi_comm.c   ****     FreeflyAPI.control.fiz_setSubRangeLim_I_flag = 0u;
 415              		.loc 1 98 0 discriminator 4
 416 0108 064B     		ldr	r3, .L17
 417 010a 0022     		movs	r2, #0
 418 010c 83F84420 		strb	r2, [r3, #68]
  99:movi_comm.c   ****     FreeflyAPI.control.fiz_setSubRangeLim_Z_flag = 0u;
 419              		.loc 1 99 0 discriminator 4
 420 0110 044B     		ldr	r3, .L17
 421 0112 0022     		movs	r2, #0
 422 0114 83F84520 		strb	r2, [r3, #69]
 100:movi_comm.c   **** }
 423              		.loc 1 100 0 discriminator 4
 424 0118 00BF     		nop
 425 011a 0C37     		adds	r7, r7, #12
 426              		.cfi_def_cfa_offset 4
 427 011c BD46     		mov	sp, r7
 428              		.cfi_def_cfa_register 13
 429              		@ sp needed
 430 011e 80BC     		pop	{r7}
 431              		.cfi_restore 7
 432              		.cfi_def_cfa_offset 0
 433 0120 7047     		bx	lr
 434              	.L18:
 435 0122 00BF     		.align	2
 436              	.L17:
 437 0124 00000000 		.word	FreeflyAPI
 438              		.cfi_endproc
 439              	.LFE2:
 440              		.size	load_freefly_control_from_movi, .-load_freefly_control_from_movi
 441              		.section	.text.copy_status_from_freefly,"ax",%progbits
 442              		.align	2
 443              		.thumb
 444              		.thumb_func
 445              		.type	copy_status_from_freefly, %function
 446              	copy_status_from_freefly:
 447              	.LFB3:
 101:movi_comm.c   **** 
 102:movi_comm.c   **** static void copy_status_from_freefly(movi_status_t* out)
 103:movi_comm.c   **** {
 448              		.loc 1 103 0
 449              		.cfi_startproc
 450              		@ args = 0, pretend = 0, frame = 8
 451              		@ frame_needed = 1, uses_anonymous_args = 0
 452              		@ link register save eliminated.
 453 0000 80B4     		push	{r7}
 454              		.cfi_def_cfa_offset 4
 455              		.cfi_offset 7, -4
 456 0002 83B0     		sub	sp, sp, #12
 457              		.cfi_def_cfa_offset 16
 458 0004 00AF     		add	r7, sp, #0
 459              		.cfi_def_cfa_register 7
 460 0006 7860     		str	r0, [r7, #4]
 104:movi_comm.c   ****     out->battery_left_v  = FreeflyAPI.status.battery_v_left;
 461              		.loc 1 104 0
 462 0008 144B     		ldr	r3, .L20
 463 000a 9A6C     		ldr	r2, [r3, #72]	@ float
ARM GAS  C:\Users\JENNEW~1\AppData\Local\Temp\ccGi2R4N.s 			page 11


 464 000c 7B68     		ldr	r3, [r7, #4]
 465 000e 5A60     		str	r2, [r3, #4]	@ float
 105:movi_comm.c   ****     out->battery_right_v = FreeflyAPI.status.battery_v_right;
 466              		.loc 1 105 0
 467 0010 124B     		ldr	r3, .L20
 468 0012 DA6C     		ldr	r2, [r3, #76]	@ float
 469 0014 7B68     		ldr	r3, [r7, #4]
 470 0016 9A60     		str	r2, [r3, #8]	@ float
 106:movi_comm.c   ****     out->gimbal_r        = FreeflyAPI.status.gimbal_r;
 471              		.loc 1 106 0
 472 0018 104B     		ldr	r3, .L20
 473 001a 1A6E     		ldr	r2, [r3, #96]	@ float
 474 001c 7B68     		ldr	r3, [r7, #4]
 475 001e DA60     		str	r2, [r3, #12]	@ float
 107:movi_comm.c   ****     out->gimbal_i        = FreeflyAPI.status.gimbal_i;
 476              		.loc 1 107 0
 477 0020 0E4B     		ldr	r3, .L20
 478 0022 5A6D     		ldr	r2, [r3, #84]	@ float
 479 0024 7B68     		ldr	r3, [r7, #4]
 480 0026 1A61     		str	r2, [r3, #16]	@ float
 108:movi_comm.c   ****     out->gimbal_j        = FreeflyAPI.status.gimbal_j;
 481              		.loc 1 108 0
 482 0028 0C4B     		ldr	r3, .L20
 483 002a 9A6D     		ldr	r2, [r3, #88]	@ float
 484 002c 7B68     		ldr	r3, [r7, #4]
 485 002e 5A61     		str	r2, [r3, #20]	@ float
 109:movi_comm.c   ****     out->gimbal_k        = FreeflyAPI.status.gimbal_k;
 486              		.loc 1 109 0
 487 0030 0A4B     		ldr	r3, .L20
 488 0032 DA6D     		ldr	r2, [r3, #92]	@ float
 489 0034 7B68     		ldr	r3, [r7, #4]
 490 0036 9A61     		str	r2, [r3, #24]	@ float
 110:movi_comm.c   ****     out->gimbal_status1  = FreeflyAPI.status.gimbal_Status1;
 491              		.loc 1 110 0
 492 0038 084B     		ldr	r3, .L20
 493 003a 93F85020 		ldrb	r2, [r3, #80]	@ zero_extendqisi2
 494 003e 7B68     		ldr	r3, [r7, #4]
 495 0040 1A77     		strb	r2, [r3, #28]
 111:movi_comm.c   ****     out->gimbal_status2  = FreeflyAPI.status.gimbal_Status2;
 496              		.loc 1 111 0
 497 0042 064B     		ldr	r3, .L20
 498 0044 93F85120 		ldrb	r2, [r3, #81]	@ zero_extendqisi2
 499 0048 7B68     		ldr	r3, [r7, #4]
 500 004a 5A77     		strb	r2, [r3, #29]
 112:movi_comm.c   ****     out->valid = true;
 501              		.loc 1 112 0
 502 004c 7B68     		ldr	r3, [r7, #4]
 503 004e 0122     		movs	r2, #1
 504 0050 1A70     		strb	r2, [r3]
 113:movi_comm.c   **** }
 505              		.loc 1 113 0
 506 0052 00BF     		nop
 507 0054 0C37     		adds	r7, r7, #12
 508              		.cfi_def_cfa_offset 4
 509 0056 BD46     		mov	sp, r7
 510              		.cfi_def_cfa_register 13
 511              		@ sp needed
ARM GAS  C:\Users\JENNEW~1\AppData\Local\Temp\ccGi2R4N.s 			page 12


 512 0058 80BC     		pop	{r7}
 513              		.cfi_restore 7
 514              		.cfi_def_cfa_offset 0
 515 005a 7047     		bx	lr
 516              	.L21:
 517              		.align	2
 518              	.L20:
 519 005c 00000000 		.word	FreeflyAPI
 520              		.cfi_endproc
 521              	.LFE3:
 522              		.size	copy_status_from_freefly, .-copy_status_from_freefly
 523              		.section	.text.movi_comm_init,"ax",%progbits
 524              		.align	2
 525              		.global	movi_comm_init
 526              		.thumb
 527              		.thumb_func
 528              		.type	movi_comm_init, %function
 529              	movi_comm_init:
 530              	.LFB4:
 114:movi_comm.c   **** 
 115:movi_comm.c   **** void movi_comm_init(movi_comm_t* m, const movi_hal_t* hal)
 116:movi_comm.c   **** {
 531              		.loc 1 116 0
 532              		.cfi_startproc
 533              		@ args = 0, pretend = 0, frame = 8
 534              		@ frame_needed = 1, uses_anonymous_args = 0
 535 0000 80B5     		push	{r7, lr}
 536              		.cfi_def_cfa_offset 8
 537              		.cfi_offset 7, -8
 538              		.cfi_offset 14, -4
 539 0002 82B0     		sub	sp, sp, #8
 540              		.cfi_def_cfa_offset 16
 541 0004 00AF     		add	r7, sp, #0
 542              		.cfi_def_cfa_register 7
 543 0006 7860     		str	r0, [r7, #4]
 544 0008 3960     		str	r1, [r7]
 117:movi_comm.c   ****     if (!m || !hal || !hal->uart_putc) return;
 545              		.loc 1 117 0
 546 000a 7B68     		ldr	r3, [r7, #4]
 547 000c 002B     		cmp	r3, #0
 548 000e 26D0     		beq	.L26
 549              		.loc 1 117 0 is_stmt 0 discriminator 1
 550 0010 3B68     		ldr	r3, [r7]
 551 0012 002B     		cmp	r3, #0
 552 0014 23D0     		beq	.L26
 553              		.loc 1 117 0 discriminator 2
 554 0016 3B68     		ldr	r3, [r7]
 555 0018 5B68     		ldr	r3, [r3, #4]
 556 001a 002B     		cmp	r3, #0
 557 001c 1FD0     		beq	.L26
 118:movi_comm.c   **** 
 119:movi_comm.c   ****     memset(m, 0, sizeof(*m));
 558              		.loc 1 119 0 is_stmt 1
 559 001e 4FF4C072 		mov	r2, #384
 560 0022 0021     		movs	r1, #0
 561 0024 7868     		ldr	r0, [r7, #4]
 562 0026 FFF7FEFF 		bl	memset
ARM GAS  C:\Users\JENNEW~1\AppData\Local\Temp\ccGi2R4N.s 			page 13


 120:movi_comm.c   ****     m->hal = *hal;
 563              		.loc 1 120 0
 564 002a 7B68     		ldr	r3, [r7, #4]
 565 002c 3A68     		ldr	r2, [r7]
 566 002e 92E80300 		ldmia	r2, {r0, r1}
 567 0032 83E80300 		stmia	r3, {r0, r1}
 121:movi_comm.c   ****     movi_rb_init(&m->rb);
 568              		.loc 1 121 0
 569 0036 7B68     		ldr	r3, [r7, #4]
 570 0038 7433     		adds	r3, r3, #116
 571 003a 1846     		mov	r0, r3
 572 003c FFF7FEFF 		bl	movi_rb_init
 122:movi_comm.c   **** 
 123:movi_comm.c   ****     m->status.valid     = false;
 573              		.loc 1 123 0
 574 0040 7B68     		ldr	r3, [r7, #4]
 575 0042 0022     		movs	r2, #0
 576 0044 1A77     		strb	r2, [r3, #28]
 124:movi_comm.c   ****     m->status.gps_valid = false;
 577              		.loc 1 124 0
 578 0046 7B68     		ldr	r3, [r7, #4]
 579 0048 0022     		movs	r2, #0
 580 004a 83F83A20 		strb	r2, [r3, #58]
 125:movi_comm.c   ****     m->gps_poll_ms      = 0u;
 581              		.loc 1 125 0
 582 004e 7B68     		ldr	r3, [r7, #4]
 583 0050 0022     		movs	r2, #0
 584 0052 C3F87C21 		str	r2, [r3, #380]
 126:movi_comm.c   **** 
 127:movi_comm.c   ****     /* Initializes QX client and default API fields */
 128:movi_comm.c   ****     FreeflyAPI.begin();
 585              		.loc 1 128 0
 586 0056 044B     		ldr	r3, .L27
 587 0058 1B68     		ldr	r3, [r3]
 588 005a 9847     		blx	r3
 589 005c 00E0     		b	.L22
 590              	.L26:
 117:movi_comm.c   **** 
 591              		.loc 1 117 0
 592 005e 00BF     		nop
 593              	.L22:
 129:movi_comm.c   ****     /* No second QX_InitCli — we parse GPS inline from RxMsg in pump() */
 130:movi_comm.c   **** }
 594              		.loc 1 130 0
 595 0060 0837     		adds	r7, r7, #8
 596              		.cfi_def_cfa_offset 8
 597 0062 BD46     		mov	sp, r7
 598              		.cfi_def_cfa_register 13
 599              		@ sp needed
 600 0064 80BD     		pop	{r7, pc}
 601              	.L28:
 602 0066 00BF     		.align	2
 603              	.L27:
 604 0068 00000000 		.word	FreeflyAPI
 605              		.cfi_endproc
 606              	.LFE4:
 607              		.size	movi_comm_init, .-movi_comm_init
ARM GAS  C:\Users\JENNEW~1\AppData\Local\Temp\ccGi2R4N.s 			page 14


 608              		.section	.text.movi_comm_reset,"ax",%progbits
 609              		.align	2
 610              		.global	movi_comm_reset
 611              		.thumb
 612              		.thumb_func
 613              		.type	movi_comm_reset, %function
 614              	movi_comm_reset:
 615              	.LFB5:
 131:movi_comm.c   **** 
 132:movi_comm.c   **** void movi_comm_reset(movi_comm_t* m)
 133:movi_comm.c   **** {
 616              		.loc 1 133 0
 617              		.cfi_startproc
 618              		@ args = 0, pretend = 0, frame = 8
 619              		@ frame_needed = 1, uses_anonymous_args = 0
 620 0000 80B5     		push	{r7, lr}
 621              		.cfi_def_cfa_offset 8
 622              		.cfi_offset 7, -8
 623              		.cfi_offset 14, -4
 624 0002 82B0     		sub	sp, sp, #8
 625              		.cfi_def_cfa_offset 16
 626 0004 00AF     		add	r7, sp, #0
 627              		.cfi_def_cfa_register 7
 628 0006 7860     		str	r0, [r7, #4]
 134:movi_comm.c   ****     if (!m) return;
 629              		.loc 1 134 0
 630 0008 7B68     		ldr	r3, [r7, #4]
 631 000a 002B     		cmp	r3, #0
 632 000c 0FD0     		beq	.L32
 135:movi_comm.c   **** 
 136:movi_comm.c   ****     movi_rb_clear(&m->rb);
 633              		.loc 1 136 0
 634 000e 7B68     		ldr	r3, [r7, #4]
 635 0010 7433     		adds	r3, r3, #116
 636 0012 1846     		mov	r0, r3
 637 0014 FFF7FEFF 		bl	movi_rb_clear
 137:movi_comm.c   ****     memset(&m->statistics, 0, sizeof(m->statistics));
 638              		.loc 1 137 0
 639 0018 7B68     		ldr	r3, [r7, #4]
 640 001a 5C33     		adds	r3, r3, #92
 641 001c 1822     		movs	r2, #24
 642 001e 0021     		movs	r1, #0
 643 0020 1846     		mov	r0, r3
 644 0022 FFF7FEFF 		bl	memset
 138:movi_comm.c   ****     m->status.valid = false;
 645              		.loc 1 138 0
 646 0026 7B68     		ldr	r3, [r7, #4]
 647 0028 0022     		movs	r2, #0
 648 002a 1A77     		strb	r2, [r3, #28]
 649 002c 00E0     		b	.L29
 650              	.L32:
 134:movi_comm.c   **** 
 651              		.loc 1 134 0
 652 002e 00BF     		nop
 653              	.L29:
 139:movi_comm.c   **** }
 654              		.loc 1 139 0
ARM GAS  C:\Users\JENNEW~1\AppData\Local\Temp\ccGi2R4N.s 			page 15


 655 0030 0837     		adds	r7, r7, #8
 656              		.cfi_def_cfa_offset 8
 657 0032 BD46     		mov	sp, r7
 658              		.cfi_def_cfa_register 13
 659              		@ sp needed
 660 0034 80BD     		pop	{r7, pc}
 661              		.cfi_endproc
 662              	.LFE5:
 663              		.size	movi_comm_reset, .-movi_comm_reset
 664 0036 00BF     		.section	.text.movi_comm_clear_statistics,"ax",%progbits
 665              		.align	2
 666              		.global	movi_comm_clear_statistics
 667              		.thumb
 668              		.thumb_func
 669              		.type	movi_comm_clear_statistics, %function
 670              	movi_comm_clear_statistics:
 671              	.LFB6:
 140:movi_comm.c   **** 
 141:movi_comm.c   **** void movi_comm_clear_statistics(movi_comm_t* m)
 142:movi_comm.c   **** {
 672              		.loc 1 142 0
 673              		.cfi_startproc
 674              		@ args = 0, pretend = 0, frame = 8
 675              		@ frame_needed = 1, uses_anonymous_args = 0
 676 0000 80B5     		push	{r7, lr}
 677              		.cfi_def_cfa_offset 8
 678              		.cfi_offset 7, -8
 679              		.cfi_offset 14, -4
 680 0002 82B0     		sub	sp, sp, #8
 681              		.cfi_def_cfa_offset 16
 682 0004 00AF     		add	r7, sp, #0
 683              		.cfi_def_cfa_register 7
 684 0006 7860     		str	r0, [r7, #4]
 143:movi_comm.c   ****     if (!m) return;
 685              		.loc 1 143 0
 686 0008 7B68     		ldr	r3, [r7, #4]
 687 000a 002B     		cmp	r3, #0
 688 000c 07D0     		beq	.L36
 144:movi_comm.c   ****     memset(&m->statistics, 0, sizeof(m->statistics));
 689              		.loc 1 144 0
 690 000e 7B68     		ldr	r3, [r7, #4]
 691 0010 5C33     		adds	r3, r3, #92
 692 0012 1822     		movs	r2, #24
 693 0014 0021     		movs	r1, #0
 694 0016 1846     		mov	r0, r3
 695 0018 FFF7FEFF 		bl	memset
 696 001c 00E0     		b	.L33
 697              	.L36:
 143:movi_comm.c   ****     if (!m) return;
 698              		.loc 1 143 0
 699 001e 00BF     		nop
 700              	.L33:
 145:movi_comm.c   **** }
 701              		.loc 1 145 0
 702 0020 0837     		adds	r7, r7, #8
 703              		.cfi_def_cfa_offset 8
 704 0022 BD46     		mov	sp, r7
ARM GAS  C:\Users\JENNEW~1\AppData\Local\Temp\ccGi2R4N.s 			page 16


 705              		.cfi_def_cfa_register 13
 706              		@ sp needed
 707 0024 80BD     		pop	{r7, pc}
 708              		.cfi_endproc
 709              	.LFE6:
 710              		.size	movi_comm_clear_statistics, .-movi_comm_clear_statistics
 711 0026 00BF     		.section	.text.movi_comm_on_uart_error_flags,"ax",%progbits
 712              		.align	2
 713              		.global	movi_comm_on_uart_error_flags
 714              		.thumb
 715              		.thumb_func
 716              		.type	movi_comm_on_uart_error_flags, %function
 717              	movi_comm_on_uart_error_flags:
 718              	.LFB7:
 146:movi_comm.c   **** 
 147:movi_comm.c   **** void movi_comm_on_uart_error_flags(movi_comm_t* m, uint8_t err_mask)
 148:movi_comm.c   **** {
 719              		.loc 1 148 0
 720              		.cfi_startproc
 721              		@ args = 0, pretend = 0, frame = 8
 722              		@ frame_needed = 1, uses_anonymous_args = 0
 723              		@ link register save eliminated.
 724 0000 80B4     		push	{r7}
 725              		.cfi_def_cfa_offset 4
 726              		.cfi_offset 7, -4
 727 0002 83B0     		sub	sp, sp, #12
 728              		.cfi_def_cfa_offset 16
 729 0004 00AF     		add	r7, sp, #0
 730              		.cfi_def_cfa_register 7
 731 0006 7860     		str	r0, [r7, #4]
 732 0008 0B46     		mov	r3, r1
 733 000a FB70     		strb	r3, [r7, #3]
 149:movi_comm.c   ****     if (!m) return;
 734              		.loc 1 149 0
 735 000c 7B68     		ldr	r3, [r7, #4]
 736 000e 002B     		cmp	r3, #0
 737 0010 09D0     		beq	.L40
 150:movi_comm.c   ****     m->statistics.uart_err_flags |= err_mask;
 738              		.loc 1 150 0
 739 0012 7B68     		ldr	r3, [r7, #4]
 740 0014 93F87220 		ldrb	r2, [r3, #114]	@ zero_extendqisi2
 741 0018 FB78     		ldrb	r3, [r7, #3]
 742 001a 1343     		orrs	r3, r3, r2
 743 001c DAB2     		uxtb	r2, r3
 744 001e 7B68     		ldr	r3, [r7, #4]
 745 0020 83F87220 		strb	r2, [r3, #114]
 746 0024 00E0     		b	.L37
 747              	.L40:
 149:movi_comm.c   ****     if (!m) return;
 748              		.loc 1 149 0
 749 0026 00BF     		nop
 750              	.L37:
 151:movi_comm.c   **** }
 751              		.loc 1 151 0
 752 0028 0C37     		adds	r7, r7, #12
 753              		.cfi_def_cfa_offset 4
 754 002a BD46     		mov	sp, r7
ARM GAS  C:\Users\JENNEW~1\AppData\Local\Temp\ccGi2R4N.s 			page 17


 755              		.cfi_def_cfa_register 13
 756              		@ sp needed
 757 002c 80BC     		pop	{r7}
 758              		.cfi_restore 7
 759              		.cfi_def_cfa_offset 0
 760 002e 7047     		bx	lr
 761              		.cfi_endproc
 762              	.LFE7:
 763              		.size	movi_comm_on_uart_error_flags, .-movi_comm_on_uart_error_flags
 764              		.section	.text.movi_comm_on_rx_byte,"ax",%progbits
 765              		.align	2
 766              		.global	movi_comm_on_rx_byte
 767              		.thumb
 768              		.thumb_func
 769              		.type	movi_comm_on_rx_byte, %function
 770              	movi_comm_on_rx_byte:
 771              	.LFB8:
 152:movi_comm.c   **** 
 153:movi_comm.c   **** void movi_comm_on_rx_byte(movi_comm_t* m, uint8_t b)
 154:movi_comm.c   **** {
 772              		.loc 1 154 0
 773              		.cfi_startproc
 774              		@ args = 0, pretend = 0, frame = 8
 775              		@ frame_needed = 1, uses_anonymous_args = 0
 776 0000 80B5     		push	{r7, lr}
 777              		.cfi_def_cfa_offset 8
 778              		.cfi_offset 7, -8
 779              		.cfi_offset 14, -4
 780 0002 82B0     		sub	sp, sp, #8
 781              		.cfi_def_cfa_offset 16
 782 0004 00AF     		add	r7, sp, #0
 783              		.cfi_def_cfa_register 7
 784 0006 7860     		str	r0, [r7, #4]
 785 0008 0B46     		mov	r3, r1
 786 000a FB70     		strb	r3, [r7, #3]
 155:movi_comm.c   ****     if (!m) return;
 787              		.loc 1 155 0
 788 000c 7B68     		ldr	r3, [r7, #4]
 789 000e 002B     		cmp	r3, #0
 790 0010 0ED0     		beq	.L44
 156:movi_comm.c   **** 
 157:movi_comm.c   ****     (void)movi_rb_push(&m->rb, b);
 791              		.loc 1 157 0
 792 0012 7B68     		ldr	r3, [r7, #4]
 793 0014 7433     		adds	r3, r3, #116
 794 0016 FA78     		ldrb	r2, [r7, #3]	@ zero_extendqisi2
 795 0018 1146     		mov	r1, r2
 796 001a 1846     		mov	r0, r3
 797 001c FFF7FEFF 		bl	movi_rb_push
 158:movi_comm.c   ****     m->statistics.rb_drops = m->rb.drops;
 798              		.loc 1 158 0
 799 0020 7B68     		ldr	r3, [r7, #4]
 800 0022 B3F87831 		ldrh	r3, [r3, #376]	@ movhi
 801 0026 9AB2     		uxth	r2, r3
 802 0028 7B68     		ldr	r3, [r7, #4]
 803 002a A3F87020 		strh	r2, [r3, #112]	@ movhi
 804 002e 00E0     		b	.L41
ARM GAS  C:\Users\JENNEW~1\AppData\Local\Temp\ccGi2R4N.s 			page 18


 805              	.L44:
 155:movi_comm.c   ****     if (!m) return;
 806              		.loc 1 155 0
 807 0030 00BF     		nop
 808              	.L41:
 159:movi_comm.c   **** }
 809              		.loc 1 159 0
 810 0032 0837     		adds	r7, r7, #8
 811              		.cfi_def_cfa_offset 8
 812 0034 BD46     		mov	sp, r7
 813              		.cfi_def_cfa_register 13
 814              		@ sp needed
 815 0036 80BD     		pop	{r7, pc}
 816              		.cfi_endproc
 817              	.LFE8:
 818              		.size	movi_comm_on_rx_byte, .-movi_comm_on_rx_byte
 819              		.section	.text.movi_comm_pump,"ax",%progbits
 820              		.align	2
 821              		.global	movi_comm_pump
 822              		.thumb
 823              		.thumb_func
 824              		.type	movi_comm_pump, %function
 825              	movi_comm_pump:
 826              	.LFB9:
 160:movi_comm.c   **** 
 161:movi_comm.c   **** void movi_comm_pump(movi_comm_t* m)
 162:movi_comm.c   **** {
 827              		.loc 1 162 0
 828              		.cfi_startproc
 829              		@ args = 0, pretend = 0, frame = 40
 830              		@ frame_needed = 1, uses_anonymous_args = 0
 831 0000 80B5     		push	{r7, lr}
 832              		.cfi_def_cfa_offset 8
 833              		.cfi_offset 7, -8
 834              		.cfi_offset 14, -4
 835 0002 8CB0     		sub	sp, sp, #48
 836              		.cfi_def_cfa_offset 56
 837 0004 02AF     		add	r7, sp, #8
 838              		.cfi_def_cfa 7, 48
 839 0006 7860     		str	r0, [r7, #4]
 163:movi_comm.c   ****     if (!m) return;
 840              		.loc 1 163 0
 841 0008 7B68     		ldr	r3, [r7, #4]
 842 000a 002B     		cmp	r3, #0
 843 000c 7AD0     		beq	.L54
 164:movi_comm.c   **** 
 165:movi_comm.c   ****     uint8_t b;
 166:movi_comm.c   **** 
 167:movi_comm.c   ****     /* Track checksum fails using QX port counter */
 168:movi_comm.c   ****     uint32_t chkfail_before = QX_CommsPorts[MOVI_QX_PORT].ChkSumFail_cnt;
 844              		.loc 1 168 0
 845 000e 3F4B     		ldr	r3, .L55
 846 0010 D3F88030 		ldr	r3, [r3, #128]
 847 0014 7B62     		str	r3, [r7, #36]
 169:movi_comm.c   **** 
 170:movi_comm.c   ****     while (movi_rb_pop(&m->rb, &b)) {
 848              		.loc 1 170 0
ARM GAS  C:\Users\JENNEW~1\AppData\Local\Temp\ccGi2R4N.s 			page 19


 849 0016 1DE0     		b	.L48
 850              	.L49:
 851              	.LBB2:
 171:movi_comm.c   ****         m->statistics.rx_bytes++;
 852              		.loc 1 171 0
 853 0018 7B68     		ldr	r3, [r7, #4]
 854 001a DB6E     		ldr	r3, [r3, #108]
 855 001c 5A1C     		adds	r2, r3, #1
 856 001e 7B68     		ldr	r3, [r7, #4]
 857 0020 DA66     		str	r2, [r3, #108]
 172:movi_comm.c   **** 
 173:movi_comm.c   ****         int got_packet = QX_StreamRxCharSM(MOVI_QX_PORT, (unsigned char)b);
 858              		.loc 1 173 0
 859 0022 FB7D     		ldrb	r3, [r7, #23]	@ zero_extendqisi2
 860 0024 1946     		mov	r1, r3
 861 0026 0020     		movs	r0, #0
 862 0028 FFF7FEFF 		bl	QX_StreamRxCharSM
 863 002c 0346     		mov	r3, r0
 864 002e 3B62     		str	r3, [r7, #32]
 174:movi_comm.c   ****         if (got_packet) {
 865              		.loc 1 174 0
 866 0030 3B6A     		ldr	r3, [r7, #32]
 867 0032 002B     		cmp	r3, #0
 868 0034 0ED0     		beq	.L48
 175:movi_comm.c   ****             m->statistics.rx_packets++;
 869              		.loc 1 175 0
 870 0036 7B68     		ldr	r3, [r7, #4]
 871 0038 5B6E     		ldr	r3, [r3, #100]
 872 003a 5A1C     		adds	r2, r3, #1
 873 003c 7B68     		ldr	r3, [r7, #4]
 874 003e 5A66     		str	r2, [r3, #100]
 176:movi_comm.c   ****             /* Always sync attitude/battery from FreeflyAPI */
 177:movi_comm.c   ****             copy_status_from_freefly(&m->status);
 875              		.loc 1 177 0
 876 0040 7B68     		ldr	r3, [r7, #4]
 877 0042 1C33     		adds	r3, r3, #28
 878 0044 1846     		mov	r0, r3
 879 0046 FFF7FEFF 		bl	copy_status_from_freefly
 178:movi_comm.c   ****             /* Also check if this packet carries GPS (attribute 4) */
 179:movi_comm.c   ****             parse_gps_from_rxmsg(&m->status);
 880              		.loc 1 179 0
 881 004a 7B68     		ldr	r3, [r7, #4]
 882 004c 1C33     		adds	r3, r3, #28
 883 004e 1846     		mov	r0, r3
 884 0050 FFF7FEFF 		bl	parse_gps_from_rxmsg
 885              	.L48:
 886              	.LBE2:
 170:movi_comm.c   ****         m->statistics.rx_bytes++;
 887              		.loc 1 170 0
 888 0054 7B68     		ldr	r3, [r7, #4]
 889 0056 7433     		adds	r3, r3, #116
 890 0058 07F11702 		add	r2, r7, #23
 891 005c 1146     		mov	r1, r2
 892 005e 1846     		mov	r0, r3
 893 0060 FFF7FEFF 		bl	movi_rb_pop
 894 0064 0346     		mov	r3, r0
 895 0066 002B     		cmp	r3, #0
ARM GAS  C:\Users\JENNEW~1\AppData\Local\Temp\ccGi2R4N.s 			page 20


 896 0068 D6D1     		bne	.L49
 180:movi_comm.c   ****         }
 181:movi_comm.c   ****     }
 182:movi_comm.c   **** 
 183:movi_comm.c   ****     uint32_t chkfail_after = QX_CommsPorts[MOVI_QX_PORT].ChkSumFail_cnt;
 897              		.loc 1 183 0
 898 006a 284B     		ldr	r3, .L55
 899 006c D3F88030 		ldr	r3, [r3, #128]
 900 0070 FB61     		str	r3, [r7, #28]
 184:movi_comm.c   ****     if (chkfail_after > chkfail_before) {
 901              		.loc 1 184 0
 902 0072 FA69     		ldr	r2, [r7, #28]
 903 0074 7B6A     		ldr	r3, [r7, #36]
 904 0076 9A42     		cmp	r2, r3
 905 0078 07D9     		bls	.L50
 185:movi_comm.c   ****         m->statistics.rx_bad_checksum += (chkfail_after - chkfail_before);
 906              		.loc 1 185 0
 907 007a 7B68     		ldr	r3, [r7, #4]
 908 007c 9A6E     		ldr	r2, [r3, #104]
 909 007e F969     		ldr	r1, [r7, #28]
 910 0080 7B6A     		ldr	r3, [r7, #36]
 911 0082 CB1A     		subs	r3, r1, r3
 912 0084 1A44     		add	r2, r2, r3
 913 0086 7B68     		ldr	r3, [r7, #4]
 914 0088 9A66     		str	r2, [r3, #104]
 915              	.L50:
 186:movi_comm.c   ****     }
 187:movi_comm.c   **** 
 188:movi_comm.c   ****     m->statistics.rb_drops = m->rb.drops;
 916              		.loc 1 188 0
 917 008a 7B68     		ldr	r3, [r7, #4]
 918 008c B3F87831 		ldrh	r3, [r3, #376]	@ movhi
 919 0090 9AB2     		uxth	r2, r3
 920 0092 7B68     		ldr	r3, [r7, #4]
 921 0094 A3F87020 		strh	r2, [r3, #112]	@ movhi
 189:movi_comm.c   **** 
 190:movi_comm.c   ****     /* ------------------------------------------------------------------ *
 191:movi_comm.c   ****      * GPS poll — send a QX read request for attribute 4 at 5 Hz.         *
 192:movi_comm.c   ****      * Uses QX_Clients[0] which FreeflyAPI.begin() already registered.    *
 193:movi_comm.c   ****      * Drain the send buffer immediately so bytes don't mix with the next  *
 194:movi_comm.c   ****      * control packet.                                                     *
 195:movi_comm.c   ****      * ------------------------------------------------------------------ */
 196:movi_comm.c   ****     uint32_t now = QX_GetTicks_ms();
 922              		.loc 1 196 0
 923 0098 FFF7FEFF 		bl	QX_GetTicks_ms
 924 009c B861     		str	r0, [r7, #24]
 197:movi_comm.c   ****     if ((now - m->gps_poll_ms) >= GPS_POLL_PERIOD_MS) {
 925              		.loc 1 197 0
 926 009e 7B68     		ldr	r3, [r7, #4]
 927 00a0 D3F87C31 		ldr	r3, [r3, #380]
 928 00a4 BA69     		ldr	r2, [r7, #24]
 929 00a6 D31A     		subs	r3, r2, r3
 930 00a8 C72B     		cmp	r3, #199
 931 00aa 2CD9     		bls	.L45
 932              	.LBB3:
 198:movi_comm.c   ****         m->gps_poll_ms = now;
 933              		.loc 1 198 0
ARM GAS  C:\Users\JENNEW~1\AppData\Local\Temp\ccGi2R4N.s 			page 21


 934 00ac 7B68     		ldr	r3, [r7, #4]
 935 00ae BA69     		ldr	r2, [r7, #24]
 936 00b0 C3F87C21 		str	r2, [r3, #380]
 199:movi_comm.c   **** 
 200:movi_comm.c   ****         QX_TxMsgOptions_t opts;
 201:movi_comm.c   ****         QX_InitTxOptions(&opts);
 937              		.loc 1 201 0
 938 00b4 07F11003 		add	r3, r7, #16
 939 00b8 1846     		mov	r0, r3
 940 00ba FFF7FEFF 		bl	QX_InitTxOptions
 202:movi_comm.c   ****         opts.Target_Addr = QX_DEV_ID_GIMBAL;
 941              		.loc 1 202 0
 942 00be 0223     		movs	r3, #2
 943 00c0 3B75     		strb	r3, [r7, #20]
 203:movi_comm.c   **** 
 204:movi_comm.c   ****         QX_SendPacket_Cli_Read(&QX_Clients[0], 4u, MOVI_QX_PORT, opts);
 944              		.loc 1 204 0
 945 00c2 6B46     		mov	r3, sp
 946 00c4 07F11402 		add	r2, r7, #20
 947 00c8 1268     		ldr	r2, [r2]
 948 00ca 1146     		mov	r1, r2	@ movhi
 949 00cc 1980     		strh	r1, [r3]	@ movhi
 950 00ce 0233     		adds	r3, r3, #2
 951 00d0 120C     		lsrs	r2, r2, #16
 952 00d2 1A70     		strb	r2, [r3]
 953 00d4 3B69     		ldr	r3, [r7, #16]
 954 00d6 0022     		movs	r2, #0
 955 00d8 0421     		movs	r1, #4
 956 00da 0D48     		ldr	r0, .L55+4
 957 00dc FFF7FEFF 		bl	QX_SendPacket_Cli_Read
 205:movi_comm.c   **** 
 206:movi_comm.c   ****         uint8_t byte;
 207:movi_comm.c   ****         while (BufRemove(SEND_BUF_IDX, (volatile uint8_t*)&byte) != 0) {
 958              		.loc 1 207 0
 959 00e0 06E0     		b	.L52
 960              	.L53:
 208:movi_comm.c   ****             m->hal.uart_putc(m->hal.ctx, byte);
 961              		.loc 1 208 0
 962 00e2 7B68     		ldr	r3, [r7, #4]
 963 00e4 5B68     		ldr	r3, [r3, #4]
 964 00e6 7A68     		ldr	r2, [r7, #4]
 965 00e8 1268     		ldr	r2, [r2]
 966 00ea F97B     		ldrb	r1, [r7, #15]	@ zero_extendqisi2
 967 00ec 1046     		mov	r0, r2
 968 00ee 9847     		blx	r3
 969              	.L52:
 207:movi_comm.c   ****             m->hal.uart_putc(m->hal.ctx, byte);
 970              		.loc 1 207 0
 971 00f0 07F10F03 		add	r3, r7, #15
 972 00f4 1946     		mov	r1, r3
 973 00f6 0120     		movs	r0, #1
 974 00f8 FFF7FEFF 		bl	BufRemove
 975 00fc 0346     		mov	r3, r0
 976 00fe 002B     		cmp	r3, #0
 977 0100 EFD1     		bne	.L53
 978 0102 00E0     		b	.L45
 979              	.L54:
ARM GAS  C:\Users\JENNEW~1\AppData\Local\Temp\ccGi2R4N.s 			page 22


 980              	.LBE3:
 163:movi_comm.c   **** 
 981              		.loc 1 163 0
 982 0104 00BF     		nop
 983              	.L45:
 209:movi_comm.c   ****         }
 210:movi_comm.c   ****     }
 211:movi_comm.c   **** }
 984              		.loc 1 211 0
 985 0106 2837     		adds	r7, r7, #40
 986              		.cfi_def_cfa_offset 8
 987 0108 BD46     		mov	sp, r7
 988              		.cfi_def_cfa_register 13
 989              		@ sp needed
 990 010a 80BD     		pop	{r7, pc}
 991              	.L56:
 992              		.align	2
 993              	.L55:
 994 010c 00000000 		.word	QX_CommsPorts
 995 0110 00000000 		.word	QX_Clients
 996              		.cfi_endproc
 997              	.LFE9:
 998              		.size	movi_comm_pump, .-movi_comm_pump
 999              		.section	.text.movi_comm_set_control,"ax",%progbits
 1000              		.align	2
 1001              		.global	movi_comm_set_control
 1002              		.thumb
 1003              		.thumb_func
 1004              		.type	movi_comm_set_control, %function
 1005              	movi_comm_set_control:
 1006              	.LFB10:
 212:movi_comm.c   **** 
 213:movi_comm.c   **** void movi_comm_set_control(movi_comm_t* m, const movi_control_t* ctl)
 214:movi_comm.c   **** {
 1007              		.loc 1 214 0
 1008              		.cfi_startproc
 1009              		@ args = 0, pretend = 0, frame = 8
 1010              		@ frame_needed = 1, uses_anonymous_args = 0
 1011              		@ link register save eliminated.
 1012 0000 B0B4     		push	{r4, r5, r7}
 1013              		.cfi_def_cfa_offset 12
 1014              		.cfi_offset 4, -12
 1015              		.cfi_offset 5, -8
 1016              		.cfi_offset 7, -4
 1017 0002 83B0     		sub	sp, sp, #12
 1018              		.cfi_def_cfa_offset 24
 1019 0004 00AF     		add	r7, sp, #0
 1020              		.cfi_def_cfa_register 7
 1021 0006 7860     		str	r0, [r7, #4]
 1022 0008 3960     		str	r1, [r7]
 215:movi_comm.c   ****     if (!m || !ctl) return;
 1023              		.loc 1 215 0
 1024 000a 7B68     		ldr	r3, [r7, #4]
 1025 000c 002B     		cmp	r3, #0
 1026 000e 0CD0     		beq	.L61
 1027              		.loc 1 215 0 is_stmt 0 discriminator 1
 1028 0010 3B68     		ldr	r3, [r7]
ARM GAS  C:\Users\JENNEW~1\AppData\Local\Temp\ccGi2R4N.s 			page 23


 1029 0012 002B     		cmp	r3, #0
 1030 0014 09D0     		beq	.L61
 216:movi_comm.c   ****     m->ctl = *ctl;
 1031              		.loc 1 216 0 is_stmt 1
 1032 0016 7B68     		ldr	r3, [r7, #4]
 1033 0018 3A68     		ldr	r2, [r7]
 1034 001a 03F10804 		add	r4, r3, #8
 1035 001e 1546     		mov	r5, r2
 1036 0020 0FCD     		ldmia	r5!, {r0, r1, r2, r3}
 1037 0022 0FC4     		stmia	r4!, {r0, r1, r2, r3}
 1038 0024 2B68     		ldr	r3, [r5]
 1039 0026 2360     		str	r3, [r4]
 1040 0028 00E0     		b	.L57
 1041              	.L61:
 215:movi_comm.c   ****     if (!m || !ctl) return;
 1042              		.loc 1 215 0
 1043 002a 00BF     		nop
 1044              	.L57:
 217:movi_comm.c   **** }
 1045              		.loc 1 217 0
 1046 002c 0C37     		adds	r7, r7, #12
 1047              		.cfi_def_cfa_offset 12
 1048 002e BD46     		mov	sp, r7
 1049              		.cfi_def_cfa_register 13
 1050              		@ sp needed
 1051 0030 B0BC     		pop	{r4, r5, r7}
 1052              		.cfi_restore 7
 1053              		.cfi_restore 5
 1054              		.cfi_restore 4
 1055              		.cfi_def_cfa_offset 0
 1056 0032 7047     		bx	lr
 1057              		.cfi_endproc
 1058              	.LFE10:
 1059              		.size	movi_comm_set_control, .-movi_comm_set_control
 1060              		.section	.text.movi_comm_get_control,"ax",%progbits
 1061              		.align	2
 1062              		.global	movi_comm_get_control
 1063              		.thumb
 1064              		.thumb_func
 1065              		.type	movi_comm_get_control, %function
 1066              	movi_comm_get_control:
 1067              	.LFB11:
 218:movi_comm.c   **** 
 219:movi_comm.c   **** void movi_comm_get_control(movi_comm_t* m, movi_control_t* out)
 220:movi_comm.c   **** {
 1068              		.loc 1 220 0
 1069              		.cfi_startproc
 1070              		@ args = 0, pretend = 0, frame = 8
 1071              		@ frame_needed = 1, uses_anonymous_args = 0
 1072              		@ link register save eliminated.
 1073 0000 B0B4     		push	{r4, r5, r7}
 1074              		.cfi_def_cfa_offset 12
 1075              		.cfi_offset 4, -12
 1076              		.cfi_offset 5, -8
 1077              		.cfi_offset 7, -4
 1078 0002 83B0     		sub	sp, sp, #12
 1079              		.cfi_def_cfa_offset 24
ARM GAS  C:\Users\JENNEW~1\AppData\Local\Temp\ccGi2R4N.s 			page 24


 1080 0004 00AF     		add	r7, sp, #0
 1081              		.cfi_def_cfa_register 7
 1082 0006 7860     		str	r0, [r7, #4]
 1083 0008 3960     		str	r1, [r7]
 221:movi_comm.c   ****     if (!m || !out) return;
 1084              		.loc 1 221 0
 1085 000a 7B68     		ldr	r3, [r7, #4]
 1086 000c 002B     		cmp	r3, #0
 1087 000e 0CD0     		beq	.L66
 1088              		.loc 1 221 0 is_stmt 0 discriminator 1
 1089 0010 3B68     		ldr	r3, [r7]
 1090 0012 002B     		cmp	r3, #0
 1091 0014 09D0     		beq	.L66
 222:movi_comm.c   ****     *out = m->ctl;
 1092              		.loc 1 222 0 is_stmt 1
 1093 0016 3A68     		ldr	r2, [r7]
 1094 0018 7B68     		ldr	r3, [r7, #4]
 1095 001a 1546     		mov	r5, r2
 1096 001c 03F10804 		add	r4, r3, #8
 1097 0020 0FCC     		ldmia	r4!, {r0, r1, r2, r3}
 1098 0022 0FC5     		stmia	r5!, {r0, r1, r2, r3}
 1099 0024 2368     		ldr	r3, [r4]
 1100 0026 2B60     		str	r3, [r5]
 1101 0028 00E0     		b	.L62
 1102              	.L66:
 221:movi_comm.c   ****     if (!m || !out) return;
 1103              		.loc 1 221 0
 1104 002a 00BF     		nop
 1105              	.L62:
 223:movi_comm.c   **** }
 1106              		.loc 1 223 0
 1107 002c 0C37     		adds	r7, r7, #12
 1108              		.cfi_def_cfa_offset 12
 1109 002e BD46     		mov	sp, r7
 1110              		.cfi_def_cfa_register 13
 1111              		@ sp needed
 1112 0030 B0BC     		pop	{r4, r5, r7}
 1113              		.cfi_restore 7
 1114              		.cfi_restore 5
 1115              		.cfi_restore 4
 1116              		.cfi_def_cfa_offset 0
 1117 0032 7047     		bx	lr
 1118              		.cfi_endproc
 1119              	.LFE11:
 1120              		.size	movi_comm_get_control, .-movi_comm_get_control
 1121              		.section	.text.movi_comm_kill,"ax",%progbits
 1122              		.align	2
 1123              		.global	movi_comm_kill
 1124              		.thumb
 1125              		.thumb_func
 1126              		.type	movi_comm_kill, %function
 1127              	movi_comm_kill:
 1128              	.LFB12:
 224:movi_comm.c   **** 
 225:movi_comm.c   **** void movi_comm_kill(movi_comm_t* m)
 226:movi_comm.c   **** {
 1129              		.loc 1 226 0
ARM GAS  C:\Users\JENNEW~1\AppData\Local\Temp\ccGi2R4N.s 			page 25


 1130              		.cfi_startproc
 1131              		@ args = 0, pretend = 0, frame = 8
 1132              		@ frame_needed = 1, uses_anonymous_args = 0
 1133 0000 80B5     		push	{r7, lr}
 1134              		.cfi_def_cfa_offset 8
 1135              		.cfi_offset 7, -8
 1136              		.cfi_offset 14, -4
 1137 0002 82B0     		sub	sp, sp, #8
 1138              		.cfi_def_cfa_offset 16
 1139 0004 00AF     		add	r7, sp, #0
 1140              		.cfi_def_cfa_register 7
 1141 0006 7860     		str	r0, [r7, #4]
 227:movi_comm.c   ****     if (!m) return;
 1142              		.loc 1 227 0
 1143 0008 7B68     		ldr	r3, [r7, #4]
 1144 000a 002B     		cmp	r3, #0
 1145 000c 09D0     		beq	.L70
 228:movi_comm.c   ****     m->ctl.kill = 1u;
 1146              		.loc 1 228 0
 1147 000e 7B68     		ldr	r3, [r7, #4]
 1148 0010 0122     		movs	r2, #1
 1149 0012 1A76     		strb	r2, [r3, #24]
 229:movi_comm.c   ****     (void)movi_comm_send_control(m);
 1150              		.loc 1 229 0
 1151 0014 7868     		ldr	r0, [r7, #4]
 1152 0016 FFF7FEFF 		bl	movi_comm_send_control
 230:movi_comm.c   ****     m->ctl.kill = 0u;
 1153              		.loc 1 230 0
 1154 001a 7B68     		ldr	r3, [r7, #4]
 1155 001c 0022     		movs	r2, #0
 1156 001e 1A76     		strb	r2, [r3, #24]
 1157 0020 00E0     		b	.L67
 1158              	.L70:
 227:movi_comm.c   ****     m->ctl.kill = 1u;
 1159              		.loc 1 227 0
 1160 0022 00BF     		nop
 1161              	.L67:
 231:movi_comm.c   **** }
 1162              		.loc 1 231 0
 1163 0024 0837     		adds	r7, r7, #8
 1164              		.cfi_def_cfa_offset 8
 1165 0026 BD46     		mov	sp, r7
 1166              		.cfi_def_cfa_register 13
 1167              		@ sp needed
 1168 0028 80BD     		pop	{r7, pc}
 1169              		.cfi_endproc
 1170              	.LFE12:
 1171              		.size	movi_comm_kill, .-movi_comm_kill
 1172 002a 00BF     		.section	.text.movi_comm_build_control_frame,"ax",%progbits
 1173              		.align	2
 1174              		.global	movi_comm_build_control_frame
 1175              		.thumb
 1176              		.thumb_func
 1177              		.type	movi_comm_build_control_frame, %function
 1178              	movi_comm_build_control_frame:
 1179              	.LFB13:
 232:movi_comm.c   **** 
ARM GAS  C:\Users\JENNEW~1\AppData\Local\Temp\ccGi2R4N.s 			page 26


 233:movi_comm.c   **** /* Not meaningful in the Freefly “send() then drain queue” architecture */
 234:movi_comm.c   **** movi_result_t movi_comm_build_control_frame(movi_comm_t* m,
 235:movi_comm.c   ****                                            uint8_t* out, uint16_t out_max, uint16_t* out_len)
 236:movi_comm.c   **** {
 1180              		.loc 1 236 0
 1181              		.cfi_startproc
 1182              		@ args = 0, pretend = 0, frame = 16
 1183              		@ frame_needed = 1, uses_anonymous_args = 0
 1184              		@ link register save eliminated.
 1185 0000 80B4     		push	{r7}
 1186              		.cfi_def_cfa_offset 4
 1187              		.cfi_offset 7, -4
 1188 0002 85B0     		sub	sp, sp, #20
 1189              		.cfi_def_cfa_offset 24
 1190 0004 00AF     		add	r7, sp, #0
 1191              		.cfi_def_cfa_register 7
 1192 0006 F860     		str	r0, [r7, #12]
 1193 0008 B960     		str	r1, [r7, #8]
 1194 000a 3B60     		str	r3, [r7]
 1195 000c 1346     		mov	r3, r2	@ movhi
 1196 000e FB80     		strh	r3, [r7, #6]	@ movhi
 237:movi_comm.c   ****     (void)m; (void)out; (void)out_max;
 238:movi_comm.c   ****     if (out_len) *out_len = 0u;
 1197              		.loc 1 238 0
 1198 0010 3B68     		ldr	r3, [r7]
 1199 0012 002B     		cmp	r3, #0
 1200 0014 02D0     		beq	.L72
 1201              		.loc 1 238 0 is_stmt 0 discriminator 1
 1202 0016 3B68     		ldr	r3, [r7]
 1203 0018 0022     		movs	r2, #0
 1204 001a 1A80     		strh	r2, [r3]	@ movhi
 1205              	.L72:
 239:movi_comm.c   ****     return MOVI_ERR_ENCODE;
 1206              		.loc 1 239 0 is_stmt 1
 1207 001c 0223     		movs	r3, #2
 240:movi_comm.c   **** }
 1208              		.loc 1 240 0
 1209 001e 1846     		mov	r0, r3
 1210 0020 1437     		adds	r7, r7, #20
 1211              		.cfi_def_cfa_offset 4
 1212 0022 BD46     		mov	sp, r7
 1213              		.cfi_def_cfa_register 13
 1214              		@ sp needed
 1215 0024 80BC     		pop	{r7}
 1216              		.cfi_restore 7
 1217              		.cfi_def_cfa_offset 0
 1218 0026 7047     		bx	lr
 1219              		.cfi_endproc
 1220              	.LFE13:
 1221              		.size	movi_comm_build_control_frame, .-movi_comm_build_control_frame
 1222              		.section	.text.movi_comm_send_control,"ax",%progbits
 1223              		.align	2
 1224              		.global	movi_comm_send_control
 1225              		.thumb
 1226              		.thumb_func
 1227              		.type	movi_comm_send_control, %function
 1228              	movi_comm_send_control:
ARM GAS  C:\Users\JENNEW~1\AppData\Local\Temp\ccGi2R4N.s 			page 27


 1229              	.LFB14:
 241:movi_comm.c   **** 
 242:movi_comm.c   **** movi_result_t movi_comm_send_control(movi_comm_t* m)
 243:movi_comm.c   **** {
 1230              		.loc 1 243 0
 1231              		.cfi_startproc
 1232              		@ args = 0, pretend = 0, frame = 16
 1233              		@ frame_needed = 1, uses_anonymous_args = 0
 1234 0000 80B5     		push	{r7, lr}
 1235              		.cfi_def_cfa_offset 8
 1236              		.cfi_offset 7, -8
 1237              		.cfi_offset 14, -4
 1238 0002 84B0     		sub	sp, sp, #16
 1239              		.cfi_def_cfa_offset 24
 1240 0004 00AF     		add	r7, sp, #0
 1241              		.cfi_def_cfa_register 7
 1242 0006 7860     		str	r0, [r7, #4]
 244:movi_comm.c   ****     if (!m || !m->hal.uart_putc) return MOVI_ERR_UART;
 1243              		.loc 1 244 0
 1244 0008 7B68     		ldr	r3, [r7, #4]
 1245 000a 002B     		cmp	r3, #0
 1246 000c 03D0     		beq	.L75
 1247              		.loc 1 244 0 is_stmt 0 discriminator 2
 1248 000e 7B68     		ldr	r3, [r7, #4]
 1249 0010 5B68     		ldr	r3, [r3, #4]
 1250 0012 002B     		cmp	r3, #0
 1251 0014 01D1     		bne	.L76
 1252              	.L75:
 1253              		.loc 1 244 0 discriminator 3
 1254 0016 0123     		movs	r3, #1
 1255 0018 30E0     		b	.L80
 1256              	.L76:
 245:movi_comm.c   **** 
 246:movi_comm.c   ****     load_freefly_control_from_movi(&m->ctl);
 1257              		.loc 1 246 0 is_stmt 1
 1258 001a 7B68     		ldr	r3, [r7, #4]
 1259 001c 0833     		adds	r3, r3, #8
 1260 001e 1846     		mov	r0, r3
 1261 0020 FFF7FEFF 		bl	load_freefly_control_from_movi
 247:movi_comm.c   **** 
 248:movi_comm.c   ****     /* Build/enqueue a QX277 control packet into SEND_BUF_IDX */
 249:movi_comm.c   ****     FreeflyAPI.send();
 1262              		.loc 1 249 0
 1263 0024 174B     		ldr	r3, .L81
 1264 0026 5B68     		ldr	r3, [r3, #4]
 1265 0028 9847     		blx	r3
 250:movi_comm.c   **** 
 251:movi_comm.c   ****     /* Drain the queued bytes and put them on the wire */
 252:movi_comm.c   ****     uint8_t byte;
 253:movi_comm.c   ****     uint32_t sent = 0;
 1266              		.loc 1 253 0
 1267 002a 0023     		movs	r3, #0
 1268 002c FB60     		str	r3, [r7, #12]
 254:movi_comm.c   **** 
 255:movi_comm.c   ****     while (BufRemove(SEND_BUF_IDX, (volatile uint8_t*)&byte) != 0) {
 1269              		.loc 1 255 0
 1270 002e 09E0     		b	.L78
ARM GAS  C:\Users\JENNEW~1\AppData\Local\Temp\ccGi2R4N.s 			page 28


 1271              	.L79:
 256:movi_comm.c   ****         m->hal.uart_putc(m->hal.ctx, byte);
 1272              		.loc 1 256 0
 1273 0030 7B68     		ldr	r3, [r7, #4]
 1274 0032 5B68     		ldr	r3, [r3, #4]
 1275 0034 7A68     		ldr	r2, [r7, #4]
 1276 0036 1268     		ldr	r2, [r2]
 1277 0038 F97A     		ldrb	r1, [r7, #11]	@ zero_extendqisi2
 1278 003a 1046     		mov	r0, r2
 1279 003c 9847     		blx	r3
 257:movi_comm.c   ****         sent++;
 1280              		.loc 1 257 0
 1281 003e FB68     		ldr	r3, [r7, #12]
 1282 0040 0133     		adds	r3, r3, #1
 1283 0042 FB60     		str	r3, [r7, #12]
 1284              	.L78:
 255:movi_comm.c   ****         m->hal.uart_putc(m->hal.ctx, byte);
 1285              		.loc 1 255 0
 1286 0044 07F10B03 		add	r3, r7, #11
 1287 0048 1946     		mov	r1, r3
 1288 004a 0120     		movs	r0, #1
 1289 004c FFF7FEFF 		bl	BufRemove
 1290 0050 0346     		mov	r3, r0
 1291 0052 002B     		cmp	r3, #0
 1292 0054 ECD1     		bne	.L79
 258:movi_comm.c   ****     }
 259:movi_comm.c   **** 
 260:movi_comm.c   ****     m->statistics.tx_packets++;
 1293              		.loc 1 260 0
 1294 0056 7B68     		ldr	r3, [r7, #4]
 1295 0058 DB6D     		ldr	r3, [r3, #92]
 1296 005a 5A1C     		adds	r2, r3, #1
 1297 005c 7B68     		ldr	r3, [r7, #4]
 1298 005e DA65     		str	r2, [r3, #92]
 261:movi_comm.c   ****     m->statistics.tx_bytes += sent;
 1299              		.loc 1 261 0
 1300 0060 7B68     		ldr	r3, [r7, #4]
 1301 0062 1A6E     		ldr	r2, [r3, #96]
 1302 0064 FB68     		ldr	r3, [r7, #12]
 1303 0066 1A44     		add	r2, r2, r3
 1304 0068 7B68     		ldr	r3, [r7, #4]
 1305 006a 1A66     		str	r2, [r3, #96]
 262:movi_comm.c   **** 
 263:movi_comm.c   ****     return (m->statistics.uart_err_flags != 0u) ? MOVI_ERR_UART : MOVI_OK;
 1306              		.loc 1 263 0
 1307 006c 7B68     		ldr	r3, [r7, #4]
 1308 006e 93F87230 		ldrb	r3, [r3, #114]	@ zero_extendqisi2
 1309 0072 002B     		cmp	r3, #0
 1310 0074 14BF     		ite	ne
 1311 0076 0123     		movne	r3, #1
 1312 0078 0023     		moveq	r3, #0
 1313 007a DBB2     		uxtb	r3, r3
 1314              	.L80:
 264:movi_comm.c   **** }
 1315              		.loc 1 264 0 discriminator 1
 1316 007c 1846     		mov	r0, r3
 1317 007e 1037     		adds	r7, r7, #16
ARM GAS  C:\Users\JENNEW~1\AppData\Local\Temp\ccGi2R4N.s 			page 29


 1318              		.cfi_def_cfa_offset 8
 1319 0080 BD46     		mov	sp, r7
 1320              		.cfi_def_cfa_register 13
 1321              		@ sp needed
 1322 0082 80BD     		pop	{r7, pc}
 1323              	.L82:
 1324              		.align	2
 1325              	.L81:
 1326 0084 00000000 		.word	FreeflyAPI
 1327              		.cfi_endproc
 1328              	.LFE14:
 1329              		.size	movi_comm_send_control, .-movi_comm_send_control
 1330              		.section	.text.movi_comm_get_status,"ax",%progbits
 1331              		.align	2
 1332              		.global	movi_comm_get_status
 1333              		.thumb
 1334              		.thumb_func
 1335              		.type	movi_comm_get_status, %function
 1336              	movi_comm_get_status:
 1337              	.LFB15:
 265:movi_comm.c   **** 
 266:movi_comm.c   **** void movi_comm_get_status(movi_comm_t* m, movi_status_t* out)
 267:movi_comm.c   **** {
 1338              		.loc 1 267 0
 1339              		.cfi_startproc
 1340              		@ args = 0, pretend = 0, frame = 8
 1341              		@ frame_needed = 1, uses_anonymous_args = 0
 1342              		@ link register save eliminated.
 1343 0000 B0B4     		push	{r4, r5, r7}
 1344              		.cfi_def_cfa_offset 12
 1345              		.cfi_offset 4, -12
 1346              		.cfi_offset 5, -8
 1347              		.cfi_offset 7, -4
 1348 0002 83B0     		sub	sp, sp, #12
 1349              		.cfi_def_cfa_offset 24
 1350 0004 00AF     		add	r7, sp, #0
 1351              		.cfi_def_cfa_register 7
 1352 0006 7860     		str	r0, [r7, #4]
 1353 0008 3960     		str	r1, [r7]
 268:movi_comm.c   ****     if (!m || !out) return;
 1354              		.loc 1 268 0
 1355 000a 7B68     		ldr	r3, [r7, #4]
 1356 000c 002B     		cmp	r3, #0
 1357 000e 12D0     		beq	.L87
 1358              		.loc 1 268 0 is_stmt 0 discriminator 1
 1359 0010 3B68     		ldr	r3, [r7]
 1360 0012 002B     		cmp	r3, #0
 1361 0014 0FD0     		beq	.L87
 269:movi_comm.c   ****     *out = m->status;
 1362              		.loc 1 269 0 is_stmt 1
 1363 0016 3A68     		ldr	r2, [r7]
 1364 0018 7B68     		ldr	r3, [r7, #4]
 1365 001a 1546     		mov	r5, r2
 1366 001c 03F11C04 		add	r4, r3, #28
 1367 0020 0FCC     		ldmia	r4!, {r0, r1, r2, r3}
 1368 0022 0FC5     		stmia	r5!, {r0, r1, r2, r3}
 1369 0024 0FCC     		ldmia	r4!, {r0, r1, r2, r3}
ARM GAS  C:\Users\JENNEW~1\AppData\Local\Temp\ccGi2R4N.s 			page 30


 1370 0026 0FC5     		stmia	r5!, {r0, r1, r2, r3}
 1371 0028 0FCC     		ldmia	r4!, {r0, r1, r2, r3}
 1372 002a 0FC5     		stmia	r5!, {r0, r1, r2, r3}
 1373 002c 94E80F00 		ldmia	r4, {r0, r1, r2, r3}
 1374 0030 85E80F00 		stmia	r5, {r0, r1, r2, r3}
 1375 0034 00E0     		b	.L83
 1376              	.L87:
 268:movi_comm.c   ****     if (!m || !out) return;
 1377              		.loc 1 268 0
 1378 0036 00BF     		nop
 1379              	.L83:
 270:movi_comm.c   **** }
 1380              		.loc 1 270 0
 1381 0038 0C37     		adds	r7, r7, #12
 1382              		.cfi_def_cfa_offset 12
 1383 003a BD46     		mov	sp, r7
 1384              		.cfi_def_cfa_register 13
 1385              		@ sp needed
 1386 003c B0BC     		pop	{r4, r5, r7}
 1387              		.cfi_restore 7
 1388              		.cfi_restore 5
 1389              		.cfi_restore 4
 1390              		.cfi_def_cfa_offset 0
 1391 003e 7047     		bx	lr
 1392              		.cfi_endproc
 1393              	.LFE15:
 1394              		.size	movi_comm_get_status, .-movi_comm_get_status
 1395              		.section	.text.movi_comm_get_statistics,"ax",%progbits
 1396              		.align	2
 1397              		.global	movi_comm_get_statistics
 1398              		.thumb
 1399              		.thumb_func
 1400              		.type	movi_comm_get_statistics, %function
 1401              	movi_comm_get_statistics:
 1402              	.LFB16:
 271:movi_comm.c   **** 
 272:movi_comm.c   **** void movi_comm_get_statistics(movi_comm_t* m, movi_statistics_t* out)
 273:movi_comm.c   **** {
 1403              		.loc 1 273 0
 1404              		.cfi_startproc
 1405              		@ args = 0, pretend = 0, frame = 8
 1406              		@ frame_needed = 1, uses_anonymous_args = 0
 1407              		@ link register save eliminated.
 1408 0000 B0B4     		push	{r4, r5, r7}
 1409              		.cfi_def_cfa_offset 12
 1410              		.cfi_offset 4, -12
 1411              		.cfi_offset 5, -8
 1412              		.cfi_offset 7, -4
 1413 0002 83B0     		sub	sp, sp, #12
 1414              		.cfi_def_cfa_offset 24
 1415 0004 00AF     		add	r7, sp, #0
 1416              		.cfi_def_cfa_register 7
 1417 0006 7860     		str	r0, [r7, #4]
 1418 0008 3960     		str	r1, [r7]
 274:movi_comm.c   ****     if (!m || !out) return;
 1419              		.loc 1 274 0
 1420 000a 7B68     		ldr	r3, [r7, #4]
ARM GAS  C:\Users\JENNEW~1\AppData\Local\Temp\ccGi2R4N.s 			page 31


 1421 000c 002B     		cmp	r3, #0
 1422 000e 15D0     		beq	.L92
 1423              		.loc 1 274 0 is_stmt 0 discriminator 1
 1424 0010 3B68     		ldr	r3, [r7]
 1425 0012 002B     		cmp	r3, #0
 1426 0014 12D0     		beq	.L92
 275:movi_comm.c   ****     m->statistics.rb_drops = m->rb.drops;
 1427              		.loc 1 275 0 is_stmt 1
 1428 0016 7B68     		ldr	r3, [r7, #4]
 1429 0018 B3F87831 		ldrh	r3, [r3, #376]	@ movhi
 1430 001c 9AB2     		uxth	r2, r3
 1431 001e 7B68     		ldr	r3, [r7, #4]
 1432 0020 A3F87020 		strh	r2, [r3, #112]	@ movhi
 276:movi_comm.c   ****     *out = m->statistics;
 1433              		.loc 1 276 0
 1434 0024 3A68     		ldr	r2, [r7]
 1435 0026 7B68     		ldr	r3, [r7, #4]
 1436 0028 1546     		mov	r5, r2
 1437 002a 03F15C04 		add	r4, r3, #92
 1438 002e 0FCC     		ldmia	r4!, {r0, r1, r2, r3}
 1439 0030 0FC5     		stmia	r5!, {r0, r1, r2, r3}
 1440 0032 94E80300 		ldmia	r4, {r0, r1}
 1441 0036 85E80300 		stmia	r5, {r0, r1}
 1442 003a 00E0     		b	.L88
 1443              	.L92:
 274:movi_comm.c   ****     if (!m || !out) return;
 1444              		.loc 1 274 0
 1445 003c 00BF     		nop
 1446              	.L88:
 277:movi_comm.c   **** }...
 1447              		.loc 1 277 0
 1448 003e 0C37     		adds	r7, r7, #12
 1449              		.cfi_def_cfa_offset 12
 1450 0040 BD46     		mov	sp, r7
 1451              		.cfi_def_cfa_register 13
 1452              		@ sp needed
 1453 0042 B0BC     		pop	{r4, r5, r7}
 1454              		.cfi_restore 7
 1455              		.cfi_restore 5
 1456              		.cfi_restore 4
 1457              		.cfi_def_cfa_offset 0
 1458 0044 7047     		bx	lr
 1459              		.cfi_endproc
 1460              	.LFE16:
 1461              		.size	movi_comm_get_statistics, .-movi_comm_get_statistics
 1462 0046 00BF     		.text
 1463              	.Letext0:
 1464              		.file 2 "c:\\program files (x86)\\cypress\\psoc creator\\4.4\\psoc creator\\import\\gnu\\arm\\5.4.
 1465              		.file 3 "c:\\program files (x86)\\cypress\\psoc creator\\4.4\\psoc creator\\import\\gnu\\arm\\5.4.
 1466              		.file 4 "movi_comm.h"
 1467              		.file 5 "QX_App_Config.h"
 1468              		.file 6 "QX_Protocol.h"
 1469              		.file 7 "QX_Protocol_App.h"
 1470              		.file 8 "movi_rb.h"