ARM GAS  C:\Users\JENNEW~1\AppData\Local\Temp\cczRVhUZ.s 			page 1


   1              		.syntax unified
   2              		.cpu cortex-m3
   3              		.fpu softvfp
   4              		.eabi_attribute 20, 1
   5              		.eabi_attribute 21, 1
   6              		.eabi_attribute 23, 3
   7              		.eabi_attribute 24, 1
   8              		.eabi_attribute 25, 1
   9              		.eabi_attribute 26, 1
  10              		.eabi_attribute 30, 6
  11              		.eabi_attribute 34, 1
  12              		.eabi_attribute 18, 4
  13              		.thumb
  14              		.syntax unified
  15              		.file	"QX_Protocol_App.c"
  16              		.text
  17              	.Ltext0:
  18              		.cfi_sections	.debug_frame
  19              		.comm	TEST_RX,10,4
  20              		.comm	TEST_TX,10,4
  21              		.global	FreeflyAPI
  22              		.data
  23              		.align	2
  24              		.type	FreeflyAPI, %object
  25              		.size	FreeflyAPI, 116
  26              	FreeflyAPI:
  27 0000 00000000 		.word	ff_api_init
  28 0004 00000000 		.word	ff_api_send
  29 0008 00000000 		.space	4
  30 000c 00       		.byte	0
  31 000d 00000000 		.space	59
  31      00000000 
  31      00000000 
  31      00000000 
  31      00000000 
  32 0048 00000000 		.word	0
  33 004c 00000000 		.space	40
  33      00000000 
  33      00000000 
  33      00000000 
  33      00000000 
  34              		.section	.text.ff_api_init,"ax",%progbits
  35              		.align	2
  36              		.global	ff_api_init
  37              		.thumb
  38              		.thumb_func
  39              		.type	ff_api_init, %function
  40              	ff_api_init:
  41              	.LFB1:
  42              		.file 1 "QX_Protocol_App.c"
   1:QX_Protocol_App.c **** /*-----------------------------------------------------------------
   2:QX_Protocol_App.c **** 	Copyright 2017 Freefly Systems
   3:QX_Protocol_App.c **** 
   4:QX_Protocol_App.c **** 	Licensed under the Apache License, Version 2.0 (the "License");
   5:QX_Protocol_App.c **** 	you may not use this file except in compliance with the License.
   6:QX_Protocol_App.c **** 	You may obtain a copy of the License at
   7:QX_Protocol_App.c **** 
ARM GAS  C:\Users\JENNEW~1\AppData\Local\Temp\cczRVhUZ.s 			page 2


   8:QX_Protocol_App.c **** 		http://www.apache.org/licenses/LICENSE-2.0
   9:QX_Protocol_App.c **** 
  10:QX_Protocol_App.c **** 	Unless required by applicable law or agreed to in writing, software
  11:QX_Protocol_App.c **** 	distributed under the License is distributed on an "AS IS" BASIS,
  12:QX_Protocol_App.c **** 	WITHOUT WARRANTIES OR CONDITIONS OF ANY KIND, either express or implied.
  13:QX_Protocol_App.c **** 	See the License for the specific language governing permissions and
  14:QX_Protocol_App.c **** 	limitations under the License.
  15:QX_Protocol_App.c **** 
  16:QX_Protocol_App.c **** 	Filename: "QX_Protocol_App.c"
  17:QX_Protocol_App.c **** 	This files contains the parser call back functions are the primary point of exchange of comms and 
  18:QX_Protocol_App.c **** 	- Server callbacks handle reciving writes and sending current value responses.
  19:QX_Protocol_App.c **** 	- Client callbacks handle sending writes and recieving current value responses.
  20:QX_Protocol_App.c **** 	These need to be modifed to fit the application.
  21:QX_Protocol_App.c **** 		
  22:QX_Protocol_App.c **** -----------------------------------------------------------------*/
  23:QX_Protocol_App.c **** 
  24:QX_Protocol_App.c **** //****************************************************************************
  25:QX_Protocol_App.c **** // Headers
  26:QX_Protocol_App.c **** //****************************************************************************
  27:QX_Protocol_App.c **** // standard headers
  28:QX_Protocol_App.c **** #include <stdlib.h>
  29:QX_Protocol_App.c **** #include <stdint.h>		// for Standard Data Types
  30:QX_Protocol_App.c **** #include <string.h>		// for array and string manipulation
  31:QX_Protocol_App.c **** #include <stdio.h>
  32:QX_Protocol_App.c **** #include <stdbool.h>
  33:QX_Protocol_App.c **** 
  34:QX_Protocol_App.c **** // QX Lib headers
  35:QX_Protocol_App.c **** #include "QX_Protocol.h"
  36:QX_Protocol_App.c **** #include "QX_Parsing_Functions.h"
  37:QX_Protocol_App.c **** 
  38:QX_Protocol_App.c **** // app specific
  39:QX_Protocol_App.c **** #include "QX_Protocol_App.h"
  40:QX_Protocol_App.c **** 
  41:QX_Protocol_App.c **** //****************************************************************************
  42:QX_Protocol_App.c **** // Public Global Vars
  43:QX_Protocol_App.c **** //****************************************************************************
  44:QX_Protocol_App.c **** 
  45:QX_Protocol_App.c **** // TEST VARS
  46:QX_Protocol_App.c **** uint8_t TEST_RX[10];
  47:QX_Protocol_App.c **** uint8_t TEST_TX[10];
  48:QX_Protocol_App.c **** 
  49:QX_Protocol_App.c **** 
  50:QX_Protocol_App.c **** //****************************************************************************
  51:QX_Protocol_App.c **** // Private Function Protos
  52:QX_Protocol_App.c **** //****************************************************************************
  53:QX_Protocol_App.c **** uint8_t *QX_ParsePacket_Cli_MoVI_Ctrl_CB(QX_Msg_t *Msg_p);
  54:QX_Protocol_App.c **** void ff_api_init(void);
  55:QX_Protocol_App.c **** void ff_api_send(void);
  56:QX_Protocol_App.c **** 
  57:QX_Protocol_App.c **** 
  58:QX_Protocol_App.c **** //****************************************************************************
  59:QX_Protocol_App.c **** // Private Global Vars
  60:QX_Protocol_App.c **** //****************************************************************************
  61:QX_Protocol_App.c **** 
  62:QX_Protocol_App.c **** // API object definition and initalization of callback functions. member vars will be intialized in
  63:QX_Protocol_App.c **** ff_api_t FreeflyAPI = {
  64:QX_Protocol_App.c ****     .begin = &ff_api_init,
ARM GAS  C:\Users\JENNEW~1\AppData\Local\Temp\cczRVhUZ.s 			page 3


  65:QX_Protocol_App.c ****     .send = &ff_api_send,
  66:QX_Protocol_App.c **** 	.control = {0}, 
  67:QX_Protocol_App.c **** 	.status = {0}
  68:QX_Protocol_App.c **** };
  69:QX_Protocol_App.c **** 
  70:QX_Protocol_App.c **** //****************************************************************************
  71:QX_Protocol_App.c **** // Functions
  72:QX_Protocol_App.c **** //****************************************************************************
  73:QX_Protocol_App.c **** 
  74:QX_Protocol_App.c **** //----------------------------------------------------------------------------
  75:QX_Protocol_App.c **** // Default initializer for ff_api
  76:QX_Protocol_App.c **** void ff_api_init(void)
  77:QX_Protocol_App.c **** {
  43              		.loc 1 77 0
  44              		.cfi_startproc
  45              		@ args = 0, pretend = 0, frame = 0
  46              		@ frame_needed = 1, uses_anonymous_args = 0
  47 0000 80B5     		push	{r7, lr}
  48              		.cfi_def_cfa_offset 8
  49              		.cfi_offset 7, -8
  50              		.cfi_offset 14, -4
  51 0002 00AF     		add	r7, sp, #0
  52              		.cfi_def_cfa_register 7
  78:QX_Protocol_App.c ****     //Initialize Freefly Communications protocol
  79:QX_Protocol_App.c ****     QX_InitCli(&QX_Clients[0], QX_DEV_ID_MOVI_API_CONTROLLER, QX_ParsePacket_Cli_MoVI_Ctrl_CB);
  53              		.loc 1 79 0
  54 0004 1A4A     		ldr	r2, .L2
  55 0006 0A21     		movs	r1, #10
  56 0008 1A48     		ldr	r0, .L2+4
  57 000a FFF7FEFF 		bl	QX_InitCli
  80:QX_Protocol_App.c ****     
  81:QX_Protocol_App.c ****     //Initialize API variables
  82:QX_Protocol_App.c ****     FreeflyAPI.control.pan.type = DEFER;
  58              		.loc 1 82 0
  59 000e 1A4B     		ldr	r3, .L2+8
  60 0010 0022     		movs	r2, #0
  61 0012 1A75     		strb	r2, [r3, #20]
  83:QX_Protocol_App.c ****     FreeflyAPI.control.tilt.type = DEFER;
  62              		.loc 1 83 0
  63 0014 184B     		ldr	r3, .L2+8
  64 0016 0022     		movs	r2, #0
  65 0018 1A77     		strb	r2, [r3, #28]
  84:QX_Protocol_App.c ****     FreeflyAPI.control.roll.type = DEFER;
  66              		.loc 1 84 0
  67 001a 174B     		ldr	r3, .L2+8
  68 001c 0022     		movs	r2, #0
  69 001e 83F82420 		strb	r2, [r3, #36]
  85:QX_Protocol_App.c ****     FreeflyAPI.control.focus.type = DEFER;
  70              		.loc 1 85 0
  71 0022 154B     		ldr	r3, .L2+8
  72 0024 0022     		movs	r2, #0
  73 0026 83F82C20 		strb	r2, [r3, #44]
  86:QX_Protocol_App.c ****     FreeflyAPI.control.iris.type = DEFER;
  74              		.loc 1 86 0
  75 002a 134B     		ldr	r3, .L2+8
  76 002c 0022     		movs	r2, #0
  77 002e 83F83420 		strb	r2, [r3, #52]
ARM GAS  C:\Users\JENNEW~1\AppData\Local\Temp\cczRVhUZ.s 			page 4


  87:QX_Protocol_App.c ****     FreeflyAPI.control.zoom.type = DEFER;
  78              		.loc 1 87 0
  79 0032 114B     		ldr	r3, .L2+8
  80 0034 0022     		movs	r2, #0
  81 0036 83F83C20 		strb	r2, [r3, #60]
  88:QX_Protocol_App.c **** 	FreeflyAPI.control.fiz_autoCalStart_all_flag = 0;
  82              		.loc 1 88 0
  83 003a 0F4B     		ldr	r3, .L2+8
  84 003c 0022     		movs	r2, #0
  85 003e 83F84120 		strb	r2, [r3, #65]
  89:QX_Protocol_App.c **** 	FreeflyAPI.control.fiz_clearFaults_all_flag = 0;
  86              		.loc 1 89 0
  87 0042 0D4B     		ldr	r3, .L2+8
  88 0044 0022     		movs	r2, #0
  89 0046 83F84020 		strb	r2, [r3, #64]
  90:QX_Protocol_App.c **** 	FreeflyAPI.control.fiz_record_button_flag = 0;
  90              		.loc 1 90 0
  91 004a 0B4B     		ldr	r3, .L2+8
  92 004c 0022     		movs	r2, #0
  93 004e 83F84220 		strb	r2, [r3, #66]
  91:QX_Protocol_App.c **** 	FreeflyAPI.control.fiz_setSubRangeLim_F_flag = 0;
  94              		.loc 1 91 0
  95 0052 094B     		ldr	r3, .L2+8
  96 0054 0022     		movs	r2, #0
  97 0056 83F84320 		strb	r2, [r3, #67]
  92:QX_Protocol_App.c **** 	FreeflyAPI.control.fiz_setSubRangeLim_I_flag = 0;
  98              		.loc 1 92 0
  99 005a 074B     		ldr	r3, .L2+8
 100 005c 0022     		movs	r2, #0
 101 005e 83F84420 		strb	r2, [r3, #68]
  93:QX_Protocol_App.c **** 	FreeflyAPI.control.fiz_setSubRangeLim_Z_flag = 0;
 102              		.loc 1 93 0
 103 0062 054B     		ldr	r3, .L2+8
 104 0064 0022     		movs	r2, #0
 105 0066 83F84520 		strb	r2, [r3, #69]
  94:QX_Protocol_App.c **** 	
  95:QX_Protocol_App.c **** }
 106              		.loc 1 95 0
 107 006a 00BF     		nop
 108 006c 80BD     		pop	{r7, pc}
 109              	.L3:
 110 006e 00BF     		.align	2
 111              	.L2:
 112 0070 00000000 		.word	QX_ParsePacket_Cli_MoVI_Ctrl_CB
 113 0074 00000000 		.word	QX_Clients
 114 0078 00000000 		.word	FreeflyAPI
 115              		.cfi_endproc
 116              	.LFE1:
 117              		.size	ff_api_init, .-ff_api_init
 118              		.section	.text.ff_api_send,"ax",%progbits
 119              		.align	2
 120              		.global	ff_api_send
 121              		.thumb
 122              		.thumb_func
 123              		.type	ff_api_send, %function
 124              	ff_api_send:
 125              	.LFB2:
ARM GAS  C:\Users\JENNEW~1\AppData\Local\Temp\cczRVhUZ.s 			page 5


  96:QX_Protocol_App.c **** 
  97:QX_Protocol_App.c **** 
  98:QX_Protocol_App.c **** //----------------------------------------------------------------------------
  99:QX_Protocol_App.c **** // Convenience function that sends packets through QX Protocol
 100:QX_Protocol_App.c **** void ff_api_send(void)
 101:QX_Protocol_App.c **** {
 126              		.loc 1 101 0
 127              		.cfi_startproc
 128              		@ args = 0, pretend = 0, frame = 8
 129              		@ frame_needed = 1, uses_anonymous_args = 0
 130 0000 80B5     		push	{r7, lr}
 131              		.cfi_def_cfa_offset 8
 132              		.cfi_offset 7, -8
 133              		.cfi_offset 14, -4
 134 0002 84B0     		sub	sp, sp, #16
 135              		.cfi_def_cfa_offset 24
 136 0004 02AF     		add	r7, sp, #8
 137              		.cfi_def_cfa 7, 16
 102:QX_Protocol_App.c ****     // Send control message
 103:QX_Protocol_App.c ****     QX_TxMsgOptions_t options;
 104:QX_Protocol_App.c ****     QX_InitTxOptions(&options);
 138              		.loc 1 104 0
 139 0006 3B46     		mov	r3, r7
 140 0008 1846     		mov	r0, r3
 141 000a FFF7FEFF 		bl	QX_InitTxOptions
 105:QX_Protocol_App.c ****     options.Target_Addr = QX_DEV_ID_GIMBAL;
 142              		.loc 1 105 0
 143 000e 0223     		movs	r3, #2
 144 0010 3B71     		strb	r3, [r7, #4]
 106:QX_Protocol_App.c ****     options.TransReq_Addr = QX_DEV_ID_BROADCAST;
 145              		.loc 1 106 0
 146 0012 0023     		movs	r3, #0
 147 0014 7B71     		strb	r3, [r7, #5]
 107:QX_Protocol_App.c ****     options.RespReq_Addr = QX_DEV_ID_BROADCAST;
 148              		.loc 1 107 0
 149 0016 0023     		movs	r3, #0
 150 0018 BB71     		strb	r3, [r7, #6]
 108:QX_Protocol_App.c ****     QX_SendPacket_Cli_WriteABS(&QX_Clients[0], 277, QX_COMMS_PORT_UART, options);
 151              		.loc 1 108 0
 152 001a 6B46     		mov	r3, sp
 153 001c 3A1D     		adds	r2, r7, #4
 154 001e 1268     		ldr	r2, [r2]
 155 0020 1146     		mov	r1, r2	@ movhi
 156 0022 1980     		strh	r1, [r3]	@ movhi
 157 0024 0233     		adds	r3, r3, #2
 158 0026 120C     		lsrs	r2, r2, #16
 159 0028 1A70     		strb	r2, [r3]
 160 002a 3B68     		ldr	r3, [r7]
 161 002c 0022     		movs	r2, #0
 162 002e 40F21511 		movw	r1, #277
 163 0032 0348     		ldr	r0, .L5
 164 0034 FFF7FEFF 		bl	QX_SendPacket_Cli_WriteABS
 109:QX_Protocol_App.c **** }
 165              		.loc 1 109 0
 166 0038 00BF     		nop
 167 003a 0837     		adds	r7, r7, #8
 168              		.cfi_def_cfa_offset 8
ARM GAS  C:\Users\JENNEW~1\AppData\Local\Temp\cczRVhUZ.s 			page 6


 169 003c BD46     		mov	sp, r7
 170              		.cfi_def_cfa_register 13
 171              		@ sp needed
 172 003e 80BD     		pop	{r7, pc}
 173              	.L6:
 174              		.align	2
 175              	.L5:
 176 0040 00000000 		.word	QX_Clients
 177              		.cfi_endproc
 178              	.LFE2:
 179              		.size	ff_api_send, .-ff_api_send
 180              		.global	__aeabi_fmul
 181              		.global	__aeabi_fadd
 182              		.global	__aeabi_f2uiz
 183              		.global	__aeabi_ui2f
 184              		.global	__aeabi_fcmpeq
 185              		.section	.text.QX_ParsePacket_Cli_MoVI_Ctrl_CB,"ax",%progbits
 186              		.align	2
 187              		.global	QX_ParsePacket_Cli_MoVI_Ctrl_CB
 188              		.thumb
 189              		.thumb_func
 190              		.type	QX_ParsePacket_Cli_MoVI_Ctrl_CB, %function
 191              	QX_ParsePacket_Cli_MoVI_Ctrl_CB:
 192              	.LFB3:
 110:QX_Protocol_App.c **** 
 111:QX_Protocol_App.c **** 
 112:QX_Protocol_App.c **** //----------------------------------------------------------------------------
 113:QX_Protocol_App.c **** // MoVI Control Client - parser callback example
 114:QX_Protocol_App.c **** uint8_t *QX_ParsePacket_Cli_MoVI_Ctrl_CB(QX_Msg_t *Msg_p)
 115:QX_Protocol_App.c **** {
 193              		.loc 1 115 0
 194              		.cfi_startproc
 195              		@ args = 0, pretend = 0, frame = 64
 196              		@ frame_needed = 1, uses_anonymous_args = 0
 197 0000 80B5     		push	{r7, lr}
 198              		.cfi_def_cfa_offset 8
 199              		.cfi_offset 7, -8
 200              		.cfi_offset 14, -4
 201 0002 92B0     		sub	sp, sp, #72
 202              		.cfi_def_cfa_offset 80
 203 0004 02AF     		add	r7, sp, #8
 204              		.cfi_def_cfa 7, 72
 205 0006 7860     		str	r0, [r7, #4]
 116:QX_Protocol_App.c **** 	uint8_t temp_UC_buffer[10];
 117:QX_Protocol_App.c **** 	int16_t temp_SS_buffer[10];
 118:QX_Protocol_App.c **** 	uint16_t temp_US_buffer[10];
 119:QX_Protocol_App.c **** 	
 120:QX_Protocol_App.c **** 	// Set Parser direction based on message type
 121:QX_Protocol_App.c **** 	switch(Msg_p->Parse_Type)
 206              		.loc 1 121 0
 207 0008 7B68     		ldr	r3, [r7, #4]
 208 000a 1B78     		ldrb	r3, [r3]	@ zero_extendqisi2
 209 000c 022B     		cmp	r3, #2
 210 000e 07D0     		beq	.L9
 211 0010 042B     		cmp	r3, #4
 212 0012 02D0     		beq	.L10
 213 0014 012B     		cmp	r3, #1
ARM GAS  C:\Users\JENNEW~1\AppData\Local\Temp\cczRVhUZ.s 			page 7


 214 0016 06D0     		beq	.L11
 122:QX_Protocol_App.c **** 	{
 123:QX_Protocol_App.c **** 		case QX_PARSE_TYPE_WRITE_REL_SEND: QX_Parser_SetDir_Read(); break;
 124:QX_Protocol_App.c **** 		case QX_PARSE_TYPE_WRITE_ABS_SEND: QX_Parser_SetDir_Read(); break;
 125:QX_Protocol_App.c **** 		case QX_PARSE_TYPE_CURVAL_RECV: QX_Parser_SetDir_WriteAbs(); break;
 126:QX_Protocol_App.c **** 		default: break;
 215              		.loc 1 126 0
 216 0018 08E0     		b	.L12
 217              	.L10:
 123:QX_Protocol_App.c **** 		case QX_PARSE_TYPE_WRITE_ABS_SEND: QX_Parser_SetDir_Read(); break;
 218              		.loc 1 123 0
 219 001a FFF7FEFF 		bl	QX_Parser_SetDir_Read
 220 001e 05E0     		b	.L12
 221              	.L9:
 124:QX_Protocol_App.c **** 		case QX_PARSE_TYPE_CURVAL_RECV: QX_Parser_SetDir_WriteAbs(); break;
 222              		.loc 1 124 0
 223 0020 FFF7FEFF 		bl	QX_Parser_SetDir_Read
 224 0024 02E0     		b	.L12
 225              	.L11:
 125:QX_Protocol_App.c **** 		default: break;
 226              		.loc 1 125 0
 227 0026 FFF7FEFF 		bl	QX_Parser_SetDir_WriteAbs
 228 002a 00BF     		nop
 229              	.L12:
 127:QX_Protocol_App.c **** 	}
 128:QX_Protocol_App.c **** 	
 129:QX_Protocol_App.c **** 	// Prepare to Parse Message
 130:QX_Protocol_App.c **** 	QX_Parser_SetMsgPtr(Msg_p->BufPayloadStart_p);	// Set the Parser Pointer to the Start of the Paylo
 230              		.loc 1 130 0
 231 002c 7B68     		ldr	r3, [r7, #4]
 232 002e DB6E     		ldr	r3, [r3, #108]
 233 0030 1846     		mov	r0, r3
 234 0032 FFF7FEFF 		bl	QX_Parser_SetMsgPtr
 131:QX_Protocol_App.c **** 	
 132:QX_Protocol_App.c **** 	// Handle specific packet type
 133:QX_Protocol_App.c **** 	switch(Msg_p->Header.Attrib)
 235              		.loc 1 133 0
 236 0036 7B68     		ldr	r3, [r7, #4]
 237 0038 DB68     		ldr	r3, [r3, #12]
 238 003a 40F21512 		movw	r2, #277
 239 003e 9342     		cmp	r3, r2
 240 0040 05D0     		beq	.L14
 241 0042 40F21F12 		movw	r2, #287
 242 0046 9342     		cmp	r3, r2
 243 0048 00F01482 		beq	.L15
 244 004c B4E3     		b	.L128
 245              	.L14:
 246              	.LBB2:
 134:QX_Protocol_App.c **** 	{
 135:QX_Protocol_App.c **** 		case 277: // Control RL, Gimbal + Lens Control, (RX,RY,RZ)-(LF,LI,LZ)
 136:QX_Protocol_App.c **** 		
 137:QX_Protocol_App.c **** 			// This only accepts absolute type writes. Exit if other
 138:QX_Protocol_App.c **** 			if(Msg_p->Parse_Type !=  QX_PARSE_TYPE_WRITE_ABS_SEND) break;
 247              		.loc 1 138 0
 248 004e 7B68     		ldr	r3, [r7, #4]
 249 0050 1B78     		ldrb	r3, [r3]	@ zero_extendqisi2
 250 0052 022B     		cmp	r3, #2
ARM GAS  C:\Users\JENNEW~1\AppData\Local\Temp\cczRVhUZ.s 			page 8


 251 0054 40F0B483 		bne	.L129
 139:QX_Protocol_App.c **** 		
 140:QX_Protocol_App.c **** 			// reserved
 141:QX_Protocol_App.c **** 			PARSE_UC_AS_UC(temp_UC_buffer, 3, 0xFF, 0);
 252              		.loc 1 141 0
 253 0058 9C4B     		ldr	r3, .L131
 254 005a 1B78     		ldrb	r3, [r3]	@ zero_extendqisi2
 255 005c 002B     		cmp	r3, #0
 256 005e 06D1     		bne	.L18
 257              		.loc 1 141 0 is_stmt 0 discriminator 1
 258 0060 07F13003 		add	r3, r7, #48
 259 0064 0321     		movs	r1, #3
 260 0066 1846     		mov	r0, r3
 261 0068 FFF7FEFF 		bl	AddUnsignedCharAsUnsignedChar
 262 006c 06E0     		b	.L19
 263              	.L18:
 264              		.loc 1 141 0 discriminator 2
 265 006e 07F13000 		add	r0, r7, #48
 266 0072 0023     		movs	r3, #0
 267 0074 FF22     		movs	r2, #255
 268 0076 0321     		movs	r1, #3
 269 0078 FFF7FEFF 		bl	GetUnsignedCharAsUnsignedChar
 270              	.L19:
 142:QX_Protocol_App.c **** 			
 143:QX_Protocol_App.c **** 			// Set gimbal axis control type flags (rate, quaternion, etc)
 144:QX_Protocol_App.c ****             uint8_t pan_input_type;
 145:QX_Protocol_App.c ****             switch (FreeflyAPI.control.pan.type) {
 271              		.loc 1 145 0 is_stmt 1
 272 007c 944B     		ldr	r3, .L131+4
 273 007e 1B7D     		ldrb	r3, [r3, #20]	@ zero_extendqisi2
 274 0080 012B     		cmp	r3, #1
 275 0082 08D0     		beq	.L21
 276 0084 022B     		cmp	r3, #2
 277 0086 0AD0     		beq	.L22
 278 0088 002B     		cmp	r3, #0
 279 008a 00D0     		beq	.L23
 146:QX_Protocol_App.c ****                 case DEFER:
 147:QX_Protocol_App.c ****                     pan_input_type = INPUT_CONTROL_RZ_DEFER;
 148:QX_Protocol_App.c ****                     break;
 149:QX_Protocol_App.c ****                 case RATE:
 150:QX_Protocol_App.c ****                     pan_input_type = INPUT_CONTROL_RZ_RATE;
 151:QX_Protocol_App.c ****                     break;
 152:QX_Protocol_App.c ****                 case ABSOLUTE:
 153:QX_Protocol_App.c ****                     pan_input_type = INPUT_CONTROL_RZ_ABS;
 154:QX_Protocol_App.c ****                     break;
 155:QX_Protocol_App.c ****                 default:
 156:QX_Protocol_App.c ****                     break;
 280              		.loc 1 156 0
 281 008c 0BE0     		b	.L24
 282              	.L23:
 147:QX_Protocol_App.c ****                     break;
 283              		.loc 1 147 0
 284 008e 0023     		movs	r3, #0
 285 0090 87F83F30 		strb	r3, [r7, #63]
 148:QX_Protocol_App.c ****                 case RATE:
 286              		.loc 1 148 0
 287 0094 07E0     		b	.L24
ARM GAS  C:\Users\JENNEW~1\AppData\Local\Temp\cczRVhUZ.s 			page 9


 288              	.L21:
 150:QX_Protocol_App.c ****                     break;
 289              		.loc 1 150 0
 290 0096 0123     		movs	r3, #1
 291 0098 87F83F30 		strb	r3, [r7, #63]
 151:QX_Protocol_App.c ****                 case ABSOLUTE:
 292              		.loc 1 151 0
 293 009c 03E0     		b	.L24
 294              	.L22:
 153:QX_Protocol_App.c ****                     break;
 295              		.loc 1 153 0
 296 009e 0223     		movs	r3, #2
 297 00a0 87F83F30 		strb	r3, [r7, #63]
 154:QX_Protocol_App.c ****                 default:
 298              		.loc 1 154 0
 299 00a4 00BF     		nop
 300              	.L24:
 157:QX_Protocol_App.c ****             };
 158:QX_Protocol_App.c **** 
 159:QX_Protocol_App.c ****             uint8_t tilt_input_type;
 160:QX_Protocol_App.c ****             switch (FreeflyAPI.control.tilt.type) {
 301              		.loc 1 160 0
 302 00a6 8A4B     		ldr	r3, .L131+4
 303 00a8 1B7F     		ldrb	r3, [r3, #28]	@ zero_extendqisi2
 304 00aa 012B     		cmp	r3, #1
 305 00ac 08D0     		beq	.L26
 306 00ae 022B     		cmp	r3, #2
 307 00b0 0AD0     		beq	.L27
 308 00b2 002B     		cmp	r3, #0
 309 00b4 00D0     		beq	.L28
 161:QX_Protocol_App.c ****                 case DEFER:
 162:QX_Protocol_App.c ****                     tilt_input_type = INPUT_CONTROL_RY_DEFER;
 163:QX_Protocol_App.c ****                     break;
 164:QX_Protocol_App.c ****                 case RATE:
 165:QX_Protocol_App.c ****                     tilt_input_type = INPUT_CONTROL_RY_RATE;
 166:QX_Protocol_App.c ****                     break;
 167:QX_Protocol_App.c ****                 case ABSOLUTE:
 168:QX_Protocol_App.c ****                     tilt_input_type = INPUT_CONTROL_RY_ABS;
 169:QX_Protocol_App.c ****                     break;
 170:QX_Protocol_App.c ****                 default:
 171:QX_Protocol_App.c ****                     break;
 310              		.loc 1 171 0
 311 00b6 0BE0     		b	.L29
 312              	.L28:
 162:QX_Protocol_App.c ****                     break;
 313              		.loc 1 162 0
 314 00b8 0023     		movs	r3, #0
 315 00ba 87F83E30 		strb	r3, [r7, #62]
 163:QX_Protocol_App.c ****                 case RATE:
 316              		.loc 1 163 0
 317 00be 07E0     		b	.L29
 318              	.L26:
 165:QX_Protocol_App.c ****                     break;
 319              		.loc 1 165 0
 320 00c0 0423     		movs	r3, #4
 321 00c2 87F83E30 		strb	r3, [r7, #62]
 166:QX_Protocol_App.c ****                 case ABSOLUTE:
ARM GAS  C:\Users\JENNEW~1\AppData\Local\Temp\cczRVhUZ.s 			page 10


 322              		.loc 1 166 0
 323 00c6 03E0     		b	.L29
 324              	.L27:
 168:QX_Protocol_App.c ****                     break;
 325              		.loc 1 168 0
 326 00c8 0823     		movs	r3, #8
 327 00ca 87F83E30 		strb	r3, [r7, #62]
 169:QX_Protocol_App.c ****                 default:
 328              		.loc 1 169 0
 329 00ce 00BF     		nop
 330              	.L29:
 172:QX_Protocol_App.c ****             };
 173:QX_Protocol_App.c ****             
 174:QX_Protocol_App.c ****             uint8_t roll_input_type;
 175:QX_Protocol_App.c ****             switch (FreeflyAPI.control.roll.type) {
 331              		.loc 1 175 0
 332 00d0 7F4B     		ldr	r3, .L131+4
 333 00d2 93F82430 		ldrb	r3, [r3, #36]	@ zero_extendqisi2
 334 00d6 012B     		cmp	r3, #1
 335 00d8 08D0     		beq	.L31
 336 00da 022B     		cmp	r3, #2
 337 00dc 0AD0     		beq	.L32
 338 00de 002B     		cmp	r3, #0
 339 00e0 00D0     		beq	.L33
 176:QX_Protocol_App.c ****                 case DEFER:
 177:QX_Protocol_App.c ****                     roll_input_type = INPUT_CONTROL_RX_DEFER;
 178:QX_Protocol_App.c ****                     break;
 179:QX_Protocol_App.c ****                 case RATE:
 180:QX_Protocol_App.c ****                     roll_input_type = INPUT_CONTROL_RX_RATE;
 181:QX_Protocol_App.c ****                     break;
 182:QX_Protocol_App.c ****                 case ABSOLUTE:
 183:QX_Protocol_App.c ****                     roll_input_type = INPUT_CONTROL_RX_ABS;
 184:QX_Protocol_App.c ****                     break;
 185:QX_Protocol_App.c ****                 default:
 186:QX_Protocol_App.c ****                     break;
 340              		.loc 1 186 0
 341 00e2 0BE0     		b	.L34
 342              	.L33:
 177:QX_Protocol_App.c ****                     break;
 343              		.loc 1 177 0
 344 00e4 0023     		movs	r3, #0
 345 00e6 87F83D30 		strb	r3, [r7, #61]
 178:QX_Protocol_App.c ****                 case RATE:
 346              		.loc 1 178 0
 347 00ea 07E0     		b	.L34
 348              	.L31:
 180:QX_Protocol_App.c ****                     break;
 349              		.loc 1 180 0
 350 00ec 1023     		movs	r3, #16
 351 00ee 87F83D30 		strb	r3, [r7, #61]
 181:QX_Protocol_App.c ****                 case ABSOLUTE:
 352              		.loc 1 181 0
 353 00f2 03E0     		b	.L34
 354              	.L32:
 183:QX_Protocol_App.c ****                     break;
 355              		.loc 1 183 0
 356 00f4 2023     		movs	r3, #32
ARM GAS  C:\Users\JENNEW~1\AppData\Local\Temp\cczRVhUZ.s 			page 11


 357 00f6 87F83D30 		strb	r3, [r7, #61]
 184:QX_Protocol_App.c ****                 default:
 358              		.loc 1 184 0
 359 00fa 00BF     		nop
 360              	.L34:
 187:QX_Protocol_App.c ****             };
 188:QX_Protocol_App.c **** 			
 189:QX_Protocol_App.c **** 			// add in input types
 190:QX_Protocol_App.c **** 			temp_UC_buffer[0] = pan_input_type | tilt_input_type | roll_input_type;
 361              		.loc 1 190 0
 362 00fc 97F83F20 		ldrb	r2, [r7, #63]
 363 0100 97F83E30 		ldrb	r3, [r7, #62]
 364 0104 1343     		orrs	r3, r3, r2
 365 0106 DAB2     		uxtb	r2, r3
 366 0108 97F83D30 		ldrb	r3, [r7, #61]
 367 010c 1343     		orrs	r3, r3, r2
 368 010e DBB2     		uxtb	r3, r3
 369 0110 87F83030 		strb	r3, [r7, #48]
 191:QX_Protocol_App.c **** 			
 192:QX_Protocol_App.c **** 			// add in control flags
 193:QX_Protocol_App.c **** 			if (FreeflyAPI.control.gimbal_position_type_quaternions)
 370              		.loc 1 193 0
 371 0114 6E4B     		ldr	r3, .L131+4
 372 0116 5B7B     		ldrb	r3, [r3, #13]	@ zero_extendqisi2
 373 0118 002B     		cmp	r3, #0
 374 011a 07D0     		beq	.L35
 194:QX_Protocol_App.c **** 			{
 195:QX_Protocol_App.c **** 				temp_UC_buffer[0] |= INPUT_CONTROL_QUATERNION;
 375              		.loc 1 195 0
 376 011c 97F83030 		ldrb	r3, [r7, #48]	@ zero_extendqisi2
 377 0120 63F07F03 		orn	r3, r3, #127
 378 0124 DBB2     		uxtb	r3, r3
 379 0126 87F83030 		strb	r3, [r7, #48]
 380 012a 06E0     		b	.L36
 381              	.L35:
 196:QX_Protocol_App.c **** 			}
 197:QX_Protocol_App.c **** 			else 
 198:QX_Protocol_App.c **** 			{
 199:QX_Protocol_App.c **** 				temp_UC_buffer[0] &= ~INPUT_CONTROL_QUATERNION;
 382              		.loc 1 199 0
 383 012c 97F83030 		ldrb	r3, [r7, #48]	@ zero_extendqisi2
 384 0130 03F07F03 		and	r3, r3, #127
 385 0134 DBB2     		uxtb	r3, r3
 386 0136 87F83030 		strb	r3, [r7, #48]
 387              	.L36:
 200:QX_Protocol_App.c **** 			}
 201:QX_Protocol_App.c **** 			if (FreeflyAPI.control.gimbal_kill)
 388              		.loc 1 201 0
 389 013a 654B     		ldr	r3, .L131+4
 390 013c 1B7B     		ldrb	r3, [r3, #12]	@ zero_extendqisi2
 391 013e 002B     		cmp	r3, #0
 392 0140 07D0     		beq	.L37
 202:QX_Protocol_App.c **** 			{
 203:QX_Protocol_App.c **** 				temp_UC_buffer[0] |= INPUT_CONTROL_KILL;
 393              		.loc 1 203 0
 394 0142 97F83030 		ldrb	r3, [r7, #48]	@ zero_extendqisi2
 395 0146 43F04003 		orr	r3, r3, #64
ARM GAS  C:\Users\JENNEW~1\AppData\Local\Temp\cczRVhUZ.s 			page 12


 396 014a DBB2     		uxtb	r3, r3
 397 014c 87F83030 		strb	r3, [r7, #48]
 398 0150 06E0     		b	.L38
 399              	.L37:
 204:QX_Protocol_App.c **** 			}
 205:QX_Protocol_App.c **** 			else 
 206:QX_Protocol_App.c **** 			{
 207:QX_Protocol_App.c **** 				temp_UC_buffer[0] &= ~INPUT_CONTROL_KILL;
 400              		.loc 1 207 0
 401 0152 97F83030 		ldrb	r3, [r7, #48]	@ zero_extendqisi2
 402 0156 23F04003 		bic	r3, r3, #64
 403 015a DBB2     		uxtb	r3, r3
 404 015c 87F83030 		strb	r3, [r7, #48]
 405              	.L38:
 208:QX_Protocol_App.c **** 			}
 209:QX_Protocol_App.c **** 			
 210:QX_Protocol_App.c **** 			// Parse gimbal flags byte
 211:QX_Protocol_App.c **** 			PARSE_UC_AS_UC(temp_UC_buffer, 1, 0xFF, 0);
 406              		.loc 1 211 0
 407 0160 5A4B     		ldr	r3, .L131
 408 0162 1B78     		ldrb	r3, [r3]	@ zero_extendqisi2
 409 0164 002B     		cmp	r3, #0
 410 0166 06D1     		bne	.L39
 411              		.loc 1 211 0 is_stmt 0 discriminator 1
 412 0168 07F13003 		add	r3, r7, #48
 413 016c 0121     		movs	r1, #1
 414 016e 1846     		mov	r0, r3
 415 0170 FFF7FEFF 		bl	AddUnsignedCharAsUnsignedChar
 416 0174 06E0     		b	.L40
 417              	.L39:
 418              		.loc 1 211 0 discriminator 2
 419 0176 07F13000 		add	r0, r7, #48
 420 017a 0023     		movs	r3, #0
 421 017c FF22     		movs	r2, #255
 422 017e 0121     		movs	r1, #1
 423 0180 FFF7FEFF 		bl	GetUnsignedCharAsUnsignedChar
 424              	.L40:
 212:QX_Protocol_App.c **** 			
 213:QX_Protocol_App.c **** 			// Control Gimbal Axes
 214:QX_Protocol_App.c **** 			PARSE_FL_AS_SS(&FreeflyAPI.control.roll.value, 1, 32767.0f, -32767.0f, 32767.0f);
 425              		.loc 1 214 0 is_stmt 1
 426 0184 514B     		ldr	r3, .L131
 427 0186 1B78     		ldrb	r3, [r3]	@ zero_extendqisi2
 428 0188 002B     		cmp	r3, #0
 429 018a 05D1     		bne	.L41
 430              		.loc 1 214 0 is_stmt 0 discriminator 1
 431 018c 514A     		ldr	r2, .L131+8
 432 018e 0121     		movs	r1, #1
 433 0190 5148     		ldr	r0, .L131+12
 434 0192 FFF7FEFF 		bl	AddFloatAsSignedShort
 435 0196 07E0     		b	.L42
 436              	.L41:
 437              		.loc 1 214 0 discriminator 2
 438 0198 504B     		ldr	r3, .L131+16
 439 019a 0093     		str	r3, [sp]	@ float
 440 019c 504B     		ldr	r3, .L131+20
 441 019e 4D4A     		ldr	r2, .L131+8
ARM GAS  C:\Users\JENNEW~1\AppData\Local\Temp\cczRVhUZ.s 			page 13


 442 01a0 0121     		movs	r1, #1
 443 01a2 4D48     		ldr	r0, .L131+12
 444 01a4 FFF7FEFF 		bl	GetFloatAsSignedShort
 445              	.L42:
 215:QX_Protocol_App.c **** 			PARSE_FL_AS_SS(&FreeflyAPI.control.tilt.value, 1, 32767.0f, -32767.0f, 32767.0f);
 446              		.loc 1 215 0 is_stmt 1
 447 01a8 484B     		ldr	r3, .L131
 448 01aa 1B78     		ldrb	r3, [r3]	@ zero_extendqisi2
 449 01ac 002B     		cmp	r3, #0
 450 01ae 05D1     		bne	.L43
 451              		.loc 1 215 0 is_stmt 0 discriminator 1
 452 01b0 484A     		ldr	r2, .L131+8
 453 01b2 0121     		movs	r1, #1
 454 01b4 4B48     		ldr	r0, .L131+24
 455 01b6 FFF7FEFF 		bl	AddFloatAsSignedShort
 456 01ba 07E0     		b	.L44
 457              	.L43:
 458              		.loc 1 215 0 discriminator 2
 459 01bc 474B     		ldr	r3, .L131+16
 460 01be 0093     		str	r3, [sp]	@ float
 461 01c0 474B     		ldr	r3, .L131+20
 462 01c2 444A     		ldr	r2, .L131+8
 463 01c4 0121     		movs	r1, #1
 464 01c6 4748     		ldr	r0, .L131+24
 465 01c8 FFF7FEFF 		bl	GetFloatAsSignedShort
 466              	.L44:
 216:QX_Protocol_App.c **** 			PARSE_FL_AS_SS(&FreeflyAPI.control.pan.value, 1, 32767.0f, -32767.0f, 32767.0f);
 467              		.loc 1 216 0 is_stmt 1
 468 01cc 3F4B     		ldr	r3, .L131
 469 01ce 1B78     		ldrb	r3, [r3]	@ zero_extendqisi2
 470 01d0 002B     		cmp	r3, #0
 471 01d2 05D1     		bne	.L45
 472              		.loc 1 216 0 is_stmt 0 discriminator 1
 473 01d4 3F4A     		ldr	r2, .L131+8
 474 01d6 0121     		movs	r1, #1
 475 01d8 4348     		ldr	r0, .L131+28
 476 01da FFF7FEFF 		bl	AddFloatAsSignedShort
 477 01de 07E0     		b	.L46
 478              	.L45:
 479              		.loc 1 216 0 discriminator 2
 480 01e0 3E4B     		ldr	r3, .L131+16
 481 01e2 0093     		str	r3, [sp]	@ float
 482 01e4 3E4B     		ldr	r3, .L131+20
 483 01e6 3B4A     		ldr	r2, .L131+8
 484 01e8 0121     		movs	r1, #1
 485 01ea 3F48     		ldr	r0, .L131+28
 486 01ec FFF7FEFF 		bl	GetFloatAsSignedShort
 487              	.L46:
 217:QX_Protocol_App.c **** 			temp_SS_buffer[0] = 0;
 488              		.loc 1 217 0 is_stmt 1
 489 01f0 0023     		movs	r3, #0
 490 01f2 BB83     		strh	r3, [r7, #28]	@ movhi
 218:QX_Protocol_App.c **** 			PARSE_SS_AS_SS(temp_SS_buffer, 1, 0xFFFF, 0);
 491              		.loc 1 218 0
 492 01f4 354B     		ldr	r3, .L131
 493 01f6 1B78     		ldrb	r3, [r3]	@ zero_extendqisi2
 494 01f8 002B     		cmp	r3, #0
ARM GAS  C:\Users\JENNEW~1\AppData\Local\Temp\cczRVhUZ.s 			page 14


 495 01fa 06D1     		bne	.L47
 496              		.loc 1 218 0 is_stmt 0 discriminator 1
 497 01fc 07F11C03 		add	r3, r7, #28
 498 0200 0121     		movs	r1, #1
 499 0202 1846     		mov	r0, r3
 500 0204 FFF7FEFF 		bl	AddSignedShortAsSignedShort
 501 0208 07E0     		b	.L48
 502              	.L47:
 503              		.loc 1 218 0 discriminator 2
 504 020a 07F11C00 		add	r0, r7, #28
 505 020e 4FF00003 		mov	r3, #0
 506 0212 364A     		ldr	r2, .L131+32
 507 0214 0121     		movs	r1, #1
 508 0216 FFF7FEFF 		bl	GetSignedShortAsSignedShort
 509              	.L48:
 219:QX_Protocol_App.c **** 			
 220:QX_Protocol_App.c **** 			// Set lens control type flags (rate, absolute position, etc)
 221:QX_Protocol_App.c ****             uint8_t focus_input_type;
 222:QX_Protocol_App.c ****             switch (FreeflyAPI.control.focus.type) {
 510              		.loc 1 222 0 is_stmt 1
 511 021a 2D4B     		ldr	r3, .L131+4
 512 021c 93F82C30 		ldrb	r3, [r3, #44]	@ zero_extendqisi2
 513 0220 012B     		cmp	r3, #1
 514 0222 08D0     		beq	.L50
 515 0224 022B     		cmp	r3, #2
 516 0226 0AD0     		beq	.L51
 517 0228 002B     		cmp	r3, #0
 518 022a 00D0     		beq	.L52
 223:QX_Protocol_App.c ****                 case DEFER:
 224:QX_Protocol_App.c ****                     focus_input_type = INPUT_CONTROL_LF_DEFER;
 225:QX_Protocol_App.c ****                     break;
 226:QX_Protocol_App.c ****                 case RATE:
 227:QX_Protocol_App.c ****                     focus_input_type = INPUT_CONTROL_LF_RATE;
 228:QX_Protocol_App.c ****                     break;
 229:QX_Protocol_App.c ****                 case ABSOLUTE:
 230:QX_Protocol_App.c ****                     focus_input_type = INPUT_CONTROL_LF_ABS;
 231:QX_Protocol_App.c ****                     break;
 232:QX_Protocol_App.c ****                 default:
 233:QX_Protocol_App.c ****                     break;
 519              		.loc 1 233 0
 520 022c 0BE0     		b	.L53
 521              	.L52:
 224:QX_Protocol_App.c ****                     break;
 522              		.loc 1 224 0
 523 022e 0023     		movs	r3, #0
 524 0230 87F83C30 		strb	r3, [r7, #60]
 225:QX_Protocol_App.c ****                 case RATE:
 525              		.loc 1 225 0
 526 0234 07E0     		b	.L53
 527              	.L50:
 227:QX_Protocol_App.c ****                     break;
 528              		.loc 1 227 0
 529 0236 1023     		movs	r3, #16
 530 0238 87F83C30 		strb	r3, [r7, #60]
 228:QX_Protocol_App.c ****                 case ABSOLUTE:
 531              		.loc 1 228 0
 532 023c 03E0     		b	.L53
ARM GAS  C:\Users\JENNEW~1\AppData\Local\Temp\cczRVhUZ.s 			page 15


 533              	.L51:
 230:QX_Protocol_App.c ****                     break;
 534              		.loc 1 230 0
 535 023e 2023     		movs	r3, #32
 536 0240 87F83C30 		strb	r3, [r7, #60]
 231:QX_Protocol_App.c ****                 default:
 537              		.loc 1 231 0
 538 0244 00BF     		nop
 539              	.L53:
 234:QX_Protocol_App.c ****             };
 235:QX_Protocol_App.c **** 
 236:QX_Protocol_App.c ****             uint8_t iris_input_type;
 237:QX_Protocol_App.c ****             switch (FreeflyAPI.control.iris.type) {
 540              		.loc 1 237 0
 541 0246 224B     		ldr	r3, .L131+4
 542 0248 93F83430 		ldrb	r3, [r3, #52]	@ zero_extendqisi2
 543 024c 012B     		cmp	r3, #1
 544 024e 08D0     		beq	.L55
 545 0250 022B     		cmp	r3, #2
 546 0252 0AD0     		beq	.L56
 547 0254 002B     		cmp	r3, #0
 548 0256 00D0     		beq	.L57
 238:QX_Protocol_App.c ****                 case DEFER:
 239:QX_Protocol_App.c ****                     iris_input_type = INPUT_CONTROL_LI_DEFER;
 240:QX_Protocol_App.c ****                     break;
 241:QX_Protocol_App.c ****                 case RATE:
 242:QX_Protocol_App.c ****                     iris_input_type = INPUT_CONTROL_LI_RATE;
 243:QX_Protocol_App.c ****                     break;
 244:QX_Protocol_App.c ****                 case ABSOLUTE:
 245:QX_Protocol_App.c ****                     iris_input_type = INPUT_CONTROL_LI_ABS;
 246:QX_Protocol_App.c ****                     break;
 247:QX_Protocol_App.c ****                 default:
 248:QX_Protocol_App.c ****                     break;
 549              		.loc 1 248 0
 550 0258 0BE0     		b	.L58
 551              	.L57:
 239:QX_Protocol_App.c ****                     break;
 552              		.loc 1 239 0
 553 025a 0023     		movs	r3, #0
 554 025c 87F83B30 		strb	r3, [r7, #59]
 240:QX_Protocol_App.c ****                 case RATE:
 555              		.loc 1 240 0
 556 0260 07E0     		b	.L58
 557              	.L55:
 242:QX_Protocol_App.c ****                     break;
 558              		.loc 1 242 0
 559 0262 0423     		movs	r3, #4
 560 0264 87F83B30 		strb	r3, [r7, #59]
 243:QX_Protocol_App.c ****                 case ABSOLUTE:
 561              		.loc 1 243 0
 562 0268 03E0     		b	.L58
 563              	.L56:
 245:QX_Protocol_App.c ****                     break;
 564              		.loc 1 245 0
 565 026a 0823     		movs	r3, #8
 566 026c 87F83B30 		strb	r3, [r7, #59]
 246:QX_Protocol_App.c ****                 default:
ARM GAS  C:\Users\JENNEW~1\AppData\Local\Temp\cczRVhUZ.s 			page 16


 567              		.loc 1 246 0
 568 0270 00BF     		nop
 569              	.L58:
 249:QX_Protocol_App.c ****             };
 250:QX_Protocol_App.c ****             
 251:QX_Protocol_App.c ****             uint8_t zoom_input_type;
 252:QX_Protocol_App.c ****             switch (FreeflyAPI.control.zoom.type) {
 570              		.loc 1 252 0
 571 0272 174B     		ldr	r3, .L131+4
 572 0274 93F83C30 		ldrb	r3, [r3, #60]	@ zero_extendqisi2
 573 0278 012B     		cmp	r3, #1
 574 027a 08D0     		beq	.L60
 575 027c 022B     		cmp	r3, #2
 576 027e 0AD0     		beq	.L61
 577 0280 002B     		cmp	r3, #0
 578 0282 00D0     		beq	.L62
 253:QX_Protocol_App.c ****                 case DEFER:
 254:QX_Protocol_App.c ****                     zoom_input_type = INPUT_CONTROL_LZ_DEFER;
 255:QX_Protocol_App.c ****                     break;
 256:QX_Protocol_App.c ****                 case RATE:
 257:QX_Protocol_App.c ****                     zoom_input_type = INPUT_CONTROL_LZ_RATE;
 258:QX_Protocol_App.c ****                     break;
 259:QX_Protocol_App.c ****                 case ABSOLUTE:
 260:QX_Protocol_App.c ****                     zoom_input_type = INPUT_CONTROL_LZ_ABS;
 261:QX_Protocol_App.c ****                     break;
 262:QX_Protocol_App.c ****                 default:
 263:QX_Protocol_App.c ****                     break;
 579              		.loc 1 263 0
 580 0284 0BE0     		b	.L63
 581              	.L62:
 254:QX_Protocol_App.c ****                     break;
 582              		.loc 1 254 0
 583 0286 0023     		movs	r3, #0
 584 0288 87F83A30 		strb	r3, [r7, #58]
 255:QX_Protocol_App.c ****                 case RATE:
 585              		.loc 1 255 0
 586 028c 07E0     		b	.L63
 587              	.L60:
 257:QX_Protocol_App.c ****                     break;
 588              		.loc 1 257 0
 589 028e 0123     		movs	r3, #1
 590 0290 87F83A30 		strb	r3, [r7, #58]
 258:QX_Protocol_App.c ****                 case ABSOLUTE:
 591              		.loc 1 258 0
 592 0294 03E0     		b	.L63
 593              	.L61:
 260:QX_Protocol_App.c ****                     break;
 594              		.loc 1 260 0
 595 0296 0223     		movs	r3, #2
 596 0298 87F83A30 		strb	r3, [r7, #58]
 261:QX_Protocol_App.c ****                 default:
 597              		.loc 1 261 0
 598 029c 00BF     		nop
 599              	.L63:
 264:QX_Protocol_App.c ****             };
 265:QX_Protocol_App.c **** 			
 266:QX_Protocol_App.c **** 			temp_UC_buffer[0] = focus_input_type | iris_input_type | zoom_input_type;
ARM GAS  C:\Users\JENNEW~1\AppData\Local\Temp\cczRVhUZ.s 			page 17


 600              		.loc 1 266 0
 601 029e 97F83C20 		ldrb	r2, [r7, #60]
 602 02a2 97F83B30 		ldrb	r3, [r7, #59]
 603 02a6 1343     		orrs	r3, r3, r2
 604 02a8 DAB2     		uxtb	r2, r3
 605 02aa 97F83A30 		ldrb	r3, [r7, #58]
 606 02ae 1343     		orrs	r3, r3, r2
 607 02b0 DBB2     		uxtb	r3, r3
 608 02b2 87F83030 		strb	r3, [r7, #48]
 267:QX_Protocol_App.c **** 			PARSE_UC_AS_UC(temp_UC_buffer, 1, 0xFF, 0);
 609              		.loc 1 267 0
 610 02b6 054B     		ldr	r3, .L131
 611 02b8 1B78     		ldrb	r3, [r3]	@ zero_extendqisi2
 612 02ba 002B     		cmp	r3, #0
 613 02bc 18D1     		bne	.L64
 614              		.loc 1 267 0 is_stmt 0 discriminator 1
 615 02be 07F13003 		add	r3, r7, #48
 616 02c2 0121     		movs	r1, #1
 617 02c4 1846     		mov	r0, r3
 618 02c6 FFF7FEFF 		bl	AddUnsignedCharAsUnsignedChar
 619 02ca 18E0     		b	.L65
 620              	.L132:
 621              		.align	2
 622              	.L131:
 623 02cc 00000000 		.word	rw
 624 02d0 00000000 		.word	FreeflyAPI
 625 02d4 00FEFF46 		.word	1191181824
 626 02d8 20000000 		.word	FreeflyAPI+32
 627 02dc 00010038 		.word	939524352
 628 02e0 00FEFFC6 		.word	-956301824
 629 02e4 18000000 		.word	FreeflyAPI+24
 630 02e8 10000000 		.word	FreeflyAPI+16
 631 02ec 00FF7F47 		.word	1199570688
 632              	.L64:
 633              		.loc 1 267 0 discriminator 2
 634 02f0 07F13000 		add	r0, r7, #48
 635 02f4 0023     		movs	r3, #0
 636 02f6 FF22     		movs	r2, #255
 637 02f8 0121     		movs	r1, #1
 638 02fa FFF7FEFF 		bl	GetUnsignedCharAsUnsignedChar
 639              	.L65:
 268:QX_Protocol_App.c **** 			
 269:QX_Protocol_App.c **** 			// Control Lens Axes
 270:QX_Protocol_App.c **** 			temp_US_buffer[0] = FreeflyAPI.control.focus.value * (0xFFFF / 2) + (0xFFFF / 2);
 640              		.loc 1 270 0 is_stmt 1
 641 02fe AF4B     		ldr	r3, .L133
 642 0300 9B6A     		ldr	r3, [r3, #40]	@ float
 643 0302 AF49     		ldr	r1, .L133+4
 644 0304 1846     		mov	r0, r3
 645 0306 FFF7FEFF 		bl	__aeabi_fmul
 646 030a 0346     		mov	r3, r0
 647 030c AC49     		ldr	r1, .L133+4
 648 030e 1846     		mov	r0, r3
 649 0310 FFF7FEFF 		bl	__aeabi_fadd
 650 0314 0346     		mov	r3, r0
 651 0316 1846     		mov	r0, r3
 652 0318 FFF7FEFF 		bl	__aeabi_f2uiz
ARM GAS  C:\Users\JENNEW~1\AppData\Local\Temp\cczRVhUZ.s 			page 18


 653 031c 0346     		mov	r3, r0
 654 031e 9BB2     		uxth	r3, r3
 655 0320 3B81     		strh	r3, [r7, #8]	@ movhi
 271:QX_Protocol_App.c **** 			temp_US_buffer[1] = FreeflyAPI.control.iris.value * (0xFFFF / 2) + (0xFFFF / 2);
 656              		.loc 1 271 0
 657 0322 A64B     		ldr	r3, .L133
 658 0324 1B6B     		ldr	r3, [r3, #48]	@ float
 659 0326 A649     		ldr	r1, .L133+4
 660 0328 1846     		mov	r0, r3
 661 032a FFF7FEFF 		bl	__aeabi_fmul
 662 032e 0346     		mov	r3, r0
 663 0330 A349     		ldr	r1, .L133+4
 664 0332 1846     		mov	r0, r3
 665 0334 FFF7FEFF 		bl	__aeabi_fadd
 666 0338 0346     		mov	r3, r0
 667 033a 1846     		mov	r0, r3
 668 033c FFF7FEFF 		bl	__aeabi_f2uiz
 669 0340 0346     		mov	r3, r0
 670 0342 9BB2     		uxth	r3, r3
 671 0344 7B81     		strh	r3, [r7, #10]	@ movhi
 272:QX_Protocol_App.c **** 			temp_US_buffer[2] = FreeflyAPI.control.zoom.value * (0xFFFF / 2) + (0xFFFF / 2);
 672              		.loc 1 272 0
 673 0346 9D4B     		ldr	r3, .L133
 674 0348 9B6B     		ldr	r3, [r3, #56]	@ float
 675 034a 9D49     		ldr	r1, .L133+4
 676 034c 1846     		mov	r0, r3
 677 034e FFF7FEFF 		bl	__aeabi_fmul
 678 0352 0346     		mov	r3, r0
 679 0354 9A49     		ldr	r1, .L133+4
 680 0356 1846     		mov	r0, r3
 681 0358 FFF7FEFF 		bl	__aeabi_fadd
 682 035c 0346     		mov	r3, r0
 683 035e 1846     		mov	r0, r3
 684 0360 FFF7FEFF 		bl	__aeabi_f2uiz
 685 0364 0346     		mov	r3, r0
 686 0366 9BB2     		uxth	r3, r3
 687 0368 BB81     		strh	r3, [r7, #12]	@ movhi
 273:QX_Protocol_App.c **** 			PARSE_US_AS_US(temp_US_buffer, 3, 0xFFFF, 0);
 688              		.loc 1 273 0
 689 036a 964B     		ldr	r3, .L133+8
 690 036c 1B78     		ldrb	r3, [r3]	@ zero_extendqisi2
 691 036e 002B     		cmp	r3, #0
 692 0370 06D1     		bne	.L66
 693              		.loc 1 273 0 is_stmt 0 discriminator 1
 694 0372 07F10803 		add	r3, r7, #8
 695 0376 0321     		movs	r1, #3
 696 0378 1846     		mov	r0, r3
 697 037a FFF7FEFF 		bl	AddUnsignedShortAsUnsignedShort
 698 037e 07E0     		b	.L67
 699              	.L66:
 700              		.loc 1 273 0 discriminator 2
 701 0380 07F10800 		add	r0, r7, #8
 702 0384 0023     		movs	r3, #0
 703 0386 4FF6FF72 		movw	r2, #65535
 704 038a 0321     		movs	r1, #3
 705 038c FFF7FEFF 		bl	GetUnsignedShortAsUnsignedShort
 706              	.L67:
ARM GAS  C:\Users\JENNEW~1\AppData\Local\Temp\cczRVhUZ.s 			page 19


 274:QX_Protocol_App.c **** 			
 275:QX_Protocol_App.c **** 			// Auxiliary digital control bytes
 276:QX_Protocol_App.c **** 			PARSE_BITS_AS_UC(&FreeflyAPI.control.fiz_clearFaults_all_flag, 0, 1);
 707              		.loc 1 276 0 is_stmt 1
 708 0390 8C4B     		ldr	r3, .L133+8
 709 0392 1B78     		ldrb	r3, [r3]	@ zero_extendqisi2
 710 0394 002B     		cmp	r3, #0
 711 0396 05D1     		bne	.L68
 712              		.loc 1 276 0 is_stmt 0 discriminator 1
 713 0398 0122     		movs	r2, #1
 714 039a 0021     		movs	r1, #0
 715 039c 8A48     		ldr	r0, .L133+12
 716 039e FFF7FEFF 		bl	AddBitsAsByte
 717 03a2 04E0     		b	.L69
 718              	.L68:
 719              		.loc 1 276 0 discriminator 2
 720 03a4 0122     		movs	r2, #1
 721 03a6 0021     		movs	r1, #0
 722 03a8 8748     		ldr	r0, .L133+12
 723 03aa FFF7FEFF 		bl	GetBitsAsByte
 724              	.L69:
 277:QX_Protocol_App.c **** 			PARSE_BITS_AS_UC(&FreeflyAPI.control.fiz_autoCalStart_all_flag, 1, 1);
 725              		.loc 1 277 0 is_stmt 1
 726 03ae 854B     		ldr	r3, .L133+8
 727 03b0 1B78     		ldrb	r3, [r3]	@ zero_extendqisi2
 728 03b2 002B     		cmp	r3, #0
 729 03b4 05D1     		bne	.L70
 730              		.loc 1 277 0 is_stmt 0 discriminator 1
 731 03b6 0122     		movs	r2, #1
 732 03b8 0121     		movs	r1, #1
 733 03ba 8448     		ldr	r0, .L133+16
 734 03bc FFF7FEFF 		bl	AddBitsAsByte
 735 03c0 04E0     		b	.L71
 736              	.L70:
 737              		.loc 1 277 0 discriminator 2
 738 03c2 0122     		movs	r2, #1
 739 03c4 0121     		movs	r1, #1
 740 03c6 8148     		ldr	r0, .L133+16
 741 03c8 FFF7FEFF 		bl	GetBitsAsByte
 742              	.L71:
 278:QX_Protocol_App.c **** 			PARSE_BITS_AS_UC(&FreeflyAPI.control.fiz_record_button_flag, 4, 1);
 743              		.loc 1 278 0 is_stmt 1
 744 03cc 7D4B     		ldr	r3, .L133+8
 745 03ce 1B78     		ldrb	r3, [r3]	@ zero_extendqisi2
 746 03d0 002B     		cmp	r3, #0
 747 03d2 05D1     		bne	.L72
 748              		.loc 1 278 0 is_stmt 0 discriminator 1
 749 03d4 0122     		movs	r2, #1
 750 03d6 0421     		movs	r1, #4
 751 03d8 7D48     		ldr	r0, .L133+20
 752 03da FFF7FEFF 		bl	AddBitsAsByte
 753 03de 04E0     		b	.L73
 754              	.L72:
 755              		.loc 1 278 0 discriminator 2
 756 03e0 0122     		movs	r2, #1
 757 03e2 0421     		movs	r1, #4
 758 03e4 7A48     		ldr	r0, .L133+20
ARM GAS  C:\Users\JENNEW~1\AppData\Local\Temp\cczRVhUZ.s 			page 20


 759 03e6 FFF7FEFF 		bl	GetBitsAsByte
 760              	.L73:
 279:QX_Protocol_App.c **** 			PARSE_BITS_AS_UC(&FreeflyAPI.control.fiz_setSubRangeLim_F_flag, 5, 1);
 761              		.loc 1 279 0 is_stmt 1
 762 03ea 764B     		ldr	r3, .L133+8
 763 03ec 1B78     		ldrb	r3, [r3]	@ zero_extendqisi2
 764 03ee 002B     		cmp	r3, #0
 765 03f0 05D1     		bne	.L74
 766              		.loc 1 279 0 is_stmt 0 discriminator 1
 767 03f2 0122     		movs	r2, #1
 768 03f4 0521     		movs	r1, #5
 769 03f6 7748     		ldr	r0, .L133+24
 770 03f8 FFF7FEFF 		bl	AddBitsAsByte
 771 03fc 04E0     		b	.L75
 772              	.L74:
 773              		.loc 1 279 0 discriminator 2
 774 03fe 0122     		movs	r2, #1
 775 0400 0521     		movs	r1, #5
 776 0402 7448     		ldr	r0, .L133+24
 777 0404 FFF7FEFF 		bl	GetBitsAsByte
 778              	.L75:
 280:QX_Protocol_App.c **** 			PARSE_BITS_AS_UC(&FreeflyAPI.control.fiz_setSubRangeLim_I_flag, 6, 1);
 779              		.loc 1 280 0 is_stmt 1
 780 0408 6E4B     		ldr	r3, .L133+8
 781 040a 1B78     		ldrb	r3, [r3]	@ zero_extendqisi2
 782 040c 002B     		cmp	r3, #0
 783 040e 05D1     		bne	.L76
 784              		.loc 1 280 0 is_stmt 0 discriminator 1
 785 0410 0122     		movs	r2, #1
 786 0412 0621     		movs	r1, #6
 787 0414 7048     		ldr	r0, .L133+28
 788 0416 FFF7FEFF 		bl	AddBitsAsByte
 789 041a 04E0     		b	.L77
 790              	.L76:
 791              		.loc 1 280 0 discriminator 2
 792 041c 0122     		movs	r2, #1
 793 041e 0621     		movs	r1, #6
 794 0420 6D48     		ldr	r0, .L133+28
 795 0422 FFF7FEFF 		bl	GetBitsAsByte
 796              	.L77:
 281:QX_Protocol_App.c **** 			PARSE_BITS_AS_UC(&FreeflyAPI.control.fiz_setSubRangeLim_Z_flag, 7, 1);
 797              		.loc 1 281 0 is_stmt 1
 798 0426 674B     		ldr	r3, .L133+8
 799 0428 1B78     		ldrb	r3, [r3]	@ zero_extendqisi2
 800 042a 002B     		cmp	r3, #0
 801 042c 05D1     		bne	.L78
 802              		.loc 1 281 0 is_stmt 0 discriminator 1
 803 042e 0122     		movs	r2, #1
 804 0430 0721     		movs	r1, #7
 805 0432 6A48     		ldr	r0, .L133+32
 806 0434 FFF7FEFF 		bl	AddBitsAsByte
 807 0438 04E0     		b	.L79
 808              	.L78:
 809              		.loc 1 281 0 discriminator 2
 810 043a 0122     		movs	r2, #1
 811 043c 0721     		movs	r1, #7
 812 043e 6748     		ldr	r0, .L133+32
ARM GAS  C:\Users\JENNEW~1\AppData\Local\Temp\cczRVhUZ.s 			page 21


 813 0440 FFF7FEFF 		bl	GetBitsAsByte
 814              	.L79:
 282:QX_Protocol_App.c **** 			QX_Parser_AdvMsgPtr();
 815              		.loc 1 282 0 is_stmt 1
 816 0444 FFF7FEFF 		bl	QX_Parser_AdvMsgPtr
 283:QX_Protocol_App.c **** 			
 284:QX_Protocol_App.c **** 			// Reserved for Freefly Use
 285:QX_Protocol_App.c **** 			temp_UC_buffer[0] = 0;
 817              		.loc 1 285 0
 818 0448 0023     		movs	r3, #0
 819 044a 87F83030 		strb	r3, [r7, #48]
 286:QX_Protocol_App.c **** 			PARSE_UC_AS_UC(temp_UC_buffer, 1, 0xFF, 0);
 820              		.loc 1 286 0
 821 044e 5D4B     		ldr	r3, .L133+8
 822 0450 1B78     		ldrb	r3, [r3]	@ zero_extendqisi2
 823 0452 002B     		cmp	r3, #0
 824 0454 06D1     		bne	.L80
 825              		.loc 1 286 0 is_stmt 0 discriminator 1
 826 0456 07F13003 		add	r3, r7, #48
 827 045a 0121     		movs	r1, #1
 828 045c 1846     		mov	r0, r3
 829 045e FFF7FEFF 		bl	AddUnsignedCharAsUnsignedChar
 287:QX_Protocol_App.c **** 			
 288:QX_Protocol_App.c **** 			break;
 830              		.loc 1 288 0 is_stmt 1 discriminator 1
 831 0462 B0E1     		b	.L17
 832              	.L80:
 286:QX_Protocol_App.c **** 			PARSE_UC_AS_UC(temp_UC_buffer, 1, 0xFF, 0);
 833              		.loc 1 286 0 discriminator 2
 834 0464 07F13000 		add	r0, r7, #48
 835 0468 0023     		movs	r3, #0
 836 046a FF22     		movs	r2, #255
 837 046c 0121     		movs	r1, #1
 838 046e FFF7FEFF 		bl	GetUnsignedCharAsUnsignedChar
 839              		.loc 1 288 0 discriminator 2
 840 0472 A8E1     		b	.L17
 841              	.L15:
 289:QX_Protocol_App.c **** 		
 290:QX_Protocol_App.c **** 		case 287: // Status GTL, Combined Status, (RX,RY,RZ)-(TX,TY,TZ)-(LF,LI,LZ)  
 291:QX_Protocol_App.c **** 
 292:QX_Protocol_App.c **** 			// Bail if not receiving current value.
 293:QX_Protocol_App.c **** 			if(Msg_p->Parse_Type != QX_PARSE_TYPE_CURVAL_RECV) break;
 842              		.loc 1 293 0
 843 0474 7B68     		ldr	r3, [r7, #4]
 844 0476 1B78     		ldrb	r3, [r3]	@ zero_extendqisi2
 845 0478 012B     		cmp	r3, #1
 846 047a 40F0A381 		bne	.L130
 294:QX_Protocol_App.c **** 			
 295:QX_Protocol_App.c **** 			// reserved
 296:QX_Protocol_App.c **** 			PARSE_UC_AS_UC(temp_UC_buffer, 3, 0xFF, 0);
 847              		.loc 1 296 0
 848 047e 514B     		ldr	r3, .L133+8
 849 0480 1B78     		ldrb	r3, [r3]	@ zero_extendqisi2
 850 0482 002B     		cmp	r3, #0
 851 0484 06D1     		bne	.L83
 852              		.loc 1 296 0 is_stmt 0 discriminator 1
 853 0486 07F13003 		add	r3, r7, #48
ARM GAS  C:\Users\JENNEW~1\AppData\Local\Temp\cczRVhUZ.s 			page 22


 854 048a 0321     		movs	r1, #3
 855 048c 1846     		mov	r0, r3
 856 048e FFF7FEFF 		bl	AddUnsignedCharAsUnsignedChar
 857 0492 06E0     		b	.L84
 858              	.L83:
 859              		.loc 1 296 0 discriminator 2
 860 0494 07F13000 		add	r0, r7, #48
 861 0498 0023     		movs	r3, #0
 862 049a FF22     		movs	r2, #255
 863 049c 0321     		movs	r1, #3
 864 049e FFF7FEFF 		bl	GetUnsignedCharAsUnsignedChar
 865              	.L84:
 297:QX_Protocol_App.c **** 			
 298:QX_Protocol_App.c **** 			// Battery voltages
 299:QX_Protocol_App.c **** 			PARSE_UC_AS_UC(temp_UC_buffer, 2, 0xFF, 0);
 866              		.loc 1 299 0 is_stmt 1
 867 04a2 484B     		ldr	r3, .L133+8
 868 04a4 1B78     		ldrb	r3, [r3]	@ zero_extendqisi2
 869 04a6 002B     		cmp	r3, #0
 870 04a8 06D1     		bne	.L85
 871              		.loc 1 299 0 is_stmt 0 discriminator 1
 872 04aa 07F13003 		add	r3, r7, #48
 873 04ae 0221     		movs	r1, #2
 874 04b0 1846     		mov	r0, r3
 875 04b2 FFF7FEFF 		bl	AddUnsignedCharAsUnsignedChar
 876 04b6 06E0     		b	.L86
 877              	.L85:
 878              		.loc 1 299 0 discriminator 2
 879 04b8 07F13000 		add	r0, r7, #48
 880 04bc 0023     		movs	r3, #0
 881 04be FF22     		movs	r2, #255
 882 04c0 0221     		movs	r1, #2
 883 04c2 FFF7FEFF 		bl	GetUnsignedCharAsUnsignedChar
 884              	.L86:
 300:QX_Protocol_App.c **** 			FreeflyAPI.status.battery_v_left = ((float)temp_UC_buffer[0] * 0.1f) + 10.0f;
 885              		.loc 1 300 0 is_stmt 1
 886 04c6 97F83030 		ldrb	r3, [r7, #48]	@ zero_extendqisi2
 887 04ca 1846     		mov	r0, r3
 888 04cc FFF7FEFF 		bl	__aeabi_ui2f
 889 04d0 0346     		mov	r3, r0
 890 04d2 4349     		ldr	r1, .L133+36
 891 04d4 1846     		mov	r0, r3
 892 04d6 FFF7FEFF 		bl	__aeabi_fmul
 893 04da 0346     		mov	r3, r0
 894 04dc 4149     		ldr	r1, .L133+40
 895 04de 1846     		mov	r0, r3
 896 04e0 FFF7FEFF 		bl	__aeabi_fadd
 897 04e4 0346     		mov	r3, r0
 898 04e6 1A46     		mov	r2, r3
 899 04e8 344B     		ldr	r3, .L133
 900 04ea 9A64     		str	r2, [r3, #72]	@ float
 301:QX_Protocol_App.c **** 			FreeflyAPI.status.battery_v_right = ((float)temp_UC_buffer[1] * 0.1f) + 10.0f;
 901              		.loc 1 301 0
 902 04ec 97F83130 		ldrb	r3, [r7, #49]	@ zero_extendqisi2
 903 04f0 1846     		mov	r0, r3
 904 04f2 FFF7FEFF 		bl	__aeabi_ui2f
 905 04f6 0346     		mov	r3, r0
ARM GAS  C:\Users\JENNEW~1\AppData\Local\Temp\cczRVhUZ.s 			page 23


 906 04f8 3949     		ldr	r1, .L133+36
 907 04fa 1846     		mov	r0, r3
 908 04fc FFF7FEFF 		bl	__aeabi_fmul
 909 0500 0346     		mov	r3, r0
 910 0502 3849     		ldr	r1, .L133+40
 911 0504 1846     		mov	r0, r3
 912 0506 FFF7FEFF 		bl	__aeabi_fadd
 913 050a 0346     		mov	r3, r0
 914 050c 1A46     		mov	r2, r3
 915 050e 2B4B     		ldr	r3, .L133
 916 0510 DA64     		str	r2, [r3, #76]	@ float
 302:QX_Protocol_App.c **** 			if (FreeflyAPI.status.battery_v_left == 10.0f) FreeflyAPI.status.battery_v_left = 0;
 917              		.loc 1 302 0
 918 0512 2A4B     		ldr	r3, .L133
 919 0514 9B6C     		ldr	r3, [r3, #72]	@ float
 920 0516 3349     		ldr	r1, .L133+40
 921 0518 1846     		mov	r0, r3
 922 051a FFF7FEFF 		bl	__aeabi_fcmpeq
 923 051e 0346     		mov	r3, r0
 924 0520 002B     		cmp	r3, #0
 925 0522 03D0     		beq	.L87
 926              		.loc 1 302 0 is_stmt 0 discriminator 1
 927 0524 254B     		ldr	r3, .L133
 928 0526 4FF00002 		mov	r2, #0
 929 052a 9A64     		str	r2, [r3, #72]	@ float
 930              	.L87:
 303:QX_Protocol_App.c **** 			if (FreeflyAPI.status.battery_v_right == 10.0f) FreeflyAPI.status.battery_v_right = 0;
 931              		.loc 1 303 0 is_stmt 1
 932 052c 234B     		ldr	r3, .L133
 933 052e DB6C     		ldr	r3, [r3, #76]	@ float
 934 0530 2C49     		ldr	r1, .L133+40
 935 0532 1846     		mov	r0, r3
 936 0534 FFF7FEFF 		bl	__aeabi_fcmpeq
 937 0538 0346     		mov	r3, r0
 938 053a 002B     		cmp	r3, #0
 939 053c 03D0     		beq	.L89
 940              		.loc 1 303 0 is_stmt 0 discriminator 1
 941 053e 1F4B     		ldr	r3, .L133
 942 0540 4FF00002 		mov	r2, #0
 943 0544 DA64     		str	r2, [r3, #76]	@ float
 944              	.L89:
 304:QX_Protocol_App.c **** 		
 305:QX_Protocol_App.c **** 			// Gimbal status
 306:QX_Protocol_App.c **** 			PARSE_UC_AS_UC(&FreeflyAPI.status.gimbal_Status1, 1, 0xFF, 0);
 945              		.loc 1 306 0 is_stmt 1
 946 0546 1F4B     		ldr	r3, .L133+8
 947 0548 1B78     		ldrb	r3, [r3]	@ zero_extendqisi2
 948 054a 002B     		cmp	r3, #0
 949 054c 04D1     		bne	.L91
 950              		.loc 1 306 0 is_stmt 0 discriminator 1
 951 054e 0121     		movs	r1, #1
 952 0550 2548     		ldr	r0, .L133+44
 953 0552 FFF7FEFF 		bl	AddUnsignedCharAsUnsignedChar
 954 0556 05E0     		b	.L92
 955              	.L91:
 956              		.loc 1 306 0 discriminator 2
 957 0558 0023     		movs	r3, #0
ARM GAS  C:\Users\JENNEW~1\AppData\Local\Temp\cczRVhUZ.s 			page 24


 958 055a FF22     		movs	r2, #255
 959 055c 0121     		movs	r1, #1
 960 055e 2248     		ldr	r0, .L133+44
 961 0560 FFF7FEFF 		bl	GetUnsignedCharAsUnsignedChar
 962              	.L92:
 307:QX_Protocol_App.c **** 			PARSE_UC_AS_UC(&FreeflyAPI.status.gimbal_Status2, 1, 0xFF, 0);
 963              		.loc 1 307 0 is_stmt 1
 964 0564 174B     		ldr	r3, .L133+8
 965 0566 1B78     		ldrb	r3, [r3]	@ zero_extendqisi2
 966 0568 002B     		cmp	r3, #0
 967 056a 04D1     		bne	.L93
 968              		.loc 1 307 0 is_stmt 0 discriminator 1
 969 056c 0121     		movs	r1, #1
 970 056e 1F48     		ldr	r0, .L133+48
 971 0570 FFF7FEFF 		bl	AddUnsignedCharAsUnsignedChar
 972 0574 05E0     		b	.L94
 973              	.L93:
 974              		.loc 1 307 0 discriminator 2
 975 0576 0023     		movs	r3, #0
 976 0578 FF22     		movs	r2, #255
 977 057a 0121     		movs	r1, #1
 978 057c 1B48     		ldr	r0, .L133+48
 979 057e FFF7FEFF 		bl	GetUnsignedCharAsUnsignedChar
 980              	.L94:
 308:QX_Protocol_App.c **** 			
 309:QX_Protocol_App.c **** 			// Gimbal attitude quaternion
 310:QX_Protocol_App.c **** 			PARSE_FL_AS_SS(&FreeflyAPI.status.gimbal_r, 1, 32767.0f, -32767.0f, 32767.0f);
 981              		.loc 1 310 0 is_stmt 1
 982 0582 104B     		ldr	r3, .L133+8
 983 0584 1B78     		ldrb	r3, [r3]	@ zero_extendqisi2
 984 0586 002B     		cmp	r3, #0
 985 0588 05D1     		bne	.L95
 986              		.loc 1 310 0 is_stmt 0 discriminator 1
 987 058a 0D4A     		ldr	r2, .L133+4
 988 058c 0121     		movs	r1, #1
 989 058e 1848     		ldr	r0, .L133+52
 990 0590 FFF7FEFF 		bl	AddFloatAsSignedShort
 991 0594 07E0     		b	.L96
 992              	.L95:
 993              		.loc 1 310 0 discriminator 2
 994 0596 174B     		ldr	r3, .L133+56
 995 0598 0093     		str	r3, [sp]	@ float
 996 059a 174B     		ldr	r3, .L133+60
 997 059c 084A     		ldr	r2, .L133+4
 998 059e 0121     		movs	r1, #1
 999 05a0 1348     		ldr	r0, .L133+52
 1000 05a2 FFF7FEFF 		bl	GetFloatAsSignedShort
 1001              	.L96:
 311:QX_Protocol_App.c **** 			PARSE_FL_AS_SS(&FreeflyAPI.status.gimbal_i, 1, 32767.0f, -32767.0f, 32767.0f);
 1002              		.loc 1 311 0 is_stmt 1
 1003 05a6 074B     		ldr	r3, .L133+8
 1004 05a8 1B78     		ldrb	r3, [r3]	@ zero_extendqisi2
 1005 05aa 002B     		cmp	r3, #0
 1006 05ac 28D1     		bne	.L97
 1007              		.loc 1 311 0 is_stmt 0 discriminator 1
 1008 05ae 044A     		ldr	r2, .L133+4
 1009 05b0 0121     		movs	r1, #1
ARM GAS  C:\Users\JENNEW~1\AppData\Local\Temp\cczRVhUZ.s 			page 25


 1010 05b2 1248     		ldr	r0, .L133+64
 1011 05b4 FFF7FEFF 		bl	AddFloatAsSignedShort
 1012 05b8 2AE0     		b	.L98
 1013              	.L134:
 1014 05ba 00BF     		.align	2
 1015              	.L133:
 1016 05bc 00000000 		.word	FreeflyAPI
 1017 05c0 00FEFF46 		.word	1191181824
 1018 05c4 00000000 		.word	rw
 1019 05c8 40000000 		.word	FreeflyAPI+64
 1020 05cc 41000000 		.word	FreeflyAPI+65
 1021 05d0 42000000 		.word	FreeflyAPI+66
 1022 05d4 43000000 		.word	FreeflyAPI+67
 1023 05d8 44000000 		.word	FreeflyAPI+68
 1024 05dc 45000000 		.word	FreeflyAPI+69
 1025 05e0 CDCCCC3D 		.word	1036831949
 1026 05e4 00002041 		.word	1092616192
 1027 05e8 50000000 		.word	FreeflyAPI+80
 1028 05ec 51000000 		.word	FreeflyAPI+81
 1029 05f0 60000000 		.word	FreeflyAPI+96
 1030 05f4 00010038 		.word	939524352
 1031 05f8 00FEFFC6 		.word	-956301824
 1032 05fc 54000000 		.word	FreeflyAPI+84
 1033              	.L97:
 1034              		.loc 1 311 0 discriminator 2
 1035 0600 744B     		ldr	r3, .L135
 1036 0602 0093     		str	r3, [sp]	@ float
 1037 0604 744B     		ldr	r3, .L135+4
 1038 0606 754A     		ldr	r2, .L135+8
 1039 0608 0121     		movs	r1, #1
 1040 060a 7548     		ldr	r0, .L135+12
 1041 060c FFF7FEFF 		bl	GetFloatAsSignedShort
 1042              	.L98:
 312:QX_Protocol_App.c **** 			PARSE_FL_AS_SS(&FreeflyAPI.status.gimbal_j, 1, 32767.0f, -32767.0f, 32767.0f);
 1043              		.loc 1 312 0 is_stmt 1
 1044 0610 744B     		ldr	r3, .L135+16
 1045 0612 1B78     		ldrb	r3, [r3]	@ zero_extendqisi2
 1046 0614 002B     		cmp	r3, #0
 1047 0616 05D1     		bne	.L99
 1048              		.loc 1 312 0 is_stmt 0 discriminator 1
 1049 0618 704A     		ldr	r2, .L135+8
 1050 061a 0121     		movs	r1, #1
 1051 061c 7248     		ldr	r0, .L135+20
 1052 061e FFF7FEFF 		bl	AddFloatAsSignedShort
 1053 0622 07E0     		b	.L100
 1054              	.L99:
 1055              		.loc 1 312 0 discriminator 2
 1056 0624 6B4B     		ldr	r3, .L135
 1057 0626 0093     		str	r3, [sp]	@ float
 1058 0628 6B4B     		ldr	r3, .L135+4
 1059 062a 6C4A     		ldr	r2, .L135+8
 1060 062c 0121     		movs	r1, #1
 1061 062e 6E48     		ldr	r0, .L135+20
 1062 0630 FFF7FEFF 		bl	GetFloatAsSignedShort
 1063              	.L100:
 313:QX_Protocol_App.c **** 			PARSE_FL_AS_SS(&FreeflyAPI.status.gimbal_k, 1, 32767.0f, -32767.0f, 32767.0f);
 1064              		.loc 1 313 0 is_stmt 1
ARM GAS  C:\Users\JENNEW~1\AppData\Local\Temp\cczRVhUZ.s 			page 26


 1065 0634 6B4B     		ldr	r3, .L135+16
 1066 0636 1B78     		ldrb	r3, [r3]	@ zero_extendqisi2
 1067 0638 002B     		cmp	r3, #0
 1068 063a 05D1     		bne	.L101
 1069              		.loc 1 313 0 is_stmt 0 discriminator 1
 1070 063c 674A     		ldr	r2, .L135+8
 1071 063e 0121     		movs	r1, #1
 1072 0640 6A48     		ldr	r0, .L135+24
 1073 0642 FFF7FEFF 		bl	AddFloatAsSignedShort
 1074 0646 07E0     		b	.L102
 1075              	.L101:
 1076              		.loc 1 313 0 discriminator 2
 1077 0648 624B     		ldr	r3, .L135
 1078 064a 0093     		str	r3, [sp]	@ float
 1079 064c 624B     		ldr	r3, .L135+4
 1080 064e 634A     		ldr	r2, .L135+8
 1081 0650 0121     		movs	r1, #1
 1082 0652 6648     		ldr	r0, .L135+24
 1083 0654 FFF7FEFF 		bl	GetFloatAsSignedShort
 1084              	.L102:
 314:QX_Protocol_App.c **** 			
 315:QX_Protocol_App.c **** 			// reserved
 316:QX_Protocol_App.c **** 			PARSE_UC_AS_UC(temp_UC_buffer, 2, 0xFF, 0);
 1085              		.loc 1 316 0 is_stmt 1
 1086 0658 624B     		ldr	r3, .L135+16
 1087 065a 1B78     		ldrb	r3, [r3]	@ zero_extendqisi2
 1088 065c 002B     		cmp	r3, #0
 1089 065e 06D1     		bne	.L103
 1090              		.loc 1 316 0 is_stmt 0 discriminator 1
 1091 0660 07F13003 		add	r3, r7, #48
 1092 0664 0221     		movs	r1, #2
 1093 0666 1846     		mov	r0, r3
 1094 0668 FFF7FEFF 		bl	AddUnsignedCharAsUnsignedChar
 1095 066c 06E0     		b	.L104
 1096              	.L103:
 1097              		.loc 1 316 0 discriminator 2
 1098 066e 07F13000 		add	r0, r7, #48
 1099 0672 0023     		movs	r3, #0
 1100 0674 FF22     		movs	r2, #255
 1101 0676 0221     		movs	r1, #2
 1102 0678 FFF7FEFF 		bl	GetUnsignedCharAsUnsignedChar
 1103              	.L104:
 317:QX_Protocol_App.c **** 			
 318:QX_Protocol_App.c **** 			// fiz status
 319:QX_Protocol_App.c **** 			PARSE_BITS_AS_UC(&FreeflyAPI.status.focus_range_limits_active, 0, 1);
 1104              		.loc 1 319 0 is_stmt 1
 1105 067c 594B     		ldr	r3, .L135+16
 1106 067e 1B78     		ldrb	r3, [r3]	@ zero_extendqisi2
 1107 0680 002B     		cmp	r3, #0
 1108 0682 05D1     		bne	.L105
 1109              		.loc 1 319 0 is_stmt 0 discriminator 1
 1110 0684 0122     		movs	r2, #1
 1111 0686 0021     		movs	r1, #0
 1112 0688 5948     		ldr	r0, .L135+28
 1113 068a FFF7FEFF 		bl	AddBitsAsByte
 1114 068e 04E0     		b	.L106
 1115              	.L105:
ARM GAS  C:\Users\JENNEW~1\AppData\Local\Temp\cczRVhUZ.s 			page 27


 1116              		.loc 1 319 0 discriminator 2
 1117 0690 0122     		movs	r2, #1
 1118 0692 0021     		movs	r1, #0
 1119 0694 5648     		ldr	r0, .L135+28
 1120 0696 FFF7FEFF 		bl	GetBitsAsByte
 1121              	.L106:
 320:QX_Protocol_App.c **** 			PARSE_BITS_AS_UC(&FreeflyAPI.status.iris_range_limits_active, 1, 1);
 1122              		.loc 1 320 0 is_stmt 1
 1123 069a 524B     		ldr	r3, .L135+16
 1124 069c 1B78     		ldrb	r3, [r3]	@ zero_extendqisi2
 1125 069e 002B     		cmp	r3, #0
 1126 06a0 05D1     		bne	.L107
 1127              		.loc 1 320 0 is_stmt 0 discriminator 1
 1128 06a2 0122     		movs	r2, #1
 1129 06a4 0121     		movs	r1, #1
 1130 06a6 5348     		ldr	r0, .L135+32
 1131 06a8 FFF7FEFF 		bl	AddBitsAsByte
 1132 06ac 04E0     		b	.L108
 1133              	.L107:
 1134              		.loc 1 320 0 discriminator 2
 1135 06ae 0122     		movs	r2, #1
 1136 06b0 0121     		movs	r1, #1
 1137 06b2 5048     		ldr	r0, .L135+32
 1138 06b4 FFF7FEFF 		bl	GetBitsAsByte
 1139              	.L108:
 321:QX_Protocol_App.c **** 			PARSE_BITS_AS_UC(&FreeflyAPI.status.zoom_range_limits_active, 2, 1);
 1140              		.loc 1 321 0 is_stmt 1
 1141 06b8 4A4B     		ldr	r3, .L135+16
 1142 06ba 1B78     		ldrb	r3, [r3]	@ zero_extendqisi2
 1143 06bc 002B     		cmp	r3, #0
 1144 06be 05D1     		bne	.L109
 1145              		.loc 1 321 0 is_stmt 0 discriminator 1
 1146 06c0 0122     		movs	r2, #1
 1147 06c2 0221     		movs	r1, #2
 1148 06c4 4C48     		ldr	r0, .L135+36
 1149 06c6 FFF7FEFF 		bl	AddBitsAsByte
 1150 06ca 04E0     		b	.L110
 1151              	.L109:
 1152              		.loc 1 321 0 discriminator 2
 1153 06cc 0122     		movs	r2, #1
 1154 06ce 0221     		movs	r1, #2
 1155 06d0 4948     		ldr	r0, .L135+36
 1156 06d2 FFF7FEFF 		bl	GetBitsAsByte
 1157              	.L110:
 322:QX_Protocol_App.c **** 			QX_Parser_AdvMsgPtr();
 1158              		.loc 1 322 0 is_stmt 1
 1159 06d6 FFF7FEFF 		bl	QX_Parser_AdvMsgPtr
 323:QX_Protocol_App.c **** 			
 324:QX_Protocol_App.c **** 			// camera status
 325:QX_Protocol_App.c **** 			PARSE_BITS_AS_UC(&FreeflyAPI.status.camera_recording, 0, 1);
 1160              		.loc 1 325 0
 1161 06da 424B     		ldr	r3, .L135+16
 1162 06dc 1B78     		ldrb	r3, [r3]	@ zero_extendqisi2
 1163 06de 002B     		cmp	r3, #0
 1164 06e0 05D1     		bne	.L111
 1165              		.loc 1 325 0 is_stmt 0 discriminator 1
 1166 06e2 0122     		movs	r2, #1
ARM GAS  C:\Users\JENNEW~1\AppData\Local\Temp\cczRVhUZ.s 			page 28


 1167 06e4 0021     		movs	r1, #0
 1168 06e6 4548     		ldr	r0, .L135+40
 1169 06e8 FFF7FEFF 		bl	AddBitsAsByte
 1170 06ec 04E0     		b	.L112
 1171              	.L111:
 1172              		.loc 1 325 0 discriminator 2
 1173 06ee 0122     		movs	r2, #1
 1174 06f0 0021     		movs	r1, #0
 1175 06f2 4248     		ldr	r0, .L135+40
 1176 06f4 FFF7FEFF 		bl	GetBitsAsByte
 1177              	.L112:
 326:QX_Protocol_App.c **** 			QX_Parser_AdvMsgPtr();
 1178              		.loc 1 326 0 is_stmt 1
 1179 06f8 FFF7FEFF 		bl	QX_Parser_AdvMsgPtr
 327:QX_Protocol_App.c **** 			
 328:QX_Protocol_App.c **** 			// fiz axis states
 329:QX_Protocol_App.c **** 			PARSE_UC_AS_UC((uint8_t *)&FreeflyAPI.status.focus_state, 1, 0xFF, 0);
 1180              		.loc 1 329 0
 1181 06fc 394B     		ldr	r3, .L135+16
 1182 06fe 1B78     		ldrb	r3, [r3]	@ zero_extendqisi2
 1183 0700 002B     		cmp	r3, #0
 1184 0702 04D1     		bne	.L113
 1185              		.loc 1 329 0 is_stmt 0 discriminator 1
 1186 0704 0121     		movs	r1, #1
 1187 0706 3E48     		ldr	r0, .L135+44
 1188 0708 FFF7FEFF 		bl	AddUnsignedCharAsUnsignedChar
 1189 070c 05E0     		b	.L114
 1190              	.L113:
 1191              		.loc 1 329 0 discriminator 2
 1192 070e 0023     		movs	r3, #0
 1193 0710 FF22     		movs	r2, #255
 1194 0712 0121     		movs	r1, #1
 1195 0714 3A48     		ldr	r0, .L135+44
 1196 0716 FFF7FEFF 		bl	GetUnsignedCharAsUnsignedChar
 1197              	.L114:
 330:QX_Protocol_App.c **** 			PARSE_UC_AS_UC((uint8_t *)&FreeflyAPI.status.iris_state, 1, 0xFF, 0);
 1198              		.loc 1 330 0 is_stmt 1
 1199 071a 324B     		ldr	r3, .L135+16
 1200 071c 1B78     		ldrb	r3, [r3]	@ zero_extendqisi2
 1201 071e 002B     		cmp	r3, #0
 1202 0720 04D1     		bne	.L115
 1203              		.loc 1 330 0 is_stmt 0 discriminator 1
 1204 0722 0121     		movs	r1, #1
 1205 0724 3748     		ldr	r0, .L135+48
 1206 0726 FFF7FEFF 		bl	AddUnsignedCharAsUnsignedChar
 1207 072a 05E0     		b	.L116
 1208              	.L115:
 1209              		.loc 1 330 0 discriminator 2
 1210 072c 0023     		movs	r3, #0
 1211 072e FF22     		movs	r2, #255
 1212 0730 0121     		movs	r1, #1
 1213 0732 3448     		ldr	r0, .L135+48
 1214 0734 FFF7FEFF 		bl	GetUnsignedCharAsUnsignedChar
 1215              	.L116:
 331:QX_Protocol_App.c **** 			PARSE_UC_AS_UC((uint8_t *)&FreeflyAPI.status.zoom_state, 1, 0xFF, 0);
 1216              		.loc 1 331 0 is_stmt 1
 1217 0738 2A4B     		ldr	r3, .L135+16
ARM GAS  C:\Users\JENNEW~1\AppData\Local\Temp\cczRVhUZ.s 			page 29


 1218 073a 1B78     		ldrb	r3, [r3]	@ zero_extendqisi2
 1219 073c 002B     		cmp	r3, #0
 1220 073e 04D1     		bne	.L117
 1221              		.loc 1 331 0 is_stmt 0 discriminator 1
 1222 0740 0121     		movs	r1, #1
 1223 0742 3148     		ldr	r0, .L135+52
 1224 0744 FFF7FEFF 		bl	AddUnsignedCharAsUnsignedChar
 1225 0748 05E0     		b	.L118
 1226              	.L117:
 1227              		.loc 1 331 0 discriminator 2
 1228 074a 0023     		movs	r3, #0
 1229 074c FF22     		movs	r2, #255
 1230 074e 0121     		movs	r1, #1
 1231 0750 2D48     		ldr	r0, .L135+52
 1232 0752 FFF7FEFF 		bl	GetUnsignedCharAsUnsignedChar
 1233              	.L118:
 332:QX_Protocol_App.c **** 			
 333:QX_Protocol_App.c **** 			// fiz axis positions
 334:QX_Protocol_App.c **** 			PARSE_US_AS_US(&FreeflyAPI.status.focus_position, 1, 0xFFFF, 0);
 1234              		.loc 1 334 0 is_stmt 1
 1235 0756 234B     		ldr	r3, .L135+16
 1236 0758 1B78     		ldrb	r3, [r3]	@ zero_extendqisi2
 1237 075a 002B     		cmp	r3, #0
 1238 075c 04D1     		bne	.L119
 1239              		.loc 1 334 0 is_stmt 0 discriminator 1
 1240 075e 0121     		movs	r1, #1
 1241 0760 2A48     		ldr	r0, .L135+56
 1242 0762 FFF7FEFF 		bl	AddUnsignedShortAsUnsignedShort
 1243 0766 06E0     		b	.L120
 1244              	.L119:
 1245              		.loc 1 334 0 discriminator 2
 1246 0768 0023     		movs	r3, #0
 1247 076a 4FF6FF72 		movw	r2, #65535
 1248 076e 0121     		movs	r1, #1
 1249 0770 2648     		ldr	r0, .L135+56
 1250 0772 FFF7FEFF 		bl	GetUnsignedShortAsUnsignedShort
 1251              	.L120:
 335:QX_Protocol_App.c **** 			PARSE_US_AS_US(&FreeflyAPI.status.iris_position, 1, 0xFFFF, 0);
 1252              		.loc 1 335 0 is_stmt 1
 1253 0776 1B4B     		ldr	r3, .L135+16
 1254 0778 1B78     		ldrb	r3, [r3]	@ zero_extendqisi2
 1255 077a 002B     		cmp	r3, #0
 1256 077c 04D1     		bne	.L121
 1257              		.loc 1 335 0 is_stmt 0 discriminator 1
 1258 077e 0121     		movs	r1, #1
 1259 0780 2348     		ldr	r0, .L135+60
 1260 0782 FFF7FEFF 		bl	AddUnsignedShortAsUnsignedShort
 1261 0786 06E0     		b	.L122
 1262              	.L121:
 1263              		.loc 1 335 0 discriminator 2
 1264 0788 0023     		movs	r3, #0
 1265 078a 4FF6FF72 		movw	r2, #65535
 1266 078e 0121     		movs	r1, #1
 1267 0790 1F48     		ldr	r0, .L135+60
 1268 0792 FFF7FEFF 		bl	GetUnsignedShortAsUnsignedShort
 1269              	.L122:
 336:QX_Protocol_App.c **** 			PARSE_US_AS_US(&FreeflyAPI.status.zoom_position, 1, 0xFFFF, 0);
ARM GAS  C:\Users\JENNEW~1\AppData\Local\Temp\cczRVhUZ.s 			page 30


 1270              		.loc 1 336 0 is_stmt 1
 1271 0796 134B     		ldr	r3, .L135+16
 1272 0798 1B78     		ldrb	r3, [r3]	@ zero_extendqisi2
 1273 079a 002B     		cmp	r3, #0
 1274 079c 04D1     		bne	.L123
 1275              		.loc 1 336 0 is_stmt 0 discriminator 1
 1276 079e 0121     		movs	r1, #1
 1277 07a0 1C48     		ldr	r0, .L135+64
 1278 07a2 FFF7FEFF 		bl	AddUnsignedShortAsUnsignedShort
 337:QX_Protocol_App.c **** 			
 338:QX_Protocol_App.c **** 			break;
 1279              		.loc 1 338 0 is_stmt 1 discriminator 1
 1280 07a6 0EE0     		b	.L17
 1281              	.L123:
 336:QX_Protocol_App.c **** 			PARSE_US_AS_US(&FreeflyAPI.status.zoom_position, 1, 0xFFFF, 0);
 1282              		.loc 1 336 0 discriminator 2
 1283 07a8 0023     		movs	r3, #0
 1284 07aa 4FF6FF72 		movw	r2, #65535
 1285 07ae 0121     		movs	r1, #1
 1286 07b0 1848     		ldr	r0, .L135+64
 1287 07b2 FFF7FEFF 		bl	GetUnsignedShortAsUnsignedShort
 1288              		.loc 1 338 0 discriminator 2
 1289 07b6 06E0     		b	.L17
 1290              	.L128:
 339:QX_Protocol_App.c **** 		
 340:QX_Protocol_App.c **** 		default:
 341:QX_Protocol_App.c **** 			Msg_p->AttNotHandled = 1;
 1291              		.loc 1 341 0
 1292 07b8 7B68     		ldr	r3, [r7, #4]
 1293 07ba 0122     		movs	r2, #1
 1294 07bc 1A71     		strb	r2, [r3, #4]
 342:QX_Protocol_App.c **** 			break;
 1295              		.loc 1 342 0
 1296 07be 02E0     		b	.L17
 1297              	.L129:
 138:QX_Protocol_App.c **** 		
 1298              		.loc 1 138 0
 1299 07c0 00BF     		nop
 1300 07c2 00E0     		b	.L17
 1301              	.L130:
 293:QX_Protocol_App.c **** 			
 1302              		.loc 1 293 0
 1303 07c4 00BF     		nop
 1304              	.L17:
 1305              	.LBE2:
 343:QX_Protocol_App.c **** 		}
 344:QX_Protocol_App.c **** 	return (uint8_t *)QX_Parser_GetMsgPtr();
 1306              		.loc 1 344 0
 1307 07c6 FFF7FEFF 		bl	QX_Parser_GetMsgPtr
 1308 07ca 0346     		mov	r3, r0
 345:QX_Protocol_App.c **** }
 1309              		.loc 1 345 0
 1310 07cc 1846     		mov	r0, r3
 1311 07ce 4037     		adds	r7, r7, #64
 1312              		.cfi_def_cfa_offset 8
 1313 07d0 BD46     		mov	sp, r7
 1314              		.cfi_def_cfa_register 13
ARM GAS  C:\Users\JENNEW~1\AppData\Local\Temp\cczRVhUZ.s 			page 31


 1315              		@ sp needed
 1316 07d2 80BD     		pop	{r7, pc}
 1317              	.L136:
 1318              		.align	2
 1319              	.L135:
 1320 07d4 00010038 		.word	939524352
 1321 07d8 00FEFFC6 		.word	-956301824
 1322 07dc 00FEFF46 		.word	1191181824
 1323 07e0 54000000 		.word	FreeflyAPI+84
 1324 07e4 00000000 		.word	rw
 1325 07e8 58000000 		.word	FreeflyAPI+88
 1326 07ec 5C000000 		.word	FreeflyAPI+92
 1327 07f0 6E000000 		.word	FreeflyAPI+110
 1328 07f4 6F000000 		.word	FreeflyAPI+111
 1329 07f8 70000000 		.word	FreeflyAPI+112
 1330 07fc 72000000 		.word	FreeflyAPI+114
 1331 0800 6A000000 		.word	FreeflyAPI+106
 1332 0804 6B000000 		.word	FreeflyAPI+107
 1333 0808 6C000000 		.word	FreeflyAPI+108
 1334 080c 64000000 		.word	FreeflyAPI+100
 1335 0810 66000000 		.word	FreeflyAPI+102
 1336 0814 68000000 		.word	FreeflyAPI+104
 1337              		.cfi_endproc
 1338              	.LFE3:
 1339              		.size	QX_ParsePacket_Cli_MoVI_Ctrl_CB, .-QX_ParsePacket_Cli_MoVI_Ctrl_CB
 1340              		.section	.text.QX_SendMsg2CommsPort_CB,"ax",%progbits
 1341              		.align	2
 1342              		.global	QX_SendMsg2CommsPort_CB
 1343              		.thumb
 1344              		.thumb_func
 1345              		.type	QX_SendMsg2CommsPort_CB, %function
 1346              	QX_SendMsg2CommsPort_CB:
 1347              	.LFB4:
 346:QX_Protocol_App.c **** 
 347:QX_Protocol_App.c **** //----------------------------------------------------------------------------
 348:QX_Protocol_App.c **** // Send Tx Message to Comms Port
 349:QX_Protocol_App.c **** // This is an application specific function that directs the message to the appropriate communicati
 350:QX_Protocol_App.c **** void QX_SendMsg2CommsPort_CB(QX_Msg_t *TxMsg_p)
 351:QX_Protocol_App.c **** {
 1348              		.loc 1 351 0
 1349              		.cfi_startproc
 1350              		@ args = 0, pretend = 0, frame = 16
 1351              		@ frame_needed = 1, uses_anonymous_args = 0
 1352 0000 80B5     		push	{r7, lr}
 1353              		.cfi_def_cfa_offset 8
 1354              		.cfi_offset 7, -8
 1355              		.cfi_offset 14, -4
 1356 0002 84B0     		sub	sp, sp, #16
 1357              		.cfi_def_cfa_offset 24
 1358 0004 00AF     		add	r7, sp, #0
 1359              		.cfi_def_cfa_register 7
 1360 0006 7860     		str	r0, [r7, #4]
 352:QX_Protocol_App.c **** 	int i;
 353:QX_Protocol_App.c **** 	
 354:QX_Protocol_App.c **** 	// Send Message to Appropriate Port:
 355:QX_Protocol_App.c **** 	switch (TxMsg_p->CommPort){
 1361              		.loc 1 355 0
ARM GAS  C:\Users\JENNEW~1\AppData\Local\Temp\cczRVhUZ.s 			page 32


 1362 0008 7B68     		ldr	r3, [r7, #4]
 1363 000a 9B79     		ldrb	r3, [r3, #6]	@ zero_extendqisi2
 1364 000c 002B     		cmp	r3, #0
 1365 000e 00D0     		beq	.L139
 356:QX_Protocol_App.c **** 		
 357:QX_Protocol_App.c **** 		case QX_COMMS_PORT_UART:
 358:QX_Protocol_App.c **** 			TxMsg_p->MsgBuf_p = TxMsg_p->MsgBufStart_p;
 359:QX_Protocol_App.c **** 			for (i=0; i<TxMsg_p->MsgBuf_MsgLen; i++){
 360:QX_Protocol_App.c **** 				BufAdd(SEND_BUF_IDX, *TxMsg_p->MsgBuf_p++);
 361:QX_Protocol_App.c **** 			}
 362:QX_Protocol_App.c **** 			break;
 363:QX_Protocol_App.c **** 			
 364:QX_Protocol_App.c **** 		default:
 365:QX_Protocol_App.c **** 			break;
 1366              		.loc 1 365 0
 1367 0010 1BE0     		b	.L142
 1368              	.L139:
 358:QX_Protocol_App.c **** 			for (i=0; i<TxMsg_p->MsgBuf_MsgLen; i++){
 1369              		.loc 1 358 0
 1370 0012 7B68     		ldr	r3, [r7, #4]
 1371 0014 5A6E     		ldr	r2, [r3, #100]
 1372 0016 7B68     		ldr	r3, [r7, #4]
 1373 0018 1A67     		str	r2, [r3, #112]
 359:QX_Protocol_App.c **** 				BufAdd(SEND_BUF_IDX, *TxMsg_p->MsgBuf_p++);
 1374              		.loc 1 359 0
 1375 001a 0023     		movs	r3, #0
 1376 001c FB60     		str	r3, [r7, #12]
 1377 001e 0CE0     		b	.L140
 1378              	.L141:
 360:QX_Protocol_App.c **** 			}
 1379              		.loc 1 360 0 discriminator 3
 1380 0020 7B68     		ldr	r3, [r7, #4]
 1381 0022 1B6F     		ldr	r3, [r3, #112]
 1382 0024 591C     		adds	r1, r3, #1
 1383 0026 7A68     		ldr	r2, [r7, #4]
 1384 0028 1167     		str	r1, [r2, #112]
 1385 002a 1B78     		ldrb	r3, [r3]	@ zero_extendqisi2
 1386 002c 1946     		mov	r1, r3
 1387 002e 0120     		movs	r0, #1
 1388 0030 FFF7FEFF 		bl	BufAdd
 359:QX_Protocol_App.c **** 				BufAdd(SEND_BUF_IDX, *TxMsg_p->MsgBuf_p++);
 1389              		.loc 1 359 0 discriminator 3
 1390 0034 FB68     		ldr	r3, [r7, #12]
 1391 0036 0133     		adds	r3, r3, #1
 1392 0038 FB60     		str	r3, [r7, #12]
 1393              	.L140:
 359:QX_Protocol_App.c **** 				BufAdd(SEND_BUF_IDX, *TxMsg_p->MsgBuf_p++);
 1394              		.loc 1 359 0 is_stmt 0 discriminator 1
 1395 003a 7B68     		ldr	r3, [r7, #4]
 1396 003c B3F86230 		ldrh	r3, [r3, #98]
 1397 0040 1A46     		mov	r2, r3
 1398 0042 FB68     		ldr	r3, [r7, #12]
 1399 0044 9A42     		cmp	r2, r3
 1400 0046 EBDC     		bgt	.L141
 362:QX_Protocol_App.c **** 			
 1401              		.loc 1 362 0 is_stmt 1
 1402 0048 00BF     		nop
ARM GAS  C:\Users\JENNEW~1\AppData\Local\Temp\cczRVhUZ.s 			page 33


 1403              	.L142:
 366:QX_Protocol_App.c **** 	}
 367:QX_Protocol_App.c **** }
 1404              		.loc 1 367 0
 1405 004a 00BF     		nop
 1406 004c 1037     		adds	r7, r7, #16
 1407              		.cfi_def_cfa_offset 8
 1408 004e BD46     		mov	sp, r7
 1409              		.cfi_def_cfa_register 13
 1410              		@ sp needed
 1411 0050 80BD     		pop	{r7, pc}
 1412              		.cfi_endproc
 1413              	.LFE4:
 1414              		.size	QX_SendMsg2CommsPort_CB, .-QX_SendMsg2CommsPort_CB
 1415 0052 00BF     		.section	.text.QX_FwdMsg_CB,"ax",%progbits
 1416              		.align	2
 1417              		.global	QX_FwdMsg_CB
 1418              		.thumb
 1419              		.thumb_func
 1420              		.type	QX_FwdMsg_CB, %function
 1421              	QX_FwdMsg_CB:
 1422              	.LFB5:
 368:QX_Protocol_App.c **** 
 369:QX_Protocol_App.c **** 
 370:QX_Protocol_App.c **** //----------------------------------------------------------------------------
 371:QX_Protocol_App.c **** // Allows the application to forward the message to selected other ports if needed
 372:QX_Protocol_App.c **** void QX_FwdMsg_CB(QX_Msg_t *TxMsg_p)
 373:QX_Protocol_App.c **** {
 1423              		.loc 1 373 0
 1424              		.cfi_startproc
 1425              		@ args = 0, pretend = 0, frame = 8
 1426              		@ frame_needed = 1, uses_anonymous_args = 0
 1427              		@ link register save eliminated.
 1428 0000 80B4     		push	{r7}
 1429              		.cfi_def_cfa_offset 4
 1430              		.cfi_offset 7, -4
 1431 0002 83B0     		sub	sp, sp, #12
 1432              		.cfi_def_cfa_offset 16
 1433 0004 00AF     		add	r7, sp, #0
 1434              		.cfi_def_cfa_register 7
 1435 0006 7860     		str	r0, [r7, #4]
 374:QX_Protocol_App.c **** 	
 375:QX_Protocol_App.c **** }
 1436              		.loc 1 375 0
 1437 0008 00BF     		nop
 1438 000a 0C37     		adds	r7, r7, #12
 1439              		.cfi_def_cfa_offset 4
 1440 000c BD46     		mov	sp, r7
 1441              		.cfi_def_cfa_register 13
 1442              		@ sp needed
 1443 000e 80BC     		pop	{r7}
 1444              		.cfi_restore 7
 1445              		.cfi_def_cfa_offset 0
 1446 0010 7047     		bx	lr
 1447              		.cfi_endproc
 1448              	.LFE5:
 1449              		.size	QX_FwdMsg_CB, .-QX_FwdMsg_CB
ARM GAS  C:\Users\JENNEW~1\AppData\Local\Temp\cczRVhUZ.s 			page 34


 1450 0012 00BF     		.section	.text.QX_GetTicks_ms,"ax",%progbits
 1451              		.align	2
 1452              		.global	QX_GetTicks_ms
 1453              		.thumb
 1454              		.thumb_func
 1455              		.type	QX_GetTicks_ms, %function
 1456              	QX_GetTicks_ms:
 1457              	.LFB6:
 376:QX_Protocol_App.c **** 
 377:QX_Protocol_App.c **** 
 378:QX_Protocol_App.c **** //----------------------------------------------------------------------------
 379:QX_Protocol_App.c **** uint32_t QX_GetTicks_ms(void)
 380:QX_Protocol_App.c **** {
 1458              		.loc 1 380 0
 1459              		.cfi_startproc
 1460              		@ args = 0, pretend = 0, frame = 0
 1461              		@ frame_needed = 1, uses_anonymous_args = 0
 1462              		@ link register save eliminated.
 1463 0000 80B4     		push	{r7}
 1464              		.cfi_def_cfa_offset 4
 1465              		.cfi_offset 7, -4
 1466 0002 00AF     		add	r7, sp, #0
 1467              		.cfi_def_cfa_register 7
 381:QX_Protocol_App.c **** 	return 0;
 1468              		.loc 1 381 0
 1469 0004 0023     		movs	r3, #0
 382:QX_Protocol_App.c **** }
 1470              		.loc 1 382 0
 1471 0006 1846     		mov	r0, r3
 1472 0008 BD46     		mov	sp, r7
 1473              		.cfi_def_cfa_register 13
 1474              		@ sp needed
 1475 000a 80BC     		pop	{r7}
 1476              		.cfi_restore 7
 1477              		.cfi_def_cfa_offset 0
 1478 000c 7047     		bx	lr
 1479              		.cfi_endproc
 1480              	.LFE6:
 1481              		.size	QX_GetTicks_ms, .-QX_GetTicks_ms
 1482 000e 00BF     		.text
 1483              	.Letext0:
 1484              		.file 2 "c:\\program files (x86)\\cypress\\psoc creator\\4.4\\psoc creator\\import\\gnu\\arm\\5.4.
 1485              		.file 3 "c:\\program files (x86)\\cypress\\psoc creator\\4.4\\psoc creator\\import\\gnu\\arm\\5.4.
 1486              		.file 4 "QX_App_Config.h"
 1487              		.file 5 "QX_Protocol.h"
 1488              		.file 6 "QX_Parsing_Functions.h"
 1489              		.file 7 "QX_Protocol_App.h"