ARM GAS  C:\Users\JENNEW~1\AppData\Local\Temp\ccHP0j8f.s 			page 1


   1              		.syntax unified
   2              		.cpu cortex-m3
   3              		.fpu softvfp
   4              		.eabi_attribute 20, 1
   5              		.eabi_attribute 21, 1
   6              		.eabi_attribute 23, 3
   7              		.eabi_attribute 24, 1
   8              		.eabi_attribute 25, 1
   9              		.eabi_attribute 26, 1
  10              		.eabi_attribute 30, 6
  11              		.eabi_attribute 34, 1
  12              		.eabi_attribute 18, 4
  13              		.thumb
  14              		.syntax unified
  15              		.file	"QX_Protocol.c"
  16              		.text
  17              	.Ltext0:
  18              		.cfi_sections	.debug_frame
  19              		.comm	QX_Servers,8,4
  20              		.comm	QX_Clients,8,4
  21              		.comm	QX_CommsPorts,140,4
  22              		.global	QX_BuildHeader_Legacy
  23              		.bss
  24              		.align	2
  25              		.type	QX_BuildHeader_Legacy, %object
  26              		.size	QX_BuildHeader_Legacy, 4
  27              	QX_BuildHeader_Legacy:
  28 0000 00000000 		.space	4
  29              		.global	QX_ParseHeader_Legacy
  30              		.align	2
  31              		.type	QX_ParseHeader_Legacy, %object
  32              		.size	QX_ParseHeader_Legacy, 4
  33              	QX_ParseHeader_Legacy:
  34 0004 00000000 		.space	4
  35              		.section	.text.QX_InitMsg,"ax",%progbits
  36              		.align	2
  37              		.global	QX_InitMsg
  38              		.thumb
  39              		.thumb_func
  40              		.type	QX_InitMsg, %function
  41              	QX_InitMsg:
  42              	.LFB0:
  43              		.file 1 "QX_Protocol.c"
   1:QX_Protocol.c **** /*-----------------------------------------------------------------
   2:QX_Protocol.c **** 	Copyright 2017 Freefly Systems
   3:QX_Protocol.c **** 
   4:QX_Protocol.c **** 	Licensed under the Apache License, Version 2.0 (the "License");
   5:QX_Protocol.c **** 	you may not use this file except in compliance with the License.
   6:QX_Protocol.c **** 	You may obtain a copy of the License at
   7:QX_Protocol.c **** 
   8:QX_Protocol.c **** 		http://www.apache.org/licenses/LICENSE-2.0
   9:QX_Protocol.c **** 
  10:QX_Protocol.c **** 	Unless required by applicable law or agreed to in writing, software
  11:QX_Protocol.c **** 	distributed under the License is distributed on an "AS IS" BASIS,
  12:QX_Protocol.c **** 	WITHOUT WARRANTIES OR CONDITIONS OF ANY KIND, either express or implied.
  13:QX_Protocol.c **** 	See the License for the specific language governing permissions and
  14:QX_Protocol.c **** 	limitations under the License.
ARM GAS  C:\Users\JENNEW~1\AppData\Local\Temp\ccHP0j8f.s 			page 2


  15:QX_Protocol.c **** 
  16:QX_Protocol.c **** 	Filename: "QX_Protocol.c"
  17:QX_Protocol.c **** 
  18:QX_Protocol.c **** 	Description: This file provides the non-project specific portions of the Freefly QX Protocol
  19:QX_Protocol.c **** 
  20:QX_Protocol.c **** 	Reuse and Porting:
  21:QX_Protocol.c **** 	This code is design for simple reuse in other projects
  22:QX_Protocol.c **** 	by separation of the protocol code/data from the application code/data.
  23:QX_Protocol.c **** 	Steps:
  24:QX_Protocol.c **** 	1.	Include QX_Protocol.c/.h and QX_Parsing_Util.c/.h files in your new project. 
  25:QX_Protocol.c **** 		These should not be modified for the application.
  26:QX_Protocol.c **** 	2.	Write the QX_Protocol_App.c/.h files. Other projects can be used as a template.
  27:QX_Protocol.c **** 		This contains the client/server parser callback functions, support functions, 
  28:QX_Protocol.c **** 		and QX_SendMsg2CommsPort_CB() which should send the messages to the desired port.
  29:QX_Protocol.c **** 		The message support arrays (QX_Cli_MsgSupport and QX_Srv_MsgSupport)
  30:QX_Protocol.c **** 		should also be initialized with the supported messages and their length check enforcement status.
  31:QX_Protocol.c **** 	3. Define the number of servers and clients in your system by defining QX_NUM_SRV and QX_NUM_CLI i
  32:QX_Protocol.c **** 	4. Assign parser callback functions for each client and server using QX_InitSrv() and QX_InitCli()
  33:QX_Protocol.c **** 	5. Call the QX_Init() function at application startup.
  34:QX_Protocol.c **** 	6. In a periodic loop (main, or control/comms task) call QX_StreamRxCharSM() for each port to rece
  35:QX_Protocol.c **** 	7. Send any unsolicited messages such periodic current value messages (charting) and client read/w
  36:QX_Protocol.c **** 
  37:QX_Protocol.c **** 	There are 3 Main Message Types that can be sent via QX:
  38:QX_Protocol.c **** 	CURRENT VALUE - Sent by server in response to read, write or periodically (charting). Recieved by 
  39:QX_Protocol.c **** 	READ - Sent by client to request that a current value message be sent by server as a reply.
  40:QX_Protocol.c **** 	WRITE (Absolute or Relative) - Sent by client to write data. Triggers a current value response by 
  41:QX_Protocol.c **** 		
  42:QX_Protocol.c **** -----------------------------------------------------------------*/
  43:QX_Protocol.c **** 
  44:QX_Protocol.c **** //****************************************************************************
  45:QX_Protocol.c **** // Headers
  46:QX_Protocol.c **** //****************************************************************************
  47:QX_Protocol.c **** #include "QX_Protocol.h"			// Protocol Header
  48:QX_Protocol.c **** #include "QX_App_Config.h"			// Configure application specific values in this file
  49:QX_Protocol.c **** #include "QX_Protocol_App.h"		// This contains the application specific interface functions
  50:QX_Protocol.c **** #include "QX_Parsing_Functions.h"	// Contains utility functions for parsing data in/out of raw buff
  51:QX_Protocol.c **** #include <stdlib.h>
  52:QX_Protocol.c **** #include <stdint.h>		// for Standard Data Types
  53:QX_Protocol.c **** #include <string.h>		// for array and string manipulation
  54:QX_Protocol.c **** 
  55:QX_Protocol.c **** //****************************************************************************
  56:QX_Protocol.c **** // Private Defines
  57:QX_Protocol.c **** //****************************************************************************
  58:QX_Protocol.c **** 
  59:QX_Protocol.c **** //****************************************************************************
  60:QX_Protocol.c **** // Private Types
  61:QX_Protocol.c **** //****************************************************************************
  62:QX_Protocol.c **** 
  63:QX_Protocol.c **** //****************************************************************************
  64:QX_Protocol.c **** // Public Global Vars
  65:QX_Protocol.c **** //****************************************************************************
  66:QX_Protocol.c **** 
  67:QX_Protocol.c **** // The following arrays define the servers and clients present on this device. 
  68:QX_Protocol.c **** // The qty of each (QX_NUM_xxx) is defined by the application in QX_App_Config.h
  69:QX_Protocol.c **** QX_Server_t QX_Servers[QX_NUM_SRV];
  70:QX_Protocol.c **** QX_Client_t QX_Clients[QX_NUM_CLI];
  71:QX_Protocol.c **** 
ARM GAS  C:\Users\JENNEW~1\AppData\Local\Temp\ccHP0j8f.s 			page 3


  72:QX_Protocol.c **** // Array of communication ports
  73:QX_Protocol.c **** // QX_NUM_OF_PORTS is application specific and defined in QX_App_Config.h
  74:QX_Protocol.c **** QX_CommsPort_t QX_CommsPorts[QX_NUM_OF_PORTS];		
  75:QX_Protocol.c **** 
  76:QX_Protocol.c **** // Freefly Extension FunctionsPointers
  77:QX_Protocol.c **** void (*QX_BuildHeader_Legacy)(QX_Msg_t *Msg_p) = NULL;
  78:QX_Protocol.c **** void (*QX_ParseHeader_Legacy)(QX_Msg_t *Msg_p) = NULL;
  79:QX_Protocol.c **** 
  80:QX_Protocol.c **** //****************************************************************************
  81:QX_Protocol.c **** // Private Global Vars
  82:QX_Protocol.c **** //****************************************************************************
  83:QX_Protocol.c **** 
  84:QX_Protocol.c **** 
  85:QX_Protocol.c **** //****************************************************************************
  86:QX_Protocol.c **** // Private Function Prototypes - DO NOT EXPOSE THESE TO APPLICATION
  87:QX_Protocol.c **** //****************************************************************************
  88:QX_Protocol.c **** 
  89:QX_Protocol.c **** // Initialize QX Message Structure with Defaults
  90:QX_Protocol.c **** QX_Stat_e QX_InitMsg(QX_Msg_t *Msg_p);
  91:QX_Protocol.c **** 
  92:QX_Protocol.c **** // Recieve QX Message, Process and Respond if Neccessary
  93:QX_Protocol.c **** QX_Stat_e QX_RxMsg(QX_Msg_t *RxMsg_p);
  94:QX_Protocol.c **** 
  95:QX_Protocol.c **** // Create message header and prepare it for payload parsing
  96:QX_Protocol.c **** QX_Stat_e QX_TxMsg_Setup(QX_Msg_t *TxMsg_p);
  97:QX_Protocol.c **** 
  98:QX_Protocol.c **** // After message data has been parsed, finish building the message
  99:QX_Protocol.c **** QX_Stat_e QX_TxMsg_Finish(QX_Msg_t *TxMsg_p);
 100:QX_Protocol.c **** 
 101:QX_Protocol.c **** // Recieve Functions
 102:QX_Protocol.c **** void QX_Srv_Rx_Read(QX_Msg_t *RxMsg_p);
 103:QX_Protocol.c **** void QX_Srv_Rx_Write(QX_Msg_t *RxMsg_p);
 104:QX_Protocol.c **** void QX_Cli_Rx_CurVal(QX_Msg_t *RxMsg_p);
 105:QX_Protocol.c **** 
 106:QX_Protocol.c **** // Build QX Message Header in the buffer using data from the structure
 107:QX_Protocol.c **** void QX_BuildHeader(QX_Msg_t *Msg_p);
 108:QX_Protocol.c **** 
 109:QX_Protocol.c **** // Parse QX Message buffer to populate the header structure
 110:QX_Protocol.c **** void QX_ParseHeader(QX_Msg_t *Msg_p);
 111:QX_Protocol.c **** 
 112:QX_Protocol.c **** // Add a bit 7 extendable value to a buffer (up to 4 bytes, 28 bits)
 113:QX_Protocol.c **** void QX_AddExtdValToBuf(uint8_t **p, uint32_t Val);
 114:QX_Protocol.c **** 
 115:QX_Protocol.c **** // Get a bit 7 extendable value from a buffer (up to 4 bytes, 28 bits)
 116:QX_Protocol.c **** uint32_t QX_GetExtdValFromBuf(uint8_t **p);
 117:QX_Protocol.c **** 
 118:QX_Protocol.c **** // Calculate 8 bit checksum
 119:QX_Protocol.c **** uint8_t QX_Calc8bChecksum(uint8_t *buf_p, uint32_t len);
 120:QX_Protocol.c **** 
 121:QX_Protocol.c **** // Calculate 32 bit checksum
 122:QX_Protocol.c **** uint8_t QX_Calc32bChecksum(uint8_t *buf_p, uint32_t len);
 123:QX_Protocol.c **** 
 124:QX_Protocol.c **** //****************************************************************************
 125:QX_Protocol.c **** // Private Function Definitions
 126:QX_Protocol.c **** //****************************************************************************
 127:QX_Protocol.c **** 
 128:QX_Protocol.c **** //----------------------------------------------------------------------------
ARM GAS  C:\Users\JENNEW~1\AppData\Local\Temp\ccHP0j8f.s 			page 4


 129:QX_Protocol.c **** // Initialize all data in a Message Structure
 130:QX_Protocol.c **** QX_Stat_e QX_InitMsg(QX_Msg_t *Msg_p)
 131:QX_Protocol.c **** {
  44              		.loc 1 131 0
  45              		.cfi_startproc
  46              		@ args = 0, pretend = 0, frame = 8
  47              		@ frame_needed = 1, uses_anonymous_args = 0
  48 0000 80B5     		push	{r7, lr}
  49              		.cfi_def_cfa_offset 8
  50              		.cfi_offset 7, -8
  51              		.cfi_offset 14, -4
  52 0002 82B0     		sub	sp, sp, #8
  53              		.cfi_def_cfa_offset 16
  54 0004 00AF     		add	r7, sp, #0
  55              		.cfi_def_cfa_register 7
  56 0006 7860     		str	r0, [r7, #4]
 132:QX_Protocol.c **** 	// Set all to zero. Zero for most variables is default. Set any values that need to
 133:QX_Protocol.c **** 	memset(Msg_p, 0, sizeof(QX_Msg_t));
  57              		.loc 1 133 0
  58 0008 7422     		movs	r2, #116
  59 000a 0021     		movs	r1, #0
  60 000c 7868     		ldr	r0, [r7, #4]
  61 000e FFF7FEFF 		bl	memset
 134:QX_Protocol.c **** 	
 135:QX_Protocol.c **** 	// Pointer Init
 136:QX_Protocol.c **** 	Msg_p->BufPayloadStart_p = NULL;
  62              		.loc 1 136 0
  63 0012 7B68     		ldr	r3, [r7, #4]
  64 0014 0022     		movs	r2, #0
  65 0016 DA66     		str	r2, [r3, #108]
 137:QX_Protocol.c **** 	Msg_p->MsgBufAtt_p = NULL;
  66              		.loc 1 137 0
  67 0018 7B68     		ldr	r3, [r7, #4]
  68 001a 0022     		movs	r2, #0
  69 001c 9A66     		str	r2, [r3, #104]
 138:QX_Protocol.c **** 	Msg_p->MsgBuf_p = NULL;
  70              		.loc 1 138 0
  71 001e 7B68     		ldr	r3, [r7, #4]
  72 0020 0022     		movs	r2, #0
  73 0022 1A67     		str	r2, [r3, #112]
 139:QX_Protocol.c **** 	
 140:QX_Protocol.c **** 	return QX_STAT_OK;
  74              		.loc 1 140 0
  75 0024 0023     		movs	r3, #0
 141:QX_Protocol.c **** }
  76              		.loc 1 141 0
  77 0026 1846     		mov	r0, r3
  78 0028 0837     		adds	r7, r7, #8
  79              		.cfi_def_cfa_offset 8
  80 002a BD46     		mov	sp, r7
  81              		.cfi_def_cfa_register 13
  82              		@ sp needed
  83 002c 80BD     		pop	{r7, pc}
  84              		.cfi_endproc
  85              	.LFE0:
  86              		.size	QX_InitMsg, .-QX_InitMsg
  87 002e 00BF     		.section	.text.QX_RxMsg,"ax",%progbits
ARM GAS  C:\Users\JENNEW~1\AppData\Local\Temp\ccHP0j8f.s 			page 5


  88              		.align	2
  89              		.global	QX_RxMsg
  90              		.thumb
  91              		.thumb_func
  92              		.type	QX_RxMsg, %function
  93              	QX_RxMsg:
  94              	.LFB1:
 142:QX_Protocol.c **** 
 143:QX_Protocol.c **** 
 144:QX_Protocol.c **** //----------------------------------------------------------------------------
 145:QX_Protocol.c **** // Recieve QX Packet, Process and Respond if Neccessary
 146:QX_Protocol.c **** //
 147:QX_Protocol.c **** QX_Stat_e QX_RxMsg(QX_Msg_t *RxMsg_p)
 148:QX_Protocol.c **** {
  95              		.loc 1 148 0
  96              		.cfi_startproc
  97              		@ args = 0, pretend = 0, frame = 16
  98              		@ frame_needed = 1, uses_anonymous_args = 0
  99 0000 80B5     		push	{r7, lr}
 100              		.cfi_def_cfa_offset 8
 101              		.cfi_offset 7, -8
 102              		.cfi_offset 14, -4
 103 0002 84B0     		sub	sp, sp, #16
 104              		.cfi_def_cfa_offset 24
 105 0004 00AF     		add	r7, sp, #0
 106              		.cfi_def_cfa_register 7
 107 0006 7860     		str	r0, [r7, #4]
 149:QX_Protocol.c **** 	RxMsg_p->MsgBuf_p = &RxMsg_p->MsgBuf[0];
 108              		.loc 1 149 0
 109 0008 7B68     		ldr	r3, [r7, #4]
 110 000a 03F11C02 		add	r2, r3, #28
 111 000e 7B68     		ldr	r3, [r7, #4]
 112 0010 1A67     		str	r2, [r3, #112]
 150:QX_Protocol.c **** 	RxMsg_p->MsgBufStart_p = &RxMsg_p->MsgBuf[0];
 113              		.loc 1 150 0
 114 0012 7B68     		ldr	r3, [r7, #4]
 115 0014 03F11C02 		add	r2, r3, #28
 116 0018 7B68     		ldr	r3, [r7, #4]
 117 001a 5A66     		str	r2, [r3, #100]
 151:QX_Protocol.c **** 	RxMsg_p->AttNotHandled = 0;		// Assume it will be handled to start - let the parser set this flag 
 118              		.loc 1 151 0
 119 001c 7B68     		ldr	r3, [r7, #4]
 120 001e 0022     		movs	r2, #0
 121 0020 1A71     		strb	r2, [r3, #4]
 152:QX_Protocol.c **** 	
 153:QX_Protocol.c **** 	#ifdef QX_DEBUG
 154:QX_Protocol.c **** 	printf("Raw Msg Packet as Recieved:\n\r");
 155:QX_Protocol.c **** 	QX_debug_print_Hex(&RxMsg_p->MsgBuf[0], RxMsg_p->Header.MsgLength);
 156:QX_Protocol.c **** 	#endif
 157:QX_Protocol.c **** 
 158:QX_Protocol.c **** 	// Parse Protocol Header
 159:QX_Protocol.c **** 	if (RxMsg_p->Legacy_Header){
 122              		.loc 1 159 0
 123 0022 7B68     		ldr	r3, [r7, #4]
 124 0024 5B79     		ldrb	r3, [r3, #5]	@ zero_extendqisi2
 125 0026 002B     		cmp	r3, #0
 126 0028 0AD0     		beq	.L4
ARM GAS  C:\Users\JENNEW~1\AppData\Local\Temp\ccHP0j8f.s 			page 6


 160:QX_Protocol.c **** 		if (*QX_ParseHeader_Legacy != NULL){
 127              		.loc 1 160 0
 128 002a 2F4B     		ldr	r3, .L16
 129 002c 1B68     		ldr	r3, [r3]
 130 002e 002B     		cmp	r3, #0
 131 0030 04D0     		beq	.L5
 161:QX_Protocol.c **** 			QX_ParseHeader_Legacy(RxMsg_p);
 132              		.loc 1 161 0
 133 0032 2D4B     		ldr	r3, .L16
 134 0034 1B68     		ldr	r3, [r3]
 135 0036 7868     		ldr	r0, [r7, #4]
 136 0038 9847     		blx	r3
 137 003a 04E0     		b	.L6
 138              	.L5:
 162:QX_Protocol.c **** 		} else {
 163:QX_Protocol.c **** 			return QX_STAT_ERROR;
 139              		.loc 1 163 0
 140 003c 0123     		movs	r3, #1
 141 003e 4EE0     		b	.L7
 142              	.L4:
 164:QX_Protocol.c **** 		}
 165:QX_Protocol.c **** 	} else {									
 166:QX_Protocol.c **** 		QX_ParseHeader(RxMsg_p);
 143              		.loc 1 166 0
 144 0040 7868     		ldr	r0, [r7, #4]
 145 0042 FFF7FEFF 		bl	QX_ParseHeader
 146              	.L6:
 167:QX_Protocol.c **** 	}
 168:QX_Protocol.c **** 	
 169:QX_Protocol.c **** 	RxMsg_p->BufPayloadStart_p = RxMsg_p->MsgBuf_p;	// the pointer is at the payload after parsing the
 147              		.loc 1 169 0
 148 0046 7B68     		ldr	r3, [r7, #4]
 149 0048 1A6F     		ldr	r2, [r3, #112]
 150 004a 7B68     		ldr	r3, [r7, #4]
 151 004c DA66     		str	r2, [r3, #108]
 170:QX_Protocol.c **** 	
 171:QX_Protocol.c **** 	// Check the CRC32 if enabled
 172:QX_Protocol.c **** 	if (RxMsg_p->Header.AddCRC32){
 152              		.loc 1 172 0
 153 004e 7B68     		ldr	r3, [r7, #4]
 154 0050 9B7C     		ldrb	r3, [r3, #18]	@ zero_extendqisi2
 155 0052 002B     		cmp	r3, #0
 156 0054 22D0     		beq	.L8
 157              	.LBB2:
 173:QX_Protocol.c **** 		uint32_t crc32_result = QX_accumulate_crc32(0xFFFFFFFF, RxMsg_p->MsgBuf, RxMsg_p->MsgBuf_MsgLen -
 158              		.loc 1 173 0
 159 0056 7B68     		ldr	r3, [r7, #4]
 160 0058 03F11C01 		add	r1, r3, #28
 161 005c 7B68     		ldr	r3, [r7, #4]
 162 005e B3F86230 		ldrh	r3, [r3, #98]
 163 0062 053B     		subs	r3, r3, #5
 164 0064 1A46     		mov	r2, r3
 165 0066 4FF0FF30 		mov	r0, #-1
 166 006a FFF7FEFF 		bl	QX_accumulate_crc32
 167 006e F860     		str	r0, [r7, #12]
 174:QX_Protocol.c **** 		uint32_t crc32_msg = 0;
 168              		.loc 1 174 0
ARM GAS  C:\Users\JENNEW~1\AppData\Local\Temp\ccHP0j8f.s 			page 7


 169 0070 0023     		movs	r3, #0
 170 0072 BB60     		str	r3, [r7, #8]
 175:QX_Protocol.c **** 		memcpy(&crc32_msg, &RxMsg_p->MsgBuf[RxMsg_p->MsgBuf_MsgLen - 5], sizeof(crc32_msg));
 171              		.loc 1 175 0
 172 0074 7B68     		ldr	r3, [r7, #4]
 173 0076 B3F86230 		ldrh	r3, [r3, #98]
 174 007a 053B     		subs	r3, r3, #5
 175 007c 1833     		adds	r3, r3, #24
 176 007e 7A68     		ldr	r2, [r7, #4]
 177 0080 1344     		add	r3, r3, r2
 178 0082 191D     		adds	r1, r3, #4
 179 0084 07F10803 		add	r3, r7, #8
 180 0088 0422     		movs	r2, #4
 181 008a 1846     		mov	r0, r3
 182 008c FFF7FEFF 		bl	memcpy
 176:QX_Protocol.c **** 		if (crc32_result != crc32_msg)
 183              		.loc 1 176 0
 184 0090 BB68     		ldr	r3, [r7, #8]
 185 0092 FA68     		ldr	r2, [r7, #12]
 186 0094 9A42     		cmp	r2, r3
 187 0096 01D0     		beq	.L8
 177:QX_Protocol.c **** 			return QX_STAT_ERROR_RXMSG_CRC32_FAIL;
 188              		.loc 1 177 0
 189 0098 0723     		movs	r3, #7
 190 009a 20E0     		b	.L7
 191              	.L8:
 192              	.LBE2:
 178:QX_Protocol.c **** 	}
 179:QX_Protocol.c **** 	
 180:QX_Protocol.c **** 	// Allow application specific message forwarding (send a copy of the message out one or more other
 181:QX_Protocol.c **** 	QX_FwdMsg_CB(RxMsg_p);
 193              		.loc 1 181 0
 194 009c 7868     		ldr	r0, [r7, #4]
 195 009e FFF7FEFF 		bl	QX_FwdMsg_CB
 182:QX_Protocol.c **** 	
 183:QX_Protocol.c **** 	// Print out the recieved packet info for Debug
 184:QX_Protocol.c **** 	#ifdef QX_DEBUG
 185:QX_Protocol.c **** 	QX_debug_print_MsgDetails(RxMsg_p);
 186:QX_Protocol.c **** 	#endif
 187:QX_Protocol.c **** 	
 188:QX_Protocol.c **** 	// Handle Eeach type of message
 189:QX_Protocol.c **** 	switch (RxMsg_p->Header.Type){
 196              		.loc 1 189 0
 197 00a2 7B68     		ldr	r3, [r7, #4]
 198 00a4 1B7C     		ldrb	r3, [r3, #16]	@ zero_extendqisi2
 199 00a6 032B     		cmp	r3, #3
 200 00a8 16D8     		bhi	.L10
 201 00aa 01A2     		adr	r2, .L12
 202 00ac 52F823F0 		ldr	pc, [r2, r3, lsl #2]
 203              		.p2align 2
 204              	.L12:
 205 00b0 D1000000 		.word	.L11+1
 206 00b4 C1000000 		.word	.L13+1
 207 00b8 C9000000 		.word	.L14+1
 208 00bc C9000000 		.word	.L14+1
 209              		.p2align 1
 210              	.L13:
ARM GAS  C:\Users\JENNEW~1\AppData\Local\Temp\ccHP0j8f.s 			page 8


 190:QX_Protocol.c **** 		
 191:QX_Protocol.c **** 		case QX_MSG_TYPE_READ:
 192:QX_Protocol.c **** 			QX_Srv_Rx_Read(RxMsg_p);
 211              		.loc 1 192 0
 212 00c0 7868     		ldr	r0, [r7, #4]
 213 00c2 FFF7FEFF 		bl	QX_Srv_Rx_Read
 193:QX_Protocol.c **** 			break;
 214              		.loc 1 193 0
 215 00c6 09E0     		b	.L15
 216              	.L14:
 194:QX_Protocol.c **** 		
 195:QX_Protocol.c **** 		case QX_MSG_TYPE_WRITE_ABS:
 196:QX_Protocol.c **** 		case QX_MSG_TYPE_WRITE_REL:
 197:QX_Protocol.c **** 			QX_Srv_Rx_Write(RxMsg_p);
 217              		.loc 1 197 0
 218 00c8 7868     		ldr	r0, [r7, #4]
 219 00ca FFF7FEFF 		bl	QX_Srv_Rx_Write
 198:QX_Protocol.c **** 			break;
 220              		.loc 1 198 0
 221 00ce 05E0     		b	.L15
 222              	.L11:
 199:QX_Protocol.c **** 		
 200:QX_Protocol.c **** 		case QX_MSG_TYPE_CURVAL:
 201:QX_Protocol.c **** 			QX_Cli_Rx_CurVal(RxMsg_p);
 223              		.loc 1 201 0
 224 00d0 7868     		ldr	r0, [r7, #4]
 225 00d2 FFF7FEFF 		bl	QX_Cli_Rx_CurVal
 202:QX_Protocol.c **** 			break;
 226              		.loc 1 202 0
 227 00d6 01E0     		b	.L15
 228              	.L10:
 203:QX_Protocol.c **** 		
 204:QX_Protocol.c **** 		default:
 205:QX_Protocol.c **** 			return QX_STAT_ERROR_MSG_TYPE_NOT_SUPPORTED;
 229              		.loc 1 205 0
 230 00d8 0223     		movs	r3, #2
 231 00da 00E0     		b	.L7
 232              	.L15:
 206:QX_Protocol.c **** 	}
 207:QX_Protocol.c **** 	
 208:QX_Protocol.c **** 	return QX_STAT_OK;
 233              		.loc 1 208 0
 234 00dc 0023     		movs	r3, #0
 235              	.L7:
 209:QX_Protocol.c **** }
 236              		.loc 1 209 0
 237 00de 1846     		mov	r0, r3
 238 00e0 1037     		adds	r7, r7, #16
 239              		.cfi_def_cfa_offset 8
 240 00e2 BD46     		mov	sp, r7
 241              		.cfi_def_cfa_register 13
 242              		@ sp needed
 243 00e4 80BD     		pop	{r7, pc}
 244              	.L17:
 245 00e6 00BF     		.align	2
 246              	.L16:
 247 00e8 00000000 		.word	QX_ParseHeader_Legacy
ARM GAS  C:\Users\JENNEW~1\AppData\Local\Temp\ccHP0j8f.s 			page 9


 248              		.cfi_endproc
 249              	.LFE1:
 250              		.size	QX_RxMsg, .-QX_RxMsg
 251              		.section	.text.QX_Srv_Rx_Read,"ax",%progbits
 252              		.align	2
 253              		.global	QX_Srv_Rx_Read
 254              		.thumb
 255              		.thumb_func
 256              		.type	QX_Srv_Rx_Read, %function
 257              	QX_Srv_Rx_Read:
 258              	.LFB2:
 210:QX_Protocol.c **** 
 211:QX_Protocol.c **** 
 212:QX_Protocol.c **** //----------------------------------------------------------------------------
 213:QX_Protocol.c **** // Server - Recv Read
 214:QX_Protocol.c **** // (No data payload) then APP->MSG
 215:QX_Protocol.c **** void QX_Srv_Rx_Read(QX_Msg_t *RxMsg_p)
 216:QX_Protocol.c **** {
 259              		.loc 1 216 0
 260              		.cfi_startproc
 261              		@ args = 0, pretend = 0, frame = 24
 262              		@ frame_needed = 1, uses_anonymous_args = 0
 263 0000 B0B5     		push	{r4, r5, r7, lr}
 264              		.cfi_def_cfa_offset 16
 265              		.cfi_offset 4, -16
 266              		.cfi_offset 5, -12
 267              		.cfi_offset 7, -8
 268              		.cfi_offset 14, -4
 269 0002 88B0     		sub	sp, sp, #32
 270              		.cfi_def_cfa_offset 48
 271 0004 02AF     		add	r7, sp, #8
 272              		.cfi_def_cfa 7, 40
 273 0006 7860     		str	r0, [r7, #4]
 274              	.LBB3:
 217:QX_Protocol.c **** 	// Check Address - For each server node, if unicast & address match or broadcast, handle it
 218:QX_Protocol.c **** 	for (int srv_i = 0; srv_i < QX_NUM_SRV; srv_i++){
 275              		.loc 1 218 0
 276 0008 0023     		movs	r3, #0
 277 000a 7B61     		str	r3, [r7, #20]
 278 000c 36E0     		b	.L19
 279              	.L22:
 219:QX_Protocol.c **** 		if ((RxMsg_p->Header.Target_Addr == QX_Servers[srv_i].Address) || (RxMsg_p->Header.Target_Addr ==
 280              		.loc 1 219 0
 281 000e 7B68     		ldr	r3, [r7, #4]
 282 0010 5A7E     		ldrb	r2, [r3, #25]	@ zero_extendqisi2
 283 0012 1E49     		ldr	r1, .L23
 284 0014 7B69     		ldr	r3, [r7, #20]
 285 0016 11F83330 		ldrb	r3, [r1, r3, lsl #3]	@ zero_extendqisi2
 286 001a 9A42     		cmp	r2, r3
 287 001c 03D0     		beq	.L20
 288              		.loc 1 219 0 is_stmt 0 discriminator 1
 289 001e 7B68     		ldr	r3, [r7, #4]
 290 0020 5B7E     		ldrb	r3, [r3, #25]	@ zero_extendqisi2
 291 0022 002B     		cmp	r3, #0
 292 0024 27D1     		bne	.L21
 293              	.L20:
 294              	.LBB4:
ARM GAS  C:\Users\JENNEW~1\AppData\Local\Temp\ccHP0j8f.s 			page 10


 220:QX_Protocol.c **** 			QX_TxMsgOptions_t options;
 221:QX_Protocol.c **** 			QX_InitTxOptions(&options);
 295              		.loc 1 221 0 is_stmt 1
 296 0026 07F10C03 		add	r3, r7, #12
 297 002a 1846     		mov	r0, r3
 298 002c FFF7FEFF 		bl	QX_InitTxOptions
 222:QX_Protocol.c **** 			options.use_CRC32 = RxMsg_p->Header.AddCRC32;
 299              		.loc 1 222 0
 300 0030 7B68     		ldr	r3, [r7, #4]
 301 0032 9B7C     		ldrb	r3, [r3, #18]	@ zero_extendqisi2
 302 0034 7B73     		strb	r3, [r7, #13]
 223:QX_Protocol.c **** 			options.FF_Ext = RxMsg_p->Header.FF_Ext;
 303              		.loc 1 223 0
 304 0036 7B68     		ldr	r3, [r7, #4]
 305 0038 DB7C     		ldrb	r3, [r3, #19]	@ zero_extendqisi2
 306 003a 3B73     		strb	r3, [r7, #12]
 224:QX_Protocol.c **** 			options.Remove_Addr_Fields = RxMsg_p->Header.Remove_Addr_Fields;
 307              		.loc 1 224 0
 308 003c 7B68     		ldr	r3, [r7, #4]
 309 003e 9B7D     		ldrb	r3, [r3, #22]	@ zero_extendqisi2
 310 0040 BB73     		strb	r3, [r7, #14]
 225:QX_Protocol.c **** 			options.Remove_Req_Fields = 1;		// No need for request fields in a response.
 311              		.loc 1 225 0
 312 0042 0123     		movs	r3, #1
 313 0044 FB73     		strb	r3, [r7, #15]
 226:QX_Protocol.c **** 			options.Target_Addr = RxMsg_p->Header.Source_Addr;		// Reverse target
 314              		.loc 1 226 0
 315 0046 7B68     		ldr	r3, [r7, #4]
 316 0048 1B7E     		ldrb	r3, [r3, #24]	@ zero_extendqisi2
 317 004a 3B74     		strb	r3, [r7, #16]
 227:QX_Protocol.c **** 			QX_SendPacket_Srv_CurVal(&QX_Servers[srv_i], RxMsg_p->Header.Attrib, RxMsg_p->CommPort, options)
 318              		.loc 1 227 0
 319 004c 7B69     		ldr	r3, [r7, #20]
 320 004e DB00     		lsls	r3, r3, #3
 321 0050 0E4A     		ldr	r2, .L23
 322 0052 9818     		adds	r0, r3, r2
 323 0054 7B68     		ldr	r3, [r7, #4]
 324 0056 D968     		ldr	r1, [r3, #12]
 325 0058 7B68     		ldr	r3, [r7, #4]
 326 005a 9C79     		ldrb	r4, [r3, #6]	@ zero_extendqisi2
 327 005c 6B46     		mov	r3, sp
 328 005e 07F11002 		add	r2, r7, #16
 329 0062 1268     		ldr	r2, [r2]
 330 0064 1546     		mov	r5, r2	@ movhi
 331 0066 1D80     		strh	r5, [r3]	@ movhi
 332 0068 0233     		adds	r3, r3, #2
 333 006a 120C     		lsrs	r2, r2, #16
 334 006c 1A70     		strb	r2, [r3]
 335 006e FB68     		ldr	r3, [r7, #12]
 336 0070 2246     		mov	r2, r4
 337 0072 FFF7FEFF 		bl	QX_SendPacket_Srv_CurVal
 338              	.L21:
 339              	.LBE4:
 218:QX_Protocol.c **** 		if ((RxMsg_p->Header.Target_Addr == QX_Servers[srv_i].Address) || (RxMsg_p->Header.Target_Addr ==
 340              		.loc 1 218 0 discriminator 2
 341 0076 7B69     		ldr	r3, [r7, #20]
 342 0078 0133     		adds	r3, r3, #1
ARM GAS  C:\Users\JENNEW~1\AppData\Local\Temp\ccHP0j8f.s 			page 11


 343 007a 7B61     		str	r3, [r7, #20]
 344              	.L19:
 218:QX_Protocol.c **** 		if ((RxMsg_p->Header.Target_Addr == QX_Servers[srv_i].Address) || (RxMsg_p->Header.Target_Addr ==
 345              		.loc 1 218 0 is_stmt 0 discriminator 1
 346 007c 7B69     		ldr	r3, [r7, #20]
 347 007e 002B     		cmp	r3, #0
 348 0080 C5DD     		ble	.L22
 349              	.LBE3:
 228:QX_Protocol.c **** 		}
 229:QX_Protocol.c **** 	}
 230:QX_Protocol.c **** }
 350              		.loc 1 230 0 is_stmt 1
 351 0082 00BF     		nop
 352 0084 1837     		adds	r7, r7, #24
 353              		.cfi_def_cfa_offset 16
 354 0086 BD46     		mov	sp, r7
 355              		.cfi_def_cfa_register 13
 356              		@ sp needed
 357 0088 B0BD     		pop	{r4, r5, r7, pc}
 358              	.L24:
 359 008a 00BF     		.align	2
 360              	.L23:
 361 008c 00000000 		.word	QX_Servers
 362              		.cfi_endproc
 363              	.LFE2:
 364              		.size	QX_Srv_Rx_Read, .-QX_Srv_Rx_Read
 365              		.section	.text.QX_Srv_Rx_Write,"ax",%progbits
 366              		.align	2
 367              		.global	QX_Srv_Rx_Write
 368              		.thumb
 369              		.thumb_func
 370              		.type	QX_Srv_Rx_Write, %function
 371              	QX_Srv_Rx_Write:
 372              	.LFB3:
 231:QX_Protocol.c **** 
 232:QX_Protocol.c **** //----------------------------------------------------------------------------
 233:QX_Protocol.c **** // Server - Recv Write
 234:QX_Protocol.c **** // MSG->APP then APP->MSG
 235:QX_Protocol.c **** void QX_Srv_Rx_Write(QX_Msg_t *RxMsg_p)
 236:QX_Protocol.c **** {
 373              		.loc 1 236 0
 374              		.cfi_startproc
 375              		@ args = 0, pretend = 0, frame = 24
 376              		@ frame_needed = 1, uses_anonymous_args = 0
 377 0000 B0B5     		push	{r4, r5, r7, lr}
 378              		.cfi_def_cfa_offset 16
 379              		.cfi_offset 4, -16
 380              		.cfi_offset 5, -12
 381              		.cfi_offset 7, -8
 382              		.cfi_offset 14, -4
 383 0002 88B0     		sub	sp, sp, #32
 384              		.cfi_def_cfa_offset 48
 385 0004 02AF     		add	r7, sp, #8
 386              		.cfi_def_cfa 7, 40
 387 0006 7860     		str	r0, [r7, #4]
 237:QX_Protocol.c **** 	// Set parsing type
 238:QX_Protocol.c **** 	if (RxMsg_p->Header.Type == QX_MSG_TYPE_WRITE_REL){
ARM GAS  C:\Users\JENNEW~1\AppData\Local\Temp\ccHP0j8f.s 			page 12


 388              		.loc 1 238 0
 389 0008 7B68     		ldr	r3, [r7, #4]
 390 000a 1B7C     		ldrb	r3, [r3, #16]	@ zero_extendqisi2
 391 000c 032B     		cmp	r3, #3
 392 000e 03D1     		bne	.L26
 239:QX_Protocol.c **** 		RxMsg_p->Parse_Type = QX_PARSE_TYPE_WRITE_REL_RECV;
 393              		.loc 1 239 0
 394 0010 7B68     		ldr	r3, [r7, #4]
 395 0012 0522     		movs	r2, #5
 396 0014 1A70     		strb	r2, [r3]
 397 0016 06E0     		b	.L27
 398              	.L26:
 240:QX_Protocol.c **** 	} else if (RxMsg_p->Header.Type == QX_MSG_TYPE_WRITE_ABS){
 399              		.loc 1 240 0
 400 0018 7B68     		ldr	r3, [r7, #4]
 401 001a 1B7C     		ldrb	r3, [r3, #16]	@ zero_extendqisi2
 402 001c 022B     		cmp	r3, #2
 403 001e 02D1     		bne	.L27
 241:QX_Protocol.c **** 		RxMsg_p->Parse_Type = QX_PARSE_TYPE_WRITE_ABS_RECV;
 404              		.loc 1 241 0
 405 0020 7B68     		ldr	r3, [r7, #4]
 406 0022 0322     		movs	r2, #3
 407 0024 1A70     		strb	r2, [r3]
 408              	.L27:
 409              	.LBB5:
 242:QX_Protocol.c **** 	}
 243:QX_Protocol.c **** 	
 244:QX_Protocol.c **** 	// Check Address - For each server node, if unicast & address match or broadcast, handle it
 245:QX_Protocol.c **** 	for (int srv_i = 0; srv_i < QX_NUM_SRV; srv_i++){
 410              		.loc 1 245 0
 411 0026 0023     		movs	r3, #0
 412 0028 7B61     		str	r3, [r7, #20]
 413 002a 41E0     		b	.L28
 414              	.L31:
 246:QX_Protocol.c **** 		if ((RxMsg_p->Header.Target_Addr == QX_Servers[srv_i].Address) || (RxMsg_p->Header.Target_Addr ==
 415              		.loc 1 246 0
 416 002c 7B68     		ldr	r3, [r7, #4]
 417 002e 5A7E     		ldrb	r2, [r3, #25]	@ zero_extendqisi2
 418 0030 2349     		ldr	r1, .L32
 419 0032 7B69     		ldr	r3, [r7, #20]
 420 0034 11F83330 		ldrb	r3, [r1, r3, lsl #3]	@ zero_extendqisi2
 421 0038 9A42     		cmp	r2, r3
 422 003a 03D0     		beq	.L29
 423              		.loc 1 246 0 is_stmt 0 discriminator 1
 424 003c 7B68     		ldr	r3, [r7, #4]
 425 003e 5B7E     		ldrb	r3, [r3, #25]	@ zero_extendqisi2
 426 0040 002B     		cmp	r3, #0
 427 0042 32D1     		bne	.L30
 428              	.L29:
 247:QX_Protocol.c **** 			QX_Servers[srv_i].Parser_CB(RxMsg_p);	// Application callback
 429              		.loc 1 247 0 is_stmt 1
 430 0044 1E4A     		ldr	r2, .L32
 431 0046 7B69     		ldr	r3, [r7, #20]
 432 0048 DB00     		lsls	r3, r3, #3
 433 004a 1344     		add	r3, r3, r2
 434 004c 5B68     		ldr	r3, [r3, #4]
 435 004e 7868     		ldr	r0, [r7, #4]
ARM GAS  C:\Users\JENNEW~1\AppData\Local\Temp\ccHP0j8f.s 			page 13


 436 0050 9847     		blx	r3
 248:QX_Protocol.c **** 		
 249:QX_Protocol.c **** 			// Re-purpose the message to send it
 250:QX_Protocol.c **** 			if (RxMsg_p->DisableStdResponse == 0){
 437              		.loc 1 250 0
 438 0052 7B68     		ldr	r3, [r7, #4]
 439 0054 5B78     		ldrb	r3, [r3, #1]	@ zero_extendqisi2
 440 0056 002B     		cmp	r3, #0
 441 0058 27D1     		bne	.L30
 442              	.LBB6:
 251:QX_Protocol.c **** 				QX_TxMsgOptions_t options;
 252:QX_Protocol.c **** 				QX_InitTxOptions(&options);
 443              		.loc 1 252 0
 444 005a 07F10C03 		add	r3, r7, #12
 445 005e 1846     		mov	r0, r3
 446 0060 FFF7FEFF 		bl	QX_InitTxOptions
 253:QX_Protocol.c **** 				options.use_CRC32 = RxMsg_p->Header.AddCRC32;
 447              		.loc 1 253 0
 448 0064 7B68     		ldr	r3, [r7, #4]
 449 0066 9B7C     		ldrb	r3, [r3, #18]	@ zero_extendqisi2
 450 0068 7B73     		strb	r3, [r7, #13]
 254:QX_Protocol.c **** 				options.FF_Ext = RxMsg_p->Header.FF_Ext;
 451              		.loc 1 254 0
 452 006a 7B68     		ldr	r3, [r7, #4]
 453 006c DB7C     		ldrb	r3, [r3, #19]	@ zero_extendqisi2
 454 006e 3B73     		strb	r3, [r7, #12]
 255:QX_Protocol.c **** 				options.Remove_Addr_Fields = RxMsg_p->Header.Remove_Addr_Fields;
 455              		.loc 1 255 0
 456 0070 7B68     		ldr	r3, [r7, #4]
 457 0072 9B7D     		ldrb	r3, [r3, #22]	@ zero_extendqisi2
 458 0074 BB73     		strb	r3, [r7, #14]
 256:QX_Protocol.c **** 				options.Remove_Req_Fields = 1;		// No need for request fields in a response.
 459              		.loc 1 256 0
 460 0076 0123     		movs	r3, #1
 461 0078 FB73     		strb	r3, [r7, #15]
 257:QX_Protocol.c **** 				options.Target_Addr = RxMsg_p->Header.Source_Addr;		// Reverse target
 462              		.loc 1 257 0
 463 007a 7B68     		ldr	r3, [r7, #4]
 464 007c 1B7E     		ldrb	r3, [r3, #24]	@ zero_extendqisi2
 465 007e 3B74     		strb	r3, [r7, #16]
 258:QX_Protocol.c **** 				QX_SendPacket_Srv_CurVal(&QX_Servers[srv_i], RxMsg_p->Header.Attrib, RxMsg_p->CommPort, options
 466              		.loc 1 258 0
 467 0080 7B69     		ldr	r3, [r7, #20]
 468 0082 DB00     		lsls	r3, r3, #3
 469 0084 0E4A     		ldr	r2, .L32
 470 0086 9818     		adds	r0, r3, r2
 471 0088 7B68     		ldr	r3, [r7, #4]
 472 008a D968     		ldr	r1, [r3, #12]
 473 008c 7B68     		ldr	r3, [r7, #4]
 474 008e 9C79     		ldrb	r4, [r3, #6]	@ zero_extendqisi2
 475 0090 6B46     		mov	r3, sp
 476 0092 07F11002 		add	r2, r7, #16
 477 0096 1268     		ldr	r2, [r2]
 478 0098 1546     		mov	r5, r2	@ movhi
 479 009a 1D80     		strh	r5, [r3]	@ movhi
 480 009c 0233     		adds	r3, r3, #2
 481 009e 120C     		lsrs	r2, r2, #16
ARM GAS  C:\Users\JENNEW~1\AppData\Local\Temp\ccHP0j8f.s 			page 14


 482 00a0 1A70     		strb	r2, [r3]
 483 00a2 FB68     		ldr	r3, [r7, #12]
 484 00a4 2246     		mov	r2, r4
 485 00a6 FFF7FEFF 		bl	QX_SendPacket_Srv_CurVal
 486              	.L30:
 487              	.LBE6:
 245:QX_Protocol.c **** 		if ((RxMsg_p->Header.Target_Addr == QX_Servers[srv_i].Address) || (RxMsg_p->Header.Target_Addr ==
 488              		.loc 1 245 0 discriminator 2
 489 00aa 7B69     		ldr	r3, [r7, #20]
 490 00ac 0133     		adds	r3, r3, #1
 491 00ae 7B61     		str	r3, [r7, #20]
 492              	.L28:
 245:QX_Protocol.c **** 		if ((RxMsg_p->Header.Target_Addr == QX_Servers[srv_i].Address) || (RxMsg_p->Header.Target_Addr ==
 493              		.loc 1 245 0 is_stmt 0 discriminator 1
 494 00b0 7B69     		ldr	r3, [r7, #20]
 495 00b2 002B     		cmp	r3, #0
 496 00b4 BADD     		ble	.L31
 497              	.LBE5:
 259:QX_Protocol.c **** 			}
 260:QX_Protocol.c **** 		}
 261:QX_Protocol.c **** 	}
 262:QX_Protocol.c **** }
 498              		.loc 1 262 0 is_stmt 1
 499 00b6 00BF     		nop
 500 00b8 1837     		adds	r7, r7, #24
 501              		.cfi_def_cfa_offset 16
 502 00ba BD46     		mov	sp, r7
 503              		.cfi_def_cfa_register 13
 504              		@ sp needed
 505 00bc B0BD     		pop	{r4, r5, r7, pc}
 506              	.L33:
 507 00be 00BF     		.align	2
 508              	.L32:
 509 00c0 00000000 		.word	QX_Servers
 510              		.cfi_endproc
 511              	.LFE3:
 512              		.size	QX_Srv_Rx_Write, .-QX_Srv_Rx_Write
 513              		.section	.text.QX_Cli_Rx_CurVal,"ax",%progbits
 514              		.align	2
 515              		.global	QX_Cli_Rx_CurVal
 516              		.thumb
 517              		.thumb_func
 518              		.type	QX_Cli_Rx_CurVal, %function
 519              	QX_Cli_Rx_CurVal:
 520              	.LFB4:
 263:QX_Protocol.c **** 
 264:QX_Protocol.c **** 
 265:QX_Protocol.c **** //----------------------------------------------------------------------------
 266:QX_Protocol.c **** // Client - Recv Current Value
 267:QX_Protocol.c **** // MSG->APP
 268:QX_Protocol.c **** void QX_Cli_Rx_CurVal(QX_Msg_t *RxMsg_p)
 269:QX_Protocol.c **** {
 521              		.loc 1 269 0
 522              		.cfi_startproc
 523              		@ args = 0, pretend = 0, frame = 16
 524              		@ frame_needed = 1, uses_anonymous_args = 0
 525 0000 80B5     		push	{r7, lr}
ARM GAS  C:\Users\JENNEW~1\AppData\Local\Temp\ccHP0j8f.s 			page 15


 526              		.cfi_def_cfa_offset 8
 527              		.cfi_offset 7, -8
 528              		.cfi_offset 14, -4
 529 0002 84B0     		sub	sp, sp, #16
 530              		.cfi_def_cfa_offset 24
 531 0004 00AF     		add	r7, sp, #0
 532              		.cfi_def_cfa_register 7
 533 0006 7860     		str	r0, [r7, #4]
 270:QX_Protocol.c **** 	// Set parsing type
 271:QX_Protocol.c **** 	RxMsg_p->Parse_Type = QX_PARSE_TYPE_CURVAL_RECV;
 534              		.loc 1 271 0
 535 0008 7B68     		ldr	r3, [r7, #4]
 536 000a 0122     		movs	r2, #1
 537 000c 1A70     		strb	r2, [r3]
 538              	.LBB7:
 272:QX_Protocol.c **** 	
 273:QX_Protocol.c **** 	// Check Address - For each client instance, if unicast & address match or broadcast, handle it
 274:QX_Protocol.c **** 	for (int cli_i = 0; cli_i < QX_NUM_CLI; cli_i++){
 539              		.loc 1 274 0
 540 000e 0023     		movs	r3, #0
 541 0010 FB60     		str	r3, [r7, #12]
 542 0012 09E0     		b	.L35
 543              	.L36:
 275:QX_Protocol.c **** 		QX_Clients[cli_i].Parser_CB(RxMsg_p);	// Application callback
 544              		.loc 1 275 0 discriminator 3
 545 0014 084A     		ldr	r2, .L37
 546 0016 FB68     		ldr	r3, [r7, #12]
 547 0018 DB00     		lsls	r3, r3, #3
 548 001a 1344     		add	r3, r3, r2
 549 001c 5B68     		ldr	r3, [r3, #4]
 550 001e 7868     		ldr	r0, [r7, #4]
 551 0020 9847     		blx	r3
 274:QX_Protocol.c **** 		QX_Clients[cli_i].Parser_CB(RxMsg_p);	// Application callback
 552              		.loc 1 274 0 discriminator 3
 553 0022 FB68     		ldr	r3, [r7, #12]
 554 0024 0133     		adds	r3, r3, #1
 555 0026 FB60     		str	r3, [r7, #12]
 556              	.L35:
 274:QX_Protocol.c **** 		QX_Clients[cli_i].Parser_CB(RxMsg_p);	// Application callback
 557              		.loc 1 274 0 is_stmt 0 discriminator 1
 558 0028 FB68     		ldr	r3, [r7, #12]
 559 002a 002B     		cmp	r3, #0
 560 002c F2DD     		ble	.L36
 561              	.LBE7:
 276:QX_Protocol.c **** 	}
 277:QX_Protocol.c **** }
 562              		.loc 1 277 0 is_stmt 1
 563 002e 00BF     		nop
 564 0030 1037     		adds	r7, r7, #16
 565              		.cfi_def_cfa_offset 8
 566 0032 BD46     		mov	sp, r7
 567              		.cfi_def_cfa_register 13
 568              		@ sp needed
 569 0034 80BD     		pop	{r7, pc}
 570              	.L38:
 571 0036 00BF     		.align	2
 572              	.L37:
ARM GAS  C:\Users\JENNEW~1\AppData\Local\Temp\ccHP0j8f.s 			page 16


 573 0038 00000000 		.word	QX_Clients
 574              		.cfi_endproc
 575              	.LFE4:
 576              		.size	QX_Cli_Rx_CurVal, .-QX_Cli_Rx_CurVal
 577              		.section	.text.QX_TxMsg_Setup,"ax",%progbits
 578              		.align	2
 579              		.global	QX_TxMsg_Setup
 580              		.thumb
 581              		.thumb_func
 582              		.type	QX_TxMsg_Setup, %function
 583              	QX_TxMsg_Setup:
 584              	.LFB5:
 278:QX_Protocol.c **** 
 279:QX_Protocol.c **** 
 280:QX_Protocol.c **** //----------------------------------------------------------------------------
 281:QX_Protocol.c **** // Transmit QX Packet according to Message Structure
 282:QX_Protocol.c **** QX_Stat_e QX_TxMsg_Setup(QX_Msg_t *TxMsg_p)
 283:QX_Protocol.c **** {
 585              		.loc 1 283 0
 586              		.cfi_startproc
 587              		@ args = 0, pretend = 0, frame = 8
 588              		@ frame_needed = 1, uses_anonymous_args = 0
 589 0000 80B5     		push	{r7, lr}
 590              		.cfi_def_cfa_offset 8
 591              		.cfi_offset 7, -8
 592              		.cfi_offset 14, -4
 593 0002 82B0     		sub	sp, sp, #8
 594              		.cfi_def_cfa_offset 16
 595 0004 00AF     		add	r7, sp, #0
 596              		.cfi_def_cfa_register 7
 597 0006 7860     		str	r0, [r7, #4]
 284:QX_Protocol.c **** 	// Set the Buffer pointer to the start of the Attribute field accounting for the maximum number of
 285:QX_Protocol.c **** 	// (unknown length prior to parsing) ('Q' + 'X' + LEN0 + LEN1)
 286:QX_Protocol.c **** 	TxMsg_p->MsgBufAtt_p = &TxMsg_p->MsgBuf[4];
 598              		.loc 1 286 0
 599 0008 7B68     		ldr	r3, [r7, #4]
 600 000a 03F12002 		add	r2, r3, #32
 601 000e 7B68     		ldr	r3, [r7, #4]
 602 0010 9A66     		str	r2, [r3, #104]
 287:QX_Protocol.c **** 	TxMsg_p->MsgBuf_p = TxMsg_p->MsgBufAtt_p;
 603              		.loc 1 287 0
 604 0012 7B68     		ldr	r3, [r7, #4]
 605 0014 9A6E     		ldr	r2, [r3, #104]
 606 0016 7B68     		ldr	r3, [r7, #4]
 607 0018 1A67     		str	r2, [r3, #112]
 288:QX_Protocol.c **** 	
 289:QX_Protocol.c **** 	// Build the Frame Header
 290:QX_Protocol.c **** 	if (TxMsg_p->Legacy_Header){
 608              		.loc 1 290 0
 609 001a 7B68     		ldr	r3, [r7, #4]
 610 001c 5B79     		ldrb	r3, [r3, #5]	@ zero_extendqisi2
 611 001e 002B     		cmp	r3, #0
 612 0020 0AD0     		beq	.L40
 291:QX_Protocol.c **** 		if (*QX_BuildHeader_Legacy != NULL){
 613              		.loc 1 291 0
 614 0022 094B     		ldr	r3, .L44
 615 0024 1B68     		ldr	r3, [r3]
ARM GAS  C:\Users\JENNEW~1\AppData\Local\Temp\ccHP0j8f.s 			page 17


 616 0026 002B     		cmp	r3, #0
 617 0028 04D0     		beq	.L41
 292:QX_Protocol.c **** 			QX_BuildHeader_Legacy(TxMsg_p);
 618              		.loc 1 292 0
 619 002a 074B     		ldr	r3, .L44
 620 002c 1B68     		ldr	r3, [r3]
 621 002e 7868     		ldr	r0, [r7, #4]
 622 0030 9847     		blx	r3
 623 0032 04E0     		b	.L42
 624              	.L41:
 293:QX_Protocol.c **** 		} else {
 294:QX_Protocol.c **** 			return QX_STAT_ERROR;
 625              		.loc 1 294 0
 626 0034 0123     		movs	r3, #1
 627 0036 03E0     		b	.L43
 628              	.L40:
 295:QX_Protocol.c **** 		}
 296:QX_Protocol.c **** 	} else {									
 297:QX_Protocol.c **** 		QX_BuildHeader(TxMsg_p);
 629              		.loc 1 297 0
 630 0038 7868     		ldr	r0, [r7, #4]
 631 003a FFF7FEFF 		bl	QX_BuildHeader
 632              	.L42:
 298:QX_Protocol.c **** 	}
 299:QX_Protocol.c **** 	
 300:QX_Protocol.c **** 	return QX_STAT_OK;
 633              		.loc 1 300 0
 634 003e 0023     		movs	r3, #0
 635              	.L43:
 301:QX_Protocol.c **** }
 636              		.loc 1 301 0
 637 0040 1846     		mov	r0, r3
 638 0042 0837     		adds	r7, r7, #8
 639              		.cfi_def_cfa_offset 8
 640 0044 BD46     		mov	sp, r7
 641              		.cfi_def_cfa_register 13
 642              		@ sp needed
 643 0046 80BD     		pop	{r7, pc}
 644              	.L45:
 645              		.align	2
 646              	.L44:
 647 0048 00000000 		.word	QX_BuildHeader_Legacy
 648              		.cfi_endproc
 649              	.LFE5:
 650              		.size	QX_TxMsg_Setup, .-QX_TxMsg_Setup
 651              		.section	.text.QX_TxMsg_Finish,"ax",%progbits
 652              		.align	2
 653              		.global	QX_TxMsg_Finish
 654              		.thumb
 655              		.thumb_func
 656              		.type	QX_TxMsg_Finish, %function
 657              	QX_TxMsg_Finish:
 658              	.LFB6:
 302:QX_Protocol.c **** 
 303:QX_Protocol.c **** 
 304:QX_Protocol.c **** //----------------------------------------------------------------------------
 305:QX_Protocol.c **** // After message data has been parsed, finish building the message
ARM GAS  C:\Users\JENNEW~1\AppData\Local\Temp\ccHP0j8f.s 			page 18


 306:QX_Protocol.c **** QX_Stat_e QX_TxMsg_Finish(QX_Msg_t *TxMsg_p)
 307:QX_Protocol.c **** {	
 659              		.loc 1 307 0
 660              		.cfi_startproc
 661              		@ args = 0, pretend = 0, frame = 24
 662              		@ frame_needed = 1, uses_anonymous_args = 0
 663 0000 80B5     		push	{r7, lr}
 664              		.cfi_def_cfa_offset 8
 665              		.cfi_offset 7, -8
 666              		.cfi_offset 14, -4
 667 0002 86B0     		sub	sp, sp, #24
 668              		.cfi_def_cfa_offset 32
 669 0004 00AF     		add	r7, sp, #0
 670              		.cfi_def_cfa_register 7
 671 0006 7860     		str	r0, [r7, #4]
 308:QX_Protocol.c **** 	uint8_t QX_use2ByteLen = 0;
 672              		.loc 1 308 0
 673 0008 0023     		movs	r3, #0
 674 000a FB75     		strb	r3, [r7, #23]
 309:QX_Protocol.c **** 	
 310:QX_Protocol.c **** 	// If this attribute isn't handled, (no data) return
 311:QX_Protocol.c **** 	if(TxMsg_p->AttNotHandled == 1) return QX_STAT_ERROR_ATT_NOT_HANDLED;
 675              		.loc 1 311 0
 676 000c 7B68     		ldr	r3, [r7, #4]
 677 000e 1B79     		ldrb	r3, [r3, #4]	@ zero_extendqisi2
 678 0010 012B     		cmp	r3, #1
 679 0012 01D1     		bne	.L47
 680              		.loc 1 311 0 is_stmt 0 discriminator 1
 681 0014 0823     		movs	r3, #8
 682 0016 DDE0     		b	.L48
 683              	.L47:
 312:QX_Protocol.c **** 	
 313:QX_Protocol.c **** 	// Find the Message Length (Attribute to End of Payload)
 314:QX_Protocol.c **** 	TxMsg_p->Header.MsgLength = TxMsg_p->MsgBuf_p - TxMsg_p->MsgBufAtt_p;
 684              		.loc 1 314 0 is_stmt 1
 685 0018 7B68     		ldr	r3, [r7, #4]
 686 001a 1B6F     		ldr	r3, [r3, #112]
 687 001c 1A46     		mov	r2, r3
 688 001e 7B68     		ldr	r3, [r7, #4]
 689 0020 9B6E     		ldr	r3, [r3, #104]
 690 0022 D31A     		subs	r3, r2, r3
 691 0024 9AB2     		uxth	r2, r3
 692 0026 7B68     		ldr	r3, [r7, #4]
 693 0028 1A81     		strh	r2, [r3, #8]	@ movhi
 315:QX_Protocol.c **** 	
 316:QX_Protocol.c **** 	// force two_byte length field if the message body is the legacy type or is already larger than 10
 317:QX_Protocol.c **** 	if (TxMsg_p->Legacy_Header || (TxMsg_p->Header.MsgLength > 100)){
 694              		.loc 1 317 0
 695 002a 7B68     		ldr	r3, [r7, #4]
 696 002c 5B79     		ldrb	r3, [r3, #5]	@ zero_extendqisi2
 697 002e 002B     		cmp	r3, #0
 698 0030 03D1     		bne	.L49
 699              		.loc 1 317 0 is_stmt 0 discriminator 1
 700 0032 7B68     		ldr	r3, [r7, #4]
 701 0034 1B89     		ldrh	r3, [r3, #8]
 702 0036 642B     		cmp	r3, #100
 703 0038 07D9     		bls	.L50
ARM GAS  C:\Users\JENNEW~1\AppData\Local\Temp\ccHP0j8f.s 			page 19


 704              	.L49:
 318:QX_Protocol.c **** 		TxMsg_p->MsgBufStart_p = &TxMsg_p->MsgBuf[0];
 705              		.loc 1 318 0 is_stmt 1
 706 003a 7B68     		ldr	r3, [r7, #4]
 707 003c 03F11C02 		add	r2, r3, #28
 708 0040 7B68     		ldr	r3, [r7, #4]
 709 0042 5A66     		str	r2, [r3, #100]
 319:QX_Protocol.c **** 		QX_use2ByteLen = 1;
 710              		.loc 1 319 0
 711 0044 0123     		movs	r3, #1
 712 0046 FB75     		strb	r3, [r7, #23]
 713 0048 04E0     		b	.L51
 714              	.L50:
 320:QX_Protocol.c **** 	} else {
 321:QX_Protocol.c **** 		TxMsg_p->MsgBufStart_p = &TxMsg_p->MsgBuf[1];
 715              		.loc 1 321 0
 716 004a 7B68     		ldr	r3, [r7, #4]
 717 004c 03F11D02 		add	r2, r3, #29
 718 0050 7B68     		ldr	r3, [r7, #4]
 719 0052 5A66     		str	r2, [r3, #100]
 720              	.L51:
 322:QX_Protocol.c **** 	}
 323:QX_Protocol.c **** 	
 324:QX_Protocol.c **** 	// Save the size of the overall message buffer after determining start location, before any CRC is
 325:QX_Protocol.c **** 	TxMsg_p->MsgBuf_MsgLen = TxMsg_p->MsgBuf_p - TxMsg_p->MsgBufStart_p;
 721              		.loc 1 325 0
 722 0054 7B68     		ldr	r3, [r7, #4]
 723 0056 1B6F     		ldr	r3, [r3, #112]
 724 0058 1A46     		mov	r2, r3
 725 005a 7B68     		ldr	r3, [r7, #4]
 726 005c 5B6E     		ldr	r3, [r3, #100]
 727 005e D31A     		subs	r3, r2, r3
 728 0060 9AB2     		uxth	r2, r3
 729 0062 7B68     		ldr	r3, [r7, #4]
 730 0064 A3F86220 		strh	r2, [r3, #98]	@ movhi
 326:QX_Protocol.c **** 	
 327:QX_Protocol.c **** 	// If CRC32 is used, find sizing with padding
 328:QX_Protocol.c **** 	if (TxMsg_p->Header.AddCRC32){
 731              		.loc 1 328 0
 732 0068 7B68     		ldr	r3, [r7, #4]
 733 006a 9B7C     		ldrb	r3, [r3, #18]	@ zero_extendqisi2
 734 006c 002B     		cmp	r3, #0
 735 006e 29D0     		beq	.L52
 736              	.LBB8:
 329:QX_Protocol.c **** 		
 330:QX_Protocol.c **** 		// Add padding to get to 4 byte alignment
 331:QX_Protocol.c **** 		uint32_t bytes_to_add = 4 - ((TxMsg_p->MsgBuf_MsgLen) % 4);		// CRC will bec checked over all byt
 737              		.loc 1 331 0
 738 0070 7B68     		ldr	r3, [r7, #4]
 739 0072 B3F86230 		ldrh	r3, [r3, #98]
 740 0076 03F00303 		and	r3, r3, #3
 741 007a C3F10403 		rsb	r3, r3, #4
 742 007e 3B61     		str	r3, [r7, #16]
 332:QX_Protocol.c **** 		memset(TxMsg_p->MsgBuf_p, 0, bytes_to_add);		// write zeros to the padding
 743              		.loc 1 332 0
 744 0080 7B68     		ldr	r3, [r7, #4]
 745 0082 1B6F     		ldr	r3, [r3, #112]
ARM GAS  C:\Users\JENNEW~1\AppData\Local\Temp\ccHP0j8f.s 			page 20


 746 0084 3A69     		ldr	r2, [r7, #16]
 747 0086 0021     		movs	r1, #0
 748 0088 1846     		mov	r0, r3
 749 008a FFF7FEFF 		bl	memset
 333:QX_Protocol.c **** 		TxMsg_p->MsgBuf_p += bytes_to_add;				// Move to where the CRC should be inserted
 750              		.loc 1 333 0
 751 008e 7B68     		ldr	r3, [r7, #4]
 752 0090 1A6F     		ldr	r2, [r3, #112]
 753 0092 3B69     		ldr	r3, [r7, #16]
 754 0094 1A44     		add	r2, r2, r3
 755 0096 7B68     		ldr	r3, [r7, #4]
 756 0098 1A67     		str	r2, [r3, #112]
 334:QX_Protocol.c **** 		TxMsg_p->MsgBuf_MsgLen += bytes_to_add;			// msg length not including CRC + outer checksum
 757              		.loc 1 334 0
 758 009a 7B68     		ldr	r3, [r7, #4]
 759 009c B3F86220 		ldrh	r2, [r3, #98]
 760 00a0 3B69     		ldr	r3, [r7, #16]
 761 00a2 9BB2     		uxth	r3, r3
 762 00a4 1344     		add	r3, r3, r2
 763 00a6 9AB2     		uxth	r2, r3
 764 00a8 7B68     		ldr	r3, [r7, #4]
 765 00aa A3F86220 		strh	r2, [r3, #98]	@ movhi
 335:QX_Protocol.c **** 		TxMsg_p->Header.MsgLength = (TxMsg_p->MsgBuf_p - TxMsg_p->MsgBufAtt_p) + 4;	// length between att
 766              		.loc 1 335 0
 767 00ae 7B68     		ldr	r3, [r7, #4]
 768 00b0 1B6F     		ldr	r3, [r3, #112]
 769 00b2 1A46     		mov	r2, r3
 770 00b4 7B68     		ldr	r3, [r7, #4]
 771 00b6 9B6E     		ldr	r3, [r3, #104]
 772 00b8 D31A     		subs	r3, r2, r3
 773 00ba 9BB2     		uxth	r3, r3
 774 00bc 0433     		adds	r3, r3, #4
 775 00be 9AB2     		uxth	r2, r3
 776 00c0 7B68     		ldr	r3, [r7, #4]
 777 00c2 1A81     		strh	r2, [r3, #8]	@ movhi
 778              	.L52:
 779              	.LBE8:
 336:QX_Protocol.c **** 	}
 337:QX_Protocol.c **** 	
 338:QX_Protocol.c **** 	// Add In the Final Message Size (Expandable if above 100 bytes) and Start Bytes
 339:QX_Protocol.c **** 	if (TxMsg_p->Legacy_Header){
 780              		.loc 1 339 0
 781 00c4 7B68     		ldr	r3, [r7, #4]
 782 00c6 5B79     		ldrb	r3, [r3, #5]	@ zero_extendqisi2
 783 00c8 002B     		cmp	r3, #0
 784 00ca 12D0     		beq	.L53
 340:QX_Protocol.c **** 			TxMsg_p->MsgBuf[0] = 'Q';
 785              		.loc 1 340 0
 786 00cc 7B68     		ldr	r3, [r7, #4]
 787 00ce 5122     		movs	r2, #81
 788 00d0 1A77     		strb	r2, [r3, #28]
 341:QX_Protocol.c **** 			TxMsg_p->MsgBuf[1] = 'B';
 789              		.loc 1 341 0
 790 00d2 7B68     		ldr	r3, [r7, #4]
 791 00d4 4222     		movs	r2, #66
 792 00d6 5A77     		strb	r2, [r3, #29]
 342:QX_Protocol.c **** 			TxMsg_p->MsgBuf[2] = (TxMsg_p->Header.MsgLength >> 8) & 0xFF;
ARM GAS  C:\Users\JENNEW~1\AppData\Local\Temp\ccHP0j8f.s 			page 21


 793              		.loc 1 342 0
 794 00d8 7B68     		ldr	r3, [r7, #4]
 795 00da 1B89     		ldrh	r3, [r3, #8]
 796 00dc 1B0A     		lsrs	r3, r3, #8
 797 00de 9BB2     		uxth	r3, r3
 798 00e0 DAB2     		uxtb	r2, r3
 799 00e2 7B68     		ldr	r3, [r7, #4]
 800 00e4 9A77     		strb	r2, [r3, #30]
 343:QX_Protocol.c **** 			TxMsg_p->MsgBuf[3] = TxMsg_p->Header.MsgLength & 0xFF;
 801              		.loc 1 343 0
 802 00e6 7B68     		ldr	r3, [r7, #4]
 803 00e8 1B89     		ldrh	r3, [r3, #8]
 804 00ea DAB2     		uxtb	r2, r3
 805 00ec 7B68     		ldr	r3, [r7, #4]
 806 00ee DA77     		strb	r2, [r3, #31]
 807 00f0 2AE0     		b	.L54
 808              	.L53:
 344:QX_Protocol.c **** 	} else {	// QX
 345:QX_Protocol.c **** 		if (QX_use2ByteLen) {
 809              		.loc 1 345 0
 810 00f2 FB7D     		ldrb	r3, [r7, #23]	@ zero_extendqisi2
 811 00f4 002B     		cmp	r3, #0
 812 00f6 19D0     		beq	.L55
 346:QX_Protocol.c **** 			TxMsg_p->MsgBuf[0] = 'Q';
 813              		.loc 1 346 0
 814 00f8 7B68     		ldr	r3, [r7, #4]
 815 00fa 5122     		movs	r2, #81
 816 00fc 1A77     		strb	r2, [r3, #28]
 347:QX_Protocol.c **** 			TxMsg_p->MsgBuf[1] = 'X';
 817              		.loc 1 347 0
 818 00fe 7B68     		ldr	r3, [r7, #4]
 819 0100 5822     		movs	r2, #88
 820 0102 5A77     		strb	r2, [r3, #29]
 348:QX_Protocol.c **** 			TxMsg_p->MsgBuf[2] = (TxMsg_p->Header.MsgLength & 0x7F) | 0x80;
 821              		.loc 1 348 0
 822 0104 7B68     		ldr	r3, [r7, #4]
 823 0106 1B89     		ldrh	r3, [r3, #8]
 824 0108 5BB2     		sxtb	r3, r3
 825 010a 63F07F03 		orn	r3, r3, #127
 826 010e 5BB2     		sxtb	r3, r3
 827 0110 DAB2     		uxtb	r2, r3
 828 0112 7B68     		ldr	r3, [r7, #4]
 829 0114 9A77     		strb	r2, [r3, #30]
 349:QX_Protocol.c **** 			TxMsg_p->MsgBuf[3] = ((TxMsg_p->Header.MsgLength >> 7) & 0x7F);
 830              		.loc 1 349 0
 831 0116 7B68     		ldr	r3, [r7, #4]
 832 0118 1B89     		ldrh	r3, [r3, #8]
 833 011a DB09     		lsrs	r3, r3, #7
 834 011c 9BB2     		uxth	r3, r3
 835 011e DBB2     		uxtb	r3, r3
 836 0120 03F07F03 		and	r3, r3, #127
 837 0124 DAB2     		uxtb	r2, r3
 838 0126 7B68     		ldr	r3, [r7, #4]
 839 0128 DA77     		strb	r2, [r3, #31]
 840 012a 0DE0     		b	.L54
 841              	.L55:
 350:QX_Protocol.c **** 		} else {
ARM GAS  C:\Users\JENNEW~1\AppData\Local\Temp\ccHP0j8f.s 			page 22


 351:QX_Protocol.c **** 			TxMsg_p->MsgBuf[1] = 'Q';
 842              		.loc 1 351 0
 843 012c 7B68     		ldr	r3, [r7, #4]
 844 012e 5122     		movs	r2, #81
 845 0130 5A77     		strb	r2, [r3, #29]
 352:QX_Protocol.c **** 			TxMsg_p->MsgBuf[2] = 'X';
 846              		.loc 1 352 0
 847 0132 7B68     		ldr	r3, [r7, #4]
 848 0134 5822     		movs	r2, #88
 849 0136 9A77     		strb	r2, [r3, #30]
 353:QX_Protocol.c **** 			TxMsg_p->MsgBuf[3] = TxMsg_p->Header.MsgLength & 0x7F;
 850              		.loc 1 353 0
 851 0138 7B68     		ldr	r3, [r7, #4]
 852 013a 1B89     		ldrh	r3, [r3, #8]
 853 013c DBB2     		uxtb	r3, r3
 854 013e 03F07F03 		and	r3, r3, #127
 855 0142 DAB2     		uxtb	r2, r3
 856 0144 7B68     		ldr	r3, [r7, #4]
 857 0146 DA77     		strb	r2, [r3, #31]
 858              	.L54:
 354:QX_Protocol.c **** 		}
 355:QX_Protocol.c **** 	}
 356:QX_Protocol.c **** 	
 357:QX_Protocol.c **** 	// Add in the CRC32 if needed
 358:QX_Protocol.c **** 	if (TxMsg_p->Header.AddCRC32){
 859              		.loc 1 358 0
 860 0148 7B68     		ldr	r3, [r7, #4]
 861 014a 9B7C     		ldrb	r3, [r3, #18]	@ zero_extendqisi2
 862 014c 002B     		cmp	r3, #0
 863 014e 22D0     		beq	.L56
 864              	.LBB9:
 359:QX_Protocol.c **** 		uint32_t crc = QX_accumulate_crc32(0xFFFFFFFF, TxMsg_p->MsgBufStart_p, TxMsg_p->MsgBuf_MsgLen);
 865              		.loc 1 359 0
 866 0150 7B68     		ldr	r3, [r7, #4]
 867 0152 596E     		ldr	r1, [r3, #100]
 868 0154 7B68     		ldr	r3, [r7, #4]
 869 0156 B3F86230 		ldrh	r3, [r3, #98]
 870 015a 1A46     		mov	r2, r3
 871 015c 4FF0FF30 		mov	r0, #-1
 872 0160 FFF7FEFF 		bl	QX_accumulate_crc32
 873 0164 0346     		mov	r3, r0
 874 0166 BB60     		str	r3, [r7, #8]
 360:QX_Protocol.c **** 		memcpy(TxMsg_p->MsgBuf_p, &crc, sizeof(crc));
 875              		.loc 1 360 0
 876 0168 7B68     		ldr	r3, [r7, #4]
 877 016a 1B6F     		ldr	r3, [r3, #112]
 878 016c 07F10801 		add	r1, r7, #8
 879 0170 0422     		movs	r2, #4
 880 0172 1846     		mov	r0, r3
 881 0174 FFF7FEFF 		bl	memcpy
 361:QX_Protocol.c **** 		TxMsg_p->MsgBuf_p += 4;		// Add space for CRC32 checksum
 882              		.loc 1 361 0
 883 0178 7B68     		ldr	r3, [r7, #4]
 884 017a 1B6F     		ldr	r3, [r3, #112]
 885 017c 1A1D     		adds	r2, r3, #4
 886 017e 7B68     		ldr	r3, [r7, #4]
 887 0180 1A67     		str	r2, [r3, #112]
ARM GAS  C:\Users\JENNEW~1\AppData\Local\Temp\ccHP0j8f.s 			page 23


 362:QX_Protocol.c **** 		TxMsg_p->MsgBuf_MsgLen = TxMsg_p->MsgBuf_p - TxMsg_p->MsgBufStart_p;	// Update the overall msg le
 888              		.loc 1 362 0
 889 0182 7B68     		ldr	r3, [r7, #4]
 890 0184 1B6F     		ldr	r3, [r3, #112]
 891 0186 1A46     		mov	r2, r3
 892 0188 7B68     		ldr	r3, [r7, #4]
 893 018a 5B6E     		ldr	r3, [r3, #100]
 894 018c D31A     		subs	r3, r2, r3
 895 018e 9AB2     		uxth	r2, r3
 896 0190 7B68     		ldr	r3, [r7, #4]
 897 0192 A3F86220 		strh	r2, [r3, #98]	@ movhi
 898              	.L56:
 899              	.LBE9:
 363:QX_Protocol.c **** 	}
 364:QX_Protocol.c **** 	
 365:QX_Protocol.c **** 	// Calculate overall outer checksum
 366:QX_Protocol.c **** 	uint8_t chksum = QX_Calc8bChecksum(TxMsg_p->MsgBufAtt_p, TxMsg_p->Header.MsgLength);
 900              		.loc 1 366 0
 901 0196 7B68     		ldr	r3, [r7, #4]
 902 0198 9A6E     		ldr	r2, [r3, #104]
 903 019a 7B68     		ldr	r3, [r7, #4]
 904 019c 1B89     		ldrh	r3, [r3, #8]
 905 019e 1946     		mov	r1, r3
 906 01a0 1046     		mov	r0, r2
 907 01a2 FFF7FEFF 		bl	QX_Calc8bChecksum
 908 01a6 0346     		mov	r3, r0
 909 01a8 FB73     		strb	r3, [r7, #15]
 367:QX_Protocol.c **** 	
 368:QX_Protocol.c **** 	*TxMsg_p->MsgBuf_p++ = 0xFF - chksum;	// Add the Overall Checksum
 910              		.loc 1 368 0
 911 01aa 7B68     		ldr	r3, [r7, #4]
 912 01ac 1B6F     		ldr	r3, [r3, #112]
 913 01ae 591C     		adds	r1, r3, #1
 914 01b0 7A68     		ldr	r2, [r7, #4]
 915 01b2 1167     		str	r1, [r2, #112]
 916 01b4 FA7B     		ldrb	r2, [r7, #15]
 917 01b6 D243     		mvns	r2, r2
 918 01b8 D2B2     		uxtb	r2, r2
 919 01ba 1A70     		strb	r2, [r3]
 369:QX_Protocol.c **** 	TxMsg_p->MsgBuf_MsgLen++;	// Final message length on the wire
 920              		.loc 1 369 0
 921 01bc 7B68     		ldr	r3, [r7, #4]
 922 01be B3F86230 		ldrh	r3, [r3, #98]
 923 01c2 0133     		adds	r3, r3, #1
 924 01c4 9AB2     		uxth	r2, r3
 925 01c6 7B68     		ldr	r3, [r7, #4]
 926 01c8 A3F86220 		strh	r2, [r3, #98]	@ movhi
 370:QX_Protocol.c **** 	
 371:QX_Protocol.c **** 	#ifdef QX_DEBUG
 372:QX_Protocol.c **** 	printf("Raw Msg Packet:\n\r");
 373:QX_Protocol.c **** 	QX_debug_print_Hex(TxMsg_p->MsgBufStart_p, TxMsg_p->MsgBuf_MsgLen);
 374:QX_Protocol.c **** 	QX_debug_print_MsgDetails(TxMsg_p);
 375:QX_Protocol.c **** 	#endif
 376:QX_Protocol.c **** 	
 377:QX_Protocol.c **** 	// Send the Message to the Appropriate Comms Port
 378:QX_Protocol.c **** 	QX_SendMsg2CommsPort_CB(TxMsg_p);
 927              		.loc 1 378 0
ARM GAS  C:\Users\JENNEW~1\AppData\Local\Temp\ccHP0j8f.s 			page 24


 928 01cc 7868     		ldr	r0, [r7, #4]
 929 01ce FFF7FEFF 		bl	QX_SendMsg2CommsPort_CB
 379:QX_Protocol.c **** 	
 380:QX_Protocol.c **** 	return QX_STAT_OK;
 930              		.loc 1 380 0
 931 01d2 0023     		movs	r3, #0
 932              	.L48:
 381:QX_Protocol.c **** }
 933              		.loc 1 381 0
 934 01d4 1846     		mov	r0, r3
 935 01d6 1837     		adds	r7, r7, #24
 936              		.cfi_def_cfa_offset 8
 937 01d8 BD46     		mov	sp, r7
 938              		.cfi_def_cfa_register 13
 939              		@ sp needed
 940 01da 80BD     		pop	{r7, pc}
 941              		.cfi_endproc
 942              	.LFE6:
 943              		.size	QX_TxMsg_Finish, .-QX_TxMsg_Finish
 944              		.section	.text.QX_BuildHeader,"ax",%progbits
 945              		.align	2
 946              		.global	QX_BuildHeader
 947              		.thumb
 948              		.thumb_func
 949              		.type	QX_BuildHeader, %function
 950              	QX_BuildHeader:
 951              	.LFB7:
 382:QX_Protocol.c **** 
 383:QX_Protocol.c **** 
 384:QX_Protocol.c **** //----------------------------------------------------------------------------
 385:QX_Protocol.c **** // Build a QX Message Header
 386:QX_Protocol.c **** void QX_BuildHeader(QX_Msg_t *Msg_p)
 387:QX_Protocol.c **** {
 952              		.loc 1 387 0
 953              		.cfi_startproc
 954              		@ args = 0, pretend = 0, frame = 16
 955              		@ frame_needed = 1, uses_anonymous_args = 0
 956 0000 80B5     		push	{r7, lr}
 957              		.cfi_def_cfa_offset 8
 958              		.cfi_offset 7, -8
 959              		.cfi_offset 14, -4
 960 0002 84B0     		sub	sp, sp, #16
 961              		.cfi_def_cfa_offset 24
 962 0004 00AF     		add	r7, sp, #0
 963              		.cfi_def_cfa_register 7
 964 0006 7860     		str	r0, [r7, #4]
 388:QX_Protocol.c **** 	// Start at the Attribute Field
 389:QX_Protocol.c **** 	Msg_p->MsgBuf_p = Msg_p->MsgBufAtt_p;
 965              		.loc 1 389 0
 966 0008 7B68     		ldr	r3, [r7, #4]
 967 000a 9A6E     		ldr	r2, [r3, #104]
 968 000c 7B68     		ldr	r3, [r7, #4]
 969 000e 1A67     		str	r2, [r3, #112]
 390:QX_Protocol.c **** 
 391:QX_Protocol.c **** 	// Add the Extendible Attribute Number
 392:QX_Protocol.c **** 	QX_AddExtdValToBuf(&Msg_p->MsgBuf_p, Msg_p->Header.Attrib);
 970              		.loc 1 392 0
ARM GAS  C:\Users\JENNEW~1\AppData\Local\Temp\ccHP0j8f.s 			page 25


 971 0010 7B68     		ldr	r3, [r7, #4]
 972 0012 03F17002 		add	r2, r3, #112
 973 0016 7B68     		ldr	r3, [r7, #4]
 974 0018 DB68     		ldr	r3, [r3, #12]
 975 001a 1946     		mov	r1, r3
 976 001c 1046     		mov	r0, r2
 977 001e FFF7FEFF 		bl	QX_AddExtdValToBuf
 393:QX_Protocol.c **** 
 394:QX_Protocol.c **** 	Msg_p->Header.AddOptionByte1 = 0;
 978              		.loc 1 394 0
 979 0022 7B68     		ldr	r3, [r7, #4]
 980 0024 0022     		movs	r2, #0
 981 0026 5A74     		strb	r2, [r3, #17]
 395:QX_Protocol.c **** 	
 396:QX_Protocol.c **** 	// Check if option byte 1 is needed.
 397:QX_Protocol.c **** 	if (Msg_p->Header.AddCRC32){
 982              		.loc 1 397 0
 983 0028 7B68     		ldr	r3, [r7, #4]
 984 002a 9B7C     		ldrb	r3, [r3, #18]	@ zero_extendqisi2
 985 002c 002B     		cmp	r3, #0
 986 002e 02D0     		beq	.L58
 398:QX_Protocol.c **** 		Msg_p->Header.AddOptionByte1 = 1;
 987              		.loc 1 398 0
 988 0030 7B68     		ldr	r3, [r7, #4]
 989 0032 0122     		movs	r2, #1
 990 0034 5A74     		strb	r2, [r3, #17]
 991              	.L58:
 399:QX_Protocol.c **** 	}
 400:QX_Protocol.c **** 	
 401:QX_Protocol.c **** 	// Add Base Option Byte
 402:QX_Protocol.c **** 	volatile uint8_t OptionByte = 0;
 992              		.loc 1 402 0
 993 0036 0023     		movs	r3, #0
 994 0038 FB73     		strb	r3, [r7, #15]
 403:QX_Protocol.c **** 	OptionByte |= (Msg_p->Header.Type & 0xF);
 995              		.loc 1 403 0
 996 003a 7B68     		ldr	r3, [r7, #4]
 997 003c 1B7C     		ldrb	r3, [r3, #16]	@ zero_extendqisi2
 998 003e 5BB2     		sxtb	r3, r3
 999 0040 03F00F03 		and	r3, r3, #15
 1000 0044 5AB2     		sxtb	r2, r3
 1001 0046 FB7B     		ldrb	r3, [r7, #15]
 1002 0048 DBB2     		uxtb	r3, r3
 1003 004a 5BB2     		sxtb	r3, r3
 1004 004c 1343     		orrs	r3, r3, r2
 1005 004e 5BB2     		sxtb	r3, r3
 1006 0050 DBB2     		uxtb	r3, r3
 1007 0052 FB73     		strb	r3, [r7, #15]
 404:QX_Protocol.c **** 	OptionByte |= (Msg_p->Header.FF_Ext & 0x01) << 4;
 1008              		.loc 1 404 0
 1009 0054 7B68     		ldr	r3, [r7, #4]
 1010 0056 DB7C     		ldrb	r3, [r3, #19]	@ zero_extendqisi2
 1011 0058 1B01     		lsls	r3, r3, #4
 1012 005a 5BB2     		sxtb	r3, r3
 1013 005c 03F01003 		and	r3, r3, #16
 1014 0060 5AB2     		sxtb	r2, r3
 1015 0062 FB7B     		ldrb	r3, [r7, #15]
ARM GAS  C:\Users\JENNEW~1\AppData\Local\Temp\ccHP0j8f.s 			page 26


 1016 0064 DBB2     		uxtb	r3, r3
 1017 0066 5BB2     		sxtb	r3, r3
 1018 0068 1343     		orrs	r3, r3, r2
 1019 006a 5BB2     		sxtb	r3, r3
 1020 006c DBB2     		uxtb	r3, r3
 1021 006e FB73     		strb	r3, [r7, #15]
 405:QX_Protocol.c **** 	OptionByte |= (Msg_p->Header.Remove_Req_Fields & 0x01) << 5;
 1022              		.loc 1 405 0
 1023 0070 7B68     		ldr	r3, [r7, #4]
 1024 0072 DB7D     		ldrb	r3, [r3, #23]	@ zero_extendqisi2
 1025 0074 5B01     		lsls	r3, r3, #5
 1026 0076 5BB2     		sxtb	r3, r3
 1027 0078 03F02003 		and	r3, r3, #32
 1028 007c 5AB2     		sxtb	r2, r3
 1029 007e FB7B     		ldrb	r3, [r7, #15]
 1030 0080 DBB2     		uxtb	r3, r3
 1031 0082 5BB2     		sxtb	r3, r3
 1032 0084 1343     		orrs	r3, r3, r2
 1033 0086 5BB2     		sxtb	r3, r3
 1034 0088 DBB2     		uxtb	r3, r3
 1035 008a FB73     		strb	r3, [r7, #15]
 406:QX_Protocol.c **** 	OptionByte |= (Msg_p->Header.Remove_Addr_Fields & 0x01) << 6;
 1036              		.loc 1 406 0
 1037 008c 7B68     		ldr	r3, [r7, #4]
 1038 008e 9B7D     		ldrb	r3, [r3, #22]	@ zero_extendqisi2
 1039 0090 9B01     		lsls	r3, r3, #6
 1040 0092 5BB2     		sxtb	r3, r3
 1041 0094 03F04003 		and	r3, r3, #64
 1042 0098 5AB2     		sxtb	r2, r3
 1043 009a FB7B     		ldrb	r3, [r7, #15]
 1044 009c DBB2     		uxtb	r3, r3
 1045 009e 5BB2     		sxtb	r3, r3
 1046 00a0 1343     		orrs	r3, r3, r2
 1047 00a2 5BB2     		sxtb	r3, r3
 1048 00a4 DBB2     		uxtb	r3, r3
 1049 00a6 FB73     		strb	r3, [r7, #15]
 407:QX_Protocol.c **** 	OptionByte |= (Msg_p->Header.AddOptionByte1 & 0x01) << 7;
 1050              		.loc 1 407 0
 1051 00a8 7B68     		ldr	r3, [r7, #4]
 1052 00aa 5B7C     		ldrb	r3, [r3, #17]	@ zero_extendqisi2
 1053 00ac DB01     		lsls	r3, r3, #7
 1054 00ae 5AB2     		sxtb	r2, r3
 1055 00b0 FB7B     		ldrb	r3, [r7, #15]
 1056 00b2 DBB2     		uxtb	r3, r3
 1057 00b4 5BB2     		sxtb	r3, r3
 1058 00b6 1343     		orrs	r3, r3, r2
 1059 00b8 5BB2     		sxtb	r3, r3
 1060 00ba DBB2     		uxtb	r3, r3
 1061 00bc FB73     		strb	r3, [r7, #15]
 408:QX_Protocol.c **** 	*Msg_p->MsgBuf_p++ = OptionByte;
 1062              		.loc 1 408 0
 1063 00be 7B68     		ldr	r3, [r7, #4]
 1064 00c0 1B6F     		ldr	r3, [r3, #112]
 1065 00c2 591C     		adds	r1, r3, #1
 1066 00c4 7A68     		ldr	r2, [r7, #4]
 1067 00c6 1167     		str	r1, [r2, #112]
 1068 00c8 FA7B     		ldrb	r2, [r7, #15]
ARM GAS  C:\Users\JENNEW~1\AppData\Local\Temp\ccHP0j8f.s 			page 27


 1069 00ca D2B2     		uxtb	r2, r2
 1070 00cc 1A70     		strb	r2, [r3]
 409:QX_Protocol.c **** 	
 410:QX_Protocol.c **** 	// Add option byte 1 if needed
 411:QX_Protocol.c **** 	if(Msg_p->Header.AddOptionByte1){
 1071              		.loc 1 411 0
 1072 00ce 7B68     		ldr	r3, [r7, #4]
 1073 00d0 5B7C     		ldrb	r3, [r3, #17]	@ zero_extendqisi2
 1074 00d2 002B     		cmp	r3, #0
 1075 00d4 16D0     		beq	.L59
 412:QX_Protocol.c **** 		OptionByte = 0;
 1076              		.loc 1 412 0
 1077 00d6 0023     		movs	r3, #0
 1078 00d8 FB73     		strb	r3, [r7, #15]
 413:QX_Protocol.c **** 		OptionByte |= (Msg_p->Header.AddCRC32 & 0x01) << 0;
 1079              		.loc 1 413 0
 1080 00da 7B68     		ldr	r3, [r7, #4]
 1081 00dc 9B7C     		ldrb	r3, [r3, #18]	@ zero_extendqisi2
 1082 00de 5BB2     		sxtb	r3, r3
 1083 00e0 03F00103 		and	r3, r3, #1
 1084 00e4 5AB2     		sxtb	r2, r3
 1085 00e6 FB7B     		ldrb	r3, [r7, #15]
 1086 00e8 DBB2     		uxtb	r3, r3
 1087 00ea 5BB2     		sxtb	r3, r3
 1088 00ec 1343     		orrs	r3, r3, r2
 1089 00ee 5BB2     		sxtb	r3, r3
 1090 00f0 DBB2     		uxtb	r3, r3
 1091 00f2 FB73     		strb	r3, [r7, #15]
 414:QX_Protocol.c **** 		*Msg_p->MsgBuf_p++ = OptionByte;
 1092              		.loc 1 414 0
 1093 00f4 7B68     		ldr	r3, [r7, #4]
 1094 00f6 1B6F     		ldr	r3, [r3, #112]
 1095 00f8 591C     		adds	r1, r3, #1
 1096 00fa 7A68     		ldr	r2, [r7, #4]
 1097 00fc 1167     		str	r1, [r2, #112]
 1098 00fe FA7B     		ldrb	r2, [r7, #15]
 1099 0100 D2B2     		uxtb	r2, r2
 1100 0102 1A70     		strb	r2, [r3]
 1101              	.L59:
 415:QX_Protocol.c **** 	}
 416:QX_Protocol.c **** 	
 417:QX_Protocol.c **** 	// Add the addresses.
 418:QX_Protocol.c **** 	if (Msg_p->Header.Remove_Addr_Fields == 0){
 1102              		.loc 1 418 0
 1103 0104 7B68     		ldr	r3, [r7, #4]
 1104 0106 9B7D     		ldrb	r3, [r3, #22]	@ zero_extendqisi2
 1105 0108 002B     		cmp	r3, #0
 1106 010a 12D1     		bne	.L60
 419:QX_Protocol.c **** 		QX_AddExtdValToBuf(&Msg_p->MsgBuf_p, Msg_p->Header.Source_Addr);
 1107              		.loc 1 419 0
 1108 010c 7B68     		ldr	r3, [r7, #4]
 1109 010e 03F17002 		add	r2, r3, #112
 1110 0112 7B68     		ldr	r3, [r7, #4]
 1111 0114 1B7E     		ldrb	r3, [r3, #24]	@ zero_extendqisi2
 1112 0116 1946     		mov	r1, r3
 1113 0118 1046     		mov	r0, r2
 1114 011a FFF7FEFF 		bl	QX_AddExtdValToBuf
ARM GAS  C:\Users\JENNEW~1\AppData\Local\Temp\ccHP0j8f.s 			page 28


 420:QX_Protocol.c **** 		QX_AddExtdValToBuf(&Msg_p->MsgBuf_p, Msg_p->Header.Target_Addr);
 1115              		.loc 1 420 0
 1116 011e 7B68     		ldr	r3, [r7, #4]
 1117 0120 03F17002 		add	r2, r3, #112
 1118 0124 7B68     		ldr	r3, [r7, #4]
 1119 0126 5B7E     		ldrb	r3, [r3, #25]	@ zero_extendqisi2
 1120 0128 1946     		mov	r1, r3
 1121 012a 1046     		mov	r0, r2
 1122 012c FFF7FEFF 		bl	QX_AddExtdValToBuf
 1123 0130 05E0     		b	.L61
 1124              	.L60:
 421:QX_Protocol.c **** 	} else {
 422:QX_Protocol.c **** 		Msg_p->Header.Source_Addr = QX_DEV_ID_BROADCAST;
 1125              		.loc 1 422 0
 1126 0132 7B68     		ldr	r3, [r7, #4]
 1127 0134 0022     		movs	r2, #0
 1128 0136 1A76     		strb	r2, [r3, #24]
 423:QX_Protocol.c **** 		Msg_p->Header.Target_Addr = QX_DEV_ID_BROADCAST;
 1129              		.loc 1 423 0
 1130 0138 7B68     		ldr	r3, [r7, #4]
 1131 013a 0022     		movs	r2, #0
 1132 013c 5A76     		strb	r2, [r3, #25]
 1133              	.L61:
 424:QX_Protocol.c **** 	}
 425:QX_Protocol.c **** 
 426:QX_Protocol.c **** 	// Add the transmit/response request fields.
 427:QX_Protocol.c **** 	if (Msg_p->Header.Remove_Req_Fields == 0){
 1134              		.loc 1 427 0
 1135 013e 7B68     		ldr	r3, [r7, #4]
 1136 0140 DB7D     		ldrb	r3, [r3, #23]	@ zero_extendqisi2
 1137 0142 002B     		cmp	r3, #0
 1138 0144 12D1     		bne	.L62
 428:QX_Protocol.c **** 		QX_AddExtdValToBuf(&Msg_p->MsgBuf_p, Msg_p->Header.TransReq_Addr);
 1139              		.loc 1 428 0
 1140 0146 7B68     		ldr	r3, [r7, #4]
 1141 0148 03F17002 		add	r2, r3, #112
 1142 014c 7B68     		ldr	r3, [r7, #4]
 1143 014e 9B7E     		ldrb	r3, [r3, #26]	@ zero_extendqisi2
 1144 0150 1946     		mov	r1, r3
 1145 0152 1046     		mov	r0, r2
 1146 0154 FFF7FEFF 		bl	QX_AddExtdValToBuf
 429:QX_Protocol.c **** 		QX_AddExtdValToBuf(&Msg_p->MsgBuf_p, Msg_p->Header.RespReq_Addr);
 1147              		.loc 1 429 0
 1148 0158 7B68     		ldr	r3, [r7, #4]
 1149 015a 03F17002 		add	r2, r3, #112
 1150 015e 7B68     		ldr	r3, [r7, #4]
 1151 0160 DB7E     		ldrb	r3, [r3, #27]	@ zero_extendqisi2
 1152 0162 1946     		mov	r1, r3
 1153 0164 1046     		mov	r0, r2
 1154 0166 FFF7FEFF 		bl	QX_AddExtdValToBuf
 1155 016a 05E0     		b	.L63
 1156              	.L62:
 430:QX_Protocol.c **** 	} else {
 431:QX_Protocol.c **** 		Msg_p->Header.TransReq_Addr = QX_DEV_ID_BROADCAST;
 1157              		.loc 1 431 0
 1158 016c 7B68     		ldr	r3, [r7, #4]
 1159 016e 0022     		movs	r2, #0
ARM GAS  C:\Users\JENNEW~1\AppData\Local\Temp\ccHP0j8f.s 			page 29


 1160 0170 9A76     		strb	r2, [r3, #26]
 432:QX_Protocol.c **** 		Msg_p->Header.RespReq_Addr = QX_DEV_ID_BROADCAST;
 1161              		.loc 1 432 0
 1162 0172 7B68     		ldr	r3, [r7, #4]
 1163 0174 0022     		movs	r2, #0
 1164 0176 DA76     		strb	r2, [r3, #27]
 1165              	.L63:
 433:QX_Protocol.c **** 	}
 434:QX_Protocol.c **** 	
 435:QX_Protocol.c **** 	Msg_p->BufPayloadStart_p = Msg_p->MsgBuf_p;	// Set the Payload Begin Pointer
 1166              		.loc 1 435 0
 1167 0178 7B68     		ldr	r3, [r7, #4]
 1168 017a 1A6F     		ldr	r2, [r3, #112]
 1169 017c 7B68     		ldr	r3, [r7, #4]
 1170 017e DA66     		str	r2, [r3, #108]
 436:QX_Protocol.c **** }
 1171              		.loc 1 436 0
 1172 0180 00BF     		nop
 1173 0182 1037     		adds	r7, r7, #16
 1174              		.cfi_def_cfa_offset 8
 1175 0184 BD46     		mov	sp, r7
 1176              		.cfi_def_cfa_register 13
 1177              		@ sp needed
 1178 0186 80BD     		pop	{r7, pc}
 1179              		.cfi_endproc
 1180              	.LFE7:
 1181              		.size	QX_BuildHeader, .-QX_BuildHeader
 1182              		.section	.text.QX_ParseHeader,"ax",%progbits
 1183              		.align	2
 1184              		.global	QX_ParseHeader
 1185              		.thumb
 1186              		.thumb_func
 1187              		.type	QX_ParseHeader, %function
 1188              	QX_ParseHeader:
 1189              	.LFB8:
 437:QX_Protocol.c **** 
 438:QX_Protocol.c **** //----------------------------------------------------------------------------
 439:QX_Protocol.c **** // Parse a QX Type Message
 440:QX_Protocol.c **** // Note, this Function leaves the Pointer at the Start of the payload
 441:QX_Protocol.c **** void QX_ParseHeader(QX_Msg_t *Msg_p)
 442:QX_Protocol.c **** {
 1190              		.loc 1 442 0
 1191              		.cfi_startproc
 1192              		@ args = 0, pretend = 0, frame = 16
 1193              		@ frame_needed = 1, uses_anonymous_args = 0
 1194 0000 80B5     		push	{r7, lr}
 1195              		.cfi_def_cfa_offset 8
 1196              		.cfi_offset 7, -8
 1197              		.cfi_offset 14, -4
 1198 0002 84B0     		sub	sp, sp, #16
 1199              		.cfi_def_cfa_offset 24
 1200 0004 00AF     		add	r7, sp, #0
 1201              		.cfi_def_cfa_register 7
 1202 0006 7860     		str	r0, [r7, #4]
 443:QX_Protocol.c **** 	volatile uint8_t OptionByte;
 444:QX_Protocol.c **** 	volatile uint32_t temp32;
 445:QX_Protocol.c **** 	Msg_p->MsgBuf_p = Msg_p->MsgBufAtt_p;		// Set the message pointer to the attribute position.
ARM GAS  C:\Users\JENNEW~1\AppData\Local\Temp\ccHP0j8f.s 			page 30


 1203              		.loc 1 445 0
 1204 0008 7B68     		ldr	r3, [r7, #4]
 1205 000a 9A6E     		ldr	r2, [r3, #104]
 1206 000c 7B68     		ldr	r3, [r7, #4]
 1207 000e 1A67     		str	r2, [r3, #112]
 446:QX_Protocol.c **** 
 447:QX_Protocol.c **** 
 448:QX_Protocol.c **** 	// Get the Extendible Attribute Number
 449:QX_Protocol.c **** 	Msg_p->Header.Attrib = QX_GetExtdValFromBuf(&Msg_p->MsgBuf_p);
 1208              		.loc 1 449 0
 1209 0010 7B68     		ldr	r3, [r7, #4]
 1210 0012 7033     		adds	r3, r3, #112
 1211 0014 1846     		mov	r0, r3
 1212 0016 FFF7FEFF 		bl	QX_GetExtdValFromBuf
 1213 001a 0246     		mov	r2, r0
 1214 001c 7B68     		ldr	r3, [r7, #4]
 1215 001e DA60     		str	r2, [r3, #12]
 450:QX_Protocol.c **** 
 451:QX_Protocol.c **** 	// Get Base Option Byte Bits
 452:QX_Protocol.c **** 	OptionByte = *Msg_p->MsgBuf_p++;
 1216              		.loc 1 452 0
 1217 0020 7B68     		ldr	r3, [r7, #4]
 1218 0022 1B6F     		ldr	r3, [r3, #112]
 1219 0024 591C     		adds	r1, r3, #1
 1220 0026 7A68     		ldr	r2, [r7, #4]
 1221 0028 1167     		str	r1, [r2, #112]
 1222 002a 1B78     		ldrb	r3, [r3]	@ zero_extendqisi2
 1223 002c FB73     		strb	r3, [r7, #15]
 453:QX_Protocol.c **** 	Msg_p->Header.Type = (QX_Msg_Type_e)(OptionByte & 0xF);
 1224              		.loc 1 453 0
 1225 002e FB7B     		ldrb	r3, [r7, #15]
 1226 0030 DBB2     		uxtb	r3, r3
 1227 0032 03F00F03 		and	r3, r3, #15
 1228 0036 DAB2     		uxtb	r2, r3
 1229 0038 7B68     		ldr	r3, [r7, #4]
 1230 003a 1A74     		strb	r2, [r3, #16]
 454:QX_Protocol.c **** 	Msg_p->Header.FF_Ext = (OptionByte >> 4) & 0x1;
 1231              		.loc 1 454 0
 1232 003c FB7B     		ldrb	r3, [r7, #15]
 1233 003e DBB2     		uxtb	r3, r3
 1234 0040 1B09     		lsrs	r3, r3, #4
 1235 0042 DBB2     		uxtb	r3, r3
 1236 0044 03F00103 		and	r3, r3, #1
 1237 0048 DAB2     		uxtb	r2, r3
 1238 004a 7B68     		ldr	r3, [r7, #4]
 1239 004c DA74     		strb	r2, [r3, #19]
 455:QX_Protocol.c **** 	Msg_p->Header.Remove_Req_Fields = (OptionByte >> 5) & 0x1;
 1240              		.loc 1 455 0
 1241 004e FB7B     		ldrb	r3, [r7, #15]
 1242 0050 DBB2     		uxtb	r3, r3
 1243 0052 5B09     		lsrs	r3, r3, #5
 1244 0054 DBB2     		uxtb	r3, r3
 1245 0056 03F00103 		and	r3, r3, #1
 1246 005a DAB2     		uxtb	r2, r3
 1247 005c 7B68     		ldr	r3, [r7, #4]
 1248 005e DA75     		strb	r2, [r3, #23]
 456:QX_Protocol.c **** 	Msg_p->Header.Remove_Addr_Fields = (OptionByte >> 6) & 0x1;
ARM GAS  C:\Users\JENNEW~1\AppData\Local\Temp\ccHP0j8f.s 			page 31


 1249              		.loc 1 456 0
 1250 0060 FB7B     		ldrb	r3, [r7, #15]
 1251 0062 DBB2     		uxtb	r3, r3
 1252 0064 9B09     		lsrs	r3, r3, #6
 1253 0066 DBB2     		uxtb	r3, r3
 1254 0068 03F00103 		and	r3, r3, #1
 1255 006c DAB2     		uxtb	r2, r3
 1256 006e 7B68     		ldr	r3, [r7, #4]
 1257 0070 9A75     		strb	r2, [r3, #22]
 457:QX_Protocol.c **** 	Msg_p->Header.AddOptionByte1 = (OptionByte >> 7) & 0x1;
 1258              		.loc 1 457 0
 1259 0072 FB7B     		ldrb	r3, [r7, #15]
 1260 0074 DBB2     		uxtb	r3, r3
 1261 0076 DB09     		lsrs	r3, r3, #7
 1262 0078 DAB2     		uxtb	r2, r3
 1263 007a 7B68     		ldr	r3, [r7, #4]
 1264 007c 5A74     		strb	r2, [r3, #17]
 458:QX_Protocol.c **** 	
 459:QX_Protocol.c **** 	// Option byte 1
 460:QX_Protocol.c **** 	if(Msg_p->Header.AddOptionByte1){
 1265              		.loc 1 460 0
 1266 007e 7B68     		ldr	r3, [r7, #4]
 1267 0080 5B7C     		ldrb	r3, [r3, #17]	@ zero_extendqisi2
 1268 0082 002B     		cmp	r3, #0
 1269 0084 0DD0     		beq	.L65
 461:QX_Protocol.c **** 		OptionByte = *Msg_p->MsgBuf_p++;
 1270              		.loc 1 461 0
 1271 0086 7B68     		ldr	r3, [r7, #4]
 1272 0088 1B6F     		ldr	r3, [r3, #112]
 1273 008a 591C     		adds	r1, r3, #1
 1274 008c 7A68     		ldr	r2, [r7, #4]
 1275 008e 1167     		str	r1, [r2, #112]
 1276 0090 1B78     		ldrb	r3, [r3]	@ zero_extendqisi2
 1277 0092 FB73     		strb	r3, [r7, #15]
 462:QX_Protocol.c **** 		Msg_p->Header.AddCRC32 = (OptionByte >> 0) & 0x1;
 1278              		.loc 1 462 0
 1279 0094 FB7B     		ldrb	r3, [r7, #15]
 1280 0096 DBB2     		uxtb	r3, r3
 1281 0098 03F00103 		and	r3, r3, #1
 1282 009c DAB2     		uxtb	r2, r3
 1283 009e 7B68     		ldr	r3, [r7, #4]
 1284 00a0 9A74     		strb	r2, [r3, #18]
 1285              	.L65:
 463:QX_Protocol.c **** 	}
 464:QX_Protocol.c **** 
 465:QX_Protocol.c **** 	// If Availible, Get the Addresses
 466:QX_Protocol.c **** 	if (Msg_p->Header.Remove_Addr_Fields == 0){
 1286              		.loc 1 466 0
 1287 00a2 7B68     		ldr	r3, [r7, #4]
 1288 00a4 9B7D     		ldrb	r3, [r3, #22]	@ zero_extendqisi2
 1289 00a6 002B     		cmp	r3, #0
 1290 00a8 11D1     		bne	.L66
 467:QX_Protocol.c **** 		Msg_p->Header.Source_Addr = (QX_DevId_e)(QX_GetExtdValFromBuf(&Msg_p->MsgBuf_p));
 1291              		.loc 1 467 0
 1292 00aa 7B68     		ldr	r3, [r7, #4]
 1293 00ac 7033     		adds	r3, r3, #112
 1294 00ae 1846     		mov	r0, r3
ARM GAS  C:\Users\JENNEW~1\AppData\Local\Temp\ccHP0j8f.s 			page 32


 1295 00b0 FFF7FEFF 		bl	QX_GetExtdValFromBuf
 1296 00b4 0346     		mov	r3, r0
 1297 00b6 DAB2     		uxtb	r2, r3
 1298 00b8 7B68     		ldr	r3, [r7, #4]
 1299 00ba 1A76     		strb	r2, [r3, #24]
 468:QX_Protocol.c **** 		Msg_p->Header.Target_Addr = (QX_DevId_e)(QX_GetExtdValFromBuf(&Msg_p->MsgBuf_p));
 1300              		.loc 1 468 0
 1301 00bc 7B68     		ldr	r3, [r7, #4]
 1302 00be 7033     		adds	r3, r3, #112
 1303 00c0 1846     		mov	r0, r3
 1304 00c2 FFF7FEFF 		bl	QX_GetExtdValFromBuf
 1305 00c6 0346     		mov	r3, r0
 1306 00c8 DAB2     		uxtb	r2, r3
 1307 00ca 7B68     		ldr	r3, [r7, #4]
 1308 00cc 5A76     		strb	r2, [r3, #25]
 1309              	.L66:
 469:QX_Protocol.c **** 	}
 470:QX_Protocol.c **** 	
 471:QX_Protocol.c **** 	// If Availible, Get the Request Fields
 472:QX_Protocol.c **** 	if (Msg_p->Header.Remove_Req_Fields == 0){
 1310              		.loc 1 472 0
 1311 00ce 7B68     		ldr	r3, [r7, #4]
 1312 00d0 DB7D     		ldrb	r3, [r3, #23]	@ zero_extendqisi2
 1313 00d2 002B     		cmp	r3, #0
 1314 00d4 11D1     		bne	.L67
 473:QX_Protocol.c **** 		Msg_p->Header.TransReq_Addr = (QX_DevId_e)(QX_GetExtdValFromBuf(&Msg_p->MsgBuf_p));
 1315              		.loc 1 473 0
 1316 00d6 7B68     		ldr	r3, [r7, #4]
 1317 00d8 7033     		adds	r3, r3, #112
 1318 00da 1846     		mov	r0, r3
 1319 00dc FFF7FEFF 		bl	QX_GetExtdValFromBuf
 1320 00e0 0346     		mov	r3, r0
 1321 00e2 DAB2     		uxtb	r2, r3
 1322 00e4 7B68     		ldr	r3, [r7, #4]
 1323 00e6 9A76     		strb	r2, [r3, #26]
 474:QX_Protocol.c **** 		Msg_p->Header.RespReq_Addr = (QX_DevId_e)(QX_GetExtdValFromBuf(&Msg_p->MsgBuf_p));
 1324              		.loc 1 474 0
 1325 00e8 7B68     		ldr	r3, [r7, #4]
 1326 00ea 7033     		adds	r3, r3, #112
 1327 00ec 1846     		mov	r0, r3
 1328 00ee FFF7FEFF 		bl	QX_GetExtdValFromBuf
 1329 00f2 0346     		mov	r3, r0
 1330 00f4 DAB2     		uxtb	r2, r3
 1331 00f6 7B68     		ldr	r3, [r7, #4]
 1332 00f8 DA76     		strb	r2, [r3, #27]
 1333              	.L67:
 475:QX_Protocol.c **** 	}
 476:QX_Protocol.c **** 	
 477:QX_Protocol.c **** 	// Add Freefly extension bytes if needed
 478:QX_Protocol.c **** 	if (Msg_p->Header.FF_Ext){
 1334              		.loc 1 478 0
 1335 00fa 7B68     		ldr	r3, [r7, #4]
 1336 00fc DB7C     		ldrb	r3, [r3, #19]	@ zero_extendqisi2
 1337 00fe 002B     		cmp	r3, #0
 1338 0100 04D0     		beq	.L69
 479:QX_Protocol.c **** 		Msg_p->MsgBuf_p += 2;
 1339              		.loc 1 479 0
ARM GAS  C:\Users\JENNEW~1\AppData\Local\Temp\ccHP0j8f.s 			page 33


 1340 0102 7B68     		ldr	r3, [r7, #4]
 1341 0104 1B6F     		ldr	r3, [r3, #112]
 1342 0106 9A1C     		adds	r2, r3, #2
 1343 0108 7B68     		ldr	r3, [r7, #4]
 1344 010a 1A67     		str	r2, [r3, #112]
 1345              	.L69:
 480:QX_Protocol.c **** 	}
 481:QX_Protocol.c **** }
 1346              		.loc 1 481 0
 1347 010c 00BF     		nop
 1348 010e 1037     		adds	r7, r7, #16
 1349              		.cfi_def_cfa_offset 8
 1350 0110 BD46     		mov	sp, r7
 1351              		.cfi_def_cfa_register 13
 1352              		@ sp needed
 1353 0112 80BD     		pop	{r7, pc}
 1354              		.cfi_endproc
 1355              	.LFE8:
 1356              		.size	QX_ParseHeader, .-QX_ParseHeader
 1357              		.section	.text.QX_Calc8bChecksum,"ax",%progbits
 1358              		.align	2
 1359              		.global	QX_Calc8bChecksum
 1360              		.thumb
 1361              		.thumb_func
 1362              		.type	QX_Calc8bChecksum, %function
 1363              	QX_Calc8bChecksum:
 1364              	.LFB9:
 482:QX_Protocol.c **** 
 483:QX_Protocol.c **** 
 484:QX_Protocol.c **** //----------------------------------------------------------------------------
 485:QX_Protocol.c **** // Calculate 8 Bit Checksum
 486:QX_Protocol.c **** uint8_t QX_Calc8bChecksum(uint8_t *buf_p, uint32_t len)
 487:QX_Protocol.c **** {
 1365              		.loc 1 487 0
 1366              		.cfi_startproc
 1367              		@ args = 0, pretend = 0, frame = 16
 1368              		@ frame_needed = 1, uses_anonymous_args = 0
 1369              		@ link register save eliminated.
 1370 0000 80B4     		push	{r7}
 1371              		.cfi_def_cfa_offset 4
 1372              		.cfi_offset 7, -4
 1373 0002 85B0     		sub	sp, sp, #20
 1374              		.cfi_def_cfa_offset 24
 1375 0004 00AF     		add	r7, sp, #0
 1376              		.cfi_def_cfa_register 7
 1377 0006 7860     		str	r0, [r7, #4]
 1378 0008 3960     		str	r1, [r7]
 488:QX_Protocol.c **** 	int j;
 489:QX_Protocol.c **** 	uint8_t checksum = 0;
 1379              		.loc 1 489 0
 1380 000a 0023     		movs	r3, #0
 1381 000c FB72     		strb	r3, [r7, #11]
 490:QX_Protocol.c **** 	for(j = 0; j < len; j++)
 1382              		.loc 1 490 0
 1383 000e 0023     		movs	r3, #0
 1384 0010 FB60     		str	r3, [r7, #12]
 1385 0012 09E0     		b	.L71
ARM GAS  C:\Users\JENNEW~1\AppData\Local\Temp\ccHP0j8f.s 			page 34


 1386              	.L72:
 491:QX_Protocol.c **** 	{
 492:QX_Protocol.c **** 		checksum += *buf_p++;
 1387              		.loc 1 492 0 discriminator 3
 1388 0014 7B68     		ldr	r3, [r7, #4]
 1389 0016 5A1C     		adds	r2, r3, #1
 1390 0018 7A60     		str	r2, [r7, #4]
 1391 001a 1A78     		ldrb	r2, [r3]	@ zero_extendqisi2
 1392 001c FB7A     		ldrb	r3, [r7, #11]
 1393 001e 1344     		add	r3, r3, r2
 1394 0020 FB72     		strb	r3, [r7, #11]
 490:QX_Protocol.c **** 	for(j = 0; j < len; j++)
 1395              		.loc 1 490 0 discriminator 3
 1396 0022 FB68     		ldr	r3, [r7, #12]
 1397 0024 0133     		adds	r3, r3, #1
 1398 0026 FB60     		str	r3, [r7, #12]
 1399              	.L71:
 490:QX_Protocol.c **** 	for(j = 0; j < len; j++)
 1400              		.loc 1 490 0 is_stmt 0 discriminator 1
 1401 0028 FA68     		ldr	r2, [r7, #12]
 1402 002a 3B68     		ldr	r3, [r7]
 1403 002c 9A42     		cmp	r2, r3
 1404 002e F1D3     		bcc	.L72
 493:QX_Protocol.c **** 	}
 494:QX_Protocol.c **** 	return checksum;
 1405              		.loc 1 494 0 is_stmt 1
 1406 0030 FB7A     		ldrb	r3, [r7, #11]	@ zero_extendqisi2
 495:QX_Protocol.c **** }
 1407              		.loc 1 495 0
 1408 0032 1846     		mov	r0, r3
 1409 0034 1437     		adds	r7, r7, #20
 1410              		.cfi_def_cfa_offset 4
 1411 0036 BD46     		mov	sp, r7
 1412              		.cfi_def_cfa_register 13
 1413              		@ sp needed
 1414 0038 80BC     		pop	{r7}
 1415              		.cfi_restore 7
 1416              		.cfi_def_cfa_offset 0
 1417 003a 7047     		bx	lr
 1418              		.cfi_endproc
 1419              	.LFE9:
 1420              		.size	QX_Calc8bChecksum, .-QX_Calc8bChecksum
 1421              		.section	.text.QX_AddExtdValToBuf,"ax",%progbits
 1422              		.align	2
 1423              		.global	QX_AddExtdValToBuf
 1424              		.thumb
 1425              		.thumb_func
 1426              		.type	QX_AddExtdValToBuf, %function
 1427              	QX_AddExtdValToBuf:
 1428              	.LFB10:
 496:QX_Protocol.c **** 
 497:QX_Protocol.c **** //----------------------------------------------------------------------------
 498:QX_Protocol.c **** // Add a 7th bit extendable (4 byte max) value to a buffer
 499:QX_Protocol.c **** void QX_AddExtdValToBuf(uint8_t **p, uint32_t Val)
 500:QX_Protocol.c **** {	
 1429              		.loc 1 500 0
 1430              		.cfi_startproc
ARM GAS  C:\Users\JENNEW~1\AppData\Local\Temp\ccHP0j8f.s 			page 35


 1431              		@ args = 0, pretend = 0, frame = 16
 1432              		@ frame_needed = 1, uses_anonymous_args = 0
 1433              		@ link register save eliminated.
 1434 0000 80B4     		push	{r7}
 1435              		.cfi_def_cfa_offset 4
 1436              		.cfi_offset 7, -4
 1437 0002 85B0     		sub	sp, sp, #20
 1438              		.cfi_def_cfa_offset 24
 1439 0004 00AF     		add	r7, sp, #0
 1440              		.cfi_def_cfa_register 7
 1441 0006 7860     		str	r0, [r7, #4]
 1442 0008 3960     		str	r1, [r7]
 501:QX_Protocol.c **** 	int n;
 502:QX_Protocol.c **** 	for (n = 0; n < 4; n++){
 1443              		.loc 1 502 0
 1444 000a 0023     		movs	r3, #0
 1445 000c FB60     		str	r3, [r7, #12]
 1446 000e 33E0     		b	.L75
 1447              	.L79:
 1448              	.LBB10:
 503:QX_Protocol.c **** 		uint8_t this_chunk = (Val >> (7*n)) & 0x7F;
 1449              		.loc 1 503 0
 1450 0010 FA68     		ldr	r2, [r7, #12]
 1451 0012 1346     		mov	r3, r2
 1452 0014 DB00     		lsls	r3, r3, #3
 1453 0016 9B1A     		subs	r3, r3, r2
 1454 0018 3A68     		ldr	r2, [r7]
 1455 001a 22FA03F3 		lsr	r3, r2, r3
 1456 001e DBB2     		uxtb	r3, r3
 1457 0020 03F07F03 		and	r3, r3, #127
 1458 0024 FB72     		strb	r3, [r7, #11]
 504:QX_Protocol.c **** 		uint8_t next_chunk = (Val >> (7*(n+1))) & 0x7F;
 1459              		.loc 1 504 0
 1460 0026 FB68     		ldr	r3, [r7, #12]
 1461 0028 5A1C     		adds	r2, r3, #1
 1462 002a 1346     		mov	r3, r2
 1463 002c DB00     		lsls	r3, r3, #3
 1464 002e 9B1A     		subs	r3, r3, r2
 1465 0030 3A68     		ldr	r2, [r7]
 1466 0032 22FA03F3 		lsr	r3, r2, r3
 1467 0036 DBB2     		uxtb	r3, r3
 1468 0038 03F07F03 		and	r3, r3, #127
 1469 003c BB72     		strb	r3, [r7, #10]
 505:QX_Protocol.c **** 		if (next_chunk > 0){
 1470              		.loc 1 505 0
 1471 003e BB7A     		ldrb	r3, [r7, #10]	@ zero_extendqisi2
 1472 0040 002B     		cmp	r3, #0
 1473 0042 0CD0     		beq	.L76
 506:QX_Protocol.c **** 			**p = this_chunk | 0x80;
 1474              		.loc 1 506 0
 1475 0044 7B68     		ldr	r3, [r7, #4]
 1476 0046 1B68     		ldr	r3, [r3]
 1477 0048 FA7A     		ldrb	r2, [r7, #11]
 1478 004a 62F07F02 		orn	r2, r2, #127
 1479 004e D2B2     		uxtb	r2, r2
 1480 0050 1A70     		strb	r2, [r3]
 507:QX_Protocol.c **** 			(*p)++;
ARM GAS  C:\Users\JENNEW~1\AppData\Local\Temp\ccHP0j8f.s 			page 36


 1481              		.loc 1 507 0
 1482 0052 7B68     		ldr	r3, [r7, #4]
 1483 0054 1B68     		ldr	r3, [r3]
 1484 0056 5A1C     		adds	r2, r3, #1
 1485 0058 7B68     		ldr	r3, [r7, #4]
 1486 005a 1A60     		str	r2, [r3]
 1487 005c 09E0     		b	.L80
 1488              	.L76:
 508:QX_Protocol.c **** 		} else {
 509:QX_Protocol.c **** 			**p = this_chunk;
 1489              		.loc 1 509 0
 1490 005e 7B68     		ldr	r3, [r7, #4]
 1491 0060 1B68     		ldr	r3, [r3]
 1492 0062 FA7A     		ldrb	r2, [r7, #11]
 1493 0064 1A70     		strb	r2, [r3]
 510:QX_Protocol.c **** 			(*p)++;
 1494              		.loc 1 510 0
 1495 0066 7B68     		ldr	r3, [r7, #4]
 1496 0068 1B68     		ldr	r3, [r3]
 1497 006a 5A1C     		adds	r2, r3, #1
 1498 006c 7B68     		ldr	r3, [r7, #4]
 1499 006e 1A60     		str	r2, [r3]
 511:QX_Protocol.c **** 			break;
 1500              		.loc 1 511 0
 1501 0070 05E0     		b	.L78
 1502              	.L80:
 1503              	.LBE10:
 502:QX_Protocol.c **** 		uint8_t this_chunk = (Val >> (7*n)) & 0x7F;
 1504              		.loc 1 502 0 discriminator 2
 1505 0072 FB68     		ldr	r3, [r7, #12]
 1506 0074 0133     		adds	r3, r3, #1
 1507 0076 FB60     		str	r3, [r7, #12]
 1508              	.L75:
 502:QX_Protocol.c **** 		uint8_t this_chunk = (Val >> (7*n)) & 0x7F;
 1509              		.loc 1 502 0 is_stmt 0 discriminator 1
 1510 0078 FB68     		ldr	r3, [r7, #12]
 1511 007a 032B     		cmp	r3, #3
 1512 007c C8DD     		ble	.L79
 1513              	.L78:
 512:QX_Protocol.c **** 		}
 513:QX_Protocol.c **** 	}
 514:QX_Protocol.c **** }
 1514              		.loc 1 514 0 is_stmt 1
 1515 007e 00BF     		nop
 1516 0080 1437     		adds	r7, r7, #20
 1517              		.cfi_def_cfa_offset 4
 1518 0082 BD46     		mov	sp, r7
 1519              		.cfi_def_cfa_register 13
 1520              		@ sp needed
 1521 0084 80BC     		pop	{r7}
 1522              		.cfi_restore 7
 1523              		.cfi_def_cfa_offset 0
 1524 0086 7047     		bx	lr
 1525              		.cfi_endproc
 1526              	.LFE10:
 1527              		.size	QX_AddExtdValToBuf, .-QX_AddExtdValToBuf
 1528              		.section	.text.QX_GetExtdValFromBuf,"ax",%progbits
ARM GAS  C:\Users\JENNEW~1\AppData\Local\Temp\ccHP0j8f.s 			page 37


 1529              		.align	2
 1530              		.global	QX_GetExtdValFromBuf
 1531              		.thumb
 1532              		.thumb_func
 1533              		.type	QX_GetExtdValFromBuf, %function
 1534              	QX_GetExtdValFromBuf:
 1535              	.LFB11:
 515:QX_Protocol.c **** 
 516:QX_Protocol.c **** //----------------------------------------------------------------------------
 517:QX_Protocol.c **** // Get a 7th bit extendable (4 byte max) value from a buffer
 518:QX_Protocol.c **** uint32_t QX_GetExtdValFromBuf(uint8_t **p)
 519:QX_Protocol.c **** {
 1536              		.loc 1 519 0
 1537              		.cfi_startproc
 1538              		@ args = 0, pretend = 0, frame = 16
 1539              		@ frame_needed = 1, uses_anonymous_args = 0
 1540              		@ link register save eliminated.
 1541 0000 80B4     		push	{r7}
 1542              		.cfi_def_cfa_offset 4
 1543              		.cfi_offset 7, -4
 1544 0002 85B0     		sub	sp, sp, #20
 1545              		.cfi_def_cfa_offset 24
 1546 0004 00AF     		add	r7, sp, #0
 1547              		.cfi_def_cfa_register 7
 1548 0006 7860     		str	r0, [r7, #4]
 520:QX_Protocol.c **** 	uint32_t Val = 0;
 1549              		.loc 1 520 0
 1550 0008 0023     		movs	r3, #0
 1551 000a FB60     		str	r3, [r7, #12]
 521:QX_Protocol.c **** 	int n;
 522:QX_Protocol.c **** 	for (n = 0; n < 4; n++){
 1552              		.loc 1 522 0
 1553 000c 0023     		movs	r3, #0
 1554 000e BB60     		str	r3, [r7, #8]
 1555 0010 22E0     		b	.L82
 1556              	.L86:
 523:QX_Protocol.c **** 		Val = (((uint32_t)(**p & 0x7F)) << (7*n)) | Val;
 1557              		.loc 1 523 0
 1558 0012 7B68     		ldr	r3, [r7, #4]
 1559 0014 1B68     		ldr	r3, [r3]
 1560 0016 1B78     		ldrb	r3, [r3]	@ zero_extendqisi2
 1561 0018 03F07F01 		and	r1, r3, #127
 1562 001c BA68     		ldr	r2, [r7, #8]
 1563 001e 1346     		mov	r3, r2
 1564 0020 DB00     		lsls	r3, r3, #3
 1565 0022 9B1A     		subs	r3, r3, r2
 1566 0024 01FA03F3 		lsl	r3, r1, r3
 1567 0028 FA68     		ldr	r2, [r7, #12]
 1568 002a 1343     		orrs	r3, r3, r2
 1569 002c FB60     		str	r3, [r7, #12]
 524:QX_Protocol.c **** 		if (**p & 0x80){
 1570              		.loc 1 524 0
 1571 002e 7B68     		ldr	r3, [r7, #4]
 1572 0030 1B68     		ldr	r3, [r3]
 1573 0032 1B78     		ldrb	r3, [r3]	@ zero_extendqisi2
 1574 0034 5BB2     		sxtb	r3, r3
 1575 0036 002B     		cmp	r3, #0
ARM GAS  C:\Users\JENNEW~1\AppData\Local\Temp\ccHP0j8f.s 			page 38


 1576 0038 05DA     		bge	.L83
 525:QX_Protocol.c **** 			(*p)++;
 1577              		.loc 1 525 0
 1578 003a 7B68     		ldr	r3, [r7, #4]
 1579 003c 1B68     		ldr	r3, [r3]
 1580 003e 5A1C     		adds	r2, r3, #1
 1581 0040 7B68     		ldr	r3, [r7, #4]
 1582 0042 1A60     		str	r2, [r3]
 1583 0044 05E0     		b	.L88
 1584              	.L83:
 526:QX_Protocol.c **** 		} else {
 527:QX_Protocol.c **** 			(*p)++;
 1585              		.loc 1 527 0
 1586 0046 7B68     		ldr	r3, [r7, #4]
 1587 0048 1B68     		ldr	r3, [r3]
 1588 004a 5A1C     		adds	r2, r3, #1
 1589 004c 7B68     		ldr	r3, [r7, #4]
 1590 004e 1A60     		str	r2, [r3]
 528:QX_Protocol.c **** 			break;
 1591              		.loc 1 528 0
 1592 0050 05E0     		b	.L85
 1593              	.L88:
 522:QX_Protocol.c **** 		Val = (((uint32_t)(**p & 0x7F)) << (7*n)) | Val;
 1594              		.loc 1 522 0 discriminator 2
 1595 0052 BB68     		ldr	r3, [r7, #8]
 1596 0054 0133     		adds	r3, r3, #1
 1597 0056 BB60     		str	r3, [r7, #8]
 1598              	.L82:
 522:QX_Protocol.c **** 		Val = (((uint32_t)(**p & 0x7F)) << (7*n)) | Val;
 1599              		.loc 1 522 0 is_stmt 0 discriminator 1
 1600 0058 BB68     		ldr	r3, [r7, #8]
 1601 005a 032B     		cmp	r3, #3
 1602 005c D9DD     		ble	.L86
 1603              	.L85:
 529:QX_Protocol.c **** 		}
 530:QX_Protocol.c **** 	}
 531:QX_Protocol.c **** 	return Val;
 1604              		.loc 1 531 0 is_stmt 1
 1605 005e FB68     		ldr	r3, [r7, #12]
 532:QX_Protocol.c **** }
 1606              		.loc 1 532 0
 1607 0060 1846     		mov	r0, r3
 1608 0062 1437     		adds	r7, r7, #20
 1609              		.cfi_def_cfa_offset 4
 1610 0064 BD46     		mov	sp, r7
 1611              		.cfi_def_cfa_register 13
 1612              		@ sp needed
 1613 0066 80BC     		pop	{r7}
 1614              		.cfi_restore 7
 1615              		.cfi_def_cfa_offset 0
 1616 0068 7047     		bx	lr
 1617              		.cfi_endproc
 1618              	.LFE11:
 1619              		.size	QX_GetExtdValFromBuf, .-QX_GetExtdValFromBuf
 1620 006a 00BF     		.section	.text.QX_Disable_Default_Response,"ax",%progbits
 1621              		.align	2
 1622              		.global	QX_Disable_Default_Response
ARM GAS  C:\Users\JENNEW~1\AppData\Local\Temp\ccHP0j8f.s 			page 39


 1623              		.thumb
 1624              		.thumb_func
 1625              		.type	QX_Disable_Default_Response, %function
 1626              	QX_Disable_Default_Response:
 1627              	.LFB12:
 533:QX_Protocol.c **** 
 534:QX_Protocol.c **** 
 535:QX_Protocol.c **** //----------------------------------------------------------------------------
 536:QX_Protocol.c **** // Disable the default response to a message
 537:QX_Protocol.c **** void QX_Disable_Default_Response(QX_Msg_t *Msg_p)
 538:QX_Protocol.c **** {
 1628              		.loc 1 538 0
 1629              		.cfi_startproc
 1630              		@ args = 0, pretend = 0, frame = 8
 1631              		@ frame_needed = 1, uses_anonymous_args = 0
 1632              		@ link register save eliminated.
 1633 0000 80B4     		push	{r7}
 1634              		.cfi_def_cfa_offset 4
 1635              		.cfi_offset 7, -4
 1636 0002 83B0     		sub	sp, sp, #12
 1637              		.cfi_def_cfa_offset 16
 1638 0004 00AF     		add	r7, sp, #0
 1639              		.cfi_def_cfa_register 7
 1640 0006 7860     		str	r0, [r7, #4]
 539:QX_Protocol.c **** 	Msg_p->DisableStdResponse = 1;
 1641              		.loc 1 539 0
 1642 0008 7B68     		ldr	r3, [r7, #4]
 1643 000a 0122     		movs	r2, #1
 1644 000c 5A70     		strb	r2, [r3, #1]
 540:QX_Protocol.c **** }
 1645              		.loc 1 540 0
 1646 000e 00BF     		nop
 1647 0010 0C37     		adds	r7, r7, #12
 1648              		.cfi_def_cfa_offset 4
 1649 0012 BD46     		mov	sp, r7
 1650              		.cfi_def_cfa_register 13
 1651              		@ sp needed
 1652 0014 80BC     		pop	{r7}
 1653              		.cfi_restore 7
 1654              		.cfi_def_cfa_offset 0
 1655 0016 7047     		bx	lr
 1656              		.cfi_endproc
 1657              	.LFE12:
 1658              		.size	QX_Disable_Default_Response, .-QX_Disable_Default_Response
 1659              		.section	.text.QX_compute_crc32,"ax",%progbits
 1660              		.align	2
 1661              		.global	QX_compute_crc32
 1662              		.thumb
 1663              		.thumb_func
 1664              		.type	QX_compute_crc32, %function
 1665              	QX_compute_crc32:
 1666              	.LFB13:
 541:QX_Protocol.c **** 
 542:QX_Protocol.c **** 
 543:QX_Protocol.c **** //----------------------------------------------------------------------------
 544:QX_Protocol.c **** // compute a chunk of the CRC
 545:QX_Protocol.c **** uint32_t QX_compute_crc32(uint8_t data)
ARM GAS  C:\Users\JENNEW~1\AppData\Local\Temp\ccHP0j8f.s 			page 40


 546:QX_Protocol.c **** {
 1667              		.loc 1 546 0
 1668              		.cfi_startproc
 1669              		@ args = 0, pretend = 0, frame = 16
 1670              		@ frame_needed = 1, uses_anonymous_args = 0
 1671              		@ link register save eliminated.
 1672 0000 80B4     		push	{r7}
 1673              		.cfi_def_cfa_offset 4
 1674              		.cfi_offset 7, -4
 1675 0002 85B0     		sub	sp, sp, #20
 1676              		.cfi_def_cfa_offset 24
 1677 0004 00AF     		add	r7, sp, #0
 1678              		.cfi_def_cfa_register 7
 1679 0006 0346     		mov	r3, r0
 1680 0008 FB71     		strb	r3, [r7, #7]
 547:QX_Protocol.c ****     uint8_t i;
 548:QX_Protocol.c ****     uint32_t crc;
 549:QX_Protocol.c ****     
 550:QX_Protocol.c ****     crc = (uint32_t)data << 24;
 1681              		.loc 1 550 0
 1682 000a FB79     		ldrb	r3, [r7, #7]	@ zero_extendqisi2
 1683 000c 1B06     		lsls	r3, r3, #24
 1684 000e BB60     		str	r3, [r7, #8]
 551:QX_Protocol.c ****     for(i = 0; i < 8; i++)
 1685              		.loc 1 551 0
 1686 0010 0023     		movs	r3, #0
 1687 0012 FB73     		strb	r3, [r7, #15]
 1688 0014 0EE0     		b	.L91
 1689              	.L94:
 552:QX_Protocol.c ****     {
 553:QX_Protocol.c ****         if((crc & 0x80000000) != 0)
 1690              		.loc 1 553 0
 1691 0016 BB68     		ldr	r3, [r7, #8]
 1692 0018 002B     		cmp	r3, #0
 1693 001a 05DA     		bge	.L92
 554:QX_Protocol.c ****             crc = (crc << 1) ^ 0x04C11DB7;
 1694              		.loc 1 554 0
 1695 001c BB68     		ldr	r3, [r7, #8]
 1696 001e 5A00     		lsls	r2, r3, #1
 1697 0020 094B     		ldr	r3, .L96
 1698 0022 5340     		eors	r3, r3, r2
 1699 0024 BB60     		str	r3, [r7, #8]
 1700 0026 02E0     		b	.L93
 1701              	.L92:
 555:QX_Protocol.c ****         else
 556:QX_Protocol.c ****             crc = (crc << 1);
 1702              		.loc 1 556 0
 1703 0028 BB68     		ldr	r3, [r7, #8]
 1704 002a 5B00     		lsls	r3, r3, #1
 1705 002c BB60     		str	r3, [r7, #8]
 1706              	.L93:
 551:QX_Protocol.c ****     {
 1707              		.loc 1 551 0 discriminator 2
 1708 002e FB7B     		ldrb	r3, [r7, #15]	@ zero_extendqisi2
 1709 0030 0133     		adds	r3, r3, #1
 1710 0032 FB73     		strb	r3, [r7, #15]
 1711              	.L91:
ARM GAS  C:\Users\JENNEW~1\AppData\Local\Temp\ccHP0j8f.s 			page 41


 551:QX_Protocol.c ****     {
 1712              		.loc 1 551 0 is_stmt 0 discriminator 1
 1713 0034 FB7B     		ldrb	r3, [r7, #15]	@ zero_extendqisi2
 1714 0036 072B     		cmp	r3, #7
 1715 0038 EDD9     		bls	.L94
 557:QX_Protocol.c ****     }
 558:QX_Protocol.c ****     
 559:QX_Protocol.c ****     return crc;
 1716              		.loc 1 559 0 is_stmt 1
 1717 003a BB68     		ldr	r3, [r7, #8]
 560:QX_Protocol.c **** }
 1718              		.loc 1 560 0
 1719 003c 1846     		mov	r0, r3
 1720 003e 1437     		adds	r7, r7, #20
 1721              		.cfi_def_cfa_offset 4
 1722 0040 BD46     		mov	sp, r7
 1723              		.cfi_def_cfa_register 13
 1724              		@ sp needed
 1725 0042 80BC     		pop	{r7}
 1726              		.cfi_restore 7
 1727              		.cfi_def_cfa_offset 0
 1728 0044 7047     		bx	lr
 1729              	.L97:
 1730 0046 00BF     		.align	2
 1731              	.L96:
 1732 0048 B71DC104 		.word	79764919
 1733              		.cfi_endproc
 1734              	.LFE13:
 1735              		.size	QX_compute_crc32, .-QX_compute_crc32
 1736              		.section	.text.QX_accumulate_crc32,"ax",%progbits
 1737              		.align	2
 1738              		.global	QX_accumulate_crc32
 1739              		.thumb
 1740              		.thumb_func
 1741              		.type	QX_accumulate_crc32, %function
 1742              	QX_accumulate_crc32:
 1743              	.LFB14:
 561:QX_Protocol.c **** 
 562:QX_Protocol.c **** 
 563:QX_Protocol.c **** //----------------------------------------------------------------------------
 564:QX_Protocol.c **** // Calculate CRC32 - overrideable
 565:QX_Protocol.c **** uint32_t QX_accumulate_crc32(uint32_t initial, const uint8_t * data, uint32_t size)
 566:QX_Protocol.c **** {
 1744              		.loc 1 566 0
 1745              		.cfi_startproc
 1746              		@ args = 0, pretend = 0, frame = 24
 1747              		@ frame_needed = 1, uses_anonymous_args = 0
 1748 0000 80B5     		push	{r7, lr}
 1749              		.cfi_def_cfa_offset 8
 1750              		.cfi_offset 7, -8
 1751              		.cfi_offset 14, -4
 1752 0002 86B0     		sub	sp, sp, #24
 1753              		.cfi_def_cfa_offset 32
 1754 0004 00AF     		add	r7, sp, #0
 1755              		.cfi_def_cfa_register 7
 1756 0006 F860     		str	r0, [r7, #12]
 1757 0008 B960     		str	r1, [r7, #8]
ARM GAS  C:\Users\JENNEW~1\AppData\Local\Temp\ccHP0j8f.s 			page 42


 1758 000a 7A60     		str	r2, [r7, #4]
 567:QX_Protocol.c ****     uint32_t i;
 568:QX_Protocol.c ****     uint32_t final;
 569:QX_Protocol.c ****     
 570:QX_Protocol.c ****     final = initial;
 1759              		.loc 1 570 0
 1760 000c FB68     		ldr	r3, [r7, #12]
 1761 000e 3B61     		str	r3, [r7, #16]
 571:QX_Protocol.c ****     for(i = 0; i < size; i++)
 1762              		.loc 1 571 0
 1763 0010 0023     		movs	r3, #0
 1764 0012 7B61     		str	r3, [r7, #20]
 1765 0014 15E0     		b	.L99
 1766              	.L100:
 572:QX_Protocol.c ****         final = QX_compute_crc32((uint8_t)(final >> 24) ^ data[i]) ^ (final << 8);
 1767              		.loc 1 572 0 discriminator 3
 1768 0016 3B69     		ldr	r3, [r7, #16]
 1769 0018 1B0E     		lsrs	r3, r3, #24
 1770 001a 5AB2     		sxtb	r2, r3
 1771 001c B968     		ldr	r1, [r7, #8]
 1772 001e 7B69     		ldr	r3, [r7, #20]
 1773 0020 0B44     		add	r3, r3, r1
 1774 0022 1B78     		ldrb	r3, [r3]	@ zero_extendqisi2
 1775 0024 5BB2     		sxtb	r3, r3
 1776 0026 5340     		eors	r3, r3, r2
 1777 0028 5BB2     		sxtb	r3, r3
 1778 002a DBB2     		uxtb	r3, r3
 1779 002c 1846     		mov	r0, r3
 1780 002e FFF7FEFF 		bl	QX_compute_crc32
 1781 0032 0246     		mov	r2, r0
 1782 0034 3B69     		ldr	r3, [r7, #16]
 1783 0036 1B02     		lsls	r3, r3, #8
 1784 0038 5340     		eors	r3, r3, r2
 1785 003a 3B61     		str	r3, [r7, #16]
 571:QX_Protocol.c ****     for(i = 0; i < size; i++)
 1786              		.loc 1 571 0 discriminator 3
 1787 003c 7B69     		ldr	r3, [r7, #20]
 1788 003e 0133     		adds	r3, r3, #1
 1789 0040 7B61     		str	r3, [r7, #20]
 1790              	.L99:
 571:QX_Protocol.c ****     for(i = 0; i < size; i++)
 1791              		.loc 1 571 0 is_stmt 0 discriminator 1
 1792 0042 7A69     		ldr	r2, [r7, #20]
 1793 0044 7B68     		ldr	r3, [r7, #4]
 1794 0046 9A42     		cmp	r2, r3
 1795 0048 E5D3     		bcc	.L100
 573:QX_Protocol.c ****     
 574:QX_Protocol.c ****     return final;
 1796              		.loc 1 574 0 is_stmt 1
 1797 004a 3B69     		ldr	r3, [r7, #16]
 575:QX_Protocol.c **** }
 1798              		.loc 1 575 0
 1799 004c 1846     		mov	r0, r3
 1800 004e 1837     		adds	r7, r7, #24
 1801              		.cfi_def_cfa_offset 8
 1802 0050 BD46     		mov	sp, r7
 1803              		.cfi_def_cfa_register 13
ARM GAS  C:\Users\JENNEW~1\AppData\Local\Temp\ccHP0j8f.s 			page 43


 1804              		@ sp needed
 1805 0052 80BD     		pop	{r7, pc}
 1806              		.cfi_endproc
 1807              	.LFE14:
 1808              		.size	QX_accumulate_crc32, .-QX_accumulate_crc32
 1809              		.section	.text.QX_InitSrv,"ax",%progbits
 1810              		.align	2
 1811              		.global	QX_InitSrv
 1812              		.thumb
 1813              		.thumb_func
 1814              		.type	QX_InitSrv, %function
 1815              	QX_InitSrv:
 1816              	.LFB15:
 576:QX_Protocol.c **** 
 577:QX_Protocol.c **** 
 578:QX_Protocol.c **** //****************************************************************************
 579:QX_Protocol.c **** // Public Function Definitions
 580:QX_Protocol.c **** //****************************************************************************
 581:QX_Protocol.c **** 
 582:QX_Protocol.c **** //----------------------------------------------------------------------------
 583:QX_Protocol.c **** // Initialize the server with the address, parser callback, etc
 584:QX_Protocol.c **** void QX_InitSrv(QX_Server_t *QX_Server, QX_DevId_e Address, uint8_t *(*Parser_CB)(QX_Msg_t *))
 585:QX_Protocol.c **** {
 1817              		.loc 1 585 0
 1818              		.cfi_startproc
 1819              		@ args = 0, pretend = 0, frame = 16
 1820              		@ frame_needed = 1, uses_anonymous_args = 0
 1821              		@ link register save eliminated.
 1822 0000 80B4     		push	{r7}
 1823              		.cfi_def_cfa_offset 4
 1824              		.cfi_offset 7, -4
 1825 0002 85B0     		sub	sp, sp, #20
 1826              		.cfi_def_cfa_offset 24
 1827 0004 00AF     		add	r7, sp, #0
 1828              		.cfi_def_cfa_register 7
 1829 0006 F860     		str	r0, [r7, #12]
 1830 0008 0B46     		mov	r3, r1
 1831 000a 7A60     		str	r2, [r7, #4]
 1832 000c FB72     		strb	r3, [r7, #11]
 586:QX_Protocol.c **** 	QX_Server->Parser_CB = Parser_CB;	// Register Callback for parsing
 1833              		.loc 1 586 0
 1834 000e FB68     		ldr	r3, [r7, #12]
 1835 0010 7A68     		ldr	r2, [r7, #4]
 1836 0012 5A60     		str	r2, [r3, #4]
 587:QX_Protocol.c **** 	QX_Server->Address = Address;
 1837              		.loc 1 587 0
 1838 0014 FB68     		ldr	r3, [r7, #12]
 1839 0016 FA7A     		ldrb	r2, [r7, #11]
 1840 0018 1A70     		strb	r2, [r3]
 588:QX_Protocol.c **** }
 1841              		.loc 1 588 0
 1842 001a 00BF     		nop
 1843 001c 1437     		adds	r7, r7, #20
 1844              		.cfi_def_cfa_offset 4
 1845 001e BD46     		mov	sp, r7
 1846              		.cfi_def_cfa_register 13
 1847              		@ sp needed
ARM GAS  C:\Users\JENNEW~1\AppData\Local\Temp\ccHP0j8f.s 			page 44


 1848 0020 80BC     		pop	{r7}
 1849              		.cfi_restore 7
 1850              		.cfi_def_cfa_offset 0
 1851 0022 7047     		bx	lr
 1852              		.cfi_endproc
 1853              	.LFE15:
 1854              		.size	QX_InitSrv, .-QX_InitSrv
 1855              		.section	.text.QX_InitCli,"ax",%progbits
 1856              		.align	2
 1857              		.global	QX_InitCli
 1858              		.thumb
 1859              		.thumb_func
 1860              		.type	QX_InitCli, %function
 1861              	QX_InitCli:
 1862              	.LFB16:
 589:QX_Protocol.c **** 
 590:QX_Protocol.c **** //----------------------------------------------------------------------------
 591:QX_Protocol.c **** // Initialize the client with the address, parser callback, etc
 592:QX_Protocol.c **** void QX_InitCli(QX_Client_t *QX_Client, QX_DevId_e Address, uint8_t *(*Parser_CB)(QX_Msg_t *))
 593:QX_Protocol.c **** {
 1863              		.loc 1 593 0
 1864              		.cfi_startproc
 1865              		@ args = 0, pretend = 0, frame = 16
 1866              		@ frame_needed = 1, uses_anonymous_args = 0
 1867              		@ link register save eliminated.
 1868 0000 80B4     		push	{r7}
 1869              		.cfi_def_cfa_offset 4
 1870              		.cfi_offset 7, -4
 1871 0002 85B0     		sub	sp, sp, #20
 1872              		.cfi_def_cfa_offset 24
 1873 0004 00AF     		add	r7, sp, #0
 1874              		.cfi_def_cfa_register 7
 1875 0006 F860     		str	r0, [r7, #12]
 1876 0008 0B46     		mov	r3, r1
 1877 000a 7A60     		str	r2, [r7, #4]
 1878 000c FB72     		strb	r3, [r7, #11]
 594:QX_Protocol.c **** 	QX_Client->Parser_CB = Parser_CB;	// Register Callback for parsing
 1879              		.loc 1 594 0
 1880 000e FB68     		ldr	r3, [r7, #12]
 1881 0010 7A68     		ldr	r2, [r7, #4]
 1882 0012 5A60     		str	r2, [r3, #4]
 595:QX_Protocol.c **** 	QX_Client->Address = Address;
 1883              		.loc 1 595 0
 1884 0014 FB68     		ldr	r3, [r7, #12]
 1885 0016 FA7A     		ldrb	r2, [r7, #11]
 1886 0018 1A70     		strb	r2, [r3]
 596:QX_Protocol.c **** }
 1887              		.loc 1 596 0
 1888 001a 00BF     		nop
 1889 001c 1437     		adds	r7, r7, #20
 1890              		.cfi_def_cfa_offset 4
 1891 001e BD46     		mov	sp, r7
 1892              		.cfi_def_cfa_register 13
 1893              		@ sp needed
 1894 0020 80BC     		pop	{r7}
 1895              		.cfi_restore 7
 1896              		.cfi_def_cfa_offset 0
ARM GAS  C:\Users\JENNEW~1\AppData\Local\Temp\ccHP0j8f.s 			page 45


 1897 0022 7047     		bx	lr
 1898              		.cfi_endproc
 1899              	.LFE16:
 1900              		.size	QX_InitCli, .-QX_InitCli
 1901              		.section	.text.QX_StreamRxCharSM,"ax",%progbits
 1902              		.align	2
 1903              		.global	QX_StreamRxCharSM
 1904              		.thumb
 1905              		.thumb_func
 1906              		.type	QX_StreamRxCharSM, %function
 1907              	QX_StreamRxCharSM:
 1908              	.LFB17:
 597:QX_Protocol.c **** 
 598:QX_Protocol.c **** //----------------------------------------------------------------------------
 599:QX_Protocol.c **** // QX Stream RX Char State Machine
 600:QX_Protocol.c **** // Accepts 1 charater from a serial data stream and recieves full messages
 601:QX_Protocol.c **** // Returns 1 if a message was parsed in this call
 602:QX_Protocol.c **** uint8_t QX_StreamRxCharSM(QX_Comms_Port_e port, unsigned char rxbyte)
 603:QX_Protocol.c **** {
 1909              		.loc 1 603 0
 1910              		.cfi_startproc
 1911              		@ args = 0, pretend = 0, frame = 16
 1912              		@ frame_needed = 1, uses_anonymous_args = 0
 1913 0000 90B5     		push	{r4, r7, lr}
 1914              		.cfi_def_cfa_offset 12
 1915              		.cfi_offset 4, -12
 1916              		.cfi_offset 7, -8
 1917              		.cfi_offset 14, -4
 1918 0002 85B0     		sub	sp, sp, #20
 1919              		.cfi_def_cfa_offset 32
 1920 0004 00AF     		add	r7, sp, #0
 1921              		.cfi_def_cfa_register 7
 1922 0006 0346     		mov	r3, r0
 1923 0008 0A46     		mov	r2, r1
 1924 000a FB71     		strb	r3, [r7, #7]
 1925 000c 1346     		mov	r3, r2
 1926 000e BB71     		strb	r3, [r7, #6]
 604:QX_Protocol.c **** 	uint8_t chksum;
 605:QX_Protocol.c **** 	
 606:QX_Protocol.c **** 	switch(QX_CommsPorts[port].RxState)
 1927              		.loc 1 606 0
 1928 0010 FB79     		ldrb	r3, [r7, #7]	@ zero_extendqisi2
 1929 0012 B94A     		ldr	r2, .L133
 1930 0014 8C21     		movs	r1, #140
 1931 0016 01FB03F3 		mul	r3, r1, r3
 1932 001a 1344     		add	r3, r3, r2
 1933 001c 1B78     		ldrb	r3, [r3]	@ zero_extendqisi2
 1934 001e 072B     		cmp	r3, #7
 1935 0020 00F25783 		bhi	.L105
 1936 0024 01A2     		adr	r2, .L107
 1937 0026 52F823F0 		ldr	pc, [r2, r3, lsl #2]
 1938 002a 00BF     		.p2align 2
 1939              	.L107:
 1940 002c 4D000000 		.word	.L106+1
 1941 0030 CB000000 		.word	.L108+1
 1942 0034 79010000 		.word	.L109+1
 1943 0038 77020000 		.word	.L110+1
ARM GAS  C:\Users\JENNEW~1\AppData\Local\Temp\ccHP0j8f.s 			page 46


 1944 003c 81030000 		.word	.L111+1
 1945 0040 F5030000 		.word	.L112+1
 1946 0044 D1040000 		.word	.L113+1
 1947 0048 A9050000 		.word	.L114+1
 1948              		.p2align 1
 1949              	.L106:
 607:QX_Protocol.c **** 	{
 608:QX_Protocol.c **** 		case QX_RX_STATE_START_WAIT:
 609:QX_Protocol.c **** 				if(rxbyte == 'Q')
 1950              		.loc 1 609 0
 1951 004c BB79     		ldrb	r3, [r7, #6]	@ zero_extendqisi2
 1952 004e 512B     		cmp	r3, #81
 1953 0050 2AD1     		bne	.L115
 610:QX_Protocol.c **** 				{
 611:QX_Protocol.c **** 					QX_CommsPorts[port].RxCntr = 1;
 1954              		.loc 1 611 0
 1955 0052 FB79     		ldrb	r3, [r7, #7]	@ zero_extendqisi2
 1956 0054 A84A     		ldr	r2, .L133
 1957 0056 8C21     		movs	r1, #140
 1958 0058 01FB03F3 		mul	r3, r1, r3
 1959 005c 1344     		add	r3, r3, r2
 1960 005e 0233     		adds	r3, r3, #2
 1961 0060 0122     		movs	r2, #1
 1962 0062 1A80     		strh	r2, [r3]	@ movhi
 612:QX_Protocol.c **** 					QX_CommsPorts[port].RxMsg.MsgBuf[0] = rxbyte;
 1963              		.loc 1 612 0
 1964 0064 FB79     		ldrb	r3, [r7, #7]	@ zero_extendqisi2
 1965 0066 A44A     		ldr	r2, .L133
 1966 0068 8C21     		movs	r1, #140
 1967 006a 01FB03F3 		mul	r3, r1, r3
 1968 006e 1344     		add	r3, r3, r2
 1969 0070 2033     		adds	r3, r3, #32
 1970 0072 BA79     		ldrb	r2, [r7, #6]
 1971 0074 1A70     		strb	r2, [r3]
 613:QX_Protocol.c **** 					QX_CommsPorts[port].RxMsg.MsgBuf_p = &QX_CommsPorts[port].RxMsg.MsgBuf[1];
 1972              		.loc 1 613 0
 1973 0076 FB79     		ldrb	r3, [r7, #7]	@ zero_extendqisi2
 1974 0078 FA79     		ldrb	r2, [r7, #7]	@ zero_extendqisi2
 1975 007a 8C21     		movs	r1, #140
 1976 007c 01FB02F2 		mul	r2, r1, r2
 1977 0080 1932     		adds	r2, r2, #25
 1978 0082 9D49     		ldr	r1, .L133
 1979 0084 0A44     		add	r2, r2, r1
 1980 0086 0832     		adds	r2, r2, #8
 1981 0088 9B49     		ldr	r1, .L133
 1982 008a 8C20     		movs	r0, #140
 1983 008c 00FB03F3 		mul	r3, r0, r3
 1984 0090 0B44     		add	r3, r3, r1
 1985 0092 7433     		adds	r3, r3, #116
 1986 0094 1A60     		str	r2, [r3]
 614:QX_Protocol.c **** 					QX_CommsPorts[port].RxState = QX_RX_STATE_GET_PROTOCOL_VER;
 1987              		.loc 1 614 0
 1988 0096 FB79     		ldrb	r3, [r7, #7]	@ zero_extendqisi2
 1989 0098 974A     		ldr	r2, .L133
 1990 009a 8C21     		movs	r1, #140
 1991 009c 01FB03F3 		mul	r3, r1, r3
 1992 00a0 1344     		add	r3, r3, r2
ARM GAS  C:\Users\JENNEW~1\AppData\Local\Temp\ccHP0j8f.s 			page 47


 1993 00a2 0122     		movs	r2, #1
 1994 00a4 1A70     		strb	r2, [r3]
 615:QX_Protocol.c **** 				} else {
 616:QX_Protocol.c **** 					QX_CommsPorts[port].non_Q_cnt++;
 617:QX_Protocol.c **** 				}
 618:QX_Protocol.c **** 				break;
 1995              		.loc 1 618 0
 1996 00a6 14E3     		b	.L105
 1997              	.L115:
 616:QX_Protocol.c **** 				}
 1998              		.loc 1 616 0
 1999 00a8 FB79     		ldrb	r3, [r7, #7]	@ zero_extendqisi2
 2000 00aa 9349     		ldr	r1, .L133
 2001 00ac 8C22     		movs	r2, #140
 2002 00ae 02FB03F2 		mul	r2, r2, r3
 2003 00b2 0A44     		add	r2, r2, r1
 2004 00b4 8432     		adds	r2, r2, #132
 2005 00b6 1268     		ldr	r2, [r2]
 2006 00b8 0132     		adds	r2, r2, #1
 2007 00ba 8F49     		ldr	r1, .L133
 2008 00bc 8C20     		movs	r0, #140
 2009 00be 00FB03F3 		mul	r3, r0, r3
 2010 00c2 0B44     		add	r3, r3, r1
 2011 00c4 8433     		adds	r3, r3, #132
 2012 00c6 1A60     		str	r2, [r3]
 2013              		.loc 1 618 0
 2014 00c8 03E3     		b	.L105
 2015              	.L108:
 619:QX_Protocol.c **** 				
 620:QX_Protocol.c **** 		case QX_RX_STATE_GET_PROTOCOL_VER:
 621:QX_Protocol.c **** 				*QX_CommsPorts[port].RxMsg.MsgBuf_p++ = rxbyte;
 2016              		.loc 1 621 0
 2017 00ca FA79     		ldrb	r2, [r7, #7]	@ zero_extendqisi2
 2018 00cc 8A49     		ldr	r1, .L133
 2019 00ce 8C23     		movs	r3, #140
 2020 00d0 03FB02F3 		mul	r3, r3, r2
 2021 00d4 0B44     		add	r3, r3, r1
 2022 00d6 7433     		adds	r3, r3, #116
 2023 00d8 1B68     		ldr	r3, [r3]
 2024 00da 591C     		adds	r1, r3, #1
 2025 00dc 8648     		ldr	r0, .L133
 2026 00de 8C24     		movs	r4, #140
 2027 00e0 04FB02F2 		mul	r2, r4, r2
 2028 00e4 0244     		add	r2, r2, r0
 2029 00e6 7432     		adds	r2, r2, #116
 2030 00e8 1160     		str	r1, [r2]
 2031 00ea BA79     		ldrb	r2, [r7, #6]
 2032 00ec 1A70     		strb	r2, [r3]
 622:QX_Protocol.c **** 				QX_CommsPorts[port].RxCntr++;
 2033              		.loc 1 622 0
 2034 00ee FB79     		ldrb	r3, [r7, #7]	@ zero_extendqisi2
 2035 00f0 8149     		ldr	r1, .L133
 2036 00f2 8C22     		movs	r2, #140
 2037 00f4 02FB03F2 		mul	r2, r2, r3
 2038 00f8 0A44     		add	r2, r2, r1
 2039 00fa 0232     		adds	r2, r2, #2
 2040 00fc 1288     		ldrh	r2, [r2]
ARM GAS  C:\Users\JENNEW~1\AppData\Local\Temp\ccHP0j8f.s 			page 48


 2041 00fe 0132     		adds	r2, r2, #1
 2042 0100 90B2     		uxth	r0, r2
 2043 0102 7D4A     		ldr	r2, .L133
 2044 0104 8C21     		movs	r1, #140
 2045 0106 01FB03F3 		mul	r3, r1, r3
 2046 010a 1344     		add	r3, r3, r2
 2047 010c 0233     		adds	r3, r3, #2
 2048 010e 0246     		mov	r2, r0	@ movhi
 2049 0110 1A80     		strh	r2, [r3]	@ movhi
 623:QX_Protocol.c **** 				if(rxbyte == 'X'){
 2050              		.loc 1 623 0
 2051 0112 BB79     		ldrb	r3, [r7, #6]	@ zero_extendqisi2
 2052 0114 582B     		cmp	r3, #88
 2053 0116 11D1     		bne	.L117
 624:QX_Protocol.c **** 					QX_CommsPorts[port].RxMsg.Legacy_Header = 0;
 2054              		.loc 1 624 0
 2055 0118 FB79     		ldrb	r3, [r7, #7]	@ zero_extendqisi2
 2056 011a 774A     		ldr	r2, .L133
 2057 011c 8C21     		movs	r1, #140
 2058 011e 01FB03F3 		mul	r3, r1, r3
 2059 0122 1344     		add	r3, r3, r2
 2060 0124 0933     		adds	r3, r3, #9
 2061 0126 0022     		movs	r2, #0
 2062 0128 1A70     		strb	r2, [r3]
 625:QX_Protocol.c **** 					QX_CommsPorts[port].RxState = QX_RX_STATE_GET_QX_LEN0;
 2063              		.loc 1 625 0
 2064 012a FB79     		ldrb	r3, [r7, #7]	@ zero_extendqisi2
 2065 012c 724A     		ldr	r2, .L133
 2066 012e 8C21     		movs	r1, #140
 2067 0130 01FB03F3 		mul	r3, r1, r3
 2068 0134 1344     		add	r3, r3, r2
 2069 0136 0222     		movs	r2, #2
 2070 0138 1A70     		strb	r2, [r3]
 626:QX_Protocol.c **** 				}
 627:QX_Protocol.c **** 				else if (rxbyte == 'B'){
 628:QX_Protocol.c **** 					QX_CommsPorts[port].RxMsg.Legacy_Header = 1;
 629:QX_Protocol.c **** 					QX_CommsPorts[port].RxState = QX_RX_STATE_GET_QB_LEN0;
 630:QX_Protocol.c **** 				}
 631:QX_Protocol.c **** 				else {
 632:QX_Protocol.c **** 					QX_CommsPorts[port].RxState = QX_RX_STATE_START_WAIT;
 633:QX_Protocol.c **** 				}
 634:QX_Protocol.c **** 				break;
 2071              		.loc 1 634 0
 2072 013a CAE2     		b	.L105
 2073              	.L117:
 627:QX_Protocol.c **** 					QX_CommsPorts[port].RxMsg.Legacy_Header = 1;
 2074              		.loc 1 627 0
 2075 013c BB79     		ldrb	r3, [r7, #6]	@ zero_extendqisi2
 2076 013e 422B     		cmp	r3, #66
 2077 0140 11D1     		bne	.L119
 628:QX_Protocol.c **** 					QX_CommsPorts[port].RxState = QX_RX_STATE_GET_QB_LEN0;
 2078              		.loc 1 628 0
 2079 0142 FB79     		ldrb	r3, [r7, #7]	@ zero_extendqisi2
 2080 0144 6C4A     		ldr	r2, .L133
 2081 0146 8C21     		movs	r1, #140
 2082 0148 01FB03F3 		mul	r3, r1, r3
 2083 014c 1344     		add	r3, r3, r2
ARM GAS  C:\Users\JENNEW~1\AppData\Local\Temp\ccHP0j8f.s 			page 49


 2084 014e 0933     		adds	r3, r3, #9
 2085 0150 0122     		movs	r2, #1
 2086 0152 1A70     		strb	r2, [r3]
 629:QX_Protocol.c **** 				}
 2087              		.loc 1 629 0
 2088 0154 FB79     		ldrb	r3, [r7, #7]	@ zero_extendqisi2
 2089 0156 684A     		ldr	r2, .L133
 2090 0158 8C21     		movs	r1, #140
 2091 015a 01FB03F3 		mul	r3, r1, r3
 2092 015e 1344     		add	r3, r3, r2
 2093 0160 0422     		movs	r2, #4
 2094 0162 1A70     		strb	r2, [r3]
 2095              		.loc 1 634 0
 2096 0164 B5E2     		b	.L105
 2097              	.L119:
 632:QX_Protocol.c **** 				}
 2098              		.loc 1 632 0
 2099 0166 FB79     		ldrb	r3, [r7, #7]	@ zero_extendqisi2
 2100 0168 634A     		ldr	r2, .L133
 2101 016a 8C21     		movs	r1, #140
 2102 016c 01FB03F3 		mul	r3, r1, r3
 2103 0170 1344     		add	r3, r3, r2
 2104 0172 0022     		movs	r2, #0
 2105 0174 1A70     		strb	r2, [r3]
 2106              		.loc 1 634 0
 2107 0176 ACE2     		b	.L105
 2108              	.L109:
 635:QX_Protocol.c **** 				
 636:QX_Protocol.c **** 		case QX_RX_STATE_GET_QX_LEN0:	// Length LSB
 637:QX_Protocol.c **** 			*QX_CommsPorts[port].RxMsg.MsgBuf_p++ = rxbyte;
 2109              		.loc 1 637 0
 2110 0178 FA79     		ldrb	r2, [r7, #7]	@ zero_extendqisi2
 2111 017a 5F49     		ldr	r1, .L133
 2112 017c 8C23     		movs	r3, #140
 2113 017e 03FB02F3 		mul	r3, r3, r2
 2114 0182 0B44     		add	r3, r3, r1
 2115 0184 7433     		adds	r3, r3, #116
 2116 0186 1B68     		ldr	r3, [r3]
 2117 0188 591C     		adds	r1, r3, #1
 2118 018a 5B48     		ldr	r0, .L133
 2119 018c 8C24     		movs	r4, #140
 2120 018e 04FB02F2 		mul	r2, r4, r2
 2121 0192 0244     		add	r2, r2, r0
 2122 0194 7432     		adds	r2, r2, #116
 2123 0196 1160     		str	r1, [r2]
 2124 0198 BA79     		ldrb	r2, [r7, #6]
 2125 019a 1A70     		strb	r2, [r3]
 638:QX_Protocol.c **** 				QX_CommsPorts[port].RxCntr++;
 2126              		.loc 1 638 0
 2127 019c FB79     		ldrb	r3, [r7, #7]	@ zero_extendqisi2
 2128 019e 5649     		ldr	r1, .L133
 2129 01a0 8C22     		movs	r2, #140
 2130 01a2 02FB03F2 		mul	r2, r2, r3
 2131 01a6 0A44     		add	r2, r2, r1
 2132 01a8 0232     		adds	r2, r2, #2
 2133 01aa 1288     		ldrh	r2, [r2]
 2134 01ac 0132     		adds	r2, r2, #1
ARM GAS  C:\Users\JENNEW~1\AppData\Local\Temp\ccHP0j8f.s 			page 50


 2135 01ae 90B2     		uxth	r0, r2
 2136 01b0 514A     		ldr	r2, .L133
 2137 01b2 8C21     		movs	r1, #140
 2138 01b4 01FB03F3 		mul	r3, r1, r3
 2139 01b8 1344     		add	r3, r3, r2
 2140 01ba 0233     		adds	r3, r3, #2
 2141 01bc 0246     		mov	r2, r0	@ movhi
 2142 01be 1A80     		strh	r2, [r3]	@ movhi
 639:QX_Protocol.c **** 		
 640:QX_Protocol.c **** 			if (rxbyte & 0x80){		// Check for Bit 7 extension
 2143              		.loc 1 640 0
 2144 01c0 97F90630 		ldrsb	r3, [r7, #6]
 2145 01c4 002B     		cmp	r3, #0
 2146 01c6 16DA     		bge	.L120
 641:QX_Protocol.c **** 				QX_CommsPorts[port].RxMsg.Header.MsgLength = (uint16_t)(rxbyte & ~0x80);
 2147              		.loc 1 641 0
 2148 01c8 FB79     		ldrb	r3, [r7, #7]	@ zero_extendqisi2
 2149 01ca BA79     		ldrb	r2, [r7, #6]	@ zero_extendqisi2
 2150 01cc 92B2     		uxth	r2, r2
 2151 01ce 22F08002 		bic	r2, r2, #128
 2152 01d2 90B2     		uxth	r0, r2
 2153 01d4 484A     		ldr	r2, .L133
 2154 01d6 8C21     		movs	r1, #140
 2155 01d8 01FB03F3 		mul	r3, r1, r3
 2156 01dc 1344     		add	r3, r3, r2
 2157 01de 0C33     		adds	r3, r3, #12
 2158 01e0 0246     		mov	r2, r0	@ movhi
 2159 01e2 1A80     		strh	r2, [r3]	@ movhi
 642:QX_Protocol.c **** 				QX_CommsPorts[port].RxState = QX_RX_STATE_GET_QX_LEN1;
 2160              		.loc 1 642 0
 2161 01e4 FB79     		ldrb	r3, [r7, #7]	@ zero_extendqisi2
 2162 01e6 444A     		ldr	r2, .L133
 2163 01e8 8C21     		movs	r1, #140
 2164 01ea 01FB03F3 		mul	r3, r1, r3
 2165 01ee 1344     		add	r3, r3, r2
 2166 01f0 0322     		movs	r2, #3
 2167 01f2 1A70     		strb	r2, [r3]
 643:QX_Protocol.c **** 			} else {
 644:QX_Protocol.c **** 				QX_CommsPorts[port].RxMsg.Header.MsgLength = (uint16_t)(rxbyte);
 645:QX_Protocol.c **** 				QX_CommsPorts[port].RxMsg.MsgBufAtt_p = QX_CommsPorts[port].RxMsg.MsgBuf_p;
 646:QX_Protocol.c **** 				QX_CommsPorts[port].RxMsg.RunningChecksum = 0;
 647:QX_Protocol.c **** 				QX_CommsPorts[port].RxState = QX_RX_STATE_GET_DATA;
 648:QX_Protocol.c **** 				
 649:QX_Protocol.c **** 				if(QX_MAX_PAYLOAD_LEN < QX_CommsPorts[port].RxMsg.Header.MsgLength)        // Maximum message l
 650:QX_Protocol.c **** 				{
 651:QX_Protocol.c **** 					QX_CommsPorts[port].RxState = QX_RX_STATE_START_WAIT;
 652:QX_Protocol.c **** 				}
 653:QX_Protocol.c **** 			}
 654:QX_Protocol.c **** 			
 655:QX_Protocol.c **** 			break;
 2168              		.loc 1 655 0
 2169 01f4 66E2     		b	.L129
 2170              	.L120:
 644:QX_Protocol.c **** 				QX_CommsPorts[port].RxMsg.MsgBufAtt_p = QX_CommsPorts[port].RxMsg.MsgBuf_p;
 2171              		.loc 1 644 0
 2172 01f6 FB79     		ldrb	r3, [r7, #7]	@ zero_extendqisi2
 2173 01f8 BA79     		ldrb	r2, [r7, #6]	@ zero_extendqisi2
ARM GAS  C:\Users\JENNEW~1\AppData\Local\Temp\ccHP0j8f.s 			page 51


 2174 01fa 90B2     		uxth	r0, r2
 2175 01fc 3E4A     		ldr	r2, .L133
 2176 01fe 8C21     		movs	r1, #140
 2177 0200 01FB03F3 		mul	r3, r1, r3
 2178 0204 1344     		add	r3, r3, r2
 2179 0206 0C33     		adds	r3, r3, #12
 2180 0208 0246     		mov	r2, r0	@ movhi
 2181 020a 1A80     		strh	r2, [r3]	@ movhi
 645:QX_Protocol.c **** 				QX_CommsPorts[port].RxMsg.RunningChecksum = 0;
 2182              		.loc 1 645 0
 2183 020c FB79     		ldrb	r3, [r7, #7]	@ zero_extendqisi2
 2184 020e FA79     		ldrb	r2, [r7, #7]	@ zero_extendqisi2
 2185 0210 3949     		ldr	r1, .L133
 2186 0212 8C20     		movs	r0, #140
 2187 0214 00FB02F2 		mul	r2, r0, r2
 2188 0218 0A44     		add	r2, r2, r1
 2189 021a 7432     		adds	r2, r2, #116
 2190 021c 1268     		ldr	r2, [r2]
 2191 021e 3649     		ldr	r1, .L133
 2192 0220 8C20     		movs	r0, #140
 2193 0222 00FB03F3 		mul	r3, r0, r3
 2194 0226 0B44     		add	r3, r3, r1
 2195 0228 6C33     		adds	r3, r3, #108
 2196 022a 1A60     		str	r2, [r3]
 646:QX_Protocol.c **** 				QX_CommsPorts[port].RxState = QX_RX_STATE_GET_DATA;
 2197              		.loc 1 646 0
 2198 022c FB79     		ldrb	r3, [r7, #7]	@ zero_extendqisi2
 2199 022e 324A     		ldr	r2, .L133
 2200 0230 8C21     		movs	r1, #140
 2201 0232 01FB03F3 		mul	r3, r1, r3
 2202 0236 1344     		add	r3, r3, r2
 2203 0238 0633     		adds	r3, r3, #6
 2204 023a 0022     		movs	r2, #0
 2205 023c 1A70     		strb	r2, [r3]
 647:QX_Protocol.c **** 				
 2206              		.loc 1 647 0
 2207 023e FB79     		ldrb	r3, [r7, #7]	@ zero_extendqisi2
 2208 0240 2D4A     		ldr	r2, .L133
 2209 0242 8C21     		movs	r1, #140
 2210 0244 01FB03F3 		mul	r3, r1, r3
 2211 0248 1344     		add	r3, r3, r2
 2212 024a 0622     		movs	r2, #6
 2213 024c 1A70     		strb	r2, [r3]
 649:QX_Protocol.c **** 				{
 2214              		.loc 1 649 0
 2215 024e FB79     		ldrb	r3, [r7, #7]	@ zero_extendqisi2
 2216 0250 294A     		ldr	r2, .L133
 2217 0252 8C21     		movs	r1, #140
 2218 0254 01FB03F3 		mul	r3, r1, r3
 2219 0258 1344     		add	r3, r3, r2
 2220 025a 0C33     		adds	r3, r3, #12
 2221 025c 1B88     		ldrh	r3, [r3]
 2222 025e 402B     		cmp	r3, #64
 2223 0260 40F23082 		bls	.L129
 651:QX_Protocol.c **** 				}
 2224              		.loc 1 651 0
 2225 0264 FB79     		ldrb	r3, [r7, #7]	@ zero_extendqisi2
ARM GAS  C:\Users\JENNEW~1\AppData\Local\Temp\ccHP0j8f.s 			page 52


 2226 0266 244A     		ldr	r2, .L133
 2227 0268 8C21     		movs	r1, #140
 2228 026a 01FB03F3 		mul	r3, r1, r3
 2229 026e 1344     		add	r3, r3, r2
 2230 0270 0022     		movs	r2, #0
 2231 0272 1A70     		strb	r2, [r3]
 2232              		.loc 1 655 0
 2233 0274 26E2     		b	.L129
 2234              	.L110:
 656:QX_Protocol.c **** 			
 657:QX_Protocol.c **** 		case QX_RX_STATE_GET_QX_LEN1:	// Length MSB
 658:QX_Protocol.c **** 			*QX_CommsPorts[port].RxMsg.MsgBuf_p++ = rxbyte;
 2235              		.loc 1 658 0
 2236 0276 FA79     		ldrb	r2, [r7, #7]	@ zero_extendqisi2
 2237 0278 1F49     		ldr	r1, .L133
 2238 027a 8C23     		movs	r3, #140
 2239 027c 03FB02F3 		mul	r3, r3, r2
 2240 0280 0B44     		add	r3, r3, r1
 2241 0282 7433     		adds	r3, r3, #116
 2242 0284 1B68     		ldr	r3, [r3]
 2243 0286 591C     		adds	r1, r3, #1
 2244 0288 1B48     		ldr	r0, .L133
 2245 028a 8C24     		movs	r4, #140
 2246 028c 04FB02F2 		mul	r2, r4, r2
 2247 0290 0244     		add	r2, r2, r0
 2248 0292 7432     		adds	r2, r2, #116
 2249 0294 1160     		str	r1, [r2]
 2250 0296 BA79     		ldrb	r2, [r7, #6]
 2251 0298 1A70     		strb	r2, [r3]
 659:QX_Protocol.c **** 			QX_CommsPorts[port].RxCntr++;
 2252              		.loc 1 659 0
 2253 029a FB79     		ldrb	r3, [r7, #7]	@ zero_extendqisi2
 2254 029c 1649     		ldr	r1, .L133
 2255 029e 8C22     		movs	r2, #140
 2256 02a0 02FB03F2 		mul	r2, r2, r3
 2257 02a4 0A44     		add	r2, r2, r1
 2258 02a6 0232     		adds	r2, r2, #2
 2259 02a8 1288     		ldrh	r2, [r2]
 2260 02aa 0132     		adds	r2, r2, #1
 2261 02ac 90B2     		uxth	r0, r2
 2262 02ae 124A     		ldr	r2, .L133
 2263 02b0 8C21     		movs	r1, #140
 2264 02b2 01FB03F3 		mul	r3, r1, r3
 2265 02b6 1344     		add	r3, r3, r2
 2266 02b8 0233     		adds	r3, r3, #2
 2267 02ba 0246     		mov	r2, r0	@ movhi
 2268 02bc 1A80     		strh	r2, [r3]	@ movhi
 660:QX_Protocol.c **** 			QX_CommsPorts[port].RxMsg.MsgBufAtt_p = QX_CommsPorts[port].RxMsg.MsgBuf_p;
 2269              		.loc 1 660 0
 2270 02be FB79     		ldrb	r3, [r7, #7]	@ zero_extendqisi2
 2271 02c0 FA79     		ldrb	r2, [r7, #7]	@ zero_extendqisi2
 2272 02c2 0D49     		ldr	r1, .L133
 2273 02c4 8C20     		movs	r0, #140
 2274 02c6 00FB02F2 		mul	r2, r0, r2
 2275 02ca 0A44     		add	r2, r2, r1
 2276 02cc 7432     		adds	r2, r2, #116
 2277 02ce 1268     		ldr	r2, [r2]
ARM GAS  C:\Users\JENNEW~1\AppData\Local\Temp\ccHP0j8f.s 			page 53


 2278 02d0 0949     		ldr	r1, .L133
 2279 02d2 8C20     		movs	r0, #140
 2280 02d4 00FB03F3 		mul	r3, r0, r3
 2281 02d8 0B44     		add	r3, r3, r1
 2282 02da 6C33     		adds	r3, r3, #108
 2283 02dc 1A60     		str	r2, [r3]
 661:QX_Protocol.c **** 			
 662:QX_Protocol.c **** 			if (rxbyte & 0x80){
 2284              		.loc 1 662 0
 2285 02de 97F90630 		ldrsb	r3, [r7, #6]
 2286 02e2 002B     		cmp	r3, #0
 2287 02e4 0ADA     		bge	.L122
 663:QX_Protocol.c **** 				QX_CommsPorts[port].RxState = QX_RX_STATE_START_WAIT;	// Should not reach here, 21 bit length n
 2288              		.loc 1 663 0
 2289 02e6 FB79     		ldrb	r3, [r7, #7]	@ zero_extendqisi2
 2290 02e8 034A     		ldr	r2, .L133
 2291 02ea 8C21     		movs	r1, #140
 2292 02ec 01FB03F3 		mul	r3, r1, r3
 2293 02f0 1344     		add	r3, r3, r2
 2294 02f2 0022     		movs	r2, #0
 2295 02f4 1A70     		strb	r2, [r3]
 2296 02f6 2FE0     		b	.L123
 2297              	.L134:
 2298              		.align	2
 2299              	.L133:
 2300 02f8 00000000 		.word	QX_CommsPorts
 2301              	.L122:
 664:QX_Protocol.c **** 			} else {
 665:QX_Protocol.c **** 				QX_CommsPorts[port].RxMsg.Header.MsgLength |= (((uint16_t)(rxbyte & ~0x80)) << 7);
 2302              		.loc 1 665 0
 2303 02fc FA79     		ldrb	r2, [r7, #7]	@ zero_extendqisi2
 2304 02fe FB79     		ldrb	r3, [r7, #7]	@ zero_extendqisi2
 2305 0300 A849     		ldr	r1, .L135
 2306 0302 8C20     		movs	r0, #140
 2307 0304 00FB03F3 		mul	r3, r0, r3
 2308 0308 0B44     		add	r3, r3, r1
 2309 030a 0C33     		adds	r3, r3, #12
 2310 030c 1B88     		ldrh	r3, [r3]
 2311 030e 19B2     		sxth	r1, r3
 2312 0310 BB79     		ldrb	r3, [r7, #6]	@ zero_extendqisi2
 2313 0312 DB01     		lsls	r3, r3, #7
 2314 0314 1BB2     		sxth	r3, r3
 2315 0316 23F48043 		bic	r3, r3, #16384
 2316 031a 23F07F03 		bic	r3, r3, #127
 2317 031e 1BB2     		sxth	r3, r3
 2318 0320 0B43     		orrs	r3, r3, r1
 2319 0322 1BB2     		sxth	r3, r3
 2320 0324 98B2     		uxth	r0, r3
 2321 0326 9F49     		ldr	r1, .L135
 2322 0328 8C23     		movs	r3, #140
 2323 032a 03FB02F3 		mul	r3, r3, r2
 2324 032e 0B44     		add	r3, r3, r1
 2325 0330 0C33     		adds	r3, r3, #12
 2326 0332 0246     		mov	r2, r0	@ movhi
 2327 0334 1A80     		strh	r2, [r3]	@ movhi
 666:QX_Protocol.c **** 				QX_CommsPorts[port].RxMsg.RunningChecksum = 0;
 2328              		.loc 1 666 0
ARM GAS  C:\Users\JENNEW~1\AppData\Local\Temp\ccHP0j8f.s 			page 54


 2329 0336 FB79     		ldrb	r3, [r7, #7]	@ zero_extendqisi2
 2330 0338 9A4A     		ldr	r2, .L135
 2331 033a 8C21     		movs	r1, #140
 2332 033c 01FB03F3 		mul	r3, r1, r3
 2333 0340 1344     		add	r3, r3, r2
 2334 0342 0633     		adds	r3, r3, #6
 2335 0344 0022     		movs	r2, #0
 2336 0346 1A70     		strb	r2, [r3]
 667:QX_Protocol.c **** 				QX_CommsPorts[port].RxState = QX_RX_STATE_GET_DATA;
 2337              		.loc 1 667 0
 2338 0348 FB79     		ldrb	r3, [r7, #7]	@ zero_extendqisi2
 2339 034a 964A     		ldr	r2, .L135
 2340 034c 8C21     		movs	r1, #140
 2341 034e 01FB03F3 		mul	r3, r1, r3
 2342 0352 1344     		add	r3, r3, r2
 2343 0354 0622     		movs	r2, #6
 2344 0356 1A70     		strb	r2, [r3]
 2345              	.L123:
 668:QX_Protocol.c **** 			}
 669:QX_Protocol.c **** 			
 670:QX_Protocol.c **** 			if(QX_MAX_PAYLOAD_LEN < QX_CommsPorts[port].RxMsg.Header.MsgLength)
 2346              		.loc 1 670 0
 2347 0358 FB79     		ldrb	r3, [r7, #7]	@ zero_extendqisi2
 2348 035a 924A     		ldr	r2, .L135
 2349 035c 8C21     		movs	r1, #140
 2350 035e 01FB03F3 		mul	r3, r1, r3
 2351 0362 1344     		add	r3, r3, r2
 2352 0364 0C33     		adds	r3, r3, #12
 2353 0366 1B88     		ldrh	r3, [r3]
 2354 0368 402B     		cmp	r3, #64
 2355 036a 40F2AD81 		bls	.L130
 671:QX_Protocol.c **** 			{
 672:QX_Protocol.c **** 				QX_CommsPorts[port].RxState = QX_RX_STATE_START_WAIT;
 2356              		.loc 1 672 0
 2357 036e FB79     		ldrb	r3, [r7, #7]	@ zero_extendqisi2
 2358 0370 8C4A     		ldr	r2, .L135
 2359 0372 8C21     		movs	r1, #140
 2360 0374 01FB03F3 		mul	r3, r1, r3
 2361 0378 1344     		add	r3, r3, r2
 2362 037a 0022     		movs	r2, #0
 2363 037c 1A70     		strb	r2, [r3]
 673:QX_Protocol.c **** 			}
 674:QX_Protocol.c **** 			
 675:QX_Protocol.c **** 			break;
 2364              		.loc 1 675 0
 2365 037e A3E1     		b	.L130
 2366              	.L111:
 676:QX_Protocol.c **** 				
 677:QX_Protocol.c **** 		case QX_RX_STATE_GET_QB_LEN0:
 678:QX_Protocol.c **** 				*QX_CommsPorts[port].RxMsg.MsgBuf_p++ = rxbyte;
 2367              		.loc 1 678 0
 2368 0380 FA79     		ldrb	r2, [r7, #7]	@ zero_extendqisi2
 2369 0382 8849     		ldr	r1, .L135
 2370 0384 8C23     		movs	r3, #140
 2371 0386 03FB02F3 		mul	r3, r3, r2
 2372 038a 0B44     		add	r3, r3, r1
 2373 038c 7433     		adds	r3, r3, #116
ARM GAS  C:\Users\JENNEW~1\AppData\Local\Temp\ccHP0j8f.s 			page 55


 2374 038e 1B68     		ldr	r3, [r3]
 2375 0390 591C     		adds	r1, r3, #1
 2376 0392 8448     		ldr	r0, .L135
 2377 0394 8C24     		movs	r4, #140
 2378 0396 04FB02F2 		mul	r2, r4, r2
 2379 039a 0244     		add	r2, r2, r0
 2380 039c 7432     		adds	r2, r2, #116
 2381 039e 1160     		str	r1, [r2]
 2382 03a0 BA79     		ldrb	r2, [r7, #6]
 2383 03a2 1A70     		strb	r2, [r3]
 679:QX_Protocol.c **** 				QX_CommsPorts[port].RxCntr++;
 2384              		.loc 1 679 0
 2385 03a4 FB79     		ldrb	r3, [r7, #7]	@ zero_extendqisi2
 2386 03a6 7F49     		ldr	r1, .L135
 2387 03a8 8C22     		movs	r2, #140
 2388 03aa 02FB03F2 		mul	r2, r2, r3
 2389 03ae 0A44     		add	r2, r2, r1
 2390 03b0 0232     		adds	r2, r2, #2
 2391 03b2 1288     		ldrh	r2, [r2]
 2392 03b4 0132     		adds	r2, r2, #1
 2393 03b6 90B2     		uxth	r0, r2
 2394 03b8 7A4A     		ldr	r2, .L135
 2395 03ba 8C21     		movs	r1, #140
 2396 03bc 01FB03F3 		mul	r3, r1, r3
 2397 03c0 1344     		add	r3, r3, r2
 2398 03c2 0233     		adds	r3, r3, #2
 2399 03c4 0246     		mov	r2, r0	@ movhi
 2400 03c6 1A80     		strh	r2, [r3]	@ movhi
 680:QX_Protocol.c **** 				QX_CommsPorts[port].RxMsg.Header.MsgLength = (uint16_t)rxbyte << 8;
 2401              		.loc 1 680 0
 2402 03c8 FB79     		ldrb	r3, [r7, #7]	@ zero_extendqisi2
 2403 03ca BA79     		ldrb	r2, [r7, #6]	@ zero_extendqisi2
 2404 03cc 92B2     		uxth	r2, r2
 2405 03ce 1202     		lsls	r2, r2, #8
 2406 03d0 90B2     		uxth	r0, r2
 2407 03d2 744A     		ldr	r2, .L135
 2408 03d4 8C21     		movs	r1, #140
 2409 03d6 01FB03F3 		mul	r3, r1, r3
 2410 03da 1344     		add	r3, r3, r2
 2411 03dc 0C33     		adds	r3, r3, #12
 2412 03de 0246     		mov	r2, r0	@ movhi
 2413 03e0 1A80     		strh	r2, [r3]	@ movhi
 681:QX_Protocol.c **** 				QX_CommsPorts[port].RxState = QX_RX_STATE_GET_QB_LEN1;
 2414              		.loc 1 681 0
 2415 03e2 FB79     		ldrb	r3, [r7, #7]	@ zero_extendqisi2
 2416 03e4 6F4A     		ldr	r2, .L135
 2417 03e6 8C21     		movs	r1, #140
 2418 03e8 01FB03F3 		mul	r3, r1, r3
 2419 03ec 1344     		add	r3, r3, r2
 2420 03ee 0522     		movs	r2, #5
 2421 03f0 1A70     		strb	r2, [r3]
 682:QX_Protocol.c **** 				break;
 2422              		.loc 1 682 0
 2423 03f2 6EE1     		b	.L105
 2424              	.L112:
 683:QX_Protocol.c **** 				
 684:QX_Protocol.c **** 		case QX_RX_STATE_GET_QB_LEN1:
ARM GAS  C:\Users\JENNEW~1\AppData\Local\Temp\ccHP0j8f.s 			page 56


 685:QX_Protocol.c **** 				*QX_CommsPorts[port].RxMsg.MsgBuf_p++ = rxbyte;	// Leave the message buf pointer at the attribu
 2425              		.loc 1 685 0
 2426 03f4 FA79     		ldrb	r2, [r7, #7]	@ zero_extendqisi2
 2427 03f6 6B49     		ldr	r1, .L135
 2428 03f8 8C23     		movs	r3, #140
 2429 03fa 03FB02F3 		mul	r3, r3, r2
 2430 03fe 0B44     		add	r3, r3, r1
 2431 0400 7433     		adds	r3, r3, #116
 2432 0402 1B68     		ldr	r3, [r3]
 2433 0404 591C     		adds	r1, r3, #1
 2434 0406 6748     		ldr	r0, .L135
 2435 0408 8C24     		movs	r4, #140
 2436 040a 04FB02F2 		mul	r2, r4, r2
 2437 040e 0244     		add	r2, r2, r0
 2438 0410 7432     		adds	r2, r2, #116
 2439 0412 1160     		str	r1, [r2]
 2440 0414 BA79     		ldrb	r2, [r7, #6]
 2441 0416 1A70     		strb	r2, [r3]
 686:QX_Protocol.c **** 				QX_CommsPorts[port].RxCntr++;
 2442              		.loc 1 686 0
 2443 0418 FB79     		ldrb	r3, [r7, #7]	@ zero_extendqisi2
 2444 041a 6249     		ldr	r1, .L135
 2445 041c 8C22     		movs	r2, #140
 2446 041e 02FB03F2 		mul	r2, r2, r3
 2447 0422 0A44     		add	r2, r2, r1
 2448 0424 0232     		adds	r2, r2, #2
 2449 0426 1288     		ldrh	r2, [r2]
 2450 0428 0132     		adds	r2, r2, #1
 2451 042a 90B2     		uxth	r0, r2
 2452 042c 5D4A     		ldr	r2, .L135
 2453 042e 8C21     		movs	r1, #140
 2454 0430 01FB03F3 		mul	r3, r1, r3
 2455 0434 1344     		add	r3, r3, r2
 2456 0436 0233     		adds	r3, r3, #2
 2457 0438 0246     		mov	r2, r0	@ movhi
 2458 043a 1A80     		strh	r2, [r3]	@ movhi
 687:QX_Protocol.c **** 				QX_CommsPorts[port].RxMsg.MsgBufAtt_p = QX_CommsPorts[port].RxMsg.MsgBuf_p;
 2459              		.loc 1 687 0
 2460 043c FB79     		ldrb	r3, [r7, #7]	@ zero_extendqisi2
 2461 043e FA79     		ldrb	r2, [r7, #7]	@ zero_extendqisi2
 2462 0440 5849     		ldr	r1, .L135
 2463 0442 8C20     		movs	r0, #140
 2464 0444 00FB02F2 		mul	r2, r0, r2
 2465 0448 0A44     		add	r2, r2, r1
 2466 044a 7432     		adds	r2, r2, #116
 2467 044c 1268     		ldr	r2, [r2]
 2468 044e 5549     		ldr	r1, .L135
 2469 0450 8C20     		movs	r0, #140
 2470 0452 00FB03F3 		mul	r3, r0, r3
 2471 0456 0B44     		add	r3, r3, r1
 2472 0458 6C33     		adds	r3, r3, #108
 2473 045a 1A60     		str	r2, [r3]
 688:QX_Protocol.c **** 				QX_CommsPorts[port].RxMsg.Header.MsgLength |= (uint16_t)rxbyte;
 2474              		.loc 1 688 0
 2475 045c FB79     		ldrb	r3, [r7, #7]	@ zero_extendqisi2
 2476 045e FA79     		ldrb	r2, [r7, #7]	@ zero_extendqisi2
 2477 0460 5049     		ldr	r1, .L135
ARM GAS  C:\Users\JENNEW~1\AppData\Local\Temp\ccHP0j8f.s 			page 57


 2478 0462 8C20     		movs	r0, #140
 2479 0464 00FB02F2 		mul	r2, r0, r2
 2480 0468 0A44     		add	r2, r2, r1
 2481 046a 0C32     		adds	r2, r2, #12
 2482 046c 1188     		ldrh	r1, [r2]
 2483 046e BA79     		ldrb	r2, [r7, #6]	@ zero_extendqisi2
 2484 0470 92B2     		uxth	r2, r2
 2485 0472 0A43     		orrs	r2, r2, r1
 2486 0474 90B2     		uxth	r0, r2
 2487 0476 4B4A     		ldr	r2, .L135
 2488 0478 8C21     		movs	r1, #140
 2489 047a 01FB03F3 		mul	r3, r1, r3
 2490 047e 1344     		add	r3, r3, r2
 2491 0480 0C33     		adds	r3, r3, #12
 2492 0482 0246     		mov	r2, r0	@ movhi
 2493 0484 1A80     		strh	r2, [r3]	@ movhi
 689:QX_Protocol.c **** 				QX_CommsPorts[port].RxMsg.RunningChecksum = 0;
 2494              		.loc 1 689 0
 2495 0486 FB79     		ldrb	r3, [r7, #7]	@ zero_extendqisi2
 2496 0488 464A     		ldr	r2, .L135
 2497 048a 8C21     		movs	r1, #140
 2498 048c 01FB03F3 		mul	r3, r1, r3
 2499 0490 1344     		add	r3, r3, r2
 2500 0492 0633     		adds	r3, r3, #6
 2501 0494 0022     		movs	r2, #0
 2502 0496 1A70     		strb	r2, [r3]
 690:QX_Protocol.c **** 				QX_CommsPorts[port].RxState = QX_RX_STATE_GET_DATA;
 2503              		.loc 1 690 0
 2504 0498 FB79     		ldrb	r3, [r7, #7]	@ zero_extendqisi2
 2505 049a 424A     		ldr	r2, .L135
 2506 049c 8C21     		movs	r1, #140
 2507 049e 01FB03F3 		mul	r3, r1, r3
 2508 04a2 1344     		add	r3, r3, r2
 2509 04a4 0622     		movs	r2, #6
 2510 04a6 1A70     		strb	r2, [r3]
 691:QX_Protocol.c **** 				if(QX_MAX_PAYLOAD_LEN < QX_CommsPorts[port].RxMsg.Header.MsgLength)
 2511              		.loc 1 691 0
 2512 04a8 FB79     		ldrb	r3, [r7, #7]	@ zero_extendqisi2
 2513 04aa 3E4A     		ldr	r2, .L135
 2514 04ac 8C21     		movs	r1, #140
 2515 04ae 01FB03F3 		mul	r3, r1, r3
 2516 04b2 1344     		add	r3, r3, r2
 2517 04b4 0C33     		adds	r3, r3, #12
 2518 04b6 1B88     		ldrh	r3, [r3]
 2519 04b8 402B     		cmp	r3, #64
 2520 04ba 40F20781 		bls	.L131
 692:QX_Protocol.c **** 				{
 693:QX_Protocol.c **** 						QX_CommsPorts[port].RxState = QX_RX_STATE_START_WAIT;
 2521              		.loc 1 693 0
 2522 04be FB79     		ldrb	r3, [r7, #7]	@ zero_extendqisi2
 2523 04c0 384A     		ldr	r2, .L135
 2524 04c2 8C21     		movs	r1, #140
 2525 04c4 01FB03F3 		mul	r3, r1, r3
 2526 04c8 1344     		add	r3, r3, r2
 2527 04ca 0022     		movs	r2, #0
 2528 04cc 1A70     		strb	r2, [r3]
 694:QX_Protocol.c **** 				}
ARM GAS  C:\Users\JENNEW~1\AppData\Local\Temp\ccHP0j8f.s 			page 58


 695:QX_Protocol.c **** 				break;
 2529              		.loc 1 695 0
 2530 04ce FDE0     		b	.L131
 2531              	.L113:
 696:QX_Protocol.c **** 				
 697:QX_Protocol.c **** 		case QX_RX_STATE_GET_DATA:
 698:QX_Protocol.c **** 				*QX_CommsPorts[port].RxMsg.MsgBuf_p++ = rxbyte;
 2532              		.loc 1 698 0
 2533 04d0 FA79     		ldrb	r2, [r7, #7]	@ zero_extendqisi2
 2534 04d2 3449     		ldr	r1, .L135
 2535 04d4 8C23     		movs	r3, #140
 2536 04d6 03FB02F3 		mul	r3, r3, r2
 2537 04da 0B44     		add	r3, r3, r1
 2538 04dc 7433     		adds	r3, r3, #116
 2539 04de 1B68     		ldr	r3, [r3]
 2540 04e0 591C     		adds	r1, r3, #1
 2541 04e2 3048     		ldr	r0, .L135
 2542 04e4 8C24     		movs	r4, #140
 2543 04e6 04FB02F2 		mul	r2, r4, r2
 2544 04ea 0244     		add	r2, r2, r0
 2545 04ec 7432     		adds	r2, r2, #116
 2546 04ee 1160     		str	r1, [r2]
 2547 04f0 BA79     		ldrb	r2, [r7, #6]
 2548 04f2 1A70     		strb	r2, [r3]
 699:QX_Protocol.c **** 				QX_CommsPorts[port].RxCntr++;
 2549              		.loc 1 699 0
 2550 04f4 FB79     		ldrb	r3, [r7, #7]	@ zero_extendqisi2
 2551 04f6 2B49     		ldr	r1, .L135
 2552 04f8 8C22     		movs	r2, #140
 2553 04fa 02FB03F2 		mul	r2, r2, r3
 2554 04fe 0A44     		add	r2, r2, r1
 2555 0500 0232     		adds	r2, r2, #2
 2556 0502 1288     		ldrh	r2, [r2]
 2557 0504 0132     		adds	r2, r2, #1
 2558 0506 90B2     		uxth	r0, r2
 2559 0508 264A     		ldr	r2, .L135
 2560 050a 8C21     		movs	r1, #140
 2561 050c 01FB03F3 		mul	r3, r1, r3
 2562 0510 1344     		add	r3, r3, r2
 2563 0512 0233     		adds	r3, r3, #2
 2564 0514 0246     		mov	r2, r0	@ movhi
 2565 0516 1A80     		strh	r2, [r3]	@ movhi
 700:QX_Protocol.c **** 				QX_CommsPorts[port].RxMsg.RunningChecksum += rxbyte;
 2566              		.loc 1 700 0
 2567 0518 FB79     		ldrb	r3, [r7, #7]	@ zero_extendqisi2
 2568 051a FA79     		ldrb	r2, [r7, #7]	@ zero_extendqisi2
 2569 051c 2149     		ldr	r1, .L135
 2570 051e 8C20     		movs	r0, #140
 2571 0520 00FB02F2 		mul	r2, r0, r2
 2572 0524 0A44     		add	r2, r2, r1
 2573 0526 0632     		adds	r2, r2, #6
 2574 0528 1178     		ldrb	r1, [r2]	@ zero_extendqisi2
 2575 052a BA79     		ldrb	r2, [r7, #6]
 2576 052c 0A44     		add	r2, r2, r1
 2577 052e D0B2     		uxtb	r0, r2
 2578 0530 1C4A     		ldr	r2, .L135
 2579 0532 8C21     		movs	r1, #140
ARM GAS  C:\Users\JENNEW~1\AppData\Local\Temp\ccHP0j8f.s 			page 59


 2580 0534 01FB03F3 		mul	r3, r1, r3
 2581 0538 1344     		add	r3, r3, r2
 2582 053a 0633     		adds	r3, r3, #6
 2583 053c 0246     		mov	r2, r0
 2584 053e 1A70     		strb	r2, [r3]
 701:QX_Protocol.c **** 				if(QX_CommsPorts[port].RxMsg.Header.MsgLength <= QX_CommsPorts[port].RxCntr - (QX_CommsPorts[po
 2585              		.loc 1 701 0
 2586 0540 FB79     		ldrb	r3, [r7, #7]	@ zero_extendqisi2
 2587 0542 184A     		ldr	r2, .L135
 2588 0544 8C21     		movs	r1, #140
 2589 0546 01FB03F3 		mul	r3, r1, r3
 2590 054a 1344     		add	r3, r3, r2
 2591 054c 0C33     		adds	r3, r3, #12
 2592 054e 1B88     		ldrh	r3, [r3]
 2593 0550 1846     		mov	r0, r3
 2594 0552 FB79     		ldrb	r3, [r7, #7]	@ zero_extendqisi2
 2595 0554 134A     		ldr	r2, .L135
 2596 0556 8C21     		movs	r1, #140
 2597 0558 01FB03F3 		mul	r3, r1, r3
 2598 055c 1344     		add	r3, r3, r2
 2599 055e 0233     		adds	r3, r3, #2
 2600 0560 1B88     		ldrh	r3, [r3]
 2601 0562 1C46     		mov	r4, r3
 2602 0564 FB79     		ldrb	r3, [r7, #7]	@ zero_extendqisi2
 2603 0566 0F4A     		ldr	r2, .L135
 2604 0568 8C21     		movs	r1, #140
 2605 056a 01FB03F3 		mul	r3, r1, r3
 2606 056e 1344     		add	r3, r3, r2
 2607 0570 6C33     		adds	r3, r3, #108
 2608 0572 1B68     		ldr	r3, [r3]
 2609 0574 1946     		mov	r1, r3
 2610 0576 FB79     		ldrb	r3, [r7, #7]	@ zero_extendqisi2
 2611 0578 8C22     		movs	r2, #140
 2612 057a 02FB03F3 		mul	r3, r2, r3
 2613 057e 1833     		adds	r3, r3, #24
 2614 0580 084A     		ldr	r2, .L135
 2615 0582 1344     		add	r3, r3, r2
 2616 0584 0833     		adds	r3, r3, #8
 2617 0586 CB1A     		subs	r3, r1, r3
 2618 0588 E31A     		subs	r3, r4, r3
 2619 058a 9842     		cmp	r0, r3
 2620 058c 00F3A080 		bgt	.L132
 702:QX_Protocol.c **** 				{
 703:QX_Protocol.c **** 						QX_CommsPorts[port].RxState = QX_RX_STATE_GET_CHKSUM;
 2621              		.loc 1 703 0
 2622 0590 FB79     		ldrb	r3, [r7, #7]	@ zero_extendqisi2
 2623 0592 044A     		ldr	r2, .L135
 2624 0594 8C21     		movs	r1, #140
 2625 0596 01FB03F3 		mul	r3, r1, r3
 2626 059a 1344     		add	r3, r3, r2
 2627 059c 0722     		movs	r2, #7
 2628 059e 1A70     		strb	r2, [r3]
 704:QX_Protocol.c **** 				}
 705:QX_Protocol.c **** 				break;
 2629              		.loc 1 705 0
 2630 05a0 96E0     		b	.L132
 2631              	.L136:
ARM GAS  C:\Users\JENNEW~1\AppData\Local\Temp\ccHP0j8f.s 			page 60


 2632 05a2 00BF     		.align	2
 2633              	.L135:
 2634 05a4 00000000 		.word	QX_CommsPorts
 2635              	.L114:
 706:QX_Protocol.c **** 				
 707:QX_Protocol.c **** 		case QX_RX_STATE_GET_CHKSUM:
 708:QX_Protocol.c **** 				*QX_CommsPorts[port].RxMsg.MsgBuf_p++ = rxbyte;
 2636              		.loc 1 708 0
 2637 05a8 FA79     		ldrb	r2, [r7, #7]	@ zero_extendqisi2
 2638 05aa 4C49     		ldr	r1, .L137
 2639 05ac 8C23     		movs	r3, #140
 2640 05ae 03FB02F3 		mul	r3, r3, r2
 2641 05b2 0B44     		add	r3, r3, r1
 2642 05b4 7433     		adds	r3, r3, #116
 2643 05b6 1B68     		ldr	r3, [r3]
 2644 05b8 591C     		adds	r1, r3, #1
 2645 05ba 4848     		ldr	r0, .L137
 2646 05bc 8C24     		movs	r4, #140
 2647 05be 04FB02F2 		mul	r2, r4, r2
 2648 05c2 0244     		add	r2, r2, r0
 2649 05c4 7432     		adds	r2, r2, #116
 2650 05c6 1160     		str	r1, [r2]
 2651 05c8 BA79     		ldrb	r2, [r7, #6]
 2652 05ca 1A70     		strb	r2, [r3]
 709:QX_Protocol.c **** 				QX_CommsPorts[port].RxCntr++;
 2653              		.loc 1 709 0
 2654 05cc FB79     		ldrb	r3, [r7, #7]	@ zero_extendqisi2
 2655 05ce 4349     		ldr	r1, .L137
 2656 05d0 8C22     		movs	r2, #140
 2657 05d2 02FB03F2 		mul	r2, r2, r3
 2658 05d6 0A44     		add	r2, r2, r1
 2659 05d8 0232     		adds	r2, r2, #2
 2660 05da 1288     		ldrh	r2, [r2]
 2661 05dc 0132     		adds	r2, r2, #1
 2662 05de 90B2     		uxth	r0, r2
 2663 05e0 3E4A     		ldr	r2, .L137
 2664 05e2 8C21     		movs	r1, #140
 2665 05e4 01FB03F3 		mul	r3, r1, r3
 2666 05e8 1344     		add	r3, r3, r2
 2667 05ea 0233     		adds	r3, r3, #2
 2668 05ec 0246     		mov	r2, r0	@ movhi
 2669 05ee 1A80     		strh	r2, [r3]	@ movhi
 710:QX_Protocol.c **** 				chksum = rxbyte;
 2670              		.loc 1 710 0
 2671 05f0 BB79     		ldrb	r3, [r7, #6]
 2672 05f2 FB73     		strb	r3, [r7, #15]
 711:QX_Protocol.c **** 				QX_CommsPorts[port].RxState = QX_RX_STATE_START_WAIT;
 2673              		.loc 1 711 0
 2674 05f4 FB79     		ldrb	r3, [r7, #7]	@ zero_extendqisi2
 2675 05f6 394A     		ldr	r2, .L137
 2676 05f8 8C21     		movs	r1, #140
 2677 05fa 01FB03F3 		mul	r3, r1, r3
 2678 05fe 1344     		add	r3, r3, r2
 2679 0600 0022     		movs	r2, #0
 2680 0602 1A70     		strb	r2, [r3]
 712:QX_Protocol.c **** 				QX_CommsPorts[port].RxMsg.CommPort = port;
 2681              		.loc 1 712 0
ARM GAS  C:\Users\JENNEW~1\AppData\Local\Temp\ccHP0j8f.s 			page 61


 2682 0604 FB79     		ldrb	r3, [r7, #7]	@ zero_extendqisi2
 2683 0606 354A     		ldr	r2, .L137
 2684 0608 8C21     		movs	r1, #140
 2685 060a 01FB03F3 		mul	r3, r1, r3
 2686 060e 1344     		add	r3, r3, r2
 2687 0610 0A33     		adds	r3, r3, #10
 2688 0612 FA79     		ldrb	r2, [r7, #7]
 2689 0614 1A70     		strb	r2, [r3]
 713:QX_Protocol.c **** 				if((chksum + QX_CommsPorts[port].RxMsg.RunningChecksum) == 0xFF)		// Is checksum ok?
 2690              		.loc 1 713 0
 2691 0616 FB7B     		ldrb	r3, [r7, #15]	@ zero_extendqisi2
 2692 0618 FA79     		ldrb	r2, [r7, #7]	@ zero_extendqisi2
 2693 061a 3049     		ldr	r1, .L137
 2694 061c 8C20     		movs	r0, #140
 2695 061e 00FB02F2 		mul	r2, r0, r2
 2696 0622 0A44     		add	r2, r2, r1
 2697 0624 0632     		adds	r2, r2, #6
 2698 0626 1278     		ldrb	r2, [r2]	@ zero_extendqisi2
 2699 0628 1344     		add	r3, r3, r2
 2700 062a FF2B     		cmp	r3, #255
 2701 062c 39D1     		bne	.L127
 714:QX_Protocol.c **** 				{
 715:QX_Protocol.c **** 					QX_CommsPorts[port].Timeout_Cntr = 0;
 2702              		.loc 1 715 0
 2703 062e FB79     		ldrb	r3, [r7, #7]	@ zero_extendqisi2
 2704 0630 2A4A     		ldr	r2, .L137
 2705 0632 8C21     		movs	r1, #140
 2706 0634 01FB03F3 		mul	r3, r1, r3
 2707 0638 1344     		add	r3, r3, r2
 2708 063a 7833     		adds	r3, r3, #120
 2709 063c 0022     		movs	r2, #0
 2710 063e 1A60     		str	r2, [r3]
 716:QX_Protocol.c **** 					QX_CommsPorts[port].last_rx_msg_time = QX_GetTicks_ms();
 2711              		.loc 1 716 0
 2712 0640 FC79     		ldrb	r4, [r7, #7]	@ zero_extendqisi2
 2713 0642 FFF7FEFF 		bl	QX_GetTicks_ms
 2714 0646 0146     		mov	r1, r0
 2715 0648 244A     		ldr	r2, .L137
 2716 064a 8C23     		movs	r3, #140
 2717 064c 03FB04F3 		mul	r3, r3, r4
 2718 0650 1344     		add	r3, r3, r2
 2719 0652 8833     		adds	r3, r3, #136
 2720 0654 1960     		str	r1, [r3]
 717:QX_Protocol.c **** 					QX_CommsPorts[port].Connected = 1;
 2721              		.loc 1 717 0
 2722 0656 FB79     		ldrb	r3, [r7, #7]	@ zero_extendqisi2
 2723 0658 204A     		ldr	r2, .L137
 2724 065a 8C21     		movs	r1, #140
 2725 065c 01FB03F3 		mul	r3, r1, r3
 2726 0660 1344     		add	r3, r3, r2
 2727 0662 7C33     		adds	r3, r3, #124
 2728 0664 0122     		movs	r2, #1
 2729 0666 1A70     		strb	r2, [r3]
 718:QX_Protocol.c **** 					QX_CommsPorts[port].RxMsg.MsgBuf_MsgLen = QX_CommsPorts[port].RxCntr;
 2730              		.loc 1 718 0
 2731 0668 FB79     		ldrb	r3, [r7, #7]	@ zero_extendqisi2
 2732 066a FA79     		ldrb	r2, [r7, #7]	@ zero_extendqisi2
ARM GAS  C:\Users\JENNEW~1\AppData\Local\Temp\ccHP0j8f.s 			page 62


 2733 066c 1B49     		ldr	r1, .L137
 2734 066e 8C20     		movs	r0, #140
 2735 0670 00FB02F2 		mul	r2, r0, r2
 2736 0674 0A44     		add	r2, r2, r1
 2737 0676 0232     		adds	r2, r2, #2
 2738 0678 1088     		ldrh	r0, [r2]
 2739 067a 184A     		ldr	r2, .L137
 2740 067c 8C21     		movs	r1, #140
 2741 067e 01FB03F3 		mul	r3, r1, r3
 2742 0682 1344     		add	r3, r3, r2
 2743 0684 6633     		adds	r3, r3, #102
 2744 0686 0246     		mov	r2, r0	@ movhi
 2745 0688 1A80     		strh	r2, [r3]	@ movhi
 719:QX_Protocol.c **** 					QX_RxMsg(&QX_CommsPorts[port].RxMsg);	// Receive the Message
 2746              		.loc 1 719 0
 2747 068a FB79     		ldrb	r3, [r7, #7]	@ zero_extendqisi2
 2748 068c 8C22     		movs	r2, #140
 2749 068e 02FB03F3 		mul	r3, r2, r3
 2750 0692 124A     		ldr	r2, .L137
 2751 0694 1344     		add	r3, r3, r2
 2752 0696 0433     		adds	r3, r3, #4
 2753 0698 1846     		mov	r0, r3
 2754 069a FFF7FEFF 		bl	QX_RxMsg
 720:QX_Protocol.c **** 					return 1;
 2755              		.loc 1 720 0
 2756 069e 0123     		movs	r3, #1
 2757 06a0 18E0     		b	.L128
 2758              	.L127:
 721:QX_Protocol.c **** 				} else {
 722:QX_Protocol.c **** 					QX_CommsPorts[port].ChkSumFail_cnt++;
 2759              		.loc 1 722 0
 2760 06a2 FB79     		ldrb	r3, [r7, #7]	@ zero_extendqisi2
 2761 06a4 0D49     		ldr	r1, .L137
 2762 06a6 8C22     		movs	r2, #140
 2763 06a8 02FB03F2 		mul	r2, r2, r3
 2764 06ac 0A44     		add	r2, r2, r1
 2765 06ae 8032     		adds	r2, r2, #128
 2766 06b0 1268     		ldr	r2, [r2]
 2767 06b2 0132     		adds	r2, r2, #1
 2768 06b4 0949     		ldr	r1, .L137
 2769 06b6 8C20     		movs	r0, #140
 2770 06b8 00FB03F3 		mul	r3, r0, r3
 2771 06bc 0B44     		add	r3, r3, r1
 2772 06be 8033     		adds	r3, r3, #128
 2773 06c0 1A60     		str	r2, [r3]
 723:QX_Protocol.c **** 				}
 724:QX_Protocol.c **** 				break;
 2774              		.loc 1 724 0
 2775 06c2 06E0     		b	.L105
 2776              	.L129:
 655:QX_Protocol.c **** 			
 2777              		.loc 1 655 0
 2778 06c4 00BF     		nop
 2779 06c6 04E0     		b	.L105
 2780              	.L130:
 675:QX_Protocol.c **** 				
 2781              		.loc 1 675 0
ARM GAS  C:\Users\JENNEW~1\AppData\Local\Temp\ccHP0j8f.s 			page 63


 2782 06c8 00BF     		nop
 2783 06ca 02E0     		b	.L105
 2784              	.L131:
 695:QX_Protocol.c **** 				
 2785              		.loc 1 695 0
 2786 06cc 00BF     		nop
 2787 06ce 00E0     		b	.L105
 2788              	.L132:
 705:QX_Protocol.c **** 				
 2789              		.loc 1 705 0
 2790 06d0 00BF     		nop
 2791              	.L105:
 725:QX_Protocol.c **** 	}
 726:QX_Protocol.c **** 	return 0;
 2792              		.loc 1 726 0
 2793 06d2 0023     		movs	r3, #0
 2794              	.L128:
 727:QX_Protocol.c **** }
 2795              		.loc 1 727 0
 2796 06d4 1846     		mov	r0, r3
 2797 06d6 1437     		adds	r7, r7, #20
 2798              		.cfi_def_cfa_offset 12
 2799 06d8 BD46     		mov	sp, r7
 2800              		.cfi_def_cfa_register 13
 2801              		@ sp needed
 2802 06da 90BD     		pop	{r4, r7, pc}
 2803              	.L138:
 2804              		.align	2
 2805              	.L137:
 2806 06dc 00000000 		.word	QX_CommsPorts
 2807              		.cfi_endproc
 2808              	.LFE17:
 2809              		.size	QX_StreamRxCharSM, .-QX_StreamRxCharSM
 2810              		.section	.text.QX_Connection_Status_Update,"ax",%progbits
 2811              		.align	2
 2812              		.global	QX_Connection_Status_Update
 2813              		.thumb
 2814              		.thumb_func
 2815              		.type	QX_Connection_Status_Update, %function
 2816              	QX_Connection_Status_Update:
 2817              	.LFB18:
 728:QX_Protocol.c **** 
 729:QX_Protocol.c **** //----------------------------------------------------------------------------
 730:QX_Protocol.c **** // Call periodically to update lost connection status
 731:QX_Protocol.c **** void QX_Connection_Status_Update(QX_Comms_Port_e port)
 732:QX_Protocol.c **** {
 2818              		.loc 1 732 0
 2819              		.cfi_startproc
 2820              		@ args = 0, pretend = 0, frame = 8
 2821              		@ frame_needed = 1, uses_anonymous_args = 0
 2822 0000 90B5     		push	{r4, r7, lr}
 2823              		.cfi_def_cfa_offset 12
 2824              		.cfi_offset 4, -12
 2825              		.cfi_offset 7, -8
 2826              		.cfi_offset 14, -4
 2827 0002 83B0     		sub	sp, sp, #12
 2828              		.cfi_def_cfa_offset 24
ARM GAS  C:\Users\JENNEW~1\AppData\Local\Temp\ccHP0j8f.s 			page 64


 2829 0004 00AF     		add	r7, sp, #0
 2830              		.cfi_def_cfa_register 7
 2831 0006 0346     		mov	r3, r0
 2832 0008 FB71     		strb	r3, [r7, #7]
 733:QX_Protocol.c **** 	// Update Timeout Timer
 734:QX_Protocol.c **** 	QX_CommsPorts[port].Timeout_Cntr = (QX_GetTicks_ms() - QX_CommsPorts[port].last_rx_msg_time);
 2833              		.loc 1 734 0
 2834 000a FC79     		ldrb	r4, [r7, #7]	@ zero_extendqisi2
 2835 000c FFF7FEFF 		bl	QX_GetTicks_ms
 2836 0010 FB79     		ldrb	r3, [r7, #7]	@ zero_extendqisi2
 2837 0012 134A     		ldr	r2, .L142
 2838 0014 8C21     		movs	r1, #140
 2839 0016 01FB03F3 		mul	r3, r1, r3
 2840 001a 1344     		add	r3, r3, r2
 2841 001c 8833     		adds	r3, r3, #136
 2842 001e 1B68     		ldr	r3, [r3]
 2843 0020 C21A     		subs	r2, r0, r3
 2844 0022 0F49     		ldr	r1, .L142
 2845 0024 8C23     		movs	r3, #140
 2846 0026 03FB04F3 		mul	r3, r3, r4
 2847 002a 0B44     		add	r3, r3, r1
 2848 002c 7833     		adds	r3, r3, #120
 2849 002e 1A60     		str	r2, [r3]
 735:QX_Protocol.c **** 	
 736:QX_Protocol.c **** 	// Turn off connected flag if needed (turned on by successful packet RX)
 737:QX_Protocol.c **** 	if (QX_CommsPorts[port].Timeout_Cntr > QX_PORT_TIMEOUT_MSEC){
 2850              		.loc 1 737 0
 2851 0030 FB79     		ldrb	r3, [r7, #7]	@ zero_extendqisi2
 2852 0032 0B4A     		ldr	r2, .L142
 2853 0034 8C21     		movs	r1, #140
 2854 0036 01FB03F3 		mul	r3, r1, r3
 2855 003a 1344     		add	r3, r3, r2
 2856 003c 7833     		adds	r3, r3, #120
 2857 003e 1B68     		ldr	r3, [r3]
 2858 0040 B3F5FA6F 		cmp	r3, #2000
 2859 0044 08D9     		bls	.L141
 738:QX_Protocol.c **** 		QX_CommsPorts[port].Connected = 0;
 2860              		.loc 1 738 0
 2861 0046 FB79     		ldrb	r3, [r7, #7]	@ zero_extendqisi2
 2862 0048 054A     		ldr	r2, .L142
 2863 004a 8C21     		movs	r1, #140
 2864 004c 01FB03F3 		mul	r3, r1, r3
 2865 0050 1344     		add	r3, r3, r2
 2866 0052 7C33     		adds	r3, r3, #124
 2867 0054 0022     		movs	r2, #0
 2868 0056 1A70     		strb	r2, [r3]
 2869              	.L141:
 739:QX_Protocol.c **** 	}
 740:QX_Protocol.c **** }
 2870              		.loc 1 740 0
 2871 0058 00BF     		nop
 2872 005a 0C37     		adds	r7, r7, #12
 2873              		.cfi_def_cfa_offset 12
 2874 005c BD46     		mov	sp, r7
 2875              		.cfi_def_cfa_register 13
 2876              		@ sp needed
 2877 005e 90BD     		pop	{r4, r7, pc}
ARM GAS  C:\Users\JENNEW~1\AppData\Local\Temp\ccHP0j8f.s 			page 65


 2878              	.L143:
 2879              		.align	2
 2880              	.L142:
 2881 0060 00000000 		.word	QX_CommsPorts
 2882              		.cfi_endproc
 2883              	.LFE18:
 2884              		.size	QX_Connection_Status_Update, .-QX_Connection_Status_Update
 2885              		.section	.text.QX_InitTxOptions,"ax",%progbits
 2886              		.align	2
 2887              		.global	QX_InitTxOptions
 2888              		.thumb
 2889              		.thumb_func
 2890              		.type	QX_InitTxOptions, %function
 2891              	QX_InitTxOptions:
 2892              	.LFB19:
 741:QX_Protocol.c **** 
 742:QX_Protocol.c **** 
 743:QX_Protocol.c **** //----------------------------------------------------------------------------
 744:QX_Protocol.c **** // Initialize the TX Options structure for a standard message
 745:QX_Protocol.c **** void QX_InitTxOptions(QX_TxMsgOptions_t *options)
 746:QX_Protocol.c **** {
 2893              		.loc 1 746 0
 2894              		.cfi_startproc
 2895              		@ args = 0, pretend = 0, frame = 8
 2896              		@ frame_needed = 1, uses_anonymous_args = 0
 2897              		@ link register save eliminated.
 2898 0000 80B4     		push	{r7}
 2899              		.cfi_def_cfa_offset 4
 2900              		.cfi_offset 7, -4
 2901 0002 83B0     		sub	sp, sp, #12
 2902              		.cfi_def_cfa_offset 16
 2903 0004 00AF     		add	r7, sp, #0
 2904              		.cfi_def_cfa_register 7
 2905 0006 7860     		str	r0, [r7, #4]
 747:QX_Protocol.c **** 	// Keep address fields by default
 748:QX_Protocol.c **** 	options->Remove_Addr_Fields = 0;
 2906              		.loc 1 748 0
 2907 0008 7B68     		ldr	r3, [r7, #4]
 2908 000a 0022     		movs	r2, #0
 2909 000c 9A70     		strb	r2, [r3, #2]
 749:QX_Protocol.c **** 	options->Remove_Req_Fields = 0;
 2910              		.loc 1 749 0
 2911 000e 7B68     		ldr	r3, [r7, #4]
 2912 0010 0022     		movs	r2, #0
 2913 0012 DA70     		strb	r2, [r3, #3]
 750:QX_Protocol.c **** 	
 751:QX_Protocol.c **** 	// standard addresses
 752:QX_Protocol.c **** 	options->RespReq_Addr = QX_DEV_ID_BROADCAST;
 2914              		.loc 1 752 0
 2915 0014 7B68     		ldr	r3, [r7, #4]
 2916 0016 0022     		movs	r2, #0
 2917 0018 9A71     		strb	r2, [r3, #6]
 753:QX_Protocol.c **** 	options->Target_Addr = QX_DEV_ID_BROADCAST;
 2918              		.loc 1 753 0
 2919 001a 7B68     		ldr	r3, [r7, #4]
 2920 001c 0022     		movs	r2, #0
 2921 001e 1A71     		strb	r2, [r3, #4]
ARM GAS  C:\Users\JENNEW~1\AppData\Local\Temp\ccHP0j8f.s 			page 66


 754:QX_Protocol.c **** 	options->TransReq_Addr = QX_DEV_ID_BROADCAST;
 2922              		.loc 1 754 0
 2923 0020 7B68     		ldr	r3, [r7, #4]
 2924 0022 0022     		movs	r2, #0
 2925 0024 5A71     		strb	r2, [r3, #5]
 755:QX_Protocol.c **** 	
 756:QX_Protocol.c **** 	// standard flags
 757:QX_Protocol.c **** 	options->FF_Ext = 0;
 2926              		.loc 1 757 0
 2927 0026 7B68     		ldr	r3, [r7, #4]
 2928 0028 0022     		movs	r2, #0
 2929 002a 1A70     		strb	r2, [r3]
 758:QX_Protocol.c **** 	options->use_CRC32 = 0;
 2930              		.loc 1 758 0
 2931 002c 7B68     		ldr	r3, [r7, #4]
 2932 002e 0022     		movs	r2, #0
 2933 0030 5A70     		strb	r2, [r3, #1]
 759:QX_Protocol.c **** }
 2934              		.loc 1 759 0
 2935 0032 00BF     		nop
 2936 0034 0C37     		adds	r7, r7, #12
 2937              		.cfi_def_cfa_offset 4
 2938 0036 BD46     		mov	sp, r7
 2939              		.cfi_def_cfa_register 13
 2940              		@ sp needed
 2941 0038 80BC     		pop	{r7}
 2942              		.cfi_restore 7
 2943              		.cfi_def_cfa_offset 0
 2944 003a 7047     		bx	lr
 2945              		.cfi_endproc
 2946              	.LFE19:
 2947              		.size	QX_InitTxOptions, .-QX_InitTxOptions
 2948              		.section	.text.QX_SendPacket_Srv_CurVal,"ax",%progbits
 2949              		.align	2
 2950              		.global	QX_SendPacket_Srv_CurVal
 2951              		.thumb
 2952              		.thumb_func
 2953              		.type	QX_SendPacket_Srv_CurVal, %function
 2954              	QX_SendPacket_Srv_CurVal:
 2955              	.LFB20:
 760:QX_Protocol.c **** 
 761:QX_Protocol.c **** 
 762:QX_Protocol.c **** //----------------------------------------------------------------------------
 763:QX_Protocol.c **** // Full Featured Send QX Packet - For use by the Application (Not in auto response to Read/Write)
 764:QX_Protocol.c **** // This version supports all features
 765:QX_Protocol.c **** // This function builds an appropriate message structure and calls calls QX_TxMsg().
 766:QX_Protocol.c **** QX_Stat_e QX_SendPacket_Srv_CurVal(QX_Server_t *Srv_p, uint32_t Attrib, QX_Comms_Port_e CommPort, Q
 767:QX_Protocol.c **** {
 2956              		.loc 1 767 0
 2957              		.cfi_startproc
 2958              		@ args = 12, pretend = 8, frame = 136
 2959              		@ frame_needed = 1, uses_anonymous_args = 0
 2960 0000 82B0     		sub	sp, sp, #8
 2961              		.cfi_def_cfa_offset 8
 2962 0002 80B5     		push	{r7, lr}
 2963              		.cfi_def_cfa_offset 16
 2964              		.cfi_offset 7, -16
ARM GAS  C:\Users\JENNEW~1\AppData\Local\Temp\ccHP0j8f.s 			page 67


 2965              		.cfi_offset 14, -12
 2966 0004 A2B0     		sub	sp, sp, #136
 2967              		.cfi_def_cfa_offset 152
 2968 0006 00AF     		add	r7, sp, #0
 2969              		.cfi_def_cfa_register 7
 2970 0008 F860     		str	r0, [r7, #12]
 2971 000a B960     		str	r1, [r7, #8]
 2972 000c C7F89430 		str	r3, [r7, #148]
 2973 0010 1346     		mov	r3, r2
 2974 0012 FB71     		strb	r3, [r7, #7]
 768:QX_Protocol.c **** 	QX_Msg_t TxMsg;
 769:QX_Protocol.c **** 	QX_InitMsg(&TxMsg);
 2975              		.loc 1 769 0
 2976 0014 07F11403 		add	r3, r7, #20
 2977 0018 1846     		mov	r0, r3
 2978 001a FFF7FEFF 		bl	QX_InitMsg
 770:QX_Protocol.c **** 	
 771:QX_Protocol.c **** 	TxMsg.CommPort = CommPort;
 2979              		.loc 1 771 0
 2980 001e FB79     		ldrb	r3, [r7, #7]
 2981 0020 BB76     		strb	r3, [r7, #26]
 772:QX_Protocol.c **** 	TxMsg.Header.Attrib = Attrib;
 2982              		.loc 1 772 0
 2983 0022 BB68     		ldr	r3, [r7, #8]
 2984 0024 3B62     		str	r3, [r7, #32]
 773:QX_Protocol.c **** 	TxMsg.Header.Type = QX_MSG_TYPE_CURVAL;
 2985              		.loc 1 773 0
 2986 0026 0023     		movs	r3, #0
 2987 0028 87F82430 		strb	r3, [r7, #36]
 774:QX_Protocol.c **** 	TxMsg.Header.Target_Addr = options.Target_Addr;
 2988              		.loc 1 774 0
 2989 002c 97F89830 		ldrb	r3, [r7, #152]	@ zero_extendqisi2
 2990 0030 87F82D30 		strb	r3, [r7, #45]
 775:QX_Protocol.c **** 	TxMsg.Header.TransReq_Addr = options.TransReq_Addr;
 2991              		.loc 1 775 0
 2992 0034 97F89930 		ldrb	r3, [r7, #153]	@ zero_extendqisi2
 2993 0038 87F82E30 		strb	r3, [r7, #46]
 776:QX_Protocol.c **** 	TxMsg.Header.RespReq_Addr = options.RespReq_Addr;
 2994              		.loc 1 776 0
 2995 003c 97F89A30 		ldrb	r3, [r7, #154]	@ zero_extendqisi2
 2996 0040 87F82F30 		strb	r3, [r7, #47]
 777:QX_Protocol.c **** 	TxMsg.Header.Source_Addr = Srv_p->Address;
 2997              		.loc 1 777 0
 2998 0044 FB68     		ldr	r3, [r7, #12]
 2999 0046 1B78     		ldrb	r3, [r3]	@ zero_extendqisi2
 3000 0048 87F82C30 		strb	r3, [r7, #44]
 778:QX_Protocol.c **** 	TxMsg.Header.FF_Ext = options.FF_Ext;
 3001              		.loc 1 778 0
 3002 004c 97F89430 		ldrb	r3, [r7, #148]	@ zero_extendqisi2
 3003 0050 87F82730 		strb	r3, [r7, #39]
 779:QX_Protocol.c **** 	TxMsg.Header.AddCRC32 = options.use_CRC32;
 3004              		.loc 1 779 0
 3005 0054 97F89530 		ldrb	r3, [r7, #149]	@ zero_extendqisi2
 3006 0058 87F82630 		strb	r3, [r7, #38]
 780:QX_Protocol.c **** 	
 781:QX_Protocol.c **** 	QX_TxMsg_Setup(&TxMsg);
 3007              		.loc 1 781 0
ARM GAS  C:\Users\JENNEW~1\AppData\Local\Temp\ccHP0j8f.s 			page 68


 3008 005c 07F11403 		add	r3, r7, #20
 3009 0060 1846     		mov	r0, r3
 3010 0062 FFF7FEFF 		bl	QX_TxMsg_Setup
 782:QX_Protocol.c **** 	TxMsg.Parse_Type = QX_PARSE_TYPE_CURVAL_SEND;
 3011              		.loc 1 782 0
 3012 0066 0023     		movs	r3, #0
 3013 0068 3B75     		strb	r3, [r7, #20]
 783:QX_Protocol.c **** 	TxMsg.MsgBuf_p = Srv_p->Parser_CB(&TxMsg);
 3014              		.loc 1 783 0
 3015 006a FB68     		ldr	r3, [r7, #12]
 3016 006c 5B68     		ldr	r3, [r3, #4]
 3017 006e 07F11402 		add	r2, r7, #20
 3018 0072 1046     		mov	r0, r2
 3019 0074 9847     		blx	r3
 3020 0076 0346     		mov	r3, r0
 3021 0078 C7F88430 		str	r3, [r7, #132]
 784:QX_Protocol.c **** 	return QX_TxMsg_Finish(&TxMsg);
 3022              		.loc 1 784 0
 3023 007c 07F11403 		add	r3, r7, #20
 3024 0080 1846     		mov	r0, r3
 3025 0082 FFF7FEFF 		bl	QX_TxMsg_Finish
 3026 0086 0346     		mov	r3, r0
 785:QX_Protocol.c **** }
 3027              		.loc 1 785 0
 3028 0088 1846     		mov	r0, r3
 3029 008a 8837     		adds	r7, r7, #136
 3030              		.cfi_def_cfa_offset 16
 3031 008c BD46     		mov	sp, r7
 3032              		.cfi_def_cfa_register 13
 3033              		@ sp needed
 3034 008e BDE88040 		pop	{r7, lr}
 3035              		.cfi_restore 14
 3036              		.cfi_restore 7
 3037              		.cfi_def_cfa_offset 8
 3038 0092 02B0     		add	sp, sp, #8
 3039              		.cfi_def_cfa_offset 0
 3040 0094 7047     		bx	lr
 3041              		.cfi_endproc
 3042              	.LFE20:
 3043              		.size	QX_SendPacket_Srv_CurVal, .-QX_SendPacket_Srv_CurVal
 3044 0096 00BF     		.section	.text.QX_SendPacket_Cli_Read,"ax",%progbits
 3045              		.align	2
 3046              		.global	QX_SendPacket_Cli_Read
 3047              		.thumb
 3048              		.thumb_func
 3049              		.type	QX_SendPacket_Cli_Read, %function
 3050              	QX_SendPacket_Cli_Read:
 3051              	.LFB21:
 786:QX_Protocol.c **** 
 787:QX_Protocol.c **** //----------------------------------------------------------------------------
 788:QX_Protocol.c **** // Full Featured Send QX Packet - For use by the Application (Not in auto response to Read/Write)
 789:QX_Protocol.c **** // This version supports all features
 790:QX_Protocol.c **** // This function builds an appropriate message structure and calls calls QX_TxMsg().
 791:QX_Protocol.c **** QX_Stat_e QX_SendPacket_Cli_Read(QX_Client_t *Cli_p, uint32_t Attrib, QX_Comms_Port_e CommPort, QX_
 792:QX_Protocol.c **** {
 3052              		.loc 1 792 0
 3053              		.cfi_startproc
ARM GAS  C:\Users\JENNEW~1\AppData\Local\Temp\ccHP0j8f.s 			page 69


 3054              		@ args = 12, pretend = 8, frame = 136
 3055              		@ frame_needed = 1, uses_anonymous_args = 0
 3056 0000 82B0     		sub	sp, sp, #8
 3057              		.cfi_def_cfa_offset 8
 3058 0002 80B5     		push	{r7, lr}
 3059              		.cfi_def_cfa_offset 16
 3060              		.cfi_offset 7, -16
 3061              		.cfi_offset 14, -12
 3062 0004 A2B0     		sub	sp, sp, #136
 3063              		.cfi_def_cfa_offset 152
 3064 0006 00AF     		add	r7, sp, #0
 3065              		.cfi_def_cfa_register 7
 3066 0008 F860     		str	r0, [r7, #12]
 3067 000a B960     		str	r1, [r7, #8]
 3068 000c C7F89430 		str	r3, [r7, #148]
 3069 0010 1346     		mov	r3, r2
 3070 0012 FB71     		strb	r3, [r7, #7]
 793:QX_Protocol.c **** 	QX_Msg_t TxMsg;
 794:QX_Protocol.c **** 	QX_InitMsg(&TxMsg);
 3071              		.loc 1 794 0
 3072 0014 07F11403 		add	r3, r7, #20
 3073 0018 1846     		mov	r0, r3
 3074 001a FFF7FEFF 		bl	QX_InitMsg
 795:QX_Protocol.c **** 	
 796:QX_Protocol.c **** 	TxMsg.CommPort = CommPort;
 3075              		.loc 1 796 0
 3076 001e FB79     		ldrb	r3, [r7, #7]
 3077 0020 BB76     		strb	r3, [r7, #26]
 797:QX_Protocol.c **** 	TxMsg.Header.Attrib = Attrib;
 3078              		.loc 1 797 0
 3079 0022 BB68     		ldr	r3, [r7, #8]
 3080 0024 3B62     		str	r3, [r7, #32]
 798:QX_Protocol.c **** 	TxMsg.Header.Type = QX_MSG_TYPE_READ;
 3081              		.loc 1 798 0
 3082 0026 0123     		movs	r3, #1
 3083 0028 87F82430 		strb	r3, [r7, #36]
 799:QX_Protocol.c **** 	TxMsg.Header.Target_Addr = options.Target_Addr;
 3084              		.loc 1 799 0
 3085 002c 97F89830 		ldrb	r3, [r7, #152]	@ zero_extendqisi2
 3086 0030 87F82D30 		strb	r3, [r7, #45]
 800:QX_Protocol.c **** 	TxMsg.Header.TransReq_Addr = QX_DEV_ID_BROADCAST;
 3087              		.loc 1 800 0
 3088 0034 0023     		movs	r3, #0
 3089 0036 87F82E30 		strb	r3, [r7, #46]
 801:QX_Protocol.c **** 	TxMsg.Header.RespReq_Addr = options.RespReq_Addr;
 3090              		.loc 1 801 0
 3091 003a 97F89A30 		ldrb	r3, [r7, #154]	@ zero_extendqisi2
 3092 003e 87F82F30 		strb	r3, [r7, #47]
 802:QX_Protocol.c **** 	TxMsg.Header.Source_Addr = Cli_p->Address;
 3093              		.loc 1 802 0
 3094 0042 FB68     		ldr	r3, [r7, #12]
 3095 0044 1B78     		ldrb	r3, [r3]	@ zero_extendqisi2
 3096 0046 87F82C30 		strb	r3, [r7, #44]
 803:QX_Protocol.c **** 	TxMsg.Header.FF_Ext = options.FF_Ext;
 3097              		.loc 1 803 0
 3098 004a 97F89430 		ldrb	r3, [r7, #148]	@ zero_extendqisi2
 3099 004e 87F82730 		strb	r3, [r7, #39]
ARM GAS  C:\Users\JENNEW~1\AppData\Local\Temp\ccHP0j8f.s 			page 70


 804:QX_Protocol.c **** 	TxMsg.Header.AddCRC32 = options.use_CRC32;
 3100              		.loc 1 804 0
 3101 0052 97F89530 		ldrb	r3, [r7, #149]	@ zero_extendqisi2
 3102 0056 87F82630 		strb	r3, [r7, #38]
 805:QX_Protocol.c **** 	
 806:QX_Protocol.c **** 	QX_TxMsg_Setup(&TxMsg);
 3103              		.loc 1 806 0
 3104 005a 07F11403 		add	r3, r7, #20
 3105 005e 1846     		mov	r0, r3
 3106 0060 FFF7FEFF 		bl	QX_TxMsg_Setup
 807:QX_Protocol.c **** 	return QX_TxMsg_Finish(&TxMsg);	// Read Messages have no data. Finish the message right away!
 3107              		.loc 1 807 0
 3108 0064 07F11403 		add	r3, r7, #20
 3109 0068 1846     		mov	r0, r3
 3110 006a FFF7FEFF 		bl	QX_TxMsg_Finish
 3111 006e 0346     		mov	r3, r0
 808:QX_Protocol.c **** }
 3112              		.loc 1 808 0
 3113 0070 1846     		mov	r0, r3
 3114 0072 8837     		adds	r7, r7, #136
 3115              		.cfi_def_cfa_offset 16
 3116 0074 BD46     		mov	sp, r7
 3117              		.cfi_def_cfa_register 13
 3118              		@ sp needed
 3119 0076 BDE88040 		pop	{r7, lr}
 3120              		.cfi_restore 14
 3121              		.cfi_restore 7
 3122              		.cfi_def_cfa_offset 8
 3123 007a 02B0     		add	sp, sp, #8
 3124              		.cfi_def_cfa_offset 0
 3125 007c 7047     		bx	lr
 3126              		.cfi_endproc
 3127              	.LFE21:
 3128              		.size	QX_SendPacket_Cli_Read, .-QX_SendPacket_Cli_Read
 3129 007e 00BF     		.section	.text.QX_SendPacket_Cli_WriteABS,"ax",%progbits
 3130              		.align	2
 3131              		.global	QX_SendPacket_Cli_WriteABS
 3132              		.thumb
 3133              		.thumb_func
 3134              		.type	QX_SendPacket_Cli_WriteABS, %function
 3135              	QX_SendPacket_Cli_WriteABS:
 3136              	.LFB22:
 809:QX_Protocol.c **** 
 810:QX_Protocol.c **** //----------------------------------------------------------------------------
 811:QX_Protocol.c **** // Full Featured Send QX Packet - For use by the Application (Not in auto response to Read/Write)
 812:QX_Protocol.c **** // This version supports all features
 813:QX_Protocol.c **** // This function builds an appropriate message structure and calls calls QX_TxMsg().
 814:QX_Protocol.c **** QX_Stat_e QX_SendPacket_Cli_WriteABS(QX_Client_t *Cli_p, uint32_t Attrib, QX_Comms_Port_e CommPort,
 815:QX_Protocol.c **** {
 3137              		.loc 1 815 0
 3138              		.cfi_startproc
 3139              		@ args = 12, pretend = 8, frame = 136
 3140              		@ frame_needed = 1, uses_anonymous_args = 0
 3141 0000 82B0     		sub	sp, sp, #8
 3142              		.cfi_def_cfa_offset 8
 3143 0002 80B5     		push	{r7, lr}
 3144              		.cfi_def_cfa_offset 16
ARM GAS  C:\Users\JENNEW~1\AppData\Local\Temp\ccHP0j8f.s 			page 71


 3145              		.cfi_offset 7, -16
 3146              		.cfi_offset 14, -12
 3147 0004 A2B0     		sub	sp, sp, #136
 3148              		.cfi_def_cfa_offset 152
 3149 0006 00AF     		add	r7, sp, #0
 3150              		.cfi_def_cfa_register 7
 3151 0008 F860     		str	r0, [r7, #12]
 3152 000a B960     		str	r1, [r7, #8]
 3153 000c C7F89430 		str	r3, [r7, #148]
 3154 0010 1346     		mov	r3, r2
 3155 0012 FB71     		strb	r3, [r7, #7]
 816:QX_Protocol.c **** 	QX_Msg_t TxMsg;
 817:QX_Protocol.c **** 	QX_InitMsg(&TxMsg);
 3156              		.loc 1 817 0
 3157 0014 07F11403 		add	r3, r7, #20
 3158 0018 1846     		mov	r0, r3
 3159 001a FFF7FEFF 		bl	QX_InitMsg
 818:QX_Protocol.c **** 	
 819:QX_Protocol.c **** 	TxMsg.CommPort = CommPort;
 3160              		.loc 1 819 0
 3161 001e FB79     		ldrb	r3, [r7, #7]
 3162 0020 BB76     		strb	r3, [r7, #26]
 820:QX_Protocol.c **** 	TxMsg.Header.Attrib = Attrib;
 3163              		.loc 1 820 0
 3164 0022 BB68     		ldr	r3, [r7, #8]
 3165 0024 3B62     		str	r3, [r7, #32]
 821:QX_Protocol.c **** 	TxMsg.Header.Type = QX_MSG_TYPE_WRITE_ABS;
 3166              		.loc 1 821 0
 3167 0026 0223     		movs	r3, #2
 3168 0028 87F82430 		strb	r3, [r7, #36]
 822:QX_Protocol.c **** 	TxMsg.Header.Target_Addr = options.Target_Addr;
 3169              		.loc 1 822 0
 3170 002c 97F89830 		ldrb	r3, [r7, #152]	@ zero_extendqisi2
 3171 0030 87F82D30 		strb	r3, [r7, #45]
 823:QX_Protocol.c **** 	TxMsg.Header.TransReq_Addr = options.TransReq_Addr;
 3172              		.loc 1 823 0
 3173 0034 97F89930 		ldrb	r3, [r7, #153]	@ zero_extendqisi2
 3174 0038 87F82E30 		strb	r3, [r7, #46]
 824:QX_Protocol.c **** 	TxMsg.Header.RespReq_Addr = options.RespReq_Addr;
 3175              		.loc 1 824 0
 3176 003c 97F89A30 		ldrb	r3, [r7, #154]	@ zero_extendqisi2
 3177 0040 87F82F30 		strb	r3, [r7, #47]
 825:QX_Protocol.c **** 	TxMsg.Header.Source_Addr = Cli_p->Address;
 3178              		.loc 1 825 0
 3179 0044 FB68     		ldr	r3, [r7, #12]
 3180 0046 1B78     		ldrb	r3, [r3]	@ zero_extendqisi2
 3181 0048 87F82C30 		strb	r3, [r7, #44]
 826:QX_Protocol.c **** 	TxMsg.Header.FF_Ext = options.FF_Ext;
 3182              		.loc 1 826 0
 3183 004c 97F89430 		ldrb	r3, [r7, #148]	@ zero_extendqisi2
 3184 0050 87F82730 		strb	r3, [r7, #39]
 827:QX_Protocol.c **** 	TxMsg.Header.AddCRC32 = options.use_CRC32;
 3185              		.loc 1 827 0
 3186 0054 97F89530 		ldrb	r3, [r7, #149]	@ zero_extendqisi2
 3187 0058 87F82630 		strb	r3, [r7, #38]
 828:QX_Protocol.c **** 	
 829:QX_Protocol.c **** 	QX_TxMsg_Setup(&TxMsg);
ARM GAS  C:\Users\JENNEW~1\AppData\Local\Temp\ccHP0j8f.s 			page 72


 3188              		.loc 1 829 0
 3189 005c 07F11403 		add	r3, r7, #20
 3190 0060 1846     		mov	r0, r3
 3191 0062 FFF7FEFF 		bl	QX_TxMsg_Setup
 830:QX_Protocol.c **** 	TxMsg.Parse_Type = QX_PARSE_TYPE_WRITE_ABS_SEND;
 3192              		.loc 1 830 0
 3193 0066 0223     		movs	r3, #2
 3194 0068 3B75     		strb	r3, [r7, #20]
 831:QX_Protocol.c **** 	TxMsg.MsgBuf_p = Cli_p->Parser_CB(&TxMsg);
 3195              		.loc 1 831 0
 3196 006a FB68     		ldr	r3, [r7, #12]
 3197 006c 5B68     		ldr	r3, [r3, #4]
 3198 006e 07F11402 		add	r2, r7, #20
 3199 0072 1046     		mov	r0, r2
 3200 0074 9847     		blx	r3
 3201 0076 0346     		mov	r3, r0
 3202 0078 C7F88430 		str	r3, [r7, #132]
 832:QX_Protocol.c **** 	return QX_TxMsg_Finish(&TxMsg);
 3203              		.loc 1 832 0
 3204 007c 07F11403 		add	r3, r7, #20
 3205 0080 1846     		mov	r0, r3
 3206 0082 FFF7FEFF 		bl	QX_TxMsg_Finish
 3207 0086 0346     		mov	r3, r0
 833:QX_Protocol.c **** }
 3208              		.loc 1 833 0
 3209 0088 1846     		mov	r0, r3
 3210 008a 8837     		adds	r7, r7, #136
 3211              		.cfi_def_cfa_offset 16
 3212 008c BD46     		mov	sp, r7
 3213              		.cfi_def_cfa_register 13
 3214              		@ sp needed
 3215 008e BDE88040 		pop	{r7, lr}
 3216              		.cfi_restore 14
 3217              		.cfi_restore 7
 3218              		.cfi_def_cfa_offset 8
 3219 0092 02B0     		add	sp, sp, #8
 3220              		.cfi_def_cfa_offset 0
 3221 0094 7047     		bx	lr
 3222              		.cfi_endproc
 3223              	.LFE22:
 3224              		.size	QX_SendPacket_Cli_WriteABS, .-QX_SendPacket_Cli_WriteABS
 3225 0096 00BF     		.section	.text.QX_SendPacket_Cli_WriteREL,"ax",%progbits
 3226              		.align	2
 3227              		.global	QX_SendPacket_Cli_WriteREL
 3228              		.thumb
 3229              		.thumb_func
 3230              		.type	QX_SendPacket_Cli_WriteREL, %function
 3231              	QX_SendPacket_Cli_WriteREL:
 3232              	.LFB23:
 834:QX_Protocol.c **** 
 835:QX_Protocol.c **** //----------------------------------------------------------------------------
 836:QX_Protocol.c **** // Full Featured Send QX Packet - For use by the Application (Not in auto response to Read/Write)
 837:QX_Protocol.c **** // This version supports all features
 838:QX_Protocol.c **** // This function builds an appropriate message structure and calls calls QX_TxMsg().
 839:QX_Protocol.c **** QX_Stat_e QX_SendPacket_Cli_WriteREL(QX_Client_t *Cli_p, uint32_t Attrib, QX_Comms_Port_e CommPort,
 840:QX_Protocol.c **** {
 3233              		.loc 1 840 0
ARM GAS  C:\Users\JENNEW~1\AppData\Local\Temp\ccHP0j8f.s 			page 73


 3234              		.cfi_startproc
 3235              		@ args = 12, pretend = 8, frame = 136
 3236              		@ frame_needed = 1, uses_anonymous_args = 0
 3237 0000 82B0     		sub	sp, sp, #8
 3238              		.cfi_def_cfa_offset 8
 3239 0002 80B5     		push	{r7, lr}
 3240              		.cfi_def_cfa_offset 16
 3241              		.cfi_offset 7, -16
 3242              		.cfi_offset 14, -12
 3243 0004 A2B0     		sub	sp, sp, #136
 3244              		.cfi_def_cfa_offset 152
 3245 0006 00AF     		add	r7, sp, #0
 3246              		.cfi_def_cfa_register 7
 3247 0008 F860     		str	r0, [r7, #12]
 3248 000a B960     		str	r1, [r7, #8]
 3249 000c C7F89430 		str	r3, [r7, #148]
 3250 0010 1346     		mov	r3, r2
 3251 0012 FB71     		strb	r3, [r7, #7]
 841:QX_Protocol.c **** 	QX_Msg_t TxMsg;
 842:QX_Protocol.c **** 	QX_InitMsg(&TxMsg);
 3252              		.loc 1 842 0
 3253 0014 07F11403 		add	r3, r7, #20
 3254 0018 1846     		mov	r0, r3
 3255 001a FFF7FEFF 		bl	QX_InitMsg
 843:QX_Protocol.c **** 	
 844:QX_Protocol.c **** 	TxMsg.CommPort = CommPort;
 3256              		.loc 1 844 0
 3257 001e FB79     		ldrb	r3, [r7, #7]
 3258 0020 BB76     		strb	r3, [r7, #26]
 845:QX_Protocol.c **** 	TxMsg.Header.Attrib = Attrib;
 3259              		.loc 1 845 0
 3260 0022 BB68     		ldr	r3, [r7, #8]
 3261 0024 3B62     		str	r3, [r7, #32]
 846:QX_Protocol.c **** 	TxMsg.Header.Type = QX_MSG_TYPE_WRITE_REL;
 3262              		.loc 1 846 0
 3263 0026 0323     		movs	r3, #3
 3264 0028 87F82430 		strb	r3, [r7, #36]
 847:QX_Protocol.c **** 	TxMsg.Header.Target_Addr = options.Target_Addr;
 3265              		.loc 1 847 0
 3266 002c 97F89830 		ldrb	r3, [r7, #152]	@ zero_extendqisi2
 3267 0030 87F82D30 		strb	r3, [r7, #45]
 848:QX_Protocol.c **** 	TxMsg.Header.TransReq_Addr = options.TransReq_Addr;
 3268              		.loc 1 848 0
 3269 0034 97F89930 		ldrb	r3, [r7, #153]	@ zero_extendqisi2
 3270 0038 87F82E30 		strb	r3, [r7, #46]
 849:QX_Protocol.c **** 	TxMsg.Header.RespReq_Addr = options.RespReq_Addr;
 3271              		.loc 1 849 0
 3272 003c 97F89A30 		ldrb	r3, [r7, #154]	@ zero_extendqisi2
 3273 0040 87F82F30 		strb	r3, [r7, #47]
 850:QX_Protocol.c **** 	TxMsg.Header.Source_Addr = Cli_p->Address;
 3274              		.loc 1 850 0
 3275 0044 FB68     		ldr	r3, [r7, #12]
 3276 0046 1B78     		ldrb	r3, [r3]	@ zero_extendqisi2
 3277 0048 87F82C30 		strb	r3, [r7, #44]
 851:QX_Protocol.c **** 	TxMsg.Header.FF_Ext = options.FF_Ext;
 3278              		.loc 1 851 0
 3279 004c 97F89430 		ldrb	r3, [r7, #148]	@ zero_extendqisi2
ARM GAS  C:\Users\JENNEW~1\AppData\Local\Temp\ccHP0j8f.s 			page 74


 3280 0050 87F82730 		strb	r3, [r7, #39]
 852:QX_Protocol.c **** 	TxMsg.Header.AddCRC32 = options.use_CRC32;
 3281              		.loc 1 852 0
 3282 0054 97F89530 		ldrb	r3, [r7, #149]	@ zero_extendqisi2
 3283 0058 87F82630 		strb	r3, [r7, #38]
 853:QX_Protocol.c **** 	
 854:QX_Protocol.c **** 	QX_TxMsg_Setup(&TxMsg);
 3284              		.loc 1 854 0
 3285 005c 07F11403 		add	r3, r7, #20
 3286 0060 1846     		mov	r0, r3
 3287 0062 FFF7FEFF 		bl	QX_TxMsg_Setup
 855:QX_Protocol.c **** 	TxMsg.Parse_Type = QX_PARSE_TYPE_WRITE_REL_SEND;
 3288              		.loc 1 855 0
 3289 0066 0423     		movs	r3, #4
 3290 0068 3B75     		strb	r3, [r7, #20]
 856:QX_Protocol.c **** 	TxMsg.MsgBuf_p = Cli_p->Parser_CB(&TxMsg);
 3291              		.loc 1 856 0
 3292 006a FB68     		ldr	r3, [r7, #12]
 3293 006c 5B68     		ldr	r3, [r3, #4]
 3294 006e 07F11402 		add	r2, r7, #20
 3295 0072 1046     		mov	r0, r2
 3296 0074 9847     		blx	r3
 3297 0076 0346     		mov	r3, r0
 3298 0078 C7F88430 		str	r3, [r7, #132]
 857:QX_Protocol.c **** 	return QX_TxMsg_Finish(&TxMsg);
 3299              		.loc 1 857 0
 3300 007c 07F11403 		add	r3, r7, #20
 3301 0080 1846     		mov	r0, r3
 3302 0082 FFF7FEFF 		bl	QX_TxMsg_Finish
 3303 0086 0346     		mov	r3, r0
 858:QX_Protocol.c **** }
 3304              		.loc 1 858 0
 3305 0088 1846     		mov	r0, r3
 3306 008a 8837     		adds	r7, r7, #136
 3307              		.cfi_def_cfa_offset 16
 3308 008c BD46     		mov	sp, r7
 3309              		.cfi_def_cfa_register 13
 3310              		@ sp needed
 3311 008e BDE88040 		pop	{r7, lr}
 3312              		.cfi_restore 14
 3313              		.cfi_restore 7
 3314              		.cfi_def_cfa_offset 8
 3315 0092 02B0     		add	sp, sp, #8
 3316              		.cfi_def_cfa_offset 0
 3317 0094 7047     		bx	lr
 3318              		.cfi_endproc
 3319              	.LFE23:
 3320              		.size	QX_SendPacket_Cli_WriteREL, .-QX_SendPacket_Cli_WriteREL
 3321 0096 00BF     		.section	.text.QX_SendPacket_Cli_Control,"ax",%progbits
 3322              		.align	2
 3323              		.global	QX_SendPacket_Cli_Control
 3324              		.thumb
 3325              		.thumb_func
 3326              		.type	QX_SendPacket_Cli_Control, %function
 3327              	QX_SendPacket_Cli_Control:
 3328              	.LFB24:
 859:QX_Protocol.c **** 
ARM GAS  C:\Users\JENNEW~1\AppData\Local\Temp\ccHP0j8f.s 			page 75


 860:QX_Protocol.c **** //----------------------------------------------------------------------------
 861:QX_Protocol.c **** // Send QX Packet with TRID and RRID for control.
 862:QX_Protocol.c **** // This version supports all features
 863:QX_Protocol.c **** // This function builds an appropriate message structure and calls calls QX_TxMsg().
 864:QX_Protocol.c **** QX_Stat_e QX_SendPacket_Cli_Control(QX_Client_t *Cli_p, uint32_t Attrib, QX_Comms_Port_e CommPort, 
 865:QX_Protocol.c **** {	
 3329              		.loc 1 865 0
 3330              		.cfi_startproc
 3331              		@ args = 12, pretend = 8, frame = 16
 3332              		@ frame_needed = 1, uses_anonymous_args = 0
 3333 0000 82B0     		sub	sp, sp, #8
 3334              		.cfi_def_cfa_offset 8
 3335 0002 80B5     		push	{r7, lr}
 3336              		.cfi_def_cfa_offset 16
 3337              		.cfi_offset 7, -16
 3338              		.cfi_offset 14, -12
 3339 0004 86B0     		sub	sp, sp, #24
 3340              		.cfi_def_cfa_offset 40
 3341 0006 02AF     		add	r7, sp, #8
 3342              		.cfi_def_cfa 7, 32
 3343 0008 F860     		str	r0, [r7, #12]
 3344 000a B960     		str	r1, [r7, #8]
 3345 000c FB61     		str	r3, [r7, #28]
 3346 000e 1346     		mov	r3, r2
 3347 0010 FB71     		strb	r3, [r7, #7]
 866:QX_Protocol.c **** 	return QX_SendPacket_Cli_WriteABS(Cli_p, Attrib, CommPort, options);
 3348              		.loc 1 866 0
 3349 0012 F979     		ldrb	r1, [r7, #7]	@ zero_extendqisi2
 3350 0014 6B46     		mov	r3, sp
 3351 0016 07F12002 		add	r2, r7, #32
 3352 001a 1268     		ldr	r2, [r2]
 3353 001c 1046     		mov	r0, r2	@ movhi
 3354 001e 1880     		strh	r0, [r3]	@ movhi
 3355 0020 0233     		adds	r3, r3, #2
 3356 0022 120C     		lsrs	r2, r2, #16
 3357 0024 1A70     		strb	r2, [r3]
 3358 0026 FB69     		ldr	r3, [r7, #28]
 3359 0028 0A46     		mov	r2, r1
 3360 002a B968     		ldr	r1, [r7, #8]
 3361 002c F868     		ldr	r0, [r7, #12]
 3362 002e FFF7FEFF 		bl	QX_SendPacket_Cli_WriteABS
 3363 0032 0346     		mov	r3, r0
 867:QX_Protocol.c **** }
 3364              		.loc 1 867 0
 3365 0034 1846     		mov	r0, r3
 3366 0036 1037     		adds	r7, r7, #16
 3367              		.cfi_def_cfa_offset 16
 3368 0038 BD46     		mov	sp, r7
 3369              		.cfi_def_cfa_register 13
 3370              		@ sp needed
 3371 003a BDE88040 		pop	{r7, lr}
 3372              		.cfi_restore 14
 3373              		.cfi_restore 7
 3374              		.cfi_def_cfa_offset 8
 3375 003e 02B0     		add	sp, sp, #8
 3376              		.cfi_def_cfa_offset 0
 3377 0040 7047     		bx	lr
ARM GAS  C:\Users\JENNEW~1\AppData\Local\Temp\ccHP0j8f.s 			page 76


 3378              		.cfi_endproc
 3379              	.LFE24:
 3380              		.size	QX_SendPacket_Cli_Control, .-QX_SendPacket_Cli_Control
 3381 0042 00BF     		.text
 3382              	.Letext0:
 3383              		.file 2 "c:\\program files (x86)\\cypress\\psoc creator\\4.4\\psoc creator\\import\\gnu\\arm\\5.4.
 3384              		.file 3 "c:\\program files (x86)\\cypress\\psoc creator\\4.4\\psoc creator\\import\\gnu\\arm\\5.4.
 3385              		.file 4 "QX_App_Config.h"
 3386              		.file 5 "QX_Protocol.h"