ARM GAS  C:\Users\JENNEW~1\AppData\Local\Temp\cce2sJFM.s 			page 1


   1              		.syntax unified
   2              		.cpu cortex-m3
   3              		.fpu softvfp
   4              		.eabi_attribute 20, 1
   5              		.eabi_attribute 21, 1
   6              		.eabi_attribute 23, 3
   7              		.eabi_attribute 24, 1
   8              		.eabi_attribute 25, 1
   9              		.eabi_attribute 26, 1
  10              		.eabi_attribute 30, 6
  11              		.eabi_attribute 34, 1
  12              		.eabi_attribute 18, 4
  13              		.thumb
  14              		.syntax unified
  15              		.file	"QX_Parsing_Functions.c"
  16              		.text
  17              	.Ltext0:
  18              		.cfi_sections	.debug_frame
  19              		.comm	msgPtr,4,4
  20              		.comm	rw,1,1
  21              		.comm	rw_orig,1,1
  22              		.comm	get_uint16_t,2,2
  23              		.section	.text.QX_Parser_SetMsgPtr,"ax",%progbits
  24              		.align	2
  25              		.global	QX_Parser_SetMsgPtr
  26              		.thumb
  27              		.thumb_func
  28              		.type	QX_Parser_SetMsgPtr, %function
  29              	QX_Parser_SetMsgPtr:
  30              	.LFB0:
  31              		.file 1 "QX_Parsing_Functions.c"
   1:QX_Parsing_Functions.c **** /*-----------------------------------------------------------------
   2:QX_Parsing_Functions.c **** 	Copyright 2017 Freefly Systems
   3:QX_Parsing_Functions.c **** 
   4:QX_Parsing_Functions.c **** 	Licensed under the Apache License, Version 2.0 (the "License");
   5:QX_Parsing_Functions.c **** 	you may not use this file except in compliance with the License.
   6:QX_Parsing_Functions.c **** 	You may obtain a copy of the License at
   7:QX_Parsing_Functions.c **** 
   8:QX_Parsing_Functions.c **** 		http://www.apache.org/licenses/LICENSE-2.0
   9:QX_Parsing_Functions.c **** 
  10:QX_Parsing_Functions.c **** 	Unless required by applicable law or agreed to in writing, software
  11:QX_Parsing_Functions.c **** 	distributed under the License is distributed on an "AS IS" BASIS,
  12:QX_Parsing_Functions.c **** 	WITHOUT WARRANTIES OR CONDITIONS OF ANY KIND, either express or implied.
  13:QX_Parsing_Functions.c **** 	See the License for the specific language governing permissions and
  14:QX_Parsing_Functions.c **** 	limitations under the License.
  15:QX_Parsing_Functions.c **** 		
  16:QX_Parsing_Functions.c ****     Filename: "QX_Parsing_Functions.c"
  17:QX_Parsing_Functions.c **** -----------------------------------------------------------------*/
  18:QX_Parsing_Functions.c **** 
  19:QX_Parsing_Functions.c **** //****************************************************************************
  20:QX_Parsing_Functions.c **** // Headers
  21:QX_Parsing_Functions.c **** //****************************************************************************
  22:QX_Parsing_Functions.c **** #include "QX_Parsing_Functions.h"
  23:QX_Parsing_Functions.c **** #include <stdlib.h>		// for Standard Data Types
  24:QX_Parsing_Functions.c **** #include <stdint.h>		// for Standard Data Types
  25:QX_Parsing_Functions.c **** #include <math.h>
  26:QX_Parsing_Functions.c **** 
ARM GAS  C:\Users\JENNEW~1\AppData\Local\Temp\cce2sJFM.s 			page 2


  27:QX_Parsing_Functions.c **** //****************************************************************************
  28:QX_Parsing_Functions.c **** // Private Global Vars
  29:QX_Parsing_Functions.c **** //****************************************************************************
  30:QX_Parsing_Functions.c **** volatile uint8_t *msgPtr;
  31:QX_Parsing_Functions.c **** QB_Parser_Dir_e rw;
  32:QX_Parsing_Functions.c **** QB_Parser_Dir_e rw_orig;
  33:QX_Parsing_Functions.c **** 
  34:QX_Parsing_Functions.c **** uint16_t get_uint16_t;
  35:QX_Parsing_Functions.c **** 
  36:QX_Parsing_Functions.c **** //****************************************************************************
  37:QX_Parsing_Functions.c **** // Private Defines
  38:QX_Parsing_Functions.c **** //****************************************************************************
  39:QX_Parsing_Functions.c **** 
  40:QX_Parsing_Functions.c **** // Bit Masks
  41:QX_Parsing_Functions.c **** #define BITFIELD_MASK_1                    0x01
  42:QX_Parsing_Functions.c **** #define BITFIELD_MASK_2                    0x03
  43:QX_Parsing_Functions.c **** #define BITFIELD_MASK_3                    0x07
  44:QX_Parsing_Functions.c **** #define BITFIELD_MASK_4                    0x0F
  45:QX_Parsing_Functions.c **** #define BITFIELD_MASK_5                    0x1F
  46:QX_Parsing_Functions.c **** #define BITFIELD_MASK_6                    0x3F
  47:QX_Parsing_Functions.c **** #define BITFIELD_MASK_7                    0x7F
  48:QX_Parsing_Functions.c **** #define BITFIELD_MASK_8                    0xFF
  49:QX_Parsing_Functions.c **** 
  50:QX_Parsing_Functions.c **** // Parser Macros
  51:QX_Parsing_Functions.c **** #define ADDSL(v) { *msgPtr++ = (uint8_t)(v >> 24); *msgPtr++ = (uint8_t)(v >> 16); *msgPtr++ = (uin
  52:QX_Parsing_Functions.c **** #define ADDSS(v) { *msgPtr++ = (uint8_t)(v >> 8); *msgPtr++ = (uint8_t)(v); }
  53:QX_Parsing_Functions.c **** #define ADDUS(v) { *msgPtr++ = (uint8_t)(v >> 8); *msgPtr++ = (uint8_t)(v); }
  54:QX_Parsing_Functions.c **** #define ADDCHAR(v) { *msgPtr++ = (uint8_t)(v); }
  55:QX_Parsing_Functions.c **** 
  56:QX_Parsing_Functions.c **** #define GETUC ((uint8_t)*msgPtr++)
  57:QX_Parsing_Functions.c **** #define GETSC ((int8_t)*msgPtr++)
  58:QX_Parsing_Functions.c **** #define GETSS ((int16_t)((*msgPtr) << 8) | (int16_t)((*(msgPtr + 1)))); msgPtr += 2;
  59:QX_Parsing_Functions.c **** #define GETUS ((uint16_t)((*msgPtr) << 8) | (uint16_t)((*(msgPtr + 1)))); msgPtr += 2;
  60:QX_Parsing_Functions.c **** #define GETSL ((int32_t)((*msgPtr) << 24) | (int32_t)((*(msgPtr + 1)) << 16) | (int32_t)((*(msgPtr 
  61:QX_Parsing_Functions.c **** 
  62:QX_Parsing_Functions.c **** 
  63:QX_Parsing_Functions.c **** //****************************************************************************
  64:QX_Parsing_Functions.c **** // Public Function Definitions
  65:QX_Parsing_Functions.c **** //****************************************************************************
  66:QX_Parsing_Functions.c **** 
  67:QX_Parsing_Functions.c **** // Set the Parser Message Pointer. 
  68:QX_Parsing_Functions.c **** // This function is used prior to the first parsing function calls, then the parsing functions incr
  69:QX_Parsing_Functions.c **** void QX_Parser_SetMsgPtr(uint8_t *p){
  32              		.loc 1 69 0
  33              		.cfi_startproc
  34              		@ args = 0, pretend = 0, frame = 8
  35              		@ frame_needed = 1, uses_anonymous_args = 0
  36              		@ link register save eliminated.
  37 0000 80B4     		push	{r7}
  38              		.cfi_def_cfa_offset 4
  39              		.cfi_offset 7, -4
  40 0002 83B0     		sub	sp, sp, #12
  41              		.cfi_def_cfa_offset 16
  42 0004 00AF     		add	r7, sp, #0
  43              		.cfi_def_cfa_register 7
  44 0006 7860     		str	r0, [r7, #4]
  70:QX_Parsing_Functions.c **** 	msgPtr = p;
ARM GAS  C:\Users\JENNEW~1\AppData\Local\Temp\cce2sJFM.s 			page 3


  45              		.loc 1 70 0
  46 0008 034A     		ldr	r2, .L2
  47 000a 7B68     		ldr	r3, [r7, #4]
  48 000c 1360     		str	r3, [r2]
  71:QX_Parsing_Functions.c **** }
  49              		.loc 1 71 0
  50 000e 00BF     		nop
  51 0010 0C37     		adds	r7, r7, #12
  52              		.cfi_def_cfa_offset 4
  53 0012 BD46     		mov	sp, r7
  54              		.cfi_def_cfa_register 13
  55              		@ sp needed
  56 0014 80BC     		pop	{r7}
  57              		.cfi_restore 7
  58              		.cfi_def_cfa_offset 0
  59 0016 7047     		bx	lr
  60              	.L3:
  61              		.align	2
  62              	.L2:
  63 0018 00000000 		.word	msgPtr
  64              		.cfi_endproc
  65              	.LFE0:
  66              		.size	QX_Parser_SetMsgPtr, .-QX_Parser_SetMsgPtr
  67              		.section	.text.QX_Parser_AdvMsgPtr,"ax",%progbits
  68              		.align	2
  69              		.global	QX_Parser_AdvMsgPtr
  70              		.thumb
  71              		.thumb_func
  72              		.type	QX_Parser_AdvMsgPtr, %function
  73              	QX_Parser_AdvMsgPtr:
  74              	.LFB1:
  72:QX_Parsing_Functions.c **** 
  73:QX_Parsing_Functions.c **** // Move the pointer by one byte (useful for bitfield parser functions that do not advance the point
  74:QX_Parsing_Functions.c **** void QX_Parser_AdvMsgPtr(void){
  75              		.loc 1 74 0
  76              		.cfi_startproc
  77              		@ args = 0, pretend = 0, frame = 0
  78              		@ frame_needed = 1, uses_anonymous_args = 0
  79              		@ link register save eliminated.
  80 0000 80B4     		push	{r7}
  81              		.cfi_def_cfa_offset 4
  82              		.cfi_offset 7, -4
  83 0002 00AF     		add	r7, sp, #0
  84              		.cfi_def_cfa_register 7
  75:QX_Parsing_Functions.c **** 	msgPtr++;
  85              		.loc 1 75 0
  86 0004 044B     		ldr	r3, .L5
  87 0006 1B68     		ldr	r3, [r3]
  88 0008 0133     		adds	r3, r3, #1
  89 000a 034A     		ldr	r2, .L5
  90 000c 1360     		str	r3, [r2]
  76:QX_Parsing_Functions.c **** }
  91              		.loc 1 76 0
  92 000e 00BF     		nop
  93 0010 BD46     		mov	sp, r7
  94              		.cfi_def_cfa_register 13
  95              		@ sp needed
ARM GAS  C:\Users\JENNEW~1\AppData\Local\Temp\cce2sJFM.s 			page 4


  96 0012 80BC     		pop	{r7}
  97              		.cfi_restore 7
  98              		.cfi_def_cfa_offset 0
  99 0014 7047     		bx	lr
 100              	.L6:
 101 0016 00BF     		.align	2
 102              	.L5:
 103 0018 00000000 		.word	msgPtr
 104              		.cfi_endproc
 105              	.LFE1:
 106              		.size	QX_Parser_AdvMsgPtr, .-QX_Parser_AdvMsgPtr
 107              		.section	.text.QX_Parser_GetMsgPtr,"ax",%progbits
 108              		.align	2
 109              		.global	QX_Parser_GetMsgPtr
 110              		.thumb
 111              		.thumb_func
 112              		.type	QX_Parser_GetMsgPtr, %function
 113              	QX_Parser_GetMsgPtr:
 114              	.LFB2:
  77:QX_Parsing_Functions.c **** 
  78:QX_Parsing_Functions.c **** // Gets the Parser Pointer
  79:QX_Parsing_Functions.c **** volatile uint8_t *QX_Parser_GetMsgPtr(void){
 115              		.loc 1 79 0
 116              		.cfi_startproc
 117              		@ args = 0, pretend = 0, frame = 0
 118              		@ frame_needed = 1, uses_anonymous_args = 0
 119              		@ link register save eliminated.
 120 0000 80B4     		push	{r7}
 121              		.cfi_def_cfa_offset 4
 122              		.cfi_offset 7, -4
 123 0002 00AF     		add	r7, sp, #0
 124              		.cfi_def_cfa_register 7
  80:QX_Parsing_Functions.c **** 	return msgPtr;
 125              		.loc 1 80 0
 126 0004 024B     		ldr	r3, .L9
 127 0006 1B68     		ldr	r3, [r3]
  81:QX_Parsing_Functions.c **** }
 128              		.loc 1 81 0
 129 0008 1846     		mov	r0, r3
 130 000a BD46     		mov	sp, r7
 131              		.cfi_def_cfa_register 13
 132              		@ sp needed
 133 000c 80BC     		pop	{r7}
 134              		.cfi_restore 7
 135              		.cfi_def_cfa_offset 0
 136 000e 7047     		bx	lr
 137              	.L10:
 138              		.align	2
 139              	.L9:
 140 0010 00000000 		.word	msgPtr
 141              		.cfi_endproc
 142              	.LFE2:
 143              		.size	QX_Parser_GetMsgPtr, .-QX_Parser_GetMsgPtr
 144              		.section	.text.QX_Parser_SetDir_Read,"ax",%progbits
 145              		.align	2
 146              		.global	QX_Parser_SetDir_Read
 147              		.thumb
ARM GAS  C:\Users\JENNEW~1\AppData\Local\Temp\cce2sJFM.s 			page 5


 148              		.thumb_func
 149              		.type	QX_Parser_SetDir_Read, %function
 150              	QX_Parser_SetDir_Read:
 151              	.LFB3:
  82:QX_Parsing_Functions.c **** 
  83:QX_Parsing_Functions.c **** // Sets the Parser to Read
  84:QX_Parsing_Functions.c **** void QX_Parser_SetDir_Read(void){
 152              		.loc 1 84 0
 153              		.cfi_startproc
 154              		@ args = 0, pretend = 0, frame = 0
 155              		@ frame_needed = 1, uses_anonymous_args = 0
 156              		@ link register save eliminated.
 157 0000 80B4     		push	{r7}
 158              		.cfi_def_cfa_offset 4
 159              		.cfi_offset 7, -4
 160 0002 00AF     		add	r7, sp, #0
 161              		.cfi_def_cfa_register 7
  85:QX_Parsing_Functions.c **** 	rw = QB_Parser_Dir_Read;
 162              		.loc 1 85 0
 163 0004 034B     		ldr	r3, .L12
 164 0006 0022     		movs	r2, #0
 165 0008 1A70     		strb	r2, [r3]
  86:QX_Parsing_Functions.c **** }
 166              		.loc 1 86 0
 167 000a 00BF     		nop
 168 000c BD46     		mov	sp, r7
 169              		.cfi_def_cfa_register 13
 170              		@ sp needed
 171 000e 80BC     		pop	{r7}
 172              		.cfi_restore 7
 173              		.cfi_def_cfa_offset 0
 174 0010 7047     		bx	lr
 175              	.L13:
 176 0012 00BF     		.align	2
 177              	.L12:
 178 0014 00000000 		.word	rw
 179              		.cfi_endproc
 180              	.LFE3:
 181              		.size	QX_Parser_SetDir_Read, .-QX_Parser_SetDir_Read
 182              		.section	.text.QX_Parser_SetDir_WriteRel,"ax",%progbits
 183              		.align	2
 184              		.global	QX_Parser_SetDir_WriteRel
 185              		.thumb
 186              		.thumb_func
 187              		.type	QX_Parser_SetDir_WriteRel, %function
 188              	QX_Parser_SetDir_WriteRel:
 189              	.LFB4:
  87:QX_Parsing_Functions.c **** 
  88:QX_Parsing_Functions.c **** // Sets the Parser to Delta Write
  89:QX_Parsing_Functions.c **** void QX_Parser_SetDir_WriteRel(void){
 190              		.loc 1 89 0
 191              		.cfi_startproc
 192              		@ args = 0, pretend = 0, frame = 0
 193              		@ frame_needed = 1, uses_anonymous_args = 0
 194              		@ link register save eliminated.
 195 0000 80B4     		push	{r7}
 196              		.cfi_def_cfa_offset 4
ARM GAS  C:\Users\JENNEW~1\AppData\Local\Temp\cce2sJFM.s 			page 6


 197              		.cfi_offset 7, -4
 198 0002 00AF     		add	r7, sp, #0
 199              		.cfi_def_cfa_register 7
  90:QX_Parsing_Functions.c **** 	rw = QB_Parser_Dir_WriteDel;
 200              		.loc 1 90 0
 201 0004 034B     		ldr	r3, .L15
 202 0006 0122     		movs	r2, #1
 203 0008 1A70     		strb	r2, [r3]
  91:QX_Parsing_Functions.c **** }
 204              		.loc 1 91 0
 205 000a 00BF     		nop
 206 000c BD46     		mov	sp, r7
 207              		.cfi_def_cfa_register 13
 208              		@ sp needed
 209 000e 80BC     		pop	{r7}
 210              		.cfi_restore 7
 211              		.cfi_def_cfa_offset 0
 212 0010 7047     		bx	lr
 213              	.L16:
 214 0012 00BF     		.align	2
 215              	.L15:
 216 0014 00000000 		.word	rw
 217              		.cfi_endproc
 218              	.LFE4:
 219              		.size	QX_Parser_SetDir_WriteRel, .-QX_Parser_SetDir_WriteRel
 220              		.section	.text.QX_Parser_SetDir_WriteAbs,"ax",%progbits
 221              		.align	2
 222              		.global	QX_Parser_SetDir_WriteAbs
 223              		.thumb
 224              		.thumb_func
 225              		.type	QX_Parser_SetDir_WriteAbs, %function
 226              	QX_Parser_SetDir_WriteAbs:
 227              	.LFB5:
  92:QX_Parsing_Functions.c **** 
  93:QX_Parsing_Functions.c **** // Sets the Parser to Absolute Write
  94:QX_Parsing_Functions.c **** void QX_Parser_SetDir_WriteAbs(void){
 228              		.loc 1 94 0
 229              		.cfi_startproc
 230              		@ args = 0, pretend = 0, frame = 0
 231              		@ frame_needed = 1, uses_anonymous_args = 0
 232              		@ link register save eliminated.
 233 0000 80B4     		push	{r7}
 234              		.cfi_def_cfa_offset 4
 235              		.cfi_offset 7, -4
 236 0002 00AF     		add	r7, sp, #0
 237              		.cfi_def_cfa_register 7
  95:QX_Parsing_Functions.c **** 	rw = QB_Parser_Dir_WriteAbs;
 238              		.loc 1 95 0
 239 0004 034B     		ldr	r3, .L18
 240 0006 0222     		movs	r2, #2
 241 0008 1A70     		strb	r2, [r3]
  96:QX_Parsing_Functions.c **** }
 242              		.loc 1 96 0
 243 000a 00BF     		nop
 244 000c BD46     		mov	sp, r7
 245              		.cfi_def_cfa_register 13
 246              		@ sp needed
ARM GAS  C:\Users\JENNEW~1\AppData\Local\Temp\cce2sJFM.s 			page 7


 247 000e 80BC     		pop	{r7}
 248              		.cfi_restore 7
 249              		.cfi_def_cfa_offset 0
 250 0010 7047     		bx	lr
 251              	.L19:
 252 0012 00BF     		.align	2
 253              	.L18:
 254 0014 00000000 		.word	rw
 255              		.cfi_endproc
 256              	.LFE5:
 257              		.size	QX_Parser_SetDir_WriteAbs, .-QX_Parser_SetDir_WriteAbs
 258              		.section	.text.QX_Parser_GetDir,"ax",%progbits
 259              		.align	2
 260              		.global	QX_Parser_GetDir
 261              		.thumb
 262              		.thumb_func
 263              		.type	QX_Parser_GetDir, %function
 264              	QX_Parser_GetDir:
 265              	.LFB6:
  97:QX_Parsing_Functions.c **** 
  98:QX_Parsing_Functions.c **** // Get the parsing type
  99:QX_Parsing_Functions.c **** QB_Parser_Dir_e QX_Parser_GetDir(void){
 266              		.loc 1 99 0
 267              		.cfi_startproc
 268              		@ args = 0, pretend = 0, frame = 0
 269              		@ frame_needed = 1, uses_anonymous_args = 0
 270              		@ link register save eliminated.
 271 0000 80B4     		push	{r7}
 272              		.cfi_def_cfa_offset 4
 273              		.cfi_offset 7, -4
 274 0002 00AF     		add	r7, sp, #0
 275              		.cfi_def_cfa_register 7
 100:QX_Parsing_Functions.c **** 	return rw;
 276              		.loc 1 100 0
 277 0004 024B     		ldr	r3, .L22
 278 0006 1B78     		ldrb	r3, [r3]	@ zero_extendqisi2
 101:QX_Parsing_Functions.c **** }
 279              		.loc 1 101 0
 280 0008 1846     		mov	r0, r3
 281 000a BD46     		mov	sp, r7
 282              		.cfi_def_cfa_register 13
 283              		@ sp needed
 284 000c 80BC     		pop	{r7}
 285              		.cfi_restore 7
 286              		.cfi_def_cfa_offset 0
 287 000e 7047     		bx	lr
 288              	.L23:
 289              		.align	2
 290              	.L22:
 291 0010 00000000 		.word	rw
 292              		.cfi_endproc
 293              	.LFE6:
 294              		.size	QX_Parser_GetDir, .-QX_Parser_GetDir
 295              		.section	.text.QX_Parser_Dir_ForceWriteAbs_Set,"ax",%progbits
 296              		.align	2
 297              		.global	QX_Parser_Dir_ForceWriteAbs_Set
 298              		.thumb
ARM GAS  C:\Users\JENNEW~1\AppData\Local\Temp\cce2sJFM.s 			page 8


 299              		.thumb_func
 300              		.type	QX_Parser_Dir_ForceWriteAbs_Set, %function
 301              	QX_Parser_Dir_ForceWriteAbs_Set:
 302              	.LFB7:
 102:QX_Parsing_Functions.c **** 
 103:QX_Parsing_Functions.c **** // If write, temporarily force the parsing to be absolute, for attributes that have some absolute o
 104:QX_Parsing_Functions.c **** void QX_Parser_Dir_ForceWriteAbs_Set(void){
 303              		.loc 1 104 0
 304              		.cfi_startproc
 305              		@ args = 0, pretend = 0, frame = 0
 306              		@ frame_needed = 1, uses_anonymous_args = 0
 307              		@ link register save eliminated.
 308 0000 80B4     		push	{r7}
 309              		.cfi_def_cfa_offset 4
 310              		.cfi_offset 7, -4
 311 0002 00AF     		add	r7, sp, #0
 312              		.cfi_def_cfa_register 7
 105:QX_Parsing_Functions.c **** 	rw_orig = rw;
 313              		.loc 1 105 0
 314 0004 074B     		ldr	r3, .L27
 315 0006 1A78     		ldrb	r2, [r3]	@ zero_extendqisi2
 316 0008 074B     		ldr	r3, .L27+4
 317 000a 1A70     		strb	r2, [r3]
 106:QX_Parsing_Functions.c **** 	if (rw == QB_Parser_Dir_WriteDel){
 318              		.loc 1 106 0
 319 000c 054B     		ldr	r3, .L27
 320 000e 1B78     		ldrb	r3, [r3]	@ zero_extendqisi2
 321 0010 012B     		cmp	r3, #1
 322 0012 02D1     		bne	.L26
 107:QX_Parsing_Functions.c **** 		rw = QB_Parser_Dir_WriteAbs;
 323              		.loc 1 107 0
 324 0014 034B     		ldr	r3, .L27
 325 0016 0222     		movs	r2, #2
 326 0018 1A70     		strb	r2, [r3]
 327              	.L26:
 108:QX_Parsing_Functions.c **** 	}
 109:QX_Parsing_Functions.c **** }
 328              		.loc 1 109 0
 329 001a 00BF     		nop
 330 001c BD46     		mov	sp, r7
 331              		.cfi_def_cfa_register 13
 332              		@ sp needed
 333 001e 80BC     		pop	{r7}
 334              		.cfi_restore 7
 335              		.cfi_def_cfa_offset 0
 336 0020 7047     		bx	lr
 337              	.L28:
 338 0022 00BF     		.align	2
 339              	.L27:
 340 0024 00000000 		.word	rw
 341 0028 00000000 		.word	rw_orig
 342              		.cfi_endproc
 343              	.LFE7:
 344              		.size	QX_Parser_Dir_ForceWriteAbs_Set, .-QX_Parser_Dir_ForceWriteAbs_Set
 345              		.section	.text.QX_Parser_Dir_ForceWriteAbs_Reset,"ax",%progbits
 346              		.align	2
 347              		.global	QX_Parser_Dir_ForceWriteAbs_Reset
ARM GAS  C:\Users\JENNEW~1\AppData\Local\Temp\cce2sJFM.s 			page 9


 348              		.thumb
 349              		.thumb_func
 350              		.type	QX_Parser_Dir_ForceWriteAbs_Reset, %function
 351              	QX_Parser_Dir_ForceWriteAbs_Reset:
 352              	.LFB8:
 110:QX_Parsing_Functions.c **** 
 111:QX_Parsing_Functions.c **** // Reset temporary absolute parser forcing
 112:QX_Parsing_Functions.c **** void QX_Parser_Dir_ForceWriteAbs_Reset(void){
 353              		.loc 1 112 0
 354              		.cfi_startproc
 355              		@ args = 0, pretend = 0, frame = 0
 356              		@ frame_needed = 1, uses_anonymous_args = 0
 357              		@ link register save eliminated.
 358 0000 80B4     		push	{r7}
 359              		.cfi_def_cfa_offset 4
 360              		.cfi_offset 7, -4
 361 0002 00AF     		add	r7, sp, #0
 362              		.cfi_def_cfa_register 7
 113:QX_Parsing_Functions.c **** 	rw = rw_orig;
 363              		.loc 1 113 0
 364 0004 034B     		ldr	r3, .L30
 365 0006 1A78     		ldrb	r2, [r3]	@ zero_extendqisi2
 366 0008 034B     		ldr	r3, .L30+4
 367 000a 1A70     		strb	r2, [r3]
 114:QX_Parsing_Functions.c **** }
 368              		.loc 1 114 0
 369 000c 00BF     		nop
 370 000e BD46     		mov	sp, r7
 371              		.cfi_def_cfa_register 13
 372              		@ sp needed
 373 0010 80BC     		pop	{r7}
 374              		.cfi_restore 7
 375              		.cfi_def_cfa_offset 0
 376 0012 7047     		bx	lr
 377              	.L31:
 378              		.align	2
 379              	.L30:
 380 0014 00000000 		.word	rw_orig
 381 0018 00000000 		.word	rw
 382              		.cfi_endproc
 383              	.LFE8:
 384              		.size	QX_Parser_Dir_ForceWriteAbs_Reset, .-QX_Parser_Dir_ForceWriteAbs_Reset
 385              		.global	__aeabi_fmul
 386              		.global	__aeabi_fcmpgt
 387              		.global	__aeabi_fcmplt
 388              		.global	__aeabi_i2f
 389              		.global	__aeabi_fadd
 390              		.global	__aeabi_f2iz
 391              		.section	.text.AddFloatAsSignedLong,"ax",%progbits
 392              		.align	2
 393              		.global	AddFloatAsSignedLong
 394              		.thumb
 395              		.thumb_func
 396              		.type	AddFloatAsSignedLong, %function
 397              	AddFloatAsSignedLong:
 398              	.LFB9:
 115:QX_Parsing_Functions.c **** 
ARM GAS  C:\Users\JENNEW~1\AppData\Local\Temp\cce2sJFM.s 			page 10


 116:QX_Parsing_Functions.c **** //****************************************************************************
 117:QX_Parsing_Functions.c **** // Private Function Definitions
 118:QX_Parsing_Functions.c **** //****************************************************************************
 119:QX_Parsing_Functions.c **** 
 120:QX_Parsing_Functions.c **** void AddFloatAsSignedLong(float *v, uint32_t n, float scaleto)
 121:QX_Parsing_Functions.c **** {
 399              		.loc 1 121 0
 400              		.cfi_startproc
 401              		@ args = 0, pretend = 0, frame = 24
 402              		@ frame_needed = 1, uses_anonymous_args = 0
 403 0000 F0B5     		push	{r4, r5, r6, r7, lr}
 404              		.cfi_def_cfa_offset 20
 405              		.cfi_offset 4, -20
 406              		.cfi_offset 5, -16
 407              		.cfi_offset 6, -12
 408              		.cfi_offset 7, -8
 409              		.cfi_offset 14, -4
 410 0002 87B0     		sub	sp, sp, #28
 411              		.cfi_def_cfa_offset 48
 412 0004 00AF     		add	r7, sp, #0
 413              		.cfi_def_cfa_register 7
 414 0006 F860     		str	r0, [r7, #12]
 415 0008 B960     		str	r1, [r7, #8]
 416 000a 7A60     		str	r2, [r7, #4]	@ float
 122:QX_Parsing_Functions.c ****     while(n--)
 417              		.loc 1 122 0
 418 000c 61E0     		b	.L33
 419              	.L36:
 420              	.LBB2:
 123:QX_Parsing_Functions.c ****     {
 124:QX_Parsing_Functions.c ****         int32_t value = (int32_t)(((*v) * scaleto) + 0.5f * ((0 < *v) - (*v < 0)));
 421              		.loc 1 124 0
 422 000e FB68     		ldr	r3, [r7, #12]
 423 0010 1B68     		ldr	r3, [r3]	@ float
 424 0012 7968     		ldr	r1, [r7, #4]	@ float
 425 0014 1846     		mov	r0, r3
 426 0016 FFF7FEFF 		bl	__aeabi_fmul
 427 001a 0346     		mov	r3, r0
 428 001c 1E46     		mov	r6, r3
 429 001e FB68     		ldr	r3, [r7, #12]
 430 0020 1B68     		ldr	r3, [r3]	@ float
 431 0022 0122     		movs	r2, #1
 432 0024 1446     		mov	r4, r2
 433 0026 4FF00001 		mov	r1, #0
 434 002a 1846     		mov	r0, r3
 435 002c FFF7FEFF 		bl	__aeabi_fcmpgt
 436 0030 0346     		mov	r3, r0
 437 0032 002B     		cmp	r3, #0
 438 0034 01D1     		bne	.L34
 439 0036 0023     		movs	r3, #0
 440 0038 1C46     		mov	r4, r3
 441              	.L34:
 442 003a E3B2     		uxtb	r3, r4
 443 003c 1C46     		mov	r4, r3
 444 003e FB68     		ldr	r3, [r7, #12]
 445 0040 1B68     		ldr	r3, [r3]	@ float
 446 0042 0122     		movs	r2, #1
ARM GAS  C:\Users\JENNEW~1\AppData\Local\Temp\cce2sJFM.s 			page 11


 447 0044 1546     		mov	r5, r2
 448 0046 4FF00001 		mov	r1, #0
 449 004a 1846     		mov	r0, r3
 450 004c FFF7FEFF 		bl	__aeabi_fcmplt
 451 0050 0346     		mov	r3, r0
 452 0052 002B     		cmp	r3, #0
 453 0054 01D1     		bne	.L35
 454 0056 0023     		movs	r3, #0
 455 0058 1D46     		mov	r5, r3
 456              	.L35:
 457 005a EBB2     		uxtb	r3, r5
 458 005c E31A     		subs	r3, r4, r3
 459 005e 1846     		mov	r0, r3
 460 0060 FFF7FEFF 		bl	__aeabi_i2f
 461 0064 0346     		mov	r3, r0
 462 0066 4FF07C51 		mov	r1, #1056964608
 463 006a 1846     		mov	r0, r3
 464 006c FFF7FEFF 		bl	__aeabi_fmul
 465 0070 0346     		mov	r3, r0
 466 0072 1946     		mov	r1, r3
 467 0074 3046     		mov	r0, r6
 468 0076 FFF7FEFF 		bl	__aeabi_fadd
 469 007a 0346     		mov	r3, r0
 470 007c 1846     		mov	r0, r3
 471 007e FFF7FEFF 		bl	__aeabi_f2iz
 472 0082 0346     		mov	r3, r0
 473 0084 7B61     		str	r3, [r7, #20]
 125:QX_Parsing_Functions.c ****         ADDSL(value);
 474              		.loc 1 125 0
 475 0086 174B     		ldr	r3, .L37
 476 0088 1B68     		ldr	r3, [r3]
 477 008a 5A1C     		adds	r2, r3, #1
 478 008c 1549     		ldr	r1, .L37
 479 008e 0A60     		str	r2, [r1]
 480 0090 7A69     		ldr	r2, [r7, #20]
 481 0092 1216     		asrs	r2, r2, #24
 482 0094 D2B2     		uxtb	r2, r2
 483 0096 1A70     		strb	r2, [r3]
 484 0098 124B     		ldr	r3, .L37
 485 009a 1B68     		ldr	r3, [r3]
 486 009c 5A1C     		adds	r2, r3, #1
 487 009e 1149     		ldr	r1, .L37
 488 00a0 0A60     		str	r2, [r1]
 489 00a2 7A69     		ldr	r2, [r7, #20]
 490 00a4 1214     		asrs	r2, r2, #16
 491 00a6 D2B2     		uxtb	r2, r2
 492 00a8 1A70     		strb	r2, [r3]
 493 00aa 0E4B     		ldr	r3, .L37
 494 00ac 1B68     		ldr	r3, [r3]
 495 00ae 5A1C     		adds	r2, r3, #1
 496 00b0 0C49     		ldr	r1, .L37
 497 00b2 0A60     		str	r2, [r1]
 498 00b4 7A69     		ldr	r2, [r7, #20]
 499 00b6 1212     		asrs	r2, r2, #8
 500 00b8 D2B2     		uxtb	r2, r2
 501 00ba 1A70     		strb	r2, [r3]
 502 00bc 094B     		ldr	r3, .L37
ARM GAS  C:\Users\JENNEW~1\AppData\Local\Temp\cce2sJFM.s 			page 12


 503 00be 1B68     		ldr	r3, [r3]
 504 00c0 5A1C     		adds	r2, r3, #1
 505 00c2 0849     		ldr	r1, .L37
 506 00c4 0A60     		str	r2, [r1]
 507 00c6 7A69     		ldr	r2, [r7, #20]
 508 00c8 D2B2     		uxtb	r2, r2
 509 00ca 1A70     		strb	r2, [r3]
 126:QX_Parsing_Functions.c ****         v++;
 510              		.loc 1 126 0
 511 00cc FB68     		ldr	r3, [r7, #12]
 512 00ce 0433     		adds	r3, r3, #4
 513 00d0 FB60     		str	r3, [r7, #12]
 514              	.L33:
 515              	.LBE2:
 122:QX_Parsing_Functions.c ****     {
 516              		.loc 1 122 0
 517 00d2 BB68     		ldr	r3, [r7, #8]
 518 00d4 5A1E     		subs	r2, r3, #1
 519 00d6 BA60     		str	r2, [r7, #8]
 520 00d8 002B     		cmp	r3, #0
 521 00da 98D1     		bne	.L36
 127:QX_Parsing_Functions.c ****     }
 128:QX_Parsing_Functions.c **** }
 522              		.loc 1 128 0
 523 00dc 00BF     		nop
 524 00de 1C37     		adds	r7, r7, #28
 525              		.cfi_def_cfa_offset 20
 526 00e0 BD46     		mov	sp, r7
 527              		.cfi_def_cfa_register 13
 528              		@ sp needed
 529 00e2 F0BD     		pop	{r4, r5, r6, r7, pc}
 530              	.L38:
 531              		.align	2
 532              	.L37:
 533 00e4 00000000 		.word	msgPtr
 534              		.cfi_endproc
 535              	.LFE9:
 536              		.size	AddFloatAsSignedLong, .-AddFloatAsSignedLong
 537              		.section	.text.AddFloatAsSignedShort,"ax",%progbits
 538              		.align	2
 539              		.global	AddFloatAsSignedShort
 540              		.thumb
 541              		.thumb_func
 542              		.type	AddFloatAsSignedShort, %function
 543              	AddFloatAsSignedShort:
 544              	.LFB10:
 129:QX_Parsing_Functions.c **** 
 130:QX_Parsing_Functions.c **** void AddFloatAsSignedShort(float *v, uint32_t n, float scaleto)
 131:QX_Parsing_Functions.c **** {
 545              		.loc 1 131 0
 546              		.cfi_startproc
 547              		@ args = 0, pretend = 0, frame = 24
 548              		@ frame_needed = 1, uses_anonymous_args = 0
 549 0000 F0B5     		push	{r4, r5, r6, r7, lr}
 550              		.cfi_def_cfa_offset 20
 551              		.cfi_offset 4, -20
 552              		.cfi_offset 5, -16
ARM GAS  C:\Users\JENNEW~1\AppData\Local\Temp\cce2sJFM.s 			page 13


 553              		.cfi_offset 6, -12
 554              		.cfi_offset 7, -8
 555              		.cfi_offset 14, -4
 556 0002 87B0     		sub	sp, sp, #28
 557              		.cfi_def_cfa_offset 48
 558 0004 00AF     		add	r7, sp, #0
 559              		.cfi_def_cfa_register 7
 560 0006 F860     		str	r0, [r7, #12]
 561 0008 B960     		str	r1, [r7, #8]
 562 000a 7A60     		str	r2, [r7, #4]	@ float
 132:QX_Parsing_Functions.c ****     while(n--)
 563              		.loc 1 132 0
 564 000c 51E0     		b	.L40
 565              	.L43:
 566              	.LBB3:
 133:QX_Parsing_Functions.c ****     {
 134:QX_Parsing_Functions.c ****         int16_t value = (int16_t)(((*v) * scaleto) + 0.5f * ((0 < *v) - (*v < 0)));
 567              		.loc 1 134 0
 568 000e FB68     		ldr	r3, [r7, #12]
 569 0010 1B68     		ldr	r3, [r3]	@ float
 570 0012 7968     		ldr	r1, [r7, #4]	@ float
 571 0014 1846     		mov	r0, r3
 572 0016 FFF7FEFF 		bl	__aeabi_fmul
 573 001a 0346     		mov	r3, r0
 574 001c 1E46     		mov	r6, r3
 575 001e FB68     		ldr	r3, [r7, #12]
 576 0020 1B68     		ldr	r3, [r3]	@ float
 577 0022 0122     		movs	r2, #1
 578 0024 1446     		mov	r4, r2
 579 0026 4FF00001 		mov	r1, #0
 580 002a 1846     		mov	r0, r3
 581 002c FFF7FEFF 		bl	__aeabi_fcmpgt
 582 0030 0346     		mov	r3, r0
 583 0032 002B     		cmp	r3, #0
 584 0034 01D1     		bne	.L41
 585 0036 0023     		movs	r3, #0
 586 0038 1C46     		mov	r4, r3
 587              	.L41:
 588 003a E3B2     		uxtb	r3, r4
 589 003c 1C46     		mov	r4, r3
 590 003e FB68     		ldr	r3, [r7, #12]
 591 0040 1B68     		ldr	r3, [r3]	@ float
 592 0042 0122     		movs	r2, #1
 593 0044 1546     		mov	r5, r2
 594 0046 4FF00001 		mov	r1, #0
 595 004a 1846     		mov	r0, r3
 596 004c FFF7FEFF 		bl	__aeabi_fcmplt
 597 0050 0346     		mov	r3, r0
 598 0052 002B     		cmp	r3, #0
 599 0054 01D1     		bne	.L42
 600 0056 0023     		movs	r3, #0
 601 0058 1D46     		mov	r5, r3
 602              	.L42:
 603 005a EBB2     		uxtb	r3, r5
 604 005c E31A     		subs	r3, r4, r3
 605 005e 1846     		mov	r0, r3
 606 0060 FFF7FEFF 		bl	__aeabi_i2f
ARM GAS  C:\Users\JENNEW~1\AppData\Local\Temp\cce2sJFM.s 			page 14


 607 0064 0346     		mov	r3, r0
 608 0066 4FF07C51 		mov	r1, #1056964608
 609 006a 1846     		mov	r0, r3
 610 006c FFF7FEFF 		bl	__aeabi_fmul
 611 0070 0346     		mov	r3, r0
 612 0072 1946     		mov	r1, r3
 613 0074 3046     		mov	r0, r6
 614 0076 FFF7FEFF 		bl	__aeabi_fadd
 615 007a 0346     		mov	r3, r0
 616 007c 1846     		mov	r0, r3
 617 007e FFF7FEFF 		bl	__aeabi_f2iz
 618 0082 0346     		mov	r3, r0
 619 0084 FB82     		strh	r3, [r7, #22]	@ movhi
 135:QX_Parsing_Functions.c ****         ADDSS(value);
 620              		.loc 1 135 0
 621 0086 0F4B     		ldr	r3, .L44
 622 0088 1B68     		ldr	r3, [r3]
 623 008a 5A1C     		adds	r2, r3, #1
 624 008c 0D49     		ldr	r1, .L44
 625 008e 0A60     		str	r2, [r1]
 626 0090 B7F91620 		ldrsh	r2, [r7, #22]
 627 0094 1212     		asrs	r2, r2, #8
 628 0096 12B2     		sxth	r2, r2
 629 0098 D2B2     		uxtb	r2, r2
 630 009a 1A70     		strb	r2, [r3]
 631 009c 094B     		ldr	r3, .L44
 632 009e 1B68     		ldr	r3, [r3]
 633 00a0 5A1C     		adds	r2, r3, #1
 634 00a2 0849     		ldr	r1, .L44
 635 00a4 0A60     		str	r2, [r1]
 636 00a6 FA8A     		ldrh	r2, [r7, #22]	@ movhi
 637 00a8 D2B2     		uxtb	r2, r2
 638 00aa 1A70     		strb	r2, [r3]
 136:QX_Parsing_Functions.c ****         v++;
 639              		.loc 1 136 0
 640 00ac FB68     		ldr	r3, [r7, #12]
 641 00ae 0433     		adds	r3, r3, #4
 642 00b0 FB60     		str	r3, [r7, #12]
 643              	.L40:
 644              	.LBE3:
 132:QX_Parsing_Functions.c ****     {
 645              		.loc 1 132 0
 646 00b2 BB68     		ldr	r3, [r7, #8]
 647 00b4 5A1E     		subs	r2, r3, #1
 648 00b6 BA60     		str	r2, [r7, #8]
 649 00b8 002B     		cmp	r3, #0
 650 00ba A8D1     		bne	.L43
 137:QX_Parsing_Functions.c ****     }
 138:QX_Parsing_Functions.c **** }
 651              		.loc 1 138 0
 652 00bc 00BF     		nop
 653 00be 1C37     		adds	r7, r7, #28
 654              		.cfi_def_cfa_offset 20
 655 00c0 BD46     		mov	sp, r7
 656              		.cfi_def_cfa_register 13
 657              		@ sp needed
 658 00c2 F0BD     		pop	{r4, r5, r6, r7, pc}
ARM GAS  C:\Users\JENNEW~1\AppData\Local\Temp\cce2sJFM.s 			page 15


 659              	.L45:
 660              		.align	2
 661              	.L44:
 662 00c4 00000000 		.word	msgPtr
 663              		.cfi_endproc
 664              	.LFE10:
 665              		.size	AddFloatAsSignedShort, .-AddFloatAsSignedShort
 666              		.section	.text.AddFloatAsSignedChar,"ax",%progbits
 667              		.align	2
 668              		.global	AddFloatAsSignedChar
 669              		.thumb
 670              		.thumb_func
 671              		.type	AddFloatAsSignedChar, %function
 672              	AddFloatAsSignedChar:
 673              	.LFB11:
 139:QX_Parsing_Functions.c **** 
 140:QX_Parsing_Functions.c **** void AddFloatAsSignedChar(float *v, uint32_t n, float scaleto)
 141:QX_Parsing_Functions.c **** {
 674              		.loc 1 141 0
 675              		.cfi_startproc
 676              		@ args = 0, pretend = 0, frame = 24
 677              		@ frame_needed = 1, uses_anonymous_args = 0
 678 0000 F0B5     		push	{r4, r5, r6, r7, lr}
 679              		.cfi_def_cfa_offset 20
 680              		.cfi_offset 4, -20
 681              		.cfi_offset 5, -16
 682              		.cfi_offset 6, -12
 683              		.cfi_offset 7, -8
 684              		.cfi_offset 14, -4
 685 0002 87B0     		sub	sp, sp, #28
 686              		.cfi_def_cfa_offset 48
 687 0004 00AF     		add	r7, sp, #0
 688              		.cfi_def_cfa_register 7
 689 0006 F860     		str	r0, [r7, #12]
 690 0008 B960     		str	r1, [r7, #8]
 691 000a 7A60     		str	r2, [r7, #4]	@ float
 142:QX_Parsing_Functions.c ****     while(n--)
 692              		.loc 1 142 0
 693 000c 45E0     		b	.L47
 694              	.L50:
 695              	.LBB4:
 143:QX_Parsing_Functions.c ****     {
 144:QX_Parsing_Functions.c ****         int8_t value = (int8_t)(((*v) * scaleto) + 0.5f * ((0 < *v) - (*v < 0)));
 696              		.loc 1 144 0
 697 000e FB68     		ldr	r3, [r7, #12]
 698 0010 1B68     		ldr	r3, [r3]	@ float
 699 0012 7968     		ldr	r1, [r7, #4]	@ float
 700 0014 1846     		mov	r0, r3
 701 0016 FFF7FEFF 		bl	__aeabi_fmul
 702 001a 0346     		mov	r3, r0
 703 001c 1E46     		mov	r6, r3
 704 001e FB68     		ldr	r3, [r7, #12]
 705 0020 1B68     		ldr	r3, [r3]	@ float
 706 0022 0122     		movs	r2, #1
 707 0024 1446     		mov	r4, r2
 708 0026 4FF00001 		mov	r1, #0
 709 002a 1846     		mov	r0, r3
ARM GAS  C:\Users\JENNEW~1\AppData\Local\Temp\cce2sJFM.s 			page 16


 710 002c FFF7FEFF 		bl	__aeabi_fcmpgt
 711 0030 0346     		mov	r3, r0
 712 0032 002B     		cmp	r3, #0
 713 0034 01D1     		bne	.L48
 714 0036 0023     		movs	r3, #0
 715 0038 1C46     		mov	r4, r3
 716              	.L48:
 717 003a E3B2     		uxtb	r3, r4
 718 003c 1C46     		mov	r4, r3
 719 003e FB68     		ldr	r3, [r7, #12]
 720 0040 1B68     		ldr	r3, [r3]	@ float
 721 0042 0122     		movs	r2, #1
 722 0044 1546     		mov	r5, r2
 723 0046 4FF00001 		mov	r1, #0
 724 004a 1846     		mov	r0, r3
 725 004c FFF7FEFF 		bl	__aeabi_fcmplt
 726 0050 0346     		mov	r3, r0
 727 0052 002B     		cmp	r3, #0
 728 0054 01D1     		bne	.L49
 729 0056 0023     		movs	r3, #0
 730 0058 1D46     		mov	r5, r3
 731              	.L49:
 732 005a EBB2     		uxtb	r3, r5
 733 005c E31A     		subs	r3, r4, r3
 734 005e 1846     		mov	r0, r3
 735 0060 FFF7FEFF 		bl	__aeabi_i2f
 736 0064 0346     		mov	r3, r0
 737 0066 4FF07C51 		mov	r1, #1056964608
 738 006a 1846     		mov	r0, r3
 739 006c FFF7FEFF 		bl	__aeabi_fmul
 740 0070 0346     		mov	r3, r0
 741 0072 1946     		mov	r1, r3
 742 0074 3046     		mov	r0, r6
 743 0076 FFF7FEFF 		bl	__aeabi_fadd
 744 007a 0346     		mov	r3, r0
 745 007c 1846     		mov	r0, r3
 746 007e FFF7FEFF 		bl	__aeabi_f2iz
 747 0082 0346     		mov	r3, r0
 748 0084 FB75     		strb	r3, [r7, #23]
 145:QX_Parsing_Functions.c ****         ADDCHAR(value);
 749              		.loc 1 145 0
 750 0086 094B     		ldr	r3, .L51
 751 0088 1B68     		ldr	r3, [r3]
 752 008a 5A1C     		adds	r2, r3, #1
 753 008c 0749     		ldr	r1, .L51
 754 008e 0A60     		str	r2, [r1]
 755 0090 FA7D     		ldrb	r2, [r7, #23]	@ zero_extendqisi2
 756 0092 1A70     		strb	r2, [r3]
 146:QX_Parsing_Functions.c ****         v++;
 757              		.loc 1 146 0
 758 0094 FB68     		ldr	r3, [r7, #12]
 759 0096 0433     		adds	r3, r3, #4
 760 0098 FB60     		str	r3, [r7, #12]
 761              	.L47:
 762              	.LBE4:
 142:QX_Parsing_Functions.c ****     {
 763              		.loc 1 142 0
ARM GAS  C:\Users\JENNEW~1\AppData\Local\Temp\cce2sJFM.s 			page 17


 764 009a BB68     		ldr	r3, [r7, #8]
 765 009c 5A1E     		subs	r2, r3, #1
 766 009e BA60     		str	r2, [r7, #8]
 767 00a0 002B     		cmp	r3, #0
 768 00a2 B4D1     		bne	.L50
 147:QX_Parsing_Functions.c ****     }
 148:QX_Parsing_Functions.c **** }
 769              		.loc 1 148 0
 770 00a4 00BF     		nop
 771 00a6 1C37     		adds	r7, r7, #28
 772              		.cfi_def_cfa_offset 20
 773 00a8 BD46     		mov	sp, r7
 774              		.cfi_def_cfa_register 13
 775              		@ sp needed
 776 00aa F0BD     		pop	{r4, r5, r6, r7, pc}
 777              	.L52:
 778              		.align	2
 779              	.L51:
 780 00ac 00000000 		.word	msgPtr
 781              		.cfi_endproc
 782              	.LFE11:
 783              		.size	AddFloatAsSignedChar, .-AddFloatAsSignedChar
 784              		.global	__aeabi_f2uiz
 785              		.section	.text.AddFloatAsUnsignedChar,"ax",%progbits
 786              		.align	2
 787              		.global	AddFloatAsUnsignedChar
 788              		.thumb
 789              		.thumb_func
 790              		.type	AddFloatAsUnsignedChar, %function
 791              	AddFloatAsUnsignedChar:
 792              	.LFB12:
 149:QX_Parsing_Functions.c **** 
 150:QX_Parsing_Functions.c **** void AddFloatAsUnsignedChar(float *v, uint32_t n, float scaleto)
 151:QX_Parsing_Functions.c **** {
 793              		.loc 1 151 0
 794              		.cfi_startproc
 795              		@ args = 0, pretend = 0, frame = 24
 796              		@ frame_needed = 1, uses_anonymous_args = 0
 797 0000 F0B5     		push	{r4, r5, r6, r7, lr}
 798              		.cfi_def_cfa_offset 20
 799              		.cfi_offset 4, -20
 800              		.cfi_offset 5, -16
 801              		.cfi_offset 6, -12
 802              		.cfi_offset 7, -8
 803              		.cfi_offset 14, -4
 804 0002 87B0     		sub	sp, sp, #28
 805              		.cfi_def_cfa_offset 48
 806 0004 00AF     		add	r7, sp, #0
 807              		.cfi_def_cfa_register 7
 808 0006 F860     		str	r0, [r7, #12]
 809 0008 B960     		str	r1, [r7, #8]
 810 000a 7A60     		str	r2, [r7, #4]	@ float
 152:QX_Parsing_Functions.c ****     while(n--)
 811              		.loc 1 152 0
 812 000c 45E0     		b	.L54
 813              	.L57:
 814              	.LBB5:
ARM GAS  C:\Users\JENNEW~1\AppData\Local\Temp\cce2sJFM.s 			page 18


 153:QX_Parsing_Functions.c ****     {
 154:QX_Parsing_Functions.c ****         uint8_t value = (uint8_t) (((*v) * scaleto) + 0.5f * ((0 < *v) - (*v < 0)));
 815              		.loc 1 154 0
 816 000e FB68     		ldr	r3, [r7, #12]
 817 0010 1B68     		ldr	r3, [r3]	@ float
 818 0012 7968     		ldr	r1, [r7, #4]	@ float
 819 0014 1846     		mov	r0, r3
 820 0016 FFF7FEFF 		bl	__aeabi_fmul
 821 001a 0346     		mov	r3, r0
 822 001c 1E46     		mov	r6, r3
 823 001e FB68     		ldr	r3, [r7, #12]
 824 0020 1B68     		ldr	r3, [r3]	@ float
 825 0022 0122     		movs	r2, #1
 826 0024 1446     		mov	r4, r2
 827 0026 4FF00001 		mov	r1, #0
 828 002a 1846     		mov	r0, r3
 829 002c FFF7FEFF 		bl	__aeabi_fcmpgt
 830 0030 0346     		mov	r3, r0
 831 0032 002B     		cmp	r3, #0
 832 0034 01D1     		bne	.L55
 833 0036 0023     		movs	r3, #0
 834 0038 1C46     		mov	r4, r3
 835              	.L55:
 836 003a E3B2     		uxtb	r3, r4
 837 003c 1C46     		mov	r4, r3
 838 003e FB68     		ldr	r3, [r7, #12]
 839 0040 1B68     		ldr	r3, [r3]	@ float
 840 0042 0122     		movs	r2, #1
 841 0044 1546     		mov	r5, r2
 842 0046 4FF00001 		mov	r1, #0
 843 004a 1846     		mov	r0, r3
 844 004c FFF7FEFF 		bl	__aeabi_fcmplt
 845 0050 0346     		mov	r3, r0
 846 0052 002B     		cmp	r3, #0
 847 0054 01D1     		bne	.L56
 848 0056 0023     		movs	r3, #0
 849 0058 1D46     		mov	r5, r3
 850              	.L56:
 851 005a EBB2     		uxtb	r3, r5
 852 005c E31A     		subs	r3, r4, r3
 853 005e 1846     		mov	r0, r3
 854 0060 FFF7FEFF 		bl	__aeabi_i2f
 855 0064 0346     		mov	r3, r0
 856 0066 4FF07C51 		mov	r1, #1056964608
 857 006a 1846     		mov	r0, r3
 858 006c FFF7FEFF 		bl	__aeabi_fmul
 859 0070 0346     		mov	r3, r0
 860 0072 1946     		mov	r1, r3
 861 0074 3046     		mov	r0, r6
 862 0076 FFF7FEFF 		bl	__aeabi_fadd
 863 007a 0346     		mov	r3, r0
 864 007c 1846     		mov	r0, r3
 865 007e FFF7FEFF 		bl	__aeabi_f2uiz
 866 0082 0346     		mov	r3, r0
 867 0084 FB75     		strb	r3, [r7, #23]
 155:QX_Parsing_Functions.c ****         ADDCHAR(value);
 868              		.loc 1 155 0
ARM GAS  C:\Users\JENNEW~1\AppData\Local\Temp\cce2sJFM.s 			page 19


 869 0086 094B     		ldr	r3, .L58
 870 0088 1B68     		ldr	r3, [r3]
 871 008a 5A1C     		adds	r2, r3, #1
 872 008c 0749     		ldr	r1, .L58
 873 008e 0A60     		str	r2, [r1]
 874 0090 FA7D     		ldrb	r2, [r7, #23]
 875 0092 1A70     		strb	r2, [r3]
 156:QX_Parsing_Functions.c ****         v++;
 876              		.loc 1 156 0
 877 0094 FB68     		ldr	r3, [r7, #12]
 878 0096 0433     		adds	r3, r3, #4
 879 0098 FB60     		str	r3, [r7, #12]
 880              	.L54:
 881              	.LBE5:
 152:QX_Parsing_Functions.c ****     {
 882              		.loc 1 152 0
 883 009a BB68     		ldr	r3, [r7, #8]
 884 009c 5A1E     		subs	r2, r3, #1
 885 009e BA60     		str	r2, [r7, #8]
 886 00a0 002B     		cmp	r3, #0
 887 00a2 B4D1     		bne	.L57
 157:QX_Parsing_Functions.c ****     }
 158:QX_Parsing_Functions.c **** }
 888              		.loc 1 158 0
 889 00a4 00BF     		nop
 890 00a6 1C37     		adds	r7, r7, #28
 891              		.cfi_def_cfa_offset 20
 892 00a8 BD46     		mov	sp, r7
 893              		.cfi_def_cfa_register 13
 894              		@ sp needed
 895 00aa F0BD     		pop	{r4, r5, r6, r7, pc}
 896              	.L59:
 897              		.align	2
 898              	.L58:
 899 00ac 00000000 		.word	msgPtr
 900              		.cfi_endproc
 901              	.LFE12:
 902              		.size	AddFloatAsUnsignedChar, .-AddFloatAsUnsignedChar
 903              		.section	.text.AddFloatAsUnsignedShort,"ax",%progbits
 904              		.align	2
 905              		.global	AddFloatAsUnsignedShort
 906              		.thumb
 907              		.thumb_func
 908              		.type	AddFloatAsUnsignedShort, %function
 909              	AddFloatAsUnsignedShort:
 910              	.LFB13:
 159:QX_Parsing_Functions.c **** 
 160:QX_Parsing_Functions.c **** void AddFloatAsUnsignedShort(float *v, uint32_t n, float scaleto)
 161:QX_Parsing_Functions.c **** {
 911              		.loc 1 161 0
 912              		.cfi_startproc
 913              		@ args = 0, pretend = 0, frame = 24
 914              		@ frame_needed = 1, uses_anonymous_args = 0
 915 0000 F0B5     		push	{r4, r5, r6, r7, lr}
 916              		.cfi_def_cfa_offset 20
 917              		.cfi_offset 4, -20
 918              		.cfi_offset 5, -16
ARM GAS  C:\Users\JENNEW~1\AppData\Local\Temp\cce2sJFM.s 			page 20


 919              		.cfi_offset 6, -12
 920              		.cfi_offset 7, -8
 921              		.cfi_offset 14, -4
 922 0002 87B0     		sub	sp, sp, #28
 923              		.cfi_def_cfa_offset 48
 924 0004 00AF     		add	r7, sp, #0
 925              		.cfi_def_cfa_register 7
 926 0006 F860     		str	r0, [r7, #12]
 927 0008 B960     		str	r1, [r7, #8]
 928 000a 7A60     		str	r2, [r7, #4]	@ float
 162:QX_Parsing_Functions.c ****     while(n--)
 929              		.loc 1 162 0
 930 000c 50E0     		b	.L61
 931              	.L64:
 932              	.LBB6:
 163:QX_Parsing_Functions.c ****     {
 164:QX_Parsing_Functions.c ****         uint16_t value = (uint16_t) (((*v) * scaleto) + 0.5f * ((0 < *v) - (*v < 0)));
 933              		.loc 1 164 0
 934 000e FB68     		ldr	r3, [r7, #12]
 935 0010 1B68     		ldr	r3, [r3]	@ float
 936 0012 7968     		ldr	r1, [r7, #4]	@ float
 937 0014 1846     		mov	r0, r3
 938 0016 FFF7FEFF 		bl	__aeabi_fmul
 939 001a 0346     		mov	r3, r0
 940 001c 1E46     		mov	r6, r3
 941 001e FB68     		ldr	r3, [r7, #12]
 942 0020 1B68     		ldr	r3, [r3]	@ float
 943 0022 0122     		movs	r2, #1
 944 0024 1446     		mov	r4, r2
 945 0026 4FF00001 		mov	r1, #0
 946 002a 1846     		mov	r0, r3
 947 002c FFF7FEFF 		bl	__aeabi_fcmpgt
 948 0030 0346     		mov	r3, r0
 949 0032 002B     		cmp	r3, #0
 950 0034 01D1     		bne	.L62
 951 0036 0023     		movs	r3, #0
 952 0038 1C46     		mov	r4, r3
 953              	.L62:
 954 003a E3B2     		uxtb	r3, r4
 955 003c 1C46     		mov	r4, r3
 956 003e FB68     		ldr	r3, [r7, #12]
 957 0040 1B68     		ldr	r3, [r3]	@ float
 958 0042 0122     		movs	r2, #1
 959 0044 1546     		mov	r5, r2
 960 0046 4FF00001 		mov	r1, #0
 961 004a 1846     		mov	r0, r3
 962 004c FFF7FEFF 		bl	__aeabi_fcmplt
 963 0050 0346     		mov	r3, r0
 964 0052 002B     		cmp	r3, #0
 965 0054 01D1     		bne	.L63
 966 0056 0023     		movs	r3, #0
 967 0058 1D46     		mov	r5, r3
 968              	.L63:
 969 005a EBB2     		uxtb	r3, r5
 970 005c E31A     		subs	r3, r4, r3
 971 005e 1846     		mov	r0, r3
 972 0060 FFF7FEFF 		bl	__aeabi_i2f
ARM GAS  C:\Users\JENNEW~1\AppData\Local\Temp\cce2sJFM.s 			page 21


 973 0064 0346     		mov	r3, r0
 974 0066 4FF07C51 		mov	r1, #1056964608
 975 006a 1846     		mov	r0, r3
 976 006c FFF7FEFF 		bl	__aeabi_fmul
 977 0070 0346     		mov	r3, r0
 978 0072 1946     		mov	r1, r3
 979 0074 3046     		mov	r0, r6
 980 0076 FFF7FEFF 		bl	__aeabi_fadd
 981 007a 0346     		mov	r3, r0
 982 007c 1846     		mov	r0, r3
 983 007e FFF7FEFF 		bl	__aeabi_f2uiz
 984 0082 0346     		mov	r3, r0
 985 0084 FB82     		strh	r3, [r7, #22]	@ movhi
 165:QX_Parsing_Functions.c ****         ADDUS(value);
 986              		.loc 1 165 0
 987 0086 0F4B     		ldr	r3, .L65
 988 0088 1B68     		ldr	r3, [r3]
 989 008a 5A1C     		adds	r2, r3, #1
 990 008c 0D49     		ldr	r1, .L65
 991 008e 0A60     		str	r2, [r1]
 992 0090 FA8A     		ldrh	r2, [r7, #22]
 993 0092 120A     		lsrs	r2, r2, #8
 994 0094 92B2     		uxth	r2, r2
 995 0096 D2B2     		uxtb	r2, r2
 996 0098 1A70     		strb	r2, [r3]
 997 009a 0A4B     		ldr	r3, .L65
 998 009c 1B68     		ldr	r3, [r3]
 999 009e 5A1C     		adds	r2, r3, #1
 1000 00a0 0849     		ldr	r1, .L65
 1001 00a2 0A60     		str	r2, [r1]
 1002 00a4 FA8A     		ldrh	r2, [r7, #22]	@ movhi
 1003 00a6 D2B2     		uxtb	r2, r2
 1004 00a8 1A70     		strb	r2, [r3]
 166:QX_Parsing_Functions.c ****         v++;
 1005              		.loc 1 166 0
 1006 00aa FB68     		ldr	r3, [r7, #12]
 1007 00ac 0433     		adds	r3, r3, #4
 1008 00ae FB60     		str	r3, [r7, #12]
 1009              	.L61:
 1010              	.LBE6:
 162:QX_Parsing_Functions.c ****     {
 1011              		.loc 1 162 0
 1012 00b0 BB68     		ldr	r3, [r7, #8]
 1013 00b2 5A1E     		subs	r2, r3, #1
 1014 00b4 BA60     		str	r2, [r7, #8]
 1015 00b6 002B     		cmp	r3, #0
 1016 00b8 A9D1     		bne	.L64
 167:QX_Parsing_Functions.c ****     }
 168:QX_Parsing_Functions.c **** }
 1017              		.loc 1 168 0
 1018 00ba 00BF     		nop
 1019 00bc 1C37     		adds	r7, r7, #28
 1020              		.cfi_def_cfa_offset 20
 1021 00be BD46     		mov	sp, r7
 1022              		.cfi_def_cfa_register 13
 1023              		@ sp needed
 1024 00c0 F0BD     		pop	{r4, r5, r6, r7, pc}
ARM GAS  C:\Users\JENNEW~1\AppData\Local\Temp\cce2sJFM.s 			page 22


 1025              	.L66:
 1026 00c2 00BF     		.align	2
 1027              	.L65:
 1028 00c4 00000000 		.word	msgPtr
 1029              		.cfi_endproc
 1030              	.LFE13:
 1031              		.size	AddFloatAsUnsignedShort, .-AddFloatAsUnsignedShort
 1032              		.global	__aeabi_fcmpun
 1033              		.section	.text.GetFloatAsSignedLong,"ax",%progbits
 1034              		.align	2
 1035              		.global	GetFloatAsSignedLong
 1036              		.thumb
 1037              		.thumb_func
 1038              		.type	GetFloatAsSignedLong, %function
 1039              	GetFloatAsSignedLong:
 1040              	.LFB14:
 169:QX_Parsing_Functions.c **** 
 170:QX_Parsing_Functions.c **** void GetFloatAsSignedLong(float *v, uint32_t n, float max, float min, float scalefrom)
 171:QX_Parsing_Functions.c **** {
 1041              		.loc 1 171 0
 1042              		.cfi_startproc
 1043              		@ args = 4, pretend = 0, frame = 24
 1044              		@ frame_needed = 1, uses_anonymous_args = 0
 1045 0000 80B5     		push	{r7, lr}
 1046              		.cfi_def_cfa_offset 8
 1047              		.cfi_offset 7, -8
 1048              		.cfi_offset 14, -4
 1049 0002 86B0     		sub	sp, sp, #24
 1050              		.cfi_def_cfa_offset 32
 1051 0004 00AF     		add	r7, sp, #0
 1052              		.cfi_def_cfa_register 7
 1053 0006 F860     		str	r0, [r7, #12]
 1054 0008 B960     		str	r1, [r7, #8]
 1055 000a 7A60     		str	r2, [r7, #4]	@ float
 1056 000c 3B60     		str	r3, [r7]	@ float
 172:QX_Parsing_Functions.c ****     if(rw == QB_Parser_Dir_WriteDel)
 1057              		.loc 1 172 0
 1058 000e 624B     		ldr	r3, .L93
 1059 0010 1B78     		ldrb	r3, [r3]	@ zero_extendqisi2
 1060 0012 012B     		cmp	r3, #1
 1061 0014 40F0B680 		bne	.L78
 173:QX_Parsing_Functions.c ****     {
 174:QX_Parsing_Functions.c ****         while(n--)
 1062              		.loc 1 174 0
 1063 0018 5AE0     		b	.L69
 1064              	.L76:
 1065              	.LBB7:
 175:QX_Parsing_Functions.c ****         {
 176:QX_Parsing_Functions.c ****             float r = (float)GETSL;
 1066              		.loc 1 176 0
 1067 001a 604B     		ldr	r3, .L93+4
 1068 001c 1B68     		ldr	r3, [r3]
 1069 001e 1B78     		ldrb	r3, [r3]
 1070 0020 DBB2     		uxtb	r3, r3
 1071 0022 1A06     		lsls	r2, r3, #24
 1072 0024 5D4B     		ldr	r3, .L93+4
 1073 0026 1B68     		ldr	r3, [r3]
ARM GAS  C:\Users\JENNEW~1\AppData\Local\Temp\cce2sJFM.s 			page 23


 1074 0028 0133     		adds	r3, r3, #1
 1075 002a 1B78     		ldrb	r3, [r3]
 1076 002c DBB2     		uxtb	r3, r3
 1077 002e 1B04     		lsls	r3, r3, #16
 1078 0030 1A43     		orrs	r2, r2, r3
 1079 0032 5A4B     		ldr	r3, .L93+4
 1080 0034 1B68     		ldr	r3, [r3]
 1081 0036 0233     		adds	r3, r3, #2
 1082 0038 1B78     		ldrb	r3, [r3]
 1083 003a DBB2     		uxtb	r3, r3
 1084 003c 1B02     		lsls	r3, r3, #8
 1085 003e 1343     		orrs	r3, r3, r2
 1086 0040 564A     		ldr	r2, .L93+4
 1087 0042 1268     		ldr	r2, [r2]
 1088 0044 0332     		adds	r2, r2, #3
 1089 0046 1278     		ldrb	r2, [r2]
 1090 0048 D2B2     		uxtb	r2, r2
 1091 004a 1343     		orrs	r3, r3, r2
 1092 004c 1846     		mov	r0, r3
 1093 004e FFF7FEFF 		bl	__aeabi_i2f
 1094 0052 0346     		mov	r3, r0
 1095 0054 7B61     		str	r3, [r7, #20]	@ float
 1096 0056 514B     		ldr	r3, .L93+4
 1097 0058 1B68     		ldr	r3, [r3]
 1098 005a 0433     		adds	r3, r3, #4
 1099 005c 4F4A     		ldr	r2, .L93+4
 1100 005e 1360     		str	r3, [r2]
 177:QX_Parsing_Functions.c ****             r = r * scalefrom;
 1101              		.loc 1 177 0
 1102 0060 396A     		ldr	r1, [r7, #32]	@ float
 1103 0062 7869     		ldr	r0, [r7, #20]	@ float
 1104 0064 FFF7FEFF 		bl	__aeabi_fmul
 1105 0068 0346     		mov	r3, r0
 1106 006a 7B61     		str	r3, [r7, #20]	@ float
 178:QX_Parsing_Functions.c ****             *v += r;
 1107              		.loc 1 178 0
 1108 006c FB68     		ldr	r3, [r7, #12]
 1109 006e 1B68     		ldr	r3, [r3]	@ float
 1110 0070 7969     		ldr	r1, [r7, #20]	@ float
 1111 0072 1846     		mov	r0, r3
 1112 0074 FFF7FEFF 		bl	__aeabi_fadd
 1113 0078 0346     		mov	r3, r0
 1114 007a 1A46     		mov	r2, r3
 1115 007c FB68     		ldr	r3, [r7, #12]
 1116 007e 1A60     		str	r2, [r3]	@ float
 179:QX_Parsing_Functions.c ****             if(max < *v) *v = max;
 1117              		.loc 1 179 0
 1118 0080 FB68     		ldr	r3, [r7, #12]
 1119 0082 1B68     		ldr	r3, [r3]	@ float
 1120 0084 7968     		ldr	r1, [r7, #4]	@ float
 1121 0086 1846     		mov	r0, r3
 1122 0088 FFF7FEFF 		bl	__aeabi_fcmpgt
 1123 008c 0346     		mov	r3, r0
 1124 008e 002B     		cmp	r3, #0
 1125 0090 02D0     		beq	.L70
 1126              		.loc 1 179 0 is_stmt 0 discriminator 1
 1127 0092 FB68     		ldr	r3, [r7, #12]
ARM GAS  C:\Users\JENNEW~1\AppData\Local\Temp\cce2sJFM.s 			page 24


 1128 0094 7A68     		ldr	r2, [r7, #4]	@ float
 1129 0096 1A60     		str	r2, [r3]	@ float
 1130              	.L70:
 180:QX_Parsing_Functions.c ****             if(*v < min) *v = min;
 1131              		.loc 1 180 0 is_stmt 1
 1132 0098 FB68     		ldr	r3, [r7, #12]
 1133 009a 1B68     		ldr	r3, [r3]	@ float
 1134 009c 3968     		ldr	r1, [r7]	@ float
 1135 009e 1846     		mov	r0, r3
 1136 00a0 FFF7FEFF 		bl	__aeabi_fcmplt
 1137 00a4 0346     		mov	r3, r0
 1138 00a6 002B     		cmp	r3, #0
 1139 00a8 02D0     		beq	.L72
 1140              		.loc 1 180 0 is_stmt 0 discriminator 1
 1141 00aa FB68     		ldr	r3, [r7, #12]
 1142 00ac 3A68     		ldr	r2, [r7]	@ float
 1143 00ae 1A60     		str	r2, [r3]	@ float
 1144              	.L72:
 181:QX_Parsing_Functions.c ****             if(isnan(*v)) *v = 0.0f;
 1145              		.loc 1 181 0 is_stmt 1
 1146 00b0 FB68     		ldr	r3, [r7, #12]
 1147 00b2 1B68     		ldr	r3, [r3]	@ float
 1148 00b4 1946     		mov	r1, r3
 1149 00b6 1846     		mov	r0, r3
 1150 00b8 FFF7FEFF 		bl	__aeabi_fcmpun
 1151 00bc 0346     		mov	r3, r0
 1152 00be 002B     		cmp	r3, #0
 1153 00c0 03D0     		beq	.L74
 1154              		.loc 1 181 0 is_stmt 0 discriminator 1
 1155 00c2 FB68     		ldr	r3, [r7, #12]
 1156 00c4 4FF00002 		mov	r2, #0
 1157 00c8 1A60     		str	r2, [r3]	@ float
 1158              	.L74:
 182:QX_Parsing_Functions.c ****             v++;
 1159              		.loc 1 182 0 is_stmt 1
 1160 00ca FB68     		ldr	r3, [r7, #12]
 1161 00cc 0433     		adds	r3, r3, #4
 1162 00ce FB60     		str	r3, [r7, #12]
 1163              	.L69:
 1164              	.LBE7:
 174:QX_Parsing_Functions.c ****         {
 1165              		.loc 1 174 0
 1166 00d0 BB68     		ldr	r3, [r7, #8]
 1167 00d2 5A1E     		subs	r2, r3, #1
 1168 00d4 BA60     		str	r2, [r7, #8]
 1169 00d6 002B     		cmp	r3, #0
 1170 00d8 9FD1     		bne	.L76
 183:QX_Parsing_Functions.c ****         }
 184:QX_Parsing_Functions.c ****     }
 185:QX_Parsing_Functions.c ****     else
 186:QX_Parsing_Functions.c ****     {
 187:QX_Parsing_Functions.c ****         while(n--)
 188:QX_Parsing_Functions.c ****         {
 189:QX_Parsing_Functions.c ****             float r = (float)GETSL;
 190:QX_Parsing_Functions.c ****             r = r * scalefrom;
 191:QX_Parsing_Functions.c ****             *v = r;
 192:QX_Parsing_Functions.c ****             if(max < *v) *v = max;
ARM GAS  C:\Users\JENNEW~1\AppData\Local\Temp\cce2sJFM.s 			page 25


 193:QX_Parsing_Functions.c ****             if(*v < min) *v = min;
 194:QX_Parsing_Functions.c ****             if(isnan(*v)) *v = 0.0f;
 195:QX_Parsing_Functions.c ****             v++;
 196:QX_Parsing_Functions.c ****         }
 197:QX_Parsing_Functions.c ****     }
 198:QX_Parsing_Functions.c **** }
 1171              		.loc 1 198 0
 1172 00da 58E0     		b	.L92
 1173              	.L85:
 1174              	.LBB8:
 189:QX_Parsing_Functions.c ****             r = r * scalefrom;
 1175              		.loc 1 189 0
 1176 00dc 2F4B     		ldr	r3, .L93+4
 1177 00de 1B68     		ldr	r3, [r3]
 1178 00e0 1B78     		ldrb	r3, [r3]
 1179 00e2 DBB2     		uxtb	r3, r3
 1180 00e4 1A06     		lsls	r2, r3, #24
 1181 00e6 2D4B     		ldr	r3, .L93+4
 1182 00e8 1B68     		ldr	r3, [r3]
 1183 00ea 0133     		adds	r3, r3, #1
 1184 00ec 1B78     		ldrb	r3, [r3]
 1185 00ee DBB2     		uxtb	r3, r3
 1186 00f0 1B04     		lsls	r3, r3, #16
 1187 00f2 1A43     		orrs	r2, r2, r3
 1188 00f4 294B     		ldr	r3, .L93+4
 1189 00f6 1B68     		ldr	r3, [r3]
 1190 00f8 0233     		adds	r3, r3, #2
 1191 00fa 1B78     		ldrb	r3, [r3]
 1192 00fc DBB2     		uxtb	r3, r3
 1193 00fe 1B02     		lsls	r3, r3, #8
 1194 0100 1343     		orrs	r3, r3, r2
 1195 0102 264A     		ldr	r2, .L93+4
 1196 0104 1268     		ldr	r2, [r2]
 1197 0106 0332     		adds	r2, r2, #3
 1198 0108 1278     		ldrb	r2, [r2]
 1199 010a D2B2     		uxtb	r2, r2
 1200 010c 1343     		orrs	r3, r3, r2
 1201 010e 1846     		mov	r0, r3
 1202 0110 FFF7FEFF 		bl	__aeabi_i2f
 1203 0114 0346     		mov	r3, r0
 1204 0116 3B61     		str	r3, [r7, #16]	@ float
 1205 0118 204B     		ldr	r3, .L93+4
 1206 011a 1B68     		ldr	r3, [r3]
 1207 011c 0433     		adds	r3, r3, #4
 1208 011e 1F4A     		ldr	r2, .L93+4
 1209 0120 1360     		str	r3, [r2]
 190:QX_Parsing_Functions.c ****             *v = r;
 1210              		.loc 1 190 0
 1211 0122 396A     		ldr	r1, [r7, #32]	@ float
 1212 0124 3869     		ldr	r0, [r7, #16]	@ float
 1213 0126 FFF7FEFF 		bl	__aeabi_fmul
 1214 012a 0346     		mov	r3, r0
 1215 012c 3B61     		str	r3, [r7, #16]	@ float
 191:QX_Parsing_Functions.c ****             if(max < *v) *v = max;
 1216              		.loc 1 191 0
 1217 012e FB68     		ldr	r3, [r7, #12]
 1218 0130 3A69     		ldr	r2, [r7, #16]	@ float
ARM GAS  C:\Users\JENNEW~1\AppData\Local\Temp\cce2sJFM.s 			page 26


 1219 0132 1A60     		str	r2, [r3]	@ float
 192:QX_Parsing_Functions.c ****             if(*v < min) *v = min;
 1220              		.loc 1 192 0
 1221 0134 FB68     		ldr	r3, [r7, #12]
 1222 0136 1B68     		ldr	r3, [r3]	@ float
 1223 0138 7968     		ldr	r1, [r7, #4]	@ float
 1224 013a 1846     		mov	r0, r3
 1225 013c FFF7FEFF 		bl	__aeabi_fcmpgt
 1226 0140 0346     		mov	r3, r0
 1227 0142 002B     		cmp	r3, #0
 1228 0144 02D0     		beq	.L79
 192:QX_Parsing_Functions.c ****             if(*v < min) *v = min;
 1229              		.loc 1 192 0 is_stmt 0 discriminator 1
 1230 0146 FB68     		ldr	r3, [r7, #12]
 1231 0148 7A68     		ldr	r2, [r7, #4]	@ float
 1232 014a 1A60     		str	r2, [r3]	@ float
 1233              	.L79:
 193:QX_Parsing_Functions.c ****             if(isnan(*v)) *v = 0.0f;
 1234              		.loc 1 193 0 is_stmt 1
 1235 014c FB68     		ldr	r3, [r7, #12]
 1236 014e 1B68     		ldr	r3, [r3]	@ float
 1237 0150 3968     		ldr	r1, [r7]	@ float
 1238 0152 1846     		mov	r0, r3
 1239 0154 FFF7FEFF 		bl	__aeabi_fcmplt
 1240 0158 0346     		mov	r3, r0
 1241 015a 002B     		cmp	r3, #0
 1242 015c 02D0     		beq	.L81
 193:QX_Parsing_Functions.c ****             if(isnan(*v)) *v = 0.0f;
 1243              		.loc 1 193 0 is_stmt 0 discriminator 1
 1244 015e FB68     		ldr	r3, [r7, #12]
 1245 0160 3A68     		ldr	r2, [r7]	@ float
 1246 0162 1A60     		str	r2, [r3]	@ float
 1247              	.L81:
 194:QX_Parsing_Functions.c ****             v++;
 1248              		.loc 1 194 0 is_stmt 1
 1249 0164 FB68     		ldr	r3, [r7, #12]
 1250 0166 1B68     		ldr	r3, [r3]	@ float
 1251 0168 1946     		mov	r1, r3
 1252 016a 1846     		mov	r0, r3
 1253 016c FFF7FEFF 		bl	__aeabi_fcmpun
 1254 0170 0346     		mov	r3, r0
 1255 0172 002B     		cmp	r3, #0
 1256 0174 03D0     		beq	.L83
 194:QX_Parsing_Functions.c ****             v++;
 1257              		.loc 1 194 0 is_stmt 0 discriminator 1
 1258 0176 FB68     		ldr	r3, [r7, #12]
 1259 0178 4FF00002 		mov	r2, #0
 1260 017c 1A60     		str	r2, [r3]	@ float
 1261              	.L83:
 195:QX_Parsing_Functions.c ****         }
 1262              		.loc 1 195 0 is_stmt 1
 1263 017e FB68     		ldr	r3, [r7, #12]
 1264 0180 0433     		adds	r3, r3, #4
 1265 0182 FB60     		str	r3, [r7, #12]
 1266              	.L78:
 1267              	.LBE8:
 187:QX_Parsing_Functions.c ****         {
ARM GAS  C:\Users\JENNEW~1\AppData\Local\Temp\cce2sJFM.s 			page 27


 1268              		.loc 1 187 0
 1269 0184 BB68     		ldr	r3, [r7, #8]
 1270 0186 5A1E     		subs	r2, r3, #1
 1271 0188 BA60     		str	r2, [r7, #8]
 1272 018a 002B     		cmp	r3, #0
 1273 018c A6D1     		bne	.L85
 1274              	.L92:
 1275              		.loc 1 198 0
 1276 018e 00BF     		nop
 1277 0190 1837     		adds	r7, r7, #24
 1278              		.cfi_def_cfa_offset 8
 1279 0192 BD46     		mov	sp, r7
 1280              		.cfi_def_cfa_register 13
 1281              		@ sp needed
 1282 0194 80BD     		pop	{r7, pc}
 1283              	.L94:
 1284 0196 00BF     		.align	2
 1285              	.L93:
 1286 0198 00000000 		.word	rw
 1287 019c 00000000 		.word	msgPtr
 1288              		.cfi_endproc
 1289              	.LFE14:
 1290              		.size	GetFloatAsSignedLong, .-GetFloatAsSignedLong
 1291              		.section	.text.GetFloatAsSignedShort,"ax",%progbits
 1292              		.align	2
 1293              		.global	GetFloatAsSignedShort
 1294              		.thumb
 1295              		.thumb_func
 1296              		.type	GetFloatAsSignedShort, %function
 1297              	GetFloatAsSignedShort:
 1298              	.LFB15:
 199:QX_Parsing_Functions.c **** 
 200:QX_Parsing_Functions.c **** void GetFloatAsSignedShort(float *v, uint32_t n, float max, float min, float scalefrom)
 201:QX_Parsing_Functions.c **** {
 1299              		.loc 1 201 0
 1300              		.cfi_startproc
 1301              		@ args = 4, pretend = 0, frame = 24
 1302              		@ frame_needed = 1, uses_anonymous_args = 0
 1303 0000 80B5     		push	{r7, lr}
 1304              		.cfi_def_cfa_offset 8
 1305              		.cfi_offset 7, -8
 1306              		.cfi_offset 14, -4
 1307 0002 86B0     		sub	sp, sp, #24
 1308              		.cfi_def_cfa_offset 32
 1309 0004 00AF     		add	r7, sp, #0
 1310              		.cfi_def_cfa_register 7
 1311 0006 F860     		str	r0, [r7, #12]
 1312 0008 B960     		str	r1, [r7, #8]
 1313 000a 7A60     		str	r2, [r7, #4]	@ float
 1314 000c 3B60     		str	r3, [r7]	@ float
 202:QX_Parsing_Functions.c ****     if(rw == QB_Parser_Dir_WriteDel)
 1315              		.loc 1 202 0
 1316 000e 564B     		ldr	r3, .L121
 1317 0010 1B78     		ldrb	r3, [r3]	@ zero_extendqisi2
 1318 0012 012B     		cmp	r3, #1
 1319 0014 40F09E80 		bne	.L106
 203:QX_Parsing_Functions.c ****     {
ARM GAS  C:\Users\JENNEW~1\AppData\Local\Temp\cce2sJFM.s 			page 28


 204:QX_Parsing_Functions.c ****         while(n--)
 1320              		.loc 1 204 0
 1321 0018 4EE0     		b	.L97
 1322              	.L104:
 1323              	.LBB9:
 205:QX_Parsing_Functions.c ****         {
 206:QX_Parsing_Functions.c ****             float r = (float)GETSS;
 1324              		.loc 1 206 0
 1325 001a 544B     		ldr	r3, .L121+4
 1326 001c 1B68     		ldr	r3, [r3]
 1327 001e 1B78     		ldrb	r3, [r3]
 1328 0020 DBB2     		uxtb	r3, r3
 1329 0022 1B02     		lsls	r3, r3, #8
 1330 0024 1BB2     		sxth	r3, r3
 1331 0026 1A46     		mov	r2, r3
 1332 0028 504B     		ldr	r3, .L121+4
 1333 002a 1B68     		ldr	r3, [r3]
 1334 002c 0133     		adds	r3, r3, #1
 1335 002e 1B78     		ldrb	r3, [r3]
 1336 0030 DBB2     		uxtb	r3, r3
 1337 0032 1343     		orrs	r3, r3, r2
 1338 0034 1846     		mov	r0, r3
 1339 0036 FFF7FEFF 		bl	__aeabi_i2f
 1340 003a 0346     		mov	r3, r0
 1341 003c 7B61     		str	r3, [r7, #20]	@ float
 1342 003e 4B4B     		ldr	r3, .L121+4
 1343 0040 1B68     		ldr	r3, [r3]
 1344 0042 0233     		adds	r3, r3, #2
 1345 0044 494A     		ldr	r2, .L121+4
 1346 0046 1360     		str	r3, [r2]
 207:QX_Parsing_Functions.c ****             r = r * scalefrom;
 1347              		.loc 1 207 0
 1348 0048 396A     		ldr	r1, [r7, #32]	@ float
 1349 004a 7869     		ldr	r0, [r7, #20]	@ float
 1350 004c FFF7FEFF 		bl	__aeabi_fmul
 1351 0050 0346     		mov	r3, r0
 1352 0052 7B61     		str	r3, [r7, #20]	@ float
 208:QX_Parsing_Functions.c ****             *v += r;
 1353              		.loc 1 208 0
 1354 0054 FB68     		ldr	r3, [r7, #12]
 1355 0056 1B68     		ldr	r3, [r3]	@ float
 1356 0058 7969     		ldr	r1, [r7, #20]	@ float
 1357 005a 1846     		mov	r0, r3
 1358 005c FFF7FEFF 		bl	__aeabi_fadd
 1359 0060 0346     		mov	r3, r0
 1360 0062 1A46     		mov	r2, r3
 1361 0064 FB68     		ldr	r3, [r7, #12]
 1362 0066 1A60     		str	r2, [r3]	@ float
 209:QX_Parsing_Functions.c ****             if(max < *v) *v = max;
 1363              		.loc 1 209 0
 1364 0068 FB68     		ldr	r3, [r7, #12]
 1365 006a 1B68     		ldr	r3, [r3]	@ float
 1366 006c 7968     		ldr	r1, [r7, #4]	@ float
 1367 006e 1846     		mov	r0, r3
 1368 0070 FFF7FEFF 		bl	__aeabi_fcmpgt
 1369 0074 0346     		mov	r3, r0
 1370 0076 002B     		cmp	r3, #0
ARM GAS  C:\Users\JENNEW~1\AppData\Local\Temp\cce2sJFM.s 			page 29


 1371 0078 02D0     		beq	.L98
 1372              		.loc 1 209 0 is_stmt 0 discriminator 1
 1373 007a FB68     		ldr	r3, [r7, #12]
 1374 007c 7A68     		ldr	r2, [r7, #4]	@ float
 1375 007e 1A60     		str	r2, [r3]	@ float
 1376              	.L98:
 210:QX_Parsing_Functions.c ****             if(*v < min) *v = min;
 1377              		.loc 1 210 0 is_stmt 1
 1378 0080 FB68     		ldr	r3, [r7, #12]
 1379 0082 1B68     		ldr	r3, [r3]	@ float
 1380 0084 3968     		ldr	r1, [r7]	@ float
 1381 0086 1846     		mov	r0, r3
 1382 0088 FFF7FEFF 		bl	__aeabi_fcmplt
 1383 008c 0346     		mov	r3, r0
 1384 008e 002B     		cmp	r3, #0
 1385 0090 02D0     		beq	.L100
 1386              		.loc 1 210 0 is_stmt 0 discriminator 1
 1387 0092 FB68     		ldr	r3, [r7, #12]
 1388 0094 3A68     		ldr	r2, [r7]	@ float
 1389 0096 1A60     		str	r2, [r3]	@ float
 1390              	.L100:
 211:QX_Parsing_Functions.c ****             if(isnan(*v)) *v = 0.0f;
 1391              		.loc 1 211 0 is_stmt 1
 1392 0098 FB68     		ldr	r3, [r7, #12]
 1393 009a 1B68     		ldr	r3, [r3]	@ float
 1394 009c 1946     		mov	r1, r3
 1395 009e 1846     		mov	r0, r3
 1396 00a0 FFF7FEFF 		bl	__aeabi_fcmpun
 1397 00a4 0346     		mov	r3, r0
 1398 00a6 002B     		cmp	r3, #0
 1399 00a8 03D0     		beq	.L102
 1400              		.loc 1 211 0 is_stmt 0 discriminator 1
 1401 00aa FB68     		ldr	r3, [r7, #12]
 1402 00ac 4FF00002 		mov	r2, #0
 1403 00b0 1A60     		str	r2, [r3]	@ float
 1404              	.L102:
 212:QX_Parsing_Functions.c ****             v++;
 1405              		.loc 1 212 0 is_stmt 1
 1406 00b2 FB68     		ldr	r3, [r7, #12]
 1407 00b4 0433     		adds	r3, r3, #4
 1408 00b6 FB60     		str	r3, [r7, #12]
 1409              	.L97:
 1410              	.LBE9:
 204:QX_Parsing_Functions.c ****         {
 1411              		.loc 1 204 0
 1412 00b8 BB68     		ldr	r3, [r7, #8]
 1413 00ba 5A1E     		subs	r2, r3, #1
 1414 00bc BA60     		str	r2, [r7, #8]
 1415 00be 002B     		cmp	r3, #0
 1416 00c0 ABD1     		bne	.L104
 213:QX_Parsing_Functions.c ****         }
 214:QX_Parsing_Functions.c ****     }
 215:QX_Parsing_Functions.c ****     else
 216:QX_Parsing_Functions.c ****     {
 217:QX_Parsing_Functions.c ****         while(n--)
 218:QX_Parsing_Functions.c ****         {
 219:QX_Parsing_Functions.c ****             float r = (float)GETSS;
ARM GAS  C:\Users\JENNEW~1\AppData\Local\Temp\cce2sJFM.s 			page 30


 220:QX_Parsing_Functions.c ****             r = r * scalefrom;
 221:QX_Parsing_Functions.c ****             *v = r;
 222:QX_Parsing_Functions.c ****             if(max < *v) *v = max;
 223:QX_Parsing_Functions.c ****             if(*v < min) *v = min;
 224:QX_Parsing_Functions.c ****             if(isnan(*v)) *v = 0.0f;
 225:QX_Parsing_Functions.c ****             v++;
 226:QX_Parsing_Functions.c ****         }
 227:QX_Parsing_Functions.c ****     }
 228:QX_Parsing_Functions.c **** }
 1417              		.loc 1 228 0
 1418 00c2 4CE0     		b	.L120
 1419              	.L113:
 1420              	.LBB10:
 219:QX_Parsing_Functions.c ****             r = r * scalefrom;
 1421              		.loc 1 219 0
 1422 00c4 294B     		ldr	r3, .L121+4
 1423 00c6 1B68     		ldr	r3, [r3]
 1424 00c8 1B78     		ldrb	r3, [r3]
 1425 00ca DBB2     		uxtb	r3, r3
 1426 00cc 1B02     		lsls	r3, r3, #8
 1427 00ce 1BB2     		sxth	r3, r3
 1428 00d0 1A46     		mov	r2, r3
 1429 00d2 264B     		ldr	r3, .L121+4
 1430 00d4 1B68     		ldr	r3, [r3]
 1431 00d6 0133     		adds	r3, r3, #1
 1432 00d8 1B78     		ldrb	r3, [r3]
 1433 00da DBB2     		uxtb	r3, r3
 1434 00dc 1343     		orrs	r3, r3, r2
 1435 00de 1846     		mov	r0, r3
 1436 00e0 FFF7FEFF 		bl	__aeabi_i2f
 1437 00e4 0346     		mov	r3, r0
 1438 00e6 3B61     		str	r3, [r7, #16]	@ float
 1439 00e8 204B     		ldr	r3, .L121+4
 1440 00ea 1B68     		ldr	r3, [r3]
 1441 00ec 0233     		adds	r3, r3, #2
 1442 00ee 1F4A     		ldr	r2, .L121+4
 1443 00f0 1360     		str	r3, [r2]
 220:QX_Parsing_Functions.c ****             *v = r;
 1444              		.loc 1 220 0
 1445 00f2 396A     		ldr	r1, [r7, #32]	@ float
 1446 00f4 3869     		ldr	r0, [r7, #16]	@ float
 1447 00f6 FFF7FEFF 		bl	__aeabi_fmul
 1448 00fa 0346     		mov	r3, r0
 1449 00fc 3B61     		str	r3, [r7, #16]	@ float
 221:QX_Parsing_Functions.c ****             if(max < *v) *v = max;
 1450              		.loc 1 221 0
 1451 00fe FB68     		ldr	r3, [r7, #12]
 1452 0100 3A69     		ldr	r2, [r7, #16]	@ float
 1453 0102 1A60     		str	r2, [r3]	@ float
 222:QX_Parsing_Functions.c ****             if(*v < min) *v = min;
 1454              		.loc 1 222 0
 1455 0104 FB68     		ldr	r3, [r7, #12]
 1456 0106 1B68     		ldr	r3, [r3]	@ float
 1457 0108 7968     		ldr	r1, [r7, #4]	@ float
 1458 010a 1846     		mov	r0, r3
 1459 010c FFF7FEFF 		bl	__aeabi_fcmpgt
 1460 0110 0346     		mov	r3, r0
ARM GAS  C:\Users\JENNEW~1\AppData\Local\Temp\cce2sJFM.s 			page 31


 1461 0112 002B     		cmp	r3, #0
 1462 0114 02D0     		beq	.L107
 222:QX_Parsing_Functions.c ****             if(*v < min) *v = min;
 1463              		.loc 1 222 0 is_stmt 0 discriminator 1
 1464 0116 FB68     		ldr	r3, [r7, #12]
 1465 0118 7A68     		ldr	r2, [r7, #4]	@ float
 1466 011a 1A60     		str	r2, [r3]	@ float
 1467              	.L107:
 223:QX_Parsing_Functions.c ****             if(isnan(*v)) *v = 0.0f;
 1468              		.loc 1 223 0 is_stmt 1
 1469 011c FB68     		ldr	r3, [r7, #12]
 1470 011e 1B68     		ldr	r3, [r3]	@ float
 1471 0120 3968     		ldr	r1, [r7]	@ float
 1472 0122 1846     		mov	r0, r3
 1473 0124 FFF7FEFF 		bl	__aeabi_fcmplt
 1474 0128 0346     		mov	r3, r0
 1475 012a 002B     		cmp	r3, #0
 1476 012c 02D0     		beq	.L109
 223:QX_Parsing_Functions.c ****             if(isnan(*v)) *v = 0.0f;
 1477              		.loc 1 223 0 is_stmt 0 discriminator 1
 1478 012e FB68     		ldr	r3, [r7, #12]
 1479 0130 3A68     		ldr	r2, [r7]	@ float
 1480 0132 1A60     		str	r2, [r3]	@ float
 1481              	.L109:
 224:QX_Parsing_Functions.c ****             v++;
 1482              		.loc 1 224 0 is_stmt 1
 1483 0134 FB68     		ldr	r3, [r7, #12]
 1484 0136 1B68     		ldr	r3, [r3]	@ float
 1485 0138 1946     		mov	r1, r3
 1486 013a 1846     		mov	r0, r3
 1487 013c FFF7FEFF 		bl	__aeabi_fcmpun
 1488 0140 0346     		mov	r3, r0
 1489 0142 002B     		cmp	r3, #0
 1490 0144 03D0     		beq	.L111
 224:QX_Parsing_Functions.c ****             v++;
 1491              		.loc 1 224 0 is_stmt 0 discriminator 1
 1492 0146 FB68     		ldr	r3, [r7, #12]
 1493 0148 4FF00002 		mov	r2, #0
 1494 014c 1A60     		str	r2, [r3]	@ float
 1495              	.L111:
 225:QX_Parsing_Functions.c ****         }
 1496              		.loc 1 225 0 is_stmt 1
 1497 014e FB68     		ldr	r3, [r7, #12]
 1498 0150 0433     		adds	r3, r3, #4
 1499 0152 FB60     		str	r3, [r7, #12]
 1500              	.L106:
 1501              	.LBE10:
 217:QX_Parsing_Functions.c ****         {
 1502              		.loc 1 217 0
 1503 0154 BB68     		ldr	r3, [r7, #8]
 1504 0156 5A1E     		subs	r2, r3, #1
 1505 0158 BA60     		str	r2, [r7, #8]
 1506 015a 002B     		cmp	r3, #0
 1507 015c B2D1     		bne	.L113
 1508              	.L120:
 1509              		.loc 1 228 0
 1510 015e 00BF     		nop
ARM GAS  C:\Users\JENNEW~1\AppData\Local\Temp\cce2sJFM.s 			page 32


 1511 0160 1837     		adds	r7, r7, #24
 1512              		.cfi_def_cfa_offset 8
 1513 0162 BD46     		mov	sp, r7
 1514              		.cfi_def_cfa_register 13
 1515              		@ sp needed
 1516 0164 80BD     		pop	{r7, pc}
 1517              	.L122:
 1518 0166 00BF     		.align	2
 1519              	.L121:
 1520 0168 00000000 		.word	rw
 1521 016c 00000000 		.word	msgPtr
 1522              		.cfi_endproc
 1523              	.LFE15:
 1524              		.size	GetFloatAsSignedShort, .-GetFloatAsSignedShort
 1525              		.section	.text.GetFloatAsSignedChar,"ax",%progbits
 1526              		.align	2
 1527              		.global	GetFloatAsSignedChar
 1528              		.thumb
 1529              		.thumb_func
 1530              		.type	GetFloatAsSignedChar, %function
 1531              	GetFloatAsSignedChar:
 1532              	.LFB16:
 229:QX_Parsing_Functions.c **** 
 230:QX_Parsing_Functions.c **** void GetFloatAsSignedChar(float *v, uint32_t n, float max, float min, float scalefrom)
 231:QX_Parsing_Functions.c **** {
 1533              		.loc 1 231 0
 1534              		.cfi_startproc
 1535              		@ args = 4, pretend = 0, frame = 24
 1536              		@ frame_needed = 1, uses_anonymous_args = 0
 1537 0000 80B5     		push	{r7, lr}
 1538              		.cfi_def_cfa_offset 8
 1539              		.cfi_offset 7, -8
 1540              		.cfi_offset 14, -4
 1541 0002 86B0     		sub	sp, sp, #24
 1542              		.cfi_def_cfa_offset 32
 1543 0004 00AF     		add	r7, sp, #0
 1544              		.cfi_def_cfa_register 7
 1545 0006 F860     		str	r0, [r7, #12]
 1546 0008 B960     		str	r1, [r7, #8]
 1547 000a 7A60     		str	r2, [r7, #4]	@ float
 1548 000c 3B60     		str	r3, [r7]	@ float
 232:QX_Parsing_Functions.c ****     if(rw == QB_Parser_Dir_WriteDel)
 1549              		.loc 1 232 0
 1550 000e 4C4B     		ldr	r3, .L150
 1551 0010 1B78     		ldrb	r3, [r3]	@ zero_extendqisi2
 1552 0012 012B     		cmp	r3, #1
 1553 0014 40F08B80 		bne	.L134
 233:QX_Parsing_Functions.c ****     {
 234:QX_Parsing_Functions.c ****         while(n--)
 1554              		.loc 1 234 0
 1555 0018 45E0     		b	.L125
 1556              	.L132:
 1557              	.LBB11:
 235:QX_Parsing_Functions.c ****         {
 236:QX_Parsing_Functions.c ****             float r = (float)GETSC;
 1558              		.loc 1 236 0
 1559 001a 4A4B     		ldr	r3, .L150+4
ARM GAS  C:\Users\JENNEW~1\AppData\Local\Temp\cce2sJFM.s 			page 33


 1560 001c 1B68     		ldr	r3, [r3]
 1561 001e 5A1C     		adds	r2, r3, #1
 1562 0020 4849     		ldr	r1, .L150+4
 1563 0022 0A60     		str	r2, [r1]
 1564 0024 1B78     		ldrb	r3, [r3]
 1565 0026 DBB2     		uxtb	r3, r3
 1566 0028 5BB2     		sxtb	r3, r3
 1567 002a 1846     		mov	r0, r3
 1568 002c FFF7FEFF 		bl	__aeabi_i2f
 1569 0030 0346     		mov	r3, r0
 1570 0032 7B61     		str	r3, [r7, #20]	@ float
 237:QX_Parsing_Functions.c ****             r = r * scalefrom;
 1571              		.loc 1 237 0
 1572 0034 396A     		ldr	r1, [r7, #32]	@ float
 1573 0036 7869     		ldr	r0, [r7, #20]	@ float
 1574 0038 FFF7FEFF 		bl	__aeabi_fmul
 1575 003c 0346     		mov	r3, r0
 1576 003e 7B61     		str	r3, [r7, #20]	@ float
 238:QX_Parsing_Functions.c ****             *v += r;
 1577              		.loc 1 238 0
 1578 0040 FB68     		ldr	r3, [r7, #12]
 1579 0042 1B68     		ldr	r3, [r3]	@ float
 1580 0044 7969     		ldr	r1, [r7, #20]	@ float
 1581 0046 1846     		mov	r0, r3
 1582 0048 FFF7FEFF 		bl	__aeabi_fadd
 1583 004c 0346     		mov	r3, r0
 1584 004e 1A46     		mov	r2, r3
 1585 0050 FB68     		ldr	r3, [r7, #12]
 1586 0052 1A60     		str	r2, [r3]	@ float
 239:QX_Parsing_Functions.c ****             if(max < *v) *v = max;
 1587              		.loc 1 239 0
 1588 0054 FB68     		ldr	r3, [r7, #12]
 1589 0056 1B68     		ldr	r3, [r3]	@ float
 1590 0058 7968     		ldr	r1, [r7, #4]	@ float
 1591 005a 1846     		mov	r0, r3
 1592 005c FFF7FEFF 		bl	__aeabi_fcmpgt
 1593 0060 0346     		mov	r3, r0
 1594 0062 002B     		cmp	r3, #0
 1595 0064 03D0     		beq	.L148
 1596              		.loc 1 239 0 is_stmt 0 discriminator 1
 1597 0066 FB68     		ldr	r3, [r7, #12]
 1598 0068 7A68     		ldr	r2, [r7, #4]	@ float
 1599 006a 1A60     		str	r2, [r3]	@ float
 1600 006c 0BE0     		b	.L128
 1601              	.L148:
 240:QX_Parsing_Functions.c ****             else if(*v < min) *v = min;
 1602              		.loc 1 240 0 is_stmt 1
 1603 006e FB68     		ldr	r3, [r7, #12]
 1604 0070 1B68     		ldr	r3, [r3]	@ float
 1605 0072 3968     		ldr	r1, [r7]	@ float
 1606 0074 1846     		mov	r0, r3
 1607 0076 FFF7FEFF 		bl	__aeabi_fcmplt
 1608 007a 0346     		mov	r3, r0
 1609 007c 002B     		cmp	r3, #0
 1610 007e 02D0     		beq	.L128
 1611              		.loc 1 240 0 is_stmt 0 discriminator 1
 1612 0080 FB68     		ldr	r3, [r7, #12]
ARM GAS  C:\Users\JENNEW~1\AppData\Local\Temp\cce2sJFM.s 			page 34


 1613 0082 3A68     		ldr	r2, [r7]	@ float
 1614 0084 1A60     		str	r2, [r3]	@ float
 1615              	.L128:
 241:QX_Parsing_Functions.c ****             if(isnan(*v)) *v = 0.0f;
 1616              		.loc 1 241 0 is_stmt 1
 1617 0086 FB68     		ldr	r3, [r7, #12]
 1618 0088 1B68     		ldr	r3, [r3]	@ float
 1619 008a 1946     		mov	r1, r3
 1620 008c 1846     		mov	r0, r3
 1621 008e FFF7FEFF 		bl	__aeabi_fcmpun
 1622 0092 0346     		mov	r3, r0
 1623 0094 002B     		cmp	r3, #0
 1624 0096 03D0     		beq	.L130
 1625              		.loc 1 241 0 is_stmt 0 discriminator 1
 1626 0098 FB68     		ldr	r3, [r7, #12]
 1627 009a 4FF00002 		mov	r2, #0
 1628 009e 1A60     		str	r2, [r3]	@ float
 1629              	.L130:
 242:QX_Parsing_Functions.c ****             v++;
 1630              		.loc 1 242 0 is_stmt 1
 1631 00a0 FB68     		ldr	r3, [r7, #12]
 1632 00a2 0433     		adds	r3, r3, #4
 1633 00a4 FB60     		str	r3, [r7, #12]
 1634              	.L125:
 1635              	.LBE11:
 234:QX_Parsing_Functions.c ****         {
 1636              		.loc 1 234 0
 1637 00a6 BB68     		ldr	r3, [r7, #8]
 1638 00a8 5A1E     		subs	r2, r3, #1
 1639 00aa BA60     		str	r2, [r7, #8]
 1640 00ac 002B     		cmp	r3, #0
 1641 00ae B4D1     		bne	.L132
 243:QX_Parsing_Functions.c ****         }
 244:QX_Parsing_Functions.c ****     }
 245:QX_Parsing_Functions.c ****     else
 246:QX_Parsing_Functions.c ****     {
 247:QX_Parsing_Functions.c ****         while(n--)
 248:QX_Parsing_Functions.c ****         {
 249:QX_Parsing_Functions.c ****             float r = (float)GETSC;
 250:QX_Parsing_Functions.c ****             r = r * scalefrom;
 251:QX_Parsing_Functions.c ****             *v = r;
 252:QX_Parsing_Functions.c ****             if(max < *v) *v = max;
 253:QX_Parsing_Functions.c ****             if(*v < min) *v = min;
 254:QX_Parsing_Functions.c ****             if(isnan(*v)) *v = 0.0f;
 255:QX_Parsing_Functions.c ****             v++;
 256:QX_Parsing_Functions.c ****         }
 257:QX_Parsing_Functions.c ****     }
 258:QX_Parsing_Functions.c **** }
 1642              		.loc 1 258 0
 1643 00b0 42E0     		b	.L149
 1644              	.L141:
 1645              	.LBB12:
 249:QX_Parsing_Functions.c ****             r = r * scalefrom;
 1646              		.loc 1 249 0
 1647 00b2 244B     		ldr	r3, .L150+4
 1648 00b4 1B68     		ldr	r3, [r3]
 1649 00b6 5A1C     		adds	r2, r3, #1
ARM GAS  C:\Users\JENNEW~1\AppData\Local\Temp\cce2sJFM.s 			page 35


 1650 00b8 2249     		ldr	r1, .L150+4
 1651 00ba 0A60     		str	r2, [r1]
 1652 00bc 1B78     		ldrb	r3, [r3]
 1653 00be DBB2     		uxtb	r3, r3
 1654 00c0 5BB2     		sxtb	r3, r3
 1655 00c2 1846     		mov	r0, r3
 1656 00c4 FFF7FEFF 		bl	__aeabi_i2f
 1657 00c8 0346     		mov	r3, r0
 1658 00ca 3B61     		str	r3, [r7, #16]	@ float
 250:QX_Parsing_Functions.c ****             *v = r;
 1659              		.loc 1 250 0
 1660 00cc 396A     		ldr	r1, [r7, #32]	@ float
 1661 00ce 3869     		ldr	r0, [r7, #16]	@ float
 1662 00d0 FFF7FEFF 		bl	__aeabi_fmul
 1663 00d4 0346     		mov	r3, r0
 1664 00d6 3B61     		str	r3, [r7, #16]	@ float
 251:QX_Parsing_Functions.c ****             if(max < *v) *v = max;
 1665              		.loc 1 251 0
 1666 00d8 FB68     		ldr	r3, [r7, #12]
 1667 00da 3A69     		ldr	r2, [r7, #16]	@ float
 1668 00dc 1A60     		str	r2, [r3]	@ float
 252:QX_Parsing_Functions.c ****             if(*v < min) *v = min;
 1669              		.loc 1 252 0
 1670 00de FB68     		ldr	r3, [r7, #12]
 1671 00e0 1B68     		ldr	r3, [r3]	@ float
 1672 00e2 7968     		ldr	r1, [r7, #4]	@ float
 1673 00e4 1846     		mov	r0, r3
 1674 00e6 FFF7FEFF 		bl	__aeabi_fcmpgt
 1675 00ea 0346     		mov	r3, r0
 1676 00ec 002B     		cmp	r3, #0
 1677 00ee 02D0     		beq	.L135
 252:QX_Parsing_Functions.c ****             if(*v < min) *v = min;
 1678              		.loc 1 252 0 is_stmt 0 discriminator 1
 1679 00f0 FB68     		ldr	r3, [r7, #12]
 1680 00f2 7A68     		ldr	r2, [r7, #4]	@ float
 1681 00f4 1A60     		str	r2, [r3]	@ float
 1682              	.L135:
 253:QX_Parsing_Functions.c ****             if(isnan(*v)) *v = 0.0f;
 1683              		.loc 1 253 0 is_stmt 1
 1684 00f6 FB68     		ldr	r3, [r7, #12]
 1685 00f8 1B68     		ldr	r3, [r3]	@ float
 1686 00fa 3968     		ldr	r1, [r7]	@ float
 1687 00fc 1846     		mov	r0, r3
 1688 00fe FFF7FEFF 		bl	__aeabi_fcmplt
 1689 0102 0346     		mov	r3, r0
 1690 0104 002B     		cmp	r3, #0
 1691 0106 02D0     		beq	.L137
 253:QX_Parsing_Functions.c ****             if(isnan(*v)) *v = 0.0f;
 1692              		.loc 1 253 0 is_stmt 0 discriminator 1
 1693 0108 FB68     		ldr	r3, [r7, #12]
 1694 010a 3A68     		ldr	r2, [r7]	@ float
 1695 010c 1A60     		str	r2, [r3]	@ float
 1696              	.L137:
 254:QX_Parsing_Functions.c ****             v++;
 1697              		.loc 1 254 0 is_stmt 1
 1698 010e FB68     		ldr	r3, [r7, #12]
 1699 0110 1B68     		ldr	r3, [r3]	@ float
ARM GAS  C:\Users\JENNEW~1\AppData\Local\Temp\cce2sJFM.s 			page 36


 1700 0112 1946     		mov	r1, r3
 1701 0114 1846     		mov	r0, r3
 1702 0116 FFF7FEFF 		bl	__aeabi_fcmpun
 1703 011a 0346     		mov	r3, r0
 1704 011c 002B     		cmp	r3, #0
 1705 011e 03D0     		beq	.L139
 254:QX_Parsing_Functions.c ****             v++;
 1706              		.loc 1 254 0 is_stmt 0 discriminator 1
 1707 0120 FB68     		ldr	r3, [r7, #12]
 1708 0122 4FF00002 		mov	r2, #0
 1709 0126 1A60     		str	r2, [r3]	@ float
 1710              	.L139:
 255:QX_Parsing_Functions.c ****         }
 1711              		.loc 1 255 0 is_stmt 1
 1712 0128 FB68     		ldr	r3, [r7, #12]
 1713 012a 0433     		adds	r3, r3, #4
 1714 012c FB60     		str	r3, [r7, #12]
 1715              	.L134:
 1716              	.LBE12:
 247:QX_Parsing_Functions.c ****         {
 1717              		.loc 1 247 0
 1718 012e BB68     		ldr	r3, [r7, #8]
 1719 0130 5A1E     		subs	r2, r3, #1
 1720 0132 BA60     		str	r2, [r7, #8]
 1721 0134 002B     		cmp	r3, #0
 1722 0136 BCD1     		bne	.L141
 1723              	.L149:
 1724              		.loc 1 258 0
 1725 0138 00BF     		nop
 1726 013a 1837     		adds	r7, r7, #24
 1727              		.cfi_def_cfa_offset 8
 1728 013c BD46     		mov	sp, r7
 1729              		.cfi_def_cfa_register 13
 1730              		@ sp needed
 1731 013e 80BD     		pop	{r7, pc}
 1732              	.L151:
 1733              		.align	2
 1734              	.L150:
 1735 0140 00000000 		.word	rw
 1736 0144 00000000 		.word	msgPtr
 1737              		.cfi_endproc
 1738              	.LFE16:
 1739              		.size	GetFloatAsSignedChar, .-GetFloatAsSignedChar
 1740              		.global	__aeabi_ui2f
 1741              		.section	.text.GetFloatAsUnsignedChar,"ax",%progbits
 1742              		.align	2
 1743              		.global	GetFloatAsUnsignedChar
 1744              		.thumb
 1745              		.thumb_func
 1746              		.type	GetFloatAsUnsignedChar, %function
 1747              	GetFloatAsUnsignedChar:
 1748              	.LFB17:
 259:QX_Parsing_Functions.c **** 
 260:QX_Parsing_Functions.c **** void GetFloatAsUnsignedChar(float *v, uint32_t n, float max, float min, float scalefrom)
 261:QX_Parsing_Functions.c **** {
 1749              		.loc 1 261 0
 1750              		.cfi_startproc
ARM GAS  C:\Users\JENNEW~1\AppData\Local\Temp\cce2sJFM.s 			page 37


 1751              		@ args = 4, pretend = 0, frame = 24
 1752              		@ frame_needed = 1, uses_anonymous_args = 0
 1753 0000 80B5     		push	{r7, lr}
 1754              		.cfi_def_cfa_offset 8
 1755              		.cfi_offset 7, -8
 1756              		.cfi_offset 14, -4
 1757 0002 86B0     		sub	sp, sp, #24
 1758              		.cfi_def_cfa_offset 32
 1759 0004 00AF     		add	r7, sp, #0
 1760              		.cfi_def_cfa_register 7
 1761 0006 F860     		str	r0, [r7, #12]
 1762 0008 B960     		str	r1, [r7, #8]
 1763 000a 7A60     		str	r2, [r7, #4]	@ float
 1764 000c 3B60     		str	r3, [r7]	@ float
 262:QX_Parsing_Functions.c ****     if(rw == QB_Parser_Dir_WriteDel)
 1765              		.loc 1 262 0
 1766 000e 4B4B     		ldr	r3, .L178
 1767 0010 1B78     		ldrb	r3, [r3]	@ zero_extendqisi2
 1768 0012 012B     		cmp	r3, #1
 1769 0014 40F08980 		bne	.L163
 263:QX_Parsing_Functions.c ****     {
 264:QX_Parsing_Functions.c ****         while(n--)
 1770              		.loc 1 264 0
 1771 0018 44E0     		b	.L154
 1772              	.L161:
 1773              	.LBB13:
 265:QX_Parsing_Functions.c ****         {
 266:QX_Parsing_Functions.c ****             float r = (float)GETSC;
 1774              		.loc 1 266 0
 1775 001a 494B     		ldr	r3, .L178+4
 1776 001c 1B68     		ldr	r3, [r3]
 1777 001e 5A1C     		adds	r2, r3, #1
 1778 0020 4749     		ldr	r1, .L178+4
 1779 0022 0A60     		str	r2, [r1]
 1780 0024 1B78     		ldrb	r3, [r3]
 1781 0026 DBB2     		uxtb	r3, r3
 1782 0028 5BB2     		sxtb	r3, r3
 1783 002a 1846     		mov	r0, r3
 1784 002c FFF7FEFF 		bl	__aeabi_i2f
 1785 0030 0346     		mov	r3, r0
 1786 0032 7B61     		str	r3, [r7, #20]	@ float
 267:QX_Parsing_Functions.c ****             r = r * scalefrom;
 1787              		.loc 1 267 0
 1788 0034 396A     		ldr	r1, [r7, #32]	@ float
 1789 0036 7869     		ldr	r0, [r7, #20]	@ float
 1790 0038 FFF7FEFF 		bl	__aeabi_fmul
 1791 003c 0346     		mov	r3, r0
 1792 003e 7B61     		str	r3, [r7, #20]	@ float
 268:QX_Parsing_Functions.c ****             *v += (float)r;
 1793              		.loc 1 268 0
 1794 0040 FB68     		ldr	r3, [r7, #12]
 1795 0042 1B68     		ldr	r3, [r3]	@ float
 1796 0044 7969     		ldr	r1, [r7, #20]	@ float
 1797 0046 1846     		mov	r0, r3
 1798 0048 FFF7FEFF 		bl	__aeabi_fadd
 1799 004c 0346     		mov	r3, r0
 1800 004e 1A46     		mov	r2, r3
ARM GAS  C:\Users\JENNEW~1\AppData\Local\Temp\cce2sJFM.s 			page 38


 1801 0050 FB68     		ldr	r3, [r7, #12]
 1802 0052 1A60     		str	r2, [r3]	@ float
 269:QX_Parsing_Functions.c ****             if(max < *v) *v = max;
 1803              		.loc 1 269 0
 1804 0054 FB68     		ldr	r3, [r7, #12]
 1805 0056 1B68     		ldr	r3, [r3]	@ float
 1806 0058 7968     		ldr	r1, [r7, #4]	@ float
 1807 005a 1846     		mov	r0, r3
 1808 005c FFF7FEFF 		bl	__aeabi_fcmpgt
 1809 0060 0346     		mov	r3, r0
 1810 0062 002B     		cmp	r3, #0
 1811 0064 02D0     		beq	.L155
 1812              		.loc 1 269 0 is_stmt 0 discriminator 1
 1813 0066 FB68     		ldr	r3, [r7, #12]
 1814 0068 7A68     		ldr	r2, [r7, #4]	@ float
 1815 006a 1A60     		str	r2, [r3]	@ float
 1816              	.L155:
 270:QX_Parsing_Functions.c ****             if(*v < min) *v = min;
 1817              		.loc 1 270 0 is_stmt 1
 1818 006c FB68     		ldr	r3, [r7, #12]
 1819 006e 1B68     		ldr	r3, [r3]	@ float
 1820 0070 3968     		ldr	r1, [r7]	@ float
 1821 0072 1846     		mov	r0, r3
 1822 0074 FFF7FEFF 		bl	__aeabi_fcmplt
 1823 0078 0346     		mov	r3, r0
 1824 007a 002B     		cmp	r3, #0
 1825 007c 02D0     		beq	.L157
 1826              		.loc 1 270 0 is_stmt 0 discriminator 1
 1827 007e FB68     		ldr	r3, [r7, #12]
 1828 0080 3A68     		ldr	r2, [r7]	@ float
 1829 0082 1A60     		str	r2, [r3]	@ float
 1830              	.L157:
 271:QX_Parsing_Functions.c ****             if(isnan(*v)) *v = 0.0f;
 1831              		.loc 1 271 0 is_stmt 1
 1832 0084 FB68     		ldr	r3, [r7, #12]
 1833 0086 1B68     		ldr	r3, [r3]	@ float
 1834 0088 1946     		mov	r1, r3
 1835 008a 1846     		mov	r0, r3
 1836 008c FFF7FEFF 		bl	__aeabi_fcmpun
 1837 0090 0346     		mov	r3, r0
 1838 0092 002B     		cmp	r3, #0
 1839 0094 03D0     		beq	.L159
 1840              		.loc 1 271 0 is_stmt 0 discriminator 1
 1841 0096 FB68     		ldr	r3, [r7, #12]
 1842 0098 4FF00002 		mov	r2, #0
 1843 009c 1A60     		str	r2, [r3]	@ float
 1844              	.L159:
 272:QX_Parsing_Functions.c ****             v++;
 1845              		.loc 1 272 0 is_stmt 1
 1846 009e FB68     		ldr	r3, [r7, #12]
 1847 00a0 0433     		adds	r3, r3, #4
 1848 00a2 FB60     		str	r3, [r7, #12]
 1849              	.L154:
 1850              	.LBE13:
 264:QX_Parsing_Functions.c ****         {
 1851              		.loc 1 264 0
 1852 00a4 BB68     		ldr	r3, [r7, #8]
ARM GAS  C:\Users\JENNEW~1\AppData\Local\Temp\cce2sJFM.s 			page 39


 1853 00a6 5A1E     		subs	r2, r3, #1
 1854 00a8 BA60     		str	r2, [r7, #8]
 1855 00aa 002B     		cmp	r3, #0
 1856 00ac B5D1     		bne	.L161
 273:QX_Parsing_Functions.c ****         }
 274:QX_Parsing_Functions.c ****     }
 275:QX_Parsing_Functions.c ****     else
 276:QX_Parsing_Functions.c ****     {
 277:QX_Parsing_Functions.c ****         while(n--)
 278:QX_Parsing_Functions.c ****         {
 279:QX_Parsing_Functions.c ****             float r = (float)GETUC;
 280:QX_Parsing_Functions.c ****             r = r * scalefrom;
 281:QX_Parsing_Functions.c ****             *v = (float)r;
 282:QX_Parsing_Functions.c ****             if(max < *v) *v = max;
 283:QX_Parsing_Functions.c ****             if(*v < min) *v = min;
 284:QX_Parsing_Functions.c ****             if(isnan(*v)) *v = 0.0f;
 285:QX_Parsing_Functions.c ****             v++;
 286:QX_Parsing_Functions.c ****         }
 287:QX_Parsing_Functions.c ****     }
 288:QX_Parsing_Functions.c **** }
 1857              		.loc 1 288 0
 1858 00ae 41E0     		b	.L177
 1859              	.L170:
 1860              	.LBB14:
 279:QX_Parsing_Functions.c ****             r = r * scalefrom;
 1861              		.loc 1 279 0
 1862 00b0 234B     		ldr	r3, .L178+4
 1863 00b2 1B68     		ldr	r3, [r3]
 1864 00b4 5A1C     		adds	r2, r3, #1
 1865 00b6 2249     		ldr	r1, .L178+4
 1866 00b8 0A60     		str	r2, [r1]
 1867 00ba 1B78     		ldrb	r3, [r3]
 1868 00bc DBB2     		uxtb	r3, r3
 1869 00be 1846     		mov	r0, r3
 1870 00c0 FFF7FEFF 		bl	__aeabi_ui2f
 1871 00c4 0346     		mov	r3, r0
 1872 00c6 3B61     		str	r3, [r7, #16]	@ float
 280:QX_Parsing_Functions.c ****             *v = (float)r;
 1873              		.loc 1 280 0
 1874 00c8 396A     		ldr	r1, [r7, #32]	@ float
 1875 00ca 3869     		ldr	r0, [r7, #16]	@ float
 1876 00cc FFF7FEFF 		bl	__aeabi_fmul
 1877 00d0 0346     		mov	r3, r0
 1878 00d2 3B61     		str	r3, [r7, #16]	@ float
 281:QX_Parsing_Functions.c ****             if(max < *v) *v = max;
 1879              		.loc 1 281 0
 1880 00d4 FB68     		ldr	r3, [r7, #12]
 1881 00d6 3A69     		ldr	r2, [r7, #16]	@ float
 1882 00d8 1A60     		str	r2, [r3]	@ float
 282:QX_Parsing_Functions.c ****             if(*v < min) *v = min;
 1883              		.loc 1 282 0
 1884 00da FB68     		ldr	r3, [r7, #12]
 1885 00dc 1B68     		ldr	r3, [r3]	@ float
 1886 00de 7968     		ldr	r1, [r7, #4]	@ float
 1887 00e0 1846     		mov	r0, r3
 1888 00e2 FFF7FEFF 		bl	__aeabi_fcmpgt
 1889 00e6 0346     		mov	r3, r0
ARM GAS  C:\Users\JENNEW~1\AppData\Local\Temp\cce2sJFM.s 			page 40


 1890 00e8 002B     		cmp	r3, #0
 1891 00ea 02D0     		beq	.L164
 282:QX_Parsing_Functions.c ****             if(*v < min) *v = min;
 1892              		.loc 1 282 0 is_stmt 0 discriminator 1
 1893 00ec FB68     		ldr	r3, [r7, #12]
 1894 00ee 7A68     		ldr	r2, [r7, #4]	@ float
 1895 00f0 1A60     		str	r2, [r3]	@ float
 1896              	.L164:
 283:QX_Parsing_Functions.c ****             if(isnan(*v)) *v = 0.0f;
 1897              		.loc 1 283 0 is_stmt 1
 1898 00f2 FB68     		ldr	r3, [r7, #12]
 1899 00f4 1B68     		ldr	r3, [r3]	@ float
 1900 00f6 3968     		ldr	r1, [r7]	@ float
 1901 00f8 1846     		mov	r0, r3
 1902 00fa FFF7FEFF 		bl	__aeabi_fcmplt
 1903 00fe 0346     		mov	r3, r0
 1904 0100 002B     		cmp	r3, #0
 1905 0102 02D0     		beq	.L166
 283:QX_Parsing_Functions.c ****             if(isnan(*v)) *v = 0.0f;
 1906              		.loc 1 283 0 is_stmt 0 discriminator 1
 1907 0104 FB68     		ldr	r3, [r7, #12]
 1908 0106 3A68     		ldr	r2, [r7]	@ float
 1909 0108 1A60     		str	r2, [r3]	@ float
 1910              	.L166:
 284:QX_Parsing_Functions.c ****             v++;
 1911              		.loc 1 284 0 is_stmt 1
 1912 010a FB68     		ldr	r3, [r7, #12]
 1913 010c 1B68     		ldr	r3, [r3]	@ float
 1914 010e 1946     		mov	r1, r3
 1915 0110 1846     		mov	r0, r3
 1916 0112 FFF7FEFF 		bl	__aeabi_fcmpun
 1917 0116 0346     		mov	r3, r0
 1918 0118 002B     		cmp	r3, #0
 1919 011a 03D0     		beq	.L168
 284:QX_Parsing_Functions.c ****             v++;
 1920              		.loc 1 284 0 is_stmt 0 discriminator 1
 1921 011c FB68     		ldr	r3, [r7, #12]
 1922 011e 4FF00002 		mov	r2, #0
 1923 0122 1A60     		str	r2, [r3]	@ float
 1924              	.L168:
 285:QX_Parsing_Functions.c ****         }
 1925              		.loc 1 285 0 is_stmt 1
 1926 0124 FB68     		ldr	r3, [r7, #12]
 1927 0126 0433     		adds	r3, r3, #4
 1928 0128 FB60     		str	r3, [r7, #12]
 1929              	.L163:
 1930              	.LBE14:
 277:QX_Parsing_Functions.c ****         {
 1931              		.loc 1 277 0
 1932 012a BB68     		ldr	r3, [r7, #8]
 1933 012c 5A1E     		subs	r2, r3, #1
 1934 012e BA60     		str	r2, [r7, #8]
 1935 0130 002B     		cmp	r3, #0
 1936 0132 BDD1     		bne	.L170
 1937              	.L177:
 1938              		.loc 1 288 0
 1939 0134 00BF     		nop
ARM GAS  C:\Users\JENNEW~1\AppData\Local\Temp\cce2sJFM.s 			page 41


 1940 0136 1837     		adds	r7, r7, #24
 1941              		.cfi_def_cfa_offset 8
 1942 0138 BD46     		mov	sp, r7
 1943              		.cfi_def_cfa_register 13
 1944              		@ sp needed
 1945 013a 80BD     		pop	{r7, pc}
 1946              	.L179:
 1947              		.align	2
 1948              	.L178:
 1949 013c 00000000 		.word	rw
 1950 0140 00000000 		.word	msgPtr
 1951              		.cfi_endproc
 1952              	.LFE17:
 1953              		.size	GetFloatAsUnsignedChar, .-GetFloatAsUnsignedChar
 1954              		.section	.text.GetFloatAsUnsignedShort,"ax",%progbits
 1955              		.align	2
 1956              		.global	GetFloatAsUnsignedShort
 1957              		.thumb
 1958              		.thumb_func
 1959              		.type	GetFloatAsUnsignedShort, %function
 1960              	GetFloatAsUnsignedShort:
 1961              	.LFB18:
 289:QX_Parsing_Functions.c **** 
 290:QX_Parsing_Functions.c **** void GetFloatAsUnsignedShort(float *v, uint32_t n, float max, float min, float scalefrom)
 291:QX_Parsing_Functions.c **** {
 1962              		.loc 1 291 0
 1963              		.cfi_startproc
 1964              		@ args = 4, pretend = 0, frame = 24
 1965              		@ frame_needed = 1, uses_anonymous_args = 0
 1966 0000 80B5     		push	{r7, lr}
 1967              		.cfi_def_cfa_offset 8
 1968              		.cfi_offset 7, -8
 1969              		.cfi_offset 14, -4
 1970 0002 86B0     		sub	sp, sp, #24
 1971              		.cfi_def_cfa_offset 32
 1972 0004 00AF     		add	r7, sp, #0
 1973              		.cfi_def_cfa_register 7
 1974 0006 F860     		str	r0, [r7, #12]
 1975 0008 B960     		str	r1, [r7, #8]
 1976 000a 7A60     		str	r2, [r7, #4]	@ float
 1977 000c 3B60     		str	r3, [r7]	@ float
 292:QX_Parsing_Functions.c ****     if(rw == QB_Parser_Dir_WriteDel)
 1978              		.loc 1 292 0
 1979 000e 574B     		ldr	r3, .L206
 1980 0010 1B78     		ldrb	r3, [r3]	@ zero_extendqisi2
 1981 0012 012B     		cmp	r3, #1
 1982 0014 40F0A080 		bne	.L191
 293:QX_Parsing_Functions.c ****     {
 294:QX_Parsing_Functions.c ****         while(n--)
 1983              		.loc 1 294 0
 1984 0018 4FE0     		b	.L182
 1985              	.L189:
 1986              	.LBB15:
 295:QX_Parsing_Functions.c ****         {
 296:QX_Parsing_Functions.c ****             float r = (float)GETUS;
 1987              		.loc 1 296 0
 1988 001a 554B     		ldr	r3, .L206+4
ARM GAS  C:\Users\JENNEW~1\AppData\Local\Temp\cce2sJFM.s 			page 42


 1989 001c 1B68     		ldr	r3, [r3]
 1990 001e 1B78     		ldrb	r3, [r3]
 1991 0020 DBB2     		uxtb	r3, r3
 1992 0022 9BB2     		uxth	r3, r3
 1993 0024 1B02     		lsls	r3, r3, #8
 1994 0026 9BB2     		uxth	r3, r3
 1995 0028 1A46     		mov	r2, r3
 1996 002a 514B     		ldr	r3, .L206+4
 1997 002c 1B68     		ldr	r3, [r3]
 1998 002e 0133     		adds	r3, r3, #1
 1999 0030 1B78     		ldrb	r3, [r3]
 2000 0032 DBB2     		uxtb	r3, r3
 2001 0034 1343     		orrs	r3, r3, r2
 2002 0036 1846     		mov	r0, r3
 2003 0038 FFF7FEFF 		bl	__aeabi_i2f
 2004 003c 0346     		mov	r3, r0
 2005 003e 7B61     		str	r3, [r7, #20]	@ float
 2006 0040 4B4B     		ldr	r3, .L206+4
 2007 0042 1B68     		ldr	r3, [r3]
 2008 0044 0233     		adds	r3, r3, #2
 2009 0046 4A4A     		ldr	r2, .L206+4
 2010 0048 1360     		str	r3, [r2]
 297:QX_Parsing_Functions.c ****             r = r * scalefrom;
 2011              		.loc 1 297 0
 2012 004a 396A     		ldr	r1, [r7, #32]	@ float
 2013 004c 7869     		ldr	r0, [r7, #20]	@ float
 2014 004e FFF7FEFF 		bl	__aeabi_fmul
 2015 0052 0346     		mov	r3, r0
 2016 0054 7B61     		str	r3, [r7, #20]	@ float
 298:QX_Parsing_Functions.c ****             *v += (float)r;
 2017              		.loc 1 298 0
 2018 0056 FB68     		ldr	r3, [r7, #12]
 2019 0058 1B68     		ldr	r3, [r3]	@ float
 2020 005a 7969     		ldr	r1, [r7, #20]	@ float
 2021 005c 1846     		mov	r0, r3
 2022 005e FFF7FEFF 		bl	__aeabi_fadd
 2023 0062 0346     		mov	r3, r0
 2024 0064 1A46     		mov	r2, r3
 2025 0066 FB68     		ldr	r3, [r7, #12]
 2026 0068 1A60     		str	r2, [r3]	@ float
 299:QX_Parsing_Functions.c ****             if(max < *v) *v = max;
 2027              		.loc 1 299 0
 2028 006a FB68     		ldr	r3, [r7, #12]
 2029 006c 1B68     		ldr	r3, [r3]	@ float
 2030 006e 7968     		ldr	r1, [r7, #4]	@ float
 2031 0070 1846     		mov	r0, r3
 2032 0072 FFF7FEFF 		bl	__aeabi_fcmpgt
 2033 0076 0346     		mov	r3, r0
 2034 0078 002B     		cmp	r3, #0
 2035 007a 02D0     		beq	.L183
 2036              		.loc 1 299 0 is_stmt 0 discriminator 1
 2037 007c FB68     		ldr	r3, [r7, #12]
 2038 007e 7A68     		ldr	r2, [r7, #4]	@ float
 2039 0080 1A60     		str	r2, [r3]	@ float
 2040              	.L183:
 300:QX_Parsing_Functions.c ****             if(*v < min) *v = min;
 2041              		.loc 1 300 0 is_stmt 1
ARM GAS  C:\Users\JENNEW~1\AppData\Local\Temp\cce2sJFM.s 			page 43


 2042 0082 FB68     		ldr	r3, [r7, #12]
 2043 0084 1B68     		ldr	r3, [r3]	@ float
 2044 0086 3968     		ldr	r1, [r7]	@ float
 2045 0088 1846     		mov	r0, r3
 2046 008a FFF7FEFF 		bl	__aeabi_fcmplt
 2047 008e 0346     		mov	r3, r0
 2048 0090 002B     		cmp	r3, #0
 2049 0092 02D0     		beq	.L185
 2050              		.loc 1 300 0 is_stmt 0 discriminator 1
 2051 0094 FB68     		ldr	r3, [r7, #12]
 2052 0096 3A68     		ldr	r2, [r7]	@ float
 2053 0098 1A60     		str	r2, [r3]	@ float
 2054              	.L185:
 301:QX_Parsing_Functions.c ****             if(isnan(*v)) *v = 0.0f;
 2055              		.loc 1 301 0 is_stmt 1
 2056 009a FB68     		ldr	r3, [r7, #12]
 2057 009c 1B68     		ldr	r3, [r3]	@ float
 2058 009e 1946     		mov	r1, r3
 2059 00a0 1846     		mov	r0, r3
 2060 00a2 FFF7FEFF 		bl	__aeabi_fcmpun
 2061 00a6 0346     		mov	r3, r0
 2062 00a8 002B     		cmp	r3, #0
 2063 00aa 03D0     		beq	.L187
 2064              		.loc 1 301 0 is_stmt 0 discriminator 1
 2065 00ac FB68     		ldr	r3, [r7, #12]
 2066 00ae 4FF00002 		mov	r2, #0
 2067 00b2 1A60     		str	r2, [r3]	@ float
 2068              	.L187:
 302:QX_Parsing_Functions.c ****             v++;
 2069              		.loc 1 302 0 is_stmt 1
 2070 00b4 FB68     		ldr	r3, [r7, #12]
 2071 00b6 0433     		adds	r3, r3, #4
 2072 00b8 FB60     		str	r3, [r7, #12]
 2073              	.L182:
 2074              	.LBE15:
 294:QX_Parsing_Functions.c ****         {
 2075              		.loc 1 294 0
 2076 00ba BB68     		ldr	r3, [r7, #8]
 2077 00bc 5A1E     		subs	r2, r3, #1
 2078 00be BA60     		str	r2, [r7, #8]
 2079 00c0 002B     		cmp	r3, #0
 2080 00c2 AAD1     		bne	.L189
 303:QX_Parsing_Functions.c ****         }
 304:QX_Parsing_Functions.c ****     }
 305:QX_Parsing_Functions.c ****     else
 306:QX_Parsing_Functions.c ****     {
 307:QX_Parsing_Functions.c ****         while(n--)
 308:QX_Parsing_Functions.c ****         {
 309:QX_Parsing_Functions.c ****             float r = (float)GETUS;
 310:QX_Parsing_Functions.c ****             r = r * scalefrom;
 311:QX_Parsing_Functions.c ****             *v = (float)r;
 312:QX_Parsing_Functions.c ****             if(max < *v) *v = max;
 313:QX_Parsing_Functions.c ****             if(*v < min) *v = min;
 314:QX_Parsing_Functions.c ****             if(isnan(*v)) *v = 0.0f;
 315:QX_Parsing_Functions.c ****             v++;
 316:QX_Parsing_Functions.c ****         }
 317:QX_Parsing_Functions.c ****     }
ARM GAS  C:\Users\JENNEW~1\AppData\Local\Temp\cce2sJFM.s 			page 44


 318:QX_Parsing_Functions.c **** }
 2081              		.loc 1 318 0
 2082 00c4 4DE0     		b	.L205
 2083              	.L198:
 2084              	.LBB16:
 309:QX_Parsing_Functions.c ****             r = r * scalefrom;
 2085              		.loc 1 309 0
 2086 00c6 2A4B     		ldr	r3, .L206+4
 2087 00c8 1B68     		ldr	r3, [r3]
 2088 00ca 1B78     		ldrb	r3, [r3]
 2089 00cc DBB2     		uxtb	r3, r3
 2090 00ce 9BB2     		uxth	r3, r3
 2091 00d0 1B02     		lsls	r3, r3, #8
 2092 00d2 9BB2     		uxth	r3, r3
 2093 00d4 1A46     		mov	r2, r3
 2094 00d6 264B     		ldr	r3, .L206+4
 2095 00d8 1B68     		ldr	r3, [r3]
 2096 00da 0133     		adds	r3, r3, #1
 2097 00dc 1B78     		ldrb	r3, [r3]
 2098 00de DBB2     		uxtb	r3, r3
 2099 00e0 1343     		orrs	r3, r3, r2
 2100 00e2 1846     		mov	r0, r3
 2101 00e4 FFF7FEFF 		bl	__aeabi_i2f
 2102 00e8 0346     		mov	r3, r0
 2103 00ea 3B61     		str	r3, [r7, #16]	@ float
 2104 00ec 204B     		ldr	r3, .L206+4
 2105 00ee 1B68     		ldr	r3, [r3]
 2106 00f0 0233     		adds	r3, r3, #2
 2107 00f2 1F4A     		ldr	r2, .L206+4
 2108 00f4 1360     		str	r3, [r2]
 310:QX_Parsing_Functions.c ****             *v = (float)r;
 2109              		.loc 1 310 0
 2110 00f6 396A     		ldr	r1, [r7, #32]	@ float
 2111 00f8 3869     		ldr	r0, [r7, #16]	@ float
 2112 00fa FFF7FEFF 		bl	__aeabi_fmul
 2113 00fe 0346     		mov	r3, r0
 2114 0100 3B61     		str	r3, [r7, #16]	@ float
 311:QX_Parsing_Functions.c ****             if(max < *v) *v = max;
 2115              		.loc 1 311 0
 2116 0102 FB68     		ldr	r3, [r7, #12]
 2117 0104 3A69     		ldr	r2, [r7, #16]	@ float
 2118 0106 1A60     		str	r2, [r3]	@ float
 312:QX_Parsing_Functions.c ****             if(*v < min) *v = min;
 2119              		.loc 1 312 0
 2120 0108 FB68     		ldr	r3, [r7, #12]
 2121 010a 1B68     		ldr	r3, [r3]	@ float
 2122 010c 7968     		ldr	r1, [r7, #4]	@ float
 2123 010e 1846     		mov	r0, r3
 2124 0110 FFF7FEFF 		bl	__aeabi_fcmpgt
 2125 0114 0346     		mov	r3, r0
 2126 0116 002B     		cmp	r3, #0
 2127 0118 02D0     		beq	.L192
 312:QX_Parsing_Functions.c ****             if(*v < min) *v = min;
 2128              		.loc 1 312 0 is_stmt 0 discriminator 1
 2129 011a FB68     		ldr	r3, [r7, #12]
 2130 011c 7A68     		ldr	r2, [r7, #4]	@ float
 2131 011e 1A60     		str	r2, [r3]	@ float
ARM GAS  C:\Users\JENNEW~1\AppData\Local\Temp\cce2sJFM.s 			page 45


 2132              	.L192:
 313:QX_Parsing_Functions.c ****             if(isnan(*v)) *v = 0.0f;
 2133              		.loc 1 313 0 is_stmt 1
 2134 0120 FB68     		ldr	r3, [r7, #12]
 2135 0122 1B68     		ldr	r3, [r3]	@ float
 2136 0124 3968     		ldr	r1, [r7]	@ float
 2137 0126 1846     		mov	r0, r3
 2138 0128 FFF7FEFF 		bl	__aeabi_fcmplt
 2139 012c 0346     		mov	r3, r0
 2140 012e 002B     		cmp	r3, #0
 2141 0130 02D0     		beq	.L194
 313:QX_Parsing_Functions.c ****             if(isnan(*v)) *v = 0.0f;
 2142              		.loc 1 313 0 is_stmt 0 discriminator 1
 2143 0132 FB68     		ldr	r3, [r7, #12]
 2144 0134 3A68     		ldr	r2, [r7]	@ float
 2145 0136 1A60     		str	r2, [r3]	@ float
 2146              	.L194:
 314:QX_Parsing_Functions.c ****             v++;
 2147              		.loc 1 314 0 is_stmt 1
 2148 0138 FB68     		ldr	r3, [r7, #12]
 2149 013a 1B68     		ldr	r3, [r3]	@ float
 2150 013c 1946     		mov	r1, r3
 2151 013e 1846     		mov	r0, r3
 2152 0140 FFF7FEFF 		bl	__aeabi_fcmpun
 2153 0144 0346     		mov	r3, r0
 2154 0146 002B     		cmp	r3, #0
 2155 0148 03D0     		beq	.L196
 314:QX_Parsing_Functions.c ****             v++;
 2156              		.loc 1 314 0 is_stmt 0 discriminator 1
 2157 014a FB68     		ldr	r3, [r7, #12]
 2158 014c 4FF00002 		mov	r2, #0
 2159 0150 1A60     		str	r2, [r3]	@ float
 2160              	.L196:
 315:QX_Parsing_Functions.c ****         }
 2161              		.loc 1 315 0 is_stmt 1
 2162 0152 FB68     		ldr	r3, [r7, #12]
 2163 0154 0433     		adds	r3, r3, #4
 2164 0156 FB60     		str	r3, [r7, #12]
 2165              	.L191:
 2166              	.LBE16:
 307:QX_Parsing_Functions.c ****         {
 2167              		.loc 1 307 0
 2168 0158 BB68     		ldr	r3, [r7, #8]
 2169 015a 5A1E     		subs	r2, r3, #1
 2170 015c BA60     		str	r2, [r7, #8]
 2171 015e 002B     		cmp	r3, #0
 2172 0160 B1D1     		bne	.L198
 2173              	.L205:
 2174              		.loc 1 318 0
 2175 0162 00BF     		nop
 2176 0164 1837     		adds	r7, r7, #24
 2177              		.cfi_def_cfa_offset 8
 2178 0166 BD46     		mov	sp, r7
 2179              		.cfi_def_cfa_register 13
 2180              		@ sp needed
 2181 0168 80BD     		pop	{r7, pc}
 2182              	.L207:
ARM GAS  C:\Users\JENNEW~1\AppData\Local\Temp\cce2sJFM.s 			page 46


 2183 016a 00BF     		.align	2
 2184              	.L206:
 2185 016c 00000000 		.word	rw
 2186 0170 00000000 		.word	msgPtr
 2187              		.cfi_endproc
 2188              	.LFE18:
 2189              		.size	GetFloatAsUnsignedShort, .-GetFloatAsUnsignedShort
 2190              		.section	.text.AddSignedLongAsSignedLong,"ax",%progbits
 2191              		.align	2
 2192              		.global	AddSignedLongAsSignedLong
 2193              		.thumb
 2194              		.thumb_func
 2195              		.type	AddSignedLongAsSignedLong, %function
 2196              	AddSignedLongAsSignedLong:
 2197              	.LFB19:
 319:QX_Parsing_Functions.c **** 
 320:QX_Parsing_Functions.c **** void AddSignedLongAsSignedLong(int32_t *v, uint32_t n)
 321:QX_Parsing_Functions.c **** {
 2198              		.loc 1 321 0
 2199              		.cfi_startproc
 2200              		@ args = 0, pretend = 0, frame = 16
 2201              		@ frame_needed = 1, uses_anonymous_args = 0
 2202              		@ link register save eliminated.
 2203 0000 80B4     		push	{r7}
 2204              		.cfi_def_cfa_offset 4
 2205              		.cfi_offset 7, -4
 2206 0002 85B0     		sub	sp, sp, #20
 2207              		.cfi_def_cfa_offset 24
 2208 0004 00AF     		add	r7, sp, #0
 2209              		.cfi_def_cfa_register 7
 2210 0006 7860     		str	r0, [r7, #4]
 2211 0008 3960     		str	r1, [r7]
 322:QX_Parsing_Functions.c ****     while(n--)
 2212              		.loc 1 322 0
 2213 000a 28E0     		b	.L209
 2214              	.L210:
 2215              	.LBB17:
 323:QX_Parsing_Functions.c ****     {
 324:QX_Parsing_Functions.c ****         int32_t value = *v;
 2216              		.loc 1 324 0
 2217 000c 7B68     		ldr	r3, [r7, #4]
 2218 000e 1B68     		ldr	r3, [r3]
 2219 0010 FB60     		str	r3, [r7, #12]
 325:QX_Parsing_Functions.c ****         ADDSL(value);
 2220              		.loc 1 325 0
 2221 0012 184B     		ldr	r3, .L211
 2222 0014 1B68     		ldr	r3, [r3]
 2223 0016 5A1C     		adds	r2, r3, #1
 2224 0018 1649     		ldr	r1, .L211
 2225 001a 0A60     		str	r2, [r1]
 2226 001c FA68     		ldr	r2, [r7, #12]
 2227 001e 1216     		asrs	r2, r2, #24
 2228 0020 D2B2     		uxtb	r2, r2
 2229 0022 1A70     		strb	r2, [r3]
 2230 0024 134B     		ldr	r3, .L211
 2231 0026 1B68     		ldr	r3, [r3]
 2232 0028 5A1C     		adds	r2, r3, #1
ARM GAS  C:\Users\JENNEW~1\AppData\Local\Temp\cce2sJFM.s 			page 47


 2233 002a 1249     		ldr	r1, .L211
 2234 002c 0A60     		str	r2, [r1]
 2235 002e FA68     		ldr	r2, [r7, #12]
 2236 0030 1214     		asrs	r2, r2, #16
 2237 0032 D2B2     		uxtb	r2, r2
 2238 0034 1A70     		strb	r2, [r3]
 2239 0036 0F4B     		ldr	r3, .L211
 2240 0038 1B68     		ldr	r3, [r3]
 2241 003a 5A1C     		adds	r2, r3, #1
 2242 003c 0D49     		ldr	r1, .L211
 2243 003e 0A60     		str	r2, [r1]
 2244 0040 FA68     		ldr	r2, [r7, #12]
 2245 0042 1212     		asrs	r2, r2, #8
 2246 0044 D2B2     		uxtb	r2, r2
 2247 0046 1A70     		strb	r2, [r3]
 2248 0048 0A4B     		ldr	r3, .L211
 2249 004a 1B68     		ldr	r3, [r3]
 2250 004c 5A1C     		adds	r2, r3, #1
 2251 004e 0949     		ldr	r1, .L211
 2252 0050 0A60     		str	r2, [r1]
 2253 0052 FA68     		ldr	r2, [r7, #12]
 2254 0054 D2B2     		uxtb	r2, r2
 2255 0056 1A70     		strb	r2, [r3]
 326:QX_Parsing_Functions.c ****         v++;
 2256              		.loc 1 326 0
 2257 0058 7B68     		ldr	r3, [r7, #4]
 2258 005a 0433     		adds	r3, r3, #4
 2259 005c 7B60     		str	r3, [r7, #4]
 2260              	.L209:
 2261              	.LBE17:
 322:QX_Parsing_Functions.c ****     {
 2262              		.loc 1 322 0
 2263 005e 3B68     		ldr	r3, [r7]
 2264 0060 5A1E     		subs	r2, r3, #1
 2265 0062 3A60     		str	r2, [r7]
 2266 0064 002B     		cmp	r3, #0
 2267 0066 D1D1     		bne	.L210
 327:QX_Parsing_Functions.c ****     }
 328:QX_Parsing_Functions.c **** }
 2268              		.loc 1 328 0
 2269 0068 00BF     		nop
 2270 006a 1437     		adds	r7, r7, #20
 2271              		.cfi_def_cfa_offset 4
 2272 006c BD46     		mov	sp, r7
 2273              		.cfi_def_cfa_register 13
 2274              		@ sp needed
 2275 006e 80BC     		pop	{r7}
 2276              		.cfi_restore 7
 2277              		.cfi_def_cfa_offset 0
 2278 0070 7047     		bx	lr
 2279              	.L212:
 2280 0072 00BF     		.align	2
 2281              	.L211:
 2282 0074 00000000 		.word	msgPtr
 2283              		.cfi_endproc
 2284              	.LFE19:
 2285              		.size	AddSignedLongAsSignedLong, .-AddSignedLongAsSignedLong
ARM GAS  C:\Users\JENNEW~1\AppData\Local\Temp\cce2sJFM.s 			page 48


 2286              		.section	.text.AddSignedLongAsSignedShort,"ax",%progbits
 2287              		.align	2
 2288              		.global	AddSignedLongAsSignedShort
 2289              		.thumb
 2290              		.thumb_func
 2291              		.type	AddSignedLongAsSignedShort, %function
 2292              	AddSignedLongAsSignedShort:
 2293              	.LFB20:
 329:QX_Parsing_Functions.c **** 
 330:QX_Parsing_Functions.c **** void AddSignedLongAsSignedShort(int32_t *v, uint32_t n)
 331:QX_Parsing_Functions.c **** {
 2294              		.loc 1 331 0
 2295              		.cfi_startproc
 2296              		@ args = 0, pretend = 0, frame = 16
 2297              		@ frame_needed = 1, uses_anonymous_args = 0
 2298              		@ link register save eliminated.
 2299 0000 80B4     		push	{r7}
 2300              		.cfi_def_cfa_offset 4
 2301              		.cfi_offset 7, -4
 2302 0002 85B0     		sub	sp, sp, #20
 2303              		.cfi_def_cfa_offset 24
 2304 0004 00AF     		add	r7, sp, #0
 2305              		.cfi_def_cfa_register 7
 2306 0006 7860     		str	r0, [r7, #4]
 2307 0008 3960     		str	r1, [r7]
 332:QX_Parsing_Functions.c ****     while(n--)
 2308              		.loc 1 332 0
 2309 000a 18E0     		b	.L214
 2310              	.L215:
 2311              	.LBB18:
 333:QX_Parsing_Functions.c ****     {
 334:QX_Parsing_Functions.c ****         int16_t value = (int16_t)(*v);
 2312              		.loc 1 334 0
 2313 000c 7B68     		ldr	r3, [r7, #4]
 2314 000e 1B68     		ldr	r3, [r3]
 2315 0010 FB81     		strh	r3, [r7, #14]	@ movhi
 335:QX_Parsing_Functions.c ****         ADDSS(value);
 2316              		.loc 1 335 0
 2317 0012 104B     		ldr	r3, .L216
 2318 0014 1B68     		ldr	r3, [r3]
 2319 0016 5A1C     		adds	r2, r3, #1
 2320 0018 0E49     		ldr	r1, .L216
 2321 001a 0A60     		str	r2, [r1]
 2322 001c B7F90E20 		ldrsh	r2, [r7, #14]
 2323 0020 1212     		asrs	r2, r2, #8
 2324 0022 12B2     		sxth	r2, r2
 2325 0024 D2B2     		uxtb	r2, r2
 2326 0026 1A70     		strb	r2, [r3]
 2327 0028 0A4B     		ldr	r3, .L216
 2328 002a 1B68     		ldr	r3, [r3]
 2329 002c 5A1C     		adds	r2, r3, #1
 2330 002e 0949     		ldr	r1, .L216
 2331 0030 0A60     		str	r2, [r1]
 2332 0032 FA89     		ldrh	r2, [r7, #14]	@ movhi
 2333 0034 D2B2     		uxtb	r2, r2
 2334 0036 1A70     		strb	r2, [r3]
 336:QX_Parsing_Functions.c ****         v++;
ARM GAS  C:\Users\JENNEW~1\AppData\Local\Temp\cce2sJFM.s 			page 49


 2335              		.loc 1 336 0
 2336 0038 7B68     		ldr	r3, [r7, #4]
 2337 003a 0433     		adds	r3, r3, #4
 2338 003c 7B60     		str	r3, [r7, #4]
 2339              	.L214:
 2340              	.LBE18:
 332:QX_Parsing_Functions.c ****     {
 2341              		.loc 1 332 0
 2342 003e 3B68     		ldr	r3, [r7]
 2343 0040 5A1E     		subs	r2, r3, #1
 2344 0042 3A60     		str	r2, [r7]
 2345 0044 002B     		cmp	r3, #0
 2346 0046 E1D1     		bne	.L215
 337:QX_Parsing_Functions.c ****     }
 338:QX_Parsing_Functions.c **** }
 2347              		.loc 1 338 0
 2348 0048 00BF     		nop
 2349 004a 1437     		adds	r7, r7, #20
 2350              		.cfi_def_cfa_offset 4
 2351 004c BD46     		mov	sp, r7
 2352              		.cfi_def_cfa_register 13
 2353              		@ sp needed
 2354 004e 80BC     		pop	{r7}
 2355              		.cfi_restore 7
 2356              		.cfi_def_cfa_offset 0
 2357 0050 7047     		bx	lr
 2358              	.L217:
 2359 0052 00BF     		.align	2
 2360              	.L216:
 2361 0054 00000000 		.word	msgPtr
 2362              		.cfi_endproc
 2363              	.LFE20:
 2364              		.size	AddSignedLongAsSignedShort, .-AddSignedLongAsSignedShort
 2365              		.section	.text.AddSignedLongAsSignedChar,"ax",%progbits
 2366              		.align	2
 2367              		.global	AddSignedLongAsSignedChar
 2368              		.thumb
 2369              		.thumb_func
 2370              		.type	AddSignedLongAsSignedChar, %function
 2371              	AddSignedLongAsSignedChar:
 2372              	.LFB21:
 339:QX_Parsing_Functions.c **** 
 340:QX_Parsing_Functions.c **** void AddSignedLongAsSignedChar(int32_t *v, uint32_t n)
 341:QX_Parsing_Functions.c **** {
 2373              		.loc 1 341 0
 2374              		.cfi_startproc
 2375              		@ args = 0, pretend = 0, frame = 16
 2376              		@ frame_needed = 1, uses_anonymous_args = 0
 2377              		@ link register save eliminated.
 2378 0000 80B4     		push	{r7}
 2379              		.cfi_def_cfa_offset 4
 2380              		.cfi_offset 7, -4
 2381 0002 85B0     		sub	sp, sp, #20
 2382              		.cfi_def_cfa_offset 24
 2383 0004 00AF     		add	r7, sp, #0
 2384              		.cfi_def_cfa_register 7
 2385 0006 7860     		str	r0, [r7, #4]
ARM GAS  C:\Users\JENNEW~1\AppData\Local\Temp\cce2sJFM.s 			page 50


 2386 0008 3960     		str	r1, [r7]
 342:QX_Parsing_Functions.c ****     while(n--)
 2387              		.loc 1 342 0
 2388 000a 0CE0     		b	.L219
 2389              	.L220:
 2390              	.LBB19:
 343:QX_Parsing_Functions.c ****     {
 344:QX_Parsing_Functions.c ****         int8_t value = (int8_t)(*v);
 2391              		.loc 1 344 0
 2392 000c 7B68     		ldr	r3, [r7, #4]
 2393 000e 1B68     		ldr	r3, [r3]
 2394 0010 FB73     		strb	r3, [r7, #15]
 345:QX_Parsing_Functions.c ****         ADDCHAR(value);
 2395              		.loc 1 345 0
 2396 0012 0A4B     		ldr	r3, .L221
 2397 0014 1B68     		ldr	r3, [r3]
 2398 0016 5A1C     		adds	r2, r3, #1
 2399 0018 0849     		ldr	r1, .L221
 2400 001a 0A60     		str	r2, [r1]
 2401 001c FA7B     		ldrb	r2, [r7, #15]	@ zero_extendqisi2
 2402 001e 1A70     		strb	r2, [r3]
 346:QX_Parsing_Functions.c ****         v++;
 2403              		.loc 1 346 0
 2404 0020 7B68     		ldr	r3, [r7, #4]
 2405 0022 0433     		adds	r3, r3, #4
 2406 0024 7B60     		str	r3, [r7, #4]
 2407              	.L219:
 2408              	.LBE19:
 342:QX_Parsing_Functions.c ****     {
 2409              		.loc 1 342 0
 2410 0026 3B68     		ldr	r3, [r7]
 2411 0028 5A1E     		subs	r2, r3, #1
 2412 002a 3A60     		str	r2, [r7]
 2413 002c 002B     		cmp	r3, #0
 2414 002e EDD1     		bne	.L220
 347:QX_Parsing_Functions.c ****     }
 348:QX_Parsing_Functions.c **** }
 2415              		.loc 1 348 0
 2416 0030 00BF     		nop
 2417 0032 1437     		adds	r7, r7, #20
 2418              		.cfi_def_cfa_offset 4
 2419 0034 BD46     		mov	sp, r7
 2420              		.cfi_def_cfa_register 13
 2421              		@ sp needed
 2422 0036 80BC     		pop	{r7}
 2423              		.cfi_restore 7
 2424              		.cfi_def_cfa_offset 0
 2425 0038 7047     		bx	lr
 2426              	.L222:
 2427 003a 00BF     		.align	2
 2428              	.L221:
 2429 003c 00000000 		.word	msgPtr
 2430              		.cfi_endproc
 2431              	.LFE21:
 2432              		.size	AddSignedLongAsSignedChar, .-AddSignedLongAsSignedChar
 2433              		.section	.text.AddSignedLongAsUnsignedChar,"ax",%progbits
 2434              		.align	2
ARM GAS  C:\Users\JENNEW~1\AppData\Local\Temp\cce2sJFM.s 			page 51


 2435              		.global	AddSignedLongAsUnsignedChar
 2436              		.thumb
 2437              		.thumb_func
 2438              		.type	AddSignedLongAsUnsignedChar, %function
 2439              	AddSignedLongAsUnsignedChar:
 2440              	.LFB22:
 349:QX_Parsing_Functions.c **** 
 350:QX_Parsing_Functions.c **** void AddSignedLongAsUnsignedChar(int32_t *v, uint32_t n)
 351:QX_Parsing_Functions.c **** {
 2441              		.loc 1 351 0
 2442              		.cfi_startproc
 2443              		@ args = 0, pretend = 0, frame = 16
 2444              		@ frame_needed = 1, uses_anonymous_args = 0
 2445              		@ link register save eliminated.
 2446 0000 80B4     		push	{r7}
 2447              		.cfi_def_cfa_offset 4
 2448              		.cfi_offset 7, -4
 2449 0002 85B0     		sub	sp, sp, #20
 2450              		.cfi_def_cfa_offset 24
 2451 0004 00AF     		add	r7, sp, #0
 2452              		.cfi_def_cfa_register 7
 2453 0006 7860     		str	r0, [r7, #4]
 2454 0008 3960     		str	r1, [r7]
 352:QX_Parsing_Functions.c ****     while(n--)
 2455              		.loc 1 352 0
 2456 000a 0CE0     		b	.L224
 2457              	.L225:
 2458              	.LBB20:
 353:QX_Parsing_Functions.c ****     {
 354:QX_Parsing_Functions.c ****         uint8_t value = (uint8_t)(*v);
 2459              		.loc 1 354 0
 2460 000c 7B68     		ldr	r3, [r7, #4]
 2461 000e 1B68     		ldr	r3, [r3]
 2462 0010 FB73     		strb	r3, [r7, #15]
 355:QX_Parsing_Functions.c ****         ADDCHAR(value);
 2463              		.loc 1 355 0
 2464 0012 0A4B     		ldr	r3, .L226
 2465 0014 1B68     		ldr	r3, [r3]
 2466 0016 5A1C     		adds	r2, r3, #1
 2467 0018 0849     		ldr	r1, .L226
 2468 001a 0A60     		str	r2, [r1]
 2469 001c FA7B     		ldrb	r2, [r7, #15]
 2470 001e 1A70     		strb	r2, [r3]
 356:QX_Parsing_Functions.c ****         v++;
 2471              		.loc 1 356 0
 2472 0020 7B68     		ldr	r3, [r7, #4]
 2473 0022 0433     		adds	r3, r3, #4
 2474 0024 7B60     		str	r3, [r7, #4]
 2475              	.L224:
 2476              	.LBE20:
 352:QX_Parsing_Functions.c ****     {
 2477              		.loc 1 352 0
 2478 0026 3B68     		ldr	r3, [r7]
 2479 0028 5A1E     		subs	r2, r3, #1
 2480 002a 3A60     		str	r2, [r7]
 2481 002c 002B     		cmp	r3, #0
 2482 002e EDD1     		bne	.L225
ARM GAS  C:\Users\JENNEW~1\AppData\Local\Temp\cce2sJFM.s 			page 52


 357:QX_Parsing_Functions.c ****     }
 358:QX_Parsing_Functions.c **** }
 2483              		.loc 1 358 0
 2484 0030 00BF     		nop
 2485 0032 1437     		adds	r7, r7, #20
 2486              		.cfi_def_cfa_offset 4
 2487 0034 BD46     		mov	sp, r7
 2488              		.cfi_def_cfa_register 13
 2489              		@ sp needed
 2490 0036 80BC     		pop	{r7}
 2491              		.cfi_restore 7
 2492              		.cfi_def_cfa_offset 0
 2493 0038 7047     		bx	lr
 2494              	.L227:
 2495 003a 00BF     		.align	2
 2496              	.L226:
 2497 003c 00000000 		.word	msgPtr
 2498              		.cfi_endproc
 2499              	.LFE22:
 2500              		.size	AddSignedLongAsUnsignedChar, .-AddSignedLongAsUnsignedChar
 2501              		.section	.text.GetSignedLongAsSignedLong,"ax",%progbits
 2502              		.align	2
 2503              		.global	GetSignedLongAsSignedLong
 2504              		.thumb
 2505              		.thumb_func
 2506              		.type	GetSignedLongAsSignedLong, %function
 2507              	GetSignedLongAsSignedLong:
 2508              	.LFB23:
 359:QX_Parsing_Functions.c **** 
 360:QX_Parsing_Functions.c **** void GetSignedLongAsSignedLong(int32_t *v, uint32_t n, int32_t max, int32_t min)
 361:QX_Parsing_Functions.c **** {
 2509              		.loc 1 361 0
 2510              		.cfi_startproc
 2511              		@ args = 0, pretend = 0, frame = 24
 2512              		@ frame_needed = 1, uses_anonymous_args = 0
 2513              		@ link register save eliminated.
 2514 0000 80B4     		push	{r7}
 2515              		.cfi_def_cfa_offset 4
 2516              		.cfi_offset 7, -4
 2517 0002 87B0     		sub	sp, sp, #28
 2518              		.cfi_def_cfa_offset 32
 2519 0004 00AF     		add	r7, sp, #0
 2520              		.cfi_def_cfa_register 7
 2521 0006 F860     		str	r0, [r7, #12]
 2522 0008 B960     		str	r1, [r7, #8]
 2523 000a 7A60     		str	r2, [r7, #4]
 2524 000c 3B60     		str	r3, [r7]
 362:QX_Parsing_Functions.c ****     if(rw == QB_Parser_Dir_WriteDel)
 2525              		.loc 1 362 0
 2526 000e 414B     		ldr	r3, .L240
 2527 0010 1B78     		ldrb	r3, [r3]	@ zero_extendqisi2
 2528 0012 012B     		cmp	r3, #1
 2529 0014 73D1     		bne	.L235
 363:QX_Parsing_Functions.c ****     {
 364:QX_Parsing_Functions.c ****         while(n--)
 2530              		.loc 1 364 0
 2531 0016 37E0     		b	.L230
ARM GAS  C:\Users\JENNEW~1\AppData\Local\Temp\cce2sJFM.s 			page 53


 2532              	.L233:
 2533              	.LBB21:
 365:QX_Parsing_Functions.c ****         {
 366:QX_Parsing_Functions.c ****             int32_t r = GETSL;
 2534              		.loc 1 366 0
 2535 0018 3F4B     		ldr	r3, .L240+4
 2536 001a 1B68     		ldr	r3, [r3]
 2537 001c 1B78     		ldrb	r3, [r3]
 2538 001e DBB2     		uxtb	r3, r3
 2539 0020 1A06     		lsls	r2, r3, #24
 2540 0022 3D4B     		ldr	r3, .L240+4
 2541 0024 1B68     		ldr	r3, [r3]
 2542 0026 0133     		adds	r3, r3, #1
 2543 0028 1B78     		ldrb	r3, [r3]
 2544 002a DBB2     		uxtb	r3, r3
 2545 002c 1B04     		lsls	r3, r3, #16
 2546 002e 1A43     		orrs	r2, r2, r3
 2547 0030 394B     		ldr	r3, .L240+4
 2548 0032 1B68     		ldr	r3, [r3]
 2549 0034 0233     		adds	r3, r3, #2
 2550 0036 1B78     		ldrb	r3, [r3]
 2551 0038 DBB2     		uxtb	r3, r3
 2552 003a 1B02     		lsls	r3, r3, #8
 2553 003c 1343     		orrs	r3, r3, r2
 2554 003e 364A     		ldr	r2, .L240+4
 2555 0040 1268     		ldr	r2, [r2]
 2556 0042 0332     		adds	r2, r2, #3
 2557 0044 1278     		ldrb	r2, [r2]
 2558 0046 D2B2     		uxtb	r2, r2
 2559 0048 1343     		orrs	r3, r3, r2
 2560 004a 7B61     		str	r3, [r7, #20]
 2561 004c 324B     		ldr	r3, .L240+4
 2562 004e 1B68     		ldr	r3, [r3]
 2563 0050 0433     		adds	r3, r3, #4
 2564 0052 314A     		ldr	r2, .L240+4
 2565 0054 1360     		str	r3, [r2]
 367:QX_Parsing_Functions.c ****             *v += r;
 2566              		.loc 1 367 0
 2567 0056 FB68     		ldr	r3, [r7, #12]
 2568 0058 1A68     		ldr	r2, [r3]
 2569 005a 7B69     		ldr	r3, [r7, #20]
 2570 005c 1A44     		add	r2, r2, r3
 2571 005e FB68     		ldr	r3, [r7, #12]
 2572 0060 1A60     		str	r2, [r3]
 368:QX_Parsing_Functions.c ****             if(max < *v) *v = max;
 2573              		.loc 1 368 0
 2574 0062 FB68     		ldr	r3, [r7, #12]
 2575 0064 1A68     		ldr	r2, [r3]
 2576 0066 7B68     		ldr	r3, [r7, #4]
 2577 0068 9A42     		cmp	r2, r3
 2578 006a 02DD     		ble	.L231
 2579              		.loc 1 368 0 is_stmt 0 discriminator 1
 2580 006c FB68     		ldr	r3, [r7, #12]
 2581 006e 7A68     		ldr	r2, [r7, #4]
 2582 0070 1A60     		str	r2, [r3]
 2583              	.L231:
 369:QX_Parsing_Functions.c ****             if(*v < min) *v = min;
ARM GAS  C:\Users\JENNEW~1\AppData\Local\Temp\cce2sJFM.s 			page 54


 2584              		.loc 1 369 0 is_stmt 1
 2585 0072 FB68     		ldr	r3, [r7, #12]
 2586 0074 1A68     		ldr	r2, [r3]
 2587 0076 3B68     		ldr	r3, [r7]
 2588 0078 9A42     		cmp	r2, r3
 2589 007a 02DA     		bge	.L232
 2590              		.loc 1 369 0 is_stmt 0 discriminator 1
 2591 007c FB68     		ldr	r3, [r7, #12]
 2592 007e 3A68     		ldr	r2, [r7]
 2593 0080 1A60     		str	r2, [r3]
 2594              	.L232:
 370:QX_Parsing_Functions.c ****             v++;
 2595              		.loc 1 370 0 is_stmt 1
 2596 0082 FB68     		ldr	r3, [r7, #12]
 2597 0084 0433     		adds	r3, r3, #4
 2598 0086 FB60     		str	r3, [r7, #12]
 2599              	.L230:
 2600              	.LBE21:
 364:QX_Parsing_Functions.c ****         {
 2601              		.loc 1 364 0
 2602 0088 BB68     		ldr	r3, [r7, #8]
 2603 008a 5A1E     		subs	r2, r3, #1
 2604 008c BA60     		str	r2, [r7, #8]
 2605 008e 002B     		cmp	r3, #0
 2606 0090 C2D1     		bne	.L233
 371:QX_Parsing_Functions.c ****         }
 372:QX_Parsing_Functions.c ****     }
 373:QX_Parsing_Functions.c ****     else
 374:QX_Parsing_Functions.c ****     {
 375:QX_Parsing_Functions.c ****         while(n--)
 376:QX_Parsing_Functions.c ****         {
 377:QX_Parsing_Functions.c ****             int32_t r = GETSL;
 378:QX_Parsing_Functions.c ****             *v = r;
 379:QX_Parsing_Functions.c ****             if(max < *v) *v = max;
 380:QX_Parsing_Functions.c ****             if(*v < min) *v = min;
 381:QX_Parsing_Functions.c ****             v++;
 382:QX_Parsing_Functions.c ****         }
 383:QX_Parsing_Functions.c ****     }
 384:QX_Parsing_Functions.c **** }
 2607              		.loc 1 384 0
 2608 0092 39E0     		b	.L239
 2609              	.L238:
 2610              	.LBB22:
 377:QX_Parsing_Functions.c ****             *v = r;
 2611              		.loc 1 377 0
 2612 0094 204B     		ldr	r3, .L240+4
 2613 0096 1B68     		ldr	r3, [r3]
 2614 0098 1B78     		ldrb	r3, [r3]
 2615 009a DBB2     		uxtb	r3, r3
 2616 009c 1A06     		lsls	r2, r3, #24
 2617 009e 1E4B     		ldr	r3, .L240+4
 2618 00a0 1B68     		ldr	r3, [r3]
 2619 00a2 0133     		adds	r3, r3, #1
 2620 00a4 1B78     		ldrb	r3, [r3]
 2621 00a6 DBB2     		uxtb	r3, r3
 2622 00a8 1B04     		lsls	r3, r3, #16
 2623 00aa 1A43     		orrs	r2, r2, r3
ARM GAS  C:\Users\JENNEW~1\AppData\Local\Temp\cce2sJFM.s 			page 55


 2624 00ac 1A4B     		ldr	r3, .L240+4
 2625 00ae 1B68     		ldr	r3, [r3]
 2626 00b0 0233     		adds	r3, r3, #2
 2627 00b2 1B78     		ldrb	r3, [r3]
 2628 00b4 DBB2     		uxtb	r3, r3
 2629 00b6 1B02     		lsls	r3, r3, #8
 2630 00b8 1343     		orrs	r3, r3, r2
 2631 00ba 174A     		ldr	r2, .L240+4
 2632 00bc 1268     		ldr	r2, [r2]
 2633 00be 0332     		adds	r2, r2, #3
 2634 00c0 1278     		ldrb	r2, [r2]
 2635 00c2 D2B2     		uxtb	r2, r2
 2636 00c4 1343     		orrs	r3, r3, r2
 2637 00c6 3B61     		str	r3, [r7, #16]
 2638 00c8 134B     		ldr	r3, .L240+4
 2639 00ca 1B68     		ldr	r3, [r3]
 2640 00cc 0433     		adds	r3, r3, #4
 2641 00ce 124A     		ldr	r2, .L240+4
 2642 00d0 1360     		str	r3, [r2]
 378:QX_Parsing_Functions.c ****             if(max < *v) *v = max;
 2643              		.loc 1 378 0
 2644 00d2 FB68     		ldr	r3, [r7, #12]
 2645 00d4 3A69     		ldr	r2, [r7, #16]
 2646 00d6 1A60     		str	r2, [r3]
 379:QX_Parsing_Functions.c ****             if(*v < min) *v = min;
 2647              		.loc 1 379 0
 2648 00d8 FB68     		ldr	r3, [r7, #12]
 2649 00da 1A68     		ldr	r2, [r3]
 2650 00dc 7B68     		ldr	r3, [r7, #4]
 2651 00de 9A42     		cmp	r2, r3
 2652 00e0 02DD     		ble	.L236
 379:QX_Parsing_Functions.c ****             if(*v < min) *v = min;
 2653              		.loc 1 379 0 is_stmt 0 discriminator 1
 2654 00e2 FB68     		ldr	r3, [r7, #12]
 2655 00e4 7A68     		ldr	r2, [r7, #4]
 2656 00e6 1A60     		str	r2, [r3]
 2657              	.L236:
 380:QX_Parsing_Functions.c ****             v++;
 2658              		.loc 1 380 0 is_stmt 1
 2659 00e8 FB68     		ldr	r3, [r7, #12]
 2660 00ea 1A68     		ldr	r2, [r3]
 2661 00ec 3B68     		ldr	r3, [r7]
 2662 00ee 9A42     		cmp	r2, r3
 2663 00f0 02DA     		bge	.L237
 380:QX_Parsing_Functions.c ****             v++;
 2664              		.loc 1 380 0 is_stmt 0 discriminator 1
 2665 00f2 FB68     		ldr	r3, [r7, #12]
 2666 00f4 3A68     		ldr	r2, [r7]
 2667 00f6 1A60     		str	r2, [r3]
 2668              	.L237:
 381:QX_Parsing_Functions.c ****         }
 2669              		.loc 1 381 0 is_stmt 1
 2670 00f8 FB68     		ldr	r3, [r7, #12]
 2671 00fa 0433     		adds	r3, r3, #4
 2672 00fc FB60     		str	r3, [r7, #12]
 2673              	.L235:
 2674              	.LBE22:
ARM GAS  C:\Users\JENNEW~1\AppData\Local\Temp\cce2sJFM.s 			page 56


 375:QX_Parsing_Functions.c ****         {
 2675              		.loc 1 375 0
 2676 00fe BB68     		ldr	r3, [r7, #8]
 2677 0100 5A1E     		subs	r2, r3, #1
 2678 0102 BA60     		str	r2, [r7, #8]
 2679 0104 002B     		cmp	r3, #0
 2680 0106 C5D1     		bne	.L238
 2681              	.L239:
 2682              		.loc 1 384 0
 2683 0108 00BF     		nop
 2684 010a 1C37     		adds	r7, r7, #28
 2685              		.cfi_def_cfa_offset 4
 2686 010c BD46     		mov	sp, r7
 2687              		.cfi_def_cfa_register 13
 2688              		@ sp needed
 2689 010e 80BC     		pop	{r7}
 2690              		.cfi_restore 7
 2691              		.cfi_def_cfa_offset 0
 2692 0110 7047     		bx	lr
 2693              	.L241:
 2694 0112 00BF     		.align	2
 2695              	.L240:
 2696 0114 00000000 		.word	rw
 2697 0118 00000000 		.word	msgPtr
 2698              		.cfi_endproc
 2699              	.LFE23:
 2700              		.size	GetSignedLongAsSignedLong, .-GetSignedLongAsSignedLong
 2701              		.section	.text.GetSignedLongAsSignedShort,"ax",%progbits
 2702              		.align	2
 2703              		.global	GetSignedLongAsSignedShort
 2704              		.thumb
 2705              		.thumb_func
 2706              		.type	GetSignedLongAsSignedShort, %function
 2707              	GetSignedLongAsSignedShort:
 2708              	.LFB24:
 385:QX_Parsing_Functions.c **** 
 386:QX_Parsing_Functions.c **** void GetSignedLongAsSignedShort(int32_t *v, uint32_t n, int32_t max, int32_t min)
 387:QX_Parsing_Functions.c **** {
 2709              		.loc 1 387 0
 2710              		.cfi_startproc
 2711              		@ args = 0, pretend = 0, frame = 24
 2712              		@ frame_needed = 1, uses_anonymous_args = 0
 2713              		@ link register save eliminated.
 2714 0000 80B4     		push	{r7}
 2715              		.cfi_def_cfa_offset 4
 2716              		.cfi_offset 7, -4
 2717 0002 87B0     		sub	sp, sp, #28
 2718              		.cfi_def_cfa_offset 32
 2719 0004 00AF     		add	r7, sp, #0
 2720              		.cfi_def_cfa_register 7
 2721 0006 F860     		str	r0, [r7, #12]
 2722 0008 B960     		str	r1, [r7, #8]
 2723 000a 7A60     		str	r2, [r7, #4]
 2724 000c 3B60     		str	r3, [r7]
 388:QX_Parsing_Functions.c ****     if(rw == QB_Parser_Dir_WriteDel)
 2725              		.loc 1 388 0
 2726 000e 354B     		ldr	r3, .L254
ARM GAS  C:\Users\JENNEW~1\AppData\Local\Temp\cce2sJFM.s 			page 57


 2727 0010 1B78     		ldrb	r3, [r3]	@ zero_extendqisi2
 2728 0012 012B     		cmp	r3, #1
 2729 0014 5BD1     		bne	.L249
 389:QX_Parsing_Functions.c ****     {
 390:QX_Parsing_Functions.c ****         while(n--)
 2730              		.loc 1 390 0
 2731 0016 2BE0     		b	.L244
 2732              	.L247:
 2733              	.LBB23:
 391:QX_Parsing_Functions.c ****         {
 392:QX_Parsing_Functions.c ****             int32_t r = (int32_t)GETSS;
 2734              		.loc 1 392 0
 2735 0018 334B     		ldr	r3, .L254+4
 2736 001a 1B68     		ldr	r3, [r3]
 2737 001c 1B78     		ldrb	r3, [r3]
 2738 001e DBB2     		uxtb	r3, r3
 2739 0020 1B02     		lsls	r3, r3, #8
 2740 0022 1BB2     		sxth	r3, r3
 2741 0024 1A46     		mov	r2, r3
 2742 0026 304B     		ldr	r3, .L254+4
 2743 0028 1B68     		ldr	r3, [r3]
 2744 002a 0133     		adds	r3, r3, #1
 2745 002c 1B78     		ldrb	r3, [r3]
 2746 002e DBB2     		uxtb	r3, r3
 2747 0030 1343     		orrs	r3, r3, r2
 2748 0032 7B61     		str	r3, [r7, #20]
 2749 0034 2C4B     		ldr	r3, .L254+4
 2750 0036 1B68     		ldr	r3, [r3]
 2751 0038 0233     		adds	r3, r3, #2
 2752 003a 2B4A     		ldr	r2, .L254+4
 2753 003c 1360     		str	r3, [r2]
 393:QX_Parsing_Functions.c ****             *v += r;
 2754              		.loc 1 393 0
 2755 003e FB68     		ldr	r3, [r7, #12]
 2756 0040 1A68     		ldr	r2, [r3]
 2757 0042 7B69     		ldr	r3, [r7, #20]
 2758 0044 1A44     		add	r2, r2, r3
 2759 0046 FB68     		ldr	r3, [r7, #12]
 2760 0048 1A60     		str	r2, [r3]
 394:QX_Parsing_Functions.c ****             if(max < *v) *v = max;
 2761              		.loc 1 394 0
 2762 004a FB68     		ldr	r3, [r7, #12]
 2763 004c 1A68     		ldr	r2, [r3]
 2764 004e 7B68     		ldr	r3, [r7, #4]
 2765 0050 9A42     		cmp	r2, r3
 2766 0052 02DD     		ble	.L245
 2767              		.loc 1 394 0 is_stmt 0 discriminator 1
 2768 0054 FB68     		ldr	r3, [r7, #12]
 2769 0056 7A68     		ldr	r2, [r7, #4]
 2770 0058 1A60     		str	r2, [r3]
 2771              	.L245:
 395:QX_Parsing_Functions.c ****             if(*v < min) *v = min;
 2772              		.loc 1 395 0 is_stmt 1
 2773 005a FB68     		ldr	r3, [r7, #12]
 2774 005c 1A68     		ldr	r2, [r3]
 2775 005e 3B68     		ldr	r3, [r7]
 2776 0060 9A42     		cmp	r2, r3
ARM GAS  C:\Users\JENNEW~1\AppData\Local\Temp\cce2sJFM.s 			page 58


 2777 0062 02DA     		bge	.L246
 2778              		.loc 1 395 0 is_stmt 0 discriminator 1
 2779 0064 FB68     		ldr	r3, [r7, #12]
 2780 0066 3A68     		ldr	r2, [r7]
 2781 0068 1A60     		str	r2, [r3]
 2782              	.L246:
 396:QX_Parsing_Functions.c ****             v++;
 2783              		.loc 1 396 0 is_stmt 1
 2784 006a FB68     		ldr	r3, [r7, #12]
 2785 006c 0433     		adds	r3, r3, #4
 2786 006e FB60     		str	r3, [r7, #12]
 2787              	.L244:
 2788              	.LBE23:
 390:QX_Parsing_Functions.c ****         {
 2789              		.loc 1 390 0
 2790 0070 BB68     		ldr	r3, [r7, #8]
 2791 0072 5A1E     		subs	r2, r3, #1
 2792 0074 BA60     		str	r2, [r7, #8]
 2793 0076 002B     		cmp	r3, #0
 2794 0078 CED1     		bne	.L247
 397:QX_Parsing_Functions.c ****         }
 398:QX_Parsing_Functions.c ****     }
 399:QX_Parsing_Functions.c ****     else
 400:QX_Parsing_Functions.c ****     {
 401:QX_Parsing_Functions.c ****         while(n--)
 402:QX_Parsing_Functions.c ****         {
 403:QX_Parsing_Functions.c ****             int32_t r = (int32_t)GETSS;
 404:QX_Parsing_Functions.c ****             *v = r;
 405:QX_Parsing_Functions.c ****             if(max < *v) *v = max;
 406:QX_Parsing_Functions.c ****             if(*v < min) *v = min;
 407:QX_Parsing_Functions.c ****             v++;
 408:QX_Parsing_Functions.c ****         }
 409:QX_Parsing_Functions.c ****     }
 410:QX_Parsing_Functions.c **** }
 2795              		.loc 1 410 0
 2796 007a 2DE0     		b	.L253
 2797              	.L252:
 2798              	.LBB24:
 403:QX_Parsing_Functions.c ****             *v = r;
 2799              		.loc 1 403 0
 2800 007c 1A4B     		ldr	r3, .L254+4
 2801 007e 1B68     		ldr	r3, [r3]
 2802 0080 1B78     		ldrb	r3, [r3]
 2803 0082 DBB2     		uxtb	r3, r3
 2804 0084 1B02     		lsls	r3, r3, #8
 2805 0086 1BB2     		sxth	r3, r3
 2806 0088 1A46     		mov	r2, r3
 2807 008a 174B     		ldr	r3, .L254+4
 2808 008c 1B68     		ldr	r3, [r3]
 2809 008e 0133     		adds	r3, r3, #1
 2810 0090 1B78     		ldrb	r3, [r3]
 2811 0092 DBB2     		uxtb	r3, r3
 2812 0094 1343     		orrs	r3, r3, r2
 2813 0096 3B61     		str	r3, [r7, #16]
 2814 0098 134B     		ldr	r3, .L254+4
 2815 009a 1B68     		ldr	r3, [r3]
 2816 009c 0233     		adds	r3, r3, #2
ARM GAS  C:\Users\JENNEW~1\AppData\Local\Temp\cce2sJFM.s 			page 59


 2817 009e 124A     		ldr	r2, .L254+4
 2818 00a0 1360     		str	r3, [r2]
 404:QX_Parsing_Functions.c ****             if(max < *v) *v = max;
 2819              		.loc 1 404 0
 2820 00a2 FB68     		ldr	r3, [r7, #12]
 2821 00a4 3A69     		ldr	r2, [r7, #16]
 2822 00a6 1A60     		str	r2, [r3]
 405:QX_Parsing_Functions.c ****             if(*v < min) *v = min;
 2823              		.loc 1 405 0
 2824 00a8 FB68     		ldr	r3, [r7, #12]
 2825 00aa 1A68     		ldr	r2, [r3]
 2826 00ac 7B68     		ldr	r3, [r7, #4]
 2827 00ae 9A42     		cmp	r2, r3
 2828 00b0 02DD     		ble	.L250
 405:QX_Parsing_Functions.c ****             if(*v < min) *v = min;
 2829              		.loc 1 405 0 is_stmt 0 discriminator 1
 2830 00b2 FB68     		ldr	r3, [r7, #12]
 2831 00b4 7A68     		ldr	r2, [r7, #4]
 2832 00b6 1A60     		str	r2, [r3]
 2833              	.L250:
 406:QX_Parsing_Functions.c ****             v++;
 2834              		.loc 1 406 0 is_stmt 1
 2835 00b8 FB68     		ldr	r3, [r7, #12]
 2836 00ba 1A68     		ldr	r2, [r3]
 2837 00bc 3B68     		ldr	r3, [r7]
 2838 00be 9A42     		cmp	r2, r3
 2839 00c0 02DA     		bge	.L251
 406:QX_Parsing_Functions.c ****             v++;
 2840              		.loc 1 406 0 is_stmt 0 discriminator 1
 2841 00c2 FB68     		ldr	r3, [r7, #12]
 2842 00c4 3A68     		ldr	r2, [r7]
 2843 00c6 1A60     		str	r2, [r3]
 2844              	.L251:
 407:QX_Parsing_Functions.c ****         }
 2845              		.loc 1 407 0 is_stmt 1
 2846 00c8 FB68     		ldr	r3, [r7, #12]
 2847 00ca 0433     		adds	r3, r3, #4
 2848 00cc FB60     		str	r3, [r7, #12]
 2849              	.L249:
 2850              	.LBE24:
 401:QX_Parsing_Functions.c ****         {
 2851              		.loc 1 401 0
 2852 00ce BB68     		ldr	r3, [r7, #8]
 2853 00d0 5A1E     		subs	r2, r3, #1
 2854 00d2 BA60     		str	r2, [r7, #8]
 2855 00d4 002B     		cmp	r3, #0
 2856 00d6 D1D1     		bne	.L252
 2857              	.L253:
 2858              		.loc 1 410 0
 2859 00d8 00BF     		nop
 2860 00da 1C37     		adds	r7, r7, #28
 2861              		.cfi_def_cfa_offset 4
 2862 00dc BD46     		mov	sp, r7
 2863              		.cfi_def_cfa_register 13
 2864              		@ sp needed
 2865 00de 80BC     		pop	{r7}
 2866              		.cfi_restore 7
ARM GAS  C:\Users\JENNEW~1\AppData\Local\Temp\cce2sJFM.s 			page 60


 2867              		.cfi_def_cfa_offset 0
 2868 00e0 7047     		bx	lr
 2869              	.L255:
 2870 00e2 00BF     		.align	2
 2871              	.L254:
 2872 00e4 00000000 		.word	rw
 2873 00e8 00000000 		.word	msgPtr
 2874              		.cfi_endproc
 2875              	.LFE24:
 2876              		.size	GetSignedLongAsSignedShort, .-GetSignedLongAsSignedShort
 2877              		.section	.text.GetSignedLongAsSignedChar,"ax",%progbits
 2878              		.align	2
 2879              		.global	GetSignedLongAsSignedChar
 2880              		.thumb
 2881              		.thumb_func
 2882              		.type	GetSignedLongAsSignedChar, %function
 2883              	GetSignedLongAsSignedChar:
 2884              	.LFB25:
 411:QX_Parsing_Functions.c **** 
 412:QX_Parsing_Functions.c **** void GetSignedLongAsSignedChar(int32_t *v, uint32_t n, int32_t max, int32_t min)
 413:QX_Parsing_Functions.c **** {
 2885              		.loc 1 413 0
 2886              		.cfi_startproc
 2887              		@ args = 0, pretend = 0, frame = 24
 2888              		@ frame_needed = 1, uses_anonymous_args = 0
 2889              		@ link register save eliminated.
 2890 0000 80B4     		push	{r7}
 2891              		.cfi_def_cfa_offset 4
 2892              		.cfi_offset 7, -4
 2893 0002 87B0     		sub	sp, sp, #28
 2894              		.cfi_def_cfa_offset 32
 2895 0004 00AF     		add	r7, sp, #0
 2896              		.cfi_def_cfa_register 7
 2897 0006 F860     		str	r0, [r7, #12]
 2898 0008 B960     		str	r1, [r7, #8]
 2899 000a 7A60     		str	r2, [r7, #4]
 2900 000c 3B60     		str	r3, [r7]
 414:QX_Parsing_Functions.c ****     if(rw == QB_Parser_Dir_WriteDel)
 2901              		.loc 1 414 0
 2902 000e 2B4B     		ldr	r3, .L268
 2903 0010 1B78     		ldrb	r3, [r3]	@ zero_extendqisi2
 2904 0012 012B     		cmp	r3, #1
 2905 0014 47D1     		bne	.L263
 415:QX_Parsing_Functions.c ****     {
 416:QX_Parsing_Functions.c ****         while(n--)
 2906              		.loc 1 416 0
 2907 0016 21E0     		b	.L258
 2908              	.L261:
 2909              	.LBB25:
 417:QX_Parsing_Functions.c ****         {
 418:QX_Parsing_Functions.c ****             int32_t r = (int32_t)GETSC;
 2910              		.loc 1 418 0
 2911 0018 294B     		ldr	r3, .L268+4
 2912 001a 1B68     		ldr	r3, [r3]
 2913 001c 5A1C     		adds	r2, r3, #1
 2914 001e 2849     		ldr	r1, .L268+4
 2915 0020 0A60     		str	r2, [r1]
ARM GAS  C:\Users\JENNEW~1\AppData\Local\Temp\cce2sJFM.s 			page 61


 2916 0022 1B78     		ldrb	r3, [r3]
 2917 0024 DBB2     		uxtb	r3, r3
 2918 0026 5BB2     		sxtb	r3, r3
 2919 0028 7B61     		str	r3, [r7, #20]
 419:QX_Parsing_Functions.c ****             *v += r;
 2920              		.loc 1 419 0
 2921 002a FB68     		ldr	r3, [r7, #12]
 2922 002c 1A68     		ldr	r2, [r3]
 2923 002e 7B69     		ldr	r3, [r7, #20]
 2924 0030 1A44     		add	r2, r2, r3
 2925 0032 FB68     		ldr	r3, [r7, #12]
 2926 0034 1A60     		str	r2, [r3]
 420:QX_Parsing_Functions.c ****             if(max < *v) *v = max;
 2927              		.loc 1 420 0
 2928 0036 FB68     		ldr	r3, [r7, #12]
 2929 0038 1A68     		ldr	r2, [r3]
 2930 003a 7B68     		ldr	r3, [r7, #4]
 2931 003c 9A42     		cmp	r2, r3
 2932 003e 02DD     		ble	.L259
 2933              		.loc 1 420 0 is_stmt 0 discriminator 1
 2934 0040 FB68     		ldr	r3, [r7, #12]
 2935 0042 7A68     		ldr	r2, [r7, #4]
 2936 0044 1A60     		str	r2, [r3]
 2937              	.L259:
 421:QX_Parsing_Functions.c ****             if(*v < min) *v = min;
 2938              		.loc 1 421 0 is_stmt 1
 2939 0046 FB68     		ldr	r3, [r7, #12]
 2940 0048 1A68     		ldr	r2, [r3]
 2941 004a 3B68     		ldr	r3, [r7]
 2942 004c 9A42     		cmp	r2, r3
 2943 004e 02DA     		bge	.L260
 2944              		.loc 1 421 0 is_stmt 0 discriminator 1
 2945 0050 FB68     		ldr	r3, [r7, #12]
 2946 0052 3A68     		ldr	r2, [r7]
 2947 0054 1A60     		str	r2, [r3]
 2948              	.L260:
 422:QX_Parsing_Functions.c ****             v++;
 2949              		.loc 1 422 0 is_stmt 1
 2950 0056 FB68     		ldr	r3, [r7, #12]
 2951 0058 0433     		adds	r3, r3, #4
 2952 005a FB60     		str	r3, [r7, #12]
 2953              	.L258:
 2954              	.LBE25:
 416:QX_Parsing_Functions.c ****         {
 2955              		.loc 1 416 0
 2956 005c BB68     		ldr	r3, [r7, #8]
 2957 005e 5A1E     		subs	r2, r3, #1
 2958 0060 BA60     		str	r2, [r7, #8]
 2959 0062 002B     		cmp	r3, #0
 2960 0064 D8D1     		bne	.L261
 423:QX_Parsing_Functions.c ****         }
 424:QX_Parsing_Functions.c ****     }
 425:QX_Parsing_Functions.c ****     else
 426:QX_Parsing_Functions.c ****     {
 427:QX_Parsing_Functions.c ****         while(n--)
 428:QX_Parsing_Functions.c ****         {
 429:QX_Parsing_Functions.c ****             int32_t r = (int32_t)GETSC;
ARM GAS  C:\Users\JENNEW~1\AppData\Local\Temp\cce2sJFM.s 			page 62


 430:QX_Parsing_Functions.c ****             *v = r;
 431:QX_Parsing_Functions.c ****             if(max < *v) *v = max;
 432:QX_Parsing_Functions.c ****             if(*v < min) *v = min;
 433:QX_Parsing_Functions.c ****             v++;
 434:QX_Parsing_Functions.c ****         }
 435:QX_Parsing_Functions.c ****     }
 436:QX_Parsing_Functions.c **** }
 2961              		.loc 1 436 0
 2962 0066 23E0     		b	.L267
 2963              	.L266:
 2964              	.LBB26:
 429:QX_Parsing_Functions.c ****             *v = r;
 2965              		.loc 1 429 0
 2966 0068 154B     		ldr	r3, .L268+4
 2967 006a 1B68     		ldr	r3, [r3]
 2968 006c 5A1C     		adds	r2, r3, #1
 2969 006e 1449     		ldr	r1, .L268+4
 2970 0070 0A60     		str	r2, [r1]
 2971 0072 1B78     		ldrb	r3, [r3]
 2972 0074 DBB2     		uxtb	r3, r3
 2973 0076 5BB2     		sxtb	r3, r3
 2974 0078 3B61     		str	r3, [r7, #16]
 430:QX_Parsing_Functions.c ****             if(max < *v) *v = max;
 2975              		.loc 1 430 0
 2976 007a FB68     		ldr	r3, [r7, #12]
 2977 007c 3A69     		ldr	r2, [r7, #16]
 2978 007e 1A60     		str	r2, [r3]
 431:QX_Parsing_Functions.c ****             if(*v < min) *v = min;
 2979              		.loc 1 431 0
 2980 0080 FB68     		ldr	r3, [r7, #12]
 2981 0082 1A68     		ldr	r2, [r3]
 2982 0084 7B68     		ldr	r3, [r7, #4]
 2983 0086 9A42     		cmp	r2, r3
 2984 0088 02DD     		ble	.L264
 431:QX_Parsing_Functions.c ****             if(*v < min) *v = min;
 2985              		.loc 1 431 0 is_stmt 0 discriminator 1
 2986 008a FB68     		ldr	r3, [r7, #12]
 2987 008c 7A68     		ldr	r2, [r7, #4]
 2988 008e 1A60     		str	r2, [r3]
 2989              	.L264:
 432:QX_Parsing_Functions.c ****             v++;
 2990              		.loc 1 432 0 is_stmt 1
 2991 0090 FB68     		ldr	r3, [r7, #12]
 2992 0092 1A68     		ldr	r2, [r3]
 2993 0094 3B68     		ldr	r3, [r7]
 2994 0096 9A42     		cmp	r2, r3
 2995 0098 02DA     		bge	.L265
 432:QX_Parsing_Functions.c ****             v++;
 2996              		.loc 1 432 0 is_stmt 0 discriminator 1
 2997 009a FB68     		ldr	r3, [r7, #12]
 2998 009c 3A68     		ldr	r2, [r7]
 2999 009e 1A60     		str	r2, [r3]
 3000              	.L265:
 433:QX_Parsing_Functions.c ****         }
 3001              		.loc 1 433 0 is_stmt 1
 3002 00a0 FB68     		ldr	r3, [r7, #12]
 3003 00a2 0433     		adds	r3, r3, #4
ARM GAS  C:\Users\JENNEW~1\AppData\Local\Temp\cce2sJFM.s 			page 63


 3004 00a4 FB60     		str	r3, [r7, #12]
 3005              	.L263:
 3006              	.LBE26:
 427:QX_Parsing_Functions.c ****         {
 3007              		.loc 1 427 0
 3008 00a6 BB68     		ldr	r3, [r7, #8]
 3009 00a8 5A1E     		subs	r2, r3, #1
 3010 00aa BA60     		str	r2, [r7, #8]
 3011 00ac 002B     		cmp	r3, #0
 3012 00ae DBD1     		bne	.L266
 3013              	.L267:
 3014              		.loc 1 436 0
 3015 00b0 00BF     		nop
 3016 00b2 1C37     		adds	r7, r7, #28
 3017              		.cfi_def_cfa_offset 4
 3018 00b4 BD46     		mov	sp, r7
 3019              		.cfi_def_cfa_register 13
 3020              		@ sp needed
 3021 00b6 80BC     		pop	{r7}
 3022              		.cfi_restore 7
 3023              		.cfi_def_cfa_offset 0
 3024 00b8 7047     		bx	lr
 3025              	.L269:
 3026 00ba 00BF     		.align	2
 3027              	.L268:
 3028 00bc 00000000 		.word	rw
 3029 00c0 00000000 		.word	msgPtr
 3030              		.cfi_endproc
 3031              	.LFE25:
 3032              		.size	GetSignedLongAsSignedChar, .-GetSignedLongAsSignedChar
 3033              		.section	.text.GetSignedLongAsUnsignedChar,"ax",%progbits
 3034              		.align	2
 3035              		.global	GetSignedLongAsUnsignedChar
 3036              		.thumb
 3037              		.thumb_func
 3038              		.type	GetSignedLongAsUnsignedChar, %function
 3039              	GetSignedLongAsUnsignedChar:
 3040              	.LFB26:
 437:QX_Parsing_Functions.c **** 
 438:QX_Parsing_Functions.c **** void GetSignedLongAsUnsignedChar(int32_t *v, uint32_t n, int32_t max, int32_t min)
 439:QX_Parsing_Functions.c **** {
 3041              		.loc 1 439 0
 3042              		.cfi_startproc
 3043              		@ args = 0, pretend = 0, frame = 24
 3044              		@ frame_needed = 1, uses_anonymous_args = 0
 3045              		@ link register save eliminated.
 3046 0000 80B4     		push	{r7}
 3047              		.cfi_def_cfa_offset 4
 3048              		.cfi_offset 7, -4
 3049 0002 87B0     		sub	sp, sp, #28
 3050              		.cfi_def_cfa_offset 32
 3051 0004 00AF     		add	r7, sp, #0
 3052              		.cfi_def_cfa_register 7
 3053 0006 F860     		str	r0, [r7, #12]
 3054 0008 B960     		str	r1, [r7, #8]
 3055 000a 7A60     		str	r2, [r7, #4]
 3056 000c 3B60     		str	r3, [r7]
ARM GAS  C:\Users\JENNEW~1\AppData\Local\Temp\cce2sJFM.s 			page 64


 440:QX_Parsing_Functions.c ****     if(rw == QB_Parser_Dir_WriteDel)
 3057              		.loc 1 440 0
 3058 000e 2A4B     		ldr	r3, .L282
 3059 0010 1B78     		ldrb	r3, [r3]	@ zero_extendqisi2
 3060 0012 012B     		cmp	r3, #1
 3061 0014 46D1     		bne	.L277
 441:QX_Parsing_Functions.c ****     {
 442:QX_Parsing_Functions.c ****         while(n--)
 3062              		.loc 1 442 0
 3063 0016 21E0     		b	.L272
 3064              	.L275:
 3065              	.LBB27:
 443:QX_Parsing_Functions.c ****         {
 444:QX_Parsing_Functions.c ****             int32_t r = (int32_t)GETSC;    // Force int8_t if relative change
 3066              		.loc 1 444 0
 3067 0018 284B     		ldr	r3, .L282+4
 3068 001a 1B68     		ldr	r3, [r3]
 3069 001c 5A1C     		adds	r2, r3, #1
 3070 001e 2749     		ldr	r1, .L282+4
 3071 0020 0A60     		str	r2, [r1]
 3072 0022 1B78     		ldrb	r3, [r3]
 3073 0024 DBB2     		uxtb	r3, r3
 3074 0026 5BB2     		sxtb	r3, r3
 3075 0028 7B61     		str	r3, [r7, #20]
 445:QX_Parsing_Functions.c ****             *v += r;
 3076              		.loc 1 445 0
 3077 002a FB68     		ldr	r3, [r7, #12]
 3078 002c 1A68     		ldr	r2, [r3]
 3079 002e 7B69     		ldr	r3, [r7, #20]
 3080 0030 1A44     		add	r2, r2, r3
 3081 0032 FB68     		ldr	r3, [r7, #12]
 3082 0034 1A60     		str	r2, [r3]
 446:QX_Parsing_Functions.c ****             if(max < *v) *v = max;
 3083              		.loc 1 446 0
 3084 0036 FB68     		ldr	r3, [r7, #12]
 3085 0038 1A68     		ldr	r2, [r3]
 3086 003a 7B68     		ldr	r3, [r7, #4]
 3087 003c 9A42     		cmp	r2, r3
 3088 003e 02DD     		ble	.L273
 3089              		.loc 1 446 0 is_stmt 0 discriminator 1
 3090 0040 FB68     		ldr	r3, [r7, #12]
 3091 0042 7A68     		ldr	r2, [r7, #4]
 3092 0044 1A60     		str	r2, [r3]
 3093              	.L273:
 447:QX_Parsing_Functions.c ****             if(*v < min) *v = min;
 3094              		.loc 1 447 0 is_stmt 1
 3095 0046 FB68     		ldr	r3, [r7, #12]
 3096 0048 1A68     		ldr	r2, [r3]
 3097 004a 3B68     		ldr	r3, [r7]
 3098 004c 9A42     		cmp	r2, r3
 3099 004e 02DA     		bge	.L274
 3100              		.loc 1 447 0 is_stmt 0 discriminator 1
 3101 0050 FB68     		ldr	r3, [r7, #12]
 3102 0052 3A68     		ldr	r2, [r7]
 3103 0054 1A60     		str	r2, [r3]
 3104              	.L274:
 448:QX_Parsing_Functions.c ****             v++;
ARM GAS  C:\Users\JENNEW~1\AppData\Local\Temp\cce2sJFM.s 			page 65


 3105              		.loc 1 448 0 is_stmt 1
 3106 0056 FB68     		ldr	r3, [r7, #12]
 3107 0058 0433     		adds	r3, r3, #4
 3108 005a FB60     		str	r3, [r7, #12]
 3109              	.L272:
 3110              	.LBE27:
 442:QX_Parsing_Functions.c ****         {
 3111              		.loc 1 442 0
 3112 005c BB68     		ldr	r3, [r7, #8]
 3113 005e 5A1E     		subs	r2, r3, #1
 3114 0060 BA60     		str	r2, [r7, #8]
 3115 0062 002B     		cmp	r3, #0
 3116 0064 D8D1     		bne	.L275
 449:QX_Parsing_Functions.c ****         }
 450:QX_Parsing_Functions.c ****     }
 451:QX_Parsing_Functions.c ****     else
 452:QX_Parsing_Functions.c ****     {
 453:QX_Parsing_Functions.c ****         while(n--)
 454:QX_Parsing_Functions.c ****         {
 455:QX_Parsing_Functions.c ****             int32_t r = (int32_t)GETUC;
 456:QX_Parsing_Functions.c ****             *v = r;
 457:QX_Parsing_Functions.c ****             if(max < *v) *v = max;
 458:QX_Parsing_Functions.c ****             if(*v < min) *v = min;
 459:QX_Parsing_Functions.c ****             v++;
 460:QX_Parsing_Functions.c ****         }
 461:QX_Parsing_Functions.c ****     }
 462:QX_Parsing_Functions.c **** }
 3117              		.loc 1 462 0
 3118 0066 22E0     		b	.L281
 3119              	.L280:
 3120              	.LBB28:
 455:QX_Parsing_Functions.c ****             *v = r;
 3121              		.loc 1 455 0
 3122 0068 144B     		ldr	r3, .L282+4
 3123 006a 1B68     		ldr	r3, [r3]
 3124 006c 5A1C     		adds	r2, r3, #1
 3125 006e 1349     		ldr	r1, .L282+4
 3126 0070 0A60     		str	r2, [r1]
 3127 0072 1B78     		ldrb	r3, [r3]
 3128 0074 DBB2     		uxtb	r3, r3
 3129 0076 3B61     		str	r3, [r7, #16]
 456:QX_Parsing_Functions.c ****             if(max < *v) *v = max;
 3130              		.loc 1 456 0
 3131 0078 FB68     		ldr	r3, [r7, #12]
 3132 007a 3A69     		ldr	r2, [r7, #16]
 3133 007c 1A60     		str	r2, [r3]
 457:QX_Parsing_Functions.c ****             if(*v < min) *v = min;
 3134              		.loc 1 457 0
 3135 007e FB68     		ldr	r3, [r7, #12]
 3136 0080 1A68     		ldr	r2, [r3]
 3137 0082 7B68     		ldr	r3, [r7, #4]
 3138 0084 9A42     		cmp	r2, r3
 3139 0086 02DD     		ble	.L278
 457:QX_Parsing_Functions.c ****             if(*v < min) *v = min;
 3140              		.loc 1 457 0 is_stmt 0 discriminator 1
 3141 0088 FB68     		ldr	r3, [r7, #12]
 3142 008a 7A68     		ldr	r2, [r7, #4]
ARM GAS  C:\Users\JENNEW~1\AppData\Local\Temp\cce2sJFM.s 			page 66


 3143 008c 1A60     		str	r2, [r3]
 3144              	.L278:
 458:QX_Parsing_Functions.c ****             v++;
 3145              		.loc 1 458 0 is_stmt 1
 3146 008e FB68     		ldr	r3, [r7, #12]
 3147 0090 1A68     		ldr	r2, [r3]
 3148 0092 3B68     		ldr	r3, [r7]
 3149 0094 9A42     		cmp	r2, r3
 3150 0096 02DA     		bge	.L279
 458:QX_Parsing_Functions.c ****             v++;
 3151              		.loc 1 458 0 is_stmt 0 discriminator 1
 3152 0098 FB68     		ldr	r3, [r7, #12]
 3153 009a 3A68     		ldr	r2, [r7]
 3154 009c 1A60     		str	r2, [r3]
 3155              	.L279:
 459:QX_Parsing_Functions.c ****         }
 3156              		.loc 1 459 0 is_stmt 1
 3157 009e FB68     		ldr	r3, [r7, #12]
 3158 00a0 0433     		adds	r3, r3, #4
 3159 00a2 FB60     		str	r3, [r7, #12]
 3160              	.L277:
 3161              	.LBE28:
 453:QX_Parsing_Functions.c ****         {
 3162              		.loc 1 453 0
 3163 00a4 BB68     		ldr	r3, [r7, #8]
 3164 00a6 5A1E     		subs	r2, r3, #1
 3165 00a8 BA60     		str	r2, [r7, #8]
 3166 00aa 002B     		cmp	r3, #0
 3167 00ac DCD1     		bne	.L280
 3168              	.L281:
 3169              		.loc 1 462 0
 3170 00ae 00BF     		nop
 3171 00b0 1C37     		adds	r7, r7, #28
 3172              		.cfi_def_cfa_offset 4
 3173 00b2 BD46     		mov	sp, r7
 3174              		.cfi_def_cfa_register 13
 3175              		@ sp needed
 3176 00b4 80BC     		pop	{r7}
 3177              		.cfi_restore 7
 3178              		.cfi_def_cfa_offset 0
 3179 00b6 7047     		bx	lr
 3180              	.L283:
 3181              		.align	2
 3182              	.L282:
 3183 00b8 00000000 		.word	rw
 3184 00bc 00000000 		.word	msgPtr
 3185              		.cfi_endproc
 3186              	.LFE26:
 3187              		.size	GetSignedLongAsUnsignedChar, .-GetSignedLongAsUnsignedChar
 3188              		.section	.text.AddSignedShortAsSignedShort,"ax",%progbits
 3189              		.align	2
 3190              		.global	AddSignedShortAsSignedShort
 3191              		.thumb
 3192              		.thumb_func
 3193              		.type	AddSignedShortAsSignedShort, %function
 3194              	AddSignedShortAsSignedShort:
 3195              	.LFB27:
ARM GAS  C:\Users\JENNEW~1\AppData\Local\Temp\cce2sJFM.s 			page 67


 463:QX_Parsing_Functions.c **** 
 464:QX_Parsing_Functions.c **** void AddSignedShortAsSignedShort(int16_t *v, uint32_t n)
 465:QX_Parsing_Functions.c **** {
 3196              		.loc 1 465 0
 3197              		.cfi_startproc
 3198              		@ args = 0, pretend = 0, frame = 16
 3199              		@ frame_needed = 1, uses_anonymous_args = 0
 3200              		@ link register save eliminated.
 3201 0000 80B4     		push	{r7}
 3202              		.cfi_def_cfa_offset 4
 3203              		.cfi_offset 7, -4
 3204 0002 85B0     		sub	sp, sp, #20
 3205              		.cfi_def_cfa_offset 24
 3206 0004 00AF     		add	r7, sp, #0
 3207              		.cfi_def_cfa_register 7
 3208 0006 7860     		str	r0, [r7, #4]
 3209 0008 3960     		str	r1, [r7]
 466:QX_Parsing_Functions.c ****     while(n--)
 3210              		.loc 1 466 0
 3211 000a 18E0     		b	.L285
 3212              	.L286:
 3213              	.LBB29:
 467:QX_Parsing_Functions.c ****     {
 468:QX_Parsing_Functions.c ****         int16_t value = *v;
 3214              		.loc 1 468 0
 3215 000c 7B68     		ldr	r3, [r7, #4]
 3216 000e 1B88     		ldrh	r3, [r3]	@ movhi
 3217 0010 FB81     		strh	r3, [r7, #14]	@ movhi
 469:QX_Parsing_Functions.c ****         ADDSS(value);
 3218              		.loc 1 469 0
 3219 0012 104B     		ldr	r3, .L287
 3220 0014 1B68     		ldr	r3, [r3]
 3221 0016 5A1C     		adds	r2, r3, #1
 3222 0018 0E49     		ldr	r1, .L287
 3223 001a 0A60     		str	r2, [r1]
 3224 001c B7F90E20 		ldrsh	r2, [r7, #14]
 3225 0020 1212     		asrs	r2, r2, #8
 3226 0022 12B2     		sxth	r2, r2
 3227 0024 D2B2     		uxtb	r2, r2
 3228 0026 1A70     		strb	r2, [r3]
 3229 0028 0A4B     		ldr	r3, .L287
 3230 002a 1B68     		ldr	r3, [r3]
 3231 002c 5A1C     		adds	r2, r3, #1
 3232 002e 0949     		ldr	r1, .L287
 3233 0030 0A60     		str	r2, [r1]
 3234 0032 FA89     		ldrh	r2, [r7, #14]	@ movhi
 3235 0034 D2B2     		uxtb	r2, r2
 3236 0036 1A70     		strb	r2, [r3]
 470:QX_Parsing_Functions.c ****         v++;
 3237              		.loc 1 470 0
 3238 0038 7B68     		ldr	r3, [r7, #4]
 3239 003a 0233     		adds	r3, r3, #2
 3240 003c 7B60     		str	r3, [r7, #4]
 3241              	.L285:
 3242              	.LBE29:
 466:QX_Parsing_Functions.c ****     {
 3243              		.loc 1 466 0
ARM GAS  C:\Users\JENNEW~1\AppData\Local\Temp\cce2sJFM.s 			page 68


 3244 003e 3B68     		ldr	r3, [r7]
 3245 0040 5A1E     		subs	r2, r3, #1
 3246 0042 3A60     		str	r2, [r7]
 3247 0044 002B     		cmp	r3, #0
 3248 0046 E1D1     		bne	.L286
 471:QX_Parsing_Functions.c ****     }
 472:QX_Parsing_Functions.c **** }
 3249              		.loc 1 472 0
 3250 0048 00BF     		nop
 3251 004a 1437     		adds	r7, r7, #20
 3252              		.cfi_def_cfa_offset 4
 3253 004c BD46     		mov	sp, r7
 3254              		.cfi_def_cfa_register 13
 3255              		@ sp needed
 3256 004e 80BC     		pop	{r7}
 3257              		.cfi_restore 7
 3258              		.cfi_def_cfa_offset 0
 3259 0050 7047     		bx	lr
 3260              	.L288:
 3261 0052 00BF     		.align	2
 3262              	.L287:
 3263 0054 00000000 		.word	msgPtr
 3264              		.cfi_endproc
 3265              	.LFE27:
 3266              		.size	AddSignedShortAsSignedShort, .-AddSignedShortAsSignedShort
 3267              		.section	.text.AddSignedShortAsSignedChar,"ax",%progbits
 3268              		.align	2
 3269              		.global	AddSignedShortAsSignedChar
 3270              		.thumb
 3271              		.thumb_func
 3272              		.type	AddSignedShortAsSignedChar, %function
 3273              	AddSignedShortAsSignedChar:
 3274              	.LFB28:
 473:QX_Parsing_Functions.c **** 
 474:QX_Parsing_Functions.c **** void AddSignedShortAsSignedChar(int16_t *v, uint32_t n)
 475:QX_Parsing_Functions.c **** {
 3275              		.loc 1 475 0
 3276              		.cfi_startproc
 3277              		@ args = 0, pretend = 0, frame = 16
 3278              		@ frame_needed = 1, uses_anonymous_args = 0
 3279              		@ link register save eliminated.
 3280 0000 80B4     		push	{r7}
 3281              		.cfi_def_cfa_offset 4
 3282              		.cfi_offset 7, -4
 3283 0002 85B0     		sub	sp, sp, #20
 3284              		.cfi_def_cfa_offset 24
 3285 0004 00AF     		add	r7, sp, #0
 3286              		.cfi_def_cfa_register 7
 3287 0006 7860     		str	r0, [r7, #4]
 3288 0008 3960     		str	r1, [r7]
 476:QX_Parsing_Functions.c ****     while(n--)
 3289              		.loc 1 476 0
 3290 000a 0DE0     		b	.L290
 3291              	.L291:
 3292              	.LBB30:
 477:QX_Parsing_Functions.c ****     {
 478:QX_Parsing_Functions.c ****         int8_t value = (int8_t)(*v);
ARM GAS  C:\Users\JENNEW~1\AppData\Local\Temp\cce2sJFM.s 			page 69


 3293              		.loc 1 478 0
 3294 000c 7B68     		ldr	r3, [r7, #4]
 3295 000e B3F90030 		ldrsh	r3, [r3]
 3296 0012 FB73     		strb	r3, [r7, #15]
 479:QX_Parsing_Functions.c ****         ADDCHAR(value);
 3297              		.loc 1 479 0
 3298 0014 094B     		ldr	r3, .L292
 3299 0016 1B68     		ldr	r3, [r3]
 3300 0018 5A1C     		adds	r2, r3, #1
 3301 001a 0849     		ldr	r1, .L292
 3302 001c 0A60     		str	r2, [r1]
 3303 001e FA7B     		ldrb	r2, [r7, #15]	@ zero_extendqisi2
 3304 0020 1A70     		strb	r2, [r3]
 480:QX_Parsing_Functions.c ****         v++;
 3305              		.loc 1 480 0
 3306 0022 7B68     		ldr	r3, [r7, #4]
 3307 0024 0233     		adds	r3, r3, #2
 3308 0026 7B60     		str	r3, [r7, #4]
 3309              	.L290:
 3310              	.LBE30:
 476:QX_Parsing_Functions.c ****     {
 3311              		.loc 1 476 0
 3312 0028 3B68     		ldr	r3, [r7]
 3313 002a 5A1E     		subs	r2, r3, #1
 3314 002c 3A60     		str	r2, [r7]
 3315 002e 002B     		cmp	r3, #0
 3316 0030 ECD1     		bne	.L291
 481:QX_Parsing_Functions.c ****     }
 482:QX_Parsing_Functions.c **** }
 3317              		.loc 1 482 0
 3318 0032 00BF     		nop
 3319 0034 1437     		adds	r7, r7, #20
 3320              		.cfi_def_cfa_offset 4
 3321 0036 BD46     		mov	sp, r7
 3322              		.cfi_def_cfa_register 13
 3323              		@ sp needed
 3324 0038 80BC     		pop	{r7}
 3325              		.cfi_restore 7
 3326              		.cfi_def_cfa_offset 0
 3327 003a 7047     		bx	lr
 3328              	.L293:
 3329              		.align	2
 3330              	.L292:
 3331 003c 00000000 		.word	msgPtr
 3332              		.cfi_endproc
 3333              	.LFE28:
 3334              		.size	AddSignedShortAsSignedChar, .-AddSignedShortAsSignedChar
 3335              		.section	.text.AddSignedShortAsUnsignedChar,"ax",%progbits
 3336              		.align	2
 3337              		.global	AddSignedShortAsUnsignedChar
 3338              		.thumb
 3339              		.thumb_func
 3340              		.type	AddSignedShortAsUnsignedChar, %function
 3341              	AddSignedShortAsUnsignedChar:
 3342              	.LFB29:
 483:QX_Parsing_Functions.c **** 
 484:QX_Parsing_Functions.c **** void AddSignedShortAsUnsignedChar(int16_t *v, uint32_t n)
ARM GAS  C:\Users\JENNEW~1\AppData\Local\Temp\cce2sJFM.s 			page 70


 485:QX_Parsing_Functions.c **** {
 3343              		.loc 1 485 0
 3344              		.cfi_startproc
 3345              		@ args = 0, pretend = 0, frame = 16
 3346              		@ frame_needed = 1, uses_anonymous_args = 0
 3347              		@ link register save eliminated.
 3348 0000 80B4     		push	{r7}
 3349              		.cfi_def_cfa_offset 4
 3350              		.cfi_offset 7, -4
 3351 0002 85B0     		sub	sp, sp, #20
 3352              		.cfi_def_cfa_offset 24
 3353 0004 00AF     		add	r7, sp, #0
 3354              		.cfi_def_cfa_register 7
 3355 0006 7860     		str	r0, [r7, #4]
 3356 0008 3960     		str	r1, [r7]
 486:QX_Parsing_Functions.c ****     while(n--)
 3357              		.loc 1 486 0
 3358 000a 0DE0     		b	.L295
 3359              	.L296:
 3360              	.LBB31:
 487:QX_Parsing_Functions.c ****     {
 488:QX_Parsing_Functions.c ****         uint8_t value = (uint8_t)(*v);
 3361              		.loc 1 488 0
 3362 000c 7B68     		ldr	r3, [r7, #4]
 3363 000e B3F90030 		ldrsh	r3, [r3]
 3364 0012 FB73     		strb	r3, [r7, #15]
 489:QX_Parsing_Functions.c ****         ADDCHAR(value);
 3365              		.loc 1 489 0
 3366 0014 094B     		ldr	r3, .L297
 3367 0016 1B68     		ldr	r3, [r3]
 3368 0018 5A1C     		adds	r2, r3, #1
 3369 001a 0849     		ldr	r1, .L297
 3370 001c 0A60     		str	r2, [r1]
 3371 001e FA7B     		ldrb	r2, [r7, #15]
 3372 0020 1A70     		strb	r2, [r3]
 490:QX_Parsing_Functions.c ****         v++;
 3373              		.loc 1 490 0
 3374 0022 7B68     		ldr	r3, [r7, #4]
 3375 0024 0233     		adds	r3, r3, #2
 3376 0026 7B60     		str	r3, [r7, #4]
 3377              	.L295:
 3378              	.LBE31:
 486:QX_Parsing_Functions.c ****     {
 3379              		.loc 1 486 0
 3380 0028 3B68     		ldr	r3, [r7]
 3381 002a 5A1E     		subs	r2, r3, #1
 3382 002c 3A60     		str	r2, [r7]
 3383 002e 002B     		cmp	r3, #0
 3384 0030 ECD1     		bne	.L296
 491:QX_Parsing_Functions.c ****     }
 492:QX_Parsing_Functions.c **** }
 3385              		.loc 1 492 0
 3386 0032 00BF     		nop
 3387 0034 1437     		adds	r7, r7, #20
 3388              		.cfi_def_cfa_offset 4
 3389 0036 BD46     		mov	sp, r7
 3390              		.cfi_def_cfa_register 13
ARM GAS  C:\Users\JENNEW~1\AppData\Local\Temp\cce2sJFM.s 			page 71


 3391              		@ sp needed
 3392 0038 80BC     		pop	{r7}
 3393              		.cfi_restore 7
 3394              		.cfi_def_cfa_offset 0
 3395 003a 7047     		bx	lr
 3396              	.L298:
 3397              		.align	2
 3398              	.L297:
 3399 003c 00000000 		.word	msgPtr
 3400              		.cfi_endproc
 3401              	.LFE29:
 3402              		.size	AddSignedShortAsUnsignedChar, .-AddSignedShortAsUnsignedChar
 3403              		.section	.text.GetSignedShortAsSignedShort,"ax",%progbits
 3404              		.align	2
 3405              		.global	GetSignedShortAsSignedShort
 3406              		.thumb
 3407              		.thumb_func
 3408              		.type	GetSignedShortAsSignedShort, %function
 3409              	GetSignedShortAsSignedShort:
 3410              	.LFB30:
 493:QX_Parsing_Functions.c **** 
 494:QX_Parsing_Functions.c **** void GetSignedShortAsSignedShort(int16_t *v, uint32_t n, float max, float min)
 495:QX_Parsing_Functions.c **** {
 3411              		.loc 1 495 0
 3412              		.cfi_startproc
 3413              		@ args = 0, pretend = 0, frame = 24
 3414              		@ frame_needed = 1, uses_anonymous_args = 0
 3415 0000 80B5     		push	{r7, lr}
 3416              		.cfi_def_cfa_offset 8
 3417              		.cfi_offset 7, -8
 3418              		.cfi_offset 14, -4
 3419 0002 86B0     		sub	sp, sp, #24
 3420              		.cfi_def_cfa_offset 32
 3421 0004 00AF     		add	r7, sp, #0
 3422              		.cfi_def_cfa_register 7
 3423 0006 F860     		str	r0, [r7, #12]
 3424 0008 B960     		str	r1, [r7, #8]
 3425 000a 7A60     		str	r2, [r7, #4]	@ float
 3426 000c 3B60     		str	r3, [r7]	@ float
 496:QX_Parsing_Functions.c ****     if(rw == QB_Parser_Dir_WriteDel)
 3427              		.loc 1 496 0
 3428 000e 514B     		ldr	r3, .L319
 3429 0010 1B78     		ldrb	r3, [r3]	@ zero_extendqisi2
 3430 0012 012B     		cmp	r3, #1
 3431 0014 40F09480 		bne	.L308
 497:QX_Parsing_Functions.c ****     {
 498:QX_Parsing_Functions.c ****         while(n--)
 3432              		.loc 1 498 0
 3433 0018 49E0     		b	.L301
 3434              	.L306:
 3435              	.LBB32:
 499:QX_Parsing_Functions.c ****         {
 500:QX_Parsing_Functions.c ****             int16_t r = GETSS;
 3436              		.loc 1 500 0
 3437 001a 4F4B     		ldr	r3, .L319+4
 3438 001c 1B68     		ldr	r3, [r3]
 3439 001e 1B78     		ldrb	r3, [r3]
ARM GAS  C:\Users\JENNEW~1\AppData\Local\Temp\cce2sJFM.s 			page 72


 3440 0020 DBB2     		uxtb	r3, r3
 3441 0022 1B02     		lsls	r3, r3, #8
 3442 0024 1AB2     		sxth	r2, r3
 3443 0026 4C4B     		ldr	r3, .L319+4
 3444 0028 1B68     		ldr	r3, [r3]
 3445 002a 0133     		adds	r3, r3, #1
 3446 002c 1B78     		ldrb	r3, [r3]
 3447 002e DBB2     		uxtb	r3, r3
 3448 0030 1BB2     		sxth	r3, r3
 3449 0032 1343     		orrs	r3, r3, r2
 3450 0034 FB82     		strh	r3, [r7, #22]	@ movhi
 3451 0036 484B     		ldr	r3, .L319+4
 3452 0038 1B68     		ldr	r3, [r3]
 3453 003a 0233     		adds	r3, r3, #2
 3454 003c 464A     		ldr	r2, .L319+4
 3455 003e 1360     		str	r3, [r2]
 501:QX_Parsing_Functions.c ****             *v += r;
 3456              		.loc 1 501 0
 3457 0040 FB68     		ldr	r3, [r7, #12]
 3458 0042 B3F90030 		ldrsh	r3, [r3]
 3459 0046 9AB2     		uxth	r2, r3
 3460 0048 FB8A     		ldrh	r3, [r7, #22]
 3461 004a 1344     		add	r3, r3, r2
 3462 004c 9BB2     		uxth	r3, r3
 3463 004e 1AB2     		sxth	r2, r3
 3464 0050 FB68     		ldr	r3, [r7, #12]
 3465 0052 1A80     		strh	r2, [r3]	@ movhi
 502:QX_Parsing_Functions.c ****             if(max < *v) *v = max;
 3466              		.loc 1 502 0
 3467 0054 FB68     		ldr	r3, [r7, #12]
 3468 0056 B3F90030 		ldrsh	r3, [r3]
 3469 005a 1846     		mov	r0, r3
 3470 005c FFF7FEFF 		bl	__aeabi_i2f
 3471 0060 0346     		mov	r3, r0
 3472 0062 7968     		ldr	r1, [r7, #4]	@ float
 3473 0064 1846     		mov	r0, r3
 3474 0066 FFF7FEFF 		bl	__aeabi_fcmpgt
 3475 006a 0346     		mov	r3, r0
 3476 006c 002B     		cmp	r3, #0
 3477 006e 06D0     		beq	.L302
 3478              		.loc 1 502 0 is_stmt 0 discriminator 1
 3479 0070 7868     		ldr	r0, [r7, #4]	@ float
 3480 0072 FFF7FEFF 		bl	__aeabi_f2iz
 3481 0076 0346     		mov	r3, r0
 3482 0078 1AB2     		sxth	r2, r3
 3483 007a FB68     		ldr	r3, [r7, #12]
 3484 007c 1A80     		strh	r2, [r3]	@ movhi
 3485              	.L302:
 503:QX_Parsing_Functions.c ****             if(*v < min) *v = min;
 3486              		.loc 1 503 0 is_stmt 1
 3487 007e FB68     		ldr	r3, [r7, #12]
 3488 0080 B3F90030 		ldrsh	r3, [r3]
 3489 0084 1846     		mov	r0, r3
 3490 0086 FFF7FEFF 		bl	__aeabi_i2f
 3491 008a 0346     		mov	r3, r0
 3492 008c 3968     		ldr	r1, [r7]	@ float
 3493 008e 1846     		mov	r0, r3
ARM GAS  C:\Users\JENNEW~1\AppData\Local\Temp\cce2sJFM.s 			page 73


 3494 0090 FFF7FEFF 		bl	__aeabi_fcmplt
 3495 0094 0346     		mov	r3, r0
 3496 0096 002B     		cmp	r3, #0
 3497 0098 06D0     		beq	.L304
 3498              		.loc 1 503 0 is_stmt 0 discriminator 1
 3499 009a 3868     		ldr	r0, [r7]	@ float
 3500 009c FFF7FEFF 		bl	__aeabi_f2iz
 3501 00a0 0346     		mov	r3, r0
 3502 00a2 1AB2     		sxth	r2, r3
 3503 00a4 FB68     		ldr	r3, [r7, #12]
 3504 00a6 1A80     		strh	r2, [r3]	@ movhi
 3505              	.L304:
 504:QX_Parsing_Functions.c ****             v++;
 3506              		.loc 1 504 0 is_stmt 1
 3507 00a8 FB68     		ldr	r3, [r7, #12]
 3508 00aa 0233     		adds	r3, r3, #2
 3509 00ac FB60     		str	r3, [r7, #12]
 3510              	.L301:
 3511              	.LBE32:
 498:QX_Parsing_Functions.c ****         {
 3512              		.loc 1 498 0
 3513 00ae BB68     		ldr	r3, [r7, #8]
 3514 00b0 5A1E     		subs	r2, r3, #1
 3515 00b2 BA60     		str	r2, [r7, #8]
 3516 00b4 002B     		cmp	r3, #0
 3517 00b6 B0D1     		bne	.L306
 505:QX_Parsing_Functions.c ****         }
 506:QX_Parsing_Functions.c ****     }
 507:QX_Parsing_Functions.c ****     else
 508:QX_Parsing_Functions.c ****     {
 509:QX_Parsing_Functions.c ****         while(n--)
 510:QX_Parsing_Functions.c ****         {
 511:QX_Parsing_Functions.c ****             int16_t r = GETSS;
 512:QX_Parsing_Functions.c ****             *v = r;
 513:QX_Parsing_Functions.c ****             if(max < *v) *v = max;
 514:QX_Parsing_Functions.c ****             if(*v < min) *v = min;
 515:QX_Parsing_Functions.c ****             v++;
 516:QX_Parsing_Functions.c ****         }
 517:QX_Parsing_Functions.c ****     }
 518:QX_Parsing_Functions.c **** }
 3518              		.loc 1 518 0
 3519 00b8 47E0     		b	.L318
 3520              	.L313:
 3521              	.LBB33:
 511:QX_Parsing_Functions.c ****             *v = r;
 3522              		.loc 1 511 0
 3523 00ba 274B     		ldr	r3, .L319+4
 3524 00bc 1B68     		ldr	r3, [r3]
 3525 00be 1B78     		ldrb	r3, [r3]
 3526 00c0 DBB2     		uxtb	r3, r3
 3527 00c2 1B02     		lsls	r3, r3, #8
 3528 00c4 1AB2     		sxth	r2, r3
 3529 00c6 244B     		ldr	r3, .L319+4
 3530 00c8 1B68     		ldr	r3, [r3]
 3531 00ca 0133     		adds	r3, r3, #1
 3532 00cc 1B78     		ldrb	r3, [r3]
 3533 00ce DBB2     		uxtb	r3, r3
ARM GAS  C:\Users\JENNEW~1\AppData\Local\Temp\cce2sJFM.s 			page 74


 3534 00d0 1BB2     		sxth	r3, r3
 3535 00d2 1343     		orrs	r3, r3, r2
 3536 00d4 BB82     		strh	r3, [r7, #20]	@ movhi
 3537 00d6 204B     		ldr	r3, .L319+4
 3538 00d8 1B68     		ldr	r3, [r3]
 3539 00da 0233     		adds	r3, r3, #2
 3540 00dc 1E4A     		ldr	r2, .L319+4
 3541 00de 1360     		str	r3, [r2]
 512:QX_Parsing_Functions.c ****             if(max < *v) *v = max;
 3542              		.loc 1 512 0
 3543 00e0 FB68     		ldr	r3, [r7, #12]
 3544 00e2 BA8A     		ldrh	r2, [r7, #20]	@ movhi
 3545 00e4 1A80     		strh	r2, [r3]	@ movhi
 513:QX_Parsing_Functions.c ****             if(*v < min) *v = min;
 3546              		.loc 1 513 0
 3547 00e6 FB68     		ldr	r3, [r7, #12]
 3548 00e8 B3F90030 		ldrsh	r3, [r3]
 3549 00ec 1846     		mov	r0, r3
 3550 00ee FFF7FEFF 		bl	__aeabi_i2f
 3551 00f2 0346     		mov	r3, r0
 3552 00f4 7968     		ldr	r1, [r7, #4]	@ float
 3553 00f6 1846     		mov	r0, r3
 3554 00f8 FFF7FEFF 		bl	__aeabi_fcmpgt
 3555 00fc 0346     		mov	r3, r0
 3556 00fe 002B     		cmp	r3, #0
 3557 0100 06D0     		beq	.L309
 513:QX_Parsing_Functions.c ****             if(*v < min) *v = min;
 3558              		.loc 1 513 0 is_stmt 0 discriminator 1
 3559 0102 7868     		ldr	r0, [r7, #4]	@ float
 3560 0104 FFF7FEFF 		bl	__aeabi_f2iz
 3561 0108 0346     		mov	r3, r0
 3562 010a 1AB2     		sxth	r2, r3
 3563 010c FB68     		ldr	r3, [r7, #12]
 3564 010e 1A80     		strh	r2, [r3]	@ movhi
 3565              	.L309:
 514:QX_Parsing_Functions.c ****             v++;
 3566              		.loc 1 514 0 is_stmt 1
 3567 0110 FB68     		ldr	r3, [r7, #12]
 3568 0112 B3F90030 		ldrsh	r3, [r3]
 3569 0116 1846     		mov	r0, r3
 3570 0118 FFF7FEFF 		bl	__aeabi_i2f
 3571 011c 0346     		mov	r3, r0
 3572 011e 3968     		ldr	r1, [r7]	@ float
 3573 0120 1846     		mov	r0, r3
 3574 0122 FFF7FEFF 		bl	__aeabi_fcmplt
 3575 0126 0346     		mov	r3, r0
 3576 0128 002B     		cmp	r3, #0
 3577 012a 06D0     		beq	.L311
 514:QX_Parsing_Functions.c ****             v++;
 3578              		.loc 1 514 0 is_stmt 0 discriminator 1
 3579 012c 3868     		ldr	r0, [r7]	@ float
 3580 012e FFF7FEFF 		bl	__aeabi_f2iz
 3581 0132 0346     		mov	r3, r0
 3582 0134 1AB2     		sxth	r2, r3
 3583 0136 FB68     		ldr	r3, [r7, #12]
 3584 0138 1A80     		strh	r2, [r3]	@ movhi
 3585              	.L311:
ARM GAS  C:\Users\JENNEW~1\AppData\Local\Temp\cce2sJFM.s 			page 75


 515:QX_Parsing_Functions.c ****         }
 3586              		.loc 1 515 0 is_stmt 1
 3587 013a FB68     		ldr	r3, [r7, #12]
 3588 013c 0233     		adds	r3, r3, #2
 3589 013e FB60     		str	r3, [r7, #12]
 3590              	.L308:
 3591              	.LBE33:
 509:QX_Parsing_Functions.c ****         {
 3592              		.loc 1 509 0
 3593 0140 BB68     		ldr	r3, [r7, #8]
 3594 0142 5A1E     		subs	r2, r3, #1
 3595 0144 BA60     		str	r2, [r7, #8]
 3596 0146 002B     		cmp	r3, #0
 3597 0148 B7D1     		bne	.L313
 3598              	.L318:
 3599              		.loc 1 518 0
 3600 014a 00BF     		nop
 3601 014c 1837     		adds	r7, r7, #24
 3602              		.cfi_def_cfa_offset 8
 3603 014e BD46     		mov	sp, r7
 3604              		.cfi_def_cfa_register 13
 3605              		@ sp needed
 3606 0150 80BD     		pop	{r7, pc}
 3607              	.L320:
 3608 0152 00BF     		.align	2
 3609              	.L319:
 3610 0154 00000000 		.word	rw
 3611 0158 00000000 		.word	msgPtr
 3612              		.cfi_endproc
 3613              	.LFE30:
 3614              		.size	GetSignedShortAsSignedShort, .-GetSignedShortAsSignedShort
 3615              		.section	.text.GetSignedShortAsSignedChar,"ax",%progbits
 3616              		.align	2
 3617              		.global	GetSignedShortAsSignedChar
 3618              		.thumb
 3619              		.thumb_func
 3620              		.type	GetSignedShortAsSignedChar, %function
 3621              	GetSignedShortAsSignedChar:
 3622              	.LFB31:
 519:QX_Parsing_Functions.c **** 
 520:QX_Parsing_Functions.c **** void GetSignedShortAsSignedChar(int16_t *v, uint32_t n, float max, float min)
 521:QX_Parsing_Functions.c **** {
 3623              		.loc 1 521 0
 3624              		.cfi_startproc
 3625              		@ args = 0, pretend = 0, frame = 24
 3626              		@ frame_needed = 1, uses_anonymous_args = 0
 3627 0000 80B5     		push	{r7, lr}
 3628              		.cfi_def_cfa_offset 8
 3629              		.cfi_offset 7, -8
 3630              		.cfi_offset 14, -4
 3631 0002 86B0     		sub	sp, sp, #24
 3632              		.cfi_def_cfa_offset 32
 3633 0004 00AF     		add	r7, sp, #0
 3634              		.cfi_def_cfa_register 7
 3635 0006 F860     		str	r0, [r7, #12]
 3636 0008 B960     		str	r1, [r7, #8]
 3637 000a 7A60     		str	r2, [r7, #4]	@ float
ARM GAS  C:\Users\JENNEW~1\AppData\Local\Temp\cce2sJFM.s 			page 76


 3638 000c 3B60     		str	r3, [r7]	@ float
 522:QX_Parsing_Functions.c ****     if(rw == QB_Parser_Dir_WriteDel)
 3639              		.loc 1 522 0
 3640 000e 464B     		ldr	r3, .L341
 3641 0010 1B78     		ldrb	r3, [r3]	@ zero_extendqisi2
 3642 0012 012B     		cmp	r3, #1
 3643 0014 7FD1     		bne	.L330
 523:QX_Parsing_Functions.c ****     {
 524:QX_Parsing_Functions.c ****         while(n--)
 3644              		.loc 1 524 0
 3645 0016 3FE0     		b	.L323
 3646              	.L328:
 3647              	.LBB34:
 525:QX_Parsing_Functions.c ****         {
 526:QX_Parsing_Functions.c ****             int16_t r = (int16_t)GETSC;
 3648              		.loc 1 526 0
 3649 0018 444B     		ldr	r3, .L341+4
 3650 001a 1B68     		ldr	r3, [r3]
 3651 001c 5A1C     		adds	r2, r3, #1
 3652 001e 4349     		ldr	r1, .L341+4
 3653 0020 0A60     		str	r2, [r1]
 3654 0022 1B78     		ldrb	r3, [r3]
 3655 0024 DBB2     		uxtb	r3, r3
 3656 0026 5BB2     		sxtb	r3, r3
 3657 0028 FB82     		strh	r3, [r7, #22]	@ movhi
 527:QX_Parsing_Functions.c ****             *v += (int16_t)r;
 3658              		.loc 1 527 0
 3659 002a FB68     		ldr	r3, [r7, #12]
 3660 002c B3F90030 		ldrsh	r3, [r3]
 3661 0030 9AB2     		uxth	r2, r3
 3662 0032 FB8A     		ldrh	r3, [r7, #22]
 3663 0034 1344     		add	r3, r3, r2
 3664 0036 9BB2     		uxth	r3, r3
 3665 0038 1AB2     		sxth	r2, r3
 3666 003a FB68     		ldr	r3, [r7, #12]
 3667 003c 1A80     		strh	r2, [r3]	@ movhi
 528:QX_Parsing_Functions.c ****             if(max < *v) *v = max;
 3668              		.loc 1 528 0
 3669 003e FB68     		ldr	r3, [r7, #12]
 3670 0040 B3F90030 		ldrsh	r3, [r3]
 3671 0044 1846     		mov	r0, r3
 3672 0046 FFF7FEFF 		bl	__aeabi_i2f
 3673 004a 0346     		mov	r3, r0
 3674 004c 7968     		ldr	r1, [r7, #4]	@ float
 3675 004e 1846     		mov	r0, r3
 3676 0050 FFF7FEFF 		bl	__aeabi_fcmpgt
 3677 0054 0346     		mov	r3, r0
 3678 0056 002B     		cmp	r3, #0
 3679 0058 06D0     		beq	.L324
 3680              		.loc 1 528 0 is_stmt 0 discriminator 1
 3681 005a 7868     		ldr	r0, [r7, #4]	@ float
 3682 005c FFF7FEFF 		bl	__aeabi_f2iz
 3683 0060 0346     		mov	r3, r0
 3684 0062 1AB2     		sxth	r2, r3
 3685 0064 FB68     		ldr	r3, [r7, #12]
 3686 0066 1A80     		strh	r2, [r3]	@ movhi
 3687              	.L324:
ARM GAS  C:\Users\JENNEW~1\AppData\Local\Temp\cce2sJFM.s 			page 77


 529:QX_Parsing_Functions.c ****             if(*v < min) *v = min;
 3688              		.loc 1 529 0 is_stmt 1
 3689 0068 FB68     		ldr	r3, [r7, #12]
 3690 006a B3F90030 		ldrsh	r3, [r3]
 3691 006e 1846     		mov	r0, r3
 3692 0070 FFF7FEFF 		bl	__aeabi_i2f
 3693 0074 0346     		mov	r3, r0
 3694 0076 3968     		ldr	r1, [r7]	@ float
 3695 0078 1846     		mov	r0, r3
 3696 007a FFF7FEFF 		bl	__aeabi_fcmplt
 3697 007e 0346     		mov	r3, r0
 3698 0080 002B     		cmp	r3, #0
 3699 0082 06D0     		beq	.L326
 3700              		.loc 1 529 0 is_stmt 0 discriminator 1
 3701 0084 3868     		ldr	r0, [r7]	@ float
 3702 0086 FFF7FEFF 		bl	__aeabi_f2iz
 3703 008a 0346     		mov	r3, r0
 3704 008c 1AB2     		sxth	r2, r3
 3705 008e FB68     		ldr	r3, [r7, #12]
 3706 0090 1A80     		strh	r2, [r3]	@ movhi
 3707              	.L326:
 530:QX_Parsing_Functions.c ****             v++;
 3708              		.loc 1 530 0 is_stmt 1
 3709 0092 FB68     		ldr	r3, [r7, #12]
 3710 0094 0233     		adds	r3, r3, #2
 3711 0096 FB60     		str	r3, [r7, #12]
 3712              	.L323:
 3713              	.LBE34:
 524:QX_Parsing_Functions.c ****         {
 3714              		.loc 1 524 0
 3715 0098 BB68     		ldr	r3, [r7, #8]
 3716 009a 5A1E     		subs	r2, r3, #1
 3717 009c BA60     		str	r2, [r7, #8]
 3718 009e 002B     		cmp	r3, #0
 3719 00a0 BAD1     		bne	.L328
 531:QX_Parsing_Functions.c ****         }
 532:QX_Parsing_Functions.c ****     }
 533:QX_Parsing_Functions.c ****     else
 534:QX_Parsing_Functions.c ****     {
 535:QX_Parsing_Functions.c ****         while(n--)
 536:QX_Parsing_Functions.c ****         {
 537:QX_Parsing_Functions.c ****             int16_t r = (int16_t)GETSC;
 538:QX_Parsing_Functions.c ****             *v = (int16_t)r;
 539:QX_Parsing_Functions.c ****             if(max < *v) *v = max;
 540:QX_Parsing_Functions.c ****             if(*v < min) *v = min;
 541:QX_Parsing_Functions.c ****             v++;
 542:QX_Parsing_Functions.c ****         }
 543:QX_Parsing_Functions.c ****     }
 544:QX_Parsing_Functions.c **** }
 3720              		.loc 1 544 0
 3721 00a2 3DE0     		b	.L340
 3722              	.L335:
 3723              	.LBB35:
 537:QX_Parsing_Functions.c ****             *v = (int16_t)r;
 3724              		.loc 1 537 0
 3725 00a4 214B     		ldr	r3, .L341+4
 3726 00a6 1B68     		ldr	r3, [r3]
ARM GAS  C:\Users\JENNEW~1\AppData\Local\Temp\cce2sJFM.s 			page 78


 3727 00a8 5A1C     		adds	r2, r3, #1
 3728 00aa 2049     		ldr	r1, .L341+4
 3729 00ac 0A60     		str	r2, [r1]
 3730 00ae 1B78     		ldrb	r3, [r3]
 3731 00b0 DBB2     		uxtb	r3, r3
 3732 00b2 5BB2     		sxtb	r3, r3
 3733 00b4 BB82     		strh	r3, [r7, #20]	@ movhi
 538:QX_Parsing_Functions.c ****             if(max < *v) *v = max;
 3734              		.loc 1 538 0
 3735 00b6 FB68     		ldr	r3, [r7, #12]
 3736 00b8 BA8A     		ldrh	r2, [r7, #20]	@ movhi
 3737 00ba 1A80     		strh	r2, [r3]	@ movhi
 539:QX_Parsing_Functions.c ****             if(*v < min) *v = min;
 3738              		.loc 1 539 0
 3739 00bc FB68     		ldr	r3, [r7, #12]
 3740 00be B3F90030 		ldrsh	r3, [r3]
 3741 00c2 1846     		mov	r0, r3
 3742 00c4 FFF7FEFF 		bl	__aeabi_i2f
 3743 00c8 0346     		mov	r3, r0
 3744 00ca 7968     		ldr	r1, [r7, #4]	@ float
 3745 00cc 1846     		mov	r0, r3
 3746 00ce FFF7FEFF 		bl	__aeabi_fcmpgt
 3747 00d2 0346     		mov	r3, r0
 3748 00d4 002B     		cmp	r3, #0
 3749 00d6 06D0     		beq	.L331
 539:QX_Parsing_Functions.c ****             if(*v < min) *v = min;
 3750              		.loc 1 539 0 is_stmt 0 discriminator 1
 3751 00d8 7868     		ldr	r0, [r7, #4]	@ float
 3752 00da FFF7FEFF 		bl	__aeabi_f2iz
 3753 00de 0346     		mov	r3, r0
 3754 00e0 1AB2     		sxth	r2, r3
 3755 00e2 FB68     		ldr	r3, [r7, #12]
 3756 00e4 1A80     		strh	r2, [r3]	@ movhi
 3757              	.L331:
 540:QX_Parsing_Functions.c ****             v++;
 3758              		.loc 1 540 0 is_stmt 1
 3759 00e6 FB68     		ldr	r3, [r7, #12]
 3760 00e8 B3F90030 		ldrsh	r3, [r3]
 3761 00ec 1846     		mov	r0, r3
 3762 00ee FFF7FEFF 		bl	__aeabi_i2f
 3763 00f2 0346     		mov	r3, r0
 3764 00f4 3968     		ldr	r1, [r7]	@ float
 3765 00f6 1846     		mov	r0, r3
 3766 00f8 FFF7FEFF 		bl	__aeabi_fcmplt
 3767 00fc 0346     		mov	r3, r0
 3768 00fe 002B     		cmp	r3, #0
 3769 0100 06D0     		beq	.L333
 540:QX_Parsing_Functions.c ****             v++;
 3770              		.loc 1 540 0 is_stmt 0 discriminator 1
 3771 0102 3868     		ldr	r0, [r7]	@ float
 3772 0104 FFF7FEFF 		bl	__aeabi_f2iz
 3773 0108 0346     		mov	r3, r0
 3774 010a 1AB2     		sxth	r2, r3
 3775 010c FB68     		ldr	r3, [r7, #12]
 3776 010e 1A80     		strh	r2, [r3]	@ movhi
 3777              	.L333:
 541:QX_Parsing_Functions.c ****         }
ARM GAS  C:\Users\JENNEW~1\AppData\Local\Temp\cce2sJFM.s 			page 79


 3778              		.loc 1 541 0 is_stmt 1
 3779 0110 FB68     		ldr	r3, [r7, #12]
 3780 0112 0233     		adds	r3, r3, #2
 3781 0114 FB60     		str	r3, [r7, #12]
 3782              	.L330:
 3783              	.LBE35:
 535:QX_Parsing_Functions.c ****         {
 3784              		.loc 1 535 0
 3785 0116 BB68     		ldr	r3, [r7, #8]
 3786 0118 5A1E     		subs	r2, r3, #1
 3787 011a BA60     		str	r2, [r7, #8]
 3788 011c 002B     		cmp	r3, #0
 3789 011e C1D1     		bne	.L335
 3790              	.L340:
 3791              		.loc 1 544 0
 3792 0120 00BF     		nop
 3793 0122 1837     		adds	r7, r7, #24
 3794              		.cfi_def_cfa_offset 8
 3795 0124 BD46     		mov	sp, r7
 3796              		.cfi_def_cfa_register 13
 3797              		@ sp needed
 3798 0126 80BD     		pop	{r7, pc}
 3799              	.L342:
 3800              		.align	2
 3801              	.L341:
 3802 0128 00000000 		.word	rw
 3803 012c 00000000 		.word	msgPtr
 3804              		.cfi_endproc
 3805              	.LFE31:
 3806              		.size	GetSignedShortAsSignedChar, .-GetSignedShortAsSignedChar
 3807              		.section	.text.GetSignedShortAsUnsignedChar,"ax",%progbits
 3808              		.align	2
 3809              		.global	GetSignedShortAsUnsignedChar
 3810              		.thumb
 3811              		.thumb_func
 3812              		.type	GetSignedShortAsUnsignedChar, %function
 3813              	GetSignedShortAsUnsignedChar:
 3814              	.LFB32:
 545:QX_Parsing_Functions.c **** 
 546:QX_Parsing_Functions.c **** void GetSignedShortAsUnsignedChar(int16_t *v, uint32_t n, int16_t max, int16_t min)
 547:QX_Parsing_Functions.c **** {
 3815              		.loc 1 547 0
 3816              		.cfi_startproc
 3817              		@ args = 0, pretend = 0, frame = 24
 3818              		@ frame_needed = 1, uses_anonymous_args = 0
 3819              		@ link register save eliminated.
 3820 0000 80B4     		push	{r7}
 3821              		.cfi_def_cfa_offset 4
 3822              		.cfi_offset 7, -4
 3823 0002 87B0     		sub	sp, sp, #28
 3824              		.cfi_def_cfa_offset 32
 3825 0004 00AF     		add	r7, sp, #0
 3826              		.cfi_def_cfa_register 7
 3827 0006 F860     		str	r0, [r7, #12]
 3828 0008 B960     		str	r1, [r7, #8]
 3829 000a 1146     		mov	r1, r2
 3830 000c 1A46     		mov	r2, r3
ARM GAS  C:\Users\JENNEW~1\AppData\Local\Temp\cce2sJFM.s 			page 80


 3831 000e 0B46     		mov	r3, r1	@ movhi
 3832 0010 FB80     		strh	r3, [r7, #6]	@ movhi
 3833 0012 1346     		mov	r3, r2	@ movhi
 3834 0014 BB80     		strh	r3, [r7, #4]	@ movhi
 548:QX_Parsing_Functions.c ****     if(rw == QB_Parser_Dir_WriteDel)
 3835              		.loc 1 548 0
 3836 0016 304B     		ldr	r3, .L355
 3837 0018 1B78     		ldrb	r3, [r3]	@ zero_extendqisi2
 3838 001a 012B     		cmp	r3, #1
 3839 001c 52D1     		bne	.L350
 549:QX_Parsing_Functions.c ****     {
 550:QX_Parsing_Functions.c ****         while(n--)
 3840              		.loc 1 550 0
 3841 001e 29E0     		b	.L345
 3842              	.L348:
 3843              	.LBB36:
 551:QX_Parsing_Functions.c ****         {
 552:QX_Parsing_Functions.c ****             int16_t r = (int16_t)GETSC;
 3844              		.loc 1 552 0
 3845 0020 2E4B     		ldr	r3, .L355+4
 3846 0022 1B68     		ldr	r3, [r3]
 3847 0024 5A1C     		adds	r2, r3, #1
 3848 0026 2D49     		ldr	r1, .L355+4
 3849 0028 0A60     		str	r2, [r1]
 3850 002a 1B78     		ldrb	r3, [r3]
 3851 002c DBB2     		uxtb	r3, r3
 3852 002e 5BB2     		sxtb	r3, r3
 3853 0030 FB82     		strh	r3, [r7, #22]	@ movhi
 553:QX_Parsing_Functions.c ****             *v += r;
 3854              		.loc 1 553 0
 3855 0032 FB68     		ldr	r3, [r7, #12]
 3856 0034 B3F90030 		ldrsh	r3, [r3]
 3857 0038 9AB2     		uxth	r2, r3
 3858 003a FB8A     		ldrh	r3, [r7, #22]
 3859 003c 1344     		add	r3, r3, r2
 3860 003e 9BB2     		uxth	r3, r3
 3861 0040 1AB2     		sxth	r2, r3
 3862 0042 FB68     		ldr	r3, [r7, #12]
 3863 0044 1A80     		strh	r2, [r3]	@ movhi
 554:QX_Parsing_Functions.c ****             if(max < *v) *v = max;
 3864              		.loc 1 554 0
 3865 0046 FB68     		ldr	r3, [r7, #12]
 3866 0048 B3F90030 		ldrsh	r3, [r3]
 3867 004c B7F90620 		ldrsh	r2, [r7, #6]
 3868 0050 9A42     		cmp	r2, r3
 3869 0052 02DA     		bge	.L346
 3870              		.loc 1 554 0 is_stmt 0 discriminator 1
 3871 0054 FB68     		ldr	r3, [r7, #12]
 3872 0056 FA88     		ldrh	r2, [r7, #6]	@ movhi
 3873 0058 1A80     		strh	r2, [r3]	@ movhi
 3874              	.L346:
 555:QX_Parsing_Functions.c ****             if(*v < min) *v = min;
 3875              		.loc 1 555 0 is_stmt 1
 3876 005a FB68     		ldr	r3, [r7, #12]
 3877 005c B3F90030 		ldrsh	r3, [r3]
 3878 0060 B7F90420 		ldrsh	r2, [r7, #4]
 3879 0064 9A42     		cmp	r2, r3
ARM GAS  C:\Users\JENNEW~1\AppData\Local\Temp\cce2sJFM.s 			page 81


 3880 0066 02DD     		ble	.L347
 3881              		.loc 1 555 0 is_stmt 0 discriminator 1
 3882 0068 FB68     		ldr	r3, [r7, #12]
 3883 006a BA88     		ldrh	r2, [r7, #4]	@ movhi
 3884 006c 1A80     		strh	r2, [r3]	@ movhi
 3885              	.L347:
 556:QX_Parsing_Functions.c ****             v++;
 3886              		.loc 1 556 0 is_stmt 1
 3887 006e FB68     		ldr	r3, [r7, #12]
 3888 0070 0233     		adds	r3, r3, #2
 3889 0072 FB60     		str	r3, [r7, #12]
 3890              	.L345:
 3891              	.LBE36:
 550:QX_Parsing_Functions.c ****         {
 3892              		.loc 1 550 0
 3893 0074 BB68     		ldr	r3, [r7, #8]
 3894 0076 5A1E     		subs	r2, r3, #1
 3895 0078 BA60     		str	r2, [r7, #8]
 3896 007a 002B     		cmp	r3, #0
 3897 007c D0D1     		bne	.L348
 557:QX_Parsing_Functions.c ****         }
 558:QX_Parsing_Functions.c ****     }
 559:QX_Parsing_Functions.c ****     else
 560:QX_Parsing_Functions.c ****     {
 561:QX_Parsing_Functions.c ****         while(n--)
 562:QX_Parsing_Functions.c ****         {
 563:QX_Parsing_Functions.c ****             int16_t r = (int16_t)GETUC;
 564:QX_Parsing_Functions.c ****             *v = r;
 565:QX_Parsing_Functions.c ****             if(max < *v) *v = max;
 566:QX_Parsing_Functions.c ****             if(*v < min) *v = min;
 567:QX_Parsing_Functions.c ****             v++;
 568:QX_Parsing_Functions.c ****         }
 569:QX_Parsing_Functions.c ****     }
 570:QX_Parsing_Functions.c **** }
 3898              		.loc 1 570 0
 3899 007e 26E0     		b	.L354
 3900              	.L353:
 3901              	.LBB37:
 563:QX_Parsing_Functions.c ****             *v = r;
 3902              		.loc 1 563 0
 3903 0080 164B     		ldr	r3, .L355+4
 3904 0082 1B68     		ldr	r3, [r3]
 3905 0084 5A1C     		adds	r2, r3, #1
 3906 0086 1549     		ldr	r1, .L355+4
 3907 0088 0A60     		str	r2, [r1]
 3908 008a 1B78     		ldrb	r3, [r3]
 3909 008c DBB2     		uxtb	r3, r3
 3910 008e BB82     		strh	r3, [r7, #20]	@ movhi
 564:QX_Parsing_Functions.c ****             if(max < *v) *v = max;
 3911              		.loc 1 564 0
 3912 0090 FB68     		ldr	r3, [r7, #12]
 3913 0092 BA8A     		ldrh	r2, [r7, #20]	@ movhi
 3914 0094 1A80     		strh	r2, [r3]	@ movhi
 565:QX_Parsing_Functions.c ****             if(*v < min) *v = min;
 3915              		.loc 1 565 0
 3916 0096 FB68     		ldr	r3, [r7, #12]
 3917 0098 B3F90030 		ldrsh	r3, [r3]
ARM GAS  C:\Users\JENNEW~1\AppData\Local\Temp\cce2sJFM.s 			page 82


 3918 009c B7F90620 		ldrsh	r2, [r7, #6]
 3919 00a0 9A42     		cmp	r2, r3
 3920 00a2 02DA     		bge	.L351
 565:QX_Parsing_Functions.c ****             if(*v < min) *v = min;
 3921              		.loc 1 565 0 is_stmt 0 discriminator 1
 3922 00a4 FB68     		ldr	r3, [r7, #12]
 3923 00a6 FA88     		ldrh	r2, [r7, #6]	@ movhi
 3924 00a8 1A80     		strh	r2, [r3]	@ movhi
 3925              	.L351:
 566:QX_Parsing_Functions.c ****             v++;
 3926              		.loc 1 566 0 is_stmt 1
 3927 00aa FB68     		ldr	r3, [r7, #12]
 3928 00ac B3F90030 		ldrsh	r3, [r3]
 3929 00b0 B7F90420 		ldrsh	r2, [r7, #4]
 3930 00b4 9A42     		cmp	r2, r3
 3931 00b6 02DD     		ble	.L352
 566:QX_Parsing_Functions.c ****             v++;
 3932              		.loc 1 566 0 is_stmt 0 discriminator 1
 3933 00b8 FB68     		ldr	r3, [r7, #12]
 3934 00ba BA88     		ldrh	r2, [r7, #4]	@ movhi
 3935 00bc 1A80     		strh	r2, [r3]	@ movhi
 3936              	.L352:
 567:QX_Parsing_Functions.c ****         }
 3937              		.loc 1 567 0 is_stmt 1
 3938 00be FB68     		ldr	r3, [r7, #12]
 3939 00c0 0233     		adds	r3, r3, #2
 3940 00c2 FB60     		str	r3, [r7, #12]
 3941              	.L350:
 3942              	.LBE37:
 561:QX_Parsing_Functions.c ****         {
 3943              		.loc 1 561 0
 3944 00c4 BB68     		ldr	r3, [r7, #8]
 3945 00c6 5A1E     		subs	r2, r3, #1
 3946 00c8 BA60     		str	r2, [r7, #8]
 3947 00ca 002B     		cmp	r3, #0
 3948 00cc D8D1     		bne	.L353
 3949              	.L354:
 3950              		.loc 1 570 0
 3951 00ce 00BF     		nop
 3952 00d0 1C37     		adds	r7, r7, #28
 3953              		.cfi_def_cfa_offset 4
 3954 00d2 BD46     		mov	sp, r7
 3955              		.cfi_def_cfa_register 13
 3956              		@ sp needed
 3957 00d4 80BC     		pop	{r7}
 3958              		.cfi_restore 7
 3959              		.cfi_def_cfa_offset 0
 3960 00d6 7047     		bx	lr
 3961              	.L356:
 3962              		.align	2
 3963              	.L355:
 3964 00d8 00000000 		.word	rw
 3965 00dc 00000000 		.word	msgPtr
 3966              		.cfi_endproc
 3967              	.LFE32:
 3968              		.size	GetSignedShortAsUnsignedChar, .-GetSignedShortAsUnsignedChar
 3969              		.section	.text.AddSignedCharAsSignedChar,"ax",%progbits
ARM GAS  C:\Users\JENNEW~1\AppData\Local\Temp\cce2sJFM.s 			page 83


 3970              		.align	2
 3971              		.global	AddSignedCharAsSignedChar
 3972              		.thumb
 3973              		.thumb_func
 3974              		.type	AddSignedCharAsSignedChar, %function
 3975              	AddSignedCharAsSignedChar:
 3976              	.LFB33:
 571:QX_Parsing_Functions.c **** 
 572:QX_Parsing_Functions.c **** void AddSignedCharAsSignedChar(int8_t *v, uint32_t n)
 573:QX_Parsing_Functions.c **** {
 3977              		.loc 1 573 0
 3978              		.cfi_startproc
 3979              		@ args = 0, pretend = 0, frame = 8
 3980              		@ frame_needed = 1, uses_anonymous_args = 0
 3981              		@ link register save eliminated.
 3982 0000 80B4     		push	{r7}
 3983              		.cfi_def_cfa_offset 4
 3984              		.cfi_offset 7, -4
 3985 0002 83B0     		sub	sp, sp, #12
 3986              		.cfi_def_cfa_offset 16
 3987 0004 00AF     		add	r7, sp, #0
 3988              		.cfi_def_cfa_register 7
 3989 0006 7860     		str	r0, [r7, #4]
 3990 0008 3960     		str	r1, [r7]
 574:QX_Parsing_Functions.c ****     while(n--)
 3991              		.loc 1 574 0
 3992 000a 0CE0     		b	.L358
 3993              	.L359:
 575:QX_Parsing_Functions.c ****     {
 576:QX_Parsing_Functions.c ****         ADDCHAR(*v);
 3994              		.loc 1 576 0
 3995 000c 0B4B     		ldr	r3, .L360
 3996 000e 1B68     		ldr	r3, [r3]
 3997 0010 5A1C     		adds	r2, r3, #1
 3998 0012 0A49     		ldr	r1, .L360
 3999 0014 0A60     		str	r2, [r1]
 4000 0016 7A68     		ldr	r2, [r7, #4]
 4001 0018 92F90020 		ldrsb	r2, [r2]
 4002 001c D2B2     		uxtb	r2, r2
 4003 001e 1A70     		strb	r2, [r3]
 577:QX_Parsing_Functions.c ****         v++;
 4004              		.loc 1 577 0
 4005 0020 7B68     		ldr	r3, [r7, #4]
 4006 0022 0133     		adds	r3, r3, #1
 4007 0024 7B60     		str	r3, [r7, #4]
 4008              	.L358:
 574:QX_Parsing_Functions.c ****     while(n--)
 4009              		.loc 1 574 0
 4010 0026 3B68     		ldr	r3, [r7]
 4011 0028 5A1E     		subs	r2, r3, #1
 4012 002a 3A60     		str	r2, [r7]
 4013 002c 002B     		cmp	r3, #0
 4014 002e EDD1     		bne	.L359
 578:QX_Parsing_Functions.c ****     }
 579:QX_Parsing_Functions.c **** }
 4015              		.loc 1 579 0
 4016 0030 00BF     		nop
ARM GAS  C:\Users\JENNEW~1\AppData\Local\Temp\cce2sJFM.s 			page 84


 4017 0032 0C37     		adds	r7, r7, #12
 4018              		.cfi_def_cfa_offset 4
 4019 0034 BD46     		mov	sp, r7
 4020              		.cfi_def_cfa_register 13
 4021              		@ sp needed
 4022 0036 80BC     		pop	{r7}
 4023              		.cfi_restore 7
 4024              		.cfi_def_cfa_offset 0
 4025 0038 7047     		bx	lr
 4026              	.L361:
 4027 003a 00BF     		.align	2
 4028              	.L360:
 4029 003c 00000000 		.word	msgPtr
 4030              		.cfi_endproc
 4031              	.LFE33:
 4032              		.size	AddSignedCharAsSignedChar, .-AddSignedCharAsSignedChar
 4033              		.section	.text.GetSignedCharAsSignedChar,"ax",%progbits
 4034              		.align	2
 4035              		.global	GetSignedCharAsSignedChar
 4036              		.thumb
 4037              		.thumb_func
 4038              		.type	GetSignedCharAsSignedChar, %function
 4039              	GetSignedCharAsSignedChar:
 4040              	.LFB34:
 580:QX_Parsing_Functions.c **** 
 581:QX_Parsing_Functions.c **** void GetSignedCharAsSignedChar(int8_t *v, uint32_t n, int8_t max, int8_t min)
 582:QX_Parsing_Functions.c **** {
 4041              		.loc 1 582 0
 4042              		.cfi_startproc
 4043              		@ args = 0, pretend = 0, frame = 24
 4044              		@ frame_needed = 1, uses_anonymous_args = 0
 4045              		@ link register save eliminated.
 4046 0000 80B4     		push	{r7}
 4047              		.cfi_def_cfa_offset 4
 4048              		.cfi_offset 7, -4
 4049 0002 87B0     		sub	sp, sp, #28
 4050              		.cfi_def_cfa_offset 32
 4051 0004 00AF     		add	r7, sp, #0
 4052              		.cfi_def_cfa_register 7
 4053 0006 F860     		str	r0, [r7, #12]
 4054 0008 B960     		str	r1, [r7, #8]
 4055 000a 1146     		mov	r1, r2
 4056 000c 1A46     		mov	r2, r3
 4057 000e 0B46     		mov	r3, r1
 4058 0010 FB71     		strb	r3, [r7, #7]
 4059 0012 1346     		mov	r3, r2
 4060 0014 BB71     		strb	r3, [r7, #6]
 583:QX_Parsing_Functions.c ****     if(rw == QB_Parser_Dir_WriteDel)
 4061              		.loc 1 583 0
 4062 0016 2F4B     		ldr	r3, .L374
 4063 0018 1B78     		ldrb	r3, [r3]	@ zero_extendqisi2
 4064 001a 012B     		cmp	r3, #1
 4065 001c 50D1     		bne	.L369
 584:QX_Parsing_Functions.c ****     {
 585:QX_Parsing_Functions.c ****         while(n--)
 4066              		.loc 1 585 0
 4067 001e 27E0     		b	.L364
ARM GAS  C:\Users\JENNEW~1\AppData\Local\Temp\cce2sJFM.s 			page 85


 4068              	.L367:
 4069              	.LBB38:
 586:QX_Parsing_Functions.c ****         {
 587:QX_Parsing_Functions.c ****             int8_t r = GETSC;
 4070              		.loc 1 587 0
 4071 0020 2D4B     		ldr	r3, .L374+4
 4072 0022 1B68     		ldr	r3, [r3]
 4073 0024 5A1C     		adds	r2, r3, #1
 4074 0026 2C49     		ldr	r1, .L374+4
 4075 0028 0A60     		str	r2, [r1]
 4076 002a 1B78     		ldrb	r3, [r3]
 4077 002c DBB2     		uxtb	r3, r3
 4078 002e FB74     		strb	r3, [r7, #19]
 588:QX_Parsing_Functions.c ****             int32_t temp = *v;    // Promote to signed so we can do a meaningful clamp check
 4079              		.loc 1 588 0
 4080 0030 FB68     		ldr	r3, [r7, #12]
 4081 0032 93F90030 		ldrsb	r3, [r3]
 4082 0036 7B61     		str	r3, [r7, #20]
 589:QX_Parsing_Functions.c ****             temp += r;
 4083              		.loc 1 589 0
 4084 0038 97F91330 		ldrsb	r3, [r7, #19]
 4085 003c 7A69     		ldr	r2, [r7, #20]
 4086 003e 1344     		add	r3, r3, r2
 4087 0040 7B61     		str	r3, [r7, #20]
 590:QX_Parsing_Functions.c ****             if(max < temp) temp = max;
 4088              		.loc 1 590 0
 4089 0042 97F90720 		ldrsb	r2, [r7, #7]
 4090 0046 7B69     		ldr	r3, [r7, #20]
 4091 0048 9A42     		cmp	r2, r3
 4092 004a 02DA     		bge	.L365
 4093              		.loc 1 590 0 is_stmt 0 discriminator 1
 4094 004c 97F90730 		ldrsb	r3, [r7, #7]
 4095 0050 7B61     		str	r3, [r7, #20]
 4096              	.L365:
 591:QX_Parsing_Functions.c ****             if(temp < min) temp = min;
 4097              		.loc 1 591 0 is_stmt 1
 4098 0052 97F90620 		ldrsb	r2, [r7, #6]
 4099 0056 7B69     		ldr	r3, [r7, #20]
 4100 0058 9A42     		cmp	r2, r3
 4101 005a 02DD     		ble	.L366
 4102              		.loc 1 591 0 is_stmt 0 discriminator 1
 4103 005c 97F90630 		ldrsb	r3, [r7, #6]
 4104 0060 7B61     		str	r3, [r7, #20]
 4105              	.L366:
 592:QX_Parsing_Functions.c ****             *v = (uint8_t)temp;
 4106              		.loc 1 592 0 is_stmt 1
 4107 0062 7B69     		ldr	r3, [r7, #20]
 4108 0064 5AB2     		sxtb	r2, r3
 4109 0066 FB68     		ldr	r3, [r7, #12]
 4110 0068 1A70     		strb	r2, [r3]
 593:QX_Parsing_Functions.c ****             v++;
 4111              		.loc 1 593 0
 4112 006a FB68     		ldr	r3, [r7, #12]
 4113 006c 0133     		adds	r3, r3, #1
 4114 006e FB60     		str	r3, [r7, #12]
 4115              	.L364:
 4116              	.LBE38:
ARM GAS  C:\Users\JENNEW~1\AppData\Local\Temp\cce2sJFM.s 			page 86


 585:QX_Parsing_Functions.c ****         {
 4117              		.loc 1 585 0
 4118 0070 BB68     		ldr	r3, [r7, #8]
 4119 0072 5A1E     		subs	r2, r3, #1
 4120 0074 BA60     		str	r2, [r7, #8]
 4121 0076 002B     		cmp	r3, #0
 4122 0078 D2D1     		bne	.L367
 594:QX_Parsing_Functions.c ****         }
 595:QX_Parsing_Functions.c ****     }
 596:QX_Parsing_Functions.c ****     else
 597:QX_Parsing_Functions.c ****     {
 598:QX_Parsing_Functions.c ****         while(n--)
 599:QX_Parsing_Functions.c ****         {
 600:QX_Parsing_Functions.c ****             int8_t r = GETSC;
 601:QX_Parsing_Functions.c ****             *v = r;
 602:QX_Parsing_Functions.c ****             if(max < *v) *v = max;
 603:QX_Parsing_Functions.c ****             if(*v < min) *v = min;
 604:QX_Parsing_Functions.c ****             v++;
 605:QX_Parsing_Functions.c ****         }
 606:QX_Parsing_Functions.c ****     }
 607:QX_Parsing_Functions.c **** }
 4123              		.loc 1 607 0
 4124 007a 26E0     		b	.L373
 4125              	.L372:
 4126              	.LBB39:
 600:QX_Parsing_Functions.c ****             *v = r;
 4127              		.loc 1 600 0
 4128 007c 164B     		ldr	r3, .L374+4
 4129 007e 1B68     		ldr	r3, [r3]
 4130 0080 5A1C     		adds	r2, r3, #1
 4131 0082 1549     		ldr	r1, .L374+4
 4132 0084 0A60     		str	r2, [r1]
 4133 0086 1B78     		ldrb	r3, [r3]
 4134 0088 DBB2     		uxtb	r3, r3
 4135 008a BB74     		strb	r3, [r7, #18]
 601:QX_Parsing_Functions.c ****             if(max < *v) *v = max;
 4136              		.loc 1 601 0
 4137 008c FB68     		ldr	r3, [r7, #12]
 4138 008e BA7C     		ldrb	r2, [r7, #18]
 4139 0090 1A70     		strb	r2, [r3]
 602:QX_Parsing_Functions.c ****             if(*v < min) *v = min;
 4140              		.loc 1 602 0
 4141 0092 FB68     		ldr	r3, [r7, #12]
 4142 0094 93F90030 		ldrsb	r3, [r3]
 4143 0098 97F90720 		ldrsb	r2, [r7, #7]
 4144 009c 9A42     		cmp	r2, r3
 4145 009e 02DA     		bge	.L370
 602:QX_Parsing_Functions.c ****             if(*v < min) *v = min;
 4146              		.loc 1 602 0 is_stmt 0 discriminator 1
 4147 00a0 FB68     		ldr	r3, [r7, #12]
 4148 00a2 FA79     		ldrb	r2, [r7, #7]
 4149 00a4 1A70     		strb	r2, [r3]
 4150              	.L370:
 603:QX_Parsing_Functions.c ****             v++;
 4151              		.loc 1 603 0 is_stmt 1
 4152 00a6 FB68     		ldr	r3, [r7, #12]
 4153 00a8 93F90030 		ldrsb	r3, [r3]
ARM GAS  C:\Users\JENNEW~1\AppData\Local\Temp\cce2sJFM.s 			page 87


 4154 00ac 97F90620 		ldrsb	r2, [r7, #6]
 4155 00b0 9A42     		cmp	r2, r3
 4156 00b2 02DD     		ble	.L371
 603:QX_Parsing_Functions.c ****             v++;
 4157              		.loc 1 603 0 is_stmt 0 discriminator 1
 4158 00b4 FB68     		ldr	r3, [r7, #12]
 4159 00b6 BA79     		ldrb	r2, [r7, #6]
 4160 00b8 1A70     		strb	r2, [r3]
 4161              	.L371:
 604:QX_Parsing_Functions.c ****         }
 4162              		.loc 1 604 0 is_stmt 1
 4163 00ba FB68     		ldr	r3, [r7, #12]
 4164 00bc 0133     		adds	r3, r3, #1
 4165 00be FB60     		str	r3, [r7, #12]
 4166              	.L369:
 4167              	.LBE39:
 598:QX_Parsing_Functions.c ****         {
 4168              		.loc 1 598 0
 4169 00c0 BB68     		ldr	r3, [r7, #8]
 4170 00c2 5A1E     		subs	r2, r3, #1
 4171 00c4 BA60     		str	r2, [r7, #8]
 4172 00c6 002B     		cmp	r3, #0
 4173 00c8 D8D1     		bne	.L372
 4174              	.L373:
 4175              		.loc 1 607 0
 4176 00ca 00BF     		nop
 4177 00cc 1C37     		adds	r7, r7, #28
 4178              		.cfi_def_cfa_offset 4
 4179 00ce BD46     		mov	sp, r7
 4180              		.cfi_def_cfa_register 13
 4181              		@ sp needed
 4182 00d0 80BC     		pop	{r7}
 4183              		.cfi_restore 7
 4184              		.cfi_def_cfa_offset 0
 4185 00d2 7047     		bx	lr
 4186              	.L375:
 4187              		.align	2
 4188              	.L374:
 4189 00d4 00000000 		.word	rw
 4190 00d8 00000000 		.word	msgPtr
 4191              		.cfi_endproc
 4192              	.LFE34:
 4193              		.size	GetSignedCharAsSignedChar, .-GetSignedCharAsSignedChar
 4194              		.section	.text.AddUnsignedCharAsUnsignedChar,"ax",%progbits
 4195              		.align	2
 4196              		.global	AddUnsignedCharAsUnsignedChar
 4197              		.thumb
 4198              		.thumb_func
 4199              		.type	AddUnsignedCharAsUnsignedChar, %function
 4200              	AddUnsignedCharAsUnsignedChar:
 4201              	.LFB35:
 608:QX_Parsing_Functions.c **** 
 609:QX_Parsing_Functions.c **** void AddUnsignedCharAsUnsignedChar(uint8_t *v, uint32_t n)
 610:QX_Parsing_Functions.c **** {
 4202              		.loc 1 610 0
 4203              		.cfi_startproc
 4204              		@ args = 0, pretend = 0, frame = 8
ARM GAS  C:\Users\JENNEW~1\AppData\Local\Temp\cce2sJFM.s 			page 88


 4205              		@ frame_needed = 1, uses_anonymous_args = 0
 4206              		@ link register save eliminated.
 4207 0000 80B4     		push	{r7}
 4208              		.cfi_def_cfa_offset 4
 4209              		.cfi_offset 7, -4
 4210 0002 83B0     		sub	sp, sp, #12
 4211              		.cfi_def_cfa_offset 16
 4212 0004 00AF     		add	r7, sp, #0
 4213              		.cfi_def_cfa_register 7
 4214 0006 7860     		str	r0, [r7, #4]
 4215 0008 3960     		str	r1, [r7]
 611:QX_Parsing_Functions.c ****     while(n--)
 4216              		.loc 1 611 0
 4217 000a 0AE0     		b	.L377
 4218              	.L378:
 612:QX_Parsing_Functions.c ****     {
 613:QX_Parsing_Functions.c ****         ADDCHAR(*v);
 4219              		.loc 1 613 0
 4220 000c 0A4B     		ldr	r3, .L379
 4221 000e 1B68     		ldr	r3, [r3]
 4222 0010 5A1C     		adds	r2, r3, #1
 4223 0012 0949     		ldr	r1, .L379
 4224 0014 0A60     		str	r2, [r1]
 4225 0016 7A68     		ldr	r2, [r7, #4]
 4226 0018 1278     		ldrb	r2, [r2]	@ zero_extendqisi2
 4227 001a 1A70     		strb	r2, [r3]
 614:QX_Parsing_Functions.c ****         v++;
 4228              		.loc 1 614 0
 4229 001c 7B68     		ldr	r3, [r7, #4]
 4230 001e 0133     		adds	r3, r3, #1
 4231 0020 7B60     		str	r3, [r7, #4]
 4232              	.L377:
 611:QX_Parsing_Functions.c ****     while(n--)
 4233              		.loc 1 611 0
 4234 0022 3B68     		ldr	r3, [r7]
 4235 0024 5A1E     		subs	r2, r3, #1
 4236 0026 3A60     		str	r2, [r7]
 4237 0028 002B     		cmp	r3, #0
 4238 002a EFD1     		bne	.L378
 615:QX_Parsing_Functions.c ****     }
 616:QX_Parsing_Functions.c **** }
 4239              		.loc 1 616 0
 4240 002c 00BF     		nop
 4241 002e 0C37     		adds	r7, r7, #12
 4242              		.cfi_def_cfa_offset 4
 4243 0030 BD46     		mov	sp, r7
 4244              		.cfi_def_cfa_register 13
 4245              		@ sp needed
 4246 0032 80BC     		pop	{r7}
 4247              		.cfi_restore 7
 4248              		.cfi_def_cfa_offset 0
 4249 0034 7047     		bx	lr
 4250              	.L380:
 4251 0036 00BF     		.align	2
 4252              	.L379:
 4253 0038 00000000 		.word	msgPtr
 4254              		.cfi_endproc
ARM GAS  C:\Users\JENNEW~1\AppData\Local\Temp\cce2sJFM.s 			page 89


 4255              	.LFE35:
 4256              		.size	AddUnsignedCharAsUnsignedChar, .-AddUnsignedCharAsUnsignedChar
 4257              		.section	.text.GetUnsignedCharAsUnsignedChar,"ax",%progbits
 4258              		.align	2
 4259              		.global	GetUnsignedCharAsUnsignedChar
 4260              		.thumb
 4261              		.thumb_func
 4262              		.type	GetUnsignedCharAsUnsignedChar, %function
 4263              	GetUnsignedCharAsUnsignedChar:
 4264              	.LFB36:
 617:QX_Parsing_Functions.c **** 
 618:QX_Parsing_Functions.c **** void GetUnsignedCharAsUnsignedChar(uint8_t *v, uint32_t n, uint8_t max, uint8_t min)
 619:QX_Parsing_Functions.c **** {
 4265              		.loc 1 619 0
 4266              		.cfi_startproc
 4267              		@ args = 0, pretend = 0, frame = 24
 4268              		@ frame_needed = 1, uses_anonymous_args = 0
 4269              		@ link register save eliminated.
 4270 0000 80B4     		push	{r7}
 4271              		.cfi_def_cfa_offset 4
 4272              		.cfi_offset 7, -4
 4273 0002 87B0     		sub	sp, sp, #28
 4274              		.cfi_def_cfa_offset 32
 4275 0004 00AF     		add	r7, sp, #0
 4276              		.cfi_def_cfa_register 7
 4277 0006 F860     		str	r0, [r7, #12]
 4278 0008 B960     		str	r1, [r7, #8]
 4279 000a 1146     		mov	r1, r2
 4280 000c 1A46     		mov	r2, r3
 4281 000e 0B46     		mov	r3, r1
 4282 0010 FB71     		strb	r3, [r7, #7]
 4283 0012 1346     		mov	r3, r2
 4284 0014 BB71     		strb	r3, [r7, #6]
 620:QX_Parsing_Functions.c ****     if(rw == QB_Parser_Dir_WriteDel)
 4285              		.loc 1 620 0
 4286 0016 2A4B     		ldr	r3, .L393
 4287 0018 1B78     		ldrb	r3, [r3]	@ zero_extendqisi2
 4288 001a 012B     		cmp	r3, #1
 4289 001c 46D1     		bne	.L388
 621:QX_Parsing_Functions.c ****     {
 622:QX_Parsing_Functions.c ****         while(n--)
 4290              		.loc 1 622 0
 4291 001e 22E0     		b	.L383
 4292              	.L386:
 4293              	.LBB40:
 623:QX_Parsing_Functions.c ****         {
 624:QX_Parsing_Functions.c ****             int8_t r = GETSC;
 4294              		.loc 1 624 0
 4295 0020 284B     		ldr	r3, .L393+4
 4296 0022 1B68     		ldr	r3, [r3]
 4297 0024 5A1C     		adds	r2, r3, #1
 4298 0026 2749     		ldr	r1, .L393+4
 4299 0028 0A60     		str	r2, [r1]
 4300 002a 1B78     		ldrb	r3, [r3]
 4301 002c DBB2     		uxtb	r3, r3
 4302 002e FB74     		strb	r3, [r7, #19]
 625:QX_Parsing_Functions.c ****             int32_t temp = *v;    //Promote to signed so we can do a meaningful clamp check
ARM GAS  C:\Users\JENNEW~1\AppData\Local\Temp\cce2sJFM.s 			page 90


 4303              		.loc 1 625 0
 4304 0030 FB68     		ldr	r3, [r7, #12]
 4305 0032 1B78     		ldrb	r3, [r3]	@ zero_extendqisi2
 4306 0034 7B61     		str	r3, [r7, #20]
 626:QX_Parsing_Functions.c ****             temp += r;
 4307              		.loc 1 626 0
 4308 0036 97F91330 		ldrsb	r3, [r7, #19]
 4309 003a 7A69     		ldr	r2, [r7, #20]
 4310 003c 1344     		add	r3, r3, r2
 4311 003e 7B61     		str	r3, [r7, #20]
 627:QX_Parsing_Functions.c ****             if(max < temp) temp = max;
 4312              		.loc 1 627 0
 4313 0040 FA79     		ldrb	r2, [r7, #7]	@ zero_extendqisi2
 4314 0042 7B69     		ldr	r3, [r7, #20]
 4315 0044 9A42     		cmp	r2, r3
 4316 0046 01DA     		bge	.L384
 4317              		.loc 1 627 0 is_stmt 0 discriminator 1
 4318 0048 FB79     		ldrb	r3, [r7, #7]	@ zero_extendqisi2
 4319 004a 7B61     		str	r3, [r7, #20]
 4320              	.L384:
 628:QX_Parsing_Functions.c ****             if(temp < min) temp = min;
 4321              		.loc 1 628 0 is_stmt 1
 4322 004c BA79     		ldrb	r2, [r7, #6]	@ zero_extendqisi2
 4323 004e 7B69     		ldr	r3, [r7, #20]
 4324 0050 9A42     		cmp	r2, r3
 4325 0052 01DD     		ble	.L385
 4326              		.loc 1 628 0 is_stmt 0 discriminator 1
 4327 0054 BB79     		ldrb	r3, [r7, #6]	@ zero_extendqisi2
 4328 0056 7B61     		str	r3, [r7, #20]
 4329              	.L385:
 629:QX_Parsing_Functions.c ****             *v = (uint8_t)temp;
 4330              		.loc 1 629 0 is_stmt 1
 4331 0058 7B69     		ldr	r3, [r7, #20]
 4332 005a DAB2     		uxtb	r2, r3
 4333 005c FB68     		ldr	r3, [r7, #12]
 4334 005e 1A70     		strb	r2, [r3]
 630:QX_Parsing_Functions.c ****             v++;
 4335              		.loc 1 630 0
 4336 0060 FB68     		ldr	r3, [r7, #12]
 4337 0062 0133     		adds	r3, r3, #1
 4338 0064 FB60     		str	r3, [r7, #12]
 4339              	.L383:
 4340              	.LBE40:
 622:QX_Parsing_Functions.c ****         {
 4341              		.loc 1 622 0
 4342 0066 BB68     		ldr	r3, [r7, #8]
 4343 0068 5A1E     		subs	r2, r3, #1
 4344 006a BA60     		str	r2, [r7, #8]
 4345 006c 002B     		cmp	r3, #0
 4346 006e D7D1     		bne	.L386
 631:QX_Parsing_Functions.c ****         }
 632:QX_Parsing_Functions.c ****     }
 633:QX_Parsing_Functions.c ****     else
 634:QX_Parsing_Functions.c ****     {
 635:QX_Parsing_Functions.c ****         while(n--)
 636:QX_Parsing_Functions.c ****         {
 637:QX_Parsing_Functions.c ****             uint8_t r = GETUC;
ARM GAS  C:\Users\JENNEW~1\AppData\Local\Temp\cce2sJFM.s 			page 91


 638:QX_Parsing_Functions.c ****             *v = r;
 639:QX_Parsing_Functions.c ****             if(max < *v) *v = max;
 640:QX_Parsing_Functions.c ****             if(*v < min) *v = min;
 641:QX_Parsing_Functions.c ****             v++;
 642:QX_Parsing_Functions.c ****         }
 643:QX_Parsing_Functions.c ****     }
 644:QX_Parsing_Functions.c **** }
 4347              		.loc 1 644 0
 4348 0070 21E0     		b	.L392
 4349              	.L391:
 4350              	.LBB41:
 637:QX_Parsing_Functions.c ****             *v = r;
 4351              		.loc 1 637 0
 4352 0072 144B     		ldr	r3, .L393+4
 4353 0074 1B68     		ldr	r3, [r3]
 4354 0076 5A1C     		adds	r2, r3, #1
 4355 0078 1249     		ldr	r1, .L393+4
 4356 007a 0A60     		str	r2, [r1]
 4357 007c 1B78     		ldrb	r3, [r3]
 4358 007e BB74     		strb	r3, [r7, #18]
 638:QX_Parsing_Functions.c ****             if(max < *v) *v = max;
 4359              		.loc 1 638 0
 4360 0080 FB68     		ldr	r3, [r7, #12]
 4361 0082 BA7C     		ldrb	r2, [r7, #18]
 4362 0084 1A70     		strb	r2, [r3]
 639:QX_Parsing_Functions.c ****             if(*v < min) *v = min;
 4363              		.loc 1 639 0
 4364 0086 FB68     		ldr	r3, [r7, #12]
 4365 0088 1B78     		ldrb	r3, [r3]	@ zero_extendqisi2
 4366 008a FA79     		ldrb	r2, [r7, #7]	@ zero_extendqisi2
 4367 008c 9A42     		cmp	r2, r3
 4368 008e 02D2     		bcs	.L389
 639:QX_Parsing_Functions.c ****             if(*v < min) *v = min;
 4369              		.loc 1 639 0 is_stmt 0 discriminator 1
 4370 0090 FB68     		ldr	r3, [r7, #12]
 4371 0092 FA79     		ldrb	r2, [r7, #7]
 4372 0094 1A70     		strb	r2, [r3]
 4373              	.L389:
 640:QX_Parsing_Functions.c ****             v++;
 4374              		.loc 1 640 0 is_stmt 1
 4375 0096 FB68     		ldr	r3, [r7, #12]
 4376 0098 1B78     		ldrb	r3, [r3]	@ zero_extendqisi2
 4377 009a BA79     		ldrb	r2, [r7, #6]	@ zero_extendqisi2
 4378 009c 9A42     		cmp	r2, r3
 4379 009e 02D9     		bls	.L390
 640:QX_Parsing_Functions.c ****             v++;
 4380              		.loc 1 640 0 is_stmt 0 discriminator 1
 4381 00a0 FB68     		ldr	r3, [r7, #12]
 4382 00a2 BA79     		ldrb	r2, [r7, #6]
 4383 00a4 1A70     		strb	r2, [r3]
 4384              	.L390:
 641:QX_Parsing_Functions.c ****         }
 4385              		.loc 1 641 0 is_stmt 1
 4386 00a6 FB68     		ldr	r3, [r7, #12]
 4387 00a8 0133     		adds	r3, r3, #1
 4388 00aa FB60     		str	r3, [r7, #12]
 4389              	.L388:
ARM GAS  C:\Users\JENNEW~1\AppData\Local\Temp\cce2sJFM.s 			page 92


 4390              	.LBE41:
 635:QX_Parsing_Functions.c ****         {
 4391              		.loc 1 635 0
 4392 00ac BB68     		ldr	r3, [r7, #8]
 4393 00ae 5A1E     		subs	r2, r3, #1
 4394 00b0 BA60     		str	r2, [r7, #8]
 4395 00b2 002B     		cmp	r3, #0
 4396 00b4 DDD1     		bne	.L391
 4397              	.L392:
 4398              		.loc 1 644 0
 4399 00b6 00BF     		nop
 4400 00b8 1C37     		adds	r7, r7, #28
 4401              		.cfi_def_cfa_offset 4
 4402 00ba BD46     		mov	sp, r7
 4403              		.cfi_def_cfa_register 13
 4404              		@ sp needed
 4405 00bc 80BC     		pop	{r7}
 4406              		.cfi_restore 7
 4407              		.cfi_def_cfa_offset 0
 4408 00be 7047     		bx	lr
 4409              	.L394:
 4410              		.align	2
 4411              	.L393:
 4412 00c0 00000000 		.word	rw
 4413 00c4 00000000 		.word	msgPtr
 4414              		.cfi_endproc
 4415              	.LFE36:
 4416              		.size	GetUnsignedCharAsUnsignedChar, .-GetUnsignedCharAsUnsignedChar
 4417              		.section	.text.AddUnsignedShortAsUnsignedShort,"ax",%progbits
 4418              		.align	2
 4419              		.global	AddUnsignedShortAsUnsignedShort
 4420              		.thumb
 4421              		.thumb_func
 4422              		.type	AddUnsignedShortAsUnsignedShort, %function
 4423              	AddUnsignedShortAsUnsignedShort:
 4424              	.LFB37:
 645:QX_Parsing_Functions.c **** 
 646:QX_Parsing_Functions.c **** void AddUnsignedShortAsUnsignedShort(uint16_t *v, uint32_t n)
 647:QX_Parsing_Functions.c **** {
 4425              		.loc 1 647 0
 4426              		.cfi_startproc
 4427              		@ args = 0, pretend = 0, frame = 8
 4428              		@ frame_needed = 1, uses_anonymous_args = 0
 4429              		@ link register save eliminated.
 4430 0000 80B4     		push	{r7}
 4431              		.cfi_def_cfa_offset 4
 4432              		.cfi_offset 7, -4
 4433 0002 83B0     		sub	sp, sp, #12
 4434              		.cfi_def_cfa_offset 16
 4435 0004 00AF     		add	r7, sp, #0
 4436              		.cfi_def_cfa_register 7
 4437 0006 7860     		str	r0, [r7, #4]
 4438 0008 3960     		str	r1, [r7]
 648:QX_Parsing_Functions.c ****     while(n--)
 4439              		.loc 1 648 0
 4440 000a 16E0     		b	.L396
 4441              	.L397:
ARM GAS  C:\Users\JENNEW~1\AppData\Local\Temp\cce2sJFM.s 			page 93


 649:QX_Parsing_Functions.c ****     {
 650:QX_Parsing_Functions.c ****         ADDUS(*v);
 4442              		.loc 1 650 0
 4443 000c 104B     		ldr	r3, .L398
 4444 000e 1B68     		ldr	r3, [r3]
 4445 0010 5A1C     		adds	r2, r3, #1
 4446 0012 0F49     		ldr	r1, .L398
 4447 0014 0A60     		str	r2, [r1]
 4448 0016 7A68     		ldr	r2, [r7, #4]
 4449 0018 1288     		ldrh	r2, [r2]
 4450 001a 120A     		lsrs	r2, r2, #8
 4451 001c 92B2     		uxth	r2, r2
 4452 001e D2B2     		uxtb	r2, r2
 4453 0020 1A70     		strb	r2, [r3]
 4454 0022 0B4B     		ldr	r3, .L398
 4455 0024 1B68     		ldr	r3, [r3]
 4456 0026 5A1C     		adds	r2, r3, #1
 4457 0028 0949     		ldr	r1, .L398
 4458 002a 0A60     		str	r2, [r1]
 4459 002c 7A68     		ldr	r2, [r7, #4]
 4460 002e 1288     		ldrh	r2, [r2]
 4461 0030 D2B2     		uxtb	r2, r2
 4462 0032 1A70     		strb	r2, [r3]
 651:QX_Parsing_Functions.c ****         v++;
 4463              		.loc 1 651 0
 4464 0034 7B68     		ldr	r3, [r7, #4]
 4465 0036 0233     		adds	r3, r3, #2
 4466 0038 7B60     		str	r3, [r7, #4]
 4467              	.L396:
 648:QX_Parsing_Functions.c ****     while(n--)
 4468              		.loc 1 648 0
 4469 003a 3B68     		ldr	r3, [r7]
 4470 003c 5A1E     		subs	r2, r3, #1
 4471 003e 3A60     		str	r2, [r7]
 4472 0040 002B     		cmp	r3, #0
 4473 0042 E3D1     		bne	.L397
 652:QX_Parsing_Functions.c ****     }
 653:QX_Parsing_Functions.c **** }
 4474              		.loc 1 653 0
 4475 0044 00BF     		nop
 4476 0046 0C37     		adds	r7, r7, #12
 4477              		.cfi_def_cfa_offset 4
 4478 0048 BD46     		mov	sp, r7
 4479              		.cfi_def_cfa_register 13
 4480              		@ sp needed
 4481 004a 80BC     		pop	{r7}
 4482              		.cfi_restore 7
 4483              		.cfi_def_cfa_offset 0
 4484 004c 7047     		bx	lr
 4485              	.L399:
 4486 004e 00BF     		.align	2
 4487              	.L398:
 4488 0050 00000000 		.word	msgPtr
 4489              		.cfi_endproc
 4490              	.LFE37:
 4491              		.size	AddUnsignedShortAsUnsignedShort, .-AddUnsignedShortAsUnsignedShort
 4492              		.section	.text.GetUnsignedShortAsUnsignedShort,"ax",%progbits
ARM GAS  C:\Users\JENNEW~1\AppData\Local\Temp\cce2sJFM.s 			page 94


 4493              		.align	2
 4494              		.global	GetUnsignedShortAsUnsignedShort
 4495              		.thumb
 4496              		.thumb_func
 4497              		.type	GetUnsignedShortAsUnsignedShort, %function
 4498              	GetUnsignedShortAsUnsignedShort:
 4499              	.LFB38:
 654:QX_Parsing_Functions.c **** 
 655:QX_Parsing_Functions.c **** void GetUnsignedShortAsUnsignedShort(uint16_t *v, uint32_t n, uint16_t max, uint16_t min)
 656:QX_Parsing_Functions.c **** {
 4500              		.loc 1 656 0
 4501              		.cfi_startproc
 4502              		@ args = 0, pretend = 0, frame = 24
 4503              		@ frame_needed = 1, uses_anonymous_args = 0
 4504              		@ link register save eliminated.
 4505 0000 80B4     		push	{r7}
 4506              		.cfi_def_cfa_offset 4
 4507              		.cfi_offset 7, -4
 4508 0002 87B0     		sub	sp, sp, #28
 4509              		.cfi_def_cfa_offset 32
 4510 0004 00AF     		add	r7, sp, #0
 4511              		.cfi_def_cfa_register 7
 4512 0006 F860     		str	r0, [r7, #12]
 4513 0008 B960     		str	r1, [r7, #8]
 4514 000a 1146     		mov	r1, r2
 4515 000c 1A46     		mov	r2, r3
 4516 000e 0B46     		mov	r3, r1	@ movhi
 4517 0010 FB80     		strh	r3, [r7, #6]	@ movhi
 4518 0012 1346     		mov	r3, r2	@ movhi
 4519 0014 BB80     		strh	r3, [r7, #4]	@ movhi
 657:QX_Parsing_Functions.c ****     if(rw == QB_Parser_Dir_WriteDel)
 4520              		.loc 1 657 0
 4521 0016 364B     		ldr	r3, .L412
 4522 0018 1B78     		ldrb	r3, [r3]	@ zero_extendqisi2
 4523 001a 012B     		cmp	r3, #1
 4524 001c 5ED1     		bne	.L407
 658:QX_Parsing_Functions.c ****     {
 659:QX_Parsing_Functions.c ****         while(n--)
 4525              		.loc 1 659 0
 4526 001e 2DE0     		b	.L402
 4527              	.L405:
 4528              	.LBB42:
 660:QX_Parsing_Functions.c ****         {
 661:QX_Parsing_Functions.c ****             uint16_t r = GETUS;
 4529              		.loc 1 661 0
 4530 0020 344B     		ldr	r3, .L412+4
 4531 0022 1B68     		ldr	r3, [r3]
 4532 0024 1B78     		ldrb	r3, [r3]
 4533 0026 DBB2     		uxtb	r3, r3
 4534 0028 9BB2     		uxth	r3, r3
 4535 002a 1B02     		lsls	r3, r3, #8
 4536 002c 9AB2     		uxth	r2, r3
 4537 002e 314B     		ldr	r3, .L412+4
 4538 0030 1B68     		ldr	r3, [r3]
 4539 0032 0133     		adds	r3, r3, #1
 4540 0034 1B78     		ldrb	r3, [r3]
 4541 0036 DBB2     		uxtb	r3, r3
ARM GAS  C:\Users\JENNEW~1\AppData\Local\Temp\cce2sJFM.s 			page 95


 4542 0038 9BB2     		uxth	r3, r3
 4543 003a 1343     		orrs	r3, r3, r2
 4544 003c FB82     		strh	r3, [r7, #22]	@ movhi
 4545 003e 2D4B     		ldr	r3, .L412+4
 4546 0040 1B68     		ldr	r3, [r3]
 4547 0042 0233     		adds	r3, r3, #2
 4548 0044 2B4A     		ldr	r2, .L412+4
 4549 0046 1360     		str	r3, [r2]
 662:QX_Parsing_Functions.c ****             *v += r;
 4550              		.loc 1 662 0
 4551 0048 FB68     		ldr	r3, [r7, #12]
 4552 004a 1A88     		ldrh	r2, [r3]
 4553 004c FB8A     		ldrh	r3, [r7, #22]	@ movhi
 4554 004e 1344     		add	r3, r3, r2
 4555 0050 9AB2     		uxth	r2, r3
 4556 0052 FB68     		ldr	r3, [r7, #12]
 4557 0054 1A80     		strh	r2, [r3]	@ movhi
 663:QX_Parsing_Functions.c ****             if(max < *v) *v = max;
 4558              		.loc 1 663 0
 4559 0056 FB68     		ldr	r3, [r7, #12]
 4560 0058 1B88     		ldrh	r3, [r3]
 4561 005a FA88     		ldrh	r2, [r7, #6]
 4562 005c 9A42     		cmp	r2, r3
 4563 005e 02D2     		bcs	.L403
 4564              		.loc 1 663 0 is_stmt 0 discriminator 1
 4565 0060 FB68     		ldr	r3, [r7, #12]
 4566 0062 FA88     		ldrh	r2, [r7, #6]	@ movhi
 4567 0064 1A80     		strh	r2, [r3]	@ movhi
 4568              	.L403:
 664:QX_Parsing_Functions.c ****             if(*v < min) *v = min;
 4569              		.loc 1 664 0 is_stmt 1
 4570 0066 FB68     		ldr	r3, [r7, #12]
 4571 0068 1B88     		ldrh	r3, [r3]
 4572 006a BA88     		ldrh	r2, [r7, #4]
 4573 006c 9A42     		cmp	r2, r3
 4574 006e 02D9     		bls	.L404
 4575              		.loc 1 664 0 is_stmt 0 discriminator 1
 4576 0070 FB68     		ldr	r3, [r7, #12]
 4577 0072 BA88     		ldrh	r2, [r7, #4]	@ movhi
 4578 0074 1A80     		strh	r2, [r3]	@ movhi
 4579              	.L404:
 665:QX_Parsing_Functions.c ****             v++;
 4580              		.loc 1 665 0 is_stmt 1
 4581 0076 FB68     		ldr	r3, [r7, #12]
 4582 0078 0233     		adds	r3, r3, #2
 4583 007a FB60     		str	r3, [r7, #12]
 4584              	.L402:
 4585              	.LBE42:
 659:QX_Parsing_Functions.c ****         {
 4586              		.loc 1 659 0
 4587 007c BB68     		ldr	r3, [r7, #8]
 4588 007e 5A1E     		subs	r2, r3, #1
 4589 0080 BA60     		str	r2, [r7, #8]
 4590 0082 002B     		cmp	r3, #0
 4591 0084 CCD1     		bne	.L405
 666:QX_Parsing_Functions.c ****         }
 667:QX_Parsing_Functions.c ****     }
ARM GAS  C:\Users\JENNEW~1\AppData\Local\Temp\cce2sJFM.s 			page 96


 668:QX_Parsing_Functions.c ****     else
 669:QX_Parsing_Functions.c ****     {
 670:QX_Parsing_Functions.c ****         while(n--)
 671:QX_Parsing_Functions.c ****         {
 672:QX_Parsing_Functions.c ****             uint16_t r = GETUS;
 673:QX_Parsing_Functions.c ****             *v = r;
 674:QX_Parsing_Functions.c ****             if(max < *v) *v = max;
 675:QX_Parsing_Functions.c ****             if(*v < min) *v = min;
 676:QX_Parsing_Functions.c ****             v++;
 677:QX_Parsing_Functions.c ****         }
 678:QX_Parsing_Functions.c ****     }
 679:QX_Parsing_Functions.c **** }
 4592              		.loc 1 679 0
 4593 0086 2EE0     		b	.L411
 4594              	.L410:
 4595              	.LBB43:
 672:QX_Parsing_Functions.c ****             *v = r;
 4596              		.loc 1 672 0
 4597 0088 1A4B     		ldr	r3, .L412+4
 4598 008a 1B68     		ldr	r3, [r3]
 4599 008c 1B78     		ldrb	r3, [r3]
 4600 008e DBB2     		uxtb	r3, r3
 4601 0090 9BB2     		uxth	r3, r3
 4602 0092 1B02     		lsls	r3, r3, #8
 4603 0094 9AB2     		uxth	r2, r3
 4604 0096 174B     		ldr	r3, .L412+4
 4605 0098 1B68     		ldr	r3, [r3]
 4606 009a 0133     		adds	r3, r3, #1
 4607 009c 1B78     		ldrb	r3, [r3]
 4608 009e DBB2     		uxtb	r3, r3
 4609 00a0 9BB2     		uxth	r3, r3
 4610 00a2 1343     		orrs	r3, r3, r2
 4611 00a4 BB82     		strh	r3, [r7, #20]	@ movhi
 4612 00a6 134B     		ldr	r3, .L412+4
 4613 00a8 1B68     		ldr	r3, [r3]
 4614 00aa 0233     		adds	r3, r3, #2
 4615 00ac 114A     		ldr	r2, .L412+4
 4616 00ae 1360     		str	r3, [r2]
 673:QX_Parsing_Functions.c ****             if(max < *v) *v = max;
 4617              		.loc 1 673 0
 4618 00b0 FB68     		ldr	r3, [r7, #12]
 4619 00b2 BA8A     		ldrh	r2, [r7, #20]	@ movhi
 4620 00b4 1A80     		strh	r2, [r3]	@ movhi
 674:QX_Parsing_Functions.c ****             if(*v < min) *v = min;
 4621              		.loc 1 674 0
 4622 00b6 FB68     		ldr	r3, [r7, #12]
 4623 00b8 1B88     		ldrh	r3, [r3]
 4624 00ba FA88     		ldrh	r2, [r7, #6]
 4625 00bc 9A42     		cmp	r2, r3
 4626 00be 02D2     		bcs	.L408
 674:QX_Parsing_Functions.c ****             if(*v < min) *v = min;
 4627              		.loc 1 674 0 is_stmt 0 discriminator 1
 4628 00c0 FB68     		ldr	r3, [r7, #12]
 4629 00c2 FA88     		ldrh	r2, [r7, #6]	@ movhi
 4630 00c4 1A80     		strh	r2, [r3]	@ movhi
 4631              	.L408:
 675:QX_Parsing_Functions.c ****             v++;
ARM GAS  C:\Users\JENNEW~1\AppData\Local\Temp\cce2sJFM.s 			page 97


 4632              		.loc 1 675 0 is_stmt 1
 4633 00c6 FB68     		ldr	r3, [r7, #12]
 4634 00c8 1B88     		ldrh	r3, [r3]
 4635 00ca BA88     		ldrh	r2, [r7, #4]
 4636 00cc 9A42     		cmp	r2, r3
 4637 00ce 02D9     		bls	.L409
 675:QX_Parsing_Functions.c ****             v++;
 4638              		.loc 1 675 0 is_stmt 0 discriminator 1
 4639 00d0 FB68     		ldr	r3, [r7, #12]
 4640 00d2 BA88     		ldrh	r2, [r7, #4]	@ movhi
 4641 00d4 1A80     		strh	r2, [r3]	@ movhi
 4642              	.L409:
 676:QX_Parsing_Functions.c ****         }
 4643              		.loc 1 676 0 is_stmt 1
 4644 00d6 FB68     		ldr	r3, [r7, #12]
 4645 00d8 0233     		adds	r3, r3, #2
 4646 00da FB60     		str	r3, [r7, #12]
 4647              	.L407:
 4648              	.LBE43:
 670:QX_Parsing_Functions.c ****         {
 4649              		.loc 1 670 0
 4650 00dc BB68     		ldr	r3, [r7, #8]
 4651 00de 5A1E     		subs	r2, r3, #1
 4652 00e0 BA60     		str	r2, [r7, #8]
 4653 00e2 002B     		cmp	r3, #0
 4654 00e4 D0D1     		bne	.L410
 4655              	.L411:
 4656              		.loc 1 679 0
 4657 00e6 00BF     		nop
 4658 00e8 1C37     		adds	r7, r7, #28
 4659              		.cfi_def_cfa_offset 4
 4660 00ea BD46     		mov	sp, r7
 4661              		.cfi_def_cfa_register 13
 4662              		@ sp needed
 4663 00ec 80BC     		pop	{r7}
 4664              		.cfi_restore 7
 4665              		.cfi_def_cfa_offset 0
 4666 00ee 7047     		bx	lr
 4667              	.L413:
 4668              		.align	2
 4669              	.L412:
 4670 00f0 00000000 		.word	rw
 4671 00f4 00000000 		.word	msgPtr
 4672              		.cfi_endproc
 4673              	.LFE38:
 4674              		.size	GetUnsignedShortAsUnsignedShort, .-GetUnsignedShortAsUnsignedShort
 4675              		.section	.text.AddBitsAsByte,"ax",%progbits
 4676              		.align	2
 4677              		.global	AddBitsAsByte
 4678              		.thumb
 4679              		.thumb_func
 4680              		.type	AddBitsAsByte, %function
 4681              	AddBitsAsByte:
 4682              	.LFB39:
 680:QX_Parsing_Functions.c **** 
 681:QX_Parsing_Functions.c **** // Adds a field of bits to a char
 682:QX_Parsing_Functions.c **** void AddBitsAsByte(uint8_t *v, uint8_t start_bit, uint8_t n_bits)
ARM GAS  C:\Users\JENNEW~1\AppData\Local\Temp\cce2sJFM.s 			page 98


 683:QX_Parsing_Functions.c **** {
 4683              		.loc 1 683 0
 4684              		.cfi_startproc
 4685              		@ args = 0, pretend = 0, frame = 16
 4686              		@ frame_needed = 1, uses_anonymous_args = 0
 4687              		@ link register save eliminated.
 4688 0000 80B4     		push	{r7}
 4689              		.cfi_def_cfa_offset 4
 4690              		.cfi_offset 7, -4
 4691 0002 85B0     		sub	sp, sp, #20
 4692              		.cfi_def_cfa_offset 24
 4693 0004 00AF     		add	r7, sp, #0
 4694              		.cfi_def_cfa_register 7
 4695 0006 7860     		str	r0, [r7, #4]
 4696 0008 0B46     		mov	r3, r1
 4697 000a FB70     		strb	r3, [r7, #3]
 4698 000c 1346     		mov	r3, r2
 4699 000e BB70     		strb	r3, [r7, #2]
 684:QX_Parsing_Functions.c **** 	uint8_t temp = *msgPtr;
 4700              		.loc 1 684 0
 4701 0010 2C4B     		ldr	r3, .L427
 4702 0012 1B68     		ldr	r3, [r3]
 4703 0014 1B78     		ldrb	r3, [r3]
 4704 0016 BB73     		strb	r3, [r7, #14]
 685:QX_Parsing_Functions.c **** 	uint8_t mask;
 686:QX_Parsing_Functions.c **** 	
 687:QX_Parsing_Functions.c **** 	switch (n_bits){
 4705              		.loc 1 687 0
 4706 0018 BB78     		ldrb	r3, [r7, #2]	@ zero_extendqisi2
 4707 001a 013B     		subs	r3, r3, #1
 4708 001c 072B     		cmp	r3, #7
 4709 001e 2BD8     		bhi	.L426
 4710 0020 01A2     		adr	r2, .L417
 4711 0022 52F823F0 		ldr	pc, [r2, r3, lsl #2]
 4712 0026 00BF     		.p2align 2
 4713              	.L417:
 4714 0028 49000000 		.word	.L416+1
 4715 002c 4F000000 		.word	.L418+1
 4716 0030 55000000 		.word	.L419+1
 4717 0034 5B000000 		.word	.L420+1
 4718 0038 61000000 		.word	.L421+1
 4719 003c 67000000 		.word	.L422+1
 4720 0040 6D000000 		.word	.L423+1
 4721 0044 73000000 		.word	.L424+1
 4722              		.p2align 1
 4723              	.L416:
 688:QX_Parsing_Functions.c **** 		case 1:
 689:QX_Parsing_Functions.c **** 			mask = BITFIELD_MASK_1; break;
 4724              		.loc 1 689 0
 4725 0048 0123     		movs	r3, #1
 4726 004a FB73     		strb	r3, [r7, #15]
 4727 004c 15E0     		b	.L425
 4728              	.L418:
 690:QX_Parsing_Functions.c **** 		case 2:
 691:QX_Parsing_Functions.c **** 			mask = BITFIELD_MASK_2; break;
 4729              		.loc 1 691 0
 4730 004e 0323     		movs	r3, #3
ARM GAS  C:\Users\JENNEW~1\AppData\Local\Temp\cce2sJFM.s 			page 99


 4731 0050 FB73     		strb	r3, [r7, #15]
 4732 0052 12E0     		b	.L425
 4733              	.L419:
 692:QX_Parsing_Functions.c **** 		case 3:
 693:QX_Parsing_Functions.c **** 			mask = BITFIELD_MASK_3; break;
 4734              		.loc 1 693 0
 4735 0054 0723     		movs	r3, #7
 4736 0056 FB73     		strb	r3, [r7, #15]
 4737 0058 0FE0     		b	.L425
 4738              	.L420:
 694:QX_Parsing_Functions.c **** 		case 4:
 695:QX_Parsing_Functions.c **** 			mask = BITFIELD_MASK_4; break;
 4739              		.loc 1 695 0
 4740 005a 0F23     		movs	r3, #15
 4741 005c FB73     		strb	r3, [r7, #15]
 4742 005e 0CE0     		b	.L425
 4743              	.L421:
 696:QX_Parsing_Functions.c **** 		case 5:
 697:QX_Parsing_Functions.c **** 			mask = BITFIELD_MASK_5; break;
 4744              		.loc 1 697 0
 4745 0060 1F23     		movs	r3, #31
 4746 0062 FB73     		strb	r3, [r7, #15]
 4747 0064 09E0     		b	.L425
 4748              	.L422:
 698:QX_Parsing_Functions.c **** 		case 6:
 699:QX_Parsing_Functions.c **** 			mask = BITFIELD_MASK_6; break;
 4749              		.loc 1 699 0
 4750 0066 3F23     		movs	r3, #63
 4751 0068 FB73     		strb	r3, [r7, #15]
 4752 006a 06E0     		b	.L425
 4753              	.L423:
 700:QX_Parsing_Functions.c **** 		case 7:
 701:QX_Parsing_Functions.c **** 			mask = BITFIELD_MASK_7; break;
 4754              		.loc 1 701 0
 4755 006c 7F23     		movs	r3, #127
 4756 006e FB73     		strb	r3, [r7, #15]
 4757 0070 03E0     		b	.L425
 4758              	.L424:
 702:QX_Parsing_Functions.c **** 		case 8:
 703:QX_Parsing_Functions.c **** 			mask = BITFIELD_MASK_8; break;
 4759              		.loc 1 703 0
 4760 0072 FF23     		movs	r3, #255
 4761 0074 FB73     		strb	r3, [r7, #15]
 4762 0076 00E0     		b	.L425
 4763              	.L426:
 704:QX_Parsing_Functions.c **** 		default:
 705:QX_Parsing_Functions.c **** 			break;
 4764              		.loc 1 705 0
 4765 0078 00BF     		nop
 4766              	.L425:
 706:QX_Parsing_Functions.c **** 	}
 707:QX_Parsing_Functions.c **** 	
 708:QX_Parsing_Functions.c **** 	// Move the mask up to the starting position and clear the existing bits in the field
 709:QX_Parsing_Functions.c **** 	temp &= ~(mask << start_bit);
 4767              		.loc 1 709 0
 4768 007a FA7B     		ldrb	r2, [r7, #15]	@ zero_extendqisi2
 4769 007c FB78     		ldrb	r3, [r7, #3]	@ zero_extendqisi2
ARM GAS  C:\Users\JENNEW~1\AppData\Local\Temp\cce2sJFM.s 			page 100


 4770 007e 02FA03F3 		lsl	r3, r2, r3
 4771 0082 5BB2     		sxtb	r3, r3
 4772 0084 DB43     		mvns	r3, r3
 4773 0086 5AB2     		sxtb	r2, r3
 4774 0088 97F90E30 		ldrsb	r3, [r7, #14]
 4775 008c 1340     		ands	r3, r3, r2
 4776 008e 5BB2     		sxtb	r3, r3
 4777 0090 BB73     		strb	r3, [r7, #14]
 710:QX_Parsing_Functions.c **** 	
 711:QX_Parsing_Functions.c **** 	// Add the bit field in
 712:QX_Parsing_Functions.c **** 	temp |= ((*v & mask) << start_bit);
 4778              		.loc 1 712 0
 4779 0092 7B68     		ldr	r3, [r7, #4]
 4780 0094 1A78     		ldrb	r2, [r3]	@ zero_extendqisi2
 4781 0096 FB7B     		ldrb	r3, [r7, #15]
 4782 0098 1340     		ands	r3, r3, r2
 4783 009a DBB2     		uxtb	r3, r3
 4784 009c 1A46     		mov	r2, r3
 4785 009e FB78     		ldrb	r3, [r7, #3]	@ zero_extendqisi2
 4786 00a0 02FA03F3 		lsl	r3, r2, r3
 4787 00a4 5AB2     		sxtb	r2, r3
 4788 00a6 97F90E30 		ldrsb	r3, [r7, #14]
 4789 00aa 1343     		orrs	r3, r3, r2
 4790 00ac 5BB2     		sxtb	r3, r3
 4791 00ae BB73     		strb	r3, [r7, #14]
 713:QX_Parsing_Functions.c **** 	*msgPtr = temp;
 4792              		.loc 1 713 0
 4793 00b0 044B     		ldr	r3, .L427
 4794 00b2 1B68     		ldr	r3, [r3]
 4795 00b4 BA7B     		ldrb	r2, [r7, #14]
 4796 00b6 1A70     		strb	r2, [r3]
 714:QX_Parsing_Functions.c **** }
 4797              		.loc 1 714 0
 4798 00b8 00BF     		nop
 4799 00ba 1437     		adds	r7, r7, #20
 4800              		.cfi_def_cfa_offset 4
 4801 00bc BD46     		mov	sp, r7
 4802              		.cfi_def_cfa_register 13
 4803              		@ sp needed
 4804 00be 80BC     		pop	{r7}
 4805              		.cfi_restore 7
 4806              		.cfi_def_cfa_offset 0
 4807 00c0 7047     		bx	lr
 4808              	.L428:
 4809 00c2 00BF     		.align	2
 4810              	.L427:
 4811 00c4 00000000 		.word	msgPtr
 4812              		.cfi_endproc
 4813              	.LFE39:
 4814              		.size	AddBitsAsByte, .-AddBitsAsByte
 4815              		.section	.text.GetBitsAsByte,"ax",%progbits
 4816              		.align	2
 4817              		.global	GetBitsAsByte
 4818              		.thumb
 4819              		.thumb_func
 4820              		.type	GetBitsAsByte, %function
 4821              	GetBitsAsByte:
ARM GAS  C:\Users\JENNEW~1\AppData\Local\Temp\cce2sJFM.s 			page 101


 4822              	.LFB40:
 715:QX_Parsing_Functions.c **** 
 716:QX_Parsing_Functions.c **** // Applys the bitfield from the buffer to a byte within the range of bits specified. 
 717:QX_Parsing_Functions.c **** // The returned bitfield starts at bit 0 in the byte.
 718:QX_Parsing_Functions.c **** // Relative write direction applies the bitfield as an XOR toggle mask, which flips each bit within
 719:QX_Parsing_Functions.c **** // Absolute write direction applies the bitfield as an absolute value.
 720:QX_Parsing_Functions.c **** void GetBitsAsByte(uint8_t *v, uint8_t start_bit, uint8_t n_bits)
 721:QX_Parsing_Functions.c **** {
 4823              		.loc 1 721 0
 4824              		.cfi_startproc
 4825              		@ args = 0, pretend = 0, frame = 16
 4826              		@ frame_needed = 1, uses_anonymous_args = 0
 4827              		@ link register save eliminated.
 4828 0000 80B4     		push	{r7}
 4829              		.cfi_def_cfa_offset 4
 4830              		.cfi_offset 7, -4
 4831 0002 85B0     		sub	sp, sp, #20
 4832              		.cfi_def_cfa_offset 24
 4833 0004 00AF     		add	r7, sp, #0
 4834              		.cfi_def_cfa_register 7
 4835 0006 7860     		str	r0, [r7, #4]
 4836 0008 0B46     		mov	r3, r1
 4837 000a FB70     		strb	r3, [r7, #3]
 4838 000c 1346     		mov	r3, r2
 4839 000e BB70     		strb	r3, [r7, #2]
 722:QX_Parsing_Functions.c **** 	uint8_t mask, xor_mask;
 723:QX_Parsing_Functions.c **** 	
 724:QX_Parsing_Functions.c **** 	switch (n_bits){
 4840              		.loc 1 724 0
 4841 0010 BB78     		ldrb	r3, [r7, #2]	@ zero_extendqisi2
 4842 0012 013B     		subs	r3, r3, #1
 4843 0014 072B     		cmp	r3, #7
 4844 0016 2BD8     		bhi	.L443
 4845 0018 01A2     		adr	r2, .L432
 4846 001a 52F823F0 		ldr	pc, [r2, r3, lsl #2]
 4847 001e 00BF     		.p2align 2
 4848              	.L432:
 4849 0020 41000000 		.word	.L431+1
 4850 0024 47000000 		.word	.L433+1
 4851 0028 4D000000 		.word	.L434+1
 4852 002c 53000000 		.word	.L435+1
 4853 0030 59000000 		.word	.L436+1
 4854 0034 5F000000 		.word	.L437+1
 4855 0038 65000000 		.word	.L438+1
 4856 003c 6B000000 		.word	.L439+1
 4857              		.p2align 1
 4858              	.L431:
 725:QX_Parsing_Functions.c **** 		case 1:
 726:QX_Parsing_Functions.c **** 			mask = BITFIELD_MASK_1; break;
 4859              		.loc 1 726 0
 4860 0040 0123     		movs	r3, #1
 4861 0042 FB73     		strb	r3, [r7, #15]
 4862 0044 15E0     		b	.L440
 4863              	.L433:
 727:QX_Parsing_Functions.c **** 		case 2:
 728:QX_Parsing_Functions.c **** 			mask = BITFIELD_MASK_2; break;
 4864              		.loc 1 728 0
ARM GAS  C:\Users\JENNEW~1\AppData\Local\Temp\cce2sJFM.s 			page 102


 4865 0046 0323     		movs	r3, #3
 4866 0048 FB73     		strb	r3, [r7, #15]
 4867 004a 12E0     		b	.L440
 4868              	.L434:
 729:QX_Parsing_Functions.c **** 		case 3:
 730:QX_Parsing_Functions.c **** 			mask = BITFIELD_MASK_3; break;
 4869              		.loc 1 730 0
 4870 004c 0723     		movs	r3, #7
 4871 004e FB73     		strb	r3, [r7, #15]
 4872 0050 0FE0     		b	.L440
 4873              	.L435:
 731:QX_Parsing_Functions.c **** 		case 4:
 732:QX_Parsing_Functions.c **** 			mask = BITFIELD_MASK_4; break;
 4874              		.loc 1 732 0
 4875 0052 0F23     		movs	r3, #15
 4876 0054 FB73     		strb	r3, [r7, #15]
 4877 0056 0CE0     		b	.L440
 4878              	.L436:
 733:QX_Parsing_Functions.c **** 		case 5:
 734:QX_Parsing_Functions.c **** 			mask = BITFIELD_MASK_5; break;
 4879              		.loc 1 734 0
 4880 0058 1F23     		movs	r3, #31
 4881 005a FB73     		strb	r3, [r7, #15]
 4882 005c 09E0     		b	.L440
 4883              	.L437:
 735:QX_Parsing_Functions.c **** 		case 6:
 736:QX_Parsing_Functions.c **** 			mask = BITFIELD_MASK_6; break;
 4884              		.loc 1 736 0
 4885 005e 3F23     		movs	r3, #63
 4886 0060 FB73     		strb	r3, [r7, #15]
 4887 0062 06E0     		b	.L440
 4888              	.L438:
 737:QX_Parsing_Functions.c **** 		case 7:
 738:QX_Parsing_Functions.c **** 			mask = BITFIELD_MASK_7; break;
 4889              		.loc 1 738 0
 4890 0064 7F23     		movs	r3, #127
 4891 0066 FB73     		strb	r3, [r7, #15]
 4892 0068 03E0     		b	.L440
 4893              	.L439:
 739:QX_Parsing_Functions.c **** 		case 8:
 740:QX_Parsing_Functions.c **** 			mask = BITFIELD_MASK_8; break;
 4894              		.loc 1 740 0
 4895 006a FF23     		movs	r3, #255
 4896 006c FB73     		strb	r3, [r7, #15]
 4897 006e 00E0     		b	.L440
 4898              	.L443:
 741:QX_Parsing_Functions.c **** 		default:
 742:QX_Parsing_Functions.c **** 			break;
 4899              		.loc 1 742 0
 4900 0070 00BF     		nop
 4901              	.L440:
 743:QX_Parsing_Functions.c **** 	}
 744:QX_Parsing_Functions.c **** 	
 745:QX_Parsing_Functions.c **** 	if(rw == QB_Parser_Dir_WriteDel)
 4902              		.loc 1 745 0
 4903 0072 174B     		ldr	r3, .L445
 4904 0074 1B78     		ldrb	r3, [r3]	@ zero_extendqisi2
ARM GAS  C:\Users\JENNEW~1\AppData\Local\Temp\cce2sJFM.s 			page 103


 4905 0076 012B     		cmp	r3, #1
 4906 0078 15D1     		bne	.L441
 746:QX_Parsing_Functions.c ****     {
 747:QX_Parsing_Functions.c **** 		xor_mask = (*msgPtr >> start_bit) & mask;
 4907              		.loc 1 747 0
 4908 007a 164B     		ldr	r3, .L445+4
 4909 007c 1B68     		ldr	r3, [r3]
 4910 007e 1B78     		ldrb	r3, [r3]
 4911 0080 DBB2     		uxtb	r3, r3
 4912 0082 1A46     		mov	r2, r3
 4913 0084 FB78     		ldrb	r3, [r7, #3]	@ zero_extendqisi2
 4914 0086 42FA03F3 		asr	r3, r2, r3
 4915 008a 5AB2     		sxtb	r2, r3
 4916 008c 97F90F30 		ldrsb	r3, [r7, #15]
 4917 0090 1340     		ands	r3, r3, r2
 4918 0092 5BB2     		sxtb	r3, r3
 4919 0094 BB73     		strb	r3, [r7, #14]
 748:QX_Parsing_Functions.c **** 		*v ^= xor_mask;
 4920              		.loc 1 748 0
 4921 0096 7B68     		ldr	r3, [r7, #4]
 4922 0098 1A78     		ldrb	r2, [r3]	@ zero_extendqisi2
 4923 009a BB7B     		ldrb	r3, [r7, #14]
 4924 009c 5340     		eors	r3, r3, r2
 4925 009e DAB2     		uxtb	r2, r3
 4926 00a0 7B68     		ldr	r3, [r7, #4]
 4927 00a2 1A70     		strb	r2, [r3]
 749:QX_Parsing_Functions.c ****     }
 750:QX_Parsing_Functions.c ****     else
 751:QX_Parsing_Functions.c ****     {
 752:QX_Parsing_Functions.c **** 		*v = (*msgPtr >> start_bit) & mask;
 753:QX_Parsing_Functions.c ****     }
 754:QX_Parsing_Functions.c **** }
 4928              		.loc 1 754 0
 4929 00a4 0FE0     		b	.L444
 4930              	.L441:
 752:QX_Parsing_Functions.c ****     }
 4931              		.loc 1 752 0
 4932 00a6 0B4B     		ldr	r3, .L445+4
 4933 00a8 1B68     		ldr	r3, [r3]
 4934 00aa 1B78     		ldrb	r3, [r3]
 4935 00ac DBB2     		uxtb	r3, r3
 4936 00ae 1A46     		mov	r2, r3
 4937 00b0 FB78     		ldrb	r3, [r7, #3]	@ zero_extendqisi2
 4938 00b2 42FA03F3 		asr	r3, r2, r3
 4939 00b6 5AB2     		sxtb	r2, r3
 4940 00b8 97F90F30 		ldrsb	r3, [r7, #15]
 4941 00bc 1340     		ands	r3, r3, r2
 4942 00be 5BB2     		sxtb	r3, r3
 4943 00c0 DAB2     		uxtb	r2, r3
 4944 00c2 7B68     		ldr	r3, [r7, #4]
 4945 00c4 1A70     		strb	r2, [r3]
 4946              	.L444:
 4947              		.loc 1 754 0
 4948 00c6 00BF     		nop
 4949 00c8 1437     		adds	r7, r7, #20
 4950              		.cfi_def_cfa_offset 4
 4951 00ca BD46     		mov	sp, r7
ARM GAS  C:\Users\JENNEW~1\AppData\Local\Temp\cce2sJFM.s 			page 104


 4952              		.cfi_def_cfa_register 13
 4953              		@ sp needed
 4954 00cc 80BC     		pop	{r7}
 4955              		.cfi_restore 7
 4956              		.cfi_def_cfa_offset 0
 4957 00ce 7047     		bx	lr
 4958              	.L446:
 4959              		.align	2
 4960              	.L445:
 4961 00d0 00000000 		.word	rw
 4962 00d4 00000000 		.word	msgPtr
 4963              		.cfi_endproc
 4964              	.LFE40:
 4965              		.size	GetBitsAsByte, .-GetBitsAsByte
 4966              		.text
 4967              	.Letext0:
 4968              		.file 2 "c:\\program files (x86)\\cypress\\psoc creator\\4.4\\psoc creator\\import\\gnu\\arm\\5.4.
 4969              		.file 3 "c:\\program files (x86)\\cypress\\psoc creator\\4.4\\psoc creator\\import\\gnu\\arm\\5.4.
 4970              		.file 4 "QX_Parsing_Functions.h"