ARM GAS  C:\Users\hamis\AppData\Local\Temp\ccrvUx4B.s 			page 1


   1              		.syntax unified
   2              		.cpu cortex-m3
   3              		.fpu softvfp
   4              		.eabi_attribute 20, 1
   5              		.eabi_attribute 21, 1
   6              		.eabi_attribute 23, 3
   7              		.eabi_attribute 24, 1
   8              		.eabi_attribute 25, 1
   9              		.eabi_attribute 26, 1
  10              		.eabi_attribute 30, 1
  11              		.eabi_attribute 34, 1
  12              		.eabi_attribute 18, 4
  13              		.thumb
  14              		.syntax unified
  15              		.file	"main.c"
  16              		.text
  17              	.Ltext0:
  18              		.cfi_sections	.debug_frame
  19              		.section	.text.Led_Blink,"ax",%progbits
  20              		.align	2
  21              		.global	Led_Blink
  22              		.thumb
  23              		.thumb_func
  24              		.type	Led_Blink, %function
  25              	Led_Blink:
  26              	.LFB64:
  27              		.file 1 "main.c"
   1:main.c        **** /*******************************************************************************
   2:main.c        **** * File Name: main.c
   3:main.c        **** *
   4:main.c        **** * Version: 1.0
   5:main.c        **** *
   6:main.c        **** * Description:
   7:main.c        **** *  This is the source code for the Clock example project of the cy_boot
   8:main.c        **** *  component.
   9:main.c        **** *
  10:main.c        **** ********************************************************************************
  11:main.c        **** * Copyright 2015, Cypress Semiconductor Corporation. All rights reserved.
  12:main.c        **** * This software is owned by Cypress Semiconductor Corporation and is protected
  13:main.c        **** * by and subject to worldwide patent and copyright laws and treaties.
  14:main.c        **** * Therefore, you may use this software only as provided in the license agreement
  15:main.c        **** * accompanying the software package from which you obtained this software.
  16:main.c        **** * CYPRESS AND ITS SUPPLIERS MAKE NO WARRANTY OF ANY KIND, EXPRESS OR IMPLIED,
  17:main.c        **** * WITH REGARD TO THIS SOFTWARE, INCLUDING, BUT NOT LIMITED TO, NONINFRINGEMENT,
  18:main.c        **** * IMPLIED WARRANTIES OF MERCHANTABILITY AND FITNESS FOR A PARTICULAR PURPOSE.
  19:main.c        **** *******************************************************************************/
  20:main.c        **** 
  21:main.c        **** #include <project.h>
  22:main.c        **** 
  23:main.c        **** #define CLK_IMO_MHZ                 (32u)
  24:main.c        **** #define SYSCLK_DIVIDER              (2u)
  25:main.c        **** 
  26:main.c        **** #define HZ_IN_MHZ                   (1000000u)
  27:main.c        **** #define BLINK_DELAY_MS              (1000u)
  28:main.c        **** #define VISIBILITY_DELAY_MS         (1000u)
  29:main.c        **** 
  30:main.c        **** #define WAIT_IMO_TO_SETTLE          (1u)
ARM GAS  C:\Users\hamis\AppData\Local\Temp\ccrvUx4B.s 			page 2


  31:main.c        **** #define WAIT_PLL_TO_SETTLE          (1u)
  32:main.c        **** #define IMO_FREQ                    (CY_IMO_FREQ_3MHZ) /* CyIMO_SetFreq() parameter */
  33:main.c        **** 
  34:main.c        **** 
  35:main.c        **** #define LED_OFF                     (0u)
  36:main.c        **** #define LED_ON                      (1u)
  37:main.c        **** 
  38:main.c        **** #define PLL_Q                       (1u)    /* 1 MHz <= (Fin / Q) <= 3 MHz */
  39:main.c        **** #define PLL_P                       (16u)   /* Fout = Fin * P/Q */
  40:main.c        **** #define PLL_ICP                     (1u)    /* Valid for all configurations */
  41:main.c        **** 
  42:main.c        **** /* Conversion between CyIMO_SetFreq() parameter and frequency in 3-62 MHz range */
  43:main.c        **** const uint8 CYCODE imoFreqParam2Frequency[6u] = {3u, 6u, 12u, 24u, 48, 62u};
  44:main.c        **** 
  45:main.c        **** /* Function prototype */
  46:main.c        **** void Led_Blink(void);
  47:main.c        **** 
  48:main.c        **** 
  49:main.c        **** /*******************************************************************************
  50:main.c        **** * Function Name: main
  51:main.c        **** ********************************************************************************
  52:main.c        **** *
  53:main.c        **** * Summary:
  54:main.c        **** *  Reconfigures the clock tree from "XTAL -> Master Clock -> Bus Clock" to "IMO
  55:main.c        **** *  -> PLL -> Master Clock -> Bus Clock". Reconfigures ILO 1 KHz to route it out
  56:main.c        **** *  of the ILO block instead of ILO 100 KHz. Disables the unused clock source:
  57:main.c        **** *  XTAL and ILO 100 KHz. The LCD displays the execution status. The LED blinks
  58:main.c        **** *  twice for the same period of time before clock configuration changes and
  59:main.c        **** *  after.
  60:main.c        **** *
  61:main.c        **** * Parameters:
  62:main.c        **** *  None
  63:main.c        **** *
  64:main.c        **** * Return:
  65:main.c        **** *  None
  66:main.c        **** *
  67:main.c        **** *******************************************************************************/
  68:main.c        **** int main(void)
  69:main.c        **** {
  70:main.c        ****     LCD_Start();
  71:main.c        ****     LCD_Position(0u, 0u);
  72:main.c        ****     LCD_PrintString("Clock Example");
  73:main.c        **** 
  74:main.c        ****     Led_Blink();
  75:main.c        **** 
  76:main.c        ****     /* Configure and start IMO */
  77:main.c        ****     CyIMO_SetFreq(IMO_FREQ);
  78:main.c        **** 
  79:main.c        ****     /* PLLout = Fimo * P /Q */
  80:main.c        ****     CyPLL_OUT_SetPQ(PLL_P, PLL_Q, PLL_ICP);
  81:main.c        ****     CyIMO_Start(WAIT_IMO_TO_SETTLE);
  82:main.c        **** 
  83:main.c        ****     /* Configure and start PLL */
  84:main.c        ****     CyPLL_OUT_SetSource(CY_PLL_SOURCE_IMO);
  85:main.c        ****     if(CYRET_SUCCESS == CyPLL_OUT_Start(WAIT_PLL_TO_SETTLE))
  86:main.c        ****     {
  87:main.c        ****         /***********************************************************************
ARM GAS  C:\Users\hamis\AppData\Local\Temp\ccrvUx4B.s 			page 3


  88:main.c        ****         * Set the number of clock cycles the cache waits before it samples
  89:main.c        ****         * data coming back from the Flash. This function must be called before
  90:main.c        ****         * increasing the CPU clock frequency. It can optionally be called after
  91:main.c        ****         * lowering the CPU clock frequency to improve the CPU performance.
  92:main.c        ****         ***********************************************************************/
  93:main.c        ****         CyFlash_SetWaitCycles(imoFreqParam2Frequency[IMO_FREQ] * PLL_P / PLL_Q);
  94:main.c        **** 
  95:main.c        **** 
  96:main.c        ****         /***********************************************************************
  97:main.c        ****         * Adjustments to keep the CyDelay function accurate.
  98:main.c        ****         * By default, the number of cycles to delay in CyDelay() and CyDelayUs()
  99:main.c        ****         * is calculated based on the clock configuration entered in PSoC Creator.
 100:main.c        ****         * If the clock configuration changes at the run-time, the CyDelayFreq()
 101:main.c        ****         * function is used to indicate a new frequency.
 102:main.c        ****         ***********************************************************************/
 103:main.c        ****         CyDelayFreq(HZ_IN_MHZ * imoFreqParam2Frequency[IMO_FREQ] * PLL_P / PLL_Q);
 104:main.c        **** 
 105:main.c        ****         /* Change Master clock source to PLL */
 106:main.c        ****         CyMasterClk_SetSource(CY_MASTER_SOURCE_PLL);
 107:main.c        **** 
 108:main.c        ****         /* Master clock is not sourced by XTAL - safe to stop it */
 109:main.c        ****         CyXTAL_Stop();
 110:main.c        ****     }
 111:main.c        ****     else
 112:main.c        ****     {
 113:main.c        ****         LCD_Position(1u, 0u);
 114:main.c        ****         LCD_PrintString("PLL - Failed.");
 115:main.c        ****         CyDelay(VISIBILITY_DELAY_MS);
 116:main.c        ****     }
 117:main.c        **** 
 118:main.c        ****     /* ILO 1 KHz is enabled by default, so route ILO 1 KHz and disable 100 KHz */
 119:main.c        ****     CyILO_SetSource(CY_ILO_SOURCE_1K);
 120:main.c        ****     CyILO_Stop100K();
 121:main.c        **** 
 122:main.c        ****     LCD_Position(1u, 0u);
 123:main.c        ****     LCD_PrintString("Reconfigured");
 124:main.c        **** 
 125:main.c        ****     Led_Blink();
 126:main.c        **** 
 127:main.c        ****     for(;;)
 128:main.c        ****     {
 129:main.c        ****     }
 130:main.c        **** 
 131:main.c        **** }
 132:main.c        **** 
 133:main.c        **** 
 134:main.c        **** /*******************************************************************************
 135:main.c        **** * Function Name: Led_Blink
 136:main.c        **** ********************************************************************************
 137:main.c        **** * Summary:
 138:main.c        **** *  Blinks LED with the LED_Status pin.
 139:main.c        **** *
 140:main.c        **** * Parameters:
 141:main.c        **** *  None
 142:main.c        **** *
 143:main.c        **** * Return:
 144:main.c        **** *  None
ARM GAS  C:\Users\hamis\AppData\Local\Temp\ccrvUx4B.s 			page 4


 145:main.c        **** *
 146:main.c        **** *******************************************************************************/
 147:main.c        **** void Led_Blink(void)
 148:main.c        **** {
  28              		.loc 1 148 0
  29              		.cfi_startproc
  30              		@ args = 0, pretend = 0, frame = 0
  31              		@ frame_needed = 0, uses_anonymous_args = 0
  32 0000 08B5     		push	{r3, lr}
  33              		.cfi_def_cfa_offset 8
  34              		.cfi_offset 3, -8
  35              		.cfi_offset 14, -4
 149:main.c        ****     LED_Status_Write(LED_ON);
  36              		.loc 1 149 0
  37 0002 0120     		movs	r0, #1
  38 0004 FFF7FEFF 		bl	LED_Status_Write
  39              	.LVL0:
 150:main.c        ****     CyDelay(BLINK_DELAY_MS);
  40              		.loc 1 150 0
  41 0008 4FF47A70 		mov	r0, #1000
  42 000c FFF7FEFF 		bl	CyDelay
  43              	.LVL1:
 151:main.c        ****     LED_Status_Write(LED_OFF);
  44              		.loc 1 151 0
  45 0010 0020     		movs	r0, #0
  46 0012 FFF7FEFF 		bl	LED_Status_Write
  47              	.LVL2:
 152:main.c        ****     CyDelay(BLINK_DELAY_MS);
  48              		.loc 1 152 0
  49 0016 4FF47A70 		mov	r0, #1000
  50 001a FFF7FEFF 		bl	CyDelay
  51              	.LVL3:
  52 001e 08BD     		pop	{r3, pc}
  53              		.cfi_endproc
  54              	.LFE64:
  55              		.size	Led_Blink, .-Led_Blink
  56              		.section	.text.main,"ax",%progbits
  57              		.align	2
  58              		.global	main
  59              		.thumb
  60              		.thumb_func
  61              		.type	main, %function
  62              	main:
  63              	.LFB63:
  69:main.c        ****     LCD_Start();
  64              		.loc 1 69 0
  65              		.cfi_startproc
  66              		@ Volatile: function does not return.
  67              		@ args = 0, pretend = 0, frame = 0
  68              		@ frame_needed = 0, uses_anonymous_args = 0
  69 0000 08B5     		push	{r3, lr}
  70              		.cfi_def_cfa_offset 8
  71              		.cfi_offset 3, -8
  72              		.cfi_offset 14, -4
  70:main.c        ****     LCD_Position(0u, 0u);
  73              		.loc 1 70 0
  74 0002 FFF7FEFF 		bl	LCD_Start
ARM GAS  C:\Users\hamis\AppData\Local\Temp\ccrvUx4B.s 			page 5


  75              	.LVL4:
  71:main.c        ****     LCD_PrintString("Clock Example");
  76              		.loc 1 71 0
  77 0006 0021     		movs	r1, #0
  78 0008 0846     		mov	r0, r1
  79 000a FFF7FEFF 		bl	LCD_Position
  80              	.LVL5:
  72:main.c        **** 
  81              		.loc 1 72 0
  82 000e 1E48     		ldr	r0, .L8
  83 0010 FFF7FEFF 		bl	LCD_PrintString
  84              	.LVL6:
  74:main.c        **** 
  85              		.loc 1 74 0
  86 0014 FFF7FEFF 		bl	Led_Blink
  87              	.LVL7:
  77:main.c        **** 
  88              		.loc 1 77 0
  89 0018 0020     		movs	r0, #0
  90 001a FFF7FEFF 		bl	CyIMO_SetFreq
  91              	.LVL8:
  80:main.c        ****     CyIMO_Start(WAIT_IMO_TO_SETTLE);
  92              		.loc 1 80 0
  93 001e 0122     		movs	r2, #1
  94 0020 1146     		mov	r1, r2
  95 0022 1020     		movs	r0, #16
  96 0024 FFF7FEFF 		bl	CyPLL_OUT_SetPQ
  97              	.LVL9:
  81:main.c        **** 
  98              		.loc 1 81 0
  99 0028 0120     		movs	r0, #1
 100 002a FFF7FEFF 		bl	CyIMO_Start
 101              	.LVL10:
  84:main.c        ****     if(CYRET_SUCCESS == CyPLL_OUT_Start(WAIT_PLL_TO_SETTLE))
 102              		.loc 1 84 0
 103 002e 0020     		movs	r0, #0
 104 0030 FFF7FEFF 		bl	CyPLL_OUT_SetSource
 105              	.LVL11:
  85:main.c        ****     {
 106              		.loc 1 85 0
 107 0034 0120     		movs	r0, #1
 108 0036 FFF7FEFF 		bl	CyPLL_OUT_Start
 109              	.LVL12:
 110 003a 58B9     		cbnz	r0, .L4
  93:main.c        **** 
 111              		.loc 1 93 0
 112 003c 3020     		movs	r0, #48
 113 003e FFF7FEFF 		bl	CyFlash_SetWaitCycles
 114              	.LVL13:
 103:main.c        **** 
 115              		.loc 1 103 0
 116 0042 1248     		ldr	r0, .L8+4
 117 0044 FFF7FEFF 		bl	CyDelayFreq
 118              	.LVL14:
 106:main.c        **** 
 119              		.loc 1 106 0
 120 0048 0120     		movs	r0, #1
ARM GAS  C:\Users\hamis\AppData\Local\Temp\ccrvUx4B.s 			page 6


 121 004a FFF7FEFF 		bl	CyMasterClk_SetSource
 122              	.LVL15:
 109:main.c        ****     }
 123              		.loc 1 109 0
 124 004e FFF7FEFF 		bl	CyXTAL_Stop
 125              	.LVL16:
 126 0052 0AE0     		b	.L5
 127              	.L4:
 113:main.c        ****         LCD_PrintString("PLL - Failed.");
 128              		.loc 1 113 0
 129 0054 0021     		movs	r1, #0
 130 0056 0120     		movs	r0, #1
 131 0058 FFF7FEFF 		bl	LCD_Position
 132              	.LVL17:
 114:main.c        ****         CyDelay(VISIBILITY_DELAY_MS);
 133              		.loc 1 114 0
 134 005c 0C48     		ldr	r0, .L8+8
 135 005e FFF7FEFF 		bl	LCD_PrintString
 136              	.LVL18:
 115:main.c        ****     }
 137              		.loc 1 115 0
 138 0062 4FF47A70 		mov	r0, #1000
 139 0066 FFF7FEFF 		bl	CyDelay
 140              	.LVL19:
 141              	.L5:
 119:main.c        ****     CyILO_Stop100K();
 142              		.loc 1 119 0
 143 006a 0220     		movs	r0, #2
 144 006c FFF7FEFF 		bl	CyILO_SetSource
 145              	.LVL20:
 120:main.c        **** 
 146              		.loc 1 120 0
 147 0070 FFF7FEFF 		bl	CyILO_Stop100K
 148              	.LVL21:
 122:main.c        ****     LCD_PrintString("Reconfigured");
 149              		.loc 1 122 0
 150 0074 0021     		movs	r1, #0
 151 0076 0120     		movs	r0, #1
 152 0078 FFF7FEFF 		bl	LCD_Position
 153              	.LVL22:
 123:main.c        **** 
 154              		.loc 1 123 0
 155 007c 0548     		ldr	r0, .L8+12
 156 007e FFF7FEFF 		bl	LCD_PrintString
 157              	.LVL23:
 125:main.c        **** 
 158              		.loc 1 125 0
 159 0082 FFF7FEFF 		bl	Led_Blink
 160              	.LVL24:
 161              	.L6:
 162 0086 FEE7     		b	.L6
 163              	.L9:
 164              		.align	2
 165              	.L8:
 166 0088 00000000 		.word	.LC0
 167 008c 006CDC02 		.word	48000000
 168 0090 10000000 		.word	.LC1
ARM GAS  C:\Users\hamis\AppData\Local\Temp\ccrvUx4B.s 			page 7


 169 0094 20000000 		.word	.LC2
 170              		.cfi_endproc
 171              	.LFE63:
 172              		.size	main, .-main
 173              		.global	imoFreqParam2Frequency
 174              		.section	.rodata
 175              		.align	2
 176              		.type	imoFreqParam2Frequency, %object
 177              		.size	imoFreqParam2Frequency, 6
 178              	imoFreqParam2Frequency:
 179 0000 03       		.byte	3
 180 0001 06       		.byte	6
 181 0002 0C       		.byte	12
 182 0003 18       		.byte	24
 183 0004 30       		.byte	48
 184 0005 3E       		.byte	62
 185              		.section	.rodata.str1.4,"aMS",%progbits,1
 186              		.align	2
 187              	.LC0:
 188 0000 436C6F63 		.ascii	"Clock Example\000"
 188      6B204578 
 188      616D706C 
 188      6500
 189 000e 0000     		.space	2
 190              	.LC1:
 191 0010 504C4C20 		.ascii	"PLL - Failed.\000"
 191      2D204661 
 191      696C6564 
 191      2E00
 192 001e 0000     		.space	2
 193              	.LC2:
 194 0020 5265636F 		.ascii	"Reconfigured\000"
 194      6E666967 
 194      75726564 
 194      00
 195              		.text
 196              	.Letext0:
 197              		.file 2 "d:\\program files (x86)\\psoc creator\\4.4\\psoc creator\\import\\gnu\\arm\\5.4.1\\arm-no
 198              		.file 3 "d:\\program files (x86)\\psoc creator\\4.4\\psoc creator\\import\\gnu\\arm\\5.4.1\\arm-no
 199              		.file 4 "Generated_Source\\PSoC5/cytypes.h"
 200              		.file 5 "Generated_Source\\PSoC5/core_cm3.h"
 201              		.file 6 "Generated_Source\\PSoC5/LED_Status.h"
 202              		.file 7 "Generated_Source\\PSoC5/CyLib.h"
 203              		.file 8 "Generated_Source\\PSoC5/LCD.h"
 204              		.file 9 "Generated_Source\\PSoC5/CyFlash.h"