ARM GAS  C:\Users\JENNEW~1\AppData\Local\Temp\ccg3tGQJ.s 			page 1


   1              		.syntax unified
   2              		.cpu cortex-m3
   3              		.fpu softvfp
   4              		.eabi_attribute 20, 1
   5              		.eabi_attribute 21, 1
   6              		.eabi_attribute 23, 3
   7              		.eabi_attribute 24, 1
   8              		.eabi_attribute 25, 1
   9              		.eabi_attribute 26, 1
  10              		.eabi_attribute 30, 6
  11              		.eabi_attribute 34, 1
  12              		.eabi_attribute 18, 4
  13              		.thumb
  14              		.syntax unified
  15              		.file	"hamfly_qx_app.c"
  16              		.text
  17              	.Ltext0:
  18              		.cfi_sections	.debug_frame
  19              		.global	qx_active_gimbal_ptr
  20              		.bss
  21              		.align	2
  22              		.type	qx_active_gimbal_ptr, %object
  23              		.size	qx_active_gimbal_ptr, 4
  24              	qx_active_gimbal_ptr:
  25 0000 00000000 		.space	4
  26              		.global	FreeflyAPI
  27              		.data
  28              		.align	2
  29              		.type	FreeflyAPI, %object
  30              		.size	FreeflyAPI, 116
  31              	FreeflyAPI:
  32 0000 00000000 		.word	ff_api_init
  33 0004 00000000 		.word	ff_api_send
  34 0008 00000000 		.space	4
  35 000c 00       		.byte	0
  36 000d 00000000 		.space	59
  36      00000000 
  36      00000000 
  36      00000000 
  36      00000000 
  37 0048 00000000 		.word	0
  38 004c 00000000 		.space	40
  38      00000000 
  38      00000000 
  38      00000000 
  38      00000000 
  39              		.section	.text.ff_api_init,"ax",%progbits
  40              		.align	2
  41              		.thumb
  42              		.thumb_func
  43              		.type	ff_api_init, %function
  44              	ff_api_init:
  45              	.LFB0:
  46              		.file 1 "..\\..\\..\\HamFlyAPI\\src\\hamfly_qx_app.c"
   1:..\..\..\HamFlyAPI\src/hamfly_qx_app.c **** /* SPDX-License-Identifier: Apache-2.0
   2:..\..\..\HamFlyAPI\src/hamfly_qx_app.c ****  *
   3:..\..\..\HamFlyAPI\src/hamfly_qx_app.c ****  * Copyright 2026 Quantum Information Systems Lab, SFU Physics
ARM GAS  C:\Users\JENNEW~1\AppData\Local\Temp\ccg3tGQJ.s 			page 2


   4:..\..\..\HamFlyAPI\src/hamfly_qx_app.c ****  *
   5:..\..\..\HamFlyAPI\src/hamfly_qx_app.c ****  * Based on the Freefly QX Protocol (Copyright 2017 Freefly Systems),
   6:..\..\..\HamFlyAPI\src/hamfly_qx_app.c ****  * originally licensed under the Apache License, Version 2.0.
   7:..\..\..\HamFlyAPI\src/hamfly_qx_app.c ****  *
   8:..\..\..\HamFlyAPI\src/hamfly_qx_app.c ****  * Licensed under the Apache License, Version 2.0 (the "License");
   9:..\..\..\HamFlyAPI\src/hamfly_qx_app.c ****  * you may not use this file except in compliance with the License.
  10:..\..\..\HamFlyAPI\src/hamfly_qx_app.c ****  * You may obtain a copy of the License at
  11:..\..\..\HamFlyAPI\src/hamfly_qx_app.c ****  *
  12:..\..\..\HamFlyAPI\src/hamfly_qx_app.c ****  *     http://www.apache.org/licenses/LICENSE-2.0
  13:..\..\..\HamFlyAPI\src/hamfly_qx_app.c ****  *
  14:..\..\..\HamFlyAPI\src/hamfly_qx_app.c ****  * Unless required by applicable law or agreed to in writing, software
  15:..\..\..\HamFlyAPI\src/hamfly_qx_app.c ****  * distributed under the License is distributed on an "AS IS" BASIS,
  16:..\..\..\HamFlyAPI\src/hamfly_qx_app.c ****  * WITHOUT WARRANTIES OR CONDITIONS OF ANY KIND, either express or
  17:..\..\..\HamFlyAPI\src/hamfly_qx_app.c ****  * implied. See the License for the specific language governing
  18:..\..\..\HamFlyAPI\src/hamfly_qx_app.c ****  * permissions and limitations under the License.
  19:..\..\..\HamFlyAPI\src/hamfly_qx_app.c ****  * 
  20:..\..\..\HamFlyAPI\src/hamfly_qx_app.c ****  * ============================================================================
  21:..\..\..\HamFlyAPI\src/hamfly_qx_app.c ****  * Directly copied from the FreeflyAPI QX app.c/h file, refactored with Claude
  22:..\..\..\HamFlyAPI\src/hamfly_qx_app.c ****  * Haiku into two files for posterity: hamfly_qx_protocol and hamfly_qx_app.
  23:..\..\..\HamFlyAPI\src/hamfly_qx_app.c ****  *
  24:..\..\..\HamFlyAPI\src/hamfly_qx_app.c ****  * Edits:
  25:..\..\..\HamFlyAPI\src/hamfly_qx_app.c ****  *  - 'QX_SendMsg2CommsPort_CB' edited to write to 'qx_active_gimbal->txbuf'.
  26:..\..\..\HamFlyAPI\src/hamfly_qx_app.c ****  *  - 'qx_active_gimbal_ptr' and '#define qx_active_gimbal' added for the above.
  27:..\..\..\HamFlyAPI\src/hamfly_qx_app.c ****  *  - Updated includes to consolidated files.
  28:..\..\..\HamFlyAPI\src/hamfly_qx_app.c ****  */
  29:..\..\..\HamFlyAPI\src/hamfly_qx_app.c **** 
  30:..\..\..\HamFlyAPI\src/hamfly_qx_app.c **** #include <stdlib.h>
  31:..\..\..\HamFlyAPI\src/hamfly_qx_app.c **** #include <stdint.h>
  32:..\..\..\HamFlyAPI\src/hamfly_qx_app.c **** #include <string.h>
  33:..\..\..\HamFlyAPI\src/hamfly_qx_app.c **** #include <stdbool.h>
  34:..\..\..\HamFlyAPI\src/hamfly_qx_app.c **** 
  35:..\..\..\HamFlyAPI\src/hamfly_qx_app.c **** #include "hamfly_qx_app.h"
  36:..\..\..\HamFlyAPI\src/hamfly_qx_app.c **** #include "hamfly_qx_protocol.h"
  37:..\..\..\HamFlyAPI\src/hamfly_qx_app.c **** #include "hamfly_core_gimbal.h"
  38:..\..\..\HamFlyAPI\src/hamfly_qx_app.c **** #include "hamfly_comm_txbuf.h"
  39:..\..\..\HamFlyAPI\src/hamfly_qx_app.c **** 
  40:..\..\..\HamFlyAPI\src/hamfly_qx_app.c **** /* ============================================================
  41:..\..\..\HamFlyAPI\src/hamfly_qx_app.c ****  * Active gimbal instance pointer
  42:..\..\..\HamFlyAPI\src/hamfly_qx_app.c ****  * Set by hamfly_init(). QX_SendMsg2CommsPort_CB writes into
  43:..\..\..\HamFlyAPI\src/hamfly_qx_app.c ****  * this instance's txbuf instead of the global simple_buffer.
  44:..\..\..\HamFlyAPI\src/hamfly_qx_app.c ****  * For a second gimbal, extend to an array indexed by port.
  45:..\..\..\HamFlyAPI\src/hamfly_qx_app.c ****  * ============================================================ */
  46:..\..\..\HamFlyAPI\src/hamfly_qx_app.c **** void *qx_active_gimbal_ptr = NULL;
  47:..\..\..\HamFlyAPI\src/hamfly_qx_app.c **** #define qx_active_gimbal ((hamfly_gimbal_t *)qx_active_gimbal_ptr)
  48:..\..\..\HamFlyAPI\src/hamfly_qx_app.c **** 
  49:..\..\..\HamFlyAPI\src/hamfly_qx_app.c **** /* ============================================================
  50:..\..\..\HamFlyAPI\src/hamfly_qx_app.c ****  * FreeflyAPI global instance
  51:..\..\..\HamFlyAPI\src/hamfly_qx_app.c ****  * ============================================================ */
  52:..\..\..\HamFlyAPI\src/hamfly_qx_app.c **** static uint8_t *QX_ParsePacket_Cli_MoVI_Ctrl_CB(QX_Msg_t *Msg_p);
  53:..\..\..\HamFlyAPI\src/hamfly_qx_app.c **** static void ff_api_init(void);
  54:..\..\..\HamFlyAPI\src/hamfly_qx_app.c **** static void ff_api_send(void);
  55:..\..\..\HamFlyAPI\src/hamfly_qx_app.c **** 
  56:..\..\..\HamFlyAPI\src/hamfly_qx_app.c **** ff_api_t FreeflyAPI = {
  57:..\..\..\HamFlyAPI\src/hamfly_qx_app.c ****     .begin   = &ff_api_init,
  58:..\..\..\HamFlyAPI\src/hamfly_qx_app.c ****     .send    = &ff_api_send,
  59:..\..\..\HamFlyAPI\src/hamfly_qx_app.c ****     .control = {0},
  60:..\..\..\HamFlyAPI\src/hamfly_qx_app.c ****     .status  = {0}
ARM GAS  C:\Users\JENNEW~1\AppData\Local\Temp\ccg3tGQJ.s 			page 3


  61:..\..\..\HamFlyAPI\src/hamfly_qx_app.c **** };
  62:..\..\..\HamFlyAPI\src/hamfly_qx_app.c **** 
  63:..\..\..\HamFlyAPI\src/hamfly_qx_app.c **** /* ============================================================
  64:..\..\..\HamFlyAPI\src/hamfly_qx_app.c ****  * ff_api_init -- unchanged from original
  65:..\..\..\HamFlyAPI\src/hamfly_qx_app.c ****  * ============================================================ */
  66:..\..\..\HamFlyAPI\src/hamfly_qx_app.c **** static void ff_api_init(void)
  67:..\..\..\HamFlyAPI\src/hamfly_qx_app.c **** {
  47              		.loc 1 67 0
  48              		.cfi_startproc
  49              		@ args = 0, pretend = 0, frame = 0
  50              		@ frame_needed = 1, uses_anonymous_args = 0
  51 0000 80B5     		push	{r7, lr}
  52              		.cfi_def_cfa_offset 8
  53              		.cfi_offset 7, -8
  54              		.cfi_offset 14, -4
  55 0002 00AF     		add	r7, sp, #0
  56              		.cfi_def_cfa_register 7
  68:..\..\..\HamFlyAPI\src/hamfly_qx_app.c ****     QX_InitCli(&QX_Clients[0], QX_DEV_ID_MOVI_API_CONTROLLER,
  57              		.loc 1 68 0
  58 0004 1A4A     		ldr	r2, .L2
  59 0006 0A21     		movs	r1, #10
  60 0008 1A48     		ldr	r0, .L2+4
  61 000a FFF7FEFF 		bl	QX_InitCli
  69:..\..\..\HamFlyAPI\src/hamfly_qx_app.c ****                QX_ParsePacket_Cli_MoVI_Ctrl_CB);
  70:..\..\..\HamFlyAPI\src/hamfly_qx_app.c **** 
  71:..\..\..\HamFlyAPI\src/hamfly_qx_app.c ****     FreeflyAPI.control.pan.type   = DEFER;
  62              		.loc 1 71 0
  63 000e 1A4B     		ldr	r3, .L2+8
  64 0010 0022     		movs	r2, #0
  65 0012 1A75     		strb	r2, [r3, #20]
  72:..\..\..\HamFlyAPI\src/hamfly_qx_app.c ****     FreeflyAPI.control.tilt.type  = DEFER;
  66              		.loc 1 72 0
  67 0014 184B     		ldr	r3, .L2+8
  68 0016 0022     		movs	r2, #0
  69 0018 1A77     		strb	r2, [r3, #28]
  73:..\..\..\HamFlyAPI\src/hamfly_qx_app.c ****     FreeflyAPI.control.roll.type  = DEFER;
  70              		.loc 1 73 0
  71 001a 174B     		ldr	r3, .L2+8
  72 001c 0022     		movs	r2, #0
  73 001e 83F82420 		strb	r2, [r3, #36]
  74:..\..\..\HamFlyAPI\src/hamfly_qx_app.c ****     FreeflyAPI.control.focus.type = DEFER;
  74              		.loc 1 74 0
  75 0022 154B     		ldr	r3, .L2+8
  76 0024 0022     		movs	r2, #0
  77 0026 83F82C20 		strb	r2, [r3, #44]
  75:..\..\..\HamFlyAPI\src/hamfly_qx_app.c ****     FreeflyAPI.control.iris.type  = DEFER;
  78              		.loc 1 75 0
  79 002a 134B     		ldr	r3, .L2+8
  80 002c 0022     		movs	r2, #0
  81 002e 83F83420 		strb	r2, [r3, #52]
  76:..\..\..\HamFlyAPI\src/hamfly_qx_app.c ****     FreeflyAPI.control.zoom.type  = DEFER;
  82              		.loc 1 76 0
  83 0032 114B     		ldr	r3, .L2+8
  84 0034 0022     		movs	r2, #0
  85 0036 83F83C20 		strb	r2, [r3, #60]
  77:..\..\..\HamFlyAPI\src/hamfly_qx_app.c ****     FreeflyAPI.control.fiz_autoCalStart_all_flag  = 0;
  86              		.loc 1 77 0
ARM GAS  C:\Users\JENNEW~1\AppData\Local\Temp\ccg3tGQJ.s 			page 4


  87 003a 0F4B     		ldr	r3, .L2+8
  88 003c 0022     		movs	r2, #0
  89 003e 83F84120 		strb	r2, [r3, #65]
  78:..\..\..\HamFlyAPI\src/hamfly_qx_app.c ****     FreeflyAPI.control.fiz_clearFaults_all_flag   = 0;
  90              		.loc 1 78 0
  91 0042 0D4B     		ldr	r3, .L2+8
  92 0044 0022     		movs	r2, #0
  93 0046 83F84020 		strb	r2, [r3, #64]
  79:..\..\..\HamFlyAPI\src/hamfly_qx_app.c ****     FreeflyAPI.control.fiz_record_button_flag     = 0;
  94              		.loc 1 79 0
  95 004a 0B4B     		ldr	r3, .L2+8
  96 004c 0022     		movs	r2, #0
  97 004e 83F84220 		strb	r2, [r3, #66]
  80:..\..\..\HamFlyAPI\src/hamfly_qx_app.c ****     FreeflyAPI.control.fiz_setSubRangeLim_F_flag  = 0;
  98              		.loc 1 80 0
  99 0052 094B     		ldr	r3, .L2+8
 100 0054 0022     		movs	r2, #0
 101 0056 83F84320 		strb	r2, [r3, #67]
  81:..\..\..\HamFlyAPI\src/hamfly_qx_app.c ****     FreeflyAPI.control.fiz_setSubRangeLim_I_flag  = 0;
 102              		.loc 1 81 0
 103 005a 074B     		ldr	r3, .L2+8
 104 005c 0022     		movs	r2, #0
 105 005e 83F84420 		strb	r2, [r3, #68]
  82:..\..\..\HamFlyAPI\src/hamfly_qx_app.c ****     FreeflyAPI.control.fiz_setSubRangeLim_Z_flag  = 0;
 106              		.loc 1 82 0
 107 0062 054B     		ldr	r3, .L2+8
 108 0064 0022     		movs	r2, #0
 109 0066 83F84520 		strb	r2, [r3, #69]
  83:..\..\..\HamFlyAPI\src/hamfly_qx_app.c **** }
 110              		.loc 1 83 0
 111 006a 00BF     		nop
 112 006c 80BD     		pop	{r7, pc}
 113              	.L3:
 114 006e 00BF     		.align	2
 115              	.L2:
 116 0070 00000000 		.word	QX_ParsePacket_Cli_MoVI_Ctrl_CB
 117 0074 00000000 		.word	QX_Clients
 118 0078 00000000 		.word	FreeflyAPI
 119              		.cfi_endproc
 120              	.LFE0:
 121              		.size	ff_api_init, .-ff_api_init
 122              		.section	.text.ff_api_send,"ax",%progbits
 123              		.align	2
 124              		.thumb
 125              		.thumb_func
 126              		.type	ff_api_send, %function
 127              	ff_api_send:
 128              	.LFB1:
  84:..\..\..\HamFlyAPI\src/hamfly_qx_app.c **** 
  85:..\..\..\HamFlyAPI\src/hamfly_qx_app.c **** /* ============================================================
  86:..\..\..\HamFlyAPI\src/hamfly_qx_app.c ****  * ff_api_send -- unchanged from original
  87:..\..\..\HamFlyAPI\src/hamfly_qx_app.c ****  * ============================================================ */
  88:..\..\..\HamFlyAPI\src/hamfly_qx_app.c **** static void ff_api_send(void)
  89:..\..\..\HamFlyAPI\src/hamfly_qx_app.c **** {
 129              		.loc 1 89 0
 130              		.cfi_startproc
 131              		@ args = 0, pretend = 0, frame = 8
ARM GAS  C:\Users\JENNEW~1\AppData\Local\Temp\ccg3tGQJ.s 			page 5


 132              		@ frame_needed = 1, uses_anonymous_args = 0
 133 0000 80B5     		push	{r7, lr}
 134              		.cfi_def_cfa_offset 8
 135              		.cfi_offset 7, -8
 136              		.cfi_offset 14, -4
 137 0002 84B0     		sub	sp, sp, #16
 138              		.cfi_def_cfa_offset 24
 139 0004 02AF     		add	r7, sp, #8
 140              		.cfi_def_cfa 7, 16
  90:..\..\..\HamFlyAPI\src/hamfly_qx_app.c ****     QX_TxMsgOptions_t options;
  91:..\..\..\HamFlyAPI\src/hamfly_qx_app.c ****     QX_InitTxOptions(&options);
 141              		.loc 1 91 0
 142 0006 3B46     		mov	r3, r7
 143 0008 1846     		mov	r0, r3
 144 000a FFF7FEFF 		bl	QX_InitTxOptions
  92:..\..\..\HamFlyAPI\src/hamfly_qx_app.c ****     options.Target_Addr    = QX_DEV_ID_GIMBAL;
 145              		.loc 1 92 0
 146 000e 0223     		movs	r3, #2
 147 0010 3B71     		strb	r3, [r7, #4]
  93:..\..\..\HamFlyAPI\src/hamfly_qx_app.c ****     options.TransReq_Addr  = QX_DEV_ID_BROADCAST;
 148              		.loc 1 93 0
 149 0012 0023     		movs	r3, #0
 150 0014 7B71     		strb	r3, [r7, #5]
  94:..\..\..\HamFlyAPI\src/hamfly_qx_app.c ****     options.RespReq_Addr   = QX_DEV_ID_BROADCAST;
 151              		.loc 1 94 0
 152 0016 0023     		movs	r3, #0
 153 0018 BB71     		strb	r3, [r7, #6]
  95:..\..\..\HamFlyAPI\src/hamfly_qx_app.c ****     QX_SendPacket_Cli_WriteABS(&QX_Clients[0], 277, QX_COMMS_PORT_UART, options);
 154              		.loc 1 95 0
 155 001a 6B46     		mov	r3, sp
 156 001c 3A1D     		adds	r2, r7, #4
 157 001e 1268     		ldr	r2, [r2]
 158 0020 1146     		mov	r1, r2	@ movhi
 159 0022 1980     		strh	r1, [r3]	@ movhi
 160 0024 0233     		adds	r3, r3, #2
 161 0026 120C     		lsrs	r2, r2, #16
 162 0028 1A70     		strb	r2, [r3]
 163 002a 3B68     		ldr	r3, [r7]
 164 002c 0022     		movs	r2, #0
 165 002e 40F21511 		movw	r1, #277
 166 0032 0348     		ldr	r0, .L5
 167 0034 FFF7FEFF 		bl	QX_SendPacket_Cli_WriteABS
  96:..\..\..\HamFlyAPI\src/hamfly_qx_app.c **** }
 168              		.loc 1 96 0
 169 0038 00BF     		nop
 170 003a 0837     		adds	r7, r7, #8
 171              		.cfi_def_cfa_offset 8
 172 003c BD46     		mov	sp, r7
 173              		.cfi_def_cfa_register 13
 174              		@ sp needed
 175 003e 80BD     		pop	{r7, pc}
 176              	.L6:
 177              		.align	2
 178              	.L5:
 179 0040 00000000 		.word	QX_Clients
 180              		.cfi_endproc
 181              	.LFE1:
ARM GAS  C:\Users\JENNEW~1\AppData\Local\Temp\ccg3tGQJ.s 			page 6


 182              		.size	ff_api_send, .-ff_api_send
 183              		.global	__aeabi_fmul
 184              		.global	__aeabi_fadd
 185              		.global	__aeabi_f2uiz
 186              		.global	__aeabi_ui2f
 187              		.global	__aeabi_fcmpeq
 188              		.section	.text.QX_ParsePacket_Cli_MoVI_Ctrl_CB,"ax",%progbits
 189              		.align	2
 190              		.thumb
 191              		.thumb_func
 192              		.type	QX_ParsePacket_Cli_MoVI_Ctrl_CB, %function
 193              	QX_ParsePacket_Cli_MoVI_Ctrl_CB:
 194              	.LFB2:
  97:..\..\..\HamFlyAPI\src/hamfly_qx_app.c **** 
  98:..\..\..\HamFlyAPI\src/hamfly_qx_app.c **** /* ============================================================
  99:..\..\..\HamFlyAPI\src/hamfly_qx_app.c ****  * Parser callback -- unchanged from original
 100:..\..\..\HamFlyAPI\src/hamfly_qx_app.c ****  * ============================================================ */
 101:..\..\..\HamFlyAPI\src/hamfly_qx_app.c **** static uint8_t *QX_ParsePacket_Cli_MoVI_Ctrl_CB(QX_Msg_t *Msg_p)
 102:..\..\..\HamFlyAPI\src/hamfly_qx_app.c **** {
 195              		.loc 1 102 0
 196              		.cfi_startproc
 197              		@ args = 0, pretend = 0, frame = 64
 198              		@ frame_needed = 1, uses_anonymous_args = 0
 199 0000 80B5     		push	{r7, lr}
 200              		.cfi_def_cfa_offset 8
 201              		.cfi_offset 7, -8
 202              		.cfi_offset 14, -4
 203 0002 92B0     		sub	sp, sp, #72
 204              		.cfi_def_cfa_offset 80
 205 0004 02AF     		add	r7, sp, #8
 206              		.cfi_def_cfa 7, 72
 207 0006 7860     		str	r0, [r7, #4]
 103:..\..\..\HamFlyAPI\src/hamfly_qx_app.c ****     uint8_t  temp_UC_buffer[10];
 104:..\..\..\HamFlyAPI\src/hamfly_qx_app.c ****     int16_t  temp_SS_buffer[10];
 105:..\..\..\HamFlyAPI\src/hamfly_qx_app.c ****     uint16_t temp_US_buffer[10];
 106:..\..\..\HamFlyAPI\src/hamfly_qx_app.c **** 
 107:..\..\..\HamFlyAPI\src/hamfly_qx_app.c ****     switch (Msg_p->Parse_Type) {
 208              		.loc 1 107 0
 209 0008 7B68     		ldr	r3, [r7, #4]
 210 000a 1B78     		ldrb	r3, [r3]	@ zero_extendqisi2
 211 000c 022B     		cmp	r3, #2
 212 000e 07D0     		beq	.L9
 213 0010 042B     		cmp	r3, #4
 214 0012 02D0     		beq	.L10
 215 0014 012B     		cmp	r3, #1
 216 0016 06D0     		beq	.L11
 108:..\..\..\HamFlyAPI\src/hamfly_qx_app.c ****         case QX_PARSE_TYPE_WRITE_REL_SEND: QX_Parser_SetDir_Read();     break;
 109:..\..\..\HamFlyAPI\src/hamfly_qx_app.c ****         case QX_PARSE_TYPE_WRITE_ABS_SEND: QX_Parser_SetDir_Read();     break;
 110:..\..\..\HamFlyAPI\src/hamfly_qx_app.c ****         case QX_PARSE_TYPE_CURVAL_RECV:    QX_Parser_SetDir_WriteAbs(); break;
 111:..\..\..\HamFlyAPI\src/hamfly_qx_app.c ****         default: break;
 217              		.loc 1 111 0
 218 0018 08E0     		b	.L12
 219              	.L10:
 108:..\..\..\HamFlyAPI\src/hamfly_qx_app.c ****         case QX_PARSE_TYPE_WRITE_REL_SEND: QX_Parser_SetDir_Read();     break;
 220              		.loc 1 108 0
 221 001a FFF7FEFF 		bl	QX_Parser_SetDir_Read
 222 001e 05E0     		b	.L12
ARM GAS  C:\Users\JENNEW~1\AppData\Local\Temp\ccg3tGQJ.s 			page 7


 223              	.L9:
 109:..\..\..\HamFlyAPI\src/hamfly_qx_app.c ****         case QX_PARSE_TYPE_CURVAL_RECV:    QX_Parser_SetDir_WriteAbs(); break;
 224              		.loc 1 109 0
 225 0020 FFF7FEFF 		bl	QX_Parser_SetDir_Read
 226 0024 02E0     		b	.L12
 227              	.L11:
 110:..\..\..\HamFlyAPI\src/hamfly_qx_app.c ****         default: break;
 228              		.loc 1 110 0
 229 0026 FFF7FEFF 		bl	QX_Parser_SetDir_WriteAbs
 230 002a 00BF     		nop
 231              	.L12:
 112:..\..\..\HamFlyAPI\src/hamfly_qx_app.c ****     }
 113:..\..\..\HamFlyAPI\src/hamfly_qx_app.c **** 
 114:..\..\..\HamFlyAPI\src/hamfly_qx_app.c ****     QX_Parser_SetMsgPtr(Msg_p->BufPayloadStart_p);
 232              		.loc 1 114 0
 233 002c 7B68     		ldr	r3, [r7, #4]
 234 002e DB6E     		ldr	r3, [r3, #108]
 235 0030 1846     		mov	r0, r3
 236 0032 FFF7FEFF 		bl	QX_Parser_SetMsgPtr
 115:..\..\..\HamFlyAPI\src/hamfly_qx_app.c **** 
 116:..\..\..\HamFlyAPI\src/hamfly_qx_app.c ****     switch (Msg_p->Header.Attrib) {
 237              		.loc 1 116 0
 238 0036 7B68     		ldr	r3, [r7, #4]
 239 0038 DB68     		ldr	r3, [r3, #12]
 240 003a 40F21512 		movw	r2, #277
 241 003e 9342     		cmp	r3, r2
 242 0040 05D0     		beq	.L14
 243 0042 40F21F12 		movw	r2, #287
 244 0046 9342     		cmp	r3, r2
 245 0048 00F02682 		beq	.L15
 246 004c C6E3     		b	.L128
 247              	.L14:
 117:..\..\..\HamFlyAPI\src/hamfly_qx_app.c **** 
 118:..\..\..\HamFlyAPI\src/hamfly_qx_app.c ****         case 277:
 119:..\..\..\HamFlyAPI\src/hamfly_qx_app.c ****             if (Msg_p->Parse_Type != QX_PARSE_TYPE_WRITE_ABS_SEND) break;
 248              		.loc 1 119 0
 249 004e 7B68     		ldr	r3, [r7, #4]
 250 0050 1B78     		ldrb	r3, [r3]	@ zero_extendqisi2
 251 0052 022B     		cmp	r3, #2
 252 0054 40F0C683 		bne	.L135
 120:..\..\..\HamFlyAPI\src/hamfly_qx_app.c **** 
 121:..\..\..\HamFlyAPI\src/hamfly_qx_app.c ****             PARSE_UC_AS_UC(temp_UC_buffer, 3, 0xFF, 0);
 253              		.loc 1 121 0
 254 0058 A54B     		ldr	r3, .L137
 255 005a 1B78     		ldrb	r3, [r3]	@ zero_extendqisi2
 256 005c 002B     		cmp	r3, #0
 257 005e 06D1     		bne	.L18
 258              		.loc 1 121 0 is_stmt 0 discriminator 1
 259 0060 07F13003 		add	r3, r7, #48
 260 0064 0321     		movs	r1, #3
 261 0066 1846     		mov	r0, r3
 262 0068 FFF7FEFF 		bl	AddUnsignedCharAsUnsignedChar
 263 006c 06E0     		b	.L19
 264              	.L18:
 265              		.loc 1 121 0 discriminator 2
 266 006e 07F13000 		add	r0, r7, #48
 267 0072 0023     		movs	r3, #0
ARM GAS  C:\Users\JENNEW~1\AppData\Local\Temp\ccg3tGQJ.s 			page 8


 268 0074 FF22     		movs	r2, #255
 269 0076 0321     		movs	r1, #3
 270 0078 FFF7FEFF 		bl	GetUnsignedCharAsUnsignedChar
 271              	.L19:
 272              	.LBB2:
 122:..\..\..\HamFlyAPI\src/hamfly_qx_app.c **** 
 123:..\..\..\HamFlyAPI\src/hamfly_qx_app.c ****             {
 124:..\..\..\HamFlyAPI\src/hamfly_qx_app.c ****                 uint8_t pan_input_type;
 125:..\..\..\HamFlyAPI\src/hamfly_qx_app.c ****                 switch (FreeflyAPI.control.pan.type) {
 273              		.loc 1 125 0 is_stmt 1
 274 007c 9D4B     		ldr	r3, .L137+4
 275 007e 1B7D     		ldrb	r3, [r3, #20]	@ zero_extendqisi2
 276 0080 012B     		cmp	r3, #1
 277 0082 07D0     		beq	.L21
 278 0084 022B     		cmp	r3, #2
 279 0086 09D0     		beq	.L22
 280 0088 002B     		cmp	r3, #0
 281 008a 0BD1     		bne	.L129
 126:..\..\..\HamFlyAPI\src/hamfly_qx_app.c ****                     case DEFER:    pan_input_type = INPUT_CONTROL_RZ_DEFER; break;
 282              		.loc 1 126 0
 283 008c 0023     		movs	r3, #0
 284 008e 87F83F30 		strb	r3, [r7, #63]
 285 0092 0BE0     		b	.L24
 286              	.L21:
 127:..\..\..\HamFlyAPI\src/hamfly_qx_app.c ****                     case RATE:     pan_input_type = INPUT_CONTROL_RZ_RATE;  break;
 287              		.loc 1 127 0
 288 0094 0123     		movs	r3, #1
 289 0096 87F83F30 		strb	r3, [r7, #63]
 290 009a 07E0     		b	.L24
 291              	.L22:
 128:..\..\..\HamFlyAPI\src/hamfly_qx_app.c ****                     case ABSOLUTE: pan_input_type = INPUT_CONTROL_RZ_ABS;   break;
 292              		.loc 1 128 0
 293 009c 0223     		movs	r3, #2
 294 009e 87F83F30 		strb	r3, [r7, #63]
 295 00a2 03E0     		b	.L24
 296              	.L129:
 129:..\..\..\HamFlyAPI\src/hamfly_qx_app.c ****                     default:       pan_input_type = INPUT_CONTROL_RZ_DEFER; break;
 297              		.loc 1 129 0
 298 00a4 0023     		movs	r3, #0
 299 00a6 87F83F30 		strb	r3, [r7, #63]
 300 00aa 00BF     		nop
 301              	.L24:
 130:..\..\..\HamFlyAPI\src/hamfly_qx_app.c ****                 }
 131:..\..\..\HamFlyAPI\src/hamfly_qx_app.c ****                 uint8_t tilt_input_type;
 132:..\..\..\HamFlyAPI\src/hamfly_qx_app.c ****                 switch (FreeflyAPI.control.tilt.type) {
 302              		.loc 1 132 0
 303 00ac 914B     		ldr	r3, .L137+4
 304 00ae 1B7F     		ldrb	r3, [r3, #28]	@ zero_extendqisi2
 305 00b0 012B     		cmp	r3, #1
 306 00b2 07D0     		beq	.L26
 307 00b4 022B     		cmp	r3, #2
 308 00b6 09D0     		beq	.L27
 309 00b8 002B     		cmp	r3, #0
 310 00ba 0BD1     		bne	.L130
 133:..\..\..\HamFlyAPI\src/hamfly_qx_app.c ****                     case DEFER:    tilt_input_type = INPUT_CONTROL_RY_DEFER; break;
 311              		.loc 1 133 0
 312 00bc 0023     		movs	r3, #0
ARM GAS  C:\Users\JENNEW~1\AppData\Local\Temp\ccg3tGQJ.s 			page 9


 313 00be 87F83E30 		strb	r3, [r7, #62]
 314 00c2 0BE0     		b	.L29
 315              	.L26:
 134:..\..\..\HamFlyAPI\src/hamfly_qx_app.c ****                     case RATE:     tilt_input_type = INPUT_CONTROL_RY_RATE;  break;
 316              		.loc 1 134 0
 317 00c4 0423     		movs	r3, #4
 318 00c6 87F83E30 		strb	r3, [r7, #62]
 319 00ca 07E0     		b	.L29
 320              	.L27:
 135:..\..\..\HamFlyAPI\src/hamfly_qx_app.c ****                     case ABSOLUTE: tilt_input_type = INPUT_CONTROL_RY_ABS;   break;
 321              		.loc 1 135 0
 322 00cc 0823     		movs	r3, #8
 323 00ce 87F83E30 		strb	r3, [r7, #62]
 324 00d2 03E0     		b	.L29
 325              	.L130:
 136:..\..\..\HamFlyAPI\src/hamfly_qx_app.c ****                     default:       tilt_input_type = INPUT_CONTROL_RY_DEFER; break;
 326              		.loc 1 136 0
 327 00d4 0023     		movs	r3, #0
 328 00d6 87F83E30 		strb	r3, [r7, #62]
 329 00da 00BF     		nop
 330              	.L29:
 137:..\..\..\HamFlyAPI\src/hamfly_qx_app.c ****                 }
 138:..\..\..\HamFlyAPI\src/hamfly_qx_app.c ****                 uint8_t roll_input_type;
 139:..\..\..\HamFlyAPI\src/hamfly_qx_app.c ****                 switch (FreeflyAPI.control.roll.type) {
 331              		.loc 1 139 0
 332 00dc 854B     		ldr	r3, .L137+4
 333 00de 93F82430 		ldrb	r3, [r3, #36]	@ zero_extendqisi2
 334 00e2 012B     		cmp	r3, #1
 335 00e4 07D0     		beq	.L31
 336 00e6 022B     		cmp	r3, #2
 337 00e8 09D0     		beq	.L32
 338 00ea 002B     		cmp	r3, #0
 339 00ec 0BD1     		bne	.L131
 140:..\..\..\HamFlyAPI\src/hamfly_qx_app.c ****                     case DEFER:    roll_input_type = INPUT_CONTROL_RX_DEFER; break;
 340              		.loc 1 140 0
 341 00ee 0023     		movs	r3, #0
 342 00f0 87F83D30 		strb	r3, [r7, #61]
 343 00f4 0BE0     		b	.L34
 344              	.L31:
 141:..\..\..\HamFlyAPI\src/hamfly_qx_app.c ****                     case RATE:     roll_input_type = INPUT_CONTROL_RX_RATE;  break;
 345              		.loc 1 141 0
 346 00f6 1023     		movs	r3, #16
 347 00f8 87F83D30 		strb	r3, [r7, #61]
 348 00fc 07E0     		b	.L34
 349              	.L32:
 142:..\..\..\HamFlyAPI\src/hamfly_qx_app.c ****                     case ABSOLUTE: roll_input_type = INPUT_CONTROL_RX_ABS;   break;
 350              		.loc 1 142 0
 351 00fe 2023     		movs	r3, #32
 352 0100 87F83D30 		strb	r3, [r7, #61]
 353 0104 03E0     		b	.L34
 354              	.L131:
 143:..\..\..\HamFlyAPI\src/hamfly_qx_app.c ****                     default:       roll_input_type = INPUT_CONTROL_RX_DEFER; break;
 355              		.loc 1 143 0
 356 0106 0023     		movs	r3, #0
 357 0108 87F83D30 		strb	r3, [r7, #61]
 358 010c 00BF     		nop
 359              	.L34:
ARM GAS  C:\Users\JENNEW~1\AppData\Local\Temp\ccg3tGQJ.s 			page 10


 144:..\..\..\HamFlyAPI\src/hamfly_qx_app.c ****                 }
 145:..\..\..\HamFlyAPI\src/hamfly_qx_app.c **** 
 146:..\..\..\HamFlyAPI\src/hamfly_qx_app.c ****                 temp_UC_buffer[0] = pan_input_type | tilt_input_type | roll_input_type;
 360              		.loc 1 146 0
 361 010e 97F83F20 		ldrb	r2, [r7, #63]
 362 0112 97F83E30 		ldrb	r3, [r7, #62]
 363 0116 1343     		orrs	r3, r3, r2
 364 0118 DAB2     		uxtb	r2, r3
 365 011a 97F83D30 		ldrb	r3, [r7, #61]
 366 011e 1343     		orrs	r3, r3, r2
 367 0120 DBB2     		uxtb	r3, r3
 368 0122 87F83030 		strb	r3, [r7, #48]
 147:..\..\..\HamFlyAPI\src/hamfly_qx_app.c **** 
 148:..\..\..\HamFlyAPI\src/hamfly_qx_app.c ****                 if (FreeflyAPI.control.gimbal_position_type_quaternions)
 369              		.loc 1 148 0
 370 0126 734B     		ldr	r3, .L137+4
 371 0128 5B7B     		ldrb	r3, [r3, #13]	@ zero_extendqisi2
 372 012a 002B     		cmp	r3, #0
 373 012c 07D0     		beq	.L35
 149:..\..\..\HamFlyAPI\src/hamfly_qx_app.c ****                     temp_UC_buffer[0] |=  INPUT_CONTROL_QUATERNION;
 374              		.loc 1 149 0
 375 012e 97F83030 		ldrb	r3, [r7, #48]	@ zero_extendqisi2
 376 0132 63F07F03 		orn	r3, r3, #127
 377 0136 DBB2     		uxtb	r3, r3
 378 0138 87F83030 		strb	r3, [r7, #48]
 379 013c 06E0     		b	.L36
 380              	.L35:
 150:..\..\..\HamFlyAPI\src/hamfly_qx_app.c ****                 else
 151:..\..\..\HamFlyAPI\src/hamfly_qx_app.c ****                     temp_UC_buffer[0] &= ~INPUT_CONTROL_QUATERNION;
 381              		.loc 1 151 0
 382 013e 97F83030 		ldrb	r3, [r7, #48]	@ zero_extendqisi2
 383 0142 03F07F03 		and	r3, r3, #127
 384 0146 DBB2     		uxtb	r3, r3
 385 0148 87F83030 		strb	r3, [r7, #48]
 386              	.L36:
 152:..\..\..\HamFlyAPI\src/hamfly_qx_app.c **** 
 153:..\..\..\HamFlyAPI\src/hamfly_qx_app.c ****                 if (FreeflyAPI.control.gimbal_kill)
 387              		.loc 1 153 0
 388 014c 694B     		ldr	r3, .L137+4
 389 014e 1B7B     		ldrb	r3, [r3, #12]	@ zero_extendqisi2
 390 0150 002B     		cmp	r3, #0
 391 0152 07D0     		beq	.L37
 154:..\..\..\HamFlyAPI\src/hamfly_qx_app.c ****                     temp_UC_buffer[0] |=  INPUT_CONTROL_KILL;
 392              		.loc 1 154 0
 393 0154 97F83030 		ldrb	r3, [r7, #48]	@ zero_extendqisi2
 394 0158 43F04003 		orr	r3, r3, #64
 395 015c DBB2     		uxtb	r3, r3
 396 015e 87F83030 		strb	r3, [r7, #48]
 397 0162 06E0     		b	.L38
 398              	.L37:
 155:..\..\..\HamFlyAPI\src/hamfly_qx_app.c ****                 else
 156:..\..\..\HamFlyAPI\src/hamfly_qx_app.c ****                     temp_UC_buffer[0] &= ~INPUT_CONTROL_KILL;
 399              		.loc 1 156 0
 400 0164 97F83030 		ldrb	r3, [r7, #48]	@ zero_extendqisi2
 401 0168 23F04003 		bic	r3, r3, #64
 402 016c DBB2     		uxtb	r3, r3
 403 016e 87F83030 		strb	r3, [r7, #48]
ARM GAS  C:\Users\JENNEW~1\AppData\Local\Temp\ccg3tGQJ.s 			page 11


 404              	.L38:
 405              	.LBE2:
 157:..\..\..\HamFlyAPI\src/hamfly_qx_app.c ****             }
 158:..\..\..\HamFlyAPI\src/hamfly_qx_app.c **** 
 159:..\..\..\HamFlyAPI\src/hamfly_qx_app.c ****             PARSE_UC_AS_UC(temp_UC_buffer, 1, 0xFF, 0);
 406              		.loc 1 159 0
 407 0172 5F4B     		ldr	r3, .L137
 408 0174 1B78     		ldrb	r3, [r3]	@ zero_extendqisi2
 409 0176 002B     		cmp	r3, #0
 410 0178 06D1     		bne	.L39
 411              		.loc 1 159 0 is_stmt 0 discriminator 1
 412 017a 07F13003 		add	r3, r7, #48
 413 017e 0121     		movs	r1, #1
 414 0180 1846     		mov	r0, r3
 415 0182 FFF7FEFF 		bl	AddUnsignedCharAsUnsignedChar
 416 0186 06E0     		b	.L40
 417              	.L39:
 418              		.loc 1 159 0 discriminator 2
 419 0188 07F13000 		add	r0, r7, #48
 420 018c 0023     		movs	r3, #0
 421 018e FF22     		movs	r2, #255
 422 0190 0121     		movs	r1, #1
 423 0192 FFF7FEFF 		bl	GetUnsignedCharAsUnsignedChar
 424              	.L40:
 160:..\..\..\HamFlyAPI\src/hamfly_qx_app.c **** 
 161:..\..\..\HamFlyAPI\src/hamfly_qx_app.c ****             PARSE_FL_AS_SS(&FreeflyAPI.control.roll.value,  1, 32767.0f, -32767.0f, 32767.0f);
 425              		.loc 1 161 0 is_stmt 1
 426 0196 564B     		ldr	r3, .L137
 427 0198 1B78     		ldrb	r3, [r3]	@ zero_extendqisi2
 428 019a 002B     		cmp	r3, #0
 429 019c 05D1     		bne	.L41
 430              		.loc 1 161 0 is_stmt 0 discriminator 1
 431 019e 564A     		ldr	r2, .L137+8
 432 01a0 0121     		movs	r1, #1
 433 01a2 5648     		ldr	r0, .L137+12
 434 01a4 FFF7FEFF 		bl	AddFloatAsSignedShort
 435 01a8 07E0     		b	.L42
 436              	.L41:
 437              		.loc 1 161 0 discriminator 2
 438 01aa 554B     		ldr	r3, .L137+16
 439 01ac 0093     		str	r3, [sp]	@ float
 440 01ae 554B     		ldr	r3, .L137+20
 441 01b0 514A     		ldr	r2, .L137+8
 442 01b2 0121     		movs	r1, #1
 443 01b4 5148     		ldr	r0, .L137+12
 444 01b6 FFF7FEFF 		bl	GetFloatAsSignedShort
 445              	.L42:
 162:..\..\..\HamFlyAPI\src/hamfly_qx_app.c ****             PARSE_FL_AS_SS(&FreeflyAPI.control.tilt.value,  1, 32767.0f, -32767.0f, 32767.0f);
 446              		.loc 1 162 0 is_stmt 1
 447 01ba 4D4B     		ldr	r3, .L137
 448 01bc 1B78     		ldrb	r3, [r3]	@ zero_extendqisi2
 449 01be 002B     		cmp	r3, #0
 450 01c0 05D1     		bne	.L43
 451              		.loc 1 162 0 is_stmt 0 discriminator 1
 452 01c2 4D4A     		ldr	r2, .L137+8
 453 01c4 0121     		movs	r1, #1
 454 01c6 5048     		ldr	r0, .L137+24
ARM GAS  C:\Users\JENNEW~1\AppData\Local\Temp\ccg3tGQJ.s 			page 12


 455 01c8 FFF7FEFF 		bl	AddFloatAsSignedShort
 456 01cc 07E0     		b	.L44
 457              	.L43:
 458              		.loc 1 162 0 discriminator 2
 459 01ce 4C4B     		ldr	r3, .L137+16
 460 01d0 0093     		str	r3, [sp]	@ float
 461 01d2 4C4B     		ldr	r3, .L137+20
 462 01d4 484A     		ldr	r2, .L137+8
 463 01d6 0121     		movs	r1, #1
 464 01d8 4B48     		ldr	r0, .L137+24
 465 01da FFF7FEFF 		bl	GetFloatAsSignedShort
 466              	.L44:
 163:..\..\..\HamFlyAPI\src/hamfly_qx_app.c ****             PARSE_FL_AS_SS(&FreeflyAPI.control.pan.value,   1, 32767.0f, -32767.0f, 32767.0f);
 467              		.loc 1 163 0 is_stmt 1
 468 01de 444B     		ldr	r3, .L137
 469 01e0 1B78     		ldrb	r3, [r3]	@ zero_extendqisi2
 470 01e2 002B     		cmp	r3, #0
 471 01e4 05D1     		bne	.L45
 472              		.loc 1 163 0 is_stmt 0 discriminator 1
 473 01e6 444A     		ldr	r2, .L137+8
 474 01e8 0121     		movs	r1, #1
 475 01ea 4848     		ldr	r0, .L137+28
 476 01ec FFF7FEFF 		bl	AddFloatAsSignedShort
 477 01f0 07E0     		b	.L46
 478              	.L45:
 479              		.loc 1 163 0 discriminator 2
 480 01f2 434B     		ldr	r3, .L137+16
 481 01f4 0093     		str	r3, [sp]	@ float
 482 01f6 434B     		ldr	r3, .L137+20
 483 01f8 3F4A     		ldr	r2, .L137+8
 484 01fa 0121     		movs	r1, #1
 485 01fc 4348     		ldr	r0, .L137+28
 486 01fe FFF7FEFF 		bl	GetFloatAsSignedShort
 487              	.L46:
 164:..\..\..\HamFlyAPI\src/hamfly_qx_app.c ****             temp_SS_buffer[0] = 0;
 488              		.loc 1 164 0 is_stmt 1
 489 0202 0023     		movs	r3, #0
 490 0204 BB83     		strh	r3, [r7, #28]	@ movhi
 165:..\..\..\HamFlyAPI\src/hamfly_qx_app.c ****             PARSE_SS_AS_SS(temp_SS_buffer, 1, 0xFFFF, 0);
 491              		.loc 1 165 0
 492 0206 3A4B     		ldr	r3, .L137
 493 0208 1B78     		ldrb	r3, [r3]	@ zero_extendqisi2
 494 020a 002B     		cmp	r3, #0
 495 020c 06D1     		bne	.L47
 496              		.loc 1 165 0 is_stmt 0 discriminator 1
 497 020e 07F11C03 		add	r3, r7, #28
 498 0212 0121     		movs	r1, #1
 499 0214 1846     		mov	r0, r3
 500 0216 FFF7FEFF 		bl	AddSignedShortAsSignedShort
 501 021a 07E0     		b	.L48
 502              	.L47:
 503              		.loc 1 165 0 discriminator 2
 504 021c 07F11C00 		add	r0, r7, #28
 505 0220 4FF00003 		mov	r3, #0
 506 0224 3A4A     		ldr	r2, .L137+32
 507 0226 0121     		movs	r1, #1
 508 0228 FFF7FEFF 		bl	GetSignedShortAsSignedShort
ARM GAS  C:\Users\JENNEW~1\AppData\Local\Temp\ccg3tGQJ.s 			page 13


 509              	.L48:
 510              	.LBB3:
 166:..\..\..\HamFlyAPI\src/hamfly_qx_app.c **** 
 167:..\..\..\HamFlyAPI\src/hamfly_qx_app.c ****             {
 168:..\..\..\HamFlyAPI\src/hamfly_qx_app.c ****                 uint8_t focus_input_type;
 169:..\..\..\HamFlyAPI\src/hamfly_qx_app.c ****                 switch (FreeflyAPI.control.focus.type) {
 511              		.loc 1 169 0 is_stmt 1
 512 022c 314B     		ldr	r3, .L137+4
 513 022e 93F82C30 		ldrb	r3, [r3, #44]	@ zero_extendqisi2
 514 0232 012B     		cmp	r3, #1
 515 0234 07D0     		beq	.L50
 516 0236 022B     		cmp	r3, #2
 517 0238 09D0     		beq	.L51
 518 023a 002B     		cmp	r3, #0
 519 023c 0BD1     		bne	.L132
 170:..\..\..\HamFlyAPI\src/hamfly_qx_app.c ****                     case DEFER:    focus_input_type = INPUT_CONTROL_LF_DEFER; break;
 520              		.loc 1 170 0
 521 023e 0023     		movs	r3, #0
 522 0240 87F83C30 		strb	r3, [r7, #60]
 523 0244 0BE0     		b	.L53
 524              	.L50:
 171:..\..\..\HamFlyAPI\src/hamfly_qx_app.c ****                     case RATE:     focus_input_type = INPUT_CONTROL_LF_RATE;  break;
 525              		.loc 1 171 0
 526 0246 1023     		movs	r3, #16
 527 0248 87F83C30 		strb	r3, [r7, #60]
 528 024c 07E0     		b	.L53
 529              	.L51:
 172:..\..\..\HamFlyAPI\src/hamfly_qx_app.c ****                     case ABSOLUTE: focus_input_type = INPUT_CONTROL_LF_ABS;   break;
 530              		.loc 1 172 0
 531 024e 2023     		movs	r3, #32
 532 0250 87F83C30 		strb	r3, [r7, #60]
 533 0254 03E0     		b	.L53
 534              	.L132:
 173:..\..\..\HamFlyAPI\src/hamfly_qx_app.c ****                     default:       focus_input_type = INPUT_CONTROL_LF_DEFER; break;
 535              		.loc 1 173 0
 536 0256 0023     		movs	r3, #0
 537 0258 87F83C30 		strb	r3, [r7, #60]
 538 025c 00BF     		nop
 539              	.L53:
 174:..\..\..\HamFlyAPI\src/hamfly_qx_app.c ****                 }
 175:..\..\..\HamFlyAPI\src/hamfly_qx_app.c ****                 uint8_t iris_input_type;
 176:..\..\..\HamFlyAPI\src/hamfly_qx_app.c ****                 switch (FreeflyAPI.control.iris.type) {
 540              		.loc 1 176 0
 541 025e 254B     		ldr	r3, .L137+4
 542 0260 93F83430 		ldrb	r3, [r3, #52]	@ zero_extendqisi2
 543 0264 012B     		cmp	r3, #1
 544 0266 07D0     		beq	.L55
 545 0268 022B     		cmp	r3, #2
 546 026a 09D0     		beq	.L56
 547 026c 002B     		cmp	r3, #0
 548 026e 0BD1     		bne	.L133
 177:..\..\..\HamFlyAPI\src/hamfly_qx_app.c ****                     case DEFER:    iris_input_type = INPUT_CONTROL_LI_DEFER; break;
 549              		.loc 1 177 0
 550 0270 0023     		movs	r3, #0
 551 0272 87F83B30 		strb	r3, [r7, #59]
 552 0276 0BE0     		b	.L58
 553              	.L55:
ARM GAS  C:\Users\JENNEW~1\AppData\Local\Temp\ccg3tGQJ.s 			page 14


 178:..\..\..\HamFlyAPI\src/hamfly_qx_app.c ****                     case RATE:     iris_input_type = INPUT_CONTROL_LI_RATE;  break;
 554              		.loc 1 178 0
 555 0278 0423     		movs	r3, #4
 556 027a 87F83B30 		strb	r3, [r7, #59]
 557 027e 07E0     		b	.L58
 558              	.L56:
 179:..\..\..\HamFlyAPI\src/hamfly_qx_app.c ****                     case ABSOLUTE: iris_input_type = INPUT_CONTROL_LI_ABS;   break;
 559              		.loc 1 179 0
 560 0280 0823     		movs	r3, #8
 561 0282 87F83B30 		strb	r3, [r7, #59]
 562 0286 03E0     		b	.L58
 563              	.L133:
 180:..\..\..\HamFlyAPI\src/hamfly_qx_app.c ****                     default:       iris_input_type = INPUT_CONTROL_LI_DEFER; break;
 564              		.loc 1 180 0
 565 0288 0023     		movs	r3, #0
 566 028a 87F83B30 		strb	r3, [r7, #59]
 567 028e 00BF     		nop
 568              	.L58:
 181:..\..\..\HamFlyAPI\src/hamfly_qx_app.c ****                 }
 182:..\..\..\HamFlyAPI\src/hamfly_qx_app.c ****                 uint8_t zoom_input_type;
 183:..\..\..\HamFlyAPI\src/hamfly_qx_app.c ****                 switch (FreeflyAPI.control.zoom.type) {
 569              		.loc 1 183 0
 570 0290 184B     		ldr	r3, .L137+4
 571 0292 93F83C30 		ldrb	r3, [r3, #60]	@ zero_extendqisi2
 572 0296 012B     		cmp	r3, #1
 573 0298 07D0     		beq	.L60
 574 029a 022B     		cmp	r3, #2
 575 029c 09D0     		beq	.L61
 576 029e 002B     		cmp	r3, #0
 577 02a0 0BD1     		bne	.L134
 184:..\..\..\HamFlyAPI\src/hamfly_qx_app.c ****                     case DEFER:    zoom_input_type = INPUT_CONTROL_LZ_DEFER; break;
 578              		.loc 1 184 0
 579 02a2 0023     		movs	r3, #0
 580 02a4 87F83A30 		strb	r3, [r7, #58]
 581 02a8 0BE0     		b	.L63
 582              	.L60:
 185:..\..\..\HamFlyAPI\src/hamfly_qx_app.c ****                     case RATE:     zoom_input_type = INPUT_CONTROL_LZ_RATE;  break;
 583              		.loc 1 185 0
 584 02aa 0123     		movs	r3, #1
 585 02ac 87F83A30 		strb	r3, [r7, #58]
 586 02b0 07E0     		b	.L63
 587              	.L61:
 186:..\..\..\HamFlyAPI\src/hamfly_qx_app.c ****                     case ABSOLUTE: zoom_input_type = INPUT_CONTROL_LZ_ABS;   break;
 588              		.loc 1 186 0
 589 02b2 0223     		movs	r3, #2
 590 02b4 87F83A30 		strb	r3, [r7, #58]
 591 02b8 03E0     		b	.L63
 592              	.L134:
 187:..\..\..\HamFlyAPI\src/hamfly_qx_app.c ****                     default:       zoom_input_type = INPUT_CONTROL_LZ_DEFER; break;
 593              		.loc 1 187 0
 594 02ba 0023     		movs	r3, #0
 595 02bc 87F83A30 		strb	r3, [r7, #58]
 596 02c0 00BF     		nop
 597              	.L63:
 188:..\..\..\HamFlyAPI\src/hamfly_qx_app.c ****                 }
 189:..\..\..\HamFlyAPI\src/hamfly_qx_app.c ****                 temp_UC_buffer[0] = focus_input_type | iris_input_type | zoom_input_type;
 598              		.loc 1 189 0
ARM GAS  C:\Users\JENNEW~1\AppData\Local\Temp\ccg3tGQJ.s 			page 15


 599 02c2 97F83C20 		ldrb	r2, [r7, #60]
 600 02c6 97F83B30 		ldrb	r3, [r7, #59]
 601 02ca 1343     		orrs	r3, r3, r2
 602 02cc DAB2     		uxtb	r2, r3
 603 02ce 97F83A30 		ldrb	r3, [r7, #58]
 604 02d2 1343     		orrs	r3, r3, r2
 605 02d4 DBB2     		uxtb	r3, r3
 606 02d6 87F83030 		strb	r3, [r7, #48]
 607              	.LBE3:
 190:..\..\..\HamFlyAPI\src/hamfly_qx_app.c ****             }
 191:..\..\..\HamFlyAPI\src/hamfly_qx_app.c **** 
 192:..\..\..\HamFlyAPI\src/hamfly_qx_app.c ****             PARSE_UC_AS_UC(temp_UC_buffer, 1, 0xFF, 0);
 608              		.loc 1 192 0
 609 02da 054B     		ldr	r3, .L137
 610 02dc 1B78     		ldrb	r3, [r3]	@ zero_extendqisi2
 611 02de 002B     		cmp	r3, #0
 612 02e0 18D1     		bne	.L64
 613              		.loc 1 192 0 is_stmt 0 discriminator 1
 614 02e2 07F13003 		add	r3, r7, #48
 615 02e6 0121     		movs	r1, #1
 616 02e8 1846     		mov	r0, r3
 617 02ea FFF7FEFF 		bl	AddUnsignedCharAsUnsignedChar
 618 02ee 18E0     		b	.L65
 619              	.L138:
 620              		.align	2
 621              	.L137:
 622 02f0 00000000 		.word	rw
 623 02f4 00000000 		.word	FreeflyAPI
 624 02f8 00FEFF46 		.word	1191181824
 625 02fc 20000000 		.word	FreeflyAPI+32
 626 0300 00010038 		.word	939524352
 627 0304 00FEFFC6 		.word	-956301824
 628 0308 18000000 		.word	FreeflyAPI+24
 629 030c 10000000 		.word	FreeflyAPI+16
 630 0310 00FF7F47 		.word	1199570688
 631              	.L64:
 632              		.loc 1 192 0 discriminator 2
 633 0314 07F13000 		add	r0, r7, #48
 634 0318 0023     		movs	r3, #0
 635 031a FF22     		movs	r2, #255
 636 031c 0121     		movs	r1, #1
 637 031e FFF7FEFF 		bl	GetUnsignedCharAsUnsignedChar
 638              	.L65:
 193:..\..\..\HamFlyAPI\src/hamfly_qx_app.c **** 
 194:..\..\..\HamFlyAPI\src/hamfly_qx_app.c ****             temp_US_buffer[0] = (uint16_t)(FreeflyAPI.control.focus.value * (0xFFFF / 2) + (0xFFFF 
 639              		.loc 1 194 0 is_stmt 1
 640 0322 AF4B     		ldr	r3, .L139
 641 0324 9B6A     		ldr	r3, [r3, #40]	@ float
 642 0326 AF49     		ldr	r1, .L139+4
 643 0328 1846     		mov	r0, r3
 644 032a FFF7FEFF 		bl	__aeabi_fmul
 645 032e 0346     		mov	r3, r0
 646 0330 AC49     		ldr	r1, .L139+4
 647 0332 1846     		mov	r0, r3
 648 0334 FFF7FEFF 		bl	__aeabi_fadd
 649 0338 0346     		mov	r3, r0
 650 033a 1846     		mov	r0, r3
ARM GAS  C:\Users\JENNEW~1\AppData\Local\Temp\ccg3tGQJ.s 			page 16


 651 033c FFF7FEFF 		bl	__aeabi_f2uiz
 652 0340 0346     		mov	r3, r0
 653 0342 9BB2     		uxth	r3, r3
 654 0344 3B81     		strh	r3, [r7, #8]	@ movhi
 195:..\..\..\HamFlyAPI\src/hamfly_qx_app.c ****             temp_US_buffer[1] = (uint16_t)(FreeflyAPI.control.iris.value  * (0xFFFF / 2) + (0xFFFF 
 655              		.loc 1 195 0
 656 0346 A64B     		ldr	r3, .L139
 657 0348 1B6B     		ldr	r3, [r3, #48]	@ float
 658 034a A649     		ldr	r1, .L139+4
 659 034c 1846     		mov	r0, r3
 660 034e FFF7FEFF 		bl	__aeabi_fmul
 661 0352 0346     		mov	r3, r0
 662 0354 A349     		ldr	r1, .L139+4
 663 0356 1846     		mov	r0, r3
 664 0358 FFF7FEFF 		bl	__aeabi_fadd
 665 035c 0346     		mov	r3, r0
 666 035e 1846     		mov	r0, r3
 667 0360 FFF7FEFF 		bl	__aeabi_f2uiz
 668 0364 0346     		mov	r3, r0
 669 0366 9BB2     		uxth	r3, r3
 670 0368 7B81     		strh	r3, [r7, #10]	@ movhi
 196:..\..\..\HamFlyAPI\src/hamfly_qx_app.c ****             temp_US_buffer[2] = (uint16_t)(FreeflyAPI.control.zoom.value  * (0xFFFF / 2) + (0xFFFF 
 671              		.loc 1 196 0
 672 036a 9D4B     		ldr	r3, .L139
 673 036c 9B6B     		ldr	r3, [r3, #56]	@ float
 674 036e 9D49     		ldr	r1, .L139+4
 675 0370 1846     		mov	r0, r3
 676 0372 FFF7FEFF 		bl	__aeabi_fmul
 677 0376 0346     		mov	r3, r0
 678 0378 9A49     		ldr	r1, .L139+4
 679 037a 1846     		mov	r0, r3
 680 037c FFF7FEFF 		bl	__aeabi_fadd
 681 0380 0346     		mov	r3, r0
 682 0382 1846     		mov	r0, r3
 683 0384 FFF7FEFF 		bl	__aeabi_f2uiz
 684 0388 0346     		mov	r3, r0
 685 038a 9BB2     		uxth	r3, r3
 686 038c BB81     		strh	r3, [r7, #12]	@ movhi
 197:..\..\..\HamFlyAPI\src/hamfly_qx_app.c ****             PARSE_US_AS_US(temp_US_buffer, 3, 0xFFFF, 0);
 687              		.loc 1 197 0
 688 038e 964B     		ldr	r3, .L139+8
 689 0390 1B78     		ldrb	r3, [r3]	@ zero_extendqisi2
 690 0392 002B     		cmp	r3, #0
 691 0394 06D1     		bne	.L66
 692              		.loc 1 197 0 is_stmt 0 discriminator 1
 693 0396 07F10803 		add	r3, r7, #8
 694 039a 0321     		movs	r1, #3
 695 039c 1846     		mov	r0, r3
 696 039e FFF7FEFF 		bl	AddUnsignedShortAsUnsignedShort
 697 03a2 07E0     		b	.L67
 698              	.L66:
 699              		.loc 1 197 0 discriminator 2
 700 03a4 07F10800 		add	r0, r7, #8
 701 03a8 0023     		movs	r3, #0
 702 03aa 4FF6FF72 		movw	r2, #65535
 703 03ae 0321     		movs	r1, #3
 704 03b0 FFF7FEFF 		bl	GetUnsignedShortAsUnsignedShort
ARM GAS  C:\Users\JENNEW~1\AppData\Local\Temp\ccg3tGQJ.s 			page 17


 705              	.L67:
 198:..\..\..\HamFlyAPI\src/hamfly_qx_app.c **** 
 199:..\..\..\HamFlyAPI\src/hamfly_qx_app.c ****             PARSE_BITS_AS_UC(&FreeflyAPI.control.fiz_clearFaults_all_flag,  0, 1);
 706              		.loc 1 199 0 is_stmt 1
 707 03b4 8C4B     		ldr	r3, .L139+8
 708 03b6 1B78     		ldrb	r3, [r3]	@ zero_extendqisi2
 709 03b8 002B     		cmp	r3, #0
 710 03ba 05D1     		bne	.L68
 711              		.loc 1 199 0 is_stmt 0 discriminator 1
 712 03bc 0122     		movs	r2, #1
 713 03be 0021     		movs	r1, #0
 714 03c0 8A48     		ldr	r0, .L139+12
 715 03c2 FFF7FEFF 		bl	AddBitsAsByte
 716 03c6 04E0     		b	.L69
 717              	.L68:
 718              		.loc 1 199 0 discriminator 2
 719 03c8 0122     		movs	r2, #1
 720 03ca 0021     		movs	r1, #0
 721 03cc 8748     		ldr	r0, .L139+12
 722 03ce FFF7FEFF 		bl	GetBitsAsByte
 723              	.L69:
 200:..\..\..\HamFlyAPI\src/hamfly_qx_app.c ****             PARSE_BITS_AS_UC(&FreeflyAPI.control.fiz_autoCalStart_all_flag, 1, 1);
 724              		.loc 1 200 0 is_stmt 1
 725 03d2 854B     		ldr	r3, .L139+8
 726 03d4 1B78     		ldrb	r3, [r3]	@ zero_extendqisi2
 727 03d6 002B     		cmp	r3, #0
 728 03d8 05D1     		bne	.L70
 729              		.loc 1 200 0 is_stmt 0 discriminator 1
 730 03da 0122     		movs	r2, #1
 731 03dc 0121     		movs	r1, #1
 732 03de 8448     		ldr	r0, .L139+16
 733 03e0 FFF7FEFF 		bl	AddBitsAsByte
 734 03e4 04E0     		b	.L71
 735              	.L70:
 736              		.loc 1 200 0 discriminator 2
 737 03e6 0122     		movs	r2, #1
 738 03e8 0121     		movs	r1, #1
 739 03ea 8148     		ldr	r0, .L139+16
 740 03ec FFF7FEFF 		bl	GetBitsAsByte
 741              	.L71:
 201:..\..\..\HamFlyAPI\src/hamfly_qx_app.c ****             PARSE_BITS_AS_UC(&FreeflyAPI.control.fiz_record_button_flag,    4, 1);
 742              		.loc 1 201 0 is_stmt 1
 743 03f0 7D4B     		ldr	r3, .L139+8
 744 03f2 1B78     		ldrb	r3, [r3]	@ zero_extendqisi2
 745 03f4 002B     		cmp	r3, #0
 746 03f6 05D1     		bne	.L72
 747              		.loc 1 201 0 is_stmt 0 discriminator 1
 748 03f8 0122     		movs	r2, #1
 749 03fa 0421     		movs	r1, #4
 750 03fc 7D48     		ldr	r0, .L139+20
 751 03fe FFF7FEFF 		bl	AddBitsAsByte
 752 0402 04E0     		b	.L73
 753              	.L72:
 754              		.loc 1 201 0 discriminator 2
 755 0404 0122     		movs	r2, #1
 756 0406 0421     		movs	r1, #4
 757 0408 7A48     		ldr	r0, .L139+20
ARM GAS  C:\Users\JENNEW~1\AppData\Local\Temp\ccg3tGQJ.s 			page 18


 758 040a FFF7FEFF 		bl	GetBitsAsByte
 759              	.L73:
 202:..\..\..\HamFlyAPI\src/hamfly_qx_app.c ****             PARSE_BITS_AS_UC(&FreeflyAPI.control.fiz_setSubRangeLim_F_flag, 5, 1);
 760              		.loc 1 202 0 is_stmt 1
 761 040e 764B     		ldr	r3, .L139+8
 762 0410 1B78     		ldrb	r3, [r3]	@ zero_extendqisi2
 763 0412 002B     		cmp	r3, #0
 764 0414 05D1     		bne	.L74
 765              		.loc 1 202 0 is_stmt 0 discriminator 1
 766 0416 0122     		movs	r2, #1
 767 0418 0521     		movs	r1, #5
 768 041a 7748     		ldr	r0, .L139+24
 769 041c FFF7FEFF 		bl	AddBitsAsByte
 770 0420 04E0     		b	.L75
 771              	.L74:
 772              		.loc 1 202 0 discriminator 2
 773 0422 0122     		movs	r2, #1
 774 0424 0521     		movs	r1, #5
 775 0426 7448     		ldr	r0, .L139+24
 776 0428 FFF7FEFF 		bl	GetBitsAsByte
 777              	.L75:
 203:..\..\..\HamFlyAPI\src/hamfly_qx_app.c ****             PARSE_BITS_AS_UC(&FreeflyAPI.control.fiz_setSubRangeLim_I_flag, 6, 1);
 778              		.loc 1 203 0 is_stmt 1
 779 042c 6E4B     		ldr	r3, .L139+8
 780 042e 1B78     		ldrb	r3, [r3]	@ zero_extendqisi2
 781 0430 002B     		cmp	r3, #0
 782 0432 05D1     		bne	.L76
 783              		.loc 1 203 0 is_stmt 0 discriminator 1
 784 0434 0122     		movs	r2, #1
 785 0436 0621     		movs	r1, #6
 786 0438 7048     		ldr	r0, .L139+28
 787 043a FFF7FEFF 		bl	AddBitsAsByte
 788 043e 04E0     		b	.L77
 789              	.L76:
 790              		.loc 1 203 0 discriminator 2
 791 0440 0122     		movs	r2, #1
 792 0442 0621     		movs	r1, #6
 793 0444 6D48     		ldr	r0, .L139+28
 794 0446 FFF7FEFF 		bl	GetBitsAsByte
 795              	.L77:
 204:..\..\..\HamFlyAPI\src/hamfly_qx_app.c ****             PARSE_BITS_AS_UC(&FreeflyAPI.control.fiz_setSubRangeLim_Z_flag, 7, 1);
 796              		.loc 1 204 0 is_stmt 1
 797 044a 674B     		ldr	r3, .L139+8
 798 044c 1B78     		ldrb	r3, [r3]	@ zero_extendqisi2
 799 044e 002B     		cmp	r3, #0
 800 0450 05D1     		bne	.L78
 801              		.loc 1 204 0 is_stmt 0 discriminator 1
 802 0452 0122     		movs	r2, #1
 803 0454 0721     		movs	r1, #7
 804 0456 6A48     		ldr	r0, .L139+32
 805 0458 FFF7FEFF 		bl	AddBitsAsByte
 806 045c 04E0     		b	.L79
 807              	.L78:
 808              		.loc 1 204 0 discriminator 2
 809 045e 0122     		movs	r2, #1
 810 0460 0721     		movs	r1, #7
 811 0462 6748     		ldr	r0, .L139+32
ARM GAS  C:\Users\JENNEW~1\AppData\Local\Temp\ccg3tGQJ.s 			page 19


 812 0464 FFF7FEFF 		bl	GetBitsAsByte
 813              	.L79:
 205:..\..\..\HamFlyAPI\src/hamfly_qx_app.c ****             QX_Parser_AdvMsgPtr();
 814              		.loc 1 205 0 is_stmt 1
 815 0468 FFF7FEFF 		bl	QX_Parser_AdvMsgPtr
 206:..\..\..\HamFlyAPI\src/hamfly_qx_app.c **** 
 207:..\..\..\HamFlyAPI\src/hamfly_qx_app.c ****             temp_UC_buffer[0] = 0;
 816              		.loc 1 207 0
 817 046c 0023     		movs	r3, #0
 818 046e 87F83030 		strb	r3, [r7, #48]
 208:..\..\..\HamFlyAPI\src/hamfly_qx_app.c ****             PARSE_UC_AS_UC(temp_UC_buffer, 1, 0xFF, 0);
 819              		.loc 1 208 0
 820 0472 5D4B     		ldr	r3, .L139+8
 821 0474 1B78     		ldrb	r3, [r3]	@ zero_extendqisi2
 822 0476 002B     		cmp	r3, #0
 823 0478 06D1     		bne	.L80
 824              		.loc 1 208 0 is_stmt 0 discriminator 1
 825 047a 07F13003 		add	r3, r7, #48
 826 047e 0121     		movs	r1, #1
 827 0480 1846     		mov	r0, r3
 828 0482 FFF7FEFF 		bl	AddUnsignedCharAsUnsignedChar
 209:..\..\..\HamFlyAPI\src/hamfly_qx_app.c ****             break;
 829              		.loc 1 209 0 is_stmt 1 discriminator 1
 830 0486 B0E1     		b	.L17
 831              	.L80:
 208:..\..\..\HamFlyAPI\src/hamfly_qx_app.c ****             PARSE_UC_AS_UC(temp_UC_buffer, 1, 0xFF, 0);
 832              		.loc 1 208 0 discriminator 2
 833 0488 07F13000 		add	r0, r7, #48
 834 048c 0023     		movs	r3, #0
 835 048e FF22     		movs	r2, #255
 836 0490 0121     		movs	r1, #1
 837 0492 FFF7FEFF 		bl	GetUnsignedCharAsUnsignedChar
 838              		.loc 1 209 0 discriminator 2
 839 0496 A8E1     		b	.L17
 840              	.L15:
 210:..\..\..\HamFlyAPI\src/hamfly_qx_app.c **** 
 211:..\..\..\HamFlyAPI\src/hamfly_qx_app.c ****         case 287:
 212:..\..\..\HamFlyAPI\src/hamfly_qx_app.c ****             if (Msg_p->Parse_Type != QX_PARSE_TYPE_CURVAL_RECV) break;
 841              		.loc 1 212 0
 842 0498 7B68     		ldr	r3, [r7, #4]
 843 049a 1B78     		ldrb	r3, [r3]	@ zero_extendqisi2
 844 049c 012B     		cmp	r3, #1
 845 049e 40F0A381 		bne	.L136
 213:..\..\..\HamFlyAPI\src/hamfly_qx_app.c **** 
 214:..\..\..\HamFlyAPI\src/hamfly_qx_app.c ****             PARSE_UC_AS_UC(temp_UC_buffer, 3, 0xFF, 0);
 846              		.loc 1 214 0
 847 04a2 514B     		ldr	r3, .L139+8
 848 04a4 1B78     		ldrb	r3, [r3]	@ zero_extendqisi2
 849 04a6 002B     		cmp	r3, #0
 850 04a8 06D1     		bne	.L83
 851              		.loc 1 214 0 is_stmt 0 discriminator 1
 852 04aa 07F13003 		add	r3, r7, #48
 853 04ae 0321     		movs	r1, #3
 854 04b0 1846     		mov	r0, r3
 855 04b2 FFF7FEFF 		bl	AddUnsignedCharAsUnsignedChar
 856 04b6 06E0     		b	.L84
 857              	.L83:
ARM GAS  C:\Users\JENNEW~1\AppData\Local\Temp\ccg3tGQJ.s 			page 20


 858              		.loc 1 214 0 discriminator 2
 859 04b8 07F13000 		add	r0, r7, #48
 860 04bc 0023     		movs	r3, #0
 861 04be FF22     		movs	r2, #255
 862 04c0 0321     		movs	r1, #3
 863 04c2 FFF7FEFF 		bl	GetUnsignedCharAsUnsignedChar
 864              	.L84:
 215:..\..\..\HamFlyAPI\src/hamfly_qx_app.c **** 
 216:..\..\..\HamFlyAPI\src/hamfly_qx_app.c ****             PARSE_UC_AS_UC(temp_UC_buffer, 2, 0xFF, 0);
 865              		.loc 1 216 0 is_stmt 1
 866 04c6 484B     		ldr	r3, .L139+8
 867 04c8 1B78     		ldrb	r3, [r3]	@ zero_extendqisi2
 868 04ca 002B     		cmp	r3, #0
 869 04cc 06D1     		bne	.L85
 870              		.loc 1 216 0 is_stmt 0 discriminator 1
 871 04ce 07F13003 		add	r3, r7, #48
 872 04d2 0221     		movs	r1, #2
 873 04d4 1846     		mov	r0, r3
 874 04d6 FFF7FEFF 		bl	AddUnsignedCharAsUnsignedChar
 875 04da 06E0     		b	.L86
 876              	.L85:
 877              		.loc 1 216 0 discriminator 2
 878 04dc 07F13000 		add	r0, r7, #48
 879 04e0 0023     		movs	r3, #0
 880 04e2 FF22     		movs	r2, #255
 881 04e4 0221     		movs	r1, #2
 882 04e6 FFF7FEFF 		bl	GetUnsignedCharAsUnsignedChar
 883              	.L86:
 217:..\..\..\HamFlyAPI\src/hamfly_qx_app.c ****             FreeflyAPI.status.battery_v_left  = ((float)temp_UC_buffer[0] * 0.1f) + 10.0f;
 884              		.loc 1 217 0 is_stmt 1
 885 04ea 97F83030 		ldrb	r3, [r7, #48]	@ zero_extendqisi2
 886 04ee 1846     		mov	r0, r3
 887 04f0 FFF7FEFF 		bl	__aeabi_ui2f
 888 04f4 0346     		mov	r3, r0
 889 04f6 4349     		ldr	r1, .L139+36
 890 04f8 1846     		mov	r0, r3
 891 04fa FFF7FEFF 		bl	__aeabi_fmul
 892 04fe 0346     		mov	r3, r0
 893 0500 4149     		ldr	r1, .L139+40
 894 0502 1846     		mov	r0, r3
 895 0504 FFF7FEFF 		bl	__aeabi_fadd
 896 0508 0346     		mov	r3, r0
 897 050a 1A46     		mov	r2, r3
 898 050c 344B     		ldr	r3, .L139
 899 050e 9A64     		str	r2, [r3, #72]	@ float
 218:..\..\..\HamFlyAPI\src/hamfly_qx_app.c ****             FreeflyAPI.status.battery_v_right = ((float)temp_UC_buffer[1] * 0.1f) + 10.0f;
 900              		.loc 1 218 0
 901 0510 97F83130 		ldrb	r3, [r7, #49]	@ zero_extendqisi2
 902 0514 1846     		mov	r0, r3
 903 0516 FFF7FEFF 		bl	__aeabi_ui2f
 904 051a 0346     		mov	r3, r0
 905 051c 3949     		ldr	r1, .L139+36
 906 051e 1846     		mov	r0, r3
 907 0520 FFF7FEFF 		bl	__aeabi_fmul
 908 0524 0346     		mov	r3, r0
 909 0526 3849     		ldr	r1, .L139+40
 910 0528 1846     		mov	r0, r3
ARM GAS  C:\Users\JENNEW~1\AppData\Local\Temp\ccg3tGQJ.s 			page 21


 911 052a FFF7FEFF 		bl	__aeabi_fadd
 912 052e 0346     		mov	r3, r0
 913 0530 1A46     		mov	r2, r3
 914 0532 2B4B     		ldr	r3, .L139
 915 0534 DA64     		str	r2, [r3, #76]	@ float
 219:..\..\..\HamFlyAPI\src/hamfly_qx_app.c ****             if (FreeflyAPI.status.battery_v_left  == 10.0f) FreeflyAPI.status.battery_v_left  = 0;
 916              		.loc 1 219 0
 917 0536 2A4B     		ldr	r3, .L139
 918 0538 9B6C     		ldr	r3, [r3, #72]	@ float
 919 053a 3349     		ldr	r1, .L139+40
 920 053c 1846     		mov	r0, r3
 921 053e FFF7FEFF 		bl	__aeabi_fcmpeq
 922 0542 0346     		mov	r3, r0
 923 0544 002B     		cmp	r3, #0
 924 0546 03D0     		beq	.L87
 925              		.loc 1 219 0 is_stmt 0 discriminator 1
 926 0548 254B     		ldr	r3, .L139
 927 054a 4FF00002 		mov	r2, #0
 928 054e 9A64     		str	r2, [r3, #72]	@ float
 929              	.L87:
 220:..\..\..\HamFlyAPI\src/hamfly_qx_app.c ****             if (FreeflyAPI.status.battery_v_right == 10.0f) FreeflyAPI.status.battery_v_right = 0;
 930              		.loc 1 220 0 is_stmt 1
 931 0550 234B     		ldr	r3, .L139
 932 0552 DB6C     		ldr	r3, [r3, #76]	@ float
 933 0554 2C49     		ldr	r1, .L139+40
 934 0556 1846     		mov	r0, r3
 935 0558 FFF7FEFF 		bl	__aeabi_fcmpeq
 936 055c 0346     		mov	r3, r0
 937 055e 002B     		cmp	r3, #0
 938 0560 03D0     		beq	.L89
 939              		.loc 1 220 0 is_stmt 0 discriminator 1
 940 0562 1F4B     		ldr	r3, .L139
 941 0564 4FF00002 		mov	r2, #0
 942 0568 DA64     		str	r2, [r3, #76]	@ float
 943              	.L89:
 221:..\..\..\HamFlyAPI\src/hamfly_qx_app.c **** 
 222:..\..\..\HamFlyAPI\src/hamfly_qx_app.c ****             PARSE_UC_AS_UC(&FreeflyAPI.status.gimbal_Status1, 1, 0xFF, 0);
 944              		.loc 1 222 0 is_stmt 1
 945 056a 1F4B     		ldr	r3, .L139+8
 946 056c 1B78     		ldrb	r3, [r3]	@ zero_extendqisi2
 947 056e 002B     		cmp	r3, #0
 948 0570 04D1     		bne	.L91
 949              		.loc 1 222 0 is_stmt 0 discriminator 1
 950 0572 0121     		movs	r1, #1
 951 0574 2548     		ldr	r0, .L139+44
 952 0576 FFF7FEFF 		bl	AddUnsignedCharAsUnsignedChar
 953 057a 05E0     		b	.L92
 954              	.L91:
 955              		.loc 1 222 0 discriminator 2
 956 057c 0023     		movs	r3, #0
 957 057e FF22     		movs	r2, #255
 958 0580 0121     		movs	r1, #1
 959 0582 2248     		ldr	r0, .L139+44
 960 0584 FFF7FEFF 		bl	GetUnsignedCharAsUnsignedChar
 961              	.L92:
 223:..\..\..\HamFlyAPI\src/hamfly_qx_app.c ****             PARSE_UC_AS_UC(&FreeflyAPI.status.gimbal_Status2, 1, 0xFF, 0);
 962              		.loc 1 223 0 is_stmt 1
ARM GAS  C:\Users\JENNEW~1\AppData\Local\Temp\ccg3tGQJ.s 			page 22


 963 0588 174B     		ldr	r3, .L139+8
 964 058a 1B78     		ldrb	r3, [r3]	@ zero_extendqisi2
 965 058c 002B     		cmp	r3, #0
 966 058e 04D1     		bne	.L93
 967              		.loc 1 223 0 is_stmt 0 discriminator 1
 968 0590 0121     		movs	r1, #1
 969 0592 1F48     		ldr	r0, .L139+48
 970 0594 FFF7FEFF 		bl	AddUnsignedCharAsUnsignedChar
 971 0598 05E0     		b	.L94
 972              	.L93:
 973              		.loc 1 223 0 discriminator 2
 974 059a 0023     		movs	r3, #0
 975 059c FF22     		movs	r2, #255
 976 059e 0121     		movs	r1, #1
 977 05a0 1B48     		ldr	r0, .L139+48
 978 05a2 FFF7FEFF 		bl	GetUnsignedCharAsUnsignedChar
 979              	.L94:
 224:..\..\..\HamFlyAPI\src/hamfly_qx_app.c **** 
 225:..\..\..\HamFlyAPI\src/hamfly_qx_app.c ****             PARSE_FL_AS_SS(&FreeflyAPI.status.gimbal_r, 1, 32767.0f, -32767.0f, 32767.0f);
 980              		.loc 1 225 0 is_stmt 1
 981 05a6 104B     		ldr	r3, .L139+8
 982 05a8 1B78     		ldrb	r3, [r3]	@ zero_extendqisi2
 983 05aa 002B     		cmp	r3, #0
 984 05ac 05D1     		bne	.L95
 985              		.loc 1 225 0 is_stmt 0 discriminator 1
 986 05ae 0D4A     		ldr	r2, .L139+4
 987 05b0 0121     		movs	r1, #1
 988 05b2 1848     		ldr	r0, .L139+52
 989 05b4 FFF7FEFF 		bl	AddFloatAsSignedShort
 990 05b8 07E0     		b	.L96
 991              	.L95:
 992              		.loc 1 225 0 discriminator 2
 993 05ba 174B     		ldr	r3, .L139+56
 994 05bc 0093     		str	r3, [sp]	@ float
 995 05be 174B     		ldr	r3, .L139+60
 996 05c0 084A     		ldr	r2, .L139+4
 997 05c2 0121     		movs	r1, #1
 998 05c4 1348     		ldr	r0, .L139+52
 999 05c6 FFF7FEFF 		bl	GetFloatAsSignedShort
 1000              	.L96:
 226:..\..\..\HamFlyAPI\src/hamfly_qx_app.c ****             PARSE_FL_AS_SS(&FreeflyAPI.status.gimbal_i, 1, 32767.0f, -32767.0f, 32767.0f);
 1001              		.loc 1 226 0 is_stmt 1
 1002 05ca 074B     		ldr	r3, .L139+8
 1003 05cc 1B78     		ldrb	r3, [r3]	@ zero_extendqisi2
 1004 05ce 002B     		cmp	r3, #0
 1005 05d0 28D1     		bne	.L97
 1006              		.loc 1 226 0 is_stmt 0 discriminator 1
 1007 05d2 044A     		ldr	r2, .L139+4
 1008 05d4 0121     		movs	r1, #1
 1009 05d6 1248     		ldr	r0, .L139+64
 1010 05d8 FFF7FEFF 		bl	AddFloatAsSignedShort
 1011 05dc 2AE0     		b	.L98
 1012              	.L140:
 1013 05de 00BF     		.align	2
 1014              	.L139:
 1015 05e0 00000000 		.word	FreeflyAPI
 1016 05e4 00FEFF46 		.word	1191181824
ARM GAS  C:\Users\JENNEW~1\AppData\Local\Temp\ccg3tGQJ.s 			page 23


 1017 05e8 00000000 		.word	rw
 1018 05ec 40000000 		.word	FreeflyAPI+64
 1019 05f0 41000000 		.word	FreeflyAPI+65
 1020 05f4 42000000 		.word	FreeflyAPI+66
 1021 05f8 43000000 		.word	FreeflyAPI+67
 1022 05fc 44000000 		.word	FreeflyAPI+68
 1023 0600 45000000 		.word	FreeflyAPI+69
 1024 0604 CDCCCC3D 		.word	1036831949
 1025 0608 00002041 		.word	1092616192
 1026 060c 50000000 		.word	FreeflyAPI+80
 1027 0610 51000000 		.word	FreeflyAPI+81
 1028 0614 60000000 		.word	FreeflyAPI+96
 1029 0618 00010038 		.word	939524352
 1030 061c 00FEFFC6 		.word	-956301824
 1031 0620 54000000 		.word	FreeflyAPI+84
 1032              	.L97:
 1033              		.loc 1 226 0 discriminator 2
 1034 0624 744B     		ldr	r3, .L141
 1035 0626 0093     		str	r3, [sp]	@ float
 1036 0628 744B     		ldr	r3, .L141+4
 1037 062a 754A     		ldr	r2, .L141+8
 1038 062c 0121     		movs	r1, #1
 1039 062e 7548     		ldr	r0, .L141+12
 1040 0630 FFF7FEFF 		bl	GetFloatAsSignedShort
 1041              	.L98:
 227:..\..\..\HamFlyAPI\src/hamfly_qx_app.c ****             PARSE_FL_AS_SS(&FreeflyAPI.status.gimbal_j, 1, 32767.0f, -32767.0f, 32767.0f);
 1042              		.loc 1 227 0 is_stmt 1
 1043 0634 744B     		ldr	r3, .L141+16
 1044 0636 1B78     		ldrb	r3, [r3]	@ zero_extendqisi2
 1045 0638 002B     		cmp	r3, #0
 1046 063a 05D1     		bne	.L99
 1047              		.loc 1 227 0 is_stmt 0 discriminator 1
 1048 063c 704A     		ldr	r2, .L141+8
 1049 063e 0121     		movs	r1, #1
 1050 0640 7248     		ldr	r0, .L141+20
 1051 0642 FFF7FEFF 		bl	AddFloatAsSignedShort
 1052 0646 07E0     		b	.L100
 1053              	.L99:
 1054              		.loc 1 227 0 discriminator 2
 1055 0648 6B4B     		ldr	r3, .L141
 1056 064a 0093     		str	r3, [sp]	@ float
 1057 064c 6B4B     		ldr	r3, .L141+4
 1058 064e 6C4A     		ldr	r2, .L141+8
 1059 0650 0121     		movs	r1, #1
 1060 0652 6E48     		ldr	r0, .L141+20
 1061 0654 FFF7FEFF 		bl	GetFloatAsSignedShort
 1062              	.L100:
 228:..\..\..\HamFlyAPI\src/hamfly_qx_app.c ****             PARSE_FL_AS_SS(&FreeflyAPI.status.gimbal_k, 1, 32767.0f, -32767.0f, 32767.0f);
 1063              		.loc 1 228 0 is_stmt 1
 1064 0658 6B4B     		ldr	r3, .L141+16
 1065 065a 1B78     		ldrb	r3, [r3]	@ zero_extendqisi2
 1066 065c 002B     		cmp	r3, #0
 1067 065e 05D1     		bne	.L101
 1068              		.loc 1 228 0 is_stmt 0 discriminator 1
 1069 0660 674A     		ldr	r2, .L141+8
 1070 0662 0121     		movs	r1, #1
 1071 0664 6A48     		ldr	r0, .L141+24
ARM GAS  C:\Users\JENNEW~1\AppData\Local\Temp\ccg3tGQJ.s 			page 24


 1072 0666 FFF7FEFF 		bl	AddFloatAsSignedShort
 1073 066a 07E0     		b	.L102
 1074              	.L101:
 1075              		.loc 1 228 0 discriminator 2
 1076 066c 624B     		ldr	r3, .L141
 1077 066e 0093     		str	r3, [sp]	@ float
 1078 0670 624B     		ldr	r3, .L141+4
 1079 0672 634A     		ldr	r2, .L141+8
 1080 0674 0121     		movs	r1, #1
 1081 0676 6648     		ldr	r0, .L141+24
 1082 0678 FFF7FEFF 		bl	GetFloatAsSignedShort
 1083              	.L102:
 229:..\..\..\HamFlyAPI\src/hamfly_qx_app.c **** 
 230:..\..\..\HamFlyAPI\src/hamfly_qx_app.c ****             PARSE_UC_AS_UC(temp_UC_buffer, 2, 0xFF, 0);
 1084              		.loc 1 230 0 is_stmt 1
 1085 067c 624B     		ldr	r3, .L141+16
 1086 067e 1B78     		ldrb	r3, [r3]	@ zero_extendqisi2
 1087 0680 002B     		cmp	r3, #0
 1088 0682 06D1     		bne	.L103
 1089              		.loc 1 230 0 is_stmt 0 discriminator 1
 1090 0684 07F13003 		add	r3, r7, #48
 1091 0688 0221     		movs	r1, #2
 1092 068a 1846     		mov	r0, r3
 1093 068c FFF7FEFF 		bl	AddUnsignedCharAsUnsignedChar
 1094 0690 06E0     		b	.L104
 1095              	.L103:
 1096              		.loc 1 230 0 discriminator 2
 1097 0692 07F13000 		add	r0, r7, #48
 1098 0696 0023     		movs	r3, #0
 1099 0698 FF22     		movs	r2, #255
 1100 069a 0221     		movs	r1, #2
 1101 069c FFF7FEFF 		bl	GetUnsignedCharAsUnsignedChar
 1102              	.L104:
 231:..\..\..\HamFlyAPI\src/hamfly_qx_app.c **** 
 232:..\..\..\HamFlyAPI\src/hamfly_qx_app.c ****             PARSE_BITS_AS_UC(&FreeflyAPI.status.focus_range_limits_active, 0, 1);
 1103              		.loc 1 232 0 is_stmt 1
 1104 06a0 594B     		ldr	r3, .L141+16
 1105 06a2 1B78     		ldrb	r3, [r3]	@ zero_extendqisi2
 1106 06a4 002B     		cmp	r3, #0
 1107 06a6 05D1     		bne	.L105
 1108              		.loc 1 232 0 is_stmt 0 discriminator 1
 1109 06a8 0122     		movs	r2, #1
 1110 06aa 0021     		movs	r1, #0
 1111 06ac 5948     		ldr	r0, .L141+28
 1112 06ae FFF7FEFF 		bl	AddBitsAsByte
 1113 06b2 04E0     		b	.L106
 1114              	.L105:
 1115              		.loc 1 232 0 discriminator 2
 1116 06b4 0122     		movs	r2, #1
 1117 06b6 0021     		movs	r1, #0
 1118 06b8 5648     		ldr	r0, .L141+28
 1119 06ba FFF7FEFF 		bl	GetBitsAsByte
 1120              	.L106:
 233:..\..\..\HamFlyAPI\src/hamfly_qx_app.c ****             PARSE_BITS_AS_UC(&FreeflyAPI.status.iris_range_limits_active,  1, 1);
 1121              		.loc 1 233 0 is_stmt 1
 1122 06be 524B     		ldr	r3, .L141+16
 1123 06c0 1B78     		ldrb	r3, [r3]	@ zero_extendqisi2
ARM GAS  C:\Users\JENNEW~1\AppData\Local\Temp\ccg3tGQJ.s 			page 25


 1124 06c2 002B     		cmp	r3, #0
 1125 06c4 05D1     		bne	.L107
 1126              		.loc 1 233 0 is_stmt 0 discriminator 1
 1127 06c6 0122     		movs	r2, #1
 1128 06c8 0121     		movs	r1, #1
 1129 06ca 5348     		ldr	r0, .L141+32
 1130 06cc FFF7FEFF 		bl	AddBitsAsByte
 1131 06d0 04E0     		b	.L108
 1132              	.L107:
 1133              		.loc 1 233 0 discriminator 2
 1134 06d2 0122     		movs	r2, #1
 1135 06d4 0121     		movs	r1, #1
 1136 06d6 5048     		ldr	r0, .L141+32
 1137 06d8 FFF7FEFF 		bl	GetBitsAsByte
 1138              	.L108:
 234:..\..\..\HamFlyAPI\src/hamfly_qx_app.c ****             PARSE_BITS_AS_UC(&FreeflyAPI.status.zoom_range_limits_active,  2, 1);
 1139              		.loc 1 234 0 is_stmt 1
 1140 06dc 4A4B     		ldr	r3, .L141+16
 1141 06de 1B78     		ldrb	r3, [r3]	@ zero_extendqisi2
 1142 06e0 002B     		cmp	r3, #0
 1143 06e2 05D1     		bne	.L109
 1144              		.loc 1 234 0 is_stmt 0 discriminator 1
 1145 06e4 0122     		movs	r2, #1
 1146 06e6 0221     		movs	r1, #2
 1147 06e8 4C48     		ldr	r0, .L141+36
 1148 06ea FFF7FEFF 		bl	AddBitsAsByte
 1149 06ee 04E0     		b	.L110
 1150              	.L109:
 1151              		.loc 1 234 0 discriminator 2
 1152 06f0 0122     		movs	r2, #1
 1153 06f2 0221     		movs	r1, #2
 1154 06f4 4948     		ldr	r0, .L141+36
 1155 06f6 FFF7FEFF 		bl	GetBitsAsByte
 1156              	.L110:
 235:..\..\..\HamFlyAPI\src/hamfly_qx_app.c ****             QX_Parser_AdvMsgPtr();
 1157              		.loc 1 235 0 is_stmt 1
 1158 06fa FFF7FEFF 		bl	QX_Parser_AdvMsgPtr
 236:..\..\..\HamFlyAPI\src/hamfly_qx_app.c **** 
 237:..\..\..\HamFlyAPI\src/hamfly_qx_app.c ****             PARSE_BITS_AS_UC(&FreeflyAPI.status.camera_recording, 0, 1);
 1159              		.loc 1 237 0
 1160 06fe 424B     		ldr	r3, .L141+16
 1161 0700 1B78     		ldrb	r3, [r3]	@ zero_extendqisi2
 1162 0702 002B     		cmp	r3, #0
 1163 0704 05D1     		bne	.L111
 1164              		.loc 1 237 0 is_stmt 0 discriminator 1
 1165 0706 0122     		movs	r2, #1
 1166 0708 0021     		movs	r1, #0
 1167 070a 4548     		ldr	r0, .L141+40
 1168 070c FFF7FEFF 		bl	AddBitsAsByte
 1169 0710 04E0     		b	.L112
 1170              	.L111:
 1171              		.loc 1 237 0 discriminator 2
 1172 0712 0122     		movs	r2, #1
 1173 0714 0021     		movs	r1, #0
 1174 0716 4248     		ldr	r0, .L141+40
 1175 0718 FFF7FEFF 		bl	GetBitsAsByte
 1176              	.L112:
ARM GAS  C:\Users\JENNEW~1\AppData\Local\Temp\ccg3tGQJ.s 			page 26


 238:..\..\..\HamFlyAPI\src/hamfly_qx_app.c ****             QX_Parser_AdvMsgPtr();
 1177              		.loc 1 238 0 is_stmt 1
 1178 071c FFF7FEFF 		bl	QX_Parser_AdvMsgPtr
 239:..\..\..\HamFlyAPI\src/hamfly_qx_app.c **** 
 240:..\..\..\HamFlyAPI\src/hamfly_qx_app.c ****             PARSE_UC_AS_UC((uint8_t *)&FreeflyAPI.status.focus_state, 1, 0xFF, 0);
 1179              		.loc 1 240 0
 1180 0720 394B     		ldr	r3, .L141+16
 1181 0722 1B78     		ldrb	r3, [r3]	@ zero_extendqisi2
 1182 0724 002B     		cmp	r3, #0
 1183 0726 04D1     		bne	.L113
 1184              		.loc 1 240 0 is_stmt 0 discriminator 1
 1185 0728 0121     		movs	r1, #1
 1186 072a 3E48     		ldr	r0, .L141+44
 1187 072c FFF7FEFF 		bl	AddUnsignedCharAsUnsignedChar
 1188 0730 05E0     		b	.L114
 1189              	.L113:
 1190              		.loc 1 240 0 discriminator 2
 1191 0732 0023     		movs	r3, #0
 1192 0734 FF22     		movs	r2, #255
 1193 0736 0121     		movs	r1, #1
 1194 0738 3A48     		ldr	r0, .L141+44
 1195 073a FFF7FEFF 		bl	GetUnsignedCharAsUnsignedChar
 1196              	.L114:
 241:..\..\..\HamFlyAPI\src/hamfly_qx_app.c ****             PARSE_UC_AS_UC((uint8_t *)&FreeflyAPI.status.iris_state,  1, 0xFF, 0);
 1197              		.loc 1 241 0 is_stmt 1
 1198 073e 324B     		ldr	r3, .L141+16
 1199 0740 1B78     		ldrb	r3, [r3]	@ zero_extendqisi2
 1200 0742 002B     		cmp	r3, #0
 1201 0744 04D1     		bne	.L115
 1202              		.loc 1 241 0 is_stmt 0 discriminator 1
 1203 0746 0121     		movs	r1, #1
 1204 0748 3748     		ldr	r0, .L141+48
 1205 074a FFF7FEFF 		bl	AddUnsignedCharAsUnsignedChar
 1206 074e 05E0     		b	.L116
 1207              	.L115:
 1208              		.loc 1 241 0 discriminator 2
 1209 0750 0023     		movs	r3, #0
 1210 0752 FF22     		movs	r2, #255
 1211 0754 0121     		movs	r1, #1
 1212 0756 3448     		ldr	r0, .L141+48
 1213 0758 FFF7FEFF 		bl	GetUnsignedCharAsUnsignedChar
 1214              	.L116:
 242:..\..\..\HamFlyAPI\src/hamfly_qx_app.c ****             PARSE_UC_AS_UC((uint8_t *)&FreeflyAPI.status.zoom_state,  1, 0xFF, 0);
 1215              		.loc 1 242 0 is_stmt 1
 1216 075c 2A4B     		ldr	r3, .L141+16
 1217 075e 1B78     		ldrb	r3, [r3]	@ zero_extendqisi2
 1218 0760 002B     		cmp	r3, #0
 1219 0762 04D1     		bne	.L117
 1220              		.loc 1 242 0 is_stmt 0 discriminator 1
 1221 0764 0121     		movs	r1, #1
 1222 0766 3148     		ldr	r0, .L141+52
 1223 0768 FFF7FEFF 		bl	AddUnsignedCharAsUnsignedChar
 1224 076c 05E0     		b	.L118
 1225              	.L117:
 1226              		.loc 1 242 0 discriminator 2
 1227 076e 0023     		movs	r3, #0
 1228 0770 FF22     		movs	r2, #255
ARM GAS  C:\Users\JENNEW~1\AppData\Local\Temp\ccg3tGQJ.s 			page 27


 1229 0772 0121     		movs	r1, #1
 1230 0774 2D48     		ldr	r0, .L141+52
 1231 0776 FFF7FEFF 		bl	GetUnsignedCharAsUnsignedChar
 1232              	.L118:
 243:..\..\..\HamFlyAPI\src/hamfly_qx_app.c **** 
 244:..\..\..\HamFlyAPI\src/hamfly_qx_app.c ****             PARSE_US_AS_US(&FreeflyAPI.status.focus_position, 1, 0xFFFF, 0);
 1233              		.loc 1 244 0 is_stmt 1
 1234 077a 234B     		ldr	r3, .L141+16
 1235 077c 1B78     		ldrb	r3, [r3]	@ zero_extendqisi2
 1236 077e 002B     		cmp	r3, #0
 1237 0780 04D1     		bne	.L119
 1238              		.loc 1 244 0 is_stmt 0 discriminator 1
 1239 0782 0121     		movs	r1, #1
 1240 0784 2A48     		ldr	r0, .L141+56
 1241 0786 FFF7FEFF 		bl	AddUnsignedShortAsUnsignedShort
 1242 078a 06E0     		b	.L120
 1243              	.L119:
 1244              		.loc 1 244 0 discriminator 2
 1245 078c 0023     		movs	r3, #0
 1246 078e 4FF6FF72 		movw	r2, #65535
 1247 0792 0121     		movs	r1, #1
 1248 0794 2648     		ldr	r0, .L141+56
 1249 0796 FFF7FEFF 		bl	GetUnsignedShortAsUnsignedShort
 1250              	.L120:
 245:..\..\..\HamFlyAPI\src/hamfly_qx_app.c ****             PARSE_US_AS_US(&FreeflyAPI.status.iris_position,  1, 0xFFFF, 0);
 1251              		.loc 1 245 0 is_stmt 1
 1252 079a 1B4B     		ldr	r3, .L141+16
 1253 079c 1B78     		ldrb	r3, [r3]	@ zero_extendqisi2
 1254 079e 002B     		cmp	r3, #0
 1255 07a0 04D1     		bne	.L121
 1256              		.loc 1 245 0 is_stmt 0 discriminator 1
 1257 07a2 0121     		movs	r1, #1
 1258 07a4 2348     		ldr	r0, .L141+60
 1259 07a6 FFF7FEFF 		bl	AddUnsignedShortAsUnsignedShort
 1260 07aa 06E0     		b	.L122
 1261              	.L121:
 1262              		.loc 1 245 0 discriminator 2
 1263 07ac 0023     		movs	r3, #0
 1264 07ae 4FF6FF72 		movw	r2, #65535
 1265 07b2 0121     		movs	r1, #1
 1266 07b4 1F48     		ldr	r0, .L141+60
 1267 07b6 FFF7FEFF 		bl	GetUnsignedShortAsUnsignedShort
 1268              	.L122:
 246:..\..\..\HamFlyAPI\src/hamfly_qx_app.c ****             PARSE_US_AS_US(&FreeflyAPI.status.zoom_position,  1, 0xFFFF, 0);
 1269              		.loc 1 246 0 is_stmt 1
 1270 07ba 134B     		ldr	r3, .L141+16
 1271 07bc 1B78     		ldrb	r3, [r3]	@ zero_extendqisi2
 1272 07be 002B     		cmp	r3, #0
 1273 07c0 04D1     		bne	.L123
 1274              		.loc 1 246 0 is_stmt 0 discriminator 1
 1275 07c2 0121     		movs	r1, #1
 1276 07c4 1C48     		ldr	r0, .L141+64
 1277 07c6 FFF7FEFF 		bl	AddUnsignedShortAsUnsignedShort
 247:..\..\..\HamFlyAPI\src/hamfly_qx_app.c ****             break;
 1278              		.loc 1 247 0 is_stmt 1 discriminator 1
 1279 07ca 0EE0     		b	.L17
 1280              	.L123:
ARM GAS  C:\Users\JENNEW~1\AppData\Local\Temp\ccg3tGQJ.s 			page 28


 246:..\..\..\HamFlyAPI\src/hamfly_qx_app.c ****             PARSE_US_AS_US(&FreeflyAPI.status.zoom_position,  1, 0xFFFF, 0);
 1281              		.loc 1 246 0 discriminator 2
 1282 07cc 0023     		movs	r3, #0
 1283 07ce 4FF6FF72 		movw	r2, #65535
 1284 07d2 0121     		movs	r1, #1
 1285 07d4 1848     		ldr	r0, .L141+64
 1286 07d6 FFF7FEFF 		bl	GetUnsignedShortAsUnsignedShort
 1287              		.loc 1 247 0 discriminator 2
 1288 07da 06E0     		b	.L17
 1289              	.L128:
 248:..\..\..\HamFlyAPI\src/hamfly_qx_app.c **** 
 249:..\..\..\HamFlyAPI\src/hamfly_qx_app.c ****         default:
 250:..\..\..\HamFlyAPI\src/hamfly_qx_app.c ****             Msg_p->AttNotHandled = 1;
 1290              		.loc 1 250 0
 1291 07dc 7B68     		ldr	r3, [r7, #4]
 1292 07de 0122     		movs	r2, #1
 1293 07e0 1A71     		strb	r2, [r3, #4]
 251:..\..\..\HamFlyAPI\src/hamfly_qx_app.c ****             break;
 1294              		.loc 1 251 0
 1295 07e2 02E0     		b	.L17
 1296              	.L135:
 119:..\..\..\HamFlyAPI\src/hamfly_qx_app.c **** 
 1297              		.loc 1 119 0
 1298 07e4 00BF     		nop
 1299 07e6 00E0     		b	.L17
 1300              	.L136:
 212:..\..\..\HamFlyAPI\src/hamfly_qx_app.c **** 
 1301              		.loc 1 212 0
 1302 07e8 00BF     		nop
 1303              	.L17:
 252:..\..\..\HamFlyAPI\src/hamfly_qx_app.c ****     }
 253:..\..\..\HamFlyAPI\src/hamfly_qx_app.c **** 
 254:..\..\..\HamFlyAPI\src/hamfly_qx_app.c ****     return (uint8_t *)QX_Parser_GetMsgPtr();
 1304              		.loc 1 254 0
 1305 07ea FFF7FEFF 		bl	QX_Parser_GetMsgPtr
 1306 07ee 0346     		mov	r3, r0
 255:..\..\..\HamFlyAPI\src/hamfly_qx_app.c **** }
 1307              		.loc 1 255 0
 1308 07f0 1846     		mov	r0, r3
 1309 07f2 4037     		adds	r7, r7, #64
 1310              		.cfi_def_cfa_offset 8
 1311 07f4 BD46     		mov	sp, r7
 1312              		.cfi_def_cfa_register 13
 1313              		@ sp needed
 1314 07f6 80BD     		pop	{r7, pc}
 1315              	.L142:
 1316              		.align	2
 1317              	.L141:
 1318 07f8 00010038 		.word	939524352
 1319 07fc 00FEFFC6 		.word	-956301824
 1320 0800 00FEFF46 		.word	1191181824
 1321 0804 54000000 		.word	FreeflyAPI+84
 1322 0808 00000000 		.word	rw
 1323 080c 58000000 		.word	FreeflyAPI+88
 1324 0810 5C000000 		.word	FreeflyAPI+92
 1325 0814 6E000000 		.word	FreeflyAPI+110
 1326 0818 6F000000 		.word	FreeflyAPI+111
ARM GAS  C:\Users\JENNEW~1\AppData\Local\Temp\ccg3tGQJ.s 			page 29


 1327 081c 70000000 		.word	FreeflyAPI+112
 1328 0820 72000000 		.word	FreeflyAPI+114
 1329 0824 6A000000 		.word	FreeflyAPI+106
 1330 0828 6B000000 		.word	FreeflyAPI+107
 1331 082c 6C000000 		.word	FreeflyAPI+108
 1332 0830 64000000 		.word	FreeflyAPI+100
 1333 0834 66000000 		.word	FreeflyAPI+102
 1334 0838 68000000 		.word	FreeflyAPI+104
 1335              		.cfi_endproc
 1336              	.LFE2:
 1337              		.size	QX_ParsePacket_Cli_MoVI_Ctrl_CB, .-QX_ParsePacket_Cli_MoVI_Ctrl_CB
 1338              		.section	.text.QX_SendMsg2CommsPort_CB,"ax",%progbits
 1339              		.align	2
 1340              		.global	QX_SendMsg2CommsPort_CB
 1341              		.thumb
 1342              		.thumb_func
 1343              		.type	QX_SendMsg2CommsPort_CB, %function
 1344              	QX_SendMsg2CommsPort_CB:
 1345              	.LFB3:
 256:..\..\..\HamFlyAPI\src/hamfly_qx_app.c **** 
 257:..\..\..\HamFlyAPI\src/hamfly_qx_app.c **** /* ============================================================
 258:..\..\..\HamFlyAPI\src/hamfly_qx_app.c ****  * QX_SendMsg2CommsPort_CB
 259:..\..\..\HamFlyAPI\src/hamfly_qx_app.c ****  * Key change from original: writes into qx_active_gimbal->txbuf
 260:..\..\..\HamFlyAPI\src/hamfly_qx_app.c ****  * instead of the global simple_buffer singleton.
 261:..\..\..\HamFlyAPI\src/hamfly_qx_app.c ****  * ============================================================ */
 262:..\..\..\HamFlyAPI\src/hamfly_qx_app.c **** void QX_SendMsg2CommsPort_CB(QX_Msg_t *TxMsg_p)
 263:..\..\..\HamFlyAPI\src/hamfly_qx_app.c **** {
 1346              		.loc 1 263 0
 1347              		.cfi_startproc
 1348              		@ args = 0, pretend = 0, frame = 16
 1349              		@ frame_needed = 1, uses_anonymous_args = 0
 1350 0000 80B5     		push	{r7, lr}
 1351              		.cfi_def_cfa_offset 8
 1352              		.cfi_offset 7, -8
 1353              		.cfi_offset 14, -4
 1354 0002 84B0     		sub	sp, sp, #16
 1355              		.cfi_def_cfa_offset 24
 1356 0004 00AF     		add	r7, sp, #0
 1357              		.cfi_def_cfa_register 7
 1358 0006 7860     		str	r0, [r7, #4]
 264:..\..\..\HamFlyAPI\src/hamfly_qx_app.c ****     int i;
 265:..\..\..\HamFlyAPI\src/hamfly_qx_app.c ****     if (!qx_active_gimbal) return;
 1359              		.loc 1 265 0
 1360 0008 154B     		ldr	r3, .L151
 1361 000a 1B68     		ldr	r3, [r3]
 1362 000c 002B     		cmp	r3, #0
 1363 000e 23D0     		beq	.L150
 266:..\..\..\HamFlyAPI\src/hamfly_qx_app.c **** 
 267:..\..\..\HamFlyAPI\src/hamfly_qx_app.c ****     switch (TxMsg_p->CommPort) {
 1364              		.loc 1 267 0
 1365 0010 7B68     		ldr	r3, [r7, #4]
 1366 0012 9B79     		ldrb	r3, [r3, #6]	@ zero_extendqisi2
 1367 0014 002B     		cmp	r3, #0
 1368 0016 00D0     		beq	.L147
 268:..\..\..\HamFlyAPI\src/hamfly_qx_app.c ****         case QX_COMMS_PORT_UART:
 269:..\..\..\HamFlyAPI\src/hamfly_qx_app.c ****             TxMsg_p->MsgBuf_p = TxMsg_p->MsgBufStart_p;
 270:..\..\..\HamFlyAPI\src/hamfly_qx_app.c ****             for (i = 0; i < TxMsg_p->MsgBuf_MsgLen; i++)
ARM GAS  C:\Users\JENNEW~1\AppData\Local\Temp\ccg3tGQJ.s 			page 30


 271:..\..\..\HamFlyAPI\src/hamfly_qx_app.c ****                 hamfly_rb_push(&qx_active_gimbal->txbuf, *TxMsg_p->MsgBuf_p++);
 272:..\..\..\HamFlyAPI\src/hamfly_qx_app.c ****             break;
 273:..\..\..\HamFlyAPI\src/hamfly_qx_app.c ****         default:
 274:..\..\..\HamFlyAPI\src/hamfly_qx_app.c ****             break;
 1369              		.loc 1 274 0
 1370 0018 1FE0     		b	.L143
 1371              	.L147:
 269:..\..\..\HamFlyAPI\src/hamfly_qx_app.c ****             for (i = 0; i < TxMsg_p->MsgBuf_MsgLen; i++)
 1372              		.loc 1 269 0
 1373 001a 7B68     		ldr	r3, [r7, #4]
 1374 001c 5A6E     		ldr	r2, [r3, #100]
 1375 001e 7B68     		ldr	r3, [r7, #4]
 1376 0020 1A67     		str	r2, [r3, #112]
 270:..\..\..\HamFlyAPI\src/hamfly_qx_app.c ****                 hamfly_rb_push(&qx_active_gimbal->txbuf, *TxMsg_p->MsgBuf_p++);
 1377              		.loc 1 270 0
 1378 0022 0023     		movs	r3, #0
 1379 0024 FB60     		str	r3, [r7, #12]
 1380 0026 0FE0     		b	.L148
 1381              	.L149:
 271:..\..\..\HamFlyAPI\src/hamfly_qx_app.c ****             break;
 1382              		.loc 1 271 0 discriminator 3
 1383 0028 0D4B     		ldr	r3, .L151
 1384 002a 1B68     		ldr	r3, [r3]
 1385 002c 03F22A20 		addw	r0, r3, #554
 1386 0030 7B68     		ldr	r3, [r7, #4]
 1387 0032 1B6F     		ldr	r3, [r3, #112]
 1388 0034 591C     		adds	r1, r3, #1
 1389 0036 7A68     		ldr	r2, [r7, #4]
 1390 0038 1167     		str	r1, [r2, #112]
 1391 003a 1B78     		ldrb	r3, [r3]	@ zero_extendqisi2
 1392 003c 1946     		mov	r1, r3
 1393 003e FFF7FEFF 		bl	hamfly_rb_push
 270:..\..\..\HamFlyAPI\src/hamfly_qx_app.c ****                 hamfly_rb_push(&qx_active_gimbal->txbuf, *TxMsg_p->MsgBuf_p++);
 1394              		.loc 1 270 0 discriminator 3
 1395 0042 FB68     		ldr	r3, [r7, #12]
 1396 0044 0133     		adds	r3, r3, #1
 1397 0046 FB60     		str	r3, [r7, #12]
 1398              	.L148:
 270:..\..\..\HamFlyAPI\src/hamfly_qx_app.c ****                 hamfly_rb_push(&qx_active_gimbal->txbuf, *TxMsg_p->MsgBuf_p++);
 1399              		.loc 1 270 0 is_stmt 0 discriminator 1
 1400 0048 7B68     		ldr	r3, [r7, #4]
 1401 004a B3F86230 		ldrh	r3, [r3, #98]
 1402 004e 1A46     		mov	r2, r3
 1403 0050 FB68     		ldr	r3, [r7, #12]
 1404 0052 9A42     		cmp	r2, r3
 1405 0054 E8DC     		bgt	.L149
 272:..\..\..\HamFlyAPI\src/hamfly_qx_app.c ****         default:
 1406              		.loc 1 272 0 is_stmt 1
 1407 0056 00E0     		b	.L143
 1408              	.L150:
 265:..\..\..\HamFlyAPI\src/hamfly_qx_app.c **** 
 1409              		.loc 1 265 0
 1410 0058 00BF     		nop
 1411              	.L143:
 275:..\..\..\HamFlyAPI\src/hamfly_qx_app.c ****     }
 276:..\..\..\HamFlyAPI\src/hamfly_qx_app.c **** }
 1412              		.loc 1 276 0
ARM GAS  C:\Users\JENNEW~1\AppData\Local\Temp\ccg3tGQJ.s 			page 31


 1413 005a 1037     		adds	r7, r7, #16
 1414              		.cfi_def_cfa_offset 8
 1415 005c BD46     		mov	sp, r7
 1416              		.cfi_def_cfa_register 13
 1417              		@ sp needed
 1418 005e 80BD     		pop	{r7, pc}
 1419              	.L152:
 1420              		.align	2
 1421              	.L151:
 1422 0060 00000000 		.word	qx_active_gimbal_ptr
 1423              		.cfi_endproc
 1424              	.LFE3:
 1425              		.size	QX_SendMsg2CommsPort_CB, .-QX_SendMsg2CommsPort_CB
 1426              		.section	.text.QX_FwdMsg_CB,"ax",%progbits
 1427              		.align	2
 1428              		.global	QX_FwdMsg_CB
 1429              		.thumb
 1430              		.thumb_func
 1431              		.type	QX_FwdMsg_CB, %function
 1432              	QX_FwdMsg_CB:
 1433              	.LFB4:
 277:..\..\..\HamFlyAPI\src/hamfly_qx_app.c **** 
 278:..\..\..\HamFlyAPI\src/hamfly_qx_app.c **** void QX_FwdMsg_CB(QX_Msg_t *TxMsg_p) { (void)TxMsg_p; }
 1434              		.loc 1 278 0
 1435              		.cfi_startproc
 1436              		@ args = 0, pretend = 0, frame = 8
 1437              		@ frame_needed = 1, uses_anonymous_args = 0
 1438              		@ link register save eliminated.
 1439 0000 80B4     		push	{r7}
 1440              		.cfi_def_cfa_offset 4
 1441              		.cfi_offset 7, -4
 1442 0002 83B0     		sub	sp, sp, #12
 1443              		.cfi_def_cfa_offset 16
 1444 0004 00AF     		add	r7, sp, #0
 1445              		.cfi_def_cfa_register 7
 1446 0006 7860     		str	r0, [r7, #4]
 1447              		.loc 1 278 0
 1448 0008 00BF     		nop
 1449 000a 0C37     		adds	r7, r7, #12
 1450              		.cfi_def_cfa_offset 4
 1451 000c BD46     		mov	sp, r7
 1452              		.cfi_def_cfa_register 13
 1453              		@ sp needed
 1454 000e 80BC     		pop	{r7}
 1455              		.cfi_restore 7
 1456              		.cfi_def_cfa_offset 0
 1457 0010 7047     		bx	lr
 1458              		.cfi_endproc
 1459              	.LFE4:
 1460              		.size	QX_FwdMsg_CB, .-QX_FwdMsg_CB
 1461 0012 00BF     		.section	.text.QX_GetTicks_ms,"ax",%progbits
 1462              		.align	2
 1463              		.global	QX_GetTicks_ms
 1464              		.thumb
 1465              		.thumb_func
 1466              		.type	QX_GetTicks_ms, %function
 1467              	QX_GetTicks_ms:
ARM GAS  C:\Users\JENNEW~1\AppData\Local\Temp\ccg3tGQJ.s 			page 32


 1468              	.LFB5:
 279:..\..\..\HamFlyAPI\src/hamfly_qx_app.c **** 
 280:..\..\..\HamFlyAPI\src/hamfly_qx_app.c **** /* ============================================================
 281:..\..\..\HamFlyAPI\src/hamfly_qx_app.c ****  * QX_GetTicks_ms
 282:..\..\..\HamFlyAPI\src/hamfly_qx_app.c ****  * Wired to the active gimbal's HAL get_tick_ms if provided,
 283:..\..\..\HamFlyAPI\src/hamfly_qx_app.c ****  * otherwise returns 0 (matches original behaviour).
 284:..\..\..\HamFlyAPI\src/hamfly_qx_app.c ****  * ============================================================ */
 285:..\..\..\HamFlyAPI\src/hamfly_qx_app.c **** uint32_t QX_GetTicks_ms(void)
 286:..\..\..\HamFlyAPI\src/hamfly_qx_app.c **** {
 1469              		.loc 1 286 0
 1470              		.cfi_startproc
 1471              		@ args = 0, pretend = 0, frame = 0
 1472              		@ frame_needed = 1, uses_anonymous_args = 0
 1473 0000 80B5     		push	{r7, lr}
 1474              		.cfi_def_cfa_offset 8
 1475              		.cfi_offset 7, -8
 1476              		.cfi_offset 14, -4
 1477 0002 00AF     		add	r7, sp, #0
 1478              		.cfi_def_cfa_register 7
 287:..\..\..\HamFlyAPI\src/hamfly_qx_app.c ****     if (qx_active_gimbal && qx_active_gimbal->hal.get_tick_ms)
 1479              		.loc 1 287 0
 1480 0004 0A4B     		ldr	r3, .L157
 1481 0006 1B68     		ldr	r3, [r3]
 1482 0008 002B     		cmp	r3, #0
 1483 000a 0ED0     		beq	.L155
 1484              		.loc 1 287 0 is_stmt 0 discriminator 1
 1485 000c 084B     		ldr	r3, .L157
 1486 000e 1B68     		ldr	r3, [r3]
 1487 0010 9B68     		ldr	r3, [r3, #8]
 1488 0012 002B     		cmp	r3, #0
 1489 0014 09D0     		beq	.L155
 288:..\..\..\HamFlyAPI\src/hamfly_qx_app.c ****         return qx_active_gimbal->hal.get_tick_ms(qx_active_gimbal->hal.ctx);
 1490              		.loc 1 288 0 is_stmt 1
 1491 0016 064B     		ldr	r3, .L157
 1492 0018 1B68     		ldr	r3, [r3]
 1493 001a 9B68     		ldr	r3, [r3, #8]
 1494 001c 044A     		ldr	r2, .L157
 1495 001e 1268     		ldr	r2, [r2]
 1496 0020 1268     		ldr	r2, [r2]
 1497 0022 1046     		mov	r0, r2
 1498 0024 9847     		blx	r3
 1499 0026 0346     		mov	r3, r0
 1500 0028 00E0     		b	.L156
 1501              	.L155:
 289:..\..\..\HamFlyAPI\src/hamfly_qx_app.c ****     return 0u;
 1502              		.loc 1 289 0
 1503 002a 0023     		movs	r3, #0
 1504              	.L156:
 290:..\..\..\HamFlyAPI\src/hamfly_qx_app.c **** }
 1505              		.loc 1 290 0
 1506 002c 1846     		mov	r0, r3
 1507 002e 80BD     		pop	{r7, pc}
 1508              	.L158:
 1509              		.align	2
 1510              	.L157:
 1511 0030 00000000 		.word	qx_active_gimbal_ptr
 1512              		.cfi_endproc
ARM GAS  C:\Users\JENNEW~1\AppData\Local\Temp\ccg3tGQJ.s 			page 33


 1513              	.LFE5:
 1514              		.size	QX_GetTicks_ms, .-QX_GetTicks_ms
 1515              		.text
 1516              	.Letext0:
 1517              		.file 2 "c:\\program files (x86)\\cypress\\psoc creator\\4.4\\psoc creator\\import\\gnu\\arm\\5.4.
 1518              		.file 3 "c:\\program files (x86)\\cypress\\psoc creator\\4.4\\psoc creator\\import\\gnu\\arm\\5.4.
 1519              		.file 4 "..\\..\\..\\HamFlyAPI\\src\\hamfly_qx_app.h"
 1520              		.file 5 "..\\..\\..\\HamFlyAPI\\src\\hamfly_qx_protocol.h"
 1521              		.file 6 "..\\..\\..\\HamFlyAPI\\src\\hamfly_core_hal.h"
 1522              		.file 7 "..\\..\\..\\HamFlyAPI\\src\\hamfly_core_control.h"
 1523              		.file 8 "..\\..\\..\\HamFlyAPI\\src\\hamfly_core_telemetry.h"
 1524              		.file 9 "..\\..\\..\\HamFlyAPI\\src\\hamfly_comm_rb.h"
 1525              		.file 10 "..\\..\\..\\HamFlyAPI\\src\\hamfly_core_gimbal.h"