ARM GAS  C:\Users\JENNEW~1\AppData\Local\Temp\ccWiX0IG.s 			page 1


   1              		.syntax unified
   2              		.cpu cortex-m3
   3              		.fpu softvfp
   4              		.eabi_attribute 20, 1
   5              		.eabi_attribute 21, 1
   6              		.eabi_attribute 23, 3
   7              		.eabi_attribute 24, 1
   8              		.eabi_attribute 25, 1
   9              		.eabi_attribute 26, 1
  10              		.eabi_attribute 30, 6
  11              		.eabi_attribute 34, 1
  12              		.eabi_attribute 18, 4
  13              		.thumb
  14              		.syntax unified
  15              		.file	"hamfly_core_telemetry.c"
  16              		.text
  17              	.Ltext0:
  18              		.cfi_sections	.debug_frame
  19              		.section	.text.rd_be32,"ax",%progbits
  20              		.align	2
  21              		.thumb
  22              		.thumb_func
  23              		.type	rd_be32, %function
  24              	rd_be32:
  25              	.LFB0:
  26              		.file 1 "..\\..\\..\\HamFlyAPI\\src\\hamfly_core_telemetry.c"
   1:..\..\..\HamFlyAPI\src/hamfly_core_telemetry.c **** /* SPDX-License-Identifier: Apache-2.0
   2:..\..\..\HamFlyAPI\src/hamfly_core_telemetry.c ****  *
   3:..\..\..\HamFlyAPI\src/hamfly_core_telemetry.c ****  * Copyright 2026 Hamish Johnson
   4:..\..\..\HamFlyAPI\src/hamfly_core_telemetry.c ****  * Quantum Information Systems Lab, SFU Physics
   5:..\..\..\HamFlyAPI\src/hamfly_core_telemetry.c ****  *
   6:..\..\..\HamFlyAPI\src/hamfly_core_telemetry.c ****  * Licensed under the Apache License, Version 2.0 (the "License");
   7:..\..\..\HamFlyAPI\src/hamfly_core_telemetry.c ****  * you may not use this file except in compliance with the License.
   8:..\..\..\HamFlyAPI\src/hamfly_core_telemetry.c ****  * You may obtain a copy of the License at
   9:..\..\..\HamFlyAPI\src/hamfly_core_telemetry.c ****  *
  10:..\..\..\HamFlyAPI\src/hamfly_core_telemetry.c ****  *     http://www.apache.org/licenses/LICENSE-2.0
  11:..\..\..\HamFlyAPI\src/hamfly_core_telemetry.c ****  *
  12:..\..\..\HamFlyAPI\src/hamfly_core_telemetry.c ****  * Unless required by applicable law or agreed to in writing, software
  13:..\..\..\HamFlyAPI\src/hamfly_core_telemetry.c ****  * distributed under the License is distributed on an "AS IS" BASIS,
  14:..\..\..\HamFlyAPI\src/hamfly_core_telemetry.c ****  * WITHOUT WARRANTIES OR CONDITIONS OF ANY KIND, either express or
  15:..\..\..\HamFlyAPI\src/hamfly_core_telemetry.c ****  * implied. See the License for the specific language governing
  16:..\..\..\HamFlyAPI\src/hamfly_core_telemetry.c ****  * permissions and limitations under the License.
  17:..\..\..\HamFlyAPI\src/hamfly_core_telemetry.c ****  */
  18:..\..\..\HamFlyAPI\src/hamfly_core_telemetry.c **** 
  19:..\..\..\HamFlyAPI\src/hamfly_core_telemetry.c **** #include "hamfly_core_telemetry.h"
  20:..\..\..\HamFlyAPI\src/hamfly_core_telemetry.c **** #include "hamfly_qx_protocol.h"
  21:..\..\..\HamFlyAPI\src/hamfly_core_telemetry.c **** #include <string.h>
  22:..\..\..\HamFlyAPI\src/hamfly_core_telemetry.c **** #include <stdint.h>
  23:..\..\..\HamFlyAPI\src/hamfly_core_telemetry.c **** 
  24:..\..\..\HamFlyAPI\src/hamfly_core_telemetry.c **** // ============================================================================
  25:..\..\..\HamFlyAPI\src/hamfly_core_telemetry.c **** // Helpers: Big and Little Endian readers.
  26:..\..\..\HamFlyAPI\src/hamfly_core_telemetry.c **** // Used for attr 1, 4, 287 which are big-endian with no sub-index byte.
  27:..\..\..\HamFlyAPI\src/hamfly_core_telemetry.c **** // Attr 22 is little-endian with a 0x00 sub-index at offset 0, so use rd_le16.
  28:..\..\..\HamFlyAPI\src/hamfly_core_telemetry.c **** // ============================================================================
  29:..\..\..\HamFlyAPI\src/hamfly_core_telemetry.c **** 
  30:..\..\..\HamFlyAPI\src/hamfly_core_telemetry.c **** // Read big-endian int32 from buffer.
  31:..\..\..\HamFlyAPI\src/hamfly_core_telemetry.c **** static int32_t rd_be32(const uint8_t *p)
ARM GAS  C:\Users\JENNEW~1\AppData\Local\Temp\ccWiX0IG.s 			page 2


  32:..\..\..\HamFlyAPI\src/hamfly_core_telemetry.c **** {
  27              		.loc 1 32 0
  28              		.cfi_startproc
  29              		@ args = 0, pretend = 0, frame = 8
  30              		@ frame_needed = 1, uses_anonymous_args = 0
  31              		@ link register save eliminated.
  32 0000 80B4     		push	{r7}
  33              		.cfi_def_cfa_offset 4
  34              		.cfi_offset 7, -4
  35 0002 83B0     		sub	sp, sp, #12
  36              		.cfi_def_cfa_offset 16
  37 0004 00AF     		add	r7, sp, #0
  38              		.cfi_def_cfa_register 7
  39 0006 7860     		str	r0, [r7, #4]
  33:..\..\..\HamFlyAPI\src/hamfly_core_telemetry.c ****     return (int32_t)(  ((uint32_t)p[0] << 24)
  40              		.loc 1 33 0
  41 0008 7B68     		ldr	r3, [r7, #4]
  42 000a 1B78     		ldrb	r3, [r3]	@ zero_extendqisi2
  43 000c 1A06     		lsls	r2, r3, #24
  34:..\..\..\HamFlyAPI\src/hamfly_core_telemetry.c ****                      | ((uint32_t)p[1] << 16)
  44              		.loc 1 34 0
  45 000e 7B68     		ldr	r3, [r7, #4]
  46 0010 0133     		adds	r3, r3, #1
  47 0012 1B78     		ldrb	r3, [r3]	@ zero_extendqisi2
  48 0014 1B04     		lsls	r3, r3, #16
  49 0016 1A43     		orrs	r2, r2, r3
  35:..\..\..\HamFlyAPI\src/hamfly_core_telemetry.c ****                      | ((uint32_t)p[2] <<  8)
  50              		.loc 1 35 0
  51 0018 7B68     		ldr	r3, [r7, #4]
  52 001a 0233     		adds	r3, r3, #2
  53 001c 1B78     		ldrb	r3, [r3]	@ zero_extendqisi2
  54 001e 1B02     		lsls	r3, r3, #8
  55 0020 1343     		orrs	r3, r3, r2
  36:..\..\..\HamFlyAPI\src/hamfly_core_telemetry.c ****                      |  (uint32_t)p[3]);
  56              		.loc 1 36 0
  57 0022 7A68     		ldr	r2, [r7, #4]
  58 0024 0332     		adds	r2, r2, #3
  59 0026 1278     		ldrb	r2, [r2]	@ zero_extendqisi2
  60 0028 1343     		orrs	r3, r3, r2
  37:..\..\..\HamFlyAPI\src/hamfly_core_telemetry.c **** }
  61              		.loc 1 37 0
  62 002a 1846     		mov	r0, r3
  63 002c 0C37     		adds	r7, r7, #12
  64              		.cfi_def_cfa_offset 4
  65 002e BD46     		mov	sp, r7
  66              		.cfi_def_cfa_register 13
  67              		@ sp needed
  68 0030 80BC     		pop	{r7}
  69              		.cfi_restore 7
  70              		.cfi_def_cfa_offset 0
  71 0032 7047     		bx	lr
  72              		.cfi_endproc
  73              	.LFE0:
  74              		.size	rd_be32, .-rd_be32
  75              		.section	.text.rd_be16,"ax",%progbits
  76              		.align	2
  77              		.thumb
ARM GAS  C:\Users\JENNEW~1\AppData\Local\Temp\ccWiX0IG.s 			page 3


  78              		.thumb_func
  79              		.type	rd_be16, %function
  80              	rd_be16:
  81              	.LFB1:
  38:..\..\..\HamFlyAPI\src/hamfly_core_telemetry.c **** 
  39:..\..\..\HamFlyAPI\src/hamfly_core_telemetry.c **** // Read big-endian int16 from buffer.
  40:..\..\..\HamFlyAPI\src/hamfly_core_telemetry.c **** static int16_t rd_be16(const uint8_t *p)
  41:..\..\..\HamFlyAPI\src/hamfly_core_telemetry.c **** {
  82              		.loc 1 41 0
  83              		.cfi_startproc
  84              		@ args = 0, pretend = 0, frame = 8
  85              		@ frame_needed = 1, uses_anonymous_args = 0
  86              		@ link register save eliminated.
  87 0000 80B4     		push	{r7}
  88              		.cfi_def_cfa_offset 4
  89              		.cfi_offset 7, -4
  90 0002 83B0     		sub	sp, sp, #12
  91              		.cfi_def_cfa_offset 16
  92 0004 00AF     		add	r7, sp, #0
  93              		.cfi_def_cfa_register 7
  94 0006 7860     		str	r0, [r7, #4]
  42:..\..\..\HamFlyAPI\src/hamfly_core_telemetry.c ****     return (int16_t)(((uint16_t)p[0] << 8) | (uint16_t)p[1]);
  95              		.loc 1 42 0
  96 0008 7B68     		ldr	r3, [r7, #4]
  97 000a 1B78     		ldrb	r3, [r3]	@ zero_extendqisi2
  98 000c 1B02     		lsls	r3, r3, #8
  99 000e 1AB2     		sxth	r2, r3
 100 0010 7B68     		ldr	r3, [r7, #4]
 101 0012 0133     		adds	r3, r3, #1
 102 0014 1B78     		ldrb	r3, [r3]	@ zero_extendqisi2
 103 0016 1BB2     		sxth	r3, r3
 104 0018 1343     		orrs	r3, r3, r2
 105 001a 1BB2     		sxth	r3, r3
  43:..\..\..\HamFlyAPI\src/hamfly_core_telemetry.c **** }
 106              		.loc 1 43 0
 107 001c 1846     		mov	r0, r3
 108 001e 0C37     		adds	r7, r7, #12
 109              		.cfi_def_cfa_offset 4
 110 0020 BD46     		mov	sp, r7
 111              		.cfi_def_cfa_register 13
 112              		@ sp needed
 113 0022 80BC     		pop	{r7}
 114              		.cfi_restore 7
 115              		.cfi_def_cfa_offset 0
 116 0024 7047     		bx	lr
 117              		.cfi_endproc
 118              	.LFE1:
 119              		.size	rd_be16, .-rd_be16
 120 0026 00BF     		.section	.text.rd_be_u16,"ax",%progbits
 121              		.align	2
 122              		.thumb
 123              		.thumb_func
 124              		.type	rd_be_u16, %function
 125              	rd_be_u16:
 126              	.LFB2:
  44:..\..\..\HamFlyAPI\src/hamfly_core_telemetry.c **** 
  45:..\..\..\HamFlyAPI\src/hamfly_core_telemetry.c **** // Read big-endian uint16 from buffer (for unsigned fields).
ARM GAS  C:\Users\JENNEW~1\AppData\Local\Temp\ccWiX0IG.s 			page 4


  46:..\..\..\HamFlyAPI\src/hamfly_core_telemetry.c **** static uint16_t rd_be_u16(const uint8_t *p)
  47:..\..\..\HamFlyAPI\src/hamfly_core_telemetry.c **** {
 127              		.loc 1 47 0
 128              		.cfi_startproc
 129              		@ args = 0, pretend = 0, frame = 8
 130              		@ frame_needed = 1, uses_anonymous_args = 0
 131              		@ link register save eliminated.
 132 0000 80B4     		push	{r7}
 133              		.cfi_def_cfa_offset 4
 134              		.cfi_offset 7, -4
 135 0002 83B0     		sub	sp, sp, #12
 136              		.cfi_def_cfa_offset 16
 137 0004 00AF     		add	r7, sp, #0
 138              		.cfi_def_cfa_register 7
 139 0006 7860     		str	r0, [r7, #4]
  48:..\..\..\HamFlyAPI\src/hamfly_core_telemetry.c ****     return ((uint16_t)p[0] << 8) | (uint16_t)p[1];
 140              		.loc 1 48 0
 141 0008 7B68     		ldr	r3, [r7, #4]
 142 000a 1B78     		ldrb	r3, [r3]	@ zero_extendqisi2
 143 000c 1B02     		lsls	r3, r3, #8
 144 000e 1AB2     		sxth	r2, r3
 145 0010 7B68     		ldr	r3, [r7, #4]
 146 0012 0133     		adds	r3, r3, #1
 147 0014 1B78     		ldrb	r3, [r3]	@ zero_extendqisi2
 148 0016 1BB2     		sxth	r3, r3
 149 0018 1343     		orrs	r3, r3, r2
 150 001a 1BB2     		sxth	r3, r3
 151 001c 9BB2     		uxth	r3, r3
  49:..\..\..\HamFlyAPI\src/hamfly_core_telemetry.c **** }
 152              		.loc 1 49 0
 153 001e 1846     		mov	r0, r3
 154 0020 0C37     		adds	r7, r7, #12
 155              		.cfi_def_cfa_offset 4
 156 0022 BD46     		mov	sp, r7
 157              		.cfi_def_cfa_register 13
 158              		@ sp needed
 159 0024 80BC     		pop	{r7}
 160              		.cfi_restore 7
 161              		.cfi_def_cfa_offset 0
 162 0026 7047     		bx	lr
 163              		.cfi_endproc
 164              	.LFE2:
 165              		.size	rd_be_u16, .-rd_be_u16
 166              		.section	.text.rd_le16,"ax",%progbits
 167              		.align	2
 168              		.thumb
 169              		.thumb_func
 170              		.type	rd_le16, %function
 171              	rd_le16:
 172              	.LFB3:
  50:..\..\..\HamFlyAPI\src/hamfly_core_telemetry.c **** 
  51:..\..\..\HamFlyAPI\src/hamfly_core_telemetry.c **** // Read little-endian int16 from buffer.
  52:..\..\..\HamFlyAPI\src/hamfly_core_telemetry.c **** static int16_t rd_le16(const uint8_t *p)
  53:..\..\..\HamFlyAPI\src/hamfly_core_telemetry.c **** {
 173              		.loc 1 53 0
 174              		.cfi_startproc
 175              		@ args = 0, pretend = 0, frame = 16
ARM GAS  C:\Users\JENNEW~1\AppData\Local\Temp\ccWiX0IG.s 			page 5


 176              		@ frame_needed = 1, uses_anonymous_args = 0
 177 0000 80B5     		push	{r7, lr}
 178              		.cfi_def_cfa_offset 8
 179              		.cfi_offset 7, -8
 180              		.cfi_offset 14, -4
 181 0002 84B0     		sub	sp, sp, #16
 182              		.cfi_def_cfa_offset 24
 183 0004 00AF     		add	r7, sp, #0
 184              		.cfi_def_cfa_register 7
 185 0006 7860     		str	r0, [r7, #4]
  54:..\..\..\HamFlyAPI\src/hamfly_core_telemetry.c ****     int16_t v;
  55:..\..\..\HamFlyAPI\src/hamfly_core_telemetry.c ****     memcpy(&v, p, 2);
 186              		.loc 1 55 0
 187 0008 07F10E03 		add	r3, r7, #14
 188 000c 0222     		movs	r2, #2
 189 000e 7968     		ldr	r1, [r7, #4]
 190 0010 1846     		mov	r0, r3
 191 0012 FFF7FEFF 		bl	memcpy
  56:..\..\..\HamFlyAPI\src/hamfly_core_telemetry.c ****     return v;
 192              		.loc 1 56 0
 193 0016 B7F90E30 		ldrsh	r3, [r7, #14]
  57:..\..\..\HamFlyAPI\src/hamfly_core_telemetry.c **** }
 194              		.loc 1 57 0
 195 001a 1846     		mov	r0, r3
 196 001c 1037     		adds	r7, r7, #16
 197              		.cfi_def_cfa_offset 8
 198 001e BD46     		mov	sp, r7
 199              		.cfi_def_cfa_register 13
 200              		@ sp needed
 201 0020 80BD     		pop	{r7, pc}
 202              		.cfi_endproc
 203              	.LFE3:
 204              		.size	rd_le16, .-rd_le16
 205 0022 00BF     		.section	.text.hamfly_decode_qx287,"ax",%progbits
 206              		.align	2
 207              		.global	hamfly_decode_qx287
 208              		.thumb
 209              		.thumb_func
 210              		.type	hamfly_decode_qx287, %function
 211              	hamfly_decode_qx287:
 212              	.LFB4:
  58:..\..\..\HamFlyAPI\src/hamfly_core_telemetry.c **** 
  59:..\..\..\HamFlyAPI\src/hamfly_core_telemetry.c **** // ============================================================================
  60:..\..\..\HamFlyAPI\src/hamfly_core_telemetry.c **** // Hamfly Decode QX287
  61:..\..\..\HamFlyAPI\src/hamfly_core_telemetry.c **** // ============================================================================
  62:..\..\..\HamFlyAPI\src/hamfly_core_telemetry.c **** // Main telemetry parsing function. Reads from FreeFlyAPI.status which is
  63:..\..\..\HamFlyAPI\src/hamfly_core_telemetry.c **** // populated by the QX parser callback. Wrapping FreeflyAPI directly.
  64:..\..\..\HamFlyAPI\src/hamfly_core_telemetry.c **** void hamfly_decode_qx287(const uint8_t *p, uint16_t plen,
  65:..\..\..\HamFlyAPI\src/hamfly_core_telemetry.c ****                           hamfly_telemetry_t *dst)
  66:..\..\..\HamFlyAPI\src/hamfly_core_telemetry.c **** {
 213              		.loc 1 66 0
 214              		.cfi_startproc
 215              		@ args = 0, pretend = 0, frame = 16
 216              		@ frame_needed = 1, uses_anonymous_args = 0
 217              		@ link register save eliminated.
 218 0000 80B4     		push	{r7}
 219              		.cfi_def_cfa_offset 4
ARM GAS  C:\Users\JENNEW~1\AppData\Local\Temp\ccWiX0IG.s 			page 6


 220              		.cfi_offset 7, -4
 221 0002 85B0     		sub	sp, sp, #20
 222              		.cfi_def_cfa_offset 24
 223 0004 00AF     		add	r7, sp, #0
 224              		.cfi_def_cfa_register 7
 225 0006 F860     		str	r0, [r7, #12]
 226 0008 0B46     		mov	r3, r1
 227 000a 7A60     		str	r2, [r7, #4]
 228 000c 7B81     		strh	r3, [r7, #10]	@ movhi
  67:..\..\..\HamFlyAPI\src/hamfly_core_telemetry.c ****     (void)p; (void)plen;
  68:..\..\..\HamFlyAPI\src/hamfly_core_telemetry.c **** 
  69:..\..\..\HamFlyAPI\src/hamfly_core_telemetry.c ****     // Copy fields into the telemetry struct.
  70:..\..\..\HamFlyAPI\src/hamfly_core_telemetry.c ****     dst->battery_left_v   = FreeflyAPI.status.battery_v_left;
 229              		.loc 1 70 0
 230 000e 154B     		ldr	r3, .L10
 231 0010 9A6C     		ldr	r2, [r3, #72]	@ float
 232 0012 7B68     		ldr	r3, [r7, #4]
 233 0014 5A60     		str	r2, [r3, #4]	@ float
  71:..\..\..\HamFlyAPI\src/hamfly_core_telemetry.c ****     dst->battery_right_v  = FreeflyAPI.status.battery_v_right;
 234              		.loc 1 71 0
 235 0016 134B     		ldr	r3, .L10
 236 0018 DA6C     		ldr	r2, [r3, #76]	@ float
 237 001a 7B68     		ldr	r3, [r7, #4]
 238 001c 9A60     		str	r2, [r3, #8]	@ float
  72:..\..\..\HamFlyAPI\src/hamfly_core_telemetry.c ****     dst->gimbal_r         = FreeflyAPI.status.gimbal_r;
 239              		.loc 1 72 0
 240 001e 114B     		ldr	r3, .L10
 241 0020 1A6E     		ldr	r2, [r3, #96]	@ float
 242 0022 7B68     		ldr	r3, [r7, #4]
 243 0024 DA60     		str	r2, [r3, #12]	@ float
  73:..\..\..\HamFlyAPI\src/hamfly_core_telemetry.c ****     dst->gimbal_i         = FreeflyAPI.status.gimbal_i;
 244              		.loc 1 73 0
 245 0026 0F4B     		ldr	r3, .L10
 246 0028 5A6D     		ldr	r2, [r3, #84]	@ float
 247 002a 7B68     		ldr	r3, [r7, #4]
 248 002c 1A61     		str	r2, [r3, #16]	@ float
  74:..\..\..\HamFlyAPI\src/hamfly_core_telemetry.c ****     dst->gimbal_j         = FreeflyAPI.status.gimbal_j;
 249              		.loc 1 74 0
 250 002e 0D4B     		ldr	r3, .L10
 251 0030 9A6D     		ldr	r2, [r3, #88]	@ float
 252 0032 7B68     		ldr	r3, [r7, #4]
 253 0034 5A61     		str	r2, [r3, #20]	@ float
  75:..\..\..\HamFlyAPI\src/hamfly_core_telemetry.c ****     dst->gimbal_k         = FreeflyAPI.status.gimbal_k;
 254              		.loc 1 75 0
 255 0036 0B4B     		ldr	r3, .L10
 256 0038 DA6D     		ldr	r2, [r3, #92]	@ float
 257 003a 7B68     		ldr	r3, [r7, #4]
 258 003c 9A61     		str	r2, [r3, #24]	@ float
  76:..\..\..\HamFlyAPI\src/hamfly_core_telemetry.c ****     dst->gimbal_status1   = FreeflyAPI.status.gimbal_Status1;
 259              		.loc 1 76 0
 260 003e 094B     		ldr	r3, .L10
 261 0040 93F85020 		ldrb	r2, [r3, #80]	@ zero_extendqisi2
 262 0044 7B68     		ldr	r3, [r7, #4]
 263 0046 1A77     		strb	r2, [r3, #28]
  77:..\..\..\HamFlyAPI\src/hamfly_core_telemetry.c ****     dst->gimbal_status2   = FreeflyAPI.status.gimbal_Status2;
 264              		.loc 1 77 0
 265 0048 064B     		ldr	r3, .L10
ARM GAS  C:\Users\JENNEW~1\AppData\Local\Temp\ccWiX0IG.s 			page 7


 266 004a 93F85120 		ldrb	r2, [r3, #81]	@ zero_extendqisi2
 267 004e 7B68     		ldr	r3, [r7, #4]
 268 0050 5A77     		strb	r2, [r3, #29]
  78:..\..\..\HamFlyAPI\src/hamfly_core_telemetry.c ****     dst->valid            = true;
 269              		.loc 1 78 0
 270 0052 7B68     		ldr	r3, [r7, #4]
 271 0054 0122     		movs	r2, #1
 272 0056 1A70     		strb	r2, [r3]
  79:..\..\..\HamFlyAPI\src/hamfly_core_telemetry.c **** }
 273              		.loc 1 79 0
 274 0058 00BF     		nop
 275 005a 1437     		adds	r7, r7, #20
 276              		.cfi_def_cfa_offset 4
 277 005c BD46     		mov	sp, r7
 278              		.cfi_def_cfa_register 13
 279              		@ sp needed
 280 005e 80BC     		pop	{r7}
 281              		.cfi_restore 7
 282              		.cfi_def_cfa_offset 0
 283 0060 7047     		bx	lr
 284              	.L11:
 285 0062 00BF     		.align	2
 286              	.L10:
 287 0064 00000000 		.word	FreeflyAPI
 288              		.cfi_endproc
 289              	.LFE4:
 290              		.size	hamfly_decode_qx287, .-hamfly_decode_qx287
 291              		.global	__aeabi_i2f
 292              		.global	__aeabi_fdiv
 293              		.global	__aeabi_ui2f
 294              		.section	.text.hamfly_decode_gps,"ax",%progbits
 295              		.align	2
 296              		.global	hamfly_decode_gps
 297              		.thumb
 298              		.thumb_func
 299              		.type	hamfly_decode_gps, %function
 300              	hamfly_decode_gps:
 301              	.LFB5:
  80:..\..\..\HamFlyAPI\src/hamfly_core_telemetry.c **** 
  81:..\..\..\HamFlyAPI\src/hamfly_core_telemetry.c **** // ============================================================================
  82:..\..\..\HamFlyAPI\src/hamfly_core_telemetry.c **** // Hamfly Decode GPS [Hamfly Specific] -- attr 4
  83:..\..\..\HamFlyAPI\src/hamfly_core_telemetry.c **** // ============================================================================
  84:..\..\..\HamFlyAPI\src/hamfly_core_telemetry.c **** // Reads the raw bytes of the GPS payload and into telemetry struct fields:
  85:..\..\..\HamFlyAPI\src/hamfly_core_telemetry.c **** // 
  86:..\..\..\HamFlyAPI\src/hamfly_core_telemetry.c **** // Big-endian, no sub-index byte, 22 byte payload.
  87:..\..\..\HamFlyAPI\src/hamfly_core_telemetry.c **** // off  0-3  BE int32:  longitude    /1e7  deg
  88:..\..\..\HamFlyAPI\src/hamfly_core_telemetry.c **** // off  4-7  BE int32:  latitude     /1e7  deg
  89:..\..\..\HamFlyAPI\src/hamfly_core_telemetry.c **** // off  8-11 BE int32:  altitude     /1000 mm (WGS-84 ellipsoid)
  90:..\..\..\HamFlyAPI\src/hamfly_core_telemetry.c **** // off 12-13 BE int16:  ground speed /100  m/s
  91:..\..\..\HamFlyAPI\src/hamfly_core_telemetry.c **** // off 14-15 BE int16:  heading      /100  deg (confirmed, was /10)
  92:..\..\..\HamFlyAPI\src/hamfly_core_telemetry.c **** // off 16-17 BE uint16: HACC         /100  m
  93:..\..\..\HamFlyAPI\src/hamfly_core_telemetry.c **** // off 18-19 BE uint16: VACC         /100  m
  94:..\..\..\HamFlyAPI\src/hamfly_core_telemetry.c **** // off 20-21 BE uint16: SACC         /100  m/s
  95:..\..\..\HamFlyAPI\src/hamfly_core_telemetry.c **** // ============================================================================
  96:..\..\..\HamFlyAPI\src/hamfly_core_telemetry.c **** void hamfly_decode_gps(const uint8_t *p, uint16_t plen,
  97:..\..\..\HamFlyAPI\src/hamfly_core_telemetry.c ****                         hamfly_telemetry_t *dst)
  98:..\..\..\HamFlyAPI\src/hamfly_core_telemetry.c **** {
ARM GAS  C:\Users\JENNEW~1\AppData\Local\Temp\ccWiX0IG.s 			page 8


 302              		.loc 1 98 0
 303              		.cfi_startproc
 304              		@ args = 0, pretend = 0, frame = 40
 305              		@ frame_needed = 1, uses_anonymous_args = 0
 306 0000 80B5     		push	{r7, lr}
 307              		.cfi_def_cfa_offset 8
 308              		.cfi_offset 7, -8
 309              		.cfi_offset 14, -4
 310 0002 8AB0     		sub	sp, sp, #40
 311              		.cfi_def_cfa_offset 48
 312 0004 00AF     		add	r7, sp, #0
 313              		.cfi_def_cfa_register 7
 314 0006 F860     		str	r0, [r7, #12]
 315 0008 0B46     		mov	r3, r1
 316 000a 7A60     		str	r2, [r7, #4]
 317 000c 7B81     		strh	r3, [r7, #10]	@ movhi
  99:..\..\..\HamFlyAPI\src/hamfly_core_telemetry.c ****     if (plen < 22u) return;
 318              		.loc 1 99 0
 319 000e 7B89     		ldrh	r3, [r7, #10]
 320 0010 152B     		cmp	r3, #21
 321 0012 40F2BB80 		bls	.L15
 100:..\..\..\HamFlyAPI\src/hamfly_core_telemetry.c ****     // Decode to int.
 101:..\..\..\HamFlyAPI\src/hamfly_core_telemetry.c ****     int32_t  lon_raw  = rd_be32  (p +  0);
 322              		.loc 1 101 0
 323 0016 F868     		ldr	r0, [r7, #12]
 324 0018 FFF7FEFF 		bl	rd_be32
 325 001c 7862     		str	r0, [r7, #36]
 102:..\..\..\HamFlyAPI\src/hamfly_core_telemetry.c ****     int32_t  lat_raw  = rd_be32  (p +  4);
 326              		.loc 1 102 0
 327 001e FB68     		ldr	r3, [r7, #12]
 328 0020 0433     		adds	r3, r3, #4
 329 0022 1846     		mov	r0, r3
 330 0024 FFF7FEFF 		bl	rd_be32
 331 0028 3862     		str	r0, [r7, #32]
 103:..\..\..\HamFlyAPI\src/hamfly_core_telemetry.c ****     int32_t  alt_raw  = rd_be32  (p +  8);
 332              		.loc 1 103 0
 333 002a FB68     		ldr	r3, [r7, #12]
 334 002c 0833     		adds	r3, r3, #8
 335 002e 1846     		mov	r0, r3
 336 0030 FFF7FEFF 		bl	rd_be32
 337 0034 F861     		str	r0, [r7, #28]
 104:..\..\..\HamFlyAPI\src/hamfly_core_telemetry.c ****     int16_t  spd_raw  = rd_be16  (p + 12);
 338              		.loc 1 104 0
 339 0036 FB68     		ldr	r3, [r7, #12]
 340 0038 0C33     		adds	r3, r3, #12
 341 003a 1846     		mov	r0, r3
 342 003c FFF7FEFF 		bl	rd_be16
 343 0040 0346     		mov	r3, r0
 344 0042 7B83     		strh	r3, [r7, #26]	@ movhi
 105:..\..\..\HamFlyAPI\src/hamfly_core_telemetry.c ****     int16_t  hdg_raw  = rd_be16  (p + 14);
 345              		.loc 1 105 0
 346 0044 FB68     		ldr	r3, [r7, #12]
 347 0046 0E33     		adds	r3, r3, #14
 348 0048 1846     		mov	r0, r3
 349 004a FFF7FEFF 		bl	rd_be16
 350 004e 0346     		mov	r3, r0
 351 0050 3B83     		strh	r3, [r7, #24]	@ movhi
ARM GAS  C:\Users\JENNEW~1\AppData\Local\Temp\ccWiX0IG.s 			page 9


 106:..\..\..\HamFlyAPI\src/hamfly_core_telemetry.c ****     uint16_t hacc_raw = rd_be_u16(p + 16);
 352              		.loc 1 106 0
 353 0052 FB68     		ldr	r3, [r7, #12]
 354 0054 1033     		adds	r3, r3, #16
 355 0056 1846     		mov	r0, r3
 356 0058 FFF7FEFF 		bl	rd_be_u16
 357 005c 0346     		mov	r3, r0
 358 005e FB82     		strh	r3, [r7, #22]	@ movhi
 107:..\..\..\HamFlyAPI\src/hamfly_core_telemetry.c ****     uint16_t vacc_raw = rd_be_u16(p + 18);
 359              		.loc 1 107 0
 360 0060 FB68     		ldr	r3, [r7, #12]
 361 0062 1233     		adds	r3, r3, #18
 362 0064 1846     		mov	r0, r3
 363 0066 FFF7FEFF 		bl	rd_be_u16
 364 006a 0346     		mov	r3, r0
 365 006c BB82     		strh	r3, [r7, #20]	@ movhi
 108:..\..\..\HamFlyAPI\src/hamfly_core_telemetry.c ****     uint16_t sacc_raw = rd_be_u16(p + 20);
 366              		.loc 1 108 0
 367 006e FB68     		ldr	r3, [r7, #12]
 368 0070 1433     		adds	r3, r3, #20
 369 0072 1846     		mov	r0, r3
 370 0074 FFF7FEFF 		bl	rd_be_u16
 371 0078 0346     		mov	r3, r0
 372 007a 7B82     		strh	r3, [r7, #18]	@ movhi
 109:..\..\..\HamFlyAPI\src/hamfly_core_telemetry.c ****     // Save raw for debug and pointing math.
 110:..\..\..\HamFlyAPI\src/hamfly_core_telemetry.c ****     dst->gps_raw_lon  = lon_raw;
 373              		.loc 1 110 0
 374 007c 7B68     		ldr	r3, [r7, #4]
 375 007e 7A6A     		ldr	r2, [r7, #36]
 376 0080 5A64     		str	r2, [r3, #68]
 111:..\..\..\HamFlyAPI\src/hamfly_core_telemetry.c ****     dst->gps_raw_lat  = lat_raw;
 377              		.loc 1 111 0
 378 0082 7B68     		ldr	r3, [r7, #4]
 379 0084 3A6A     		ldr	r2, [r7, #32]
 380 0086 1A64     		str	r2, [r3, #64]
 112:..\..\..\HamFlyAPI\src/hamfly_core_telemetry.c ****     dst->gps_raw_alt  = alt_raw;
 381              		.loc 1 112 0
 382 0088 7B68     		ldr	r3, [r7, #4]
 383 008a FA69     		ldr	r2, [r7, #28]
 384 008c 9A64     		str	r2, [r3, #72]
 113:..\..\..\HamFlyAPI\src/hamfly_core_telemetry.c ****     dst->gps_raw_spd  = spd_raw;
 385              		.loc 1 113 0
 386 008e 7B68     		ldr	r3, [r7, #4]
 387 0090 7A8B     		ldrh	r2, [r7, #26]	@ movhi
 388 0092 A3F84C20 		strh	r2, [r3, #76]	@ movhi
 114:..\..\..\HamFlyAPI\src/hamfly_core_telemetry.c ****     dst->gps_raw_hdg  = hdg_raw;
 389              		.loc 1 114 0
 390 0096 7B68     		ldr	r3, [r7, #4]
 391 0098 3A8B     		ldrh	r2, [r7, #24]	@ movhi
 392 009a A3F84E20 		strh	r2, [r3, #78]	@ movhi
 115:..\..\..\HamFlyAPI\src/hamfly_core_telemetry.c ****     dst->gps_raw_hacc = hacc_raw;
 393              		.loc 1 115 0
 394 009e 7B68     		ldr	r3, [r7, #4]
 395 00a0 FA8A     		ldrh	r2, [r7, #22]	@ movhi
 396 00a2 A3F85020 		strh	r2, [r3, #80]	@ movhi
 116:..\..\..\HamFlyAPI\src/hamfly_core_telemetry.c ****     dst->gps_raw_vacc = vacc_raw;
 397              		.loc 1 116 0
ARM GAS  C:\Users\JENNEW~1\AppData\Local\Temp\ccWiX0IG.s 			page 10


 398 00a6 7B68     		ldr	r3, [r7, #4]
 399 00a8 BA8A     		ldrh	r2, [r7, #20]	@ movhi
 400 00aa A3F85220 		strh	r2, [r3, #82]	@ movhi
 117:..\..\..\HamFlyAPI\src/hamfly_core_telemetry.c ****     dst->gps_raw_sacc = sacc_raw;
 401              		.loc 1 117 0
 402 00ae 7B68     		ldr	r3, [r7, #4]
 403 00b0 7A8A     		ldrh	r2, [r7, #18]	@ movhi
 404 00b2 A3F85420 		strh	r2, [r3, #84]	@ movhi
 118:..\..\..\HamFlyAPI\src/hamfly_core_telemetry.c ****     // Decode float versions for display/logging only.
 119:..\..\..\HamFlyAPI\src/hamfly_core_telemetry.c ****     dst->gps_lon_deg       = (float)lon_raw  / 1e7f;
 405              		.loc 1 119 0
 406 00b6 786A     		ldr	r0, [r7, #36]
 407 00b8 FFF7FEFF 		bl	__aeabi_i2f
 408 00bc 0346     		mov	r3, r0
 409 00be 3549     		ldr	r1, .L16
 410 00c0 1846     		mov	r0, r3
 411 00c2 FFF7FEFF 		bl	__aeabi_fdiv
 412 00c6 0346     		mov	r3, r0
 413 00c8 1A46     		mov	r2, r3
 414 00ca 7B68     		ldr	r3, [r7, #4]
 415 00cc 5A62     		str	r2, [r3, #36]	@ float
 120:..\..\..\HamFlyAPI\src/hamfly_core_telemetry.c ****     dst->gps_lat_deg       = (float)lat_raw  / 1e7f;
 416              		.loc 1 120 0
 417 00ce 386A     		ldr	r0, [r7, #32]
 418 00d0 FFF7FEFF 		bl	__aeabi_i2f
 419 00d4 0346     		mov	r3, r0
 420 00d6 2F49     		ldr	r1, .L16
 421 00d8 1846     		mov	r0, r3
 422 00da FFF7FEFF 		bl	__aeabi_fdiv
 423 00de 0346     		mov	r3, r0
 424 00e0 1A46     		mov	r2, r3
 425 00e2 7B68     		ldr	r3, [r7, #4]
 426 00e4 1A62     		str	r2, [r3, #32]	@ float
 121:..\..\..\HamFlyAPI\src/hamfly_core_telemetry.c ****     dst->gps_alt_m         = (float)alt_raw  / 1000.0f;
 427              		.loc 1 121 0
 428 00e6 F869     		ldr	r0, [r7, #28]
 429 00e8 FFF7FEFF 		bl	__aeabi_i2f
 430 00ec 0346     		mov	r3, r0
 431 00ee 2A49     		ldr	r1, .L16+4
 432 00f0 1846     		mov	r0, r3
 433 00f2 FFF7FEFF 		bl	__aeabi_fdiv
 434 00f6 0346     		mov	r3, r0
 435 00f8 1A46     		mov	r2, r3
 436 00fa 7B68     		ldr	r3, [r7, #4]
 437 00fc 9A62     		str	r2, [r3, #40]	@ float
 122:..\..\..\HamFlyAPI\src/hamfly_core_telemetry.c ****     dst->gps_ground_spd_ms = (float)spd_raw  / 100.0f;
 438              		.loc 1 122 0
 439 00fe B7F91A30 		ldrsh	r3, [r7, #26]
 440 0102 1846     		mov	r0, r3
 441 0104 FFF7FEFF 		bl	__aeabi_i2f
 442 0108 0346     		mov	r3, r0
 443 010a 2449     		ldr	r1, .L16+8
 444 010c 1846     		mov	r0, r3
 445 010e FFF7FEFF 		bl	__aeabi_fdiv
 446 0112 0346     		mov	r3, r0
 447 0114 1A46     		mov	r2, r3
 448 0116 7B68     		ldr	r3, [r7, #4]
ARM GAS  C:\Users\JENNEW~1\AppData\Local\Temp\ccWiX0IG.s 			page 11


 449 0118 DA62     		str	r2, [r3, #44]	@ float
 123:..\..\..\HamFlyAPI\src/hamfly_core_telemetry.c ****     dst->gps_heading_deg   = (float)hdg_raw  / 100.0f;  /* was /10 */
 450              		.loc 1 123 0
 451 011a B7F91830 		ldrsh	r3, [r7, #24]
 452 011e 1846     		mov	r0, r3
 453 0120 FFF7FEFF 		bl	__aeabi_i2f
 454 0124 0346     		mov	r3, r0
 455 0126 1D49     		ldr	r1, .L16+8
 456 0128 1846     		mov	r0, r3
 457 012a FFF7FEFF 		bl	__aeabi_fdiv
 458 012e 0346     		mov	r3, r0
 459 0130 1A46     		mov	r2, r3
 460 0132 7B68     		ldr	r3, [r7, #4]
 461 0134 1A63     		str	r2, [r3, #48]	@ float
 124:..\..\..\HamFlyAPI\src/hamfly_core_telemetry.c ****     dst->gps_hacc_m        = (float)hacc_raw / 100.0f;
 462              		.loc 1 124 0
 463 0136 FB8A     		ldrh	r3, [r7, #22]
 464 0138 1846     		mov	r0, r3
 465 013a FFF7FEFF 		bl	__aeabi_ui2f
 466 013e 0346     		mov	r3, r0
 467 0140 1649     		ldr	r1, .L16+8
 468 0142 1846     		mov	r0, r3
 469 0144 FFF7FEFF 		bl	__aeabi_fdiv
 470 0148 0346     		mov	r3, r0
 471 014a 1A46     		mov	r2, r3
 472 014c 7B68     		ldr	r3, [r7, #4]
 473 014e 5A63     		str	r2, [r3, #52]	@ float
 125:..\..\..\HamFlyAPI\src/hamfly_core_telemetry.c ****     dst->gps_vacc_m        = (float)vacc_raw / 100.0f;
 474              		.loc 1 125 0
 475 0150 BB8A     		ldrh	r3, [r7, #20]
 476 0152 1846     		mov	r0, r3
 477 0154 FFF7FEFF 		bl	__aeabi_ui2f
 478 0158 0346     		mov	r3, r0
 479 015a 1049     		ldr	r1, .L16+8
 480 015c 1846     		mov	r0, r3
 481 015e FFF7FEFF 		bl	__aeabi_fdiv
 482 0162 0346     		mov	r3, r0
 483 0164 1A46     		mov	r2, r3
 484 0166 7B68     		ldr	r3, [r7, #4]
 485 0168 9A63     		str	r2, [r3, #56]	@ float
 126:..\..\..\HamFlyAPI\src/hamfly_core_telemetry.c ****     dst->gps_sacc_ms       = (float)sacc_raw / 100.0f;
 486              		.loc 1 126 0
 487 016a 7B8A     		ldrh	r3, [r7, #18]
 488 016c 1846     		mov	r0, r3
 489 016e FFF7FEFF 		bl	__aeabi_ui2f
 490 0172 0346     		mov	r3, r0
 491 0174 0949     		ldr	r1, .L16+8
 492 0176 1846     		mov	r0, r3
 493 0178 FFF7FEFF 		bl	__aeabi_fdiv
 494 017c 0346     		mov	r3, r0
 495 017e 1A46     		mov	r2, r3
 496 0180 7B68     		ldr	r3, [r7, #4]
 497 0182 DA63     		str	r2, [r3, #60]	@ float
 127:..\..\..\HamFlyAPI\src/hamfly_core_telemetry.c ****     dst->gps_valid         = true;
 498              		.loc 1 127 0
 499 0184 7B68     		ldr	r3, [r7, #4]
 500 0186 0122     		movs	r2, #1
ARM GAS  C:\Users\JENNEW~1\AppData\Local\Temp\ccWiX0IG.s 			page 12


 501 0188 9A77     		strb	r2, [r3, #30]
 502 018a 00E0     		b	.L12
 503              	.L15:
  99:..\..\..\HamFlyAPI\src/hamfly_core_telemetry.c ****     // Decode to int.
 504              		.loc 1 99 0
 505 018c 00BF     		nop
 506              	.L12:
 128:..\..\..\HamFlyAPI\src/hamfly_core_telemetry.c **** }
 507              		.loc 1 128 0
 508 018e 2837     		adds	r7, r7, #40
 509              		.cfi_def_cfa_offset 8
 510 0190 BD46     		mov	sp, r7
 511              		.cfi_def_cfa_register 13
 512              		@ sp needed
 513 0192 80BD     		pop	{r7, pc}
 514              	.L17:
 515              		.align	2
 516              	.L16:
 517 0194 8096184B 		.word	1259902592
 518 0198 00007A44 		.word	1148846080
 519 019c 0000C842 		.word	1120403456
 520              		.cfi_endproc
 521              	.LFE5:
 522              		.size	hamfly_decode_gps, .-hamfly_decode_gps
 523              		.section	.text.hamfly_decode_baro,"ax",%progbits
 524              		.align	2
 525              		.global	hamfly_decode_baro
 526              		.thumb
 527              		.thumb_func
 528              		.type	hamfly_decode_baro, %function
 529              	hamfly_decode_baro:
 530              	.LFB6:
 129:..\..\..\HamFlyAPI\src/hamfly_core_telemetry.c **** 
 130:..\..\..\HamFlyAPI\src/hamfly_core_telemetry.c **** // ============================================================================
 131:..\..\..\HamFlyAPI\src/hamfly_core_telemetry.c **** // Hamfly Decode Barometer [Hamfly Specific] -- attr 3
 132:..\..\..\HamFlyAPI\src/hamfly_core_telemetry.c **** // ============================================================================
 133:..\..\..\HamFlyAPI\src/hamfly_core_telemetry.c **** // Reads the raw bytes of the Barometer payload and into telemetry fields:
 134:..\..\..\HamFlyAPI\src/hamfly_core_telemetry.c **** // 
 135:..\..\..\HamFlyAPI\src/hamfly_core_telemetry.c **** // Little-endian, sub-index byte at off 0 (ignored), 5 byte payload.
 136:..\..\..\HamFlyAPI\src/hamfly_core_telemetry.c **** // off 1-2  LE int16: altitude      /10  m
 137:..\..\..\HamFlyAPI\src/hamfly_core_telemetry.c **** // off 3-4  LE int16: rate of climb /100 m/s
 138:..\..\..\HamFlyAPI\src/hamfly_core_telemetry.c **** // ============================================================================
 139:..\..\..\HamFlyAPI\src/hamfly_core_telemetry.c **** void hamfly_decode_baro(const uint8_t *p, uint16_t plen,
 140:..\..\..\HamFlyAPI\src/hamfly_core_telemetry.c ****                          hamfly_telemetry_t *dst)
 141:..\..\..\HamFlyAPI\src/hamfly_core_telemetry.c **** {
 531              		.loc 1 141 0
 532              		.cfi_startproc
 533              		@ args = 0, pretend = 0, frame = 16
 534              		@ frame_needed = 1, uses_anonymous_args = 0
 535 0000 80B5     		push	{r7, lr}
 536              		.cfi_def_cfa_offset 8
 537              		.cfi_offset 7, -8
 538              		.cfi_offset 14, -4
 539 0002 84B0     		sub	sp, sp, #16
 540              		.cfi_def_cfa_offset 24
 541 0004 00AF     		add	r7, sp, #0
 542              		.cfi_def_cfa_register 7
ARM GAS  C:\Users\JENNEW~1\AppData\Local\Temp\ccWiX0IG.s 			page 13


 543 0006 F860     		str	r0, [r7, #12]
 544 0008 0B46     		mov	r3, r1
 545 000a 7A60     		str	r2, [r7, #4]
 546 000c 7B81     		strh	r3, [r7, #10]	@ movhi
 142:..\..\..\HamFlyAPI\src/hamfly_core_telemetry.c ****     if (plen < 5u) return;
 547              		.loc 1 142 0
 548 000e 7B89     		ldrh	r3, [r7, #10]
 549 0010 042B     		cmp	r3, #4
 550 0012 28D9     		bls	.L21
 143:..\..\..\HamFlyAPI\src/hamfly_core_telemetry.c **** 
 144:..\..\..\HamFlyAPI\src/hamfly_core_telemetry.c ****     // Decode and populate.
 145:..\..\..\HamFlyAPI\src/hamfly_core_telemetry.c ****     dst->baro_alt_m  = (float)rd_le16(p + 1) / 10.0f;
 551              		.loc 1 145 0
 552 0014 FB68     		ldr	r3, [r7, #12]
 553 0016 0133     		adds	r3, r3, #1
 554 0018 1846     		mov	r0, r3
 555 001a FFF7FEFF 		bl	rd_le16
 556 001e 0346     		mov	r3, r0
 557 0020 1846     		mov	r0, r3
 558 0022 FFF7FEFF 		bl	__aeabi_i2f
 559 0026 0346     		mov	r3, r0
 560 0028 1149     		ldr	r1, .L22
 561 002a 1846     		mov	r0, r3
 562 002c FFF7FEFF 		bl	__aeabi_fdiv
 563 0030 0346     		mov	r3, r0
 564 0032 1A46     		mov	r2, r3
 565 0034 7B68     		ldr	r3, [r7, #4]
 566 0036 9A65     		str	r2, [r3, #88]	@ float
 146:..\..\..\HamFlyAPI\src/hamfly_core_telemetry.c ****     /* Scale changed /100 -> /1000. Previous gave -33 m/s at rest
 147:..\..\..\HamFlyAPI\src/hamfly_core_telemetry.c ****      * (implausible). Corrected gives -3.3 m/s. Awaiting lift test. */
 148:..\..\..\HamFlyAPI\src/hamfly_core_telemetry.c ****     dst->baro_roc_ms = (float)rd_le16(p + 3) / 1000.0f;
 567              		.loc 1 148 0
 568 0038 FB68     		ldr	r3, [r7, #12]
 569 003a 0333     		adds	r3, r3, #3
 570 003c 1846     		mov	r0, r3
 571 003e FFF7FEFF 		bl	rd_le16
 572 0042 0346     		mov	r3, r0
 573 0044 1846     		mov	r0, r3
 574 0046 FFF7FEFF 		bl	__aeabi_i2f
 575 004a 0346     		mov	r3, r0
 576 004c 0949     		ldr	r1, .L22+4
 577 004e 1846     		mov	r0, r3
 578 0050 FFF7FEFF 		bl	__aeabi_fdiv
 579 0054 0346     		mov	r3, r0
 580 0056 1A46     		mov	r2, r3
 581 0058 7B68     		ldr	r3, [r7, #4]
 582 005a DA65     		str	r2, [r3, #92]	@ float
 149:..\..\..\HamFlyAPI\src/hamfly_core_telemetry.c ****     dst->baro_valid  = true;
 583              		.loc 1 149 0
 584 005c 7B68     		ldr	r3, [r7, #4]
 585 005e 0122     		movs	r2, #1
 586 0060 83F85620 		strb	r2, [r3, #86]
 587 0064 00E0     		b	.L18
 588              	.L21:
 142:..\..\..\HamFlyAPI\src/hamfly_core_telemetry.c **** 
 589              		.loc 1 142 0
 590 0066 00BF     		nop
ARM GAS  C:\Users\JENNEW~1\AppData\Local\Temp\ccWiX0IG.s 			page 14


 591              	.L18:
 150:..\..\..\HamFlyAPI\src/hamfly_core_telemetry.c **** }
 592              		.loc 1 150 0
 593 0068 1037     		adds	r7, r7, #16
 594              		.cfi_def_cfa_offset 8
 595 006a BD46     		mov	sp, r7
 596              		.cfi_def_cfa_register 13
 597              		@ sp needed
 598 006c 80BD     		pop	{r7, pc}
 599              	.L23:
 600 006e 00BF     		.align	2
 601              	.L22:
 602 0070 00002041 		.word	1092616192
 603 0074 00007A44 		.word	1148846080
 604              		.cfi_endproc
 605              	.LFE6:
 606              		.size	hamfly_decode_baro, .-hamfly_decode_baro
 607              		.section	.text.hamfly_decode_attitude,"ax",%progbits
 608              		.align	2
 609              		.global	hamfly_decode_attitude
 610              		.thumb
 611              		.thumb_func
 612              		.type	hamfly_decode_attitude, %function
 613              	hamfly_decode_attitude:
 614              	.LFB7:
 151:..\..\..\HamFlyAPI\src/hamfly_core_telemetry.c **** 
 152:..\..\..\HamFlyAPI\src/hamfly_core_telemetry.c **** // ============================================================================
 153:..\..\..\HamFlyAPI\src/hamfly_core_telemetry.c **** // Hamfly Decode Attitude [Hamfly Specific] -- attr 22
 154:..\..\..\HamFlyAPI\src/hamfly_core_telemetry.c **** // ============================================================================
 155:..\..\..\HamFlyAPI\src/hamfly_core_telemetry.c **** // Reads the raw bytes of the Attitude payload and into telemetry fields:
 156:..\..\..\HamFlyAPI\src/hamfly_core_telemetry.c **** // 
 157:..\..\..\HamFlyAPI\src/hamfly_core_telemetry.c **** // Little-endian. off 0: state byte (0x00/0xFF) — ignored.
 158:..\..\..\HamFlyAPI\src/hamfly_core_telemetry.c **** // off 1-2  LE int16: Pitch /100 deg — confirmed vs iOS
 159:..\..\..\HamFlyAPI\src/hamfly_core_telemetry.c **** // off 3-4  LE int16: Yaw   /100 deg — confirmed vs iOS
 160:..\..\..\HamFlyAPI\src/hamfly_core_telemetry.c **** // off 5-6  LE int16: Roll  /100 deg — confirmed vs iOS
 161:..\..\..\HamFlyAPI\src/hamfly_core_telemetry.c **** // off 7-8  LE int16: unknown (was roll_err /10; unconfirmed)
 162:..\..\..\HamFlyAPI\src/hamfly_core_telemetry.c **** // off 9-14  LE int16 x3: rates /100 dps — updated per iOS layout
 163:..\..\..\HamFlyAPI\src/hamfly_core_telemetry.c **** //   TODO: verify rate values against iOS Charts screen.
 164:..\..\..\HamFlyAPI\src/hamfly_core_telemetry.c **** //   Previous decode placed rates at off 13-18 at /10.
 165:..\..\..\HamFlyAPI\src/hamfly_core_telemetry.c **** // ============================================================================
 166:..\..\..\HamFlyAPI\src/hamfly_core_telemetry.c **** void hamfly_decode_attitude(const uint8_t *p, uint16_t plen,
 167:..\..\..\HamFlyAPI\src/hamfly_core_telemetry.c ****                               hamfly_telemetry_t *dst)
 168:..\..\..\HamFlyAPI\src/hamfly_core_telemetry.c **** {
 615              		.loc 1 168 0
 616              		.cfi_startproc
 617              		@ args = 0, pretend = 0, frame = 16
 618              		@ frame_needed = 1, uses_anonymous_args = 0
 619 0000 80B5     		push	{r7, lr}
 620              		.cfi_def_cfa_offset 8
 621              		.cfi_offset 7, -8
 622              		.cfi_offset 14, -4
 623 0002 84B0     		sub	sp, sp, #16
 624              		.cfi_def_cfa_offset 24
 625 0004 00AF     		add	r7, sp, #0
 626              		.cfi_def_cfa_register 7
 627 0006 F860     		str	r0, [r7, #12]
 628 0008 0B46     		mov	r3, r1
ARM GAS  C:\Users\JENNEW~1\AppData\Local\Temp\ccWiX0IG.s 			page 15


 629 000a 7A60     		str	r2, [r7, #4]
 630 000c 7B81     		strh	r3, [r7, #10]	@ movhi
 169:..\..\..\HamFlyAPI\src/hamfly_core_telemetry.c ****     if (plen < 15u) return;
 631              		.loc 1 169 0
 632 000e 7B89     		ldrh	r3, [r7, #10]
 633 0010 0E2B     		cmp	r3, #14
 634 0012 40F28E80 		bls	.L27
 170:..\..\..\HamFlyAPI\src/hamfly_core_telemetry.c **** 
 171:..\..\..\HamFlyAPI\src/hamfly_core_telemetry.c ****     /* Angles — confirmed against iOS app. */
 172:..\..\..\HamFlyAPI\src/hamfly_core_telemetry.c ****     dst->att_pitch_deg  = (float)rd_le16(p +  1) / 100.0f;
 635              		.loc 1 172 0
 636 0016 FB68     		ldr	r3, [r7, #12]
 637 0018 0133     		adds	r3, r3, #1
 638 001a 1846     		mov	r0, r3
 639 001c FFF7FEFF 		bl	rd_le16
 640 0020 0346     		mov	r3, r0
 641 0022 1846     		mov	r0, r3
 642 0024 FFF7FEFF 		bl	__aeabi_i2f
 643 0028 0346     		mov	r3, r0
 644 002a 4449     		ldr	r1, .L28
 645 002c 1846     		mov	r0, r3
 646 002e FFF7FEFF 		bl	__aeabi_fdiv
 647 0032 0346     		mov	r3, r0
 648 0034 1A46     		mov	r2, r3
 649 0036 7B68     		ldr	r3, [r7, #4]
 650 0038 9A66     		str	r2, [r3, #104]	@ float
 173:..\..\..\HamFlyAPI\src/hamfly_core_telemetry.c ****     dst->att_yaw_deg    = (float)rd_le16(p +  3) / 100.0f;
 651              		.loc 1 173 0
 652 003a FB68     		ldr	r3, [r7, #12]
 653 003c 0333     		adds	r3, r3, #3
 654 003e 1846     		mov	r0, r3
 655 0040 FFF7FEFF 		bl	rd_le16
 656 0044 0346     		mov	r3, r0
 657 0046 1846     		mov	r0, r3
 658 0048 FFF7FEFF 		bl	__aeabi_i2f
 659 004c 0346     		mov	r3, r0
 660 004e 3B49     		ldr	r1, .L28
 661 0050 1846     		mov	r0, r3
 662 0052 FFF7FEFF 		bl	__aeabi_fdiv
 663 0056 0346     		mov	r3, r0
 664 0058 1A46     		mov	r2, r3
 665 005a 7B68     		ldr	r3, [r7, #4]
 666 005c DA66     		str	r2, [r3, #108]	@ float
 174:..\..\..\HamFlyAPI\src/hamfly_core_telemetry.c ****     dst->att_roll_deg   = (float)rd_le16(p +  5) / 100.0f;
 667              		.loc 1 174 0
 668 005e FB68     		ldr	r3, [r7, #12]
 669 0060 0533     		adds	r3, r3, #5
 670 0062 1846     		mov	r0, r3
 671 0064 FFF7FEFF 		bl	rd_le16
 672 0068 0346     		mov	r3, r0
 673 006a 1846     		mov	r0, r3
 674 006c FFF7FEFF 		bl	__aeabi_i2f
 675 0070 0346     		mov	r3, r0
 676 0072 3249     		ldr	r1, .L28
 677 0074 1846     		mov	r0, r3
 678 0076 FFF7FEFF 		bl	__aeabi_fdiv
 679 007a 0346     		mov	r3, r0
ARM GAS  C:\Users\JENNEW~1\AppData\Local\Temp\ccWiX0IG.s 			page 16


 680 007c 1A46     		mov	r2, r3
 681 007e 7B68     		ldr	r3, [r7, #4]
 682 0080 1A67     		str	r2, [r3, #112]	@ float
 175:..\..\..\HamFlyAPI\src/hamfly_core_telemetry.c **** 
 176:..\..\..\HamFlyAPI\src/hamfly_core_telemetry.c ****     /* off 7-8: purpose unconfirmed. Keep decoding as roll_err
 177:..\..\..\HamFlyAPI\src/hamfly_core_telemetry.c ****      * until next capture session resolves it. */
 178:..\..\..\HamFlyAPI\src/hamfly_core_telemetry.c ****     dst->att_roll_err_deg = (float)rd_le16(p + 7) / 10.0f;
 683              		.loc 1 178 0
 684 0082 FB68     		ldr	r3, [r7, #12]
 685 0084 0733     		adds	r3, r3, #7
 686 0086 1846     		mov	r0, r3
 687 0088 FFF7FEFF 		bl	rd_le16
 688 008c 0346     		mov	r3, r0
 689 008e 1846     		mov	r0, r3
 690 0090 FFF7FEFF 		bl	__aeabi_i2f
 691 0094 0346     		mov	r3, r0
 692 0096 2A49     		ldr	r1, .L28+4
 693 0098 1846     		mov	r0, r3
 694 009a FFF7FEFF 		bl	__aeabi_fdiv
 695 009e 0346     		mov	r3, r0
 696 00a0 1A46     		mov	r2, r3
 697 00a2 7B68     		ldr	r3, [r7, #4]
 698 00a4 C3F88020 		str	r2, [r3, #128]	@ float
 179:..\..\..\HamFlyAPI\src/hamfly_core_telemetry.c **** 
 180:..\..\..\HamFlyAPI\src/hamfly_core_telemetry.c ****     /* Rates: updated to off 9-14 /100 per confirmed iOS layout.
 181:..\..\..\HamFlyAPI\src/hamfly_core_telemetry.c ****      * TODO: verify values against iOS Charts screen. */
 182:..\..\..\HamFlyAPI\src/hamfly_core_telemetry.c ****     dst->att_pitch_rate_dps = (float)rd_le16(p +  9) / 100.0f;
 699              		.loc 1 182 0
 700 00a8 FB68     		ldr	r3, [r7, #12]
 701 00aa 0933     		adds	r3, r3, #9
 702 00ac 1846     		mov	r0, r3
 703 00ae FFF7FEFF 		bl	rd_le16
 704 00b2 0346     		mov	r3, r0
 705 00b4 1846     		mov	r0, r3
 706 00b6 FFF7FEFF 		bl	__aeabi_i2f
 707 00ba 0346     		mov	r3, r0
 708 00bc 1F49     		ldr	r1, .L28
 709 00be 1846     		mov	r0, r3
 710 00c0 FFF7FEFF 		bl	__aeabi_fdiv
 711 00c4 0346     		mov	r3, r0
 712 00c6 1A46     		mov	r2, r3
 713 00c8 7B68     		ldr	r3, [r7, #4]
 714 00ca 5A67     		str	r2, [r3, #116]	@ float
 183:..\..\..\HamFlyAPI\src/hamfly_core_telemetry.c ****     dst->att_yaw_rate_dps   = (float)rd_le16(p + 11) / 100.0f;
 715              		.loc 1 183 0
 716 00cc FB68     		ldr	r3, [r7, #12]
 717 00ce 0B33     		adds	r3, r3, #11
 718 00d0 1846     		mov	r0, r3
 719 00d2 FFF7FEFF 		bl	rd_le16
 720 00d6 0346     		mov	r3, r0
 721 00d8 1846     		mov	r0, r3
 722 00da FFF7FEFF 		bl	__aeabi_i2f
 723 00de 0346     		mov	r3, r0
 724 00e0 1649     		ldr	r1, .L28
 725 00e2 1846     		mov	r0, r3
 726 00e4 FFF7FEFF 		bl	__aeabi_fdiv
 727 00e8 0346     		mov	r3, r0
ARM GAS  C:\Users\JENNEW~1\AppData\Local\Temp\ccWiX0IG.s 			page 17


 728 00ea 1A46     		mov	r2, r3
 729 00ec 7B68     		ldr	r3, [r7, #4]
 730 00ee 9A67     		str	r2, [r3, #120]	@ float
 184:..\..\..\HamFlyAPI\src/hamfly_core_telemetry.c ****     dst->att_roll_rate_dps  = (float)rd_le16(p + 13) / 100.0f;
 731              		.loc 1 184 0
 732 00f0 FB68     		ldr	r3, [r7, #12]
 733 00f2 0D33     		adds	r3, r3, #13
 734 00f4 1846     		mov	r0, r3
 735 00f6 FFF7FEFF 		bl	rd_le16
 736 00fa 0346     		mov	r3, r0
 737 00fc 1846     		mov	r0, r3
 738 00fe FFF7FEFF 		bl	__aeabi_i2f
 739 0102 0346     		mov	r3, r0
 740 0104 0D49     		ldr	r1, .L28
 741 0106 1846     		mov	r0, r3
 742 0108 FFF7FEFF 		bl	__aeabi_fdiv
 743 010c 0346     		mov	r3, r0
 744 010e 1A46     		mov	r2, r3
 745 0110 7B68     		ldr	r3, [r7, #4]
 746 0112 DA67     		str	r2, [r3, #124]	@ float
 185:..\..\..\HamFlyAPI\src/hamfly_core_telemetry.c **** 
 186:..\..\..\HamFlyAPI\src/hamfly_core_telemetry.c ****     /* pitch_err/yaw_err previously at off 9/11; now occupied by
 187:..\..\..\HamFlyAPI\src/hamfly_core_telemetry.c ****      * rates. Zeroed until layout is fully confirmed. */
 188:..\..\..\HamFlyAPI\src/hamfly_core_telemetry.c ****     dst->att_pitch_err_deg = 0.0f;
 747              		.loc 1 188 0
 748 0114 7B68     		ldr	r3, [r7, #4]
 749 0116 4FF00002 		mov	r2, #0
 750 011a C3F88420 		str	r2, [r3, #132]	@ float
 189:..\..\..\HamFlyAPI\src/hamfly_core_telemetry.c ****     dst->att_yaw_err_deg   = 0.0f;
 751              		.loc 1 189 0
 752 011e 7B68     		ldr	r3, [r7, #4]
 753 0120 4FF00002 		mov	r2, #0
 754 0124 C3F88820 		str	r2, [r3, #136]	@ float
 190:..\..\..\HamFlyAPI\src/hamfly_core_telemetry.c **** 
 191:..\..\..\HamFlyAPI\src/hamfly_core_telemetry.c ****     dst->att_valid = true;
 755              		.loc 1 191 0
 756 0128 7B68     		ldr	r3, [r7, #4]
 757 012a 0122     		movs	r2, #1
 758 012c 83F86020 		strb	r2, [r3, #96]
 759 0130 00E0     		b	.L24
 760              	.L27:
 169:..\..\..\HamFlyAPI\src/hamfly_core_telemetry.c **** 
 761              		.loc 1 169 0
 762 0132 00BF     		nop
 763              	.L24:
 192:..\..\..\HamFlyAPI\src/hamfly_core_telemetry.c **** }
 764              		.loc 1 192 0
 765 0134 1037     		adds	r7, r7, #16
 766              		.cfi_def_cfa_offset 8
 767 0136 BD46     		mov	sp, r7
 768              		.cfi_def_cfa_register 13
 769              		@ sp needed
 770 0138 80BD     		pop	{r7, pc}
 771              	.L29:
 772 013a 00BF     		.align	2
 773              	.L28:
 774 013c 0000C842 		.word	1120403456
ARM GAS  C:\Users\JENNEW~1\AppData\Local\Temp\ccWiX0IG.s 			page 18


 775 0140 00002041 		.word	1092616192
 776              		.cfi_endproc
 777              	.LFE7:
 778              		.size	hamfly_decode_attitude, .-hamfly_decode_attitude
 779              		.section	.text.hamfly_decode_sysstat,"ax",%progbits
 780              		.align	2
 781              		.global	hamfly_decode_sysstat
 782              		.thumb
 783              		.thumb_func
 784              		.type	hamfly_decode_sysstat, %function
 785              	hamfly_decode_sysstat:
 786              	.LFB8:
 193:..\..\..\HamFlyAPI\src/hamfly_core_telemetry.c **** 
 194:..\..\..\HamFlyAPI\src/hamfly_core_telemetry.c **** // ============================================================================
 195:..\..\..\HamFlyAPI\src/hamfly_core_telemetry.c **** // Hamfly Decode System Status [Hamfly Specific] -- attr 1
 196:..\..\..\HamFlyAPI\src/hamfly_core_telemetry.c **** // ============================================================================
 197:..\..\..\HamFlyAPI\src/hamfly_core_telemetry.c **** // Reads the raw bytes of the System Status payload and into telemetry fields:
 198:..\..\..\HamFlyAPI\src/hamfly_core_telemetry.c **** // 
 199:..\..\..\HamFlyAPI\src/hamfly_core_telemetry.c **** // Big-endian, no sub-index byte, 22 byte payload.
 200:..\..\..\HamFlyAPI\src/hamfly_core_telemetry.c **** // off 0-1   BE int16:  battery voltage /100 V
 201:..\..\..\HamFlyAPI\src/hamfly_core_telemetry.c **** // off 2     uint8:     GPS satellites
 202:..\..\..\HamFlyAPI\src/hamfly_core_telemetry.c **** // off 3     uint8:     temperature     /3   C
 203:..\..\..\HamFlyAPI\src/hamfly_core_telemetry.c **** // off 4     uint8:     CPU         %        %
 204:..\..\..\HamFlyAPI\src/hamfly_core_telemetry.c **** // off 5-6   BE int16:  status flags
 205:..\..\..\HamFlyAPI\src/hamfly_core_telemetry.c **** // off 7-8   BE int16:  time                 s
 206:..\..\..\HamFlyAPI\src/hamfly_core_telemetry.c **** // off 9-10  BE int16:  pressure        /10  mb
 207:..\..\..\HamFlyAPI\src/hamfly_core_telemetry.c **** // off 11-12 BE int16:  IMU rate
 208:..\..\..\HamFlyAPI\src/hamfly_core_telemetry.c **** // off 13-14 BE int16:  camera status
 209:..\..\..\HamFlyAPI\src/hamfly_core_telemetry.c **** // off 15    uint8:     reserved
 210:..\..\..\HamFlyAPI\src/hamfly_core_telemetry.c **** // off 16-17 BE int16:  IMU latency          us
 211:..\..\..\HamFlyAPI\src/hamfly_core_telemetry.c **** // off 18-19 BE int16:  battery current /100 A
 212:..\..\..\HamFlyAPI\src/hamfly_core_telemetry.c **** // off 20-21 BE int16:  charge used          mAh
 213:..\..\..\HamFlyAPI\src/hamfly_core_telemetry.c **** // ============================================================================
 214:..\..\..\HamFlyAPI\src/hamfly_core_telemetry.c **** void hamfly_decode_sysstat(const uint8_t *p, uint16_t plen,
 215:..\..\..\HamFlyAPI\src/hamfly_core_telemetry.c ****                              hamfly_telemetry_t *dst)
 216:..\..\..\HamFlyAPI\src/hamfly_core_telemetry.c **** {
 787              		.loc 1 216 0
 788              		.cfi_startproc
 789              		@ args = 0, pretend = 0, frame = 16
 790              		@ frame_needed = 1, uses_anonymous_args = 0
 791 0000 80B5     		push	{r7, lr}
 792              		.cfi_def_cfa_offset 8
 793              		.cfi_offset 7, -8
 794              		.cfi_offset 14, -4
 795 0002 84B0     		sub	sp, sp, #16
 796              		.cfi_def_cfa_offset 24
 797 0004 00AF     		add	r7, sp, #0
 798              		.cfi_def_cfa_register 7
 799 0006 F860     		str	r0, [r7, #12]
 800 0008 0B46     		mov	r3, r1
 801 000a 7A60     		str	r2, [r7, #4]
 802 000c 7B81     		strh	r3, [r7, #10]	@ movhi
 217:..\..\..\HamFlyAPI\src/hamfly_core_telemetry.c ****     if (plen < 22u) return;
 803              		.loc 1 217 0
 804 000e 7B89     		ldrh	r3, [r7, #10]
 805 0010 152B     		cmp	r3, #21
 806 0012 40F2CF80 		bls	.L33
ARM GAS  C:\Users\JENNEW~1\AppData\Local\Temp\ccWiX0IG.s 			page 19


 218:..\..\..\HamFlyAPI\src/hamfly_core_telemetry.c **** 
 219:..\..\..\HamFlyAPI\src/hamfly_core_telemetry.c ****     // Decode and populate.
 220:..\..\..\HamFlyAPI\src/hamfly_core_telemetry.c ****     dst->sysstat_batt_v       = (float)rd_be16(p +  0) / 100.0f;
 807              		.loc 1 220 0
 808 0016 F868     		ldr	r0, [r7, #12]
 809 0018 FFF7FEFF 		bl	rd_be16
 810 001c 0346     		mov	r3, r0
 811 001e 1846     		mov	r0, r3
 812 0020 FFF7FEFF 		bl	__aeabi_i2f
 813 0024 0346     		mov	r3, r0
 814 0026 6549     		ldr	r1, .L34
 815 0028 1846     		mov	r0, r3
 816 002a FFF7FEFF 		bl	__aeabi_fdiv
 817 002e 0346     		mov	r3, r0
 818 0030 1A46     		mov	r2, r3
 819 0032 7B68     		ldr	r3, [r7, #4]
 820 0034 C3F89420 		str	r2, [r3, #148]	@ float
 221:..\..\..\HamFlyAPI\src/hamfly_core_telemetry.c ****     dst->sysstat_gps_sats     = p[2];
 821              		.loc 1 221 0
 822 0038 FB68     		ldr	r3, [r7, #12]
 823 003a 9A78     		ldrb	r2, [r3, #2]	@ zero_extendqisi2
 824 003c 7B68     		ldr	r3, [r7, #4]
 825 003e 83F89820 		strb	r2, [r3, #152]
 222:..\..\..\HamFlyAPI\src/hamfly_core_telemetry.c ****     dst->sysstat_temp_c       = (float)p[3] / 3.0f;
 826              		.loc 1 222 0
 827 0042 FB68     		ldr	r3, [r7, #12]
 828 0044 0333     		adds	r3, r3, #3
 829 0046 1B78     		ldrb	r3, [r3]	@ zero_extendqisi2
 830 0048 1846     		mov	r0, r3
 831 004a FFF7FEFF 		bl	__aeabi_ui2f
 832 004e 0346     		mov	r3, r0
 833 0050 5B49     		ldr	r1, .L34+4
 834 0052 1846     		mov	r0, r3
 835 0054 FFF7FEFF 		bl	__aeabi_fdiv
 836 0058 0346     		mov	r3, r0
 837 005a 1A46     		mov	r2, r3
 838 005c 7B68     		ldr	r3, [r7, #4]
 839 005e C3F89C20 		str	r2, [r3, #156]	@ float
 223:..\..\..\HamFlyAPI\src/hamfly_core_telemetry.c ****     dst->sysstat_cpu_pct      = p[4];
 840              		.loc 1 223 0
 841 0062 FB68     		ldr	r3, [r7, #12]
 842 0064 1A79     		ldrb	r2, [r3, #4]	@ zero_extendqisi2
 843 0066 7B68     		ldr	r3, [r7, #4]
 844 0068 83F8A020 		strb	r2, [r3, #160]
 224:..\..\..\HamFlyAPI\src/hamfly_core_telemetry.c ****     dst->sysstat_status_flags = rd_be16(p +  5);
 845              		.loc 1 224 0
 846 006c FB68     		ldr	r3, [r7, #12]
 847 006e 0533     		adds	r3, r3, #5
 848 0070 1846     		mov	r0, r3
 849 0072 FFF7FEFF 		bl	rd_be16
 850 0076 0346     		mov	r3, r0
 851 0078 1A46     		mov	r2, r3
 852 007a 7B68     		ldr	r3, [r7, #4]
 853 007c A3F8A220 		strh	r2, [r3, #162]	@ movhi
 225:..\..\..\HamFlyAPI\src/hamfly_core_telemetry.c ****     dst->sysstat_time_s       = rd_be16(p +  7);
 854              		.loc 1 225 0
 855 0080 FB68     		ldr	r3, [r7, #12]
ARM GAS  C:\Users\JENNEW~1\AppData\Local\Temp\ccWiX0IG.s 			page 20


 856 0082 0733     		adds	r3, r3, #7
 857 0084 1846     		mov	r0, r3
 858 0086 FFF7FEFF 		bl	rd_be16
 859 008a 0346     		mov	r3, r0
 860 008c 1A46     		mov	r2, r3
 861 008e 7B68     		ldr	r3, [r7, #4]
 862 0090 A3F8A420 		strh	r2, [r3, #164]	@ movhi
 226:..\..\..\HamFlyAPI\src/hamfly_core_telemetry.c ****     dst->sysstat_pressure_mb  = (float)rd_be16(p +  9) / 10.0f;
 863              		.loc 1 226 0
 864 0094 FB68     		ldr	r3, [r7, #12]
 865 0096 0933     		adds	r3, r3, #9
 866 0098 1846     		mov	r0, r3
 867 009a FFF7FEFF 		bl	rd_be16
 868 009e 0346     		mov	r3, r0
 869 00a0 1846     		mov	r0, r3
 870 00a2 FFF7FEFF 		bl	__aeabi_i2f
 871 00a6 0346     		mov	r3, r0
 872 00a8 4649     		ldr	r1, .L34+8
 873 00aa 1846     		mov	r0, r3
 874 00ac FFF7FEFF 		bl	__aeabi_fdiv
 875 00b0 0346     		mov	r3, r0
 876 00b2 1A46     		mov	r2, r3
 877 00b4 7B68     		ldr	r3, [r7, #4]
 878 00b6 C3F8A820 		str	r2, [r3, #168]	@ float
 227:..\..\..\HamFlyAPI\src/hamfly_core_telemetry.c ****     dst->sysstat_imu_rate     = rd_be16(p + 11);
 879              		.loc 1 227 0
 880 00ba FB68     		ldr	r3, [r7, #12]
 881 00bc 0B33     		adds	r3, r3, #11
 882 00be 1846     		mov	r0, r3
 883 00c0 FFF7FEFF 		bl	rd_be16
 884 00c4 0346     		mov	r3, r0
 885 00c6 1A46     		mov	r2, r3
 886 00c8 7B68     		ldr	r3, [r7, #4]
 887 00ca A3F8AC20 		strh	r2, [r3, #172]	@ movhi
 228:..\..\..\HamFlyAPI\src/hamfly_core_telemetry.c ****     dst->sysstat_cam_status   = rd_be16(p + 13);
 888              		.loc 1 228 0
 889 00ce FB68     		ldr	r3, [r7, #12]
 890 00d0 0D33     		adds	r3, r3, #13
 891 00d2 1846     		mov	r0, r3
 892 00d4 FFF7FEFF 		bl	rd_be16
 893 00d8 0346     		mov	r3, r0
 894 00da 1A46     		mov	r2, r3
 895 00dc 7B68     		ldr	r3, [r7, #4]
 896 00de A3F8AE20 		strh	r2, [r3, #174]	@ movhi
 229:..\..\..\HamFlyAPI\src/hamfly_core_telemetry.c ****     /* off 15: reserved, skip */
 230:..\..\..\HamFlyAPI\src/hamfly_core_telemetry.c ****     dst->sysstat_imu_latency  = rd_be16(p + 16);
 897              		.loc 1 230 0
 898 00e2 FB68     		ldr	r3, [r7, #12]
 899 00e4 1033     		adds	r3, r3, #16
 900 00e6 1846     		mov	r0, r3
 901 00e8 FFF7FEFF 		bl	rd_be16
 902 00ec 0346     		mov	r3, r0
 903 00ee 1A46     		mov	r2, r3
 904 00f0 7B68     		ldr	r3, [r7, #4]
 905 00f2 A3F8B020 		strh	r2, [r3, #176]	@ movhi
 231:..\..\..\HamFlyAPI\src/hamfly_core_telemetry.c ****     dst->sysstat_batt_a       = (float)rd_be16(p + 18) / 100.0f;
 906              		.loc 1 231 0
ARM GAS  C:\Users\JENNEW~1\AppData\Local\Temp\ccWiX0IG.s 			page 21


 907 00f6 FB68     		ldr	r3, [r7, #12]
 908 00f8 1233     		adds	r3, r3, #18
 909 00fa 1846     		mov	r0, r3
 910 00fc FFF7FEFF 		bl	rd_be16
 911 0100 0346     		mov	r3, r0
 912 0102 1846     		mov	r0, r3
 913 0104 FFF7FEFF 		bl	__aeabi_i2f
 914 0108 0346     		mov	r3, r0
 915 010a 2C49     		ldr	r1, .L34
 916 010c 1846     		mov	r0, r3
 917 010e FFF7FEFF 		bl	__aeabi_fdiv
 918 0112 0346     		mov	r3, r0
 919 0114 1A46     		mov	r2, r3
 920 0116 7B68     		ldr	r3, [r7, #4]
 921 0118 C3F8B420 		str	r2, [r3, #180]	@ float
 232:..\..\..\HamFlyAPI\src/hamfly_core_telemetry.c ****     dst->sysstat_charge_mah   = rd_be16(p + 20);
 922              		.loc 1 232 0
 923 011c FB68     		ldr	r3, [r7, #12]
 924 011e 1433     		adds	r3, r3, #20
 925 0120 1846     		mov	r0, r3
 926 0122 FFF7FEFF 		bl	rd_be16
 927 0126 0346     		mov	r3, r0
 928 0128 1A46     		mov	r2, r3
 929 012a 7B68     		ldr	r3, [r7, #4]
 930 012c A3F8B820 		strh	r2, [r3, #184]	@ movhi
 233:..\..\..\HamFlyAPI\src/hamfly_core_telemetry.c ****     dst->sysstat_valid        = true;
 931              		.loc 1 233 0
 932 0130 7B68     		ldr	r3, [r7, #4]
 933 0132 0122     		movs	r2, #1
 934 0134 83F88C20 		strb	r2, [r3, #140]
 234:..\..\..\HamFlyAPI\src/hamfly_core_telemetry.c ****     /* Decode status flag booleans. Bit positions confirmed:
 235:..\..\..\HamFlyAPI\src/hamfly_core_telemetry.c ****      *   indoor  0x0065 — bit 3 clear (no GPS lock)
 236:..\..\..\HamFlyAPI\src/hamfly_core_telemetry.c ****      *   outdoor 0x006C — bit 3 set   (GPS locked)            */
 237:..\..\..\HamFlyAPI\src/hamfly_core_telemetry.c ****     dst->flag_compass_error = (dst->sysstat_status_flags & 0x01) != 0;
 935              		.loc 1 237 0
 936 0138 7B68     		ldr	r3, [r7, #4]
 937 013a B3F9A230 		ldrsh	r3, [r3, #162]
 938 013e 9BB2     		uxth	r3, r3
 939 0140 03F00103 		and	r3, r3, #1
 940 0144 002B     		cmp	r3, #0
 941 0146 14BF     		ite	ne
 942 0148 0123     		movne	r3, #1
 943 014a 0023     		moveq	r3, #0
 944 014c DAB2     		uxtb	r2, r3
 945 014e 7B68     		ldr	r3, [r7, #4]
 946 0150 83F88D20 		strb	r2, [r3, #141]
 238:..\..\..\HamFlyAPI\src/hamfly_core_telemetry.c ****     dst->flag_gps_los       = (dst->sysstat_status_flags & 0x02) != 0;
 947              		.loc 1 238 0
 948 0154 7B68     		ldr	r3, [r7, #4]
 949 0156 B3F9A230 		ldrsh	r3, [r3, #162]
 950 015a 9BB2     		uxth	r3, r3
 951 015c 03F00203 		and	r3, r3, #2
 952 0160 002B     		cmp	r3, #0
 953 0162 14BF     		ite	ne
 954 0164 0123     		movne	r3, #1
 955 0166 0023     		moveq	r3, #0
 956 0168 DAB2     		uxtb	r2, r3
ARM GAS  C:\Users\JENNEW~1\AppData\Local\Temp\ccWiX0IG.s 			page 22


 957 016a 7B68     		ldr	r3, [r7, #4]
 958 016c 83F88E20 		strb	r2, [r3, #142]
 239:..\..\..\HamFlyAPI\src/hamfly_core_telemetry.c ****     dst->flag_radio_los     = (dst->sysstat_status_flags & 0x04) != 0;
 959              		.loc 1 239 0
 960 0170 7B68     		ldr	r3, [r7, #4]
 961 0172 B3F9A230 		ldrsh	r3, [r3, #162]
 962 0176 9BB2     		uxth	r3, r3
 963 0178 03F00403 		and	r3, r3, #4
 964 017c 002B     		cmp	r3, #0
 965 017e 14BF     		ite	ne
 966 0180 0123     		movne	r3, #1
 967 0182 0023     		moveq	r3, #0
 968 0184 DAB2     		uxtb	r2, r3
 969 0186 7B68     		ldr	r3, [r7, #4]
 970 0188 83F88F20 		strb	r2, [r3, #143]
 240:..\..\..\HamFlyAPI\src/hamfly_core_telemetry.c ****     dst->flag_gps_locked    = (dst->sysstat_status_flags & 0x08) != 0;
 971              		.loc 1 240 0
 972 018c 7B68     		ldr	r3, [r7, #4]
 973 018e B3F9A230 		ldrsh	r3, [r3, #162]
 974 0192 9BB2     		uxth	r3, r3
 975 0194 03F00803 		and	r3, r3, #8
 976 0198 002B     		cmp	r3, #0
 977 019a 14BF     		ite	ne
 978 019c 0123     		movne	r3, #1
 979 019e 0023     		moveq	r3, #0
 980 01a0 DAB2     		uxtb	r2, r3
 981 01a2 7B68     		ldr	r3, [r7, #4]
 982 01a4 83F89020 		strb	r2, [r3, #144]
 241:..\..\..\HamFlyAPI\src/hamfly_core_telemetry.c ****     /* Propagate to GPS section for convenience. */
 242:..\..\..\HamFlyAPI\src/hamfly_core_telemetry.c ****     dst->gps_locked = dst->flag_gps_locked;
 983              		.loc 1 242 0
 984 01a8 7B68     		ldr	r3, [r7, #4]
 985 01aa 93F89020 		ldrb	r2, [r3, #144]	@ zero_extendqisi2
 986 01ae 7B68     		ldr	r3, [r7, #4]
 987 01b0 DA77     		strb	r2, [r3, #31]
 988 01b2 00E0     		b	.L30
 989              	.L33:
 217:..\..\..\HamFlyAPI\src/hamfly_core_telemetry.c **** 
 990              		.loc 1 217 0
 991 01b4 00BF     		nop
 992              	.L30:
 243:..\..\..\HamFlyAPI\src/hamfly_core_telemetry.c **** }
 993              		.loc 1 243 0
 994 01b6 1037     		adds	r7, r7, #16
 995              		.cfi_def_cfa_offset 8
 996 01b8 BD46     		mov	sp, r7
 997              		.cfi_def_cfa_register 13
 998              		@ sp needed
 999 01ba 80BD     		pop	{r7, pc}
 1000              	.L35:
 1001              		.align	2
 1002              	.L34:
 1003 01bc 0000C842 		.word	1120403456
 1004 01c0 00004040 		.word	1077936128
 1005 01c4 00002041 		.word	1092616192
 1006              		.cfi_endproc
 1007              	.LFE8:
ARM GAS  C:\Users\JENNEW~1\AppData\Local\Temp\ccWiX0IG.s 			page 23


 1008              		.size	hamfly_decode_sysstat, .-hamfly_decode_sysstat
 1009              		.section	.text.hamfly_decode_mag,"ax",%progbits
 1010              		.align	2
 1011              		.global	hamfly_decode_mag
 1012              		.thumb
 1013              		.thumb_func
 1014              		.type	hamfly_decode_mag, %function
 1015              	hamfly_decode_mag:
 1016              	.LFB9:
 244:..\..\..\HamFlyAPI\src/hamfly_core_telemetry.c **** 
 245:..\..\..\HamFlyAPI\src/hamfly_core_telemetry.c **** // ============================================================================
 246:..\..\..\HamFlyAPI\src/hamfly_core_telemetry.c **** // Hamfly Decode Magnetometer [Hamfly Specific] -- attr 12
 247:..\..\..\HamFlyAPI\src/hamfly_core_telemetry.c **** // ============================================================================
 248:..\..\..\HamFlyAPI\src/hamfly_core_telemetry.c **** // Reads the raw bytes of the Magnetometer payload and into telemetry fields:
 249:..\..\..\HamFlyAPI\src/hamfly_core_telemetry.c **** // 
 250:..\..\..\HamFlyAPI\src/hamfly_core_telemetry.c **** // Little-endian, sub-index byte at off 0 (ignored), 19 byte payload.
 251:..\..\..\HamFlyAPI\src/hamfly_core_telemetry.c **** // off 1-2   LE int16:  X           /1000
 252:..\..\..\HamFlyAPI\src/hamfly_core_telemetry.c **** // off 3-4   LE int16:  Y           /1000
 253:..\..\..\HamFlyAPI\src/hamfly_core_telemetry.c **** // off 5-6   LE int16:  Z           /1000
 254:..\..\..\HamFlyAPI\src/hamfly_core_telemetry.c **** // off 7-8   LE int16:  magnitude   /100
 255:..\..\..\HamFlyAPI\src/hamfly_core_telemetry.c **** // off 9-10  LE int16:  frequency   /100
 256:..\..\..\HamFlyAPI\src/hamfly_core_telemetry.c **** // off 11-12 LE int16:  offset X    /1000
 257:..\..\..\HamFlyAPI\src/hamfly_core_telemetry.c **** // off 13-14 LE int16:  offset Y    /1000
 258:..\..\..\HamFlyAPI\src/hamfly_core_telemetry.c **** // off 15-16 LE int16:  offset Z    /1000
 259:..\..\..\HamFlyAPI\src/hamfly_core_telemetry.c **** // off 17-18 LE int16:  declination /10
 260:..\..\..\HamFlyAPI\src/hamfly_core_telemetry.c **** // ============================================================================
 261:..\..\..\HamFlyAPI\src/hamfly_core_telemetry.c **** void hamfly_decode_mag(const uint8_t *p, uint16_t plen,
 262:..\..\..\HamFlyAPI\src/hamfly_core_telemetry.c ****                         hamfly_telemetry_t *dst)
 263:..\..\..\HamFlyAPI\src/hamfly_core_telemetry.c **** {
 1017              		.loc 1 263 0
 1018              		.cfi_startproc
 1019              		@ args = 0, pretend = 0, frame = 16
 1020              		@ frame_needed = 1, uses_anonymous_args = 0
 1021 0000 80B5     		push	{r7, lr}
 1022              		.cfi_def_cfa_offset 8
 1023              		.cfi_offset 7, -8
 1024              		.cfi_offset 14, -4
 1025 0002 84B0     		sub	sp, sp, #16
 1026              		.cfi_def_cfa_offset 24
 1027 0004 00AF     		add	r7, sp, #0
 1028              		.cfi_def_cfa_register 7
 1029 0006 F860     		str	r0, [r7, #12]
 1030 0008 0B46     		mov	r3, r1
 1031 000a 7A60     		str	r2, [r7, #4]
 1032 000c 7B81     		strh	r3, [r7, #10]	@ movhi
 264:..\..\..\HamFlyAPI\src/hamfly_core_telemetry.c ****     if (plen < 19u) return;
 1033              		.loc 1 264 0
 1034 000e 7B89     		ldrh	r3, [r7, #10]
 1035 0010 122B     		cmp	r3, #18
 1036 0012 40F2B080 		bls	.L39
 265:..\..\..\HamFlyAPI\src/hamfly_core_telemetry.c **** 
 266:..\..\..\HamFlyAPI\src/hamfly_core_telemetry.c ****     // Decode and populate.
 267:..\..\..\HamFlyAPI\src/hamfly_core_telemetry.c ****     dst->mag_x           = (float)rd_le16(p +  1) / 1000.0f;
 1037              		.loc 1 267 0
 1038 0016 FB68     		ldr	r3, [r7, #12]
 1039 0018 0133     		adds	r3, r3, #1
 1040 001a 1846     		mov	r0, r3
ARM GAS  C:\Users\JENNEW~1\AppData\Local\Temp\ccWiX0IG.s 			page 24


 1041 001c FFF7FEFF 		bl	rd_le16
 1042 0020 0346     		mov	r3, r0
 1043 0022 1846     		mov	r0, r3
 1044 0024 FFF7FEFF 		bl	__aeabi_i2f
 1045 0028 0346     		mov	r3, r0
 1046 002a 5549     		ldr	r1, .L40
 1047 002c 1846     		mov	r0, r3
 1048 002e FFF7FEFF 		bl	__aeabi_fdiv
 1049 0032 0346     		mov	r3, r0
 1050 0034 1A46     		mov	r2, r3
 1051 0036 7B68     		ldr	r3, [r7, #4]
 1052 0038 C3F8BC20 		str	r2, [r3, #188]	@ float
 268:..\..\..\HamFlyAPI\src/hamfly_core_telemetry.c ****     dst->mag_y           = (float)rd_le16(p +  3) / 1000.0f;
 1053              		.loc 1 268 0
 1054 003c FB68     		ldr	r3, [r7, #12]
 1055 003e 0333     		adds	r3, r3, #3
 1056 0040 1846     		mov	r0, r3
 1057 0042 FFF7FEFF 		bl	rd_le16
 1058 0046 0346     		mov	r3, r0
 1059 0048 1846     		mov	r0, r3
 1060 004a FFF7FEFF 		bl	__aeabi_i2f
 1061 004e 0346     		mov	r3, r0
 1062 0050 4B49     		ldr	r1, .L40
 1063 0052 1846     		mov	r0, r3
 1064 0054 FFF7FEFF 		bl	__aeabi_fdiv
 1065 0058 0346     		mov	r3, r0
 1066 005a 1A46     		mov	r2, r3
 1067 005c 7B68     		ldr	r3, [r7, #4]
 1068 005e C3F8C020 		str	r2, [r3, #192]	@ float
 269:..\..\..\HamFlyAPI\src/hamfly_core_telemetry.c ****     dst->mag_z           = (float)rd_le16(p +  5) / 1000.0f;
 1069              		.loc 1 269 0
 1070 0062 FB68     		ldr	r3, [r7, #12]
 1071 0064 0533     		adds	r3, r3, #5
 1072 0066 1846     		mov	r0, r3
 1073 0068 FFF7FEFF 		bl	rd_le16
 1074 006c 0346     		mov	r3, r0
 1075 006e 1846     		mov	r0, r3
 1076 0070 FFF7FEFF 		bl	__aeabi_i2f
 1077 0074 0346     		mov	r3, r0
 1078 0076 4249     		ldr	r1, .L40
 1079 0078 1846     		mov	r0, r3
 1080 007a FFF7FEFF 		bl	__aeabi_fdiv
 1081 007e 0346     		mov	r3, r0
 1082 0080 1A46     		mov	r2, r3
 1083 0082 7B68     		ldr	r3, [r7, #4]
 1084 0084 C3F8C420 		str	r2, [r3, #196]	@ float
 270:..\..\..\HamFlyAPI\src/hamfly_core_telemetry.c ****     dst->mag_magnitude   = (float)rd_le16(p +  7) / 100.0f;
 1085              		.loc 1 270 0
 1086 0088 FB68     		ldr	r3, [r7, #12]
 1087 008a 0733     		adds	r3, r3, #7
 1088 008c 1846     		mov	r0, r3
 1089 008e FFF7FEFF 		bl	rd_le16
 1090 0092 0346     		mov	r3, r0
 1091 0094 1846     		mov	r0, r3
 1092 0096 FFF7FEFF 		bl	__aeabi_i2f
 1093 009a 0346     		mov	r3, r0
 1094 009c 3949     		ldr	r1, .L40+4
ARM GAS  C:\Users\JENNEW~1\AppData\Local\Temp\ccWiX0IG.s 			page 25


 1095 009e 1846     		mov	r0, r3
 1096 00a0 FFF7FEFF 		bl	__aeabi_fdiv
 1097 00a4 0346     		mov	r3, r0
 1098 00a6 1A46     		mov	r2, r3
 1099 00a8 7B68     		ldr	r3, [r7, #4]
 1100 00aa C3F8C820 		str	r2, [r3, #200]	@ float
 271:..\..\..\HamFlyAPI\src/hamfly_core_telemetry.c ****     dst->mag_freq        = (float)rd_le16(p +  9) / 100.0f;
 1101              		.loc 1 271 0
 1102 00ae FB68     		ldr	r3, [r7, #12]
 1103 00b0 0933     		adds	r3, r3, #9
 1104 00b2 1846     		mov	r0, r3
 1105 00b4 FFF7FEFF 		bl	rd_le16
 1106 00b8 0346     		mov	r3, r0
 1107 00ba 1846     		mov	r0, r3
 1108 00bc FFF7FEFF 		bl	__aeabi_i2f
 1109 00c0 0346     		mov	r3, r0
 1110 00c2 3049     		ldr	r1, .L40+4
 1111 00c4 1846     		mov	r0, r3
 1112 00c6 FFF7FEFF 		bl	__aeabi_fdiv
 1113 00ca 0346     		mov	r3, r0
 1114 00cc 1A46     		mov	r2, r3
 1115 00ce 7B68     		ldr	r3, [r7, #4]
 1116 00d0 C3F8CC20 		str	r2, [r3, #204]	@ float
 272:..\..\..\HamFlyAPI\src/hamfly_core_telemetry.c ****     dst->mag_off_x       = (float)rd_le16(p + 11) / 1000.0f;
 1117              		.loc 1 272 0
 1118 00d4 FB68     		ldr	r3, [r7, #12]
 1119 00d6 0B33     		adds	r3, r3, #11
 1120 00d8 1846     		mov	r0, r3
 1121 00da FFF7FEFF 		bl	rd_le16
 1122 00de 0346     		mov	r3, r0
 1123 00e0 1846     		mov	r0, r3
 1124 00e2 FFF7FEFF 		bl	__aeabi_i2f
 1125 00e6 0346     		mov	r3, r0
 1126 00e8 2549     		ldr	r1, .L40
 1127 00ea 1846     		mov	r0, r3
 1128 00ec FFF7FEFF 		bl	__aeabi_fdiv
 1129 00f0 0346     		mov	r3, r0
 1130 00f2 1A46     		mov	r2, r3
 1131 00f4 7B68     		ldr	r3, [r7, #4]
 1132 00f6 C3F8D020 		str	r2, [r3, #208]	@ float
 273:..\..\..\HamFlyAPI\src/hamfly_core_telemetry.c ****     dst->mag_off_y       = (float)rd_le16(p + 13) / 1000.0f;
 1133              		.loc 1 273 0
 1134 00fa FB68     		ldr	r3, [r7, #12]
 1135 00fc 0D33     		adds	r3, r3, #13
 1136 00fe 1846     		mov	r0, r3
 1137 0100 FFF7FEFF 		bl	rd_le16
 1138 0104 0346     		mov	r3, r0
 1139 0106 1846     		mov	r0, r3
 1140 0108 FFF7FEFF 		bl	__aeabi_i2f
 1141 010c 0346     		mov	r3, r0
 1142 010e 1C49     		ldr	r1, .L40
 1143 0110 1846     		mov	r0, r3
 1144 0112 FFF7FEFF 		bl	__aeabi_fdiv
 1145 0116 0346     		mov	r3, r0
 1146 0118 1A46     		mov	r2, r3
 1147 011a 7B68     		ldr	r3, [r7, #4]
 1148 011c C3F8D420 		str	r2, [r3, #212]	@ float
ARM GAS  C:\Users\JENNEW~1\AppData\Local\Temp\ccWiX0IG.s 			page 26


 274:..\..\..\HamFlyAPI\src/hamfly_core_telemetry.c ****     dst->mag_off_z       = (float)rd_le16(p + 15) / 1000.0f;
 1149              		.loc 1 274 0
 1150 0120 FB68     		ldr	r3, [r7, #12]
 1151 0122 0F33     		adds	r3, r3, #15
 1152 0124 1846     		mov	r0, r3
 1153 0126 FFF7FEFF 		bl	rd_le16
 1154 012a 0346     		mov	r3, r0
 1155 012c 1846     		mov	r0, r3
 1156 012e FFF7FEFF 		bl	__aeabi_i2f
 1157 0132 0346     		mov	r3, r0
 1158 0134 1249     		ldr	r1, .L40
 1159 0136 1846     		mov	r0, r3
 1160 0138 FFF7FEFF 		bl	__aeabi_fdiv
 1161 013c 0346     		mov	r3, r0
 1162 013e 1A46     		mov	r2, r3
 1163 0140 7B68     		ldr	r3, [r7, #4]
 1164 0142 C3F8D820 		str	r2, [r3, #216]	@ float
 275:..\..\..\HamFlyAPI\src/hamfly_core_telemetry.c ****     dst->mag_declination = (float)rd_le16(p + 17) / 10.0f;
 1165              		.loc 1 275 0
 1166 0146 FB68     		ldr	r3, [r7, #12]
 1167 0148 1133     		adds	r3, r3, #17
 1168 014a 1846     		mov	r0, r3
 1169 014c FFF7FEFF 		bl	rd_le16
 1170 0150 0346     		mov	r3, r0
 1171 0152 1846     		mov	r0, r3
 1172 0154 FFF7FEFF 		bl	__aeabi_i2f
 1173 0158 0346     		mov	r3, r0
 1174 015a 0B49     		ldr	r1, .L40+8
 1175 015c 1846     		mov	r0, r3
 1176 015e FFF7FEFF 		bl	__aeabi_fdiv
 1177 0162 0346     		mov	r3, r0
 1178 0164 1A46     		mov	r2, r3
 1179 0166 7B68     		ldr	r3, [r7, #4]
 1180 0168 C3F8DC20 		str	r2, [r3, #220]	@ float
 276:..\..\..\HamFlyAPI\src/hamfly_core_telemetry.c ****     dst->mag_valid       = true;
 1181              		.loc 1 276 0
 1182 016c 7B68     		ldr	r3, [r7, #4]
 1183 016e 0122     		movs	r2, #1
 1184 0170 83F8BA20 		strb	r2, [r3, #186]
 1185 0174 00E0     		b	.L36
 1186              	.L39:
 264:..\..\..\HamFlyAPI\src/hamfly_core_telemetry.c **** 
 1187              		.loc 1 264 0
 1188 0176 00BF     		nop
 1189              	.L36:
 277:..\..\..\HamFlyAPI\src/hamfly_core_telemetry.c **** }
 1190              		.loc 1 277 0
 1191 0178 1037     		adds	r7, r7, #16
 1192              		.cfi_def_cfa_offset 8
 1193 017a BD46     		mov	sp, r7
 1194              		.cfi_def_cfa_register 13
 1195              		@ sp needed
 1196 017c 80BD     		pop	{r7, pc}
 1197              	.L41:
 1198 017e 00BF     		.align	2
 1199              	.L40:
 1200 0180 00007A44 		.word	1148846080
ARM GAS  C:\Users\JENNEW~1\AppData\Local\Temp\ccWiX0IG.s 			page 27


 1201 0184 0000C842 		.word	1120403456
 1202 0188 00002041 		.word	1092616192
 1203              		.cfi_endproc
 1204              	.LFE9:
 1205              		.size	hamfly_decode_mag, .-hamfly_decode_mag
 1206              		.section	.text.hamfly_decode_sysecho,"ax",%progbits
 1207              		.align	2
 1208              		.global	hamfly_decode_sysecho
 1209              		.thumb
 1210              		.thumb_func
 1211              		.type	hamfly_decode_sysecho, %function
 1212              	hamfly_decode_sysecho:
 1213              	.LFB10:
 278:..\..\..\HamFlyAPI\src/hamfly_core_telemetry.c **** 
 279:..\..\..\HamFlyAPI\src/hamfly_core_telemetry.c **** // ============================================================================
 280:..\..\..\HamFlyAPI\src/hamfly_core_telemetry.c **** // Hamfly Decode System Echo [Hamfly Specific] -- attr 48
 281:..\..\..\HamFlyAPI\src/hamfly_core_telemetry.c **** // ============================================================================
 282:..\..\..\HamFlyAPI\src/hamfly_core_telemetry.c **** // Composite read-only status block. Mirrors several attr 1 and attr 4 fields.
 283:..\..\..\HamFlyAPI\src/hamfly_core_telemetry.c **** // Single round trip gives GPS lock state, rough position, pressure, IMU rate.
 284:..\..\..\HamFlyAPI\src/hamfly_core_telemetry.c **** //
 285:..\..\..\HamFlyAPI\src/hamfly_core_telemetry.c **** // off 0-7   GPS position bytes (mirrors attr 4 lon/lat when GPS locked).
 286:..\..\..\HamFlyAPI\src/hamfly_core_telemetry.c **** // off 8     status byte: 0x09 = GPS locked, 0xCB = no lock.
 287:..\..\..\HamFlyAPI\src/hamfly_core_telemetry.c **** // off 9-10  BE int16: pressure /10 mb (mirrors attr 1 off 9-10).
 288:..\..\..\HamFlyAPI\src/hamfly_core_telemetry.c **** // off 11-12 BE int16: IMU rate (mirrors attr 1 off 11-12).
 289:..\..\..\HamFlyAPI\src/hamfly_core_telemetry.c **** // off 13    always 0x00.
 290:..\..\..\HamFlyAPI\src/hamfly_core_telemetry.c **** // ============================================================================
 291:..\..\..\HamFlyAPI\src/hamfly_core_telemetry.c **** void hamfly_decode_sysecho(const uint8_t *p, uint16_t plen,
 292:..\..\..\HamFlyAPI\src/hamfly_core_telemetry.c ****                             hamfly_telemetry_t *dst)
 293:..\..\..\HamFlyAPI\src/hamfly_core_telemetry.c **** {
 1214              		.loc 1 293 0
 1215              		.cfi_startproc
 1216              		@ args = 0, pretend = 0, frame = 16
 1217              		@ frame_needed = 1, uses_anonymous_args = 0
 1218 0000 80B5     		push	{r7, lr}
 1219              		.cfi_def_cfa_offset 8
 1220              		.cfi_offset 7, -8
 1221              		.cfi_offset 14, -4
 1222 0002 84B0     		sub	sp, sp, #16
 1223              		.cfi_def_cfa_offset 24
 1224 0004 00AF     		add	r7, sp, #0
 1225              		.cfi_def_cfa_register 7
 1226 0006 F860     		str	r0, [r7, #12]
 1227 0008 0B46     		mov	r3, r1
 1228 000a 7A60     		str	r2, [r7, #4]
 1229 000c 7B81     		strh	r3, [r7, #10]	@ movhi
 294:..\..\..\HamFlyAPI\src/hamfly_core_telemetry.c ****     if (plen < 13u) return;
 1230              		.loc 1 294 0
 1231 000e 7B89     		ldrh	r3, [r7, #10]
 1232 0010 0C2B     		cmp	r3, #12
 1233 0012 2CD9     		bls	.L45
 295:..\..\..\HamFlyAPI\src/hamfly_core_telemetry.c ****     dst->sysecho_gps_locked  = (p[8] == 0x09u);
 1234              		.loc 1 295 0
 1235 0014 FB68     		ldr	r3, [r7, #12]
 1236 0016 0833     		adds	r3, r3, #8
 1237 0018 1B78     		ldrb	r3, [r3]	@ zero_extendqisi2
 1238 001a 092B     		cmp	r3, #9
 1239 001c 0CBF     		ite	eq
ARM GAS  C:\Users\JENNEW~1\AppData\Local\Temp\ccWiX0IG.s 			page 28


 1240 001e 0123     		moveq	r3, #1
 1241 0020 0023     		movne	r3, #0
 1242 0022 DAB2     		uxtb	r2, r3
 1243 0024 7B68     		ldr	r3, [r7, #4]
 1244 0026 83F8E120 		strb	r2, [r3, #225]
 296:..\..\..\HamFlyAPI\src/hamfly_core_telemetry.c ****     dst->sysecho_pressure_mb = (float)rd_be16(p +  9) / 10.0f;
 1245              		.loc 1 296 0
 1246 002a FB68     		ldr	r3, [r7, #12]
 1247 002c 0933     		adds	r3, r3, #9
 1248 002e 1846     		mov	r0, r3
 1249 0030 FFF7FEFF 		bl	rd_be16
 1250 0034 0346     		mov	r3, r0
 1251 0036 1846     		mov	r0, r3
 1252 0038 FFF7FEFF 		bl	__aeabi_i2f
 1253 003c 0346     		mov	r3, r0
 1254 003e 0E49     		ldr	r1, .L46
 1255 0040 1846     		mov	r0, r3
 1256 0042 FFF7FEFF 		bl	__aeabi_fdiv
 1257 0046 0346     		mov	r3, r0
 1258 0048 1A46     		mov	r2, r3
 1259 004a 7B68     		ldr	r3, [r7, #4]
 1260 004c C3F8E420 		str	r2, [r3, #228]	@ float
 297:..\..\..\HamFlyAPI\src/hamfly_core_telemetry.c ****     dst->sysecho_imu_rate    = rd_be16(p + 11);
 1261              		.loc 1 297 0
 1262 0050 FB68     		ldr	r3, [r7, #12]
 1263 0052 0B33     		adds	r3, r3, #11
 1264 0054 1846     		mov	r0, r3
 1265 0056 FFF7FEFF 		bl	rd_be16
 1266 005a 0346     		mov	r3, r0
 1267 005c 1A46     		mov	r2, r3
 1268 005e 7B68     		ldr	r3, [r7, #4]
 1269 0060 A3F8E820 		strh	r2, [r3, #232]	@ movhi
 298:..\..\..\HamFlyAPI\src/hamfly_core_telemetry.c ****     dst->sysecho_valid       = true;
 1270              		.loc 1 298 0
 1271 0064 7B68     		ldr	r3, [r7, #4]
 1272 0066 0122     		movs	r2, #1
 1273 0068 83F8E020 		strb	r2, [r3, #224]
 1274 006c 00E0     		b	.L42
 1275              	.L45:
 294:..\..\..\HamFlyAPI\src/hamfly_core_telemetry.c ****     dst->sysecho_gps_locked  = (p[8] == 0x09u);
 1276              		.loc 1 294 0
 1277 006e 00BF     		nop
 1278              	.L42:
 299:..\..\..\HamFlyAPI\src/hamfly_core_telemetry.c **** }
 1279              		.loc 1 299 0
 1280 0070 1037     		adds	r7, r7, #16
 1281              		.cfi_def_cfa_offset 8
 1282 0072 BD46     		mov	sp, r7
 1283              		.cfi_def_cfa_register 13
 1284              		@ sp needed
 1285 0074 80BD     		pop	{r7, pc}
 1286              	.L47:
 1287 0076 00BF     		.align	2
 1288              	.L46:
 1289 0078 00002041 		.word	1092616192
 1290              		.cfi_endproc
 1291              	.LFE10:
ARM GAS  C:\Users\JENNEW~1\AppData\Local\Temp\ccWiX0IG.s 			page 29


 1292              		.size	hamfly_decode_sysecho, .-hamfly_decode_sysecho
 1293              		.text
 1294              	.Letext0:
 1295              		.file 2 "c:\\program files (x86)\\cypress\\psoc creator\\4.4\\psoc creator\\import\\gnu\\arm\\5.4.
 1296              		.file 3 "c:\\program files (x86)\\cypress\\psoc creator\\4.4\\psoc creator\\import\\gnu\\arm\\5.4.
 1297              		.file 4 "..\\..\\..\\HamFlyAPI\\src\\hamfly_core_telemetry.h"
 1298              		.file 5 "..\\..\\..\\HamFlyAPI\\src\\hamfly_qx_app.h"