ARM GAS  C:\Users\JENNEW~1\AppData\Local\Temp\cc7U2Ept.s 			page 1


   1              		.syntax unified
   2              		.cpu cortex-m3
   3              		.fpu softvfp
   4              		.eabi_attribute 20, 1
   5              		.eabi_attribute 21, 1
   6              		.eabi_attribute 23, 3
   7              		.eabi_attribute 24, 1
   8              		.eabi_attribute 25, 1
   9              		.eabi_attribute 26, 1
  10              		.eabi_attribute 30, 6
  11              		.eabi_attribute 34, 1
  12              		.eabi_attribute 18, 4
  13              		.thumb
  14              		.syntax unified
  15              		.file	"joystick.c"
  16              		.text
  17              	.Ltext0:
  18              		.cfi_sections	.debug_frame
  19              		.bss
  20              		.align	2
  21              	s_default:
  22 0000 00000000 		.space	14
  22      00000000 
  22      00000000 
  22      0000
  23 000e 0000     		.align	2
  24              	s_saved:
  25 0010 00000000 		.space	14
  25      00000000 
  25      00000000 
  25      0000
  26 001e 0000     		.align	2
  27              	s_work:
  28 0020 00000000 		.space	14
  28      00000000 
  28      00000000 
  28      0000
  29              	s_state:
  30 002e 00       		.space	1
  31 002f 00       		.align	2
  32              	s_latest_counts:
  33 0030 00000000 		.space	4
  34              		.align	2
  35              	s_invert_mask:
  36 0034 00000000 		.space	4
  37              		.align	2
  38              	s_center_sum:
  39 0038 00000000 		.space	8
  39      00000000 
  40              		.align	1
  41              	s_center_n:
  42 0040 0000     		.space	2
  43              		.global	__aeabi_i2f
  44              		.global	__aeabi_fdiv
  45              		.section	.text.normalize_axis,"ax",%progbits
  46              		.align	2
  47              		.thumb
ARM GAS  C:\Users\JENNEW~1\AppData\Local\Temp\cc7U2Ept.s 			page 2


  48              		.thumb_func
  49              		.type	normalize_axis, %function
  50              	normalize_axis:
  51              	.LFB63:
  52              		.file 1 "joystick.c"
   1:joystick.c    **** /* joystick.c */
   2:joystick.c    **** 
   3:joystick.c    **** #include "joystick.h"
   4:joystick.c    **** 
   5:joystick.c    **** /* ---- Internal persistent state ---- */
   6:joystick.c    **** static joy_cal_t s_default;
   7:joystick.c    **** static joy_cal_t s_saved;
   8:joystick.c    **** static joy_cal_t s_work;
   9:joystick.c    **** 
  10:joystick.c    **** static joy_cal_state_t s_state = JOY_CAL_OFF;
  11:joystick.c    **** 
  12:joystick.c    **** static int16 s_latest_counts[N_CH];
  13:joystick.c    **** static uint32 s_invert_mask = 0u;
  14:joystick.c    **** 
  15:joystick.c    **** /* Center capture accumulators */
  16:joystick.c    **** static int32  s_center_sum[N_CH];
  17:joystick.c    **** static uint16 s_center_n = 0u;
  18:joystick.c    **** 
  19:joystick.c    **** /* ---- Math helpers ---- */
  20:joystick.c    **** static float normalize_axis(int16 c, int16 cmin, int16 ccenter, int16 cmax)
  21:joystick.c    **** {
  53              		.loc 1 21 0
  54              		.cfi_startproc
  55              		@ args = 0, pretend = 0, frame = 16
  56              		@ frame_needed = 1, uses_anonymous_args = 0
  57 0000 90B5     		push	{r4, r7, lr}
  58              		.cfi_def_cfa_offset 12
  59              		.cfi_offset 4, -12
  60              		.cfi_offset 7, -8
  61              		.cfi_offset 14, -4
  62 0002 85B0     		sub	sp, sp, #20
  63              		.cfi_def_cfa_offset 32
  64 0004 00AF     		add	r7, sp, #0
  65              		.cfi_def_cfa_register 7
  66 0006 0446     		mov	r4, r0
  67 0008 0846     		mov	r0, r1
  68 000a 1146     		mov	r1, r2
  69 000c 1A46     		mov	r2, r3
  70 000e 2346     		mov	r3, r4	@ movhi
  71 0010 FB80     		strh	r3, [r7, #6]	@ movhi
  72 0012 0346     		mov	r3, r0	@ movhi
  73 0014 BB80     		strh	r3, [r7, #4]	@ movhi
  74 0016 0B46     		mov	r3, r1	@ movhi
  75 0018 7B80     		strh	r3, [r7, #2]	@ movhi
  76 001a 1346     		mov	r3, r2	@ movhi
  77 001c 3B80     		strh	r3, [r7]	@ movhi
  22:joystick.c    ****     if (c < cmin) c = cmin;
  78              		.loc 1 22 0
  79 001e B7F90620 		ldrsh	r2, [r7, #6]
  80 0022 B7F90430 		ldrsh	r3, [r7, #4]
  81 0026 9A42     		cmp	r2, r3
  82 0028 01DA     		bge	.L2
ARM GAS  C:\Users\JENNEW~1\AppData\Local\Temp\cc7U2Ept.s 			page 3


  83              		.loc 1 22 0 is_stmt 0 discriminator 1
  84 002a BB88     		ldrh	r3, [r7, #4]	@ movhi
  85 002c FB80     		strh	r3, [r7, #6]	@ movhi
  86              	.L2:
  23:joystick.c    ****     if (c > cmax) c = cmax;
  87              		.loc 1 23 0 is_stmt 1
  88 002e B7F90620 		ldrsh	r2, [r7, #6]
  89 0032 B7F90030 		ldrsh	r3, [r7]
  90 0036 9A42     		cmp	r2, r3
  91 0038 01DD     		ble	.L3
  92              		.loc 1 23 0 is_stmt 0 discriminator 1
  93 003a 3B88     		ldrh	r3, [r7]	@ movhi
  94 003c FB80     		strh	r3, [r7, #6]	@ movhi
  95              	.L3:
  24:joystick.c    **** 
  25:joystick.c    ****     int16 span_pos = (int16)(cmax - ccenter);
  96              		.loc 1 25 0 is_stmt 1
  97 003e 3A88     		ldrh	r2, [r7]
  98 0040 7B88     		ldrh	r3, [r7, #2]
  99 0042 D31A     		subs	r3, r2, r3
 100 0044 9BB2     		uxth	r3, r3
 101 0046 FB81     		strh	r3, [r7, #14]	@ movhi
  26:joystick.c    ****     int16 span_neg = (int16)(ccenter - cmin);
 102              		.loc 1 26 0
 103 0048 7A88     		ldrh	r2, [r7, #2]
 104 004a BB88     		ldrh	r3, [r7, #4]
 105 004c D31A     		subs	r3, r2, r3
 106 004e 9BB2     		uxth	r3, r3
 107 0050 BB81     		strh	r3, [r7, #12]	@ movhi
  27:joystick.c    **** 
  28:joystick.c    ****     if (span_pos <= 0) span_pos = 1;
 108              		.loc 1 28 0
 109 0052 B7F90E30 		ldrsh	r3, [r7, #14]
 110 0056 002B     		cmp	r3, #0
 111 0058 01DC     		bgt	.L4
 112              		.loc 1 28 0 is_stmt 0 discriminator 1
 113 005a 0123     		movs	r3, #1
 114 005c FB81     		strh	r3, [r7, #14]	@ movhi
 115              	.L4:
  29:joystick.c    ****     if (span_neg <= 0) span_neg = 1;
 116              		.loc 1 29 0 is_stmt 1
 117 005e B7F90C30 		ldrsh	r3, [r7, #12]
 118 0062 002B     		cmp	r3, #0
 119 0064 01DC     		bgt	.L5
 120              		.loc 1 29 0 is_stmt 0 discriminator 1
 121 0066 0123     		movs	r3, #1
 122 0068 BB81     		strh	r3, [r7, #12]	@ movhi
 123              	.L5:
  30:joystick.c    **** 
  31:joystick.c    ****     if (c >= ccenter)
 124              		.loc 1 31 0 is_stmt 1
 125 006a B7F90620 		ldrsh	r2, [r7, #6]
 126 006e B7F90230 		ldrsh	r3, [r7, #2]
 127 0072 9A42     		cmp	r2, r3
 128 0074 14DB     		blt	.L6
  32:joystick.c    ****         return (float)(c - ccenter) / (float)span_pos;  /* 0..+1 */
 129              		.loc 1 32 0
ARM GAS  C:\Users\JENNEW~1\AppData\Local\Temp\cc7U2Ept.s 			page 4


 130 0076 B7F90620 		ldrsh	r2, [r7, #6]
 131 007a B7F90230 		ldrsh	r3, [r7, #2]
 132 007e D31A     		subs	r3, r2, r3
 133 0080 1846     		mov	r0, r3
 134 0082 FFF7FEFF 		bl	__aeabi_i2f
 135 0086 0446     		mov	r4, r0
 136 0088 B7F90E30 		ldrsh	r3, [r7, #14]
 137 008c 1846     		mov	r0, r3
 138 008e FFF7FEFF 		bl	__aeabi_i2f
 139 0092 0346     		mov	r3, r0
 140 0094 1946     		mov	r1, r3
 141 0096 2046     		mov	r0, r4
 142 0098 FFF7FEFF 		bl	__aeabi_fdiv
 143 009c 0346     		mov	r3, r0
 144 009e 13E0     		b	.L7
 145              	.L6:
  33:joystick.c    ****     else
  34:joystick.c    ****         return (float)(c - ccenter) / (float)span_neg;  /* 0..-1 */
 146              		.loc 1 34 0
 147 00a0 B7F90620 		ldrsh	r2, [r7, #6]
 148 00a4 B7F90230 		ldrsh	r3, [r7, #2]
 149 00a8 D31A     		subs	r3, r2, r3
 150 00aa 1846     		mov	r0, r3
 151 00ac FFF7FEFF 		bl	__aeabi_i2f
 152 00b0 0446     		mov	r4, r0
 153 00b2 B7F90C30 		ldrsh	r3, [r7, #12]
 154 00b6 1846     		mov	r0, r3
 155 00b8 FFF7FEFF 		bl	__aeabi_i2f
 156 00bc 0346     		mov	r3, r0
 157 00be 1946     		mov	r1, r3
 158 00c0 2046     		mov	r0, r4
 159 00c2 FFF7FEFF 		bl	__aeabi_fdiv
 160 00c6 0346     		mov	r3, r0
 161              	.L7:
  35:joystick.c    **** }
 162              		.loc 1 35 0
 163 00c8 1846     		mov	r0, r3
 164 00ca 1437     		adds	r7, r7, #20
 165              		.cfi_def_cfa_offset 12
 166 00cc BD46     		mov	sp, r7
 167              		.cfi_def_cfa_register 13
 168              		@ sp needed
 169 00ce 90BD     		pop	{r4, r7, pc}
 170              		.cfi_endproc
 171              	.LFE63:
 172              		.size	normalize_axis, .-normalize_axis
 173              		.global	__aeabi_fcmplt
 174              		.global	__aeabi_fcmpgt
 175              		.global	__aeabi_fsub
 176              		.global	__aeabi_fadd
 177              		.section	.text.apply_deadband,"ax",%progbits
 178              		.align	2
 179              		.thumb
 180              		.thumb_func
 181              		.type	apply_deadband, %function
 182              	apply_deadband:
 183              	.LFB64:
ARM GAS  C:\Users\JENNEW~1\AppData\Local\Temp\cc7U2Ept.s 			page 5


  36:joystick.c    **** 
  37:joystick.c    **** static float apply_deadband(float u, float db)
  38:joystick.c    **** {
 184              		.loc 1 38 0
 185              		.cfi_startproc
 186              		@ args = 0, pretend = 0, frame = 8
 187              		@ frame_needed = 1, uses_anonymous_args = 0
 188 0000 90B5     		push	{r4, r7, lr}
 189              		.cfi_def_cfa_offset 12
 190              		.cfi_offset 4, -12
 191              		.cfi_offset 7, -8
 192              		.cfi_offset 14, -4
 193 0002 83B0     		sub	sp, sp, #12
 194              		.cfi_def_cfa_offset 24
 195 0004 00AF     		add	r7, sp, #0
 196              		.cfi_def_cfa_register 7
 197 0006 7860     		str	r0, [r7, #4]	@ float
 198 0008 3960     		str	r1, [r7]	@ float
  39:joystick.c    ****     if (u > -db && u < db)
 199              		.loc 1 39 0
 200 000a 3B68     		ldr	r3, [r7]
 201 000c 83F00043 		eor	r3, r3, #-2147483648
 202 0010 7968     		ldr	r1, [r7, #4]	@ float
 203 0012 1846     		mov	r0, r3
 204 0014 FFF7FEFF 		bl	__aeabi_fcmplt
 205 0018 0346     		mov	r3, r0
 206 001a 002B     		cmp	r3, #0
 207 001c 09D0     		beq	.L9
 208              		.loc 1 39 0 is_stmt 0 discriminator 1
 209 001e 3968     		ldr	r1, [r7]	@ float
 210 0020 7868     		ldr	r0, [r7, #4]	@ float
 211 0022 FFF7FEFF 		bl	__aeabi_fcmplt
 212 0026 0346     		mov	r3, r0
 213 0028 002B     		cmp	r3, #0
 214 002a 02D0     		beq	.L9
  40:joystick.c    ****         return 0.0f;
 215              		.loc 1 40 0 is_stmt 1
 216 002c 4FF00003 		mov	r3, #0
 217 0030 2AE0     		b	.L12
 218              	.L9:
  41:joystick.c    **** 
  42:joystick.c    ****     if (u > 0.0f)
 219              		.loc 1 42 0
 220 0032 4FF00001 		mov	r1, #0
 221 0036 7868     		ldr	r0, [r7, #4]	@ float
 222 0038 FFF7FEFF 		bl	__aeabi_fcmpgt
 223 003c 0346     		mov	r3, r0
 224 003e 002B     		cmp	r3, #0
 225 0040 11D0     		beq	.L18
  43:joystick.c    ****         return (u - db) / (1.0f - db);
 226              		.loc 1 43 0
 227 0042 3968     		ldr	r1, [r7]	@ float
 228 0044 7868     		ldr	r0, [r7, #4]	@ float
 229 0046 FFF7FEFF 		bl	__aeabi_fsub
 230 004a 0346     		mov	r3, r0
 231 004c 1C46     		mov	r4, r3
 232 004e 3968     		ldr	r1, [r7]	@ float
ARM GAS  C:\Users\JENNEW~1\AppData\Local\Temp\cc7U2Ept.s 			page 6


 233 0050 4FF07E50 		mov	r0, #1065353216
 234 0054 FFF7FEFF 		bl	__aeabi_fsub
 235 0058 0346     		mov	r3, r0
 236 005a 1946     		mov	r1, r3
 237 005c 2046     		mov	r0, r4
 238 005e FFF7FEFF 		bl	__aeabi_fdiv
 239 0062 0346     		mov	r3, r0
 240 0064 10E0     		b	.L12
 241              	.L18:
  44:joystick.c    ****     else
  45:joystick.c    ****         return (u + db) / (1.0f - db);
 242              		.loc 1 45 0
 243 0066 3968     		ldr	r1, [r7]	@ float
 244 0068 7868     		ldr	r0, [r7, #4]	@ float
 245 006a FFF7FEFF 		bl	__aeabi_fadd
 246 006e 0346     		mov	r3, r0
 247 0070 1C46     		mov	r4, r3
 248 0072 3968     		ldr	r1, [r7]	@ float
 249 0074 4FF07E50 		mov	r0, #1065353216
 250 0078 FFF7FEFF 		bl	__aeabi_fsub
 251 007c 0346     		mov	r3, r0
 252 007e 1946     		mov	r1, r3
 253 0080 2046     		mov	r0, r4
 254 0082 FFF7FEFF 		bl	__aeabi_fdiv
 255 0086 0346     		mov	r3, r0
 256              	.L12:
  46:joystick.c    **** }
 257              		.loc 1 46 0
 258 0088 1846     		mov	r0, r3
 259 008a 0C37     		adds	r7, r7, #12
 260              		.cfi_def_cfa_offset 12
 261 008c BD46     		mov	sp, r7
 262              		.cfi_def_cfa_register 13
 263              		@ sp needed
 264 008e 90BD     		pop	{r4, r7, pc}
 265              		.cfi_endproc
 266              	.LFE64:
 267              		.size	apply_deadband, .-apply_deadband
 268              		.section	.text.joystick_validate,"ax",%progbits
 269              		.align	2
 270              		.global	joystick_validate
 271              		.thumb
 272              		.thumb_func
 273              		.type	joystick_validate, %function
 274              	joystick_validate:
 275              	.LFB65:
  47:joystick.c    **** 
  48:joystick.c    **** /* ---- Calibration helpers ---- */
  49:joystick.c    **** uint8 joystick_validate(const joy_cal_t *c)
  50:joystick.c    **** {
 276              		.loc 1 50 0
 277              		.cfi_startproc
 278              		@ args = 0, pretend = 0, frame = 16
 279              		@ frame_needed = 1, uses_anonymous_args = 0
 280              		@ link register save eliminated.
 281 0000 80B4     		push	{r7}
 282              		.cfi_def_cfa_offset 4
ARM GAS  C:\Users\JENNEW~1\AppData\Local\Temp\cc7U2Ept.s 			page 7


 283              		.cfi_offset 7, -4
 284 0002 85B0     		sub	sp, sp, #20
 285              		.cfi_def_cfa_offset 24
 286 0004 00AF     		add	r7, sp, #0
 287              		.cfi_def_cfa_register 7
 288 0006 7860     		str	r0, [r7, #4]
 289              	.LBB2:
  51:joystick.c    ****     for (uint8 i = 0u; i < (uint8)N_CH; i++)
 290              		.loc 1 51 0
 291 0008 0023     		movs	r3, #0
 292 000a FB73     		strb	r3, [r7, #15]
 293 000c 31E0     		b	.L20
 294              	.L25:
 295              	.LBB3:
  52:joystick.c    ****     {
  53:joystick.c    ****         int16 span = (int16)(c->maxv[i] - c->minv[i]);
 296              		.loc 1 53 0
 297 000e FB7B     		ldrb	r3, [r7, #15]	@ zero_extendqisi2
 298 0010 7A68     		ldr	r2, [r7, #4]
 299 0012 5B00     		lsls	r3, r3, #1
 300 0014 1344     		add	r3, r3, r2
 301 0016 B3F90430 		ldrsh	r3, [r3, #4]
 302 001a 9AB2     		uxth	r2, r3
 303 001c F97B     		ldrb	r1, [r7, #15]	@ zero_extendqisi2
 304 001e 7B68     		ldr	r3, [r7, #4]
 305 0020 33F91130 		ldrsh	r3, [r3, r1, lsl #1]
 306 0024 9BB2     		uxth	r3, r3
 307 0026 D31A     		subs	r3, r2, r3
 308 0028 9BB2     		uxth	r3, r3
 309 002a BB81     		strh	r3, [r7, #12]	@ movhi
  54:joystick.c    ****         if (span < (int16)CAL_MIN_SPAN_COUNTS) return 0u;
 310              		.loc 1 54 0
 311 002c B7F90C30 		ldrsh	r3, [r7, #12]
 312 0030 132B     		cmp	r3, #19
 313 0032 01DC     		bgt	.L21
 314              		.loc 1 54 0 is_stmt 0 discriminator 1
 315 0034 0023     		movs	r3, #0
 316 0036 20E0     		b	.L22
 317              	.L21:
  55:joystick.c    **** 
  56:joystick.c    ****         if (!(c->minv[i] < c->center[i] && c->center[i] < c->maxv[i])) return 0u;
 318              		.loc 1 56 0 is_stmt 1
 319 0038 FA7B     		ldrb	r2, [r7, #15]	@ zero_extendqisi2
 320 003a 7B68     		ldr	r3, [r7, #4]
 321 003c 33F91220 		ldrsh	r2, [r3, r2, lsl #1]
 322 0040 F97B     		ldrb	r1, [r7, #15]	@ zero_extendqisi2
 323 0042 7B68     		ldr	r3, [r7, #4]
 324 0044 0431     		adds	r1, r1, #4
 325 0046 33F91130 		ldrsh	r3, [r3, r1, lsl #1]
 326 004a 9A42     		cmp	r2, r3
 327 004c 0CDA     		bge	.L23
 328              		.loc 1 56 0 is_stmt 0 discriminator 2
 329 004e FA7B     		ldrb	r2, [r7, #15]	@ zero_extendqisi2
 330 0050 7B68     		ldr	r3, [r7, #4]
 331 0052 0432     		adds	r2, r2, #4
 332 0054 33F91220 		ldrsh	r2, [r3, r2, lsl #1]
 333 0058 FB7B     		ldrb	r3, [r7, #15]	@ zero_extendqisi2
ARM GAS  C:\Users\JENNEW~1\AppData\Local\Temp\cc7U2Ept.s 			page 8


 334 005a 7968     		ldr	r1, [r7, #4]
 335 005c 5B00     		lsls	r3, r3, #1
 336 005e 0B44     		add	r3, r3, r1
 337 0060 B3F90430 		ldrsh	r3, [r3, #4]
 338 0064 9A42     		cmp	r2, r3
 339 0066 01DB     		blt	.L24
 340              	.L23:
 341              		.loc 1 56 0 discriminator 3
 342 0068 0023     		movs	r3, #0
 343 006a 06E0     		b	.L22
 344              	.L24:
 345              	.LBE3:
  51:joystick.c    ****     {
 346              		.loc 1 51 0 is_stmt 1 discriminator 2
 347 006c FB7B     		ldrb	r3, [r7, #15]	@ zero_extendqisi2
 348 006e 0133     		adds	r3, r3, #1
 349 0070 FB73     		strb	r3, [r7, #15]
 350              	.L20:
  51:joystick.c    ****     {
 351              		.loc 1 51 0 is_stmt 0 discriminator 1
 352 0072 FB7B     		ldrb	r3, [r7, #15]	@ zero_extendqisi2
 353 0074 012B     		cmp	r3, #1
 354 0076 CAD9     		bls	.L25
 355              	.LBE2:
  57:joystick.c    ****     }
  58:joystick.c    ****     return 1u;
 356              		.loc 1 58 0 is_stmt 1
 357 0078 0123     		movs	r3, #1
 358              	.L22:
  59:joystick.c    **** }
 359              		.loc 1 59 0
 360 007a 1846     		mov	r0, r3
 361 007c 1437     		adds	r7, r7, #20
 362              		.cfi_def_cfa_offset 4
 363 007e BD46     		mov	sp, r7
 364              		.cfi_def_cfa_register 13
 365              		@ sp needed
 366 0080 80BC     		pop	{r7}
 367              		.cfi_restore 7
 368              		.cfi_def_cfa_offset 0
 369 0082 7047     		bx	lr
 370              		.cfi_endproc
 371              	.LFE65:
 372              		.size	joystick_validate, .-joystick_validate
 373              		.section	.text.cal_begin_range_capture,"ax",%progbits
 374              		.align	2
 375              		.thumb
 376              		.thumb_func
 377              		.type	cal_begin_range_capture, %function
 378              	cal_begin_range_capture:
 379              	.LFB66:
  60:joystick.c    **** 
  61:joystick.c    **** static void cal_begin_range_capture(const int16 counts[N_CH])
  62:joystick.c    **** {
 380              		.loc 1 62 0
 381              		.cfi_startproc
 382              		@ args = 0, pretend = 0, frame = 16
ARM GAS  C:\Users\JENNEW~1\AppData\Local\Temp\cc7U2Ept.s 			page 9


 383              		@ frame_needed = 1, uses_anonymous_args = 0
 384              		@ link register save eliminated.
 385 0000 90B4     		push	{r4, r7}
 386              		.cfi_def_cfa_offset 8
 387              		.cfi_offset 4, -8
 388              		.cfi_offset 7, -4
 389 0002 84B0     		sub	sp, sp, #16
 390              		.cfi_def_cfa_offset 24
 391 0004 00AF     		add	r7, sp, #0
 392              		.cfi_def_cfa_register 7
 393 0006 7860     		str	r0, [r7, #4]
  63:joystick.c    ****     /* start from saved so cancel is easy; but overwrite spans from current */
  64:joystick.c    ****     s_work = s_saved;
 394              		.loc 1 64 0
 395 0008 1B4A     		ldr	r2, .L29
 396 000a 1C4B     		ldr	r3, .L29+4
 397 000c 1446     		mov	r4, r2
 398 000e 0FCB     		ldmia	r3, {r0, r1, r2, r3}
 399 0010 07C4     		stmia	r4!, {r0, r1, r2}
 400 0012 2380     		strh	r3, [r4]	@ movhi
 401              	.LBB4:
  65:joystick.c    **** 
  66:joystick.c    ****     for (uint8 i = 0u; i < (uint8)N_CH; i++)
 402              		.loc 1 66 0
 403 0014 0023     		movs	r3, #0
 404 0016 FB73     		strb	r3, [r7, #15]
 405 0018 23E0     		b	.L27
 406              	.L28:
  67:joystick.c    ****     {
  68:joystick.c    ****         s_work.minv[i]   = counts[i];
 407              		.loc 1 68 0 discriminator 3
 408 001a FB7B     		ldrb	r3, [r7, #15]	@ zero_extendqisi2
 409 001c FA7B     		ldrb	r2, [r7, #15]	@ zero_extendqisi2
 410 001e 5200     		lsls	r2, r2, #1
 411 0020 7968     		ldr	r1, [r7, #4]
 412 0022 0A44     		add	r2, r2, r1
 413 0024 B2F90010 		ldrsh	r1, [r2]
 414 0028 134A     		ldr	r2, .L29
 415 002a 22F81310 		strh	r1, [r2, r3, lsl #1]	@ movhi
  69:joystick.c    ****         s_work.maxv[i]   = counts[i];
 416              		.loc 1 69 0 discriminator 3
 417 002e FB7B     		ldrb	r3, [r7, #15]	@ zero_extendqisi2
 418 0030 FA7B     		ldrb	r2, [r7, #15]	@ zero_extendqisi2
 419 0032 5200     		lsls	r2, r2, #1
 420 0034 7968     		ldr	r1, [r7, #4]
 421 0036 0A44     		add	r2, r2, r1
 422 0038 B2F90010 		ldrsh	r1, [r2]
 423 003c 0E4A     		ldr	r2, .L29
 424 003e 5B00     		lsls	r3, r3, #1
 425 0040 1344     		add	r3, r3, r2
 426 0042 0A46     		mov	r2, r1	@ movhi
 427 0044 9A80     		strh	r2, [r3, #4]	@ movhi
  70:joystick.c    ****         s_work.center[i] = counts[i]; /* provisional */
 428              		.loc 1 70 0 discriminator 3
 429 0046 FB7B     		ldrb	r3, [r7, #15]	@ zero_extendqisi2
 430 0048 FA7B     		ldrb	r2, [r7, #15]	@ zero_extendqisi2
 431 004a 5200     		lsls	r2, r2, #1
ARM GAS  C:\Users\JENNEW~1\AppData\Local\Temp\cc7U2Ept.s 			page 10


 432 004c 7968     		ldr	r1, [r7, #4]
 433 004e 0A44     		add	r2, r2, r1
 434 0050 B2F90010 		ldrsh	r1, [r2]
 435 0054 084A     		ldr	r2, .L29
 436 0056 0433     		adds	r3, r3, #4
 437 0058 22F81310 		strh	r1, [r2, r3, lsl #1]	@ movhi
  66:joystick.c    ****     {
 438              		.loc 1 66 0 discriminator 3
 439 005c FB7B     		ldrb	r3, [r7, #15]	@ zero_extendqisi2
 440 005e 0133     		adds	r3, r3, #1
 441 0060 FB73     		strb	r3, [r7, #15]
 442              	.L27:
  66:joystick.c    ****     {
 443              		.loc 1 66 0 is_stmt 0 discriminator 1
 444 0062 FB7B     		ldrb	r3, [r7, #15]	@ zero_extendqisi2
 445 0064 012B     		cmp	r3, #1
 446 0066 D8D9     		bls	.L28
 447              	.LBE4:
  71:joystick.c    ****     }
  72:joystick.c    **** 
  73:joystick.c    ****     s_state = JOY_CAL_RANGE_CAPTURE;
 448              		.loc 1 73 0 is_stmt 1
 449 0068 054B     		ldr	r3, .L29+8
 450 006a 0122     		movs	r2, #1
 451 006c 1A70     		strb	r2, [r3]
  74:joystick.c    **** }
 452              		.loc 1 74 0
 453 006e 00BF     		nop
 454 0070 1037     		adds	r7, r7, #16
 455              		.cfi_def_cfa_offset 8
 456 0072 BD46     		mov	sp, r7
 457              		.cfi_def_cfa_register 13
 458              		@ sp needed
 459 0074 90BC     		pop	{r4, r7}
 460              		.cfi_restore 7
 461              		.cfi_restore 4
 462              		.cfi_def_cfa_offset 0
 463 0076 7047     		bx	lr
 464              	.L30:
 465              		.align	2
 466              	.L29:
 467 0078 20000000 		.word	s_work
 468 007c 10000000 		.word	s_saved
 469 0080 2E000000 		.word	s_state
 470              		.cfi_endproc
 471              	.LFE66:
 472              		.size	cal_begin_range_capture, .-cal_begin_range_capture
 473              		.section	.text.cal_update_ranges,"ax",%progbits
 474              		.align	2
 475              		.thumb
 476              		.thumb_func
 477              		.type	cal_update_ranges, %function
 478              	cal_update_ranges:
 479              	.LFB67:
  75:joystick.c    **** 
  76:joystick.c    **** static void cal_update_ranges(const int16 counts[N_CH])
  77:joystick.c    **** {
ARM GAS  C:\Users\JENNEW~1\AppData\Local\Temp\cc7U2Ept.s 			page 11


 480              		.loc 1 77 0
 481              		.cfi_startproc
 482              		@ args = 0, pretend = 0, frame = 16
 483              		@ frame_needed = 1, uses_anonymous_args = 0
 484              		@ link register save eliminated.
 485 0000 80B4     		push	{r7}
 486              		.cfi_def_cfa_offset 4
 487              		.cfi_offset 7, -4
 488 0002 85B0     		sub	sp, sp, #20
 489              		.cfi_def_cfa_offset 24
 490 0004 00AF     		add	r7, sp, #0
 491              		.cfi_def_cfa_register 7
 492 0006 7860     		str	r0, [r7, #4]
  78:joystick.c    ****     if (s_state != JOY_CAL_RANGE_CAPTURE)
 493              		.loc 1 78 0
 494 0008 214B     		ldr	r3, .L39
 495 000a 1B78     		ldrb	r3, [r3]	@ zero_extendqisi2
 496 000c 012B     		cmp	r3, #1
 497 000e 39D1     		bne	.L38
 498              	.LBB5:
  79:joystick.c    ****         return;
  80:joystick.c    **** 
  81:joystick.c    ****     for (uint8 i = 0u; i < (uint8)N_CH; i++)
 499              		.loc 1 81 0
 500 0010 0023     		movs	r3, #0
 501 0012 FB73     		strb	r3, [r7, #15]
 502 0014 32E0     		b	.L34
 503              	.L37:
  82:joystick.c    ****     {
  83:joystick.c    ****         if (counts[i] < s_work.minv[i]) s_work.minv[i] = counts[i];
 504              		.loc 1 83 0
 505 0016 FB7B     		ldrb	r3, [r7, #15]	@ zero_extendqisi2
 506 0018 5B00     		lsls	r3, r3, #1
 507 001a 7A68     		ldr	r2, [r7, #4]
 508 001c 1344     		add	r3, r3, r2
 509 001e B3F90020 		ldrsh	r2, [r3]
 510 0022 FB7B     		ldrb	r3, [r7, #15]	@ zero_extendqisi2
 511 0024 1B49     		ldr	r1, .L39+4
 512 0026 31F91330 		ldrsh	r3, [r1, r3, lsl #1]
 513 002a 9A42     		cmp	r2, r3
 514 002c 09DA     		bge	.L35
 515              		.loc 1 83 0 is_stmt 0 discriminator 1
 516 002e FB7B     		ldrb	r3, [r7, #15]	@ zero_extendqisi2
 517 0030 FA7B     		ldrb	r2, [r7, #15]	@ zero_extendqisi2
 518 0032 5200     		lsls	r2, r2, #1
 519 0034 7968     		ldr	r1, [r7, #4]
 520 0036 0A44     		add	r2, r2, r1
 521 0038 B2F90010 		ldrsh	r1, [r2]
 522 003c 154A     		ldr	r2, .L39+4
 523 003e 22F81310 		strh	r1, [r2, r3, lsl #1]	@ movhi
 524              	.L35:
  84:joystick.c    ****         if (counts[i] > s_work.maxv[i]) s_work.maxv[i] = counts[i];
 525              		.loc 1 84 0 is_stmt 1
 526 0042 FB7B     		ldrb	r3, [r7, #15]	@ zero_extendqisi2
 527 0044 5B00     		lsls	r3, r3, #1
 528 0046 7A68     		ldr	r2, [r7, #4]
 529 0048 1344     		add	r3, r3, r2
ARM GAS  C:\Users\JENNEW~1\AppData\Local\Temp\cc7U2Ept.s 			page 12


 530 004a B3F90020 		ldrsh	r2, [r3]
 531 004e FB7B     		ldrb	r3, [r7, #15]	@ zero_extendqisi2
 532 0050 1049     		ldr	r1, .L39+4
 533 0052 5B00     		lsls	r3, r3, #1
 534 0054 0B44     		add	r3, r3, r1
 535 0056 B3F90430 		ldrsh	r3, [r3, #4]
 536 005a 9A42     		cmp	r2, r3
 537 005c 0BDD     		ble	.L36
 538              		.loc 1 84 0 is_stmt 0 discriminator 1
 539 005e FB7B     		ldrb	r3, [r7, #15]	@ zero_extendqisi2
 540 0060 FA7B     		ldrb	r2, [r7, #15]	@ zero_extendqisi2
 541 0062 5200     		lsls	r2, r2, #1
 542 0064 7968     		ldr	r1, [r7, #4]
 543 0066 0A44     		add	r2, r2, r1
 544 0068 B2F90010 		ldrsh	r1, [r2]
 545 006c 094A     		ldr	r2, .L39+4
 546 006e 5B00     		lsls	r3, r3, #1
 547 0070 1344     		add	r3, r3, r2
 548 0072 0A46     		mov	r2, r1	@ movhi
 549 0074 9A80     		strh	r2, [r3, #4]	@ movhi
 550              	.L36:
  81:joystick.c    ****     {
 551              		.loc 1 81 0 is_stmt 1 discriminator 2
 552 0076 FB7B     		ldrb	r3, [r7, #15]	@ zero_extendqisi2
 553 0078 0133     		adds	r3, r3, #1
 554 007a FB73     		strb	r3, [r7, #15]
 555              	.L34:
  81:joystick.c    ****     {
 556              		.loc 1 81 0 is_stmt 0 discriminator 1
 557 007c FB7B     		ldrb	r3, [r7, #15]	@ zero_extendqisi2
 558 007e 012B     		cmp	r3, #1
 559 0080 C9D9     		bls	.L37
 560 0082 00E0     		b	.L31
 561              	.L38:
 562              	.LBE5:
  79:joystick.c    **** 
 563              		.loc 1 79 0 is_stmt 1
 564 0084 00BF     		nop
 565              	.L31:
  85:joystick.c    ****     }
  86:joystick.c    **** }
 566              		.loc 1 86 0
 567 0086 1437     		adds	r7, r7, #20
 568              		.cfi_def_cfa_offset 4
 569 0088 BD46     		mov	sp, r7
 570              		.cfi_def_cfa_register 13
 571              		@ sp needed
 572 008a 80BC     		pop	{r7}
 573              		.cfi_restore 7
 574              		.cfi_def_cfa_offset 0
 575 008c 7047     		bx	lr
 576              	.L40:
 577 008e 00BF     		.align	2
 578              	.L39:
 579 0090 2E000000 		.word	s_state
 580 0094 20000000 		.word	s_work
 581              		.cfi_endproc
ARM GAS  C:\Users\JENNEW~1\AppData\Local\Temp\cc7U2Ept.s 			page 13


 582              	.LFE67:
 583              		.size	cal_update_ranges, .-cal_update_ranges
 584              		.section	.text.cal_start_center_capture,"ax",%progbits
 585              		.align	2
 586              		.thumb
 587              		.thumb_func
 588              		.type	cal_start_center_capture, %function
 589              	cal_start_center_capture:
 590              	.LFB68:
  87:joystick.c    **** 
  88:joystick.c    **** static void cal_start_center_capture(void)
  89:joystick.c    **** {
 591              		.loc 1 89 0
 592              		.cfi_startproc
 593              		@ args = 0, pretend = 0, frame = 8
 594              		@ frame_needed = 1, uses_anonymous_args = 0
 595              		@ link register save eliminated.
 596 0000 80B4     		push	{r7}
 597              		.cfi_def_cfa_offset 4
 598              		.cfi_offset 7, -4
 599 0002 83B0     		sub	sp, sp, #12
 600              		.cfi_def_cfa_offset 16
 601 0004 00AF     		add	r7, sp, #0
 602              		.cfi_def_cfa_register 7
 603              	.LBB6:
  90:joystick.c    ****     for (uint8 i = 0u; i < (uint8)N_CH; i++)
 604              		.loc 1 90 0
 605 0006 0023     		movs	r3, #0
 606 0008 FB71     		strb	r3, [r7, #7]
 607 000a 07E0     		b	.L42
 608              	.L43:
  91:joystick.c    ****         s_center_sum[i] = 0;
 609              		.loc 1 91 0 discriminator 3
 610 000c FB79     		ldrb	r3, [r7, #7]	@ zero_extendqisi2
 611 000e 0A4A     		ldr	r2, .L44
 612 0010 0021     		movs	r1, #0
 613 0012 42F82310 		str	r1, [r2, r3, lsl #2]
  90:joystick.c    ****     for (uint8 i = 0u; i < (uint8)N_CH; i++)
 614              		.loc 1 90 0 discriminator 3
 615 0016 FB79     		ldrb	r3, [r7, #7]	@ zero_extendqisi2
 616 0018 0133     		adds	r3, r3, #1
 617 001a FB71     		strb	r3, [r7, #7]
 618              	.L42:
  90:joystick.c    ****     for (uint8 i = 0u; i < (uint8)N_CH; i++)
 619              		.loc 1 90 0 is_stmt 0 discriminator 1
 620 001c FB79     		ldrb	r3, [r7, #7]	@ zero_extendqisi2
 621 001e 012B     		cmp	r3, #1
 622 0020 F4D9     		bls	.L43
 623              	.LBE6:
  92:joystick.c    **** 
  93:joystick.c    ****     s_center_n = 0u;
 624              		.loc 1 93 0 is_stmt 1
 625 0022 064B     		ldr	r3, .L44+4
 626 0024 0022     		movs	r2, #0
 627 0026 1A80     		strh	r2, [r3]	@ movhi
  94:joystick.c    ****     s_state = JOY_CAL_CENTER_CAPTURE;
 628              		.loc 1 94 0
ARM GAS  C:\Users\JENNEW~1\AppData\Local\Temp\cc7U2Ept.s 			page 14


 629 0028 054B     		ldr	r3, .L44+8
 630 002a 0222     		movs	r2, #2
 631 002c 1A70     		strb	r2, [r3]
  95:joystick.c    **** }
 632              		.loc 1 95 0
 633 002e 00BF     		nop
 634 0030 0C37     		adds	r7, r7, #12
 635              		.cfi_def_cfa_offset 4
 636 0032 BD46     		mov	sp, r7
 637              		.cfi_def_cfa_register 13
 638              		@ sp needed
 639 0034 80BC     		pop	{r7}
 640              		.cfi_restore 7
 641              		.cfi_def_cfa_offset 0
 642 0036 7047     		bx	lr
 643              	.L45:
 644              		.align	2
 645              	.L44:
 646 0038 38000000 		.word	s_center_sum
 647 003c 40000000 		.word	s_center_n
 648 0040 2E000000 		.word	s_state
 649              		.cfi_endproc
 650              	.LFE68:
 651              		.size	cal_start_center_capture, .-cal_start_center_capture
 652              		.section	.text.cal_center_capture_update,"ax",%progbits
 653              		.align	2
 654              		.thumb
 655              		.thumb_func
 656              		.type	cal_center_capture_update, %function
 657              	cal_center_capture_update:
 658              	.LFB69:
  96:joystick.c    **** 
  97:joystick.c    **** static void cal_center_capture_update(const int16 counts[N_CH])
  98:joystick.c    **** {
 659              		.loc 1 98 0
 660              		.cfi_startproc
 661              		@ args = 0, pretend = 0, frame = 16
 662              		@ frame_needed = 1, uses_anonymous_args = 0
 663              		@ link register save eliminated.
 664 0000 80B4     		push	{r7}
 665              		.cfi_def_cfa_offset 4
 666              		.cfi_offset 7, -4
 667 0002 85B0     		sub	sp, sp, #20
 668              		.cfi_def_cfa_offset 24
 669 0004 00AF     		add	r7, sp, #0
 670              		.cfi_def_cfa_register 7
 671 0006 7860     		str	r0, [r7, #4]
  99:joystick.c    ****     if (s_state != JOY_CAL_CENTER_CAPTURE)
 672              		.loc 1 99 0
 673 0008 234B     		ldr	r3, .L55
 674 000a 1B78     		ldrb	r3, [r3]	@ zero_extendqisi2
 675 000c 022B     		cmp	r3, #2
 676 000e 3DD1     		bne	.L54
 677              	.LBB7:
 100:joystick.c    ****         return;
 101:joystick.c    **** 
 102:joystick.c    ****     for (uint8 i = 0u; i < (uint8)N_CH; i++)
ARM GAS  C:\Users\JENNEW~1\AppData\Local\Temp\cc7U2Ept.s 			page 15


 678              		.loc 1 102 0
 679 0010 0023     		movs	r3, #0
 680 0012 FB73     		strb	r3, [r7, #15]
 681 0014 11E0     		b	.L49
 682              	.L50:
 103:joystick.c    ****         s_center_sum[i] += counts[i];
 683              		.loc 1 103 0 discriminator 3
 684 0016 FB7B     		ldrb	r3, [r7, #15]	@ zero_extendqisi2
 685 0018 FA7B     		ldrb	r2, [r7, #15]	@ zero_extendqisi2
 686 001a 2049     		ldr	r1, .L55+4
 687 001c 51F82220 		ldr	r2, [r1, r2, lsl #2]
 688 0020 F97B     		ldrb	r1, [r7, #15]	@ zero_extendqisi2
 689 0022 4900     		lsls	r1, r1, #1
 690 0024 7868     		ldr	r0, [r7, #4]
 691 0026 0144     		add	r1, r1, r0
 692 0028 B1F90010 		ldrsh	r1, [r1]
 693 002c 0A44     		add	r2, r2, r1
 694 002e 1B49     		ldr	r1, .L55+4
 695 0030 41F82320 		str	r2, [r1, r3, lsl #2]
 102:joystick.c    ****         s_center_sum[i] += counts[i];
 696              		.loc 1 102 0 discriminator 3
 697 0034 FB7B     		ldrb	r3, [r7, #15]	@ zero_extendqisi2
 698 0036 0133     		adds	r3, r3, #1
 699 0038 FB73     		strb	r3, [r7, #15]
 700              	.L49:
 102:joystick.c    ****         s_center_sum[i] += counts[i];
 701              		.loc 1 102 0 is_stmt 0 discriminator 1
 702 003a FB7B     		ldrb	r3, [r7, #15]	@ zero_extendqisi2
 703 003c 012B     		cmp	r3, #1
 704 003e EAD9     		bls	.L50
 705              	.LBE7:
 104:joystick.c    **** 
 105:joystick.c    ****     s_center_n++;
 706              		.loc 1 105 0 is_stmt 1
 707 0040 174B     		ldr	r3, .L55+8
 708 0042 1B88     		ldrh	r3, [r3]
 709 0044 0133     		adds	r3, r3, #1
 710 0046 9AB2     		uxth	r2, r3
 711 0048 154B     		ldr	r3, .L55+8
 712 004a 1A80     		strh	r2, [r3]	@ movhi
 106:joystick.c    **** 
 107:joystick.c    ****     if (s_center_n >= (uint16)CAL_CENTER_SAMPLES)
 713              		.loc 1 107 0
 714 004c 144B     		ldr	r3, .L55+8
 715 004e 1B88     		ldrh	r3, [r3]
 716 0050 1F2B     		cmp	r3, #31
 717 0052 1CD9     		bls	.L46
 718              	.LBB8:
 108:joystick.c    ****     {
 109:joystick.c    ****         for (uint8 i = 0u; i < (uint8)N_CH; i++)
 719              		.loc 1 109 0
 720 0054 0023     		movs	r3, #0
 721 0056 BB73     		strb	r3, [r7, #14]
 722 0058 11E0     		b	.L51
 723              	.L53:
 110:joystick.c    ****             s_work.center[i] = (int16)(s_center_sum[i] / (int32)CAL_CENTER_SAMPLES);
 724              		.loc 1 110 0 discriminator 3
ARM GAS  C:\Users\JENNEW~1\AppData\Local\Temp\cc7U2Ept.s 			page 16


 725 005a BA7B     		ldrb	r2, [r7, #14]	@ zero_extendqisi2
 726 005c BB7B     		ldrb	r3, [r7, #14]	@ zero_extendqisi2
 727 005e 0F49     		ldr	r1, .L55+4
 728 0060 51F82330 		ldr	r3, [r1, r3, lsl #2]
 729 0064 002B     		cmp	r3, #0
 730 0066 00DA     		bge	.L52
 731 0068 1F33     		adds	r3, r3, #31
 732              	.L52:
 733 006a 5B11     		asrs	r3, r3, #5
 734 006c 18B2     		sxth	r0, r3
 735 006e 0D49     		ldr	r1, .L55+12
 736 0070 131D     		adds	r3, r2, #4
 737 0072 0246     		mov	r2, r0	@ movhi
 738 0074 21F81320 		strh	r2, [r1, r3, lsl #1]	@ movhi
 109:joystick.c    ****             s_work.center[i] = (int16)(s_center_sum[i] / (int32)CAL_CENTER_SAMPLES);
 739              		.loc 1 109 0 discriminator 3
 740 0078 BB7B     		ldrb	r3, [r7, #14]	@ zero_extendqisi2
 741 007a 0133     		adds	r3, r3, #1
 742 007c BB73     		strb	r3, [r7, #14]
 743              	.L51:
 109:joystick.c    ****             s_work.center[i] = (int16)(s_center_sum[i] / (int32)CAL_CENTER_SAMPLES);
 744              		.loc 1 109 0 is_stmt 0 discriminator 1
 745 007e BB7B     		ldrb	r3, [r7, #14]	@ zero_extendqisi2
 746 0080 012B     		cmp	r3, #1
 747 0082 EAD9     		bls	.L53
 748              	.LBE8:
 111:joystick.c    **** 
 112:joystick.c    ****         s_state = JOY_CAL_CONFIRM_SAVE;
 749              		.loc 1 112 0 is_stmt 1
 750 0084 044B     		ldr	r3, .L55
 751 0086 0322     		movs	r2, #3
 752 0088 1A70     		strb	r2, [r3]
 753 008a 00E0     		b	.L46
 754              	.L54:
 100:joystick.c    **** 
 755              		.loc 1 100 0
 756 008c 00BF     		nop
 757              	.L46:
 113:joystick.c    ****     }
 114:joystick.c    **** }
 758              		.loc 1 114 0
 759 008e 1437     		adds	r7, r7, #20
 760              		.cfi_def_cfa_offset 4
 761 0090 BD46     		mov	sp, r7
 762              		.cfi_def_cfa_register 13
 763              		@ sp needed
 764 0092 80BC     		pop	{r7}
 765              		.cfi_restore 7
 766              		.cfi_def_cfa_offset 0
 767 0094 7047     		bx	lr
 768              	.L56:
 769 0096 00BF     		.align	2
 770              	.L55:
 771 0098 2E000000 		.word	s_state
 772 009c 38000000 		.word	s_center_sum
 773 00a0 40000000 		.word	s_center_n
 774 00a4 20000000 		.word	s_work
ARM GAS  C:\Users\JENNEW~1\AppData\Local\Temp\cc7U2Ept.s 			page 17


 775              		.cfi_endproc
 776              	.LFE69:
 777              		.size	cal_center_capture_update, .-cal_center_capture_update
 778              		.section	.text.cal_save_or_restart,"ax",%progbits
 779              		.align	2
 780              		.thumb
 781              		.thumb_func
 782              		.type	cal_save_or_restart, %function
 783              	cal_save_or_restart:
 784              	.LFB70:
 115:joystick.c    **** 
 116:joystick.c    **** static void cal_save_or_restart(void)
 117:joystick.c    **** {
 785              		.loc 1 117 0
 786              		.cfi_startproc
 787              		@ args = 0, pretend = 0, frame = 0
 788              		@ frame_needed = 1, uses_anonymous_args = 0
 789 0000 98B5     		push	{r3, r4, r7, lr}
 790              		.cfi_def_cfa_offset 16
 791              		.cfi_offset 3, -16
 792              		.cfi_offset 4, -12
 793              		.cfi_offset 7, -8
 794              		.cfi_offset 14, -4
 795 0002 00AF     		add	r7, sp, #0
 796              		.cfi_def_cfa_register 7
 118:joystick.c    ****     if (!joystick_validate(&s_work))
 797              		.loc 1 118 0
 798 0004 0B48     		ldr	r0, .L60
 799 0006 FFF7FEFF 		bl	joystick_validate
 800 000a 0346     		mov	r3, r0
 801 000c 002B     		cmp	r3, #0
 802 000e 03D1     		bne	.L58
 119:joystick.c    ****     {
 120:joystick.c    ****         /* restart range capture; keep s_work spans as-is? safest: restart clean */
 121:joystick.c    ****         cal_begin_range_capture(s_latest_counts);
 803              		.loc 1 121 0
 804 0010 0948     		ldr	r0, .L60+4
 805 0012 FFF7FEFF 		bl	cal_begin_range_capture
 122:joystick.c    ****         return;
 806              		.loc 1 122 0
 807 0016 0BE0     		b	.L57
 808              	.L58:
 123:joystick.c    ****     }
 124:joystick.c    **** 
 125:joystick.c    ****     s_saved = s_work;
 809              		.loc 1 125 0
 810 0018 084A     		ldr	r2, .L60+8
 811 001a 064B     		ldr	r3, .L60
 812 001c 1446     		mov	r4, r2
 813 001e 0FCB     		ldmia	r3, {r0, r1, r2, r3}
 814 0020 07C4     		stmia	r4!, {r0, r1, r2}
 815 0022 2380     		strh	r3, [r4]	@ movhi
 126:joystick.c    ****     s_saved.valid = 1u;
 816              		.loc 1 126 0
 817 0024 054B     		ldr	r3, .L60+8
 818 0026 0122     		movs	r2, #1
 819 0028 1A73     		strb	r2, [r3, #12]
ARM GAS  C:\Users\JENNEW~1\AppData\Local\Temp\cc7U2Ept.s 			page 18


 127:joystick.c    ****     s_state = JOY_CAL_OFF;
 820              		.loc 1 127 0
 821 002a 054B     		ldr	r3, .L60+12
 822 002c 0022     		movs	r2, #0
 823 002e 1A70     		strb	r2, [r3]
 824              	.L57:
 128:joystick.c    **** }
 825              		.loc 1 128 0
 826 0030 98BD     		pop	{r3, r4, r7, pc}
 827              	.L61:
 828 0032 00BF     		.align	2
 829              	.L60:
 830 0034 20000000 		.word	s_work
 831 0038 30000000 		.word	s_latest_counts
 832 003c 10000000 		.word	s_saved
 833 0040 2E000000 		.word	s_state
 834              		.cfi_endproc
 835              	.LFE70:
 836              		.size	cal_save_or_restart, .-cal_save_or_restart
 837              		.section	.text.joystick_init,"ax",%progbits
 838              		.align	2
 839              		.global	joystick_init
 840              		.thumb
 841              		.thumb_func
 842              		.type	joystick_init, %function
 843              	joystick_init:
 844              	.LFB71:
 129:joystick.c    **** 
 130:joystick.c    **** /* ---- Public API ---- */
 131:joystick.c    **** void joystick_init(const joy_cal_t *defaults, uint32 invert_mask)
 132:joystick.c    **** {
 845              		.loc 1 132 0
 846              		.cfi_startproc
 847              		@ args = 0, pretend = 0, frame = 16
 848              		@ frame_needed = 1, uses_anonymous_args = 0
 849              		@ link register save eliminated.
 850 0000 90B4     		push	{r4, r7}
 851              		.cfi_def_cfa_offset 8
 852              		.cfi_offset 4, -8
 853              		.cfi_offset 7, -4
 854 0002 84B0     		sub	sp, sp, #16
 855              		.cfi_def_cfa_offset 24
 856 0004 00AF     		add	r7, sp, #0
 857              		.cfi_def_cfa_register 7
 858 0006 7860     		str	r0, [r7, #4]
 859 0008 3960     		str	r1, [r7]
 133:joystick.c    ****     s_default = *defaults;
 860              		.loc 1 133 0
 861 000a 1F4B     		ldr	r3, .L65
 862 000c 7A68     		ldr	r2, [r7, #4]
 863 000e 1446     		mov	r4, r2
 864 0010 2068     		ldr	r0, [r4]	@ unaligned
 865 0012 6168     		ldr	r1, [r4, #4]	@ unaligned
 866 0014 A268     		ldr	r2, [r4, #8]	@ unaligned
 867 0016 07C3     		stmia	r3!, {r0, r1, r2}
 868 0018 A289     		ldrh	r2, [r4, #12]	@ unaligned
 869 001a 1A80     		strh	r2, [r3]	@ unaligned
ARM GAS  C:\Users\JENNEW~1\AppData\Local\Temp\cc7U2Ept.s 			page 19


 134:joystick.c    ****     s_saved   = *defaults;
 870              		.loc 1 134 0
 871 001c 1B4B     		ldr	r3, .L65+4
 872 001e 7A68     		ldr	r2, [r7, #4]
 873 0020 1446     		mov	r4, r2
 874 0022 2068     		ldr	r0, [r4]	@ unaligned
 875 0024 6168     		ldr	r1, [r4, #4]	@ unaligned
 876 0026 A268     		ldr	r2, [r4, #8]	@ unaligned
 877 0028 07C3     		stmia	r3!, {r0, r1, r2}
 878 002a A289     		ldrh	r2, [r4, #12]	@ unaligned
 879 002c 1A80     		strh	r2, [r3]	@ unaligned
 135:joystick.c    ****     s_saved.valid = 0u;        /* defaults are a fallback, not "user-calibrated" */
 880              		.loc 1 135 0
 881 002e 174B     		ldr	r3, .L65+4
 882 0030 0022     		movs	r2, #0
 883 0032 1A73     		strb	r2, [r3, #12]
 136:joystick.c    ****     s_work    = *defaults;
 884              		.loc 1 136 0
 885 0034 164B     		ldr	r3, .L65+8
 886 0036 7A68     		ldr	r2, [r7, #4]
 887 0038 1446     		mov	r4, r2
 888 003a 2068     		ldr	r0, [r4]	@ unaligned
 889 003c 6168     		ldr	r1, [r4, #4]	@ unaligned
 890 003e A268     		ldr	r2, [r4, #8]	@ unaligned
 891 0040 07C3     		stmia	r3!, {r0, r1, r2}
 892 0042 A289     		ldrh	r2, [r4, #12]	@ unaligned
 893 0044 1A80     		strh	r2, [r3]	@ unaligned
 137:joystick.c    **** 
 138:joystick.c    ****     s_invert_mask = invert_mask;
 894              		.loc 1 138 0
 895 0046 134A     		ldr	r2, .L65+12
 896 0048 3B68     		ldr	r3, [r7]
 897 004a 1360     		str	r3, [r2]
 898              	.LBB9:
 139:joystick.c    **** 
 140:joystick.c    ****     for (uint8 i = 0u; i < (uint8)N_CH; i++)
 899              		.loc 1 140 0
 900 004c 0023     		movs	r3, #0
 901 004e FB73     		strb	r3, [r7, #15]
 902 0050 0BE0     		b	.L63
 903              	.L64:
 141:joystick.c    ****         s_latest_counts[i] = defaults->center[i];
 904              		.loc 1 141 0 discriminator 3
 905 0052 FB7B     		ldrb	r3, [r7, #15]	@ zero_extendqisi2
 906 0054 F97B     		ldrb	r1, [r7, #15]	@ zero_extendqisi2
 907 0056 7A68     		ldr	r2, [r7, #4]
 908 0058 0431     		adds	r1, r1, #4
 909 005a 32F91110 		ldrsh	r1, [r2, r1, lsl #1]
 910 005e 0E4A     		ldr	r2, .L65+16
 911 0060 22F81310 		strh	r1, [r2, r3, lsl #1]	@ movhi
 140:joystick.c    ****         s_latest_counts[i] = defaults->center[i];
 912              		.loc 1 140 0 discriminator 3
 913 0064 FB7B     		ldrb	r3, [r7, #15]	@ zero_extendqisi2
 914 0066 0133     		adds	r3, r3, #1
 915 0068 FB73     		strb	r3, [r7, #15]
 916              	.L63:
 140:joystick.c    ****         s_latest_counts[i] = defaults->center[i];
ARM GAS  C:\Users\JENNEW~1\AppData\Local\Temp\cc7U2Ept.s 			page 20


 917              		.loc 1 140 0 is_stmt 0 discriminator 1
 918 006a FB7B     		ldrb	r3, [r7, #15]	@ zero_extendqisi2
 919 006c 012B     		cmp	r3, #1
 920 006e F0D9     		bls	.L64
 921              	.LBE9:
 142:joystick.c    **** 
 143:joystick.c    ****     s_state = JOY_CAL_OFF;
 922              		.loc 1 143 0 is_stmt 1
 923 0070 0A4B     		ldr	r3, .L65+20
 924 0072 0022     		movs	r2, #0
 925 0074 1A70     		strb	r2, [r3]
 144:joystick.c    ****     s_center_n = 0u;
 926              		.loc 1 144 0
 927 0076 0A4B     		ldr	r3, .L65+24
 928 0078 0022     		movs	r2, #0
 929 007a 1A80     		strh	r2, [r3]	@ movhi
 145:joystick.c    **** }
 930              		.loc 1 145 0
 931 007c 00BF     		nop
 932 007e 1037     		adds	r7, r7, #16
 933              		.cfi_def_cfa_offset 8
 934 0080 BD46     		mov	sp, r7
 935              		.cfi_def_cfa_register 13
 936              		@ sp needed
 937 0082 90BC     		pop	{r4, r7}
 938              		.cfi_restore 7
 939              		.cfi_restore 4
 940              		.cfi_def_cfa_offset 0
 941 0084 7047     		bx	lr
 942              	.L66:
 943 0086 00BF     		.align	2
 944              	.L65:
 945 0088 00000000 		.word	s_default
 946 008c 10000000 		.word	s_saved
 947 0090 20000000 		.word	s_work
 948 0094 34000000 		.word	s_invert_mask
 949 0098 30000000 		.word	s_latest_counts
 950 009c 2E000000 		.word	s_state
 951 00a0 40000000 		.word	s_center_n
 952              		.cfi_endproc
 953              	.LFE71:
 954              		.size	joystick_init, .-joystick_init
 955              		.section	.text.joystick_on_sample,"ax",%progbits
 956              		.align	2
 957              		.global	joystick_on_sample
 958              		.thumb
 959              		.thumb_func
 960              		.type	joystick_on_sample, %function
 961              	joystick_on_sample:
 962              	.LFB72:
 146:joystick.c    **** 
 147:joystick.c    **** void joystick_on_sample(const int16 counts[N_CH])
 148:joystick.c    **** {
 963              		.loc 1 148 0
 964              		.cfi_startproc
 965              		@ args = 0, pretend = 0, frame = 16
 966              		@ frame_needed = 1, uses_anonymous_args = 0
ARM GAS  C:\Users\JENNEW~1\AppData\Local\Temp\cc7U2Ept.s 			page 21


 967 0000 80B5     		push	{r7, lr}
 968              		.cfi_def_cfa_offset 8
 969              		.cfi_offset 7, -8
 970              		.cfi_offset 14, -4
 971 0002 84B0     		sub	sp, sp, #16
 972              		.cfi_def_cfa_offset 24
 973 0004 00AF     		add	r7, sp, #0
 974              		.cfi_def_cfa_register 7
 975 0006 7860     		str	r0, [r7, #4]
 976              	.LBB10:
 149:joystick.c    ****     for (uint8 i = 0u; i < (uint8)N_CH; i++)
 977              		.loc 1 149 0
 978 0008 0023     		movs	r3, #0
 979 000a FB73     		strb	r3, [r7, #15]
 980 000c 0CE0     		b	.L68
 981              	.L69:
 150:joystick.c    ****         s_latest_counts[i] = counts[i];
 982              		.loc 1 150 0 discriminator 3
 983 000e FB7B     		ldrb	r3, [r7, #15]	@ zero_extendqisi2
 984 0010 FA7B     		ldrb	r2, [r7, #15]	@ zero_extendqisi2
 985 0012 5200     		lsls	r2, r2, #1
 986 0014 7968     		ldr	r1, [r7, #4]
 987 0016 0A44     		add	r2, r2, r1
 988 0018 B2F90010 		ldrsh	r1, [r2]
 989 001c 094A     		ldr	r2, .L70
 990 001e 22F81310 		strh	r1, [r2, r3, lsl #1]	@ movhi
 149:joystick.c    ****     for (uint8 i = 0u; i < (uint8)N_CH; i++)
 991              		.loc 1 149 0 discriminator 3
 992 0022 FB7B     		ldrb	r3, [r7, #15]	@ zero_extendqisi2
 993 0024 0133     		adds	r3, r3, #1
 994 0026 FB73     		strb	r3, [r7, #15]
 995              	.L68:
 149:joystick.c    ****     for (uint8 i = 0u; i < (uint8)N_CH; i++)
 996              		.loc 1 149 0 is_stmt 0 discriminator 1
 997 0028 FB7B     		ldrb	r3, [r7, #15]	@ zero_extendqisi2
 998 002a 012B     		cmp	r3, #1
 999 002c EFD9     		bls	.L69
 1000              	.LBE10:
 151:joystick.c    **** 
 152:joystick.c    ****     /* Calibration state machine consumes samples */
 153:joystick.c    ****     cal_update_ranges(counts);
 1001              		.loc 1 153 0 is_stmt 1
 1002 002e 7868     		ldr	r0, [r7, #4]
 1003 0030 FFF7FEFF 		bl	cal_update_ranges
 154:joystick.c    ****     cal_center_capture_update(counts);
 1004              		.loc 1 154 0
 1005 0034 7868     		ldr	r0, [r7, #4]
 1006 0036 FFF7FEFF 		bl	cal_center_capture_update
 155:joystick.c    **** }
 1007              		.loc 1 155 0
 1008 003a 00BF     		nop
 1009 003c 1037     		adds	r7, r7, #16
 1010              		.cfi_def_cfa_offset 8
 1011 003e BD46     		mov	sp, r7
 1012              		.cfi_def_cfa_register 13
 1013              		@ sp needed
 1014 0040 80BD     		pop	{r7, pc}
ARM GAS  C:\Users\JENNEW~1\AppData\Local\Temp\cc7U2Ept.s 			page 22


 1015              	.L71:
 1016 0042 00BF     		.align	2
 1017              	.L70:
 1018 0044 30000000 		.word	s_latest_counts
 1019              		.cfi_endproc
 1020              	.LFE72:
 1021              		.size	joystick_on_sample, .-joystick_on_sample
 1022              		.section	.text.joystick_on_key,"ax",%progbits
 1023              		.align	2
 1024              		.global	joystick_on_key
 1025              		.thumb
 1026              		.thumb_func
 1027              		.type	joystick_on_key, %function
 1028              	joystick_on_key:
 1029              	.LFB73:
 156:joystick.c    **** 
 157:joystick.c    **** void joystick_on_key(char key)
 158:joystick.c    **** {
 1030              		.loc 1 158 0
 1031              		.cfi_startproc
 1032              		@ args = 0, pretend = 0, frame = 8
 1033              		@ frame_needed = 1, uses_anonymous_args = 0
 1034 0000 80B5     		push	{r7, lr}
 1035              		.cfi_def_cfa_offset 8
 1036              		.cfi_offset 7, -8
 1037              		.cfi_offset 14, -4
 1038 0002 82B0     		sub	sp, sp, #8
 1039              		.cfi_def_cfa_offset 16
 1040 0004 00AF     		add	r7, sp, #0
 1041              		.cfi_def_cfa_register 7
 1042 0006 0346     		mov	r3, r0
 1043 0008 FB71     		strb	r3, [r7, #7]
 159:joystick.c    ****     if (key == 'x' || key == 'X')
 1044              		.loc 1 159 0
 1045 000a FB79     		ldrb	r3, [r7, #7]	@ zero_extendqisi2
 1046 000c 782B     		cmp	r3, #120
 1047 000e 02D0     		beq	.L73
 1048              		.loc 1 159 0 is_stmt 0 discriminator 1
 1049 0010 FB79     		ldrb	r3, [r7, #7]	@ zero_extendqisi2
 1050 0012 582B     		cmp	r3, #88
 1051 0014 03D1     		bne	.L74
 1052              	.L73:
 160:joystick.c    ****     {
 161:joystick.c    ****         s_state = JOY_CAL_OFF;
 1053              		.loc 1 161 0 is_stmt 1
 1054 0016 144B     		ldr	r3, .L80
 1055 0018 0022     		movs	r2, #0
 1056 001a 1A70     		strb	r2, [r3]
 162:joystick.c    ****         return;
 1057              		.loc 1 162 0
 1058 001c 20E0     		b	.L72
 1059              	.L74:
 163:joystick.c    ****     }
 164:joystick.c    **** 
 165:joystick.c    ****     if (!(key == 'c' || key == 'C'))
 1060              		.loc 1 165 0
 1061 001e FB79     		ldrb	r3, [r7, #7]	@ zero_extendqisi2
ARM GAS  C:\Users\JENNEW~1\AppData\Local\Temp\cc7U2Ept.s 			page 23


 1062 0020 632B     		cmp	r3, #99
 1063 0022 02D0     		beq	.L76
 1064              		.loc 1 165 0 is_stmt 0 discriminator 1
 1065 0024 FB79     		ldrb	r3, [r7, #7]	@ zero_extendqisi2
 1066 0026 432B     		cmp	r3, #67
 1067 0028 19D1     		bne	.L79
 1068              	.L76:
 166:joystick.c    ****         return;
 167:joystick.c    **** 
 168:joystick.c    ****     /* 'c' advances through calibration */
 169:joystick.c    ****     if (s_state == JOY_CAL_OFF)
 1069              		.loc 1 169 0 is_stmt 1
 1070 002a 0F4B     		ldr	r3, .L80
 1071 002c 1B78     		ldrb	r3, [r3]	@ zero_extendqisi2
 1072 002e 002B     		cmp	r3, #0
 1073 0030 03D1     		bne	.L77
 170:joystick.c    ****     {
 171:joystick.c    ****         cal_begin_range_capture(s_latest_counts);
 1074              		.loc 1 171 0
 1075 0032 0E48     		ldr	r0, .L80+4
 1076 0034 FFF7FEFF 		bl	cal_begin_range_capture
 1077 0038 12E0     		b	.L72
 1078              	.L77:
 172:joystick.c    ****     }
 173:joystick.c    ****     else if (s_state == JOY_CAL_RANGE_CAPTURE)
 1079              		.loc 1 173 0
 1080 003a 0B4B     		ldr	r3, .L80
 1081 003c 1B78     		ldrb	r3, [r3]	@ zero_extendqisi2
 1082 003e 012B     		cmp	r3, #1
 1083 0040 02D1     		bne	.L78
 174:joystick.c    ****     {
 175:joystick.c    ****         cal_start_center_capture();
 1084              		.loc 1 175 0
 1085 0042 FFF7FEFF 		bl	cal_start_center_capture
 1086 0046 0BE0     		b	.L72
 1087              	.L78:
 176:joystick.c    ****     }
 177:joystick.c    ****     else if (s_state == JOY_CAL_CENTER_CAPTURE)
 1088              		.loc 1 177 0
 1089 0048 074B     		ldr	r3, .L80
 1090 004a 1B78     		ldrb	r3, [r3]	@ zero_extendqisi2
 1091 004c 022B     		cmp	r3, #2
 1092 004e 07D0     		beq	.L72
 178:joystick.c    ****     {
 179:joystick.c    ****         /* ignore: auto-completes after N samples */
 180:joystick.c    ****     }
 181:joystick.c    ****     else if (s_state == JOY_CAL_CONFIRM_SAVE)
 1093              		.loc 1 181 0
 1094 0050 054B     		ldr	r3, .L80
 1095 0052 1B78     		ldrb	r3, [r3]	@ zero_extendqisi2
 1096 0054 032B     		cmp	r3, #3
 1097 0056 03D1     		bne	.L72
 182:joystick.c    ****     {
 183:joystick.c    ****         cal_save_or_restart();
 1098              		.loc 1 183 0
 1099 0058 FFF7FEFF 		bl	cal_save_or_restart
 1100 005c 00E0     		b	.L72
ARM GAS  C:\Users\JENNEW~1\AppData\Local\Temp\cc7U2Ept.s 			page 24


 1101              	.L79:
 166:joystick.c    **** 
 1102              		.loc 1 166 0
 1103 005e 00BF     		nop
 1104              	.L72:
 184:joystick.c    ****     }
 185:joystick.c    **** }
 1105              		.loc 1 185 0
 1106 0060 0837     		adds	r7, r7, #8
 1107              		.cfi_def_cfa_offset 8
 1108 0062 BD46     		mov	sp, r7
 1109              		.cfi_def_cfa_register 13
 1110              		@ sp needed
 1111 0064 80BD     		pop	{r7, pc}
 1112              	.L81:
 1113 0066 00BF     		.align	2
 1114              	.L80:
 1115 0068 2E000000 		.word	s_state
 1116 006c 30000000 		.word	s_latest_counts
 1117              		.cfi_endproc
 1118              	.LFE73:
 1119              		.size	joystick_on_key, .-joystick_on_key
 1120              		.section	.text.joystick_cal_state,"ax",%progbits
 1121              		.align	2
 1122              		.global	joystick_cal_state
 1123              		.thumb
 1124              		.thumb_func
 1125              		.type	joystick_cal_state, %function
 1126              	joystick_cal_state:
 1127              	.LFB74:
 186:joystick.c    **** 
 187:joystick.c    **** joy_cal_state_t joystick_cal_state(void)
 188:joystick.c    **** {
 1128              		.loc 1 188 0
 1129              		.cfi_startproc
 1130              		@ args = 0, pretend = 0, frame = 0
 1131              		@ frame_needed = 1, uses_anonymous_args = 0
 1132              		@ link register save eliminated.
 1133 0000 80B4     		push	{r7}
 1134              		.cfi_def_cfa_offset 4
 1135              		.cfi_offset 7, -4
 1136 0002 00AF     		add	r7, sp, #0
 1137              		.cfi_def_cfa_register 7
 189:joystick.c    ****     return s_state;
 1138              		.loc 1 189 0
 1139 0004 024B     		ldr	r3, .L84
 1140 0006 1B78     		ldrb	r3, [r3]	@ zero_extendqisi2
 190:joystick.c    **** }
 1141              		.loc 1 190 0
 1142 0008 1846     		mov	r0, r3
 1143 000a BD46     		mov	sp, r7
 1144              		.cfi_def_cfa_register 13
 1145              		@ sp needed
 1146 000c 80BC     		pop	{r7}
 1147              		.cfi_restore 7
 1148              		.cfi_def_cfa_offset 0
 1149 000e 7047     		bx	lr
ARM GAS  C:\Users\JENNEW~1\AppData\Local\Temp\cc7U2Ept.s 			page 25


 1150              	.L85:
 1151              		.align	2
 1152              	.L84:
 1153 0010 2E000000 		.word	s_state
 1154              		.cfi_endproc
 1155              	.LFE74:
 1156              		.size	joystick_cal_state, .-joystick_cal_state
 1157              		.section	.text.joystick_get_cal,"ax",%progbits
 1158              		.align	2
 1159              		.global	joystick_get_cal
 1160              		.thumb
 1161              		.thumb_func
 1162              		.type	joystick_get_cal, %function
 1163              	joystick_get_cal:
 1164              	.LFB75:
 191:joystick.c    **** 
 192:joystick.c    **** uint8 joystick_get_cal(joy_cal_t *out)
 193:joystick.c    **** {
 1165              		.loc 1 193 0
 1166              		.cfi_startproc
 1167              		@ args = 0, pretend = 0, frame = 8
 1168              		@ frame_needed = 1, uses_anonymous_args = 0
 1169 0000 90B5     		push	{r4, r7, lr}
 1170              		.cfi_def_cfa_offset 12
 1171              		.cfi_offset 4, -12
 1172              		.cfi_offset 7, -8
 1173              		.cfi_offset 14, -4
 1174 0002 83B0     		sub	sp, sp, #12
 1175              		.cfi_def_cfa_offset 24
 1176 0004 00AF     		add	r7, sp, #0
 1177              		.cfi_def_cfa_register 7
 1178 0006 7860     		str	r0, [r7, #4]
 194:joystick.c    ****     if (joystick_validate(&s_saved))
 1179              		.loc 1 194 0
 1180 0008 0B48     		ldr	r0, .L89
 1181 000a FFF7FEFF 		bl	joystick_validate
 1182 000e 0346     		mov	r3, r0
 1183 0010 002B     		cmp	r3, #0
 1184 0012 0BD0     		beq	.L87
 195:joystick.c    ****     {
 196:joystick.c    ****         *out = s_saved;
 1185              		.loc 1 196 0
 1186 0014 7B68     		ldr	r3, [r7, #4]
 1187 0016 084A     		ldr	r2, .L89
 1188 0018 1C46     		mov	r4, r3
 1189 001a 1346     		mov	r3, r2
 1190 001c 07CB     		ldmia	r3!, {r0, r1, r2}
 1191 001e 2060     		str	r0, [r4]	@ unaligned
 1192 0020 6160     		str	r1, [r4, #4]	@ unaligned
 1193 0022 A260     		str	r2, [r4, #8]	@ unaligned
 1194 0024 1B88     		ldrh	r3, [r3]	@ unaligned
 1195 0026 A381     		strh	r3, [r4, #12]	@ unaligned
 197:joystick.c    ****         return 1u;
 1196              		.loc 1 197 0
 1197 0028 0123     		movs	r3, #1
 1198 002a 00E0     		b	.L88
 1199              	.L87:
ARM GAS  C:\Users\JENNEW~1\AppData\Local\Temp\cc7U2Ept.s 			page 26


 198:joystick.c    ****     }
 199:joystick.c    ****     return 0u;
 1200              		.loc 1 199 0
 1201 002c 0023     		movs	r3, #0
 1202              	.L88:
 200:joystick.c    **** }
 1203              		.loc 1 200 0
 1204 002e 1846     		mov	r0, r3
 1205 0030 0C37     		adds	r7, r7, #12
 1206              		.cfi_def_cfa_offset 12
 1207 0032 BD46     		mov	sp, r7
 1208              		.cfi_def_cfa_register 13
 1209              		@ sp needed
 1210 0034 90BD     		pop	{r4, r7, pc}
 1211              	.L90:
 1212 0036 00BF     		.align	2
 1213              	.L89:
 1214 0038 10000000 		.word	s_saved
 1215              		.cfi_endproc
 1216              	.LFE75:
 1217              		.size	joystick_get_cal, .-joystick_get_cal
 1218              		.section	.text.joystick_get_raw,"ax",%progbits
 1219              		.align	2
 1220              		.global	joystick_get_raw
 1221              		.thumb
 1222              		.thumb_func
 1223              		.type	joystick_get_raw, %function
 1224              	joystick_get_raw:
 1225              	.LFB76:
 201:joystick.c    **** 
 202:joystick.c    **** void joystick_get_raw(int16 out_counts[N_CH])
 203:joystick.c    **** {
 1226              		.loc 1 203 0
 1227              		.cfi_startproc
 1228              		@ args = 0, pretend = 0, frame = 16
 1229              		@ frame_needed = 1, uses_anonymous_args = 0
 1230              		@ link register save eliminated.
 1231 0000 80B4     		push	{r7}
 1232              		.cfi_def_cfa_offset 4
 1233              		.cfi_offset 7, -4
 1234 0002 85B0     		sub	sp, sp, #20
 1235              		.cfi_def_cfa_offset 24
 1236 0004 00AF     		add	r7, sp, #0
 1237              		.cfi_def_cfa_register 7
 1238 0006 7860     		str	r0, [r7, #4]
 1239              	.LBB11:
 204:joystick.c    ****     for (uint8 i = 0u; i < (uint8)N_CH; i++)
 1240              		.loc 1 204 0
 1241 0008 0023     		movs	r3, #0
 1242 000a FB73     		strb	r3, [r7, #15]
 1243 000c 0BE0     		b	.L92
 1244              	.L93:
 205:joystick.c    ****         out_counts[i] = s_latest_counts[i];
 1245              		.loc 1 205 0 discriminator 3
 1246 000e FB7B     		ldrb	r3, [r7, #15]	@ zero_extendqisi2
 1247 0010 5B00     		lsls	r3, r3, #1
 1248 0012 7A68     		ldr	r2, [r7, #4]
ARM GAS  C:\Users\JENNEW~1\AppData\Local\Temp\cc7U2Ept.s 			page 27


 1249 0014 1344     		add	r3, r3, r2
 1250 0016 FA7B     		ldrb	r2, [r7, #15]	@ zero_extendqisi2
 1251 0018 0749     		ldr	r1, .L94
 1252 001a 31F91220 		ldrsh	r2, [r1, r2, lsl #1]
 1253 001e 1A80     		strh	r2, [r3]	@ movhi
 204:joystick.c    ****     for (uint8 i = 0u; i < (uint8)N_CH; i++)
 1254              		.loc 1 204 0 discriminator 3
 1255 0020 FB7B     		ldrb	r3, [r7, #15]	@ zero_extendqisi2
 1256 0022 0133     		adds	r3, r3, #1
 1257 0024 FB73     		strb	r3, [r7, #15]
 1258              	.L92:
 204:joystick.c    ****     for (uint8 i = 0u; i < (uint8)N_CH; i++)
 1259              		.loc 1 204 0 is_stmt 0 discriminator 1
 1260 0026 FB7B     		ldrb	r3, [r7, #15]	@ zero_extendqisi2
 1261 0028 012B     		cmp	r3, #1
 1262 002a F0D9     		bls	.L93
 1263              	.LBE11:
 206:joystick.c    **** }
 1264              		.loc 1 206 0 is_stmt 1
 1265 002c 00BF     		nop
 1266 002e 1437     		adds	r7, r7, #20
 1267              		.cfi_def_cfa_offset 4
 1268 0030 BD46     		mov	sp, r7
 1269              		.cfi_def_cfa_register 13
 1270              		@ sp needed
 1271 0032 80BC     		pop	{r7}
 1272              		.cfi_restore 7
 1273              		.cfi_def_cfa_offset 0
 1274 0034 7047     		bx	lr
 1275              	.L95:
 1276 0036 00BF     		.align	2
 1277              	.L94:
 1278 0038 30000000 		.word	s_latest_counts
 1279              		.cfi_endproc
 1280              	.LFE76:
 1281              		.size	joystick_get_raw, .-joystick_get_raw
 1282              		.section	.text.joystick_center_samples_collected,"ax",%progbits
 1283              		.align	2
 1284              		.global	joystick_center_samples_collected
 1285              		.thumb
 1286              		.thumb_func
 1287              		.type	joystick_center_samples_collected, %function
 1288              	joystick_center_samples_collected:
 1289              	.LFB77:
 207:joystick.c    **** 
 208:joystick.c    **** uint16 joystick_center_samples_collected(void)
 209:joystick.c    **** {
 1290              		.loc 1 209 0
 1291              		.cfi_startproc
 1292              		@ args = 0, pretend = 0, frame = 0
 1293              		@ frame_needed = 1, uses_anonymous_args = 0
 1294              		@ link register save eliminated.
 1295 0000 80B4     		push	{r7}
 1296              		.cfi_def_cfa_offset 4
 1297              		.cfi_offset 7, -4
 1298 0002 00AF     		add	r7, sp, #0
 1299              		.cfi_def_cfa_register 7
ARM GAS  C:\Users\JENNEW~1\AppData\Local\Temp\cc7U2Ept.s 			page 28


 210:joystick.c    ****     return s_center_n;
 1300              		.loc 1 210 0
 1301 0004 024B     		ldr	r3, .L98
 1302 0006 1B88     		ldrh	r3, [r3]
 211:joystick.c    **** }
 1303              		.loc 1 211 0
 1304 0008 1846     		mov	r0, r3
 1305 000a BD46     		mov	sp, r7
 1306              		.cfi_def_cfa_register 13
 1307              		@ sp needed
 1308 000c 80BC     		pop	{r7}
 1309              		.cfi_restore 7
 1310              		.cfi_def_cfa_offset 0
 1311 000e 7047     		bx	lr
 1312              	.L99:
 1313              		.align	2
 1314              	.L98:
 1315 0010 40000000 		.word	s_center_n
 1316              		.cfi_endproc
 1317              	.LFE77:
 1318              		.size	joystick_center_samples_collected, .-joystick_center_samples_collected
 1319              		.section	.text.joystick_get_cmd,"ax",%progbits
 1320              		.align	2
 1321              		.global	joystick_get_cmd
 1322              		.thumb
 1323              		.thumb_func
 1324              		.type	joystick_get_cmd, %function
 1325              	joystick_get_cmd:
 1326              	.LFB78:
 212:joystick.c    **** 
 213:joystick.c    **** void joystick_get_cmd(joy_cmd_t *out_cmd)
 214:joystick.c    **** {
 1327              		.loc 1 214 0
 1328              		.cfi_startproc
 1329              		@ args = 0, pretend = 0, frame = 24
 1330              		@ frame_needed = 1, uses_anonymous_args = 0
 1331 0000 90B5     		push	{r4, r7, lr}
 1332              		.cfi_def_cfa_offset 12
 1333              		.cfi_offset 4, -12
 1334              		.cfi_offset 7, -8
 1335              		.cfi_offset 14, -4
 1336 0002 87B0     		sub	sp, sp, #28
 1337              		.cfi_def_cfa_offset 40
 1338 0004 00AF     		add	r7, sp, #0
 1339              		.cfi_def_cfa_register 7
 1340 0006 7860     		str	r0, [r7, #4]
 215:joystick.c    ****     const joy_cal_t *cal = &s_default;
 1341              		.loc 1 215 0
 1342 0008 224B     		ldr	r3, .L105
 1343 000a 7B61     		str	r3, [r7, #20]
 216:joystick.c    **** 
 217:joystick.c    ****     /* Promote saved calibration only if sane */
 218:joystick.c    ****     if (joystick_validate(&s_saved))
 1344              		.loc 1 218 0
 1345 000c 2248     		ldr	r0, .L105+4
 1346 000e FFF7FEFF 		bl	joystick_validate
 1347 0012 0346     		mov	r3, r0
ARM GAS  C:\Users\JENNEW~1\AppData\Local\Temp\cc7U2Ept.s 			page 29


 1348 0014 002B     		cmp	r3, #0
 1349 0016 01D0     		beq	.L101
 219:joystick.c    ****     {
 220:joystick.c    ****         cal = &s_saved;
 1350              		.loc 1 220 0
 1351 0018 1F4B     		ldr	r3, .L105+4
 1352 001a 7B61     		str	r3, [r7, #20]
 1353              	.L101:
 1354              	.LBB12:
 221:joystick.c    ****     }
 222:joystick.c    **** 
 223:joystick.c    **** 
 224:joystick.c    ****     for (uint8 i = 0u; i < (uint8)N_CH; i++)
 1355              		.loc 1 224 0
 1356 001c 0023     		movs	r3, #0
 1357 001e FB74     		strb	r3, [r7, #19]
 1358 0020 30E0     		b	.L102
 1359              	.L104:
 1360              	.LBB13:
 225:joystick.c    ****     {
 226:joystick.c    ****         float u = normalize_axis(s_latest_counts[i], cal->minv[i], cal->center[i], cal->maxv[i]);
 1361              		.loc 1 226 0
 1362 0022 FB7C     		ldrb	r3, [r7, #19]	@ zero_extendqisi2
 1363 0024 1D4A     		ldr	r2, .L105+8
 1364 0026 32F91300 		ldrsh	r0, [r2, r3, lsl #1]
 1365 002a FA7C     		ldrb	r2, [r7, #19]	@ zero_extendqisi2
 1366 002c 7B69     		ldr	r3, [r7, #20]
 1367 002e 33F91210 		ldrsh	r1, [r3, r2, lsl #1]
 1368 0032 FA7C     		ldrb	r2, [r7, #19]	@ zero_extendqisi2
 1369 0034 7B69     		ldr	r3, [r7, #20]
 1370 0036 0432     		adds	r2, r2, #4
 1371 0038 33F91240 		ldrsh	r4, [r3, r2, lsl #1]
 1372 003c FB7C     		ldrb	r3, [r7, #19]	@ zero_extendqisi2
 1373 003e 7A69     		ldr	r2, [r7, #20]
 1374 0040 5B00     		lsls	r3, r3, #1
 1375 0042 1344     		add	r3, r3, r2
 1376 0044 B3F90430 		ldrsh	r3, [r3, #4]
 1377 0048 2246     		mov	r2, r4
 1378 004a FFF7FEFF 		bl	normalize_axis
 1379 004e F860     		str	r0, [r7, #12]	@ float
 227:joystick.c    ****         u = apply_deadband(u, (float)JOY_DEADBAND);
 1380              		.loc 1 227 0
 1381 0050 1349     		ldr	r1, .L105+12
 1382 0052 F868     		ldr	r0, [r7, #12]	@ float
 1383 0054 FFF7FEFF 		bl	apply_deadband
 1384 0058 F860     		str	r0, [r7, #12]	@ float
 228:joystick.c    **** 
 229:joystick.c    ****         if ((s_invert_mask >> i) & 0x1u)
 1385              		.loc 1 229 0
 1386 005a 124B     		ldr	r3, .L105+16
 1387 005c 1A68     		ldr	r2, [r3]
 1388 005e FB7C     		ldrb	r3, [r7, #19]	@ zero_extendqisi2
 1389 0060 22FA03F3 		lsr	r3, r2, r3
 1390 0064 03F00103 		and	r3, r3, #1
 1391 0068 002B     		cmp	r3, #0
 1392 006a 03D0     		beq	.L103
 230:joystick.c    ****             u = -u;
ARM GAS  C:\Users\JENNEW~1\AppData\Local\Temp\cc7U2Ept.s 			page 30


 1393              		.loc 1 230 0
 1394 006c FB68     		ldr	r3, [r7, #12]
 1395 006e 83F00043 		eor	r3, r3, #-2147483648
 1396 0072 FB60     		str	r3, [r7, #12]	@ float
 1397              	.L103:
 231:joystick.c    **** 
 232:joystick.c    ****         u *= (float)CMD_MAX;
 233:joystick.c    ****         out_cmd->u[i] = u;
 1398              		.loc 1 233 0 discriminator 2
 1399 0074 FA7C     		ldrb	r2, [r7, #19]	@ zero_extendqisi2
 1400 0076 7B68     		ldr	r3, [r7, #4]
 1401 0078 F968     		ldr	r1, [r7, #12]	@ float
 1402 007a 43F82210 		str	r1, [r3, r2, lsl #2]	@ float
 1403              	.LBE13:
 224:joystick.c    ****     {
 1404              		.loc 1 224 0 discriminator 2
 1405 007e FB7C     		ldrb	r3, [r7, #19]	@ zero_extendqisi2
 1406 0080 0133     		adds	r3, r3, #1
 1407 0082 FB74     		strb	r3, [r7, #19]
 1408              	.L102:
 224:joystick.c    ****     {
 1409              		.loc 1 224 0 is_stmt 0 discriminator 1
 1410 0084 FB7C     		ldrb	r3, [r7, #19]	@ zero_extendqisi2
 1411 0086 012B     		cmp	r3, #1
 1412 0088 CBD9     		bls	.L104
 1413              	.LBE12:
 234:joystick.c    ****     }
 235:joystick.c    **** }
 1414              		.loc 1 235 0 is_stmt 1
 1415 008a 00BF     		nop
 1416 008c 1C37     		adds	r7, r7, #28
 1417              		.cfi_def_cfa_offset 12
 1418 008e BD46     		mov	sp, r7
 1419              		.cfi_def_cfa_register 13
 1420              		@ sp needed
 1421 0090 90BD     		pop	{r4, r7, pc}
 1422              	.L106:
 1423 0092 00BF     		.align	2
 1424              	.L105:
 1425 0094 00000000 		.word	s_default
 1426 0098 10000000 		.word	s_saved
 1427 009c 30000000 		.word	s_latest_counts
 1428 00a0 CDCC4C3D 		.word	1028443341
 1429 00a4 34000000 		.word	s_invert_mask
 1430              		.cfi_endproc
 1431              	.LFE78:
 1432              		.size	joystick_get_cmd, .-joystick_get_cmd
 1433              		.text
 1434              	.Letext0:
 1435              		.file 2 "c:\\program files (x86)\\cypress\\psoc creator\\4.4\\psoc creator\\import\\gnu\\arm\\5.4.
 1436              		.file 3 "c:\\program files (x86)\\cypress\\psoc creator\\4.4\\psoc creator\\import\\gnu\\arm\\5.4.
 1437              		.file 4 "Generated_Source\\PSoC5/cytypes.h"
 1438              		.file 5 "joystick.h"
 1439              		.file 6 "Generated_Source\\PSoC5/core_cm3.h"