ARM GAS  C:\Users\JENNEW~1\AppData\Local\Temp\ccbTgyOf.s 			page 1


   1              		.syntax unified
   2              		.cpu cortex-m3
   3              		.fpu softvfp
   4              		.eabi_attribute 20, 1
   5              		.eabi_attribute 21, 1
   6              		.eabi_attribute 23, 3
   7              		.eabi_attribute 24, 1
   8              		.eabi_attribute 25, 1
   9              		.eabi_attribute 26, 1
  10              		.eabi_attribute 30, 6
  11              		.eabi_attribute 34, 1
  12              		.eabi_attribute 18, 4
  13              		.thumb
  14              		.syntax unified
  15              		.file	"main.c"
  16              		.text
  17              	.Ltext0:
  18              		.cfi_sections	.debug_frame
  19              		.section	.rodata
  20              		.align	2
  21              	.LC0:
  22 0000 0D0A4341 		.ascii	"\015\012CAL MODE\015\012\000"
  22      4C204D4F 
  22      44450D0A 
  22      00
  23 000d 000000   		.align	2
  24              	.LC1:
  25 0010 53746570 		.ascii	"Step 1: Move joystick through FULL range (all direc"
  25      20313A20 
  25      4D6F7665 
  25      206A6F79 
  25      73746963 
  26 0043 74696F6E 		.ascii	"tions), then release to center.\015\012\000"
  26      73292C20 
  26      7468656E 
  26      2072656C 
  26      65617365 
  27 0065 000000   		.align	2
  28              	.LC2:
  29 0068 50726573 		.ascii	"Press 'c' to capture CENTER (averaged), 'x' to canc"
  29      73202763 
  29      2720746F 
  29      20636170 
  29      74757265 
  30 009b 656C2E0D 		.ascii	"el.\015\012\000"
  30      0A00
  31 00a1 000000   		.align	2
  32              	.LC3:
  33 00a4 0D0A5374 		.ascii	"\015\012Step 2: Capturing CENTER (averaging)... kee"
  33      65702032 
  33      3A204361 
  33      70747572 
  33      696E6720 
  34 00d1 70206A6F 		.ascii	"p joystick relaxed.\015\012\000"
  34      79737469 
  34      636B2072 
  34      656C6178 
ARM GAS  C:\Users\JENNEW~1\AppData\Local\Temp\ccbTgyOf.s 			page 2


  34      65642E0D 
  35 00e7 00       		.align	2
  36              	.LC4:
  37 00e8 57616974 		.ascii	"Wait for capture to complete, then press 'c' to SAV"
  37      20666F72 
  37      20636170 
  37      74757265 
  37      20746F20 
  38 011b 452E0D0A 		.ascii	"E.\015\012\000"
  38      00
  39              		.align	2
  40              	.LC5:
  41 0120 0D0A4365 		.ascii	"\015\012Center captured.\015\012\000"
  41      6E746572 
  41      20636170 
  41      74757265 
  41      642E0D0A 
  42 0135 000000   		.align	2
  43              	.LC6:
  44 0138 53746570 		.ascii	"Step 3: Press 'c' to SAVE, 'x' to cancel.\015\012\000"
  44      20333A20 
  44      50726573 
  44      73202763 
  44      2720746F 
  45              		.align	2
  46              	.LC7:
  47 0164 0D0A4341 		.ascii	"\015\012CAL exited.\015\012\000"
  47      4C206578 
  47      69746564 
  47      2E0D0A00 
  48              		.section	.text.print_cal_prompt_on_state_change,"ax",%progbits
  49              		.align	2
  50              		.thumb
  51              		.thumb_func
  52              		.type	print_cal_prompt_on_state_change, %function
  53              	print_cal_prompt_on_state_change:
  54              	.LFB64:
  55              		.file 1 "main.c"
   1:main.c        **** /* main.c
   2:main.c        ****  *
   3:main.c        ****  * Uses:
   4:main.c        ****  *  - adc_balanced.c/.h  : round-robin ADC sampling over AMux (N_CH channels)
   5:main.c        ****  *  - joystick.c/.h      : calibration + mapping (deadband, inversion, scaling)
   6:main.c        ****  *
   7:main.c        ****  * CLI stays here:
   8:main.c        ****  *   'c' : calibration advance (start -> center capture -> save)
   9:main.c        ****  *   'x' : stop streaming (and also cancels calibration if active)
  10:main.c        ****  *   's' : start streaming
  11:main.c        ****  */
  12:main.c        **** 
  13:main.c        **** #include <project.h>
  14:main.c        **** #include <stdio.h>
  15:main.c        **** 
  16:main.c        **** #include "adc_balanced.h"
  17:main.c        **** #include "joystick.h"
  18:main.c        **** 
  19:main.c        **** /* Project Defines */
ARM GAS  C:\Users\JENNEW~1\AppData\Local\Temp\ccbTgyOf.s 			page 3


  20:main.c        **** #define FALSE  0
  21:main.c        **** #define TRUE   1
  22:main.c        **** 
  23:main.c        **** #define TRANSMIT_BUFFER_SIZE  96
  24:main.c        **** 
  25:main.c        **** /* N_CH should be consistent across modules (defaults to 2 if not defined) */
  26:main.c        **** /* #define N_CH (2u) */
  27:main.c        **** 
  28:main.c        **** /* Channel assignments */
  29:main.c        **** #define CH_X (0u)
  30:main.c        **** #define CH_Y (1u)
  31:main.c        **** 
  32:main.c        **** static void print_cal_prompt_on_state_change(joy_cal_state_t prev, joy_cal_state_t now)
  33:main.c        **** {
  56              		.loc 1 33 0
  57              		.cfi_startproc
  58              		@ args = 0, pretend = 0, frame = 8
  59              		@ frame_needed = 1, uses_anonymous_args = 0
  60 0000 80B5     		push	{r7, lr}
  61              		.cfi_def_cfa_offset 8
  62              		.cfi_offset 7, -8
  63              		.cfi_offset 14, -4
  64 0002 82B0     		sub	sp, sp, #8
  65              		.cfi_def_cfa_offset 16
  66 0004 00AF     		add	r7, sp, #0
  67              		.cfi_def_cfa_register 7
  68 0006 0346     		mov	r3, r0
  69 0008 0A46     		mov	r2, r1
  70 000a FB71     		strb	r3, [r7, #7]
  71 000c 1346     		mov	r3, r2
  72 000e BB71     		strb	r3, [r7, #6]
  34:main.c        ****     if (prev == now) return;
  73              		.loc 1 34 0
  74 0010 FA79     		ldrb	r2, [r7, #7]	@ zero_extendqisi2
  75 0012 BB79     		ldrb	r3, [r7, #6]	@ zero_extendqisi2
  76 0014 9A42     		cmp	r2, r3
  77 0016 2AD0     		beq	.L7
  35:main.c        **** 
  36:main.c        ****     if (now == JOY_CAL_RANGE_CAPTURE)
  78              		.loc 1 36 0
  79 0018 BB79     		ldrb	r3, [r7, #6]	@ zero_extendqisi2
  80 001a 012B     		cmp	r3, #1
  81 001c 09D1     		bne	.L4
  37:main.c        ****     {
  38:main.c        ****         UART_1_PutString("\r\nCAL MODE\r\n");
  82              		.loc 1 38 0
  83 001e 1648     		ldr	r0, .L8
  84 0020 FFF7FEFF 		bl	UART_1_PutString
  39:main.c        ****         UART_1_PutString("Step 1: Move joystick through FULL range (all directions), then release t
  85              		.loc 1 39 0
  86 0024 1548     		ldr	r0, .L8+4
  87 0026 FFF7FEFF 		bl	UART_1_PutString
  40:main.c        ****         UART_1_PutString("Press 'c' to capture CENTER (averaged), 'x' to cancel.\r\n");
  88              		.loc 1 40 0
  89 002a 1548     		ldr	r0, .L8+8
  90 002c FFF7FEFF 		bl	UART_1_PutString
  91 0030 1EE0     		b	.L1
ARM GAS  C:\Users\JENNEW~1\AppData\Local\Temp\ccbTgyOf.s 			page 4


  92              	.L4:
  41:main.c        ****     }
  42:main.c        ****     else if (now == JOY_CAL_CENTER_CAPTURE)
  93              		.loc 1 42 0
  94 0032 BB79     		ldrb	r3, [r7, #6]	@ zero_extendqisi2
  95 0034 022B     		cmp	r3, #2
  96 0036 06D1     		bne	.L5
  43:main.c        ****     {
  44:main.c        ****         UART_1_PutString("\r\nStep 2: Capturing CENTER (averaging)... keep joystick relaxed.\r\n");
  97              		.loc 1 44 0
  98 0038 1248     		ldr	r0, .L8+12
  99 003a FFF7FEFF 		bl	UART_1_PutString
  45:main.c        ****         UART_1_PutString("Wait for capture to complete, then press 'c' to SAVE.\r\n");
 100              		.loc 1 45 0
 101 003e 1248     		ldr	r0, .L8+16
 102 0040 FFF7FEFF 		bl	UART_1_PutString
 103 0044 14E0     		b	.L1
 104              	.L5:
  46:main.c        ****     }
  47:main.c        ****     else if (now == JOY_CAL_CONFIRM_SAVE)
 105              		.loc 1 47 0
 106 0046 BB79     		ldrb	r3, [r7, #6]	@ zero_extendqisi2
 107 0048 032B     		cmp	r3, #3
 108 004a 06D1     		bne	.L6
  48:main.c        ****     {
  49:main.c        ****         UART_1_PutString("\r\nCenter captured.\r\n");
 109              		.loc 1 49 0
 110 004c 0F48     		ldr	r0, .L8+20
 111 004e FFF7FEFF 		bl	UART_1_PutString
  50:main.c        ****         UART_1_PutString("Step 3: Press 'c' to SAVE, 'x' to cancel.\r\n");
 112              		.loc 1 50 0
 113 0052 0F48     		ldr	r0, .L8+24
 114 0054 FFF7FEFF 		bl	UART_1_PutString
 115 0058 0AE0     		b	.L1
 116              	.L6:
  51:main.c        ****     }
  52:main.c        ****     else if (now == JOY_CAL_OFF && prev != JOY_CAL_OFF)
 117              		.loc 1 52 0
 118 005a BB79     		ldrb	r3, [r7, #6]	@ zero_extendqisi2
 119 005c 002B     		cmp	r3, #0
 120 005e 07D1     		bne	.L1
 121              		.loc 1 52 0 is_stmt 0 discriminator 1
 122 0060 FB79     		ldrb	r3, [r7, #7]	@ zero_extendqisi2
 123 0062 002B     		cmp	r3, #0
 124 0064 04D0     		beq	.L1
  53:main.c        ****     {
  54:main.c        ****         /* Could have been cancel or save; joystick module stays print-free */
  55:main.c        ****         UART_1_PutString("\r\nCAL exited.\r\n");
 125              		.loc 1 55 0 is_stmt 1
 126 0066 0B48     		ldr	r0, .L8+28
 127 0068 FFF7FEFF 		bl	UART_1_PutString
 128 006c 00E0     		b	.L1
 129              	.L7:
  34:main.c        **** 
 130              		.loc 1 34 0
 131 006e 00BF     		nop
 132              	.L1:
ARM GAS  C:\Users\JENNEW~1\AppData\Local\Temp\ccbTgyOf.s 			page 5


  56:main.c        ****     }
  57:main.c        **** }
 133              		.loc 1 57 0
 134 0070 0837     		adds	r7, r7, #8
 135              		.cfi_def_cfa_offset 8
 136 0072 BD46     		mov	sp, r7
 137              		.cfi_def_cfa_register 13
 138              		@ sp needed
 139 0074 80BD     		pop	{r7, pc}
 140              	.L9:
 141 0076 00BF     		.align	2
 142              	.L8:
 143 0078 00000000 		.word	.LC0
 144 007c 10000000 		.word	.LC1
 145 0080 68000000 		.word	.LC2
 146 0084 A4000000 		.word	.LC3
 147 0088 E8000000 		.word	.LC4
 148 008c 20010000 		.word	.LC5
 149 0090 38010000 		.word	.LC6
 150 0094 64010000 		.word	.LC7
 151              		.cfi_endproc
 152              	.LFE64:
 153              		.size	print_cal_prompt_on_state_change, .-print_cal_prompt_on_state_change
 154              		.section	.rodata
 155              		.align	2
 156              	.LC8:
 157 0174 434F4D20 		.ascii	"COM Port Open\015\012\000"
 157      506F7274 
 157      204F7065 
 157      6E0D0A00 
 158              		.align	2
 159              	.LC9:
 160 0184 4B657973 		.ascii	"Keys: s=start stream, x=stop stream/cancel cal, c=c"
 160      3A20733D 
 160      73746172 
 160      74207374 
 160      7265616D 
 161 01b7 616C2061 		.ascii	"al advance\015\012\000"
 161      6476616E 
 161      63650D0A 
 161      00
 162              		.global	__aeabi_fmul
 163              		.global	__aeabi_f2iz
 164              		.align	2
 165              	.LC10:
 166 01c4 583A256C 		.ascii	"X:%ld mV Y:%ld mV  pan:%d/1000  tilt:%d/1000\015\012"
 166      64206D56 
 166      20593A25 
 166      6C64206D 
 166      56202070 
 167 01f2 00       		.ascii	"\000"
 168 01f3 00       		.align	2
 169              	.LC11:
 170 01f4 43656E74 		.ascii	"Center samples: %u/%u\015\012\000"
 170      65722073 
 170      616D706C 
 170      65733A20 
ARM GAS  C:\Users\JENNEW~1\AppData\Local\Temp\ccbTgyOf.s 			page 6


 170      25752F25 
 171              		.section	.text.main,"ax",%progbits
 172              		.align	2
 173              		.global	main
 174              		.thumb
 175              		.thumb_func
 176              		.type	main, %function
 177              	main:
 178              	.LFB65:
  58:main.c        **** 
  59:main.c        **** int main(void)
  60:main.c        **** {
 179              		.loc 1 60 0
 180              		.cfi_startproc
 181              		@ args = 0, pretend = 0, frame = 152
 182              		@ frame_needed = 1, uses_anonymous_args = 0
 183 0000 80B5     		push	{r7, lr}
 184              		.cfi_def_cfa_offset 8
 185              		.cfi_offset 7, -8
 186              		.cfi_offset 14, -4
 187 0002 A8B0     		sub	sp, sp, #160
 188              		.cfi_def_cfa_offset 168
 189 0004 02AF     		add	r7, sp, #8
 190              		.cfi_def_cfa 7, 160
  61:main.c        ****     char tx[TRANSMIT_BUFFER_SIZE];
  62:main.c        **** 
  63:main.c        ****     uint8 ch;
  64:main.c        ****     uint8 streaming = FALSE;
 191              		.loc 1 64 0
 192 0006 0023     		movs	r3, #0
 193 0008 87F89730 		strb	r3, [r7, #151]
  65:main.c        **** 
  66:main.c        ****     /* Latest raw counts from ADC frame */
  67:main.c        ****     int16 counts[N_CH];
  68:main.c        **** 
  69:main.c        ****     /* Telemetry */
  70:main.c        ****     int32 x_mv = 0;
 194              		.loc 1 70 0
 195 000c 0023     		movs	r3, #0
 196 000e C7F89030 		str	r3, [r7, #144]
  71:main.c        ****     int32 y_mv = 0;
 197              		.loc 1 71 0
 198 0012 0023     		movs	r3, #0
 199 0014 C7F88C30 		str	r3, [r7, #140]
  72:main.c        **** 
  73:main.c        ****     /* Commands */
  74:main.c        ****     joy_cmd_t cmd;
  75:main.c        **** 
  76:main.c        ****     /* Calibration state tracking for prompts */
  77:main.c        ****     joy_cal_state_t cal_prev = JOY_CAL_OFF;
 200              		.loc 1 77 0
 201 0018 0023     		movs	r3, #0
 202 001a 87F89630 		strb	r3, [r7, #150]
 203              	.LBB2:
  78:main.c        **** 
  79:main.c        ****     /* Default calibration (best guess) */
  80:main.c        ****     joy_cal_t defaults;
ARM GAS  C:\Users\JENNEW~1\AppData\Local\Temp\ccbTgyOf.s 			page 7


  81:main.c        ****     for (uint8 i = 0u; i < (uint8)N_CH; i++)
 204              		.loc 1 81 0
 205 001e 0023     		movs	r3, #0
 206 0020 87F89530 		strb	r3, [r7, #149]
 207 0024 20E0     		b	.L11
 208              	.L12:
  82:main.c        ****     {
  83:main.c        ****         defaults.minv[i]   = 0;
 209              		.loc 1 83 0 discriminator 3
 210 0026 97F89530 		ldrb	r3, [r7, #149]	@ zero_extendqisi2
 211 002a 5B00     		lsls	r3, r3, #1
 212 002c 07F19802 		add	r2, r7, #152
 213 0030 1344     		add	r3, r3, r2
 214 0032 0022     		movs	r2, #0
 215 0034 23F8942C 		strh	r2, [r3, #-148]	@ movhi
  84:main.c        ****         defaults.maxv[i]   = 255;
 216              		.loc 1 84 0 discriminator 3
 217 0038 97F89530 		ldrb	r3, [r7, #149]	@ zero_extendqisi2
 218 003c 5B00     		lsls	r3, r3, #1
 219 003e 07F19802 		add	r2, r7, #152
 220 0042 1344     		add	r3, r3, r2
 221 0044 FF22     		movs	r2, #255
 222 0046 23F8902C 		strh	r2, [r3, #-144]	@ movhi
  85:main.c        ****         defaults.center[i] = 128;
 223              		.loc 1 85 0 discriminator 3
 224 004a 97F89530 		ldrb	r3, [r7, #149]	@ zero_extendqisi2
 225 004e 0433     		adds	r3, r3, #4
 226 0050 5B00     		lsls	r3, r3, #1
 227 0052 07F19802 		add	r2, r7, #152
 228 0056 1344     		add	r3, r3, r2
 229 0058 8022     		movs	r2, #128
 230 005a 23F8942C 		strh	r2, [r3, #-148]	@ movhi
  81:main.c        ****     {
 231              		.loc 1 81 0 discriminator 3
 232 005e 97F89530 		ldrb	r3, [r7, #149]	@ zero_extendqisi2
 233 0062 0133     		adds	r3, r3, #1
 234 0064 87F89530 		strb	r3, [r7, #149]
 235              	.L11:
  81:main.c        ****     {
 236              		.loc 1 81 0 is_stmt 0 discriminator 1
 237 0068 97F89530 		ldrb	r3, [r7, #149]	@ zero_extendqisi2
 238 006c 012B     		cmp	r3, #1
 239 006e DAD9     		bls	.L12
 240              	.LBE2:
  86:main.c        ****     }
  87:main.c        ****     defaults.valid = 0u;
 241              		.loc 1 87 0 is_stmt 1
 242 0070 0023     		movs	r3, #0
 243 0072 3B74     		strb	r3, [r7, #16]
  88:main.c        **** 
  89:main.c        ****     /* Inversion mask: flip X for “pan” direction, leave Y normal */
  90:main.c        ****     uint32 invert_mask = (1u << CH_X);
 244              		.loc 1 90 0
 245 0074 0123     		movs	r3, #1
 246 0076 C7F88830 		str	r3, [r7, #136]
  91:main.c        **** 
  92:main.c        ****     /* Start UART early for user feedback */
ARM GAS  C:\Users\JENNEW~1\AppData\Local\Temp\ccbTgyOf.s 			page 8


  93:main.c        ****     CyGlobalIntEnable;
 247              		.loc 1 93 0
 248              		.syntax unified
 249              	@ 93 "main.c" 1
 250 007a 62B6     		CPSIE   i
 251              	@ 0 "" 2
  94:main.c        ****     UART_1_Start();
 252              		.loc 1 94 0
 253              		.thumb
 254              		.syntax unified
 255 007c FFF7FEFF 		bl	UART_1_Start
  95:main.c        ****     UART_1_PutString("COM Port Open\r\n");
 256              		.loc 1 95 0
 257 0080 5F48     		ldr	r0, .L22
 258 0082 FFF7FEFF 		bl	UART_1_PutString
  96:main.c        ****     UART_1_PutString("Keys: s=start stream, x=stop stream/cancel cal, c=cal advance\r\n");
 259              		.loc 1 96 0
 260 0086 5F48     		ldr	r0, .L22+4
 261 0088 FFF7FEFF 		bl	UART_1_PutString
  97:main.c        **** 
  98:main.c        ****     /* Init modules */
  99:main.c        ****     joystick_init(&defaults, invert_mask);
 262              		.loc 1 99 0
 263 008c 3B1D     		adds	r3, r7, #4
 264 008e D7F88810 		ldr	r1, [r7, #136]
 265 0092 1846     		mov	r0, r3
 266 0094 FFF7FEFF 		bl	joystick_init
 100:main.c        ****     adc_balanced_init();
 267              		.loc 1 100 0
 268 0098 FFF7FEFF 		bl	adc_balanced_init
 269              	.L21:
 101:main.c        **** 
 102:main.c        ****     for (;;)
 103:main.c        ****     {
 104:main.c        ****         /* ---------- CLI ---------- */
 105:main.c        ****         ch = (uint8)UART_1_GetChar();
 270              		.loc 1 105 0
 271 009c FFF7FEFF 		bl	UART_1_GetChar
 272 00a0 0346     		mov	r3, r0
 273 00a2 87F88730 		strb	r3, [r7, #135]
 106:main.c        **** 
 107:main.c        ****         if (ch == 's' || ch == 'S')
 274              		.loc 1 107 0
 275 00a6 97F88730 		ldrb	r3, [r7, #135]	@ zero_extendqisi2
 276 00aa 732B     		cmp	r3, #115
 277 00ac 03D0     		beq	.L13
 278              		.loc 1 107 0 is_stmt 0 discriminator 1
 279 00ae 97F88730 		ldrb	r3, [r7, #135]	@ zero_extendqisi2
 280 00b2 532B     		cmp	r3, #83
 281 00b4 03D1     		bne	.L14
 282              	.L13:
 108:main.c        ****         {
 109:main.c        ****             streaming = TRUE;
 283              		.loc 1 109 0 is_stmt 1
 284 00b6 0123     		movs	r3, #1
 285 00b8 87F89730 		strb	r3, [r7, #151]
 286 00bc 1DE0     		b	.L15
ARM GAS  C:\Users\JENNEW~1\AppData\Local\Temp\ccbTgyOf.s 			page 9


 287              	.L14:
 110:main.c        ****         }
 111:main.c        ****         else if (ch == 'x' || ch == 'X')
 288              		.loc 1 111 0
 289 00be 97F88730 		ldrb	r3, [r7, #135]	@ zero_extendqisi2
 290 00c2 782B     		cmp	r3, #120
 291 00c4 03D0     		beq	.L16
 292              		.loc 1 111 0 is_stmt 0 discriminator 1
 293 00c6 97F88730 		ldrb	r3, [r7, #135]	@ zero_extendqisi2
 294 00ca 582B     		cmp	r3, #88
 295 00cc 08D1     		bne	.L17
 296              	.L16:
 112:main.c        ****         {
 113:main.c        ****             streaming = FALSE;
 297              		.loc 1 113 0 is_stmt 1
 298 00ce 0023     		movs	r3, #0
 299 00d0 87F89730 		strb	r3, [r7, #151]
 114:main.c        ****             joystick_on_key((char)ch); /* also cancels calibration if active */
 300              		.loc 1 114 0
 301 00d4 97F88730 		ldrb	r3, [r7, #135]	@ zero_extendqisi2
 302 00d8 1846     		mov	r0, r3
 303 00da FFF7FEFF 		bl	joystick_on_key
 304 00de 0CE0     		b	.L15
 305              	.L17:
 115:main.c        ****         }
 116:main.c        ****         else if (ch == 'c' || ch == 'C')
 306              		.loc 1 116 0
 307 00e0 97F88730 		ldrb	r3, [r7, #135]	@ zero_extendqisi2
 308 00e4 632B     		cmp	r3, #99
 309 00e6 03D0     		beq	.L18
 310              		.loc 1 116 0 is_stmt 0 discriminator 1
 311 00e8 97F88730 		ldrb	r3, [r7, #135]	@ zero_extendqisi2
 312 00ec 432B     		cmp	r3, #67
 313 00ee 04D1     		bne	.L15
 314              	.L18:
 117:main.c        ****         {
 118:main.c        ****             joystick_on_key((char)ch);
 315              		.loc 1 118 0 is_stmt 1
 316 00f0 97F88730 		ldrb	r3, [r7, #135]	@ zero_extendqisi2
 317 00f4 1846     		mov	r0, r3
 318 00f6 FFF7FEFF 		bl	joystick_on_key
 319              	.L15:
 320              	.LBB3:
 119:main.c        ****         }
 120:main.c        **** 
 121:main.c        ****         /* Provide prompts when cal state changes */
 122:main.c        ****         {
 123:main.c        ****             joy_cal_state_t cal_now = joystick_cal_state();
 321              		.loc 1 123 0
 322 00fa FFF7FEFF 		bl	joystick_cal_state
 323 00fe 0346     		mov	r3, r0
 324 0100 87F88630 		strb	r3, [r7, #134]
 124:main.c        ****             print_cal_prompt_on_state_change(cal_prev, cal_now);
 325              		.loc 1 124 0
 326 0104 97F88620 		ldrb	r2, [r7, #134]	@ zero_extendqisi2
 327 0108 97F89630 		ldrb	r3, [r7, #150]	@ zero_extendqisi2
 328 010c 1146     		mov	r1, r2
ARM GAS  C:\Users\JENNEW~1\AppData\Local\Temp\ccbTgyOf.s 			page 10


 329 010e 1846     		mov	r0, r3
 330 0110 FFF7FEFF 		bl	print_cal_prompt_on_state_change
 125:main.c        ****             cal_prev = cal_now;
 331              		.loc 1 125 0
 332 0114 97F88630 		ldrb	r3, [r7, #134]
 333 0118 87F89630 		strb	r3, [r7, #150]
 334              	.LBE3:
 126:main.c        ****         }
 127:main.c        **** 
 128:main.c        ****         /* ---------- ADC sampling ---------- */
 129:main.c        ****         if (adc_balanced_poll_frame(counts))
 335              		.loc 1 129 0
 336 011c 07F11C03 		add	r3, r7, #28
 337 0120 1846     		mov	r0, r3
 338 0122 FFF7FEFF 		bl	adc_balanced_poll_frame
 339 0126 0346     		mov	r3, r0
 340 0128 002B     		cmp	r3, #0
 341 012a B7D0     		beq	.L21
 130:main.c        ****         {
 131:main.c        ****             /* Feed joystick module the fresh frame */
 132:main.c        ****             joystick_on_sample(counts);
 342              		.loc 1 132 0
 343 012c 07F11C03 		add	r3, r7, #28
 344 0130 1846     		mov	r0, r3
 345 0132 FFF7FEFF 		bl	joystick_on_sample
 133:main.c        **** 
 134:main.c        ****             /* Convert to mV for telemetry (optional) */
 135:main.c        ****             x_mv = adc_balanced_counts_to_mv(counts[CH_X]);
 346              		.loc 1 135 0
 347 0136 B7F91C30 		ldrsh	r3, [r7, #28]
 348 013a 1846     		mov	r0, r3
 349 013c FFF7FEFF 		bl	adc_balanced_counts_to_mv
 350 0140 C7F89000 		str	r0, [r7, #144]
 136:main.c        ****             y_mv = adc_balanced_counts_to_mv(counts[CH_Y]);
 351              		.loc 1 136 0
 352 0144 B7F91E30 		ldrsh	r3, [r7, #30]
 353 0148 1846     		mov	r0, r3
 354 014a FFF7FEFF 		bl	adc_balanced_counts_to_mv
 355 014e C7F88C00 		str	r0, [r7, #140]
 137:main.c        **** 
 138:main.c        ****             /* Get mapped commands */
 139:main.c        ****             joystick_get_cmd(&cmd);
 356              		.loc 1 139 0
 357 0152 07F11403 		add	r3, r7, #20
 358 0156 1846     		mov	r0, r3
 359 0158 FFF7FEFF 		bl	joystick_get_cmd
 140:main.c        **** 
 141:main.c        ****             if (streaming)
 360              		.loc 1 141 0
 361 015c 97F89730 		ldrb	r3, [r7, #151]	@ zero_extendqisi2
 362 0160 002B     		cmp	r3, #0
 363 0162 2BD0     		beq	.L20
 364              	.LBB4:
 142:main.c        ****             {
 143:main.c        ****                 /* Avoid printf-float settings: print milli-units */
 144:main.c        ****                 int16 pan_milli  = (int16)(cmd.u[CH_X] * 1000.0f);
 365              		.loc 1 144 0
ARM GAS  C:\Users\JENNEW~1\AppData\Local\Temp\ccbTgyOf.s 			page 11


 366 0164 7B69     		ldr	r3, [r7, #20]	@ float
 367 0166 2849     		ldr	r1, .L22+8
 368 0168 1846     		mov	r0, r3
 369 016a FFF7FEFF 		bl	__aeabi_fmul
 370 016e 0346     		mov	r3, r0
 371 0170 1846     		mov	r0, r3
 372 0172 FFF7FEFF 		bl	__aeabi_f2iz
 373 0176 0346     		mov	r3, r0
 374 0178 A7F88430 		strh	r3, [r7, #132]	@ movhi
 145:main.c        ****                 int16 tilt_milli = (int16)(cmd.u[CH_Y] * 1000.0f);
 375              		.loc 1 145 0
 376 017c BB69     		ldr	r3, [r7, #24]	@ float
 377 017e 2249     		ldr	r1, .L22+8
 378 0180 1846     		mov	r0, r3
 379 0182 FFF7FEFF 		bl	__aeabi_fmul
 380 0186 0346     		mov	r3, r0
 381 0188 1846     		mov	r0, r3
 382 018a FFF7FEFF 		bl	__aeabi_f2iz
 383 018e 0346     		mov	r3, r0
 384 0190 A7F88230 		strh	r3, [r7, #130]	@ movhi
 146:main.c        **** 
 147:main.c        ****                 sprintf(tx,
 385              		.loc 1 147 0
 386 0194 B7F98430 		ldrsh	r3, [r7, #132]
 387 0198 B7F98220 		ldrsh	r2, [r7, #130]
 388 019c 07F12000 		add	r0, r7, #32
 389 01a0 0192     		str	r2, [sp, #4]
 390 01a2 0093     		str	r3, [sp]
 391 01a4 D7F88C30 		ldr	r3, [r7, #140]
 392 01a8 D7F89020 		ldr	r2, [r7, #144]
 393 01ac 1749     		ldr	r1, .L22+12
 394 01ae FFF7FEFF 		bl	sprintf
 148:main.c        ****                         "X:%ld mV Y:%ld mV  pan:%d/1000  tilt:%d/1000\r\n",
 149:main.c        ****                         (long)x_mv, (long)y_mv, pan_milli, tilt_milli);
 150:main.c        ****                 UART_1_PutString(tx);
 395              		.loc 1 150 0
 396 01b2 07F12003 		add	r3, r7, #32
 397 01b6 1846     		mov	r0, r3
 398 01b8 FFF7FEFF 		bl	UART_1_PutString
 399              	.L20:
 400              	.LBE4:
 151:main.c        ****             }
 152:main.c        **** 
 153:main.c        ****             /* Optional: while center capture is running, show progress */
 154:main.c        ****             if (joystick_cal_state() == JOY_CAL_CENTER_CAPTURE)
 401              		.loc 1 154 0
 402 01bc FFF7FEFF 		bl	joystick_cal_state
 403 01c0 0346     		mov	r3, r0
 404 01c2 022B     		cmp	r3, #2
 405 01c4 7FF46AAF 		bne	.L21
 406              	.LBB5:
 155:main.c        ****             {
 156:main.c        ****                 uint16 n = joystick_center_samples_collected();
 407              		.loc 1 156 0
 408 01c8 FFF7FEFF 		bl	joystick_center_samples_collected
 409 01cc 0346     		mov	r3, r0
 410 01ce A7F88030 		strh	r3, [r7, #128]	@ movhi
ARM GAS  C:\Users\JENNEW~1\AppData\Local\Temp\ccbTgyOf.s 			page 12


 157:main.c        ****                 if ((n % 8u) == 0u) /* throttle prints */
 411              		.loc 1 157 0
 412 01d2 B7F88030 		ldrh	r3, [r7, #128]	@ movhi
 413 01d6 03F00703 		and	r3, r3, #7
 414 01da 9BB2     		uxth	r3, r3
 415 01dc 002B     		cmp	r3, #0
 416 01de 7FF45DAF 		bne	.L21
 158:main.c        ****                 {
 159:main.c        ****                     sprintf(tx, "Center samples: %u/%u\r\n", (unsigned)n, (unsigned)CAL_CENTER_SAMP
 417              		.loc 1 159 0
 418 01e2 B7F88020 		ldrh	r2, [r7, #128]
 419 01e6 07F12000 		add	r0, r7, #32
 420 01ea 2023     		movs	r3, #32
 421 01ec 0849     		ldr	r1, .L22+16
 422 01ee FFF7FEFF 		bl	sprintf
 160:main.c        ****                     UART_1_PutString(tx);
 423              		.loc 1 160 0
 424 01f2 07F12003 		add	r3, r7, #32
 425 01f6 1846     		mov	r0, r3
 426 01f8 FFF7FEFF 		bl	UART_1_PutString
 427              	.LBE5:
 161:main.c        ****                 }
 162:main.c        ****             }
 163:main.c        ****         }
 164:main.c        ****     }
 428              		.loc 1 164 0
 429 01fc 4EE7     		b	.L21
 430              	.L23:
 431 01fe 00BF     		.align	2
 432              	.L22:
 433 0200 74010000 		.word	.LC8
 434 0204 84010000 		.word	.LC9
 435 0208 00007A44 		.word	1148846080
 436 020c C4010000 		.word	.LC10
 437 0210 F4010000 		.word	.LC11
 438              		.cfi_endproc
 439              	.LFE65:
 440              		.size	main, .-main
 441              		.text
 442              	.Letext0:
 443              		.file 2 "c:\\program files (x86)\\cypress\\psoc creator\\4.4\\psoc creator\\import\\gnu\\arm\\5.4.
 444              		.file 3 "c:\\program files (x86)\\cypress\\psoc creator\\4.4\\psoc creator\\import\\gnu\\arm\\5.4.
 445              		.file 4 "Generated_Source\\PSoC5/cytypes.h"
 446              		.file 5 "joystick.h"
 447              		.file 6 "Generated_Source\\PSoC5/core_cm3.h"