ARM GAS  C:\Users\JENNEW~1\AppData\Local\Temp\ccGeqOtT.s 			page 1


   1              		.syntax unified
   2              		.cpu cortex-m3
   3              		.fpu softvfp
   4              		.eabi_attribute 20, 1
   5              		.eabi_attribute 21, 1
   6              		.eabi_attribute 23, 3
   7              		.eabi_attribute 24, 1
   8              		.eabi_attribute 25, 1
   9              		.eabi_attribute 26, 1
  10              		.eabi_attribute 30, 6
  11              		.eabi_attribute 34, 1
  12              		.eabi_attribute 18, 4
  13              		.thumb
  14              		.syntax unified
  15              		.file	"hamfly_comm_txbuf.c"
  16              		.text
  17              	.Ltext0:
  18              		.cfi_sections	.debug_frame
  19              		.section	.text.hamfly_txbuf_init,"ax",%progbits
  20              		.align	2
  21              		.global	hamfly_txbuf_init
  22              		.thumb
  23              		.thumb_func
  24              		.type	hamfly_txbuf_init, %function
  25              	hamfly_txbuf_init:
  26              	.LFB0:
  27              		.file 1 "HamflyAPI\\hamfly_comm_txbuf.c"
   1:HamflyAPI/hamfly_comm_txbuf.c **** /* hamfly_txbuf.c
   2:HamflyAPI/hamfly_comm_txbuf.c ****  * ============================================================
   3:HamflyAPI/hamfly_comm_txbuf.c ****  * Copyright Hamish Johnson, 2026
   4:HamflyAPI/hamfly_comm_txbuf.c ****  * Quantum Internet Systems Lab, SFU Physics
   5:HamflyAPI/hamfly_comm_txbuf.c ****  * ============================================================
   6:HamflyAPI/hamfly_comm_txbuf.c ****  *
   7:HamflyAPI/hamfly_comm_txbuf.c ****  * Instance-based TX staging buffer.
   8:HamflyAPI/hamfly_comm_txbuf.c ****  * Replaces the global simple_buffer singleton so each
   9:HamflyAPI/hamfly_comm_txbuf.c ****  * hamfly_gimbal_t owns its own TX buffer.
  10:HamflyAPI/hamfly_comm_txbuf.c ****  * Main-loop only -- not ISR-safe.
  11:HamflyAPI/hamfly_comm_txbuf.c ****  */
  12:HamflyAPI/hamfly_comm_txbuf.c **** 
  13:HamflyAPI/hamfly_comm_txbuf.c **** #include "hamfly_comm_txbuf.h"
  14:HamflyAPI/hamfly_comm_txbuf.c **** 
  15:HamflyAPI/hamfly_comm_txbuf.c **** void hamfly_txbuf_init(hamfly_txbuf_t *tb)
  16:HamflyAPI/hamfly_comm_txbuf.c **** {
  28              		.loc 1 16 0
  29              		.cfi_startproc
  30              		@ args = 0, pretend = 0, frame = 8
  31              		@ frame_needed = 1, uses_anonymous_args = 0
  32              		@ link register save eliminated.
  33 0000 80B4     		push	{r7}
  34              		.cfi_def_cfa_offset 4
  35              		.cfi_offset 7, -4
  36 0002 83B0     		sub	sp, sp, #12
  37              		.cfi_def_cfa_offset 16
  38 0004 00AF     		add	r7, sp, #0
  39              		.cfi_def_cfa_register 7
  40 0006 7860     		str	r0, [r7, #4]
  17:HamflyAPI/hamfly_comm_txbuf.c ****     tb->head = 0u;
ARM GAS  C:\Users\JENNEW~1\AppData\Local\Temp\ccGeqOtT.s 			page 2


  41              		.loc 1 17 0
  42 0008 7B68     		ldr	r3, [r7, #4]
  43 000a 0022     		movs	r2, #0
  44 000c 83F84020 		strb	r2, [r3, #64]
  18:HamflyAPI/hamfly_comm_txbuf.c ****     tb->tail = 0u;
  45              		.loc 1 18 0
  46 0010 7B68     		ldr	r3, [r7, #4]
  47 0012 0022     		movs	r2, #0
  48 0014 83F84120 		strb	r2, [r3, #65]
  19:HamflyAPI/hamfly_comm_txbuf.c **** }
  49              		.loc 1 19 0
  50 0018 00BF     		nop
  51 001a 0C37     		adds	r7, r7, #12
  52              		.cfi_def_cfa_offset 4
  53 001c BD46     		mov	sp, r7
  54              		.cfi_def_cfa_register 13
  55              		@ sp needed
  56 001e 80BC     		pop	{r7}
  57              		.cfi_restore 7
  58              		.cfi_def_cfa_offset 0
  59 0020 7047     		bx	lr
  60              		.cfi_endproc
  61              	.LFE0:
  62              		.size	hamfly_txbuf_init, .-hamfly_txbuf_init
  63 0022 00BF     		.section	.text.hamfly_txbuf_clear,"ax",%progbits
  64              		.align	2
  65              		.global	hamfly_txbuf_clear
  66              		.thumb
  67              		.thumb_func
  68              		.type	hamfly_txbuf_clear, %function
  69              	hamfly_txbuf_clear:
  70              	.LFB1:
  20:HamflyAPI/hamfly_comm_txbuf.c **** 
  21:HamflyAPI/hamfly_comm_txbuf.c **** void hamfly_txbuf_clear(hamfly_txbuf_t *tb)
  22:HamflyAPI/hamfly_comm_txbuf.c **** {
  71              		.loc 1 22 0
  72              		.cfi_startproc
  73              		@ args = 0, pretend = 0, frame = 8
  74              		@ frame_needed = 1, uses_anonymous_args = 0
  75              		@ link register save eliminated.
  76 0000 80B4     		push	{r7}
  77              		.cfi_def_cfa_offset 4
  78              		.cfi_offset 7, -4
  79 0002 83B0     		sub	sp, sp, #12
  80              		.cfi_def_cfa_offset 16
  81 0004 00AF     		add	r7, sp, #0
  82              		.cfi_def_cfa_register 7
  83 0006 7860     		str	r0, [r7, #4]
  23:HamflyAPI/hamfly_comm_txbuf.c ****     tb->head = 0u;
  84              		.loc 1 23 0
  85 0008 7B68     		ldr	r3, [r7, #4]
  86 000a 0022     		movs	r2, #0
  87 000c 83F84020 		strb	r2, [r3, #64]
  24:HamflyAPI/hamfly_comm_txbuf.c ****     tb->tail = 0u;
  88              		.loc 1 24 0
  89 0010 7B68     		ldr	r3, [r7, #4]
  90 0012 0022     		movs	r2, #0
ARM GAS  C:\Users\JENNEW~1\AppData\Local\Temp\ccGeqOtT.s 			page 3


  91 0014 83F84120 		strb	r2, [r3, #65]
  25:HamflyAPI/hamfly_comm_txbuf.c **** }
  92              		.loc 1 25 0
  93 0018 00BF     		nop
  94 001a 0C37     		adds	r7, r7, #12
  95              		.cfi_def_cfa_offset 4
  96 001c BD46     		mov	sp, r7
  97              		.cfi_def_cfa_register 13
  98              		@ sp needed
  99 001e 80BC     		pop	{r7}
 100              		.cfi_restore 7
 101              		.cfi_def_cfa_offset 0
 102 0020 7047     		bx	lr
 103              		.cfi_endproc
 104              	.LFE1:
 105              		.size	hamfly_txbuf_clear, .-hamfly_txbuf_clear
 106 0022 00BF     		.section	.text.hamfly_txbuf_add,"ax",%progbits
 107              		.align	2
 108              		.global	hamfly_txbuf_add
 109              		.thumb
 110              		.thumb_func
 111              		.type	hamfly_txbuf_add, %function
 112              	hamfly_txbuf_add:
 113              	.LFB2:
  26:HamflyAPI/hamfly_comm_txbuf.c **** 
  27:HamflyAPI/hamfly_comm_txbuf.c **** int32_t hamfly_txbuf_add(hamfly_txbuf_t *tb, uint8_t b)
  28:HamflyAPI/hamfly_comm_txbuf.c **** {
 114              		.loc 1 28 0
 115              		.cfi_startproc
 116              		@ args = 0, pretend = 0, frame = 16
 117              		@ frame_needed = 1, uses_anonymous_args = 0
 118              		@ link register save eliminated.
 119 0000 80B4     		push	{r7}
 120              		.cfi_def_cfa_offset 4
 121              		.cfi_offset 7, -4
 122 0002 85B0     		sub	sp, sp, #20
 123              		.cfi_def_cfa_offset 24
 124 0004 00AF     		add	r7, sp, #0
 125              		.cfi_def_cfa_register 7
 126 0006 7860     		str	r0, [r7, #4]
 127 0008 0B46     		mov	r3, r1
 128 000a FB70     		strb	r3, [r7, #3]
  29:HamflyAPI/hamfly_comm_txbuf.c ****     uint8_t next = (uint8_t)((tb->head + 1u) % HAMFLY_TXBUF_SIZE);
 129              		.loc 1 29 0
 130 000c 7B68     		ldr	r3, [r7, #4]
 131 000e 93F84030 		ldrb	r3, [r3, #64]	@ zero_extendqisi2
 132 0012 0133     		adds	r3, r3, #1
 133 0014 DBB2     		uxtb	r3, r3
 134 0016 03F03F03 		and	r3, r3, #63
 135 001a FB73     		strb	r3, [r7, #15]
  30:HamflyAPI/hamfly_comm_txbuf.c ****     if (next == tb->tail) return 0;   /* full */
 136              		.loc 1 30 0
 137 001c 7B68     		ldr	r3, [r7, #4]
 138 001e 93F84130 		ldrb	r3, [r3, #65]	@ zero_extendqisi2
 139 0022 FA7B     		ldrb	r2, [r7, #15]	@ zero_extendqisi2
 140 0024 9A42     		cmp	r2, r3
 141 0026 01D1     		bne	.L4
ARM GAS  C:\Users\JENNEW~1\AppData\Local\Temp\ccGeqOtT.s 			page 4


 142              		.loc 1 30 0 is_stmt 0 discriminator 1
 143 0028 0023     		movs	r3, #0
 144 002a 0BE0     		b	.L5
 145              	.L4:
  31:HamflyAPI/hamfly_comm_txbuf.c ****     tb->buf[tb->head] = b;
 146              		.loc 1 31 0 is_stmt 1
 147 002c 7B68     		ldr	r3, [r7, #4]
 148 002e 93F84030 		ldrb	r3, [r3, #64]	@ zero_extendqisi2
 149 0032 1946     		mov	r1, r3
 150 0034 7B68     		ldr	r3, [r7, #4]
 151 0036 FA78     		ldrb	r2, [r7, #3]
 152 0038 5A54     		strb	r2, [r3, r1]
  32:HamflyAPI/hamfly_comm_txbuf.c ****     tb->head = next;
 153              		.loc 1 32 0
 154 003a 7B68     		ldr	r3, [r7, #4]
 155 003c FA7B     		ldrb	r2, [r7, #15]
 156 003e 83F84020 		strb	r2, [r3, #64]
  33:HamflyAPI/hamfly_comm_txbuf.c ****     return 1;
 157              		.loc 1 33 0
 158 0042 0123     		movs	r3, #1
 159              	.L5:
  34:HamflyAPI/hamfly_comm_txbuf.c **** }
 160              		.loc 1 34 0
 161 0044 1846     		mov	r0, r3
 162 0046 1437     		adds	r7, r7, #20
 163              		.cfi_def_cfa_offset 4
 164 0048 BD46     		mov	sp, r7
 165              		.cfi_def_cfa_register 13
 166              		@ sp needed
 167 004a 80BC     		pop	{r7}
 168              		.cfi_restore 7
 169              		.cfi_def_cfa_offset 0
 170 004c 7047     		bx	lr
 171              		.cfi_endproc
 172              	.LFE2:
 173              		.size	hamfly_txbuf_add, .-hamfly_txbuf_add
 174 004e 00BF     		.section	.text.hamfly_txbuf_remove,"ax",%progbits
 175              		.align	2
 176              		.global	hamfly_txbuf_remove
 177              		.thumb
 178              		.thumb_func
 179              		.type	hamfly_txbuf_remove, %function
 180              	hamfly_txbuf_remove:
 181              	.LFB3:
  35:HamflyAPI/hamfly_comm_txbuf.c **** 
  36:HamflyAPI/hamfly_comm_txbuf.c **** int32_t hamfly_txbuf_remove(hamfly_txbuf_t *tb, uint8_t *b)
  37:HamflyAPI/hamfly_comm_txbuf.c **** {
 182              		.loc 1 37 0
 183              		.cfi_startproc
 184              		@ args = 0, pretend = 0, frame = 8
 185              		@ frame_needed = 1, uses_anonymous_args = 0
 186              		@ link register save eliminated.
 187 0000 80B4     		push	{r7}
 188              		.cfi_def_cfa_offset 4
 189              		.cfi_offset 7, -4
 190 0002 83B0     		sub	sp, sp, #12
 191              		.cfi_def_cfa_offset 16
ARM GAS  C:\Users\JENNEW~1\AppData\Local\Temp\ccGeqOtT.s 			page 5


 192 0004 00AF     		add	r7, sp, #0
 193              		.cfi_def_cfa_register 7
 194 0006 7860     		str	r0, [r7, #4]
 195 0008 3960     		str	r1, [r7]
  38:HamflyAPI/hamfly_comm_txbuf.c ****     if (tb->head == tb->tail) return 0;   /* empty */
 196              		.loc 1 38 0
 197 000a 7B68     		ldr	r3, [r7, #4]
 198 000c 93F84020 		ldrb	r2, [r3, #64]	@ zero_extendqisi2
 199 0010 7B68     		ldr	r3, [r7, #4]
 200 0012 93F84130 		ldrb	r3, [r3, #65]	@ zero_extendqisi2
 201 0016 9A42     		cmp	r2, r3
 202 0018 01D1     		bne	.L7
 203              		.loc 1 38 0 is_stmt 0 discriminator 1
 204 001a 0023     		movs	r3, #0
 205 001c 13E0     		b	.L8
 206              	.L7:
  39:HamflyAPI/hamfly_comm_txbuf.c ****     *b       = tb->buf[tb->tail];
 207              		.loc 1 39 0 is_stmt 1
 208 001e 7B68     		ldr	r3, [r7, #4]
 209 0020 93F84130 		ldrb	r3, [r3, #65]	@ zero_extendqisi2
 210 0024 1A46     		mov	r2, r3
 211 0026 7B68     		ldr	r3, [r7, #4]
 212 0028 9A5C     		ldrb	r2, [r3, r2]	@ zero_extendqisi2
 213 002a 3B68     		ldr	r3, [r7]
 214 002c 1A70     		strb	r2, [r3]
  40:HamflyAPI/hamfly_comm_txbuf.c ****     tb->tail = (uint8_t)((tb->tail + 1u) % HAMFLY_TXBUF_SIZE);
 215              		.loc 1 40 0
 216 002e 7B68     		ldr	r3, [r7, #4]
 217 0030 93F84130 		ldrb	r3, [r3, #65]	@ zero_extendqisi2
 218 0034 0133     		adds	r3, r3, #1
 219 0036 DBB2     		uxtb	r3, r3
 220 0038 03F03F03 		and	r3, r3, #63
 221 003c DAB2     		uxtb	r2, r3
 222 003e 7B68     		ldr	r3, [r7, #4]
 223 0040 83F84120 		strb	r2, [r3, #65]
  41:HamflyAPI/hamfly_comm_txbuf.c ****     return 1;
 224              		.loc 1 41 0
 225 0044 0123     		movs	r3, #1
 226              	.L8:
  42:HamflyAPI/hamfly_comm_txbuf.c **** }
 227              		.loc 1 42 0
 228 0046 1846     		mov	r0, r3
 229 0048 0C37     		adds	r7, r7, #12
 230              		.cfi_def_cfa_offset 4
 231 004a BD46     		mov	sp, r7
 232              		.cfi_def_cfa_register 13
 233              		@ sp needed
 234 004c 80BC     		pop	{r7}
 235              		.cfi_restore 7
 236              		.cfi_def_cfa_offset 0
 237 004e 7047     		bx	lr
 238              		.cfi_endproc
 239              	.LFE3:
 240              		.size	hamfly_txbuf_remove, .-hamfly_txbuf_remove
 241              		.text
 242              	.Letext0:
 243              		.file 2 "c:\\program files (x86)\\cypress\\psoc creator\\4.4\\psoc creator\\import\\gnu\\arm\\5.4.
ARM GAS  C:\Users\JENNEW~1\AppData\Local\Temp\ccGeqOtT.s 			page 6


 244              		.file 3 "c:\\program files (x86)\\cypress\\psoc creator\\4.4\\psoc creator\\import\\gnu\\arm\\5.4.
 245              		.file 4 "HamflyAPI\\hamfly_comm_txbuf.h"