ARM GAS  C:\Users\JENNEW~1\AppData\Local\Temp\ccz5kgXS.s 			page 1


   1              		.syntax unified
   2              		.cpu cortex-m3
   3              		.fpu softvfp
   4              		.eabi_attribute 20, 1
   5              		.eabi_attribute 21, 1
   6              		.eabi_attribute 23, 3
   7              		.eabi_attribute 24, 1
   8              		.eabi_attribute 25, 1
   9              		.eabi_attribute 26, 1
  10              		.eabi_attribute 30, 6
  11              		.eabi_attribute 34, 1
  12              		.eabi_attribute 18, 4
  13              		.thumb
  14              		.syntax unified
  15              		.file	"main.c"
  16              		.text
  17              	.Ltext0:
  18              		.cfi_sections	.debug_frame
  19              		.bss
  20              		.align	2
  21              	g_gimbal:
  22 0000 00000000 		.space	648
  22      00000000 
  22      00000000 
  22      00000000 
  22      00000000 
  23              		.global	g_tick_ms
  24              		.align	2
  25              		.type	g_tick_ms, %object
  26              		.size	g_tick_ms, 4
  27              	g_tick_ms:
  28 0288 00000000 		.space	4
  29              		.section	.text.psoc_uart_putc,"ax",%progbits
  30              		.align	2
  31              		.thumb
  32              		.thumb_func
  33              		.type	psoc_uart_putc, %function
  34              	psoc_uart_putc:
  35              	.LFB64:
  36              		.file 1 "main.c"
   1:main.c        **** /* main.c
   2:main.c        ****  * HamflyAPI example — PSoC 5LP
   3:main.c        ****  * Joystick gimbal control + one-shot attr test queries.
   4:main.c        ****  *
   5:main.c        ****  * Modes:
   6:main.c        ****  *   STANDBY      passive, pump runs, no TX
   7:main.c        ****  *   CONTROL      QX277 at 10 Hz via joystick
   8:main.c        ****  *   TEST         one-shot attr read, print response or timeout
   9:main.c        ****  *
  10:main.c        ****  * Keys — STANDBY:
  11:main.c        ****  *   m  toggle STANDBY <-> CONTROL
  12:main.c        ****  *   t  enter TEST mode
  13:main.c        ****  *   l  cycle DEFER -> RATE -> ABSOLUTE -> DEFER
  14:main.c        ****  *   k  kill + STANDBY
  15:main.c        ****  *
  16:main.c        ****  * Keys — TEST:
  17:main.c        ****  *   a  attr 22  gimbal Euler
ARM GAS  C:\Users\JENNEW~1\AppData\Local\Temp\ccz5kgXS.s 			page 2


  18:main.c        ****  *   g  attr  4  GPS
  19:main.c        ****  *   b  attr  3  baro
  20:main.c        ****  *   s  attr  1  system status
  21:main.c        ****  *   n  attr 12  magnetometer
  22:main.c        ****  *   t  exit TEST
  23:main.c        ****  *   k  kill + exit
  24:main.c        ****  */
  25:main.c        **** 
  26:main.c        **** #include <project.h>
  27:main.c        **** #include <stdio.h>
  28:main.c        **** #include <math.h>
  29:main.c        **** 
  30:main.c        **** #include "hamfly.h"
  31:main.c        **** #include "adc_balanced.h"
  32:main.c        **** #include "joystick.h"
  33:main.c        **** 
  34:main.c        **** /* =========================================================================
  35:main.c        ****  * Constants
  36:main.c        ****  * ========================================================================= */
  37:main.c        **** #define TX_BUF_SIZE       160u
  38:main.c        **** #define CONTROL_PERIOD_MS 100u    /* 10 Hz */
  39:main.c        **** #define TEST_TIMEOUT_MS  2000u
  40:main.c        **** 
  41:main.c        **** #define CH_X  0u   /* pan  */
  42:main.c        **** #define CH_Y  1u   /* tilt */
  43:main.c        **** 
  44:main.c        **** #define DEG_TO_UNIT(d)  ((float)(d) / 180.0f)
  45:main.c        **** 
  46:main.c        **** /* =========================================================================
  47:main.c        ****  * App state
  48:main.c        ****  * ========================================================================= */
  49:main.c        **** typedef enum {
  50:main.c        ****     MODE_STANDBY = 0,
  51:main.c        ****     MODE_CONTROL,
  52:main.c        ****     MODE_TEST
  53:main.c        **** } app_mode_t;
  54:main.c        **** 
  55:main.c        **** /* =========================================================================
  56:main.c        ****  * Globals
  57:main.c        ****  * ========================================================================= */
  58:main.c        **** static hamfly_gimbal_t g_gimbal;
  59:main.c        **** volatile uint32_t      g_tick_ms = 0u;
  60:main.c        **** 
  61:main.c        **** /* =========================================================================
  62:main.c        ****  * HAL — PSoC 5 UART
  63:main.c        ****  * ========================================================================= */
  64:main.c        **** static void psoc_uart_putc(void *ctx, uint8_t b)
  65:main.c        **** {
  37              		.loc 1 65 0
  38              		.cfi_startproc
  39              		@ args = 0, pretend = 0, frame = 8
  40              		@ frame_needed = 1, uses_anonymous_args = 0
  41 0000 80B5     		push	{r7, lr}
  42              		.cfi_def_cfa_offset 8
  43              		.cfi_offset 7, -8
  44              		.cfi_offset 14, -4
  45 0002 82B0     		sub	sp, sp, #8
ARM GAS  C:\Users\JENNEW~1\AppData\Local\Temp\ccz5kgXS.s 			page 3


  46              		.cfi_def_cfa_offset 16
  47 0004 00AF     		add	r7, sp, #0
  48              		.cfi_def_cfa_register 7
  49 0006 7860     		str	r0, [r7, #4]
  50 0008 0B46     		mov	r3, r1
  51 000a FB70     		strb	r3, [r7, #3]
  66:main.c        ****     (void)ctx;
  67:main.c        ****     UART_MOVI_PutChar((char)b);
  52              		.loc 1 67 0
  53 000c FB78     		ldrb	r3, [r7, #3]	@ zero_extendqisi2
  54 000e 1846     		mov	r0, r3
  55 0010 FFF7FEFF 		bl	UART_MOVI_PutChar
  68:main.c        **** }
  56              		.loc 1 68 0
  57 0014 00BF     		nop
  58 0016 0837     		adds	r7, r7, #8
  59              		.cfi_def_cfa_offset 8
  60 0018 BD46     		mov	sp, r7
  61              		.cfi_def_cfa_register 13
  62              		@ sp needed
  63 001a 80BD     		pop	{r7, pc}
  64              		.cfi_endproc
  65              	.LFE64:
  66              		.size	psoc_uart_putc, .-psoc_uart_putc
  67              		.section	.text.psoc_get_tick,"ax",%progbits
  68              		.align	2
  69              		.thumb
  70              		.thumb_func
  71              		.type	psoc_get_tick, %function
  72              	psoc_get_tick:
  73              	.LFB65:
  69:main.c        **** 
  70:main.c        **** static uint32_t psoc_get_tick(void *ctx)
  71:main.c        **** {
  74              		.loc 1 71 0
  75              		.cfi_startproc
  76              		@ args = 0, pretend = 0, frame = 8
  77              		@ frame_needed = 1, uses_anonymous_args = 0
  78              		@ link register save eliminated.
  79 0000 80B4     		push	{r7}
  80              		.cfi_def_cfa_offset 4
  81              		.cfi_offset 7, -4
  82 0002 83B0     		sub	sp, sp, #12
  83              		.cfi_def_cfa_offset 16
  84 0004 00AF     		add	r7, sp, #0
  85              		.cfi_def_cfa_register 7
  86 0006 7860     		str	r0, [r7, #4]
  72:main.c        ****     (void)ctx;
  73:main.c        ****     return g_tick_ms;
  87              		.loc 1 73 0
  88 0008 034B     		ldr	r3, .L4
  89 000a 1B68     		ldr	r3, [r3]
  74:main.c        **** }
  90              		.loc 1 74 0
  91 000c 1846     		mov	r0, r3
  92 000e 0C37     		adds	r7, r7, #12
  93              		.cfi_def_cfa_offset 4
ARM GAS  C:\Users\JENNEW~1\AppData\Local\Temp\ccz5kgXS.s 			page 4


  94 0010 BD46     		mov	sp, r7
  95              		.cfi_def_cfa_register 13
  96              		@ sp needed
  97 0012 80BC     		pop	{r7}
  98              		.cfi_restore 7
  99              		.cfi_def_cfa_offset 0
 100 0014 7047     		bx	lr
 101              	.L5:
 102 0016 00BF     		.align	2
 103              	.L4:
 104 0018 00000000 		.word	g_tick_ms
 105              		.cfi_endproc
 106              	.LFE65:
 107              		.size	psoc_get_tick, .-psoc_get_tick
 108              		.section	.rodata
 109              		.align	2
 110              		.type	HAL, %object
 111              		.size	HAL, 12
 112              	HAL:
 113 0000 00000000 		.word	0
 114 0004 00000000 		.word	psoc_uart_putc
 115 0008 00000000 		.word	psoc_get_tick
 116              		.section	.text.isr_rx_movi_Handler,"ax",%progbits
 117              		.align	2
 118              		.global	isr_rx_movi_Handler
 119              		.thumb
 120              		.thumb_func
 121              		.type	isr_rx_movi_Handler, %function
 122              	isr_rx_movi_Handler:
 123              	.LFB66:
  75:main.c        **** 
  76:main.c        **** static const hamfly_hal_t HAL = {
  77:main.c        ****     .ctx         = NULL,
  78:main.c        ****     .uart_putc   = psoc_uart_putc,
  79:main.c        ****     .get_tick_ms = psoc_get_tick
  80:main.c        **** };
  81:main.c        **** 
  82:main.c        **** /* =========================================================================
  83:main.c        ****  * ISRs
  84:main.c        ****  * ========================================================================= */
  85:main.c        **** CY_ISR(isr_rx_movi_Handler)
  86:main.c        **** {
 124              		.loc 1 86 0
 125              		.cfi_startproc
 126              		@ args = 0, pretend = 0, frame = 8
 127              		@ frame_needed = 1, uses_anonymous_args = 0
 128 0000 80B5     		push	{r7, lr}
 129              		.cfi_def_cfa_offset 8
 130              		.cfi_offset 7, -8
 131              		.cfi_offset 14, -4
 132 0002 82B0     		sub	sp, sp, #8
 133              		.cfi_def_cfa_offset 16
 134 0004 00AF     		add	r7, sp, #0
 135              		.cfi_def_cfa_register 7
 136              	.L9:
  87:main.c        ****     uint8_t st;
  88:main.c        ****     do {
ARM GAS  C:\Users\JENNEW~1\AppData\Local\Temp\ccz5kgXS.s 			page 5


  89:main.c        ****         st = UART_MOVI_RXSTATUS_REG;
 137              		.loc 1 89 0
 138 0006 114B     		ldr	r3, .L10
 139 0008 1B78     		ldrb	r3, [r3]
 140 000a FB71     		strb	r3, [r7, #7]
  90:main.c        ****         if (st & (UART_MOVI_RX_STS_BREAK     |
 141              		.loc 1 90 0
 142 000c FB79     		ldrb	r3, [r7, #7]	@ zero_extendqisi2
 143 000e 03F01E03 		and	r3, r3, #30
 144 0012 002B     		cmp	r3, #0
 145 0014 04D0     		beq	.L7
  91:main.c        ****                   UART_MOVI_RX_STS_PAR_ERROR |
  92:main.c        ****                   UART_MOVI_RX_STS_STOP_ERROR|
  93:main.c        ****                   UART_MOVI_RX_STS_OVERRUN))
  94:main.c        ****             hamfly_on_uart_err_flags(&g_gimbal, st);
 146              		.loc 1 94 0
 147 0016 FB79     		ldrb	r3, [r7, #7]	@ zero_extendqisi2
 148 0018 1946     		mov	r1, r3
 149 001a 0D48     		ldr	r0, .L10+4
 150 001c FFF7FEFF 		bl	hamfly_on_uart_err_flags
 151              	.L7:
  95:main.c        **** 
  96:main.c        ****         if (st & UART_MOVI_RX_STS_FIFO_NOTEMPTY)
 152              		.loc 1 96 0
 153 0020 FB79     		ldrb	r3, [r7, #7]	@ zero_extendqisi2
 154 0022 03F02003 		and	r3, r3, #32
 155 0026 002B     		cmp	r3, #0
 156 0028 06D0     		beq	.L8
  97:main.c        ****             hamfly_on_rx_byte(&g_gimbal, UART_MOVI_RXDATA_REG);
 157              		.loc 1 97 0
 158 002a 0A4B     		ldr	r3, .L10+8
 159 002c 1B78     		ldrb	r3, [r3]
 160 002e DBB2     		uxtb	r3, r3
 161 0030 1946     		mov	r1, r3
 162 0032 0748     		ldr	r0, .L10+4
 163 0034 FFF7FEFF 		bl	hamfly_on_rx_byte
 164              	.L8:
  98:main.c        **** 
  99:main.c        ****     } while (st & UART_MOVI_RX_STS_FIFO_NOTEMPTY);
 165              		.loc 1 99 0
 166 0038 FB79     		ldrb	r3, [r7, #7]	@ zero_extendqisi2
 167 003a 03F02003 		and	r3, r3, #32
 168 003e 002B     		cmp	r3, #0
 169 0040 E1D1     		bne	.L9
 100:main.c        **** }
 170              		.loc 1 100 0
 171 0042 00BF     		nop
 172 0044 0837     		adds	r7, r7, #8
 173              		.cfi_def_cfa_offset 8
 174 0046 BD46     		mov	sp, r7
 175              		.cfi_def_cfa_register 13
 176              		@ sp needed
 177 0048 80BD     		pop	{r7, pc}
 178              	.L11:
 179 004a 00BF     		.align	2
 180              	.L10:
 181 004c 69640040 		.word	1073767529
ARM GAS  C:\Users\JENNEW~1\AppData\Local\Temp\ccz5kgXS.s 			page 6


 182 0050 00000000 		.word	g_gimbal
 183 0054 49640040 		.word	1073767497
 184              		.cfi_endproc
 185              	.LFE66:
 186              		.size	isr_rx_movi_Handler, .-isr_rx_movi_Handler
 187              		.section	.text.isr_Looptimer_Handler,"ax",%progbits
 188              		.align	2
 189              		.global	isr_Looptimer_Handler
 190              		.thumb
 191              		.thumb_func
 192              		.type	isr_Looptimer_Handler, %function
 193              	isr_Looptimer_Handler:
 194              	.LFB67:
 101:main.c        **** 
 102:main.c        **** CY_ISR(isr_Looptimer_Handler)
 103:main.c        **** {
 195              		.loc 1 103 0
 196              		.cfi_startproc
 197              		@ args = 0, pretend = 0, frame = 0
 198              		@ frame_needed = 1, uses_anonymous_args = 0
 199 0000 80B5     		push	{r7, lr}
 200              		.cfi_def_cfa_offset 8
 201              		.cfi_offset 7, -8
 202              		.cfi_offset 14, -4
 203 0002 00AF     		add	r7, sp, #0
 204              		.cfi_def_cfa_register 7
 104:main.c        ****     g_tick_ms++;
 205              		.loc 1 104 0
 206 0004 044B     		ldr	r3, .L13
 207 0006 1B68     		ldr	r3, [r3]
 208 0008 0133     		adds	r3, r3, #1
 209 000a 034A     		ldr	r2, .L13
 210 000c 1360     		str	r3, [r2]
 105:main.c        ****     Looptimer_ReadStatusRegister();
 211              		.loc 1 105 0
 212 000e FFF7FEFF 		bl	Looptimer_ReadStatusRegister
 106:main.c        **** }
 213              		.loc 1 106 0
 214 0012 00BF     		nop
 215 0014 80BD     		pop	{r7, pc}
 216              	.L14:
 217 0016 00BF     		.align	2
 218              	.L13:
 219 0018 00000000 		.word	g_tick_ms
 220              		.cfi_endproc
 221              	.LFE67:
 222              		.size	isr_Looptimer_Handler, .-isr_Looptimer_Handler
 223              		.global	__aeabi_fcmplt
 224              		.global	__aeabi_f2iz
 225              		.global	__aeabi_i2f
 226              		.global	__aeabi_fsub
 227              		.global	__aeabi_fmul
 228              		.section	.text.decomp,"ax",%progbits
 229              		.align	2
 230              		.thumb
 231              		.thumb_func
 232              		.type	decomp, %function
ARM GAS  C:\Users\JENNEW~1\AppData\Local\Temp\ccz5kgXS.s 			page 7


 233              	decomp:
 234              	.LFB68:
 107:main.c        **** 
 108:main.c        **** /* =========================================================================
 109:main.c        ****  * Helpers
 110:main.c        ****  * ========================================================================= */
 111:main.c        **** static void decomp(float val, int16_t *i_out, int16_t *f_out, char *sign)
 112:main.c        **** {
 235              		.loc 1 112 0
 236              		.cfi_startproc
 237              		@ args = 0, pretend = 0, frame = 16
 238              		@ frame_needed = 1, uses_anonymous_args = 0
 239 0000 80B5     		push	{r7, lr}
 240              		.cfi_def_cfa_offset 8
 241              		.cfi_offset 7, -8
 242              		.cfi_offset 14, -4
 243 0002 84B0     		sub	sp, sp, #16
 244              		.cfi_def_cfa_offset 24
 245 0004 00AF     		add	r7, sp, #0
 246              		.cfi_def_cfa_register 7
 247 0006 F860     		str	r0, [r7, #12]	@ float
 248 0008 B960     		str	r1, [r7, #8]
 249 000a 7A60     		str	r2, [r7, #4]
 250 000c 3B60     		str	r3, [r7]
 113:main.c        ****     *sign  = (val < 0.0f) ? '-' : ' ';
 251              		.loc 1 113 0
 252 000e 4FF00001 		mov	r1, #0
 253 0012 F868     		ldr	r0, [r7, #12]	@ float
 254 0014 FFF7FEFF 		bl	__aeabi_fcmplt
 255 0018 0346     		mov	r3, r0
 256 001a 002B     		cmp	r3, #0
 257 001c 01D0     		beq	.L23
 258              		.loc 1 113 0 is_stmt 0 discriminator 1
 259 001e 2D22     		movs	r2, #45
 260 0020 00E0     		b	.L18
 261              	.L23:
 262              		.loc 1 113 0 discriminator 2
 263 0022 2022     		movs	r2, #32
 264              	.L18:
 265              		.loc 1 113 0 discriminator 4
 266 0024 3B68     		ldr	r3, [r7]
 267 0026 1A70     		strb	r2, [r3]
 114:main.c        ****     if (val < 0.0f) val = -val;
 268              		.loc 1 114 0 is_stmt 1 discriminator 4
 269 0028 4FF00001 		mov	r1, #0
 270 002c F868     		ldr	r0, [r7, #12]	@ float
 271 002e FFF7FEFF 		bl	__aeabi_fcmplt
 272 0032 0346     		mov	r3, r0
 273 0034 002B     		cmp	r3, #0
 274 0036 03D0     		beq	.L19
 275              		.loc 1 114 0 is_stmt 0 discriminator 1
 276 0038 FB68     		ldr	r3, [r7, #12]
 277 003a 83F00043 		eor	r3, r3, #-2147483648
 278 003e FB60     		str	r3, [r7, #12]	@ float
 279              	.L19:
 115:main.c        ****     *i_out = (int16_t)val;
 280              		.loc 1 115 0 is_stmt 1
ARM GAS  C:\Users\JENNEW~1\AppData\Local\Temp\ccz5kgXS.s 			page 8


 281 0040 F868     		ldr	r0, [r7, #12]	@ float
 282 0042 FFF7FEFF 		bl	__aeabi_f2iz
 283 0046 0346     		mov	r3, r0
 284 0048 1AB2     		sxth	r2, r3
 285 004a BB68     		ldr	r3, [r7, #8]
 286 004c 1A80     		strh	r2, [r3]	@ movhi
 116:main.c        ****     *f_out = (int16_t)((val - (float)*i_out) * 100.0f);
 287              		.loc 1 116 0
 288 004e BB68     		ldr	r3, [r7, #8]
 289 0050 B3F90030 		ldrsh	r3, [r3]
 290 0054 1846     		mov	r0, r3
 291 0056 FFF7FEFF 		bl	__aeabi_i2f
 292 005a 0346     		mov	r3, r0
 293 005c 1946     		mov	r1, r3
 294 005e F868     		ldr	r0, [r7, #12]	@ float
 295 0060 FFF7FEFF 		bl	__aeabi_fsub
 296 0064 0346     		mov	r3, r0
 297 0066 0849     		ldr	r1, .L24
 298 0068 1846     		mov	r0, r3
 299 006a FFF7FEFF 		bl	__aeabi_fmul
 300 006e 0346     		mov	r3, r0
 301 0070 1846     		mov	r0, r3
 302 0072 FFF7FEFF 		bl	__aeabi_f2iz
 303 0076 0346     		mov	r3, r0
 304 0078 1AB2     		sxth	r2, r3
 305 007a 7B68     		ldr	r3, [r7, #4]
 306 007c 1A80     		strh	r2, [r3]	@ movhi
 117:main.c        **** }
 307              		.loc 1 117 0
 308 007e 00BF     		nop
 309 0080 1037     		adds	r7, r7, #16
 310              		.cfi_def_cfa_offset 8
 311 0082 BD46     		mov	sp, r7
 312              		.cfi_def_cfa_register 13
 313              		@ sp needed
 314 0084 80BD     		pop	{r7, pc}
 315              	.L25:
 316 0086 00BF     		.align	2
 317              	.L24:
 318 0088 0000C842 		.word	1120403456
 319              		.cfi_endproc
 320              	.LFE68:
 321              		.size	decomp, .-decomp
 322              		.section	.rodata
 323              		.align	2
 324              	.LC0:
 325 000c 52415445 		.ascii	"RATE\000"
 325      00
 326 0011 000000   		.align	2
 327              	.LC1:
 328 0014 41425320 		.ascii	"ABS \000"
 328      00
 329 0019 000000   		.align	2
 330              	.LC2:
 331 001c 44454652 		.ascii	"DEFR\000"
 331      00
 332              		.section	.text.mode_str,"ax",%progbits
ARM GAS  C:\Users\JENNEW~1\AppData\Local\Temp\ccz5kgXS.s 			page 9


 333              		.align	2
 334              		.thumb
 335              		.thumb_func
 336              		.type	mode_str, %function
 337              	mode_str:
 338              	.LFB69:
 118:main.c        **** 
 119:main.c        **** static const char *mode_str(hamfly_control_mode_t m)
 120:main.c        **** {
 339              		.loc 1 120 0
 340              		.cfi_startproc
 341              		@ args = 0, pretend = 0, frame = 8
 342              		@ frame_needed = 1, uses_anonymous_args = 0
 343              		@ link register save eliminated.
 344 0000 80B4     		push	{r7}
 345              		.cfi_def_cfa_offset 4
 346              		.cfi_offset 7, -4
 347 0002 83B0     		sub	sp, sp, #12
 348              		.cfi_def_cfa_offset 16
 349 0004 00AF     		add	r7, sp, #0
 350              		.cfi_def_cfa_register 7
 351 0006 0346     		mov	r3, r0
 352 0008 FB71     		strb	r3, [r7, #7]
 121:main.c        ****     switch (m) {
 353              		.loc 1 121 0
 354 000a FB79     		ldrb	r3, [r7, #7]	@ zero_extendqisi2
 355 000c 012B     		cmp	r3, #1
 356 000e 02D0     		beq	.L28
 357 0010 022B     		cmp	r3, #2
 358 0012 02D0     		beq	.L29
 359 0014 03E0     		b	.L31
 360              	.L28:
 122:main.c        ****         case HAMFLY_RATE:     return "RATE";
 361              		.loc 1 122 0
 362 0016 054B     		ldr	r3, .L32
 363 0018 02E0     		b	.L30
 364              	.L29:
 123:main.c        ****         case HAMFLY_ABSOLUTE: return "ABS ";
 365              		.loc 1 123 0
 366 001a 054B     		ldr	r3, .L32+4
 367 001c 00E0     		b	.L30
 368              	.L31:
 124:main.c        ****         default:              return "DEFR";
 369              		.loc 1 124 0
 370 001e 054B     		ldr	r3, .L32+8
 371              	.L30:
 125:main.c        ****     }
 126:main.c        **** }
 372              		.loc 1 126 0
 373 0020 1846     		mov	r0, r3
 374 0022 0C37     		adds	r7, r7, #12
 375              		.cfi_def_cfa_offset 4
 376 0024 BD46     		mov	sp, r7
 377              		.cfi_def_cfa_register 13
 378              		@ sp needed
 379 0026 80BC     		pop	{r7}
 380              		.cfi_restore 7
ARM GAS  C:\Users\JENNEW~1\AppData\Local\Temp\ccz5kgXS.s 			page 10


 381              		.cfi_def_cfa_offset 0
 382 0028 7047     		bx	lr
 383              	.L33:
 384 002a 00BF     		.align	2
 385              	.L32:
 386 002c 0C000000 		.word	.LC0
 387 0030 14000000 		.word	.LC1
 388 0034 1C000000 		.word	.LC2
 389              		.cfi_endproc
 390              	.LFE69:
 391              		.size	mode_str, .-mode_str
 392              		.section	.rodata
 393 0021 000000   		.align	2
 394              	.LC3:
 395 0024 0D0A5B54 		.ascii	"\015\012[TEST] attr=%u  plen=%u\015\012\000"
 395      4553545D 
 395      20617474 
 395      723D2575 
 395      2020706C 
 396              		.align	2
 397              	.LC4:
 398 0040 20202530 		.ascii	"  %02u: \000"
 398      32753A20 
 398      00
 399 0049 000000   		.align	2
 400              	.LC5:
 401 004c 25303258 		.ascii	"%02X \000"
 401      2000
 402 0052 0000     		.align	2
 403              	.LC6:
 404 0054 0D0A00   		.ascii	"\015\012\000"
 405              		.global	__aeabi_fdiv
 406 0057 00       		.align	2
 407              	.LC7:
 408 0058 20205069 		.ascii	"  Pitch=%c%d.%02d  \000"
 408      7463683D 
 408      25632564 
 408      2E253032 
 408      64202000 
 409              		.align	2
 410              	.LC8:
 411 006c 5961773D 		.ascii	"Yaw=%c%d.%02d  \000"
 411      25632564 
 411      2E253032 
 411      64202000 
 412              		.align	2
 413              	.LC9:
 414 007c 526F6C6C 		.ascii	"Roll=%c%d.%02d deg\015\012\000"
 414      3D256325 
 414      642E2530 
 414      32642064 
 414      65670D0A 
 415 0091 000000   		.align	2
 416              	.LC10:
 417 0094 20204C61 		.ascii	"  Lat=%ld.%07ld  Lon=%ld.%07ld (raw/1e7)\015\012\000"
 417      743D256C 
 417      642E2530 
ARM GAS  C:\Users\JENNEW~1\AppData\Local\Temp\ccz5kgXS.s 			page 11


 417      376C6420 
 417      204C6F6E 
 418 00bf 00       		.align	2
 419              	.LC11:
 420 00c0 2020416C 		.ascii	"  Alt=%c%d.%02d m  \000"
 420      743D2563 
 420      25642E25 
 420      30326420 
 420      6D202000 
 421              		.align	2
 422              	.LC12:
 423 00d4 524F433D 		.ascii	"ROC=%c%d.%02d m/s\015\012\000"
 423      25632564 
 423      2E253032 
 423      64206D2F 
 423      730D0A00 
 424              		.align	2
 425              	.LC13:
 426 00e8 20204261 		.ascii	"  Batt=%c%d.%02d V  Sats=%u  Temp=%d C\015\012\000"
 426      74743D25 
 426      6325642E 
 426      25303264 
 426      20562020 
 427              		.global	__aeabi_fadd
 428 0111 000000   		.align	2
 429              	.LC14:
 430 0114 2020583D 		.ascii	"  X=%d  Y=%d  Z=%d  hdg~=%d.%02d deg\015\012\000"
 430      25642020 
 430      593D2564 
 430      20205A3D 
 430      25642020 
 431 013b 00       		.align	2
 432              	.LC15:
 433 013c 2020286E 		.ascii	"  (no decoder for this attr)\015\012\000"
 433      6F206465 
 433      636F6465 
 433      7220666F 
 433      72207468 
 434              		.section	.text.print_response,"ax",%progbits
 435              		.align	2
 436              		.thumb
 437              		.thumb_func
 438              		.type	print_response, %function
 439              	print_response:
 440              	.LFB70:
 127:main.c        **** 
 128:main.c        **** /* Print whatever attr just landed in pending_payload */
 129:main.c        **** static void print_response(void)
 130:main.c        **** {
 441              		.loc 1 130 0
 442              		.cfi_startproc
 443              		@ args = 0, pretend = 0, frame = 240
 444              		@ frame_needed = 1, uses_anonymous_args = 0
 445 0000 F0B5     		push	{r4, r5, r6, r7, lr}
 446              		.cfi_def_cfa_offset 20
 447              		.cfi_offset 4, -20
 448              		.cfi_offset 5, -16
ARM GAS  C:\Users\JENNEW~1\AppData\Local\Temp\ccz5kgXS.s 			page 12


 449              		.cfi_offset 6, -12
 450              		.cfi_offset 7, -8
 451              		.cfi_offset 14, -4
 452 0002 C1B0     		sub	sp, sp, #260
 453              		.cfi_def_cfa_offset 280
 454 0004 04AF     		add	r7, sp, #16
 455              		.cfi_def_cfa 7, 264
 131:main.c        ****     char tx[TX_BUF_SIZE];
 132:main.c        ****     uint16_t attr = g_gimbal.pending_response_attr;
 456              		.loc 1 132 0
 457 0006 D14B     		ldr	r3, .L69
 458 0008 B3F86232 		ldrh	r3, [r3, #610]	@ movhi
 459 000c A7F8DE30 		strh	r3, [r7, #222]	@ movhi
 133:main.c        ****     const uint8_t *p = g_gimbal.pending_payload;
 460              		.loc 1 133 0
 461 0010 CF4B     		ldr	r3, .L69+4
 462 0012 C7F8D830 		str	r3, [r7, #216]
 134:main.c        ****     uint8_t plen     = g_gimbal.pending_payload_len;
 463              		.loc 1 134 0
 464 0016 CD4B     		ldr	r3, .L69
 465 0018 93F88632 		ldrb	r3, [r3, #646]
 466 001c 87F8D730 		strb	r3, [r7, #215]
 135:main.c        ****     uint8_t i;
 136:main.c        **** 
 137:main.c        ****     sprintf(tx, "\r\n[TEST] attr=%u  plen=%u\r\n", attr, plen);
 467              		.loc 1 137 0
 468 0020 B7F8DE20 		ldrh	r2, [r7, #222]
 469 0024 97F8D730 		ldrb	r3, [r7, #215]	@ zero_extendqisi2
 470 0028 07F12400 		add	r0, r7, #36
 471 002c C949     		ldr	r1, .L69+8
 472 002e FFF7FEFF 		bl	sprintf
 138:main.c        ****     UART_1_PutString(tx);
 473              		.loc 1 138 0
 474 0032 07F12403 		add	r3, r7, #36
 475 0036 1846     		mov	r0, r3
 476 0038 FFF7FEFF 		bl	UART_1_PutString
 139:main.c        **** 
 140:main.c        ****     /* Hex dump */
 141:main.c        ****     for (i = 0u; i < plen; i += 8u) {
 477              		.loc 1 141 0
 478 003c 0023     		movs	r3, #0
 479 003e 87F8EF30 		strb	r3, [r7, #239]
 480 0042 57E0     		b	.L35
 481              	.L39:
 482              	.LBB2:
 142:main.c        ****         char *bp = tx;
 483              		.loc 1 142 0
 484 0044 07F12403 		add	r3, r7, #36
 485 0048 C7F8E830 		str	r3, [r7, #232]
 143:main.c        ****         uint8_t col;
 144:main.c        ****         bp += sprintf(bp, "  %02u: ", i);
 486              		.loc 1 144 0
 487 004c 97F8EF30 		ldrb	r3, [r7, #239]	@ zero_extendqisi2
 488 0050 1A46     		mov	r2, r3
 489 0052 C149     		ldr	r1, .L69+12
 490 0054 D7F8E800 		ldr	r0, [r7, #232]
 491 0058 FFF7FEFF 		bl	sprintf
ARM GAS  C:\Users\JENNEW~1\AppData\Local\Temp\ccz5kgXS.s 			page 13


 492 005c 0346     		mov	r3, r0
 493 005e 1A46     		mov	r2, r3
 494 0060 D7F8E830 		ldr	r3, [r7, #232]
 495 0064 1344     		add	r3, r3, r2
 496 0066 C7F8E830 		str	r3, [r7, #232]
 145:main.c        ****         for (col = 0u; col < 8u && (i + col) < plen; col++)
 497              		.loc 1 145 0
 498 006a 0023     		movs	r3, #0
 499 006c 87F8E730 		strb	r3, [r7, #231]
 500 0070 1BE0     		b	.L36
 501              	.L38:
 146:main.c        ****             bp += sprintf(bp, "%02X ", p[i + col]);
 502              		.loc 1 146 0 discriminator 4
 503 0072 97F8EF20 		ldrb	r2, [r7, #239]	@ zero_extendqisi2
 504 0076 97F8E730 		ldrb	r3, [r7, #231]	@ zero_extendqisi2
 505 007a 1344     		add	r3, r3, r2
 506 007c 1A46     		mov	r2, r3
 507 007e D7F8D830 		ldr	r3, [r7, #216]
 508 0082 1344     		add	r3, r3, r2
 509 0084 1B78     		ldrb	r3, [r3]	@ zero_extendqisi2
 510 0086 1A46     		mov	r2, r3
 511 0088 B449     		ldr	r1, .L69+16
 512 008a D7F8E800 		ldr	r0, [r7, #232]
 513 008e FFF7FEFF 		bl	sprintf
 514 0092 0346     		mov	r3, r0
 515 0094 1A46     		mov	r2, r3
 516 0096 D7F8E830 		ldr	r3, [r7, #232]
 517 009a 1344     		add	r3, r3, r2
 518 009c C7F8E830 		str	r3, [r7, #232]
 145:main.c        ****         for (col = 0u; col < 8u && (i + col) < plen; col++)
 519              		.loc 1 145 0 discriminator 4
 520 00a0 97F8E730 		ldrb	r3, [r7, #231]	@ zero_extendqisi2
 521 00a4 0133     		adds	r3, r3, #1
 522 00a6 87F8E730 		strb	r3, [r7, #231]
 523              	.L36:
 145:main.c        ****         for (col = 0u; col < 8u && (i + col) < plen; col++)
 524              		.loc 1 145 0 is_stmt 0 discriminator 1
 525 00aa 97F8E730 		ldrb	r3, [r7, #231]	@ zero_extendqisi2
 526 00ae 072B     		cmp	r3, #7
 527 00b0 08D8     		bhi	.L37
 145:main.c        ****         for (col = 0u; col < 8u && (i + col) < plen; col++)
 528              		.loc 1 145 0 discriminator 3
 529 00b2 97F8EF20 		ldrb	r2, [r7, #239]	@ zero_extendqisi2
 530 00b6 97F8E730 		ldrb	r3, [r7, #231]	@ zero_extendqisi2
 531 00ba 1A44     		add	r2, r2, r3
 532 00bc 97F8D730 		ldrb	r3, [r7, #215]	@ zero_extendqisi2
 533 00c0 9A42     		cmp	r2, r3
 534 00c2 D6DB     		blt	.L38
 535              	.L37:
 147:main.c        ****         bp += sprintf(bp, "\r\n");
 536              		.loc 1 147 0 is_stmt 1 discriminator 2
 537 00c4 D7F8E830 		ldr	r3, [r7, #232]
 538 00c8 A54A     		ldr	r2, .L69+20
 539 00ca 1188     		ldrh	r1, [r2]	@ unaligned
 540 00cc 9278     		ldrb	r2, [r2, #2]
 541 00ce 1980     		strh	r1, [r3]	@ unaligned
 542 00d0 9A70     		strb	r2, [r3, #2]
ARM GAS  C:\Users\JENNEW~1\AppData\Local\Temp\ccz5kgXS.s 			page 14


 543 00d2 0223     		movs	r3, #2
 544 00d4 1A46     		mov	r2, r3
 545 00d6 D7F8E830 		ldr	r3, [r7, #232]
 546 00da 1344     		add	r3, r3, r2
 547 00dc C7F8E830 		str	r3, [r7, #232]
 148:main.c        ****         UART_1_PutString(tx);
 548              		.loc 1 148 0 discriminator 2
 549 00e0 07F12403 		add	r3, r7, #36
 550 00e4 1846     		mov	r0, r3
 551 00e6 FFF7FEFF 		bl	UART_1_PutString
 552              	.LBE2:
 141:main.c        ****         char *bp = tx;
 553              		.loc 1 141 0 discriminator 2
 554 00ea 97F8EF30 		ldrb	r3, [r7, #239]
 555 00ee 0833     		adds	r3, r3, #8
 556 00f0 87F8EF30 		strb	r3, [r7, #239]
 557              	.L35:
 141:main.c        ****         char *bp = tx;
 558              		.loc 1 141 0 is_stmt 0 discriminator 1
 559 00f4 97F8EF20 		ldrb	r2, [r7, #239]	@ zero_extendqisi2
 560 00f8 97F8D730 		ldrb	r3, [r7, #215]	@ zero_extendqisi2
 561 00fc 9A42     		cmp	r2, r3
 562 00fe A1D3     		bcc	.L39
 149:main.c        ****     }
 150:main.c        **** 
 151:main.c        ****     /* Decoded summary per known attr */
 152:main.c        ****     switch (attr) {
 563              		.loc 1 152 0 is_stmt 1
 564 0100 B7F8DE30 		ldrh	r3, [r7, #222]
 565 0104 013B     		subs	r3, r3, #1
 566 0106 152B     		cmp	r3, #21
 567 0108 00F2B382 		bhi	.L40
 568 010c 01A2     		adr	r2, .L42
 569 010e 52F823F0 		ldr	pc, [r2, r3, lsl #2]
 570 0112 00BF     		.p2align 2
 571              	.L42:
 572 0114 E3040000 		.word	.L41+1
 573 0118 73060000 		.word	.L40+1
 574 011c 15040000 		.word	.L43+1
 575 0120 9B020000 		.word	.L44+1
 576 0124 73060000 		.word	.L40+1
 577 0128 73060000 		.word	.L40+1
 578 012c 73060000 		.word	.L40+1
 579 0130 73060000 		.word	.L40+1
 580 0134 73060000 		.word	.L40+1
 581 0138 73060000 		.word	.L40+1
 582 013c 73060000 		.word	.L40+1
 583 0140 7D050000 		.word	.L45+1
 584 0144 73060000 		.word	.L40+1
 585 0148 73060000 		.word	.L40+1
 586 014c 73060000 		.word	.L40+1
 587 0150 73060000 		.word	.L40+1
 588 0154 73060000 		.word	.L40+1
 589 0158 73060000 		.word	.L40+1
 590 015c 73060000 		.word	.L40+1
 591 0160 73060000 		.word	.L40+1
 592 0164 73060000 		.word	.L40+1
ARM GAS  C:\Users\JENNEW~1\AppData\Local\Temp\ccz5kgXS.s 			page 15


 593 0168 6D010000 		.word	.L46+1
 594              		.p2align 1
 595              	.L46:
 596              	.LBB3:
 153:main.c        **** 
 154:main.c        ****         case 22u: { /* Gimbal Euler */
 155:main.c        ****             if (plen < 6u) break;
 597              		.loc 1 155 0
 598 016c 97F8D730 		ldrb	r3, [r7, #215]	@ zero_extendqisi2
 599 0170 052B     		cmp	r3, #5
 600 0172 40F28282 		bls	.L64
 156:main.c        ****             int16_t pitch_r, yaw_r, roll_r;
 157:main.c        ****             int16_t vi; int16_t vf; char s;
 158:main.c        ****             memcpy(&pitch_r, p + 1, 2);
 601              		.loc 1 158 0
 602 0176 D7F8D830 		ldr	r3, [r7, #216]
 603 017a 591C     		adds	r1, r3, #1
 604 017c 07F12203 		add	r3, r7, #34
 605 0180 0222     		movs	r2, #2
 606 0182 1846     		mov	r0, r3
 607 0184 FFF7FEFF 		bl	memcpy
 159:main.c        ****             memcpy(&yaw_r,   p + 3, 2);
 608              		.loc 1 159 0
 609 0188 D7F8D830 		ldr	r3, [r7, #216]
 610 018c D91C     		adds	r1, r3, #3
 611 018e 07F12003 		add	r3, r7, #32
 612 0192 0222     		movs	r2, #2
 613 0194 1846     		mov	r0, r3
 614 0196 FFF7FEFF 		bl	memcpy
 160:main.c        ****             memcpy(&roll_r,  p + 5, 2);
 615              		.loc 1 160 0
 616 019a D7F8D830 		ldr	r3, [r7, #216]
 617 019e 591D     		adds	r1, r3, #5
 618 01a0 07F11E03 		add	r3, r7, #30
 619 01a4 0222     		movs	r2, #2
 620 01a6 1846     		mov	r0, r3
 621 01a8 FFF7FEFF 		bl	memcpy
 161:main.c        ****             decomp((float)pitch_r / 100.0f, &vi, &vf, &s);
 622              		.loc 1 161 0
 623 01ac B7F92230 		ldrsh	r3, [r7, #34]
 624 01b0 1846     		mov	r0, r3
 625 01b2 FFF7FEFF 		bl	__aeabi_i2f
 626 01b6 0346     		mov	r3, r0
 627 01b8 6A49     		ldr	r1, .L69+24
 628 01ba 1846     		mov	r0, r3
 629 01bc FFF7FEFF 		bl	__aeabi_fdiv
 630 01c0 0346     		mov	r3, r0
 631 01c2 1846     		mov	r0, r3
 632 01c4 07F11903 		add	r3, r7, #25
 633 01c8 07F11A02 		add	r2, r7, #26
 634 01cc 07F11C01 		add	r1, r7, #28
 635 01d0 FFF7FEFF 		bl	decomp
 162:main.c        ****             sprintf(tx, "  Pitch=%c%d.%02d  ", s, vi, vf);  UART_1_PutString(tx);
 636              		.loc 1 162 0
 637 01d4 7B7E     		ldrb	r3, [r7, #25]	@ zero_extendqisi2
 638 01d6 1A46     		mov	r2, r3
 639 01d8 B7F91C30 		ldrsh	r3, [r7, #28]
ARM GAS  C:\Users\JENNEW~1\AppData\Local\Temp\ccz5kgXS.s 			page 16


 640 01dc 1946     		mov	r1, r3
 641 01de B7F91A30 		ldrsh	r3, [r7, #26]
 642 01e2 07F12400 		add	r0, r7, #36
 643 01e6 0093     		str	r3, [sp]
 644 01e8 0B46     		mov	r3, r1
 645 01ea 5F49     		ldr	r1, .L69+28
 646 01ec FFF7FEFF 		bl	sprintf
 647 01f0 07F12403 		add	r3, r7, #36
 648 01f4 1846     		mov	r0, r3
 649 01f6 FFF7FEFF 		bl	UART_1_PutString
 163:main.c        ****             decomp((float)yaw_r   / 100.0f, &vi, &vf, &s);
 650              		.loc 1 163 0
 651 01fa B7F92030 		ldrsh	r3, [r7, #32]
 652 01fe 1846     		mov	r0, r3
 653 0200 FFF7FEFF 		bl	__aeabi_i2f
 654 0204 0346     		mov	r3, r0
 655 0206 5749     		ldr	r1, .L69+24
 656 0208 1846     		mov	r0, r3
 657 020a FFF7FEFF 		bl	__aeabi_fdiv
 658 020e 0346     		mov	r3, r0
 659 0210 1846     		mov	r0, r3
 660 0212 07F11903 		add	r3, r7, #25
 661 0216 07F11A02 		add	r2, r7, #26
 662 021a 07F11C01 		add	r1, r7, #28
 663 021e FFF7FEFF 		bl	decomp
 164:main.c        ****             sprintf(tx, "Yaw=%c%d.%02d  ",   s, vi, vf);    UART_1_PutString(tx);
 664              		.loc 1 164 0
 665 0222 7B7E     		ldrb	r3, [r7, #25]	@ zero_extendqisi2
 666 0224 1A46     		mov	r2, r3
 667 0226 B7F91C30 		ldrsh	r3, [r7, #28]
 668 022a 1946     		mov	r1, r3
 669 022c B7F91A30 		ldrsh	r3, [r7, #26]
 670 0230 07F12400 		add	r0, r7, #36
 671 0234 0093     		str	r3, [sp]
 672 0236 0B46     		mov	r3, r1
 673 0238 4C49     		ldr	r1, .L69+32
 674 023a FFF7FEFF 		bl	sprintf
 675 023e 07F12403 		add	r3, r7, #36
 676 0242 1846     		mov	r0, r3
 677 0244 FFF7FEFF 		bl	UART_1_PutString
 165:main.c        ****             decomp((float)roll_r  / 100.0f, &vi, &vf, &s);
 678              		.loc 1 165 0
 679 0248 B7F91E30 		ldrsh	r3, [r7, #30]
 680 024c 1846     		mov	r0, r3
 681 024e FFF7FEFF 		bl	__aeabi_i2f
 682 0252 0346     		mov	r3, r0
 683 0254 4349     		ldr	r1, .L69+24
 684 0256 1846     		mov	r0, r3
 685 0258 FFF7FEFF 		bl	__aeabi_fdiv
 686 025c 0346     		mov	r3, r0
 687 025e 1846     		mov	r0, r3
 688 0260 07F11903 		add	r3, r7, #25
 689 0264 07F11A02 		add	r2, r7, #26
 690 0268 07F11C01 		add	r1, r7, #28
 691 026c FFF7FEFF 		bl	decomp
 166:main.c        ****             sprintf(tx, "Roll=%c%d.%02d deg\r\n", s, vi, vf); UART_1_PutString(tx);
 692              		.loc 1 166 0
ARM GAS  C:\Users\JENNEW~1\AppData\Local\Temp\ccz5kgXS.s 			page 17


 693 0270 7B7E     		ldrb	r3, [r7, #25]	@ zero_extendqisi2
 694 0272 1A46     		mov	r2, r3
 695 0274 B7F91C30 		ldrsh	r3, [r7, #28]
 696 0278 1946     		mov	r1, r3
 697 027a B7F91A30 		ldrsh	r3, [r7, #26]
 698 027e 07F12400 		add	r0, r7, #36
 699 0282 0093     		str	r3, [sp]
 700 0284 0B46     		mov	r3, r1
 701 0286 3A49     		ldr	r1, .L69+36
 702 0288 FFF7FEFF 		bl	sprintf
 703 028c 07F12403 		add	r3, r7, #36
 704 0290 1846     		mov	r0, r3
 705 0292 FFF7FEFF 		bl	UART_1_PutString
 167:main.c        ****             break;
 706              		.loc 1 167 0
 707 0296 00BF     		nop
 708 0298 F8E1     		b	.L49
 709              	.L44:
 710              	.LBE3:
 711              	.LBB4:
 168:main.c        ****         }
 169:main.c        **** 
 170:main.c        ****         case 4u: { /* GPS */
 171:main.c        ****             if (plen < 12u) break;
 712              		.loc 1 171 0
 713 029a 97F8D730 		ldrb	r3, [r7, #215]	@ zero_extendqisi2
 714 029e 0B2B     		cmp	r3, #11
 715 02a0 40F2ED81 		bls	.L65
 172:main.c        ****             int32_t lon = (int32_t)(((uint32_t)p[0]<<24)|((uint32_t)p[1]<<16)|((uint32_t)p[2]<<8)|p
 716              		.loc 1 172 0
 717 02a4 D7F8D830 		ldr	r3, [r7, #216]
 718 02a8 1B78     		ldrb	r3, [r3]	@ zero_extendqisi2
 719 02aa 1A06     		lsls	r2, r3, #24
 720 02ac D7F8D830 		ldr	r3, [r7, #216]
 721 02b0 0133     		adds	r3, r3, #1
 722 02b2 1B78     		ldrb	r3, [r3]	@ zero_extendqisi2
 723 02b4 1B04     		lsls	r3, r3, #16
 724 02b6 1A43     		orrs	r2, r2, r3
 725 02b8 D7F8D830 		ldr	r3, [r7, #216]
 726 02bc 0233     		adds	r3, r3, #2
 727 02be 1B78     		ldrb	r3, [r3]	@ zero_extendqisi2
 728 02c0 1B02     		lsls	r3, r3, #8
 729 02c2 1343     		orrs	r3, r3, r2
 730 02c4 D7F8D820 		ldr	r2, [r7, #216]
 731 02c8 0332     		adds	r2, r2, #3
 732 02ca 1278     		ldrb	r2, [r2]	@ zero_extendqisi2
 733 02cc 1343     		orrs	r3, r3, r2
 734 02ce C7F8D030 		str	r3, [r7, #208]
 173:main.c        ****             int32_t lat = (int32_t)(((uint32_t)p[4]<<24)|((uint32_t)p[5]<<16)|((uint32_t)p[6]<<8)|p
 735              		.loc 1 173 0
 736 02d2 D7F8D830 		ldr	r3, [r7, #216]
 737 02d6 0433     		adds	r3, r3, #4
 738 02d8 1B78     		ldrb	r3, [r3]	@ zero_extendqisi2
 739 02da 1A06     		lsls	r2, r3, #24
 740 02dc D7F8D830 		ldr	r3, [r7, #216]
 741 02e0 0533     		adds	r3, r3, #5
 742 02e2 1B78     		ldrb	r3, [r3]	@ zero_extendqisi2
ARM GAS  C:\Users\JENNEW~1\AppData\Local\Temp\ccz5kgXS.s 			page 18


 743 02e4 1B04     		lsls	r3, r3, #16
 744 02e6 1A43     		orrs	r2, r2, r3
 745 02e8 D7F8D830 		ldr	r3, [r7, #216]
 746 02ec 0633     		adds	r3, r3, #6
 747 02ee 1B78     		ldrb	r3, [r3]	@ zero_extendqisi2
 748 02f0 1B02     		lsls	r3, r3, #8
 749 02f2 1343     		orrs	r3, r3, r2
 750 02f4 D7F8D820 		ldr	r2, [r7, #216]
 751 02f8 0732     		adds	r2, r2, #7
 752 02fa 1278     		ldrb	r2, [r2]	@ zero_extendqisi2
 753 02fc 1343     		orrs	r3, r3, r2
 754 02fe C7F8CC30 		str	r3, [r7, #204]
 174:main.c        ****             sprintf(tx, "  Lat=%ld.%07ld  Lon=%ld.%07ld (raw/1e7)\r\n",
 755              		.loc 1 174 0
 756 0302 D7F8CC30 		ldr	r3, [r7, #204]
 757 0306 1B4A     		ldr	r2, .L69+40
 758 0308 82FB0312 		smull	r1, r2, r2, r3
 759 030c 9215     		asrs	r2, r2, #22
 760 030e DB17     		asrs	r3, r3, #31
 761 0310 D51A     		subs	r5, r2, r3
 175:main.c        ****                     (long)(lat/10000000L), (long)(lat%10000000L < 0 ? -lat%10000000L : lat%10000000
 762              		.loc 1 175 0
 763 0312 D7F8CC20 		ldr	r2, [r7, #204]
 764 0316 174B     		ldr	r3, .L69+40
 765 0318 83FB0213 		smull	r1, r3, r3, r2
 766 031c 9915     		asrs	r1, r3, #22
 767 031e D317     		asrs	r3, r2, #31
 768 0320 CB1A     		subs	r3, r1, r3
 769 0322 1549     		ldr	r1, .L69+44
 770 0324 01FB03F3 		mul	r3, r1, r3
 771 0328 D31A     		subs	r3, r2, r3
 174:main.c        ****             sprintf(tx, "  Lat=%ld.%07ld  Lon=%ld.%07ld (raw/1e7)\r\n",
 772              		.loc 1 174 0
 773 032a 002B     		cmp	r3, #0
 774 032c 26DA     		bge	.L51
 775              		.loc 1 175 0 discriminator 1
 776 032e D7F8CC30 		ldr	r3, [r7, #204]
 777 0332 5B42     		negs	r3, r3
 174:main.c        ****             sprintf(tx, "  Lat=%ld.%07ld  Lon=%ld.%07ld (raw/1e7)\r\n",
 778              		.loc 1 174 0 discriminator 1
 779 0334 0F4A     		ldr	r2, .L69+40
 780 0336 82FB0312 		smull	r1, r2, r2, r3
 781 033a 9115     		asrs	r1, r2, #22
 782 033c DA17     		asrs	r2, r3, #31
 783 033e 8A1A     		subs	r2, r1, r2
 784 0340 0D49     		ldr	r1, .L69+44
 785 0342 01FB02F2 		mul	r2, r1, r2
 786 0346 9A1A     		subs	r2, r3, r2
 787 0348 24E0     		b	.L52
 788              	.L70:
 789 034a 00BF     		.align	2
 790              	.L69:
 791 034c 00000000 		.word	g_gimbal
 792 0350 66020000 		.word	g_gimbal+614
 793 0354 24000000 		.word	.LC3
 794 0358 40000000 		.word	.LC4
 795 035c 4C000000 		.word	.LC5
ARM GAS  C:\Users\JENNEW~1\AppData\Local\Temp\ccz5kgXS.s 			page 19


 796 0360 54000000 		.word	.LC6
 797 0364 0000C842 		.word	1120403456
 798 0368 58000000 		.word	.LC7
 799 036c 6C000000 		.word	.LC8
 800 0370 7C000000 		.word	.LC9
 801 0374 6BCA5F6B 		.word	1801439851
 802 0378 80969800 		.word	10000000
 803              	.L51:
 174:main.c        ****             sprintf(tx, "  Lat=%ld.%07ld  Lon=%ld.%07ld (raw/1e7)\r\n",
 804              		.loc 1 174 0 is_stmt 0 discriminator 2
 805 037c D7F8CC30 		ldr	r3, [r7, #204]
 806 0380 C44A     		ldr	r2, .L71
 807 0382 82FB0312 		smull	r1, r2, r2, r3
 808 0386 9115     		asrs	r1, r2, #22
 809 0388 DA17     		asrs	r2, r3, #31
 810 038a 8A1A     		subs	r2, r1, r2
 811 038c C249     		ldr	r1, .L71+4
 812 038e 01FB02F2 		mul	r2, r1, r2
 813 0392 9A1A     		subs	r2, r3, r2
 814              	.L52:
 174:main.c        ****             sprintf(tx, "  Lat=%ld.%07ld  Lon=%ld.%07ld (raw/1e7)\r\n",
 815              		.loc 1 174 0 discriminator 4
 816 0394 D7F8D030 		ldr	r3, [r7, #208]
 817 0398 BE49     		ldr	r1, .L71
 818 039a 81FB0301 		smull	r0, r1, r1, r3
 819 039e 8915     		asrs	r1, r1, #22
 820 03a0 DB17     		asrs	r3, r3, #31
 821 03a2 C81A     		subs	r0, r1, r3
 176:main.c        ****                     (long)(lon/10000000L), (long)(lon%10000000L < 0 ? -lon%10000000L : lon%10000000
 822              		.loc 1 176 0 is_stmt 1 discriminator 4
 823 03a4 D7F8D010 		ldr	r1, [r7, #208]
 824 03a8 BA4B     		ldr	r3, .L71
 825 03aa 83FB0143 		smull	r4, r3, r3, r1
 826 03ae 9C15     		asrs	r4, r3, #22
 827 03b0 CB17     		asrs	r3, r1, #31
 828 03b2 E31A     		subs	r3, r4, r3
 829 03b4 B84C     		ldr	r4, .L71+4
 830 03b6 04FB03F3 		mul	r3, r4, r3
 831 03ba CB1A     		subs	r3, r1, r3
 174:main.c        ****             sprintf(tx, "  Lat=%ld.%07ld  Lon=%ld.%07ld (raw/1e7)\r\n",
 832              		.loc 1 174 0 discriminator 4
 833 03bc 002B     		cmp	r3, #0
 834 03be 0DDA     		bge	.L53
 835              		.loc 1 176 0 discriminator 5
 836 03c0 D7F8D030 		ldr	r3, [r7, #208]
 837 03c4 5942     		negs	r1, r3
 174:main.c        ****             sprintf(tx, "  Lat=%ld.%07ld  Lon=%ld.%07ld (raw/1e7)\r\n",
 838              		.loc 1 174 0 discriminator 5
 839 03c6 B34B     		ldr	r3, .L71
 840 03c8 83FB0143 		smull	r4, r3, r3, r1
 841 03cc 9C15     		asrs	r4, r3, #22
 842 03ce CB17     		asrs	r3, r1, #31
 843 03d0 E31A     		subs	r3, r4, r3
 844 03d2 B14C     		ldr	r4, .L71+4
 845 03d4 04FB03F3 		mul	r3, r4, r3
 846 03d8 CB1A     		subs	r3, r1, r3
 847 03da 0BE0     		b	.L54
ARM GAS  C:\Users\JENNEW~1\AppData\Local\Temp\ccz5kgXS.s 			page 20


 848              	.L53:
 174:main.c        ****             sprintf(tx, "  Lat=%ld.%07ld  Lon=%ld.%07ld (raw/1e7)\r\n",
 849              		.loc 1 174 0 is_stmt 0 discriminator 6
 850 03dc D7F8D010 		ldr	r1, [r7, #208]
 851 03e0 AC4B     		ldr	r3, .L71
 852 03e2 83FB0143 		smull	r4, r3, r3, r1
 853 03e6 9C15     		asrs	r4, r3, #22
 854 03e8 CB17     		asrs	r3, r1, #31
 855 03ea E31A     		subs	r3, r4, r3
 856 03ec AA4C     		ldr	r4, .L71+4
 857 03ee 04FB03F3 		mul	r3, r4, r3
 858 03f2 CB1A     		subs	r3, r1, r3
 859              	.L54:
 174:main.c        ****             sprintf(tx, "  Lat=%ld.%07ld  Lon=%ld.%07ld (raw/1e7)\r\n",
 860              		.loc 1 174 0 discriminator 8
 861 03f4 07F12404 		add	r4, r7, #36
 862 03f8 0193     		str	r3, [sp, #4]
 863 03fa 0090     		str	r0, [sp]
 864 03fc 1346     		mov	r3, r2
 865 03fe 2A46     		mov	r2, r5
 866 0400 A649     		ldr	r1, .L71+8
 867 0402 2046     		mov	r0, r4
 868 0404 FFF7FEFF 		bl	sprintf
 177:main.c        ****             UART_1_PutString(tx);
 869              		.loc 1 177 0 is_stmt 1 discriminator 8
 870 0408 07F12403 		add	r3, r7, #36
 871 040c 1846     		mov	r0, r3
 872 040e FFF7FEFF 		bl	UART_1_PutString
 178:main.c        ****             break;
 873              		.loc 1 178 0 discriminator 8
 874 0412 3BE1     		b	.L49
 875              	.L43:
 876              	.LBE4:
 877              	.LBB5:
 179:main.c        ****         }
 180:main.c        **** 
 181:main.c        ****         case 3u: { /* Baro */
 182:main.c        ****             if (plen < 5u) break;
 878              		.loc 1 182 0
 879 0414 97F8D730 		ldrb	r3, [r7, #215]	@ zero_extendqisi2
 880 0418 042B     		cmp	r3, #4
 881 041a 40F23281 		bls	.L66
 183:main.c        ****             int16_t alt, roc;
 184:main.c        ****             int16_t vi; int16_t vf; char s;
 185:main.c        ****             memcpy(&alt, p + 1, 2);
 882              		.loc 1 185 0
 883 041e D7F8D830 		ldr	r3, [r7, #216]
 884 0422 591C     		adds	r1, r3, #1
 885 0424 07F11603 		add	r3, r7, #22
 886 0428 0222     		movs	r2, #2
 887 042a 1846     		mov	r0, r3
 888 042c FFF7FEFF 		bl	memcpy
 186:main.c        ****             memcpy(&roc, p + 3, 2);
 889              		.loc 1 186 0
 890 0430 D7F8D830 		ldr	r3, [r7, #216]
 891 0434 D91C     		adds	r1, r3, #3
 892 0436 07F11403 		add	r3, r7, #20
ARM GAS  C:\Users\JENNEW~1\AppData\Local\Temp\ccz5kgXS.s 			page 21


 893 043a 0222     		movs	r2, #2
 894 043c 1846     		mov	r0, r3
 895 043e FFF7FEFF 		bl	memcpy
 187:main.c        ****             decomp((float)alt / 10.0f,  &vi, &vf, &s);
 896              		.loc 1 187 0
 897 0442 B7F91630 		ldrsh	r3, [r7, #22]
 898 0446 1846     		mov	r0, r3
 899 0448 FFF7FEFF 		bl	__aeabi_i2f
 900 044c 0346     		mov	r3, r0
 901 044e 9449     		ldr	r1, .L71+12
 902 0450 1846     		mov	r0, r3
 903 0452 FFF7FEFF 		bl	__aeabi_fdiv
 904 0456 0346     		mov	r3, r0
 905 0458 1846     		mov	r0, r3
 906 045a 07F10F03 		add	r3, r7, #15
 907 045e 07F11002 		add	r2, r7, #16
 908 0462 07F11201 		add	r1, r7, #18
 909 0466 FFF7FEFF 		bl	decomp
 188:main.c        ****             sprintf(tx, "  Alt=%c%d.%02d m  ", s, vi, vf);   UART_1_PutString(tx);
 910              		.loc 1 188 0
 911 046a FB7B     		ldrb	r3, [r7, #15]	@ zero_extendqisi2
 912 046c 1A46     		mov	r2, r3
 913 046e B7F91230 		ldrsh	r3, [r7, #18]
 914 0472 1946     		mov	r1, r3
 915 0474 B7F91030 		ldrsh	r3, [r7, #16]
 916 0478 07F12400 		add	r0, r7, #36
 917 047c 0093     		str	r3, [sp]
 918 047e 0B46     		mov	r3, r1
 919 0480 8849     		ldr	r1, .L71+16
 920 0482 FFF7FEFF 		bl	sprintf
 921 0486 07F12403 		add	r3, r7, #36
 922 048a 1846     		mov	r0, r3
 923 048c FFF7FEFF 		bl	UART_1_PutString
 189:main.c        ****             decomp((float)roc / 100.0f, &vi, &vf, &s);
 924              		.loc 1 189 0
 925 0490 B7F91430 		ldrsh	r3, [r7, #20]
 926 0494 1846     		mov	r0, r3
 927 0496 FFF7FEFF 		bl	__aeabi_i2f
 928 049a 0346     		mov	r3, r0
 929 049c 8249     		ldr	r1, .L71+20
 930 049e 1846     		mov	r0, r3
 931 04a0 FFF7FEFF 		bl	__aeabi_fdiv
 932 04a4 0346     		mov	r3, r0
 933 04a6 1846     		mov	r0, r3
 934 04a8 07F10F03 		add	r3, r7, #15
 935 04ac 07F11002 		add	r2, r7, #16
 936 04b0 07F11201 		add	r1, r7, #18
 937 04b4 FFF7FEFF 		bl	decomp
 190:main.c        ****             sprintf(tx, "ROC=%c%d.%02d m/s\r\n", s, vi, vf); UART_1_PutString(tx);
 938              		.loc 1 190 0
 939 04b8 FB7B     		ldrb	r3, [r7, #15]	@ zero_extendqisi2
 940 04ba 1A46     		mov	r2, r3
 941 04bc B7F91230 		ldrsh	r3, [r7, #18]
 942 04c0 1946     		mov	r1, r3
 943 04c2 B7F91030 		ldrsh	r3, [r7, #16]
 944 04c6 07F12400 		add	r0, r7, #36
 945 04ca 0093     		str	r3, [sp]
ARM GAS  C:\Users\JENNEW~1\AppData\Local\Temp\ccz5kgXS.s 			page 22


 946 04cc 0B46     		mov	r3, r1
 947 04ce 7749     		ldr	r1, .L71+24
 948 04d0 FFF7FEFF 		bl	sprintf
 949 04d4 07F12403 		add	r3, r7, #36
 950 04d8 1846     		mov	r0, r3
 951 04da FFF7FEFF 		bl	UART_1_PutString
 191:main.c        ****             break;
 952              		.loc 1 191 0
 953 04de 00BF     		nop
 954 04e0 D4E0     		b	.L49
 955              	.L41:
 956              	.LBE5:
 957              	.LBB6:
 192:main.c        ****         }
 193:main.c        **** 
 194:main.c        ****         case 1u: { /* System status */
 195:main.c        ****             if (plen < 4u) break;
 958              		.loc 1 195 0
 959 04e2 97F8D730 		ldrb	r3, [r7, #215]	@ zero_extendqisi2
 960 04e6 032B     		cmp	r3, #3
 961 04e8 40F2CD80 		bls	.L67
 196:main.c        ****             int16_t bv = (int16_t)(((uint16_t)p[0] << 8) | p[1]);
 962              		.loc 1 196 0
 963 04ec D7F8D830 		ldr	r3, [r7, #216]
 964 04f0 1B78     		ldrb	r3, [r3]	@ zero_extendqisi2
 965 04f2 1B02     		lsls	r3, r3, #8
 966 04f4 1AB2     		sxth	r2, r3
 967 04f6 D7F8D830 		ldr	r3, [r7, #216]
 968 04fa 0133     		adds	r3, r3, #1
 969 04fc 1B78     		ldrb	r3, [r3]	@ zero_extendqisi2
 970 04fe 1BB2     		sxth	r3, r3
 971 0500 1343     		orrs	r3, r3, r2
 972 0502 A7F8CA30 		strh	r3, [r7, #202]	@ movhi
 197:main.c        ****             int16_t vi; int16_t vf; char s;
 198:main.c        ****             decomp((float)bv / 100.0f, &vi, &vf, &s);
 973              		.loc 1 198 0
 974 0506 B7F9CA30 		ldrsh	r3, [r7, #202]
 975 050a 1846     		mov	r0, r3
 976 050c FFF7FEFF 		bl	__aeabi_i2f
 977 0510 0346     		mov	r3, r0
 978 0512 6549     		ldr	r1, .L71+20
 979 0514 1846     		mov	r0, r3
 980 0516 FFF7FEFF 		bl	__aeabi_fdiv
 981 051a 0346     		mov	r3, r0
 982 051c 1846     		mov	r0, r3
 983 051e 07F10903 		add	r3, r7, #9
 984 0522 07F10A02 		add	r2, r7, #10
 985 0526 07F10C01 		add	r1, r7, #12
 986 052a FFF7FEFF 		bl	decomp
 199:main.c        ****             sprintf(tx, "  Batt=%c%d.%02d V  Sats=%u  Temp=%d C\r\n",
 987              		.loc 1 199 0
 988 052e 7B7A     		ldrb	r3, [r7, #9]	@ zero_extendqisi2
 989 0530 1D46     		mov	r5, r3
 990 0532 B7F90C30 		ldrsh	r3, [r7, #12]
 991 0536 1E46     		mov	r6, r3
 992 0538 B7F90A30 		ldrsh	r3, [r7, #10]
 993 053c 1946     		mov	r1, r3
ARM GAS  C:\Users\JENNEW~1\AppData\Local\Temp\ccz5kgXS.s 			page 23


 200:main.c        ****                     s, vi, vf, p[2], p[3]/3);
 994              		.loc 1 200 0
 995 053e D7F8D830 		ldr	r3, [r7, #216]
 996 0542 0233     		adds	r3, r3, #2
 997 0544 1B78     		ldrb	r3, [r3]	@ zero_extendqisi2
 199:main.c        ****             sprintf(tx, "  Batt=%c%d.%02d V  Sats=%u  Temp=%d C\r\n",
 998              		.loc 1 199 0
 999 0546 1C46     		mov	r4, r3
 1000              		.loc 1 200 0
 1001 0548 D7F8D830 		ldr	r3, [r7, #216]
 1002 054c 0333     		adds	r3, r3, #3
 1003 054e 1B78     		ldrb	r3, [r3]	@ zero_extendqisi2
 199:main.c        ****             sprintf(tx, "  Batt=%c%d.%02d V  Sats=%u  Temp=%d C\r\n",
 1004              		.loc 1 199 0
 1005 0550 574A     		ldr	r2, .L71+28
 1006 0552 A2FB0323 		umull	r2, r3, r2, r3
 1007 0556 5B08     		lsrs	r3, r3, #1
 1008 0558 DBB2     		uxtb	r3, r3
 1009 055a 07F12400 		add	r0, r7, #36
 1010 055e 0293     		str	r3, [sp, #8]
 1011 0560 0194     		str	r4, [sp, #4]
 1012 0562 0091     		str	r1, [sp]
 1013 0564 3346     		mov	r3, r6
 1014 0566 2A46     		mov	r2, r5
 1015 0568 5249     		ldr	r1, .L71+32
 1016 056a FFF7FEFF 		bl	sprintf
 201:main.c        ****             UART_1_PutString(tx);
 1017              		.loc 1 201 0
 1018 056e 07F12403 		add	r3, r7, #36
 1019 0572 1846     		mov	r0, r3
 1020 0574 FFF7FEFF 		bl	UART_1_PutString
 202:main.c        ****             break;
 1021              		.loc 1 202 0
 1022 0578 00BF     		nop
 1023 057a 87E0     		b	.L49
 1024              	.L45:
 1025              	.LBE6:
 1026              	.LBB7:
 203:main.c        ****         }
 204:main.c        **** 
 205:main.c        ****         case 12u: { /* Magnetometer */
 206:main.c        ****             if (plen < 6u) break;
 1027              		.loc 1 206 0
 1028 057c 97F8D730 		ldrb	r3, [r7, #215]	@ zero_extendqisi2
 1029 0580 052B     		cmp	r3, #5
 1030 0582 40F28280 		bls	.L68
 207:main.c        ****             int16_t x = (int16_t)(((uint16_t)p[1]<<8)|p[2]);
 1031              		.loc 1 207 0
 1032 0586 D7F8D830 		ldr	r3, [r7, #216]
 1033 058a 0133     		adds	r3, r3, #1
 1034 058c 1B78     		ldrb	r3, [r3]	@ zero_extendqisi2
 1035 058e 1B02     		lsls	r3, r3, #8
 1036 0590 1AB2     		sxth	r2, r3
 1037 0592 D7F8D830 		ldr	r3, [r7, #216]
 1038 0596 0233     		adds	r3, r3, #2
 1039 0598 1B78     		ldrb	r3, [r3]	@ zero_extendqisi2
 1040 059a 1BB2     		sxth	r3, r3
ARM GAS  C:\Users\JENNEW~1\AppData\Local\Temp\ccz5kgXS.s 			page 24


 1041 059c 1343     		orrs	r3, r3, r2
 1042 059e A7F8C830 		strh	r3, [r7, #200]	@ movhi
 208:main.c        ****             int16_t y = (int16_t)(((uint16_t)p[3]<<8)|p[4]);
 1043              		.loc 1 208 0
 1044 05a2 D7F8D830 		ldr	r3, [r7, #216]
 1045 05a6 0333     		adds	r3, r3, #3
 1046 05a8 1B78     		ldrb	r3, [r3]	@ zero_extendqisi2
 1047 05aa 1B02     		lsls	r3, r3, #8
 1048 05ac 1AB2     		sxth	r2, r3
 1049 05ae D7F8D830 		ldr	r3, [r7, #216]
 1050 05b2 0433     		adds	r3, r3, #4
 1051 05b4 1B78     		ldrb	r3, [r3]	@ zero_extendqisi2
 1052 05b6 1BB2     		sxth	r3, r3
 1053 05b8 1343     		orrs	r3, r3, r2
 1054 05ba A7F8C630 		strh	r3, [r7, #198]	@ movhi
 209:main.c        ****             int16_t z = (int16_t)(((uint16_t)p[5]<<8)|p[6]);
 1055              		.loc 1 209 0
 1056 05be D7F8D830 		ldr	r3, [r7, #216]
 1057 05c2 0533     		adds	r3, r3, #5
 1058 05c4 1B78     		ldrb	r3, [r3]	@ zero_extendqisi2
 1059 05c6 1B02     		lsls	r3, r3, #8
 1060 05c8 1AB2     		sxth	r2, r3
 1061 05ca D7F8D830 		ldr	r3, [r7, #216]
 1062 05ce 0633     		adds	r3, r3, #6
 1063 05d0 1B78     		ldrb	r3, [r3]	@ zero_extendqisi2
 1064 05d2 1BB2     		sxth	r3, r3
 1065 05d4 1343     		orrs	r3, r3, r2
 1066 05d6 A7F8C430 		strh	r3, [r7, #196]	@ movhi
 210:main.c        ****             float hdg = atan2f((float)y, (float)x) * 57.2958f;
 1067              		.loc 1 210 0
 1068 05da B7F9C630 		ldrsh	r3, [r7, #198]
 1069 05de 1846     		mov	r0, r3
 1070 05e0 FFF7FEFF 		bl	__aeabi_i2f
 1071 05e4 0446     		mov	r4, r0
 1072 05e6 B7F9C830 		ldrsh	r3, [r7, #200]
 1073 05ea 1846     		mov	r0, r3
 1074 05ec FFF7FEFF 		bl	__aeabi_i2f
 1075 05f0 0346     		mov	r3, r0
 1076 05f2 1946     		mov	r1, r3
 1077 05f4 2046     		mov	r0, r4
 1078 05f6 FFF7FEFF 		bl	atan2f
 1079 05fa 0346     		mov	r3, r0
 1080 05fc 2E49     		ldr	r1, .L71+36
 1081 05fe 1846     		mov	r0, r3
 1082 0600 FFF7FEFF 		bl	__aeabi_fmul
 1083 0604 0346     		mov	r3, r0
 1084 0606 C7F8E030 		str	r3, [r7, #224]	@ float
 211:main.c        ****             if (hdg < 0.0f) hdg += 360.0f;
 1085              		.loc 1 211 0
 1086 060a 4FF00001 		mov	r1, #0
 1087 060e D7F8E000 		ldr	r0, [r7, #224]	@ float
 1088 0612 FFF7FEFF 		bl	__aeabi_fcmplt
 1089 0616 0346     		mov	r3, r0
 1090 0618 002B     		cmp	r3, #0
 1091 061a 07D0     		beq	.L61
 1092              		.loc 1 211 0 is_stmt 0 discriminator 1
 1093 061c 2749     		ldr	r1, .L71+40
ARM GAS  C:\Users\JENNEW~1\AppData\Local\Temp\ccz5kgXS.s 			page 25


 1094 061e D7F8E000 		ldr	r0, [r7, #224]	@ float
 1095 0622 FFF7FEFF 		bl	__aeabi_fadd
 1096 0626 0346     		mov	r3, r0
 1097 0628 C7F8E030 		str	r3, [r7, #224]	@ float
 1098              	.L61:
 212:main.c        ****             int16_t hi, hf; char hs;
 213:main.c        ****             decomp(hdg, &hi, &hf, &hs);
 1099              		.loc 1 213 0 is_stmt 1
 1100 062c FB1C     		adds	r3, r7, #3
 1101 062e 3A1D     		adds	r2, r7, #4
 1102 0630 B91D     		adds	r1, r7, #6
 1103 0632 D7F8E000 		ldr	r0, [r7, #224]	@ float
 1104 0636 FFF7FEFF 		bl	decomp
 214:main.c        ****             sprintf(tx, "  X=%d  Y=%d  Z=%d  hdg~=%d.%02d deg\r\n",
 1105              		.loc 1 214 0
 1106 063a B7F9C820 		ldrsh	r2, [r7, #200]
 1107 063e B7F9C610 		ldrsh	r1, [r7, #198]
 1108 0642 B7F9C430 		ldrsh	r3, [r7, #196]
 1109 0646 B7F90600 		ldrsh	r0, [r7, #6]
 1110 064a 0446     		mov	r4, r0
 1111 064c B7F90400 		ldrsh	r0, [r7, #4]
 1112 0650 0546     		mov	r5, r0
 1113 0652 07F12400 		add	r0, r7, #36
 1114 0656 0295     		str	r5, [sp, #8]
 1115 0658 0194     		str	r4, [sp, #4]
 1116 065a 0093     		str	r3, [sp]
 1117 065c 0B46     		mov	r3, r1
 1118 065e 1849     		ldr	r1, .L71+44
 1119 0660 FFF7FEFF 		bl	sprintf
 215:main.c        ****                     x, y, z, hi, hf);
 216:main.c        ****             UART_1_PutString(tx);
 1120              		.loc 1 216 0
 1121 0664 07F12403 		add	r3, r7, #36
 1122 0668 1846     		mov	r0, r3
 1123 066a FFF7FEFF 		bl	UART_1_PutString
 217:main.c        ****             break;
 1124              		.loc 1 217 0
 1125 066e 00BF     		nop
 1126 0670 0CE0     		b	.L49
 1127              	.L40:
 1128              	.LBE7:
 218:main.c        ****         }
 219:main.c        **** 
 220:main.c        ****         default:
 221:main.c        ****             UART_1_PutString("  (no decoder for this attr)\r\n");
 1129              		.loc 1 221 0
 1130 0672 1448     		ldr	r0, .L71+48
 1131 0674 FFF7FEFF 		bl	UART_1_PutString
 222:main.c        ****             break;
 1132              		.loc 1 222 0
 1133 0678 08E0     		b	.L49
 1134              	.L64:
 1135              	.LBB8:
 155:main.c        ****             int16_t pitch_r, yaw_r, roll_r;
 1136              		.loc 1 155 0
 1137 067a 00BF     		nop
 1138 067c 06E0     		b	.L49
ARM GAS  C:\Users\JENNEW~1\AppData\Local\Temp\ccz5kgXS.s 			page 26


 1139              	.L65:
 1140              	.LBE8:
 1141              	.LBB9:
 171:main.c        ****             int32_t lon = (int32_t)(((uint32_t)p[0]<<24)|((uint32_t)p[1]<<16)|((uint32_t)p[2]<<8)|p
 1142              		.loc 1 171 0
 1143 067e 00BF     		nop
 1144 0680 04E0     		b	.L49
 1145              	.L66:
 1146              	.LBE9:
 1147              	.LBB10:
 182:main.c        ****             int16_t alt, roc;
 1148              		.loc 1 182 0
 1149 0682 00BF     		nop
 1150 0684 02E0     		b	.L49
 1151              	.L67:
 1152              	.LBE10:
 1153              	.LBB11:
 195:main.c        ****             int16_t bv = (int16_t)(((uint16_t)p[0] << 8) | p[1]);
 1154              		.loc 1 195 0
 1155 0686 00BF     		nop
 1156 0688 00E0     		b	.L49
 1157              	.L68:
 1158              	.LBE11:
 1159              	.LBB12:
 206:main.c        ****             int16_t x = (int16_t)(((uint16_t)p[1]<<8)|p[2]);
 1160              		.loc 1 206 0
 1161 068a 00BF     		nop
 1162              	.L49:
 1163              	.LBE12:
 223:main.c        ****     }
 224:main.c        **** }
 1164              		.loc 1 224 0 discriminator 9
 1165 068c 00BF     		nop
 1166 068e F437     		adds	r7, r7, #244
 1167              		.cfi_def_cfa_offset 20
 1168 0690 BD46     		mov	sp, r7
 1169              		.cfi_def_cfa_register 13
 1170              		@ sp needed
 1171 0692 F0BD     		pop	{r4, r5, r6, r7, pc}
 1172              	.L72:
 1173              		.align	2
 1174              	.L71:
 1175 0694 6BCA5F6B 		.word	1801439851
 1176 0698 80969800 		.word	10000000
 1177 069c 94000000 		.word	.LC10
 1178 06a0 00002041 		.word	1092616192
 1179 06a4 C0000000 		.word	.LC11
 1180 06a8 0000C842 		.word	1120403456
 1181 06ac D4000000 		.word	.LC12
 1182 06b0 ABAAAAAA 		.word	-1431655765
 1183 06b4 E8000000 		.word	.LC13
 1184 06b8 E62E6542 		.word	1113927398
 1185 06bc 0000B443 		.word	1135869952
 1186 06c0 14010000 		.word	.LC14
 1187 06c4 3C010000 		.word	.LC15
 1188              		.cfi_endproc
 1189              	.LFE70:
ARM GAS  C:\Users\JENNEW~1\AppData\Local\Temp\ccz5kgXS.s 			page 27


 1190              		.size	print_response, .-print_response
 1191              		.section	.rodata
 1192 015b 00       		.align	2
 1193              	.LC16:
 1194 015c 0D0A3D3D 		.ascii	"\015\012=== HamflyAPI  PSoC 5LP ===\015\012\000"
 1194      3D204861 
 1194      6D666C79 
 1194      41504920 
 1194      2050536F 
 1195              		.align	2
 1196              	.LC17:
 1197 017c 6D3D6374 		.ascii	"m=ctrl  t=test  l=mode  j=joy  k=kill\015\012\000"
 1197      726C2020 
 1197      743D7465 
 1197      73742020 
 1197      6C3D6D6F 
 1198              		.align	2
 1199              	.LC18:
 1200 01a4 54455354 		.ascii	"TEST: a=att  g=GPS  b=baro  s=stat  n=mag  t=exit\015"
 1200      3A20613D 
 1200      61747420 
 1200      20673D47 
 1200      50532020 
 1201 01d6 0A00     		.ascii	"\012\000"
 1202              		.align	2
 1203              	.LC19:
 1204 01d8 5B496E69 		.ascii	"[Init] Ready\015\012\000"
 1204      745D2052 
 1204      65616479 
 1204      0D0A00
 1205 01e7 00       		.align	2
 1206              	.LC20:
 1207 01e8 5B434C49 		.ascii	"[CLI] CONTROL\015\012\000"
 1207      5D20434F 
 1207      4E54524F 
 1207      4C0D0A00 
 1208              		.align	2
 1209              	.LC21:
 1210 01f8 5B434C49 		.ascii	"[CLI] STANDBY\015\012\000"
 1210      5D205354 
 1210      414E4442 
 1210      590D0A00 
 1211              		.align	2
 1212              	.LC22:
 1213 0208 5B434C49 		.ascii	"[CLI] TEST  a/g/b/s/n to query  t=exit\015\012\000"
 1213      5D205445 
 1213      53542020 
 1213      612F672F 
 1213      622F732F 
 1214 0231 000000   		.align	2
 1215              	.LC23:
 1216 0234 5B434C49 		.ascii	"[CLI] Mode: %s\015\012\000"
 1216      5D204D6F 
 1216      64653A20 
 1216      25730D0A 
 1216      00
 1217 0245 000000   		.align	2
ARM GAS  C:\Users\JENNEW~1\AppData\Local\Temp\ccz5kgXS.s 			page 28


 1218              	.LC24:
 1219 0248 5B434C49 		.ascii	"[CLI] Joystick ON\015\012\000"
 1219      5D204A6F 
 1219      79737469 
 1219      636B204F 
 1219      4E0D0A00 
 1220              		.align	2
 1221              	.LC25:
 1222 025c 5B434C49 		.ascii	"[CLI] Joystick OFF\015\012\000"
 1222      5D204A6F 
 1222      79737469 
 1222      636B204F 
 1222      46460D0A 
 1223 0271 000000   		.align	2
 1224              	.LC26:
 1225 0274 5B434C49 		.ascii	"[CLI] Kill sent -> STANDBY\015\012\000"
 1225      5D204B69 
 1225      6C6C2073 
 1225      656E7420 
 1225      2D3E2053 
 1226 0291 000000   		.align	2
 1227              	.LC27:
 1228 0294 5B544553 		.ascii	"[TEST] attr 22 (Euler)...\015\012\000"
 1228      545D2061 
 1228      74747220 
 1228      32322028 
 1228      45756C65 
 1229              		.align	2
 1230              	.LC28:
 1231 02b0 5B544553 		.ascii	"[TEST] attr 4  (GPS)...\015\012\000"
 1231      545D2061 
 1231      74747220 
 1231      34202028 
 1231      47505329 
 1232 02ca 0000     		.align	2
 1233              	.LC29:
 1234 02cc 5B544553 		.ascii	"[TEST] attr 3  (baro)...\015\012\000"
 1234      545D2061 
 1234      74747220 
 1234      33202028 
 1234      6261726F 
 1235 02e7 00       		.align	2
 1236              	.LC30:
 1237 02e8 5B544553 		.ascii	"[TEST] attr 1  (sysstat)...\015\012\000"
 1237      545D2061 
 1237      74747220 
 1237      31202028 
 1237      73797373 
 1238 0306 0000     		.align	2
 1239              	.LC31:
 1240 0308 5B544553 		.ascii	"[TEST] attr 12 (mag)...\015\012\000"
 1240      545D2061 
 1240      74747220 
 1240      31322028 
 1240      6D616729 
 1241 0322 0000     		.align	2
 1242              	.LC32:
ARM GAS  C:\Users\JENNEW~1\AppData\Local\Temp\ccz5kgXS.s 			page 29


 1243 0324 5B544553 		.ascii	"[TEST] -> STANDBY\015\012\000"
 1243      545D202D 
 1243      3E205354 
 1243      414E4442 
 1243      590D0A00 
 1244              		.align	2
 1245              	.LC33:
 1246 0338 5B544553 		.ascii	"[TEST] Kill -> STANDBY\015\012\000"
 1246      545D204B 
 1246      696C6C20 
 1246      2D3E2053 
 1246      54414E44 
 1247 0351 000000   		.align	2
 1248              	.LC34:
 1249 0354 20206474 		.ascii	"  dt=%lums\015\012\000"
 1249      3D256C75 
 1249      6D730D0A 
 1249      00
 1250 0361 000000   		.align	2
 1251              	.LC35:
 1252 0364 5B544553 		.ascii	"[TEST] TIMEOUT attr=%u\015\012\000"
 1252      545D2054 
 1252      494D454F 
 1252      55542061 
 1252      7474723D 
 1253              		.section	.text.main,"ax",%progbits
 1254              		.align	2
 1255              		.global	main
 1256              		.thumb
 1257              		.thumb_func
 1258              		.type	main, %function
 1259              	main:
 1260              	.LFB71:
 225:main.c        **** 
 226:main.c        **** /* =========================================================================
 227:main.c        ****  * main
 228:main.c        ****  * ========================================================================= */
 229:main.c        **** int main(void)
 230:main.c        **** {
 1261              		.loc 1 230 0
 1262              		.cfi_startproc
 1263              		@ args = 0, pretend = 0, frame = 232
 1264              		@ frame_needed = 1, uses_anonymous_args = 0
 1265 0000 80B5     		push	{r7, lr}
 1266              		.cfi_def_cfa_offset 8
 1267              		.cfi_offset 7, -8
 1268              		.cfi_offset 14, -4
 1269 0002 BAB0     		sub	sp, sp, #232
 1270              		.cfi_def_cfa_offset 240
 1271 0004 00AF     		add	r7, sp, #0
 1272              		.cfi_def_cfa_register 7
 231:main.c        ****     char tx[TX_BUF_SIZE];
 232:main.c        **** 
 233:main.c        ****     app_mode_t            app_mode  = MODE_STANDBY;
 1273              		.loc 1 233 0
 1274 0006 0023     		movs	r3, #0
 1275 0008 87F8E730 		strb	r3, [r7, #231]
ARM GAS  C:\Users\JENNEW~1\AppData\Local\Temp\ccz5kgXS.s 			page 30


 234:main.c        ****     hamfly_control_mode_t ctrl_mode = HAMFLY_DEFER;
 1276              		.loc 1 234 0
 1277 000c 0023     		movs	r3, #0
 1278 000e 87F8E630 		strb	r3, [r7, #230]
 235:main.c        ****     hamfly_control_t      ctl;
 236:main.c        **** 
 237:main.c        ****     uint8_t  joystick_active = 0u;
 1279              		.loc 1 237 0
 1280 0012 0023     		movs	r3, #0
 1281 0014 87F8E530 		strb	r3, [r7, #229]
 238:main.c        ****     uint32_t last_tx_ms      = 0u;
 1282              		.loc 1 238 0
 1283 0018 0023     		movs	r3, #0
 1284 001a C7F8E030 		str	r3, [r7, #224]
 239:main.c        **** 
 240:main.c        ****     int16_t   counts[N_CH];
 241:main.c        ****     joy_cmd_t cmd;
 242:main.c        ****     cmd.u[0] = cmd.u[1] = 0.0f;
 1285              		.loc 1 242 0
 1286 001e 4FF00003 		mov	r3, #0
 1287 0022 BB61     		str	r3, [r7, #24]	@ float
 1288 0024 BB69     		ldr	r3, [r7, #24]	@ float
 1289 0026 7B61     		str	r3, [r7, #20]	@ float
 243:main.c        **** 
 244:main.c        ****     joy_cal_t defaults;
 245:main.c        ****     uint8_t i;
 246:main.c        ****     for (i = 0u; i < (uint8_t)N_CH; i++) {
 1290              		.loc 1 246 0
 1291 0028 0023     		movs	r3, #0
 1292 002a 87F8DF30 		strb	r3, [r7, #223]
 1293 002e 20E0     		b	.L74
 1294              	.L75:
 247:main.c        ****         defaults.minv[i] = 0; defaults.maxv[i] = 255; defaults.center[i] = 128;
 1295              		.loc 1 247 0 discriminator 3
 1296 0030 97F8DF30 		ldrb	r3, [r7, #223]	@ zero_extendqisi2
 1297 0034 5B00     		lsls	r3, r3, #1
 1298 0036 07F1E802 		add	r2, r7, #232
 1299 003a 1344     		add	r3, r3, r2
 1300 003c 0022     		movs	r2, #0
 1301 003e 23F8E42C 		strh	r2, [r3, #-228]	@ movhi
 1302 0042 97F8DF30 		ldrb	r3, [r7, #223]	@ zero_extendqisi2
 1303 0046 5B00     		lsls	r3, r3, #1
 1304 0048 07F1E802 		add	r2, r7, #232
 1305 004c 1344     		add	r3, r3, r2
 1306 004e FF22     		movs	r2, #255
 1307 0050 23F8E02C 		strh	r2, [r3, #-224]	@ movhi
 1308 0054 97F8DF30 		ldrb	r3, [r7, #223]	@ zero_extendqisi2
 1309 0058 0433     		adds	r3, r3, #4
 1310 005a 5B00     		lsls	r3, r3, #1
 1311 005c 07F1E802 		add	r2, r7, #232
 1312 0060 1344     		add	r3, r3, r2
 1313 0062 8022     		movs	r2, #128
 1314 0064 23F8E42C 		strh	r2, [r3, #-228]	@ movhi
 246:main.c        ****         defaults.minv[i] = 0; defaults.maxv[i] = 255; defaults.center[i] = 128;
 1315              		.loc 1 246 0 discriminator 3
 1316 0068 97F8DF30 		ldrb	r3, [r7, #223]	@ zero_extendqisi2
 1317 006c 0133     		adds	r3, r3, #1
ARM GAS  C:\Users\JENNEW~1\AppData\Local\Temp\ccz5kgXS.s 			page 31


 1318 006e 87F8DF30 		strb	r3, [r7, #223]
 1319              	.L74:
 246:main.c        ****         defaults.minv[i] = 0; defaults.maxv[i] = 255; defaults.center[i] = 128;
 1320              		.loc 1 246 0 is_stmt 0 discriminator 1
 1321 0072 97F8DF30 		ldrb	r3, [r7, #223]	@ zero_extendqisi2
 1322 0076 012B     		cmp	r3, #1
 1323 0078 DAD9     		bls	.L75
 248:main.c        ****     }
 249:main.c        ****     defaults.valid = 0u;
 1324              		.loc 1 249 0 is_stmt 1
 1325 007a 0023     		movs	r3, #0
 1326 007c 3B74     		strb	r3, [r7, #16]
 250:main.c        **** 
 251:main.c        ****     /* ------------------------------------------------------------------
 252:main.c        ****      * Hardware init
 253:main.c        ****      * ------------------------------------------------------------------ */
 254:main.c        ****     CyGlobalIntEnable;
 1327              		.loc 1 254 0
 1328              		.syntax unified
 1329              	@ 254 "main.c" 1
 1330 007e 62B6     		CPSIE   i
 1331              	@ 0 "" 2
 255:main.c        **** 
 256:main.c        ****     UART_1_Start();
 1332              		.loc 1 256 0
 1333              		.thumb
 1334              		.syntax unified
 1335 0080 FFF7FEFF 		bl	UART_1_Start
 257:main.c        ****     UART_1_PutString("\r\n=== HamflyAPI  PSoC 5LP ===\r\n");
 1336              		.loc 1 257 0
 1337 0084 BF48     		ldr	r0, .L119
 1338 0086 FFF7FEFF 		bl	UART_1_PutString
 258:main.c        ****     UART_1_PutString("m=ctrl  t=test  l=mode  j=joy  k=kill\r\n");
 1339              		.loc 1 258 0
 1340 008a BF48     		ldr	r0, .L119+4
 1341 008c FFF7FEFF 		bl	UART_1_PutString
 259:main.c        ****     UART_1_PutString("TEST: a=att  g=GPS  b=baro  s=stat  n=mag  t=exit\r\n");
 1342              		.loc 1 259 0
 1343 0090 BE48     		ldr	r0, .L119+8
 1344 0092 FFF7FEFF 		bl	UART_1_PutString
 260:main.c        **** 
 261:main.c        ****     UART_MOVI_Start();
 1345              		.loc 1 261 0
 1346 0096 FFF7FEFF 		bl	UART_MOVI_Start
 262:main.c        ****     UART_MOVI_ClearRxBuffer();
 1347              		.loc 1 262 0
 1348 009a FFF7FEFF 		bl	UART_MOVI_ClearRxBuffer
 263:main.c        ****     UART_MOVI_ClearTxBuffer();
 1349              		.loc 1 263 0
 1350 009e FFF7FEFF 		bl	UART_MOVI_ClearTxBuffer
 264:main.c        **** 
 265:main.c        ****     hamfly_init(&g_gimbal, &HAL);
 1351              		.loc 1 265 0
 1352 00a2 BB49     		ldr	r1, .L119+12
 1353 00a4 BB48     		ldr	r0, .L119+16
 1354 00a6 FFF7FEFF 		bl	hamfly_init
 266:main.c        ****     isr_rx_movi_StartEx(isr_rx_movi_Handler);
ARM GAS  C:\Users\JENNEW~1\AppData\Local\Temp\ccz5kgXS.s 			page 32


 1355              		.loc 1 266 0
 1356 00aa BB48     		ldr	r0, .L119+20
 1357 00ac FFF7FEFF 		bl	isr_rx_movi_StartEx
 267:main.c        **** 
 268:main.c        ****     joystick_init(&defaults, (1u << CH_X));
 1358              		.loc 1 268 0
 1359 00b0 3B1D     		adds	r3, r7, #4
 1360 00b2 0121     		movs	r1, #1
 1361 00b4 1846     		mov	r0, r3
 1362 00b6 FFF7FEFF 		bl	joystick_init
 269:main.c        ****     adc_balanced_init();
 1363              		.loc 1 269 0
 1364 00ba FFF7FEFF 		bl	adc_balanced_init
 270:main.c        **** 
 271:main.c        ****     Looptimer_Start();
 1365              		.loc 1 271 0
 1366 00be FFF7FEFF 		bl	Looptimer_Start
 272:main.c        ****     isr_Looptimer_StartEx(isr_Looptimer_Handler);
 1367              		.loc 1 272 0
 1368 00c2 B648     		ldr	r0, .L119+24
 1369 00c4 FFF7FEFF 		bl	isr_Looptimer_StartEx
 273:main.c        **** 
 274:main.c        ****     UART_1_PutString("[Init] Ready\r\n");
 1370              		.loc 1 274 0
 1371 00c8 B548     		ldr	r0, .L119+28
 1372 00ca FFF7FEFF 		bl	UART_1_PutString
 1373              	.L117:
 1374              	.LBB13:
 275:main.c        **** 
 276:main.c        ****     /* ------------------------------------------------------------------
 277:main.c        ****      * Main loop
 278:main.c        ****      * ------------------------------------------------------------------ */
 279:main.c        ****     for (;;)
 280:main.c        ****     {
 281:main.c        ****         /* ----------------------------------------------------------------
 282:main.c        ****          * CLI
 283:main.c        ****          * ---------------------------------------------------------------- */
 284:main.c        ****         uint8_t ch = (uint8_t)UART_1_GetChar();
 1375              		.loc 1 284 0
 1376 00ce FFF7FEFF 		bl	UART_1_GetChar
 1377 00d2 0346     		mov	r3, r0
 1378 00d4 87F8DB30 		strb	r3, [r7, #219]
 285:main.c        **** 
 286:main.c        ****         if (app_mode == MODE_STANDBY || app_mode == MODE_CONTROL)
 1379              		.loc 1 286 0
 1380 00d8 97F8E730 		ldrb	r3, [r7, #231]	@ zero_extendqisi2
 1381 00dc 002B     		cmp	r3, #0
 1382 00de 04D0     		beq	.L76
 1383              		.loc 1 286 0 is_stmt 0 discriminator 1
 1384 00e0 97F8E730 		ldrb	r3, [r7, #231]	@ zero_extendqisi2
 1385 00e4 012B     		cmp	r3, #1
 1386 00e6 40F09080 		bne	.L77
 1387              	.L76:
 287:main.c        ****         {
 288:main.c        ****             if (ch == 'm' || ch == 'M') {
 1388              		.loc 1 288 0 is_stmt 1
 1389 00ea 97F8DB30 		ldrb	r3, [r7, #219]	@ zero_extendqisi2
ARM GAS  C:\Users\JENNEW~1\AppData\Local\Temp\ccz5kgXS.s 			page 33


 1390 00ee 6D2B     		cmp	r3, #109
 1391 00f0 03D0     		beq	.L78
 1392              		.loc 1 288 0 is_stmt 0 discriminator 1
 1393 00f2 97F8DB30 		ldrb	r3, [r7, #219]	@ zero_extendqisi2
 1394 00f6 4D2B     		cmp	r3, #77
 1395 00f8 11D1     		bne	.L79
 1396              	.L78:
 289:main.c        ****                 if (app_mode == MODE_STANDBY) {
 1397              		.loc 1 289 0 is_stmt 1
 1398 00fa 97F8E730 		ldrb	r3, [r7, #231]	@ zero_extendqisi2
 1399 00fe 002B     		cmp	r3, #0
 1400 0100 06D1     		bne	.L80
 290:main.c        ****                     app_mode = MODE_CONTROL;
 1401              		.loc 1 290 0
 1402 0102 0123     		movs	r3, #1
 1403 0104 87F8E730 		strb	r3, [r7, #231]
 291:main.c        ****                     UART_1_PutString("[CLI] CONTROL\r\n");
 1404              		.loc 1 291 0
 1405 0108 A648     		ldr	r0, .L119+32
 1406 010a FFF7FEFF 		bl	UART_1_PutString
 289:main.c        ****                 if (app_mode == MODE_STANDBY) {
 1407              		.loc 1 289 0
 1408 010e 7BE0     		b	.L82
 1409              	.L80:
 292:main.c        ****                 } else {
 293:main.c        ****                     app_mode = MODE_STANDBY;
 1410              		.loc 1 293 0
 1411 0110 0023     		movs	r3, #0
 1412 0112 87F8E730 		strb	r3, [r7, #231]
 294:main.c        ****                     UART_1_PutString("[CLI] STANDBY\r\n");
 1413              		.loc 1 294 0
 1414 0116 A448     		ldr	r0, .L119+36
 1415 0118 FFF7FEFF 		bl	UART_1_PutString
 289:main.c        ****                     app_mode = MODE_CONTROL;
 1416              		.loc 1 289 0
 1417 011c 74E0     		b	.L82
 1418              	.L79:
 295:main.c        ****                 }
 296:main.c        ****             }
 297:main.c        ****             else if (ch == 't' || ch == 'T') {
 1419              		.loc 1 297 0
 1420 011e 97F8DB30 		ldrb	r3, [r7, #219]	@ zero_extendqisi2
 1421 0122 742B     		cmp	r3, #116
 1422 0124 03D0     		beq	.L83
 1423              		.loc 1 297 0 is_stmt 0 discriminator 1
 1424 0126 97F8DB30 		ldrb	r3, [r7, #219]	@ zero_extendqisi2
 1425 012a 542B     		cmp	r3, #84
 1426 012c 0AD1     		bne	.L84
 1427              	.L83:
 298:main.c        ****                 if (app_mode == MODE_STANDBY) {
 1428              		.loc 1 298 0 is_stmt 1
 1429 012e 97F8E730 		ldrb	r3, [r7, #231]	@ zero_extendqisi2
 1430 0132 002B     		cmp	r3, #0
 1431 0134 68D1     		bne	.L82
 299:main.c        ****                     app_mode = MODE_TEST;
 1432              		.loc 1 299 0
 1433 0136 0223     		movs	r3, #2
ARM GAS  C:\Users\JENNEW~1\AppData\Local\Temp\ccz5kgXS.s 			page 34


 1434 0138 87F8E730 		strb	r3, [r7, #231]
 300:main.c        ****                     UART_1_PutString("[CLI] TEST  a/g/b/s/n to query  t=exit\r\n");
 1435              		.loc 1 300 0
 1436 013c 9B48     		ldr	r0, .L119+40
 1437 013e FFF7FEFF 		bl	UART_1_PutString
 298:main.c        ****                 if (app_mode == MODE_STANDBY) {
 1438              		.loc 1 298 0
 1439 0142 61E0     		b	.L82
 1440              	.L84:
 301:main.c        ****                 }
 302:main.c        ****             }
 303:main.c        ****             else if (ch == 'l' || ch == 'L') {
 1441              		.loc 1 303 0
 1442 0144 97F8DB30 		ldrb	r3, [r7, #219]	@ zero_extendqisi2
 1443 0148 6C2B     		cmp	r3, #108
 1444 014a 03D0     		beq	.L86
 1445              		.loc 1 303 0 is_stmt 0 discriminator 1
 1446 014c 97F8DB30 		ldrb	r3, [r7, #219]	@ zero_extendqisi2
 1447 0150 4C2B     		cmp	r3, #76
 1448 0152 24D1     		bne	.L87
 1449              	.L86:
 304:main.c        ****                 if      (ctrl_mode == HAMFLY_DEFER)    ctrl_mode = HAMFLY_RATE;
 1450              		.loc 1 304 0 is_stmt 1
 1451 0154 97F8E630 		ldrb	r3, [r7, #230]	@ zero_extendqisi2
 1452 0158 002B     		cmp	r3, #0
 1453 015a 03D1     		bne	.L88
 1454              		.loc 1 304 0 is_stmt 0 discriminator 1
 1455 015c 0123     		movs	r3, #1
 1456 015e 87F8E630 		strb	r3, [r7, #230]
 1457 0162 0AE0     		b	.L89
 1458              	.L88:
 305:main.c        ****                 else if (ctrl_mode == HAMFLY_RATE)     ctrl_mode = HAMFLY_ABSOLUTE;
 1459              		.loc 1 305 0 is_stmt 1
 1460 0164 97F8E630 		ldrb	r3, [r7, #230]	@ zero_extendqisi2
 1461 0168 012B     		cmp	r3, #1
 1462 016a 03D1     		bne	.L90
 1463              		.loc 1 305 0 is_stmt 0 discriminator 1
 1464 016c 0223     		movs	r3, #2
 1465 016e 87F8E630 		strb	r3, [r7, #230]
 1466 0172 02E0     		b	.L89
 1467              	.L90:
 306:main.c        ****                 else                                    ctrl_mode = HAMFLY_DEFER;
 1468              		.loc 1 306 0 is_stmt 1
 1469 0174 0023     		movs	r3, #0
 1470 0176 87F8E630 		strb	r3, [r7, #230]
 1471              	.L89:
 307:main.c        ****                 sprintf(tx, "[CLI] Mode: %s\r\n", mode_str(ctrl_mode));
 1472              		.loc 1 307 0
 1473 017a 97F8E630 		ldrb	r3, [r7, #230]	@ zero_extendqisi2
 1474 017e 1846     		mov	r0, r3
 1475 0180 FFF7FEFF 		bl	mode_str
 1476 0184 0246     		mov	r2, r0
 1477 0186 07F13403 		add	r3, r7, #52
 1478 018a 8949     		ldr	r1, .L119+44
 1479 018c 1846     		mov	r0, r3
 1480 018e FFF7FEFF 		bl	sprintf
 308:main.c        ****                 UART_1_PutString(tx);
ARM GAS  C:\Users\JENNEW~1\AppData\Local\Temp\ccz5kgXS.s 			page 35


 1481              		.loc 1 308 0
 1482 0192 07F13403 		add	r3, r7, #52
 1483 0196 1846     		mov	r0, r3
 1484 0198 FFF7FEFF 		bl	UART_1_PutString
 1485 019c 34E0     		b	.L82
 1486              	.L87:
 309:main.c        ****             }
 310:main.c        ****             else if (ch == 'j' || ch == 'J') {
 1487              		.loc 1 310 0
 1488 019e 97F8DB30 		ldrb	r3, [r7, #219]	@ zero_extendqisi2
 1489 01a2 6A2B     		cmp	r3, #106
 1490 01a4 03D0     		beq	.L91
 1491              		.loc 1 310 0 is_stmt 0 discriminator 1
 1492 01a6 97F8DB30 		ldrb	r3, [r7, #219]	@ zero_extendqisi2
 1493 01aa 4A2B     		cmp	r3, #74
 1494 01ac 13D1     		bne	.L92
 1495              	.L91:
 311:main.c        ****                 joystick_active = !joystick_active;
 1496              		.loc 1 311 0 is_stmt 1
 1497 01ae 97F8E530 		ldrb	r3, [r7, #229]	@ zero_extendqisi2
 1498 01b2 002B     		cmp	r3, #0
 1499 01b4 0CBF     		ite	eq
 1500 01b6 0123     		moveq	r3, #1
 1501 01b8 0023     		movne	r3, #0
 1502 01ba DBB2     		uxtb	r3, r3
 1503 01bc 87F8E530 		strb	r3, [r7, #229]
 312:main.c        ****                 UART_1_PutString(joystick_active ? "[CLI] Joystick ON\r\n"
 1504              		.loc 1 312 0
 1505 01c0 97F8E530 		ldrb	r3, [r7, #229]	@ zero_extendqisi2
 1506 01c4 002B     		cmp	r3, #0
 1507 01c6 01D0     		beq	.L93
 1508              		.loc 1 312 0 is_stmt 0 discriminator 1
 1509 01c8 7A4B     		ldr	r3, .L119+48
 1510 01ca 00E0     		b	.L94
 1511              	.L93:
 1512              		.loc 1 312 0 discriminator 2
 1513 01cc 7A4B     		ldr	r3, .L119+52
 1514              	.L94:
 1515              		.loc 1 312 0 discriminator 4
 1516 01ce 1846     		mov	r0, r3
 1517 01d0 FFF7FEFF 		bl	UART_1_PutString
 1518 01d4 18E0     		b	.L82
 1519              	.L92:
 313:main.c        ****                                                  : "[CLI] Joystick OFF\r\n");
 314:main.c        ****             }
 315:main.c        ****             else if (ch == 'k' || ch == 'K') {
 1520              		.loc 1 315 0 is_stmt 1
 1521 01d6 97F8DB30 		ldrb	r3, [r7, #219]	@ zero_extendqisi2
 1522 01da 6B2B     		cmp	r3, #107
 1523 01dc 04D0     		beq	.L95
 1524              		.loc 1 315 0 is_stmt 0 discriminator 1
 1525 01de 97F8DB30 		ldrb	r3, [r7, #219]	@ zero_extendqisi2
 1526 01e2 4B2B     		cmp	r3, #75
 1527 01e4 40F0A180 		bne	.L118
 1528              	.L95:
 316:main.c        ****                 hamfly_kill(&g_gimbal);
 1529              		.loc 1 316 0 is_stmt 1
ARM GAS  C:\Users\JENNEW~1\AppData\Local\Temp\ccz5kgXS.s 			page 36


 1530 01e8 6A48     		ldr	r0, .L119+16
 1531 01ea FFF7FEFF 		bl	hamfly_kill
 317:main.c        ****                 app_mode       = MODE_STANDBY;
 1532              		.loc 1 317 0
 1533 01ee 0023     		movs	r3, #0
 1534 01f0 87F8E730 		strb	r3, [r7, #231]
 318:main.c        ****                 joystick_active = 0u;
 1535              		.loc 1 318 0
 1536 01f4 0023     		movs	r3, #0
 1537 01f6 87F8E530 		strb	r3, [r7, #229]
 319:main.c        ****                 ctrl_mode      = HAMFLY_DEFER;
 1538              		.loc 1 319 0
 1539 01fa 0023     		movs	r3, #0
 1540 01fc 87F8E630 		strb	r3, [r7, #230]
 320:main.c        ****                 UART_1_PutString("[CLI] Kill sent -> STANDBY\r\n");
 1541              		.loc 1 320 0
 1542 0200 6E48     		ldr	r0, .L119+56
 1543 0202 FFF7FEFF 		bl	UART_1_PutString
 288:main.c        ****                 if (app_mode == MODE_STANDBY) {
 1544              		.loc 1 288 0
 1545 0206 90E0     		b	.L118
 1546              	.L82:
 288:main.c        ****                 if (app_mode == MODE_STANDBY) {
 1547              		.loc 1 288 0 is_stmt 0 discriminator 1
 1548 0208 8FE0     		b	.L118
 1549              	.L77:
 321:main.c        ****             }
 322:main.c        ****         }
 323:main.c        ****         else if (app_mode == MODE_TEST)
 1550              		.loc 1 323 0 is_stmt 1
 1551 020a 97F8E730 		ldrb	r3, [r7, #231]	@ zero_extendqisi2
 1552 020e 022B     		cmp	r3, #2
 1553 0210 40F08C80 		bne	.L96
 1554              	.LBB14:
 324:main.c        ****         {
 325:main.c        ****             uint16_t req_attr = 0u;
 1555              		.loc 1 325 0
 1556 0214 0023     		movs	r3, #0
 1557 0216 A7F8DC30 		strh	r3, [r7, #220]	@ movhi
 326:main.c        **** 
 327:main.c        ****             if      (ch == 'a' || ch == 'A') { req_attr = 22u;  UART_1_PutString("[TEST] attr 22 (E
 1558              		.loc 1 327 0
 1559 021a 97F8DB30 		ldrb	r3, [r7, #219]	@ zero_extendqisi2
 1560 021e 612B     		cmp	r3, #97
 1561 0220 03D0     		beq	.L97
 1562              		.loc 1 327 0 is_stmt 0 discriminator 2
 1563 0222 97F8DB30 		ldrb	r3, [r7, #219]	@ zero_extendqisi2
 1564 0226 412B     		cmp	r3, #65
 1565 0228 06D1     		bne	.L98
 1566              	.L97:
 1567              		.loc 1 327 0 discriminator 3
 1568 022a 1623     		movs	r3, #22
 1569 022c A7F8DC30 		strh	r3, [r7, #220]	@ movhi
 1570 0230 6348     		ldr	r0, .L119+60
 1571 0232 FFF7FEFF 		bl	UART_1_PutString
 1572 0236 63E0     		b	.L99
 1573              	.L98:
ARM GAS  C:\Users\JENNEW~1\AppData\Local\Temp\ccz5kgXS.s 			page 37


 328:main.c        ****             else if (ch == 'g' || ch == 'G') { req_attr = 4u;   UART_1_PutString("[TEST] attr 4  (G
 1574              		.loc 1 328 0 is_stmt 1
 1575 0238 97F8DB30 		ldrb	r3, [r7, #219]	@ zero_extendqisi2
 1576 023c 672B     		cmp	r3, #103
 1577 023e 03D0     		beq	.L100
 1578              		.loc 1 328 0 is_stmt 0 discriminator 2
 1579 0240 97F8DB30 		ldrb	r3, [r7, #219]	@ zero_extendqisi2
 1580 0244 472B     		cmp	r3, #71
 1581 0246 06D1     		bne	.L101
 1582              	.L100:
 1583              		.loc 1 328 0 discriminator 3
 1584 0248 0423     		movs	r3, #4
 1585 024a A7F8DC30 		strh	r3, [r7, #220]	@ movhi
 1586 024e 5D48     		ldr	r0, .L119+64
 1587 0250 FFF7FEFF 		bl	UART_1_PutString
 1588 0254 54E0     		b	.L99
 1589              	.L101:
 329:main.c        ****             else if (ch == 'b' || ch == 'B') { req_attr = 3u;   UART_1_PutString("[TEST] attr 3  (b
 1590              		.loc 1 329 0 is_stmt 1
 1591 0256 97F8DB30 		ldrb	r3, [r7, #219]	@ zero_extendqisi2
 1592 025a 622B     		cmp	r3, #98
 1593 025c 03D0     		beq	.L102
 1594              		.loc 1 329 0 is_stmt 0 discriminator 2
 1595 025e 97F8DB30 		ldrb	r3, [r7, #219]	@ zero_extendqisi2
 1596 0262 422B     		cmp	r3, #66
 1597 0264 06D1     		bne	.L103
 1598              	.L102:
 1599              		.loc 1 329 0 discriminator 3
 1600 0266 0323     		movs	r3, #3
 1601 0268 A7F8DC30 		strh	r3, [r7, #220]	@ movhi
 1602 026c 5648     		ldr	r0, .L119+68
 1603 026e FFF7FEFF 		bl	UART_1_PutString
 1604 0272 45E0     		b	.L99
 1605              	.L103:
 330:main.c        ****             else if (ch == 's' || ch == 'S') { req_attr = 1u;   UART_1_PutString("[TEST] attr 1  (s
 1606              		.loc 1 330 0 is_stmt 1
 1607 0274 97F8DB30 		ldrb	r3, [r7, #219]	@ zero_extendqisi2
 1608 0278 732B     		cmp	r3, #115
 1609 027a 03D0     		beq	.L104
 1610              		.loc 1 330 0 is_stmt 0 discriminator 2
 1611 027c 97F8DB30 		ldrb	r3, [r7, #219]	@ zero_extendqisi2
 1612 0280 532B     		cmp	r3, #83
 1613 0282 06D1     		bne	.L105
 1614              	.L104:
 1615              		.loc 1 330 0 discriminator 3
 1616 0284 0123     		movs	r3, #1
 1617 0286 A7F8DC30 		strh	r3, [r7, #220]	@ movhi
 1618 028a 5048     		ldr	r0, .L119+72
 1619 028c FFF7FEFF 		bl	UART_1_PutString
 1620 0290 36E0     		b	.L99
 1621              	.L105:
 331:main.c        ****             else if (ch == 'n' || ch == 'N') { req_attr = 12u;  UART_1_PutString("[TEST] attr 12 (m
 1622              		.loc 1 331 0 is_stmt 1
 1623 0292 97F8DB30 		ldrb	r3, [r7, #219]	@ zero_extendqisi2
 1624 0296 6E2B     		cmp	r3, #110
 1625 0298 03D0     		beq	.L106
 1626              		.loc 1 331 0 is_stmt 0 discriminator 2
ARM GAS  C:\Users\JENNEW~1\AppData\Local\Temp\ccz5kgXS.s 			page 38


 1627 029a 97F8DB30 		ldrb	r3, [r7, #219]	@ zero_extendqisi2
 1628 029e 4E2B     		cmp	r3, #78
 1629 02a0 06D1     		bne	.L107
 1630              	.L106:
 1631              		.loc 1 331 0 discriminator 3
 1632 02a2 0C23     		movs	r3, #12
 1633 02a4 A7F8DC30 		strh	r3, [r7, #220]	@ movhi
 1634 02a8 4948     		ldr	r0, .L119+76
 1635 02aa FFF7FEFF 		bl	UART_1_PutString
 1636 02ae 27E0     		b	.L99
 1637              	.L107:
 332:main.c        ****             else if (ch == 't' || ch == 'T') {
 1638              		.loc 1 332 0 is_stmt 1
 1639 02b0 97F8DB30 		ldrb	r3, [r7, #219]	@ zero_extendqisi2
 1640 02b4 742B     		cmp	r3, #116
 1641 02b6 03D0     		beq	.L108
 1642              		.loc 1 332 0 is_stmt 0 discriminator 1
 1643 02b8 97F8DB30 		ldrb	r3, [r7, #219]	@ zero_extendqisi2
 1644 02bc 542B     		cmp	r3, #84
 1645 02be 0ED1     		bne	.L109
 1646              	.L108:
 333:main.c        ****                 g_gimbal.pending_attr  = 0u;
 1647              		.loc 1 333 0 is_stmt 1
 1648 02c0 344B     		ldr	r3, .L119+16
 1649 02c2 0022     		movs	r2, #0
 1650 02c4 A3F85A22 		strh	r2, [r3, #602]	@ movhi
 334:main.c        ****                 g_gimbal.pending_ready = false;
 1651              		.loc 1 334 0
 1652 02c8 324B     		ldr	r3, .L119+16
 1653 02ca 0022     		movs	r2, #0
 1654 02cc 83F86022 		strb	r2, [r3, #608]
 335:main.c        ****                 app_mode = MODE_STANDBY;
 1655              		.loc 1 335 0
 1656 02d0 0023     		movs	r3, #0
 1657 02d2 87F8E730 		strb	r3, [r7, #231]
 336:main.c        ****                 UART_1_PutString("[TEST] -> STANDBY\r\n");
 1658              		.loc 1 336 0
 1659 02d6 3F48     		ldr	r0, .L119+80
 1660 02d8 FFF7FEFF 		bl	UART_1_PutString
 1661 02dc 10E0     		b	.L99
 1662              	.L109:
 337:main.c        ****             }
 338:main.c        ****             else if (ch == 'k' || ch == 'K') {
 1663              		.loc 1 338 0
 1664 02de 97F8DB30 		ldrb	r3, [r7, #219]	@ zero_extendqisi2
 1665 02e2 6B2B     		cmp	r3, #107
 1666 02e4 03D0     		beq	.L110
 1667              		.loc 1 338 0 is_stmt 0 discriminator 1
 1668 02e6 97F8DB30 		ldrb	r3, [r7, #219]	@ zero_extendqisi2
 1669 02ea 4B2B     		cmp	r3, #75
 1670 02ec 08D1     		bne	.L99
 1671              	.L110:
 339:main.c        ****                 hamfly_kill(&g_gimbal);
 1672              		.loc 1 339 0 is_stmt 1
 1673 02ee 2948     		ldr	r0, .L119+16
 1674 02f0 FFF7FEFF 		bl	hamfly_kill
 340:main.c        ****                 app_mode = MODE_STANDBY;
ARM GAS  C:\Users\JENNEW~1\AppData\Local\Temp\ccz5kgXS.s 			page 39


 1675              		.loc 1 340 0
 1676 02f4 0023     		movs	r3, #0
 1677 02f6 87F8E730 		strb	r3, [r7, #231]
 341:main.c        ****                 UART_1_PutString("[TEST] Kill -> STANDBY\r\n");
 1678              		.loc 1 341 0
 1679 02fa 3748     		ldr	r0, .L119+84
 1680 02fc FFF7FEFF 		bl	UART_1_PutString
 1681              	.L99:
 342:main.c        ****             }
 343:main.c        **** 
 344:main.c        ****             if (req_attr != 0u && g_gimbal.pending_attr == 0u) {
 1682              		.loc 1 344 0
 1683 0300 B7F8DC30 		ldrh	r3, [r7, #220]
 1684 0304 002B     		cmp	r3, #0
 1685 0306 11D0     		beq	.L96
 1686              		.loc 1 344 0 is_stmt 0 discriminator 1
 1687 0308 224B     		ldr	r3, .L119+16
 1688 030a B3F85A32 		ldrh	r3, [r3, #602]
 1689 030e 002B     		cmp	r3, #0
 1690 0310 0CD1     		bne	.L96
 345:main.c        ****                 hamfly_request_attr(&g_gimbal, req_attr);
 1691              		.loc 1 345 0 is_stmt 1
 1692 0312 B7F8DC30 		ldrh	r3, [r7, #220]
 1693 0316 1946     		mov	r1, r3
 1694 0318 1E48     		ldr	r0, .L119+16
 1695 031a FFF7FEFF 		bl	hamfly_request_attr
 346:main.c        ****                 g_gimbal.pending_sent_ms = g_tick_ms;
 1696              		.loc 1 346 0
 1697 031e 2F4B     		ldr	r3, .L119+88
 1698 0320 1B68     		ldr	r3, [r3]
 1699 0322 1C4A     		ldr	r2, .L119+16
 1700 0324 C2F85C32 		str	r3, [r2, #604]
 1701 0328 00E0     		b	.L96
 1702              	.L118:
 1703              	.LBE14:
 288:main.c        ****                 if (app_mode == MODE_STANDBY) {
 1704              		.loc 1 288 0
 1705 032a 00BF     		nop
 1706              	.L96:
 347:main.c        ****             }
 348:main.c        ****         }
 349:main.c        **** 
 350:main.c        ****         /* ----------------------------------------------------------------
 351:main.c        ****          * Pump RX (always)
 352:main.c        ****          * ---------------------------------------------------------------- */
 353:main.c        ****         hamfly_pump(&g_gimbal);
 1707              		.loc 1 353 0
 1708 032c 1948     		ldr	r0, .L119+16
 1709 032e FFF7FEFF 		bl	hamfly_pump
 354:main.c        **** 
 355:main.c        ****         /* ----------------------------------------------------------------
 356:main.c        ****          * TEST: response or timeout
 357:main.c        ****          * ---------------------------------------------------------------- */
 358:main.c        ****         if (app_mode == MODE_TEST)
 1710              		.loc 1 358 0
 1711 0332 97F8E730 		ldrb	r3, [r7, #231]	@ zero_extendqisi2
 1712 0336 022B     		cmp	r3, #2
ARM GAS  C:\Users\JENNEW~1\AppData\Local\Temp\ccz5kgXS.s 			page 40


 1713 0338 75D1     		bne	.L111
 359:main.c        ****         {
 360:main.c        ****             if (g_gimbal.pending_ready) {
 1714              		.loc 1 360 0
 1715 033a 164B     		ldr	r3, .L119+16
 1716 033c 93F86032 		ldrb	r3, [r3, #608]	@ zero_extendqisi2
 1717 0340 002B     		cmp	r3, #0
 1718 0342 4FD0     		beq	.L112
 1719              	.LBB15:
 361:main.c        ****                 uint32_t dt = g_tick_ms - g_gimbal.pending_sent_ms;
 1720              		.loc 1 361 0
 1721 0344 254B     		ldr	r3, .L119+88
 1722 0346 1A68     		ldr	r2, [r3]
 1723 0348 124B     		ldr	r3, .L119+16
 1724 034a D3F85C32 		ldr	r3, [r3, #604]
 1725 034e D31A     		subs	r3, r2, r3
 1726 0350 C7F8D430 		str	r3, [r7, #212]
 362:main.c        ****                 sprintf(tx, "  dt=%lums\r\n", (unsigned long)dt);
 1727              		.loc 1 362 0
 1728 0354 07F13403 		add	r3, r7, #52
 1729 0358 D7F8D420 		ldr	r2, [r7, #212]
 1730 035c 2049     		ldr	r1, .L119+92
 1731 035e 1846     		mov	r0, r3
 1732 0360 FFF7FEFF 		bl	sprintf
 363:main.c        ****                 UART_1_PutString(tx);
 1733              		.loc 1 363 0
 1734 0364 07F13403 		add	r3, r7, #52
 1735 0368 1846     		mov	r0, r3
 1736 036a FFF7FEFF 		bl	UART_1_PutString
 364:main.c        ****                 print_response();
 1737              		.loc 1 364 0
 1738 036e FFF7FEFF 		bl	print_response
 365:main.c        ****                 g_gimbal.pending_ready = false;
 1739              		.loc 1 365 0
 1740 0372 084B     		ldr	r3, .L119+16
 1741 0374 0022     		movs	r2, #0
 1742 0376 83F86022 		strb	r2, [r3, #608]
 366:main.c        ****                 g_gimbal.pending_attr  = 0u;
 1743              		.loc 1 366 0
 1744 037a 064B     		ldr	r3, .L119+16
 1745 037c 0022     		movs	r2, #0
 1746 037e A3F85A22 		strh	r2, [r3, #602]	@ movhi
 1747              	.LBE15:
 1748 0382 50E0     		b	.L111
 1749              	.L120:
 1750              		.align	2
 1751              	.L119:
 1752 0384 5C010000 		.word	.LC16
 1753 0388 7C010000 		.word	.LC17
 1754 038c A4010000 		.word	.LC18
 1755 0390 00000000 		.word	HAL
 1756 0394 00000000 		.word	g_gimbal
 1757 0398 00000000 		.word	isr_rx_movi_Handler
 1758 039c 00000000 		.word	isr_Looptimer_Handler
 1759 03a0 D8010000 		.word	.LC19
 1760 03a4 E8010000 		.word	.LC20
 1761 03a8 F8010000 		.word	.LC21
ARM GAS  C:\Users\JENNEW~1\AppData\Local\Temp\ccz5kgXS.s 			page 41


 1762 03ac 08020000 		.word	.LC22
 1763 03b0 34020000 		.word	.LC23
 1764 03b4 48020000 		.word	.LC24
 1765 03b8 5C020000 		.word	.LC25
 1766 03bc 74020000 		.word	.LC26
 1767 03c0 94020000 		.word	.LC27
 1768 03c4 B0020000 		.word	.LC28
 1769 03c8 CC020000 		.word	.LC29
 1770 03cc E8020000 		.word	.LC30
 1771 03d0 08030000 		.word	.LC31
 1772 03d4 24030000 		.word	.LC32
 1773 03d8 38030000 		.word	.LC33
 1774 03dc 00000000 		.word	g_tick_ms
 1775 03e0 54030000 		.word	.LC34
 1776              	.L112:
 367:main.c        ****             }
 368:main.c        ****             else if (g_gimbal.pending_attr != 0u &&
 1777              		.loc 1 368 0
 1778 03e4 3F4B     		ldr	r3, .L121
 1779 03e6 B3F85A32 		ldrh	r3, [r3, #602]
 1780 03ea 002B     		cmp	r3, #0
 1781 03ec 1BD0     		beq	.L111
 369:main.c        ****                      (g_tick_ms - g_gimbal.pending_sent_ms) >= TEST_TIMEOUT_MS) {
 1782              		.loc 1 369 0 discriminator 1
 1783 03ee 3E4B     		ldr	r3, .L121+4
 1784 03f0 1A68     		ldr	r2, [r3]
 1785 03f2 3C4B     		ldr	r3, .L121
 1786 03f4 D3F85C32 		ldr	r3, [r3, #604]
 1787 03f8 D31A     		subs	r3, r2, r3
 368:main.c        ****                      (g_tick_ms - g_gimbal.pending_sent_ms) >= TEST_TIMEOUT_MS) {
 1788              		.loc 1 368 0 discriminator 1
 1789 03fa B3F5FA6F 		cmp	r3, #2000
 1790 03fe 12D3     		bcc	.L111
 370:main.c        ****                 sprintf(tx, "[TEST] TIMEOUT attr=%u\r\n",
 371:main.c        ****                         (unsigned)g_gimbal.pending_attr);
 1791              		.loc 1 371 0
 1792 0400 384B     		ldr	r3, .L121
 1793 0402 B3F85A32 		ldrh	r3, [r3, #602]
 370:main.c        ****                 sprintf(tx, "[TEST] TIMEOUT attr=%u\r\n",
 1794              		.loc 1 370 0
 1795 0406 1A46     		mov	r2, r3
 1796 0408 07F13403 		add	r3, r7, #52
 1797 040c 3749     		ldr	r1, .L121+8
 1798 040e 1846     		mov	r0, r3
 1799 0410 FFF7FEFF 		bl	sprintf
 372:main.c        ****                 UART_1_PutString(tx);
 1800              		.loc 1 372 0
 1801 0414 07F13403 		add	r3, r7, #52
 1802 0418 1846     		mov	r0, r3
 1803 041a FFF7FEFF 		bl	UART_1_PutString
 373:main.c        ****                 g_gimbal.pending_attr = 0u;
 1804              		.loc 1 373 0
 1805 041e 314B     		ldr	r3, .L121
 1806 0420 0022     		movs	r2, #0
 1807 0422 A3F85A22 		strh	r2, [r3, #602]	@ movhi
 1808              	.L111:
 374:main.c        ****             }
ARM GAS  C:\Users\JENNEW~1\AppData\Local\Temp\ccz5kgXS.s 			page 42


 375:main.c        ****         }
 376:main.c        **** 
 377:main.c        ****         /* ----------------------------------------------------------------
 378:main.c        ****          * Joystick ADC
 379:main.c        ****          * ---------------------------------------------------------------- */
 380:main.c        ****         if (adc_balanced_poll_frame(counts)) {
 1809              		.loc 1 380 0
 1810 0426 07F11C03 		add	r3, r7, #28
 1811 042a 1846     		mov	r0, r3
 1812 042c FFF7FEFF 		bl	adc_balanced_poll_frame
 1813 0430 0346     		mov	r3, r0
 1814 0432 002B     		cmp	r3, #0
 1815 0434 09D0     		beq	.L113
 381:main.c        ****             joystick_on_sample(counts);
 1816              		.loc 1 381 0
 1817 0436 07F11C03 		add	r3, r7, #28
 1818 043a 1846     		mov	r0, r3
 1819 043c FFF7FEFF 		bl	joystick_on_sample
 382:main.c        ****             joystick_get_cmd(&cmd);
 1820              		.loc 1 382 0
 1821 0440 07F11403 		add	r3, r7, #20
 1822 0444 1846     		mov	r0, r3
 1823 0446 FFF7FEFF 		bl	joystick_get_cmd
 1824              	.L113:
 383:main.c        ****         }
 384:main.c        **** 
 385:main.c        ****         /* ----------------------------------------------------------------
 386:main.c        ****          * Build control
 387:main.c        ****          * ---------------------------------------------------------------- */
 388:main.c        ****         if (joystick_active && joystick_cal_state() == JOY_CAL_OFF) {
 1825              		.loc 1 388 0
 1826 044a 97F8E530 		ldrb	r3, [r7, #229]	@ zero_extendqisi2
 1827 044e 002B     		cmp	r3, #0
 1828 0450 19D0     		beq	.L114
 1829              		.loc 1 388 0 is_stmt 0 discriminator 1
 1830 0452 FFF7FEFF 		bl	joystick_cal_state
 1831 0456 0346     		mov	r3, r0
 1832 0458 002B     		cmp	r3, #0
 1833 045a 14D1     		bne	.L114
 389:main.c        ****             ctl.pan_mode  = ctrl_mode;
 1834              		.loc 1 389 0 is_stmt 1
 1835 045c 97F8E630 		ldrb	r3, [r7, #230]
 1836 0460 87F82C30 		strb	r3, [r7, #44]
 390:main.c        ****             ctl.tilt_mode = ctrl_mode;
 1837              		.loc 1 390 0
 1838 0464 97F8E630 		ldrb	r3, [r7, #230]
 1839 0468 87F82D30 		strb	r3, [r7, #45]
 391:main.c        ****             ctl.roll_mode = HAMFLY_DEFER;
 1840              		.loc 1 391 0
 1841 046c 0023     		movs	r3, #0
 1842 046e 87F82E30 		strb	r3, [r7, #46]
 392:main.c        ****             ctl.pan  =  cmd.u[CH_X];
 1843              		.loc 1 392 0
 1844 0472 7B69     		ldr	r3, [r7, #20]	@ float
 1845 0474 3B62     		str	r3, [r7, #32]	@ float
 393:main.c        ****             ctl.tilt = -cmd.u[CH_Y];
 1846              		.loc 1 393 0
ARM GAS  C:\Users\JENNEW~1\AppData\Local\Temp\ccz5kgXS.s 			page 43


 1847 0476 BB69     		ldr	r3, [r7, #24]	@ float
 1848 0478 83F00043 		eor	r3, r3, #-2147483648
 1849 047c 7B62     		str	r3, [r7, #36]	@ float
 394:main.c        ****             ctl.roll =  0.0f;
 1850              		.loc 1 394 0
 1851 047e 4FF00003 		mov	r3, #0
 1852 0482 BB62     		str	r3, [r7, #40]	@ float
 1853 0484 0FE0     		b	.L115
 1854              	.L114:
 395:main.c        ****         } else {
 396:main.c        ****             ctl.pan_mode  = HAMFLY_DEFER;
 1855              		.loc 1 396 0
 1856 0486 0023     		movs	r3, #0
 1857 0488 87F82C30 		strb	r3, [r7, #44]
 397:main.c        ****             ctl.tilt_mode = HAMFLY_DEFER;
 1858              		.loc 1 397 0
 1859 048c 0023     		movs	r3, #0
 1860 048e 87F82D30 		strb	r3, [r7, #45]
 398:main.c        ****             ctl.roll_mode = HAMFLY_DEFER;
 1861              		.loc 1 398 0
 1862 0492 0023     		movs	r3, #0
 1863 0494 87F82E30 		strb	r3, [r7, #46]
 399:main.c        ****             ctl.pan = ctl.tilt = ctl.roll = 0.0f;
 1864              		.loc 1 399 0
 1865 0498 4FF00003 		mov	r3, #0
 1866 049c BB62     		str	r3, [r7, #40]	@ float
 1867 049e BB6A     		ldr	r3, [r7, #40]	@ float
 1868 04a0 7B62     		str	r3, [r7, #36]	@ float
 1869 04a2 7B6A     		ldr	r3, [r7, #36]	@ float
 1870 04a4 3B62     		str	r3, [r7, #32]	@ float
 1871              	.L115:
 400:main.c        ****         }
 401:main.c        ****         ctl.enable = 1u;
 1872              		.loc 1 401 0
 1873 04a6 0123     		movs	r3, #1
 1874 04a8 87F82F30 		strb	r3, [r7, #47]
 402:main.c        ****         ctl.kill   = 0u;
 1875              		.loc 1 402 0
 1876 04ac 0023     		movs	r3, #0
 1877 04ae 87F83030 		strb	r3, [r7, #48]
 403:main.c        **** 
 404:main.c        ****         /* ----------------------------------------------------------------
 405:main.c        ****          * TX at 10 Hz (CONTROL mode only)
 406:main.c        ****          * ---------------------------------------------------------------- */
 407:main.c        ****         if (app_mode == MODE_CONTROL &&
 1878              		.loc 1 407 0
 1879 04b2 97F8E730 		ldrb	r3, [r7, #231]	@ zero_extendqisi2
 1880 04b6 012B     		cmp	r3, #1
 1881 04b8 7FF409AE 		bne	.L117
 408:main.c        ****             (g_tick_ms - last_tx_ms) >= CONTROL_PERIOD_MS)
 1882              		.loc 1 408 0 discriminator 1
 1883 04bc 0A4B     		ldr	r3, .L121+4
 1884 04be 1A68     		ldr	r2, [r3]
 1885 04c0 D7F8E030 		ldr	r3, [r7, #224]
 1886 04c4 D31A     		subs	r3, r2, r3
 407:main.c        ****             (g_tick_ms - last_tx_ms) >= CONTROL_PERIOD_MS)
 1887              		.loc 1 407 0 discriminator 1
ARM GAS  C:\Users\JENNEW~1\AppData\Local\Temp\ccz5kgXS.s 			page 44


 1888 04c6 632B     		cmp	r3, #99
 1889 04c8 7FF601AE 		bls	.L117
 409:main.c        ****         {
 410:main.c        ****             last_tx_ms = g_tick_ms;
 1890              		.loc 1 410 0
 1891 04cc 064B     		ldr	r3, .L121+4
 1892 04ce 1B68     		ldr	r3, [r3]
 1893 04d0 C7F8E030 		str	r3, [r7, #224]
 411:main.c        ****             hamfly_send_control(&g_gimbal, &ctl);
 1894              		.loc 1 411 0
 1895 04d4 07F12003 		add	r3, r7, #32
 1896 04d8 1946     		mov	r1, r3
 1897 04da 0248     		ldr	r0, .L121
 1898 04dc FFF7FEFF 		bl	hamfly_send_control
 1899              	.LBE13:
 412:main.c        ****         }
 413:main.c        ****     }
 1900              		.loc 1 413 0
 1901 04e0 F5E5     		b	.L117
 1902              	.L122:
 1903 04e2 00BF     		.align	2
 1904              	.L121:
 1905 04e4 00000000 		.word	g_gimbal
 1906 04e8 00000000 		.word	g_tick_ms
 1907 04ec 64030000 		.word	.LC35
 1908              		.cfi_endproc
 1909              	.LFE71:
 1910              		.size	main, .-main
 1911              		.text
 1912              	.Letext0:
 1913              		.file 2 "c:\\program files (x86)\\cypress\\psoc creator\\4.4\\psoc creator\\import\\gnu\\arm\\5.4.
 1914              		.file 3 "c:\\program files (x86)\\cypress\\psoc creator\\4.4\\psoc creator\\import\\gnu\\arm\\5.4.
 1915              		.file 4 "Generated_Source\\PSoC5/cytypes.h"
 1916              		.file 5 "HamflyAPI/hamfly_core_hal.h"
 1917              		.file 6 "HamflyAPI/hamfly_core_control.h"
 1918              		.file 7 "HamflyAPI/hamfly_core_telemetry.h"
 1919              		.file 8 "HamflyAPI/hamfly_comm_rb.h"
 1920              		.file 9 "HamflyAPI/hamfly_comm_txbuf.h"
 1921              		.file 10 "HamflyAPI/hamfly_core_gimbal.h"
 1922              		.file 11 "joystick.h"
 1923              		.file 12 "Generated_Source\\PSoC5/core_cm3.h"