ARM GAS  C:\Users\hamis\AppData\Local\Temp\ccwLgndb.s 			page 1


   1              		.syntax unified
   2              		.cpu cortex-m3
   3              		.fpu softvfp
   4              		.eabi_attribute 20, 1
   5              		.eabi_attribute 21, 1
   6              		.eabi_attribute 23, 3
   7              		.eabi_attribute 24, 1
   8              		.eabi_attribute 25, 1
   9              		.eabi_attribute 26, 1
  10              		.eabi_attribute 30, 1
  11              		.eabi_attribute 34, 1
  12              		.eabi_attribute 18, 4
  13              		.thumb
  14              		.syntax unified
  15              		.file	"QX_Protocol_App.c"
  16              		.text
  17              	.Ltext0:
  18              		.cfi_sections	.debug_frame
  19              		.section	.text.ff_api_init,"ax",%progbits
  20              		.align	2
  21              		.global	ff_api_init
  22              		.thumb
  23              		.thumb_func
  24              		.type	ff_api_init, %function
  25              	ff_api_init:
  26              	.LFB1:
  27              		.file 1 "..\\..\\FreeflyAPI\\QX_Protocol_App.c"
   1:..\..\FreeflyAPI/QX_Protocol_App.c **** /*-----------------------------------------------------------------
   2:..\..\FreeflyAPI/QX_Protocol_App.c **** 	Copyright 2017 Freefly Systems
   3:..\..\FreeflyAPI/QX_Protocol_App.c **** 
   4:..\..\FreeflyAPI/QX_Protocol_App.c **** 	Licensed under the Apache License, Version 2.0 (the "License");
   5:..\..\FreeflyAPI/QX_Protocol_App.c **** 	you may not use this file except in compliance with the License.
   6:..\..\FreeflyAPI/QX_Protocol_App.c **** 	You may obtain a copy of the License at
   7:..\..\FreeflyAPI/QX_Protocol_App.c **** 
   8:..\..\FreeflyAPI/QX_Protocol_App.c **** 		http://www.apache.org/licenses/LICENSE-2.0
   9:..\..\FreeflyAPI/QX_Protocol_App.c **** 
  10:..\..\FreeflyAPI/QX_Protocol_App.c **** 	Unless required by applicable law or agreed to in writing, software
  11:..\..\FreeflyAPI/QX_Protocol_App.c **** 	distributed under the License is distributed on an "AS IS" BASIS,
  12:..\..\FreeflyAPI/QX_Protocol_App.c **** 	WITHOUT WARRANTIES OR CONDITIONS OF ANY KIND, either express or implied.
  13:..\..\FreeflyAPI/QX_Protocol_App.c **** 	See the License for the specific language governing permissions and
  14:..\..\FreeflyAPI/QX_Protocol_App.c **** 	limitations under the License.
  15:..\..\FreeflyAPI/QX_Protocol_App.c **** 
  16:..\..\FreeflyAPI/QX_Protocol_App.c **** 	Filename: "QX_Protocol_App.c"
  17:..\..\FreeflyAPI/QX_Protocol_App.c **** 	This files contains the parser call back functions are the primary point of exchange of comms and 
  18:..\..\FreeflyAPI/QX_Protocol_App.c **** 	- Server callbacks handle reciving writes and sending current value responses.
  19:..\..\FreeflyAPI/QX_Protocol_App.c **** 	- Client callbacks handle sending writes and recieving current value responses.
  20:..\..\FreeflyAPI/QX_Protocol_App.c **** 	These need to be modifed to fit the application.
  21:..\..\FreeflyAPI/QX_Protocol_App.c **** 		
  22:..\..\FreeflyAPI/QX_Protocol_App.c **** -----------------------------------------------------------------*/
  23:..\..\FreeflyAPI/QX_Protocol_App.c **** 
  24:..\..\FreeflyAPI/QX_Protocol_App.c **** //****************************************************************************
  25:..\..\FreeflyAPI/QX_Protocol_App.c **** // Headers
  26:..\..\FreeflyAPI/QX_Protocol_App.c **** //****************************************************************************
  27:..\..\FreeflyAPI/QX_Protocol_App.c **** // standard headers
  28:..\..\FreeflyAPI/QX_Protocol_App.c **** #include <stdlib.h>
  29:..\..\FreeflyAPI/QX_Protocol_App.c **** #include <stdint.h>		// for Standard Data Types
  30:..\..\FreeflyAPI/QX_Protocol_App.c **** #include <string.h>		// for array and string manipulation
ARM GAS  C:\Users\hamis\AppData\Local\Temp\ccwLgndb.s 			page 2


  31:..\..\FreeflyAPI/QX_Protocol_App.c **** #include <stdio.h>
  32:..\..\FreeflyAPI/QX_Protocol_App.c **** #include <stdbool.h>
  33:..\..\FreeflyAPI/QX_Protocol_App.c **** 
  34:..\..\FreeflyAPI/QX_Protocol_App.c **** // QX Lib headers
  35:..\..\FreeflyAPI/QX_Protocol_App.c **** #include "QX_Protocol.h"
  36:..\..\FreeflyAPI/QX_Protocol_App.c **** #include "QX_Parsing_Functions.h"
  37:..\..\FreeflyAPI/QX_Protocol_App.c **** 
  38:..\..\FreeflyAPI/QX_Protocol_App.c **** // app specific
  39:..\..\FreeflyAPI/QX_Protocol_App.c **** #include "QX_Protocol_App.h"
  40:..\..\FreeflyAPI/QX_Protocol_App.c **** 
  41:..\..\FreeflyAPI/QX_Protocol_App.c **** //****************************************************************************
  42:..\..\FreeflyAPI/QX_Protocol_App.c **** // Public Global Vars
  43:..\..\FreeflyAPI/QX_Protocol_App.c **** //****************************************************************************
  44:..\..\FreeflyAPI/QX_Protocol_App.c **** 
  45:..\..\FreeflyAPI/QX_Protocol_App.c **** // TEST VARS
  46:..\..\FreeflyAPI/QX_Protocol_App.c **** uint8_t TEST_RX[10];
  47:..\..\FreeflyAPI/QX_Protocol_App.c **** uint8_t TEST_TX[10];
  48:..\..\FreeflyAPI/QX_Protocol_App.c **** 
  49:..\..\FreeflyAPI/QX_Protocol_App.c **** 
  50:..\..\FreeflyAPI/QX_Protocol_App.c **** //****************************************************************************
  51:..\..\FreeflyAPI/QX_Protocol_App.c **** // Private Function Protos
  52:..\..\FreeflyAPI/QX_Protocol_App.c **** //****************************************************************************
  53:..\..\FreeflyAPI/QX_Protocol_App.c **** uint8_t *QX_ParsePacket_Cli_MoVI_Ctrl_CB(QX_Msg_t *Msg_p);
  54:..\..\FreeflyAPI/QX_Protocol_App.c **** void ff_api_init(void);
  55:..\..\FreeflyAPI/QX_Protocol_App.c **** void ff_api_send(void);
  56:..\..\FreeflyAPI/QX_Protocol_App.c **** 
  57:..\..\FreeflyAPI/QX_Protocol_App.c **** 
  58:..\..\FreeflyAPI/QX_Protocol_App.c **** //****************************************************************************
  59:..\..\FreeflyAPI/QX_Protocol_App.c **** // Private Global Vars
  60:..\..\FreeflyAPI/QX_Protocol_App.c **** //****************************************************************************
  61:..\..\FreeflyAPI/QX_Protocol_App.c **** 
  62:..\..\FreeflyAPI/QX_Protocol_App.c **** // API object definition and initalization of callback functions. member vars will be intialized in
  63:..\..\FreeflyAPI/QX_Protocol_App.c **** ff_api_t FreeflyAPI = {
  64:..\..\FreeflyAPI/QX_Protocol_App.c ****     .begin = &ff_api_init,
  65:..\..\FreeflyAPI/QX_Protocol_App.c ****     .send = &ff_api_send,
  66:..\..\FreeflyAPI/QX_Protocol_App.c **** 	.control = {0}, 
  67:..\..\FreeflyAPI/QX_Protocol_App.c **** 	.status = {0}
  68:..\..\FreeflyAPI/QX_Protocol_App.c **** };
  69:..\..\FreeflyAPI/QX_Protocol_App.c **** 
  70:..\..\FreeflyAPI/QX_Protocol_App.c **** //****************************************************************************
  71:..\..\FreeflyAPI/QX_Protocol_App.c **** // Functions
  72:..\..\FreeflyAPI/QX_Protocol_App.c **** //****************************************************************************
  73:..\..\FreeflyAPI/QX_Protocol_App.c **** 
  74:..\..\FreeflyAPI/QX_Protocol_App.c **** //----------------------------------------------------------------------------
  75:..\..\FreeflyAPI/QX_Protocol_App.c **** // Default initializer for ff_api
  76:..\..\FreeflyAPI/QX_Protocol_App.c **** void ff_api_init(void)
  77:..\..\FreeflyAPI/QX_Protocol_App.c **** {
  28              		.loc 1 77 0
  29              		.cfi_startproc
  30              		@ args = 0, pretend = 0, frame = 0
  31              		@ frame_needed = 0, uses_anonymous_args = 0
  32 0000 08B5     		push	{r3, lr}
  33              		.cfi_def_cfa_offset 8
  34              		.cfi_offset 3, -8
  35              		.cfi_offset 14, -4
  78:..\..\FreeflyAPI/QX_Protocol_App.c ****     //Initialize Freefly Communications protocol
  79:..\..\FreeflyAPI/QX_Protocol_App.c ****     QX_InitCli(&QX_Clients[0], QX_DEV_ID_MOVI_API_CONTROLLER, QX_ParsePacket_Cli_MoVI_Ctrl_CB);
ARM GAS  C:\Users\hamis\AppData\Local\Temp\ccwLgndb.s 			page 3


  36              		.loc 1 79 0
  37 0002 0F4A     		ldr	r2, .L3
  38 0004 0A21     		movs	r1, #10
  39 0006 0F48     		ldr	r0, .L3+4
  40 0008 FFF7FEFF 		bl	QX_InitCli
  41              	.LVL0:
  80:..\..\FreeflyAPI/QX_Protocol_App.c ****     
  81:..\..\FreeflyAPI/QX_Protocol_App.c ****     //Initialize API variables
  82:..\..\FreeflyAPI/QX_Protocol_App.c ****     FreeflyAPI.control.pan.type = DEFER;
  42              		.loc 1 82 0
  43 000c 0E4B     		ldr	r3, .L3+8
  44 000e 0022     		movs	r2, #0
  45 0010 1A75     		strb	r2, [r3, #20]
  83:..\..\FreeflyAPI/QX_Protocol_App.c ****     FreeflyAPI.control.tilt.type = DEFER;
  46              		.loc 1 83 0
  47 0012 1A77     		strb	r2, [r3, #28]
  84:..\..\FreeflyAPI/QX_Protocol_App.c ****     FreeflyAPI.control.roll.type = DEFER;
  48              		.loc 1 84 0
  49 0014 83F82420 		strb	r2, [r3, #36]
  85:..\..\FreeflyAPI/QX_Protocol_App.c ****     FreeflyAPI.control.focus.type = DEFER;
  50              		.loc 1 85 0
  51 0018 83F82C20 		strb	r2, [r3, #44]
  86:..\..\FreeflyAPI/QX_Protocol_App.c ****     FreeflyAPI.control.iris.type = DEFER;
  52              		.loc 1 86 0
  53 001c 83F83420 		strb	r2, [r3, #52]
  87:..\..\FreeflyAPI/QX_Protocol_App.c ****     FreeflyAPI.control.zoom.type = DEFER;
  54              		.loc 1 87 0
  55 0020 83F83C20 		strb	r2, [r3, #60]
  88:..\..\FreeflyAPI/QX_Protocol_App.c **** 	FreeflyAPI.control.fiz_autoCalStart_all_flag = 0;
  56              		.loc 1 88 0
  57 0024 83F84120 		strb	r2, [r3, #65]
  89:..\..\FreeflyAPI/QX_Protocol_App.c **** 	FreeflyAPI.control.fiz_clearFaults_all_flag = 0;
  58              		.loc 1 89 0
  59 0028 83F84020 		strb	r2, [r3, #64]
  90:..\..\FreeflyAPI/QX_Protocol_App.c **** 	FreeflyAPI.control.fiz_record_button_flag = 0;
  60              		.loc 1 90 0
  61 002c 83F84220 		strb	r2, [r3, #66]
  91:..\..\FreeflyAPI/QX_Protocol_App.c **** 	FreeflyAPI.control.fiz_setSubRangeLim_F_flag = 0;
  62              		.loc 1 91 0
  63 0030 83F84320 		strb	r2, [r3, #67]
  92:..\..\FreeflyAPI/QX_Protocol_App.c **** 	FreeflyAPI.control.fiz_setSubRangeLim_I_flag = 0;
  64              		.loc 1 92 0
  65 0034 83F84420 		strb	r2, [r3, #68]
  93:..\..\FreeflyAPI/QX_Protocol_App.c **** 	FreeflyAPI.control.fiz_setSubRangeLim_Z_flag = 0;
  66              		.loc 1 93 0
  67 0038 83F84520 		strb	r2, [r3, #69]
  68 003c 08BD     		pop	{r3, pc}
  69              	.L4:
  70 003e 00BF     		.align	2
  71              	.L3:
  72 0040 00000000 		.word	QX_ParsePacket_Cli_MoVI_Ctrl_CB
  73 0044 00000000 		.word	QX_Clients
  74 0048 00000000 		.word	.LANCHOR0
  75              		.cfi_endproc
  76              	.LFE1:
  77              		.size	ff_api_init, .-ff_api_init
  78              		.section	.text.ff_api_send,"ax",%progbits
ARM GAS  C:\Users\hamis\AppData\Local\Temp\ccwLgndb.s 			page 4


  79              		.align	2
  80              		.global	ff_api_send
  81              		.thumb
  82              		.thumb_func
  83              		.type	ff_api_send, %function
  84              	ff_api_send:
  85              	.LFB2:
  94:..\..\FreeflyAPI/QX_Protocol_App.c **** 	
  95:..\..\FreeflyAPI/QX_Protocol_App.c **** }
  96:..\..\FreeflyAPI/QX_Protocol_App.c **** 
  97:..\..\FreeflyAPI/QX_Protocol_App.c **** 
  98:..\..\FreeflyAPI/QX_Protocol_App.c **** //----------------------------------------------------------------------------
  99:..\..\FreeflyAPI/QX_Protocol_App.c **** // Convenience function that sends packets through QX Protocol
 100:..\..\FreeflyAPI/QX_Protocol_App.c **** void ff_api_send(void)
 101:..\..\FreeflyAPI/QX_Protocol_App.c **** {
  86              		.loc 1 101 0
  87              		.cfi_startproc
  88              		@ args = 0, pretend = 0, frame = 8
  89              		@ frame_needed = 0, uses_anonymous_args = 0
  90 0000 00B5     		push	{lr}
  91              		.cfi_def_cfa_offset 4
  92              		.cfi_offset 14, -4
  93 0002 85B0     		sub	sp, sp, #20
  94              		.cfi_def_cfa_offset 24
 102:..\..\FreeflyAPI/QX_Protocol_App.c ****     // Send control message
 103:..\..\FreeflyAPI/QX_Protocol_App.c ****     QX_TxMsgOptions_t options;
 104:..\..\FreeflyAPI/QX_Protocol_App.c ****     QX_InitTxOptions(&options);
  95              		.loc 1 104 0
  96 0004 02A8     		add	r0, sp, #8
  97 0006 FFF7FEFF 		bl	QX_InitTxOptions
  98              	.LVL1:
 105:..\..\FreeflyAPI/QX_Protocol_App.c ****     options.Target_Addr = QX_DEV_ID_GIMBAL;
  99              		.loc 1 105 0
 100 000a 0223     		movs	r3, #2
 101 000c 8DF80C30 		strb	r3, [sp, #12]
 106:..\..\FreeflyAPI/QX_Protocol_App.c ****     options.TransReq_Addr = QX_DEV_ID_BROADCAST;
 102              		.loc 1 106 0
 103 0010 0022     		movs	r2, #0
 104 0012 8DF80D20 		strb	r2, [sp, #13]
 107:..\..\FreeflyAPI/QX_Protocol_App.c ****     options.RespReq_Addr = QX_DEV_ID_BROADCAST;
 105              		.loc 1 107 0
 106 0016 8DF80E20 		strb	r2, [sp, #14]
 108:..\..\FreeflyAPI/QX_Protocol_App.c ****     QX_SendPacket_Cli_WriteABS(&QX_Clients[0], 277, QX_COMMS_PORT_UART, options);
 107              		.loc 1 108 0
 108 001a 039B     		ldr	r3, [sp, #12]
 109 001c ADF80030 		strh	r3, [sp]	@ movhi
 110 0020 1B0C     		lsrs	r3, r3, #16
 111 0022 8DF80230 		strb	r3, [sp, #2]
 112 0026 029B     		ldr	r3, [sp, #8]
 113 0028 40F21511 		movw	r1, #277
 114 002c 0248     		ldr	r0, .L7
 115 002e FFF7FEFF 		bl	QX_SendPacket_Cli_WriteABS
 116              	.LVL2:
 109:..\..\FreeflyAPI/QX_Protocol_App.c **** }
 117              		.loc 1 109 0
 118 0032 05B0     		add	sp, sp, #20
 119              		.cfi_def_cfa_offset 4
ARM GAS  C:\Users\hamis\AppData\Local\Temp\ccwLgndb.s 			page 5


 120              		@ sp needed
 121 0034 5DF804FB 		ldr	pc, [sp], #4
 122              	.L8:
 123              		.align	2
 124              	.L7:
 125 0038 00000000 		.word	QX_Clients
 126              		.cfi_endproc
 127              	.LFE2:
 128              		.size	ff_api_send, .-ff_api_send
 129              		.global	__aeabi_fmul
 130              		.global	__aeabi_fadd
 131              		.global	__aeabi_f2uiz
 132              		.global	__aeabi_ui2f
 133              		.global	__aeabi_fcmpeq
 134              		.section	.text.QX_ParsePacket_Cli_MoVI_Ctrl_CB,"ax",%progbits
 135              		.align	2
 136              		.global	QX_ParsePacket_Cli_MoVI_Ctrl_CB
 137              		.thumb
 138              		.thumb_func
 139              		.type	QX_ParsePacket_Cli_MoVI_Ctrl_CB, %function
 140              	QX_ParsePacket_Cli_MoVI_Ctrl_CB:
 141              	.LFB3:
 110:..\..\FreeflyAPI/QX_Protocol_App.c **** 
 111:..\..\FreeflyAPI/QX_Protocol_App.c **** 
 112:..\..\FreeflyAPI/QX_Protocol_App.c **** //----------------------------------------------------------------------------
 113:..\..\FreeflyAPI/QX_Protocol_App.c **** // MoVI Control Client - parser callback example
 114:..\..\FreeflyAPI/QX_Protocol_App.c **** uint8_t *QX_ParsePacket_Cli_MoVI_Ctrl_CB(QX_Msg_t *Msg_p)
 115:..\..\FreeflyAPI/QX_Protocol_App.c **** {
 142              		.loc 1 115 0
 143              		.cfi_startproc
 144              		@ args = 0, pretend = 0, frame = 56
 145              		@ frame_needed = 0, uses_anonymous_args = 0
 146              	.LVL3:
 147 0000 2DE9F047 		push	{r4, r5, r6, r7, r8, r9, r10, lr}
 148              		.cfi_def_cfa_offset 32
 149              		.cfi_offset 4, -32
 150              		.cfi_offset 5, -28
 151              		.cfi_offset 6, -24
 152              		.cfi_offset 7, -20
 153              		.cfi_offset 8, -16
 154              		.cfi_offset 9, -12
 155              		.cfi_offset 10, -8
 156              		.cfi_offset 14, -4
 157 0004 90B0     		sub	sp, sp, #64
 158              		.cfi_def_cfa_offset 96
 159 0006 0446     		mov	r4, r0
 116:..\..\FreeflyAPI/QX_Protocol_App.c **** 	uint8_t temp_UC_buffer[10];
 117:..\..\FreeflyAPI/QX_Protocol_App.c **** 	int16_t temp_SS_buffer[10];
 118:..\..\FreeflyAPI/QX_Protocol_App.c **** 	uint16_t temp_US_buffer[10];
 119:..\..\FreeflyAPI/QX_Protocol_App.c **** 	
 120:..\..\FreeflyAPI/QX_Protocol_App.c **** 	// Set Parser direction based on message type
 121:..\..\FreeflyAPI/QX_Protocol_App.c **** 	switch(Msg_p->Parse_Type)
 160              		.loc 1 121 0
 161 0008 0378     		ldrb	r3, [r0]	@ zero_extendqisi2
 162 000a 022B     		cmp	r3, #2
 163 000c 07D0     		beq	.L11
 164 000e 042B     		cmp	r3, #4
ARM GAS  C:\Users\hamis\AppData\Local\Temp\ccwLgndb.s 			page 6


 165 0010 02D0     		beq	.L12
 166 0012 012B     		cmp	r3, #1
 167 0014 08D1     		bne	.L10
 168 0016 05E0     		b	.L13
 169              	.L12:
 122:..\..\FreeflyAPI/QX_Protocol_App.c **** 	{
 123:..\..\FreeflyAPI/QX_Protocol_App.c **** 		case QX_PARSE_TYPE_WRITE_REL_SEND: QX_Parser_SetDir_Read(); break;
 170              		.loc 1 123 0
 171 0018 FFF7FEFF 		bl	QX_Parser_SetDir_Read
 172              	.LVL4:
 173 001c 04E0     		b	.L10
 174              	.LVL5:
 175              	.L11:
 124:..\..\FreeflyAPI/QX_Protocol_App.c **** 		case QX_PARSE_TYPE_WRITE_ABS_SEND: QX_Parser_SetDir_Read(); break;
 176              		.loc 1 124 0
 177 001e FFF7FEFF 		bl	QX_Parser_SetDir_Read
 178              	.LVL6:
 179 0022 01E0     		b	.L10
 180              	.LVL7:
 181              	.L13:
 125:..\..\FreeflyAPI/QX_Protocol_App.c **** 		case QX_PARSE_TYPE_CURVAL_RECV: QX_Parser_SetDir_WriteAbs(); break;
 182              		.loc 1 125 0
 183 0024 FFF7FEFF 		bl	QX_Parser_SetDir_WriteAbs
 184              	.LVL8:
 185              	.L10:
 126:..\..\FreeflyAPI/QX_Protocol_App.c **** 		default: break;
 127:..\..\FreeflyAPI/QX_Protocol_App.c **** 	}
 128:..\..\FreeflyAPI/QX_Protocol_App.c **** 	
 129:..\..\FreeflyAPI/QX_Protocol_App.c **** 	// Prepare to Parse Message
 130:..\..\FreeflyAPI/QX_Protocol_App.c **** 	QX_Parser_SetMsgPtr(Msg_p->BufPayloadStart_p);	// Set the Parser Pointer to the Start of the Paylo
 186              		.loc 1 130 0
 187 0028 E06E     		ldr	r0, [r4, #108]
 188 002a FFF7FEFF 		bl	QX_Parser_SetMsgPtr
 189              	.LVL9:
 131:..\..\FreeflyAPI/QX_Protocol_App.c **** 	
 132:..\..\FreeflyAPI/QX_Protocol_App.c **** 	// Handle specific packet type
 133:..\..\FreeflyAPI/QX_Protocol_App.c **** 	switch(Msg_p->Header.Attrib)
 190              		.loc 1 133 0
 191 002e E368     		ldr	r3, [r4, #12]
 192 0030 40F21512 		movw	r2, #277
 193 0034 9342     		cmp	r3, r2
 194 0036 05D0     		beq	.L15
 195 0038 40F21F12 		movw	r2, #287
 196 003c 9342     		cmp	r3, r2
 197 003e 00F0A681 		beq	.L16
 198 0042 1BE3     		b	.L124
 199              	.L15:
 200              	.LBB2:
 134:..\..\FreeflyAPI/QX_Protocol_App.c **** 	{
 135:..\..\FreeflyAPI/QX_Protocol_App.c **** 		case 277: // Control RL, Gimbal + Lens Control, (RX,RY,RZ)-(LF,LI,LZ)
 136:..\..\FreeflyAPI/QX_Protocol_App.c **** 		
 137:..\..\FreeflyAPI/QX_Protocol_App.c **** 			// This only accepts absolute type writes. Exit if other
 138:..\..\FreeflyAPI/QX_Protocol_App.c **** 			if(Msg_p->Parse_Type !=  QX_PARSE_TYPE_WRITE_ABS_SEND) break;
 201              		.loc 1 138 0
 202 0044 2378     		ldrb	r3, [r4]	@ zero_extendqisi2
 203 0046 022B     		cmp	r3, #2
 204 0048 40F01A83 		bne	.L17
ARM GAS  C:\Users\hamis\AppData\Local\Temp\ccwLgndb.s 			page 7


 139:..\..\FreeflyAPI/QX_Protocol_App.c **** 		
 140:..\..\FreeflyAPI/QX_Protocol_App.c **** 			// reserved
 141:..\..\FreeflyAPI/QX_Protocol_App.c **** 			PARSE_UC_AS_UC(temp_UC_buffer, 3, 0xFF, 0);
 205              		.loc 1 141 0
 206 004c A24B     		ldr	r3, .L126
 207 004e 1B78     		ldrb	r3, [r3]	@ zero_extendqisi2
 208 0050 23B9     		cbnz	r3, .L18
 209              		.loc 1 141 0 is_stmt 0 discriminator 1
 210 0052 0321     		movs	r1, #3
 211 0054 0DA8     		add	r0, sp, #52
 212 0056 FFF7FEFF 		bl	AddUnsignedCharAsUnsignedChar
 213              	.LVL10:
 214 005a 05E0     		b	.L19
 215              	.L18:
 216              		.loc 1 141 0 discriminator 2
 217 005c 0023     		movs	r3, #0
 218 005e FF22     		movs	r2, #255
 219 0060 0321     		movs	r1, #3
 220 0062 0DA8     		add	r0, sp, #52
 221 0064 FFF7FEFF 		bl	GetUnsignedCharAsUnsignedChar
 222              	.LVL11:
 223              	.L19:
 142:..\..\FreeflyAPI/QX_Protocol_App.c **** 			
 143:..\..\FreeflyAPI/QX_Protocol_App.c **** 			// Set gimbal axis control type flags (rate, quaternion, etc)
 144:..\..\FreeflyAPI/QX_Protocol_App.c ****             uint8_t pan_input_type;
 145:..\..\FreeflyAPI/QX_Protocol_App.c ****             switch (FreeflyAPI.control.pan.type) {
 224              		.loc 1 145 0 is_stmt 1
 225 0068 9C4B     		ldr	r3, .L126+4
 226 006a 1B7D     		ldrb	r3, [r3, #20]	@ zero_extendqisi2
 227 006c 012B     		cmp	r3, #1
 228 006e 03D0     		beq	.L21
 229 0070 43B1     		cbz	r3, .L116
 230 0072 022B     		cmp	r3, #2
 231 0074 03D0     		beq	.L23
 232 0076 07E0     		b	.L22
 233              	.L21:
 234              	.LVL12:
 146:..\..\FreeflyAPI/QX_Protocol_App.c ****                 case DEFER:
 147:..\..\FreeflyAPI/QX_Protocol_App.c ****                     pan_input_type = INPUT_CONTROL_RZ_DEFER;
 148:..\..\FreeflyAPI/QX_Protocol_App.c ****                     break;
 149:..\..\FreeflyAPI/QX_Protocol_App.c ****                 case RATE:
 150:..\..\FreeflyAPI/QX_Protocol_App.c ****                     pan_input_type = INPUT_CONTROL_RZ_RATE;
 235              		.loc 1 150 0
 236 0078 4FF0010A 		mov	r10, #1
 151:..\..\FreeflyAPI/QX_Protocol_App.c ****                     break;
 237              		.loc 1 151 0
 238 007c 04E0     		b	.L22
 239              	.LVL13:
 240              	.L23:
 152:..\..\FreeflyAPI/QX_Protocol_App.c ****                 case ABSOLUTE:
 153:..\..\FreeflyAPI/QX_Protocol_App.c ****                     pan_input_type = INPUT_CONTROL_RZ_ABS;
 241              		.loc 1 153 0
 242 007e 4FF0020A 		mov	r10, #2
 154:..\..\FreeflyAPI/QX_Protocol_App.c ****                     break;
 243              		.loc 1 154 0
 244 0082 01E0     		b	.L22
 245              	.LVL14:
ARM GAS  C:\Users\hamis\AppData\Local\Temp\ccwLgndb.s 			page 8


 246              	.L116:
 147:..\..\FreeflyAPI/QX_Protocol_App.c ****                     break;
 247              		.loc 1 147 0
 248 0084 4FF0000A 		mov	r10, #0
 249              	.L22:
 250              	.LVL15:
 155:..\..\FreeflyAPI/QX_Protocol_App.c ****                 default:
 156:..\..\FreeflyAPI/QX_Protocol_App.c ****                     break;
 157:..\..\FreeflyAPI/QX_Protocol_App.c ****             };
 158:..\..\FreeflyAPI/QX_Protocol_App.c **** 
 159:..\..\FreeflyAPI/QX_Protocol_App.c ****             uint8_t tilt_input_type;
 160:..\..\FreeflyAPI/QX_Protocol_App.c ****             switch (FreeflyAPI.control.tilt.type) {
 251              		.loc 1 160 0
 252 0088 944B     		ldr	r3, .L126+4
 253 008a 1B7F     		ldrb	r3, [r3, #28]	@ zero_extendqisi2
 254 008c 012B     		cmp	r3, #1
 255 008e 03D0     		beq	.L25
 256 0090 33B1     		cbz	r3, .L117
 257 0092 022B     		cmp	r3, #2
 258 0094 02D0     		beq	.L27
 259 0096 04E0     		b	.L26
 260              	.L25:
 261              	.LVL16:
 161:..\..\FreeflyAPI/QX_Protocol_App.c ****                 case DEFER:
 162:..\..\FreeflyAPI/QX_Protocol_App.c ****                     tilt_input_type = INPUT_CONTROL_RY_DEFER;
 163:..\..\FreeflyAPI/QX_Protocol_App.c ****                     break;
 164:..\..\FreeflyAPI/QX_Protocol_App.c ****                 case RATE:
 165:..\..\FreeflyAPI/QX_Protocol_App.c ****                     tilt_input_type = INPUT_CONTROL_RY_RATE;
 262              		.loc 1 165 0
 263 0098 0425     		movs	r5, #4
 166:..\..\FreeflyAPI/QX_Protocol_App.c ****                     break;
 264              		.loc 1 166 0
 265 009a 02E0     		b	.L26
 266              	.LVL17:
 267              	.L27:
 167:..\..\FreeflyAPI/QX_Protocol_App.c ****                 case ABSOLUTE:
 168:..\..\FreeflyAPI/QX_Protocol_App.c ****                     tilt_input_type = INPUT_CONTROL_RY_ABS;
 268              		.loc 1 168 0
 269 009c 0825     		movs	r5, #8
 169:..\..\FreeflyAPI/QX_Protocol_App.c ****                     break;
 270              		.loc 1 169 0
 271 009e 00E0     		b	.L26
 272              	.LVL18:
 273              	.L117:
 162:..\..\FreeflyAPI/QX_Protocol_App.c ****                     break;
 274              		.loc 1 162 0
 275 00a0 0025     		movs	r5, #0
 276              	.L26:
 277              	.LVL19:
 170:..\..\FreeflyAPI/QX_Protocol_App.c ****                 default:
 171:..\..\FreeflyAPI/QX_Protocol_App.c ****                     break;
 172:..\..\FreeflyAPI/QX_Protocol_App.c ****             };
 173:..\..\FreeflyAPI/QX_Protocol_App.c ****             
 174:..\..\FreeflyAPI/QX_Protocol_App.c ****             uint8_t roll_input_type;
 175:..\..\FreeflyAPI/QX_Protocol_App.c ****             switch (FreeflyAPI.control.roll.type) {
 278              		.loc 1 175 0
 279 00a2 8E4B     		ldr	r3, .L126+4
ARM GAS  C:\Users\hamis\AppData\Local\Temp\ccwLgndb.s 			page 9


 280 00a4 93F82430 		ldrb	r3, [r3, #36]	@ zero_extendqisi2
 281 00a8 012B     		cmp	r3, #1
 282 00aa 03D0     		beq	.L29
 283 00ac 43B1     		cbz	r3, .L118
 284 00ae 022B     		cmp	r3, #2
 285 00b0 03D0     		beq	.L31
 286 00b2 07E0     		b	.L30
 287              	.L29:
 288              	.LVL20:
 176:..\..\FreeflyAPI/QX_Protocol_App.c ****                 case DEFER:
 177:..\..\FreeflyAPI/QX_Protocol_App.c ****                     roll_input_type = INPUT_CONTROL_RX_DEFER;
 178:..\..\FreeflyAPI/QX_Protocol_App.c ****                     break;
 179:..\..\FreeflyAPI/QX_Protocol_App.c ****                 case RATE:
 180:..\..\FreeflyAPI/QX_Protocol_App.c ****                     roll_input_type = INPUT_CONTROL_RX_RATE;
 289              		.loc 1 180 0
 290 00b4 4FF01009 		mov	r9, #16
 181:..\..\FreeflyAPI/QX_Protocol_App.c ****                     break;
 291              		.loc 1 181 0
 292 00b8 04E0     		b	.L30
 293              	.LVL21:
 294              	.L31:
 182:..\..\FreeflyAPI/QX_Protocol_App.c ****                 case ABSOLUTE:
 183:..\..\FreeflyAPI/QX_Protocol_App.c ****                     roll_input_type = INPUT_CONTROL_RX_ABS;
 295              		.loc 1 183 0
 296 00ba 4FF02009 		mov	r9, #32
 184:..\..\FreeflyAPI/QX_Protocol_App.c ****                     break;
 297              		.loc 1 184 0
 298 00be 01E0     		b	.L30
 299              	.LVL22:
 300              	.L118:
 177:..\..\FreeflyAPI/QX_Protocol_App.c ****                     break;
 301              		.loc 1 177 0
 302 00c0 4FF00009 		mov	r9, #0
 303              	.L30:
 304              	.LVL23:
 185:..\..\FreeflyAPI/QX_Protocol_App.c ****                 default:
 186:..\..\FreeflyAPI/QX_Protocol_App.c ****                     break;
 187:..\..\FreeflyAPI/QX_Protocol_App.c ****             };
 188:..\..\FreeflyAPI/QX_Protocol_App.c **** 			
 189:..\..\FreeflyAPI/QX_Protocol_App.c **** 			// add in input types
 190:..\..\FreeflyAPI/QX_Protocol_App.c **** 			temp_UC_buffer[0] = pan_input_type | tilt_input_type | roll_input_type;
 305              		.loc 1 190 0
 306 00c4 4AEA0505 		orr	r5, r10, r5
 307              	.LVL24:
 308 00c8 49EA0509 		orr	r9, r9, r5
 309              	.LVL25:
 310 00cc 5FFA89F9 		uxtb	r9, r9
 191:..\..\FreeflyAPI/QX_Protocol_App.c **** 			
 192:..\..\FreeflyAPI/QX_Protocol_App.c **** 			// add in control flags
 193:..\..\FreeflyAPI/QX_Protocol_App.c **** 			if (FreeflyAPI.control.gimbal_position_type_quaternions)
 311              		.loc 1 193 0
 312 00d0 824B     		ldr	r3, .L126+4
 313 00d2 5B7B     		ldrb	r3, [r3, #13]	@ zero_extendqisi2
 314 00d4 23B1     		cbz	r3, .L32
 194:..\..\FreeflyAPI/QX_Protocol_App.c **** 			{
 195:..\..\FreeflyAPI/QX_Protocol_App.c **** 				temp_UC_buffer[0] |= INPUT_CONTROL_QUATERNION;
 315              		.loc 1 195 0
ARM GAS  C:\Users\hamis\AppData\Local\Temp\ccwLgndb.s 			page 10


 316 00d6 69F07F09 		orn	r9, r9, #127
 317 00da 8DF83490 		strb	r9, [sp, #52]
 318 00de 03E0     		b	.L33
 319              	.L32:
 196:..\..\FreeflyAPI/QX_Protocol_App.c **** 			}
 197:..\..\FreeflyAPI/QX_Protocol_App.c **** 			else 
 198:..\..\FreeflyAPI/QX_Protocol_App.c **** 			{
 199:..\..\FreeflyAPI/QX_Protocol_App.c **** 				temp_UC_buffer[0] &= ~INPUT_CONTROL_QUATERNION;
 320              		.loc 1 199 0
 321 00e0 09F07F09 		and	r9, r9, #127
 322 00e4 8DF83490 		strb	r9, [sp, #52]
 323              	.L33:
 200:..\..\FreeflyAPI/QX_Protocol_App.c **** 			}
 201:..\..\FreeflyAPI/QX_Protocol_App.c **** 			if (FreeflyAPI.control.gimbal_kill)
 324              		.loc 1 201 0
 325 00e8 7C4B     		ldr	r3, .L126+4
 326 00ea 1B7B     		ldrb	r3, [r3, #12]	@ zero_extendqisi2
 327 00ec 33B1     		cbz	r3, .L34
 202:..\..\FreeflyAPI/QX_Protocol_App.c **** 			{
 203:..\..\FreeflyAPI/QX_Protocol_App.c **** 				temp_UC_buffer[0] |= INPUT_CONTROL_KILL;
 328              		.loc 1 203 0
 329 00ee 9DF83430 		ldrb	r3, [sp, #52]	@ zero_extendqisi2
 330 00f2 43F04003 		orr	r3, r3, #64
 331 00f6 8DF83430 		strb	r3, [sp, #52]
 332 00fa 05E0     		b	.L35
 333              	.L34:
 204:..\..\FreeflyAPI/QX_Protocol_App.c **** 			}
 205:..\..\FreeflyAPI/QX_Protocol_App.c **** 			else 
 206:..\..\FreeflyAPI/QX_Protocol_App.c **** 			{
 207:..\..\FreeflyAPI/QX_Protocol_App.c **** 				temp_UC_buffer[0] &= ~INPUT_CONTROL_KILL;
 334              		.loc 1 207 0
 335 00fc 9DF83430 		ldrb	r3, [sp, #52]	@ zero_extendqisi2
 336 0100 23F04003 		bic	r3, r3, #64
 337 0104 8DF83430 		strb	r3, [sp, #52]
 338              	.L35:
 208:..\..\FreeflyAPI/QX_Protocol_App.c **** 			}
 209:..\..\FreeflyAPI/QX_Protocol_App.c **** 			
 210:..\..\FreeflyAPI/QX_Protocol_App.c **** 			// Parse gimbal flags byte
 211:..\..\FreeflyAPI/QX_Protocol_App.c **** 			PARSE_UC_AS_UC(temp_UC_buffer, 1, 0xFF, 0);
 339              		.loc 1 211 0
 340 0108 734B     		ldr	r3, .L126
 341 010a 1B78     		ldrb	r3, [r3]	@ zero_extendqisi2
 342 010c 23B9     		cbnz	r3, .L36
 343              		.loc 1 211 0 is_stmt 0 discriminator 1
 344 010e 0121     		movs	r1, #1
 345 0110 0DA8     		add	r0, sp, #52
 346 0112 FFF7FEFF 		bl	AddUnsignedCharAsUnsignedChar
 347              	.LVL26:
 348 0116 05E0     		b	.L37
 349              	.L36:
 350              		.loc 1 211 0 discriminator 2
 351 0118 0023     		movs	r3, #0
 352 011a FF22     		movs	r2, #255
 353 011c 0121     		movs	r1, #1
 354 011e 0DA8     		add	r0, sp, #52
 355 0120 FFF7FEFF 		bl	GetUnsignedCharAsUnsignedChar
 356              	.LVL27:
ARM GAS  C:\Users\hamis\AppData\Local\Temp\ccwLgndb.s 			page 11


 357              	.L37:
 212:..\..\FreeflyAPI/QX_Protocol_App.c **** 			
 213:..\..\FreeflyAPI/QX_Protocol_App.c **** 			// Control Gimbal Axes
 214:..\..\FreeflyAPI/QX_Protocol_App.c **** 			PARSE_FL_AS_SS(&FreeflyAPI.control.roll.value, 1, 32767.0f, -32767.0f, 32767.0f);
 358              		.loc 1 214 0 is_stmt 1
 359 0124 6C4B     		ldr	r3, .L126
 360 0126 1B78     		ldrb	r3, [r3]	@ zero_extendqisi2
 361 0128 2BB9     		cbnz	r3, .L38
 362              		.loc 1 214 0 is_stmt 0 discriminator 1
 363 012a 6D4A     		ldr	r2, .L126+8
 364 012c 0121     		movs	r1, #1
 365 012e 6D48     		ldr	r0, .L126+12
 366 0130 FFF7FEFF 		bl	AddFloatAsSignedShort
 367              	.LVL28:
 368 0134 07E0     		b	.L39
 369              	.L38:
 370              		.loc 1 214 0 discriminator 2
 371 0136 6C4B     		ldr	r3, .L126+16
 372 0138 0093     		str	r3, [sp]	@ float
 373 013a 6C4B     		ldr	r3, .L126+20
 374 013c 684A     		ldr	r2, .L126+8
 375 013e 0121     		movs	r1, #1
 376 0140 6848     		ldr	r0, .L126+12
 377 0142 FFF7FEFF 		bl	GetFloatAsSignedShort
 378              	.LVL29:
 379              	.L39:
 215:..\..\FreeflyAPI/QX_Protocol_App.c **** 			PARSE_FL_AS_SS(&FreeflyAPI.control.tilt.value, 1, 32767.0f, -32767.0f, 32767.0f);
 380              		.loc 1 215 0 is_stmt 1
 381 0146 644B     		ldr	r3, .L126
 382 0148 1B78     		ldrb	r3, [r3]	@ zero_extendqisi2
 383 014a 2BB9     		cbnz	r3, .L40
 384              		.loc 1 215 0 is_stmt 0 discriminator 1
 385 014c 644A     		ldr	r2, .L126+8
 386 014e 0121     		movs	r1, #1
 387 0150 6748     		ldr	r0, .L126+24
 388 0152 FFF7FEFF 		bl	AddFloatAsSignedShort
 389              	.LVL30:
 390 0156 07E0     		b	.L41
 391              	.L40:
 392              		.loc 1 215 0 discriminator 2
 393 0158 634B     		ldr	r3, .L126+16
 394 015a 0093     		str	r3, [sp]	@ float
 395 015c 634B     		ldr	r3, .L126+20
 396 015e 604A     		ldr	r2, .L126+8
 397 0160 0121     		movs	r1, #1
 398 0162 6348     		ldr	r0, .L126+24
 399 0164 FFF7FEFF 		bl	GetFloatAsSignedShort
 400              	.LVL31:
 401              	.L41:
 216:..\..\FreeflyAPI/QX_Protocol_App.c **** 			PARSE_FL_AS_SS(&FreeflyAPI.control.pan.value, 1, 32767.0f, -32767.0f, 32767.0f);
 402              		.loc 1 216 0 is_stmt 1
 403 0168 5B4B     		ldr	r3, .L126
 404 016a 1B78     		ldrb	r3, [r3]	@ zero_extendqisi2
 405 016c 2BB9     		cbnz	r3, .L42
 406              		.loc 1 216 0 is_stmt 0 discriminator 1
 407 016e 5C4A     		ldr	r2, .L126+8
 408 0170 0121     		movs	r1, #1
ARM GAS  C:\Users\hamis\AppData\Local\Temp\ccwLgndb.s 			page 12


 409 0172 6048     		ldr	r0, .L126+28
 410 0174 FFF7FEFF 		bl	AddFloatAsSignedShort
 411              	.LVL32:
 412 0178 07E0     		b	.L43
 413              	.L42:
 414              		.loc 1 216 0 discriminator 2
 415 017a 5B4B     		ldr	r3, .L126+16
 416 017c 0093     		str	r3, [sp]	@ float
 417 017e 5B4B     		ldr	r3, .L126+20
 418 0180 574A     		ldr	r2, .L126+8
 419 0182 0121     		movs	r1, #1
 420 0184 5B48     		ldr	r0, .L126+28
 421 0186 FFF7FEFF 		bl	GetFloatAsSignedShort
 422              	.LVL33:
 423              	.L43:
 217:..\..\FreeflyAPI/QX_Protocol_App.c **** 			temp_SS_buffer[0] = 0;
 424              		.loc 1 217 0 is_stmt 1
 425 018a 0023     		movs	r3, #0
 426 018c ADF82030 		strh	r3, [sp, #32]	@ movhi
 218:..\..\FreeflyAPI/QX_Protocol_App.c **** 			PARSE_SS_AS_SS(temp_SS_buffer, 1, 0xFFFF, 0);
 427              		.loc 1 218 0
 428 0190 514B     		ldr	r3, .L126
 429 0192 1B78     		ldrb	r3, [r3]	@ zero_extendqisi2
 430 0194 23B9     		cbnz	r3, .L44
 431              		.loc 1 218 0 is_stmt 0 discriminator 1
 432 0196 0121     		movs	r1, #1
 433 0198 08A8     		add	r0, sp, #32
 434 019a FFF7FEFF 		bl	AddSignedShortAsSignedShort
 435              	.LVL34:
 436 019e 05E0     		b	.L45
 437              	.L44:
 438              		.loc 1 218 0 discriminator 2
 439 01a0 0023     		movs	r3, #0
 440 01a2 554A     		ldr	r2, .L126+32
 441 01a4 0121     		movs	r1, #1
 442 01a6 08A8     		add	r0, sp, #32
 443 01a8 FFF7FEFF 		bl	GetSignedShortAsSignedShort
 444              	.LVL35:
 445              	.L45:
 219:..\..\FreeflyAPI/QX_Protocol_App.c **** 			
 220:..\..\FreeflyAPI/QX_Protocol_App.c **** 			// Set lens control type flags (rate, absolute position, etc)
 221:..\..\FreeflyAPI/QX_Protocol_App.c ****             uint8_t focus_input_type;
 222:..\..\FreeflyAPI/QX_Protocol_App.c ****             switch (FreeflyAPI.control.focus.type) {
 446              		.loc 1 222 0 is_stmt 1
 447 01ac 4B4B     		ldr	r3, .L126+4
 448 01ae 93F82C30 		ldrb	r3, [r3, #44]	@ zero_extendqisi2
 449 01b2 012B     		cmp	r3, #1
 450 01b4 03D0     		beq	.L47
 451 01b6 43B1     		cbz	r3, .L119
 452 01b8 022B     		cmp	r3, #2
 453 01ba 03D0     		beq	.L49
 454 01bc 07E0     		b	.L48
 455              	.L47:
 456              	.LVL36:
 223:..\..\FreeflyAPI/QX_Protocol_App.c ****                 case DEFER:
 224:..\..\FreeflyAPI/QX_Protocol_App.c ****                     focus_input_type = INPUT_CONTROL_LF_DEFER;
 225:..\..\FreeflyAPI/QX_Protocol_App.c ****                     break;
ARM GAS  C:\Users\hamis\AppData\Local\Temp\ccwLgndb.s 			page 13


 226:..\..\FreeflyAPI/QX_Protocol_App.c ****                 case RATE:
 227:..\..\FreeflyAPI/QX_Protocol_App.c ****                     focus_input_type = INPUT_CONTROL_LF_RATE;
 457              		.loc 1 227 0
 458 01be 4FF01008 		mov	r8, #16
 228:..\..\FreeflyAPI/QX_Protocol_App.c ****                     break;
 459              		.loc 1 228 0
 460 01c2 04E0     		b	.L48
 461              	.LVL37:
 462              	.L49:
 229:..\..\FreeflyAPI/QX_Protocol_App.c ****                 case ABSOLUTE:
 230:..\..\FreeflyAPI/QX_Protocol_App.c ****                     focus_input_type = INPUT_CONTROL_LF_ABS;
 463              		.loc 1 230 0
 464 01c4 4FF02008 		mov	r8, #32
 231:..\..\FreeflyAPI/QX_Protocol_App.c ****                     break;
 465              		.loc 1 231 0
 466 01c8 01E0     		b	.L48
 467              	.LVL38:
 468              	.L119:
 224:..\..\FreeflyAPI/QX_Protocol_App.c ****                     break;
 469              		.loc 1 224 0
 470 01ca 4FF00008 		mov	r8, #0
 471              	.L48:
 472              	.LVL39:
 232:..\..\FreeflyAPI/QX_Protocol_App.c ****                 default:
 233:..\..\FreeflyAPI/QX_Protocol_App.c ****                     break;
 234:..\..\FreeflyAPI/QX_Protocol_App.c ****             };
 235:..\..\FreeflyAPI/QX_Protocol_App.c **** 
 236:..\..\FreeflyAPI/QX_Protocol_App.c ****             uint8_t iris_input_type;
 237:..\..\FreeflyAPI/QX_Protocol_App.c ****             switch (FreeflyAPI.control.iris.type) {
 473              		.loc 1 237 0
 474 01ce 434B     		ldr	r3, .L126+4
 475 01d0 93F83430 		ldrb	r3, [r3, #52]	@ zero_extendqisi2
 476 01d4 012B     		cmp	r3, #1
 477 01d6 03D0     		beq	.L51
 478 01d8 33B1     		cbz	r3, .L120
 479 01da 022B     		cmp	r3, #2
 480 01dc 02D0     		beq	.L53
 481 01de 04E0     		b	.L52
 482              	.L51:
 483              	.LVL40:
 238:..\..\FreeflyAPI/QX_Protocol_App.c ****                 case DEFER:
 239:..\..\FreeflyAPI/QX_Protocol_App.c ****                     iris_input_type = INPUT_CONTROL_LI_DEFER;
 240:..\..\FreeflyAPI/QX_Protocol_App.c ****                     break;
 241:..\..\FreeflyAPI/QX_Protocol_App.c ****                 case RATE:
 242:..\..\FreeflyAPI/QX_Protocol_App.c ****                     iris_input_type = INPUT_CONTROL_LI_RATE;
 484              		.loc 1 242 0
 485 01e0 0426     		movs	r6, #4
 243:..\..\FreeflyAPI/QX_Protocol_App.c ****                     break;
 486              		.loc 1 243 0
 487 01e2 02E0     		b	.L52
 488              	.LVL41:
 489              	.L53:
 244:..\..\FreeflyAPI/QX_Protocol_App.c ****                 case ABSOLUTE:
 245:..\..\FreeflyAPI/QX_Protocol_App.c ****                     iris_input_type = INPUT_CONTROL_LI_ABS;
 490              		.loc 1 245 0
 491 01e4 0826     		movs	r6, #8
 246:..\..\FreeflyAPI/QX_Protocol_App.c ****                     break;
ARM GAS  C:\Users\hamis\AppData\Local\Temp\ccwLgndb.s 			page 14


 492              		.loc 1 246 0
 493 01e6 00E0     		b	.L52
 494              	.LVL42:
 495              	.L120:
 239:..\..\FreeflyAPI/QX_Protocol_App.c ****                     break;
 496              		.loc 1 239 0
 497 01e8 0026     		movs	r6, #0
 498              	.L52:
 499              	.LVL43:
 247:..\..\FreeflyAPI/QX_Protocol_App.c ****                 default:
 248:..\..\FreeflyAPI/QX_Protocol_App.c ****                     break;
 249:..\..\FreeflyAPI/QX_Protocol_App.c ****             };
 250:..\..\FreeflyAPI/QX_Protocol_App.c ****             
 251:..\..\FreeflyAPI/QX_Protocol_App.c ****             uint8_t zoom_input_type;
 252:..\..\FreeflyAPI/QX_Protocol_App.c ****             switch (FreeflyAPI.control.zoom.type) {
 500              		.loc 1 252 0
 501 01ea 3C4B     		ldr	r3, .L126+4
 502 01ec 93F83C30 		ldrb	r3, [r3, #60]	@ zero_extendqisi2
 503 01f0 012B     		cmp	r3, #1
 504 01f2 03D0     		beq	.L55
 505 01f4 33B1     		cbz	r3, .L121
 506 01f6 022B     		cmp	r3, #2
 507 01f8 02D0     		beq	.L57
 508 01fa 04E0     		b	.L56
 509              	.L55:
 510              	.LVL44:
 253:..\..\FreeflyAPI/QX_Protocol_App.c ****                 case DEFER:
 254:..\..\FreeflyAPI/QX_Protocol_App.c ****                     zoom_input_type = INPUT_CONTROL_LZ_DEFER;
 255:..\..\FreeflyAPI/QX_Protocol_App.c ****                     break;
 256:..\..\FreeflyAPI/QX_Protocol_App.c ****                 case RATE:
 257:..\..\FreeflyAPI/QX_Protocol_App.c ****                     zoom_input_type = INPUT_CONTROL_LZ_RATE;
 511              		.loc 1 257 0
 512 01fc 0127     		movs	r7, #1
 258:..\..\FreeflyAPI/QX_Protocol_App.c ****                     break;
 513              		.loc 1 258 0
 514 01fe 02E0     		b	.L56
 515              	.LVL45:
 516              	.L57:
 259:..\..\FreeflyAPI/QX_Protocol_App.c ****                 case ABSOLUTE:
 260:..\..\FreeflyAPI/QX_Protocol_App.c ****                     zoom_input_type = INPUT_CONTROL_LZ_ABS;
 517              		.loc 1 260 0
 518 0200 0227     		movs	r7, #2
 261:..\..\FreeflyAPI/QX_Protocol_App.c ****                     break;
 519              		.loc 1 261 0
 520 0202 00E0     		b	.L56
 521              	.LVL46:
 522              	.L121:
 254:..\..\FreeflyAPI/QX_Protocol_App.c ****                     break;
 523              		.loc 1 254 0
 524 0204 0027     		movs	r7, #0
 525              	.L56:
 526              	.LVL47:
 262:..\..\FreeflyAPI/QX_Protocol_App.c ****                 default:
 263:..\..\FreeflyAPI/QX_Protocol_App.c ****                     break;
 264:..\..\FreeflyAPI/QX_Protocol_App.c ****             };
 265:..\..\FreeflyAPI/QX_Protocol_App.c **** 			
 266:..\..\FreeflyAPI/QX_Protocol_App.c **** 			temp_UC_buffer[0] = focus_input_type | iris_input_type | zoom_input_type;
ARM GAS  C:\Users\hamis\AppData\Local\Temp\ccwLgndb.s 			page 15


 527              		.loc 1 266 0
 528 0206 48EA0606 		orr	r6, r8, r6
 529              	.LVL48:
 530 020a 3743     		orrs	r7, r7, r6
 531              	.LVL49:
 532 020c 8DF83470 		strb	r7, [sp, #52]
 267:..\..\FreeflyAPI/QX_Protocol_App.c **** 			PARSE_UC_AS_UC(temp_UC_buffer, 1, 0xFF, 0);
 533              		.loc 1 267 0
 534 0210 314B     		ldr	r3, .L126
 535 0212 1B78     		ldrb	r3, [r3]	@ zero_extendqisi2
 536 0214 23B9     		cbnz	r3, .L58
 537              		.loc 1 267 0 is_stmt 0 discriminator 1
 538 0216 0121     		movs	r1, #1
 539 0218 0DA8     		add	r0, sp, #52
 540 021a FFF7FEFF 		bl	AddUnsignedCharAsUnsignedChar
 541              	.LVL50:
 542 021e 05E0     		b	.L59
 543              	.L58:
 544              		.loc 1 267 0 discriminator 2
 545 0220 0023     		movs	r3, #0
 546 0222 FF22     		movs	r2, #255
 547 0224 0121     		movs	r1, #1
 548 0226 0DA8     		add	r0, sp, #52
 549 0228 FFF7FEFF 		bl	GetUnsignedCharAsUnsignedChar
 550              	.LVL51:
 551              	.L59:
 268:..\..\FreeflyAPI/QX_Protocol_App.c **** 			
 269:..\..\FreeflyAPI/QX_Protocol_App.c **** 			// Control Lens Axes
 270:..\..\FreeflyAPI/QX_Protocol_App.c **** 			temp_US_buffer[0] = FreeflyAPI.control.focus.value * (0xFFFF / 2) + (0xFFFF / 2);
 552              		.loc 1 270 0 is_stmt 1
 553 022c 2B4C     		ldr	r4, .L126+4
 554              	.LVL52:
 555 022e 2C49     		ldr	r1, .L126+8
 556 0230 A06A     		ldr	r0, [r4, #40]	@ float
 557 0232 FFF7FEFF 		bl	__aeabi_fmul
 558              	.LVL53:
 559 0236 2A49     		ldr	r1, .L126+8
 560 0238 FFF7FEFF 		bl	__aeabi_fadd
 561              	.LVL54:
 562 023c FFF7FEFF 		bl	__aeabi_f2uiz
 563              	.LVL55:
 564 0240 ADF80C00 		strh	r0, [sp, #12]	@ movhi
 271:..\..\FreeflyAPI/QX_Protocol_App.c **** 			temp_US_buffer[1] = FreeflyAPI.control.iris.value * (0xFFFF / 2) + (0xFFFF / 2);
 565              		.loc 1 271 0
 566 0244 2649     		ldr	r1, .L126+8
 567 0246 206B     		ldr	r0, [r4, #48]	@ float
 568 0248 FFF7FEFF 		bl	__aeabi_fmul
 569              	.LVL56:
 570 024c 2449     		ldr	r1, .L126+8
 571 024e FFF7FEFF 		bl	__aeabi_fadd
 572              	.LVL57:
 573 0252 FFF7FEFF 		bl	__aeabi_f2uiz
 574              	.LVL58:
 575 0256 ADF80E00 		strh	r0, [sp, #14]	@ movhi
 272:..\..\FreeflyAPI/QX_Protocol_App.c **** 			temp_US_buffer[2] = FreeflyAPI.control.zoom.value * (0xFFFF / 2) + (0xFFFF / 2);
 576              		.loc 1 272 0
 577 025a 2149     		ldr	r1, .L126+8
ARM GAS  C:\Users\hamis\AppData\Local\Temp\ccwLgndb.s 			page 16


 578 025c A06B     		ldr	r0, [r4, #56]	@ float
 579 025e FFF7FEFF 		bl	__aeabi_fmul
 580              	.LVL59:
 581 0262 1F49     		ldr	r1, .L126+8
 582 0264 FFF7FEFF 		bl	__aeabi_fadd
 583              	.LVL60:
 584 0268 FFF7FEFF 		bl	__aeabi_f2uiz
 585              	.LVL61:
 586 026c ADF81000 		strh	r0, [sp, #16]	@ movhi
 273:..\..\FreeflyAPI/QX_Protocol_App.c **** 			PARSE_US_AS_US(temp_US_buffer, 3, 0xFFFF, 0);
 587              		.loc 1 273 0
 588 0270 194B     		ldr	r3, .L126
 589 0272 1B78     		ldrb	r3, [r3]	@ zero_extendqisi2
 590 0274 23B9     		cbnz	r3, .L60
 591              		.loc 1 273 0 is_stmt 0 discriminator 1
 592 0276 0321     		movs	r1, #3
 593 0278 03A8     		add	r0, sp, #12
 594 027a FFF7FEFF 		bl	AddUnsignedShortAsUnsignedShort
 595              	.LVL62:
 596 027e 06E0     		b	.L61
 597              	.L60:
 598              		.loc 1 273 0 discriminator 2
 599 0280 0023     		movs	r3, #0
 600 0282 4FF6FF72 		movw	r2, #65535
 601 0286 0321     		movs	r1, #3
 602 0288 03A8     		add	r0, sp, #12
 603 028a FFF7FEFF 		bl	GetUnsignedShortAsUnsignedShort
 604              	.LVL63:
 605              	.L61:
 274:..\..\FreeflyAPI/QX_Protocol_App.c **** 			
 275:..\..\FreeflyAPI/QX_Protocol_App.c **** 			// Auxiliary digital control bytes
 276:..\..\FreeflyAPI/QX_Protocol_App.c **** 			PARSE_BITS_AS_UC(&FreeflyAPI.control.fiz_clearFaults_all_flag, 0, 1);
 606              		.loc 1 276 0 is_stmt 1
 607 028e 124B     		ldr	r3, .L126
 608 0290 1B78     		ldrb	r3, [r3]	@ zero_extendqisi2
 609 0292 2BB9     		cbnz	r3, .L62
 610              		.loc 1 276 0 is_stmt 0 discriminator 1
 611 0294 0122     		movs	r2, #1
 612 0296 0021     		movs	r1, #0
 613 0298 1848     		ldr	r0, .L126+36
 614 029a FFF7FEFF 		bl	AddBitsAsByte
 615              	.LVL64:
 616 029e 04E0     		b	.L63
 617              	.L62:
 618              		.loc 1 276 0 discriminator 2
 619 02a0 0122     		movs	r2, #1
 620 02a2 0021     		movs	r1, #0
 621 02a4 1548     		ldr	r0, .L126+36
 622 02a6 FFF7FEFF 		bl	GetBitsAsByte
 623              	.LVL65:
 624              	.L63:
 277:..\..\FreeflyAPI/QX_Protocol_App.c **** 			PARSE_BITS_AS_UC(&FreeflyAPI.control.fiz_autoCalStart_all_flag, 1, 1);
 625              		.loc 1 277 0 is_stmt 1
 626 02aa 0B4B     		ldr	r3, .L126
 627 02ac 1B78     		ldrb	r3, [r3]	@ zero_extendqisi2
 628 02ae 2BB9     		cbnz	r3, .L64
 629              		.loc 1 277 0 is_stmt 0 discriminator 1
ARM GAS  C:\Users\hamis\AppData\Local\Temp\ccwLgndb.s 			page 17


 630 02b0 0122     		movs	r2, #1
 631 02b2 1146     		mov	r1, r2
 632 02b4 1248     		ldr	r0, .L126+40
 633 02b6 FFF7FEFF 		bl	AddBitsAsByte
 634              	.LVL66:
 635 02ba 04E0     		b	.L65
 636              	.L64:
 637              		.loc 1 277 0 discriminator 2
 638 02bc 0122     		movs	r2, #1
 639 02be 1146     		mov	r1, r2
 640 02c0 0F48     		ldr	r0, .L126+40
 641 02c2 FFF7FEFF 		bl	GetBitsAsByte
 642              	.LVL67:
 643              	.L65:
 278:..\..\FreeflyAPI/QX_Protocol_App.c **** 			PARSE_BITS_AS_UC(&FreeflyAPI.control.fiz_record_button_flag, 4, 1);
 644              		.loc 1 278 0 is_stmt 1
 645 02c6 044B     		ldr	r3, .L126
 646 02c8 1B78     		ldrb	r3, [r3]	@ zero_extendqisi2
 647 02ca EBB9     		cbnz	r3, .L66
 648              		.loc 1 278 0 is_stmt 0 discriminator 1
 649 02cc 0122     		movs	r2, #1
 650 02ce 0421     		movs	r1, #4
 651 02d0 0C48     		ldr	r0, .L126+44
 652 02d2 FFF7FEFF 		bl	AddBitsAsByte
 653              	.LVL68:
 654 02d6 1CE0     		b	.L67
 655              	.L127:
 656              		.align	2
 657              	.L126:
 658 02d8 00000000 		.word	rw
 659 02dc 00000000 		.word	.LANCHOR0
 660 02e0 00FEFF46 		.word	1191181824
 661 02e4 20000000 		.word	.LANCHOR0+32
 662 02e8 00010038 		.word	939524352
 663 02ec 00FEFFC6 		.word	-956301824
 664 02f0 18000000 		.word	.LANCHOR0+24
 665 02f4 10000000 		.word	.LANCHOR0+16
 666 02f8 00FF7F47 		.word	1199570688
 667 02fc 40000000 		.word	.LANCHOR0+64
 668 0300 41000000 		.word	.LANCHOR0+65
 669 0304 42000000 		.word	.LANCHOR0+66
 670              	.L66:
 671              		.loc 1 278 0 discriminator 2
 672 0308 0122     		movs	r2, #1
 673 030a 0421     		movs	r1, #4
 674 030c 9D48     		ldr	r0, .L128
 675 030e FFF7FEFF 		bl	GetBitsAsByte
 676              	.LVL69:
 677              	.L67:
 279:..\..\FreeflyAPI/QX_Protocol_App.c **** 			PARSE_BITS_AS_UC(&FreeflyAPI.control.fiz_setSubRangeLim_F_flag, 5, 1);
 678              		.loc 1 279 0 is_stmt 1
 679 0312 9D4B     		ldr	r3, .L128+4
 680 0314 1B78     		ldrb	r3, [r3]	@ zero_extendqisi2
 681 0316 2BB9     		cbnz	r3, .L68
 682              		.loc 1 279 0 is_stmt 0 discriminator 1
 683 0318 0122     		movs	r2, #1
 684 031a 0521     		movs	r1, #5
ARM GAS  C:\Users\hamis\AppData\Local\Temp\ccwLgndb.s 			page 18


 685 031c 9B48     		ldr	r0, .L128+8
 686 031e FFF7FEFF 		bl	AddBitsAsByte
 687              	.LVL70:
 688 0322 04E0     		b	.L69
 689              	.L68:
 690              		.loc 1 279 0 discriminator 2
 691 0324 0122     		movs	r2, #1
 692 0326 0521     		movs	r1, #5
 693 0328 9848     		ldr	r0, .L128+8
 694 032a FFF7FEFF 		bl	GetBitsAsByte
 695              	.LVL71:
 696              	.L69:
 280:..\..\FreeflyAPI/QX_Protocol_App.c **** 			PARSE_BITS_AS_UC(&FreeflyAPI.control.fiz_setSubRangeLim_I_flag, 6, 1);
 697              		.loc 1 280 0 is_stmt 1
 698 032e 964B     		ldr	r3, .L128+4
 699 0330 1B78     		ldrb	r3, [r3]	@ zero_extendqisi2
 700 0332 2BB9     		cbnz	r3, .L70
 701              		.loc 1 280 0 is_stmt 0 discriminator 1
 702 0334 0122     		movs	r2, #1
 703 0336 0621     		movs	r1, #6
 704 0338 9548     		ldr	r0, .L128+12
 705 033a FFF7FEFF 		bl	AddBitsAsByte
 706              	.LVL72:
 707 033e 04E0     		b	.L71
 708              	.L70:
 709              		.loc 1 280 0 discriminator 2
 710 0340 0122     		movs	r2, #1
 711 0342 0621     		movs	r1, #6
 712 0344 9248     		ldr	r0, .L128+12
 713 0346 FFF7FEFF 		bl	GetBitsAsByte
 714              	.LVL73:
 715              	.L71:
 281:..\..\FreeflyAPI/QX_Protocol_App.c **** 			PARSE_BITS_AS_UC(&FreeflyAPI.control.fiz_setSubRangeLim_Z_flag, 7, 1);
 716              		.loc 1 281 0 is_stmt 1
 717 034a 8F4B     		ldr	r3, .L128+4
 718 034c 1B78     		ldrb	r3, [r3]	@ zero_extendqisi2
 719 034e 2BB9     		cbnz	r3, .L72
 720              		.loc 1 281 0 is_stmt 0 discriminator 1
 721 0350 0122     		movs	r2, #1
 722 0352 0721     		movs	r1, #7
 723 0354 8F48     		ldr	r0, .L128+16
 724 0356 FFF7FEFF 		bl	AddBitsAsByte
 725              	.LVL74:
 726 035a 04E0     		b	.L73
 727              	.L72:
 728              		.loc 1 281 0 discriminator 2
 729 035c 0122     		movs	r2, #1
 730 035e 0721     		movs	r1, #7
 731 0360 8C48     		ldr	r0, .L128+16
 732 0362 FFF7FEFF 		bl	GetBitsAsByte
 733              	.LVL75:
 734              	.L73:
 282:..\..\FreeflyAPI/QX_Protocol_App.c **** 			QX_Parser_AdvMsgPtr();
 735              		.loc 1 282 0 is_stmt 1
 736 0366 FFF7FEFF 		bl	QX_Parser_AdvMsgPtr
 737              	.LVL76:
 283:..\..\FreeflyAPI/QX_Protocol_App.c **** 			
ARM GAS  C:\Users\hamis\AppData\Local\Temp\ccwLgndb.s 			page 19


 284:..\..\FreeflyAPI/QX_Protocol_App.c **** 			// Reserved for Freefly Use
 285:..\..\FreeflyAPI/QX_Protocol_App.c **** 			temp_UC_buffer[0] = 0;
 738              		.loc 1 285 0
 739 036a 0023     		movs	r3, #0
 740 036c 8DF83430 		strb	r3, [sp, #52]
 286:..\..\FreeflyAPI/QX_Protocol_App.c **** 			PARSE_UC_AS_UC(temp_UC_buffer, 1, 0xFF, 0);
 741              		.loc 1 286 0
 742 0370 854B     		ldr	r3, .L128+4
 743 0372 1B78     		ldrb	r3, [r3]	@ zero_extendqisi2
 744 0374 23B9     		cbnz	r3, .L74
 745              		.loc 1 286 0 is_stmt 0 discriminator 1
 746 0376 0121     		movs	r1, #1
 747 0378 0DA8     		add	r0, sp, #52
 748 037a FFF7FEFF 		bl	AddUnsignedCharAsUnsignedChar
 749              	.LVL77:
 750 037e 7FE1     		b	.L17
 751              	.L74:
 752              		.loc 1 286 0 discriminator 2
 753 0380 0023     		movs	r3, #0
 754 0382 FF22     		movs	r2, #255
 755 0384 0121     		movs	r1, #1
 756 0386 0DA8     		add	r0, sp, #52
 757 0388 FFF7FEFF 		bl	GetUnsignedCharAsUnsignedChar
 758              	.LVL78:
 759 038c 78E1     		b	.L17
 760              	.LVL79:
 761              	.L16:
 287:..\..\FreeflyAPI/QX_Protocol_App.c **** 			
 288:..\..\FreeflyAPI/QX_Protocol_App.c **** 			break;
 289:..\..\FreeflyAPI/QX_Protocol_App.c **** 		
 290:..\..\FreeflyAPI/QX_Protocol_App.c **** 		case 287: // Status GTL, Combined Status, (RX,RY,RZ)-(TX,TY,TZ)-(LF,LI,LZ)  
 291:..\..\FreeflyAPI/QX_Protocol_App.c **** 
 292:..\..\FreeflyAPI/QX_Protocol_App.c **** 			// Bail if not receiving current value.
 293:..\..\FreeflyAPI/QX_Protocol_App.c **** 			if(Msg_p->Parse_Type != QX_PARSE_TYPE_CURVAL_RECV) break;
 762              		.loc 1 293 0 is_stmt 1
 763 038e 2378     		ldrb	r3, [r4]	@ zero_extendqisi2
 764 0390 012B     		cmp	r3, #1
 765 0392 40F07581 		bne	.L17
 294:..\..\FreeflyAPI/QX_Protocol_App.c **** 			
 295:..\..\FreeflyAPI/QX_Protocol_App.c **** 			// reserved
 296:..\..\FreeflyAPI/QX_Protocol_App.c **** 			PARSE_UC_AS_UC(temp_UC_buffer, 3, 0xFF, 0);
 766              		.loc 1 296 0
 767 0396 7C4B     		ldr	r3, .L128+4
 768 0398 1B78     		ldrb	r3, [r3]	@ zero_extendqisi2
 769 039a 23B9     		cbnz	r3, .L75
 770              		.loc 1 296 0 is_stmt 0 discriminator 1
 771 039c 0321     		movs	r1, #3
 772 039e 0DA8     		add	r0, sp, #52
 773 03a0 FFF7FEFF 		bl	AddUnsignedCharAsUnsignedChar
 774              	.LVL80:
 775 03a4 05E0     		b	.L76
 776              	.L75:
 777              		.loc 1 296 0 discriminator 2
 778 03a6 0023     		movs	r3, #0
 779 03a8 FF22     		movs	r2, #255
 780 03aa 0321     		movs	r1, #3
 781 03ac 0DA8     		add	r0, sp, #52
ARM GAS  C:\Users\hamis\AppData\Local\Temp\ccwLgndb.s 			page 20


 782 03ae FFF7FEFF 		bl	GetUnsignedCharAsUnsignedChar
 783              	.LVL81:
 784              	.L76:
 297:..\..\FreeflyAPI/QX_Protocol_App.c **** 			
 298:..\..\FreeflyAPI/QX_Protocol_App.c **** 			// Battery voltages
 299:..\..\FreeflyAPI/QX_Protocol_App.c **** 			PARSE_UC_AS_UC(temp_UC_buffer, 2, 0xFF, 0);
 785              		.loc 1 299 0 is_stmt 1
 786 03b2 754B     		ldr	r3, .L128+4
 787 03b4 1B78     		ldrb	r3, [r3]	@ zero_extendqisi2
 788 03b6 23B9     		cbnz	r3, .L77
 789              		.loc 1 299 0 is_stmt 0 discriminator 1
 790 03b8 0221     		movs	r1, #2
 791 03ba 0DA8     		add	r0, sp, #52
 792 03bc FFF7FEFF 		bl	AddUnsignedCharAsUnsignedChar
 793              	.LVL82:
 794 03c0 05E0     		b	.L78
 795              	.L77:
 796              		.loc 1 299 0 discriminator 2
 797 03c2 0023     		movs	r3, #0
 798 03c4 FF22     		movs	r2, #255
 799 03c6 0221     		movs	r1, #2
 800 03c8 0DA8     		add	r0, sp, #52
 801 03ca FFF7FEFF 		bl	GetUnsignedCharAsUnsignedChar
 802              	.LVL83:
 803              	.L78:
 300:..\..\FreeflyAPI/QX_Protocol_App.c **** 			FreeflyAPI.status.battery_v_left = ((float)temp_UC_buffer[0] * 0.1f) + 10.0f;
 804              		.loc 1 300 0 is_stmt 1
 805 03ce 9DF83400 		ldrb	r0, [sp, #52]	@ zero_extendqisi2
 806 03d2 FFF7FEFF 		bl	__aeabi_ui2f
 807              	.LVL84:
 808 03d6 7049     		ldr	r1, .L128+20
 809 03d8 FFF7FEFF 		bl	__aeabi_fmul
 810              	.LVL85:
 811 03dc 6F49     		ldr	r1, .L128+24
 812 03de FFF7FEFF 		bl	__aeabi_fadd
 813              	.LVL86:
 814 03e2 0546     		mov	r5, r0
 815 03e4 6E4E     		ldr	r6, .L128+28
 816 03e6 B064     		str	r0, [r6, #72]	@ float
 301:..\..\FreeflyAPI/QX_Protocol_App.c **** 			FreeflyAPI.status.battery_v_right = ((float)temp_UC_buffer[1] * 0.1f) + 10.0f;
 817              		.loc 1 301 0
 818 03e8 9DF83500 		ldrb	r0, [sp, #53]	@ zero_extendqisi2
 819 03ec FFF7FEFF 		bl	__aeabi_ui2f
 820              	.LVL87:
 821 03f0 6949     		ldr	r1, .L128+20
 822 03f2 FFF7FEFF 		bl	__aeabi_fmul
 823              	.LVL88:
 824 03f6 6949     		ldr	r1, .L128+24
 825 03f8 FFF7FEFF 		bl	__aeabi_fadd
 826              	.LVL89:
 827 03fc 0446     		mov	r4, r0
 828              	.LVL90:
 829 03fe F064     		str	r0, [r6, #76]	@ float
 302:..\..\FreeflyAPI/QX_Protocol_App.c **** 			if (FreeflyAPI.status.battery_v_left == 10.0f) FreeflyAPI.status.battery_v_left = 0;
 830              		.loc 1 302 0
 831 0400 6649     		ldr	r1, .L128+24
 832 0402 2846     		mov	r0, r5
ARM GAS  C:\Users\hamis\AppData\Local\Temp\ccwLgndb.s 			page 21


 833 0404 FFF7FEFF 		bl	__aeabi_fcmpeq
 834              	.LVL91:
 835 0408 08B1     		cbz	r0, .L79
 836              		.loc 1 302 0 is_stmt 0 discriminator 1
 837 040a 0022     		movs	r2, #0
 838 040c B264     		str	r2, [r6, #72]	@ float
 839              	.L79:
 303:..\..\FreeflyAPI/QX_Protocol_App.c **** 			if (FreeflyAPI.status.battery_v_right == 10.0f) FreeflyAPI.status.battery_v_right = 0;
 840              		.loc 1 303 0 is_stmt 1
 841 040e 6349     		ldr	r1, .L128+24
 842 0410 2046     		mov	r0, r4
 843 0412 FFF7FEFF 		bl	__aeabi_fcmpeq
 844              	.LVL92:
 845 0416 10B1     		cbz	r0, .L81
 846              		.loc 1 303 0 is_stmt 0 discriminator 1
 847 0418 0022     		movs	r2, #0
 848 041a 614B     		ldr	r3, .L128+28
 849 041c DA64     		str	r2, [r3, #76]	@ float
 850              	.L81:
 304:..\..\FreeflyAPI/QX_Protocol_App.c **** 		
 305:..\..\FreeflyAPI/QX_Protocol_App.c **** 			// Gimbal status
 306:..\..\FreeflyAPI/QX_Protocol_App.c **** 			PARSE_UC_AS_UC(&FreeflyAPI.status.gimbal_Status1, 1, 0xFF, 0);
 851              		.loc 1 306 0 is_stmt 1
 852 041e 5A4B     		ldr	r3, .L128+4
 853 0420 1B78     		ldrb	r3, [r3]	@ zero_extendqisi2
 854 0422 23B9     		cbnz	r3, .L83
 855              		.loc 1 306 0 is_stmt 0 discriminator 1
 856 0424 0121     		movs	r1, #1
 857 0426 5F48     		ldr	r0, .L128+32
 858 0428 FFF7FEFF 		bl	AddUnsignedCharAsUnsignedChar
 859              	.LVL93:
 860 042c 05E0     		b	.L84
 861              	.L83:
 862              		.loc 1 306 0 discriminator 2
 863 042e 0023     		movs	r3, #0
 864 0430 FF22     		movs	r2, #255
 865 0432 0121     		movs	r1, #1
 866 0434 5B48     		ldr	r0, .L128+32
 867 0436 FFF7FEFF 		bl	GetUnsignedCharAsUnsignedChar
 868              	.LVL94:
 869              	.L84:
 307:..\..\FreeflyAPI/QX_Protocol_App.c **** 			PARSE_UC_AS_UC(&FreeflyAPI.status.gimbal_Status2, 1, 0xFF, 0);
 870              		.loc 1 307 0 is_stmt 1
 871 043a 534B     		ldr	r3, .L128+4
 872 043c 1B78     		ldrb	r3, [r3]	@ zero_extendqisi2
 873 043e 23B9     		cbnz	r3, .L85
 874              		.loc 1 307 0 is_stmt 0 discriminator 1
 875 0440 0121     		movs	r1, #1
 876 0442 5948     		ldr	r0, .L128+36
 877 0444 FFF7FEFF 		bl	AddUnsignedCharAsUnsignedChar
 878              	.LVL95:
 879 0448 05E0     		b	.L86
 880              	.L85:
 881              		.loc 1 307 0 discriminator 2
 882 044a 0023     		movs	r3, #0
 883 044c FF22     		movs	r2, #255
 884 044e 0121     		movs	r1, #1
ARM GAS  C:\Users\hamis\AppData\Local\Temp\ccwLgndb.s 			page 22


 885 0450 5548     		ldr	r0, .L128+36
 886 0452 FFF7FEFF 		bl	GetUnsignedCharAsUnsignedChar
 887              	.LVL96:
 888              	.L86:
 308:..\..\FreeflyAPI/QX_Protocol_App.c **** 			
 309:..\..\FreeflyAPI/QX_Protocol_App.c **** 			// Gimbal attitude quaternion
 310:..\..\FreeflyAPI/QX_Protocol_App.c **** 			PARSE_FL_AS_SS(&FreeflyAPI.status.gimbal_r, 1, 32767.0f, -32767.0f, 32767.0f);
 889              		.loc 1 310 0 is_stmt 1
 890 0456 4C4B     		ldr	r3, .L128+4
 891 0458 1B78     		ldrb	r3, [r3]	@ zero_extendqisi2
 892 045a 2BB9     		cbnz	r3, .L87
 893              		.loc 1 310 0 is_stmt 0 discriminator 1
 894 045c 534A     		ldr	r2, .L128+40
 895 045e 0121     		movs	r1, #1
 896 0460 5348     		ldr	r0, .L128+44
 897 0462 FFF7FEFF 		bl	AddFloatAsSignedShort
 898              	.LVL97:
 899 0466 07E0     		b	.L88
 900              	.L87:
 901              		.loc 1 310 0 discriminator 2
 902 0468 524B     		ldr	r3, .L128+48
 903 046a 0093     		str	r3, [sp]	@ float
 904 046c 524B     		ldr	r3, .L128+52
 905 046e 4F4A     		ldr	r2, .L128+40
 906 0470 0121     		movs	r1, #1
 907 0472 4F48     		ldr	r0, .L128+44
 908 0474 FFF7FEFF 		bl	GetFloatAsSignedShort
 909              	.LVL98:
 910              	.L88:
 311:..\..\FreeflyAPI/QX_Protocol_App.c **** 			PARSE_FL_AS_SS(&FreeflyAPI.status.gimbal_i, 1, 32767.0f, -32767.0f, 32767.0f);
 911              		.loc 1 311 0 is_stmt 1
 912 0478 434B     		ldr	r3, .L128+4
 913 047a 1B78     		ldrb	r3, [r3]	@ zero_extendqisi2
 914 047c 2BB9     		cbnz	r3, .L89
 915              		.loc 1 311 0 is_stmt 0 discriminator 1
 916 047e 4B4A     		ldr	r2, .L128+40
 917 0480 0121     		movs	r1, #1
 918 0482 4E48     		ldr	r0, .L128+56
 919 0484 FFF7FEFF 		bl	AddFloatAsSignedShort
 920              	.LVL99:
 921 0488 07E0     		b	.L90
 922              	.L89:
 923              		.loc 1 311 0 discriminator 2
 924 048a 4A4B     		ldr	r3, .L128+48
 925 048c 0093     		str	r3, [sp]	@ float
 926 048e 4A4B     		ldr	r3, .L128+52
 927 0490 464A     		ldr	r2, .L128+40
 928 0492 0121     		movs	r1, #1
 929 0494 4948     		ldr	r0, .L128+56
 930 0496 FFF7FEFF 		bl	GetFloatAsSignedShort
 931              	.LVL100:
 932              	.L90:
 312:..\..\FreeflyAPI/QX_Protocol_App.c **** 			PARSE_FL_AS_SS(&FreeflyAPI.status.gimbal_j, 1, 32767.0f, -32767.0f, 32767.0f);
 933              		.loc 1 312 0 is_stmt 1
 934 049a 3B4B     		ldr	r3, .L128+4
 935 049c 1B78     		ldrb	r3, [r3]	@ zero_extendqisi2
 936 049e 2BB9     		cbnz	r3, .L91
ARM GAS  C:\Users\hamis\AppData\Local\Temp\ccwLgndb.s 			page 23


 937              		.loc 1 312 0 is_stmt 0 discriminator 1
 938 04a0 424A     		ldr	r2, .L128+40
 939 04a2 0121     		movs	r1, #1
 940 04a4 4648     		ldr	r0, .L128+60
 941 04a6 FFF7FEFF 		bl	AddFloatAsSignedShort
 942              	.LVL101:
 943 04aa 07E0     		b	.L92
 944              	.L91:
 945              		.loc 1 312 0 discriminator 2
 946 04ac 414B     		ldr	r3, .L128+48
 947 04ae 0093     		str	r3, [sp]	@ float
 948 04b0 414B     		ldr	r3, .L128+52
 949 04b2 3E4A     		ldr	r2, .L128+40
 950 04b4 0121     		movs	r1, #1
 951 04b6 4248     		ldr	r0, .L128+60
 952 04b8 FFF7FEFF 		bl	GetFloatAsSignedShort
 953              	.LVL102:
 954              	.L92:
 313:..\..\FreeflyAPI/QX_Protocol_App.c **** 			PARSE_FL_AS_SS(&FreeflyAPI.status.gimbal_k, 1, 32767.0f, -32767.0f, 32767.0f);
 955              		.loc 1 313 0 is_stmt 1
 956 04bc 324B     		ldr	r3, .L128+4
 957 04be 1B78     		ldrb	r3, [r3]	@ zero_extendqisi2
 958 04c0 2BB9     		cbnz	r3, .L93
 959              		.loc 1 313 0 is_stmt 0 discriminator 1
 960 04c2 3A4A     		ldr	r2, .L128+40
 961 04c4 0121     		movs	r1, #1
 962 04c6 3F48     		ldr	r0, .L128+64
 963 04c8 FFF7FEFF 		bl	AddFloatAsSignedShort
 964              	.LVL103:
 965 04cc 07E0     		b	.L94
 966              	.L93:
 967              		.loc 1 313 0 discriminator 2
 968 04ce 394B     		ldr	r3, .L128+48
 969 04d0 0093     		str	r3, [sp]	@ float
 970 04d2 394B     		ldr	r3, .L128+52
 971 04d4 354A     		ldr	r2, .L128+40
 972 04d6 0121     		movs	r1, #1
 973 04d8 3A48     		ldr	r0, .L128+64
 974 04da FFF7FEFF 		bl	GetFloatAsSignedShort
 975              	.LVL104:
 976              	.L94:
 314:..\..\FreeflyAPI/QX_Protocol_App.c **** 			
 315:..\..\FreeflyAPI/QX_Protocol_App.c **** 			// reserved
 316:..\..\FreeflyAPI/QX_Protocol_App.c **** 			PARSE_UC_AS_UC(temp_UC_buffer, 2, 0xFF, 0);
 977              		.loc 1 316 0 is_stmt 1
 978 04de 2A4B     		ldr	r3, .L128+4
 979 04e0 1B78     		ldrb	r3, [r3]	@ zero_extendqisi2
 980 04e2 23B9     		cbnz	r3, .L95
 981              		.loc 1 316 0 is_stmt 0 discriminator 1
 982 04e4 0221     		movs	r1, #2
 983 04e6 0DA8     		add	r0, sp, #52
 984 04e8 FFF7FEFF 		bl	AddUnsignedCharAsUnsignedChar
 985              	.LVL105:
 986 04ec 05E0     		b	.L96
 987              	.L95:
 988              		.loc 1 316 0 discriminator 2
 989 04ee 0023     		movs	r3, #0
ARM GAS  C:\Users\hamis\AppData\Local\Temp\ccwLgndb.s 			page 24


 990 04f0 FF22     		movs	r2, #255
 991 04f2 0221     		movs	r1, #2
 992 04f4 0DA8     		add	r0, sp, #52
 993 04f6 FFF7FEFF 		bl	GetUnsignedCharAsUnsignedChar
 994              	.LVL106:
 995              	.L96:
 317:..\..\FreeflyAPI/QX_Protocol_App.c **** 			
 318:..\..\FreeflyAPI/QX_Protocol_App.c **** 			// fiz status
 319:..\..\FreeflyAPI/QX_Protocol_App.c **** 			PARSE_BITS_AS_UC(&FreeflyAPI.status.focus_range_limits_active, 0, 1);
 996              		.loc 1 319 0 is_stmt 1
 997 04fa 234B     		ldr	r3, .L128+4
 998 04fc 1B78     		ldrb	r3, [r3]	@ zero_extendqisi2
 999 04fe 2BB9     		cbnz	r3, .L97
 1000              		.loc 1 319 0 is_stmt 0 discriminator 1
 1001 0500 0122     		movs	r2, #1
 1002 0502 0021     		movs	r1, #0
 1003 0504 3048     		ldr	r0, .L128+68
 1004 0506 FFF7FEFF 		bl	AddBitsAsByte
 1005              	.LVL107:
 1006 050a 04E0     		b	.L98
 1007              	.L97:
 1008              		.loc 1 319 0 discriminator 2
 1009 050c 0122     		movs	r2, #1
 1010 050e 0021     		movs	r1, #0
 1011 0510 2D48     		ldr	r0, .L128+68
 1012 0512 FFF7FEFF 		bl	GetBitsAsByte
 1013              	.LVL108:
 1014              	.L98:
 320:..\..\FreeflyAPI/QX_Protocol_App.c **** 			PARSE_BITS_AS_UC(&FreeflyAPI.status.iris_range_limits_active, 1, 1);
 1015              		.loc 1 320 0 is_stmt 1
 1016 0516 1C4B     		ldr	r3, .L128+4
 1017 0518 1B78     		ldrb	r3, [r3]	@ zero_extendqisi2
 1018 051a 2BB9     		cbnz	r3, .L99
 1019              		.loc 1 320 0 is_stmt 0 discriminator 1
 1020 051c 0122     		movs	r2, #1
 1021 051e 1146     		mov	r1, r2
 1022 0520 2A48     		ldr	r0, .L128+72
 1023 0522 FFF7FEFF 		bl	AddBitsAsByte
 1024              	.LVL109:
 1025 0526 04E0     		b	.L100
 1026              	.L99:
 1027              		.loc 1 320 0 discriminator 2
 1028 0528 0122     		movs	r2, #1
 1029 052a 1146     		mov	r1, r2
 1030 052c 2748     		ldr	r0, .L128+72
 1031 052e FFF7FEFF 		bl	GetBitsAsByte
 1032              	.LVL110:
 1033              	.L100:
 321:..\..\FreeflyAPI/QX_Protocol_App.c **** 			PARSE_BITS_AS_UC(&FreeflyAPI.status.zoom_range_limits_active, 2, 1);
 1034              		.loc 1 321 0 is_stmt 1
 1035 0532 154B     		ldr	r3, .L128+4
 1036 0534 1B78     		ldrb	r3, [r3]	@ zero_extendqisi2
 1037 0536 2BB9     		cbnz	r3, .L101
 1038              		.loc 1 321 0 is_stmt 0 discriminator 1
 1039 0538 0122     		movs	r2, #1
 1040 053a 0221     		movs	r1, #2
 1041 053c 2448     		ldr	r0, .L128+76
ARM GAS  C:\Users\hamis\AppData\Local\Temp\ccwLgndb.s 			page 25


 1042 053e FFF7FEFF 		bl	AddBitsAsByte
 1043              	.LVL111:
 1044 0542 04E0     		b	.L102
 1045              	.L101:
 1046              		.loc 1 321 0 discriminator 2
 1047 0544 0122     		movs	r2, #1
 1048 0546 0221     		movs	r1, #2
 1049 0548 2148     		ldr	r0, .L128+76
 1050 054a FFF7FEFF 		bl	GetBitsAsByte
 1051              	.LVL112:
 1052              	.L102:
 322:..\..\FreeflyAPI/QX_Protocol_App.c **** 			QX_Parser_AdvMsgPtr();
 1053              		.loc 1 322 0 is_stmt 1
 1054 054e FFF7FEFF 		bl	QX_Parser_AdvMsgPtr
 1055              	.LVL113:
 323:..\..\FreeflyAPI/QX_Protocol_App.c **** 			
 324:..\..\FreeflyAPI/QX_Protocol_App.c **** 			// camera status
 325:..\..\FreeflyAPI/QX_Protocol_App.c **** 			PARSE_BITS_AS_UC(&FreeflyAPI.status.camera_recording, 0, 1);
 1056              		.loc 1 325 0
 1057 0552 0D4B     		ldr	r3, .L128+4
 1058 0554 1B78     		ldrb	r3, [r3]	@ zero_extendqisi2
 1059 0556 2BB9     		cbnz	r3, .L103
 1060              		.loc 1 325 0 is_stmt 0 discriminator 1
 1061 0558 0122     		movs	r2, #1
 1062 055a 0021     		movs	r1, #0
 1063 055c 1D48     		ldr	r0, .L128+80
 1064 055e FFF7FEFF 		bl	AddBitsAsByte
 1065              	.LVL114:
 1066 0562 04E0     		b	.L104
 1067              	.L103:
 1068              		.loc 1 325 0 discriminator 2
 1069 0564 0122     		movs	r2, #1
 1070 0566 0021     		movs	r1, #0
 1071 0568 1A48     		ldr	r0, .L128+80
 1072 056a FFF7FEFF 		bl	GetBitsAsByte
 1073              	.LVL115:
 1074              	.L104:
 326:..\..\FreeflyAPI/QX_Protocol_App.c **** 			QX_Parser_AdvMsgPtr();
 1075              		.loc 1 326 0 is_stmt 1
 1076 056e FFF7FEFF 		bl	QX_Parser_AdvMsgPtr
 1077              	.LVL116:
 327:..\..\FreeflyAPI/QX_Protocol_App.c **** 			
 328:..\..\FreeflyAPI/QX_Protocol_App.c **** 			// fiz axis states
 329:..\..\FreeflyAPI/QX_Protocol_App.c **** 			PARSE_UC_AS_UC((uint8_t *)&FreeflyAPI.status.focus_state, 1, 0xFF, 0);
 1078              		.loc 1 329 0
 1079 0572 054B     		ldr	r3, .L128+4
 1080 0574 1B78     		ldrb	r3, [r3]	@ zero_extendqisi2
 1081 0576 8BBB     		cbnz	r3, .L105
 1082              		.loc 1 329 0 is_stmt 0 discriminator 1
 1083 0578 0121     		movs	r1, #1
 1084 057a 1748     		ldr	r0, .L128+84
 1085 057c FFF7FEFF 		bl	AddUnsignedCharAsUnsignedChar
 1086              	.LVL117:
 1087 0580 32E0     		b	.L106
 1088              	.L129:
 1089 0582 00BF     		.align	2
 1090              	.L128:
ARM GAS  C:\Users\hamis\AppData\Local\Temp\ccwLgndb.s 			page 26


 1091 0584 42000000 		.word	.LANCHOR0+66
 1092 0588 00000000 		.word	rw
 1093 058c 43000000 		.word	.LANCHOR0+67
 1094 0590 44000000 		.word	.LANCHOR0+68
 1095 0594 45000000 		.word	.LANCHOR0+69
 1096 0598 CDCCCC3D 		.word	1036831949
 1097 059c 00002041 		.word	1092616192
 1098 05a0 00000000 		.word	.LANCHOR0
 1099 05a4 50000000 		.word	.LANCHOR0+80
 1100 05a8 51000000 		.word	.LANCHOR0+81
 1101 05ac 00FEFF46 		.word	1191181824
 1102 05b0 60000000 		.word	.LANCHOR0+96
 1103 05b4 00010038 		.word	939524352
 1104 05b8 00FEFFC6 		.word	-956301824
 1105 05bc 54000000 		.word	.LANCHOR0+84
 1106 05c0 58000000 		.word	.LANCHOR0+88
 1107 05c4 5C000000 		.word	.LANCHOR0+92
 1108 05c8 6E000000 		.word	.LANCHOR0+110
 1109 05cc 6F000000 		.word	.LANCHOR0+111
 1110 05d0 70000000 		.word	.LANCHOR0+112
 1111 05d4 72000000 		.word	.LANCHOR0+114
 1112 05d8 6A000000 		.word	.LANCHOR0+106
 1113              	.L105:
 1114              		.loc 1 329 0 discriminator 2
 1115 05dc 0023     		movs	r3, #0
 1116 05de FF22     		movs	r2, #255
 1117 05e0 0121     		movs	r1, #1
 1118 05e2 2A48     		ldr	r0, .L130
 1119 05e4 FFF7FEFF 		bl	GetUnsignedCharAsUnsignedChar
 1120              	.LVL118:
 1121              	.L106:
 330:..\..\FreeflyAPI/QX_Protocol_App.c **** 			PARSE_UC_AS_UC((uint8_t *)&FreeflyAPI.status.iris_state, 1, 0xFF, 0);
 1122              		.loc 1 330 0 is_stmt 1
 1123 05e8 294B     		ldr	r3, .L130+4
 1124 05ea 1B78     		ldrb	r3, [r3]	@ zero_extendqisi2
 1125 05ec 23B9     		cbnz	r3, .L107
 1126              		.loc 1 330 0 is_stmt 0 discriminator 1
 1127 05ee 0121     		movs	r1, #1
 1128 05f0 2848     		ldr	r0, .L130+8
 1129 05f2 FFF7FEFF 		bl	AddUnsignedCharAsUnsignedChar
 1130              	.LVL119:
 1131 05f6 05E0     		b	.L108
 1132              	.L107:
 1133              		.loc 1 330 0 discriminator 2
 1134 05f8 0023     		movs	r3, #0
 1135 05fa FF22     		movs	r2, #255
 1136 05fc 0121     		movs	r1, #1
 1137 05fe 2548     		ldr	r0, .L130+8
 1138 0600 FFF7FEFF 		bl	GetUnsignedCharAsUnsignedChar
 1139              	.LVL120:
 1140              	.L108:
 331:..\..\FreeflyAPI/QX_Protocol_App.c **** 			PARSE_UC_AS_UC((uint8_t *)&FreeflyAPI.status.zoom_state, 1, 0xFF, 0);
 1141              		.loc 1 331 0 is_stmt 1
 1142 0604 224B     		ldr	r3, .L130+4
 1143 0606 1B78     		ldrb	r3, [r3]	@ zero_extendqisi2
 1144 0608 23B9     		cbnz	r3, .L109
 1145              		.loc 1 331 0 is_stmt 0 discriminator 1
ARM GAS  C:\Users\hamis\AppData\Local\Temp\ccwLgndb.s 			page 27


 1146 060a 0121     		movs	r1, #1
 1147 060c 2248     		ldr	r0, .L130+12
 1148 060e FFF7FEFF 		bl	AddUnsignedCharAsUnsignedChar
 1149              	.LVL121:
 1150 0612 05E0     		b	.L110
 1151              	.L109:
 1152              		.loc 1 331 0 discriminator 2
 1153 0614 0023     		movs	r3, #0
 1154 0616 FF22     		movs	r2, #255
 1155 0618 0121     		movs	r1, #1
 1156 061a 1F48     		ldr	r0, .L130+12
 1157 061c FFF7FEFF 		bl	GetUnsignedCharAsUnsignedChar
 1158              	.LVL122:
 1159              	.L110:
 332:..\..\FreeflyAPI/QX_Protocol_App.c **** 			
 333:..\..\FreeflyAPI/QX_Protocol_App.c **** 			// fiz axis positions
 334:..\..\FreeflyAPI/QX_Protocol_App.c **** 			PARSE_US_AS_US(&FreeflyAPI.status.focus_position, 1, 0xFFFF, 0);
 1160              		.loc 1 334 0 is_stmt 1
 1161 0620 1B4B     		ldr	r3, .L130+4
 1162 0622 1B78     		ldrb	r3, [r3]	@ zero_extendqisi2
 1163 0624 23B9     		cbnz	r3, .L111
 1164              		.loc 1 334 0 is_stmt 0 discriminator 1
 1165 0626 0121     		movs	r1, #1
 1166 0628 1C48     		ldr	r0, .L130+16
 1167 062a FFF7FEFF 		bl	AddUnsignedShortAsUnsignedShort
 1168              	.LVL123:
 1169 062e 06E0     		b	.L112
 1170              	.L111:
 1171              		.loc 1 334 0 discriminator 2
 1172 0630 0023     		movs	r3, #0
 1173 0632 4FF6FF72 		movw	r2, #65535
 1174 0636 0121     		movs	r1, #1
 1175 0638 1848     		ldr	r0, .L130+16
 1176 063a FFF7FEFF 		bl	GetUnsignedShortAsUnsignedShort
 1177              	.LVL124:
 1178              	.L112:
 335:..\..\FreeflyAPI/QX_Protocol_App.c **** 			PARSE_US_AS_US(&FreeflyAPI.status.iris_position, 1, 0xFFFF, 0);
 1179              		.loc 1 335 0 is_stmt 1
 1180 063e 144B     		ldr	r3, .L130+4
 1181 0640 1B78     		ldrb	r3, [r3]	@ zero_extendqisi2
 1182 0642 23B9     		cbnz	r3, .L113
 1183              		.loc 1 335 0 is_stmt 0 discriminator 1
 1184 0644 0121     		movs	r1, #1
 1185 0646 1648     		ldr	r0, .L130+20
 1186 0648 FFF7FEFF 		bl	AddUnsignedShortAsUnsignedShort
 1187              	.LVL125:
 1188 064c 06E0     		b	.L114
 1189              	.L113:
 1190              		.loc 1 335 0 discriminator 2
 1191 064e 0023     		movs	r3, #0
 1192 0650 4FF6FF72 		movw	r2, #65535
 1193 0654 0121     		movs	r1, #1
 1194 0656 1248     		ldr	r0, .L130+20
 1195 0658 FFF7FEFF 		bl	GetUnsignedShortAsUnsignedShort
 1196              	.LVL126:
 1197              	.L114:
 336:..\..\FreeflyAPI/QX_Protocol_App.c **** 			PARSE_US_AS_US(&FreeflyAPI.status.zoom_position, 1, 0xFFFF, 0);
ARM GAS  C:\Users\hamis\AppData\Local\Temp\ccwLgndb.s 			page 28


 1198              		.loc 1 336 0 is_stmt 1
 1199 065c 0C4B     		ldr	r3, .L130+4
 1200 065e 1B78     		ldrb	r3, [r3]	@ zero_extendqisi2
 1201 0660 23B9     		cbnz	r3, .L115
 1202              		.loc 1 336 0 is_stmt 0 discriminator 1
 1203 0662 0121     		movs	r1, #1
 1204 0664 0F48     		ldr	r0, .L130+24
 1205 0666 FFF7FEFF 		bl	AddUnsignedShortAsUnsignedShort
 1206              	.LVL127:
 1207 066a 09E0     		b	.L17
 1208              	.L115:
 1209              		.loc 1 336 0 discriminator 2
 1210 066c 0023     		movs	r3, #0
 1211 066e 4FF6FF72 		movw	r2, #65535
 1212 0672 0121     		movs	r1, #1
 1213 0674 0B48     		ldr	r0, .L130+24
 1214 0676 FFF7FEFF 		bl	GetUnsignedShortAsUnsignedShort
 1215              	.LVL128:
 1216 067a 01E0     		b	.L17
 1217              	.LVL129:
 1218              	.L124:
 337:..\..\FreeflyAPI/QX_Protocol_App.c **** 			
 338:..\..\FreeflyAPI/QX_Protocol_App.c **** 			break;
 339:..\..\FreeflyAPI/QX_Protocol_App.c **** 		
 340:..\..\FreeflyAPI/QX_Protocol_App.c **** 		default:
 341:..\..\FreeflyAPI/QX_Protocol_App.c **** 			Msg_p->AttNotHandled = 1;
 1219              		.loc 1 341 0 is_stmt 1
 1220 067c 0123     		movs	r3, #1
 1221 067e 2371     		strb	r3, [r4, #4]
 1222              	.LVL130:
 1223              	.L17:
 1224              	.LBE2:
 342:..\..\FreeflyAPI/QX_Protocol_App.c **** 			break;
 343:..\..\FreeflyAPI/QX_Protocol_App.c **** 		}
 344:..\..\FreeflyAPI/QX_Protocol_App.c **** 	return (uint8_t *)QX_Parser_GetMsgPtr();
 1225              		.loc 1 344 0
 1226 0680 FFF7FEFF 		bl	QX_Parser_GetMsgPtr
 1227              	.LVL131:
 345:..\..\FreeflyAPI/QX_Protocol_App.c **** }
 1228              		.loc 1 345 0
 1229 0684 10B0     		add	sp, sp, #64
 1230              		.cfi_def_cfa_offset 32
 1231              		@ sp needed
 1232 0686 BDE8F087 		pop	{r4, r5, r6, r7, r8, r9, r10, pc}
 1233              	.L131:
 1234 068a 00BF     		.align	2
 1235              	.L130:
 1236 068c 6A000000 		.word	.LANCHOR0+106
 1237 0690 00000000 		.word	rw
 1238 0694 6B000000 		.word	.LANCHOR0+107
 1239 0698 6C000000 		.word	.LANCHOR0+108
 1240 069c 64000000 		.word	.LANCHOR0+100
 1241 06a0 66000000 		.word	.LANCHOR0+102
 1242 06a4 68000000 		.word	.LANCHOR0+104
 1243              		.cfi_endproc
 1244              	.LFE3:
 1245              		.size	QX_ParsePacket_Cli_MoVI_Ctrl_CB, .-QX_ParsePacket_Cli_MoVI_Ctrl_CB
ARM GAS  C:\Users\hamis\AppData\Local\Temp\ccwLgndb.s 			page 29


 1246              		.section	.text.QX_SendMsg2CommsPort_CB,"ax",%progbits
 1247              		.align	2
 1248              		.global	QX_SendMsg2CommsPort_CB
 1249              		.thumb
 1250              		.thumb_func
 1251              		.type	QX_SendMsg2CommsPort_CB, %function
 1252              	QX_SendMsg2CommsPort_CB:
 1253              	.LFB4:
 346:..\..\FreeflyAPI/QX_Protocol_App.c **** 
 347:..\..\FreeflyAPI/QX_Protocol_App.c **** //----------------------------------------------------------------------------
 348:..\..\FreeflyAPI/QX_Protocol_App.c **** // Send Tx Message to Comms Port
 349:..\..\FreeflyAPI/QX_Protocol_App.c **** // This is an application specific function that directs the message to the appropriate communicati
 350:..\..\FreeflyAPI/QX_Protocol_App.c **** void QX_SendMsg2CommsPort_CB(QX_Msg_t *TxMsg_p)
 351:..\..\FreeflyAPI/QX_Protocol_App.c **** {
 1254              		.loc 1 351 0
 1255              		.cfi_startproc
 1256              		@ args = 0, pretend = 0, frame = 0
 1257              		@ frame_needed = 0, uses_anonymous_args = 0
 1258              	.LVL132:
 1259 0000 38B5     		push	{r3, r4, r5, lr}
 1260              		.cfi_def_cfa_offset 16
 1261              		.cfi_offset 3, -16
 1262              		.cfi_offset 4, -12
 1263              		.cfi_offset 5, -8
 1264              		.cfi_offset 14, -4
 352:..\..\FreeflyAPI/QX_Protocol_App.c **** 	int i;
 353:..\..\FreeflyAPI/QX_Protocol_App.c **** 	
 354:..\..\FreeflyAPI/QX_Protocol_App.c **** 	// Send Message to Appropriate Port:
 355:..\..\FreeflyAPI/QX_Protocol_App.c **** 	switch (TxMsg_p->CommPort){
 1265              		.loc 1 355 0
 1266 0002 8379     		ldrb	r3, [r0, #6]	@ zero_extendqisi2
 1267 0004 83B9     		cbnz	r3, .L132
 1268 0006 0446     		mov	r4, r0
 356:..\..\FreeflyAPI/QX_Protocol_App.c **** 		
 357:..\..\FreeflyAPI/QX_Protocol_App.c **** 		case QX_COMMS_PORT_UART:
 358:..\..\FreeflyAPI/QX_Protocol_App.c **** 			TxMsg_p->MsgBuf_p = TxMsg_p->MsgBufStart_p;
 1269              		.loc 1 358 0
 1270 0008 436E     		ldr	r3, [r0, #100]
 1271 000a 0367     		str	r3, [r0, #112]
 1272              	.LVL133:
 359:..\..\FreeflyAPI/QX_Protocol_App.c **** 			for (i=0; i<TxMsg_p->MsgBuf_MsgLen; i++){
 1273              		.loc 1 359 0
 1274 000c 0025     		movs	r5, #0
 1275 000e 07E0     		b	.L135
 1276              	.LVL134:
 1277              	.L136:
 360:..\..\FreeflyAPI/QX_Protocol_App.c **** 				BufAdd(SEND_BUF_IDX, *TxMsg_p->MsgBuf_p++);
 1278              		.loc 1 360 0 discriminator 3
 1279 0010 236F     		ldr	r3, [r4, #112]
 1280 0012 5A1C     		adds	r2, r3, #1
 1281 0014 2267     		str	r2, [r4, #112]
 1282 0016 1978     		ldrb	r1, [r3]	@ zero_extendqisi2
 1283 0018 0120     		movs	r0, #1
 1284 001a FFF7FEFF 		bl	BufAdd
 1285              	.LVL135:
 359:..\..\FreeflyAPI/QX_Protocol_App.c **** 			for (i=0; i<TxMsg_p->MsgBuf_MsgLen; i++){
 1286              		.loc 1 359 0 discriminator 3
ARM GAS  C:\Users\hamis\AppData\Local\Temp\ccwLgndb.s 			page 30


 1287 001e 0135     		adds	r5, r5, #1
 1288              	.LVL136:
 1289              	.L135:
 359:..\..\FreeflyAPI/QX_Protocol_App.c **** 			for (i=0; i<TxMsg_p->MsgBuf_MsgLen; i++){
 1290              		.loc 1 359 0 is_stmt 0 discriminator 1
 1291 0020 B4F86230 		ldrh	r3, [r4, #98]
 1292 0024 9D42     		cmp	r5, r3
 1293 0026 F3DB     		blt	.L136
 1294              	.LVL137:
 1295              	.L132:
 1296 0028 38BD     		pop	{r3, r4, r5, pc}
 1297              		.cfi_endproc
 1298              	.LFE4:
 1299              		.size	QX_SendMsg2CommsPort_CB, .-QX_SendMsg2CommsPort_CB
 1300 002a 00BF     		.section	.text.QX_FwdMsg_CB,"ax",%progbits
 1301              		.align	2
 1302              		.global	QX_FwdMsg_CB
 1303              		.thumb
 1304              		.thumb_func
 1305              		.type	QX_FwdMsg_CB, %function
 1306              	QX_FwdMsg_CB:
 1307              	.LFB5:
 361:..\..\FreeflyAPI/QX_Protocol_App.c **** 			}
 362:..\..\FreeflyAPI/QX_Protocol_App.c **** 			break;
 363:..\..\FreeflyAPI/QX_Protocol_App.c **** 			
 364:..\..\FreeflyAPI/QX_Protocol_App.c **** 		default:
 365:..\..\FreeflyAPI/QX_Protocol_App.c **** 			break;
 366:..\..\FreeflyAPI/QX_Protocol_App.c **** 	}
 367:..\..\FreeflyAPI/QX_Protocol_App.c **** }
 368:..\..\FreeflyAPI/QX_Protocol_App.c **** 
 369:..\..\FreeflyAPI/QX_Protocol_App.c **** 
 370:..\..\FreeflyAPI/QX_Protocol_App.c **** //----------------------------------------------------------------------------
 371:..\..\FreeflyAPI/QX_Protocol_App.c **** // Allows the application to forward the message to selected other ports if needed
 372:..\..\FreeflyAPI/QX_Protocol_App.c **** void QX_FwdMsg_CB(QX_Msg_t *TxMsg_p)
 373:..\..\FreeflyAPI/QX_Protocol_App.c **** {
 1308              		.loc 1 373 0 is_stmt 1
 1309              		.cfi_startproc
 1310              		@ args = 0, pretend = 0, frame = 0
 1311              		@ frame_needed = 0, uses_anonymous_args = 0
 1312              		@ link register save eliminated.
 1313              	.LVL138:
 1314 0000 7047     		bx	lr
 1315              		.cfi_endproc
 1316              	.LFE5:
 1317              		.size	QX_FwdMsg_CB, .-QX_FwdMsg_CB
 1318 0002 00BF     		.section	.text.QX_GetTicks_ms,"ax",%progbits
 1319              		.align	2
 1320              		.global	QX_GetTicks_ms
 1321              		.thumb
 1322              		.thumb_func
 1323              		.type	QX_GetTicks_ms, %function
 1324              	QX_GetTicks_ms:
 1325              	.LFB6:
 374:..\..\FreeflyAPI/QX_Protocol_App.c **** 	
 375:..\..\FreeflyAPI/QX_Protocol_App.c **** }
 376:..\..\FreeflyAPI/QX_Protocol_App.c **** 
 377:..\..\FreeflyAPI/QX_Protocol_App.c **** 
ARM GAS  C:\Users\hamis\AppData\Local\Temp\ccwLgndb.s 			page 31


 378:..\..\FreeflyAPI/QX_Protocol_App.c **** //----------------------------------------------------------------------------
 379:..\..\FreeflyAPI/QX_Protocol_App.c **** uint32_t QX_GetTicks_ms(void)
 380:..\..\FreeflyAPI/QX_Protocol_App.c **** {
 1326              		.loc 1 380 0
 1327              		.cfi_startproc
 1328              		@ args = 0, pretend = 0, frame = 0
 1329              		@ frame_needed = 0, uses_anonymous_args = 0
 1330              		@ link register save eliminated.
 381:..\..\FreeflyAPI/QX_Protocol_App.c **** 	return 0;
 382:..\..\FreeflyAPI/QX_Protocol_App.c **** }
 1331              		.loc 1 382 0
 1332 0000 0020     		movs	r0, #0
 1333 0002 7047     		bx	lr
 1334              		.cfi_endproc
 1335              	.LFE6:
 1336              		.size	QX_GetTicks_ms, .-QX_GetTicks_ms
 1337              		.global	FreeflyAPI
 1338              		.comm	TEST_TX,10,4
 1339              		.comm	TEST_RX,10,4
 1340              		.data
 1341              		.align	2
 1342              		.set	.LANCHOR0,. + 0
 1343              		.type	FreeflyAPI, %object
 1344              		.size	FreeflyAPI, 116
 1345              	FreeflyAPI:
 1346 0000 00000000 		.word	ff_api_init
 1347 0004 00000000 		.word	ff_api_send
 1348 0008 00000000 		.space	4
 1349 000c 00       		.byte	0
 1350 000d 00000000 		.space	59
 1350      00000000 
 1350      00000000 
 1350      00000000 
 1350      00000000 
 1351 0048 00000000 		.word	0
 1352 004c 00000000 		.space	40
 1352      00000000 
 1352      00000000 
 1352      00000000 
 1352      00000000 
 1353              		.text
 1354              	.Letext0:
 1355              		.file 2 "d:\\program files (x86)\\psoc creator\\4.4\\psoc creator\\import\\gnu\\arm\\5.4.1\\arm-no
 1356              		.file 3 "d:\\program files (x86)\\psoc creator\\4.4\\psoc creator\\import\\gnu\\arm\\5.4.1\\arm-no
 1357              		.file 4 "..\\..\\FreeflyAPI\\QX_App_Config.h"
 1358              		.file 5 "..\\..\\FreeflyAPI\\QX_Protocol.h"
 1359              		.file 6 "..\\..\\FreeflyAPI\\QX_Parsing_Functions.h"
 1360              		.file 7 "..\\..\\FreeflyAPI\\QX_Protocol_App.h"
 1361              		.file 8 "..\\..\\FreeflyAPI\\simple_buffer.h"