ARM GAS  C:\Users\hamis\AppData\Local\Temp\ccsOK97v.s 			page 1


   1              		.syntax unified
   2              		.cpu cortex-m3
   3              		.fpu softvfp
   4              		.eabi_attribute 20, 1
   5              		.eabi_attribute 21, 1
   6              		.eabi_attribute 23, 3
   7              		.eabi_attribute 24, 1
   8              		.eabi_attribute 25, 1
   9              		.eabi_attribute 26, 1
  10              		.eabi_attribute 30, 1
  11              		.eabi_attribute 34, 1
  12              		.eabi_attribute 18, 4
  13              		.thumb
  14              		.syntax unified
  15              		.file	"QX_Protocol.c"
  16              		.text
  17              	.Ltext0:
  18              		.cfi_sections	.debug_frame
  19              		.section	.text.QX_InitMsg,"ax",%progbits
  20              		.align	2
  21              		.global	QX_InitMsg
  22              		.thumb
  23              		.thumb_func
  24              		.type	QX_InitMsg, %function
  25              	QX_InitMsg:
  26              	.LFB0:
  27              		.file 1 "..\\..\\FreeflyAPI\\QX_Protocol.c"
   1:..\..\FreeflyAPI/QX_Protocol.c **** /*-----------------------------------------------------------------
   2:..\..\FreeflyAPI/QX_Protocol.c **** 	Copyright 2017 Freefly Systems
   3:..\..\FreeflyAPI/QX_Protocol.c **** 
   4:..\..\FreeflyAPI/QX_Protocol.c **** 	Licensed under the Apache License, Version 2.0 (the "License");
   5:..\..\FreeflyAPI/QX_Protocol.c **** 	you may not use this file except in compliance with the License.
   6:..\..\FreeflyAPI/QX_Protocol.c **** 	You may obtain a copy of the License at
   7:..\..\FreeflyAPI/QX_Protocol.c **** 
   8:..\..\FreeflyAPI/QX_Protocol.c **** 		http://www.apache.org/licenses/LICENSE-2.0
   9:..\..\FreeflyAPI/QX_Protocol.c **** 
  10:..\..\FreeflyAPI/QX_Protocol.c **** 	Unless required by applicable law or agreed to in writing, software
  11:..\..\FreeflyAPI/QX_Protocol.c **** 	distributed under the License is distributed on an "AS IS" BASIS,
  12:..\..\FreeflyAPI/QX_Protocol.c **** 	WITHOUT WARRANTIES OR CONDITIONS OF ANY KIND, either express or implied.
  13:..\..\FreeflyAPI/QX_Protocol.c **** 	See the License for the specific language governing permissions and
  14:..\..\FreeflyAPI/QX_Protocol.c **** 	limitations under the License.
  15:..\..\FreeflyAPI/QX_Protocol.c **** 
  16:..\..\FreeflyAPI/QX_Protocol.c **** 	Filename: "QX_Protocol.c"
  17:..\..\FreeflyAPI/QX_Protocol.c **** 
  18:..\..\FreeflyAPI/QX_Protocol.c **** 	Description: This file provides the non-project specific portions of the Freefly QX Protocol
  19:..\..\FreeflyAPI/QX_Protocol.c **** 
  20:..\..\FreeflyAPI/QX_Protocol.c **** 	Reuse and Porting:
  21:..\..\FreeflyAPI/QX_Protocol.c **** 	This code is design for simple reuse in other projects
  22:..\..\FreeflyAPI/QX_Protocol.c **** 	by separation of the protocol code/data from the application code/data.
  23:..\..\FreeflyAPI/QX_Protocol.c **** 	Steps:
  24:..\..\FreeflyAPI/QX_Protocol.c **** 	1.	Include QX_Protocol.c/.h and QX_Parsing_Util.c/.h files in your new project. 
  25:..\..\FreeflyAPI/QX_Protocol.c **** 		These should not be modified for the application.
  26:..\..\FreeflyAPI/QX_Protocol.c **** 	2.	Write the QX_Protocol_App.c/.h files. Other projects can be used as a template.
  27:..\..\FreeflyAPI/QX_Protocol.c **** 		This contains the client/server parser callback functions, support functions, 
  28:..\..\FreeflyAPI/QX_Protocol.c **** 		and QX_SendMsg2CommsPort_CB() which should send the messages to the desired port.
  29:..\..\FreeflyAPI/QX_Protocol.c **** 		The message support arrays (QX_Cli_MsgSupport and QX_Srv_MsgSupport)
  30:..\..\FreeflyAPI/QX_Protocol.c **** 		should also be initialized with the supported messages and their length check enforcement status.
ARM GAS  C:\Users\hamis\AppData\Local\Temp\ccsOK97v.s 			page 2


  31:..\..\FreeflyAPI/QX_Protocol.c **** 	3. Define the number of servers and clients in your system by defining QX_NUM_SRV and QX_NUM_CLI i
  32:..\..\FreeflyAPI/QX_Protocol.c **** 	4. Assign parser callback functions for each client and server using QX_InitSrv() and QX_InitCli()
  33:..\..\FreeflyAPI/QX_Protocol.c **** 	5. Call the QX_Init() function at application startup.
  34:..\..\FreeflyAPI/QX_Protocol.c **** 	6. In a periodic loop (main, or control/comms task) call QX_StreamRxCharSM() for each port to rece
  35:..\..\FreeflyAPI/QX_Protocol.c **** 	7. Send any unsolicited messages such periodic current value messages (charting) and client read/w
  36:..\..\FreeflyAPI/QX_Protocol.c **** 
  37:..\..\FreeflyAPI/QX_Protocol.c **** 	There are 3 Main Message Types that can be sent via QX:
  38:..\..\FreeflyAPI/QX_Protocol.c **** 	CURRENT VALUE - Sent by server in response to read, write or periodically (charting). Recieved by 
  39:..\..\FreeflyAPI/QX_Protocol.c **** 	READ - Sent by client to request that a current value message be sent by server as a reply.
  40:..\..\FreeflyAPI/QX_Protocol.c **** 	WRITE (Absolute or Relative) - Sent by client to write data. Triggers a current value response by 
  41:..\..\FreeflyAPI/QX_Protocol.c **** 		
  42:..\..\FreeflyAPI/QX_Protocol.c **** -----------------------------------------------------------------*/
  43:..\..\FreeflyAPI/QX_Protocol.c **** 
  44:..\..\FreeflyAPI/QX_Protocol.c **** //****************************************************************************
  45:..\..\FreeflyAPI/QX_Protocol.c **** // Headers
  46:..\..\FreeflyAPI/QX_Protocol.c **** //****************************************************************************
  47:..\..\FreeflyAPI/QX_Protocol.c **** #include "QX_Protocol.h"			// Protocol Header
  48:..\..\FreeflyAPI/QX_Protocol.c **** #include "QX_App_Config.h"			// Configure application specific values in this file
  49:..\..\FreeflyAPI/QX_Protocol.c **** #include "QX_Protocol_App.h"		// This contains the application specific interface functions
  50:..\..\FreeflyAPI/QX_Protocol.c **** #include "QX_Parsing_Functions.h"	// Contains utility functions for parsing data in/out of raw buff
  51:..\..\FreeflyAPI/QX_Protocol.c **** #include <stdlib.h>
  52:..\..\FreeflyAPI/QX_Protocol.c **** #include <stdint.h>		// for Standard Data Types
  53:..\..\FreeflyAPI/QX_Protocol.c **** #include <string.h>		// for array and string manipulation
  54:..\..\FreeflyAPI/QX_Protocol.c **** 
  55:..\..\FreeflyAPI/QX_Protocol.c **** //****************************************************************************
  56:..\..\FreeflyAPI/QX_Protocol.c **** // Private Defines
  57:..\..\FreeflyAPI/QX_Protocol.c **** //****************************************************************************
  58:..\..\FreeflyAPI/QX_Protocol.c **** 
  59:..\..\FreeflyAPI/QX_Protocol.c **** //****************************************************************************
  60:..\..\FreeflyAPI/QX_Protocol.c **** // Private Types
  61:..\..\FreeflyAPI/QX_Protocol.c **** //****************************************************************************
  62:..\..\FreeflyAPI/QX_Protocol.c **** 
  63:..\..\FreeflyAPI/QX_Protocol.c **** //****************************************************************************
  64:..\..\FreeflyAPI/QX_Protocol.c **** // Public Global Vars
  65:..\..\FreeflyAPI/QX_Protocol.c **** //****************************************************************************
  66:..\..\FreeflyAPI/QX_Protocol.c **** 
  67:..\..\FreeflyAPI/QX_Protocol.c **** // The following arrays define the servers and clients present on this device. 
  68:..\..\FreeflyAPI/QX_Protocol.c **** // The qty of each (QX_NUM_xxx) is defined by the application in QX_App_Config.h
  69:..\..\FreeflyAPI/QX_Protocol.c **** QX_Server_t QX_Servers[QX_NUM_SRV];
  70:..\..\FreeflyAPI/QX_Protocol.c **** QX_Client_t QX_Clients[QX_NUM_CLI];
  71:..\..\FreeflyAPI/QX_Protocol.c **** 
  72:..\..\FreeflyAPI/QX_Protocol.c **** // Array of communication ports
  73:..\..\FreeflyAPI/QX_Protocol.c **** // QX_NUM_OF_PORTS is application specific and defined in QX_App_Config.h
  74:..\..\FreeflyAPI/QX_Protocol.c **** QX_CommsPort_t QX_CommsPorts[QX_NUM_OF_PORTS];		
  75:..\..\FreeflyAPI/QX_Protocol.c **** 
  76:..\..\FreeflyAPI/QX_Protocol.c **** // Freefly Extension FunctionsPointers
  77:..\..\FreeflyAPI/QX_Protocol.c **** void (*QX_BuildHeader_Legacy)(QX_Msg_t *Msg_p) = NULL;
  78:..\..\FreeflyAPI/QX_Protocol.c **** void (*QX_ParseHeader_Legacy)(QX_Msg_t *Msg_p) = NULL;
  79:..\..\FreeflyAPI/QX_Protocol.c **** 
  80:..\..\FreeflyAPI/QX_Protocol.c **** //****************************************************************************
  81:..\..\FreeflyAPI/QX_Protocol.c **** // Private Global Vars
  82:..\..\FreeflyAPI/QX_Protocol.c **** //****************************************************************************
  83:..\..\FreeflyAPI/QX_Protocol.c **** 
  84:..\..\FreeflyAPI/QX_Protocol.c **** 
  85:..\..\FreeflyAPI/QX_Protocol.c **** //****************************************************************************
  86:..\..\FreeflyAPI/QX_Protocol.c **** // Private Function Prototypes - DO NOT EXPOSE THESE TO APPLICATION
  87:..\..\FreeflyAPI/QX_Protocol.c **** //****************************************************************************
ARM GAS  C:\Users\hamis\AppData\Local\Temp\ccsOK97v.s 			page 3


  88:..\..\FreeflyAPI/QX_Protocol.c **** 
  89:..\..\FreeflyAPI/QX_Protocol.c **** // Initialize QX Message Structure with Defaults
  90:..\..\FreeflyAPI/QX_Protocol.c **** QX_Stat_e QX_InitMsg(QX_Msg_t *Msg_p);
  91:..\..\FreeflyAPI/QX_Protocol.c **** 
  92:..\..\FreeflyAPI/QX_Protocol.c **** // Recieve QX Message, Process and Respond if Neccessary
  93:..\..\FreeflyAPI/QX_Protocol.c **** QX_Stat_e QX_RxMsg(QX_Msg_t *RxMsg_p);
  94:..\..\FreeflyAPI/QX_Protocol.c **** 
  95:..\..\FreeflyAPI/QX_Protocol.c **** // Create message header and prepare it for payload parsing
  96:..\..\FreeflyAPI/QX_Protocol.c **** QX_Stat_e QX_TxMsg_Setup(QX_Msg_t *TxMsg_p);
  97:..\..\FreeflyAPI/QX_Protocol.c **** 
  98:..\..\FreeflyAPI/QX_Protocol.c **** // After message data has been parsed, finish building the message
  99:..\..\FreeflyAPI/QX_Protocol.c **** QX_Stat_e QX_TxMsg_Finish(QX_Msg_t *TxMsg_p);
 100:..\..\FreeflyAPI/QX_Protocol.c **** 
 101:..\..\FreeflyAPI/QX_Protocol.c **** // Recieve Functions
 102:..\..\FreeflyAPI/QX_Protocol.c **** void QX_Srv_Rx_Read(QX_Msg_t *RxMsg_p);
 103:..\..\FreeflyAPI/QX_Protocol.c **** void QX_Srv_Rx_Write(QX_Msg_t *RxMsg_p);
 104:..\..\FreeflyAPI/QX_Protocol.c **** void QX_Cli_Rx_CurVal(QX_Msg_t *RxMsg_p);
 105:..\..\FreeflyAPI/QX_Protocol.c **** 
 106:..\..\FreeflyAPI/QX_Protocol.c **** // Build QX Message Header in the buffer using data from the structure
 107:..\..\FreeflyAPI/QX_Protocol.c **** void QX_BuildHeader(QX_Msg_t *Msg_p);
 108:..\..\FreeflyAPI/QX_Protocol.c **** 
 109:..\..\FreeflyAPI/QX_Protocol.c **** // Parse QX Message buffer to populate the header structure
 110:..\..\FreeflyAPI/QX_Protocol.c **** void QX_ParseHeader(QX_Msg_t *Msg_p);
 111:..\..\FreeflyAPI/QX_Protocol.c **** 
 112:..\..\FreeflyAPI/QX_Protocol.c **** // Add a bit 7 extendable value to a buffer (up to 4 bytes, 28 bits)
 113:..\..\FreeflyAPI/QX_Protocol.c **** void QX_AddExtdValToBuf(uint8_t **p, uint32_t Val);
 114:..\..\FreeflyAPI/QX_Protocol.c **** 
 115:..\..\FreeflyAPI/QX_Protocol.c **** // Get a bit 7 extendable value from a buffer (up to 4 bytes, 28 bits)
 116:..\..\FreeflyAPI/QX_Protocol.c **** uint32_t QX_GetExtdValFromBuf(uint8_t **p);
 117:..\..\FreeflyAPI/QX_Protocol.c **** 
 118:..\..\FreeflyAPI/QX_Protocol.c **** // Calculate 8 bit checksum
 119:..\..\FreeflyAPI/QX_Protocol.c **** uint8_t QX_Calc8bChecksum(uint8_t *buf_p, uint32_t len);
 120:..\..\FreeflyAPI/QX_Protocol.c **** 
 121:..\..\FreeflyAPI/QX_Protocol.c **** // Calculate 32 bit checksum
 122:..\..\FreeflyAPI/QX_Protocol.c **** uint8_t QX_Calc32bChecksum(uint8_t *buf_p, uint32_t len);
 123:..\..\FreeflyAPI/QX_Protocol.c **** 
 124:..\..\FreeflyAPI/QX_Protocol.c **** //****************************************************************************
 125:..\..\FreeflyAPI/QX_Protocol.c **** // Private Function Definitions
 126:..\..\FreeflyAPI/QX_Protocol.c **** //****************************************************************************
 127:..\..\FreeflyAPI/QX_Protocol.c **** 
 128:..\..\FreeflyAPI/QX_Protocol.c **** //----------------------------------------------------------------------------
 129:..\..\FreeflyAPI/QX_Protocol.c **** // Initialize all data in a Message Structure
 130:..\..\FreeflyAPI/QX_Protocol.c **** QX_Stat_e QX_InitMsg(QX_Msg_t *Msg_p)
 131:..\..\FreeflyAPI/QX_Protocol.c **** {
  28              		.loc 1 131 0
  29              		.cfi_startproc
  30              		@ args = 0, pretend = 0, frame = 0
  31              		@ frame_needed = 0, uses_anonymous_args = 0
  32              	.LVL0:
  33 0000 08B5     		push	{r3, lr}
  34              		.cfi_def_cfa_offset 8
  35              		.cfi_offset 3, -8
  36              		.cfi_offset 14, -4
 132:..\..\FreeflyAPI/QX_Protocol.c **** 	// Set all to zero. Zero for most variables is default. Set any values that need to
 133:..\..\FreeflyAPI/QX_Protocol.c **** 	memset(Msg_p, 0, sizeof(QX_Msg_t));
  37              		.loc 1 133 0
  38 0002 7422     		movs	r2, #116
ARM GAS  C:\Users\hamis\AppData\Local\Temp\ccsOK97v.s 			page 4


  39 0004 0021     		movs	r1, #0
  40 0006 FFF7FEFF 		bl	memset
  41              	.LVL1:
 134:..\..\FreeflyAPI/QX_Protocol.c **** 	
 135:..\..\FreeflyAPI/QX_Protocol.c **** 	// Pointer Init
 136:..\..\FreeflyAPI/QX_Protocol.c **** 	Msg_p->BufPayloadStart_p = NULL;
 137:..\..\FreeflyAPI/QX_Protocol.c **** 	Msg_p->MsgBufAtt_p = NULL;
 138:..\..\FreeflyAPI/QX_Protocol.c **** 	Msg_p->MsgBuf_p = NULL;
 139:..\..\FreeflyAPI/QX_Protocol.c **** 	
 140:..\..\FreeflyAPI/QX_Protocol.c **** 	return QX_STAT_OK;
 141:..\..\FreeflyAPI/QX_Protocol.c **** }
  42              		.loc 1 141 0
  43 000a 0020     		movs	r0, #0
  44 000c 08BD     		pop	{r3, pc}
  45              		.cfi_endproc
  46              	.LFE0:
  47              		.size	QX_InitMsg, .-QX_InitMsg
  48 000e 00BF     		.section	.text.QX_Cli_Rx_CurVal,"ax",%progbits
  49              		.align	2
  50              		.global	QX_Cli_Rx_CurVal
  51              		.thumb
  52              		.thumb_func
  53              		.type	QX_Cli_Rx_CurVal, %function
  54              	QX_Cli_Rx_CurVal:
  55              	.LFB4:
 142:..\..\FreeflyAPI/QX_Protocol.c **** 
 143:..\..\FreeflyAPI/QX_Protocol.c **** 
 144:..\..\FreeflyAPI/QX_Protocol.c **** //----------------------------------------------------------------------------
 145:..\..\FreeflyAPI/QX_Protocol.c **** // Recieve QX Packet, Process and Respond if Neccessary
 146:..\..\FreeflyAPI/QX_Protocol.c **** //
 147:..\..\FreeflyAPI/QX_Protocol.c **** QX_Stat_e QX_RxMsg(QX_Msg_t *RxMsg_p)
 148:..\..\FreeflyAPI/QX_Protocol.c **** {
 149:..\..\FreeflyAPI/QX_Protocol.c **** 	RxMsg_p->MsgBuf_p = &RxMsg_p->MsgBuf[0];
 150:..\..\FreeflyAPI/QX_Protocol.c **** 	RxMsg_p->MsgBufStart_p = &RxMsg_p->MsgBuf[0];
 151:..\..\FreeflyAPI/QX_Protocol.c **** 	RxMsg_p->AttNotHandled = 0;		// Assume it will be handled to start - let the parser set this flag 
 152:..\..\FreeflyAPI/QX_Protocol.c **** 	
 153:..\..\FreeflyAPI/QX_Protocol.c **** 	#ifdef QX_DEBUG
 154:..\..\FreeflyAPI/QX_Protocol.c **** 	printf("Raw Msg Packet as Recieved:\n\r");
 155:..\..\FreeflyAPI/QX_Protocol.c **** 	QX_debug_print_Hex(&RxMsg_p->MsgBuf[0], RxMsg_p->Header.MsgLength);
 156:..\..\FreeflyAPI/QX_Protocol.c **** 	#endif
 157:..\..\FreeflyAPI/QX_Protocol.c **** 
 158:..\..\FreeflyAPI/QX_Protocol.c **** 	// Parse Protocol Header
 159:..\..\FreeflyAPI/QX_Protocol.c **** 	if (RxMsg_p->Legacy_Header){
 160:..\..\FreeflyAPI/QX_Protocol.c **** 		if (*QX_ParseHeader_Legacy != NULL){
 161:..\..\FreeflyAPI/QX_Protocol.c **** 			QX_ParseHeader_Legacy(RxMsg_p);
 162:..\..\FreeflyAPI/QX_Protocol.c **** 		} else {
 163:..\..\FreeflyAPI/QX_Protocol.c **** 			return QX_STAT_ERROR;
 164:..\..\FreeflyAPI/QX_Protocol.c **** 		}
 165:..\..\FreeflyAPI/QX_Protocol.c **** 	} else {									
 166:..\..\FreeflyAPI/QX_Protocol.c **** 		QX_ParseHeader(RxMsg_p);
 167:..\..\FreeflyAPI/QX_Protocol.c **** 	}
 168:..\..\FreeflyAPI/QX_Protocol.c **** 	
 169:..\..\FreeflyAPI/QX_Protocol.c **** 	RxMsg_p->BufPayloadStart_p = RxMsg_p->MsgBuf_p;	// the pointer is at the payload after parsing the
 170:..\..\FreeflyAPI/QX_Protocol.c **** 	
 171:..\..\FreeflyAPI/QX_Protocol.c **** 	// Check the CRC32 if enabled
 172:..\..\FreeflyAPI/QX_Protocol.c **** 	if (RxMsg_p->Header.AddCRC32){
 173:..\..\FreeflyAPI/QX_Protocol.c **** 		uint32_t crc32_result = QX_accumulate_crc32(0xFFFFFFFF, RxMsg_p->MsgBuf, RxMsg_p->MsgBuf_MsgLen -
ARM GAS  C:\Users\hamis\AppData\Local\Temp\ccsOK97v.s 			page 5


 174:..\..\FreeflyAPI/QX_Protocol.c **** 		uint32_t crc32_msg = 0;
 175:..\..\FreeflyAPI/QX_Protocol.c **** 		memcpy(&crc32_msg, &RxMsg_p->MsgBuf[RxMsg_p->MsgBuf_MsgLen - 5], sizeof(crc32_msg));
 176:..\..\FreeflyAPI/QX_Protocol.c **** 		if (crc32_result != crc32_msg)
 177:..\..\FreeflyAPI/QX_Protocol.c **** 			return QX_STAT_ERROR_RXMSG_CRC32_FAIL;
 178:..\..\FreeflyAPI/QX_Protocol.c **** 	}
 179:..\..\FreeflyAPI/QX_Protocol.c **** 	
 180:..\..\FreeflyAPI/QX_Protocol.c **** 	// Allow application specific message forwarding (send a copy of the message out one or more other
 181:..\..\FreeflyAPI/QX_Protocol.c **** 	QX_FwdMsg_CB(RxMsg_p);
 182:..\..\FreeflyAPI/QX_Protocol.c **** 	
 183:..\..\FreeflyAPI/QX_Protocol.c **** 	// Print out the recieved packet info for Debug
 184:..\..\FreeflyAPI/QX_Protocol.c **** 	#ifdef QX_DEBUG
 185:..\..\FreeflyAPI/QX_Protocol.c **** 	QX_debug_print_MsgDetails(RxMsg_p);
 186:..\..\FreeflyAPI/QX_Protocol.c **** 	#endif
 187:..\..\FreeflyAPI/QX_Protocol.c **** 	
 188:..\..\FreeflyAPI/QX_Protocol.c **** 	// Handle Eeach type of message
 189:..\..\FreeflyAPI/QX_Protocol.c **** 	switch (RxMsg_p->Header.Type){
 190:..\..\FreeflyAPI/QX_Protocol.c **** 		
 191:..\..\FreeflyAPI/QX_Protocol.c **** 		case QX_MSG_TYPE_READ:
 192:..\..\FreeflyAPI/QX_Protocol.c **** 			QX_Srv_Rx_Read(RxMsg_p);
 193:..\..\FreeflyAPI/QX_Protocol.c **** 			break;
 194:..\..\FreeflyAPI/QX_Protocol.c **** 		
 195:..\..\FreeflyAPI/QX_Protocol.c **** 		case QX_MSG_TYPE_WRITE_ABS:
 196:..\..\FreeflyAPI/QX_Protocol.c **** 		case QX_MSG_TYPE_WRITE_REL:
 197:..\..\FreeflyAPI/QX_Protocol.c **** 			QX_Srv_Rx_Write(RxMsg_p);
 198:..\..\FreeflyAPI/QX_Protocol.c **** 			break;
 199:..\..\FreeflyAPI/QX_Protocol.c **** 		
 200:..\..\FreeflyAPI/QX_Protocol.c **** 		case QX_MSG_TYPE_CURVAL:
 201:..\..\FreeflyAPI/QX_Protocol.c **** 			QX_Cli_Rx_CurVal(RxMsg_p);
 202:..\..\FreeflyAPI/QX_Protocol.c **** 			break;
 203:..\..\FreeflyAPI/QX_Protocol.c **** 		
 204:..\..\FreeflyAPI/QX_Protocol.c **** 		default:
 205:..\..\FreeflyAPI/QX_Protocol.c **** 			return QX_STAT_ERROR_MSG_TYPE_NOT_SUPPORTED;
 206:..\..\FreeflyAPI/QX_Protocol.c **** 	}
 207:..\..\FreeflyAPI/QX_Protocol.c **** 	
 208:..\..\FreeflyAPI/QX_Protocol.c **** 	return QX_STAT_OK;
 209:..\..\FreeflyAPI/QX_Protocol.c **** }
 210:..\..\FreeflyAPI/QX_Protocol.c **** 
 211:..\..\FreeflyAPI/QX_Protocol.c **** 
 212:..\..\FreeflyAPI/QX_Protocol.c **** //----------------------------------------------------------------------------
 213:..\..\FreeflyAPI/QX_Protocol.c **** // Server - Recv Read
 214:..\..\FreeflyAPI/QX_Protocol.c **** // (No data payload) then APP->MSG
 215:..\..\FreeflyAPI/QX_Protocol.c **** void QX_Srv_Rx_Read(QX_Msg_t *RxMsg_p)
 216:..\..\FreeflyAPI/QX_Protocol.c **** {
 217:..\..\FreeflyAPI/QX_Protocol.c **** 	// Check Address - For each server node, if unicast & address match or broadcast, handle it
 218:..\..\FreeflyAPI/QX_Protocol.c **** 	for (int srv_i = 0; srv_i < QX_NUM_SRV; srv_i++){
 219:..\..\FreeflyAPI/QX_Protocol.c **** 		if ((RxMsg_p->Header.Target_Addr == QX_Servers[srv_i].Address) || (RxMsg_p->Header.Target_Addr ==
 220:..\..\FreeflyAPI/QX_Protocol.c **** 			QX_TxMsgOptions_t options;
 221:..\..\FreeflyAPI/QX_Protocol.c **** 			QX_InitTxOptions(&options);
 222:..\..\FreeflyAPI/QX_Protocol.c **** 			options.use_CRC32 = RxMsg_p->Header.AddCRC32;
 223:..\..\FreeflyAPI/QX_Protocol.c **** 			options.FF_Ext = RxMsg_p->Header.FF_Ext;
 224:..\..\FreeflyAPI/QX_Protocol.c **** 			options.Remove_Addr_Fields = RxMsg_p->Header.Remove_Addr_Fields;
 225:..\..\FreeflyAPI/QX_Protocol.c **** 			options.Remove_Req_Fields = 1;		// No need for request fields in a response.
 226:..\..\FreeflyAPI/QX_Protocol.c **** 			options.Target_Addr = RxMsg_p->Header.Source_Addr;		// Reverse target
 227:..\..\FreeflyAPI/QX_Protocol.c **** 			QX_SendPacket_Srv_CurVal(&QX_Servers[srv_i], RxMsg_p->Header.Attrib, RxMsg_p->CommPort, options)
 228:..\..\FreeflyAPI/QX_Protocol.c **** 		}
 229:..\..\FreeflyAPI/QX_Protocol.c **** 	}
 230:..\..\FreeflyAPI/QX_Protocol.c **** }
ARM GAS  C:\Users\hamis\AppData\Local\Temp\ccsOK97v.s 			page 6


 231:..\..\FreeflyAPI/QX_Protocol.c **** 
 232:..\..\FreeflyAPI/QX_Protocol.c **** //----------------------------------------------------------------------------
 233:..\..\FreeflyAPI/QX_Protocol.c **** // Server - Recv Write
 234:..\..\FreeflyAPI/QX_Protocol.c **** // MSG->APP then APP->MSG
 235:..\..\FreeflyAPI/QX_Protocol.c **** void QX_Srv_Rx_Write(QX_Msg_t *RxMsg_p)
 236:..\..\FreeflyAPI/QX_Protocol.c **** {
 237:..\..\FreeflyAPI/QX_Protocol.c **** 	// Set parsing type
 238:..\..\FreeflyAPI/QX_Protocol.c **** 	if (RxMsg_p->Header.Type == QX_MSG_TYPE_WRITE_REL){
 239:..\..\FreeflyAPI/QX_Protocol.c **** 		RxMsg_p->Parse_Type = QX_PARSE_TYPE_WRITE_REL_RECV;
 240:..\..\FreeflyAPI/QX_Protocol.c **** 	} else if (RxMsg_p->Header.Type == QX_MSG_TYPE_WRITE_ABS){
 241:..\..\FreeflyAPI/QX_Protocol.c **** 		RxMsg_p->Parse_Type = QX_PARSE_TYPE_WRITE_ABS_RECV;
 242:..\..\FreeflyAPI/QX_Protocol.c **** 	}
 243:..\..\FreeflyAPI/QX_Protocol.c **** 	
 244:..\..\FreeflyAPI/QX_Protocol.c **** 	// Check Address - For each server node, if unicast & address match or broadcast, handle it
 245:..\..\FreeflyAPI/QX_Protocol.c **** 	for (int srv_i = 0; srv_i < QX_NUM_SRV; srv_i++){
 246:..\..\FreeflyAPI/QX_Protocol.c **** 		if ((RxMsg_p->Header.Target_Addr == QX_Servers[srv_i].Address) || (RxMsg_p->Header.Target_Addr ==
 247:..\..\FreeflyAPI/QX_Protocol.c **** 			QX_Servers[srv_i].Parser_CB(RxMsg_p);	// Application callback
 248:..\..\FreeflyAPI/QX_Protocol.c **** 		
 249:..\..\FreeflyAPI/QX_Protocol.c **** 			// Re-purpose the message to send it
 250:..\..\FreeflyAPI/QX_Protocol.c **** 			if (RxMsg_p->DisableStdResponse == 0){
 251:..\..\FreeflyAPI/QX_Protocol.c **** 				QX_TxMsgOptions_t options;
 252:..\..\FreeflyAPI/QX_Protocol.c **** 				QX_InitTxOptions(&options);
 253:..\..\FreeflyAPI/QX_Protocol.c **** 				options.use_CRC32 = RxMsg_p->Header.AddCRC32;
 254:..\..\FreeflyAPI/QX_Protocol.c **** 				options.FF_Ext = RxMsg_p->Header.FF_Ext;
 255:..\..\FreeflyAPI/QX_Protocol.c **** 				options.Remove_Addr_Fields = RxMsg_p->Header.Remove_Addr_Fields;
 256:..\..\FreeflyAPI/QX_Protocol.c **** 				options.Remove_Req_Fields = 1;		// No need for request fields in a response.
 257:..\..\FreeflyAPI/QX_Protocol.c **** 				options.Target_Addr = RxMsg_p->Header.Source_Addr;		// Reverse target
 258:..\..\FreeflyAPI/QX_Protocol.c **** 				QX_SendPacket_Srv_CurVal(&QX_Servers[srv_i], RxMsg_p->Header.Attrib, RxMsg_p->CommPort, options
 259:..\..\FreeflyAPI/QX_Protocol.c **** 			}
 260:..\..\FreeflyAPI/QX_Protocol.c **** 		}
 261:..\..\FreeflyAPI/QX_Protocol.c **** 	}
 262:..\..\FreeflyAPI/QX_Protocol.c **** }
 263:..\..\FreeflyAPI/QX_Protocol.c **** 
 264:..\..\FreeflyAPI/QX_Protocol.c **** 
 265:..\..\FreeflyAPI/QX_Protocol.c **** //----------------------------------------------------------------------------
 266:..\..\FreeflyAPI/QX_Protocol.c **** // Client - Recv Current Value
 267:..\..\FreeflyAPI/QX_Protocol.c **** // MSG->APP
 268:..\..\FreeflyAPI/QX_Protocol.c **** void QX_Cli_Rx_CurVal(QX_Msg_t *RxMsg_p)
 269:..\..\FreeflyAPI/QX_Protocol.c **** {
  56              		.loc 1 269 0
  57              		.cfi_startproc
  58              		@ args = 0, pretend = 0, frame = 0
  59              		@ frame_needed = 0, uses_anonymous_args = 0
  60              	.LVL2:
  61 0000 38B5     		push	{r3, r4, r5, lr}
  62              		.cfi_def_cfa_offset 16
  63              		.cfi_offset 3, -16
  64              		.cfi_offset 4, -12
  65              		.cfi_offset 5, -8
  66              		.cfi_offset 14, -4
  67 0002 0546     		mov	r5, r0
 270:..\..\FreeflyAPI/QX_Protocol.c **** 	// Set parsing type
 271:..\..\FreeflyAPI/QX_Protocol.c **** 	RxMsg_p->Parse_Type = QX_PARSE_TYPE_CURVAL_RECV;
  68              		.loc 1 271 0
  69 0004 0123     		movs	r3, #1
  70 0006 0370     		strb	r3, [r0]
  71              	.LVL3:
ARM GAS  C:\Users\hamis\AppData\Local\Temp\ccsOK97v.s 			page 7


  72              	.LBB2:
 272:..\..\FreeflyAPI/QX_Protocol.c **** 	
 273:..\..\FreeflyAPI/QX_Protocol.c **** 	// Check Address - For each client instance, if unicast & address match or broadcast, handle it
 274:..\..\FreeflyAPI/QX_Protocol.c **** 	for (int cli_i = 0; cli_i < QX_NUM_CLI; cli_i++){
  73              		.loc 1 274 0
  74 0008 0024     		movs	r4, #0
  75 000a 06E0     		b	.L4
  76              	.LVL4:
  77              	.L5:
 275:..\..\FreeflyAPI/QX_Protocol.c **** 		QX_Clients[cli_i].Parser_CB(RxMsg_p);	// Application callback
  78              		.loc 1 275 0 discriminator 3
  79 000c 044B     		ldr	r3, .L7
  80 000e 03EBC403 		add	r3, r3, r4, lsl #3
  81 0012 5B68     		ldr	r3, [r3, #4]
  82 0014 2846     		mov	r0, r5
  83 0016 9847     		blx	r3
  84              	.LVL5:
 274:..\..\FreeflyAPI/QX_Protocol.c **** 		QX_Clients[cli_i].Parser_CB(RxMsg_p);	// Application callback
  85              		.loc 1 274 0 discriminator 3
  86 0018 0134     		adds	r4, r4, #1
  87              	.LVL6:
  88              	.L4:
 274:..\..\FreeflyAPI/QX_Protocol.c **** 		QX_Clients[cli_i].Parser_CB(RxMsg_p);	// Application callback
  89              		.loc 1 274 0 is_stmt 0 discriminator 1
  90 001a 002C     		cmp	r4, #0
  91 001c F6DD     		ble	.L5
  92              	.LBE2:
 276:..\..\FreeflyAPI/QX_Protocol.c **** 	}
 277:..\..\FreeflyAPI/QX_Protocol.c **** }
  93              		.loc 1 277 0 is_stmt 1
  94 001e 38BD     		pop	{r3, r4, r5, pc}
  95              	.LVL7:
  96              	.L8:
  97              		.align	2
  98              	.L7:
  99 0020 00000000 		.word	QX_Clients
 100              		.cfi_endproc
 101              	.LFE4:
 102              		.size	QX_Cli_Rx_CurVal, .-QX_Cli_Rx_CurVal
 103              		.section	.text.QX_Calc8bChecksum,"ax",%progbits
 104              		.align	2
 105              		.global	QX_Calc8bChecksum
 106              		.thumb
 107              		.thumb_func
 108              		.type	QX_Calc8bChecksum, %function
 109              	QX_Calc8bChecksum:
 110              	.LFB9:
 278:..\..\FreeflyAPI/QX_Protocol.c **** 
 279:..\..\FreeflyAPI/QX_Protocol.c **** 
 280:..\..\FreeflyAPI/QX_Protocol.c **** //----------------------------------------------------------------------------
 281:..\..\FreeflyAPI/QX_Protocol.c **** // Transmit QX Packet according to Message Structure
 282:..\..\FreeflyAPI/QX_Protocol.c **** QX_Stat_e QX_TxMsg_Setup(QX_Msg_t *TxMsg_p)
 283:..\..\FreeflyAPI/QX_Protocol.c **** {
 284:..\..\FreeflyAPI/QX_Protocol.c **** 	// Set the Buffer pointer to the start of the Attribute field accounting for the maximum number of
 285:..\..\FreeflyAPI/QX_Protocol.c **** 	// (unknown length prior to parsing) ('Q' + 'X' + LEN0 + LEN1)
 286:..\..\FreeflyAPI/QX_Protocol.c **** 	TxMsg_p->MsgBufAtt_p = &TxMsg_p->MsgBuf[4];
 287:..\..\FreeflyAPI/QX_Protocol.c **** 	TxMsg_p->MsgBuf_p = TxMsg_p->MsgBufAtt_p;
ARM GAS  C:\Users\hamis\AppData\Local\Temp\ccsOK97v.s 			page 8


 288:..\..\FreeflyAPI/QX_Protocol.c **** 	
 289:..\..\FreeflyAPI/QX_Protocol.c **** 	// Build the Frame Header
 290:..\..\FreeflyAPI/QX_Protocol.c **** 	if (TxMsg_p->Legacy_Header){
 291:..\..\FreeflyAPI/QX_Protocol.c **** 		if (*QX_BuildHeader_Legacy != NULL){
 292:..\..\FreeflyAPI/QX_Protocol.c **** 			QX_BuildHeader_Legacy(TxMsg_p);
 293:..\..\FreeflyAPI/QX_Protocol.c **** 		} else {
 294:..\..\FreeflyAPI/QX_Protocol.c **** 			return QX_STAT_ERROR;
 295:..\..\FreeflyAPI/QX_Protocol.c **** 		}
 296:..\..\FreeflyAPI/QX_Protocol.c **** 	} else {									
 297:..\..\FreeflyAPI/QX_Protocol.c **** 		QX_BuildHeader(TxMsg_p);
 298:..\..\FreeflyAPI/QX_Protocol.c **** 	}
 299:..\..\FreeflyAPI/QX_Protocol.c **** 	
 300:..\..\FreeflyAPI/QX_Protocol.c **** 	return QX_STAT_OK;
 301:..\..\FreeflyAPI/QX_Protocol.c **** }
 302:..\..\FreeflyAPI/QX_Protocol.c **** 
 303:..\..\FreeflyAPI/QX_Protocol.c **** 
 304:..\..\FreeflyAPI/QX_Protocol.c **** //----------------------------------------------------------------------------
 305:..\..\FreeflyAPI/QX_Protocol.c **** // After message data has been parsed, finish building the message
 306:..\..\FreeflyAPI/QX_Protocol.c **** QX_Stat_e QX_TxMsg_Finish(QX_Msg_t *TxMsg_p)
 307:..\..\FreeflyAPI/QX_Protocol.c **** {	
 308:..\..\FreeflyAPI/QX_Protocol.c **** 	uint8_t QX_use2ByteLen = 0;
 309:..\..\FreeflyAPI/QX_Protocol.c **** 	
 310:..\..\FreeflyAPI/QX_Protocol.c **** 	// If this attribute isn't handled, (no data) return
 311:..\..\FreeflyAPI/QX_Protocol.c **** 	if(TxMsg_p->AttNotHandled == 1) return QX_STAT_ERROR_ATT_NOT_HANDLED;
 312:..\..\FreeflyAPI/QX_Protocol.c **** 	
 313:..\..\FreeflyAPI/QX_Protocol.c **** 	// Find the Message Length (Attribute to End of Payload)
 314:..\..\FreeflyAPI/QX_Protocol.c **** 	TxMsg_p->Header.MsgLength = TxMsg_p->MsgBuf_p - TxMsg_p->MsgBufAtt_p;
 315:..\..\FreeflyAPI/QX_Protocol.c **** 	
 316:..\..\FreeflyAPI/QX_Protocol.c **** 	// force two_byte length field if the message body is the legacy type or is already larger than 10
 317:..\..\FreeflyAPI/QX_Protocol.c **** 	if (TxMsg_p->Legacy_Header || (TxMsg_p->Header.MsgLength > 100)){
 318:..\..\FreeflyAPI/QX_Protocol.c **** 		TxMsg_p->MsgBufStart_p = &TxMsg_p->MsgBuf[0];
 319:..\..\FreeflyAPI/QX_Protocol.c **** 		QX_use2ByteLen = 1;
 320:..\..\FreeflyAPI/QX_Protocol.c **** 	} else {
 321:..\..\FreeflyAPI/QX_Protocol.c **** 		TxMsg_p->MsgBufStart_p = &TxMsg_p->MsgBuf[1];
 322:..\..\FreeflyAPI/QX_Protocol.c **** 	}
 323:..\..\FreeflyAPI/QX_Protocol.c **** 	
 324:..\..\FreeflyAPI/QX_Protocol.c **** 	// Save the size of the overall message buffer after determining start location, before any CRC is
 325:..\..\FreeflyAPI/QX_Protocol.c **** 	TxMsg_p->MsgBuf_MsgLen = TxMsg_p->MsgBuf_p - TxMsg_p->MsgBufStart_p;
 326:..\..\FreeflyAPI/QX_Protocol.c **** 	
 327:..\..\FreeflyAPI/QX_Protocol.c **** 	// If CRC32 is used, find sizing with padding
 328:..\..\FreeflyAPI/QX_Protocol.c **** 	if (TxMsg_p->Header.AddCRC32){
 329:..\..\FreeflyAPI/QX_Protocol.c **** 		
 330:..\..\FreeflyAPI/QX_Protocol.c **** 		// Add padding to get to 4 byte alignment
 331:..\..\FreeflyAPI/QX_Protocol.c **** 		uint32_t bytes_to_add = 4 - ((TxMsg_p->MsgBuf_MsgLen) % 4);		// CRC will bec checked over all byt
 332:..\..\FreeflyAPI/QX_Protocol.c **** 		memset(TxMsg_p->MsgBuf_p, 0, bytes_to_add);		// write zeros to the padding
 333:..\..\FreeflyAPI/QX_Protocol.c **** 		TxMsg_p->MsgBuf_p += bytes_to_add;				// Move to where the CRC should be inserted
 334:..\..\FreeflyAPI/QX_Protocol.c **** 		TxMsg_p->MsgBuf_MsgLen += bytes_to_add;			// msg length not including CRC + outer checksum
 335:..\..\FreeflyAPI/QX_Protocol.c **** 		TxMsg_p->Header.MsgLength = (TxMsg_p->MsgBuf_p - TxMsg_p->MsgBufAtt_p) + 4;	// length between att
 336:..\..\FreeflyAPI/QX_Protocol.c **** 	}
 337:..\..\FreeflyAPI/QX_Protocol.c **** 	
 338:..\..\FreeflyAPI/QX_Protocol.c **** 	// Add In the Final Message Size (Expandable if above 100 bytes) and Start Bytes
 339:..\..\FreeflyAPI/QX_Protocol.c **** 	if (TxMsg_p->Legacy_Header){
 340:..\..\FreeflyAPI/QX_Protocol.c **** 			TxMsg_p->MsgBuf[0] = 'Q';
 341:..\..\FreeflyAPI/QX_Protocol.c **** 			TxMsg_p->MsgBuf[1] = 'B';
 342:..\..\FreeflyAPI/QX_Protocol.c **** 			TxMsg_p->MsgBuf[2] = (TxMsg_p->Header.MsgLength >> 8) & 0xFF;
 343:..\..\FreeflyAPI/QX_Protocol.c **** 			TxMsg_p->MsgBuf[3] = TxMsg_p->Header.MsgLength & 0xFF;
 344:..\..\FreeflyAPI/QX_Protocol.c **** 	} else {	// QX
ARM GAS  C:\Users\hamis\AppData\Local\Temp\ccsOK97v.s 			page 9


 345:..\..\FreeflyAPI/QX_Protocol.c **** 		if (QX_use2ByteLen) {
 346:..\..\FreeflyAPI/QX_Protocol.c **** 			TxMsg_p->MsgBuf[0] = 'Q';
 347:..\..\FreeflyAPI/QX_Protocol.c **** 			TxMsg_p->MsgBuf[1] = 'X';
 348:..\..\FreeflyAPI/QX_Protocol.c **** 			TxMsg_p->MsgBuf[2] = (TxMsg_p->Header.MsgLength & 0x7F) | 0x80;
 349:..\..\FreeflyAPI/QX_Protocol.c **** 			TxMsg_p->MsgBuf[3] = ((TxMsg_p->Header.MsgLength >> 7) & 0x7F);
 350:..\..\FreeflyAPI/QX_Protocol.c **** 		} else {
 351:..\..\FreeflyAPI/QX_Protocol.c **** 			TxMsg_p->MsgBuf[1] = 'Q';
 352:..\..\FreeflyAPI/QX_Protocol.c **** 			TxMsg_p->MsgBuf[2] = 'X';
 353:..\..\FreeflyAPI/QX_Protocol.c **** 			TxMsg_p->MsgBuf[3] = TxMsg_p->Header.MsgLength & 0x7F;
 354:..\..\FreeflyAPI/QX_Protocol.c **** 		}
 355:..\..\FreeflyAPI/QX_Protocol.c **** 	}
 356:..\..\FreeflyAPI/QX_Protocol.c **** 	
 357:..\..\FreeflyAPI/QX_Protocol.c **** 	// Add in the CRC32 if needed
 358:..\..\FreeflyAPI/QX_Protocol.c **** 	if (TxMsg_p->Header.AddCRC32){
 359:..\..\FreeflyAPI/QX_Protocol.c **** 		uint32_t crc = QX_accumulate_crc32(0xFFFFFFFF, TxMsg_p->MsgBufStart_p, TxMsg_p->MsgBuf_MsgLen);
 360:..\..\FreeflyAPI/QX_Protocol.c **** 		memcpy(TxMsg_p->MsgBuf_p, &crc, sizeof(crc));
 361:..\..\FreeflyAPI/QX_Protocol.c **** 		TxMsg_p->MsgBuf_p += 4;		// Add space for CRC32 checksum
 362:..\..\FreeflyAPI/QX_Protocol.c **** 		TxMsg_p->MsgBuf_MsgLen = TxMsg_p->MsgBuf_p - TxMsg_p->MsgBufStart_p;	// Update the overall msg le
 363:..\..\FreeflyAPI/QX_Protocol.c **** 	}
 364:..\..\FreeflyAPI/QX_Protocol.c **** 	
 365:..\..\FreeflyAPI/QX_Protocol.c **** 	// Calculate overall outer checksum
 366:..\..\FreeflyAPI/QX_Protocol.c **** 	uint8_t chksum = QX_Calc8bChecksum(TxMsg_p->MsgBufAtt_p, TxMsg_p->Header.MsgLength);
 367:..\..\FreeflyAPI/QX_Protocol.c **** 	
 368:..\..\FreeflyAPI/QX_Protocol.c **** 	*TxMsg_p->MsgBuf_p++ = 0xFF - chksum;	// Add the Overall Checksum
 369:..\..\FreeflyAPI/QX_Protocol.c **** 	TxMsg_p->MsgBuf_MsgLen++;	// Final message length on the wire
 370:..\..\FreeflyAPI/QX_Protocol.c **** 	
 371:..\..\FreeflyAPI/QX_Protocol.c **** 	#ifdef QX_DEBUG
 372:..\..\FreeflyAPI/QX_Protocol.c **** 	printf("Raw Msg Packet:\n\r");
 373:..\..\FreeflyAPI/QX_Protocol.c **** 	QX_debug_print_Hex(TxMsg_p->MsgBufStart_p, TxMsg_p->MsgBuf_MsgLen);
 374:..\..\FreeflyAPI/QX_Protocol.c **** 	QX_debug_print_MsgDetails(TxMsg_p);
 375:..\..\FreeflyAPI/QX_Protocol.c **** 	#endif
 376:..\..\FreeflyAPI/QX_Protocol.c **** 	
 377:..\..\FreeflyAPI/QX_Protocol.c **** 	// Send the Message to the Appropriate Comms Port
 378:..\..\FreeflyAPI/QX_Protocol.c **** 	QX_SendMsg2CommsPort_CB(TxMsg_p);
 379:..\..\FreeflyAPI/QX_Protocol.c **** 	
 380:..\..\FreeflyAPI/QX_Protocol.c **** 	return QX_STAT_OK;
 381:..\..\FreeflyAPI/QX_Protocol.c **** }
 382:..\..\FreeflyAPI/QX_Protocol.c **** 
 383:..\..\FreeflyAPI/QX_Protocol.c **** 
 384:..\..\FreeflyAPI/QX_Protocol.c **** //----------------------------------------------------------------------------
 385:..\..\FreeflyAPI/QX_Protocol.c **** // Build a QX Message Header
 386:..\..\FreeflyAPI/QX_Protocol.c **** void QX_BuildHeader(QX_Msg_t *Msg_p)
 387:..\..\FreeflyAPI/QX_Protocol.c **** {
 388:..\..\FreeflyAPI/QX_Protocol.c **** 	// Start at the Attribute Field
 389:..\..\FreeflyAPI/QX_Protocol.c **** 	Msg_p->MsgBuf_p = Msg_p->MsgBufAtt_p;
 390:..\..\FreeflyAPI/QX_Protocol.c **** 
 391:..\..\FreeflyAPI/QX_Protocol.c **** 	// Add the Extendible Attribute Number
 392:..\..\FreeflyAPI/QX_Protocol.c **** 	QX_AddExtdValToBuf(&Msg_p->MsgBuf_p, Msg_p->Header.Attrib);
 393:..\..\FreeflyAPI/QX_Protocol.c **** 
 394:..\..\FreeflyAPI/QX_Protocol.c **** 	Msg_p->Header.AddOptionByte1 = 0;
 395:..\..\FreeflyAPI/QX_Protocol.c **** 	
 396:..\..\FreeflyAPI/QX_Protocol.c **** 	// Check if option byte 1 is needed.
 397:..\..\FreeflyAPI/QX_Protocol.c **** 	if (Msg_p->Header.AddCRC32){
 398:..\..\FreeflyAPI/QX_Protocol.c **** 		Msg_p->Header.AddOptionByte1 = 1;
 399:..\..\FreeflyAPI/QX_Protocol.c **** 	}
 400:..\..\FreeflyAPI/QX_Protocol.c **** 	
 401:..\..\FreeflyAPI/QX_Protocol.c **** 	// Add Base Option Byte
ARM GAS  C:\Users\hamis\AppData\Local\Temp\ccsOK97v.s 			page 10


 402:..\..\FreeflyAPI/QX_Protocol.c **** 	volatile uint8_t OptionByte = 0;
 403:..\..\FreeflyAPI/QX_Protocol.c **** 	OptionByte |= (Msg_p->Header.Type & 0xF);
 404:..\..\FreeflyAPI/QX_Protocol.c **** 	OptionByte |= (Msg_p->Header.FF_Ext & 0x01) << 4;
 405:..\..\FreeflyAPI/QX_Protocol.c **** 	OptionByte |= (Msg_p->Header.Remove_Req_Fields & 0x01) << 5;
 406:..\..\FreeflyAPI/QX_Protocol.c **** 	OptionByte |= (Msg_p->Header.Remove_Addr_Fields & 0x01) << 6;
 407:..\..\FreeflyAPI/QX_Protocol.c **** 	OptionByte |= (Msg_p->Header.AddOptionByte1 & 0x01) << 7;
 408:..\..\FreeflyAPI/QX_Protocol.c **** 	*Msg_p->MsgBuf_p++ = OptionByte;
 409:..\..\FreeflyAPI/QX_Protocol.c **** 	
 410:..\..\FreeflyAPI/QX_Protocol.c **** 	// Add option byte 1 if needed
 411:..\..\FreeflyAPI/QX_Protocol.c **** 	if(Msg_p->Header.AddOptionByte1){
 412:..\..\FreeflyAPI/QX_Protocol.c **** 		OptionByte = 0;
 413:..\..\FreeflyAPI/QX_Protocol.c **** 		OptionByte |= (Msg_p->Header.AddCRC32 & 0x01) << 0;
 414:..\..\FreeflyAPI/QX_Protocol.c **** 		*Msg_p->MsgBuf_p++ = OptionByte;
 415:..\..\FreeflyAPI/QX_Protocol.c **** 	}
 416:..\..\FreeflyAPI/QX_Protocol.c **** 	
 417:..\..\FreeflyAPI/QX_Protocol.c **** 	// Add the addresses.
 418:..\..\FreeflyAPI/QX_Protocol.c **** 	if (Msg_p->Header.Remove_Addr_Fields == 0){
 419:..\..\FreeflyAPI/QX_Protocol.c **** 		QX_AddExtdValToBuf(&Msg_p->MsgBuf_p, Msg_p->Header.Source_Addr);
 420:..\..\FreeflyAPI/QX_Protocol.c **** 		QX_AddExtdValToBuf(&Msg_p->MsgBuf_p, Msg_p->Header.Target_Addr);
 421:..\..\FreeflyAPI/QX_Protocol.c **** 	} else {
 422:..\..\FreeflyAPI/QX_Protocol.c **** 		Msg_p->Header.Source_Addr = QX_DEV_ID_BROADCAST;
 423:..\..\FreeflyAPI/QX_Protocol.c **** 		Msg_p->Header.Target_Addr = QX_DEV_ID_BROADCAST;
 424:..\..\FreeflyAPI/QX_Protocol.c **** 	}
 425:..\..\FreeflyAPI/QX_Protocol.c **** 
 426:..\..\FreeflyAPI/QX_Protocol.c **** 	// Add the transmit/response request fields.
 427:..\..\FreeflyAPI/QX_Protocol.c **** 	if (Msg_p->Header.Remove_Req_Fields == 0){
 428:..\..\FreeflyAPI/QX_Protocol.c **** 		QX_AddExtdValToBuf(&Msg_p->MsgBuf_p, Msg_p->Header.TransReq_Addr);
 429:..\..\FreeflyAPI/QX_Protocol.c **** 		QX_AddExtdValToBuf(&Msg_p->MsgBuf_p, Msg_p->Header.RespReq_Addr);
 430:..\..\FreeflyAPI/QX_Protocol.c **** 	} else {
 431:..\..\FreeflyAPI/QX_Protocol.c **** 		Msg_p->Header.TransReq_Addr = QX_DEV_ID_BROADCAST;
 432:..\..\FreeflyAPI/QX_Protocol.c **** 		Msg_p->Header.RespReq_Addr = QX_DEV_ID_BROADCAST;
 433:..\..\FreeflyAPI/QX_Protocol.c **** 	}
 434:..\..\FreeflyAPI/QX_Protocol.c **** 	
 435:..\..\FreeflyAPI/QX_Protocol.c **** 	Msg_p->BufPayloadStart_p = Msg_p->MsgBuf_p;	// Set the Payload Begin Pointer
 436:..\..\FreeflyAPI/QX_Protocol.c **** }
 437:..\..\FreeflyAPI/QX_Protocol.c **** 
 438:..\..\FreeflyAPI/QX_Protocol.c **** //----------------------------------------------------------------------------
 439:..\..\FreeflyAPI/QX_Protocol.c **** // Parse a QX Type Message
 440:..\..\FreeflyAPI/QX_Protocol.c **** // Note, this Function leaves the Pointer at the Start of the payload
 441:..\..\FreeflyAPI/QX_Protocol.c **** void QX_ParseHeader(QX_Msg_t *Msg_p)
 442:..\..\FreeflyAPI/QX_Protocol.c **** {
 443:..\..\FreeflyAPI/QX_Protocol.c **** 	volatile uint8_t OptionByte;
 444:..\..\FreeflyAPI/QX_Protocol.c **** 	volatile uint32_t temp32;
 445:..\..\FreeflyAPI/QX_Protocol.c **** 	Msg_p->MsgBuf_p = Msg_p->MsgBufAtt_p;		// Set the message pointer to the attribute position.
 446:..\..\FreeflyAPI/QX_Protocol.c **** 
 447:..\..\FreeflyAPI/QX_Protocol.c **** 
 448:..\..\FreeflyAPI/QX_Protocol.c **** 	// Get the Extendible Attribute Number
 449:..\..\FreeflyAPI/QX_Protocol.c **** 	Msg_p->Header.Attrib = QX_GetExtdValFromBuf(&Msg_p->MsgBuf_p);
 450:..\..\FreeflyAPI/QX_Protocol.c **** 
 451:..\..\FreeflyAPI/QX_Protocol.c **** 	// Get Base Option Byte Bits
 452:..\..\FreeflyAPI/QX_Protocol.c **** 	OptionByte = *Msg_p->MsgBuf_p++;
 453:..\..\FreeflyAPI/QX_Protocol.c **** 	Msg_p->Header.Type = (QX_Msg_Type_e)(OptionByte & 0xF);
 454:..\..\FreeflyAPI/QX_Protocol.c **** 	Msg_p->Header.FF_Ext = (OptionByte >> 4) & 0x1;
 455:..\..\FreeflyAPI/QX_Protocol.c **** 	Msg_p->Header.Remove_Req_Fields = (OptionByte >> 5) & 0x1;
 456:..\..\FreeflyAPI/QX_Protocol.c **** 	Msg_p->Header.Remove_Addr_Fields = (OptionByte >> 6) & 0x1;
 457:..\..\FreeflyAPI/QX_Protocol.c **** 	Msg_p->Header.AddOptionByte1 = (OptionByte >> 7) & 0x1;
 458:..\..\FreeflyAPI/QX_Protocol.c **** 	
ARM GAS  C:\Users\hamis\AppData\Local\Temp\ccsOK97v.s 			page 11


 459:..\..\FreeflyAPI/QX_Protocol.c **** 	// Option byte 1
 460:..\..\FreeflyAPI/QX_Protocol.c **** 	if(Msg_p->Header.AddOptionByte1){
 461:..\..\FreeflyAPI/QX_Protocol.c **** 		OptionByte = *Msg_p->MsgBuf_p++;
 462:..\..\FreeflyAPI/QX_Protocol.c **** 		Msg_p->Header.AddCRC32 = (OptionByte >> 0) & 0x1;
 463:..\..\FreeflyAPI/QX_Protocol.c **** 	}
 464:..\..\FreeflyAPI/QX_Protocol.c **** 
 465:..\..\FreeflyAPI/QX_Protocol.c **** 	// If Availible, Get the Addresses
 466:..\..\FreeflyAPI/QX_Protocol.c **** 	if (Msg_p->Header.Remove_Addr_Fields == 0){
 467:..\..\FreeflyAPI/QX_Protocol.c **** 		Msg_p->Header.Source_Addr = (QX_DevId_e)(QX_GetExtdValFromBuf(&Msg_p->MsgBuf_p));
 468:..\..\FreeflyAPI/QX_Protocol.c **** 		Msg_p->Header.Target_Addr = (QX_DevId_e)(QX_GetExtdValFromBuf(&Msg_p->MsgBuf_p));
 469:..\..\FreeflyAPI/QX_Protocol.c **** 	}
 470:..\..\FreeflyAPI/QX_Protocol.c **** 	
 471:..\..\FreeflyAPI/QX_Protocol.c **** 	// If Availible, Get the Request Fields
 472:..\..\FreeflyAPI/QX_Protocol.c **** 	if (Msg_p->Header.Remove_Req_Fields == 0){
 473:..\..\FreeflyAPI/QX_Protocol.c **** 		Msg_p->Header.TransReq_Addr = (QX_DevId_e)(QX_GetExtdValFromBuf(&Msg_p->MsgBuf_p));
 474:..\..\FreeflyAPI/QX_Protocol.c **** 		Msg_p->Header.RespReq_Addr = (QX_DevId_e)(QX_GetExtdValFromBuf(&Msg_p->MsgBuf_p));
 475:..\..\FreeflyAPI/QX_Protocol.c **** 	}
 476:..\..\FreeflyAPI/QX_Protocol.c **** 	
 477:..\..\FreeflyAPI/QX_Protocol.c **** 	// Add Freefly extension bytes if needed
 478:..\..\FreeflyAPI/QX_Protocol.c **** 	if (Msg_p->Header.FF_Ext){
 479:..\..\FreeflyAPI/QX_Protocol.c **** 		Msg_p->MsgBuf_p += 2;
 480:..\..\FreeflyAPI/QX_Protocol.c **** 	}
 481:..\..\FreeflyAPI/QX_Protocol.c **** }
 482:..\..\FreeflyAPI/QX_Protocol.c **** 
 483:..\..\FreeflyAPI/QX_Protocol.c **** 
 484:..\..\FreeflyAPI/QX_Protocol.c **** //----------------------------------------------------------------------------
 485:..\..\FreeflyAPI/QX_Protocol.c **** // Calculate 8 Bit Checksum
 486:..\..\FreeflyAPI/QX_Protocol.c **** uint8_t QX_Calc8bChecksum(uint8_t *buf_p, uint32_t len)
 487:..\..\FreeflyAPI/QX_Protocol.c **** {
 111              		.loc 1 487 0
 112              		.cfi_startproc
 113              		@ args = 0, pretend = 0, frame = 0
 114              		@ frame_needed = 0, uses_anonymous_args = 0
 115              		@ link register save eliminated.
 116              	.LVL8:
 117 0000 10B4     		push	{r4}
 118              		.cfi_def_cfa_offset 4
 119              		.cfi_offset 4, -4
 120              	.LVL9:
 488:..\..\FreeflyAPI/QX_Protocol.c **** 	int j;
 489:..\..\FreeflyAPI/QX_Protocol.c **** 	uint8_t checksum = 0;
 121              		.loc 1 489 0
 122 0002 0023     		movs	r3, #0
 490:..\..\FreeflyAPI/QX_Protocol.c **** 	for(j = 0; j < len; j++)
 123              		.loc 1 490 0
 124 0004 1A46     		mov	r2, r3
 125 0006 04E0     		b	.L10
 126              	.LVL10:
 127              	.L11:
 491:..\..\FreeflyAPI/QX_Protocol.c **** 	{
 492:..\..\FreeflyAPI/QX_Protocol.c **** 		checksum += *buf_p++;
 128              		.loc 1 492 0 discriminator 3
 129 0008 0478     		ldrb	r4, [r0]	@ zero_extendqisi2
 130 000a 2344     		add	r3, r3, r4
 131              	.LVL11:
 132 000c DBB2     		uxtb	r3, r3
 133              	.LVL12:
ARM GAS  C:\Users\hamis\AppData\Local\Temp\ccsOK97v.s 			page 12


 490:..\..\FreeflyAPI/QX_Protocol.c **** 	for(j = 0; j < len; j++)
 134              		.loc 1 490 0 discriminator 3
 135 000e 0132     		adds	r2, r2, #1
 136              	.LVL13:
 137              		.loc 1 492 0 discriminator 3
 138 0010 0130     		adds	r0, r0, #1
 139              	.LVL14:
 140              	.L10:
 490:..\..\FreeflyAPI/QX_Protocol.c **** 	for(j = 0; j < len; j++)
 141              		.loc 1 490 0 discriminator 1
 142 0012 8A42     		cmp	r2, r1
 143 0014 F8D3     		bcc	.L11
 493:..\..\FreeflyAPI/QX_Protocol.c **** 	}
 494:..\..\FreeflyAPI/QX_Protocol.c **** 	return checksum;
 495:..\..\FreeflyAPI/QX_Protocol.c **** }
 144              		.loc 1 495 0
 145 0016 1846     		mov	r0, r3
 146              	.LVL15:
 147 0018 10BC     		pop	{r4}
 148              		.cfi_restore 4
 149              		.cfi_def_cfa_offset 0
 150 001a 7047     		bx	lr
 151              		.cfi_endproc
 152              	.LFE9:
 153              		.size	QX_Calc8bChecksum, .-QX_Calc8bChecksum
 154              		.section	.text.QX_AddExtdValToBuf,"ax",%progbits
 155              		.align	2
 156              		.global	QX_AddExtdValToBuf
 157              		.thumb
 158              		.thumb_func
 159              		.type	QX_AddExtdValToBuf, %function
 160              	QX_AddExtdValToBuf:
 161              	.LFB10:
 496:..\..\FreeflyAPI/QX_Protocol.c **** 
 497:..\..\FreeflyAPI/QX_Protocol.c **** //----------------------------------------------------------------------------
 498:..\..\FreeflyAPI/QX_Protocol.c **** // Add a 7th bit extendable (4 byte max) value to a buffer
 499:..\..\FreeflyAPI/QX_Protocol.c **** void QX_AddExtdValToBuf(uint8_t **p, uint32_t Val)
 500:..\..\FreeflyAPI/QX_Protocol.c **** {	
 162              		.loc 1 500 0
 163              		.cfi_startproc
 164              		@ args = 0, pretend = 0, frame = 0
 165              		@ frame_needed = 0, uses_anonymous_args = 0
 166              		@ link register save eliminated.
 167              	.LVL16:
 168 0000 10B4     		push	{r4}
 169              		.cfi_def_cfa_offset 4
 170              		.cfi_offset 4, -4
 171              	.LVL17:
 501:..\..\FreeflyAPI/QX_Protocol.c **** 	int n;
 502:..\..\FreeflyAPI/QX_Protocol.c **** 	for (n = 0; n < 4; n++){
 172              		.loc 1 502 0
 173 0002 0022     		movs	r2, #0
 174 0004 1BE0     		b	.L14
 175              	.LVL18:
 176              	.L17:
 177              	.LBB3:
 503:..\..\FreeflyAPI/QX_Protocol.c **** 		uint8_t this_chunk = (Val >> (7*n)) & 0x7F;
ARM GAS  C:\Users\hamis\AppData\Local\Temp\ccsOK97v.s 			page 13


 178              		.loc 1 503 0
 179 0006 C2EBC203 		rsb	r3, r2, r2, lsl #3
 180 000a 21FA03F3 		lsr	r3, r1, r3
 181 000e 03F07F03 		and	r3, r3, #127
 182              	.LVL19:
 504:..\..\FreeflyAPI/QX_Protocol.c **** 		uint8_t next_chunk = (Val >> (7*(n+1))) & 0x7F;
 183              		.loc 1 504 0
 184 0012 0132     		adds	r2, r2, #1
 185              	.LVL20:
 186 0014 C2EBC204 		rsb	r4, r2, r2, lsl #3
 187 0018 21FA04F4 		lsr	r4, r1, r4
 188              	.LVL21:
 505:..\..\FreeflyAPI/QX_Protocol.c **** 		if (next_chunk > 0){
 189              		.loc 1 505 0
 190 001c 14F07F0F 		tst	r4, #127
 191 0020 07D0     		beq	.L15
 506:..\..\FreeflyAPI/QX_Protocol.c **** 			**p = this_chunk | 0x80;
 192              		.loc 1 506 0
 193 0022 0468     		ldr	r4, [r0]
 194              	.LVL22:
 195 0024 63F07F03 		orn	r3, r3, #127
 196              	.LVL23:
 197 0028 2370     		strb	r3, [r4]
 507:..\..\FreeflyAPI/QX_Protocol.c **** 			(*p)++;
 198              		.loc 1 507 0
 199 002a 0368     		ldr	r3, [r0]
 200 002c 0133     		adds	r3, r3, #1
 201 002e 0360     		str	r3, [r0]
 202              	.LVL24:
 203 0030 05E0     		b	.L14
 204              	.LVL25:
 205              	.L15:
 508:..\..\FreeflyAPI/QX_Protocol.c **** 		} else {
 509:..\..\FreeflyAPI/QX_Protocol.c **** 			**p = this_chunk;
 206              		.loc 1 509 0
 207 0032 0268     		ldr	r2, [r0]
 208              	.LVL26:
 209 0034 1370     		strb	r3, [r2]
 510:..\..\FreeflyAPI/QX_Protocol.c **** 			(*p)++;
 210              		.loc 1 510 0
 211 0036 0368     		ldr	r3, [r0]
 212              	.LVL27:
 213 0038 0133     		adds	r3, r3, #1
 214 003a 0360     		str	r3, [r0]
 215              	.LVL28:
 511:..\..\FreeflyAPI/QX_Protocol.c **** 			break;
 216              		.loc 1 511 0
 217 003c 01E0     		b	.L13
 218              	.LVL29:
 219              	.L14:
 220              	.LBE3:
 502:..\..\FreeflyAPI/QX_Protocol.c **** 		uint8_t this_chunk = (Val >> (7*n)) & 0x7F;
 221              		.loc 1 502 0 discriminator 1
 222 003e 032A     		cmp	r2, #3
 223 0040 E1DD     		ble	.L17
 224              	.LVL30:
 225              	.L13:
ARM GAS  C:\Users\hamis\AppData\Local\Temp\ccsOK97v.s 			page 14


 512:..\..\FreeflyAPI/QX_Protocol.c **** 		}
 513:..\..\FreeflyAPI/QX_Protocol.c **** 	}
 514:..\..\FreeflyAPI/QX_Protocol.c **** }
 226              		.loc 1 514 0
 227 0042 10BC     		pop	{r4}
 228              		.cfi_restore 4
 229              		.cfi_def_cfa_offset 0
 230 0044 7047     		bx	lr
 231              		.cfi_endproc
 232              	.LFE10:
 233              		.size	QX_AddExtdValToBuf, .-QX_AddExtdValToBuf
 234 0046 00BF     		.section	.text.QX_BuildHeader,"ax",%progbits
 235              		.align	2
 236              		.global	QX_BuildHeader
 237              		.thumb
 238              		.thumb_func
 239              		.type	QX_BuildHeader, %function
 240              	QX_BuildHeader:
 241              	.LFB7:
 387:..\..\FreeflyAPI/QX_Protocol.c **** 	// Start at the Attribute Field
 242              		.loc 1 387 0
 243              		.cfi_startproc
 244              		@ args = 0, pretend = 0, frame = 8
 245              		@ frame_needed = 0, uses_anonymous_args = 0
 246              	.LVL31:
 247 0000 30B5     		push	{r4, r5, lr}
 248              		.cfi_def_cfa_offset 12
 249              		.cfi_offset 4, -12
 250              		.cfi_offset 5, -8
 251              		.cfi_offset 14, -4
 252 0002 83B0     		sub	sp, sp, #12
 253              		.cfi_def_cfa_offset 24
 254 0004 0446     		mov	r4, r0
 389:..\..\FreeflyAPI/QX_Protocol.c **** 
 255              		.loc 1 389 0
 256 0006 836E     		ldr	r3, [r0, #104]
 257 0008 0546     		mov	r5, r0
 258 000a 45F8703F 		str	r3, [r5, #112]!
 392:..\..\FreeflyAPI/QX_Protocol.c **** 
 259              		.loc 1 392 0
 260 000e C168     		ldr	r1, [r0, #12]
 261 0010 2846     		mov	r0, r5
 262              	.LVL32:
 263 0012 FFF7FEFF 		bl	QX_AddExtdValToBuf
 264              	.LVL33:
 394:..\..\FreeflyAPI/QX_Protocol.c **** 	
 265              		.loc 1 394 0
 266 0016 0023     		movs	r3, #0
 267 0018 6374     		strb	r3, [r4, #17]
 397:..\..\FreeflyAPI/QX_Protocol.c **** 		Msg_p->Header.AddOptionByte1 = 1;
 268              		.loc 1 397 0
 269 001a A37C     		ldrb	r3, [r4, #18]	@ zero_extendqisi2
 270 001c 0BB1     		cbz	r3, .L20
 398:..\..\FreeflyAPI/QX_Protocol.c **** 	}
 271              		.loc 1 398 0
 272 001e 0123     		movs	r3, #1
 273 0020 6374     		strb	r3, [r4, #17]
ARM GAS  C:\Users\hamis\AppData\Local\Temp\ccsOK97v.s 			page 15


 274              	.L20:
 402:..\..\FreeflyAPI/QX_Protocol.c **** 	OptionByte |= (Msg_p->Header.Type & 0xF);
 275              		.loc 1 402 0
 276 0022 0023     		movs	r3, #0
 277 0024 8DF80730 		strb	r3, [sp, #7]
 403:..\..\FreeflyAPI/QX_Protocol.c **** 	OptionByte |= (Msg_p->Header.FF_Ext & 0x01) << 4;
 278              		.loc 1 403 0
 279 0028 237C     		ldrb	r3, [r4, #16]	@ zero_extendqisi2
 280 002a 9DF80720 		ldrb	r2, [sp, #7]	@ zero_extendqisi2
 281 002e 03F00F03 		and	r3, r3, #15
 282 0032 1343     		orrs	r3, r3, r2
 283 0034 8DF80730 		strb	r3, [sp, #7]
 404:..\..\FreeflyAPI/QX_Protocol.c **** 	OptionByte |= (Msg_p->Header.Remove_Req_Fields & 0x01) << 5;
 284              		.loc 1 404 0
 285 0038 E37C     		ldrb	r3, [r4, #19]	@ zero_extendqisi2
 286 003a 1B01     		lsls	r3, r3, #4
 287 003c 9DF80720 		ldrb	r2, [sp, #7]	@ zero_extendqisi2
 288 0040 03F01003 		and	r3, r3, #16
 289 0044 1343     		orrs	r3, r3, r2
 290 0046 8DF80730 		strb	r3, [sp, #7]
 405:..\..\FreeflyAPI/QX_Protocol.c **** 	OptionByte |= (Msg_p->Header.Remove_Addr_Fields & 0x01) << 6;
 291              		.loc 1 405 0
 292 004a E37D     		ldrb	r3, [r4, #23]	@ zero_extendqisi2
 293 004c 5B01     		lsls	r3, r3, #5
 294 004e 9DF80720 		ldrb	r2, [sp, #7]	@ zero_extendqisi2
 295 0052 03F02003 		and	r3, r3, #32
 296 0056 1343     		orrs	r3, r3, r2
 297 0058 8DF80730 		strb	r3, [sp, #7]
 406:..\..\FreeflyAPI/QX_Protocol.c **** 	OptionByte |= (Msg_p->Header.AddOptionByte1 & 0x01) << 7;
 298              		.loc 1 406 0
 299 005c A37D     		ldrb	r3, [r4, #22]	@ zero_extendqisi2
 300 005e 9B01     		lsls	r3, r3, #6
 301 0060 9DF80720 		ldrb	r2, [sp, #7]	@ zero_extendqisi2
 302 0064 03F04003 		and	r3, r3, #64
 303 0068 1343     		orrs	r3, r3, r2
 304 006a 8DF80730 		strb	r3, [sp, #7]
 407:..\..\FreeflyAPI/QX_Protocol.c **** 	*Msg_p->MsgBuf_p++ = OptionByte;
 305              		.loc 1 407 0
 306 006e 627C     		ldrb	r2, [r4, #17]	@ zero_extendqisi2
 307 0070 9DF80730 		ldrb	r3, [sp, #7]	@ zero_extendqisi2
 308 0074 43EAC213 		orr	r3, r3, r2, lsl #7
 309 0078 DBB2     		uxtb	r3, r3
 310 007a 8DF80730 		strb	r3, [sp, #7]
 408:..\..\FreeflyAPI/QX_Protocol.c **** 	
 311              		.loc 1 408 0
 312 007e 236F     		ldr	r3, [r4, #112]
 313 0080 5A1C     		adds	r2, r3, #1
 314 0082 2267     		str	r2, [r4, #112]
 315 0084 9DF80720 		ldrb	r2, [sp, #7]	@ zero_extendqisi2
 316 0088 1A70     		strb	r2, [r3]
 411:..\..\FreeflyAPI/QX_Protocol.c **** 		OptionByte = 0;
 317              		.loc 1 411 0
 318 008a 637C     		ldrb	r3, [r4, #17]	@ zero_extendqisi2
 319 008c 83B1     		cbz	r3, .L21
 412:..\..\FreeflyAPI/QX_Protocol.c **** 		OptionByte |= (Msg_p->Header.AddCRC32 & 0x01) << 0;
 320              		.loc 1 412 0
 321 008e 0023     		movs	r3, #0
ARM GAS  C:\Users\hamis\AppData\Local\Temp\ccsOK97v.s 			page 16


 322 0090 8DF80730 		strb	r3, [sp, #7]
 413:..\..\FreeflyAPI/QX_Protocol.c **** 		*Msg_p->MsgBuf_p++ = OptionByte;
 323              		.loc 1 413 0
 324 0094 A37C     		ldrb	r3, [r4, #18]	@ zero_extendqisi2
 325 0096 9DF80720 		ldrb	r2, [sp, #7]	@ zero_extendqisi2
 326 009a 03F00103 		and	r3, r3, #1
 327 009e 1343     		orrs	r3, r3, r2
 328 00a0 8DF80730 		strb	r3, [sp, #7]
 414:..\..\FreeflyAPI/QX_Protocol.c **** 	}
 329              		.loc 1 414 0
 330 00a4 236F     		ldr	r3, [r4, #112]
 331 00a6 5A1C     		adds	r2, r3, #1
 332 00a8 2267     		str	r2, [r4, #112]
 333 00aa 9DF80720 		ldrb	r2, [sp, #7]	@ zero_extendqisi2
 334 00ae 1A70     		strb	r2, [r3]
 335              	.L21:
 418:..\..\FreeflyAPI/QX_Protocol.c **** 		QX_AddExtdValToBuf(&Msg_p->MsgBuf_p, Msg_p->Header.Source_Addr);
 336              		.loc 1 418 0
 337 00b0 A37D     		ldrb	r3, [r4, #22]	@ zero_extendqisi2
 338 00b2 43B9     		cbnz	r3, .L22
 419:..\..\FreeflyAPI/QX_Protocol.c **** 		QX_AddExtdValToBuf(&Msg_p->MsgBuf_p, Msg_p->Header.Target_Addr);
 339              		.loc 1 419 0
 340 00b4 217E     		ldrb	r1, [r4, #24]	@ zero_extendqisi2
 341 00b6 2846     		mov	r0, r5
 342 00b8 FFF7FEFF 		bl	QX_AddExtdValToBuf
 343              	.LVL34:
 420:..\..\FreeflyAPI/QX_Protocol.c **** 	} else {
 344              		.loc 1 420 0
 345 00bc 617E     		ldrb	r1, [r4, #25]	@ zero_extendqisi2
 346 00be 2846     		mov	r0, r5
 347 00c0 FFF7FEFF 		bl	QX_AddExtdValToBuf
 348              	.LVL35:
 349 00c4 02E0     		b	.L23
 350              	.L22:
 422:..\..\FreeflyAPI/QX_Protocol.c **** 		Msg_p->Header.Target_Addr = QX_DEV_ID_BROADCAST;
 351              		.loc 1 422 0
 352 00c6 0023     		movs	r3, #0
 353 00c8 2376     		strb	r3, [r4, #24]
 423:..\..\FreeflyAPI/QX_Protocol.c **** 	}
 354              		.loc 1 423 0
 355 00ca 6376     		strb	r3, [r4, #25]
 356              	.L23:
 427:..\..\FreeflyAPI/QX_Protocol.c **** 		QX_AddExtdValToBuf(&Msg_p->MsgBuf_p, Msg_p->Header.TransReq_Addr);
 357              		.loc 1 427 0
 358 00cc E37D     		ldrb	r3, [r4, #23]	@ zero_extendqisi2
 359 00ce 43B9     		cbnz	r3, .L24
 428:..\..\FreeflyAPI/QX_Protocol.c **** 		QX_AddExtdValToBuf(&Msg_p->MsgBuf_p, Msg_p->Header.RespReq_Addr);
 360              		.loc 1 428 0
 361 00d0 A17E     		ldrb	r1, [r4, #26]	@ zero_extendqisi2
 362 00d2 2846     		mov	r0, r5
 363 00d4 FFF7FEFF 		bl	QX_AddExtdValToBuf
 364              	.LVL36:
 429:..\..\FreeflyAPI/QX_Protocol.c **** 	} else {
 365              		.loc 1 429 0
 366 00d8 E17E     		ldrb	r1, [r4, #27]	@ zero_extendqisi2
 367 00da 2846     		mov	r0, r5
 368 00dc FFF7FEFF 		bl	QX_AddExtdValToBuf
ARM GAS  C:\Users\hamis\AppData\Local\Temp\ccsOK97v.s 			page 17


 369              	.LVL37:
 370 00e0 02E0     		b	.L25
 371              	.L24:
 431:..\..\FreeflyAPI/QX_Protocol.c **** 		Msg_p->Header.RespReq_Addr = QX_DEV_ID_BROADCAST;
 372              		.loc 1 431 0
 373 00e2 0023     		movs	r3, #0
 374 00e4 A376     		strb	r3, [r4, #26]
 432:..\..\FreeflyAPI/QX_Protocol.c **** 	}
 375              		.loc 1 432 0
 376 00e6 E376     		strb	r3, [r4, #27]
 377              	.L25:
 435:..\..\FreeflyAPI/QX_Protocol.c **** }
 378              		.loc 1 435 0
 379 00e8 236F     		ldr	r3, [r4, #112]
 380 00ea E366     		str	r3, [r4, #108]
 436:..\..\FreeflyAPI/QX_Protocol.c **** 
 381              		.loc 1 436 0
 382 00ec 03B0     		add	sp, sp, #12
 383              		.cfi_def_cfa_offset 12
 384              		@ sp needed
 385 00ee 30BD     		pop	{r4, r5, pc}
 386              		.cfi_endproc
 387              	.LFE7:
 388              		.size	QX_BuildHeader, .-QX_BuildHeader
 389              		.section	.text.QX_TxMsg_Setup,"ax",%progbits
 390              		.align	2
 391              		.global	QX_TxMsg_Setup
 392              		.thumb
 393              		.thumb_func
 394              		.type	QX_TxMsg_Setup, %function
 395              	QX_TxMsg_Setup:
 396              	.LFB5:
 283:..\..\FreeflyAPI/QX_Protocol.c **** 	// Set the Buffer pointer to the start of the Attribute field accounting for the maximum number of
 397              		.loc 1 283 0
 398              		.cfi_startproc
 399              		@ args = 0, pretend = 0, frame = 0
 400              		@ frame_needed = 0, uses_anonymous_args = 0
 401              	.LVL38:
 402 0000 08B5     		push	{r3, lr}
 403              		.cfi_def_cfa_offset 8
 404              		.cfi_offset 3, -8
 405              		.cfi_offset 14, -4
 286:..\..\FreeflyAPI/QX_Protocol.c **** 	TxMsg_p->MsgBuf_p = TxMsg_p->MsgBufAtt_p;
 406              		.loc 1 286 0
 407 0002 00F12003 		add	r3, r0, #32
 408 0006 8366     		str	r3, [r0, #104]
 287:..\..\FreeflyAPI/QX_Protocol.c **** 	
 409              		.loc 1 287 0
 410 0008 0367     		str	r3, [r0, #112]
 290:..\..\FreeflyAPI/QX_Protocol.c **** 		if (*QX_BuildHeader_Legacy != NULL){
 411              		.loc 1 290 0
 412 000a 4379     		ldrb	r3, [r0, #5]	@ zero_extendqisi2
 413 000c 2BB1     		cbz	r3, .L28
 291:..\..\FreeflyAPI/QX_Protocol.c **** 			QX_BuildHeader_Legacy(TxMsg_p);
 414              		.loc 1 291 0
 415 000e 064B     		ldr	r3, .L32
 416 0010 1B68     		ldr	r3, [r3]
ARM GAS  C:\Users\hamis\AppData\Local\Temp\ccsOK97v.s 			page 18


 417 0012 33B1     		cbz	r3, .L30
 292:..\..\FreeflyAPI/QX_Protocol.c **** 		} else {
 418              		.loc 1 292 0
 419 0014 9847     		blx	r3
 420              	.LVL39:
 300:..\..\FreeflyAPI/QX_Protocol.c **** }
 421              		.loc 1 300 0
 422 0016 0020     		movs	r0, #0
 423 0018 08BD     		pop	{r3, pc}
 424              	.LVL40:
 425              	.L28:
 297:..\..\FreeflyAPI/QX_Protocol.c **** 	}
 426              		.loc 1 297 0
 427 001a FFF7FEFF 		bl	QX_BuildHeader
 428              	.LVL41:
 300:..\..\FreeflyAPI/QX_Protocol.c **** }
 429              		.loc 1 300 0
 430 001e 0020     		movs	r0, #0
 431 0020 08BD     		pop	{r3, pc}
 432              	.LVL42:
 433              	.L30:
 294:..\..\FreeflyAPI/QX_Protocol.c **** 		}
 434              		.loc 1 294 0
 435 0022 0120     		movs	r0, #1
 436              	.LVL43:
 301:..\..\FreeflyAPI/QX_Protocol.c **** 
 437              		.loc 1 301 0
 438 0024 08BD     		pop	{r3, pc}
 439              	.L33:
 440 0026 00BF     		.align	2
 441              	.L32:
 442 0028 00000000 		.word	.LANCHOR0
 443              		.cfi_endproc
 444              	.LFE5:
 445              		.size	QX_TxMsg_Setup, .-QX_TxMsg_Setup
 446              		.section	.text.QX_GetExtdValFromBuf,"ax",%progbits
 447              		.align	2
 448              		.global	QX_GetExtdValFromBuf
 449              		.thumb
 450              		.thumb_func
 451              		.type	QX_GetExtdValFromBuf, %function
 452              	QX_GetExtdValFromBuf:
 453              	.LFB11:
 515:..\..\FreeflyAPI/QX_Protocol.c **** 
 516:..\..\FreeflyAPI/QX_Protocol.c **** //----------------------------------------------------------------------------
 517:..\..\FreeflyAPI/QX_Protocol.c **** // Get a 7th bit extendable (4 byte max) value from a buffer
 518:..\..\FreeflyAPI/QX_Protocol.c **** uint32_t QX_GetExtdValFromBuf(uint8_t **p)
 519:..\..\FreeflyAPI/QX_Protocol.c **** {
 454              		.loc 1 519 0
 455              		.cfi_startproc
 456              		@ args = 0, pretend = 0, frame = 0
 457              		@ frame_needed = 0, uses_anonymous_args = 0
 458              		@ link register save eliminated.
 459              	.LVL44:
 460 0000 70B4     		push	{r4, r5, r6}
 461              		.cfi_def_cfa_offset 12
 462              		.cfi_offset 4, -12
ARM GAS  C:\Users\hamis\AppData\Local\Temp\ccsOK97v.s 			page 19


 463              		.cfi_offset 5, -8
 464              		.cfi_offset 6, -4
 465 0002 0546     		mov	r5, r0
 466              	.LVL45:
 520:..\..\FreeflyAPI/QX_Protocol.c **** 	uint32_t Val = 0;
 521:..\..\FreeflyAPI/QX_Protocol.c **** 	int n;
 522:..\..\FreeflyAPI/QX_Protocol.c **** 	for (n = 0; n < 4; n++){
 467              		.loc 1 522 0
 468 0004 0023     		movs	r3, #0
 520:..\..\FreeflyAPI/QX_Protocol.c **** 	uint32_t Val = 0;
 469              		.loc 1 520 0
 470 0006 1846     		mov	r0, r3
 471              	.LVL46:
 472              		.loc 1 522 0
 473 0008 11E0     		b	.L35
 474              	.LVL47:
 475              	.L38:
 523:..\..\FreeflyAPI/QX_Protocol.c **** 		Val = (((uint32_t)(**p & 0x7F)) << (7*n)) | Val;
 476              		.loc 1 523 0
 477 000a 2A68     		ldr	r2, [r5]
 478 000c 1478     		ldrb	r4, [r2]	@ zero_extendqisi2
 479 000e 04F07F01 		and	r1, r4, #127
 480 0012 C3EBC306 		rsb	r6, r3, r3, lsl #3
 481 0016 B140     		lsls	r1, r1, r6
 482 0018 0843     		orrs	r0, r0, r1
 483              	.LVL48:
 524:..\..\FreeflyAPI/QX_Protocol.c **** 		if (**p & 0x80){
 484              		.loc 1 524 0
 485 001a 14F0800F 		tst	r4, #128
 486 001e 03D0     		beq	.L36
 525:..\..\FreeflyAPI/QX_Protocol.c **** 			(*p)++;
 487              		.loc 1 525 0
 488 0020 0132     		adds	r2, r2, #1
 489 0022 2A60     		str	r2, [r5]
 522:..\..\FreeflyAPI/QX_Protocol.c **** 		Val = (((uint32_t)(**p & 0x7F)) << (7*n)) | Val;
 490              		.loc 1 522 0
 491 0024 0133     		adds	r3, r3, #1
 492              	.LVL49:
 493 0026 02E0     		b	.L35
 494              	.L36:
 526:..\..\FreeflyAPI/QX_Protocol.c **** 		} else {
 527:..\..\FreeflyAPI/QX_Protocol.c **** 			(*p)++;
 495              		.loc 1 527 0
 496 0028 0132     		adds	r2, r2, #1
 497 002a 2A60     		str	r2, [r5]
 528:..\..\FreeflyAPI/QX_Protocol.c **** 			break;
 498              		.loc 1 528 0
 499 002c 01E0     		b	.L37
 500              	.LVL50:
 501              	.L35:
 522:..\..\FreeflyAPI/QX_Protocol.c **** 		Val = (((uint32_t)(**p & 0x7F)) << (7*n)) | Val;
 502              		.loc 1 522 0 discriminator 1
 503 002e 032B     		cmp	r3, #3
 504 0030 EBDD     		ble	.L38
 505              	.L37:
 529:..\..\FreeflyAPI/QX_Protocol.c **** 		}
 530:..\..\FreeflyAPI/QX_Protocol.c **** 	}
ARM GAS  C:\Users\hamis\AppData\Local\Temp\ccsOK97v.s 			page 20


 531:..\..\FreeflyAPI/QX_Protocol.c **** 	return Val;
 532:..\..\FreeflyAPI/QX_Protocol.c **** }
 506              		.loc 1 532 0
 507 0032 70BC     		pop	{r4, r5, r6}
 508              		.cfi_restore 6
 509              		.cfi_restore 5
 510              		.cfi_restore 4
 511              		.cfi_def_cfa_offset 0
 512              	.LVL51:
 513 0034 7047     		bx	lr
 514              		.cfi_endproc
 515              	.LFE11:
 516              		.size	QX_GetExtdValFromBuf, .-QX_GetExtdValFromBuf
 517 0036 00BF     		.section	.text.QX_ParseHeader,"ax",%progbits
 518              		.align	2
 519              		.global	QX_ParseHeader
 520              		.thumb
 521              		.thumb_func
 522              		.type	QX_ParseHeader, %function
 523              	QX_ParseHeader:
 524              	.LFB8:
 442:..\..\FreeflyAPI/QX_Protocol.c **** 	volatile uint8_t OptionByte;
 525              		.loc 1 442 0
 526              		.cfi_startproc
 527              		@ args = 0, pretend = 0, frame = 8
 528              		@ frame_needed = 0, uses_anonymous_args = 0
 529              	.LVL52:
 530 0000 30B5     		push	{r4, r5, lr}
 531              		.cfi_def_cfa_offset 12
 532              		.cfi_offset 4, -12
 533              		.cfi_offset 5, -8
 534              		.cfi_offset 14, -4
 535 0002 83B0     		sub	sp, sp, #12
 536              		.cfi_def_cfa_offset 24
 537 0004 0446     		mov	r4, r0
 445:..\..\FreeflyAPI/QX_Protocol.c **** 
 538              		.loc 1 445 0
 539 0006 836E     		ldr	r3, [r0, #104]
 540 0008 0546     		mov	r5, r0
 541 000a 45F8703F 		str	r3, [r5, #112]!
 449:..\..\FreeflyAPI/QX_Protocol.c **** 
 542              		.loc 1 449 0
 543 000e 2846     		mov	r0, r5
 544              	.LVL53:
 545 0010 FFF7FEFF 		bl	QX_GetExtdValFromBuf
 546              	.LVL54:
 547 0014 E060     		str	r0, [r4, #12]
 452:..\..\FreeflyAPI/QX_Protocol.c **** 	Msg_p->Header.Type = (QX_Msg_Type_e)(OptionByte & 0xF);
 548              		.loc 1 452 0
 549 0016 216F     		ldr	r1, [r4, #112]
 550 0018 481C     		adds	r0, r1, #1
 551 001a 2067     		str	r0, [r4, #112]
 552 001c 0B78     		ldrb	r3, [r1]	@ zero_extendqisi2
 553 001e 8DF80730 		strb	r3, [sp, #7]
 453:..\..\FreeflyAPI/QX_Protocol.c **** 	Msg_p->Header.FF_Ext = (OptionByte >> 4) & 0x1;
 554              		.loc 1 453 0
 555 0022 9DF80730 		ldrb	r3, [sp, #7]	@ zero_extendqisi2
ARM GAS  C:\Users\hamis\AppData\Local\Temp\ccsOK97v.s 			page 21


 556 0026 03F00F03 		and	r3, r3, #15
 557 002a 2374     		strb	r3, [r4, #16]
 454:..\..\FreeflyAPI/QX_Protocol.c **** 	Msg_p->Header.Remove_Req_Fields = (OptionByte >> 5) & 0x1;
 558              		.loc 1 454 0
 559 002c 9DF80730 		ldrb	r3, [sp, #7]	@ zero_extendqisi2
 560 0030 C3F30013 		ubfx	r3, r3, #4, #1
 561 0034 E374     		strb	r3, [r4, #19]
 455:..\..\FreeflyAPI/QX_Protocol.c **** 	Msg_p->Header.Remove_Addr_Fields = (OptionByte >> 6) & 0x1;
 562              		.loc 1 455 0
 563 0036 9DF80730 		ldrb	r3, [sp, #7]	@ zero_extendqisi2
 564 003a C3F34013 		ubfx	r3, r3, #5, #1
 565 003e E375     		strb	r3, [r4, #23]
 456:..\..\FreeflyAPI/QX_Protocol.c **** 	Msg_p->Header.AddOptionByte1 = (OptionByte >> 7) & 0x1;
 566              		.loc 1 456 0
 567 0040 9DF80730 		ldrb	r3, [sp, #7]	@ zero_extendqisi2
 568 0044 C3F38013 		ubfx	r3, r3, #6, #1
 569 0048 A375     		strb	r3, [r4, #22]
 457:..\..\FreeflyAPI/QX_Protocol.c **** 	
 570              		.loc 1 457 0
 571 004a 9DF80720 		ldrb	r2, [sp, #7]	@ zero_extendqisi2
 572 004e D209     		lsrs	r2, r2, #7
 573 0050 6274     		strb	r2, [r4, #17]
 460:..\..\FreeflyAPI/QX_Protocol.c **** 		OptionByte = *Msg_p->MsgBuf_p++;
 574              		.loc 1 460 0
 575 0052 4AB1     		cbz	r2, .L41
 461:..\..\FreeflyAPI/QX_Protocol.c **** 		Msg_p->Header.AddCRC32 = (OptionByte >> 0) & 0x1;
 576              		.loc 1 461 0
 577 0054 881C     		adds	r0, r1, #2
 578 0056 2067     		str	r0, [r4, #112]
 579 0058 4A78     		ldrb	r2, [r1, #1]	@ zero_extendqisi2
 580 005a 8DF80720 		strb	r2, [sp, #7]
 462:..\..\FreeflyAPI/QX_Protocol.c **** 	}
 581              		.loc 1 462 0
 582 005e 9DF80720 		ldrb	r2, [sp, #7]	@ zero_extendqisi2
 583 0062 02F00102 		and	r2, r2, #1
 584 0066 A274     		strb	r2, [r4, #18]
 585              	.L41:
 466:..\..\FreeflyAPI/QX_Protocol.c **** 		Msg_p->Header.Source_Addr = (QX_DevId_e)(QX_GetExtdValFromBuf(&Msg_p->MsgBuf_p));
 586              		.loc 1 466 0
 587 0068 3BB9     		cbnz	r3, .L42
 467:..\..\FreeflyAPI/QX_Protocol.c **** 		Msg_p->Header.Target_Addr = (QX_DevId_e)(QX_GetExtdValFromBuf(&Msg_p->MsgBuf_p));
 588              		.loc 1 467 0
 589 006a 2846     		mov	r0, r5
 590 006c FFF7FEFF 		bl	QX_GetExtdValFromBuf
 591              	.LVL55:
 592 0070 2076     		strb	r0, [r4, #24]
 468:..\..\FreeflyAPI/QX_Protocol.c **** 	}
 593              		.loc 1 468 0
 594 0072 2846     		mov	r0, r5
 595 0074 FFF7FEFF 		bl	QX_GetExtdValFromBuf
 596              	.LVL56:
 597 0078 6076     		strb	r0, [r4, #25]
 598              	.L42:
 472:..\..\FreeflyAPI/QX_Protocol.c **** 		Msg_p->Header.TransReq_Addr = (QX_DevId_e)(QX_GetExtdValFromBuf(&Msg_p->MsgBuf_p));
 599              		.loc 1 472 0
 600 007a E37D     		ldrb	r3, [r4, #23]	@ zero_extendqisi2
 601 007c 3BB9     		cbnz	r3, .L43
ARM GAS  C:\Users\hamis\AppData\Local\Temp\ccsOK97v.s 			page 22


 473:..\..\FreeflyAPI/QX_Protocol.c **** 		Msg_p->Header.RespReq_Addr = (QX_DevId_e)(QX_GetExtdValFromBuf(&Msg_p->MsgBuf_p));
 602              		.loc 1 473 0
 603 007e 2846     		mov	r0, r5
 604 0080 FFF7FEFF 		bl	QX_GetExtdValFromBuf
 605              	.LVL57:
 606 0084 A076     		strb	r0, [r4, #26]
 474:..\..\FreeflyAPI/QX_Protocol.c **** 	}
 607              		.loc 1 474 0
 608 0086 2846     		mov	r0, r5
 609 0088 FFF7FEFF 		bl	QX_GetExtdValFromBuf
 610              	.LVL58:
 611 008c E076     		strb	r0, [r4, #27]
 612              	.L43:
 478:..\..\FreeflyAPI/QX_Protocol.c **** 		Msg_p->MsgBuf_p += 2;
 613              		.loc 1 478 0
 614 008e E37C     		ldrb	r3, [r4, #19]	@ zero_extendqisi2
 615 0090 13B1     		cbz	r3, .L40
 479:..\..\FreeflyAPI/QX_Protocol.c **** 	}
 616              		.loc 1 479 0
 617 0092 236F     		ldr	r3, [r4, #112]
 618 0094 0233     		adds	r3, r3, #2
 619 0096 2367     		str	r3, [r4, #112]
 620              	.L40:
 481:..\..\FreeflyAPI/QX_Protocol.c **** 
 621              		.loc 1 481 0
 622 0098 03B0     		add	sp, sp, #12
 623              		.cfi_def_cfa_offset 12
 624              		@ sp needed
 625 009a 30BD     		pop	{r4, r5, pc}
 626              		.cfi_endproc
 627              	.LFE8:
 628              		.size	QX_ParseHeader, .-QX_ParseHeader
 629              		.section	.text.QX_Disable_Default_Response,"ax",%progbits
 630              		.align	2
 631              		.global	QX_Disable_Default_Response
 632              		.thumb
 633              		.thumb_func
 634              		.type	QX_Disable_Default_Response, %function
 635              	QX_Disable_Default_Response:
 636              	.LFB12:
 533:..\..\FreeflyAPI/QX_Protocol.c **** 
 534:..\..\FreeflyAPI/QX_Protocol.c **** 
 535:..\..\FreeflyAPI/QX_Protocol.c **** //----------------------------------------------------------------------------
 536:..\..\FreeflyAPI/QX_Protocol.c **** // Disable the default response to a message
 537:..\..\FreeflyAPI/QX_Protocol.c **** void QX_Disable_Default_Response(QX_Msg_t *Msg_p)
 538:..\..\FreeflyAPI/QX_Protocol.c **** {
 637              		.loc 1 538 0
 638              		.cfi_startproc
 639              		@ args = 0, pretend = 0, frame = 0
 640              		@ frame_needed = 0, uses_anonymous_args = 0
 641              		@ link register save eliminated.
 642              	.LVL59:
 539:..\..\FreeflyAPI/QX_Protocol.c **** 	Msg_p->DisableStdResponse = 1;
 643              		.loc 1 539 0
 644 0000 0123     		movs	r3, #1
 645 0002 4370     		strb	r3, [r0, #1]
 646 0004 7047     		bx	lr
ARM GAS  C:\Users\hamis\AppData\Local\Temp\ccsOK97v.s 			page 23


 647              		.cfi_endproc
 648              	.LFE12:
 649              		.size	QX_Disable_Default_Response, .-QX_Disable_Default_Response
 650 0006 00BF     		.section	.text.QX_compute_crc32,"ax",%progbits
 651              		.align	2
 652              		.global	QX_compute_crc32
 653              		.thumb
 654              		.thumb_func
 655              		.type	QX_compute_crc32, %function
 656              	QX_compute_crc32:
 657              	.LFB13:
 540:..\..\FreeflyAPI/QX_Protocol.c **** }
 541:..\..\FreeflyAPI/QX_Protocol.c **** 
 542:..\..\FreeflyAPI/QX_Protocol.c **** 
 543:..\..\FreeflyAPI/QX_Protocol.c **** //----------------------------------------------------------------------------
 544:..\..\FreeflyAPI/QX_Protocol.c **** // compute a chunk of the CRC
 545:..\..\FreeflyAPI/QX_Protocol.c **** uint32_t QX_compute_crc32(uint8_t data)
 546:..\..\FreeflyAPI/QX_Protocol.c **** {
 658              		.loc 1 546 0
 659              		.cfi_startproc
 660              		@ args = 0, pretend = 0, frame = 0
 661              		@ frame_needed = 0, uses_anonymous_args = 0
 662              		@ link register save eliminated.
 663              	.LVL60:
 547:..\..\FreeflyAPI/QX_Protocol.c ****     uint8_t i;
 548:..\..\FreeflyAPI/QX_Protocol.c ****     uint32_t crc;
 549:..\..\FreeflyAPI/QX_Protocol.c ****     
 550:..\..\FreeflyAPI/QX_Protocol.c ****     crc = (uint32_t)data << 24;
 664              		.loc 1 550 0
 665 0000 0006     		lsls	r0, r0, #24
 666              	.LVL61:
 551:..\..\FreeflyAPI/QX_Protocol.c ****     for(i = 0; i < 8; i++)
 667              		.loc 1 551 0
 668 0002 0023     		movs	r3, #0
 669 0004 08E0     		b	.L48
 670              	.LVL62:
 671              	.L51:
 552:..\..\FreeflyAPI/QX_Protocol.c ****     {
 553:..\..\FreeflyAPI/QX_Protocol.c ****         if((crc & 0x80000000) != 0)
 672              		.loc 1 553 0
 673 0006 0028     		cmp	r0, #0
 674 0008 03DA     		bge	.L49
 554:..\..\FreeflyAPI/QX_Protocol.c ****             crc = (crc << 1) ^ 0x04C11DB7;
 675              		.loc 1 554 0
 676 000a 054A     		ldr	r2, .L52
 677 000c 82EA4000 		eor	r0, r2, r0, lsl #1
 678              	.LVL63:
 679 0010 00E0     		b	.L50
 680              	.L49:
 555:..\..\FreeflyAPI/QX_Protocol.c ****         else
 556:..\..\FreeflyAPI/QX_Protocol.c ****             crc = (crc << 1);
 681              		.loc 1 556 0
 682 0012 4000     		lsls	r0, r0, #1
 683              	.LVL64:
 684              	.L50:
 551:..\..\FreeflyAPI/QX_Protocol.c ****     {
 685              		.loc 1 551 0 discriminator 2
ARM GAS  C:\Users\hamis\AppData\Local\Temp\ccsOK97v.s 			page 24


 686 0014 0133     		adds	r3, r3, #1
 687              	.LVL65:
 688 0016 DBB2     		uxtb	r3, r3
 689              	.LVL66:
 690              	.L48:
 551:..\..\FreeflyAPI/QX_Protocol.c ****     {
 691              		.loc 1 551 0 is_stmt 0 discriminator 1
 692 0018 072B     		cmp	r3, #7
 693 001a F4D9     		bls	.L51
 557:..\..\FreeflyAPI/QX_Protocol.c ****     }
 558:..\..\FreeflyAPI/QX_Protocol.c ****     
 559:..\..\FreeflyAPI/QX_Protocol.c ****     return crc;
 560:..\..\FreeflyAPI/QX_Protocol.c **** }
 694              		.loc 1 560 0 is_stmt 1
 695 001c 7047     		bx	lr
 696              	.L53:
 697 001e 00BF     		.align	2
 698              	.L52:
 699 0020 B71DC104 		.word	79764919
 700              		.cfi_endproc
 701              	.LFE13:
 702              		.size	QX_compute_crc32, .-QX_compute_crc32
 703              		.section	.text.QX_accumulate_crc32,"ax",%progbits
 704              		.align	2
 705              		.global	QX_accumulate_crc32
 706              		.thumb
 707              		.thumb_func
 708              		.type	QX_accumulate_crc32, %function
 709              	QX_accumulate_crc32:
 710              	.LFB14:
 561:..\..\FreeflyAPI/QX_Protocol.c **** 
 562:..\..\FreeflyAPI/QX_Protocol.c **** 
 563:..\..\FreeflyAPI/QX_Protocol.c **** //----------------------------------------------------------------------------
 564:..\..\FreeflyAPI/QX_Protocol.c **** // Calculate CRC32 - overrideable
 565:..\..\FreeflyAPI/QX_Protocol.c **** uint32_t QX_accumulate_crc32(uint32_t initial, const uint8_t * data, uint32_t size)
 566:..\..\FreeflyAPI/QX_Protocol.c **** {
 711              		.loc 1 566 0
 712              		.cfi_startproc
 713              		@ args = 0, pretend = 0, frame = 0
 714              		@ frame_needed = 0, uses_anonymous_args = 0
 715              	.LVL67:
 716 0000 F8B5     		push	{r3, r4, r5, r6, r7, lr}
 717              		.cfi_def_cfa_offset 24
 718              		.cfi_offset 3, -24
 719              		.cfi_offset 4, -20
 720              		.cfi_offset 5, -16
 721              		.cfi_offset 6, -12
 722              		.cfi_offset 7, -8
 723              		.cfi_offset 14, -4
 724 0002 0546     		mov	r5, r0
 725 0004 0F46     		mov	r7, r1
 726 0006 1646     		mov	r6, r2
 727              	.LVL68:
 567:..\..\FreeflyAPI/QX_Protocol.c ****     uint32_t i;
 568:..\..\FreeflyAPI/QX_Protocol.c ****     uint32_t final;
 569:..\..\FreeflyAPI/QX_Protocol.c ****     
 570:..\..\FreeflyAPI/QX_Protocol.c ****     final = initial;
ARM GAS  C:\Users\hamis\AppData\Local\Temp\ccsOK97v.s 			page 25


 571:..\..\FreeflyAPI/QX_Protocol.c ****     for(i = 0; i < size; i++)
 728              		.loc 1 571 0
 729 0008 0024     		movs	r4, #0
 730 000a 07E0     		b	.L55
 731              	.LVL69:
 732              	.L56:
 572:..\..\FreeflyAPI/QX_Protocol.c ****         final = QX_compute_crc32((uint8_t)(final >> 24) ^ data[i]) ^ (final << 8);
 733              		.loc 1 572 0 discriminator 3
 734 000c 385D     		ldrb	r0, [r7, r4]	@ zero_extendqisi2
 735 000e 80EA1560 		eor	r0, r0, r5, lsr #24
 736 0012 FFF7FEFF 		bl	QX_compute_crc32
 737              	.LVL70:
 738 0016 80EA0525 		eor	r5, r0, r5, lsl #8
 739              	.LVL71:
 571:..\..\FreeflyAPI/QX_Protocol.c ****         final = QX_compute_crc32((uint8_t)(final >> 24) ^ data[i]) ^ (final << 8);
 740              		.loc 1 571 0 discriminator 3
 741 001a 0134     		adds	r4, r4, #1
 742              	.LVL72:
 743              	.L55:
 571:..\..\FreeflyAPI/QX_Protocol.c ****         final = QX_compute_crc32((uint8_t)(final >> 24) ^ data[i]) ^ (final << 8);
 744              		.loc 1 571 0 is_stmt 0 discriminator 1
 745 001c B442     		cmp	r4, r6
 746 001e F5D3     		bcc	.L56
 573:..\..\FreeflyAPI/QX_Protocol.c ****     
 574:..\..\FreeflyAPI/QX_Protocol.c ****     return final;
 575:..\..\FreeflyAPI/QX_Protocol.c **** }
 747              		.loc 1 575 0 is_stmt 1
 748 0020 2846     		mov	r0, r5
 749 0022 F8BD     		pop	{r3, r4, r5, r6, r7, pc}
 750              		.cfi_endproc
 751              	.LFE14:
 752              		.size	QX_accumulate_crc32, .-QX_accumulate_crc32
 753              		.section	.text.QX_TxMsg_Finish,"ax",%progbits
 754              		.align	2
 755              		.global	QX_TxMsg_Finish
 756              		.thumb
 757              		.thumb_func
 758              		.type	QX_TxMsg_Finish, %function
 759              	QX_TxMsg_Finish:
 760              	.LFB6:
 307:..\..\FreeflyAPI/QX_Protocol.c **** 	uint8_t QX_use2ByteLen = 0;
 761              		.loc 1 307 0
 762              		.cfi_startproc
 763              		@ args = 0, pretend = 0, frame = 8
 764              		@ frame_needed = 0, uses_anonymous_args = 0
 765              	.LVL73:
 311:..\..\FreeflyAPI/QX_Protocol.c **** 	
 766              		.loc 1 311 0
 767 0000 0379     		ldrb	r3, [r0, #4]	@ zero_extendqisi2
 768 0002 012B     		cmp	r3, #1
 769 0004 79D0     		beq	.L68
 307:..\..\FreeflyAPI/QX_Protocol.c **** 	uint8_t QX_use2ByteLen = 0;
 770              		.loc 1 307 0
 771 0006 F0B5     		push	{r4, r5, r6, r7, lr}
 772              		.cfi_def_cfa_offset 20
 773              		.cfi_offset 4, -20
 774              		.cfi_offset 5, -16
ARM GAS  C:\Users\hamis\AppData\Local\Temp\ccsOK97v.s 			page 26


 775              		.cfi_offset 6, -12
 776              		.cfi_offset 7, -8
 777              		.cfi_offset 14, -4
 778 0008 83B0     		sub	sp, sp, #12
 779              		.cfi_def_cfa_offset 32
 314:..\..\FreeflyAPI/QX_Protocol.c **** 	
 780              		.loc 1 314 0
 781 000a 076F     		ldr	r7, [r0, #112]
 782 000c 836E     		ldr	r3, [r0, #104]
 783 000e FB1A     		subs	r3, r7, r3
 784 0010 9BB2     		uxth	r3, r3
 785 0012 0381     		strh	r3, [r0, #8]	@ movhi
 317:..\..\FreeflyAPI/QX_Protocol.c **** 		TxMsg_p->MsgBufStart_p = &TxMsg_p->MsgBuf[0];
 786              		.loc 1 317 0
 787 0014 4279     		ldrb	r2, [r0, #5]	@ zero_extendqisi2
 788 0016 0AB9     		cbnz	r2, .L60
 317:..\..\FreeflyAPI/QX_Protocol.c **** 		TxMsg_p->MsgBufStart_p = &TxMsg_p->MsgBuf[0];
 789              		.loc 1 317 0 is_stmt 0 discriminator 1
 790 0018 642B     		cmp	r3, #100
 791 001a 04D9     		bls	.L61
 792              	.L60:
 318:..\..\FreeflyAPI/QX_Protocol.c **** 		QX_use2ByteLen = 1;
 793              		.loc 1 318 0 is_stmt 1
 794 001c 00F11C03 		add	r3, r0, #28
 795 0020 4366     		str	r3, [r0, #100]
 796              	.LVL74:
 319:..\..\FreeflyAPI/QX_Protocol.c **** 	} else {
 797              		.loc 1 319 0
 798 0022 0126     		movs	r6, #1
 799 0024 03E0     		b	.L62
 800              	.LVL75:
 801              	.L61:
 321:..\..\FreeflyAPI/QX_Protocol.c **** 	}
 802              		.loc 1 321 0
 803 0026 00F11D03 		add	r3, r0, #29
 804 002a 4366     		str	r3, [r0, #100]
 308:..\..\FreeflyAPI/QX_Protocol.c **** 	
 805              		.loc 1 308 0
 806 002c 0026     		movs	r6, #0
 807              	.LVL76:
 808              	.L62:
 809 002e 0446     		mov	r4, r0
 810              	.LVL77:
 325:..\..\FreeflyAPI/QX_Protocol.c **** 	
 811              		.loc 1 325 0
 812 0030 436E     		ldr	r3, [r0, #100]
 813 0032 FB1A     		subs	r3, r7, r3
 814 0034 9BB2     		uxth	r3, r3
 815 0036 A0F86230 		strh	r3, [r0, #98]	@ movhi
 328:..\..\FreeflyAPI/QX_Protocol.c **** 		
 816              		.loc 1 328 0
 817 003a 827C     		ldrb	r2, [r0, #18]	@ zero_extendqisi2
 818 003c A2B1     		cbz	r2, .L63
 819              	.LBB4:
 331:..\..\FreeflyAPI/QX_Protocol.c **** 		memset(TxMsg_p->MsgBuf_p, 0, bytes_to_add);		// write zeros to the padding
 820              		.loc 1 331 0
 821 003e 03F00303 		and	r3, r3, #3
ARM GAS  C:\Users\hamis\AppData\Local\Temp\ccsOK97v.s 			page 27


 822 0042 C3F10405 		rsb	r5, r3, #4
 823              	.LVL78:
 332:..\..\FreeflyAPI/QX_Protocol.c **** 		TxMsg_p->MsgBuf_p += bytes_to_add;				// Move to where the CRC should be inserted
 824              		.loc 1 332 0
 825 0046 2A46     		mov	r2, r5
 826 0048 0021     		movs	r1, #0
 827 004a 3846     		mov	r0, r7
 828              	.LVL79:
 829 004c FFF7FEFF 		bl	memset
 830              	.LVL80:
 333:..\..\FreeflyAPI/QX_Protocol.c **** 		TxMsg_p->MsgBuf_MsgLen += bytes_to_add;			// msg length not including CRC + outer checksum
 831              		.loc 1 333 0
 832 0050 226F     		ldr	r2, [r4, #112]
 833 0052 2A44     		add	r2, r2, r5
 834 0054 2267     		str	r2, [r4, #112]
 334:..\..\FreeflyAPI/QX_Protocol.c **** 		TxMsg_p->Header.MsgLength = (TxMsg_p->MsgBuf_p - TxMsg_p->MsgBufAtt_p) + 4;	// length between att
 835              		.loc 1 334 0
 836 0056 B4F86230 		ldrh	r3, [r4, #98]
 837 005a 1D44     		add	r5, r5, r3
 838              	.LVL81:
 839 005c A4F86250 		strh	r5, [r4, #98]	@ movhi
 335:..\..\FreeflyAPI/QX_Protocol.c **** 	}
 840              		.loc 1 335 0
 841 0060 A36E     		ldr	r3, [r4, #104]
 842 0062 D21A     		subs	r2, r2, r3
 843 0064 0432     		adds	r2, r2, #4
 844 0066 2281     		strh	r2, [r4, #8]	@ movhi
 845              	.L63:
 846              	.LBE4:
 339:..\..\FreeflyAPI/QX_Protocol.c **** 			TxMsg_p->MsgBuf[0] = 'Q';
 847              		.loc 1 339 0
 848 0068 6379     		ldrb	r3, [r4, #5]	@ zero_extendqisi2
 849 006a 43B1     		cbz	r3, .L64
 340:..\..\FreeflyAPI/QX_Protocol.c **** 			TxMsg_p->MsgBuf[1] = 'B';
 850              		.loc 1 340 0
 851 006c 5123     		movs	r3, #81
 852 006e 2377     		strb	r3, [r4, #28]
 341:..\..\FreeflyAPI/QX_Protocol.c **** 			TxMsg_p->MsgBuf[2] = (TxMsg_p->Header.MsgLength >> 8) & 0xFF;
 853              		.loc 1 341 0
 854 0070 4223     		movs	r3, #66
 855 0072 6377     		strb	r3, [r4, #29]
 342:..\..\FreeflyAPI/QX_Protocol.c **** 			TxMsg_p->MsgBuf[3] = TxMsg_p->Header.MsgLength & 0xFF;
 856              		.loc 1 342 0
 857 0074 2389     		ldrh	r3, [r4, #8]
 858 0076 1A0A     		lsrs	r2, r3, #8
 859 0078 A277     		strb	r2, [r4, #30]
 343:..\..\FreeflyAPI/QX_Protocol.c **** 	} else {	// QX
 860              		.loc 1 343 0
 861 007a E377     		strb	r3, [r4, #31]
 862 007c 14E0     		b	.L65
 863              	.L64:
 345:..\..\FreeflyAPI/QX_Protocol.c **** 			TxMsg_p->MsgBuf[0] = 'Q';
 864              		.loc 1 345 0
 865 007e 5EB1     		cbz	r6, .L66
 346:..\..\FreeflyAPI/QX_Protocol.c **** 			TxMsg_p->MsgBuf[1] = 'X';
 866              		.loc 1 346 0
 867 0080 5123     		movs	r3, #81
ARM GAS  C:\Users\hamis\AppData\Local\Temp\ccsOK97v.s 			page 28


 868 0082 2377     		strb	r3, [r4, #28]
 347:..\..\FreeflyAPI/QX_Protocol.c **** 			TxMsg_p->MsgBuf[2] = (TxMsg_p->Header.MsgLength & 0x7F) | 0x80;
 869              		.loc 1 347 0
 870 0084 5823     		movs	r3, #88
 871 0086 6377     		strb	r3, [r4, #29]
 348:..\..\FreeflyAPI/QX_Protocol.c **** 			TxMsg_p->MsgBuf[3] = ((TxMsg_p->Header.MsgLength >> 7) & 0x7F);
 872              		.loc 1 348 0
 873 0088 2389     		ldrh	r3, [r4, #8]
 874 008a 63F07F02 		orn	r2, r3, #127
 875 008e A277     		strb	r2, [r4, #30]
 349:..\..\FreeflyAPI/QX_Protocol.c **** 		} else {
 876              		.loc 1 349 0
 877 0090 C3F3C613 		ubfx	r3, r3, #7, #7
 878 0094 E377     		strb	r3, [r4, #31]
 879 0096 07E0     		b	.L65
 880              	.L66:
 351:..\..\FreeflyAPI/QX_Protocol.c **** 			TxMsg_p->MsgBuf[2] = 'X';
 881              		.loc 1 351 0
 882 0098 5123     		movs	r3, #81
 883 009a 6377     		strb	r3, [r4, #29]
 352:..\..\FreeflyAPI/QX_Protocol.c **** 			TxMsg_p->MsgBuf[3] = TxMsg_p->Header.MsgLength & 0x7F;
 884              		.loc 1 352 0
 885 009c 5823     		movs	r3, #88
 886 009e A377     		strb	r3, [r4, #30]
 353:..\..\FreeflyAPI/QX_Protocol.c **** 		}
 887              		.loc 1 353 0
 888 00a0 2389     		ldrh	r3, [r4, #8]
 889 00a2 03F07F03 		and	r3, r3, #127
 890 00a6 E377     		strb	r3, [r4, #31]
 891              	.L65:
 358:..\..\FreeflyAPI/QX_Protocol.c **** 		uint32_t crc = QX_accumulate_crc32(0xFFFFFFFF, TxMsg_p->MsgBufStart_p, TxMsg_p->MsgBuf_MsgLen);
 892              		.loc 1 358 0
 893 00a8 A37C     		ldrb	r3, [r4, #18]	@ zero_extendqisi2
 894 00aa 9BB1     		cbz	r3, .L67
 895              	.LBB5:
 359:..\..\FreeflyAPI/QX_Protocol.c **** 		memcpy(TxMsg_p->MsgBuf_p, &crc, sizeof(crc));
 896              		.loc 1 359 0
 897 00ac B4F86220 		ldrh	r2, [r4, #98]
 898 00b0 616E     		ldr	r1, [r4, #100]
 899 00b2 4FF0FF30 		mov	r0, #-1
 900 00b6 FFF7FEFF 		bl	QX_accumulate_crc32
 901              	.LVL82:
 902 00ba 02AB     		add	r3, sp, #8
 903 00bc 43F8040D 		str	r0, [r3, #-4]!
 360:..\..\FreeflyAPI/QX_Protocol.c **** 		TxMsg_p->MsgBuf_p += 4;		// Add space for CRC32 checksum
 904              		.loc 1 360 0
 905 00c0 226F     		ldr	r2, [r4, #112]
 906 00c2 1868     		ldr	r0, [r3]	@ unaligned
 907 00c4 1060     		str	r0, [r2]	@ unaligned
 361:..\..\FreeflyAPI/QX_Protocol.c **** 		TxMsg_p->MsgBuf_MsgLen = TxMsg_p->MsgBuf_p - TxMsg_p->MsgBufStart_p;	// Update the overall msg le
 908              		.loc 1 361 0
 909 00c6 236F     		ldr	r3, [r4, #112]
 910 00c8 0433     		adds	r3, r3, #4
 911 00ca 2367     		str	r3, [r4, #112]
 362:..\..\FreeflyAPI/QX_Protocol.c **** 	}
 912              		.loc 1 362 0
 913 00cc 626E     		ldr	r2, [r4, #100]
ARM GAS  C:\Users\hamis\AppData\Local\Temp\ccsOK97v.s 			page 29


 914 00ce 9B1A     		subs	r3, r3, r2
 915 00d0 A4F86230 		strh	r3, [r4, #98]	@ movhi
 916              	.L67:
 917              	.LBE5:
 366:..\..\FreeflyAPI/QX_Protocol.c **** 	
 918              		.loc 1 366 0
 919 00d4 2189     		ldrh	r1, [r4, #8]
 920 00d6 A06E     		ldr	r0, [r4, #104]
 921 00d8 FFF7FEFF 		bl	QX_Calc8bChecksum
 922              	.LVL83:
 368:..\..\FreeflyAPI/QX_Protocol.c **** 	TxMsg_p->MsgBuf_MsgLen++;	// Final message length on the wire
 923              		.loc 1 368 0
 924 00dc 236F     		ldr	r3, [r4, #112]
 925 00de 5A1C     		adds	r2, r3, #1
 926 00e0 2267     		str	r2, [r4, #112]
 927 00e2 C043     		mvns	r0, r0
 928              	.LVL84:
 929 00e4 1870     		strb	r0, [r3]
 369:..\..\FreeflyAPI/QX_Protocol.c **** 	
 930              		.loc 1 369 0
 931 00e6 B4F86230 		ldrh	r3, [r4, #98]
 932 00ea 0133     		adds	r3, r3, #1
 933 00ec A4F86230 		strh	r3, [r4, #98]	@ movhi
 378:..\..\FreeflyAPI/QX_Protocol.c **** 	
 934              		.loc 1 378 0
 935 00f0 2046     		mov	r0, r4
 936 00f2 FFF7FEFF 		bl	QX_SendMsg2CommsPort_CB
 937              	.LVL85:
 380:..\..\FreeflyAPI/QX_Protocol.c **** }
 938              		.loc 1 380 0
 939 00f6 0020     		movs	r0, #0
 940 00f8 01E0     		b	.L59
 941              	.LVL86:
 942              	.L68:
 943              		.cfi_def_cfa_offset 0
 944              		.cfi_restore 4
 945              		.cfi_restore 5
 946              		.cfi_restore 6
 947              		.cfi_restore 7
 948              		.cfi_restore 14
 311:..\..\FreeflyAPI/QX_Protocol.c **** 	
 949              		.loc 1 311 0
 950 00fa 0820     		movs	r0, #8
 951              	.LVL87:
 952 00fc 7047     		bx	lr
 953              	.LVL88:
 954              	.L59:
 955              		.cfi_def_cfa_offset 32
 956              		.cfi_offset 4, -20
 957              		.cfi_offset 5, -16
 958              		.cfi_offset 6, -12
 959              		.cfi_offset 7, -8
 960              		.cfi_offset 14, -4
 381:..\..\FreeflyAPI/QX_Protocol.c **** 
 961              		.loc 1 381 0
 962 00fe 03B0     		add	sp, sp, #12
 963              		.cfi_def_cfa_offset 20
ARM GAS  C:\Users\hamis\AppData\Local\Temp\ccsOK97v.s 			page 30


 964              		@ sp needed
 965 0100 F0BD     		pop	{r4, r5, r6, r7, pc}
 966              		.cfi_endproc
 967              	.LFE6:
 968              		.size	QX_TxMsg_Finish, .-QX_TxMsg_Finish
 969 0102 00BF     		.section	.text.QX_InitSrv,"ax",%progbits
 970              		.align	2
 971              		.global	QX_InitSrv
 972              		.thumb
 973              		.thumb_func
 974              		.type	QX_InitSrv, %function
 975              	QX_InitSrv:
 976              	.LFB15:
 576:..\..\FreeflyAPI/QX_Protocol.c **** 
 577:..\..\FreeflyAPI/QX_Protocol.c **** 
 578:..\..\FreeflyAPI/QX_Protocol.c **** //****************************************************************************
 579:..\..\FreeflyAPI/QX_Protocol.c **** // Public Function Definitions
 580:..\..\FreeflyAPI/QX_Protocol.c **** //****************************************************************************
 581:..\..\FreeflyAPI/QX_Protocol.c **** 
 582:..\..\FreeflyAPI/QX_Protocol.c **** //----------------------------------------------------------------------------
 583:..\..\FreeflyAPI/QX_Protocol.c **** // Initialize the server with the address, parser callback, etc
 584:..\..\FreeflyAPI/QX_Protocol.c **** void QX_InitSrv(QX_Server_t *QX_Server, QX_DevId_e Address, uint8_t *(*Parser_CB)(QX_Msg_t *))
 585:..\..\FreeflyAPI/QX_Protocol.c **** {
 977              		.loc 1 585 0
 978              		.cfi_startproc
 979              		@ args = 0, pretend = 0, frame = 0
 980              		@ frame_needed = 0, uses_anonymous_args = 0
 981              		@ link register save eliminated.
 982              	.LVL89:
 586:..\..\FreeflyAPI/QX_Protocol.c **** 	QX_Server->Parser_CB = Parser_CB;	// Register Callback for parsing
 983              		.loc 1 586 0
 984 0000 4260     		str	r2, [r0, #4]
 587:..\..\FreeflyAPI/QX_Protocol.c **** 	QX_Server->Address = Address;
 985              		.loc 1 587 0
 986 0002 0170     		strb	r1, [r0]
 987 0004 7047     		bx	lr
 988              		.cfi_endproc
 989              	.LFE15:
 990              		.size	QX_InitSrv, .-QX_InitSrv
 991 0006 00BF     		.section	.text.QX_InitCli,"ax",%progbits
 992              		.align	2
 993              		.global	QX_InitCli
 994              		.thumb
 995              		.thumb_func
 996              		.type	QX_InitCli, %function
 997              	QX_InitCli:
 998              	.LFB16:
 588:..\..\FreeflyAPI/QX_Protocol.c **** }
 589:..\..\FreeflyAPI/QX_Protocol.c **** 
 590:..\..\FreeflyAPI/QX_Protocol.c **** //----------------------------------------------------------------------------
 591:..\..\FreeflyAPI/QX_Protocol.c **** // Initialize the client with the address, parser callback, etc
 592:..\..\FreeflyAPI/QX_Protocol.c **** void QX_InitCli(QX_Client_t *QX_Client, QX_DevId_e Address, uint8_t *(*Parser_CB)(QX_Msg_t *))
 593:..\..\FreeflyAPI/QX_Protocol.c **** {
 999              		.loc 1 593 0
 1000              		.cfi_startproc
 1001              		@ args = 0, pretend = 0, frame = 0
 1002              		@ frame_needed = 0, uses_anonymous_args = 0
ARM GAS  C:\Users\hamis\AppData\Local\Temp\ccsOK97v.s 			page 31


 1003              		@ link register save eliminated.
 1004              	.LVL90:
 594:..\..\FreeflyAPI/QX_Protocol.c **** 	QX_Client->Parser_CB = Parser_CB;	// Register Callback for parsing
 1005              		.loc 1 594 0
 1006 0000 4260     		str	r2, [r0, #4]
 595:..\..\FreeflyAPI/QX_Protocol.c **** 	QX_Client->Address = Address;
 1007              		.loc 1 595 0
 1008 0002 0170     		strb	r1, [r0]
 1009 0004 7047     		bx	lr
 1010              		.cfi_endproc
 1011              	.LFE16:
 1012              		.size	QX_InitCli, .-QX_InitCli
 1013 0006 00BF     		.section	.text.QX_Connection_Status_Update,"ax",%progbits
 1014              		.align	2
 1015              		.global	QX_Connection_Status_Update
 1016              		.thumb
 1017              		.thumb_func
 1018              		.type	QX_Connection_Status_Update, %function
 1019              	QX_Connection_Status_Update:
 1020              	.LFB18:
 596:..\..\FreeflyAPI/QX_Protocol.c **** }
 597:..\..\FreeflyAPI/QX_Protocol.c **** 
 598:..\..\FreeflyAPI/QX_Protocol.c **** //----------------------------------------------------------------------------
 599:..\..\FreeflyAPI/QX_Protocol.c **** // QX Stream RX Char State Machine
 600:..\..\FreeflyAPI/QX_Protocol.c **** // Accepts 1 charater from a serial data stream and recieves full messages
 601:..\..\FreeflyAPI/QX_Protocol.c **** // Returns 1 if a message was parsed in this call
 602:..\..\FreeflyAPI/QX_Protocol.c **** uint8_t QX_StreamRxCharSM(QX_Comms_Port_e port, unsigned char rxbyte)
 603:..\..\FreeflyAPI/QX_Protocol.c **** {
 604:..\..\FreeflyAPI/QX_Protocol.c **** 	uint8_t chksum;
 605:..\..\FreeflyAPI/QX_Protocol.c **** 	
 606:..\..\FreeflyAPI/QX_Protocol.c **** 	switch(QX_CommsPorts[port].RxState)
 607:..\..\FreeflyAPI/QX_Protocol.c **** 	{
 608:..\..\FreeflyAPI/QX_Protocol.c **** 		case QX_RX_STATE_START_WAIT:
 609:..\..\FreeflyAPI/QX_Protocol.c **** 				if(rxbyte == 'Q')
 610:..\..\FreeflyAPI/QX_Protocol.c **** 				{
 611:..\..\FreeflyAPI/QX_Protocol.c **** 					QX_CommsPorts[port].RxCntr = 1;
 612:..\..\FreeflyAPI/QX_Protocol.c **** 					QX_CommsPorts[port].RxMsg.MsgBuf[0] = rxbyte;
 613:..\..\FreeflyAPI/QX_Protocol.c **** 					QX_CommsPorts[port].RxMsg.MsgBuf_p = &QX_CommsPorts[port].RxMsg.MsgBuf[1];
 614:..\..\FreeflyAPI/QX_Protocol.c **** 					QX_CommsPorts[port].RxState = QX_RX_STATE_GET_PROTOCOL_VER;
 615:..\..\FreeflyAPI/QX_Protocol.c **** 				} else {
 616:..\..\FreeflyAPI/QX_Protocol.c **** 					QX_CommsPorts[port].non_Q_cnt++;
 617:..\..\FreeflyAPI/QX_Protocol.c **** 				}
 618:..\..\FreeflyAPI/QX_Protocol.c **** 				break;
 619:..\..\FreeflyAPI/QX_Protocol.c **** 				
 620:..\..\FreeflyAPI/QX_Protocol.c **** 		case QX_RX_STATE_GET_PROTOCOL_VER:
 621:..\..\FreeflyAPI/QX_Protocol.c **** 				*QX_CommsPorts[port].RxMsg.MsgBuf_p++ = rxbyte;
 622:..\..\FreeflyAPI/QX_Protocol.c **** 				QX_CommsPorts[port].RxCntr++;
 623:..\..\FreeflyAPI/QX_Protocol.c **** 				if(rxbyte == 'X'){
 624:..\..\FreeflyAPI/QX_Protocol.c **** 					QX_CommsPorts[port].RxMsg.Legacy_Header = 0;
 625:..\..\FreeflyAPI/QX_Protocol.c **** 					QX_CommsPorts[port].RxState = QX_RX_STATE_GET_QX_LEN0;
 626:..\..\FreeflyAPI/QX_Protocol.c **** 				}
 627:..\..\FreeflyAPI/QX_Protocol.c **** 				else if (rxbyte == 'B'){
 628:..\..\FreeflyAPI/QX_Protocol.c **** 					QX_CommsPorts[port].RxMsg.Legacy_Header = 1;
 629:..\..\FreeflyAPI/QX_Protocol.c **** 					QX_CommsPorts[port].RxState = QX_RX_STATE_GET_QB_LEN0;
 630:..\..\FreeflyAPI/QX_Protocol.c **** 				}
 631:..\..\FreeflyAPI/QX_Protocol.c **** 				else {
 632:..\..\FreeflyAPI/QX_Protocol.c **** 					QX_CommsPorts[port].RxState = QX_RX_STATE_START_WAIT;
ARM GAS  C:\Users\hamis\AppData\Local\Temp\ccsOK97v.s 			page 32


 633:..\..\FreeflyAPI/QX_Protocol.c **** 				}
 634:..\..\FreeflyAPI/QX_Protocol.c **** 				break;
 635:..\..\FreeflyAPI/QX_Protocol.c **** 				
 636:..\..\FreeflyAPI/QX_Protocol.c **** 		case QX_RX_STATE_GET_QX_LEN0:	// Length LSB
 637:..\..\FreeflyAPI/QX_Protocol.c **** 			*QX_CommsPorts[port].RxMsg.MsgBuf_p++ = rxbyte;
 638:..\..\FreeflyAPI/QX_Protocol.c **** 				QX_CommsPorts[port].RxCntr++;
 639:..\..\FreeflyAPI/QX_Protocol.c **** 		
 640:..\..\FreeflyAPI/QX_Protocol.c **** 			if (rxbyte & 0x80){		// Check for Bit 7 extension
 641:..\..\FreeflyAPI/QX_Protocol.c **** 				QX_CommsPorts[port].RxMsg.Header.MsgLength = (uint16_t)(rxbyte & ~0x80);
 642:..\..\FreeflyAPI/QX_Protocol.c **** 				QX_CommsPorts[port].RxState = QX_RX_STATE_GET_QX_LEN1;
 643:..\..\FreeflyAPI/QX_Protocol.c **** 			} else {
 644:..\..\FreeflyAPI/QX_Protocol.c **** 				QX_CommsPorts[port].RxMsg.Header.MsgLength = (uint16_t)(rxbyte);
 645:..\..\FreeflyAPI/QX_Protocol.c **** 				QX_CommsPorts[port].RxMsg.MsgBufAtt_p = QX_CommsPorts[port].RxMsg.MsgBuf_p;
 646:..\..\FreeflyAPI/QX_Protocol.c **** 				QX_CommsPorts[port].RxMsg.RunningChecksum = 0;
 647:..\..\FreeflyAPI/QX_Protocol.c **** 				QX_CommsPorts[port].RxState = QX_RX_STATE_GET_DATA;
 648:..\..\FreeflyAPI/QX_Protocol.c **** 				
 649:..\..\FreeflyAPI/QX_Protocol.c **** 				if(QX_MAX_PAYLOAD_LEN < QX_CommsPorts[port].RxMsg.Header.MsgLength)        // Maximum message l
 650:..\..\FreeflyAPI/QX_Protocol.c **** 				{
 651:..\..\FreeflyAPI/QX_Protocol.c **** 					QX_CommsPorts[port].RxState = QX_RX_STATE_START_WAIT;
 652:..\..\FreeflyAPI/QX_Protocol.c **** 				}
 653:..\..\FreeflyAPI/QX_Protocol.c **** 			}
 654:..\..\FreeflyAPI/QX_Protocol.c **** 			
 655:..\..\FreeflyAPI/QX_Protocol.c **** 			break;
 656:..\..\FreeflyAPI/QX_Protocol.c **** 			
 657:..\..\FreeflyAPI/QX_Protocol.c **** 		case QX_RX_STATE_GET_QX_LEN1:	// Length MSB
 658:..\..\FreeflyAPI/QX_Protocol.c **** 			*QX_CommsPorts[port].RxMsg.MsgBuf_p++ = rxbyte;
 659:..\..\FreeflyAPI/QX_Protocol.c **** 			QX_CommsPorts[port].RxCntr++;
 660:..\..\FreeflyAPI/QX_Protocol.c **** 			QX_CommsPorts[port].RxMsg.MsgBufAtt_p = QX_CommsPorts[port].RxMsg.MsgBuf_p;
 661:..\..\FreeflyAPI/QX_Protocol.c **** 			
 662:..\..\FreeflyAPI/QX_Protocol.c **** 			if (rxbyte & 0x80){
 663:..\..\FreeflyAPI/QX_Protocol.c **** 				QX_CommsPorts[port].RxState = QX_RX_STATE_START_WAIT;	// Should not reach here, 21 bit length n
 664:..\..\FreeflyAPI/QX_Protocol.c **** 			} else {
 665:..\..\FreeflyAPI/QX_Protocol.c **** 				QX_CommsPorts[port].RxMsg.Header.MsgLength |= (((uint16_t)(rxbyte & ~0x80)) << 7);
 666:..\..\FreeflyAPI/QX_Protocol.c **** 				QX_CommsPorts[port].RxMsg.RunningChecksum = 0;
 667:..\..\FreeflyAPI/QX_Protocol.c **** 				QX_CommsPorts[port].RxState = QX_RX_STATE_GET_DATA;
 668:..\..\FreeflyAPI/QX_Protocol.c **** 			}
 669:..\..\FreeflyAPI/QX_Protocol.c **** 			
 670:..\..\FreeflyAPI/QX_Protocol.c **** 			if(QX_MAX_PAYLOAD_LEN < QX_CommsPorts[port].RxMsg.Header.MsgLength)
 671:..\..\FreeflyAPI/QX_Protocol.c **** 			{
 672:..\..\FreeflyAPI/QX_Protocol.c **** 				QX_CommsPorts[port].RxState = QX_RX_STATE_START_WAIT;
 673:..\..\FreeflyAPI/QX_Protocol.c **** 			}
 674:..\..\FreeflyAPI/QX_Protocol.c **** 			
 675:..\..\FreeflyAPI/QX_Protocol.c **** 			break;
 676:..\..\FreeflyAPI/QX_Protocol.c **** 				
 677:..\..\FreeflyAPI/QX_Protocol.c **** 		case QX_RX_STATE_GET_QB_LEN0:
 678:..\..\FreeflyAPI/QX_Protocol.c **** 				*QX_CommsPorts[port].RxMsg.MsgBuf_p++ = rxbyte;
 679:..\..\FreeflyAPI/QX_Protocol.c **** 				QX_CommsPorts[port].RxCntr++;
 680:..\..\FreeflyAPI/QX_Protocol.c **** 				QX_CommsPorts[port].RxMsg.Header.MsgLength = (uint16_t)rxbyte << 8;
 681:..\..\FreeflyAPI/QX_Protocol.c **** 				QX_CommsPorts[port].RxState = QX_RX_STATE_GET_QB_LEN1;
 682:..\..\FreeflyAPI/QX_Protocol.c **** 				break;
 683:..\..\FreeflyAPI/QX_Protocol.c **** 				
 684:..\..\FreeflyAPI/QX_Protocol.c **** 		case QX_RX_STATE_GET_QB_LEN1:
 685:..\..\FreeflyAPI/QX_Protocol.c **** 				*QX_CommsPorts[port].RxMsg.MsgBuf_p++ = rxbyte;	// Leave the message buf pointer at the attribu
 686:..\..\FreeflyAPI/QX_Protocol.c **** 				QX_CommsPorts[port].RxCntr++;
 687:..\..\FreeflyAPI/QX_Protocol.c **** 				QX_CommsPorts[port].RxMsg.MsgBufAtt_p = QX_CommsPorts[port].RxMsg.MsgBuf_p;
 688:..\..\FreeflyAPI/QX_Protocol.c **** 				QX_CommsPorts[port].RxMsg.Header.MsgLength |= (uint16_t)rxbyte;
 689:..\..\FreeflyAPI/QX_Protocol.c **** 				QX_CommsPorts[port].RxMsg.RunningChecksum = 0;
ARM GAS  C:\Users\hamis\AppData\Local\Temp\ccsOK97v.s 			page 33


 690:..\..\FreeflyAPI/QX_Protocol.c **** 				QX_CommsPorts[port].RxState = QX_RX_STATE_GET_DATA;
 691:..\..\FreeflyAPI/QX_Protocol.c **** 				if(QX_MAX_PAYLOAD_LEN < QX_CommsPorts[port].RxMsg.Header.MsgLength)
 692:..\..\FreeflyAPI/QX_Protocol.c **** 				{
 693:..\..\FreeflyAPI/QX_Protocol.c **** 						QX_CommsPorts[port].RxState = QX_RX_STATE_START_WAIT;
 694:..\..\FreeflyAPI/QX_Protocol.c **** 				}
 695:..\..\FreeflyAPI/QX_Protocol.c **** 				break;
 696:..\..\FreeflyAPI/QX_Protocol.c **** 				
 697:..\..\FreeflyAPI/QX_Protocol.c **** 		case QX_RX_STATE_GET_DATA:
 698:..\..\FreeflyAPI/QX_Protocol.c **** 				*QX_CommsPorts[port].RxMsg.MsgBuf_p++ = rxbyte;
 699:..\..\FreeflyAPI/QX_Protocol.c **** 				QX_CommsPorts[port].RxCntr++;
 700:..\..\FreeflyAPI/QX_Protocol.c **** 				QX_CommsPorts[port].RxMsg.RunningChecksum += rxbyte;
 701:..\..\FreeflyAPI/QX_Protocol.c **** 				if(QX_CommsPorts[port].RxMsg.Header.MsgLength <= QX_CommsPorts[port].RxCntr - (QX_CommsPorts[po
 702:..\..\FreeflyAPI/QX_Protocol.c **** 				{
 703:..\..\FreeflyAPI/QX_Protocol.c **** 						QX_CommsPorts[port].RxState = QX_RX_STATE_GET_CHKSUM;
 704:..\..\FreeflyAPI/QX_Protocol.c **** 				}
 705:..\..\FreeflyAPI/QX_Protocol.c **** 				break;
 706:..\..\FreeflyAPI/QX_Protocol.c **** 				
 707:..\..\FreeflyAPI/QX_Protocol.c **** 		case QX_RX_STATE_GET_CHKSUM:
 708:..\..\FreeflyAPI/QX_Protocol.c **** 				*QX_CommsPorts[port].RxMsg.MsgBuf_p++ = rxbyte;
 709:..\..\FreeflyAPI/QX_Protocol.c **** 				QX_CommsPorts[port].RxCntr++;
 710:..\..\FreeflyAPI/QX_Protocol.c **** 				chksum = rxbyte;
 711:..\..\FreeflyAPI/QX_Protocol.c **** 				QX_CommsPorts[port].RxState = QX_RX_STATE_START_WAIT;
 712:..\..\FreeflyAPI/QX_Protocol.c **** 				QX_CommsPorts[port].RxMsg.CommPort = port;
 713:..\..\FreeflyAPI/QX_Protocol.c **** 				if((chksum + QX_CommsPorts[port].RxMsg.RunningChecksum) == 0xFF)		// Is checksum ok?
 714:..\..\FreeflyAPI/QX_Protocol.c **** 				{
 715:..\..\FreeflyAPI/QX_Protocol.c **** 					QX_CommsPorts[port].Timeout_Cntr = 0;
 716:..\..\FreeflyAPI/QX_Protocol.c **** 					QX_CommsPorts[port].last_rx_msg_time = QX_GetTicks_ms();
 717:..\..\FreeflyAPI/QX_Protocol.c **** 					QX_CommsPorts[port].Connected = 1;
 718:..\..\FreeflyAPI/QX_Protocol.c **** 					QX_CommsPorts[port].RxMsg.MsgBuf_MsgLen = QX_CommsPorts[port].RxCntr;
 719:..\..\FreeflyAPI/QX_Protocol.c **** 					QX_RxMsg(&QX_CommsPorts[port].RxMsg);	// Receive the Message
 720:..\..\FreeflyAPI/QX_Protocol.c **** 					return 1;
 721:..\..\FreeflyAPI/QX_Protocol.c **** 				} else {
 722:..\..\FreeflyAPI/QX_Protocol.c **** 					QX_CommsPorts[port].ChkSumFail_cnt++;
 723:..\..\FreeflyAPI/QX_Protocol.c **** 				}
 724:..\..\FreeflyAPI/QX_Protocol.c **** 				break;
 725:..\..\FreeflyAPI/QX_Protocol.c **** 	}
 726:..\..\FreeflyAPI/QX_Protocol.c **** 	return 0;
 727:..\..\FreeflyAPI/QX_Protocol.c **** }
 728:..\..\FreeflyAPI/QX_Protocol.c **** 
 729:..\..\FreeflyAPI/QX_Protocol.c **** //----------------------------------------------------------------------------
 730:..\..\FreeflyAPI/QX_Protocol.c **** // Call periodically to update lost connection status
 731:..\..\FreeflyAPI/QX_Protocol.c **** void QX_Connection_Status_Update(QX_Comms_Port_e port)
 732:..\..\FreeflyAPI/QX_Protocol.c **** {
 1021              		.loc 1 732 0
 1022              		.cfi_startproc
 1023              		@ args = 0, pretend = 0, frame = 0
 1024              		@ frame_needed = 0, uses_anonymous_args = 0
 1025              	.LVL91:
 1026 0000 10B5     		push	{r4, lr}
 1027              		.cfi_def_cfa_offset 8
 1028              		.cfi_offset 4, -8
 1029              		.cfi_offset 14, -4
 1030 0002 0446     		mov	r4, r0
 733:..\..\FreeflyAPI/QX_Protocol.c **** 	// Update Timeout Timer
 734:..\..\FreeflyAPI/QX_Protocol.c **** 	QX_CommsPorts[port].Timeout_Cntr = (QX_GetTicks_ms() - QX_CommsPorts[port].last_rx_msg_time);
 1031              		.loc 1 734 0
 1032 0004 FFF7FEFF 		bl	QX_GetTicks_ms
ARM GAS  C:\Users\hamis\AppData\Local\Temp\ccsOK97v.s 			page 34


 1033              	.LVL92:
 1034 0008 8C23     		movs	r3, #140
 1035 000a 094A     		ldr	r2, .L76
 1036 000c 03FB0422 		mla	r2, r3, r4, r2
 1037 0010 D2F88830 		ldr	r3, [r2, #136]
 1038 0014 C01A     		subs	r0, r0, r3
 1039 0016 9067     		str	r0, [r2, #120]
 735:..\..\FreeflyAPI/QX_Protocol.c **** 	
 736:..\..\FreeflyAPI/QX_Protocol.c **** 	// Turn off connected flag if needed (turned on by successful packet RX)
 737:..\..\FreeflyAPI/QX_Protocol.c **** 	if (QX_CommsPorts[port].Timeout_Cntr > QX_PORT_TIMEOUT_MSEC){
 1040              		.loc 1 737 0
 1041 0018 B0F5FA6F 		cmp	r0, #2000
 1042 001c 06D9     		bls	.L73
 738:..\..\FreeflyAPI/QX_Protocol.c **** 		QX_CommsPorts[port].Connected = 0;
 1043              		.loc 1 738 0
 1044 001e 8C22     		movs	r2, #140
 1045 0020 034B     		ldr	r3, .L76
 1046 0022 02FB0434 		mla	r4, r2, r4, r3
 1047 0026 0023     		movs	r3, #0
 1048 0028 84F87C30 		strb	r3, [r4, #124]
 1049              	.L73:
 1050 002c 10BD     		pop	{r4, pc}
 1051              	.L77:
 1052 002e 00BF     		.align	2
 1053              	.L76:
 1054 0030 00000000 		.word	QX_CommsPorts
 1055              		.cfi_endproc
 1056              	.LFE18:
 1057              		.size	QX_Connection_Status_Update, .-QX_Connection_Status_Update
 1058              		.section	.text.QX_InitTxOptions,"ax",%progbits
 1059              		.align	2
 1060              		.global	QX_InitTxOptions
 1061              		.thumb
 1062              		.thumb_func
 1063              		.type	QX_InitTxOptions, %function
 1064              	QX_InitTxOptions:
 1065              	.LFB19:
 739:..\..\FreeflyAPI/QX_Protocol.c **** 	}
 740:..\..\FreeflyAPI/QX_Protocol.c **** }
 741:..\..\FreeflyAPI/QX_Protocol.c **** 
 742:..\..\FreeflyAPI/QX_Protocol.c **** 
 743:..\..\FreeflyAPI/QX_Protocol.c **** //----------------------------------------------------------------------------
 744:..\..\FreeflyAPI/QX_Protocol.c **** // Initialize the TX Options structure for a standard message
 745:..\..\FreeflyAPI/QX_Protocol.c **** void QX_InitTxOptions(QX_TxMsgOptions_t *options)
 746:..\..\FreeflyAPI/QX_Protocol.c **** {
 1066              		.loc 1 746 0
 1067              		.cfi_startproc
 1068              		@ args = 0, pretend = 0, frame = 0
 1069              		@ frame_needed = 0, uses_anonymous_args = 0
 1070              		@ link register save eliminated.
 1071              	.LVL93:
 747:..\..\FreeflyAPI/QX_Protocol.c **** 	// Keep address fields by default
 748:..\..\FreeflyAPI/QX_Protocol.c **** 	options->Remove_Addr_Fields = 0;
 1072              		.loc 1 748 0
 1073 0000 0023     		movs	r3, #0
 1074 0002 8370     		strb	r3, [r0, #2]
 749:..\..\FreeflyAPI/QX_Protocol.c **** 	options->Remove_Req_Fields = 0;
ARM GAS  C:\Users\hamis\AppData\Local\Temp\ccsOK97v.s 			page 35


 1075              		.loc 1 749 0
 1076 0004 C370     		strb	r3, [r0, #3]
 750:..\..\FreeflyAPI/QX_Protocol.c **** 	
 751:..\..\FreeflyAPI/QX_Protocol.c **** 	// standard addresses
 752:..\..\FreeflyAPI/QX_Protocol.c **** 	options->RespReq_Addr = QX_DEV_ID_BROADCAST;
 1077              		.loc 1 752 0
 1078 0006 8371     		strb	r3, [r0, #6]
 753:..\..\FreeflyAPI/QX_Protocol.c **** 	options->Target_Addr = QX_DEV_ID_BROADCAST;
 1079              		.loc 1 753 0
 1080 0008 0371     		strb	r3, [r0, #4]
 754:..\..\FreeflyAPI/QX_Protocol.c **** 	options->TransReq_Addr = QX_DEV_ID_BROADCAST;
 1081              		.loc 1 754 0
 1082 000a 4371     		strb	r3, [r0, #5]
 755:..\..\FreeflyAPI/QX_Protocol.c **** 	
 756:..\..\FreeflyAPI/QX_Protocol.c **** 	// standard flags
 757:..\..\FreeflyAPI/QX_Protocol.c **** 	options->FF_Ext = 0;
 1083              		.loc 1 757 0
 1084 000c 0370     		strb	r3, [r0]
 758:..\..\FreeflyAPI/QX_Protocol.c **** 	options->use_CRC32 = 0;
 1085              		.loc 1 758 0
 1086 000e 4370     		strb	r3, [r0, #1]
 1087 0010 7047     		bx	lr
 1088              		.cfi_endproc
 1089              	.LFE19:
 1090              		.size	QX_InitTxOptions, .-QX_InitTxOptions
 1091 0012 00BF     		.section	.text.QX_SendPacket_Srv_CurVal,"ax",%progbits
 1092              		.align	2
 1093              		.global	QX_SendPacket_Srv_CurVal
 1094              		.thumb
 1095              		.thumb_func
 1096              		.type	QX_SendPacket_Srv_CurVal, %function
 1097              	QX_SendPacket_Srv_CurVal:
 1098              	.LFB20:
 759:..\..\FreeflyAPI/QX_Protocol.c **** }
 760:..\..\FreeflyAPI/QX_Protocol.c **** 
 761:..\..\FreeflyAPI/QX_Protocol.c **** 
 762:..\..\FreeflyAPI/QX_Protocol.c **** //----------------------------------------------------------------------------
 763:..\..\FreeflyAPI/QX_Protocol.c **** // Full Featured Send QX Packet - For use by the Application (Not in auto response to Read/Write)
 764:..\..\FreeflyAPI/QX_Protocol.c **** // This version supports all features
 765:..\..\FreeflyAPI/QX_Protocol.c **** // This function builds an appropriate message structure and calls calls QX_TxMsg().
 766:..\..\FreeflyAPI/QX_Protocol.c **** QX_Stat_e QX_SendPacket_Srv_CurVal(QX_Server_t *Srv_p, uint32_t Attrib, QX_Comms_Port_e CommPort, Q
 767:..\..\FreeflyAPI/QX_Protocol.c **** {
 1099              		.loc 1 767 0
 1100              		.cfi_startproc
 1101              		@ args = 12, pretend = 8, frame = 120
 1102              		@ frame_needed = 0, uses_anonymous_args = 0
 1103              	.LVL94:
 1104 0000 82B0     		sub	sp, sp, #8
 1105              		.cfi_def_cfa_offset 8
 1106 0002 70B5     		push	{r4, r5, r6, lr}
 1107              		.cfi_def_cfa_offset 24
 1108              		.cfi_offset 4, -24
 1109              		.cfi_offset 5, -20
 1110              		.cfi_offset 6, -16
 1111              		.cfi_offset 14, -12
 1112 0004 9EB0     		sub	sp, sp, #120
 1113              		.cfi_def_cfa_offset 144
ARM GAS  C:\Users\hamis\AppData\Local\Temp\ccsOK97v.s 			page 36


 1114 0006 0446     		mov	r4, r0
 1115 0008 0D46     		mov	r5, r1
 1116 000a 1646     		mov	r6, r2
 1117 000c 2393     		str	r3, [sp, #140]
 768:..\..\FreeflyAPI/QX_Protocol.c **** 	QX_Msg_t TxMsg;
 769:..\..\FreeflyAPI/QX_Protocol.c **** 	QX_InitMsg(&TxMsg);
 1118              		.loc 1 769 0
 1119 000e 01A8     		add	r0, sp, #4
 1120              	.LVL95:
 1121 0010 FFF7FEFF 		bl	QX_InitMsg
 1122              	.LVL96:
 770:..\..\FreeflyAPI/QX_Protocol.c **** 	
 771:..\..\FreeflyAPI/QX_Protocol.c **** 	TxMsg.CommPort = CommPort;
 1123              		.loc 1 771 0
 1124 0014 8DF80A60 		strb	r6, [sp, #10]
 772:..\..\FreeflyAPI/QX_Protocol.c **** 	TxMsg.Header.Attrib = Attrib;
 1125              		.loc 1 772 0
 1126 0018 0495     		str	r5, [sp, #16]
 773:..\..\FreeflyAPI/QX_Protocol.c **** 	TxMsg.Header.Type = QX_MSG_TYPE_CURVAL;
 1127              		.loc 1 773 0
 1128 001a 0025     		movs	r5, #0
 1129              	.LVL97:
 1130 001c 8DF81450 		strb	r5, [sp, #20]
 774:..\..\FreeflyAPI/QX_Protocol.c **** 	TxMsg.Header.Target_Addr = options.Target_Addr;
 1131              		.loc 1 774 0
 1132 0020 9DF89030 		ldrb	r3, [sp, #144]	@ zero_extendqisi2
 1133 0024 8DF81D30 		strb	r3, [sp, #29]
 775:..\..\FreeflyAPI/QX_Protocol.c **** 	TxMsg.Header.TransReq_Addr = options.TransReq_Addr;
 1134              		.loc 1 775 0
 1135 0028 9DF89130 		ldrb	r3, [sp, #145]	@ zero_extendqisi2
 1136 002c 8DF81E30 		strb	r3, [sp, #30]
 776:..\..\FreeflyAPI/QX_Protocol.c **** 	TxMsg.Header.RespReq_Addr = options.RespReq_Addr;
 1137              		.loc 1 776 0
 1138 0030 9DF89230 		ldrb	r3, [sp, #146]	@ zero_extendqisi2
 1139 0034 8DF81F30 		strb	r3, [sp, #31]
 777:..\..\FreeflyAPI/QX_Protocol.c **** 	TxMsg.Header.Source_Addr = Srv_p->Address;
 1140              		.loc 1 777 0
 1141 0038 2378     		ldrb	r3, [r4]	@ zero_extendqisi2
 1142 003a 8DF81C30 		strb	r3, [sp, #28]
 778:..\..\FreeflyAPI/QX_Protocol.c **** 	TxMsg.Header.FF_Ext = options.FF_Ext;
 1143              		.loc 1 778 0
 1144 003e 9DF88C30 		ldrb	r3, [sp, #140]	@ zero_extendqisi2
 1145 0042 8DF81730 		strb	r3, [sp, #23]
 779:..\..\FreeflyAPI/QX_Protocol.c **** 	TxMsg.Header.AddCRC32 = options.use_CRC32;
 1146              		.loc 1 779 0
 1147 0046 9DF88D30 		ldrb	r3, [sp, #141]	@ zero_extendqisi2
 1148 004a 8DF81630 		strb	r3, [sp, #22]
 780:..\..\FreeflyAPI/QX_Protocol.c **** 	
 781:..\..\FreeflyAPI/QX_Protocol.c **** 	QX_TxMsg_Setup(&TxMsg);
 1149              		.loc 1 781 0
 1150 004e 01A8     		add	r0, sp, #4
 1151 0050 FFF7FEFF 		bl	QX_TxMsg_Setup
 1152              	.LVL98:
 782:..\..\FreeflyAPI/QX_Protocol.c **** 	TxMsg.Parse_Type = QX_PARSE_TYPE_CURVAL_SEND;
 1153              		.loc 1 782 0
 1154 0054 8DF80450 		strb	r5, [sp, #4]
 783:..\..\FreeflyAPI/QX_Protocol.c **** 	TxMsg.MsgBuf_p = Srv_p->Parser_CB(&TxMsg);
ARM GAS  C:\Users\hamis\AppData\Local\Temp\ccsOK97v.s 			page 37


 1155              		.loc 1 783 0
 1156 0058 6368     		ldr	r3, [r4, #4]
 1157 005a 01A8     		add	r0, sp, #4
 1158 005c 9847     		blx	r3
 1159              	.LVL99:
 1160 005e 1D90     		str	r0, [sp, #116]
 784:..\..\FreeflyAPI/QX_Protocol.c **** 	return QX_TxMsg_Finish(&TxMsg);
 1161              		.loc 1 784 0
 1162 0060 01A8     		add	r0, sp, #4
 1163 0062 FFF7FEFF 		bl	QX_TxMsg_Finish
 1164              	.LVL100:
 785:..\..\FreeflyAPI/QX_Protocol.c **** }
 1165              		.loc 1 785 0
 1166 0066 1EB0     		add	sp, sp, #120
 1167              		.cfi_def_cfa_offset 24
 1168              		@ sp needed
 1169 0068 BDE87040 		pop	{r4, r5, r6, lr}
 1170              		.cfi_restore 14
 1171              		.cfi_restore 6
 1172              		.cfi_restore 5
 1173              		.cfi_restore 4
 1174              		.cfi_def_cfa_offset 8
 1175              	.LVL101:
 1176 006c 02B0     		add	sp, sp, #8
 1177              		.cfi_def_cfa_offset 0
 1178 006e 7047     		bx	lr
 1179              		.cfi_endproc
 1180              	.LFE20:
 1181              		.size	QX_SendPacket_Srv_CurVal, .-QX_SendPacket_Srv_CurVal
 1182              		.section	.text.QX_Srv_Rx_Read,"ax",%progbits
 1183              		.align	2
 1184              		.global	QX_Srv_Rx_Read
 1185              		.thumb
 1186              		.thumb_func
 1187              		.type	QX_Srv_Rx_Read, %function
 1188              	QX_Srv_Rx_Read:
 1189              	.LFB2:
 216:..\..\FreeflyAPI/QX_Protocol.c **** 	// Check Address - For each server node, if unicast & address match or broadcast, handle it
 1190              		.loc 1 216 0
 1191              		.cfi_startproc
 1192              		@ args = 0, pretend = 0, frame = 8
 1193              		@ frame_needed = 0, uses_anonymous_args = 0
 1194              	.LVL102:
 1195 0000 30B5     		push	{r4, r5, lr}
 1196              		.cfi_def_cfa_offset 12
 1197              		.cfi_offset 4, -12
 1198              		.cfi_offset 5, -8
 1199              		.cfi_offset 14, -4
 1200 0002 85B0     		sub	sp, sp, #20
 1201              		.cfi_def_cfa_offset 32
 1202 0004 0546     		mov	r5, r0
 1203              	.LVL103:
 1204              	.LBB6:
 218:..\..\FreeflyAPI/QX_Protocol.c **** 		if ((RxMsg_p->Header.Target_Addr == QX_Servers[srv_i].Address) || (RxMsg_p->Header.Target_Addr ==
 1205              		.loc 1 218 0
 1206 0006 0024     		movs	r4, #0
 1207 0008 27E0     		b	.L82
ARM GAS  C:\Users\hamis\AppData\Local\Temp\ccsOK97v.s 			page 38


 1208              	.LVL104:
 1209              	.L85:
 219:..\..\FreeflyAPI/QX_Protocol.c **** 			QX_TxMsgOptions_t options;
 1210              		.loc 1 219 0
 1211 000a 6B7E     		ldrb	r3, [r5, #25]	@ zero_extendqisi2
 1212 000c 154A     		ldr	r2, .L87
 1213 000e 12F83420 		ldrb	r2, [r2, r4, lsl #3]	@ zero_extendqisi2
 1214 0012 9342     		cmp	r3, r2
 1215 0014 00D0     		beq	.L83
 219:..\..\FreeflyAPI/QX_Protocol.c **** 			QX_TxMsgOptions_t options;
 1216              		.loc 1 219 0 is_stmt 0 discriminator 1
 1217 0016 FBB9     		cbnz	r3, .L84
 1218              	.L83:
 1219              	.LBB7:
 221:..\..\FreeflyAPI/QX_Protocol.c **** 			options.use_CRC32 = RxMsg_p->Header.AddCRC32;
 1220              		.loc 1 221 0 is_stmt 1
 1221 0018 02A8     		add	r0, sp, #8
 1222 001a FFF7FEFF 		bl	QX_InitTxOptions
 1223              	.LVL105:
 222:..\..\FreeflyAPI/QX_Protocol.c **** 			options.FF_Ext = RxMsg_p->Header.FF_Ext;
 1224              		.loc 1 222 0
 1225 001e AB7C     		ldrb	r3, [r5, #18]	@ zero_extendqisi2
 1226 0020 8DF80930 		strb	r3, [sp, #9]
 223:..\..\FreeflyAPI/QX_Protocol.c **** 			options.Remove_Addr_Fields = RxMsg_p->Header.Remove_Addr_Fields;
 1227              		.loc 1 223 0
 1228 0024 EB7C     		ldrb	r3, [r5, #19]	@ zero_extendqisi2
 1229 0026 8DF80830 		strb	r3, [sp, #8]
 224:..\..\FreeflyAPI/QX_Protocol.c **** 			options.Remove_Req_Fields = 1;		// No need for request fields in a response.
 1230              		.loc 1 224 0
 1231 002a AB7D     		ldrb	r3, [r5, #22]	@ zero_extendqisi2
 1232 002c 8DF80A30 		strb	r3, [sp, #10]
 225:..\..\FreeflyAPI/QX_Protocol.c **** 			options.Target_Addr = RxMsg_p->Header.Source_Addr;		// Reverse target
 1233              		.loc 1 225 0
 1234 0030 0123     		movs	r3, #1
 1235 0032 8DF80B30 		strb	r3, [sp, #11]
 226:..\..\FreeflyAPI/QX_Protocol.c **** 			QX_SendPacket_Srv_CurVal(&QX_Servers[srv_i], RxMsg_p->Header.Attrib, RxMsg_p->CommPort, options)
 1236              		.loc 1 226 0
 1237 0036 2B7E     		ldrb	r3, [r5, #24]	@ zero_extendqisi2
 1238 0038 8DF80C30 		strb	r3, [sp, #12]
 227:..\..\FreeflyAPI/QX_Protocol.c **** 		}
 1239              		.loc 1 227 0
 1240 003c AA79     		ldrb	r2, [r5, #6]	@ zero_extendqisi2
 1241 003e 039B     		ldr	r3, [sp, #12]
 1242 0040 ADF80030 		strh	r3, [sp]	@ movhi
 1243 0044 1B0C     		lsrs	r3, r3, #16
 1244 0046 8DF80230 		strb	r3, [sp, #2]
 1245 004a 029B     		ldr	r3, [sp, #8]
 1246 004c E968     		ldr	r1, [r5, #12]
 1247 004e 0548     		ldr	r0, .L87
 1248 0050 00EBC400 		add	r0, r0, r4, lsl #3
 1249 0054 FFF7FEFF 		bl	QX_SendPacket_Srv_CurVal
 1250              	.LVL106:
 1251              	.L84:
 1252              	.LBE7:
 218:..\..\FreeflyAPI/QX_Protocol.c **** 		if ((RxMsg_p->Header.Target_Addr == QX_Servers[srv_i].Address) || (RxMsg_p->Header.Target_Addr ==
 1253              		.loc 1 218 0 discriminator 2
 1254 0058 0134     		adds	r4, r4, #1
ARM GAS  C:\Users\hamis\AppData\Local\Temp\ccsOK97v.s 			page 39


 1255              	.LVL107:
 1256              	.L82:
 218:..\..\FreeflyAPI/QX_Protocol.c **** 		if ((RxMsg_p->Header.Target_Addr == QX_Servers[srv_i].Address) || (RxMsg_p->Header.Target_Addr ==
 1257              		.loc 1 218 0 is_stmt 0 discriminator 1
 1258 005a 002C     		cmp	r4, #0
 1259 005c D5DD     		ble	.L85
 1260              	.LBE6:
 230:..\..\FreeflyAPI/QX_Protocol.c **** 
 1261              		.loc 1 230 0 is_stmt 1
 1262 005e 05B0     		add	sp, sp, #20
 1263              		.cfi_def_cfa_offset 12
 1264              		@ sp needed
 1265 0060 30BD     		pop	{r4, r5, pc}
 1266              	.LVL108:
 1267              	.L88:
 1268 0062 00BF     		.align	2
 1269              	.L87:
 1270 0064 00000000 		.word	QX_Servers
 1271              		.cfi_endproc
 1272              	.LFE2:
 1273              		.size	QX_Srv_Rx_Read, .-QX_Srv_Rx_Read
 1274              		.section	.text.QX_Srv_Rx_Write,"ax",%progbits
 1275              		.align	2
 1276              		.global	QX_Srv_Rx_Write
 1277              		.thumb
 1278              		.thumb_func
 1279              		.type	QX_Srv_Rx_Write, %function
 1280              	QX_Srv_Rx_Write:
 1281              	.LFB3:
 236:..\..\FreeflyAPI/QX_Protocol.c **** 	// Set parsing type
 1282              		.loc 1 236 0
 1283              		.cfi_startproc
 1284              		@ args = 0, pretend = 0, frame = 8
 1285              		@ frame_needed = 0, uses_anonymous_args = 0
 1286              	.LVL109:
 1287 0000 30B5     		push	{r4, r5, lr}
 1288              		.cfi_def_cfa_offset 12
 1289              		.cfi_offset 4, -12
 1290              		.cfi_offset 5, -8
 1291              		.cfi_offset 14, -4
 1292 0002 85B0     		sub	sp, sp, #20
 1293              		.cfi_def_cfa_offset 32
 1294 0004 0546     		mov	r5, r0
 238:..\..\FreeflyAPI/QX_Protocol.c **** 		RxMsg_p->Parse_Type = QX_PARSE_TYPE_WRITE_REL_RECV;
 1295              		.loc 1 238 0
 1296 0006 037C     		ldrb	r3, [r0, #16]	@ zero_extendqisi2
 1297 0008 032B     		cmp	r3, #3
 1298 000a 02D1     		bne	.L90
 239:..\..\FreeflyAPI/QX_Protocol.c **** 	} else if (RxMsg_p->Header.Type == QX_MSG_TYPE_WRITE_ABS){
 1299              		.loc 1 239 0
 1300 000c 0523     		movs	r3, #5
 1301 000e 0370     		strb	r3, [r0]
 1302 0010 03E0     		b	.L91
 1303              	.L90:
 240:..\..\FreeflyAPI/QX_Protocol.c **** 		RxMsg_p->Parse_Type = QX_PARSE_TYPE_WRITE_ABS_RECV;
 1304              		.loc 1 240 0
 1305 0012 022B     		cmp	r3, #2
ARM GAS  C:\Users\hamis\AppData\Local\Temp\ccsOK97v.s 			page 40


 1306 0014 01D1     		bne	.L91
 241:..\..\FreeflyAPI/QX_Protocol.c **** 	}
 1307              		.loc 1 241 0
 1308 0016 0323     		movs	r3, #3
 1309 0018 0370     		strb	r3, [r0]
 1310              	.L91:
 236:..\..\FreeflyAPI/QX_Protocol.c **** 	// Set parsing type
 1311              		.loc 1 236 0 discriminator 1
 1312 001a 0024     		movs	r4, #0
 1313 001c 2FE0     		b	.L92
 1314              	.LVL110:
 1315              	.L95:
 1316              	.LBB8:
 246:..\..\FreeflyAPI/QX_Protocol.c **** 			QX_Servers[srv_i].Parser_CB(RxMsg_p);	// Application callback
 1317              		.loc 1 246 0
 1318 001e 6B7E     		ldrb	r3, [r5, #25]	@ zero_extendqisi2
 1319 0020 194A     		ldr	r2, .L97
 1320 0022 12F83420 		ldrb	r2, [r2, r4, lsl #3]	@ zero_extendqisi2
 1321 0026 9342     		cmp	r3, r2
 1322 0028 00D0     		beq	.L93
 246:..\..\FreeflyAPI/QX_Protocol.c **** 			QX_Servers[srv_i].Parser_CB(RxMsg_p);	// Application callback
 1323              		.loc 1 246 0 is_stmt 0 discriminator 1
 1324 002a 3BBB     		cbnz	r3, .L94
 1325              	.L93:
 247:..\..\FreeflyAPI/QX_Protocol.c **** 		
 1326              		.loc 1 247 0 is_stmt 1
 1327 002c 164B     		ldr	r3, .L97
 1328 002e 03EBC403 		add	r3, r3, r4, lsl #3
 1329 0032 5B68     		ldr	r3, [r3, #4]
 1330 0034 2846     		mov	r0, r5
 1331 0036 9847     		blx	r3
 1332              	.LVL111:
 250:..\..\FreeflyAPI/QX_Protocol.c **** 				QX_TxMsgOptions_t options;
 1333              		.loc 1 250 0
 1334 0038 6B78     		ldrb	r3, [r5, #1]	@ zero_extendqisi2
 1335 003a FBB9     		cbnz	r3, .L94
 1336              	.LBB9:
 252:..\..\FreeflyAPI/QX_Protocol.c **** 				options.use_CRC32 = RxMsg_p->Header.AddCRC32;
 1337              		.loc 1 252 0
 1338 003c 02A8     		add	r0, sp, #8
 1339 003e FFF7FEFF 		bl	QX_InitTxOptions
 1340              	.LVL112:
 253:..\..\FreeflyAPI/QX_Protocol.c **** 				options.FF_Ext = RxMsg_p->Header.FF_Ext;
 1341              		.loc 1 253 0
 1342 0042 AB7C     		ldrb	r3, [r5, #18]	@ zero_extendqisi2
 1343 0044 8DF80930 		strb	r3, [sp, #9]
 254:..\..\FreeflyAPI/QX_Protocol.c **** 				options.Remove_Addr_Fields = RxMsg_p->Header.Remove_Addr_Fields;
 1344              		.loc 1 254 0
 1345 0048 EB7C     		ldrb	r3, [r5, #19]	@ zero_extendqisi2
 1346 004a 8DF80830 		strb	r3, [sp, #8]
 255:..\..\FreeflyAPI/QX_Protocol.c **** 				options.Remove_Req_Fields = 1;		// No need for request fields in a response.
 1347              		.loc 1 255 0
 1348 004e AB7D     		ldrb	r3, [r5, #22]	@ zero_extendqisi2
 1349 0050 8DF80A30 		strb	r3, [sp, #10]
 256:..\..\FreeflyAPI/QX_Protocol.c **** 				options.Target_Addr = RxMsg_p->Header.Source_Addr;		// Reverse target
 1350              		.loc 1 256 0
 1351 0054 0123     		movs	r3, #1
ARM GAS  C:\Users\hamis\AppData\Local\Temp\ccsOK97v.s 			page 41


 1352 0056 8DF80B30 		strb	r3, [sp, #11]
 257:..\..\FreeflyAPI/QX_Protocol.c **** 				QX_SendPacket_Srv_CurVal(&QX_Servers[srv_i], RxMsg_p->Header.Attrib, RxMsg_p->CommPort, options
 1353              		.loc 1 257 0
 1354 005a 2B7E     		ldrb	r3, [r5, #24]	@ zero_extendqisi2
 1355 005c 8DF80C30 		strb	r3, [sp, #12]
 258:..\..\FreeflyAPI/QX_Protocol.c **** 			}
 1356              		.loc 1 258 0
 1357 0060 AA79     		ldrb	r2, [r5, #6]	@ zero_extendqisi2
 1358 0062 039B     		ldr	r3, [sp, #12]
 1359 0064 ADF80030 		strh	r3, [sp]	@ movhi
 1360 0068 1B0C     		lsrs	r3, r3, #16
 1361 006a 8DF80230 		strb	r3, [sp, #2]
 1362 006e 029B     		ldr	r3, [sp, #8]
 1363 0070 E968     		ldr	r1, [r5, #12]
 1364 0072 0548     		ldr	r0, .L97
 1365 0074 00EBC400 		add	r0, r0, r4, lsl #3
 1366 0078 FFF7FEFF 		bl	QX_SendPacket_Srv_CurVal
 1367              	.LVL113:
 1368              	.L94:
 1369              	.LBE9:
 245:..\..\FreeflyAPI/QX_Protocol.c **** 		if ((RxMsg_p->Header.Target_Addr == QX_Servers[srv_i].Address) || (RxMsg_p->Header.Target_Addr ==
 1370              		.loc 1 245 0 discriminator 2
 1371 007c 0134     		adds	r4, r4, #1
 1372              	.LVL114:
 1373              	.L92:
 245:..\..\FreeflyAPI/QX_Protocol.c **** 		if ((RxMsg_p->Header.Target_Addr == QX_Servers[srv_i].Address) || (RxMsg_p->Header.Target_Addr ==
 1374              		.loc 1 245 0 is_stmt 0 discriminator 1
 1375 007e 002C     		cmp	r4, #0
 1376 0080 CDDD     		ble	.L95
 1377              	.LBE8:
 262:..\..\FreeflyAPI/QX_Protocol.c **** 
 1378              		.loc 1 262 0 is_stmt 1
 1379 0082 05B0     		add	sp, sp, #20
 1380              		.cfi_def_cfa_offset 12
 1381              		@ sp needed
 1382 0084 30BD     		pop	{r4, r5, pc}
 1383              	.LVL115:
 1384              	.L98:
 1385 0086 00BF     		.align	2
 1386              	.L97:
 1387 0088 00000000 		.word	QX_Servers
 1388              		.cfi_endproc
 1389              	.LFE3:
 1390              		.size	QX_Srv_Rx_Write, .-QX_Srv_Rx_Write
 1391              		.section	.text.QX_RxMsg,"ax",%progbits
 1392              		.align	2
 1393              		.global	QX_RxMsg
 1394              		.thumb
 1395              		.thumb_func
 1396              		.type	QX_RxMsg, %function
 1397              	QX_RxMsg:
 1398              	.LFB1:
 148:..\..\FreeflyAPI/QX_Protocol.c **** 	RxMsg_p->MsgBuf_p = &RxMsg_p->MsgBuf[0];
 1399              		.loc 1 148 0
 1400              		.cfi_startproc
 1401              		@ args = 0, pretend = 0, frame = 8
 1402              		@ frame_needed = 0, uses_anonymous_args = 0
ARM GAS  C:\Users\hamis\AppData\Local\Temp\ccsOK97v.s 			page 42


 1403              	.LVL116:
 1404 0000 70B5     		push	{r4, r5, r6, lr}
 1405              		.cfi_def_cfa_offset 16
 1406              		.cfi_offset 4, -16
 1407              		.cfi_offset 5, -12
 1408              		.cfi_offset 6, -8
 1409              		.cfi_offset 14, -4
 1410 0002 82B0     		sub	sp, sp, #8
 1411              		.cfi_def_cfa_offset 24
 1412 0004 0446     		mov	r4, r0
 149:..\..\FreeflyAPI/QX_Protocol.c **** 	RxMsg_p->MsgBufStart_p = &RxMsg_p->MsgBuf[0];
 1413              		.loc 1 149 0
 1414 0006 00F11C05 		add	r5, r0, #28
 1415 000a 0567     		str	r5, [r0, #112]
 150:..\..\FreeflyAPI/QX_Protocol.c **** 	RxMsg_p->AttNotHandled = 0;		// Assume it will be handled to start - let the parser set this flag 
 1416              		.loc 1 150 0
 1417 000c 4566     		str	r5, [r0, #100]
 151:..\..\FreeflyAPI/QX_Protocol.c **** 	
 1418              		.loc 1 151 0
 1419 000e 0023     		movs	r3, #0
 1420 0010 0371     		strb	r3, [r0, #4]
 159:..\..\FreeflyAPI/QX_Protocol.c **** 		if (*QX_ParseHeader_Legacy != NULL){
 1421              		.loc 1 159 0
 1422 0012 4379     		ldrb	r3, [r0, #5]	@ zero_extendqisi2
 1423 0014 2BB1     		cbz	r3, .L100
 160:..\..\FreeflyAPI/QX_Protocol.c **** 			QX_ParseHeader_Legacy(RxMsg_p);
 1424              		.loc 1 160 0
 1425 0016 1F4B     		ldr	r3, .L112
 1426 0018 5B68     		ldr	r3, [r3, #4]
 1427 001a 002B     		cmp	r3, #0
 1428 001c 34D0     		beq	.L109
 161:..\..\FreeflyAPI/QX_Protocol.c **** 		} else {
 1429              		.loc 1 161 0
 1430 001e 9847     		blx	r3
 1431              	.LVL117:
 1432 0020 01E0     		b	.L102
 1433              	.LVL118:
 1434              	.L100:
 166:..\..\FreeflyAPI/QX_Protocol.c **** 	}
 1435              		.loc 1 166 0
 1436 0022 FFF7FEFF 		bl	QX_ParseHeader
 1437              	.LVL119:
 1438              	.L102:
 169:..\..\FreeflyAPI/QX_Protocol.c **** 	
 1439              		.loc 1 169 0
 1440 0026 236F     		ldr	r3, [r4, #112]
 1441 0028 E366     		str	r3, [r4, #108]
 172:..\..\FreeflyAPI/QX_Protocol.c **** 		uint32_t crc32_result = QX_accumulate_crc32(0xFFFFFFFF, RxMsg_p->MsgBuf, RxMsg_p->MsgBuf_MsgLen -
 1442              		.loc 1 172 0
 1443 002a A37C     		ldrb	r3, [r4, #18]	@ zero_extendqisi2
 1444 002c 9BB1     		cbz	r3, .L103
 1445              	.LBB10:
 173:..\..\FreeflyAPI/QX_Protocol.c **** 		uint32_t crc32_msg = 0;
 1446              		.loc 1 173 0
 1447 002e B4F86260 		ldrh	r6, [r4, #98]
 1448 0032 721F     		subs	r2, r6, #5
 1449 0034 2946     		mov	r1, r5
ARM GAS  C:\Users\hamis\AppData\Local\Temp\ccsOK97v.s 			page 43


 1450 0036 4FF0FF30 		mov	r0, #-1
 1451 003a FFF7FEFF 		bl	QX_accumulate_crc32
 1452              	.LVL120:
 1453 003e 0246     		mov	r2, r0
 1454              	.LVL121:
 174:..\..\FreeflyAPI/QX_Protocol.c **** 		memcpy(&crc32_msg, &RxMsg_p->MsgBuf[RxMsg_p->MsgBuf_MsgLen - 5], sizeof(crc32_msg));
 1455              		.loc 1 174 0
 1456 0040 0023     		movs	r3, #0
 1457 0042 0193     		str	r3, [sp, #4]
 175:..\..\FreeflyAPI/QX_Protocol.c **** 		if (crc32_result != crc32_msg)
 1458              		.loc 1 175 0
 1459 0044 1336     		adds	r6, r6, #19
 1460 0046 2644     		add	r6, r6, r4
 1461 0048 7068     		ldr	r0, [r6, #4]	@ unaligned
 1462              	.LVL122:
 1463 004a 0190     		str	r0, [sp, #4]	@ unaligned
 176:..\..\FreeflyAPI/QX_Protocol.c **** 			return QX_STAT_ERROR_RXMSG_CRC32_FAIL;
 1464              		.loc 1 176 0
 1465 004c 019B     		ldr	r3, [sp, #4]
 1466 004e 9A42     		cmp	r2, r3
 1467 0050 01D0     		beq	.L103
 177:..\..\FreeflyAPI/QX_Protocol.c **** 	}
 1468              		.loc 1 177 0
 1469 0052 0720     		movs	r0, #7
 1470 0054 1BE0     		b	.L101
 1471              	.LVL123:
 1472              	.L103:
 1473              	.LBE10:
 181:..\..\FreeflyAPI/QX_Protocol.c **** 	
 1474              		.loc 1 181 0
 1475 0056 2046     		mov	r0, r4
 1476 0058 FFF7FEFF 		bl	QX_FwdMsg_CB
 1477              	.LVL124:
 189:..\..\FreeflyAPI/QX_Protocol.c **** 		
 1478              		.loc 1 189 0
 1479 005c 237C     		ldrb	r3, [r4, #16]	@ zero_extendqisi2
 1480 005e 032B     		cmp	r3, #3
 1481 0060 14D8     		bhi	.L110
 1482 0062 DFE803F0 		tbb	[pc, r3]
 1483              	.L106:
 1484 0066 0C       		.byte	(.L105-.L106)/2
 1485 0067 02       		.byte	(.L107-.L106)/2
 1486 0068 07       		.byte	(.L108-.L106)/2
 1487 0069 07       		.byte	(.L108-.L106)/2
 1488              		.p2align 1
 1489              	.L107:
 192:..\..\FreeflyAPI/QX_Protocol.c **** 			break;
 1490              		.loc 1 192 0
 1491 006a 2046     		mov	r0, r4
 1492 006c FFF7FEFF 		bl	QX_Srv_Rx_Read
 1493              	.LVL125:
 208:..\..\FreeflyAPI/QX_Protocol.c **** }
 1494              		.loc 1 208 0
 1495 0070 0020     		movs	r0, #0
 193:..\..\FreeflyAPI/QX_Protocol.c **** 		
 1496              		.loc 1 193 0
 1497 0072 0CE0     		b	.L101
ARM GAS  C:\Users\hamis\AppData\Local\Temp\ccsOK97v.s 			page 44


 1498              	.L108:
 197:..\..\FreeflyAPI/QX_Protocol.c **** 			break;
 1499              		.loc 1 197 0
 1500 0074 2046     		mov	r0, r4
 1501 0076 FFF7FEFF 		bl	QX_Srv_Rx_Write
 1502              	.LVL126:
 208:..\..\FreeflyAPI/QX_Protocol.c **** }
 1503              		.loc 1 208 0
 1504 007a 0020     		movs	r0, #0
 198:..\..\FreeflyAPI/QX_Protocol.c **** 		
 1505              		.loc 1 198 0
 1506 007c 07E0     		b	.L101
 1507              	.L105:
 201:..\..\FreeflyAPI/QX_Protocol.c **** 			break;
 1508              		.loc 1 201 0
 1509 007e 2046     		mov	r0, r4
 1510 0080 FFF7FEFF 		bl	QX_Cli_Rx_CurVal
 1511              	.LVL127:
 208:..\..\FreeflyAPI/QX_Protocol.c **** }
 1512              		.loc 1 208 0
 1513 0084 0020     		movs	r0, #0
 202:..\..\FreeflyAPI/QX_Protocol.c **** 		
 1514              		.loc 1 202 0
 1515 0086 02E0     		b	.L101
 1516              	.LVL128:
 1517              	.L109:
 163:..\..\FreeflyAPI/QX_Protocol.c **** 		}
 1518              		.loc 1 163 0
 1519 0088 0120     		movs	r0, #1
 1520              	.LVL129:
 1521 008a 00E0     		b	.L101
 1522              	.L110:
 205:..\..\FreeflyAPI/QX_Protocol.c **** 	}
 1523              		.loc 1 205 0
 1524 008c 0220     		movs	r0, #2
 1525              	.L101:
 209:..\..\FreeflyAPI/QX_Protocol.c **** 
 1526              		.loc 1 209 0
 1527 008e 02B0     		add	sp, sp, #8
 1528              		.cfi_def_cfa_offset 16
 1529              		@ sp needed
 1530 0090 70BD     		pop	{r4, r5, r6, pc}
 1531              	.LVL130:
 1532              	.L113:
 1533 0092 00BF     		.align	2
 1534              	.L112:
 1535 0094 00000000 		.word	.LANCHOR0
 1536              		.cfi_endproc
 1537              	.LFE1:
 1538              		.size	QX_RxMsg, .-QX_RxMsg
 1539              		.section	.text.QX_StreamRxCharSM,"ax",%progbits
 1540              		.align	2
 1541              		.global	QX_StreamRxCharSM
 1542              		.thumb
 1543              		.thumb_func
 1544              		.type	QX_StreamRxCharSM, %function
 1545              	QX_StreamRxCharSM:
ARM GAS  C:\Users\hamis\AppData\Local\Temp\ccsOK97v.s 			page 45


 1546              	.LFB17:
 603:..\..\FreeflyAPI/QX_Protocol.c **** 	uint8_t chksum;
 1547              		.loc 1 603 0
 1548              		.cfi_startproc
 1549              		@ args = 0, pretend = 0, frame = 0
 1550              		@ frame_needed = 0, uses_anonymous_args = 0
 1551              	.LVL131:
 1552 0000 70B5     		push	{r4, r5, r6, lr}
 1553              		.cfi_def_cfa_offset 16
 1554              		.cfi_offset 4, -16
 1555              		.cfi_offset 5, -12
 1556              		.cfi_offset 6, -8
 1557              		.cfi_offset 14, -4
 606:..\..\FreeflyAPI/QX_Protocol.c **** 	{
 1558              		.loc 1 606 0
 1559 0002 8C23     		movs	r3, #140
 1560 0004 03FB00F3 		mul	r3, r3, r0
 1561 0008 A34A     		ldr	r2, .L138
 1562 000a D35C     		ldrb	r3, [r2, r3]	@ zero_extendqisi2
 1563 000c 072B     		cmp	r3, #7
 1564 000e 00F23881 		bhi	.L132
 1565 0012 DFE813F0 		tbh	[pc, r3, lsl #1]
 1566              	.L117:
 1567 0016 0800     		.2byte	(.L116-.L117)/2
 1568 0018 2600     		.2byte	(.L118-.L117)/2
 1569 001a 5100     		.2byte	(.L119-.L117)/2
 1570 001c 8200     		.2byte	(.L120-.L117)/2
 1571 001e B600     		.2byte	(.L121-.L117)/2
 1572 0020 C800     		.2byte	(.L122-.L117)/2
 1573 0022 E300     		.2byte	(.L123-.L117)/2
 1574 0024 0401     		.2byte	(.L124-.L117)/2
 1575              		.p2align 1
 1576              	.L116:
 609:..\..\FreeflyAPI/QX_Protocol.c **** 				{
 1577              		.loc 1 609 0
 1578 0026 5129     		cmp	r1, #81
 1579 0028 10D1     		bne	.L125
 611:..\..\FreeflyAPI/QX_Protocol.c **** 					QX_CommsPorts[port].RxMsg.MsgBuf[0] = rxbyte;
 1580              		.loc 1 611 0
 1581 002a 9B4A     		ldr	r2, .L138
 1582 002c 8C23     		movs	r3, #140
 1583 002e 03FB00F0 		mul	r0, r3, r0
 1584              	.LVL132:
 1585 0032 1418     		adds	r4, r2, r0
 1586 0034 0125     		movs	r5, #1
 1587 0036 6580     		strh	r5, [r4, #2]	@ movhi
 612:..\..\FreeflyAPI/QX_Protocol.c **** 					QX_CommsPorts[port].RxMsg.MsgBuf_p = &QX_CommsPorts[port].RxMsg.MsgBuf[1];
 1588              		.loc 1 612 0
 1589 0038 84F82010 		strb	r1, [r4, #32]
 613:..\..\FreeflyAPI/QX_Protocol.c **** 					QX_CommsPorts[port].RxState = QX_RX_STATE_GET_PROTOCOL_VER;
 1590              		.loc 1 613 0
 1591 003c 00F11903 		add	r3, r0, #25
 1592 0040 1344     		add	r3, r3, r2
 1593 0042 0833     		adds	r3, r3, #8
 1594 0044 6367     		str	r3, [r4, #116]
 614:..\..\FreeflyAPI/QX_Protocol.c **** 				} else {
 1595              		.loc 1 614 0
ARM GAS  C:\Users\hamis\AppData\Local\Temp\ccsOK97v.s 			page 46


 1596 0046 1554     		strb	r5, [r2, r0]
 726:..\..\FreeflyAPI/QX_Protocol.c **** }
 1597              		.loc 1 726 0
 1598 0048 0020     		movs	r0, #0
 1599 004a 70BD     		pop	{r4, r5, r6, pc}
 1600              	.LVL133:
 1601              	.L125:
 616:..\..\FreeflyAPI/QX_Protocol.c **** 				}
 1602              		.loc 1 616 0
 1603 004c 8C23     		movs	r3, #140
 1604 004e 924A     		ldr	r2, .L138
 1605 0050 03FB0020 		mla	r0, r3, r0, r2
 1606              	.LVL134:
 1607 0054 D0F88430 		ldr	r3, [r0, #132]
 1608 0058 0133     		adds	r3, r3, #1
 1609 005a C0F88430 		str	r3, [r0, #132]
 726:..\..\FreeflyAPI/QX_Protocol.c **** }
 1610              		.loc 1 726 0
 1611 005e 0020     		movs	r0, #0
 1612 0060 70BD     		pop	{r4, r5, r6, pc}
 1613              	.LVL135:
 1614              	.L118:
 621:..\..\FreeflyAPI/QX_Protocol.c **** 				QX_CommsPorts[port].RxCntr++;
 1615              		.loc 1 621 0
 1616 0062 8C23     		movs	r3, #140
 1617 0064 8C4A     		ldr	r2, .L138
 1618 0066 03FB0023 		mla	r3, r3, r0, r2
 1619 006a 5A6F     		ldr	r2, [r3, #116]
 1620 006c 541C     		adds	r4, r2, #1
 1621 006e 5C67     		str	r4, [r3, #116]
 1622 0070 1170     		strb	r1, [r2]
 622:..\..\FreeflyAPI/QX_Protocol.c **** 				if(rxbyte == 'X'){
 1623              		.loc 1 622 0
 1624 0072 5A88     		ldrh	r2, [r3, #2]
 1625 0074 0132     		adds	r2, r2, #1
 1626 0076 5A80     		strh	r2, [r3, #2]	@ movhi
 623:..\..\FreeflyAPI/QX_Protocol.c **** 					QX_CommsPorts[port].RxMsg.Legacy_Header = 0;
 1627              		.loc 1 623 0
 1628 0078 5829     		cmp	r1, #88
 1629 007a 09D1     		bne	.L126
 624:..\..\FreeflyAPI/QX_Protocol.c **** 					QX_CommsPorts[port].RxState = QX_RX_STATE_GET_QX_LEN0;
 1630              		.loc 1 624 0
 1631 007c 864A     		ldr	r2, .L138
 1632 007e 8C23     		movs	r3, #140
 1633 0080 03FB00F3 		mul	r3, r3, r0
 1634 0084 D118     		adds	r1, r2, r3
 1635              	.LVL136:
 1636 0086 0020     		movs	r0, #0
 1637              	.LVL137:
 1638 0088 4872     		strb	r0, [r1, #9]
 625:..\..\FreeflyAPI/QX_Protocol.c **** 				}
 1639              		.loc 1 625 0
 1640 008a 0221     		movs	r1, #2
 1641 008c D154     		strb	r1, [r2, r3]
 1642 008e 70BD     		pop	{r4, r5, r6, pc}
 1643              	.LVL138:
 1644              	.L126:
ARM GAS  C:\Users\hamis\AppData\Local\Temp\ccsOK97v.s 			page 47


 627:..\..\FreeflyAPI/QX_Protocol.c **** 					QX_CommsPorts[port].RxMsg.Legacy_Header = 1;
 1645              		.loc 1 627 0
 1646 0090 4229     		cmp	r1, #66
 1647 0092 0AD1     		bne	.L127
 628:..\..\FreeflyAPI/QX_Protocol.c **** 					QX_CommsPorts[port].RxState = QX_RX_STATE_GET_QB_LEN0;
 1648              		.loc 1 628 0
 1649 0094 804A     		ldr	r2, .L138
 1650 0096 8C23     		movs	r3, #140
 1651 0098 03FB00F0 		mul	r0, r3, r0
 1652              	.LVL139:
 1653 009c 1318     		adds	r3, r2, r0
 1654 009e 0121     		movs	r1, #1
 1655              	.LVL140:
 1656 00a0 5972     		strb	r1, [r3, #9]
 629:..\..\FreeflyAPI/QX_Protocol.c **** 				}
 1657              		.loc 1 629 0
 1658 00a2 0423     		movs	r3, #4
 1659 00a4 1354     		strb	r3, [r2, r0]
 726:..\..\FreeflyAPI/QX_Protocol.c **** }
 1660              		.loc 1 726 0
 1661 00a6 0020     		movs	r0, #0
 1662 00a8 70BD     		pop	{r4, r5, r6, pc}
 1663              	.LVL141:
 1664              	.L127:
 632:..\..\FreeflyAPI/QX_Protocol.c **** 				}
 1665              		.loc 1 632 0
 1666 00aa 8C23     		movs	r3, #140
 1667 00ac 03FB00F3 		mul	r3, r3, r0
 1668 00b0 0020     		movs	r0, #0
 1669              	.LVL142:
 1670 00b2 794A     		ldr	r2, .L138
 1671 00b4 D054     		strb	r0, [r2, r3]
 1672 00b6 70BD     		pop	{r4, r5, r6, pc}
 1673              	.LVL143:
 1674              	.L119:
 637:..\..\FreeflyAPI/QX_Protocol.c **** 				QX_CommsPorts[port].RxCntr++;
 1675              		.loc 1 637 0
 1676 00b8 8C23     		movs	r3, #140
 1677 00ba 774A     		ldr	r2, .L138
 1678 00bc 03FB0023 		mla	r3, r3, r0, r2
 1679 00c0 5A6F     		ldr	r2, [r3, #116]
 1680 00c2 541C     		adds	r4, r2, #1
 1681 00c4 5C67     		str	r4, [r3, #116]
 1682 00c6 1170     		strb	r1, [r2]
 638:..\..\FreeflyAPI/QX_Protocol.c **** 		
 1683              		.loc 1 638 0
 1684 00c8 5A88     		ldrh	r2, [r3, #2]
 1685 00ca 0132     		adds	r2, r2, #1
 1686 00cc 5A80     		strh	r2, [r3, #2]	@ movhi
 640:..\..\FreeflyAPI/QX_Protocol.c **** 				QX_CommsPorts[port].RxMsg.Header.MsgLength = (uint16_t)(rxbyte & ~0x80);
 1687              		.loc 1 640 0
 1688 00ce 11F0800F 		tst	r1, #128
 1689 00d2 0BD0     		beq	.L128
 641:..\..\FreeflyAPI/QX_Protocol.c **** 				QX_CommsPorts[port].RxState = QX_RX_STATE_GET_QX_LEN1;
 1690              		.loc 1 641 0
 1691 00d4 01F07F01 		and	r1, r1, #127
 1692              	.LVL144:
ARM GAS  C:\Users\hamis\AppData\Local\Temp\ccsOK97v.s 			page 48


 1693 00d8 6F4A     		ldr	r2, .L138
 1694 00da 8C23     		movs	r3, #140
 1695 00dc 03FB00F0 		mul	r0, r3, r0
 1696              	.LVL145:
 1697 00e0 1318     		adds	r3, r2, r0
 1698 00e2 9981     		strh	r1, [r3, #12]	@ movhi
 642:..\..\FreeflyAPI/QX_Protocol.c **** 			} else {
 1699              		.loc 1 642 0
 1700 00e4 0323     		movs	r3, #3
 1701 00e6 1354     		strb	r3, [r2, r0]
 726:..\..\FreeflyAPI/QX_Protocol.c **** }
 1702              		.loc 1 726 0
 1703 00e8 0020     		movs	r0, #0
 1704 00ea 70BD     		pop	{r4, r5, r6, pc}
 1705              	.LVL146:
 1706              	.L128:
 644:..\..\FreeflyAPI/QX_Protocol.c **** 				QX_CommsPorts[port].RxMsg.MsgBufAtt_p = QX_CommsPorts[port].RxMsg.MsgBuf_p;
 1707              		.loc 1 644 0
 1708 00ec 89B2     		uxth	r1, r1
 1709              	.LVL147:
 1710 00ee 6A4C     		ldr	r4, .L138
 1711 00f0 8C23     		movs	r3, #140
 1712 00f2 03FB00F3 		mul	r3, r3, r0
 1713 00f6 E218     		adds	r2, r4, r3
 1714 00f8 9181     		strh	r1, [r2, #12]	@ movhi
 645:..\..\FreeflyAPI/QX_Protocol.c **** 				QX_CommsPorts[port].RxMsg.RunningChecksum = 0;
 1715              		.loc 1 645 0
 1716 00fa 556F     		ldr	r5, [r2, #116]
 1717 00fc D566     		str	r5, [r2, #108]
 646:..\..\FreeflyAPI/QX_Protocol.c **** 				QX_CommsPorts[port].RxState = QX_RX_STATE_GET_DATA;
 1718              		.loc 1 646 0
 1719 00fe 0025     		movs	r5, #0
 1720 0100 9571     		strb	r5, [r2, #6]
 647:..\..\FreeflyAPI/QX_Protocol.c **** 				
 1721              		.loc 1 647 0
 1722 0102 0622     		movs	r2, #6
 1723 0104 E254     		strb	r2, [r4, r3]
 649:..\..\FreeflyAPI/QX_Protocol.c **** 				{
 1724              		.loc 1 649 0
 1725 0106 4029     		cmp	r1, #64
 1726 0108 40F2BD80 		bls	.L133
 651:..\..\FreeflyAPI/QX_Protocol.c **** 				}
 1727              		.loc 1 651 0
 1728 010c 8C23     		movs	r3, #140
 1729 010e 03FB00F3 		mul	r3, r3, r0
 1730 0112 2846     		mov	r0, r5
 1731              	.LVL148:
 1732 0114 2246     		mov	r2, r4
 1733 0116 D554     		strb	r5, [r2, r3]
 1734 0118 70BD     		pop	{r4, r5, r6, pc}
 1735              	.LVL149:
 1736              	.L120:
 658:..\..\FreeflyAPI/QX_Protocol.c **** 			QX_CommsPorts[port].RxCntr++;
 1737              		.loc 1 658 0
 1738 011a 8C23     		movs	r3, #140
 1739 011c 5E4A     		ldr	r2, .L138
 1740 011e 03FB0023 		mla	r3, r3, r0, r2
ARM GAS  C:\Users\hamis\AppData\Local\Temp\ccsOK97v.s 			page 49


 1741 0122 5A6F     		ldr	r2, [r3, #116]
 1742 0124 541C     		adds	r4, r2, #1
 1743 0126 5C67     		str	r4, [r3, #116]
 1744 0128 1170     		strb	r1, [r2]
 659:..\..\FreeflyAPI/QX_Protocol.c **** 			QX_CommsPorts[port].RxMsg.MsgBufAtt_p = QX_CommsPorts[port].RxMsg.MsgBuf_p;
 1745              		.loc 1 659 0
 1746 012a 5A88     		ldrh	r2, [r3, #2]
 1747 012c 0132     		adds	r2, r2, #1
 1748 012e 5A80     		strh	r2, [r3, #2]	@ movhi
 660:..\..\FreeflyAPI/QX_Protocol.c **** 			
 1749              		.loc 1 660 0
 1750 0130 5A6F     		ldr	r2, [r3, #116]
 1751 0132 DA66     		str	r2, [r3, #108]
 662:..\..\FreeflyAPI/QX_Protocol.c **** 				QX_CommsPorts[port].RxState = QX_RX_STATE_START_WAIT;	// Should not reach here, 21 bit length n
 1752              		.loc 1 662 0
 1753 0134 11F0800F 		tst	r1, #128
 1754 0138 06D0     		beq	.L129
 663:..\..\FreeflyAPI/QX_Protocol.c **** 			} else {
 1755              		.loc 1 663 0
 1756 013a 8C23     		movs	r3, #140
 1757 013c 03FB00F3 		mul	r3, r3, r0
 1758 0140 0021     		movs	r1, #0
 1759              	.LVL150:
 1760 0142 554A     		ldr	r2, .L138
 1761 0144 D154     		strb	r1, [r2, r3]
 1762 0146 0EE0     		b	.L130
 1763              	.LVL151:
 1764              	.L129:
 665:..\..\FreeflyAPI/QX_Protocol.c **** 				QX_CommsPorts[port].RxMsg.RunningChecksum = 0;
 1765              		.loc 1 665 0
 1766 0148 C901     		lsls	r1, r1, #7
 1767              	.LVL152:
 1768 014a 534D     		ldr	r5, .L138
 1769 014c 8C23     		movs	r3, #140
 1770 014e 03FB00F3 		mul	r3, r3, r0
 1771 0152 EA18     		adds	r2, r5, r3
 1772 0154 01F47E51 		and	r1, r1, #16256
 1773 0158 9489     		ldrh	r4, [r2, #12]
 1774 015a 2143     		orrs	r1, r1, r4
 1775 015c 9181     		strh	r1, [r2, #12]	@ movhi
 666:..\..\FreeflyAPI/QX_Protocol.c **** 				QX_CommsPorts[port].RxState = QX_RX_STATE_GET_DATA;
 1776              		.loc 1 666 0
 1777 015e 0021     		movs	r1, #0
 1778 0160 9171     		strb	r1, [r2, #6]
 667:..\..\FreeflyAPI/QX_Protocol.c **** 			}
 1779              		.loc 1 667 0
 1780 0162 0622     		movs	r2, #6
 1781 0164 EA54     		strb	r2, [r5, r3]
 1782              	.L130:
 670:..\..\FreeflyAPI/QX_Protocol.c **** 			{
 1783              		.loc 1 670 0
 1784 0166 8C23     		movs	r3, #140
 1785 0168 4B4A     		ldr	r2, .L138
 1786 016a 03FB0023 		mla	r3, r3, r0, r2
 1787 016e 9B89     		ldrh	r3, [r3, #12]
 1788 0170 402B     		cmp	r3, #64
 1789 0172 40F28A80 		bls	.L134
ARM GAS  C:\Users\hamis\AppData\Local\Temp\ccsOK97v.s 			page 50


 672:..\..\FreeflyAPI/QX_Protocol.c **** 			}
 1790              		.loc 1 672 0
 1791 0176 8C23     		movs	r3, #140
 1792 0178 03FB00F3 		mul	r3, r3, r0
 1793 017c 0020     		movs	r0, #0
 1794              	.LVL153:
 1795 017e D054     		strb	r0, [r2, r3]
 1796 0180 70BD     		pop	{r4, r5, r6, pc}
 1797              	.LVL154:
 1798              	.L121:
 678:..\..\FreeflyAPI/QX_Protocol.c **** 				QX_CommsPorts[port].RxCntr++;
 1799              		.loc 1 678 0
 1800 0182 454C     		ldr	r4, .L138
 1801 0184 8C23     		movs	r3, #140
 1802 0186 03FB00F0 		mul	r0, r3, r0
 1803              	.LVL155:
 1804 018a 2318     		adds	r3, r4, r0
 1805 018c 5A6F     		ldr	r2, [r3, #116]
 1806 018e 551C     		adds	r5, r2, #1
 1807 0190 5D67     		str	r5, [r3, #116]
 1808 0192 1170     		strb	r1, [r2]
 679:..\..\FreeflyAPI/QX_Protocol.c **** 				QX_CommsPorts[port].RxMsg.Header.MsgLength = (uint16_t)rxbyte << 8;
 1809              		.loc 1 679 0
 1810 0194 5A88     		ldrh	r2, [r3, #2]
 1811 0196 0132     		adds	r2, r2, #1
 1812 0198 5A80     		strh	r2, [r3, #2]	@ movhi
 680:..\..\FreeflyAPI/QX_Protocol.c **** 				QX_CommsPorts[port].RxState = QX_RX_STATE_GET_QB_LEN1;
 1813              		.loc 1 680 0
 1814 019a 0902     		lsls	r1, r1, #8
 1815              	.LVL156:
 1816 019c 9981     		strh	r1, [r3, #12]	@ movhi
 681:..\..\FreeflyAPI/QX_Protocol.c **** 				break;
 1817              		.loc 1 681 0
 1818 019e 0523     		movs	r3, #5
 1819 01a0 2354     		strb	r3, [r4, r0]
 726:..\..\FreeflyAPI/QX_Protocol.c **** }
 1820              		.loc 1 726 0
 1821 01a2 0020     		movs	r0, #0
 682:..\..\FreeflyAPI/QX_Protocol.c **** 				
 1822              		.loc 1 682 0
 1823 01a4 70BD     		pop	{r4, r5, r6, pc}
 1824              	.LVL157:
 1825              	.L122:
 685:..\..\FreeflyAPI/QX_Protocol.c **** 				QX_CommsPorts[port].RxCntr++;
 1826              		.loc 1 685 0
 1827 01a6 3C4D     		ldr	r5, .L138
 1828 01a8 8C24     		movs	r4, #140
 1829 01aa 04FB00F4 		mul	r4, r4, r0
 1830 01ae 2B19     		adds	r3, r5, r4
 1831 01b0 5A6F     		ldr	r2, [r3, #116]
 1832 01b2 561C     		adds	r6, r2, #1
 1833 01b4 5E67     		str	r6, [r3, #116]
 1834 01b6 1170     		strb	r1, [r2]
 686:..\..\FreeflyAPI/QX_Protocol.c **** 				QX_CommsPorts[port].RxMsg.MsgBufAtt_p = QX_CommsPorts[port].RxMsg.MsgBuf_p;
 1835              		.loc 1 686 0
 1836 01b8 5A88     		ldrh	r2, [r3, #2]
 1837 01ba 0132     		adds	r2, r2, #1
ARM GAS  C:\Users\hamis\AppData\Local\Temp\ccsOK97v.s 			page 51


 1838 01bc 5A80     		strh	r2, [r3, #2]	@ movhi
 687:..\..\FreeflyAPI/QX_Protocol.c **** 				QX_CommsPorts[port].RxMsg.Header.MsgLength |= (uint16_t)rxbyte;
 1839              		.loc 1 687 0
 1840 01be 5A6F     		ldr	r2, [r3, #116]
 1841 01c0 DA66     		str	r2, [r3, #108]
 688:..\..\FreeflyAPI/QX_Protocol.c **** 				QX_CommsPorts[port].RxMsg.RunningChecksum = 0;
 1842              		.loc 1 688 0
 1843 01c2 9A89     		ldrh	r2, [r3, #12]
 1844 01c4 1143     		orrs	r1, r1, r2
 1845              	.LVL158:
 1846 01c6 9981     		strh	r1, [r3, #12]	@ movhi
 689:..\..\FreeflyAPI/QX_Protocol.c **** 				QX_CommsPorts[port].RxState = QX_RX_STATE_GET_DATA;
 1847              		.loc 1 689 0
 1848 01c8 0022     		movs	r2, #0
 1849 01ca 9A71     		strb	r2, [r3, #6]
 690:..\..\FreeflyAPI/QX_Protocol.c **** 				if(QX_MAX_PAYLOAD_LEN < QX_CommsPorts[port].RxMsg.Header.MsgLength)
 1850              		.loc 1 690 0
 1851 01cc 0623     		movs	r3, #6
 1852 01ce 2B55     		strb	r3, [r5, r4]
 691:..\..\FreeflyAPI/QX_Protocol.c **** 				{
 1853              		.loc 1 691 0
 1854 01d0 89B2     		uxth	r1, r1
 1855 01d2 4029     		cmp	r1, #64
 1856 01d4 5BD9     		bls	.L135
 693:..\..\FreeflyAPI/QX_Protocol.c **** 				}
 1857              		.loc 1 693 0
 1858 01d6 1046     		mov	r0, r2
 1859              	.LVL159:
 1860 01d8 2855     		strb	r0, [r5, r4]
 1861 01da 70BD     		pop	{r4, r5, r6, pc}
 1862              	.LVL160:
 1863              	.L123:
 698:..\..\FreeflyAPI/QX_Protocol.c **** 				QX_CommsPorts[port].RxCntr++;
 1864              		.loc 1 698 0
 1865 01dc 2E4C     		ldr	r4, .L138
 1866 01de 8C25     		movs	r5, #140
 1867 01e0 05FB00F5 		mul	r5, r5, r0
 1868 01e4 6219     		adds	r2, r4, r5
 1869 01e6 536F     		ldr	r3, [r2, #116]
 1870 01e8 5E1C     		adds	r6, r3, #1
 1871 01ea 5667     		str	r6, [r2, #116]
 1872 01ec 1970     		strb	r1, [r3]
 699:..\..\FreeflyAPI/QX_Protocol.c **** 				QX_CommsPorts[port].RxMsg.RunningChecksum += rxbyte;
 1873              		.loc 1 699 0
 1874 01ee 5388     		ldrh	r3, [r2, #2]
 1875 01f0 0133     		adds	r3, r3, #1
 1876 01f2 5380     		strh	r3, [r2, #2]	@ movhi
 700:..\..\FreeflyAPI/QX_Protocol.c **** 				if(QX_CommsPorts[port].RxMsg.Header.MsgLength <= QX_CommsPorts[port].RxCntr - (QX_CommsPorts[po
 1877              		.loc 1 700 0
 1878 01f4 9679     		ldrb	r6, [r2, #6]	@ zero_extendqisi2
 1879 01f6 3144     		add	r1, r1, r6
 1880              	.LVL161:
 1881 01f8 9171     		strb	r1, [r2, #6]
 701:..\..\FreeflyAPI/QX_Protocol.c **** 				{
 1882              		.loc 1 701 0
 1883 01fa 9189     		ldrh	r1, [r2, #12]
 1884 01fc 9BB2     		uxth	r3, r3
ARM GAS  C:\Users\hamis\AppData\Local\Temp\ccsOK97v.s 			page 52


 1885 01fe D26E     		ldr	r2, [r2, #108]
 1886 0200 1835     		adds	r5, r5, #24
 1887 0202 2C44     		add	r4, r4, r5
 1888 0204 0834     		adds	r4, r4, #8
 1889 0206 141B     		subs	r4, r2, r4
 1890 0208 1B1B     		subs	r3, r3, r4
 1891 020a 9942     		cmp	r1, r3
 1892 020c 41DC     		bgt	.L136
 703:..\..\FreeflyAPI/QX_Protocol.c **** 				}
 1893              		.loc 1 703 0
 1894 020e 8C23     		movs	r3, #140
 1895 0210 03FB00F0 		mul	r0, r3, r0
 1896              	.LVL162:
 1897 0214 0722     		movs	r2, #7
 1898 0216 204B     		ldr	r3, .L138
 1899 0218 1A54     		strb	r2, [r3, r0]
 726:..\..\FreeflyAPI/QX_Protocol.c **** }
 1900              		.loc 1 726 0
 1901 021a 0020     		movs	r0, #0
 1902 021c 70BD     		pop	{r4, r5, r6, pc}
 1903              	.LVL163:
 1904              	.L124:
 708:..\..\FreeflyAPI/QX_Protocol.c **** 				QX_CommsPorts[port].RxCntr++;
 1905              		.loc 1 708 0
 1906 021e 1E4D     		ldr	r5, .L138
 1907 0220 8C22     		movs	r2, #140
 1908 0222 02FB00F2 		mul	r2, r2, r0
 1909 0226 AB18     		adds	r3, r5, r2
 1910 0228 5C6F     		ldr	r4, [r3, #116]
 1911 022a 661C     		adds	r6, r4, #1
 1912 022c 5E67     		str	r6, [r3, #116]
 1913 022e 2170     		strb	r1, [r4]
 709:..\..\FreeflyAPI/QX_Protocol.c **** 				chksum = rxbyte;
 1914              		.loc 1 709 0
 1915 0230 5C88     		ldrh	r4, [r3, #2]
 1916 0232 0134     		adds	r4, r4, #1
 1917 0234 5C80     		strh	r4, [r3, #2]	@ movhi
 1918              	.LVL164:
 711:..\..\FreeflyAPI/QX_Protocol.c **** 				QX_CommsPorts[port].RxMsg.CommPort = port;
 1919              		.loc 1 711 0
 1920 0236 0024     		movs	r4, #0
 1921 0238 AC54     		strb	r4, [r5, r2]
 712:..\..\FreeflyAPI/QX_Protocol.c **** 				if((chksum + QX_CommsPorts[port].RxMsg.RunningChecksum) == 0xFF)		// Is checksum ok?
 1922              		.loc 1 712 0
 1923 023a 9872     		strb	r0, [r3, #10]
 713:..\..\FreeflyAPI/QX_Protocol.c **** 				{
 1924              		.loc 1 713 0
 1925 023c 9B79     		ldrb	r3, [r3, #6]	@ zero_extendqisi2
 1926 023e 1944     		add	r1, r1, r3
 1927              	.LVL165:
 1928 0240 FF29     		cmp	r1, #255
 1929 0242 13D1     		bne	.L131
 715:..\..\FreeflyAPI/QX_Protocol.c **** 					QX_CommsPorts[port].last_rx_msg_time = QX_GetTicks_ms();
 1930              		.loc 1 715 0
 1931 0244 8C25     		movs	r5, #140
 1932 0246 144B     		ldr	r3, .L138
 1933 0248 05FB0035 		mla	r5, r5, r0, r3
ARM GAS  C:\Users\hamis\AppData\Local\Temp\ccsOK97v.s 			page 53


 1934 024c AC67     		str	r4, [r5, #120]
 716:..\..\FreeflyAPI/QX_Protocol.c **** 					QX_CommsPorts[port].Connected = 1;
 1935              		.loc 1 716 0
 1936 024e FFF7FEFF 		bl	QX_GetTicks_ms
 1937              	.LVL166:
 1938 0252 C5F88800 		str	r0, [r5, #136]
 717:..\..\FreeflyAPI/QX_Protocol.c **** 					QX_CommsPorts[port].RxMsg.MsgBuf_MsgLen = QX_CommsPorts[port].RxCntr;
 1939              		.loc 1 717 0
 1940 0256 0124     		movs	r4, #1
 1941 0258 85F87C40 		strb	r4, [r5, #124]
 718:..\..\FreeflyAPI/QX_Protocol.c **** 					QX_RxMsg(&QX_CommsPorts[port].RxMsg);	// Receive the Message
 1942              		.loc 1 718 0
 1943 025c 6B88     		ldrh	r3, [r5, #2]
 1944 025e A5F86630 		strh	r3, [r5, #102]	@ movhi
 719:..\..\FreeflyAPI/QX_Protocol.c **** 					return 1;
 1945              		.loc 1 719 0
 1946 0262 281D     		adds	r0, r5, #4
 1947 0264 FFF7FEFF 		bl	QX_RxMsg
 1948              	.LVL167:
 720:..\..\FreeflyAPI/QX_Protocol.c **** 				} else {
 1949              		.loc 1 720 0
 1950 0268 2046     		mov	r0, r4
 1951 026a 70BD     		pop	{r4, r5, r6, pc}
 1952              	.LVL168:
 1953              	.L131:
 722:..\..\FreeflyAPI/QX_Protocol.c **** 				}
 1954              		.loc 1 722 0
 1955 026c 8C22     		movs	r2, #140
 1956 026e 0A4B     		ldr	r3, .L138
 1957 0270 02FB0030 		mla	r0, r2, r0, r3
 1958              	.LVL169:
 1959 0274 D0F88030 		ldr	r3, [r0, #128]
 1960 0278 0133     		adds	r3, r3, #1
 1961 027a C0F88030 		str	r3, [r0, #128]
 726:..\..\FreeflyAPI/QX_Protocol.c **** }
 1962              		.loc 1 726 0
 1963 027e 0020     		movs	r0, #0
 724:..\..\FreeflyAPI/QX_Protocol.c **** 	}
 1964              		.loc 1 724 0
 1965 0280 70BD     		pop	{r4, r5, r6, pc}
 1966              	.LVL170:
 1967              	.L132:
 726:..\..\FreeflyAPI/QX_Protocol.c **** }
 1968              		.loc 1 726 0
 1969 0282 0020     		movs	r0, #0
 1970              	.LVL171:
 1971 0284 70BD     		pop	{r4, r5, r6, pc}
 1972              	.LVL172:
 1973              	.L133:
 1974 0286 0020     		movs	r0, #0
 1975              	.LVL173:
 1976 0288 70BD     		pop	{r4, r5, r6, pc}
 1977              	.LVL174:
 1978              	.L134:
 1979 028a 0020     		movs	r0, #0
 1980              	.LVL175:
 1981 028c 70BD     		pop	{r4, r5, r6, pc}
ARM GAS  C:\Users\hamis\AppData\Local\Temp\ccsOK97v.s 			page 54


 1982              	.LVL176:
 1983              	.L135:
 1984 028e 0020     		movs	r0, #0
 1985              	.LVL177:
 1986 0290 70BD     		pop	{r4, r5, r6, pc}
 1987              	.LVL178:
 1988              	.L136:
 1989 0292 0020     		movs	r0, #0
 1990              	.LVL179:
 727:..\..\FreeflyAPI/QX_Protocol.c **** 
 1991              		.loc 1 727 0
 1992 0294 70BD     		pop	{r4, r5, r6, pc}
 1993              	.L139:
 1994 0296 00BF     		.align	2
 1995              	.L138:
 1996 0298 00000000 		.word	QX_CommsPorts
 1997              		.cfi_endproc
 1998              	.LFE17:
 1999              		.size	QX_StreamRxCharSM, .-QX_StreamRxCharSM
 2000              		.section	.text.QX_SendPacket_Cli_Read,"ax",%progbits
 2001              		.align	2
 2002              		.global	QX_SendPacket_Cli_Read
 2003              		.thumb
 2004              		.thumb_func
 2005              		.type	QX_SendPacket_Cli_Read, %function
 2006              	QX_SendPacket_Cli_Read:
 2007              	.LFB21:
 786:..\..\FreeflyAPI/QX_Protocol.c **** 
 787:..\..\FreeflyAPI/QX_Protocol.c **** //----------------------------------------------------------------------------
 788:..\..\FreeflyAPI/QX_Protocol.c **** // Full Featured Send QX Packet - For use by the Application (Not in auto response to Read/Write)
 789:..\..\FreeflyAPI/QX_Protocol.c **** // This version supports all features
 790:..\..\FreeflyAPI/QX_Protocol.c **** // This function builds an appropriate message structure and calls calls QX_TxMsg().
 791:..\..\FreeflyAPI/QX_Protocol.c **** QX_Stat_e QX_SendPacket_Cli_Read(QX_Client_t *Cli_p, uint32_t Attrib, QX_Comms_Port_e CommPort, QX_
 792:..\..\FreeflyAPI/QX_Protocol.c **** {
 2008              		.loc 1 792 0
 2009              		.cfi_startproc
 2010              		@ args = 12, pretend = 8, frame = 120
 2011              		@ frame_needed = 0, uses_anonymous_args = 0
 2012              	.LVL180:
 2013 0000 82B0     		sub	sp, sp, #8
 2014              		.cfi_def_cfa_offset 8
 2015 0002 70B5     		push	{r4, r5, r6, lr}
 2016              		.cfi_def_cfa_offset 24
 2017              		.cfi_offset 4, -24
 2018              		.cfi_offset 5, -20
 2019              		.cfi_offset 6, -16
 2020              		.cfi_offset 14, -12
 2021 0004 9EB0     		sub	sp, sp, #120
 2022              		.cfi_def_cfa_offset 144
 2023 0006 0446     		mov	r4, r0
 2024 0008 0D46     		mov	r5, r1
 2025 000a 1646     		mov	r6, r2
 2026 000c 2393     		str	r3, [sp, #140]
 793:..\..\FreeflyAPI/QX_Protocol.c **** 	QX_Msg_t TxMsg;
 794:..\..\FreeflyAPI/QX_Protocol.c **** 	QX_InitMsg(&TxMsg);
 2027              		.loc 1 794 0
 2028 000e 01A8     		add	r0, sp, #4
ARM GAS  C:\Users\hamis\AppData\Local\Temp\ccsOK97v.s 			page 55


 2029              	.LVL181:
 2030 0010 FFF7FEFF 		bl	QX_InitMsg
 2031              	.LVL182:
 795:..\..\FreeflyAPI/QX_Protocol.c **** 	
 796:..\..\FreeflyAPI/QX_Protocol.c **** 	TxMsg.CommPort = CommPort;
 2032              		.loc 1 796 0
 2033 0014 8DF80A60 		strb	r6, [sp, #10]
 797:..\..\FreeflyAPI/QX_Protocol.c **** 	TxMsg.Header.Attrib = Attrib;
 2034              		.loc 1 797 0
 2035 0018 0495     		str	r5, [sp, #16]
 798:..\..\FreeflyAPI/QX_Protocol.c **** 	TxMsg.Header.Type = QX_MSG_TYPE_READ;
 2036              		.loc 1 798 0
 2037 001a 0123     		movs	r3, #1
 2038 001c 8DF81430 		strb	r3, [sp, #20]
 799:..\..\FreeflyAPI/QX_Protocol.c **** 	TxMsg.Header.Target_Addr = options.Target_Addr;
 2039              		.loc 1 799 0
 2040 0020 9DF89030 		ldrb	r3, [sp, #144]	@ zero_extendqisi2
 2041 0024 8DF81D30 		strb	r3, [sp, #29]
 800:..\..\FreeflyAPI/QX_Protocol.c **** 	TxMsg.Header.TransReq_Addr = QX_DEV_ID_BROADCAST;
 2042              		.loc 1 800 0
 2043 0028 0023     		movs	r3, #0
 2044 002a 8DF81E30 		strb	r3, [sp, #30]
 801:..\..\FreeflyAPI/QX_Protocol.c **** 	TxMsg.Header.RespReq_Addr = options.RespReq_Addr;
 2045              		.loc 1 801 0
 2046 002e 9DF89230 		ldrb	r3, [sp, #146]	@ zero_extendqisi2
 2047 0032 8DF81F30 		strb	r3, [sp, #31]
 802:..\..\FreeflyAPI/QX_Protocol.c **** 	TxMsg.Header.Source_Addr = Cli_p->Address;
 2048              		.loc 1 802 0
 2049 0036 2378     		ldrb	r3, [r4]	@ zero_extendqisi2
 2050 0038 8DF81C30 		strb	r3, [sp, #28]
 803:..\..\FreeflyAPI/QX_Protocol.c **** 	TxMsg.Header.FF_Ext = options.FF_Ext;
 2051              		.loc 1 803 0
 2052 003c 9DF88C30 		ldrb	r3, [sp, #140]	@ zero_extendqisi2
 2053 0040 8DF81730 		strb	r3, [sp, #23]
 804:..\..\FreeflyAPI/QX_Protocol.c **** 	TxMsg.Header.AddCRC32 = options.use_CRC32;
 2054              		.loc 1 804 0
 2055 0044 9DF88D30 		ldrb	r3, [sp, #141]	@ zero_extendqisi2
 2056 0048 8DF81630 		strb	r3, [sp, #22]
 805:..\..\FreeflyAPI/QX_Protocol.c **** 	
 806:..\..\FreeflyAPI/QX_Protocol.c **** 	QX_TxMsg_Setup(&TxMsg);
 2057              		.loc 1 806 0
 2058 004c 01A8     		add	r0, sp, #4
 2059 004e FFF7FEFF 		bl	QX_TxMsg_Setup
 2060              	.LVL183:
 807:..\..\FreeflyAPI/QX_Protocol.c **** 	return QX_TxMsg_Finish(&TxMsg);	// Read Messages have no data. Finish the message right away!
 2061              		.loc 1 807 0
 2062 0052 01A8     		add	r0, sp, #4
 2063 0054 FFF7FEFF 		bl	QX_TxMsg_Finish
 2064              	.LVL184:
 808:..\..\FreeflyAPI/QX_Protocol.c **** }
 2065              		.loc 1 808 0
 2066 0058 1EB0     		add	sp, sp, #120
 2067              		.cfi_def_cfa_offset 24
 2068              		@ sp needed
 2069 005a BDE87040 		pop	{r4, r5, r6, lr}
 2070              		.cfi_restore 14
 2071              		.cfi_restore 6
ARM GAS  C:\Users\hamis\AppData\Local\Temp\ccsOK97v.s 			page 56


 2072              		.cfi_restore 5
 2073              		.cfi_restore 4
 2074              		.cfi_def_cfa_offset 8
 2075              	.LVL185:
 2076 005e 02B0     		add	sp, sp, #8
 2077              		.cfi_def_cfa_offset 0
 2078 0060 7047     		bx	lr
 2079              		.cfi_endproc
 2080              	.LFE21:
 2081              		.size	QX_SendPacket_Cli_Read, .-QX_SendPacket_Cli_Read
 2082 0062 00BF     		.section	.text.QX_SendPacket_Cli_WriteABS,"ax",%progbits
 2083              		.align	2
 2084              		.global	QX_SendPacket_Cli_WriteABS
 2085              		.thumb
 2086              		.thumb_func
 2087              		.type	QX_SendPacket_Cli_WriteABS, %function
 2088              	QX_SendPacket_Cli_WriteABS:
 2089              	.LFB22:
 809:..\..\FreeflyAPI/QX_Protocol.c **** 
 810:..\..\FreeflyAPI/QX_Protocol.c **** //----------------------------------------------------------------------------
 811:..\..\FreeflyAPI/QX_Protocol.c **** // Full Featured Send QX Packet - For use by the Application (Not in auto response to Read/Write)
 812:..\..\FreeflyAPI/QX_Protocol.c **** // This version supports all features
 813:..\..\FreeflyAPI/QX_Protocol.c **** // This function builds an appropriate message structure and calls calls QX_TxMsg().
 814:..\..\FreeflyAPI/QX_Protocol.c **** QX_Stat_e QX_SendPacket_Cli_WriteABS(QX_Client_t *Cli_p, uint32_t Attrib, QX_Comms_Port_e CommPort,
 815:..\..\FreeflyAPI/QX_Protocol.c **** {
 2090              		.loc 1 815 0
 2091              		.cfi_startproc
 2092              		@ args = 12, pretend = 8, frame = 120
 2093              		@ frame_needed = 0, uses_anonymous_args = 0
 2094              	.LVL186:
 2095 0000 82B0     		sub	sp, sp, #8
 2096              		.cfi_def_cfa_offset 8
 2097 0002 70B5     		push	{r4, r5, r6, lr}
 2098              		.cfi_def_cfa_offset 24
 2099              		.cfi_offset 4, -24
 2100              		.cfi_offset 5, -20
 2101              		.cfi_offset 6, -16
 2102              		.cfi_offset 14, -12
 2103 0004 9EB0     		sub	sp, sp, #120
 2104              		.cfi_def_cfa_offset 144
 2105 0006 0446     		mov	r4, r0
 2106 0008 0D46     		mov	r5, r1
 2107 000a 1646     		mov	r6, r2
 2108 000c 2393     		str	r3, [sp, #140]
 816:..\..\FreeflyAPI/QX_Protocol.c **** 	QX_Msg_t TxMsg;
 817:..\..\FreeflyAPI/QX_Protocol.c **** 	QX_InitMsg(&TxMsg);
 2109              		.loc 1 817 0
 2110 000e 01A8     		add	r0, sp, #4
 2111              	.LVL187:
 2112 0010 FFF7FEFF 		bl	QX_InitMsg
 2113              	.LVL188:
 818:..\..\FreeflyAPI/QX_Protocol.c **** 	
 819:..\..\FreeflyAPI/QX_Protocol.c **** 	TxMsg.CommPort = CommPort;
 2114              		.loc 1 819 0
 2115 0014 8DF80A60 		strb	r6, [sp, #10]
 820:..\..\FreeflyAPI/QX_Protocol.c **** 	TxMsg.Header.Attrib = Attrib;
 2116              		.loc 1 820 0
ARM GAS  C:\Users\hamis\AppData\Local\Temp\ccsOK97v.s 			page 57


 2117 0018 0495     		str	r5, [sp, #16]
 821:..\..\FreeflyAPI/QX_Protocol.c **** 	TxMsg.Header.Type = QX_MSG_TYPE_WRITE_ABS;
 2118              		.loc 1 821 0
 2119 001a 0225     		movs	r5, #2
 2120              	.LVL189:
 2121 001c 8DF81450 		strb	r5, [sp, #20]
 822:..\..\FreeflyAPI/QX_Protocol.c **** 	TxMsg.Header.Target_Addr = options.Target_Addr;
 2122              		.loc 1 822 0
 2123 0020 9DF89030 		ldrb	r3, [sp, #144]	@ zero_extendqisi2
 2124 0024 8DF81D30 		strb	r3, [sp, #29]
 823:..\..\FreeflyAPI/QX_Protocol.c **** 	TxMsg.Header.TransReq_Addr = options.TransReq_Addr;
 2125              		.loc 1 823 0
 2126 0028 9DF89130 		ldrb	r3, [sp, #145]	@ zero_extendqisi2
 2127 002c 8DF81E30 		strb	r3, [sp, #30]
 824:..\..\FreeflyAPI/QX_Protocol.c **** 	TxMsg.Header.RespReq_Addr = options.RespReq_Addr;
 2128              		.loc 1 824 0
 2129 0030 9DF89230 		ldrb	r3, [sp, #146]	@ zero_extendqisi2
 2130 0034 8DF81F30 		strb	r3, [sp, #31]
 825:..\..\FreeflyAPI/QX_Protocol.c **** 	TxMsg.Header.Source_Addr = Cli_p->Address;
 2131              		.loc 1 825 0
 2132 0038 2378     		ldrb	r3, [r4]	@ zero_extendqisi2
 2133 003a 8DF81C30 		strb	r3, [sp, #28]
 826:..\..\FreeflyAPI/QX_Protocol.c **** 	TxMsg.Header.FF_Ext = options.FF_Ext;
 2134              		.loc 1 826 0
 2135 003e 9DF88C30 		ldrb	r3, [sp, #140]	@ zero_extendqisi2
 2136 0042 8DF81730 		strb	r3, [sp, #23]
 827:..\..\FreeflyAPI/QX_Protocol.c **** 	TxMsg.Header.AddCRC32 = options.use_CRC32;
 2137              		.loc 1 827 0
 2138 0046 9DF88D30 		ldrb	r3, [sp, #141]	@ zero_extendqisi2
 2139 004a 8DF81630 		strb	r3, [sp, #22]
 828:..\..\FreeflyAPI/QX_Protocol.c **** 	
 829:..\..\FreeflyAPI/QX_Protocol.c **** 	QX_TxMsg_Setup(&TxMsg);
 2140              		.loc 1 829 0
 2141 004e 01A8     		add	r0, sp, #4
 2142 0050 FFF7FEFF 		bl	QX_TxMsg_Setup
 2143              	.LVL190:
 830:..\..\FreeflyAPI/QX_Protocol.c **** 	TxMsg.Parse_Type = QX_PARSE_TYPE_WRITE_ABS_SEND;
 2144              		.loc 1 830 0
 2145 0054 8DF80450 		strb	r5, [sp, #4]
 831:..\..\FreeflyAPI/QX_Protocol.c **** 	TxMsg.MsgBuf_p = Cli_p->Parser_CB(&TxMsg);
 2146              		.loc 1 831 0
 2147 0058 6368     		ldr	r3, [r4, #4]
 2148 005a 01A8     		add	r0, sp, #4
 2149 005c 9847     		blx	r3
 2150              	.LVL191:
 2151 005e 1D90     		str	r0, [sp, #116]
 832:..\..\FreeflyAPI/QX_Protocol.c **** 	return QX_TxMsg_Finish(&TxMsg);
 2152              		.loc 1 832 0
 2153 0060 01A8     		add	r0, sp, #4
 2154 0062 FFF7FEFF 		bl	QX_TxMsg_Finish
 2155              	.LVL192:
 833:..\..\FreeflyAPI/QX_Protocol.c **** }
 2156              		.loc 1 833 0
 2157 0066 1EB0     		add	sp, sp, #120
 2158              		.cfi_def_cfa_offset 24
 2159              		@ sp needed
 2160 0068 BDE87040 		pop	{r4, r5, r6, lr}
ARM GAS  C:\Users\hamis\AppData\Local\Temp\ccsOK97v.s 			page 58


 2161              		.cfi_restore 14
 2162              		.cfi_restore 6
 2163              		.cfi_restore 5
 2164              		.cfi_restore 4
 2165              		.cfi_def_cfa_offset 8
 2166              	.LVL193:
 2167 006c 02B0     		add	sp, sp, #8
 2168              		.cfi_def_cfa_offset 0
 2169 006e 7047     		bx	lr
 2170              		.cfi_endproc
 2171              	.LFE22:
 2172              		.size	QX_SendPacket_Cli_WriteABS, .-QX_SendPacket_Cli_WriteABS
 2173              		.section	.text.QX_SendPacket_Cli_WriteREL,"ax",%progbits
 2174              		.align	2
 2175              		.global	QX_SendPacket_Cli_WriteREL
 2176              		.thumb
 2177              		.thumb_func
 2178              		.type	QX_SendPacket_Cli_WriteREL, %function
 2179              	QX_SendPacket_Cli_WriteREL:
 2180              	.LFB23:
 834:..\..\FreeflyAPI/QX_Protocol.c **** 
 835:..\..\FreeflyAPI/QX_Protocol.c **** //----------------------------------------------------------------------------
 836:..\..\FreeflyAPI/QX_Protocol.c **** // Full Featured Send QX Packet - For use by the Application (Not in auto response to Read/Write)
 837:..\..\FreeflyAPI/QX_Protocol.c **** // This version supports all features
 838:..\..\FreeflyAPI/QX_Protocol.c **** // This function builds an appropriate message structure and calls calls QX_TxMsg().
 839:..\..\FreeflyAPI/QX_Protocol.c **** QX_Stat_e QX_SendPacket_Cli_WriteREL(QX_Client_t *Cli_p, uint32_t Attrib, QX_Comms_Port_e CommPort,
 840:..\..\FreeflyAPI/QX_Protocol.c **** {
 2181              		.loc 1 840 0
 2182              		.cfi_startproc
 2183              		@ args = 12, pretend = 8, frame = 120
 2184              		@ frame_needed = 0, uses_anonymous_args = 0
 2185              	.LVL194:
 2186 0000 82B0     		sub	sp, sp, #8
 2187              		.cfi_def_cfa_offset 8
 2188 0002 70B5     		push	{r4, r5, r6, lr}
 2189              		.cfi_def_cfa_offset 24
 2190              		.cfi_offset 4, -24
 2191              		.cfi_offset 5, -20
 2192              		.cfi_offset 6, -16
 2193              		.cfi_offset 14, -12
 2194 0004 9EB0     		sub	sp, sp, #120
 2195              		.cfi_def_cfa_offset 144
 2196 0006 0446     		mov	r4, r0
 2197 0008 0D46     		mov	r5, r1
 2198 000a 1646     		mov	r6, r2
 2199 000c 2393     		str	r3, [sp, #140]
 841:..\..\FreeflyAPI/QX_Protocol.c **** 	QX_Msg_t TxMsg;
 842:..\..\FreeflyAPI/QX_Protocol.c **** 	QX_InitMsg(&TxMsg);
 2200              		.loc 1 842 0
 2201 000e 01A8     		add	r0, sp, #4
 2202              	.LVL195:
 2203 0010 FFF7FEFF 		bl	QX_InitMsg
 2204              	.LVL196:
 843:..\..\FreeflyAPI/QX_Protocol.c **** 	
 844:..\..\FreeflyAPI/QX_Protocol.c **** 	TxMsg.CommPort = CommPort;
 2205              		.loc 1 844 0
 2206 0014 8DF80A60 		strb	r6, [sp, #10]
ARM GAS  C:\Users\hamis\AppData\Local\Temp\ccsOK97v.s 			page 59


 845:..\..\FreeflyAPI/QX_Protocol.c **** 	TxMsg.Header.Attrib = Attrib;
 2207              		.loc 1 845 0
 2208 0018 0495     		str	r5, [sp, #16]
 846:..\..\FreeflyAPI/QX_Protocol.c **** 	TxMsg.Header.Type = QX_MSG_TYPE_WRITE_REL;
 2209              		.loc 1 846 0
 2210 001a 0323     		movs	r3, #3
 2211 001c 8DF81430 		strb	r3, [sp, #20]
 847:..\..\FreeflyAPI/QX_Protocol.c **** 	TxMsg.Header.Target_Addr = options.Target_Addr;
 2212              		.loc 1 847 0
 2213 0020 9DF89030 		ldrb	r3, [sp, #144]	@ zero_extendqisi2
 2214 0024 8DF81D30 		strb	r3, [sp, #29]
 848:..\..\FreeflyAPI/QX_Protocol.c **** 	TxMsg.Header.TransReq_Addr = options.TransReq_Addr;
 2215              		.loc 1 848 0
 2216 0028 9DF89130 		ldrb	r3, [sp, #145]	@ zero_extendqisi2
 2217 002c 8DF81E30 		strb	r3, [sp, #30]
 849:..\..\FreeflyAPI/QX_Protocol.c **** 	TxMsg.Header.RespReq_Addr = options.RespReq_Addr;
 2218              		.loc 1 849 0
 2219 0030 9DF89230 		ldrb	r3, [sp, #146]	@ zero_extendqisi2
 2220 0034 8DF81F30 		strb	r3, [sp, #31]
 850:..\..\FreeflyAPI/QX_Protocol.c **** 	TxMsg.Header.Source_Addr = Cli_p->Address;
 2221              		.loc 1 850 0
 2222 0038 2378     		ldrb	r3, [r4]	@ zero_extendqisi2
 2223 003a 8DF81C30 		strb	r3, [sp, #28]
 851:..\..\FreeflyAPI/QX_Protocol.c **** 	TxMsg.Header.FF_Ext = options.FF_Ext;
 2224              		.loc 1 851 0
 2225 003e 9DF88C30 		ldrb	r3, [sp, #140]	@ zero_extendqisi2
 2226 0042 8DF81730 		strb	r3, [sp, #23]
 852:..\..\FreeflyAPI/QX_Protocol.c **** 	TxMsg.Header.AddCRC32 = options.use_CRC32;
 2227              		.loc 1 852 0
 2228 0046 9DF88D30 		ldrb	r3, [sp, #141]	@ zero_extendqisi2
 2229 004a 8DF81630 		strb	r3, [sp, #22]
 853:..\..\FreeflyAPI/QX_Protocol.c **** 	
 854:..\..\FreeflyAPI/QX_Protocol.c **** 	QX_TxMsg_Setup(&TxMsg);
 2230              		.loc 1 854 0
 2231 004e 01A8     		add	r0, sp, #4
 2232 0050 FFF7FEFF 		bl	QX_TxMsg_Setup
 2233              	.LVL197:
 855:..\..\FreeflyAPI/QX_Protocol.c **** 	TxMsg.Parse_Type = QX_PARSE_TYPE_WRITE_REL_SEND;
 2234              		.loc 1 855 0
 2235 0054 0423     		movs	r3, #4
 2236 0056 8DF80430 		strb	r3, [sp, #4]
 856:..\..\FreeflyAPI/QX_Protocol.c **** 	TxMsg.MsgBuf_p = Cli_p->Parser_CB(&TxMsg);
 2237              		.loc 1 856 0
 2238 005a 6368     		ldr	r3, [r4, #4]
 2239 005c 01A8     		add	r0, sp, #4
 2240 005e 9847     		blx	r3
 2241              	.LVL198:
 2242 0060 1D90     		str	r0, [sp, #116]
 857:..\..\FreeflyAPI/QX_Protocol.c **** 	return QX_TxMsg_Finish(&TxMsg);
 2243              		.loc 1 857 0
 2244 0062 01A8     		add	r0, sp, #4
 2245 0064 FFF7FEFF 		bl	QX_TxMsg_Finish
 2246              	.LVL199:
 858:..\..\FreeflyAPI/QX_Protocol.c **** }
 2247              		.loc 1 858 0
 2248 0068 1EB0     		add	sp, sp, #120
 2249              		.cfi_def_cfa_offset 24
ARM GAS  C:\Users\hamis\AppData\Local\Temp\ccsOK97v.s 			page 60


 2250              		@ sp needed
 2251 006a BDE87040 		pop	{r4, r5, r6, lr}
 2252              		.cfi_restore 14
 2253              		.cfi_restore 6
 2254              		.cfi_restore 5
 2255              		.cfi_restore 4
 2256              		.cfi_def_cfa_offset 8
 2257              	.LVL200:
 2258 006e 02B0     		add	sp, sp, #8
 2259              		.cfi_def_cfa_offset 0
 2260 0070 7047     		bx	lr
 2261              		.cfi_endproc
 2262              	.LFE23:
 2263              		.size	QX_SendPacket_Cli_WriteREL, .-QX_SendPacket_Cli_WriteREL
 2264 0072 00BF     		.section	.text.QX_SendPacket_Cli_Control,"ax",%progbits
 2265              		.align	2
 2266              		.global	QX_SendPacket_Cli_Control
 2267              		.thumb
 2268              		.thumb_func
 2269              		.type	QX_SendPacket_Cli_Control, %function
 2270              	QX_SendPacket_Cli_Control:
 2271              	.LFB24:
 859:..\..\FreeflyAPI/QX_Protocol.c **** 
 860:..\..\FreeflyAPI/QX_Protocol.c **** //----------------------------------------------------------------------------
 861:..\..\FreeflyAPI/QX_Protocol.c **** // Send QX Packet with TRID and RRID for control.
 862:..\..\FreeflyAPI/QX_Protocol.c **** // This version supports all features
 863:..\..\FreeflyAPI/QX_Protocol.c **** // This function builds an appropriate message structure and calls calls QX_TxMsg().
 864:..\..\FreeflyAPI/QX_Protocol.c **** QX_Stat_e QX_SendPacket_Cli_Control(QX_Client_t *Cli_p, uint32_t Attrib, QX_Comms_Port_e CommPort, 
 865:..\..\FreeflyAPI/QX_Protocol.c **** {	
 2272              		.loc 1 865 0
 2273              		.cfi_startproc
 2274              		@ args = 12, pretend = 8, frame = 0
 2275              		@ frame_needed = 0, uses_anonymous_args = 0
 2276              	.LVL201:
 2277 0000 82B0     		sub	sp, sp, #8
 2278              		.cfi_def_cfa_offset 8
 2279 0002 10B5     		push	{r4, lr}
 2280              		.cfi_def_cfa_offset 16
 2281              		.cfi_offset 4, -16
 2282              		.cfi_offset 14, -12
 2283 0004 82B0     		sub	sp, sp, #8
 2284              		.cfi_def_cfa_offset 24
 2285 0006 0593     		str	r3, [sp, #20]
 866:..\..\FreeflyAPI/QX_Protocol.c **** 	return QX_SendPacket_Cli_WriteABS(Cli_p, Attrib, CommPort, options);
 2286              		.loc 1 866 0
 2287 0008 069C     		ldr	r4, [sp, #24]
 2288 000a ADF80040 		strh	r4, [sp]	@ movhi
 2289 000e 240C     		lsrs	r4, r4, #16
 2290 0010 8DF80240 		strb	r4, [sp, #2]
 2291 0014 FFF7FEFF 		bl	QX_SendPacket_Cli_WriteABS
 2292              	.LVL202:
 867:..\..\FreeflyAPI/QX_Protocol.c **** }
 2293              		.loc 1 867 0
 2294 0018 02B0     		add	sp, sp, #8
 2295              		.cfi_def_cfa_offset 16
 2296              		@ sp needed
 2297 001a BDE81040 		pop	{r4, lr}
ARM GAS  C:\Users\hamis\AppData\Local\Temp\ccsOK97v.s 			page 61


 2298              		.cfi_restore 14
 2299              		.cfi_restore 4
 2300              		.cfi_def_cfa_offset 8
 2301 001e 02B0     		add	sp, sp, #8
 2302              		.cfi_def_cfa_offset 0
 2303 0020 7047     		bx	lr
 2304              		.cfi_endproc
 2305              	.LFE24:
 2306              		.size	QX_SendPacket_Cli_Control, .-QX_SendPacket_Cli_Control
 2307              		.global	QX_ParseHeader_Legacy
 2308              		.global	QX_BuildHeader_Legacy
 2309              		.comm	QX_CommsPorts,140,4
 2310              		.comm	QX_Clients,8,4
 2311              		.comm	QX_Servers,8,4
 2312 0022 00BF     		.bss
 2313              		.align	2
 2314              		.set	.LANCHOR0,. + 0
 2315              		.type	QX_BuildHeader_Legacy, %object
 2316              		.size	QX_BuildHeader_Legacy, 4
 2317              	QX_BuildHeader_Legacy:
 2318 0000 00000000 		.space	4
 2319              		.type	QX_ParseHeader_Legacy, %object
 2320              		.size	QX_ParseHeader_Legacy, 4
 2321              	QX_ParseHeader_Legacy:
 2322 0004 00000000 		.space	4
 2323              		.text
 2324              	.Letext0:
 2325              		.file 2 "d:\\program files (x86)\\psoc creator\\4.4\\psoc creator\\import\\gnu\\arm\\5.4.1\\arm-no
 2326              		.file 3 "d:\\program files (x86)\\psoc creator\\4.4\\psoc creator\\import\\gnu\\arm\\5.4.1\\arm-no
 2327              		.file 4 "..\\..\\FreeflyAPI\\QX_App_Config.h"
 2328              		.file 5 "..\\..\\FreeflyAPI\\QX_Protocol.h"
 2329              		.section	.debug_info,"",%progbits
 2330              	.Ldebug_info0:
 2331 0000 08110000 		.4byte	0x1108
 2332 0004 0400     		.2byte	0x4
 2333 0006 00000000 		.4byte	.Ldebug_abbrev0
 2334 000a 04       		.byte	0x4
 2335 000b 01       		.uleb128 0x1
 2336 000c 85030000 		.4byte	.LASF164
 2337 0010 0C       		.byte	0xc
 2338 0011 1A040000 		.4byte	.LASF165
 2339 0015 4F020000 		.4byte	.LASF166
 2340 0019 00000000 		.4byte	.Ldebug_ranges0+0
 2341 001d 00000000 		.4byte	0
 2342 0021 00000000 		.4byte	.Ldebug_line0
 2343 0025 02       		.uleb128 0x2
 2344 0026 04       		.byte	0x4
 2345 0027 07       		.byte	0x7
 2346 0028 82000000 		.4byte	.LASF0
 2347 002c 03       		.uleb128 0x3
 2348 002d 04       		.byte	0x4
 2349 002e 05       		.byte	0x5
 2350 002f 696E7400 		.ascii	"int\000"
 2351 0033 02       		.uleb128 0x2
 2352 0034 08       		.byte	0x8
 2353 0035 05       		.byte	0x5
 2354 0036 EF050000 		.4byte	.LASF1
ARM GAS  C:\Users\hamis\AppData\Local\Temp\ccsOK97v.s 			page 62


 2355 003a 02       		.uleb128 0x2
 2356 003b 08       		.byte	0x8
 2357 003c 04       		.byte	0x4
 2358 003d 14070000 		.4byte	.LASF2
 2359 0041 02       		.uleb128 0x2
 2360 0042 01       		.byte	0x1
 2361 0043 06       		.byte	0x6
 2362 0044 EE090000 		.4byte	.LASF3
 2363 0048 04       		.uleb128 0x4
 2364 0049 50080000 		.4byte	.LASF6
 2365 004d 02       		.byte	0x2
 2366 004e 1D       		.byte	0x1d
 2367 004f 53000000 		.4byte	0x53
 2368 0053 02       		.uleb128 0x2
 2369 0054 01       		.byte	0x1
 2370 0055 08       		.byte	0x8
 2371 0056 5E090000 		.4byte	.LASF4
 2372 005a 02       		.uleb128 0x2
 2373 005b 02       		.byte	0x2
 2374 005c 05       		.byte	0x5
 2375 005d 79070000 		.4byte	.LASF5
 2376 0061 04       		.uleb128 0x4
 2377 0062 D3020000 		.4byte	.LASF7
 2378 0066 02       		.byte	0x2
 2379 0067 2B       		.byte	0x2b
 2380 0068 6C000000 		.4byte	0x6c
 2381 006c 02       		.uleb128 0x2
 2382 006d 02       		.byte	0x2
 2383 006e 07       		.byte	0x7
 2384 006f FA090000 		.4byte	.LASF8
 2385 0073 02       		.uleb128 0x2
 2386 0074 04       		.byte	0x4
 2387 0075 05       		.byte	0x5
 2388 0076 89070000 		.4byte	.LASF9
 2389 007a 04       		.uleb128 0x4
 2390 007b 6C090000 		.4byte	.LASF10
 2391 007f 02       		.byte	0x2
 2392 0080 41       		.byte	0x41
 2393 0081 85000000 		.4byte	0x85
 2394 0085 02       		.uleb128 0x2
 2395 0086 04       		.byte	0x4
 2396 0087 07       		.byte	0x7
 2397 0088 94080000 		.4byte	.LASF11
 2398 008c 02       		.uleb128 0x2
 2399 008d 08       		.byte	0x8
 2400 008e 07       		.byte	0x7
 2401 008f 8E020000 		.4byte	.LASF12
 2402 0093 02       		.uleb128 0x2
 2403 0094 04       		.byte	0x4
 2404 0095 07       		.byte	0x7
 2405 0096 74080000 		.4byte	.LASF13
 2406 009a 02       		.uleb128 0x2
 2407 009b 01       		.byte	0x1
 2408 009c 08       		.byte	0x8
 2409 009d 2F050000 		.4byte	.LASF14
 2410 00a1 04       		.uleb128 0x4
 2411 00a2 A9050000 		.4byte	.LASF15
ARM GAS  C:\Users\hamis\AppData\Local\Temp\ccsOK97v.s 			page 63


 2412 00a6 03       		.byte	0x3
 2413 00a7 18       		.byte	0x18
 2414 00a8 48000000 		.4byte	0x48
 2415 00ac 04       		.uleb128 0x4
 2416 00ad 3D070000 		.4byte	.LASF16
 2417 00b1 03       		.byte	0x3
 2418 00b2 24       		.byte	0x24
 2419 00b3 61000000 		.4byte	0x61
 2420 00b7 04       		.uleb128 0x4
 2421 00b8 E8010000 		.4byte	.LASF17
 2422 00bc 03       		.byte	0x3
 2423 00bd 30       		.byte	0x30
 2424 00be 7A000000 		.4byte	0x7a
 2425 00c2 05       		.uleb128 0x5
 2426 00c3 01       		.byte	0x1
 2427 00c4 53000000 		.4byte	0x53
 2428 00c8 04       		.byte	0x4
 2429 00c9 2F       		.byte	0x2f
 2430 00ca DB000000 		.4byte	0xdb
 2431 00ce 06       		.uleb128 0x6
 2432 00cf C8080000 		.4byte	.LASF18
 2433 00d3 00       		.byte	0
 2434 00d4 06       		.uleb128 0x6
 2435 00d5 A6080000 		.4byte	.LASF19
 2436 00d9 01       		.byte	0x1
 2437 00da 00       		.byte	0
 2438 00db 04       		.uleb128 0x4
 2439 00dc DF050000 		.4byte	.LASF20
 2440 00e0 04       		.byte	0x4
 2441 00e1 32       		.byte	0x32
 2442 00e2 C2000000 		.4byte	0xc2
 2443 00e6 05       		.uleb128 0x5
 2444 00e7 01       		.byte	0x1
 2445 00e8 53000000 		.4byte	0x53
 2446 00ec 05       		.byte	0x5
 2447 00ed 2D       		.byte	0x2d
 2448 00ee 23010000 		.4byte	0x123
 2449 00f2 06       		.uleb128 0x6
 2450 00f3 A3000000 		.4byte	.LASF21
 2451 00f7 00       		.byte	0
 2452 00f8 06       		.uleb128 0x6
 2453 00f9 CB010000 		.4byte	.LASF22
 2454 00fd 01       		.byte	0x1
 2455 00fe 06       		.uleb128 0x6
 2456 00ff C2070000 		.4byte	.LASF23
 2457 0103 02       		.byte	0x2
 2458 0104 06       		.uleb128 0x6
 2459 0105 DA070000 		.4byte	.LASF24
 2460 0109 03       		.byte	0x3
 2461 010a 06       		.uleb128 0x6
 2462 010b A7040000 		.4byte	.LASF25
 2463 010f 04       		.byte	0x4
 2464 0110 06       		.uleb128 0x6
 2465 0111 BF040000 		.4byte	.LASF26
 2466 0115 05       		.byte	0x5
 2467 0116 06       		.uleb128 0x6
 2468 0117 1E0A0000 		.4byte	.LASF27
ARM GAS  C:\Users\hamis\AppData\Local\Temp\ccsOK97v.s 			page 64


 2469 011b 06       		.byte	0x6
 2470 011c 06       		.uleb128 0x6
 2471 011d 7D080000 		.4byte	.LASF28
 2472 0121 07       		.byte	0x7
 2473 0122 00       		.byte	0
 2474 0123 04       		.uleb128 0x4
 2475 0124 54030000 		.4byte	.LASF29
 2476 0128 05       		.byte	0x5
 2477 0129 36       		.byte	0x36
 2478 012a E6000000 		.4byte	0xe6
 2479 012e 05       		.uleb128 0x5
 2480 012f 01       		.byte	0x1
 2481 0130 53000000 		.4byte	0x53
 2482 0134 05       		.byte	0x5
 2483 0135 39       		.byte	0x39
 2484 0136 59010000 		.4byte	0x159
 2485 013a 06       		.uleb128 0x6
 2486 013b BA000000 		.4byte	.LASF30
 2487 013f 00       		.byte	0
 2488 0140 06       		.uleb128 0x6
 2489 0141 28090000 		.4byte	.LASF31
 2490 0145 01       		.byte	0x1
 2491 0146 06       		.uleb128 0x6
 2492 0147 DD090000 		.4byte	.LASF32
 2493 014b 02       		.byte	0x2
 2494 014c 06       		.uleb128 0x6
 2495 014d 77090000 		.4byte	.LASF33
 2496 0151 03       		.byte	0x3
 2497 0152 06       		.uleb128 0x6
 2498 0153 67050000 		.4byte	.LASF34
 2499 0157 0A       		.byte	0xa
 2500 0158 00       		.byte	0
 2501 0159 04       		.uleb128 0x4
 2502 015a 12020000 		.4byte	.LASF35
 2503 015e 05       		.byte	0x5
 2504 015f 3F       		.byte	0x3f
 2505 0160 2E010000 		.4byte	0x12e
 2506 0164 05       		.uleb128 0x5
 2507 0165 01       		.byte	0x1
 2508 0166 53000000 		.4byte	0x53
 2509 016a 05       		.byte	0x5
 2510 016b 42       		.byte	0x42
 2511 016c 89010000 		.4byte	0x189
 2512 0170 06       		.uleb128 0x6
 2513 0171 69030000 		.4byte	.LASF36
 2514 0175 00       		.byte	0
 2515 0176 06       		.uleb128 0x6
 2516 0177 1F060000 		.4byte	.LASF37
 2517 017b 01       		.byte	0x1
 2518 017c 06       		.uleb128 0x6
 2519 017d FD000000 		.4byte	.LASF38
 2520 0181 02       		.byte	0x2
 2521 0182 06       		.uleb128 0x6
 2522 0183 3F000000 		.4byte	.LASF39
 2523 0187 03       		.byte	0x3
 2524 0188 00       		.byte	0
 2525 0189 04       		.uleb128 0x4
ARM GAS  C:\Users\hamis\AppData\Local\Temp\ccsOK97v.s 			page 65


 2526 018a 26020000 		.4byte	.LASF40
 2527 018e 05       		.byte	0x5
 2528 018f 47       		.byte	0x47
 2529 0190 64010000 		.4byte	0x164
 2530 0194 05       		.uleb128 0x5
 2531 0195 01       		.byte	0x1
 2532 0196 53000000 		.4byte	0x53
 2533 019a 05       		.byte	0x5
 2534 019b 4A       		.byte	0x4a
 2535 019c C5010000 		.4byte	0x1c5
 2536 01a0 06       		.uleb128 0x6
 2537 01a1 90060000 		.4byte	.LASF41
 2538 01a5 00       		.byte	0
 2539 01a6 06       		.uleb128 0x6
 2540 01a7 B2020000 		.4byte	.LASF42
 2541 01ab 01       		.byte	0x1
 2542 01ac 06       		.uleb128 0x6
 2543 01ad 12050000 		.4byte	.LASF43
 2544 01b1 02       		.byte	0x2
 2545 01b2 06       		.uleb128 0x6
 2546 01b3 48010000 		.4byte	.LASF44
 2547 01b7 03       		.byte	0x3
 2548 01b8 06       		.uleb128 0x6
 2549 01b9 00000000 		.4byte	.LASF45
 2550 01bd 04       		.byte	0x4
 2551 01be 06       		.uleb128 0x6
 2552 01bf 01080000 		.4byte	.LASF46
 2553 01c3 05       		.byte	0x5
 2554 01c4 00       		.byte	0
 2555 01c5 04       		.uleb128 0x4
 2556 01c6 7F010000 		.4byte	.LASF47
 2557 01ca 05       		.byte	0x5
 2558 01cb 51       		.byte	0x51
 2559 01cc 94010000 		.4byte	0x194
 2560 01d0 05       		.uleb128 0x5
 2561 01d1 01       		.byte	0x1
 2562 01d2 53000000 		.4byte	0x53
 2563 01d6 05       		.byte	0x5
 2564 01d7 54       		.byte	0x54
 2565 01d8 13020000 		.4byte	0x213
 2566 01dc 06       		.uleb128 0x6
 2567 01dd 3D010000 		.4byte	.LASF48
 2568 01e1 00       		.byte	0
 2569 01e2 06       		.uleb128 0x6
 2570 01e3 A1070000 		.4byte	.LASF49
 2571 01e7 01       		.byte	0x1
 2572 01e8 06       		.uleb128 0x6
 2573 01e9 55000000 		.4byte	.LASF50
 2574 01ed 02       		.byte	0x2
 2575 01ee 06       		.uleb128 0x6
 2576 01ef 4C0A0000 		.4byte	.LASF51
 2577 01f3 03       		.byte	0x3
 2578 01f4 06       		.uleb128 0x6
 2579 01f5 1E080000 		.4byte	.LASF52
 2580 01f9 04       		.byte	0x4
 2581 01fa 06       		.uleb128 0x6
 2582 01fb E7080000 		.4byte	.LASF53
ARM GAS  C:\Users\hamis\AppData\Local\Temp\ccsOK97v.s 			page 66


 2583 01ff 05       		.byte	0x5
 2584 0200 06       		.uleb128 0x6
 2585 0201 08090000 		.4byte	.LASF54
 2586 0205 06       		.byte	0x6
 2587 0206 06       		.uleb128 0x6
 2588 0207 F5060000 		.4byte	.LASF55
 2589 020b 07       		.byte	0x7
 2590 020c 06       		.uleb128 0x6
 2591 020d 36030000 		.4byte	.LASF56
 2592 0211 08       		.byte	0x8
 2593 0212 00       		.byte	0
 2594 0213 04       		.uleb128 0x4
 2595 0214 4A040000 		.4byte	.LASF57
 2596 0218 05       		.byte	0x5
 2597 0219 5E       		.byte	0x5e
 2598 021a D0010000 		.4byte	0x1d0
 2599 021e 07       		.uleb128 0x7
 2600 021f 07       		.byte	0x7
 2601 0220 05       		.byte	0x5
 2602 0221 61       		.byte	0x61
 2603 0222 7B020000 		.4byte	0x27b
 2604 0226 08       		.uleb128 0x8
 2605 0227 46070000 		.4byte	.LASF58
 2606 022b 05       		.byte	0x5
 2607 022c 63       		.byte	0x63
 2608 022d A1000000 		.4byte	0xa1
 2609 0231 00       		.byte	0
 2610 0232 08       		.uleb128 0x8
 2611 0233 A6010000 		.4byte	.LASF59
 2612 0237 05       		.byte	0x5
 2613 0238 64       		.byte	0x64
 2614 0239 A1000000 		.4byte	0xa1
 2615 023d 01       		.byte	0x1
 2616 023e 08       		.uleb128 0x8
 2617 023f B4090000 		.4byte	.LASF60
 2618 0243 05       		.byte	0x5
 2619 0244 67       		.byte	0x67
 2620 0245 A1000000 		.4byte	0xa1
 2621 0249 02       		.byte	0x2
 2622 024a 08       		.uleb128 0x8
 2623 024b 34020000 		.4byte	.LASF61
 2624 024f 05       		.byte	0x5
 2625 0250 68       		.byte	0x68
 2626 0251 A1000000 		.4byte	0xa1
 2627 0255 03       		.byte	0x3
 2628 0256 08       		.uleb128 0x8
 2629 0257 53070000 		.4byte	.LASF62
 2630 025b 05       		.byte	0x5
 2631 025c 69       		.byte	0x69
 2632 025d 59010000 		.4byte	0x159
 2633 0261 04       		.byte	0x4
 2634 0262 08       		.uleb128 0x8
 2635 0263 BD010000 		.4byte	.LASF63
 2636 0267 05       		.byte	0x5
 2637 0268 6A       		.byte	0x6a
 2638 0269 59010000 		.4byte	0x159
 2639 026d 05       		.byte	0x5
ARM GAS  C:\Users\hamis\AppData\Local\Temp\ccsOK97v.s 			page 67


 2640 026e 08       		.uleb128 0x8
 2641 026f B0010000 		.4byte	.LASF64
 2642 0273 05       		.byte	0x5
 2643 0274 6B       		.byte	0x6b
 2644 0275 59010000 		.4byte	0x159
 2645 0279 06       		.byte	0x6
 2646 027a 00       		.byte	0
 2647 027b 04       		.uleb128 0x4
 2648 027c B6080000 		.4byte	.LASF65
 2649 0280 05       		.byte	0x5
 2650 0281 6D       		.byte	0x6d
 2651 0282 1E020000 		.4byte	0x21e
 2652 0286 07       		.uleb128 0x7
 2653 0287 14       		.byte	0x14
 2654 0288 05       		.byte	0x5
 2655 0289 71       		.byte	0x71
 2656 028a 37030000 		.4byte	0x337
 2657 028e 08       		.uleb128 0x8
 2658 028f F1010000 		.4byte	.LASF66
 2659 0293 05       		.byte	0x5
 2660 0294 73       		.byte	0x73
 2661 0295 AC000000 		.4byte	0xac
 2662 0299 00       		.byte	0
 2663 029a 08       		.uleb128 0x8
 2664 029b C5060000 		.4byte	.LASF67
 2665 029f 05       		.byte	0x5
 2666 02a0 74       		.byte	0x74
 2667 02a1 B7000000 		.4byte	0xb7
 2668 02a5 04       		.byte	0x4
 2669 02a6 08       		.uleb128 0x8
 2670 02a7 CF050000 		.4byte	.LASF68
 2671 02ab 05       		.byte	0x5
 2672 02ac 75       		.byte	0x75
 2673 02ad 89010000 		.4byte	0x189
 2674 02b1 08       		.byte	0x8
 2675 02b2 08       		.uleb128 0x8
 2676 02b3 96090000 		.4byte	.LASF69
 2677 02b7 05       		.byte	0x5
 2678 02b8 78       		.byte	0x78
 2679 02b9 A1000000 		.4byte	0xa1
 2680 02bd 09       		.byte	0x9
 2681 02be 08       		.uleb128 0x8
 2682 02bf 7C030000 		.4byte	.LASF70
 2683 02c3 05       		.byte	0x5
 2684 02c4 79       		.byte	0x79
 2685 02c5 A1000000 		.4byte	0xa1
 2686 02c9 0A       		.byte	0xa
 2687 02ca 08       		.uleb128 0x8
 2688 02cb 46070000 		.4byte	.LASF58
 2689 02cf 05       		.byte	0x5
 2690 02d0 7C       		.byte	0x7c
 2691 02d1 A1000000 		.4byte	0xa1
 2692 02d5 0B       		.byte	0xb
 2693 02d6 08       		.uleb128 0x8
 2694 02d7 8A050000 		.4byte	.LASF71
 2695 02db 05       		.byte	0x5
 2696 02dc 7D       		.byte	0x7d
ARM GAS  C:\Users\hamis\AppData\Local\Temp\ccsOK97v.s 			page 68


 2697 02dd A1000000 		.4byte	0xa1
 2698 02e1 0C       		.byte	0xc
 2699 02e2 08       		.uleb128 0x8
 2700 02e3 94050000 		.4byte	.LASF72
 2701 02e7 05       		.byte	0x5
 2702 02e8 7E       		.byte	0x7e
 2703 02e9 A1000000 		.4byte	0xa1
 2704 02ed 0D       		.byte	0xd
 2705 02ee 08       		.uleb128 0x8
 2706 02ef B4090000 		.4byte	.LASF60
 2707 02f3 05       		.byte	0x5
 2708 02f4 81       		.byte	0x81
 2709 02f5 A1000000 		.4byte	0xa1
 2710 02f9 0E       		.byte	0xe
 2711 02fa 08       		.uleb128 0x8
 2712 02fb 34020000 		.4byte	.LASF61
 2713 02ff 05       		.byte	0x5
 2714 0300 82       		.byte	0x82
 2715 0301 A1000000 		.4byte	0xa1
 2716 0305 0F       		.byte	0xf
 2717 0306 08       		.uleb128 0x8
 2718 0307 DB080000 		.4byte	.LASF73
 2719 030b 05       		.byte	0x5
 2720 030c 84       		.byte	0x84
 2721 030d 59010000 		.4byte	0x159
 2722 0311 10       		.byte	0x10
 2723 0312 08       		.uleb128 0x8
 2724 0313 53070000 		.4byte	.LASF62
 2725 0317 05       		.byte	0x5
 2726 0318 85       		.byte	0x85
 2727 0319 59010000 		.4byte	0x159
 2728 031d 11       		.byte	0x11
 2729 031e 08       		.uleb128 0x8
 2730 031f BD010000 		.4byte	.LASF63
 2731 0323 05       		.byte	0x5
 2732 0324 86       		.byte	0x86
 2733 0325 59010000 		.4byte	0x159
 2734 0329 12       		.byte	0x12
 2735 032a 08       		.uleb128 0x8
 2736 032b B0010000 		.4byte	.LASF64
 2737 032f 05       		.byte	0x5
 2738 0330 87       		.byte	0x87
 2739 0331 59010000 		.4byte	0x159
 2740 0335 13       		.byte	0x13
 2741 0336 00       		.byte	0
 2742 0337 04       		.uleb128 0x4
 2743 0338 5D040000 		.4byte	.LASF74
 2744 033c 05       		.byte	0x5
 2745 033d 89       		.byte	0x89
 2746 033e 86020000 		.4byte	0x286
 2747 0342 07       		.uleb128 0x7
 2748 0343 74       		.byte	0x74
 2749 0344 05       		.byte	0x5
 2750 0345 8E       		.byte	0x8e
 2751 0346 F3030000 		.4byte	0x3f3
 2752 034a 08       		.uleb128 0x8
 2753 034b FD050000 		.4byte	.LASF75
ARM GAS  C:\Users\hamis\AppData\Local\Temp\ccsOK97v.s 			page 69


 2754 034f 05       		.byte	0x5
 2755 0350 91       		.byte	0x91
 2756 0351 C5010000 		.4byte	0x1c5
 2757 0355 00       		.byte	0
 2758 0356 08       		.uleb128 0x8
 2759 0357 E5040000 		.4byte	.LASF76
 2760 035b 05       		.byte	0x5
 2761 035c 92       		.byte	0x92
 2762 035d A1000000 		.4byte	0xa1
 2763 0361 01       		.byte	0x1
 2764 0362 08       		.uleb128 0x8
 2765 0363 B5060000 		.4byte	.LASF77
 2766 0367 05       		.byte	0x5
 2767 0368 93       		.byte	0x93
 2768 0369 A1000000 		.4byte	0xa1
 2769 036d 02       		.byte	0x2
 2770 036e 08       		.uleb128 0x8
 2771 036f 92070000 		.4byte	.LASF78
 2772 0373 05       		.byte	0x5
 2773 0374 94       		.byte	0x94
 2774 0375 A1000000 		.4byte	0xa1
 2775 0379 03       		.byte	0x3
 2776 037a 08       		.uleb128 0x8
 2777 037b D7040000 		.4byte	.LASF79
 2778 037f 05       		.byte	0x5
 2779 0380 95       		.byte	0x95
 2780 0381 A1000000 		.4byte	0xa1
 2781 0385 04       		.byte	0x4
 2782 0386 08       		.uleb128 0x8
 2783 0387 2F070000 		.4byte	.LASF80
 2784 038b 05       		.byte	0x5
 2785 038c 96       		.byte	0x96
 2786 038d A1000000 		.4byte	0xa1
 2787 0391 05       		.byte	0x5
 2788 0392 08       		.uleb128 0x8
 2789 0393 5E050000 		.4byte	.LASF81
 2790 0397 05       		.byte	0x5
 2791 0398 97       		.byte	0x97
 2792 0399 DB000000 		.4byte	0xdb
 2793 039d 06       		.byte	0x6
 2794 039e 08       		.uleb128 0x8
 2795 039f FB010000 		.4byte	.LASF82
 2796 03a3 05       		.byte	0x5
 2797 03a4 9A       		.byte	0x9a
 2798 03a5 37030000 		.4byte	0x337
 2799 03a9 08       		.byte	0x8
 2800 03aa 08       		.uleb128 0x8
 2801 03ab 57050000 		.4byte	.LASF83
 2802 03af 05       		.byte	0x5
 2803 03b0 9D       		.byte	0x9d
 2804 03b1 F3030000 		.4byte	0x3f3
 2805 03b5 1C       		.byte	0x1c
 2806 03b6 08       		.uleb128 0x8
 2807 03b7 13010000 		.4byte	.LASF84
 2808 03bb 05       		.byte	0x5
 2809 03bc 9E       		.byte	0x9e
 2810 03bd AC000000 		.4byte	0xac
ARM GAS  C:\Users\hamis\AppData\Local\Temp\ccsOK97v.s 			page 70


 2811 03c1 62       		.byte	0x62
 2812 03c2 08       		.uleb128 0x8
 2813 03c3 8F000000 		.4byte	.LASF85
 2814 03c7 05       		.byte	0x5
 2815 03c8 A1       		.byte	0xa1
 2816 03c9 03040000 		.4byte	0x403
 2817 03cd 64       		.byte	0x64
 2818 03ce 08       		.uleb128 0x8
 2819 03cf 68080000 		.4byte	.LASF86
 2820 03d3 05       		.byte	0x5
 2821 03d4 A2       		.byte	0xa2
 2822 03d5 03040000 		.4byte	0x403
 2823 03d9 68       		.byte	0x68
 2824 03da 08       		.uleb128 0x8
 2825 03db 67070000 		.4byte	.LASF87
 2826 03df 05       		.byte	0x5
 2827 03e0 A3       		.byte	0xa3
 2828 03e1 03040000 		.4byte	0x403
 2829 03e5 6C       		.byte	0x6c
 2830 03e6 08       		.uleb128 0x8
 2831 03e7 46020000 		.4byte	.LASF88
 2832 03eb 05       		.byte	0x5
 2833 03ec A4       		.byte	0xa4
 2834 03ed 03040000 		.4byte	0x403
 2835 03f1 70       		.byte	0x70
 2836 03f2 00       		.byte	0
 2837 03f3 09       		.uleb128 0x9
 2838 03f4 A1000000 		.4byte	0xa1
 2839 03f8 03040000 		.4byte	0x403
 2840 03fc 0A       		.uleb128 0xa
 2841 03fd 93000000 		.4byte	0x93
 2842 0401 44       		.byte	0x44
 2843 0402 00       		.byte	0
 2844 0403 0B       		.uleb128 0xb
 2845 0404 04       		.byte	0x4
 2846 0405 A1000000 		.4byte	0xa1
 2847 0409 04       		.uleb128 0x4
 2848 040a C7090000 		.4byte	.LASF89
 2849 040e 05       		.byte	0x5
 2850 040f A6       		.byte	0xa6
 2851 0410 42030000 		.4byte	0x342
 2852 0414 07       		.uleb128 0x7
 2853 0415 8C       		.byte	0x8c
 2854 0416 05       		.byte	0x5
 2855 0417 A9       		.byte	0xa9
 2856 0418 7D040000 		.4byte	0x47d
 2857 041c 08       		.uleb128 0x8
 2858 041d 1D000000 		.4byte	.LASF90
 2859 0421 05       		.byte	0x5
 2860 0422 AA       		.byte	0xaa
 2861 0423 23010000 		.4byte	0x123
 2862 0427 00       		.byte	0
 2863 0428 08       		.uleb128 0x8
 2864 0429 62030000 		.4byte	.LASF91
 2865 042d 05       		.byte	0x5
 2866 042e AB       		.byte	0xab
 2867 042f AC000000 		.4byte	0xac
ARM GAS  C:\Users\hamis\AppData\Local\Temp\ccsOK97v.s 			page 71


 2868 0433 02       		.byte	0x2
 2869 0434 08       		.uleb128 0x8
 2870 0435 90090000 		.4byte	.LASF92
 2871 0439 05       		.byte	0x5
 2872 043a AC       		.byte	0xac
 2873 043b 09040000 		.4byte	0x409
 2874 043f 04       		.byte	0x4
 2875 0440 08       		.uleb128 0x8
 2876 0441 8D0A0000 		.4byte	.LASF93
 2877 0445 05       		.byte	0x5
 2878 0446 AD       		.byte	0xad
 2879 0447 B7000000 		.4byte	0xb7
 2880 044b 78       		.byte	0x78
 2881 044c 08       		.uleb128 0x8
 2882 044d 8F010000 		.4byte	.LASF94
 2883 0451 05       		.byte	0x5
 2884 0452 AE       		.byte	0xae
 2885 0453 A1000000 		.4byte	0xa1
 2886 0457 7C       		.byte	0x7c
 2887 0458 08       		.uleb128 0x8
 2888 0459 C0050000 		.4byte	.LASF95
 2889 045d 05       		.byte	0x5
 2890 045e AF       		.byte	0xaf
 2891 045f B7000000 		.4byte	0xb7
 2892 0463 80       		.byte	0x80
 2893 0464 08       		.uleb128 0x8
 2894 0465 6B0A0000 		.4byte	.LASF96
 2895 0469 05       		.byte	0x5
 2896 046a B0       		.byte	0xb0
 2897 046b B7000000 		.4byte	0xb7
 2898 046f 84       		.byte	0x84
 2899 0470 08       		.uleb128 0x8
 2900 0471 96040000 		.4byte	.LASF97
 2901 0475 05       		.byte	0x5
 2902 0476 B1       		.byte	0xb1
 2903 0477 B7000000 		.4byte	0xb7
 2904 047b 88       		.byte	0x88
 2905 047c 00       		.byte	0
 2906 047d 04       		.uleb128 0x4
 2907 047e 0B030000 		.4byte	.LASF98
 2908 0482 05       		.byte	0x5
 2909 0483 B2       		.byte	0xb2
 2910 0484 14040000 		.4byte	0x414
 2911 0488 07       		.uleb128 0x7
 2912 0489 08       		.byte	0x8
 2913 048a 05       		.byte	0x5
 2914 048b B5       		.byte	0xb5
 2915 048c A9040000 		.4byte	0x4a9
 2916 0490 08       		.uleb128 0x8
 2917 0491 390A0000 		.4byte	.LASF99
 2918 0495 05       		.byte	0x5
 2919 0496 B6       		.byte	0xb6
 2920 0497 59010000 		.4byte	0x159
 2921 049b 00       		.byte	0
 2922 049c 08       		.uleb128 0x8
 2923 049d 65010000 		.4byte	.LASF100
 2924 04a1 05       		.byte	0x5
ARM GAS  C:\Users\hamis\AppData\Local\Temp\ccsOK97v.s 			page 72


 2925 04a2 B7       		.byte	0xb7
 2926 04a3 BE040000 		.4byte	0x4be
 2927 04a7 04       		.byte	0x4
 2928 04a8 00       		.byte	0
 2929 04a9 0C       		.uleb128 0xc
 2930 04aa 03040000 		.4byte	0x403
 2931 04ae B8040000 		.4byte	0x4b8
 2932 04b2 0D       		.uleb128 0xd
 2933 04b3 B8040000 		.4byte	0x4b8
 2934 04b7 00       		.byte	0
 2935 04b8 0B       		.uleb128 0xb
 2936 04b9 04       		.byte	0x4
 2937 04ba 09040000 		.4byte	0x409
 2938 04be 0B       		.uleb128 0xb
 2939 04bf 04       		.byte	0x4
 2940 04c0 A9040000 		.4byte	0x4a9
 2941 04c4 04       		.uleb128 0x4
 2942 04c5 F1000000 		.4byte	.LASF101
 2943 04c9 05       		.byte	0x5
 2944 04ca B8       		.byte	0xb8
 2945 04cb 88040000 		.4byte	0x488
 2946 04cf 07       		.uleb128 0x7
 2947 04d0 08       		.byte	0x8
 2948 04d1 05       		.byte	0x5
 2949 04d2 BB       		.byte	0xbb
 2950 04d3 F0040000 		.4byte	0x4f0
 2951 04d7 08       		.uleb128 0x8
 2952 04d8 390A0000 		.4byte	.LASF99
 2953 04dc 05       		.byte	0x5
 2954 04dd BC       		.byte	0xbc
 2955 04de 59010000 		.4byte	0x159
 2956 04e2 00       		.byte	0
 2957 04e3 08       		.uleb128 0x8
 2958 04e4 65010000 		.4byte	.LASF100
 2959 04e8 05       		.byte	0x5
 2960 04e9 BD       		.byte	0xbd
 2961 04ea BE040000 		.4byte	0x4be
 2962 04ee 04       		.byte	0x4
 2963 04ef 00       		.byte	0
 2964 04f0 04       		.uleb128 0x4
 2965 04f1 44080000 		.4byte	.LASF102
 2966 04f5 05       		.byte	0x5
 2967 04f6 BE       		.byte	0xbe
 2968 04f7 CF040000 		.4byte	0x4cf
 2969 04fb 02       		.uleb128 0x2
 2970 04fc 04       		.byte	0x4
 2971 04fd 04       		.byte	0x4
 2972 04fe 0C020000 		.4byte	.LASF103
 2973 0502 0E       		.uleb128 0xe
 2974 0503 B50A0000 		.4byte	.LASF106
 2975 0507 01       		.byte	0x1
 2976 0508 82       		.byte	0x82
 2977 0509 13020000 		.4byte	0x213
 2978 050d 00000000 		.4byte	.LFB0
 2979 0511 0E000000 		.4byte	.LFE0-.LFB0
 2980 0515 01       		.uleb128 0x1
 2981 0516 9C       		.byte	0x9c
ARM GAS  C:\Users\hamis\AppData\Local\Temp\ccsOK97v.s 			page 73


 2982 0517 47050000 		.4byte	0x547
 2983 051b 0F       		.uleb128 0xf
 2984 051c 4D070000 		.4byte	.LASF104
 2985 0520 01       		.byte	0x1
 2986 0521 82       		.byte	0x82
 2987 0522 B8040000 		.4byte	0x4b8
 2988 0526 00000000 		.4byte	.LLST0
 2989 052a 10       		.uleb128 0x10
 2990 052b 0A000000 		.4byte	.LVL1
 2991 052f E0100000 		.4byte	0x10e0
 2992 0533 11       		.uleb128 0x11
 2993 0534 01       		.uleb128 0x1
 2994 0535 50       		.byte	0x50
 2995 0536 03       		.uleb128 0x3
 2996 0537 F3       		.byte	0xf3
 2997 0538 01       		.uleb128 0x1
 2998 0539 50       		.byte	0x50
 2999 053a 11       		.uleb128 0x11
 3000 053b 01       		.uleb128 0x1
 3001 053c 51       		.byte	0x51
 3002 053d 01       		.uleb128 0x1
 3003 053e 30       		.byte	0x30
 3004 053f 11       		.uleb128 0x11
 3005 0540 01       		.uleb128 0x1
 3006 0541 52       		.byte	0x52
 3007 0542 02       		.uleb128 0x2
 3008 0543 08       		.byte	0x8
 3009 0544 74       		.byte	0x74
 3010 0545 00       		.byte	0
 3011 0546 00       		.byte	0
 3012 0547 12       		.uleb128 0x12
 3013 0548 0D0A0000 		.4byte	.LASF111
 3014 054c 01       		.byte	0x1
 3015 054d 0C01     		.2byte	0x10c
 3016 054f 00000000 		.4byte	.LFB4
 3017 0553 24000000 		.4byte	.LFE4-.LFB4
 3018 0557 01       		.uleb128 0x1
 3019 0558 9C       		.byte	0x9c
 3020 0559 94050000 		.4byte	0x594
 3021 055d 13       		.uleb128 0x13
 3022 055e 58060000 		.4byte	.LASF105
 3023 0562 01       		.byte	0x1
 3024 0563 0C01     		.2byte	0x10c
 3025 0565 B8040000 		.4byte	0x4b8
 3026 0569 21000000 		.4byte	.LLST1
 3027 056d 14       		.uleb128 0x14
 3028 056e 08000000 		.4byte	.LBB2
 3029 0572 16000000 		.4byte	.LBE2-.LBB2
 3030 0576 15       		.uleb128 0x15
 3031 0577 3E080000 		.4byte	.LASF109
 3032 057b 01       		.byte	0x1
 3033 057c 1201     		.2byte	0x112
 3034 057e 2C000000 		.4byte	0x2c
 3035 0582 4D000000 		.4byte	.LLST2
 3036 0586 16       		.uleb128 0x16
 3037 0587 18000000 		.4byte	.LVL5
 3038 058b 11       		.uleb128 0x11
ARM GAS  C:\Users\hamis\AppData\Local\Temp\ccsOK97v.s 			page 74


 3039 058c 01       		.uleb128 0x1
 3040 058d 50       		.byte	0x50
 3041 058e 02       		.uleb128 0x2
 3042 058f 75       		.byte	0x75
 3043 0590 00       		.sleb128 0
 3044 0591 00       		.byte	0
 3045 0592 00       		.byte	0
 3046 0593 00       		.byte	0
 3047 0594 17       		.uleb128 0x17
 3048 0595 DE020000 		.4byte	.LASF107
 3049 0599 01       		.byte	0x1
 3050 059a E601     		.2byte	0x1e6
 3051 059c A1000000 		.4byte	0xa1
 3052 05a0 00000000 		.4byte	.LFB9
 3053 05a4 1C000000 		.4byte	.LFE9-.LFB9
 3054 05a8 01       		.uleb128 0x1
 3055 05a9 9C       		.byte	0x9c
 3056 05aa EB050000 		.4byte	0x5eb
 3057 05ae 13       		.uleb128 0x13
 3058 05af EB000000 		.4byte	.LASF108
 3059 05b3 01       		.byte	0x1
 3060 05b4 E601     		.2byte	0x1e6
 3061 05b6 03040000 		.4byte	0x403
 3062 05ba 6C000000 		.4byte	.LLST3
 3063 05be 18       		.uleb128 0x18
 3064 05bf 6C656E00 		.ascii	"len\000"
 3065 05c3 01       		.byte	0x1
 3066 05c4 E601     		.2byte	0x1e6
 3067 05c6 B7000000 		.4byte	0xb7
 3068 05ca 01       		.uleb128 0x1
 3069 05cb 51       		.byte	0x51
 3070 05cc 19       		.uleb128 0x19
 3071 05cd 6A00     		.ascii	"j\000"
 3072 05cf 01       		.byte	0x1
 3073 05d0 E801     		.2byte	0x1e8
 3074 05d2 2C000000 		.4byte	0x2c
 3075 05d6 97000000 		.4byte	.LLST4
 3076 05da 15       		.uleb128 0x15
 3077 05db 1D020000 		.4byte	.LASF110
 3078 05df 01       		.byte	0x1
 3079 05e0 E901     		.2byte	0x1e9
 3080 05e2 A1000000 		.4byte	0xa1
 3081 05e6 B6000000 		.4byte	.LLST5
 3082 05ea 00       		.byte	0
 3083 05eb 12       		.uleb128 0x12
 3084 05ec 34050000 		.4byte	.LASF112
 3085 05f0 01       		.byte	0x1
 3086 05f1 F301     		.2byte	0x1f3
 3087 05f3 00000000 		.4byte	.LFB10
 3088 05f7 46000000 		.4byte	.LFE10-.LFB10
 3089 05fb 01       		.uleb128 0x1
 3090 05fc 9C       		.byte	0x9c
 3091 05fd 54060000 		.4byte	0x654
 3092 0601 18       		.uleb128 0x18
 3093 0602 7000     		.ascii	"p\000"
 3094 0604 01       		.byte	0x1
 3095 0605 F301     		.2byte	0x1f3
ARM GAS  C:\Users\hamis\AppData\Local\Temp\ccsOK97v.s 			page 75


 3096 0607 54060000 		.4byte	0x654
 3097 060b 01       		.uleb128 0x1
 3098 060c 50       		.byte	0x50
 3099 060d 18       		.uleb128 0x18
 3100 060e 56616C00 		.ascii	"Val\000"
 3101 0612 01       		.byte	0x1
 3102 0613 F301     		.2byte	0x1f3
 3103 0615 B7000000 		.4byte	0xb7
 3104 0619 01       		.uleb128 0x1
 3105 061a 51       		.byte	0x51
 3106 061b 19       		.uleb128 0x19
 3107 061c 6E00     		.ascii	"n\000"
 3108 061e 01       		.byte	0x1
 3109 061f F501     		.2byte	0x1f5
 3110 0621 2C000000 		.4byte	0x2c
 3111 0625 E0000000 		.4byte	.LLST6
 3112 0629 14       		.uleb128 0x14
 3113 062a 06000000 		.4byte	.LBB3
 3114 062e 38000000 		.4byte	.LBE3-.LBB3
 3115 0632 15       		.uleb128 0x15
 3116 0633 67060000 		.4byte	.LASF113
 3117 0637 01       		.byte	0x1
 3118 0638 F701     		.2byte	0x1f7
 3119 063a A1000000 		.4byte	0xa1
 3120 063e 2F010000 		.4byte	.LLST7
 3121 0642 15       		.uleb128 0x15
 3122 0643 D4050000 		.4byte	.LASF114
 3123 0647 01       		.byte	0x1
 3124 0648 F801     		.2byte	0x1f8
 3125 064a A1000000 		.4byte	0xa1
 3126 064e 71010000 		.4byte	.LLST8
 3127 0652 00       		.byte	0
 3128 0653 00       		.byte	0
 3129 0654 0B       		.uleb128 0xb
 3130 0655 04       		.byte	0x4
 3131 0656 03040000 		.4byte	0x403
 3132 065a 12       		.uleb128 0x12
 3133 065b 03050000 		.4byte	.LASF115
 3134 065f 01       		.byte	0x1
 3135 0660 8201     		.2byte	0x182
 3136 0662 00000000 		.4byte	.LFB7
 3137 0666 F0000000 		.4byte	.LFE7-.LFB7
 3138 066a 01       		.uleb128 0x1
 3139 066b 9C       		.byte	0x9c
 3140 066c F0060000 		.4byte	0x6f0
 3141 0670 13       		.uleb128 0x13
 3142 0671 4D070000 		.4byte	.LASF104
 3143 0675 01       		.byte	0x1
 3144 0676 8201     		.2byte	0x182
 3145 0678 B8040000 		.4byte	0x4b8
 3146 067c B1010000 		.4byte	.LLST9
 3147 0680 1A       		.uleb128 0x1a
 3148 0681 F8040000 		.4byte	.LASF116
 3149 0685 01       		.byte	0x1
 3150 0686 9201     		.2byte	0x192
 3151 0688 F0060000 		.4byte	0x6f0
 3152 068c 02       		.uleb128 0x2
ARM GAS  C:\Users\hamis\AppData\Local\Temp\ccsOK97v.s 			page 76


 3153 068d 91       		.byte	0x91
 3154 068e 6F       		.sleb128 -17
 3155 068f 1B       		.uleb128 0x1b
 3156 0690 16000000 		.4byte	.LVL33
 3157 0694 EB050000 		.4byte	0x5eb
 3158 0698 A3060000 		.4byte	0x6a3
 3159 069c 11       		.uleb128 0x11
 3160 069d 01       		.uleb128 0x1
 3161 069e 50       		.byte	0x50
 3162 069f 02       		.uleb128 0x2
 3163 06a0 75       		.byte	0x75
 3164 06a1 00       		.sleb128 0
 3165 06a2 00       		.byte	0
 3166 06a3 1B       		.uleb128 0x1b
 3167 06a4 BC000000 		.4byte	.LVL34
 3168 06a8 EB050000 		.4byte	0x5eb
 3169 06ac B7060000 		.4byte	0x6b7
 3170 06b0 11       		.uleb128 0x11
 3171 06b1 01       		.uleb128 0x1
 3172 06b2 50       		.byte	0x50
 3173 06b3 02       		.uleb128 0x2
 3174 06b4 75       		.byte	0x75
 3175 06b5 00       		.sleb128 0
 3176 06b6 00       		.byte	0
 3177 06b7 1B       		.uleb128 0x1b
 3178 06b8 C4000000 		.4byte	.LVL35
 3179 06bc EB050000 		.4byte	0x5eb
 3180 06c0 CB060000 		.4byte	0x6cb
 3181 06c4 11       		.uleb128 0x11
 3182 06c5 01       		.uleb128 0x1
 3183 06c6 50       		.byte	0x50
 3184 06c7 02       		.uleb128 0x2
 3185 06c8 75       		.byte	0x75
 3186 06c9 00       		.sleb128 0
 3187 06ca 00       		.byte	0
 3188 06cb 1B       		.uleb128 0x1b
 3189 06cc D8000000 		.4byte	.LVL36
 3190 06d0 EB050000 		.4byte	0x5eb
 3191 06d4 DF060000 		.4byte	0x6df
 3192 06d8 11       		.uleb128 0x11
 3193 06d9 01       		.uleb128 0x1
 3194 06da 50       		.byte	0x50
 3195 06db 02       		.uleb128 0x2
 3196 06dc 75       		.byte	0x75
 3197 06dd 00       		.sleb128 0
 3198 06de 00       		.byte	0
 3199 06df 10       		.uleb128 0x10
 3200 06e0 E0000000 		.4byte	.LVL37
 3201 06e4 EB050000 		.4byte	0x5eb
 3202 06e8 11       		.uleb128 0x11
 3203 06e9 01       		.uleb128 0x1
 3204 06ea 50       		.byte	0x50
 3205 06eb 02       		.uleb128 0x2
 3206 06ec 75       		.byte	0x75
 3207 06ed 00       		.sleb128 0
 3208 06ee 00       		.byte	0
 3209 06ef 00       		.byte	0
ARM GAS  C:\Users\hamis\AppData\Local\Temp\ccsOK97v.s 			page 77


 3210 06f0 1C       		.uleb128 0x1c
 3211 06f1 A1000000 		.4byte	0xa1
 3212 06f5 17       		.uleb128 0x17
 3213 06f6 77060000 		.4byte	.LASF117
 3214 06fa 01       		.byte	0x1
 3215 06fb 1A01     		.2byte	0x11a
 3216 06fd 13020000 		.4byte	0x213
 3217 0701 00000000 		.4byte	.LFB5
 3218 0705 2C000000 		.4byte	.LFE5-.LFB5
 3219 0709 01       		.uleb128 0x1
 3220 070a 9C       		.byte	0x9c
 3221 070b 3A070000 		.4byte	0x73a
 3222 070f 13       		.uleb128 0x13
 3223 0710 5F070000 		.4byte	.LASF118
 3224 0714 01       		.byte	0x1
 3225 0715 1A01     		.2byte	0x11a
 3226 0717 B8040000 		.4byte	0x4b8
 3227 071b CF010000 		.4byte	.LLST10
 3228 071f 1D       		.uleb128 0x1d
 3229 0720 16000000 		.4byte	.LVL39
 3230 0724 30070000 		.4byte	0x730
 3231 0728 11       		.uleb128 0x11
 3232 0729 01       		.uleb128 0x1
 3233 072a 50       		.byte	0x50
 3234 072b 03       		.uleb128 0x3
 3235 072c F3       		.byte	0xf3
 3236 072d 01       		.uleb128 0x1
 3237 072e 50       		.byte	0x50
 3238 072f 00       		.byte	0
 3239 0730 1E       		.uleb128 0x1e
 3240 0731 1E000000 		.4byte	.LVL41
 3241 0735 5A060000 		.4byte	0x65a
 3242 0739 00       		.byte	0
 3243 073a 17       		.uleb128 0x17
 3244 073b E0060000 		.4byte	.LASF119
 3245 073f 01       		.byte	0x1
 3246 0740 0602     		.2byte	0x206
 3247 0742 B7000000 		.4byte	0xb7
 3248 0746 00000000 		.4byte	.LFB11
 3249 074a 36000000 		.4byte	.LFE11-.LFB11
 3250 074e 01       		.uleb128 0x1
 3251 074f 9C       		.byte	0x9c
 3252 0750 81070000 		.4byte	0x781
 3253 0754 1F       		.uleb128 0x1f
 3254 0755 7000     		.ascii	"p\000"
 3255 0757 01       		.byte	0x1
 3256 0758 0602     		.2byte	0x206
 3257 075a 54060000 		.4byte	0x654
 3258 075e 22020000 		.4byte	.LLST11
 3259 0762 19       		.uleb128 0x19
 3260 0763 56616C00 		.ascii	"Val\000"
 3261 0767 01       		.byte	0x1
 3262 0768 0802     		.2byte	0x208
 3263 076a B7000000 		.4byte	0xb7
 3264 076e 4E020000 		.4byte	.LLST12
 3265 0772 19       		.uleb128 0x19
 3266 0773 6E00     		.ascii	"n\000"
ARM GAS  C:\Users\hamis\AppData\Local\Temp\ccsOK97v.s 			page 78


 3267 0775 01       		.byte	0x1
 3268 0776 0902     		.2byte	0x209
 3269 0778 2C000000 		.4byte	0x2c
 3270 077c 6D020000 		.4byte	.LLST13
 3271 0780 00       		.byte	0
 3272 0781 12       		.uleb128 0x12
 3273 0782 B1050000 		.4byte	.LASF120
 3274 0786 01       		.byte	0x1
 3275 0787 B901     		.2byte	0x1b9
 3276 0789 00000000 		.4byte	.LFB8
 3277 078d 9C000000 		.4byte	.LFE8-.LFB8
 3278 0791 01       		.uleb128 0x1
 3279 0792 9C       		.byte	0x9c
 3280 0793 23080000 		.4byte	0x823
 3281 0797 13       		.uleb128 0x13
 3282 0798 4D070000 		.4byte	.LASF104
 3283 079c 01       		.byte	0x1
 3284 079d B901     		.2byte	0x1b9
 3285 079f B8040000 		.4byte	0x4b8
 3286 07a3 8C020000 		.4byte	.LLST14
 3287 07a7 1A       		.uleb128 0x1a
 3288 07a8 F8040000 		.4byte	.LASF116
 3289 07ac 01       		.byte	0x1
 3290 07ad BB01     		.2byte	0x1bb
 3291 07af F0060000 		.4byte	0x6f0
 3292 07b3 02       		.uleb128 0x2
 3293 07b4 91       		.byte	0x91
 3294 07b5 6F       		.sleb128 -17
 3295 07b6 20       		.uleb128 0x20
 3296 07b7 CC020000 		.4byte	.LASF167
 3297 07bb 01       		.byte	0x1
 3298 07bc BC01     		.2byte	0x1bc
 3299 07be 23080000 		.4byte	0x823
 3300 07c2 1B       		.uleb128 0x1b
 3301 07c3 14000000 		.4byte	.LVL54
 3302 07c7 3A070000 		.4byte	0x73a
 3303 07cb D6070000 		.4byte	0x7d6
 3304 07cf 11       		.uleb128 0x11
 3305 07d0 01       		.uleb128 0x1
 3306 07d1 50       		.byte	0x50
 3307 07d2 02       		.uleb128 0x2
 3308 07d3 75       		.byte	0x75
 3309 07d4 00       		.sleb128 0
 3310 07d5 00       		.byte	0
 3311 07d6 1B       		.uleb128 0x1b
 3312 07d7 70000000 		.4byte	.LVL55
 3313 07db 3A070000 		.4byte	0x73a
 3314 07df EA070000 		.4byte	0x7ea
 3315 07e3 11       		.uleb128 0x11
 3316 07e4 01       		.uleb128 0x1
 3317 07e5 50       		.byte	0x50
 3318 07e6 02       		.uleb128 0x2
 3319 07e7 75       		.byte	0x75
 3320 07e8 00       		.sleb128 0
 3321 07e9 00       		.byte	0
 3322 07ea 1B       		.uleb128 0x1b
 3323 07eb 78000000 		.4byte	.LVL56
ARM GAS  C:\Users\hamis\AppData\Local\Temp\ccsOK97v.s 			page 79


 3324 07ef 3A070000 		.4byte	0x73a
 3325 07f3 FE070000 		.4byte	0x7fe
 3326 07f7 11       		.uleb128 0x11
 3327 07f8 01       		.uleb128 0x1
 3328 07f9 50       		.byte	0x50
 3329 07fa 02       		.uleb128 0x2
 3330 07fb 75       		.byte	0x75
 3331 07fc 00       		.sleb128 0
 3332 07fd 00       		.byte	0
 3333 07fe 1B       		.uleb128 0x1b
 3334 07ff 84000000 		.4byte	.LVL57
 3335 0803 3A070000 		.4byte	0x73a
 3336 0807 12080000 		.4byte	0x812
 3337 080b 11       		.uleb128 0x11
 3338 080c 01       		.uleb128 0x1
 3339 080d 50       		.byte	0x50
 3340 080e 02       		.uleb128 0x2
 3341 080f 75       		.byte	0x75
 3342 0810 00       		.sleb128 0
 3343 0811 00       		.byte	0
 3344 0812 10       		.uleb128 0x10
 3345 0813 8C000000 		.4byte	.LVL58
 3346 0817 3A070000 		.4byte	0x73a
 3347 081b 11       		.uleb128 0x11
 3348 081c 01       		.uleb128 0x1
 3349 081d 50       		.byte	0x50
 3350 081e 02       		.uleb128 0x2
 3351 081f 75       		.byte	0x75
 3352 0820 00       		.sleb128 0
 3353 0821 00       		.byte	0
 3354 0822 00       		.byte	0
 3355 0823 1C       		.uleb128 0x1c
 3356 0824 B7000000 		.4byte	0xb7
 3357 0828 12       		.uleb128 0x12
 3358 0829 1A030000 		.4byte	.LASF121
 3359 082d 01       		.byte	0x1
 3360 082e 1902     		.2byte	0x219
 3361 0830 00000000 		.4byte	.LFB12
 3362 0834 06000000 		.4byte	.LFE12-.LFB12
 3363 0838 01       		.uleb128 0x1
 3364 0839 9C       		.byte	0x9c
 3365 083a 4D080000 		.4byte	0x84d
 3366 083e 21       		.uleb128 0x21
 3367 083f 4D070000 		.4byte	.LASF104
 3368 0843 01       		.byte	0x1
 3369 0844 1902     		.2byte	0x219
 3370 0846 B8040000 		.4byte	0x4b8
 3371 084a 01       		.uleb128 0x1
 3372 084b 50       		.byte	0x50
 3373 084c 00       		.byte	0
 3374 084d 17       		.uleb128 0x17
 3375 084e 39040000 		.4byte	.LASF122
 3376 0852 01       		.byte	0x1
 3377 0853 2102     		.2byte	0x221
 3378 0855 B7000000 		.4byte	0xb7
 3379 0859 00000000 		.4byte	.LFB13
 3380 085d 24000000 		.4byte	.LFE13-.LFB13
ARM GAS  C:\Users\hamis\AppData\Local\Temp\ccsOK97v.s 			page 80


 3381 0861 01       		.uleb128 0x1
 3382 0862 9C       		.byte	0x9c
 3383 0863 94080000 		.4byte	0x894
 3384 0867 13       		.uleb128 0x13
 3385 0868 85050000 		.4byte	.LASF123
 3386 086c 01       		.byte	0x1
 3387 086d 2102     		.2byte	0x221
 3388 086f A1000000 		.4byte	0xa1
 3389 0873 AA020000 		.4byte	.LLST15
 3390 0877 19       		.uleb128 0x19
 3391 0878 6900     		.ascii	"i\000"
 3392 087a 01       		.byte	0x1
 3393 087b 2302     		.2byte	0x223
 3394 087d A1000000 		.4byte	0xa1
 3395 0881 CB020000 		.4byte	.LLST16
 3396 0885 22       		.uleb128 0x22
 3397 0886 63726300 		.ascii	"crc\000"
 3398 088a 01       		.byte	0x1
 3399 088b 2402     		.2byte	0x224
 3400 088d B7000000 		.4byte	0xb7
 3401 0891 01       		.uleb128 0x1
 3402 0892 50       		.byte	0x50
 3403 0893 00       		.byte	0
 3404 0894 17       		.uleb128 0x17
 3405 0895 CC060000 		.4byte	.LASF124
 3406 0899 01       		.byte	0x1
 3407 089a 3502     		.2byte	0x235
 3408 089c B7000000 		.4byte	0xb7
 3409 08a0 00000000 		.4byte	.LFB14
 3410 08a4 24000000 		.4byte	.LFE14-.LFB14
 3411 08a8 01       		.uleb128 0x1
 3412 08a9 9C       		.byte	0x9c
 3413 08aa 06090000 		.4byte	0x906
 3414 08ae 13       		.uleb128 0x13
 3415 08af 7A000000 		.4byte	.LASF125
 3416 08b3 01       		.byte	0x1
 3417 08b4 3502     		.2byte	0x235
 3418 08b6 B7000000 		.4byte	0xb7
 3419 08ba F5020000 		.4byte	.LLST17
 3420 08be 13       		.uleb128 0x13
 3421 08bf 85050000 		.4byte	.LASF123
 3422 08c3 01       		.byte	0x1
 3423 08c4 3502     		.2byte	0x235
 3424 08c6 06090000 		.4byte	0x906
 3425 08ca 16030000 		.4byte	.LLST18
 3426 08ce 13       		.uleb128 0x13
 3427 08cf 72060000 		.4byte	.LASF126
 3428 08d3 01       		.byte	0x1
 3429 08d4 3502     		.2byte	0x235
 3430 08d6 B7000000 		.4byte	0xb7
 3431 08da 34030000 		.4byte	.LLST19
 3432 08de 19       		.uleb128 0x19
 3433 08df 6900     		.ascii	"i\000"
 3434 08e1 01       		.byte	0x1
 3435 08e2 3702     		.2byte	0x237
 3436 08e4 B7000000 		.4byte	0xb7
 3437 08e8 52030000 		.4byte	.LLST20
ARM GAS  C:\Users\hamis\AppData\Local\Temp\ccsOK97v.s 			page 81


 3438 08ec 15       		.uleb128 0x15
 3439 08ed 9D000000 		.4byte	.LASF127
 3440 08f1 01       		.byte	0x1
 3441 08f2 3802     		.2byte	0x238
 3442 08f4 B7000000 		.4byte	0xb7
 3443 08f8 71030000 		.4byte	.LLST21
 3444 08fc 1E       		.uleb128 0x1e
 3445 08fd 16000000 		.4byte	.LVL70
 3446 0901 4D080000 		.4byte	0x84d
 3447 0905 00       		.byte	0
 3448 0906 0B       		.uleb128 0xb
 3449 0907 04       		.byte	0x4
 3450 0908 0C090000 		.4byte	0x90c
 3451 090c 23       		.uleb128 0x23
 3452 090d A1000000 		.4byte	0xa1
 3453 0911 17       		.uleb128 0x17
 3454 0912 47050000 		.4byte	.LASF128
 3455 0916 01       		.byte	0x1
 3456 0917 3201     		.2byte	0x132
 3457 0919 13020000 		.4byte	0x213
 3458 091d 00000000 		.4byte	.LFB6
 3459 0921 02010000 		.4byte	.LFE6-.LFB6
 3460 0925 01       		.uleb128 0x1
 3461 0926 9C       		.byte	0x9c
 3462 0927 DB090000 		.4byte	0x9db
 3463 092b 13       		.uleb128 0x13
 3464 092c 5F070000 		.4byte	.LASF118
 3465 0930 01       		.byte	0x1
 3466 0931 3201     		.2byte	0x132
 3467 0933 B8040000 		.4byte	0x4b8
 3468 0937 8F030000 		.4byte	.LLST22
 3469 093b 15       		.uleb128 0x15
 3470 093c 20070000 		.4byte	.LASF129
 3471 0940 01       		.byte	0x1
 3472 0941 3401     		.2byte	0x134
 3473 0943 A1000000 		.4byte	0xa1
 3474 0947 D1030000 		.4byte	.LLST23
 3475 094b 15       		.uleb128 0x15
 3476 094c 13040000 		.4byte	.LASF130
 3477 0950 01       		.byte	0x1
 3478 0951 6E01     		.2byte	0x16e
 3479 0953 A1000000 		.4byte	0xa1
 3480 0957 1F040000 		.4byte	.LLST24
 3481 095b 24       		.uleb128 0x24
 3482 095c 3E000000 		.4byte	.LBB4
 3483 0960 2A000000 		.4byte	.LBE4-.LBB4
 3484 0964 94090000 		.4byte	0x994
 3485 0968 15       		.uleb128 0x15
 3486 0969 A5020000 		.4byte	.LASF131
 3487 096d 01       		.byte	0x1
 3488 096e 4B01     		.2byte	0x14b
 3489 0970 B7000000 		.4byte	0xb7
 3490 0974 32040000 		.4byte	.LLST25
 3491 0978 10       		.uleb128 0x10
 3492 0979 50000000 		.4byte	.LVL80
 3493 097d E0100000 		.4byte	0x10e0
 3494 0981 11       		.uleb128 0x11
ARM GAS  C:\Users\hamis\AppData\Local\Temp\ccsOK97v.s 			page 82


 3495 0982 01       		.uleb128 0x1
 3496 0983 50       		.byte	0x50
 3497 0984 02       		.uleb128 0x2
 3498 0985 77       		.byte	0x77
 3499 0986 00       		.sleb128 0
 3500 0987 11       		.uleb128 0x11
 3501 0988 01       		.uleb128 0x1
 3502 0989 51       		.byte	0x51
 3503 098a 01       		.uleb128 0x1
 3504 098b 30       		.byte	0x30
 3505 098c 11       		.uleb128 0x11
 3506 098d 01       		.uleb128 0x1
 3507 098e 52       		.byte	0x52
 3508 098f 02       		.uleb128 0x2
 3509 0990 75       		.byte	0x75
 3510 0991 00       		.sleb128 0
 3511 0992 00       		.byte	0
 3512 0993 00       		.byte	0
 3513 0994 24       		.uleb128 0x24
 3514 0995 AC000000 		.4byte	.LBB5
 3515 0999 28000000 		.4byte	.LBE5-.LBB5
 3516 099d C1090000 		.4byte	0x9c1
 3517 09a1 22       		.uleb128 0x22
 3518 09a2 63726300 		.ascii	"crc\000"
 3519 09a6 01       		.byte	0x1
 3520 09a7 6701     		.2byte	0x167
 3521 09a9 B7000000 		.4byte	0xb7
 3522 09ad 02       		.uleb128 0x2
 3523 09ae 91       		.byte	0x91
 3524 09af 64       		.sleb128 -28
 3525 09b0 10       		.uleb128 0x10
 3526 09b1 BA000000 		.4byte	.LVL82
 3527 09b5 94080000 		.4byte	0x894
 3528 09b9 11       		.uleb128 0x11
 3529 09ba 01       		.uleb128 0x1
 3530 09bb 50       		.byte	0x50
 3531 09bc 02       		.uleb128 0x2
 3532 09bd 09       		.byte	0x9
 3533 09be FF       		.byte	0xff
 3534 09bf 00       		.byte	0
 3535 09c0 00       		.byte	0
 3536 09c1 1E       		.uleb128 0x1e
 3537 09c2 DC000000 		.4byte	.LVL83
 3538 09c6 94050000 		.4byte	0x594
 3539 09ca 10       		.uleb128 0x10
 3540 09cb F6000000 		.4byte	.LVL85
 3541 09cf E9100000 		.4byte	0x10e9
 3542 09d3 11       		.uleb128 0x11
 3543 09d4 01       		.uleb128 0x1
 3544 09d5 50       		.byte	0x50
 3545 09d6 02       		.uleb128 0x2
 3546 09d7 74       		.byte	0x74
 3547 09d8 00       		.sleb128 0
 3548 09d9 00       		.byte	0
 3549 09da 00       		.byte	0
 3550 09db 12       		.uleb128 0x12
 3551 09dc 9E050000 		.4byte	.LASF132
ARM GAS  C:\Users\hamis\AppData\Local\Temp\ccsOK97v.s 			page 83


 3552 09e0 01       		.byte	0x1
 3553 09e1 4802     		.2byte	0x248
 3554 09e3 00000000 		.4byte	.LFB15
 3555 09e7 06000000 		.4byte	.LFE15-.LFB15
 3556 09eb 01       		.uleb128 0x1
 3557 09ec 9C       		.byte	0x9c
 3558 09ed 1C0A0000 		.4byte	0xa1c
 3559 09f1 21       		.uleb128 0x21
 3560 09f2 86060000 		.4byte	.LASF133
 3561 09f6 01       		.byte	0x1
 3562 09f7 4802     		.2byte	0x248
 3563 09f9 1C0A0000 		.4byte	0xa1c
 3564 09fd 01       		.uleb128 0x1
 3565 09fe 50       		.byte	0x50
 3566 09ff 21       		.uleb128 0x21
 3567 0a00 390A0000 		.4byte	.LASF99
 3568 0a04 01       		.byte	0x1
 3569 0a05 4802     		.2byte	0x248
 3570 0a07 59010000 		.4byte	0x159
 3571 0a0b 01       		.uleb128 0x1
 3572 0a0c 51       		.byte	0x51
 3573 0a0d 21       		.uleb128 0x21
 3574 0a0e 65010000 		.4byte	.LASF100
 3575 0a12 01       		.byte	0x1
 3576 0a13 4802     		.2byte	0x248
 3577 0a15 BE040000 		.4byte	0x4be
 3578 0a19 01       		.uleb128 0x1
 3579 0a1a 52       		.byte	0x52
 3580 0a1b 00       		.byte	0
 3581 0a1c 0B       		.uleb128 0xb
 3582 0a1d 04       		.byte	0x4
 3583 0a1e C4040000 		.4byte	0x4c4
 3584 0a22 12       		.uleb128 0x12
 3585 0a23 AA060000 		.4byte	.LASF134
 3586 0a27 01       		.byte	0x1
 3587 0a28 5002     		.2byte	0x250
 3588 0a2a 00000000 		.4byte	.LFB16
 3589 0a2e 06000000 		.4byte	.LFE16-.LFB16
 3590 0a32 01       		.uleb128 0x1
 3591 0a33 9C       		.byte	0x9c
 3592 0a34 630A0000 		.4byte	0xa63
 3593 0a38 21       		.uleb128 0x21
 3594 0a39 DB000000 		.4byte	.LASF135
 3595 0a3d 01       		.byte	0x1
 3596 0a3e 5002     		.2byte	0x250
 3597 0a40 630A0000 		.4byte	0xa63
 3598 0a44 01       		.uleb128 0x1
 3599 0a45 50       		.byte	0x50
 3600 0a46 21       		.uleb128 0x21
 3601 0a47 390A0000 		.4byte	.LASF99
 3602 0a4b 01       		.byte	0x1
 3603 0a4c 5002     		.2byte	0x250
 3604 0a4e 59010000 		.4byte	0x159
 3605 0a52 01       		.uleb128 0x1
 3606 0a53 51       		.byte	0x51
 3607 0a54 21       		.uleb128 0x21
 3608 0a55 65010000 		.4byte	.LASF100
ARM GAS  C:\Users\hamis\AppData\Local\Temp\ccsOK97v.s 			page 84


 3609 0a59 01       		.byte	0x1
 3610 0a5a 5002     		.2byte	0x250
 3611 0a5c BE040000 		.4byte	0x4be
 3612 0a60 01       		.uleb128 0x1
 3613 0a61 52       		.byte	0x52
 3614 0a62 00       		.byte	0
 3615 0a63 0B       		.uleb128 0xb
 3616 0a64 04       		.byte	0x4
 3617 0a65 F0040000 		.4byte	0x4f0
 3618 0a69 12       		.uleb128 0x12
 3619 0a6a 21010000 		.4byte	.LASF136
 3620 0a6e 01       		.byte	0x1
 3621 0a6f DB02     		.2byte	0x2db
 3622 0a71 00000000 		.4byte	.LFB18
 3623 0a75 34000000 		.4byte	.LFE18-.LFB18
 3624 0a79 01       		.uleb128 0x1
 3625 0a7a 9C       		.byte	0x9c
 3626 0a7b 990A0000 		.4byte	0xa99
 3627 0a7f 13       		.uleb128 0x13
 3628 0a80 23090000 		.4byte	.LASF137
 3629 0a84 01       		.byte	0x1
 3630 0a85 DB02     		.2byte	0x2db
 3631 0a87 DB000000 		.4byte	0xdb
 3632 0a8b 45040000 		.4byte	.LLST26
 3633 0a8f 1E       		.uleb128 0x1e
 3634 0a90 08000000 		.4byte	.LVL92
 3635 0a94 F4100000 		.4byte	0x10f4
 3636 0a98 00       		.byte	0
 3637 0a99 12       		.uleb128 0x12
 3638 0a9a 85040000 		.4byte	.LASF138
 3639 0a9e 01       		.byte	0x1
 3640 0a9f E902     		.2byte	0x2e9
 3641 0aa1 00000000 		.4byte	.LFB19
 3642 0aa5 12000000 		.4byte	.LFE19-.LFB19
 3643 0aa9 01       		.uleb128 0x1
 3644 0aaa 9C       		.byte	0x9c
 3645 0aab BE0A0000 		.4byte	0xabe
 3646 0aaf 21       		.uleb128 0x21
 3647 0ab0 AF070000 		.4byte	.LASF139
 3648 0ab4 01       		.byte	0x1
 3649 0ab5 E902     		.2byte	0x2e9
 3650 0ab7 BE0A0000 		.4byte	0xabe
 3651 0abb 01       		.uleb128 0x1
 3652 0abc 50       		.byte	0x50
 3653 0abd 00       		.byte	0
 3654 0abe 0B       		.uleb128 0xb
 3655 0abf 04       		.byte	0x4
 3656 0ac0 7B020000 		.4byte	0x27b
 3657 0ac4 17       		.uleb128 0x17
 3658 0ac5 6C040000 		.4byte	.LASF140
 3659 0ac9 01       		.byte	0x1
 3660 0aca FE02     		.2byte	0x2fe
 3661 0acc 13020000 		.4byte	0x213
 3662 0ad0 00000000 		.4byte	.LFB20
 3663 0ad4 70000000 		.4byte	.LFE20-.LFB20
 3664 0ad8 01       		.uleb128 0x1
 3665 0ad9 9C       		.byte	0x9c
ARM GAS  C:\Users\hamis\AppData\Local\Temp\ccsOK97v.s 			page 85


 3666 0ada 7A0B0000 		.4byte	0xb7a
 3667 0ade 13       		.uleb128 0x13
 3668 0adf 330A0000 		.4byte	.LASF141
 3669 0ae3 01       		.byte	0x1
 3670 0ae4 FE02     		.2byte	0x2fe
 3671 0ae6 1C0A0000 		.4byte	0xa1c
 3672 0aea 66040000 		.4byte	.LLST27
 3673 0aee 13       		.uleb128 0x13
 3674 0aef C5060000 		.4byte	.LASF67
 3675 0af3 01       		.byte	0x1
 3676 0af4 FE02     		.2byte	0x2fe
 3677 0af6 B7000000 		.4byte	0xb7
 3678 0afa 92040000 		.4byte	.LLST28
 3679 0afe 13       		.uleb128 0x13
 3680 0aff 5E050000 		.4byte	.LASF81
 3681 0b03 01       		.byte	0x1
 3682 0b04 FE02     		.2byte	0x2fe
 3683 0b06 DB000000 		.4byte	0xdb
 3684 0b0a CB040000 		.4byte	.LLST29
 3685 0b0e 21       		.uleb128 0x21
 3686 0b0f AF070000 		.4byte	.LASF139
 3687 0b13 01       		.byte	0x1
 3688 0b14 FE02     		.2byte	0x2fe
 3689 0b16 7B020000 		.4byte	0x27b
 3690 0b1a 02       		.uleb128 0x2
 3691 0b1b 91       		.byte	0x91
 3692 0b1c 7C       		.sleb128 -4
 3693 0b1d 1A       		.uleb128 0x1a
 3694 0b1e E5000000 		.4byte	.LASF142
 3695 0b22 01       		.byte	0x1
 3696 0b23 0003     		.2byte	0x300
 3697 0b25 09040000 		.4byte	0x409
 3698 0b29 03       		.uleb128 0x3
 3699 0b2a 91       		.byte	0x91
 3700 0b2b F47E     		.sleb128 -140
 3701 0b2d 1B       		.uleb128 0x1b
 3702 0b2e 14000000 		.4byte	.LVL96
 3703 0b32 02050000 		.4byte	0x502
 3704 0b36 420B0000 		.4byte	0xb42
 3705 0b3a 11       		.uleb128 0x11
 3706 0b3b 01       		.uleb128 0x1
 3707 0b3c 50       		.byte	0x50
 3708 0b3d 03       		.uleb128 0x3
 3709 0b3e 91       		.byte	0x91
 3710 0b3f E47E     		.sleb128 -156
 3711 0b41 00       		.byte	0
 3712 0b42 1B       		.uleb128 0x1b
 3713 0b43 54000000 		.4byte	.LVL98
 3714 0b47 F5060000 		.4byte	0x6f5
 3715 0b4b 570B0000 		.4byte	0xb57
 3716 0b4f 11       		.uleb128 0x11
 3717 0b50 01       		.uleb128 0x1
 3718 0b51 50       		.byte	0x50
 3719 0b52 03       		.uleb128 0x3
 3720 0b53 91       		.byte	0x91
 3721 0b54 E47E     		.sleb128 -156
 3722 0b56 00       		.byte	0
ARM GAS  C:\Users\hamis\AppData\Local\Temp\ccsOK97v.s 			page 86


 3723 0b57 1D       		.uleb128 0x1d
 3724 0b58 5E000000 		.4byte	.LVL99
 3725 0b5c 680B0000 		.4byte	0xb68
 3726 0b60 11       		.uleb128 0x11
 3727 0b61 01       		.uleb128 0x1
 3728 0b62 50       		.byte	0x50
 3729 0b63 03       		.uleb128 0x3
 3730 0b64 91       		.byte	0x91
 3731 0b65 E47E     		.sleb128 -156
 3732 0b67 00       		.byte	0
 3733 0b68 10       		.uleb128 0x10
 3734 0b69 66000000 		.4byte	.LVL100
 3735 0b6d 11090000 		.4byte	0x911
 3736 0b71 11       		.uleb128 0x11
 3737 0b72 01       		.uleb128 0x1
 3738 0b73 50       		.byte	0x50
 3739 0b74 03       		.uleb128 0x3
 3740 0b75 91       		.byte	0x91
 3741 0b76 E47E     		.sleb128 -156
 3742 0b78 00       		.byte	0
 3743 0b79 00       		.byte	0
 3744 0b7a 25       		.uleb128 0x25
 3745 0b7b A5090000 		.4byte	.LASF143
 3746 0b7f 01       		.byte	0x1
 3747 0b80 D7       		.byte	0xd7
 3748 0b81 00000000 		.4byte	.LFB2
 3749 0b85 68000000 		.4byte	.LFE2-.LFB2
 3750 0b89 01       		.uleb128 0x1
 3751 0b8a 9C       		.byte	0x9c
 3752 0b8b FC0B0000 		.4byte	0xbfc
 3753 0b8f 0F       		.uleb128 0xf
 3754 0b90 58060000 		.4byte	.LASF105
 3755 0b94 01       		.byte	0x1
 3756 0b95 D7       		.byte	0xd7
 3757 0b96 B8040000 		.4byte	0x4b8
 3758 0b9a EC040000 		.4byte	.LLST30
 3759 0b9e 14       		.uleb128 0x14
 3760 0b9f 06000000 		.4byte	.LBB6
 3761 0ba3 58000000 		.4byte	.LBE6-.LBB6
 3762 0ba7 26       		.uleb128 0x26
 3763 0ba8 83070000 		.4byte	.LASF144
 3764 0bac 01       		.byte	0x1
 3765 0bad DA       		.byte	0xda
 3766 0bae 2C000000 		.4byte	0x2c
 3767 0bb2 18050000 		.4byte	.LLST31
 3768 0bb6 14       		.uleb128 0x14
 3769 0bb7 18000000 		.4byte	.LBB7
 3770 0bbb 40000000 		.4byte	.LBE7-.LBB7
 3771 0bbf 27       		.uleb128 0x27
 3772 0bc0 AF070000 		.4byte	.LASF139
 3773 0bc4 01       		.byte	0x1
 3774 0bc5 DC       		.byte	0xdc
 3775 0bc6 7B020000 		.4byte	0x27b
 3776 0bca 02       		.uleb128 0x2
 3777 0bcb 91       		.byte	0x91
 3778 0bcc 68       		.sleb128 -24
 3779 0bcd 1B       		.uleb128 0x1b
ARM GAS  C:\Users\hamis\AppData\Local\Temp\ccsOK97v.s 			page 87


 3780 0bce 1E000000 		.4byte	.LVL105
 3781 0bd2 990A0000 		.4byte	0xa99
 3782 0bd6 E10B0000 		.4byte	0xbe1
 3783 0bda 11       		.uleb128 0x11
 3784 0bdb 01       		.uleb128 0x1
 3785 0bdc 50       		.byte	0x50
 3786 0bdd 02       		.uleb128 0x2
 3787 0bde 91       		.byte	0x91
 3788 0bdf 68       		.sleb128 -24
 3789 0be0 00       		.byte	0
 3790 0be1 10       		.uleb128 0x10
 3791 0be2 58000000 		.4byte	.LVL106
 3792 0be6 C40A0000 		.4byte	0xac4
 3793 0bea 11       		.uleb128 0x11
 3794 0beb 01       		.uleb128 0x1
 3795 0bec 50       		.byte	0x50
 3796 0bed 0A       		.uleb128 0xa
 3797 0bee 74       		.byte	0x74
 3798 0bef 00       		.sleb128 0
 3799 0bf0 33       		.byte	0x33
 3800 0bf1 24       		.byte	0x24
 3801 0bf2 03       		.byte	0x3
 3802 0bf3 00000000 		.4byte	QX_Servers
 3803 0bf7 22       		.byte	0x22
 3804 0bf8 00       		.byte	0
 3805 0bf9 00       		.byte	0
 3806 0bfa 00       		.byte	0
 3807 0bfb 00       		.byte	0
 3808 0bfc 25       		.uleb128 0x25
 3809 0bfd 6F010000 		.4byte	.LASF145
 3810 0c01 01       		.byte	0x1
 3811 0c02 EB       		.byte	0xeb
 3812 0c03 00000000 		.4byte	.LFB3
 3813 0c07 8C000000 		.4byte	.LFE3-.LFB3
 3814 0c0b 01       		.uleb128 0x1
 3815 0c0c 9C       		.byte	0x9c
 3816 0c0d 8E0C0000 		.4byte	0xc8e
 3817 0c11 0F       		.uleb128 0xf
 3818 0c12 58060000 		.4byte	.LASF105
 3819 0c16 01       		.byte	0x1
 3820 0c17 EB       		.byte	0xeb
 3821 0c18 B8040000 		.4byte	0x4b8
 3822 0c1c 37050000 		.4byte	.LLST32
 3823 0c20 14       		.uleb128 0x14
 3824 0c21 1E000000 		.4byte	.LBB8
 3825 0c25 64000000 		.4byte	.LBE8-.LBB8
 3826 0c29 26       		.uleb128 0x26
 3827 0c2a 83070000 		.4byte	.LASF144
 3828 0c2e 01       		.byte	0x1
 3829 0c2f F5       		.byte	0xf5
 3830 0c30 2C000000 		.4byte	0x2c
 3831 0c34 63050000 		.4byte	.LLST33
 3832 0c38 24       		.uleb128 0x24
 3833 0c39 3C000000 		.4byte	.LBB9
 3834 0c3d 40000000 		.4byte	.LBE9-.LBB9
 3835 0c41 800C0000 		.4byte	0xc80
 3836 0c45 27       		.uleb128 0x27
ARM GAS  C:\Users\hamis\AppData\Local\Temp\ccsOK97v.s 			page 88


 3837 0c46 AF070000 		.4byte	.LASF139
 3838 0c4a 01       		.byte	0x1
 3839 0c4b FB       		.byte	0xfb
 3840 0c4c 7B020000 		.4byte	0x27b
 3841 0c50 02       		.uleb128 0x2
 3842 0c51 91       		.byte	0x91
 3843 0c52 68       		.sleb128 -24
 3844 0c53 1B       		.uleb128 0x1b
 3845 0c54 42000000 		.4byte	.LVL112
 3846 0c58 990A0000 		.4byte	0xa99
 3847 0c5c 670C0000 		.4byte	0xc67
 3848 0c60 11       		.uleb128 0x11
 3849 0c61 01       		.uleb128 0x1
 3850 0c62 50       		.byte	0x50
 3851 0c63 02       		.uleb128 0x2
 3852 0c64 91       		.byte	0x91
 3853 0c65 68       		.sleb128 -24
 3854 0c66 00       		.byte	0
 3855 0c67 10       		.uleb128 0x10
 3856 0c68 7C000000 		.4byte	.LVL113
 3857 0c6c C40A0000 		.4byte	0xac4
 3858 0c70 11       		.uleb128 0x11
 3859 0c71 01       		.uleb128 0x1
 3860 0c72 50       		.byte	0x50
 3861 0c73 0A       		.uleb128 0xa
 3862 0c74 74       		.byte	0x74
 3863 0c75 00       		.sleb128 0
 3864 0c76 33       		.byte	0x33
 3865 0c77 24       		.byte	0x24
 3866 0c78 03       		.byte	0x3
 3867 0c79 00000000 		.4byte	QX_Servers
 3868 0c7d 22       		.byte	0x22
 3869 0c7e 00       		.byte	0
 3870 0c7f 00       		.byte	0
 3871 0c80 16       		.uleb128 0x16
 3872 0c81 38000000 		.4byte	.LVL111
 3873 0c85 11       		.uleb128 0x11
 3874 0c86 01       		.uleb128 0x1
 3875 0c87 50       		.byte	0x50
 3876 0c88 02       		.uleb128 0x2
 3877 0c89 75       		.byte	0x75
 3878 0c8a 00       		.sleb128 0
 3879 0c8b 00       		.byte	0
 3880 0c8c 00       		.byte	0
 3881 0c8d 00       		.byte	0
 3882 0c8e 0E       		.uleb128 0xe
 3883 0c8f 54040000 		.4byte	.LASF146
 3884 0c93 01       		.byte	0x1
 3885 0c94 93       		.byte	0x93
 3886 0c95 13020000 		.4byte	0x213
 3887 0c99 00000000 		.4byte	.LFB1
 3888 0c9d 98000000 		.4byte	.LFE1-.LFB1
 3889 0ca1 01       		.uleb128 0x1
 3890 0ca2 9C       		.byte	0x9c
 3891 0ca3 630D0000 		.4byte	0xd63
 3892 0ca7 0F       		.uleb128 0xf
 3893 0ca8 58060000 		.4byte	.LASF105
ARM GAS  C:\Users\hamis\AppData\Local\Temp\ccsOK97v.s 			page 89


 3894 0cac 01       		.byte	0x1
 3895 0cad 93       		.byte	0x93
 3896 0cae B8040000 		.4byte	0x4b8
 3897 0cb2 76050000 		.4byte	.LLST34
 3898 0cb6 24       		.uleb128 0x24
 3899 0cb7 2E000000 		.4byte	.LBB10
 3900 0cbb 28000000 		.4byte	.LBE10-.LBB10
 3901 0cbf FD0C0000 		.4byte	0xcfd
 3902 0cc3 26       		.uleb128 0x26
 3903 0cc4 99010000 		.4byte	.LASF147
 3904 0cc8 01       		.byte	0x1
 3905 0cc9 AD       		.byte	0xad
 3906 0cca B7000000 		.4byte	0xb7
 3907 0cce CE050000 		.4byte	.LLST35
 3908 0cd2 27       		.uleb128 0x27
 3909 0cd3 02020000 		.4byte	.LASF148
 3910 0cd7 01       		.byte	0x1
 3911 0cd8 AE       		.byte	0xae
 3912 0cd9 B7000000 		.4byte	0xb7
 3913 0cdd 02       		.uleb128 0x2
 3914 0cde 91       		.byte	0x91
 3915 0cdf 6C       		.sleb128 -20
 3916 0ce0 10       		.uleb128 0x10
 3917 0ce1 3E000000 		.4byte	.LVL120
 3918 0ce5 94080000 		.4byte	0x894
 3919 0ce9 11       		.uleb128 0x11
 3920 0cea 01       		.uleb128 0x1
 3921 0ceb 50       		.byte	0x50
 3922 0cec 02       		.uleb128 0x2
 3923 0ced 09       		.byte	0x9
 3924 0cee FF       		.byte	0xff
 3925 0cef 11       		.uleb128 0x11
 3926 0cf0 01       		.uleb128 0x1
 3927 0cf1 51       		.byte	0x51
 3928 0cf2 02       		.uleb128 0x2
 3929 0cf3 75       		.byte	0x75
 3930 0cf4 00       		.sleb128 0
 3931 0cf5 11       		.uleb128 0x11
 3932 0cf6 01       		.uleb128 0x1
 3933 0cf7 52       		.byte	0x52
 3934 0cf8 02       		.uleb128 0x2
 3935 0cf9 76       		.byte	0x76
 3936 0cfa 7B       		.sleb128 -5
 3937 0cfb 00       		.byte	0
 3938 0cfc 00       		.byte	0
 3939 0cfd 1D       		.uleb128 0x1d
 3940 0cfe 20000000 		.4byte	.LVL117
 3941 0d02 0D0D0000 		.4byte	0xd0d
 3942 0d06 11       		.uleb128 0x11
 3943 0d07 01       		.uleb128 0x1
 3944 0d08 50       		.byte	0x50
 3945 0d09 02       		.uleb128 0x2
 3946 0d0a 74       		.byte	0x74
 3947 0d0b 00       		.sleb128 0
 3948 0d0c 00       		.byte	0
 3949 0d0d 1E       		.uleb128 0x1e
 3950 0d0e 26000000 		.4byte	.LVL119
ARM GAS  C:\Users\hamis\AppData\Local\Temp\ccsOK97v.s 			page 90


 3951 0d12 81070000 		.4byte	0x781
 3952 0d16 1B       		.uleb128 0x1b
 3953 0d17 5C000000 		.4byte	.LVL124
 3954 0d1b 00110000 		.4byte	0x1100
 3955 0d1f 2A0D0000 		.4byte	0xd2a
 3956 0d23 11       		.uleb128 0x11
 3957 0d24 01       		.uleb128 0x1
 3958 0d25 50       		.byte	0x50
 3959 0d26 02       		.uleb128 0x2
 3960 0d27 74       		.byte	0x74
 3961 0d28 00       		.sleb128 0
 3962 0d29 00       		.byte	0
 3963 0d2a 1B       		.uleb128 0x1b
 3964 0d2b 70000000 		.4byte	.LVL125
 3965 0d2f 7A0B0000 		.4byte	0xb7a
 3966 0d33 3E0D0000 		.4byte	0xd3e
 3967 0d37 11       		.uleb128 0x11
 3968 0d38 01       		.uleb128 0x1
 3969 0d39 50       		.byte	0x50
 3970 0d3a 02       		.uleb128 0x2
 3971 0d3b 74       		.byte	0x74
 3972 0d3c 00       		.sleb128 0
 3973 0d3d 00       		.byte	0
 3974 0d3e 1B       		.uleb128 0x1b
 3975 0d3f 7A000000 		.4byte	.LVL126
 3976 0d43 FC0B0000 		.4byte	0xbfc
 3977 0d47 520D0000 		.4byte	0xd52
 3978 0d4b 11       		.uleb128 0x11
 3979 0d4c 01       		.uleb128 0x1
 3980 0d4d 50       		.byte	0x50
 3981 0d4e 02       		.uleb128 0x2
 3982 0d4f 74       		.byte	0x74
 3983 0d50 00       		.sleb128 0
 3984 0d51 00       		.byte	0
 3985 0d52 10       		.uleb128 0x10
 3986 0d53 84000000 		.4byte	.LVL127
 3987 0d57 47050000 		.4byte	0x547
 3988 0d5b 11       		.uleb128 0x11
 3989 0d5c 01       		.uleb128 0x1
 3990 0d5d 50       		.byte	0x50
 3991 0d5e 02       		.uleb128 0x2
 3992 0d5f 74       		.byte	0x74
 3993 0d60 00       		.sleb128 0
 3994 0d61 00       		.byte	0
 3995 0d62 00       		.byte	0
 3996 0d63 17       		.uleb128 0x17
 3997 0d64 46060000 		.4byte	.LASF149
 3998 0d68 01       		.byte	0x1
 3999 0d69 5A02     		.2byte	0x25a
 4000 0d6b A1000000 		.4byte	0xa1
 4001 0d6f 00000000 		.4byte	.LFB17
 4002 0d73 9C020000 		.4byte	.LFE17-.LFB17
 4003 0d77 01       		.uleb128 0x1
 4004 0d78 9C       		.byte	0x9c
 4005 0d79 C70D0000 		.4byte	0xdc7
 4006 0d7d 13       		.uleb128 0x13
 4007 0d7e 23090000 		.4byte	.LASF137
ARM GAS  C:\Users\hamis\AppData\Local\Temp\ccsOK97v.s 			page 91


 4008 0d82 01       		.byte	0x1
 4009 0d83 5A02     		.2byte	0x25a
 4010 0d85 DB000000 		.4byte	0xdb
 4011 0d89 EC050000 		.4byte	.LLST36
 4012 0d8d 13       		.uleb128 0x13
 4013 0d8e D0090000 		.4byte	.LASF150
 4014 0d92 01       		.byte	0x1
 4015 0d93 5A02     		.2byte	0x25a
 4016 0d95 53000000 		.4byte	0x53
 4017 0d99 B6070000 		.4byte	.LLST37
 4018 0d9d 15       		.uleb128 0x15
 4019 0d9e 13040000 		.4byte	.LASF130
 4020 0da2 01       		.byte	0x1
 4021 0da3 5C02     		.2byte	0x25c
 4022 0da5 A1000000 		.4byte	0xa1
 4023 0da9 D1080000 		.4byte	.LLST38
 4024 0dad 1E       		.uleb128 0x1e
 4025 0dae 52020000 		.4byte	.LVL166
 4026 0db2 F4100000 		.4byte	0x10f4
 4027 0db6 10       		.uleb128 0x10
 4028 0db7 68020000 		.4byte	.LVL167
 4029 0dbb 8E0C0000 		.4byte	0xc8e
 4030 0dbf 11       		.uleb128 0x11
 4031 0dc0 01       		.uleb128 0x1
 4032 0dc1 50       		.byte	0x50
 4033 0dc2 02       		.uleb128 0x2
 4034 0dc3 75       		.byte	0x75
 4035 0dc4 04       		.sleb128 4
 4036 0dc5 00       		.byte	0
 4037 0dc6 00       		.byte	0
 4038 0dc7 17       		.uleb128 0x17
 4039 0dc8 08060000 		.4byte	.LASF151
 4040 0dcc 01       		.byte	0x1
 4041 0dcd 1703     		.2byte	0x317
 4042 0dcf 13020000 		.4byte	0x213
 4043 0dd3 00000000 		.4byte	.LFB21
 4044 0dd7 62000000 		.4byte	.LFE21-.LFB21
 4045 0ddb 01       		.uleb128 0x1
 4046 0ddc 9C       		.byte	0x9c
 4047 0ddd 6C0E0000 		.4byte	0xe6c
 4048 0de1 13       		.uleb128 0x13
 4049 0de2 D7090000 		.4byte	.LASF152
 4050 0de6 01       		.byte	0x1
 4051 0de7 1703     		.2byte	0x317
 4052 0de9 630A0000 		.4byte	0xa63
 4053 0ded F2080000 		.4byte	.LLST39
 4054 0df1 13       		.uleb128 0x13
 4055 0df2 C5060000 		.4byte	.LASF67
 4056 0df6 01       		.byte	0x1
 4057 0df7 1703     		.2byte	0x317
 4058 0df9 B7000000 		.4byte	0xb7
 4059 0dfd 1E090000 		.4byte	.LLST40
 4060 0e01 13       		.uleb128 0x13
 4061 0e02 5E050000 		.4byte	.LASF81
 4062 0e06 01       		.byte	0x1
 4063 0e07 1703     		.2byte	0x317
 4064 0e09 DB000000 		.4byte	0xdb
ARM GAS  C:\Users\hamis\AppData\Local\Temp\ccsOK97v.s 			page 92


 4065 0e0d 4A090000 		.4byte	.LLST41
 4066 0e11 21       		.uleb128 0x21
 4067 0e12 AF070000 		.4byte	.LASF139
 4068 0e16 01       		.byte	0x1
 4069 0e17 1703     		.2byte	0x317
 4070 0e19 7B020000 		.4byte	0x27b
 4071 0e1d 02       		.uleb128 0x2
 4072 0e1e 91       		.byte	0x91
 4073 0e1f 7C       		.sleb128 -4
 4074 0e20 1A       		.uleb128 0x1a
 4075 0e21 E5000000 		.4byte	.LASF142
 4076 0e25 01       		.byte	0x1
 4077 0e26 1903     		.2byte	0x319
 4078 0e28 09040000 		.4byte	0x409
 4079 0e2c 03       		.uleb128 0x3
 4080 0e2d 91       		.byte	0x91
 4081 0e2e F47E     		.sleb128 -140
 4082 0e30 1B       		.uleb128 0x1b
 4083 0e31 14000000 		.4byte	.LVL182
 4084 0e35 02050000 		.4byte	0x502
 4085 0e39 450E0000 		.4byte	0xe45
 4086 0e3d 11       		.uleb128 0x11
 4087 0e3e 01       		.uleb128 0x1
 4088 0e3f 50       		.byte	0x50
 4089 0e40 03       		.uleb128 0x3
 4090 0e41 91       		.byte	0x91
 4091 0e42 E47E     		.sleb128 -156
 4092 0e44 00       		.byte	0
 4093 0e45 1B       		.uleb128 0x1b
 4094 0e46 52000000 		.4byte	.LVL183
 4095 0e4a F5060000 		.4byte	0x6f5
 4096 0e4e 5A0E0000 		.4byte	0xe5a
 4097 0e52 11       		.uleb128 0x11
 4098 0e53 01       		.uleb128 0x1
 4099 0e54 50       		.byte	0x50
 4100 0e55 03       		.uleb128 0x3
 4101 0e56 91       		.byte	0x91
 4102 0e57 E47E     		.sleb128 -156
 4103 0e59 00       		.byte	0
 4104 0e5a 10       		.uleb128 0x10
 4105 0e5b 58000000 		.4byte	.LVL184
 4106 0e5f 11090000 		.4byte	0x911
 4107 0e63 11       		.uleb128 0x11
 4108 0e64 01       		.uleb128 0x1
 4109 0e65 50       		.byte	0x50
 4110 0e66 03       		.uleb128 0x3
 4111 0e67 91       		.byte	0x91
 4112 0e68 E47E     		.sleb128 -156
 4113 0e6a 00       		.byte	0
 4114 0e6b 00       		.byte	0
 4115 0e6c 17       		.uleb128 0x17
 4116 0e6d F0020000 		.4byte	.LASF153
 4117 0e71 01       		.byte	0x1
 4118 0e72 2E03     		.2byte	0x32e
 4119 0e74 13020000 		.4byte	0x213
 4120 0e78 00000000 		.4byte	.LFB22
 4121 0e7c 70000000 		.4byte	.LFE22-.LFB22
ARM GAS  C:\Users\hamis\AppData\Local\Temp\ccsOK97v.s 			page 93


 4122 0e80 01       		.uleb128 0x1
 4123 0e81 9C       		.byte	0x9c
 4124 0e82 220F0000 		.4byte	0xf22
 4125 0e86 13       		.uleb128 0x13
 4126 0e87 D7090000 		.4byte	.LASF152
 4127 0e8b 01       		.byte	0x1
 4128 0e8c 2E03     		.2byte	0x32e
 4129 0e8e 630A0000 		.4byte	0xa63
 4130 0e92 6B090000 		.4byte	.LLST42
 4131 0e96 13       		.uleb128 0x13
 4132 0e97 C5060000 		.4byte	.LASF67
 4133 0e9b 01       		.byte	0x1
 4134 0e9c 2E03     		.2byte	0x32e
 4135 0e9e B7000000 		.4byte	0xb7
 4136 0ea2 97090000 		.4byte	.LLST43
 4137 0ea6 13       		.uleb128 0x13
 4138 0ea7 5E050000 		.4byte	.LASF81
 4139 0eab 01       		.byte	0x1
 4140 0eac 2E03     		.2byte	0x32e
 4141 0eae DB000000 		.4byte	0xdb
 4142 0eb2 D0090000 		.4byte	.LLST44
 4143 0eb6 21       		.uleb128 0x21
 4144 0eb7 AF070000 		.4byte	.LASF139
 4145 0ebb 01       		.byte	0x1
 4146 0ebc 2E03     		.2byte	0x32e
 4147 0ebe 7B020000 		.4byte	0x27b
 4148 0ec2 02       		.uleb128 0x2
 4149 0ec3 91       		.byte	0x91
 4150 0ec4 7C       		.sleb128 -4
 4151 0ec5 1A       		.uleb128 0x1a
 4152 0ec6 E5000000 		.4byte	.LASF142
 4153 0eca 01       		.byte	0x1
 4154 0ecb 3003     		.2byte	0x330
 4155 0ecd 09040000 		.4byte	0x409
 4156 0ed1 03       		.uleb128 0x3
 4157 0ed2 91       		.byte	0x91
 4158 0ed3 F47E     		.sleb128 -140
 4159 0ed5 1B       		.uleb128 0x1b
 4160 0ed6 14000000 		.4byte	.LVL188
 4161 0eda 02050000 		.4byte	0x502
 4162 0ede EA0E0000 		.4byte	0xeea
 4163 0ee2 11       		.uleb128 0x11
 4164 0ee3 01       		.uleb128 0x1
 4165 0ee4 50       		.byte	0x50
 4166 0ee5 03       		.uleb128 0x3
 4167 0ee6 91       		.byte	0x91
 4168 0ee7 E47E     		.sleb128 -156
 4169 0ee9 00       		.byte	0
 4170 0eea 1B       		.uleb128 0x1b
 4171 0eeb 54000000 		.4byte	.LVL190
 4172 0eef F5060000 		.4byte	0x6f5
 4173 0ef3 FF0E0000 		.4byte	0xeff
 4174 0ef7 11       		.uleb128 0x11
 4175 0ef8 01       		.uleb128 0x1
 4176 0ef9 50       		.byte	0x50
 4177 0efa 03       		.uleb128 0x3
 4178 0efb 91       		.byte	0x91
ARM GAS  C:\Users\hamis\AppData\Local\Temp\ccsOK97v.s 			page 94


 4179 0efc E47E     		.sleb128 -156
 4180 0efe 00       		.byte	0
 4181 0eff 1D       		.uleb128 0x1d
 4182 0f00 5E000000 		.4byte	.LVL191
 4183 0f04 100F0000 		.4byte	0xf10
 4184 0f08 11       		.uleb128 0x11
 4185 0f09 01       		.uleb128 0x1
 4186 0f0a 50       		.byte	0x50
 4187 0f0b 03       		.uleb128 0x3
 4188 0f0c 91       		.byte	0x91
 4189 0f0d E47E     		.sleb128 -156
 4190 0f0f 00       		.byte	0
 4191 0f10 10       		.uleb128 0x10
 4192 0f11 66000000 		.4byte	.LVL192
 4193 0f15 11090000 		.4byte	0x911
 4194 0f19 11       		.uleb128 0x11
 4195 0f1a 01       		.uleb128 0x1
 4196 0f1b 50       		.byte	0x50
 4197 0f1c 03       		.uleb128 0x3
 4198 0f1d 91       		.byte	0x91
 4199 0f1e E47E     		.sleb128 -156
 4200 0f20 00       		.byte	0
 4201 0f21 00       		.byte	0
 4202 0f22 17       		.uleb128 0x17
 4203 0f23 9A0A0000 		.4byte	.LASF154
 4204 0f27 01       		.byte	0x1
 4205 0f28 4703     		.2byte	0x347
 4206 0f2a 13020000 		.4byte	0x213
 4207 0f2e 00000000 		.4byte	.LFB23
 4208 0f32 72000000 		.4byte	.LFE23-.LFB23
 4209 0f36 01       		.uleb128 0x1
 4210 0f37 9C       		.byte	0x9c
 4211 0f38 D80F0000 		.4byte	0xfd8
 4212 0f3c 13       		.uleb128 0x13
 4213 0f3d D7090000 		.4byte	.LASF152
 4214 0f41 01       		.byte	0x1
 4215 0f42 4703     		.2byte	0x347
 4216 0f44 630A0000 		.4byte	0xa63
 4217 0f48 F1090000 		.4byte	.LLST45
 4218 0f4c 13       		.uleb128 0x13
 4219 0f4d C5060000 		.4byte	.LASF67
 4220 0f51 01       		.byte	0x1
 4221 0f52 4703     		.2byte	0x347
 4222 0f54 B7000000 		.4byte	0xb7
 4223 0f58 1D0A0000 		.4byte	.LLST46
 4224 0f5c 13       		.uleb128 0x13
 4225 0f5d 5E050000 		.4byte	.LASF81
 4226 0f61 01       		.byte	0x1
 4227 0f62 4703     		.2byte	0x347
 4228 0f64 DB000000 		.4byte	0xdb
 4229 0f68 490A0000 		.4byte	.LLST47
 4230 0f6c 21       		.uleb128 0x21
 4231 0f6d AF070000 		.4byte	.LASF139
 4232 0f71 01       		.byte	0x1
 4233 0f72 4703     		.2byte	0x347
 4234 0f74 7B020000 		.4byte	0x27b
 4235 0f78 02       		.uleb128 0x2
ARM GAS  C:\Users\hamis\AppData\Local\Temp\ccsOK97v.s 			page 95


 4236 0f79 91       		.byte	0x91
 4237 0f7a 7C       		.sleb128 -4
 4238 0f7b 1A       		.uleb128 0x1a
 4239 0f7c E5000000 		.4byte	.LASF142
 4240 0f80 01       		.byte	0x1
 4241 0f81 4903     		.2byte	0x349
 4242 0f83 09040000 		.4byte	0x409
 4243 0f87 03       		.uleb128 0x3
 4244 0f88 91       		.byte	0x91
 4245 0f89 F47E     		.sleb128 -140
 4246 0f8b 1B       		.uleb128 0x1b
 4247 0f8c 14000000 		.4byte	.LVL196
 4248 0f90 02050000 		.4byte	0x502
 4249 0f94 A00F0000 		.4byte	0xfa0
 4250 0f98 11       		.uleb128 0x11
 4251 0f99 01       		.uleb128 0x1
 4252 0f9a 50       		.byte	0x50
 4253 0f9b 03       		.uleb128 0x3
 4254 0f9c 91       		.byte	0x91
 4255 0f9d E47E     		.sleb128 -156
 4256 0f9f 00       		.byte	0
 4257 0fa0 1B       		.uleb128 0x1b
 4258 0fa1 54000000 		.4byte	.LVL197
 4259 0fa5 F5060000 		.4byte	0x6f5
 4260 0fa9 B50F0000 		.4byte	0xfb5
 4261 0fad 11       		.uleb128 0x11
 4262 0fae 01       		.uleb128 0x1
 4263 0faf 50       		.byte	0x50
 4264 0fb0 03       		.uleb128 0x3
 4265 0fb1 91       		.byte	0x91
 4266 0fb2 E47E     		.sleb128 -156
 4267 0fb4 00       		.byte	0
 4268 0fb5 1D       		.uleb128 0x1d
 4269 0fb6 60000000 		.4byte	.LVL198
 4270 0fba C60F0000 		.4byte	0xfc6
 4271 0fbe 11       		.uleb128 0x11
 4272 0fbf 01       		.uleb128 0x1
 4273 0fc0 50       		.byte	0x50
 4274 0fc1 03       		.uleb128 0x3
 4275 0fc2 91       		.byte	0x91
 4276 0fc3 E47E     		.sleb128 -156
 4277 0fc5 00       		.byte	0
 4278 0fc6 10       		.uleb128 0x10
 4279 0fc7 68000000 		.4byte	.LVL199
 4280 0fcb 11090000 		.4byte	0x911
 4281 0fcf 11       		.uleb128 0x11
 4282 0fd0 01       		.uleb128 0x1
 4283 0fd1 50       		.byte	0x50
 4284 0fd2 03       		.uleb128 0x3
 4285 0fd3 91       		.byte	0x91
 4286 0fd4 E47E     		.sleb128 -156
 4287 0fd6 00       		.byte	0
 4288 0fd7 00       		.byte	0
 4289 0fd8 17       		.uleb128 0x17
 4290 0fd9 25000000 		.4byte	.LASF155
 4291 0fdd 01       		.byte	0x1
 4292 0fde 6003     		.2byte	0x360
ARM GAS  C:\Users\hamis\AppData\Local\Temp\ccsOK97v.s 			page 96


 4293 0fe0 13020000 		.4byte	0x213
 4294 0fe4 00000000 		.4byte	.LFB24
 4295 0fe8 22000000 		.4byte	.LFE24-.LFB24
 4296 0fec 01       		.uleb128 0x1
 4297 0fed 9C       		.byte	0x9c
 4298 0fee 4A100000 		.4byte	0x104a
 4299 0ff2 13       		.uleb128 0x13
 4300 0ff3 D7090000 		.4byte	.LASF152
 4301 0ff7 01       		.byte	0x1
 4302 0ff8 6003     		.2byte	0x360
 4303 0ffa 630A0000 		.4byte	0xa63
 4304 0ffe 6A0A0000 		.4byte	.LLST48
 4305 1002 13       		.uleb128 0x13
 4306 1003 C5060000 		.4byte	.LASF67
 4307 1007 01       		.byte	0x1
 4308 1008 6003     		.2byte	0x360
 4309 100a B7000000 		.4byte	0xb7
 4310 100e 8B0A0000 		.4byte	.LLST49
 4311 1012 13       		.uleb128 0x13
 4312 1013 5E050000 		.4byte	.LASF81
 4313 1017 01       		.byte	0x1
 4314 1018 6003     		.2byte	0x360
 4315 101a DB000000 		.4byte	0xdb
 4316 101e AC0A0000 		.4byte	.LLST50
 4317 1022 21       		.uleb128 0x21
 4318 1023 AF070000 		.4byte	.LASF139
 4319 1027 01       		.byte	0x1
 4320 1028 6003     		.2byte	0x360
 4321 102a 7B020000 		.4byte	0x27b
 4322 102e 02       		.uleb128 0x2
 4323 102f 91       		.byte	0x91
 4324 1030 7C       		.sleb128 -4
 4325 1031 10       		.uleb128 0x10
 4326 1032 18000000 		.4byte	.LVL202
 4327 1036 6C0E0000 		.4byte	0xe6c
 4328 103a 11       		.uleb128 0x11
 4329 103b 01       		.uleb128 0x1
 4330 103c 50       		.byte	0x50
 4331 103d 03       		.uleb128 0x3
 4332 103e F3       		.byte	0xf3
 4333 103f 01       		.uleb128 0x1
 4334 1040 50       		.byte	0x50
 4335 1041 11       		.uleb128 0x11
 4336 1042 01       		.uleb128 0x1
 4337 1043 51       		.byte	0x51
 4338 1044 03       		.uleb128 0x3
 4339 1045 F3       		.byte	0xf3
 4340 1046 01       		.uleb128 0x1
 4341 1047 51       		.byte	0x51
 4342 1048 00       		.byte	0
 4343 1049 00       		.byte	0
 4344 104a 09       		.uleb128 0x9
 4345 104b 7D040000 		.4byte	0x47d
 4346 104f 5A100000 		.4byte	0x105a
 4347 1053 0A       		.uleb128 0xa
 4348 1054 93000000 		.4byte	0x93
 4349 1058 00       		.byte	0
ARM GAS  C:\Users\hamis\AppData\Local\Temp\ccsOK97v.s 			page 97


 4350 1059 00       		.byte	0
 4351 105a 28       		.uleb128 0x28
 4352 105b 5A080000 		.4byte	.LASF156
 4353 105f 01       		.byte	0x1
 4354 1060 4A       		.byte	0x4a
 4355 1061 4A100000 		.4byte	0x104a
 4356 1065 05       		.uleb128 0x5
 4357 1066 03       		.byte	0x3
 4358 1067 00000000 		.4byte	QX_CommsPorts
 4359 106b 09       		.uleb128 0x9
 4360 106c C4040000 		.4byte	0x4c4
 4361 1070 7B100000 		.4byte	0x107b
 4362 1074 0A       		.uleb128 0xa
 4363 1075 93000000 		.4byte	0x93
 4364 1079 00       		.byte	0
 4365 107a 00       		.byte	0
 4366 107b 28       		.uleb128 0x28
 4367 107c B7070000 		.4byte	.LASF157
 4368 1080 01       		.byte	0x1
 4369 1081 45       		.byte	0x45
 4370 1082 6B100000 		.4byte	0x106b
 4371 1086 05       		.uleb128 0x5
 4372 1087 03       		.byte	0x3
 4373 1088 00000000 		.4byte	QX_Servers
 4374 108c 09       		.uleb128 0x9
 4375 108d F0040000 		.4byte	0x4f0
 4376 1091 9C100000 		.4byte	0x109c
 4377 1095 0A       		.uleb128 0xa
 4378 1096 93000000 		.4byte	0x93
 4379 109a 00       		.byte	0
 4380 109b 00       		.byte	0
 4381 109c 28       		.uleb128 0x28
 4382 109d 410A0000 		.4byte	.LASF158
 4383 10a1 01       		.byte	0x1
 4384 10a2 46       		.byte	0x46
 4385 10a3 8C100000 		.4byte	0x108c
 4386 10a7 05       		.uleb128 0x5
 4387 10a8 03       		.byte	0x3
 4388 10a9 00000000 		.4byte	QX_Clients
 4389 10ad 29       		.uleb128 0x29
 4390 10ae B8100000 		.4byte	0x10b8
 4391 10b2 0D       		.uleb128 0xd
 4392 10b3 B8040000 		.4byte	0x4b8
 4393 10b7 00       		.byte	0
 4394 10b8 28       		.uleb128 0x28
 4395 10b9 48090000 		.4byte	.LASF159
 4396 10bd 01       		.byte	0x1
 4397 10be 4D       		.byte	0x4d
 4398 10bf C9100000 		.4byte	0x10c9
 4399 10c3 05       		.uleb128 0x5
 4400 10c4 03       		.byte	0x3
 4401 10c5 00000000 		.4byte	QX_BuildHeader_Legacy
 4402 10c9 0B       		.uleb128 0xb
 4403 10ca 04       		.byte	0x4
 4404 10cb AD100000 		.4byte	0x10ad
 4405 10cf 28       		.uleb128 0x28
 4406 10d0 30060000 		.4byte	.LASF160
ARM GAS  C:\Users\hamis\AppData\Local\Temp\ccsOK97v.s 			page 98


 4407 10d4 01       		.byte	0x1
 4408 10d5 4E       		.byte	0x4e
 4409 10d6 C9100000 		.4byte	0x10c9
 4410 10da 05       		.uleb128 0x5
 4411 10db 03       		.byte	0x3
 4412 10dc 00000000 		.4byte	QX_ParseHeader_Legacy
 4413 10e0 2A       		.uleb128 0x2a
 4414 10e1 60060000 		.4byte	.LASF168
 4415 10e5 60060000 		.4byte	.LASF168
 4416 10e9 2B       		.uleb128 0x2b
 4417 10ea 750A0000 		.4byte	.LASF161
 4418 10ee 750A0000 		.4byte	.LASF161
 4419 10f2 05       		.byte	0x5
 4420 10f3 FB       		.byte	0xfb
 4421 10f4 2C       		.uleb128 0x2c
 4422 10f5 F2070000 		.4byte	.LASF162
 4423 10f9 F2070000 		.4byte	.LASF162
 4424 10fd 05       		.byte	0x5
 4425 10fe 0201     		.2byte	0x102
 4426 1100 2B       		.uleb128 0x2b
 4427 1101 CE000000 		.4byte	.LASF163
 4428 1105 CE000000 		.4byte	.LASF163
 4429 1109 05       		.byte	0x5
 4430 110a FF       		.byte	0xff
 4431 110b 00       		.byte	0
 4432              		.section	.debug_abbrev,"",%progbits
 4433              	.Ldebug_abbrev0:
 4434 0000 01       		.uleb128 0x1
 4435 0001 11       		.uleb128 0x11
 4436 0002 01       		.byte	0x1
 4437 0003 25       		.uleb128 0x25
 4438 0004 0E       		.uleb128 0xe
 4439 0005 13       		.uleb128 0x13
 4440 0006 0B       		.uleb128 0xb
 4441 0007 03       		.uleb128 0x3
 4442 0008 0E       		.uleb128 0xe
 4443 0009 1B       		.uleb128 0x1b
 4444 000a 0E       		.uleb128 0xe
 4445 000b 55       		.uleb128 0x55
 4446 000c 17       		.uleb128 0x17
 4447 000d 11       		.uleb128 0x11
 4448 000e 01       		.uleb128 0x1
 4449 000f 10       		.uleb128 0x10
 4450 0010 17       		.uleb128 0x17
 4451 0011 00       		.byte	0
 4452 0012 00       		.byte	0
 4453 0013 02       		.uleb128 0x2
 4454 0014 24       		.uleb128 0x24
 4455 0015 00       		.byte	0
 4456 0016 0B       		.uleb128 0xb
 4457 0017 0B       		.uleb128 0xb
 4458 0018 3E       		.uleb128 0x3e
 4459 0019 0B       		.uleb128 0xb
 4460 001a 03       		.uleb128 0x3
 4461 001b 0E       		.uleb128 0xe
 4462 001c 00       		.byte	0
 4463 001d 00       		.byte	0
ARM GAS  C:\Users\hamis\AppData\Local\Temp\ccsOK97v.s 			page 99


 4464 001e 03       		.uleb128 0x3
 4465 001f 24       		.uleb128 0x24
 4466 0020 00       		.byte	0
 4467 0021 0B       		.uleb128 0xb
 4468 0022 0B       		.uleb128 0xb
 4469 0023 3E       		.uleb128 0x3e
 4470 0024 0B       		.uleb128 0xb
 4471 0025 03       		.uleb128 0x3
 4472 0026 08       		.uleb128 0x8
 4473 0027 00       		.byte	0
 4474 0028 00       		.byte	0
 4475 0029 04       		.uleb128 0x4
 4476 002a 16       		.uleb128 0x16
 4477 002b 00       		.byte	0
 4478 002c 03       		.uleb128 0x3
 4479 002d 0E       		.uleb128 0xe
 4480 002e 3A       		.uleb128 0x3a
 4481 002f 0B       		.uleb128 0xb
 4482 0030 3B       		.uleb128 0x3b
 4483 0031 0B       		.uleb128 0xb
 4484 0032 49       		.uleb128 0x49
 4485 0033 13       		.uleb128 0x13
 4486 0034 00       		.byte	0
 4487 0035 00       		.byte	0
 4488 0036 05       		.uleb128 0x5
 4489 0037 04       		.uleb128 0x4
 4490 0038 01       		.byte	0x1
 4491 0039 0B       		.uleb128 0xb
 4492 003a 0B       		.uleb128 0xb
 4493 003b 49       		.uleb128 0x49
 4494 003c 13       		.uleb128 0x13
 4495 003d 3A       		.uleb128 0x3a
 4496 003e 0B       		.uleb128 0xb
 4497 003f 3B       		.uleb128 0x3b
 4498 0040 0B       		.uleb128 0xb
 4499 0041 01       		.uleb128 0x1
 4500 0042 13       		.uleb128 0x13
 4501 0043 00       		.byte	0
 4502 0044 00       		.byte	0
 4503 0045 06       		.uleb128 0x6
 4504 0046 28       		.uleb128 0x28
 4505 0047 00       		.byte	0
 4506 0048 03       		.uleb128 0x3
 4507 0049 0E       		.uleb128 0xe
 4508 004a 1C       		.uleb128 0x1c
 4509 004b 0B       		.uleb128 0xb
 4510 004c 00       		.byte	0
 4511 004d 00       		.byte	0
 4512 004e 07       		.uleb128 0x7
 4513 004f 13       		.uleb128 0x13
 4514 0050 01       		.byte	0x1
 4515 0051 0B       		.uleb128 0xb
 4516 0052 0B       		.uleb128 0xb
 4517 0053 3A       		.uleb128 0x3a
 4518 0054 0B       		.uleb128 0xb
 4519 0055 3B       		.uleb128 0x3b
 4520 0056 0B       		.uleb128 0xb
ARM GAS  C:\Users\hamis\AppData\Local\Temp\ccsOK97v.s 			page 100


 4521 0057 01       		.uleb128 0x1
 4522 0058 13       		.uleb128 0x13
 4523 0059 00       		.byte	0
 4524 005a 00       		.byte	0
 4525 005b 08       		.uleb128 0x8
 4526 005c 0D       		.uleb128 0xd
 4527 005d 00       		.byte	0
 4528 005e 03       		.uleb128 0x3
 4529 005f 0E       		.uleb128 0xe
 4530 0060 3A       		.uleb128 0x3a
 4531 0061 0B       		.uleb128 0xb
 4532 0062 3B       		.uleb128 0x3b
 4533 0063 0B       		.uleb128 0xb
 4534 0064 49       		.uleb128 0x49
 4535 0065 13       		.uleb128 0x13
 4536 0066 38       		.uleb128 0x38
 4537 0067 0B       		.uleb128 0xb
 4538 0068 00       		.byte	0
 4539 0069 00       		.byte	0
 4540 006a 09       		.uleb128 0x9
 4541 006b 01       		.uleb128 0x1
 4542 006c 01       		.byte	0x1
 4543 006d 49       		.uleb128 0x49
 4544 006e 13       		.uleb128 0x13
 4545 006f 01       		.uleb128 0x1
 4546 0070 13       		.uleb128 0x13
 4547 0071 00       		.byte	0
 4548 0072 00       		.byte	0
 4549 0073 0A       		.uleb128 0xa
 4550 0074 21       		.uleb128 0x21
 4551 0075 00       		.byte	0
 4552 0076 49       		.uleb128 0x49
 4553 0077 13       		.uleb128 0x13
 4554 0078 2F       		.uleb128 0x2f
 4555 0079 0B       		.uleb128 0xb
 4556 007a 00       		.byte	0
 4557 007b 00       		.byte	0
 4558 007c 0B       		.uleb128 0xb
 4559 007d 0F       		.uleb128 0xf
 4560 007e 00       		.byte	0
 4561 007f 0B       		.uleb128 0xb
 4562 0080 0B       		.uleb128 0xb
 4563 0081 49       		.uleb128 0x49
 4564 0082 13       		.uleb128 0x13
 4565 0083 00       		.byte	0
 4566 0084 00       		.byte	0
 4567 0085 0C       		.uleb128 0xc
 4568 0086 15       		.uleb128 0x15
 4569 0087 01       		.byte	0x1
 4570 0088 27       		.uleb128 0x27
 4571 0089 19       		.uleb128 0x19
 4572 008a 49       		.uleb128 0x49
 4573 008b 13       		.uleb128 0x13
 4574 008c 01       		.uleb128 0x1
 4575 008d 13       		.uleb128 0x13
 4576 008e 00       		.byte	0
 4577 008f 00       		.byte	0
ARM GAS  C:\Users\hamis\AppData\Local\Temp\ccsOK97v.s 			page 101


 4578 0090 0D       		.uleb128 0xd
 4579 0091 05       		.uleb128 0x5
 4580 0092 00       		.byte	0
 4581 0093 49       		.uleb128 0x49
 4582 0094 13       		.uleb128 0x13
 4583 0095 00       		.byte	0
 4584 0096 00       		.byte	0
 4585 0097 0E       		.uleb128 0xe
 4586 0098 2E       		.uleb128 0x2e
 4587 0099 01       		.byte	0x1
 4588 009a 3F       		.uleb128 0x3f
 4589 009b 19       		.uleb128 0x19
 4590 009c 03       		.uleb128 0x3
 4591 009d 0E       		.uleb128 0xe
 4592 009e 3A       		.uleb128 0x3a
 4593 009f 0B       		.uleb128 0xb
 4594 00a0 3B       		.uleb128 0x3b
 4595 00a1 0B       		.uleb128 0xb
 4596 00a2 27       		.uleb128 0x27
 4597 00a3 19       		.uleb128 0x19
 4598 00a4 49       		.uleb128 0x49
 4599 00a5 13       		.uleb128 0x13
 4600 00a6 11       		.uleb128 0x11
 4601 00a7 01       		.uleb128 0x1
 4602 00a8 12       		.uleb128 0x12
 4603 00a9 06       		.uleb128 0x6
 4604 00aa 40       		.uleb128 0x40
 4605 00ab 18       		.uleb128 0x18
 4606 00ac 9742     		.uleb128 0x2117
 4607 00ae 19       		.uleb128 0x19
 4608 00af 01       		.uleb128 0x1
 4609 00b0 13       		.uleb128 0x13
 4610 00b1 00       		.byte	0
 4611 00b2 00       		.byte	0
 4612 00b3 0F       		.uleb128 0xf
 4613 00b4 05       		.uleb128 0x5
 4614 00b5 00       		.byte	0
 4615 00b6 03       		.uleb128 0x3
 4616 00b7 0E       		.uleb128 0xe
 4617 00b8 3A       		.uleb128 0x3a
 4618 00b9 0B       		.uleb128 0xb
 4619 00ba 3B       		.uleb128 0x3b
 4620 00bb 0B       		.uleb128 0xb
 4621 00bc 49       		.uleb128 0x49
 4622 00bd 13       		.uleb128 0x13
 4623 00be 02       		.uleb128 0x2
 4624 00bf 17       		.uleb128 0x17
 4625 00c0 00       		.byte	0
 4626 00c1 00       		.byte	0
 4627 00c2 10       		.uleb128 0x10
 4628 00c3 898201   		.uleb128 0x4109
 4629 00c6 01       		.byte	0x1
 4630 00c7 11       		.uleb128 0x11
 4631 00c8 01       		.uleb128 0x1
 4632 00c9 31       		.uleb128 0x31
 4633 00ca 13       		.uleb128 0x13
 4634 00cb 00       		.byte	0
ARM GAS  C:\Users\hamis\AppData\Local\Temp\ccsOK97v.s 			page 102


 4635 00cc 00       		.byte	0
 4636 00cd 11       		.uleb128 0x11
 4637 00ce 8A8201   		.uleb128 0x410a
 4638 00d1 00       		.byte	0
 4639 00d2 02       		.uleb128 0x2
 4640 00d3 18       		.uleb128 0x18
 4641 00d4 9142     		.uleb128 0x2111
 4642 00d6 18       		.uleb128 0x18
 4643 00d7 00       		.byte	0
 4644 00d8 00       		.byte	0
 4645 00d9 12       		.uleb128 0x12
 4646 00da 2E       		.uleb128 0x2e
 4647 00db 01       		.byte	0x1
 4648 00dc 3F       		.uleb128 0x3f
 4649 00dd 19       		.uleb128 0x19
 4650 00de 03       		.uleb128 0x3
 4651 00df 0E       		.uleb128 0xe
 4652 00e0 3A       		.uleb128 0x3a
 4653 00e1 0B       		.uleb128 0xb
 4654 00e2 3B       		.uleb128 0x3b
 4655 00e3 05       		.uleb128 0x5
 4656 00e4 27       		.uleb128 0x27
 4657 00e5 19       		.uleb128 0x19
 4658 00e6 11       		.uleb128 0x11
 4659 00e7 01       		.uleb128 0x1
 4660 00e8 12       		.uleb128 0x12
 4661 00e9 06       		.uleb128 0x6
 4662 00ea 40       		.uleb128 0x40
 4663 00eb 18       		.uleb128 0x18
 4664 00ec 9742     		.uleb128 0x2117
 4665 00ee 19       		.uleb128 0x19
 4666 00ef 01       		.uleb128 0x1
 4667 00f0 13       		.uleb128 0x13
 4668 00f1 00       		.byte	0
 4669 00f2 00       		.byte	0
 4670 00f3 13       		.uleb128 0x13
 4671 00f4 05       		.uleb128 0x5
 4672 00f5 00       		.byte	0
 4673 00f6 03       		.uleb128 0x3
 4674 00f7 0E       		.uleb128 0xe
 4675 00f8 3A       		.uleb128 0x3a
 4676 00f9 0B       		.uleb128 0xb
 4677 00fa 3B       		.uleb128 0x3b
 4678 00fb 05       		.uleb128 0x5
 4679 00fc 49       		.uleb128 0x49
 4680 00fd 13       		.uleb128 0x13
 4681 00fe 02       		.uleb128 0x2
 4682 00ff 17       		.uleb128 0x17
 4683 0100 00       		.byte	0
 4684 0101 00       		.byte	0
 4685 0102 14       		.uleb128 0x14
 4686 0103 0B       		.uleb128 0xb
 4687 0104 01       		.byte	0x1
 4688 0105 11       		.uleb128 0x11
 4689 0106 01       		.uleb128 0x1
 4690 0107 12       		.uleb128 0x12
 4691 0108 06       		.uleb128 0x6
ARM GAS  C:\Users\hamis\AppData\Local\Temp\ccsOK97v.s 			page 103


 4692 0109 00       		.byte	0
 4693 010a 00       		.byte	0
 4694 010b 15       		.uleb128 0x15
 4695 010c 34       		.uleb128 0x34
 4696 010d 00       		.byte	0
 4697 010e 03       		.uleb128 0x3
 4698 010f 0E       		.uleb128 0xe
 4699 0110 3A       		.uleb128 0x3a
 4700 0111 0B       		.uleb128 0xb
 4701 0112 3B       		.uleb128 0x3b
 4702 0113 05       		.uleb128 0x5
 4703 0114 49       		.uleb128 0x49
 4704 0115 13       		.uleb128 0x13
 4705 0116 02       		.uleb128 0x2
 4706 0117 17       		.uleb128 0x17
 4707 0118 00       		.byte	0
 4708 0119 00       		.byte	0
 4709 011a 16       		.uleb128 0x16
 4710 011b 898201   		.uleb128 0x4109
 4711 011e 01       		.byte	0x1
 4712 011f 11       		.uleb128 0x11
 4713 0120 01       		.uleb128 0x1
 4714 0121 00       		.byte	0
 4715 0122 00       		.byte	0
 4716 0123 17       		.uleb128 0x17
 4717 0124 2E       		.uleb128 0x2e
 4718 0125 01       		.byte	0x1
 4719 0126 3F       		.uleb128 0x3f
 4720 0127 19       		.uleb128 0x19
 4721 0128 03       		.uleb128 0x3
 4722 0129 0E       		.uleb128 0xe
 4723 012a 3A       		.uleb128 0x3a
 4724 012b 0B       		.uleb128 0xb
 4725 012c 3B       		.uleb128 0x3b
 4726 012d 05       		.uleb128 0x5
 4727 012e 27       		.uleb128 0x27
 4728 012f 19       		.uleb128 0x19
 4729 0130 49       		.uleb128 0x49
 4730 0131 13       		.uleb128 0x13
 4731 0132 11       		.uleb128 0x11
 4732 0133 01       		.uleb128 0x1
 4733 0134 12       		.uleb128 0x12
 4734 0135 06       		.uleb128 0x6
 4735 0136 40       		.uleb128 0x40
 4736 0137 18       		.uleb128 0x18
 4737 0138 9742     		.uleb128 0x2117
 4738 013a 19       		.uleb128 0x19
 4739 013b 01       		.uleb128 0x1
 4740 013c 13       		.uleb128 0x13
 4741 013d 00       		.byte	0
 4742 013e 00       		.byte	0
 4743 013f 18       		.uleb128 0x18
 4744 0140 05       		.uleb128 0x5
 4745 0141 00       		.byte	0
 4746 0142 03       		.uleb128 0x3
 4747 0143 08       		.uleb128 0x8
 4748 0144 3A       		.uleb128 0x3a
ARM GAS  C:\Users\hamis\AppData\Local\Temp\ccsOK97v.s 			page 104


 4749 0145 0B       		.uleb128 0xb
 4750 0146 3B       		.uleb128 0x3b
 4751 0147 05       		.uleb128 0x5
 4752 0148 49       		.uleb128 0x49
 4753 0149 13       		.uleb128 0x13
 4754 014a 02       		.uleb128 0x2
 4755 014b 18       		.uleb128 0x18
 4756 014c 00       		.byte	0
 4757 014d 00       		.byte	0
 4758 014e 19       		.uleb128 0x19
 4759 014f 34       		.uleb128 0x34
 4760 0150 00       		.byte	0
 4761 0151 03       		.uleb128 0x3
 4762 0152 08       		.uleb128 0x8
 4763 0153 3A       		.uleb128 0x3a
 4764 0154 0B       		.uleb128 0xb
 4765 0155 3B       		.uleb128 0x3b
 4766 0156 05       		.uleb128 0x5
 4767 0157 49       		.uleb128 0x49
 4768 0158 13       		.uleb128 0x13
 4769 0159 02       		.uleb128 0x2
 4770 015a 17       		.uleb128 0x17
 4771 015b 00       		.byte	0
 4772 015c 00       		.byte	0
 4773 015d 1A       		.uleb128 0x1a
 4774 015e 34       		.uleb128 0x34
 4775 015f 00       		.byte	0
 4776 0160 03       		.uleb128 0x3
 4777 0161 0E       		.uleb128 0xe
 4778 0162 3A       		.uleb128 0x3a
 4779 0163 0B       		.uleb128 0xb
 4780 0164 3B       		.uleb128 0x3b
 4781 0165 05       		.uleb128 0x5
 4782 0166 49       		.uleb128 0x49
 4783 0167 13       		.uleb128 0x13
 4784 0168 02       		.uleb128 0x2
 4785 0169 18       		.uleb128 0x18
 4786 016a 00       		.byte	0
 4787 016b 00       		.byte	0
 4788 016c 1B       		.uleb128 0x1b
 4789 016d 898201   		.uleb128 0x4109
 4790 0170 01       		.byte	0x1
 4791 0171 11       		.uleb128 0x11
 4792 0172 01       		.uleb128 0x1
 4793 0173 31       		.uleb128 0x31
 4794 0174 13       		.uleb128 0x13
 4795 0175 01       		.uleb128 0x1
 4796 0176 13       		.uleb128 0x13
 4797 0177 00       		.byte	0
 4798 0178 00       		.byte	0
 4799 0179 1C       		.uleb128 0x1c
 4800 017a 35       		.uleb128 0x35
 4801 017b 00       		.byte	0
 4802 017c 49       		.uleb128 0x49
 4803 017d 13       		.uleb128 0x13
 4804 017e 00       		.byte	0
 4805 017f 00       		.byte	0
ARM GAS  C:\Users\hamis\AppData\Local\Temp\ccsOK97v.s 			page 105


 4806 0180 1D       		.uleb128 0x1d
 4807 0181 898201   		.uleb128 0x4109
 4808 0184 01       		.byte	0x1
 4809 0185 11       		.uleb128 0x11
 4810 0186 01       		.uleb128 0x1
 4811 0187 01       		.uleb128 0x1
 4812 0188 13       		.uleb128 0x13
 4813 0189 00       		.byte	0
 4814 018a 00       		.byte	0
 4815 018b 1E       		.uleb128 0x1e
 4816 018c 898201   		.uleb128 0x4109
 4817 018f 00       		.byte	0
 4818 0190 11       		.uleb128 0x11
 4819 0191 01       		.uleb128 0x1
 4820 0192 31       		.uleb128 0x31
 4821 0193 13       		.uleb128 0x13
 4822 0194 00       		.byte	0
 4823 0195 00       		.byte	0
 4824 0196 1F       		.uleb128 0x1f
 4825 0197 05       		.uleb128 0x5
 4826 0198 00       		.byte	0
 4827 0199 03       		.uleb128 0x3
 4828 019a 08       		.uleb128 0x8
 4829 019b 3A       		.uleb128 0x3a
 4830 019c 0B       		.uleb128 0xb
 4831 019d 3B       		.uleb128 0x3b
 4832 019e 05       		.uleb128 0x5
 4833 019f 49       		.uleb128 0x49
 4834 01a0 13       		.uleb128 0x13
 4835 01a1 02       		.uleb128 0x2
 4836 01a2 17       		.uleb128 0x17
 4837 01a3 00       		.byte	0
 4838 01a4 00       		.byte	0
 4839 01a5 20       		.uleb128 0x20
 4840 01a6 34       		.uleb128 0x34
 4841 01a7 00       		.byte	0
 4842 01a8 03       		.uleb128 0x3
 4843 01a9 0E       		.uleb128 0xe
 4844 01aa 3A       		.uleb128 0x3a
 4845 01ab 0B       		.uleb128 0xb
 4846 01ac 3B       		.uleb128 0x3b
 4847 01ad 05       		.uleb128 0x5
 4848 01ae 49       		.uleb128 0x49
 4849 01af 13       		.uleb128 0x13
 4850 01b0 00       		.byte	0
 4851 01b1 00       		.byte	0
 4852 01b2 21       		.uleb128 0x21
 4853 01b3 05       		.uleb128 0x5
 4854 01b4 00       		.byte	0
 4855 01b5 03       		.uleb128 0x3
 4856 01b6 0E       		.uleb128 0xe
 4857 01b7 3A       		.uleb128 0x3a
 4858 01b8 0B       		.uleb128 0xb
 4859 01b9 3B       		.uleb128 0x3b
 4860 01ba 05       		.uleb128 0x5
 4861 01bb 49       		.uleb128 0x49
 4862 01bc 13       		.uleb128 0x13
ARM GAS  C:\Users\hamis\AppData\Local\Temp\ccsOK97v.s 			page 106


 4863 01bd 02       		.uleb128 0x2
 4864 01be 18       		.uleb128 0x18
 4865 01bf 00       		.byte	0
 4866 01c0 00       		.byte	0
 4867 01c1 22       		.uleb128 0x22
 4868 01c2 34       		.uleb128 0x34
 4869 01c3 00       		.byte	0
 4870 01c4 03       		.uleb128 0x3
 4871 01c5 08       		.uleb128 0x8
 4872 01c6 3A       		.uleb128 0x3a
 4873 01c7 0B       		.uleb128 0xb
 4874 01c8 3B       		.uleb128 0x3b
 4875 01c9 05       		.uleb128 0x5
 4876 01ca 49       		.uleb128 0x49
 4877 01cb 13       		.uleb128 0x13
 4878 01cc 02       		.uleb128 0x2
 4879 01cd 18       		.uleb128 0x18
 4880 01ce 00       		.byte	0
 4881 01cf 00       		.byte	0
 4882 01d0 23       		.uleb128 0x23
 4883 01d1 26       		.uleb128 0x26
 4884 01d2 00       		.byte	0
 4885 01d3 49       		.uleb128 0x49
 4886 01d4 13       		.uleb128 0x13
 4887 01d5 00       		.byte	0
 4888 01d6 00       		.byte	0
 4889 01d7 24       		.uleb128 0x24
 4890 01d8 0B       		.uleb128 0xb
 4891 01d9 01       		.byte	0x1
 4892 01da 11       		.uleb128 0x11
 4893 01db 01       		.uleb128 0x1
 4894 01dc 12       		.uleb128 0x12
 4895 01dd 06       		.uleb128 0x6
 4896 01de 01       		.uleb128 0x1
 4897 01df 13       		.uleb128 0x13
 4898 01e0 00       		.byte	0
 4899 01e1 00       		.byte	0
 4900 01e2 25       		.uleb128 0x25
 4901 01e3 2E       		.uleb128 0x2e
 4902 01e4 01       		.byte	0x1
 4903 01e5 3F       		.uleb128 0x3f
 4904 01e6 19       		.uleb128 0x19
 4905 01e7 03       		.uleb128 0x3
 4906 01e8 0E       		.uleb128 0xe
 4907 01e9 3A       		.uleb128 0x3a
 4908 01ea 0B       		.uleb128 0xb
 4909 01eb 3B       		.uleb128 0x3b
 4910 01ec 0B       		.uleb128 0xb
 4911 01ed 27       		.uleb128 0x27
 4912 01ee 19       		.uleb128 0x19
 4913 01ef 11       		.uleb128 0x11
 4914 01f0 01       		.uleb128 0x1
 4915 01f1 12       		.uleb128 0x12
 4916 01f2 06       		.uleb128 0x6
 4917 01f3 40       		.uleb128 0x40
 4918 01f4 18       		.uleb128 0x18
 4919 01f5 9742     		.uleb128 0x2117
ARM GAS  C:\Users\hamis\AppData\Local\Temp\ccsOK97v.s 			page 107


 4920 01f7 19       		.uleb128 0x19
 4921 01f8 01       		.uleb128 0x1
 4922 01f9 13       		.uleb128 0x13
 4923 01fa 00       		.byte	0
 4924 01fb 00       		.byte	0
 4925 01fc 26       		.uleb128 0x26
 4926 01fd 34       		.uleb128 0x34
 4927 01fe 00       		.byte	0
 4928 01ff 03       		.uleb128 0x3
 4929 0200 0E       		.uleb128 0xe
 4930 0201 3A       		.uleb128 0x3a
 4931 0202 0B       		.uleb128 0xb
 4932 0203 3B       		.uleb128 0x3b
 4933 0204 0B       		.uleb128 0xb
 4934 0205 49       		.uleb128 0x49
 4935 0206 13       		.uleb128 0x13
 4936 0207 02       		.uleb128 0x2
 4937 0208 17       		.uleb128 0x17
 4938 0209 00       		.byte	0
 4939 020a 00       		.byte	0
 4940 020b 27       		.uleb128 0x27
 4941 020c 34       		.uleb128 0x34
 4942 020d 00       		.byte	0
 4943 020e 03       		.uleb128 0x3
 4944 020f 0E       		.uleb128 0xe
 4945 0210 3A       		.uleb128 0x3a
 4946 0211 0B       		.uleb128 0xb
 4947 0212 3B       		.uleb128 0x3b
 4948 0213 0B       		.uleb128 0xb
 4949 0214 49       		.uleb128 0x49
 4950 0215 13       		.uleb128 0x13
 4951 0216 02       		.uleb128 0x2
 4952 0217 18       		.uleb128 0x18
 4953 0218 00       		.byte	0
 4954 0219 00       		.byte	0
 4955 021a 28       		.uleb128 0x28
 4956 021b 34       		.uleb128 0x34
 4957 021c 00       		.byte	0
 4958 021d 03       		.uleb128 0x3
 4959 021e 0E       		.uleb128 0xe
 4960 021f 3A       		.uleb128 0x3a
 4961 0220 0B       		.uleb128 0xb
 4962 0221 3B       		.uleb128 0x3b
 4963 0222 0B       		.uleb128 0xb
 4964 0223 49       		.uleb128 0x49
 4965 0224 13       		.uleb128 0x13
 4966 0225 3F       		.uleb128 0x3f
 4967 0226 19       		.uleb128 0x19
 4968 0227 02       		.uleb128 0x2
 4969 0228 18       		.uleb128 0x18
 4970 0229 00       		.byte	0
 4971 022a 00       		.byte	0
 4972 022b 29       		.uleb128 0x29
 4973 022c 15       		.uleb128 0x15
 4974 022d 01       		.byte	0x1
 4975 022e 27       		.uleb128 0x27
 4976 022f 19       		.uleb128 0x19
ARM GAS  C:\Users\hamis\AppData\Local\Temp\ccsOK97v.s 			page 108


 4977 0230 01       		.uleb128 0x1
 4978 0231 13       		.uleb128 0x13
 4979 0232 00       		.byte	0
 4980 0233 00       		.byte	0
 4981 0234 2A       		.uleb128 0x2a
 4982 0235 2E       		.uleb128 0x2e
 4983 0236 00       		.byte	0
 4984 0237 3F       		.uleb128 0x3f
 4985 0238 19       		.uleb128 0x19
 4986 0239 3C       		.uleb128 0x3c
 4987 023a 19       		.uleb128 0x19
 4988 023b 6E       		.uleb128 0x6e
 4989 023c 0E       		.uleb128 0xe
 4990 023d 03       		.uleb128 0x3
 4991 023e 0E       		.uleb128 0xe
 4992 023f 00       		.byte	0
 4993 0240 00       		.byte	0
 4994 0241 2B       		.uleb128 0x2b
 4995 0242 2E       		.uleb128 0x2e
 4996 0243 00       		.byte	0
 4997 0244 3F       		.uleb128 0x3f
 4998 0245 19       		.uleb128 0x19
 4999 0246 3C       		.uleb128 0x3c
 5000 0247 19       		.uleb128 0x19
 5001 0248 6E       		.uleb128 0x6e
 5002 0249 0E       		.uleb128 0xe
 5003 024a 03       		.uleb128 0x3
 5004 024b 0E       		.uleb128 0xe
 5005 024c 3A       		.uleb128 0x3a
 5006 024d 0B       		.uleb128 0xb
 5007 024e 3B       		.uleb128 0x3b
 5008 024f 0B       		.uleb128 0xb
 5009 0250 00       		.byte	0
 5010 0251 00       		.byte	0
 5011 0252 2C       		.uleb128 0x2c
 5012 0253 2E       		.uleb128 0x2e
 5013 0254 00       		.byte	0
 5014 0255 3F       		.uleb128 0x3f
 5015 0256 19       		.uleb128 0x19
 5016 0257 3C       		.uleb128 0x3c
 5017 0258 19       		.uleb128 0x19
 5018 0259 6E       		.uleb128 0x6e
 5019 025a 0E       		.uleb128 0xe
 5020 025b 03       		.uleb128 0x3
 5021 025c 0E       		.uleb128 0xe
 5022 025d 3A       		.uleb128 0x3a
 5023 025e 0B       		.uleb128 0xb
 5024 025f 3B       		.uleb128 0x3b
 5025 0260 05       		.uleb128 0x5
 5026 0261 00       		.byte	0
 5027 0262 00       		.byte	0
 5028 0263 00       		.byte	0
 5029              		.section	.debug_loc,"",%progbits
 5030              	.Ldebug_loc0:
 5031              	.LLST0:
 5032 0000 00000000 		.4byte	.LVL0
 5033 0004 09000000 		.4byte	.LVL1-1
ARM GAS  C:\Users\hamis\AppData\Local\Temp\ccsOK97v.s 			page 109


 5034 0008 0100     		.2byte	0x1
 5035 000a 50       		.byte	0x50
 5036 000b 09000000 		.4byte	.LVL1-1
 5037 000f 0E000000 		.4byte	.LFE0
 5038 0013 0400     		.2byte	0x4
 5039 0015 F3       		.byte	0xf3
 5040 0016 01       		.uleb128 0x1
 5041 0017 50       		.byte	0x50
 5042 0018 9F       		.byte	0x9f
 5043 0019 00000000 		.4byte	0
 5044 001d 00000000 		.4byte	0
 5045              	.LLST1:
 5046 0021 00000000 		.4byte	.LVL2
 5047 0025 0C000000 		.4byte	.LVL4
 5048 0029 0100     		.2byte	0x1
 5049 002b 50       		.byte	0x50
 5050 002c 0C000000 		.4byte	.LVL4
 5051 0030 20000000 		.4byte	.LVL7
 5052 0034 0100     		.2byte	0x1
 5053 0036 55       		.byte	0x55
 5054 0037 20000000 		.4byte	.LVL7
 5055 003b 24000000 		.4byte	.LFE4
 5056 003f 0400     		.2byte	0x4
 5057 0041 F3       		.byte	0xf3
 5058 0042 01       		.uleb128 0x1
 5059 0043 50       		.byte	0x50
 5060 0044 9F       		.byte	0x9f
 5061 0045 00000000 		.4byte	0
 5062 0049 00000000 		.4byte	0
 5063              	.LLST2:
 5064 004d 08000000 		.4byte	.LVL3
 5065 0051 0C000000 		.4byte	.LVL4
 5066 0055 0200     		.2byte	0x2
 5067 0057 30       		.byte	0x30
 5068 0058 9F       		.byte	0x9f
 5069 0059 0C000000 		.4byte	.LVL4
 5070 005d 20000000 		.4byte	.LVL7
 5071 0061 0100     		.2byte	0x1
 5072 0063 54       		.byte	0x54
 5073 0064 00000000 		.4byte	0
 5074 0068 00000000 		.4byte	0
 5075              	.LLST3:
 5076 006c 00000000 		.4byte	.LVL8
 5077 0070 08000000 		.4byte	.LVL10
 5078 0074 0100     		.2byte	0x1
 5079 0076 50       		.byte	0x50
 5080 0077 08000000 		.4byte	.LVL10
 5081 007b 12000000 		.4byte	.LVL14
 5082 007f 0300     		.2byte	0x3
 5083 0081 70       		.byte	0x70
 5084 0082 01       		.sleb128 1
 5085 0083 9F       		.byte	0x9f
 5086 0084 12000000 		.4byte	.LVL14
 5087 0088 18000000 		.4byte	.LVL15
 5088 008c 0100     		.2byte	0x1
 5089 008e 50       		.byte	0x50
 5090 008f 00000000 		.4byte	0
ARM GAS  C:\Users\hamis\AppData\Local\Temp\ccsOK97v.s 			page 110


 5091 0093 00000000 		.4byte	0
 5092              	.LLST4:
 5093 0097 02000000 		.4byte	.LVL9
 5094 009b 08000000 		.4byte	.LVL10
 5095 009f 0200     		.2byte	0x2
 5096 00a1 30       		.byte	0x30
 5097 00a2 9F       		.byte	0x9f
 5098 00a3 08000000 		.4byte	.LVL10
 5099 00a7 1C000000 		.4byte	.LFE9
 5100 00ab 0100     		.2byte	0x1
 5101 00ad 52       		.byte	0x52
 5102 00ae 00000000 		.4byte	0
 5103 00b2 00000000 		.4byte	0
 5104              	.LLST5:
 5105 00b6 02000000 		.4byte	.LVL9
 5106 00ba 08000000 		.4byte	.LVL10
 5107 00be 0200     		.2byte	0x2
 5108 00c0 30       		.byte	0x30
 5109 00c1 9F       		.byte	0x9f
 5110 00c2 08000000 		.4byte	.LVL10
 5111 00c6 0C000000 		.4byte	.LVL11
 5112 00ca 0100     		.2byte	0x1
 5113 00cc 53       		.byte	0x53
 5114 00cd 0E000000 		.4byte	.LVL12
 5115 00d1 1C000000 		.4byte	.LFE9
 5116 00d5 0100     		.2byte	0x1
 5117 00d7 53       		.byte	0x53
 5118 00d8 00000000 		.4byte	0
 5119 00dc 00000000 		.4byte	0
 5120              	.LLST6:
 5121 00e0 02000000 		.4byte	.LVL17
 5122 00e4 06000000 		.4byte	.LVL18
 5123 00e8 0200     		.2byte	0x2
 5124 00ea 30       		.byte	0x30
 5125 00eb 9F       		.byte	0x9f
 5126 00ec 06000000 		.4byte	.LVL18
 5127 00f0 14000000 		.4byte	.LVL20
 5128 00f4 0100     		.2byte	0x1
 5129 00f6 52       		.byte	0x52
 5130 00f7 14000000 		.4byte	.LVL20
 5131 00fb 30000000 		.4byte	.LVL24
 5132 00ff 0300     		.2byte	0x3
 5133 0101 72       		.byte	0x72
 5134 0102 7F       		.sleb128 -1
 5135 0103 9F       		.byte	0x9f
 5136 0104 30000000 		.4byte	.LVL24
 5137 0108 32000000 		.4byte	.LVL25
 5138 010c 0100     		.2byte	0x1
 5139 010e 52       		.byte	0x52
 5140 010f 32000000 		.4byte	.LVL25
 5141 0113 34000000 		.4byte	.LVL26
 5142 0117 0300     		.2byte	0x3
 5143 0119 72       		.byte	0x72
 5144 011a 7F       		.sleb128 -1
 5145 011b 9F       		.byte	0x9f
 5146 011c 3E000000 		.4byte	.LVL29
 5147 0120 42000000 		.4byte	.LVL30
ARM GAS  C:\Users\hamis\AppData\Local\Temp\ccsOK97v.s 			page 111


 5148 0124 0100     		.2byte	0x1
 5149 0126 52       		.byte	0x52
 5150 0127 00000000 		.4byte	0
 5151 012b 00000000 		.4byte	0
 5152              	.LLST7:
 5153 012f 12000000 		.4byte	.LVL19
 5154 0133 28000000 		.4byte	.LVL23
 5155 0137 0100     		.2byte	0x1
 5156 0139 53       		.byte	0x53
 5157 013a 28000000 		.4byte	.LVL23
 5158 013e 32000000 		.4byte	.LVL25
 5159 0142 0E00     		.2byte	0xe
 5160 0144 71       		.byte	0x71
 5161 0145 00       		.sleb128 0
 5162 0146 72       		.byte	0x72
 5163 0147 7F       		.sleb128 -1
 5164 0148 33       		.byte	0x33
 5165 0149 24       		.byte	0x24
 5166 014a 72       		.byte	0x72
 5167 014b 7F       		.sleb128 -1
 5168 014c 1C       		.byte	0x1c
 5169 014d 25       		.byte	0x25
 5170 014e 08       		.byte	0x8
 5171 014f 7F       		.byte	0x7f
 5172 0150 1A       		.byte	0x1a
 5173 0151 9F       		.byte	0x9f
 5174 0152 32000000 		.4byte	.LVL25
 5175 0156 38000000 		.4byte	.LVL27
 5176 015a 0100     		.2byte	0x1
 5177 015c 53       		.byte	0x53
 5178 015d 38000000 		.4byte	.LVL27
 5179 0161 3C000000 		.4byte	.LVL28
 5180 0165 0200     		.2byte	0x2
 5181 0167 72       		.byte	0x72
 5182 0168 00       		.sleb128 0
 5183 0169 00000000 		.4byte	0
 5184 016d 00000000 		.4byte	0
 5185              	.LLST8:
 5186 0171 1C000000 		.4byte	.LVL21
 5187 0175 24000000 		.4byte	.LVL22
 5188 0179 0600     		.2byte	0x6
 5189 017b 74       		.byte	0x74
 5190 017c 00       		.sleb128 0
 5191 017d 08       		.byte	0x8
 5192 017e 7F       		.byte	0x7f
 5193 017f 1A       		.byte	0x1a
 5194 0180 9F       		.byte	0x9f
 5195 0181 24000000 		.4byte	.LVL22
 5196 0185 32000000 		.4byte	.LVL25
 5197 0189 0E00     		.2byte	0xe
 5198 018b 71       		.byte	0x71
 5199 018c 00       		.sleb128 0
 5200 018d 72       		.byte	0x72
 5201 018e 00       		.sleb128 0
 5202 018f 33       		.byte	0x33
 5203 0190 24       		.byte	0x24
 5204 0191 72       		.byte	0x72
ARM GAS  C:\Users\hamis\AppData\Local\Temp\ccsOK97v.s 			page 112


 5205 0192 00       		.sleb128 0
 5206 0193 1C       		.byte	0x1c
 5207 0194 25       		.byte	0x25
 5208 0195 08       		.byte	0x8
 5209 0196 7F       		.byte	0x7f
 5210 0197 1A       		.byte	0x1a
 5211 0198 9F       		.byte	0x9f
 5212 0199 32000000 		.4byte	.LVL25
 5213 019d 3E000000 		.4byte	.LVL29
 5214 01a1 0600     		.2byte	0x6
 5215 01a3 74       		.byte	0x74
 5216 01a4 00       		.sleb128 0
 5217 01a5 08       		.byte	0x8
 5218 01a6 7F       		.byte	0x7f
 5219 01a7 1A       		.byte	0x1a
 5220 01a8 9F       		.byte	0x9f
 5221 01a9 00000000 		.4byte	0
 5222 01ad 00000000 		.4byte	0
 5223              	.LLST9:
 5224 01b1 00000000 		.4byte	.LVL31
 5225 01b5 12000000 		.4byte	.LVL32
 5226 01b9 0100     		.2byte	0x1
 5227 01bb 50       		.byte	0x50
 5228 01bc 12000000 		.4byte	.LVL32
 5229 01c0 F0000000 		.4byte	.LFE7
 5230 01c4 0100     		.2byte	0x1
 5231 01c6 54       		.byte	0x54
 5232 01c7 00000000 		.4byte	0
 5233 01cb 00000000 		.4byte	0
 5234              	.LLST10:
 5235 01cf 00000000 		.4byte	.LVL38
 5236 01d3 15000000 		.4byte	.LVL39-1
 5237 01d7 0100     		.2byte	0x1
 5238 01d9 50       		.byte	0x50
 5239 01da 15000000 		.4byte	.LVL39-1
 5240 01de 1A000000 		.4byte	.LVL40
 5241 01e2 0400     		.2byte	0x4
 5242 01e4 F3       		.byte	0xf3
 5243 01e5 01       		.uleb128 0x1
 5244 01e6 50       		.byte	0x50
 5245 01e7 9F       		.byte	0x9f
 5246 01e8 1A000000 		.4byte	.LVL40
 5247 01ec 1D000000 		.4byte	.LVL41-1
 5248 01f0 0100     		.2byte	0x1
 5249 01f2 50       		.byte	0x50
 5250 01f3 1D000000 		.4byte	.LVL41-1
 5251 01f7 22000000 		.4byte	.LVL42
 5252 01fb 0400     		.2byte	0x4
 5253 01fd F3       		.byte	0xf3
 5254 01fe 01       		.uleb128 0x1
 5255 01ff 50       		.byte	0x50
 5256 0200 9F       		.byte	0x9f
 5257 0201 22000000 		.4byte	.LVL42
 5258 0205 24000000 		.4byte	.LVL43
 5259 0209 0100     		.2byte	0x1
 5260 020b 50       		.byte	0x50
 5261 020c 24000000 		.4byte	.LVL43
ARM GAS  C:\Users\hamis\AppData\Local\Temp\ccsOK97v.s 			page 113


 5262 0210 2C000000 		.4byte	.LFE5
 5263 0214 0400     		.2byte	0x4
 5264 0216 F3       		.byte	0xf3
 5265 0217 01       		.uleb128 0x1
 5266 0218 50       		.byte	0x50
 5267 0219 9F       		.byte	0x9f
 5268 021a 00000000 		.4byte	0
 5269 021e 00000000 		.4byte	0
 5270              	.LLST11:
 5271 0222 00000000 		.4byte	.LVL44
 5272 0226 08000000 		.4byte	.LVL46
 5273 022a 0100     		.2byte	0x1
 5274 022c 50       		.byte	0x50
 5275 022d 08000000 		.4byte	.LVL46
 5276 0231 34000000 		.4byte	.LVL51
 5277 0235 0100     		.2byte	0x1
 5278 0237 55       		.byte	0x55
 5279 0238 34000000 		.4byte	.LVL51
 5280 023c 36000000 		.4byte	.LFE11
 5281 0240 0400     		.2byte	0x4
 5282 0242 F3       		.byte	0xf3
 5283 0243 01       		.uleb128 0x1
 5284 0244 50       		.byte	0x50
 5285 0245 9F       		.byte	0x9f
 5286 0246 00000000 		.4byte	0
 5287 024a 00000000 		.4byte	0
 5288              	.LLST12:
 5289 024e 04000000 		.4byte	.LVL45
 5290 0252 0A000000 		.4byte	.LVL47
 5291 0256 0200     		.2byte	0x2
 5292 0258 30       		.byte	0x30
 5293 0259 9F       		.byte	0x9f
 5294 025a 0A000000 		.4byte	.LVL47
 5295 025e 36000000 		.4byte	.LFE11
 5296 0262 0100     		.2byte	0x1
 5297 0264 50       		.byte	0x50
 5298 0265 00000000 		.4byte	0
 5299 0269 00000000 		.4byte	0
 5300              	.LLST13:
 5301 026d 04000000 		.4byte	.LVL45
 5302 0271 0A000000 		.4byte	.LVL47
 5303 0275 0200     		.2byte	0x2
 5304 0277 30       		.byte	0x30
 5305 0278 9F       		.byte	0x9f
 5306 0279 0A000000 		.4byte	.LVL47
 5307 027d 36000000 		.4byte	.LFE11
 5308 0281 0100     		.2byte	0x1
 5309 0283 53       		.byte	0x53
 5310 0284 00000000 		.4byte	0
 5311 0288 00000000 		.4byte	0
 5312              	.LLST14:
 5313 028c 00000000 		.4byte	.LVL52
 5314 0290 10000000 		.4byte	.LVL53
 5315 0294 0100     		.2byte	0x1
 5316 0296 50       		.byte	0x50
 5317 0297 10000000 		.4byte	.LVL53
 5318 029b 9C000000 		.4byte	.LFE8
ARM GAS  C:\Users\hamis\AppData\Local\Temp\ccsOK97v.s 			page 114


 5319 029f 0100     		.2byte	0x1
 5320 02a1 54       		.byte	0x54
 5321 02a2 00000000 		.4byte	0
 5322 02a6 00000000 		.4byte	0
 5323              	.LLST15:
 5324 02aa 00000000 		.4byte	.LVL60
 5325 02ae 02000000 		.4byte	.LVL61
 5326 02b2 0100     		.2byte	0x1
 5327 02b4 50       		.byte	0x50
 5328 02b5 02000000 		.4byte	.LVL61
 5329 02b9 24000000 		.4byte	.LFE13
 5330 02bd 0400     		.2byte	0x4
 5331 02bf F3       		.byte	0xf3
 5332 02c0 01       		.uleb128 0x1
 5333 02c1 50       		.byte	0x50
 5334 02c2 9F       		.byte	0x9f
 5335 02c3 00000000 		.4byte	0
 5336 02c7 00000000 		.4byte	0
 5337              	.LLST16:
 5338 02cb 02000000 		.4byte	.LVL61
 5339 02cf 06000000 		.4byte	.LVL62
 5340 02d3 0200     		.2byte	0x2
 5341 02d5 30       		.byte	0x30
 5342 02d6 9F       		.byte	0x9f
 5343 02d7 06000000 		.4byte	.LVL62
 5344 02db 16000000 		.4byte	.LVL65
 5345 02df 0100     		.2byte	0x1
 5346 02e1 53       		.byte	0x53
 5347 02e2 18000000 		.4byte	.LVL66
 5348 02e6 24000000 		.4byte	.LFE13
 5349 02ea 0100     		.2byte	0x1
 5350 02ec 53       		.byte	0x53
 5351 02ed 00000000 		.4byte	0
 5352 02f1 00000000 		.4byte	0
 5353              	.LLST17:
 5354 02f5 00000000 		.4byte	.LVL67
 5355 02f9 0C000000 		.4byte	.LVL69
 5356 02fd 0100     		.2byte	0x1
 5357 02ff 50       		.byte	0x50
 5358 0300 0C000000 		.4byte	.LVL69
 5359 0304 24000000 		.4byte	.LFE14
 5360 0308 0400     		.2byte	0x4
 5361 030a F3       		.byte	0xf3
 5362 030b 01       		.uleb128 0x1
 5363 030c 50       		.byte	0x50
 5364 030d 9F       		.byte	0x9f
 5365 030e 00000000 		.4byte	0
 5366 0312 00000000 		.4byte	0
 5367              	.LLST18:
 5368 0316 00000000 		.4byte	.LVL67
 5369 031a 0C000000 		.4byte	.LVL69
 5370 031e 0100     		.2byte	0x1
 5371 0320 51       		.byte	0x51
 5372 0321 0C000000 		.4byte	.LVL69
 5373 0325 24000000 		.4byte	.LFE14
 5374 0329 0100     		.2byte	0x1
 5375 032b 57       		.byte	0x57
ARM GAS  C:\Users\hamis\AppData\Local\Temp\ccsOK97v.s 			page 115


 5376 032c 00000000 		.4byte	0
 5377 0330 00000000 		.4byte	0
 5378              	.LLST19:
 5379 0334 00000000 		.4byte	.LVL67
 5380 0338 0C000000 		.4byte	.LVL69
 5381 033c 0100     		.2byte	0x1
 5382 033e 52       		.byte	0x52
 5383 033f 0C000000 		.4byte	.LVL69
 5384 0343 24000000 		.4byte	.LFE14
 5385 0347 0100     		.2byte	0x1
 5386 0349 56       		.byte	0x56
 5387 034a 00000000 		.4byte	0
 5388 034e 00000000 		.4byte	0
 5389              	.LLST20:
 5390 0352 08000000 		.4byte	.LVL68
 5391 0356 0C000000 		.4byte	.LVL69
 5392 035a 0200     		.2byte	0x2
 5393 035c 30       		.byte	0x30
 5394 035d 9F       		.byte	0x9f
 5395 035e 0C000000 		.4byte	.LVL69
 5396 0362 24000000 		.4byte	.LFE14
 5397 0366 0100     		.2byte	0x1
 5398 0368 54       		.byte	0x54
 5399 0369 00000000 		.4byte	0
 5400 036d 00000000 		.4byte	0
 5401              	.LLST21:
 5402 0371 08000000 		.4byte	.LVL68
 5403 0375 0C000000 		.4byte	.LVL69
 5404 0379 0100     		.2byte	0x1
 5405 037b 50       		.byte	0x50
 5406 037c 0C000000 		.4byte	.LVL69
 5407 0380 24000000 		.4byte	.LFE14
 5408 0384 0100     		.2byte	0x1
 5409 0386 55       		.byte	0x55
 5410 0387 00000000 		.4byte	0
 5411 038b 00000000 		.4byte	0
 5412              	.LLST22:
 5413 038f 00000000 		.4byte	.LVL73
 5414 0393 4C000000 		.4byte	.LVL79
 5415 0397 0100     		.2byte	0x1
 5416 0399 50       		.byte	0x50
 5417 039a 4C000000 		.4byte	.LVL79
 5418 039e FA000000 		.4byte	.LVL86
 5419 03a2 0100     		.2byte	0x1
 5420 03a4 54       		.byte	0x54
 5421 03a5 FA000000 		.4byte	.LVL86
 5422 03a9 FC000000 		.4byte	.LVL87
 5423 03ad 0100     		.2byte	0x1
 5424 03af 50       		.byte	0x50
 5425 03b0 FC000000 		.4byte	.LVL87
 5426 03b4 FE000000 		.4byte	.LVL88
 5427 03b8 0400     		.2byte	0x4
 5428 03ba F3       		.byte	0xf3
 5429 03bb 01       		.uleb128 0x1
 5430 03bc 50       		.byte	0x50
 5431 03bd 9F       		.byte	0x9f
 5432 03be FE000000 		.4byte	.LVL88
ARM GAS  C:\Users\hamis\AppData\Local\Temp\ccsOK97v.s 			page 116


 5433 03c2 02010000 		.4byte	.LFE6
 5434 03c6 0100     		.2byte	0x1
 5435 03c8 54       		.byte	0x54
 5436 03c9 00000000 		.4byte	0
 5437 03cd 00000000 		.4byte	0
 5438              	.LLST23:
 5439 03d1 00000000 		.4byte	.LVL73
 5440 03d5 22000000 		.4byte	.LVL74
 5441 03d9 0200     		.2byte	0x2
 5442 03db 30       		.byte	0x30
 5443 03dc 9F       		.byte	0x9f
 5444 03dd 22000000 		.4byte	.LVL74
 5445 03e1 26000000 		.4byte	.LVL75
 5446 03e5 0200     		.2byte	0x2
 5447 03e7 31       		.byte	0x31
 5448 03e8 9F       		.byte	0x9f
 5449 03e9 26000000 		.4byte	.LVL75
 5450 03ed 2E000000 		.4byte	.LVL76
 5451 03f1 0200     		.2byte	0x2
 5452 03f3 30       		.byte	0x30
 5453 03f4 9F       		.byte	0x9f
 5454 03f5 30000000 		.4byte	.LVL77
 5455 03f9 FA000000 		.4byte	.LVL86
 5456 03fd 0100     		.2byte	0x1
 5457 03ff 56       		.byte	0x56
 5458 0400 FA000000 		.4byte	.LVL86
 5459 0404 FE000000 		.4byte	.LVL88
 5460 0408 0200     		.2byte	0x2
 5461 040a 30       		.byte	0x30
 5462 040b 9F       		.byte	0x9f
 5463 040c FE000000 		.4byte	.LVL88
 5464 0410 02010000 		.4byte	.LFE6
 5465 0414 0100     		.2byte	0x1
 5466 0416 56       		.byte	0x56
 5467 0417 00000000 		.4byte	0
 5468 041b 00000000 		.4byte	0
 5469              	.LLST24:
 5470 041f DC000000 		.4byte	.LVL83
 5471 0423 E4000000 		.4byte	.LVL84
 5472 0427 0100     		.2byte	0x1
 5473 0429 50       		.byte	0x50
 5474 042a 00000000 		.4byte	0
 5475 042e 00000000 		.4byte	0
 5476              	.LLST25:
 5477 0432 46000000 		.4byte	.LVL78
 5478 0436 5C000000 		.4byte	.LVL81
 5479 043a 0100     		.2byte	0x1
 5480 043c 55       		.byte	0x55
 5481 043d 00000000 		.4byte	0
 5482 0441 00000000 		.4byte	0
 5483              	.LLST26:
 5484 0445 00000000 		.4byte	.LVL91
 5485 0449 07000000 		.4byte	.LVL92-1
 5486 044d 0100     		.2byte	0x1
 5487 044f 50       		.byte	0x50
 5488 0450 07000000 		.4byte	.LVL92-1
 5489 0454 34000000 		.4byte	.LFE18
ARM GAS  C:\Users\hamis\AppData\Local\Temp\ccsOK97v.s 			page 117


 5490 0458 0400     		.2byte	0x4
 5491 045a F3       		.byte	0xf3
 5492 045b 01       		.uleb128 0x1
 5493 045c 50       		.byte	0x50
 5494 045d 9F       		.byte	0x9f
 5495 045e 00000000 		.4byte	0
 5496 0462 00000000 		.4byte	0
 5497              	.LLST27:
 5498 0466 00000000 		.4byte	.LVL94
 5499 046a 10000000 		.4byte	.LVL95
 5500 046e 0100     		.2byte	0x1
 5501 0470 50       		.byte	0x50
 5502 0471 10000000 		.4byte	.LVL95
 5503 0475 6C000000 		.4byte	.LVL101
 5504 0479 0100     		.2byte	0x1
 5505 047b 54       		.byte	0x54
 5506 047c 6C000000 		.4byte	.LVL101
 5507 0480 70000000 		.4byte	.LFE20
 5508 0484 0400     		.2byte	0x4
 5509 0486 F3       		.byte	0xf3
 5510 0487 01       		.uleb128 0x1
 5511 0488 50       		.byte	0x50
 5512 0489 9F       		.byte	0x9f
 5513 048a 00000000 		.4byte	0
 5514 048e 00000000 		.4byte	0
 5515              	.LLST28:
 5516 0492 00000000 		.4byte	.LVL94
 5517 0496 13000000 		.4byte	.LVL96-1
 5518 049a 0100     		.2byte	0x1
 5519 049c 51       		.byte	0x51
 5520 049d 13000000 		.4byte	.LVL96-1
 5521 04a1 1C000000 		.4byte	.LVL97
 5522 04a5 0100     		.2byte	0x1
 5523 04a7 55       		.byte	0x55
 5524 04a8 1C000000 		.4byte	.LVL97
 5525 04ac 53000000 		.4byte	.LVL98-1
 5526 04b0 0300     		.2byte	0x3
 5527 04b2 91       		.byte	0x91
 5528 04b3 F07E     		.sleb128 -144
 5529 04b5 53000000 		.4byte	.LVL98-1
 5530 04b9 70000000 		.4byte	.LFE20
 5531 04bd 0400     		.2byte	0x4
 5532 04bf F3       		.byte	0xf3
 5533 04c0 01       		.uleb128 0x1
 5534 04c1 51       		.byte	0x51
 5535 04c2 9F       		.byte	0x9f
 5536 04c3 00000000 		.4byte	0
 5537 04c7 00000000 		.4byte	0
 5538              	.LLST29:
 5539 04cb 00000000 		.4byte	.LVL94
 5540 04cf 13000000 		.4byte	.LVL96-1
 5541 04d3 0100     		.2byte	0x1
 5542 04d5 52       		.byte	0x52
 5543 04d6 13000000 		.4byte	.LVL96-1
 5544 04da 70000000 		.4byte	.LFE20
 5545 04de 0400     		.2byte	0x4
 5546 04e0 F3       		.byte	0xf3
ARM GAS  C:\Users\hamis\AppData\Local\Temp\ccsOK97v.s 			page 118


 5547 04e1 01       		.uleb128 0x1
 5548 04e2 52       		.byte	0x52
 5549 04e3 9F       		.byte	0x9f
 5550 04e4 00000000 		.4byte	0
 5551 04e8 00000000 		.4byte	0
 5552              	.LLST30:
 5553 04ec 00000000 		.4byte	.LVL102
 5554 04f0 0A000000 		.4byte	.LVL104
 5555 04f4 0100     		.2byte	0x1
 5556 04f6 50       		.byte	0x50
 5557 04f7 0A000000 		.4byte	.LVL104
 5558 04fb 62000000 		.4byte	.LVL108
 5559 04ff 0100     		.2byte	0x1
 5560 0501 55       		.byte	0x55
 5561 0502 62000000 		.4byte	.LVL108
 5562 0506 68000000 		.4byte	.LFE2
 5563 050a 0400     		.2byte	0x4
 5564 050c F3       		.byte	0xf3
 5565 050d 01       		.uleb128 0x1
 5566 050e 50       		.byte	0x50
 5567 050f 9F       		.byte	0x9f
 5568 0510 00000000 		.4byte	0
 5569 0514 00000000 		.4byte	0
 5570              	.LLST31:
 5571 0518 06000000 		.4byte	.LVL103
 5572 051c 0A000000 		.4byte	.LVL104
 5573 0520 0200     		.2byte	0x2
 5574 0522 30       		.byte	0x30
 5575 0523 9F       		.byte	0x9f
 5576 0524 0A000000 		.4byte	.LVL104
 5577 0528 62000000 		.4byte	.LVL108
 5578 052c 0100     		.2byte	0x1
 5579 052e 54       		.byte	0x54
 5580 052f 00000000 		.4byte	0
 5581 0533 00000000 		.4byte	0
 5582              	.LLST32:
 5583 0537 00000000 		.4byte	.LVL109
 5584 053b 1E000000 		.4byte	.LVL110
 5585 053f 0100     		.2byte	0x1
 5586 0541 50       		.byte	0x50
 5587 0542 1E000000 		.4byte	.LVL110
 5588 0546 86000000 		.4byte	.LVL115
 5589 054a 0100     		.2byte	0x1
 5590 054c 55       		.byte	0x55
 5591 054d 86000000 		.4byte	.LVL115
 5592 0551 8C000000 		.4byte	.LFE3
 5593 0555 0400     		.2byte	0x4
 5594 0557 F3       		.byte	0xf3
 5595 0558 01       		.uleb128 0x1
 5596 0559 50       		.byte	0x50
 5597 055a 9F       		.byte	0x9f
 5598 055b 00000000 		.4byte	0
 5599 055f 00000000 		.4byte	0
 5600              	.LLST33:
 5601 0563 1E000000 		.4byte	.LVL110
 5602 0567 86000000 		.4byte	.LVL115
 5603 056b 0100     		.2byte	0x1
ARM GAS  C:\Users\hamis\AppData\Local\Temp\ccsOK97v.s 			page 119


 5604 056d 54       		.byte	0x54
 5605 056e 00000000 		.4byte	0
 5606 0572 00000000 		.4byte	0
 5607              	.LLST34:
 5608 0576 00000000 		.4byte	.LVL116
 5609 057a 1F000000 		.4byte	.LVL117-1
 5610 057e 0100     		.2byte	0x1
 5611 0580 50       		.byte	0x50
 5612 0581 1F000000 		.4byte	.LVL117-1
 5613 0585 22000000 		.4byte	.LVL118
 5614 0589 0100     		.2byte	0x1
 5615 058b 54       		.byte	0x54
 5616 058c 22000000 		.4byte	.LVL118
 5617 0590 25000000 		.4byte	.LVL119-1
 5618 0594 0100     		.2byte	0x1
 5619 0596 50       		.byte	0x50
 5620 0597 25000000 		.4byte	.LVL119-1
 5621 059b 88000000 		.4byte	.LVL128
 5622 059f 0100     		.2byte	0x1
 5623 05a1 54       		.byte	0x54
 5624 05a2 88000000 		.4byte	.LVL128
 5625 05a6 8A000000 		.4byte	.LVL129
 5626 05aa 0100     		.2byte	0x1
 5627 05ac 50       		.byte	0x50
 5628 05ad 8A000000 		.4byte	.LVL129
 5629 05b1 92000000 		.4byte	.LVL130
 5630 05b5 0100     		.2byte	0x1
 5631 05b7 54       		.byte	0x54
 5632 05b8 92000000 		.4byte	.LVL130
 5633 05bc 98000000 		.4byte	.LFE1
 5634 05c0 0400     		.2byte	0x4
 5635 05c2 F3       		.byte	0xf3
 5636 05c3 01       		.uleb128 0x1
 5637 05c4 50       		.byte	0x50
 5638 05c5 9F       		.byte	0x9f
 5639 05c6 00000000 		.4byte	0
 5640 05ca 00000000 		.4byte	0
 5641              	.LLST35:
 5642 05ce 40000000 		.4byte	.LVL121
 5643 05d2 4A000000 		.4byte	.LVL122
 5644 05d6 0100     		.2byte	0x1
 5645 05d8 50       		.byte	0x50
 5646 05d9 4A000000 		.4byte	.LVL122
 5647 05dd 56000000 		.4byte	.LVL123
 5648 05e1 0100     		.2byte	0x1
 5649 05e3 52       		.byte	0x52
 5650 05e4 00000000 		.4byte	0
 5651 05e8 00000000 		.4byte	0
 5652              	.LLST36:
 5653 05ec 00000000 		.4byte	.LVL131
 5654 05f0 32000000 		.4byte	.LVL132
 5655 05f4 0100     		.2byte	0x1
 5656 05f6 50       		.byte	0x50
 5657 05f7 32000000 		.4byte	.LVL132
 5658 05fb 4C000000 		.4byte	.LVL133
 5659 05ff 0400     		.2byte	0x4
 5660 0601 F3       		.byte	0xf3
ARM GAS  C:\Users\hamis\AppData\Local\Temp\ccsOK97v.s 			page 120


 5661 0602 01       		.uleb128 0x1
 5662 0603 50       		.byte	0x50
 5663 0604 9F       		.byte	0x9f
 5664 0605 4C000000 		.4byte	.LVL133
 5665 0609 54000000 		.4byte	.LVL134
 5666 060d 0100     		.2byte	0x1
 5667 060f 50       		.byte	0x50
 5668 0610 54000000 		.4byte	.LVL134
 5669 0614 62000000 		.4byte	.LVL135
 5670 0618 0400     		.2byte	0x4
 5671 061a F3       		.byte	0xf3
 5672 061b 01       		.uleb128 0x1
 5673 061c 50       		.byte	0x50
 5674 061d 9F       		.byte	0x9f
 5675 061e 62000000 		.4byte	.LVL135
 5676 0622 88000000 		.4byte	.LVL137
 5677 0626 0100     		.2byte	0x1
 5678 0628 50       		.byte	0x50
 5679 0629 88000000 		.4byte	.LVL137
 5680 062d 90000000 		.4byte	.LVL138
 5681 0631 0400     		.2byte	0x4
 5682 0633 F3       		.byte	0xf3
 5683 0634 01       		.uleb128 0x1
 5684 0635 50       		.byte	0x50
 5685 0636 9F       		.byte	0x9f
 5686 0637 90000000 		.4byte	.LVL138
 5687 063b 9C000000 		.4byte	.LVL139
 5688 063f 0100     		.2byte	0x1
 5689 0641 50       		.byte	0x50
 5690 0642 9C000000 		.4byte	.LVL139
 5691 0646 AA000000 		.4byte	.LVL141
 5692 064a 0400     		.2byte	0x4
 5693 064c F3       		.byte	0xf3
 5694 064d 01       		.uleb128 0x1
 5695 064e 50       		.byte	0x50
 5696 064f 9F       		.byte	0x9f
 5697 0650 AA000000 		.4byte	.LVL141
 5698 0654 B2000000 		.4byte	.LVL142
 5699 0658 0100     		.2byte	0x1
 5700 065a 50       		.byte	0x50
 5701 065b B2000000 		.4byte	.LVL142
 5702 065f B8000000 		.4byte	.LVL143
 5703 0663 0400     		.2byte	0x4
 5704 0665 F3       		.byte	0xf3
 5705 0666 01       		.uleb128 0x1
 5706 0667 50       		.byte	0x50
 5707 0668 9F       		.byte	0x9f
 5708 0669 B8000000 		.4byte	.LVL143
 5709 066d E0000000 		.4byte	.LVL145
 5710 0671 0100     		.2byte	0x1
 5711 0673 50       		.byte	0x50
 5712 0674 E0000000 		.4byte	.LVL145
 5713 0678 EC000000 		.4byte	.LVL146
 5714 067c 0400     		.2byte	0x4
 5715 067e F3       		.byte	0xf3
 5716 067f 01       		.uleb128 0x1
 5717 0680 50       		.byte	0x50
ARM GAS  C:\Users\hamis\AppData\Local\Temp\ccsOK97v.s 			page 121


 5718 0681 9F       		.byte	0x9f
 5719 0682 EC000000 		.4byte	.LVL146
 5720 0686 14010000 		.4byte	.LVL148
 5721 068a 0100     		.2byte	0x1
 5722 068c 50       		.byte	0x50
 5723 068d 14010000 		.4byte	.LVL148
 5724 0691 1A010000 		.4byte	.LVL149
 5725 0695 0400     		.2byte	0x4
 5726 0697 F3       		.byte	0xf3
 5727 0698 01       		.uleb128 0x1
 5728 0699 50       		.byte	0x50
 5729 069a 9F       		.byte	0x9f
 5730 069b 1A010000 		.4byte	.LVL149
 5731 069f 7E010000 		.4byte	.LVL153
 5732 06a3 0100     		.2byte	0x1
 5733 06a5 50       		.byte	0x50
 5734 06a6 7E010000 		.4byte	.LVL153
 5735 06aa 82010000 		.4byte	.LVL154
 5736 06ae 0400     		.2byte	0x4
 5737 06b0 F3       		.byte	0xf3
 5738 06b1 01       		.uleb128 0x1
 5739 06b2 50       		.byte	0x50
 5740 06b3 9F       		.byte	0x9f
 5741 06b4 82010000 		.4byte	.LVL154
 5742 06b8 8A010000 		.4byte	.LVL155
 5743 06bc 0100     		.2byte	0x1
 5744 06be 50       		.byte	0x50
 5745 06bf 8A010000 		.4byte	.LVL155
 5746 06c3 A6010000 		.4byte	.LVL157
 5747 06c7 0400     		.2byte	0x4
 5748 06c9 F3       		.byte	0xf3
 5749 06ca 01       		.uleb128 0x1
 5750 06cb 50       		.byte	0x50
 5751 06cc 9F       		.byte	0x9f
 5752 06cd A6010000 		.4byte	.LVL157
 5753 06d1 D8010000 		.4byte	.LVL159
 5754 06d5 0100     		.2byte	0x1
 5755 06d7 50       		.byte	0x50
 5756 06d8 D8010000 		.4byte	.LVL159
 5757 06dc DC010000 		.4byte	.LVL160
 5758 06e0 0400     		.2byte	0x4
 5759 06e2 F3       		.byte	0xf3
 5760 06e3 01       		.uleb128 0x1
 5761 06e4 50       		.byte	0x50
 5762 06e5 9F       		.byte	0x9f
 5763 06e6 DC010000 		.4byte	.LVL160
 5764 06ea 14020000 		.4byte	.LVL162
 5765 06ee 0100     		.2byte	0x1
 5766 06f0 50       		.byte	0x50
 5767 06f1 14020000 		.4byte	.LVL162
 5768 06f5 1E020000 		.4byte	.LVL163
 5769 06f9 0400     		.2byte	0x4
 5770 06fb F3       		.byte	0xf3
 5771 06fc 01       		.uleb128 0x1
 5772 06fd 50       		.byte	0x50
 5773 06fe 9F       		.byte	0x9f
 5774 06ff 1E020000 		.4byte	.LVL163
ARM GAS  C:\Users\hamis\AppData\Local\Temp\ccsOK97v.s 			page 122


 5775 0703 51020000 		.4byte	.LVL166-1
 5776 0707 0100     		.2byte	0x1
 5777 0709 50       		.byte	0x50
 5778 070a 51020000 		.4byte	.LVL166-1
 5779 070e 6C020000 		.4byte	.LVL168
 5780 0712 0400     		.2byte	0x4
 5781 0714 F3       		.byte	0xf3
 5782 0715 01       		.uleb128 0x1
 5783 0716 50       		.byte	0x50
 5784 0717 9F       		.byte	0x9f
 5785 0718 6C020000 		.4byte	.LVL168
 5786 071c 74020000 		.4byte	.LVL169
 5787 0720 0100     		.2byte	0x1
 5788 0722 50       		.byte	0x50
 5789 0723 74020000 		.4byte	.LVL169
 5790 0727 82020000 		.4byte	.LVL170
 5791 072b 0400     		.2byte	0x4
 5792 072d F3       		.byte	0xf3
 5793 072e 01       		.uleb128 0x1
 5794 072f 50       		.byte	0x50
 5795 0730 9F       		.byte	0x9f
 5796 0731 82020000 		.4byte	.LVL170
 5797 0735 84020000 		.4byte	.LVL171
 5798 0739 0100     		.2byte	0x1
 5799 073b 50       		.byte	0x50
 5800 073c 84020000 		.4byte	.LVL171
 5801 0740 86020000 		.4byte	.LVL172
 5802 0744 0400     		.2byte	0x4
 5803 0746 F3       		.byte	0xf3
 5804 0747 01       		.uleb128 0x1
 5805 0748 50       		.byte	0x50
 5806 0749 9F       		.byte	0x9f
 5807 074a 86020000 		.4byte	.LVL172
 5808 074e 88020000 		.4byte	.LVL173
 5809 0752 0100     		.2byte	0x1
 5810 0754 50       		.byte	0x50
 5811 0755 88020000 		.4byte	.LVL173
 5812 0759 8A020000 		.4byte	.LVL174
 5813 075d 0400     		.2byte	0x4
 5814 075f F3       		.byte	0xf3
 5815 0760 01       		.uleb128 0x1
 5816 0761 50       		.byte	0x50
 5817 0762 9F       		.byte	0x9f
 5818 0763 8A020000 		.4byte	.LVL174
 5819 0767 8C020000 		.4byte	.LVL175
 5820 076b 0100     		.2byte	0x1
 5821 076d 50       		.byte	0x50
 5822 076e 8C020000 		.4byte	.LVL175
 5823 0772 8E020000 		.4byte	.LVL176
 5824 0776 0400     		.2byte	0x4
 5825 0778 F3       		.byte	0xf3
 5826 0779 01       		.uleb128 0x1
 5827 077a 50       		.byte	0x50
 5828 077b 9F       		.byte	0x9f
 5829 077c 8E020000 		.4byte	.LVL176
 5830 0780 90020000 		.4byte	.LVL177
 5831 0784 0100     		.2byte	0x1
ARM GAS  C:\Users\hamis\AppData\Local\Temp\ccsOK97v.s 			page 123


 5832 0786 50       		.byte	0x50
 5833 0787 90020000 		.4byte	.LVL177
 5834 078b 92020000 		.4byte	.LVL178
 5835 078f 0400     		.2byte	0x4
 5836 0791 F3       		.byte	0xf3
 5837 0792 01       		.uleb128 0x1
 5838 0793 50       		.byte	0x50
 5839 0794 9F       		.byte	0x9f
 5840 0795 92020000 		.4byte	.LVL178
 5841 0799 94020000 		.4byte	.LVL179
 5842 079d 0100     		.2byte	0x1
 5843 079f 50       		.byte	0x50
 5844 07a0 94020000 		.4byte	.LVL179
 5845 07a4 9C020000 		.4byte	.LFE17
 5846 07a8 0400     		.2byte	0x4
 5847 07aa F3       		.byte	0xf3
 5848 07ab 01       		.uleb128 0x1
 5849 07ac 50       		.byte	0x50
 5850 07ad 9F       		.byte	0x9f
 5851 07ae 00000000 		.4byte	0
 5852 07b2 00000000 		.4byte	0
 5853              	.LLST37:
 5854 07b6 00000000 		.4byte	.LVL131
 5855 07ba 86000000 		.4byte	.LVL136
 5856 07be 0100     		.2byte	0x1
 5857 07c0 51       		.byte	0x51
 5858 07c1 86000000 		.4byte	.LVL136
 5859 07c5 90000000 		.4byte	.LVL138
 5860 07c9 0400     		.2byte	0x4
 5861 07cb F3       		.byte	0xf3
 5862 07cc 01       		.uleb128 0x1
 5863 07cd 51       		.byte	0x51
 5864 07ce 9F       		.byte	0x9f
 5865 07cf 90000000 		.4byte	.LVL138
 5866 07d3 A0000000 		.4byte	.LVL140
 5867 07d7 0100     		.2byte	0x1
 5868 07d9 51       		.byte	0x51
 5869 07da A0000000 		.4byte	.LVL140
 5870 07de AA000000 		.4byte	.LVL141
 5871 07e2 0400     		.2byte	0x4
 5872 07e4 F3       		.byte	0xf3
 5873 07e5 01       		.uleb128 0x1
 5874 07e6 51       		.byte	0x51
 5875 07e7 9F       		.byte	0x9f
 5876 07e8 AA000000 		.4byte	.LVL141
 5877 07ec D8000000 		.4byte	.LVL144
 5878 07f0 0100     		.2byte	0x1
 5879 07f2 51       		.byte	0x51
 5880 07f3 D8000000 		.4byte	.LVL144
 5881 07f7 EC000000 		.4byte	.LVL146
 5882 07fb 0400     		.2byte	0x4
 5883 07fd F3       		.byte	0xf3
 5884 07fe 01       		.uleb128 0x1
 5885 07ff 51       		.byte	0x51
 5886 0800 9F       		.byte	0x9f
 5887 0801 EC000000 		.4byte	.LVL146
 5888 0805 EE000000 		.4byte	.LVL147
ARM GAS  C:\Users\hamis\AppData\Local\Temp\ccsOK97v.s 			page 124


 5889 0809 0100     		.2byte	0x1
 5890 080b 51       		.byte	0x51
 5891 080c EE000000 		.4byte	.LVL147
 5892 0810 1A010000 		.4byte	.LVL149
 5893 0814 0400     		.2byte	0x4
 5894 0816 F3       		.byte	0xf3
 5895 0817 01       		.uleb128 0x1
 5896 0818 51       		.byte	0x51
 5897 0819 9F       		.byte	0x9f
 5898 081a 1A010000 		.4byte	.LVL149
 5899 081e 42010000 		.4byte	.LVL150
 5900 0822 0100     		.2byte	0x1
 5901 0824 51       		.byte	0x51
 5902 0825 42010000 		.4byte	.LVL150
 5903 0829 48010000 		.4byte	.LVL151
 5904 082d 0400     		.2byte	0x4
 5905 082f F3       		.byte	0xf3
 5906 0830 01       		.uleb128 0x1
 5907 0831 51       		.byte	0x51
 5908 0832 9F       		.byte	0x9f
 5909 0833 48010000 		.4byte	.LVL151
 5910 0837 4A010000 		.4byte	.LVL152
 5911 083b 0100     		.2byte	0x1
 5912 083d 51       		.byte	0x51
 5913 083e 4A010000 		.4byte	.LVL152
 5914 0842 82010000 		.4byte	.LVL154
 5915 0846 0400     		.2byte	0x4
 5916 0848 F3       		.byte	0xf3
 5917 0849 01       		.uleb128 0x1
 5918 084a 51       		.byte	0x51
 5919 084b 9F       		.byte	0x9f
 5920 084c 82010000 		.4byte	.LVL154
 5921 0850 9C010000 		.4byte	.LVL156
 5922 0854 0100     		.2byte	0x1
 5923 0856 51       		.byte	0x51
 5924 0857 9C010000 		.4byte	.LVL156
 5925 085b A6010000 		.4byte	.LVL157
 5926 085f 0400     		.2byte	0x4
 5927 0861 F3       		.byte	0xf3
 5928 0862 01       		.uleb128 0x1
 5929 0863 51       		.byte	0x51
 5930 0864 9F       		.byte	0x9f
 5931 0865 A6010000 		.4byte	.LVL157
 5932 0869 C6010000 		.4byte	.LVL158
 5933 086d 0100     		.2byte	0x1
 5934 086f 51       		.byte	0x51
 5935 0870 C6010000 		.4byte	.LVL158
 5936 0874 DC010000 		.4byte	.LVL160
 5937 0878 0400     		.2byte	0x4
 5938 087a F3       		.byte	0xf3
 5939 087b 01       		.uleb128 0x1
 5940 087c 51       		.byte	0x51
 5941 087d 9F       		.byte	0x9f
 5942 087e DC010000 		.4byte	.LVL160
 5943 0882 F8010000 		.4byte	.LVL161
 5944 0886 0100     		.2byte	0x1
 5945 0888 51       		.byte	0x51
ARM GAS  C:\Users\hamis\AppData\Local\Temp\ccsOK97v.s 			page 125


 5946 0889 F8010000 		.4byte	.LVL161
 5947 088d 1E020000 		.4byte	.LVL163
 5948 0891 0400     		.2byte	0x4
 5949 0893 F3       		.byte	0xf3
 5950 0894 01       		.uleb128 0x1
 5951 0895 51       		.byte	0x51
 5952 0896 9F       		.byte	0x9f
 5953 0897 1E020000 		.4byte	.LVL163
 5954 089b 40020000 		.4byte	.LVL165
 5955 089f 0100     		.2byte	0x1
 5956 08a1 51       		.byte	0x51
 5957 08a2 40020000 		.4byte	.LVL165
 5958 08a6 82020000 		.4byte	.LVL170
 5959 08aa 0400     		.2byte	0x4
 5960 08ac F3       		.byte	0xf3
 5961 08ad 01       		.uleb128 0x1
 5962 08ae 51       		.byte	0x51
 5963 08af 9F       		.byte	0x9f
 5964 08b0 82020000 		.4byte	.LVL170
 5965 08b4 86020000 		.4byte	.LVL172
 5966 08b8 0100     		.2byte	0x1
 5967 08ba 51       		.byte	0x51
 5968 08bb 86020000 		.4byte	.LVL172
 5969 08bf 9C020000 		.4byte	.LFE17
 5970 08c3 0400     		.2byte	0x4
 5971 08c5 F3       		.byte	0xf3
 5972 08c6 01       		.uleb128 0x1
 5973 08c7 51       		.byte	0x51
 5974 08c8 9F       		.byte	0x9f
 5975 08c9 00000000 		.4byte	0
 5976 08cd 00000000 		.4byte	0
 5977              	.LLST38:
 5978 08d1 36020000 		.4byte	.LVL164
 5979 08d5 40020000 		.4byte	.LVL165
 5980 08d9 0100     		.2byte	0x1
 5981 08db 51       		.byte	0x51
 5982 08dc 40020000 		.4byte	.LVL165
 5983 08e0 82020000 		.4byte	.LVL170
 5984 08e4 0400     		.2byte	0x4
 5985 08e6 F3       		.byte	0xf3
 5986 08e7 01       		.uleb128 0x1
 5987 08e8 51       		.byte	0x51
 5988 08e9 9F       		.byte	0x9f
 5989 08ea 00000000 		.4byte	0
 5990 08ee 00000000 		.4byte	0
 5991              	.LLST39:
 5992 08f2 00000000 		.4byte	.LVL180
 5993 08f6 10000000 		.4byte	.LVL181
 5994 08fa 0100     		.2byte	0x1
 5995 08fc 50       		.byte	0x50
 5996 08fd 10000000 		.4byte	.LVL181
 5997 0901 5E000000 		.4byte	.LVL185
 5998 0905 0100     		.2byte	0x1
 5999 0907 54       		.byte	0x54
 6000 0908 5E000000 		.4byte	.LVL185
 6001 090c 62000000 		.4byte	.LFE21
 6002 0910 0400     		.2byte	0x4
ARM GAS  C:\Users\hamis\AppData\Local\Temp\ccsOK97v.s 			page 126


 6003 0912 F3       		.byte	0xf3
 6004 0913 01       		.uleb128 0x1
 6005 0914 50       		.byte	0x50
 6006 0915 9F       		.byte	0x9f
 6007 0916 00000000 		.4byte	0
 6008 091a 00000000 		.4byte	0
 6009              	.LLST40:
 6010 091e 00000000 		.4byte	.LVL180
 6011 0922 13000000 		.4byte	.LVL182-1
 6012 0926 0100     		.2byte	0x1
 6013 0928 51       		.byte	0x51
 6014 0929 13000000 		.4byte	.LVL182-1
 6015 092d 5E000000 		.4byte	.LVL185
 6016 0931 0100     		.2byte	0x1
 6017 0933 55       		.byte	0x55
 6018 0934 5E000000 		.4byte	.LVL185
 6019 0938 62000000 		.4byte	.LFE21
 6020 093c 0400     		.2byte	0x4
 6021 093e F3       		.byte	0xf3
 6022 093f 01       		.uleb128 0x1
 6023 0940 51       		.byte	0x51
 6024 0941 9F       		.byte	0x9f
 6025 0942 00000000 		.4byte	0
 6026 0946 00000000 		.4byte	0
 6027              	.LLST41:
 6028 094a 00000000 		.4byte	.LVL180
 6029 094e 13000000 		.4byte	.LVL182-1
 6030 0952 0100     		.2byte	0x1
 6031 0954 52       		.byte	0x52
 6032 0955 13000000 		.4byte	.LVL182-1
 6033 0959 62000000 		.4byte	.LFE21
 6034 095d 0400     		.2byte	0x4
 6035 095f F3       		.byte	0xf3
 6036 0960 01       		.uleb128 0x1
 6037 0961 52       		.byte	0x52
 6038 0962 9F       		.byte	0x9f
 6039 0963 00000000 		.4byte	0
 6040 0967 00000000 		.4byte	0
 6041              	.LLST42:
 6042 096b 00000000 		.4byte	.LVL186
 6043 096f 10000000 		.4byte	.LVL187
 6044 0973 0100     		.2byte	0x1
 6045 0975 50       		.byte	0x50
 6046 0976 10000000 		.4byte	.LVL187
 6047 097a 6C000000 		.4byte	.LVL193
 6048 097e 0100     		.2byte	0x1
 6049 0980 54       		.byte	0x54
 6050 0981 6C000000 		.4byte	.LVL193
 6051 0985 70000000 		.4byte	.LFE22
 6052 0989 0400     		.2byte	0x4
 6053 098b F3       		.byte	0xf3
 6054 098c 01       		.uleb128 0x1
 6055 098d 50       		.byte	0x50
 6056 098e 9F       		.byte	0x9f
 6057 098f 00000000 		.4byte	0
 6058 0993 00000000 		.4byte	0
 6059              	.LLST43:
ARM GAS  C:\Users\hamis\AppData\Local\Temp\ccsOK97v.s 			page 127


 6060 0997 00000000 		.4byte	.LVL186
 6061 099b 13000000 		.4byte	.LVL188-1
 6062 099f 0100     		.2byte	0x1
 6063 09a1 51       		.byte	0x51
 6064 09a2 13000000 		.4byte	.LVL188-1
 6065 09a6 1C000000 		.4byte	.LVL189
 6066 09aa 0100     		.2byte	0x1
 6067 09ac 55       		.byte	0x55
 6068 09ad 1C000000 		.4byte	.LVL189
 6069 09b1 53000000 		.4byte	.LVL190-1
 6070 09b5 0300     		.2byte	0x3
 6071 09b7 91       		.byte	0x91
 6072 09b8 F07E     		.sleb128 -144
 6073 09ba 53000000 		.4byte	.LVL190-1
 6074 09be 70000000 		.4byte	.LFE22
 6075 09c2 0400     		.2byte	0x4
 6076 09c4 F3       		.byte	0xf3
 6077 09c5 01       		.uleb128 0x1
 6078 09c6 51       		.byte	0x51
 6079 09c7 9F       		.byte	0x9f
 6080 09c8 00000000 		.4byte	0
 6081 09cc 00000000 		.4byte	0
 6082              	.LLST44:
 6083 09d0 00000000 		.4byte	.LVL186
 6084 09d4 13000000 		.4byte	.LVL188-1
 6085 09d8 0100     		.2byte	0x1
 6086 09da 52       		.byte	0x52
 6087 09db 13000000 		.4byte	.LVL188-1
 6088 09df 70000000 		.4byte	.LFE22
 6089 09e3 0400     		.2byte	0x4
 6090 09e5 F3       		.byte	0xf3
 6091 09e6 01       		.uleb128 0x1
 6092 09e7 52       		.byte	0x52
 6093 09e8 9F       		.byte	0x9f
 6094 09e9 00000000 		.4byte	0
 6095 09ed 00000000 		.4byte	0
 6096              	.LLST45:
 6097 09f1 00000000 		.4byte	.LVL194
 6098 09f5 10000000 		.4byte	.LVL195
 6099 09f9 0100     		.2byte	0x1
 6100 09fb 50       		.byte	0x50
 6101 09fc 10000000 		.4byte	.LVL195
 6102 0a00 6E000000 		.4byte	.LVL200
 6103 0a04 0100     		.2byte	0x1
 6104 0a06 54       		.byte	0x54
 6105 0a07 6E000000 		.4byte	.LVL200
 6106 0a0b 72000000 		.4byte	.LFE23
 6107 0a0f 0400     		.2byte	0x4
 6108 0a11 F3       		.byte	0xf3
 6109 0a12 01       		.uleb128 0x1
 6110 0a13 50       		.byte	0x50
 6111 0a14 9F       		.byte	0x9f
 6112 0a15 00000000 		.4byte	0
 6113 0a19 00000000 		.4byte	0
 6114              	.LLST46:
 6115 0a1d 00000000 		.4byte	.LVL194
 6116 0a21 13000000 		.4byte	.LVL196-1
ARM GAS  C:\Users\hamis\AppData\Local\Temp\ccsOK97v.s 			page 128


 6117 0a25 0100     		.2byte	0x1
 6118 0a27 51       		.byte	0x51
 6119 0a28 13000000 		.4byte	.LVL196-1
 6120 0a2c 6E000000 		.4byte	.LVL200
 6121 0a30 0100     		.2byte	0x1
 6122 0a32 55       		.byte	0x55
 6123 0a33 6E000000 		.4byte	.LVL200
 6124 0a37 72000000 		.4byte	.LFE23
 6125 0a3b 0400     		.2byte	0x4
 6126 0a3d F3       		.byte	0xf3
 6127 0a3e 01       		.uleb128 0x1
 6128 0a3f 51       		.byte	0x51
 6129 0a40 9F       		.byte	0x9f
 6130 0a41 00000000 		.4byte	0
 6131 0a45 00000000 		.4byte	0
 6132              	.LLST47:
 6133 0a49 00000000 		.4byte	.LVL194
 6134 0a4d 13000000 		.4byte	.LVL196-1
 6135 0a51 0100     		.2byte	0x1
 6136 0a53 52       		.byte	0x52
 6137 0a54 13000000 		.4byte	.LVL196-1
 6138 0a58 72000000 		.4byte	.LFE23
 6139 0a5c 0400     		.2byte	0x4
 6140 0a5e F3       		.byte	0xf3
 6141 0a5f 01       		.uleb128 0x1
 6142 0a60 52       		.byte	0x52
 6143 0a61 9F       		.byte	0x9f
 6144 0a62 00000000 		.4byte	0
 6145 0a66 00000000 		.4byte	0
 6146              	.LLST48:
 6147 0a6a 00000000 		.4byte	.LVL201
 6148 0a6e 17000000 		.4byte	.LVL202-1
 6149 0a72 0100     		.2byte	0x1
 6150 0a74 50       		.byte	0x50
 6151 0a75 17000000 		.4byte	.LVL202-1
 6152 0a79 22000000 		.4byte	.LFE24
 6153 0a7d 0400     		.2byte	0x4
 6154 0a7f F3       		.byte	0xf3
 6155 0a80 01       		.uleb128 0x1
 6156 0a81 50       		.byte	0x50
 6157 0a82 9F       		.byte	0x9f
 6158 0a83 00000000 		.4byte	0
 6159 0a87 00000000 		.4byte	0
 6160              	.LLST49:
 6161 0a8b 00000000 		.4byte	.LVL201
 6162 0a8f 17000000 		.4byte	.LVL202-1
 6163 0a93 0100     		.2byte	0x1
 6164 0a95 51       		.byte	0x51
 6165 0a96 17000000 		.4byte	.LVL202-1
 6166 0a9a 22000000 		.4byte	.LFE24
 6167 0a9e 0400     		.2byte	0x4
 6168 0aa0 F3       		.byte	0xf3
 6169 0aa1 01       		.uleb128 0x1
 6170 0aa2 51       		.byte	0x51
 6171 0aa3 9F       		.byte	0x9f
 6172 0aa4 00000000 		.4byte	0
 6173 0aa8 00000000 		.4byte	0
ARM GAS  C:\Users\hamis\AppData\Local\Temp\ccsOK97v.s 			page 129


 6174              	.LLST50:
 6175 0aac 00000000 		.4byte	.LVL201
 6176 0ab0 17000000 		.4byte	.LVL202-1
 6177 0ab4 0100     		.2byte	0x1
 6178 0ab6 52       		.byte	0x52
 6179 0ab7 17000000 		.4byte	.LVL202-1
 6180 0abb 22000000 		.4byte	.LFE24
 6181 0abf 0400     		.2byte	0x4
 6182 0ac1 F3       		.byte	0xf3
 6183 0ac2 01       		.uleb128 0x1
 6184 0ac3 52       		.byte	0x52
 6185 0ac4 9F       		.byte	0x9f
 6186 0ac5 00000000 		.4byte	0
 6187 0ac9 00000000 		.4byte	0
 6188              		.section	.debug_aranges,"",%progbits
 6189 0000 DC000000 		.4byte	0xdc
 6190 0004 0200     		.2byte	0x2
 6191 0006 00000000 		.4byte	.Ldebug_info0
 6192 000a 04       		.byte	0x4
 6193 000b 00       		.byte	0
 6194 000c 0000     		.2byte	0
 6195 000e 0000     		.2byte	0
 6196 0010 00000000 		.4byte	.LFB0
 6197 0014 0E000000 		.4byte	.LFE0-.LFB0
 6198 0018 00000000 		.4byte	.LFB4
 6199 001c 24000000 		.4byte	.LFE4-.LFB4
 6200 0020 00000000 		.4byte	.LFB9
 6201 0024 1C000000 		.4byte	.LFE9-.LFB9
 6202 0028 00000000 		.4byte	.LFB10
 6203 002c 46000000 		.4byte	.LFE10-.LFB10
 6204 0030 00000000 		.4byte	.LFB7
 6205 0034 F0000000 		.4byte	.LFE7-.LFB7
 6206 0038 00000000 		.4byte	.LFB5
 6207 003c 2C000000 		.4byte	.LFE5-.LFB5
 6208 0040 00000000 		.4byte	.LFB11
 6209 0044 36000000 		.4byte	.LFE11-.LFB11
 6210 0048 00000000 		.4byte	.LFB8
 6211 004c 9C000000 		.4byte	.LFE8-.LFB8
 6212 0050 00000000 		.4byte	.LFB12
 6213 0054 06000000 		.4byte	.LFE12-.LFB12
 6214 0058 00000000 		.4byte	.LFB13
 6215 005c 24000000 		.4byte	.LFE13-.LFB13
 6216 0060 00000000 		.4byte	.LFB14
 6217 0064 24000000 		.4byte	.LFE14-.LFB14
 6218 0068 00000000 		.4byte	.LFB6
 6219 006c 02010000 		.4byte	.LFE6-.LFB6
 6220 0070 00000000 		.4byte	.LFB15
 6221 0074 06000000 		.4byte	.LFE15-.LFB15
 6222 0078 00000000 		.4byte	.LFB16
 6223 007c 06000000 		.4byte	.LFE16-.LFB16
 6224 0080 00000000 		.4byte	.LFB18
 6225 0084 34000000 		.4byte	.LFE18-.LFB18
 6226 0088 00000000 		.4byte	.LFB19
 6227 008c 12000000 		.4byte	.LFE19-.LFB19
 6228 0090 00000000 		.4byte	.LFB20
 6229 0094 70000000 		.4byte	.LFE20-.LFB20
 6230 0098 00000000 		.4byte	.LFB2
ARM GAS  C:\Users\hamis\AppData\Local\Temp\ccsOK97v.s 			page 130


 6231 009c 68000000 		.4byte	.LFE2-.LFB2
 6232 00a0 00000000 		.4byte	.LFB3
 6233 00a4 8C000000 		.4byte	.LFE3-.LFB3
 6234 00a8 00000000 		.4byte	.LFB1
 6235 00ac 98000000 		.4byte	.LFE1-.LFB1
 6236 00b0 00000000 		.4byte	.LFB17
 6237 00b4 9C020000 		.4byte	.LFE17-.LFB17
 6238 00b8 00000000 		.4byte	.LFB21
 6239 00bc 62000000 		.4byte	.LFE21-.LFB21
 6240 00c0 00000000 		.4byte	.LFB22
 6241 00c4 70000000 		.4byte	.LFE22-.LFB22
 6242 00c8 00000000 		.4byte	.LFB23
 6243 00cc 72000000 		.4byte	.LFE23-.LFB23
 6244 00d0 00000000 		.4byte	.LFB24
 6245 00d4 22000000 		.4byte	.LFE24-.LFB24
 6246 00d8 00000000 		.4byte	0
 6247 00dc 00000000 		.4byte	0
 6248              		.section	.debug_ranges,"",%progbits
 6249              	.Ldebug_ranges0:
 6250 0000 00000000 		.4byte	.LFB0
 6251 0004 0E000000 		.4byte	.LFE0
 6252 0008 00000000 		.4byte	.LFB4
 6253 000c 24000000 		.4byte	.LFE4
 6254 0010 00000000 		.4byte	.LFB9
 6255 0014 1C000000 		.4byte	.LFE9
 6256 0018 00000000 		.4byte	.LFB10
 6257 001c 46000000 		.4byte	.LFE10
 6258 0020 00000000 		.4byte	.LFB7
 6259 0024 F0000000 		.4byte	.LFE7
 6260 0028 00000000 		.4byte	.LFB5
 6261 002c 2C000000 		.4byte	.LFE5
 6262 0030 00000000 		.4byte	.LFB11
 6263 0034 36000000 		.4byte	.LFE11
 6264 0038 00000000 		.4byte	.LFB8
 6265 003c 9C000000 		.4byte	.LFE8
 6266 0040 00000000 		.4byte	.LFB12
 6267 0044 06000000 		.4byte	.LFE12
 6268 0048 00000000 		.4byte	.LFB13
 6269 004c 24000000 		.4byte	.LFE13
 6270 0050 00000000 		.4byte	.LFB14
 6271 0054 24000000 		.4byte	.LFE14
 6272 0058 00000000 		.4byte	.LFB6
 6273 005c 02010000 		.4byte	.LFE6
 6274 0060 00000000 		.4byte	.LFB15
 6275 0064 06000000 		.4byte	.LFE15
 6276 0068 00000000 		.4byte	.LFB16
 6277 006c 06000000 		.4byte	.LFE16
 6278 0070 00000000 		.4byte	.LFB18
 6279 0074 34000000 		.4byte	.LFE18
 6280 0078 00000000 		.4byte	.LFB19
 6281 007c 12000000 		.4byte	.LFE19
 6282 0080 00000000 		.4byte	.LFB20
 6283 0084 70000000 		.4byte	.LFE20
 6284 0088 00000000 		.4byte	.LFB2
 6285 008c 68000000 		.4byte	.LFE2
 6286 0090 00000000 		.4byte	.LFB3
 6287 0094 8C000000 		.4byte	.LFE3
ARM GAS  C:\Users\hamis\AppData\Local\Temp\ccsOK97v.s 			page 131


 6288 0098 00000000 		.4byte	.LFB1
 6289 009c 98000000 		.4byte	.LFE1
 6290 00a0 00000000 		.4byte	.LFB17
 6291 00a4 9C020000 		.4byte	.LFE17
 6292 00a8 00000000 		.4byte	.LFB21
 6293 00ac 62000000 		.4byte	.LFE21
 6294 00b0 00000000 		.4byte	.LFB22
 6295 00b4 70000000 		.4byte	.LFE22
 6296 00b8 00000000 		.4byte	.LFB23
 6297 00bc 72000000 		.4byte	.LFE23
 6298 00c0 00000000 		.4byte	.LFB24
 6299 00c4 22000000 		.4byte	.LFE24
 6300 00c8 00000000 		.4byte	0
 6301 00cc 00000000 		.4byte	0
 6302              		.section	.debug_line,"",%progbits
 6303              	.Ldebug_line0:
 6304 0000 FE040000 		.section	.debug_str,"MS",%progbits,1
 6304      02004601 
 6304      00000201 
 6304      FB0E0D00 
 6304      01010101 
 6305              	.LASF45:
 6306 0000 51585F50 		.ascii	"QX_PARSE_TYPE_WRITE_REL_SEND\000"
 6306      41525345 
 6306      5F545950 
 6306      455F5752 
 6306      4954455F 
 6307              	.LASF90:
 6308 001d 52785374 		.ascii	"RxState\000"
 6308      61746500 
 6309              	.LASF155:
 6310 0025 51585F53 		.ascii	"QX_SendPacket_Cli_Control\000"
 6310      656E6450 
 6310      61636B65 
 6310      745F436C 
 6310      695F436F 
 6311              	.LASF39:
 6312 003f 51585F4D 		.ascii	"QX_MSG_TYPE_WRITE_REL\000"
 6312      53475F54 
 6312      5950455F 
 6312      57524954 
 6312      455F5245 
 6313              	.LASF50:
 6314 0055 51585F53 		.ascii	"QX_STAT_ERROR_MSG_TYPE_NOT_SUPPORTED\000"
 6314      5441545F 
 6314      4552524F 
 6314      525F4D53 
 6314      475F5459 
 6315              	.LASF125:
 6316 007a 696E6974 		.ascii	"initial\000"
 6316      69616C00 
 6317              	.LASF0:
 6318 0082 756E7369 		.ascii	"unsigned int\000"
 6318      676E6564 
 6318      20696E74 
 6318      00
 6319              	.LASF85:
ARM GAS  C:\Users\hamis\AppData\Local\Temp\ccsOK97v.s 			page 132


 6320 008f 4D736742 		.ascii	"MsgBufStart_p\000"
 6320      75665374 
 6320      6172745F 
 6320      7000
 6321              	.LASF127:
 6322 009d 66696E61 		.ascii	"final\000"
 6322      6C00
 6323              	.LASF21:
 6324 00a3 51585F52 		.ascii	"QX_RX_STATE_START_WAIT\000"
 6324      585F5354 
 6324      4154455F 
 6324      53544152 
 6324      545F5741 
 6325              	.LASF30:
 6326 00ba 51585F44 		.ascii	"QX_DEV_ID_BROADCAST\000"
 6326      45565F49 
 6326      445F4252 
 6326      4F414443 
 6326      41535400 
 6327              	.LASF163:
 6328 00ce 51585F46 		.ascii	"QX_FwdMsg_CB\000"
 6328      77644D73 
 6328      675F4342 
 6328      00
 6329              	.LASF135:
 6330 00db 51585F43 		.ascii	"QX_Client\000"
 6330      6C69656E 
 6330      7400
 6331              	.LASF142:
 6332 00e5 54784D73 		.ascii	"TxMsg\000"
 6332      6700
 6333              	.LASF108:
 6334 00eb 6275665F 		.ascii	"buf_p\000"
 6334      7000
 6335              	.LASF101:
 6336 00f1 51585F53 		.ascii	"QX_Server_t\000"
 6336      65727665 
 6336      725F7400 
 6337              	.LASF38:
 6338 00fd 51585F4D 		.ascii	"QX_MSG_TYPE_WRITE_ABS\000"
 6338      53475F54 
 6338      5950455F 
 6338      57524954 
 6338      455F4142 
 6339              	.LASF84:
 6340 0113 4D736742 		.ascii	"MsgBuf_MsgLen\000"
 6340      75665F4D 
 6340      73674C65 
 6340      6E00
 6341              	.LASF136:
 6342 0121 51585F43 		.ascii	"QX_Connection_Status_Update\000"
 6342      6F6E6E65 
 6342      6374696F 
 6342      6E5F5374 
 6342      61747573 
 6343              	.LASF48:
 6344 013d 51585F53 		.ascii	"QX_STAT_OK\000"
ARM GAS  C:\Users\hamis\AppData\Local\Temp\ccsOK97v.s 			page 133


 6344      5441545F 
 6344      4F4B00
 6345              	.LASF44:
 6346 0148 51585F50 		.ascii	"QX_PARSE_TYPE_WRITE_ABS_RECV\000"
 6346      41525345 
 6346      5F545950 
 6346      455F5752 
 6346      4954455F 
 6347              	.LASF100:
 6348 0165 50617273 		.ascii	"Parser_CB\000"
 6348      65725F43 
 6348      4200
 6349              	.LASF145:
 6350 016f 51585F53 		.ascii	"QX_Srv_Rx_Write\000"
 6350      72765F52 
 6350      785F5772 
 6350      69746500 
 6351              	.LASF47:
 6352 017f 51585F50 		.ascii	"QX_Parse_Type_e\000"
 6352      61727365 
 6352      5F547970 
 6352      655F6500 
 6353              	.LASF94:
 6354 018f 436F6E6E 		.ascii	"Connected\000"
 6354      65637465 
 6354      6400
 6355              	.LASF147:
 6356 0199 63726333 		.ascii	"crc32_result\000"
 6356      325F7265 
 6356      73756C74 
 6356      00
 6357              	.LASF59:
 6358 01a6 7573655F 		.ascii	"use_CRC32\000"
 6358      43524333 
 6358      3200
 6359              	.LASF64:
 6360 01b0 52657370 		.ascii	"RespReq_Addr\000"
 6360      5265715F 
 6360      41646472 
 6360      00
 6361              	.LASF63:
 6362 01bd 5472616E 		.ascii	"TransReq_Addr\000"
 6362      73526571 
 6362      5F416464 
 6362      7200
 6363              	.LASF22:
 6364 01cb 51585F52 		.ascii	"QX_RX_STATE_GET_PROTOCOL_VER\000"
 6364      585F5354 
 6364      4154455F 
 6364      4745545F 
 6364      50524F54 
 6365              	.LASF17:
 6366 01e8 75696E74 		.ascii	"uint32_t\000"
 6366      33325F74 
 6366      00
 6367              	.LASF66:
 6368 01f1 4D73674C 		.ascii	"MsgLength\000"
ARM GAS  C:\Users\hamis\AppData\Local\Temp\ccsOK97v.s 			page 134


 6368      656E6774 
 6368      6800
 6369              	.LASF82:
 6370 01fb 48656164 		.ascii	"Header\000"
 6370      657200
 6371              	.LASF148:
 6372 0202 63726333 		.ascii	"crc32_msg\000"
 6372      325F6D73 
 6372      6700
 6373              	.LASF103:
 6374 020c 666C6F61 		.ascii	"float\000"
 6374      7400
 6375              	.LASF35:
 6376 0212 51585F44 		.ascii	"QX_DevId_e\000"
 6376      65764964 
 6376      5F6500
 6377              	.LASF110:
 6378 021d 63686563 		.ascii	"checksum\000"
 6378      6B73756D 
 6378      00
 6379              	.LASF40:
 6380 0226 51585F4D 		.ascii	"QX_Msg_Type_e\000"
 6380      73675F54 
 6380      7970655F 
 6380      6500
 6381              	.LASF61:
 6382 0234 52656D6F 		.ascii	"Remove_Req_Fields\000"
 6382      76655F52 
 6382      65715F46 
 6382      69656C64 
 6382      7300
 6383              	.LASF88:
 6384 0246 4D736742 		.ascii	"MsgBuf_p\000"
 6384      75665F70 
 6384      00
 6385              	.LASF166:
 6386 024f 443A5C50 		.ascii	"D:\\PSoC Programs\\test_projects\\Proj04_freefly_ua"
 6386      536F4320 
 6386      50726F67 
 6386      72616D73 
 6386      5C746573 
 6387 027f 72745F73 		.ascii	"rt_start.cydsn\000"
 6387      74617274 
 6387      2E637964 
 6387      736E00
 6388              	.LASF12:
 6389 028e 6C6F6E67 		.ascii	"long long unsigned int\000"
 6389      206C6F6E 
 6389      6720756E 
 6389      7369676E 
 6389      65642069 
 6390              	.LASF131:
 6391 02a5 62797465 		.ascii	"bytes_to_add\000"
 6391      735F746F 
 6391      5F616464 
 6391      00
 6392              	.LASF42:
ARM GAS  C:\Users\hamis\AppData\Local\Temp\ccsOK97v.s 			page 135


 6393 02b2 51585F50 		.ascii	"QX_PARSE_TYPE_CURVAL_RECV\000"
 6393      41525345 
 6393      5F545950 
 6393      455F4355 
 6393      5256414C 
 6394              	.LASF167:
 6395 02cc 74656D70 		.ascii	"temp32\000"
 6395      333200
 6396              	.LASF7:
 6397 02d3 5F5F7569 		.ascii	"__uint16_t\000"
 6397      6E743136 
 6397      5F7400
 6398              	.LASF107:
 6399 02de 51585F43 		.ascii	"QX_Calc8bChecksum\000"
 6399      616C6338 
 6399      62436865 
 6399      636B7375 
 6399      6D00
 6400              	.LASF153:
 6401 02f0 51585F53 		.ascii	"QX_SendPacket_Cli_WriteABS\000"
 6401      656E6450 
 6401      61636B65 
 6401      745F436C 
 6401      695F5772 
 6402              	.LASF98:
 6403 030b 51585F43 		.ascii	"QX_CommsPort_t\000"
 6403      6F6D6D73 
 6403      506F7274 
 6403      5F7400
 6404              	.LASF121:
 6405 031a 51585F44 		.ascii	"QX_Disable_Default_Response\000"
 6405      69736162 
 6405      6C655F44 
 6405      65666175 
 6405      6C745F52 
 6406              	.LASF56:
 6407 0336 51585F53 		.ascii	"QX_STAT_ERROR_ATT_NOT_HANDLED\000"
 6407      5441545F 
 6407      4552524F 
 6407      525F4154 
 6407      545F4E4F 
 6408              	.LASF29:
 6409 0354 51585F52 		.ascii	"QX_Rx_State_e\000"
 6409      785F5374 
 6409      6174655F 
 6409      6500
 6410              	.LASF91:
 6411 0362 5278436E 		.ascii	"RxCntr\000"
 6411      747200
 6412              	.LASF36:
 6413 0369 51585F4D 		.ascii	"QX_MSG_TYPE_CURVAL\000"
 6413      53475F54 
 6413      5950455F 
 6413      43555256 
 6413      414C00
 6414              	.LASF70:
 6415 037c 41646443 		.ascii	"AddCRC32\000"
ARM GAS  C:\Users\hamis\AppData\Local\Temp\ccsOK97v.s 			page 136


 6415      52433332 
 6415      00
 6416              	.LASF164:
 6417 0385 474E5520 		.ascii	"GNU C11 5.4.1 20160609 (release) [ARM/embedded-5-br"
 6417      43313120 
 6417      352E342E 
 6417      31203230 
 6417      31363036 
 6418 03b8 616E6368 		.ascii	"anch revision 237715] -mcpu=cortex-m3 -mthumb -g -O"
 6418      20726576 
 6418      6973696F 
 6418      6E203233 
 6418      37373135 
 6419 03eb 67202D66 		.ascii	"g -ffunction-sections -ffat-lto-objects\000"
 6419      66756E63 
 6419      74696F6E 
 6419      2D736563 
 6419      74696F6E 
 6420              	.LASF130:
 6421 0413 63686B73 		.ascii	"chksum\000"
 6421      756D00
 6422              	.LASF165:
 6423 041a 2E2E5C2E 		.ascii	"..\\..\\FreeflyAPI\\QX_Protocol.c\000"
 6423      2E5C4672 
 6423      6565666C 
 6423      79415049 
 6423      5C51585F 
 6424              	.LASF122:
 6425 0439 51585F63 		.ascii	"QX_compute_crc32\000"
 6425      6F6D7075 
 6425      74655F63 
 6425      72633332 
 6425      00
 6426              	.LASF57:
 6427 044a 51585F53 		.ascii	"QX_Stat_e\000"
 6427      7461745F 
 6427      6500
 6428              	.LASF146:
 6429 0454 51585F52 		.ascii	"QX_RxMsg\000"
 6429      784D7367 
 6429      00
 6430              	.LASF74:
 6431 045d 51585F4D 		.ascii	"QX_MsgHeader_t\000"
 6431      73674865 
 6431      61646572 
 6431      5F7400
 6432              	.LASF140:
 6433 046c 51585F53 		.ascii	"QX_SendPacket_Srv_CurVal\000"
 6433      656E6450 
 6433      61636B65 
 6433      745F5372 
 6433      765F4375 
 6434              	.LASF138:
 6435 0485 51585F49 		.ascii	"QX_InitTxOptions\000"
 6435      6E697454 
 6435      784F7074 
 6435      696F6E73 
ARM GAS  C:\Users\hamis\AppData\Local\Temp\ccsOK97v.s 			page 137


 6435      00
 6436              	.LASF97:
 6437 0496 6C617374 		.ascii	"last_rx_msg_time\000"
 6437      5F72785F 
 6437      6D73675F 
 6437      74696D65 
 6437      00
 6438              	.LASF25:
 6439 04a7 51585F52 		.ascii	"QX_RX_STATE_GET_QB_LEN0\000"
 6439      585F5354 
 6439      4154455F 
 6439      4745545F 
 6439      51425F4C 
 6440              	.LASF26:
 6441 04bf 51585F52 		.ascii	"QX_RX_STATE_GET_QB_LEN1\000"
 6441      585F5354 
 6441      4154455F 
 6441      4745545F 
 6441      51425F4C 
 6442              	.LASF79:
 6443 04d7 4174744E 		.ascii	"AttNotHandled\000"
 6443      6F744861 
 6443      6E646C65 
 6443      6400
 6444              	.LASF76:
 6445 04e5 44697361 		.ascii	"DisableStdResponse\000"
 6445      626C6553 
 6445      74645265 
 6445      73706F6E 
 6445      736500
 6446              	.LASF116:
 6447 04f8 4F707469 		.ascii	"OptionByte\000"
 6447      6F6E4279 
 6447      746500
 6448              	.LASF115:
 6449 0503 51585F42 		.ascii	"QX_BuildHeader\000"
 6449      75696C64 
 6449      48656164 
 6449      657200
 6450              	.LASF43:
 6451 0512 51585F50 		.ascii	"QX_PARSE_TYPE_WRITE_ABS_SEND\000"
 6451      41525345 
 6451      5F545950 
 6451      455F5752 
 6451      4954455F 
 6452              	.LASF14:
 6453 052f 63686172 		.ascii	"char\000"
 6453      00
 6454              	.LASF112:
 6455 0534 51585F41 		.ascii	"QX_AddExtdValToBuf\000"
 6455      64644578 
 6455      74645661 
 6455      6C546F42 
 6455      756600
 6456              	.LASF128:
 6457 0547 51585F54 		.ascii	"QX_TxMsg_Finish\000"
 6457      784D7367 
ARM GAS  C:\Users\hamis\AppData\Local\Temp\ccsOK97v.s 			page 138


 6457      5F46696E 
 6457      69736800 
 6458              	.LASF83:
 6459 0557 4D736742 		.ascii	"MsgBuf\000"
 6459      756600
 6460              	.LASF81:
 6461 055e 436F6D6D 		.ascii	"CommPort\000"
 6461      506F7274 
 6461      00
 6462              	.LASF34:
 6463 0567 51585F44 		.ascii	"QX_DEV_ID_MOVI_API_CONTROLLER\000"
 6463      45565F49 
 6463      445F4D4F 
 6463      56495F41 
 6463      50495F43 
 6464              	.LASF123:
 6465 0585 64617461 		.ascii	"data\000"
 6465      00
 6466              	.LASF71:
 6467 058a 46465F45 		.ascii	"FF_Ext_R0\000"
 6467      78745F52 
 6467      3000
 6468              	.LASF72:
 6469 0594 46465F45 		.ascii	"FF_Ext_R1\000"
 6469      78745F52 
 6469      3100
 6470              	.LASF132:
 6471 059e 51585F49 		.ascii	"QX_InitSrv\000"
 6471      6E697453 
 6471      727600
 6472              	.LASF15:
 6473 05a9 75696E74 		.ascii	"uint8_t\000"
 6473      385F7400 
 6474              	.LASF120:
 6475 05b1 51585F50 		.ascii	"QX_ParseHeader\000"
 6475      61727365 
 6475      48656164 
 6475      657200
 6476              	.LASF95:
 6477 05c0 43686B53 		.ascii	"ChkSumFail_cnt\000"
 6477      756D4661 
 6477      696C5F63 
 6477      6E7400
 6478              	.LASF68:
 6479 05cf 54797065 		.ascii	"Type\000"
 6479      00
 6480              	.LASF114:
 6481 05d4 6E657874 		.ascii	"next_chunk\000"
 6481      5F636875 
 6481      6E6B00
 6482              	.LASF20:
 6483 05df 51585F43 		.ascii	"QX_Comms_Port_e\000"
 6483      6F6D6D73 
 6483      5F506F72 
 6483      745F6500 
 6484              	.LASF1:
 6485 05ef 6C6F6E67 		.ascii	"long long int\000"
ARM GAS  C:\Users\hamis\AppData\Local\Temp\ccsOK97v.s 			page 139


 6485      206C6F6E 
 6485      6720696E 
 6485      7400
 6486              	.LASF75:
 6487 05fd 50617273 		.ascii	"Parse_Type\000"
 6487      655F5479 
 6487      706500
 6488              	.LASF151:
 6489 0608 51585F53 		.ascii	"QX_SendPacket_Cli_Read\000"
 6489      656E6450 
 6489      61636B65 
 6489      745F436C 
 6489      695F5265 
 6490              	.LASF37:
 6491 061f 51585F4D 		.ascii	"QX_MSG_TYPE_READ\000"
 6491      53475F54 
 6491      5950455F 
 6491      52454144 
 6491      00
 6492              	.LASF160:
 6493 0630 51585F50 		.ascii	"QX_ParseHeader_Legacy\000"
 6493      61727365 
 6493      48656164 
 6493      65725F4C 
 6493      65676163 
 6494              	.LASF149:
 6495 0646 51585F53 		.ascii	"QX_StreamRxCharSM\000"
 6495      74726561 
 6495      6D527843 
 6495      68617253 
 6495      4D00
 6496              	.LASF105:
 6497 0658 52784D73 		.ascii	"RxMsg_p\000"
 6497      675F7000 
 6498              	.LASF168:
 6499 0660 6D656D73 		.ascii	"memset\000"
 6499      657400
 6500              	.LASF113:
 6501 0667 74686973 		.ascii	"this_chunk\000"
 6501      5F636875 
 6501      6E6B00
 6502              	.LASF126:
 6503 0672 73697A65 		.ascii	"size\000"
 6503      00
 6504              	.LASF117:
 6505 0677 51585F54 		.ascii	"QX_TxMsg_Setup\000"
 6505      784D7367 
 6505      5F536574 
 6505      757000
 6506              	.LASF133:
 6507 0686 51585F53 		.ascii	"QX_Server\000"
 6507      65727665 
 6507      7200
 6508              	.LASF41:
 6509 0690 51585F50 		.ascii	"QX_PARSE_TYPE_CURVAL_SEND\000"
 6509      41525345 
 6509      5F545950 
ARM GAS  C:\Users\hamis\AppData\Local\Temp\ccsOK97v.s 			page 140


 6509      455F4355 
 6509      5256414C 
 6510              	.LASF134:
 6511 06aa 51585F49 		.ascii	"QX_InitCli\000"
 6511      6E697443 
 6511      6C6900
 6512              	.LASF77:
 6513 06b5 52756E6E 		.ascii	"RunningChecksum\000"
 6513      696E6743 
 6513      6865636B 
 6513      73756D00 
 6514              	.LASF67:
 6515 06c5 41747472 		.ascii	"Attrib\000"
 6515      696200
 6516              	.LASF124:
 6517 06cc 51585F61 		.ascii	"QX_accumulate_crc32\000"
 6517      6363756D 
 6517      756C6174 
 6517      655F6372 
 6517      63333200 
 6518              	.LASF119:
 6519 06e0 51585F47 		.ascii	"QX_GetExtdValFromBuf\000"
 6519      65744578 
 6519      74645661 
 6519      6C46726F 
 6519      6D427566 
 6520              	.LASF55:
 6521 06f5 51585F53 		.ascii	"QX_STAT_ERROR_RXMSG_CRC32_FAIL\000"
 6521      5441545F 
 6521      4552524F 
 6521      525F5258 
 6521      4D53475F 
 6522              	.LASF2:
 6523 0714 6C6F6E67 		.ascii	"long double\000"
 6523      20646F75 
 6523      626C6500 
 6524              	.LASF129:
 6525 0720 51585F75 		.ascii	"QX_use2ByteLen\000"
 6525      73653242 
 6525      7974654C 
 6525      656E00
 6526              	.LASF80:
 6527 072f 4C656761 		.ascii	"Legacy_Header\000"
 6527      63795F48 
 6527      65616465 
 6527      7200
 6528              	.LASF16:
 6529 073d 75696E74 		.ascii	"uint16_t\000"
 6529      31365F74 
 6529      00
 6530              	.LASF58:
 6531 0746 46465F45 		.ascii	"FF_Ext\000"
 6531      787400
 6532              	.LASF104:
 6533 074d 4D73675F 		.ascii	"Msg_p\000"
 6533      7000
 6534              	.LASF62:
ARM GAS  C:\Users\hamis\AppData\Local\Temp\ccsOK97v.s 			page 141


 6535 0753 54617267 		.ascii	"Target_Addr\000"
 6535      65745F41 
 6535      64647200 
 6536              	.LASF118:
 6537 075f 54784D73 		.ascii	"TxMsg_p\000"
 6537      675F7000 
 6538              	.LASF87:
 6539 0767 42756650 		.ascii	"BufPayloadStart_p\000"
 6539      61796C6F 
 6539      61645374 
 6539      6172745F 
 6539      7000
 6540              	.LASF5:
 6541 0779 73686F72 		.ascii	"short int\000"
 6541      7420696E 
 6541      7400
 6542              	.LASF144:
 6543 0783 7372765F 		.ascii	"srv_i\000"
 6543      6900
 6544              	.LASF9:
 6545 0789 6C6F6E67 		.ascii	"long int\000"
 6545      20696E74 
 6545      00
 6546              	.LASF78:
 6547 0792 43524333 		.ascii	"CRC32_Checksum\000"
 6547      325F4368 
 6547      65636B73 
 6547      756D00
 6548              	.LASF49:
 6549 07a1 51585F53 		.ascii	"QX_STAT_ERROR\000"
 6549      5441545F 
 6549      4552524F 
 6549      5200
 6550              	.LASF139:
 6551 07af 6F707469 		.ascii	"options\000"
 6551      6F6E7300 
 6552              	.LASF157:
 6553 07b7 51585F53 		.ascii	"QX_Servers\000"
 6553      65727665 
 6553      727300
 6554              	.LASF23:
 6555 07c2 51585F52 		.ascii	"QX_RX_STATE_GET_QX_LEN0\000"
 6555      585F5354 
 6555      4154455F 
 6555      4745545F 
 6555      51585F4C 
 6556              	.LASF24:
 6557 07da 51585F52 		.ascii	"QX_RX_STATE_GET_QX_LEN1\000"
 6557      585F5354 
 6557      4154455F 
 6557      4745545F 
 6557      51585F4C 
 6558              	.LASF162:
 6559 07f2 51585F47 		.ascii	"QX_GetTicks_ms\000"
 6559      65745469 
 6559      636B735F 
 6559      6D7300
ARM GAS  C:\Users\hamis\AppData\Local\Temp\ccsOK97v.s 			page 142


 6560              	.LASF46:
 6561 0801 51585F50 		.ascii	"QX_PARSE_TYPE_WRITE_REL_RECV\000"
 6561      41525345 
 6561      5F545950 
 6561      455F5752 
 6561      4954455F 
 6562              	.LASF52:
 6563 081e 51585F53 		.ascii	"QX_STAT_ERROR_INVALID_EXTENSION\000"
 6563      5441545F 
 6563      4552524F 
 6563      525F494E 
 6563      56414C49 
 6564              	.LASF109:
 6565 083e 636C695F 		.ascii	"cli_i\000"
 6565      6900
 6566              	.LASF102:
 6567 0844 51585F43 		.ascii	"QX_Client_t\000"
 6567      6C69656E 
 6567      745F7400 
 6568              	.LASF6:
 6569 0850 5F5F7569 		.ascii	"__uint8_t\000"
 6569      6E74385F 
 6569      7400
 6570              	.LASF156:
 6571 085a 51585F43 		.ascii	"QX_CommsPorts\000"
 6571      6F6D6D73 
 6571      506F7274 
 6571      7300
 6572              	.LASF86:
 6573 0868 4D736742 		.ascii	"MsgBufAtt_p\000"
 6573      75664174 
 6573      745F7000 
 6574              	.LASF13:
 6575 0874 73697A65 		.ascii	"sizetype\000"
 6575      74797065 
 6575      00
 6576              	.LASF28:
 6577 087d 51585F52 		.ascii	"QX_RX_STATE_GET_CHKSUM\000"
 6577      585F5354 
 6577      4154455F 
 6577      4745545F 
 6577      43484B53 
 6578              	.LASF11:
 6579 0894 6C6F6E67 		.ascii	"long unsigned int\000"
 6579      20756E73 
 6579      69676E65 
 6579      6420696E 
 6579      7400
 6580              	.LASF19:
 6581 08a6 51585F4E 		.ascii	"QX_NUM_OF_PORTS\000"
 6581      554D5F4F 
 6581      465F504F 
 6581      52545300 
 6582              	.LASF65:
 6583 08b6 51585F54 		.ascii	"QX_TxMsgOptions_t\000"
 6583      784D7367 
 6583      4F707469 
ARM GAS  C:\Users\hamis\AppData\Local\Temp\ccsOK97v.s 			page 143


 6583      6F6E735F 
 6583      7400
 6584              	.LASF18:
 6585 08c8 51585F43 		.ascii	"QX_COMMS_PORT_UART\000"
 6585      4F4D4D53 
 6585      5F504F52 
 6585      545F5541 
 6585      525400
 6586              	.LASF73:
 6587 08db 536F7572 		.ascii	"Source_Addr\000"
 6587      63655F41 
 6587      64647200 
 6588              	.LASF53:
 6589 08e7 51585F53 		.ascii	"QX_STAT_ERROR_MSG_LENGTH_INVALID\000"
 6589      5441545F 
 6589      4552524F 
 6589      525F4D53 
 6589      475F4C45 
 6590              	.LASF54:
 6591 0908 51585F53 		.ascii	"QX_STAT_ERROR_KEY_REQUIRED\000"
 6591      5441545F 
 6591      4552524F 
 6591      525F4B45 
 6591      595F5245 
 6592              	.LASF137:
 6593 0923 706F7274 		.ascii	"port\000"
 6593      00
 6594              	.LASF31:
 6595 0928 51585F44 		.ascii	"QX_DEV_ID_WEDGE_LENS_CONTROLLER\000"
 6595      45565F49 
 6595      445F5745 
 6595      4447455F 
 6595      4C454E53 
 6596              	.LASF159:
 6597 0948 51585F42 		.ascii	"QX_BuildHeader_Legacy\000"
 6597      75696C64 
 6597      48656164 
 6597      65725F4C 
 6597      65676163 
 6598              	.LASF4:
 6599 095e 756E7369 		.ascii	"unsigned char\000"
 6599      676E6564 
 6599      20636861 
 6599      7200
 6600              	.LASF10:
 6601 096c 5F5F7569 		.ascii	"__uint32_t\000"
 6601      6E743332 
 6601      5F7400
 6602              	.LASF33:
 6603 0977 51585F44 		.ascii	"QX_DEV_ID_GIMBAL_INT_FIZ\000"
 6603      45565F49 
 6603      445F4749 
 6603      4D42414C 
 6603      5F494E54 
 6604              	.LASF92:
 6605 0990 52784D73 		.ascii	"RxMsg\000"
 6605      6700
ARM GAS  C:\Users\hamis\AppData\Local\Temp\ccsOK97v.s 			page 144


 6606              	.LASF69:
 6607 0996 4164644F 		.ascii	"AddOptionByte1\000"
 6607      7074696F 
 6607      6E427974 
 6607      653100
 6608              	.LASF143:
 6609 09a5 51585F53 		.ascii	"QX_Srv_Rx_Read\000"
 6609      72765F52 
 6609      785F5265 
 6609      616400
 6610              	.LASF60:
 6611 09b4 52656D6F 		.ascii	"Remove_Addr_Fields\000"
 6611      76655F41 
 6611      6464725F 
 6611      4669656C 
 6611      647300
 6612              	.LASF89:
 6613 09c7 51585F4D 		.ascii	"QX_Msg_t\000"
 6613      73675F74 
 6613      00
 6614              	.LASF150:
 6615 09d0 72786279 		.ascii	"rxbyte\000"
 6615      746500
 6616              	.LASF152:
 6617 09d7 436C695F 		.ascii	"Cli_p\000"
 6617      7000
 6618              	.LASF32:
 6619 09dd 51585F44 		.ascii	"QX_DEV_ID_GIMBAL\000"
 6619      45565F49 
 6619      445F4749 
 6619      4D42414C 
 6619      00
 6620              	.LASF3:
 6621 09ee 7369676E 		.ascii	"signed char\000"
 6621      65642063 
 6621      68617200 
 6622              	.LASF8:
 6623 09fa 73686F72 		.ascii	"short unsigned int\000"
 6623      7420756E 
 6623      7369676E 
 6623      65642069 
 6623      6E7400
 6624              	.LASF111:
 6625 0a0d 51585F43 		.ascii	"QX_Cli_Rx_CurVal\000"
 6625      6C695F52 
 6625      785F4375 
 6625      7256616C 
 6625      00
 6626              	.LASF27:
 6627 0a1e 51585F52 		.ascii	"QX_RX_STATE_GET_DATA\000"
 6627      585F5354 
 6627      4154455F 
 6627      4745545F 
 6627      44415441 
 6628              	.LASF141:
 6629 0a33 5372765F 		.ascii	"Srv_p\000"
 6629      7000
ARM GAS  C:\Users\hamis\AppData\Local\Temp\ccsOK97v.s 			page 145


 6630              	.LASF99:
 6631 0a39 41646472 		.ascii	"Address\000"
 6631      65737300 
 6632              	.LASF158:
 6633 0a41 51585F43 		.ascii	"QX_Clients\000"
 6633      6C69656E 
 6633      747300
 6634              	.LASF51:
 6635 0a4c 51585F53 		.ascii	"QX_STAT_ERROR_EXTENSION_FAILED\000"
 6635      5441545F 
 6635      4552524F 
 6635      525F4558 
 6635      54454E53 
 6636              	.LASF96:
 6637 0a6b 6E6F6E5F 		.ascii	"non_Q_cnt\000"
 6637      515F636E 
 6637      7400
 6638              	.LASF161:
 6639 0a75 51585F53 		.ascii	"QX_SendMsg2CommsPort_CB\000"
 6639      656E644D 
 6639      73673243 
 6639      6F6D6D73 
 6639      506F7274 
 6640              	.LASF93:
 6641 0a8d 54696D65 		.ascii	"Timeout_Cntr\000"
 6641      6F75745F 
 6641      436E7472 
 6641      00
 6642              	.LASF154:
 6643 0a9a 51585F53 		.ascii	"QX_SendPacket_Cli_WriteREL\000"
 6643      656E6450 
 6643      61636B65 
 6643      745F436C 
 6643      695F5772 
 6644              	.LASF106:
 6645 0ab5 51585F49 		.ascii	"QX_InitMsg\000"
 6645      6E69744D 
 6645      736700
 6646              		.ident	"GCC: (GNU Tools for ARM Embedded Processors) 5.4.1 20160609 (release) [ARM/embedded-5-bran
