ARM GAS  C:\Users\hamis\AppData\Local\Temp\ccsOK97v.s 			page 1


   1              		.syntax unified
   2              		.cpu cortex-m3
   3              		.fpu softvfp
   4              		.eabi_attribute 20, 1
   5              		.eabi_attribute 21, 1
   6              		.eabi_attribute 23, 3
   7              		.eabi_attribute 24, 1
   8              		.eabi_attribute 25, 1
   9              		.eabi_attribute 26, 1
  10              		.eabi_attribute 30, 1
  11              		.eabi_attribute 34, 1
  12              		.eabi_attribute 18, 4
  13              		.thumb
  14              		.syntax unified
  15              		.file	"QX_Protocol.c"
  16              		.text
  17              	.Ltext0:
  18              		.cfi_sections	.debug_frame
  19              		.section	.text.QX_InitMsg,"ax",%progbits
  20              		.align	2
  21              		.global	QX_InitMsg
  22              		.thumb
  23              		.thumb_func
  24              		.type	QX_InitMsg, %function
  25              	QX_InitMsg:
  26              	.LFB0:
  27              		.file 1 "..\\..\\FreeflyAPI\\QX_Protocol.c"
   1:..\..\FreeflyAPI/QX_Protocol.c **** /*-----------------------------------------------------------------
   2:..\..\FreeflyAPI/QX_Protocol.c **** 	Copyright 2017 Freefly Systems
   3:..\..\FreeflyAPI/QX_Protocol.c **** 
   4:..\..\FreeflyAPI/QX_Protocol.c **** 	Licensed under the Apache License, Version 2.0 (the "License");
   5:..\..\FreeflyAPI/QX_Protocol.c **** 	you may not use this file except in compliance with the License.
   6:..\..\FreeflyAPI/QX_Protocol.c **** 	You may obtain a copy of the License at
   7:..\..\FreeflyAPI/QX_Protocol.c **** 
   8:..\..\FreeflyAPI/QX_Protocol.c **** 		http://www.apache.org/licenses/LICENSE-2.0
   9:..\..\FreeflyAPI/QX_Protocol.c **** 
  10:..\..\FreeflyAPI/QX_Protocol.c **** 	Unless required by applicable law or agreed to in writing, software
  11:..\..\FreeflyAPI/QX_Protocol.c **** 	distributed under the License is distributed on an "AS IS" BASIS,
  12:..\..\FreeflyAPI/QX_Protocol.c **** 	WITHOUT WARRANTIES OR CONDITIONS OF ANY KIND, either express or implied.
  13:..\..\FreeflyAPI/QX_Protocol.c **** 	See the License for the specific language governing permissions and
  14:..\..\FreeflyAPI/QX_Protocol.c **** 	limitations under the License.
  15:..\..\FreeflyAPI/QX_Protocol.c **** 
  16:..\..\FreeflyAPI/QX_Protocol.c **** 	Filename: "QX_Protocol.c"
  17:..\..\FreeflyAPI/QX_Protocol.c **** 
  18:..\..\FreeflyAPI/QX_Protocol.c **** 	Description: This file provides the non-project specific portions of the Freefly QX Protocol
  19:..\..\FreeflyAPI/QX_Protocol.c **** 
  20:..\..\FreeflyAPI/QX_Protocol.c **** 	Reuse and Porting:
  21:..\..\FreeflyAPI/QX_Protocol.c **** 	This code is design for simple reuse in other projects
  22:..\..\FreeflyAPI/QX_Protocol.c **** 	by separation of the protocol code/data from the application code/data.
  23:..\..\FreeflyAPI/QX_Protocol.c **** 	Steps:
  24:..\..\FreeflyAPI/QX_Protocol.c **** 	1.	Include QX_Protocol.c/.h and QX_Parsing_Util.c/.h files in your new project. 
  25:..\..\FreeflyAPI/QX_Protocol.c **** 		These should not be modified for the application.
  26:..\..\FreeflyAPI/QX_Protocol.c **** 	2.	Write the QX_Protocol_App.c/.h files. Other projects can be used as a template.
  27:..\..\FreeflyAPI/QX_Protocol.c **** 		This contains the client/server parser callback functions, support functions, 
  28:..\..\FreeflyAPI/QX_Protocol.c **** 		and QX_SendMsg2CommsPort_CB() which should send the messages to the desired port.
  29:..\..\FreeflyAPI/QX_Protocol.c **** 		The message support arrays (QX_Cli_MsgSupport and QX_Srv_MsgSupport)
  30:..\..\FreeflyAPI/QX_Protocol.c **** 		should also be initialized with the supported messages and their length check enforcement status.
ARM GAS  C:\Users\hamis\AppData\Local\Temp\ccsOK97v.s 			page 2


  31:..\..\FreeflyAPI/QX_Protocol.c **** 	3. Define the number of servers and clients in your system by defining QX_NUM_SRV and QX_NUM_CLI i
  32:..\..\FreeflyAPI/QX_Protocol.c **** 	4. Assign parser callback functions for each client and server using QX_InitSrv() and QX_InitCli()
  33:..\..\FreeflyAPI/QX_Protocol.c **** 	5. Call the QX_Init() function at application startup.
  34:..\..\FreeflyAPI/QX_Protocol.c **** 	6. In a periodic loop (main, or control/comms task) call QX_StreamRxCharSM() for each port to rece
  35:..\..\FreeflyAPI/QX_Protocol.c **** 	7. Send any unsolicited messages such periodic current value messages (charting) and client read/w
  36:..\..\FreeflyAPI/QX_Protocol.c **** 
  37:..\..\FreeflyAPI/QX_Protocol.c **** 	There are 3 Main Message Types that can be sent via QX:
  38:..\..\FreeflyAPI/QX_Protocol.c **** 	CURRENT VALUE - Sent by server in response to read, write or periodically (charting). Recieved by 
  39:..\..\FreeflyAPI/QX_Protocol.c **** 	READ - Sent by client to request that a current value message be sent by server as a reply.
  40:..\..\FreeflyAPI/QX_Protocol.c **** 	WRITE (Absolute or Relative) - Sent by client to write data. Triggers a current value response by 
  41:..\..\FreeflyAPI/QX_Protocol.c **** 		
  42:..\..\FreeflyAPI/QX_Protocol.c **** -----------------------------------------------------------------*/
  43:..\..\FreeflyAPI/QX_Protocol.c **** 
  44:..\..\FreeflyAPI/QX_Protocol.c **** //****************************************************************************
  45:..\..\FreeflyAPI/QX_Protocol.c **** // Headers
  46:..\..\FreeflyAPI/QX_Protocol.c **** //****************************************************************************
  47:..\..\FreeflyAPI/QX_Protocol.c **** #include "QX_Protocol.h"			// Protocol Header
  48:..\..\FreeflyAPI/QX_Protocol.c **** #include "QX_App_Config.h"			// Configure application specific values in this file
  49:..\..\FreeflyAPI/QX_Protocol.c **** #include "QX_Protocol_App.h"		// This contains the application specific interface functions
  50:..\..\FreeflyAPI/QX_Protocol.c **** #include "QX_Parsing_Functions.h"	// Contains utility functions for parsing data in/out of raw buff
  51:..\..\FreeflyAPI/QX_Protocol.c **** #include <stdlib.h>
  52:..\..\FreeflyAPI/QX_Protocol.c **** #include <stdint.h>		// for Standard Data Types
  53:..\..\FreeflyAPI/QX_Protocol.c **** #include <string.h>		// for array and string manipulation
  54:..\..\FreeflyAPI/QX_Protocol.c **** 
  55:..\..\FreeflyAPI/QX_Protocol.c **** //****************************************************************************
  56:..\..\FreeflyAPI/QX_Protocol.c **** // Private Defines
  57:..\..\FreeflyAPI/QX_Protocol.c **** //****************************************************************************
  58:..\..\FreeflyAPI/QX_Protocol.c **** 
  59:..\..\FreeflyAPI/QX_Protocol.c **** //****************************************************************************
  60:..\..\FreeflyAPI/QX_Protocol.c **** // Private Types
  61:..\..\FreeflyAPI/QX_Protocol.c **** //****************************************************************************
  62:..\..\FreeflyAPI/QX_Protocol.c **** 
  63:..\..\FreeflyAPI/QX_Protocol.c **** //****************************************************************************
  64:..\..\FreeflyAPI/QX_Protocol.c **** // Public Global Vars
  65:..\..\FreeflyAPI/QX_Protocol.c **** //****************************************************************************
  66:..\..\FreeflyAPI/QX_Protocol.c **** 
  67:..\..\FreeflyAPI/QX_Protocol.c **** // The following arrays define the servers and clients present on this device. 
  68:..\..\FreeflyAPI/QX_Protocol.c **** // The qty of each (QX_NUM_xxx) is defined by the application in QX_App_Config.h
  69:..\..\FreeflyAPI/QX_Protocol.c **** QX_Server_t QX_Servers[QX_NUM_SRV];
  70:..\..\FreeflyAPI/QX_Protocol.c **** QX_Client_t QX_Clients[QX_NUM_CLI];
  71:..\..\FreeflyAPI/QX_Protocol.c **** 
  72:..\..\FreeflyAPI/QX_Protocol.c **** // Array of communication ports
  73:..\..\FreeflyAPI/QX_Protocol.c **** // QX_NUM_OF_PORTS is application specific and defined in QX_App_Config.h
  74:..\..\FreeflyAPI/QX_Protocol.c **** QX_CommsPort_t QX_CommsPorts[QX_NUM_OF_PORTS];		
  75:..\..\FreeflyAPI/QX_Protocol.c **** 
  76:..\..\FreeflyAPI/QX_Protocol.c **** // Freefly Extension FunctionsPointers
  77:..\..\FreeflyAPI/QX_Protocol.c **** void (*QX_BuildHeader_Legacy)(QX_Msg_t *Msg_p) = NULL;
  78:..\..\FreeflyAPI/QX_Protocol.c **** void (*QX_ParseHeader_Legacy)(QX_Msg_t *Msg_p) = NULL;
  79:..\..\FreeflyAPI/QX_Protocol.c **** 
  80:..\..\FreeflyAPI/QX_Protocol.c **** //****************************************************************************
  81:..\..\FreeflyAPI/QX_Protocol.c **** // Private Global Vars
  82:..\..\FreeflyAPI/QX_Protocol.c **** //****************************************************************************
  83:..\..\FreeflyAPI/QX_Protocol.c **** 
  84:..\..\FreeflyAPI/QX_Protocol.c **** 
  85:..\..\FreeflyAPI/QX_Protocol.c **** //****************************************************************************
  86:..\..\FreeflyAPI/QX_Protocol.c **** // Private Function Prototypes - DO NOT EXPOSE THESE TO APPLICATION
  87:..\..\FreeflyAPI/QX_Protocol.c **** //****************************************************************************
ARM GAS  C:\Users\hamis\AppData\Local\Temp\ccsOK97v.s 			page 3


  88:..\..\FreeflyAPI/QX_Protocol.c **** 
  89:..\..\FreeflyAPI/QX_Protocol.c **** // Initialize QX Message Structure with Defaults
  90:..\..\FreeflyAPI/QX_Protocol.c **** QX_Stat_e QX_InitMsg(QX_Msg_t *Msg_p);
  91:..\..\FreeflyAPI/QX_Protocol.c **** 
  92:..\..\FreeflyAPI/QX_Protocol.c **** // Recieve QX Message, Process and Respond if Neccessary
  93:..\..\FreeflyAPI/QX_Protocol.c **** QX_Stat_e QX_RxMsg(QX_Msg_t *RxMsg_p);
  94:..\..\FreeflyAPI/QX_Protocol.c **** 
  95:..\..\FreeflyAPI/QX_Protocol.c **** // Create message header and prepare it for payload parsing
  96:..\..\FreeflyAPI/QX_Protocol.c **** QX_Stat_e QX_TxMsg_Setup(QX_Msg_t *TxMsg_p);
  97:..\..\FreeflyAPI/QX_Protocol.c **** 
  98:..\..\FreeflyAPI/QX_Protocol.c **** // After message data has been parsed, finish building the message
  99:..\..\FreeflyAPI/QX_Protocol.c **** QX_Stat_e QX_TxMsg_Finish(QX_Msg_t *TxMsg_p);
 100:..\..\FreeflyAPI/QX_Protocol.c **** 
 101:..\..\FreeflyAPI/QX_Protocol.c **** // Recieve Functions
 102:..\..\FreeflyAPI/QX_Protocol.c **** void QX_Srv_Rx_Read(QX_Msg_t *RxMsg_p);
 103:..\..\FreeflyAPI/QX_Protocol.c **** void QX_Srv_Rx_Write(QX_Msg_t *RxMsg_p);
 104:..\..\FreeflyAPI/QX_Protocol.c **** void QX_Cli_Rx_CurVal(QX_Msg_t *RxMsg_p);
 105:..\..\FreeflyAPI/QX_Protocol.c **** 
 106:..\..\FreeflyAPI/QX_Protocol.c **** // Build QX Message Header in the buffer using data from the structure
 107:..\..\FreeflyAPI/QX_Protocol.c **** void QX_BuildHeader(QX_Msg_t *Msg_p);
 108:..\..\FreeflyAPI/QX_Protocol.c **** 
 109:..\..\FreeflyAPI/QX_Protocol.c **** // Parse QX Message buffer to populate the header structure
 110:..\..\FreeflyAPI/QX_Protocol.c **** void QX_ParseHeader(QX_Msg_t *Msg_p);
 111:..\..\FreeflyAPI/QX_Protocol.c **** 
 112:..\..\FreeflyAPI/QX_Protocol.c **** // Add a bit 7 extendable value to a buffer (up to 4 bytes, 28 bits)
 113:..\..\FreeflyAPI/QX_Protocol.c **** void QX_AddExtdValToBuf(uint8_t **p, uint32_t Val);
 114:..\..\FreeflyAPI/QX_Protocol.c **** 
 115:..\..\FreeflyAPI/QX_Protocol.c **** // Get a bit 7 extendable value from a buffer (up to 4 bytes, 28 bits)
 116:..\..\FreeflyAPI/QX_Protocol.c **** uint32_t QX_GetExtdValFromBuf(uint8_t **p);
 117:..\..\FreeflyAPI/QX_Protocol.c **** 
 118:..\..\FreeflyAPI/QX_Protocol.c **** // Calculate 8 bit checksum
 119:..\..\FreeflyAPI/QX_Protocol.c **** uint8_t QX_Calc8bChecksum(uint8_t *buf_p, uint32_t len);
 120:..\..\FreeflyAPI/QX_Protocol.c **** 
 121:..\..\FreeflyAPI/QX_Protocol.c **** // Calculate 32 bit checksum
 122:..\..\FreeflyAPI/QX_Protocol.c **** uint8_t QX_Calc32bChecksum(uint8_t *buf_p, uint32_t len);
 123:..\..\FreeflyAPI/QX_Protocol.c **** 
 124:..\..\FreeflyAPI/QX_Protocol.c **** //****************************************************************************
 125:..\..\FreeflyAPI/QX_Protocol.c **** // Private Function Definitions
 126:..\..\FreeflyAPI/QX_Protocol.c **** //****************************************************************************
 127:..\..\FreeflyAPI/QX_Protocol.c **** 
 128:..\..\FreeflyAPI/QX_Protocol.c **** //----------------------------------------------------------------------------
 129:..\..\FreeflyAPI/QX_Protocol.c **** // Initialize all data in a Message Structure
 130:..\..\FreeflyAPI/QX_Protocol.c **** QX_Stat_e QX_InitMsg(QX_Msg_t *Msg_p)
 131:..\..\FreeflyAPI/QX_Protocol.c **** {
  28              		.loc 1 131 0
  29              		.cfi_startproc
  30              		@ args = 0, pretend = 0, frame = 0
  31              		@ frame_needed = 0, uses_anonymous_args = 0
  32              	.LVL0:
  33 0000 08B5     		push	{r3, lr}
  34              		.cfi_def_cfa_offset 8
  35              		.cfi_offset 3, -8
  36              		.cfi_offset 14, -4
 132:..\..\FreeflyAPI/QX_Protocol.c **** 	// Set all to zero. Zero for most variables is default. Set any values that need to
 133:..\..\FreeflyAPI/QX_Protocol.c **** 	memset(Msg_p, 0, sizeof(QX_Msg_t));
  37              		.loc 1 133 0
  38 0002 7422     		movs	r2, #116
ARM GAS  C:\Users\hamis\AppData\Local\Temp\ccsOK97v.s 			page 4


  39 0004 0021     		movs	r1, #0
  40 0006 FFF7FEFF 		bl	memset
  41              	.LVL1:
 134:..\..\FreeflyAPI/QX_Protocol.c **** 	
 135:..\..\FreeflyAPI/QX_Protocol.c **** 	// Pointer Init
 136:..\..\FreeflyAPI/QX_Protocol.c **** 	Msg_p->BufPayloadStart_p = NULL;
 137:..\..\FreeflyAPI/QX_Protocol.c **** 	Msg_p->MsgBufAtt_p = NULL;
 138:..\..\FreeflyAPI/QX_Protocol.c **** 	Msg_p->MsgBuf_p = NULL;
 139:..\..\FreeflyAPI/QX_Protocol.c **** 	
 140:..\..\FreeflyAPI/QX_Protocol.c **** 	return QX_STAT_OK;
 141:..\..\FreeflyAPI/QX_Protocol.c **** }
  42              		.loc 1 141 0
  43 000a 0020     		movs	r0, #0
  44 000c 08BD     		pop	{r3, pc}
  45              		.cfi_endproc
  46              	.LFE0:
  47              		.size	QX_InitMsg, .-QX_InitMsg
  48 000e 00BF     		.section	.text.QX_Cli_Rx_CurVal,"ax",%progbits
  49              		.align	2
  50              		.global	QX_Cli_Rx_CurVal
  51              		.thumb
  52              		.thumb_func
  53              		.type	QX_Cli_Rx_CurVal, %function
  54              	QX_Cli_Rx_CurVal:
  55              	.LFB4:
 142:..\..\FreeflyAPI/QX_Protocol.c **** 
 143:..\..\FreeflyAPI/QX_Protocol.c **** 
 144:..\..\FreeflyAPI/QX_Protocol.c **** //----------------------------------------------------------------------------
 145:..\..\FreeflyAPI/QX_Protocol.c **** // Recieve QX Packet, Process and Respond if Neccessary
 146:..\..\FreeflyAPI/QX_Protocol.c **** //
 147:..\..\FreeflyAPI/QX_Protocol.c **** QX_Stat_e QX_RxMsg(QX_Msg_t *RxMsg_p)
 148:..\..\FreeflyAPI/QX_Protocol.c **** {
 149:..\..\FreeflyAPI/QX_Protocol.c **** 	RxMsg_p->MsgBuf_p = &RxMsg_p->MsgBuf[0];
 150:..\..\FreeflyAPI/QX_Protocol.c **** 	RxMsg_p->MsgBufStart_p = &RxMsg_p->MsgBuf[0];
 151:..\..\FreeflyAPI/QX_Protocol.c **** 	RxMsg_p->AttNotHandled = 0;		// Assume it will be handled to start - let the parser set this flag 
 152:..\..\FreeflyAPI/QX_Protocol.c **** 	
 153:..\..\FreeflyAPI/QX_Protocol.c **** 	#ifdef QX_DEBUG
 154:..\..\FreeflyAPI/QX_Protocol.c **** 	printf("Raw Msg Packet as Recieved:\n\r");
 155:..\..\FreeflyAPI/QX_Protocol.c **** 	QX_debug_print_Hex(&RxMsg_p->MsgBuf[0], RxMsg_p->Header.MsgLength);
 156:..\..\FreeflyAPI/QX_Protocol.c **** 	#endif
 157:..\..\FreeflyAPI/QX_Protocol.c **** 
 158:..\..\FreeflyAPI/QX_Protocol.c **** 	// Parse Protocol Header
 159:..\..\FreeflyAPI/QX_Protocol.c **** 	if (RxMsg_p->Legacy_Header){
 160:..\..\FreeflyAPI/QX_Protocol.c **** 		if (*QX_ParseHeader_Legacy != NULL){
 161:..\..\FreeflyAPI/QX_Protocol.c **** 			QX_ParseHeader_Legacy(RxMsg_p);
 162:..\..\FreeflyAPI/QX_Protocol.c **** 		} else {
 163:..\..\FreeflyAPI/QX_Protocol.c **** 			return QX_STAT_ERROR;
 164:..\..\FreeflyAPI/QX_Protocol.c **** 		}
 165:..\..\FreeflyAPI/QX_Protocol.c **** 	} else {									
 166:..\..\FreeflyAPI/QX_Protocol.c **** 		QX_ParseHeader(RxMsg_p);
 167:..\..\FreeflyAPI/QX_Protocol.c **** 	}
 168:..\..\FreeflyAPI/QX_Protocol.c **** 	
 169:..\..\FreeflyAPI/QX_Protocol.c **** 	RxMsg_p->BufPayloadStart_p = RxMsg_p->MsgBuf_p;	// the pointer is at the payload after parsing the
 170:..\..\FreeflyAPI/QX_Protocol.c **** 	
 171:..\..\FreeflyAPI/QX_Protocol.c **** 	// Check the CRC32 if enabled
 172:..\..\FreeflyAPI/QX_Protocol.c **** 	if (RxMsg_p->Header.AddCRC32){
 173:..\..\FreeflyAPI/QX_Protocol.c **** 		uint32_t crc32_result = QX_accumulate_crc32(0xFFFFFFFF, RxMsg_p->MsgBuf, RxMsg_p->MsgBuf_MsgLen -
ARM GAS  C:\Users\hamis\AppData\Local\Temp\ccsOK97v.s 			page 5


 174:..\..\FreeflyAPI/QX_Protocol.c **** 		uint32_t crc32_msg = 0;
 175:..\..\FreeflyAPI/QX_Protocol.c **** 		memcpy(&crc32_msg, &RxMsg_p->MsgBuf[RxMsg_p->MsgBuf_MsgLen - 5], sizeof(crc32_msg));
 176:..\..\FreeflyAPI/QX_Protocol.c **** 		if (crc32_result != crc32_msg)
 177:..\..\FreeflyAPI/QX_Protocol.c **** 			return QX_STAT_ERROR_RXMSG_CRC32_FAIL;
 178:..\..\FreeflyAPI/QX_Protocol.c **** 	}
 179:..\..\FreeflyAPI/QX_Protocol.c **** 	
 180:..\..\FreeflyAPI/QX_Protocol.c **** 	// Allow application specific message forwarding (send a copy of the message out one or more other
 181:..\..\FreeflyAPI/QX_Protocol.c **** 	QX_FwdMsg_CB(RxMsg_p);
 182:..\..\FreeflyAPI/QX_Protocol.c **** 	
 183:..\..\FreeflyAPI/QX_Protocol.c **** 	// Print out the recieved packet info for Debug
 184:..\..\FreeflyAPI/QX_Protocol.c **** 	#ifdef QX_DEBUG
 185:..\..\FreeflyAPI/QX_Protocol.c **** 	QX_debug_print_MsgDetails(RxMsg_p);
 186:..\..\FreeflyAPI/QX_Protocol.c **** 	#endif
 187:..\..\FreeflyAPI/QX_Protocol.c **** 	
 188:..\..\FreeflyAPI/QX_Protocol.c **** 	// Handle Eeach type of message
 189:..\..\FreeflyAPI/QX_Protocol.c **** 	switch (RxMsg_p->Header.Type){
 190:..\..\FreeflyAPI/QX_Protocol.c **** 		
 191:..\..\FreeflyAPI/QX_Protocol.c **** 		case QX_MSG_TYPE_READ:
 192:..\..\FreeflyAPI/QX_Protocol.c **** 			QX_Srv_Rx_Read(RxMsg_p);
 193:..\..\FreeflyAPI/QX_Protocol.c **** 			break;
 194:..\..\FreeflyAPI/QX_Protocol.c **** 		
 195:..\..\FreeflyAPI/QX_Protocol.c **** 		case QX_MSG_TYPE_WRITE_ABS:
 196:..\..\FreeflyAPI/QX_Protocol.c **** 		case QX_MSG_TYPE_WRITE_REL:
 197:..\..\FreeflyAPI/QX_Protocol.c **** 			QX_Srv_Rx_Write(RxMsg_p);
 198:..\..\FreeflyAPI/QX_Protocol.c **** 			break;
 199:..\..\FreeflyAPI/QX_Protocol.c **** 		
 200:..\..\FreeflyAPI/QX_Protocol.c **** 		case QX_MSG_TYPE_CURVAL:
 201:..\..\FreeflyAPI/QX_Protocol.c **** 			QX_Cli_Rx_CurVal(RxMsg_p);
 202:..\..\FreeflyAPI/QX_Protocol.c **** 			break;
 203:..\..\FreeflyAPI/QX_Protocol.c **** 		
 204:..\..\FreeflyAPI/QX_Protocol.c **** 		default:
 205:..\..\FreeflyAPI/QX_Protocol.c **** 			return QX_STAT_ERROR_MSG_TYPE_NOT_SUPPORTED;
 206:..\..\FreeflyAPI/QX_Protocol.c **** 	}
 207:..\..\FreeflyAPI/QX_Protocol.c **** 	
 208:..\..\FreeflyAPI/QX_Protocol.c **** 	return QX_STAT_OK;
 209:..\..\FreeflyAPI/QX_Protocol.c **** }
 210:..\..\FreeflyAPI/QX_Protocol.c **** 
 211:..\..\FreeflyAPI/QX_Protocol.c **** 
 212:..\..\FreeflyAPI/QX_Protocol.c **** //----------------------------------------------------------------------------
 213:..\..\FreeflyAPI/QX_Protocol.c **** // Server - Recv Read
 214:..\..\FreeflyAPI/QX_Protocol.c **** // (No data payload) then APP->MSG
 215:..\..\FreeflyAPI/QX_Protocol.c **** void QX_Srv_Rx_Read(QX_Msg_t *RxMsg_p)
 216:..\..\FreeflyAPI/QX_Protocol.c **** {
 217:..\..\FreeflyAPI/QX_Protocol.c **** 	// Check Address - For each server node, if unicast & address match or broadcast, handle it
 218:..\..\FreeflyAPI/QX_Protocol.c **** 	for (int srv_i = 0; srv_i < QX_NUM_SRV; srv_i++){
 219:..\..\FreeflyAPI/QX_Protocol.c **** 		if ((RxMsg_p->Header.Target_Addr == QX_Servers[srv_i].Address) || (RxMsg_p->Header.Target_Addr ==
 220:..\..\FreeflyAPI/QX_Protocol.c **** 			QX_TxMsgOptions_t options;
 221:..\..\FreeflyAPI/QX_Protocol.c **** 			QX_InitTxOptions(&options);
 222:..\..\FreeflyAPI/QX_Protocol.c **** 			options.use_CRC32 = RxMsg_p->Header.AddCRC32;
 223:..\..\FreeflyAPI/QX_Protocol.c **** 			options.FF_Ext = RxMsg_p->Header.FF_Ext;
 224:..\..\FreeflyAPI/QX_Protocol.c **** 			options.Remove_Addr_Fields = RxMsg_p->Header.Remove_Addr_Fields;
 225:..\..\FreeflyAPI/QX_Protocol.c **** 			options.Remove_Req_Fields = 1;		// No need for request fields in a response.
 226:..\..\FreeflyAPI/QX_Protocol.c **** 			options.Target_Addr = RxMsg_p->Header.Source_Addr;		// Reverse target
 227:..\..\FreeflyAPI/QX_Protocol.c **** 			QX_SendPacket_Srv_CurVal(&QX_Servers[srv_i], RxMsg_p->Header.Attrib, RxMsg_p->CommPort, options)
 228:..\..\FreeflyAPI/QX_Protocol.c **** 		}
 229:..\..\FreeflyAPI/QX_Protocol.c **** 	}
 230:..\..\FreeflyAPI/QX_Protocol.c **** }
ARM GAS  C:\Users\hamis\AppData\Local\Temp\ccsOK97v.s 			page 6


 231:..\..\FreeflyAPI/QX_Protocol.c **** 
 232:..\..\FreeflyAPI/QX_Protocol.c **** //----------------------------------------------------------------------------
 233:..\..\FreeflyAPI/QX_Protocol.c **** // Server - Recv Write
 234:..\..\FreeflyAPI/QX_Protocol.c **** // MSG->APP then APP->MSG
 235:..\..\FreeflyAPI/QX_Protocol.c **** void QX_Srv_Rx_Write(QX_Msg_t *RxMsg_p)
 236:..\..\FreeflyAPI/QX_Protocol.c **** {
 237:..\..\FreeflyAPI/QX_Protocol.c **** 	// Set parsing type
 238:..\..\FreeflyAPI/QX_Protocol.c **** 	if (RxMsg_p->Header.Type == QX_MSG_TYPE_WRITE_REL){
 239:..\..\FreeflyAPI/QX_Protocol.c **** 		RxMsg_p->Parse_Type = QX_PARSE_TYPE_WRITE_REL_RECV;
 240:..\..\FreeflyAPI/QX_Protocol.c **** 	} else if (RxMsg_p->Header.Type == QX_MSG_TYPE_WRITE_ABS){
 241:..\..\FreeflyAPI/QX_Protocol.c **** 		RxMsg_p->Parse_Type = QX_PARSE_TYPE_WRITE_ABS_RECV;
 242:..\..\FreeflyAPI/QX_Protocol.c **** 	}
 243:..\..\FreeflyAPI/QX_Protocol.c **** 	
 244:..\..\FreeflyAPI/QX_Protocol.c **** 	// Check Address - For each server node, if unicast & address match or broadcast, handle it
 245:..\..\FreeflyAPI/QX_Protocol.c **** 	for (int srv_i = 0; srv_i < QX_NUM_SRV; srv_i++){
 246:..\..\FreeflyAPI/QX_Protocol.c **** 		if ((RxMsg_p->Header.Target_Addr == QX_Servers[srv_i].Address) || (RxMsg_p->Header.Target_Addr ==
 247:..\..\FreeflyAPI/QX_Protocol.c **** 			QX_Servers[srv_i].Parser_CB(RxMsg_p);	// Application callback
 248:..\..\FreeflyAPI/QX_Protocol.c **** 		
 249:..\..\FreeflyAPI/QX_Protocol.c **** 			// Re-purpose the message to send it
 250:..\..\FreeflyAPI/QX_Protocol.c **** 			if (RxMsg_p->DisableStdResponse == 0){
 251:..\..\FreeflyAPI/QX_Protocol.c **** 				QX_TxMsgOptions_t options;
 252:..\..\FreeflyAPI/QX_Protocol.c **** 				QX_InitTxOptions(&options);
 253:..\..\FreeflyAPI/QX_Protocol.c **** 				options.use_CRC32 = RxMsg_p->Header.AddCRC32;
 254:..\..\FreeflyAPI/QX_Protocol.c **** 				options.FF_Ext = RxMsg_p->Header.FF_Ext;
 255:..\..\FreeflyAPI/QX_Protocol.c **** 				options.Remove_Addr_Fields = RxMsg_p->Header.Remove_Addr_Fields;
 256:..\..\FreeflyAPI/QX_Protocol.c **** 				options.Remove_Req_Fields = 1;		// No need for request fields in a response.
 257:..\..\FreeflyAPI/QX_Protocol.c **** 				options.Target_Addr = RxMsg_p->Header.Source_Addr;		// Reverse target
 258:..\..\FreeflyAPI/QX_Protocol.c **** 				QX_SendPacket_Srv_CurVal(&QX_Servers[srv_i], RxMsg_p->Header.Attrib, RxMsg_p->CommPort, options
 259:..\..\FreeflyAPI/QX_Protocol.c **** 			}
 260:..\..\FreeflyAPI/QX_Protocol.c **** 		}
 261:..\..\FreeflyAPI/QX_Protocol.c **** 	}
 262:..\..\FreeflyAPI/QX_Protocol.c **** }
 263:..\..\FreeflyAPI/QX_Protocol.c **** 
 264:..\..\FreeflyAPI/QX_Protocol.c **** 
 265:..\..\FreeflyAPI/QX_Protocol.c **** //----------------------------------------------------------------------------
 266:..\..\FreeflyAPI/QX_Protocol.c **** // Client - Recv Current Value
 267:..\..\FreeflyAPI/QX_Protocol.c **** // MSG->APP
 268:..\..\FreeflyAPI/QX_Protocol.c **** void QX_Cli_Rx_CurVal(QX_Msg_t *RxMsg_p)
 269:..\..\FreeflyAPI/QX_Protocol.c **** {
  56              		.loc 1 269 0
  57              		.cfi_startproc
  58              		@ args = 0, pretend = 0, frame = 0
  59              		@ frame_needed = 0, uses_anonymous_args = 0
  60              	.LVL2:
  61 0000 38B5     		push	{r3, r4, r5, lr}
  62              		.cfi_def_cfa_offset 16
  63              		.cfi_offset 3, -16
  64              		.cfi_offset 4, -12
  65              		.cfi_offset 5, -8
  66              		.cfi_offset 14, -4
  67 0002 0546     		mov	r5, r0
 270:..\..\FreeflyAPI/QX_Protocol.c **** 	// Set parsing type
 271:..\..\FreeflyAPI/QX_Protocol.c **** 	RxMsg_p->Parse_Type = QX_PARSE_TYPE_CURVAL_RECV;
  68              		.loc 1 271 0
  69 0004 0123     		movs	r3, #1
  70 0006 0370     		strb	r3, [r0]
  71              	.LVL3:
ARM GAS  C:\Users\hamis\AppData\Local\Temp\ccsOK97v.s 			page 7


  72              	.LBB2:
 272:..\..\FreeflyAPI/QX_Protocol.c **** 	
 273:..\..\FreeflyAPI/QX_Protocol.c **** 	// Check Address - For each client instance, if unicast & address match or broadcast, handle it
 274:..\..\FreeflyAPI/QX_Protocol.c **** 	for (int cli_i = 0; cli_i < QX_NUM_CLI; cli_i++){
  73              		.loc 1 274 0
  74 0008 0024     		movs	r4, #0
  75 000a 06E0     		b	.L4
  76              	.LVL4:
  77              	.L5:
 275:..\..\FreeflyAPI/QX_Protocol.c **** 		QX_Clients[cli_i].Parser_CB(RxMsg_p);	// Application callback
  78              		.loc 1 275 0 discriminator 3
  79 000c 044B     		ldr	r3, .L7
  80 000e 03EBC403 		add	r3, r3, r4, lsl #3
  81 0012 5B68     		ldr	r3, [r3, #4]
  82 0014 2846     		mov	r0, r5
  83 0016 9847     		blx	r3
  84              	.LVL5:
 274:..\..\FreeflyAPI/QX_Protocol.c **** 		QX_Clients[cli_i].Parser_CB(RxMsg_p);	// Application callback
  85              		.loc 1 274 0 discriminator 3
  86 0018 0134     		adds	r4, r4, #1
  87              	.LVL6:
  88              	.L4:
 274:..\..\FreeflyAPI/QX_Protocol.c **** 		QX_Clients[cli_i].Parser_CB(RxMsg_p);	// Application callback
  89              		.loc 1 274 0 is_stmt 0 discriminator 1
  90 001a 002C     		cmp	r4, #0
  91 001c F6DD     		ble	.L5
  92              	.LBE2:
 276:..\..\FreeflyAPI/QX_Protocol.c **** 	}
 277:..\..\FreeflyAPI/QX_Protocol.c **** }
  93              		.loc 1 277 0 is_stmt 1
  94 001e 38BD     		pop	{r3, r4, r5, pc}
  95              	.LVL7:
  96              	.L8:
  97              		.align	2
  98              	.L7:
  99 0020 00000000 		.word	QX_Clients
 100              		.cfi_endproc
 101              	.LFE4:
 102              		.size	QX_Cli_Rx_CurVal, .-QX_Cli_Rx_CurVal
 103              		.section	.text.QX_Calc8bChecksum,"ax",%progbits
 104              		.align	2
 105              		.global	QX_Calc8bChecksum
 106              		.thumb
 107              		.thumb_func
 108              		.type	QX_Calc8bChecksum, %function
 109              	QX_Calc8bChecksum:
 110              	.LFB9:
 278:..\..\FreeflyAPI/QX_Protocol.c **** 
 279:..\..\FreeflyAPI/QX_Protocol.c **** 
 280:..\..\FreeflyAPI/QX_Protocol.c **** //----------------------------------------------------------------------------
 281:..\..\FreeflyAPI/QX_Protocol.c **** // Transmit QX Packet according to Message Structure
 282:..\..\FreeflyAPI/QX_Protocol.c **** QX_Stat_e QX_TxMsg_Setup(QX_Msg_t *TxMsg_p)
 283:..\..\FreeflyAPI/QX_Protocol.c **** {
 284:..\..\FreeflyAPI/QX_Protocol.c **** 	// Set the Buffer pointer to the start of the Attribute field accounting for the maximum number of
 285:..\..\FreeflyAPI/QX_Protocol.c **** 	// (unknown length prior to parsing) ('Q' + 'X' + LEN0 + LEN1)
 286:..\..\FreeflyAPI/QX_Protocol.c **** 	TxMsg_p->MsgBufAtt_p = &TxMsg_p->MsgBuf[4];
 287:..\..\FreeflyAPI/QX_Protocol.c **** 	TxMsg_p->MsgBuf_p = TxMsg_p->MsgBufAtt_p;
ARM GAS  C:\Users\hamis\AppData\Local\Temp\ccsOK97v.s 			page 8


 288:..\..\FreeflyAPI/QX_Protocol.c **** 	
 289:..\..\FreeflyAPI/QX_Protocol.c **** 	// Build the Frame Header
 290:..\..\FreeflyAPI/QX_Protocol.c **** 	if (TxMsg_p->Legacy_Header){
 291:..\..\FreeflyAPI/QX_Protocol.c **** 		if (*QX_BuildHeader_Legacy != NULL){
 292:..\..\FreeflyAPI/QX_Protocol.c **** 			QX_BuildHeader_Legacy(TxMsg_p);
 293:..\..\FreeflyAPI/QX_Protocol.c **** 		} else {
 294:..\..\FreeflyAPI/QX_Protocol.c **** 			return QX_STAT_ERROR;
 295:..\..\FreeflyAPI/QX_Protocol.c **** 		}
 296:..\..\FreeflyAPI/QX_Protocol.c **** 	} else {									
 297:..\..\FreeflyAPI/QX_Protocol.c **** 		QX_BuildHeader(TxMsg_p);
 298:..\..\FreeflyAPI/QX_Protocol.c **** 	}
 299:..\..\FreeflyAPI/QX_Protocol.c **** 	
 300:..\..\FreeflyAPI/QX_Protocol.c **** 	return QX_STAT_OK;
 301:..\..\FreeflyAPI/QX_Protocol.c **** }
 302:..\..\FreeflyAPI/QX_Protocol.c **** 
 303:..\..\FreeflyAPI/QX_Protocol.c **** 
 304:..\..\FreeflyAPI/QX_Protocol.c **** //----------------------------------------------------------------------------
 305:..\..\FreeflyAPI/QX_Protocol.c **** // After message data has been parsed, finish building the message
 306:..\..\FreeflyAPI/QX_Protocol.c **** QX_Stat_e QX_TxMsg_Finish(QX_Msg_t *TxMsg_p)
 307:..\..\FreeflyAPI/QX_Protocol.c **** {	
 308:..\..\FreeflyAPI/QX_Protocol.c **** 	uint8_t QX_use2ByteLen = 0;
 309:..\..\FreeflyAPI/QX_Protocol.c **** 	
 310:..\..\FreeflyAPI/QX_Protocol.c **** 	// If this attribute isn't handled, (no data) return
 311:..\..\FreeflyAPI/QX_Protocol.c **** 	if(TxMsg_p->AttNotHandled == 1) return QX_STAT_ERROR_ATT_NOT_HANDLED;
 312:..\..\FreeflyAPI/QX_Protocol.c **** 	
 313:..\..\FreeflyAPI/QX_Protocol.c **** 	// Find the Message Length (Attribute to End of Payload)
 314:..\..\FreeflyAPI/QX_Protocol.c **** 	TxMsg_p->Header.MsgLength = TxMsg_p->MsgBuf_p - TxMsg_p->MsgBufAtt_p;
 315:..\..\FreeflyAPI/QX_Protocol.c **** 	
 316:..\..\FreeflyAPI/QX_Protocol.c **** 	// force two_byte length field if the message body is the legacy type or is already larger than 10
 317:..\..\FreeflyAPI/QX_Protocol.c **** 	if (TxMsg_p->Legacy_Header || (TxMsg_p->Header.MsgLength > 100)){
 318:..\..\FreeflyAPI/QX_Protocol.c **** 		TxMsg_p->MsgBufStart_p = &TxMsg_p->MsgBuf[0];
 319:..\..\FreeflyAPI/QX_Protocol.c **** 		QX_use2ByteLen = 1;
 320:..\..\FreeflyAPI/QX_Protocol.c **** 	} else {
 321:..\..\FreeflyAPI/QX_Protocol.c **** 		TxMsg_p->MsgBufStart_p = &TxMsg_p->MsgBuf[1];
 322:..\..\FreeflyAPI/QX_Protocol.c **** 	}
 323:..\..\FreeflyAPI/QX_Protocol.c **** 	
 324:..\..\FreeflyAPI/QX_Protocol.c **** 	// Save the size of the overall message buffer after determining start location, before any CRC is
 325:..\..\FreeflyAPI/QX_Protocol.c **** 	TxMsg_p->MsgBuf_MsgLen = TxMsg_p->MsgBuf_p - TxMsg_p->MsgBufStart_p;
 326:..\..\FreeflyAPI/QX_Protocol.c **** 	
 327:..\..\FreeflyAPI/QX_Protocol.c **** 	// If CRC32 is used, find sizing with padding
 328:..\..\FreeflyAPI/QX_Protocol.c **** 	if (TxMsg_p->Header.AddCRC32){
 329:..\..\FreeflyAPI/QX_Protocol.c **** 		
 330:..\..\FreeflyAPI/QX_Protocol.c **** 		// Add padding to get to 4 byte alignment
 331:..\..\FreeflyAPI/QX_Protocol.c **** 		uint32_t bytes_to_add = 4 - ((TxMsg_p->MsgBuf_MsgLen) % 4);		// CRC will bec checked over all byt
 332:..\..\FreeflyAPI/QX_Protocol.c **** 		memset(TxMsg_p->MsgBuf_p, 0, bytes_to_add);		// write zeros to the padding
 333:..\..\FreeflyAPI/QX_Protocol.c **** 		TxMsg_p->MsgBuf_p += bytes_to_add;				// Move to where the CRC should be inserted
 334:..\..\FreeflyAPI/QX_Protocol.c **** 		TxMsg_p->MsgBuf_MsgLen += bytes_to_add;			// msg length not including CRC + outer checksum
 335:..\..\FreeflyAPI/QX_Protocol.c **** 		TxMsg_p->Header.MsgLength = (TxMsg_p->MsgBuf_p - TxMsg_p->MsgBufAtt_p) + 4;	// length between att
 336:..\..\FreeflyAPI/QX_Protocol.c **** 	}
 337:..\..\FreeflyAPI/QX_Protocol.c **** 	
 338:..\..\FreeflyAPI/QX_Protocol.c **** 	// Add In the Final Message Size (Expandable if above 100 bytes) and Start Bytes
 339:..\..\FreeflyAPI/QX_Protocol.c **** 	if (TxMsg_p->Legacy_Header){
 340:..\..\FreeflyAPI/QX_Protocol.c **** 			TxMsg_p->MsgBuf[0] = 'Q';
 341:..\..\FreeflyAPI/QX_Protocol.c **** 			TxMsg_p->MsgBuf[1] = 'B';
 342:..\..\FreeflyAPI/QX_Protocol.c **** 			TxMsg_p->MsgBuf[2] = (TxMsg_p->Header.MsgLength >> 8) & 0xFF;
 343:..\..\FreeflyAPI/QX_Protocol.c **** 			TxMsg_p->MsgBuf[3] = TxMsg_p->Header.MsgLength & 0xFF;
 344:..\..\FreeflyAPI/QX_Protocol.c **** 	} else {	// QX
ARM GAS  C:\Users\hamis\AppData\Local\Temp\ccsOK97v.s 			page 9


 345:..\..\FreeflyAPI/QX_Protocol.c **** 		if (QX_use2ByteLen) {
 346:..\..\FreeflyAPI/QX_Protocol.c **** 			TxMsg_p->MsgBuf[0] = 'Q';
 347:..\..\FreeflyAPI/QX_Protocol.c **** 			TxMsg_p->MsgBuf[1] = 'X';
 348:..\..\FreeflyAPI/QX_Protocol.c **** 			TxMsg_p->MsgBuf[2] = (TxMsg_p->Header.MsgLength & 0x7F) | 0x80;
 349:..\..\FreeflyAPI/QX_Protocol.c **** 			TxMsg_p->MsgBuf[3] = ((TxMsg_p->Header.MsgLength >> 7) & 0x7F);
 350:..\..\FreeflyAPI/QX_Protocol.c **** 		} else {
 351:..\..\FreeflyAPI/QX_Protocol.c **** 			TxMsg_p->MsgBuf[1] = 'Q';
 352:..\..\FreeflyAPI/QX_Protocol.c **** 			TxMsg_p->MsgBuf[2] = 'X';
 353:..\..\FreeflyAPI/QX_Protocol.c **** 			TxMsg_p->MsgBuf[3] = TxMsg_p->Header.MsgLength & 0x7F;
 354:..\..\FreeflyAPI/QX_Protocol.c **** 		}
 355:..\..\FreeflyAPI/QX_Protocol.c **** 	}
 356:..\..\FreeflyAPI/QX_Protocol.c **** 	
 357:..\..\FreeflyAPI/QX_Protocol.c **** 	// Add in the CRC32 if needed
 358:..\..\FreeflyAPI/QX_Protocol.c **** 	if (TxMsg_p->Header.AddCRC32){
 359:..\..\FreeflyAPI/QX_Protocol.c **** 		uint32_t crc = QX_accumulate_crc32(0xFFFFFFFF, TxMsg_p->MsgBufStart_p, TxMsg_p->MsgBuf_MsgLen);
 360:..\..\FreeflyAPI/QX_Protocol.c **** 		memcpy(TxMsg_p->MsgBuf_p, &crc, sizeof(crc));
 361:..\..\FreeflyAPI/QX_Protocol.c **** 		TxMsg_p->MsgBuf_p += 4;		// Add space for CRC32 checksum
 362:..\..\FreeflyAPI/QX_Protocol.c **** 		TxMsg_p->MsgBuf_MsgLen = TxMsg_p->MsgBuf_p - TxMsg_p->MsgBufStart_p;	// Update the overall msg le
 363:..\..\FreeflyAPI/QX_Protocol.c **** 	}
 364:..\..\FreeflyAPI/QX_Protocol.c **** 	
 365:..\..\FreeflyAPI/QX_Protocol.c **** 	// Calculate overall outer checksum
 366:..\..\FreeflyAPI/QX_Protocol.c **** 	uint8_t chksum = QX_Calc8bChecksum(TxMsg_p->MsgBufAtt_p, TxMsg_p->Header.MsgLength);
 367:..\..\FreeflyAPI/QX_Protocol.c **** 	
 368:..\..\FreeflyAPI/QX_Protocol.c **** 	*TxMsg_p->MsgBuf_p++ = 0xFF - chksum;	// Add the Overall Checksum
 369:..\..\FreeflyAPI/QX_Protocol.c **** 	TxMsg_p->MsgBuf_MsgLen++;	// Final message length on the wire
 370:..\..\FreeflyAPI/QX_Protocol.c **** 	
 371:..\..\FreeflyAPI/QX_Protocol.c **** 	#ifdef QX_DEBUG
 372:..\..\FreeflyAPI/QX_Protocol.c **** 	printf("Raw Msg Packet:\n\r");
 373:..\..\FreeflyAPI/QX_Protocol.c **** 	QX_debug_print_Hex(TxMsg_p->MsgBufStart_p, TxMsg_p->MsgBuf_MsgLen);
 374:..\..\FreeflyAPI/QX_Protocol.c **** 	QX_debug_print_MsgDetails(TxMsg_p);
 375:..\..\FreeflyAPI/QX_Protocol.c **** 	#endif
 376:..\..\FreeflyAPI/QX_Protocol.c **** 	
 377:..\..\FreeflyAPI/QX_Protocol.c **** 	// Send the Message to the Appropriate Comms Port
 378:..\..\FreeflyAPI/QX_Protocol.c **** 	QX_SendMsg2CommsPort_CB(TxMsg_p);
 379:..\..\FreeflyAPI/QX_Protocol.c **** 	
 380:..\..\FreeflyAPI/QX_Protocol.c **** 	return QX_STAT_OK;
 381:..\..\FreeflyAPI/QX_Protocol.c **** }
 382:..\..\FreeflyAPI/QX_Protocol.c **** 
 383:..\..\FreeflyAPI/QX_Protocol.c **** 
 384:..\..\FreeflyAPI/QX_Protocol.c **** //----------------------------------------------------------------------------
 385:..\..\FreeflyAPI/QX_Protocol.c **** // Build a QX Message Header
 386:..\..\FreeflyAPI/QX_Protocol.c **** void QX_BuildHeader(QX_Msg_t *Msg_p)
 387:..\..\FreeflyAPI/QX_Protocol.c **** {
 388:..\..\FreeflyAPI/QX_Protocol.c **** 	// Start at the Attribute Field
 389:..\..\FreeflyAPI/QX_Protocol.c **** 	Msg_p->MsgBuf_p = Msg_p->MsgBufAtt_p;
 390:..\..\FreeflyAPI/QX_Protocol.c **** 
 391:..\..\FreeflyAPI/QX_Protocol.c **** 	// Add the Extendible Attribute Number
 392:..\..\FreeflyAPI/QX_Protocol.c **** 	QX_AddExtdValToBuf(&Msg_p->MsgBuf_p, Msg_p->Header.Attrib);
 393:..\..\FreeflyAPI/QX_Protocol.c **** 
 394:..\..\FreeflyAPI/QX_Protocol.c **** 	Msg_p->Header.AddOptionByte1 = 0;
 395:..\..\FreeflyAPI/QX_Protocol.c **** 	
 396:..\..\FreeflyAPI/QX_Protocol.c **** 	// Check if option byte 1 is needed.
 397:..\..\FreeflyAPI/QX_Protocol.c **** 	if (Msg_p->Header.AddCRC32){
 398:..\..\FreeflyAPI/QX_Protocol.c **** 		Msg_p->Header.AddOptionByte1 = 1;
 399:..\..\FreeflyAPI/QX_Protocol.c **** 	}
 400:..\..\FreeflyAPI/QX_Protocol.c **** 	
 401:..\..\FreeflyAPI/QX_Protocol.c **** 	// Add Base Option Byte
ARM GAS  C:\Users\hamis\AppData\Local\Temp\ccsOK97v.s 			page 10


 402:..\..\FreeflyAPI/QX_Protocol.c **** 	volatile uint8_t OptionByte = 0;
 403:..\..\FreeflyAPI/QX_Protocol.c **** 	OptionByte |= (Msg_p->Header.Type & 0xF);
 404:..\..\FreeflyAPI/QX_Protocol.c **** 	OptionByte |= (Msg_p->Header.FF_Ext & 0x01) << 4;
 405:..\..\FreeflyAPI/QX_Protocol.c **** 	OptionByte |= (Msg_p->Header.Remove_Req_Fields & 0x01) << 5;
 406:..\..\FreeflyAPI/QX_Protocol.c **** 	OptionByte |= (Msg_p->Header.Remove_Addr_Fields & 0x01) << 6;
 407:..\..\FreeflyAPI/QX_Protocol.c **** 	OptionByte |= (Msg_p->Header.AddOptionByte1 & 0x01) << 7;
 408:..\..\FreeflyAPI/QX_Protocol.c **** 	*Msg_p->MsgBuf_p++ = OptionByte;
 409:..\..\FreeflyAPI/QX_Protocol.c **** 	
 410:..\..\FreeflyAPI/QX_Protocol.c **** 	// Add option byte 1 if needed
 411:..\..\FreeflyAPI/QX_Protocol.c **** 	if(Msg_p->Header.AddOptionByte1){
 412:..\..\FreeflyAPI/QX_Protocol.c **** 		OptionByte = 0;
 413:..\..\FreeflyAPI/QX_Protocol.c **** 		OptionByte |= (Msg_p->Header.AddCRC32 & 0x01) << 0;
 414:..\..\FreeflyAPI/QX_Protocol.c **** 		*Msg_p->MsgBuf_p++ = OptionByte;
 415:..\..\FreeflyAPI/QX_Protocol.c **** 	}
 416:..\..\FreeflyAPI/QX_Protocol.c **** 	
 417:..\..\FreeflyAPI/QX_Protocol.c **** 	// Add the addresses.
 418:..\..\FreeflyAPI/QX_Protocol.c **** 	if (Msg_p->Header.Remove_Addr_Fields == 0){
 419:..\..\FreeflyAPI/QX_Protocol.c **** 		QX_AddExtdValToBuf(&Msg_p->MsgBuf_p, Msg_p->Header.Source_Addr);
 420:..\..\FreeflyAPI/QX_Protocol.c **** 		QX_AddExtdValToBuf(&Msg_p->MsgBuf_p, Msg_p->Header.Target_Addr);
 421:..\..\FreeflyAPI/QX_Protocol.c **** 	} else {
 422:..\..\FreeflyAPI/QX_Protocol.c **** 		Msg_p->Header.Source_Addr = QX_DEV_ID_BROADCAST;
 423:..\..\FreeflyAPI/QX_Protocol.c **** 		Msg_p->Header.Target_Addr = QX_DEV_ID_BROADCAST;
 424:..\..\FreeflyAPI/QX_Protocol.c **** 	}
 425:..\..\FreeflyAPI/QX_Protocol.c **** 
 426:..\..\FreeflyAPI/QX_Protocol.c **** 	// Add the transmit/response request fields.
 427:..\..\FreeflyAPI/QX_Protocol.c **** 	if (Msg_p->Header.Remove_Req_Fields == 0){
 428:..\..\FreeflyAPI/QX_Protocol.c **** 		QX_AddExtdValToBuf(&Msg_p->MsgBuf_p, Msg_p->Header.TransReq_Addr);
 429:..\..\FreeflyAPI/QX_Protocol.c **** 		QX_AddExtdValToBuf(&Msg_p->MsgBuf_p, Msg_p->Header.RespReq_Addr);
 430:..\..\FreeflyAPI/QX_Protocol.c **** 	} else {
 431:..\..\FreeflyAPI/QX_Protocol.c **** 		Msg_p->Header.TransReq_Addr = QX_DEV_ID_BROADCAST;
 432:..\..\FreeflyAPI/QX_Protocol.c **** 		Msg_p->Header.RespReq_Addr = QX_DEV_ID_BROADCAST;
 433:..\..\FreeflyAPI/QX_Protocol.c **** 	}
 434:..\..\FreeflyAPI/QX_Protocol.c **** 	
 435:..\..\FreeflyAPI/QX_Protocol.c **** 	Msg_p->BufPayloadStart_p = Msg_p->MsgBuf_p;	// Set the Payload Begin Pointer
 436:..\..\FreeflyAPI/QX_Protocol.c **** }
 437:..\..\FreeflyAPI/QX_Protocol.c **** 
 438:..\..\FreeflyAPI/QX_Protocol.c **** //----------------------------------------------------------------------------
 439:..\..\FreeflyAPI/QX_Protocol.c **** // Parse a QX Type Message
 440:..\..\FreeflyAPI/QX_Protocol.c **** // Note, this Function leaves the Pointer at the Start of the payload
 441:..\..\FreeflyAPI/QX_Protocol.c **** void QX_ParseHeader(QX_Msg_t *Msg_p)
 442:..\..\FreeflyAPI/QX_Protocol.c **** {
 443:..\..\FreeflyAPI/QX_Protocol.c **** 	volatile uint8_t OptionByte;
 444:..\..\FreeflyAPI/QX_Protocol.c **** 	volatile uint32_t temp32;
 445:..\..\FreeflyAPI/QX_Protocol.c **** 	Msg_p->MsgBuf_p = Msg_p->MsgBufAtt_p;		// Set the message pointer to the attribute position.
 446:..\..\FreeflyAPI/QX_Protocol.c **** 
 447:..\..\FreeflyAPI/QX_Protocol.c **** 
 448:..\..\FreeflyAPI/QX_Protocol.c **** 	// Get the Extendible Attribute Number
 449:..\..\FreeflyAPI/QX_Protocol.c **** 	Msg_p->Header.Attrib = QX_GetExtdValFromBuf(&Msg_p->MsgBuf_p);
 450:..\..\FreeflyAPI/QX_Protocol.c **** 
 451:..\..\FreeflyAPI/QX_Protocol.c **** 	// Get Base Option Byte Bits
 452:..\..\FreeflyAPI/QX_Protocol.c **** 	OptionByte = *Msg_p->MsgBuf_p++;
 453:..\..\FreeflyAPI/QX_Protocol.c **** 	Msg_p->Header.Type = (QX_Msg_Type_e)(OptionByte & 0xF);
 454:..\..\FreeflyAPI/QX_Protocol.c **** 	Msg_p->Header.FF_Ext = (OptionByte >> 4) & 0x1;
 455:..\..\FreeflyAPI/QX_Protocol.c **** 	Msg_p->Header.Remove_Req_Fields = (OptionByte >> 5) & 0x1;
 456:..\..\FreeflyAPI/QX_Protocol.c **** 	Msg_p->Header.Remove_Addr_Fields = (OptionByte >> 6) & 0x1;
 457:..\..\FreeflyAPI/QX_Protocol.c **** 	Msg_p->Header.AddOptionByte1 = (OptionByte >> 7) & 0x1;
 458:..\..\FreeflyAPI/QX_Protocol.c **** 	
ARM GAS  C:\Users\hamis\AppData\Local\Temp\ccsOK97v.s 			page 11


 459:..\..\FreeflyAPI/QX_Protocol.c **** 	// Option byte 1
 460:..\..\FreeflyAPI/QX_Protocol.c **** 	if(Msg_p->Header.AddOptionByte1){
 461:..\..\FreeflyAPI/QX_Protocol.c **** 		OptionByte = *Msg_p->MsgBuf_p++;
 462:..\..\FreeflyAPI/QX_Protocol.c **** 		Msg_p->Header.AddCRC32 = (OptionByte >> 0) & 0x1;
 463:..\..\FreeflyAPI/QX_Protocol.c **** 	}
 464:..\..\FreeflyAPI/QX_Protocol.c **** 
 465:..\..\FreeflyAPI/QX_Protocol.c **** 	// If Availible, Get the Addresses
 466:..\..\FreeflyAPI/QX_Protocol.c **** 	if (Msg_p->Header.Remove_Addr_Fields == 0){
 467:..\..\FreeflyAPI/QX_Protocol.c **** 		Msg_p->Header.Source_Addr = (QX_DevId_e)(QX_GetExtdValFromBuf(&Msg_p->MsgBuf_p));
 468:..\..\FreeflyAPI/QX_Protocol.c **** 		Msg_p->Header.Target_Addr = (QX_DevId_e)(QX_GetExtdValFromBuf(&Msg_p->MsgBuf_p));
 469:..\..\FreeflyAPI/QX_Protocol.c **** 	}
 470:..\..\FreeflyAPI/QX_Protocol.c **** 	
 471:..\..\FreeflyAPI/QX_Protocol.c **** 	// If Availible, Get the Request Fields
 472:..\..\FreeflyAPI/QX_Protocol.c **** 	if (Msg_p->Header.Remove_Req_Fields == 0){
 473:..\..\FreeflyAPI/QX_Protocol.c **** 		Msg_p->Header.TransReq_Addr = (QX_DevId_e)(QX_GetExtdValFromBuf(&Msg_p->MsgBuf_p));
 474:..\..\FreeflyAPI/QX_Protocol.c **** 		Msg_p->Header.RespReq_Addr = (QX_DevId_e)(QX_GetExtdValFromBuf(&Msg_p->MsgBuf_p));
 475:..\..\FreeflyAPI/QX_Protocol.c **** 	}
 476:..\..\FreeflyAPI/QX_Protocol.c **** 	
 477:..\..\FreeflyAPI/QX_Protocol.c **** 	// Add Freefly extension bytes if needed
 478:..\..\FreeflyAPI/QX_Protocol.c **** 	if (Msg_p->Header.FF_Ext){
 479:..\..\FreeflyAPI/QX_Protocol.c **** 		Msg_p->MsgBuf_p += 2;
 480:..\..\FreeflyAPI/QX_Protocol.c **** 	}
 481:..\..\FreeflyAPI/QX_Protocol.c **** }
 482:..\..\FreeflyAPI/QX_Protocol.c **** 
 483:..\..\FreeflyAPI/QX_Protocol.c **** 
 484:..\..\FreeflyAPI/QX_Protocol.c **** //----------------------------------------------------------------------------
 485:..\..\FreeflyAPI/QX_Protocol.c **** // Calculate 8 Bit Checksum
 486:..\..\FreeflyAPI/QX_Protocol.c **** uint8_t QX_Calc8bChecksum(uint8_t *buf_p, uint32_t len)
 487:..\..\FreeflyAPI/QX_Protocol.c **** {
 111              		.loc 1 487 0
 112              		.cfi_startproc
 113              		@ args = 0, pretend = 0, frame = 0
 114              		@ frame_needed = 0, uses_anonymous_args = 0
 115              		@ link register save eliminated.
 116              	.LVL8:
 117 0000 10B4     		push	{r4}
 118              		.cfi_def_cfa_offset 4
 119              		.cfi_offset 4, -4
 120              	.LVL9:
 488:..\..\FreeflyAPI/QX_Protocol.c **** 	int j;
 489:..\..\FreeflyAPI/QX_Protocol.c **** 	uint8_t checksum = 0;
 121              		.loc 1 489 0
 122 0002 0023     		movs	r3, #0
 490:..\..\FreeflyAPI/QX_Protocol.c **** 	for(j = 0; j < len; j++)
 123              		.loc 1 490 0
 124 0004 1A46     		mov	r2, r3
 125 0006 04E0     		b	.L10
 126              	.LVL10:
 127              	.L11:
 491:..\..\FreeflyAPI/QX_Protocol.c **** 	{
 492:..\..\FreeflyAPI/QX_Protocol.c **** 		checksum += *buf_p++;
 128              		.loc 1 492 0 discriminator 3
 129 0008 0478     		ldrb	r4, [r0]	@ zero_extendqisi2
 130 000a 2344     		add	r3, r3, r4
 131              	.LVL11:
 132 000c DBB2     		uxtb	r3, r3
 133              	.LVL12:
ARM GAS  C:\Users\hamis\AppData\Local\Temp\ccsOK97v.s 			page 12


 490:..\..\FreeflyAPI/QX_Protocol.c **** 	for(j = 0; j < len; j++)
 134              		.loc 1 490 0 discriminator 3
 135 000e 0132     		adds	r2, r2, #1
 136              	.LVL13:
 137              		.loc 1 492 0 discriminator 3
 138 0010 0130     		adds	r0, r0, #1
 139              	.LVL14:
 140              	.L10:
 490:..\..\FreeflyAPI/QX_Protocol.c **** 	for(j = 0; j < len; j++)
 141              		.loc 1 490 0 discriminator 1
 142 0012 8A42     		cmp	r2, r1
 143 0014 F8D3     		bcc	.L11
 493:..\..\FreeflyAPI/QX_Protocol.c **** 	}
 494:..\..\FreeflyAPI/QX_Protocol.c **** 	return checksum;
 495:..\..\FreeflyAPI/QX_Protocol.c **** }
 144              		.loc 1 495 0
 145 0016 1846     		mov	r0, r3
 146              	.LVL15:
 147 0018 10BC     		pop	{r4}
 148              		.cfi_restore 4
 149              		.cfi_def_cfa_offset 0
 150 001a 7047     		bx	lr
 151              		.cfi_endproc
 152              	.LFE9:
 153              		.size	QX_Calc8bChecksum, .-QX_Calc8bChecksum
 154              		.section	.text.QX_AddExtdValToBuf,"ax",%progbits
 155              		.align	2
 156              		.global	QX_AddExtdValToBuf
 157              		.thumb
 158              		.thumb_func
 159              		.type	QX_AddExtdValToBuf, %function
 160              	QX_AddExtdValToBuf:
 161              	.LFB10:
 496:..\..\FreeflyAPI/QX_Protocol.c **** 
 497:..\..\FreeflyAPI/QX_Protocol.c **** //----------------------------------------------------------------------------
 498:..\..\FreeflyAPI/QX_Protocol.c **** // Add a 7th bit extendable (4 byte max) value to a buffer
 499:..\..\FreeflyAPI/QX_Protocol.c **** void QX_AddExtdValToBuf(uint8_t **p, uint32_t Val)
 500:..\..\FreeflyAPI/QX_Protocol.c **** {	
 162              		.loc 1 500 0
 163              		.cfi_startproc
 164              		@ args = 0, pretend = 0, frame = 0
 165              		@ frame_needed = 0, uses_anonymous_args = 0
 166              		@ link register save eliminated.
 167              	.LVL16:
 168 0000 10B4     		push	{r4}
 169              		.cfi_def_cfa_offset 4
 170              		.cfi_offset 4, -4
 171              	.LVL17:
 501:..\..\FreeflyAPI/QX_Protocol.c **** 	int n;
 502:..\..\FreeflyAPI/QX_Protocol.c **** 	for (n = 0; n < 4; n++){
 172              		.loc 1 502 0
 173 0002 0022     		movs	r2, #0
 174 0004 1BE0     		b	.L14
 175              	.LVL18:
 176              	.L17:
 177              	.LBB3:
 503:..\..\FreeflyAPI/QX_Protocol.c **** 		uint8_t this_chunk = (Val >> (7*n)) & 0x7F;
ARM GAS  C:\Users\hamis\AppData\Local\Temp\ccsOK97v.s 			page 13


 178              		.loc 1 503 0
 179 0006 C2EBC203 		rsb	r3, r2, r2, lsl #3
 180 000a 21FA03F3 		lsr	r3, r1, r3
 181 000e 03F07F03 		and	r3, r3, #127
 182              	.LVL19:
 504:..\..\FreeflyAPI/QX_Protocol.c **** 		uint8_t next_chunk = (Val >> (7*(n+1))) & 0x7F;
 183              		.loc 1 504 0
 184 0012 0132     		adds	r2, r2, #1
 185              	.LVL20:
 186 0014 C2EBC204 		rsb	r4, r2, r2, lsl #3
 187 0018 21FA04F4 		lsr	r4, r1, r4
 188              	.LVL21:
 505:..\..\FreeflyAPI/QX_Protocol.c **** 		if (next_chunk > 0){
 189              		.loc 1 505 0
 190 001c 14F07F0F 		tst	r4, #127
 191 0020 07D0     		beq	.L15
 506:..\..\FreeflyAPI/QX_Protocol.c **** 			**p = this_chunk | 0x80;
 192              		.loc 1 506 0
 193 0022 0468     		ldr	r4, [r0]
 194              	.LVL22:
 195 0024 63F07F03 		orn	r3, r3, #127
 196              	.LVL23:
 197 0028 2370     		strb	r3, [r4]
 507:..\..\FreeflyAPI/QX_Protocol.c **** 			(*p)++;
 198              		.loc 1 507 0
 199 002a 0368     		ldr	r3, [r0]
 200 002c 0133     		adds	r3, r3, #1
 201 002e 0360     		str	r3, [r0]
 202              	.LVL24:
 203 0030 05E0     		b	.L14
 204              	.LVL25:
 205              	.L15:
 508:..\..\FreeflyAPI/QX_Protocol.c **** 		} else {
 509:..\..\FreeflyAPI/QX_Protocol.c **** 			**p = this_chunk;
 206              		.loc 1 509 0
 207 0032 0268     		ldr	r2, [r0]
 208              	.LVL26:
 209 0034 1370     		strb	r3, [r2]
 510:..\..\FreeflyAPI/QX_Protocol.c **** 			(*p)++;
 210              		.loc 1 510 0
 211 0036 0368     		ldr	r3, [r0]
 212              	.LVL27:
 213 0038 0133     		adds	r3, r3, #1
 214 003a 0360     		str	r3, [r0]
 215              	.LVL28:
 511:..\..\FreeflyAPI/QX_Protocol.c **** 			break;
 216              		.loc 1 511 0
 217 003c 01E0     		b	.L13
 218              	.LVL29:
 219              	.L14:
 220              	.LBE3:
 502:..\..\FreeflyAPI/QX_Protocol.c **** 		uint8_t this_chunk = (Val >> (7*n)) & 0x7F;
 221              		.loc 1 502 0 discriminator 1
 222 003e 032A     		cmp	r2, #3
 223 0040 E1DD     		ble	.L17
 224              	.LVL30:
 225              	.L13:
ARM GAS  C:\Users\hamis\AppData\Local\Temp\ccsOK97v.s 			page 14


 512:..\..\FreeflyAPI/QX_Protocol.c **** 		}
 513:..\..\FreeflyAPI/QX_Protocol.c **** 	}
 514:..\..\FreeflyAPI/QX_Protocol.c **** }
 226              		.loc 1 514 0
 227 0042 10BC     		pop	{r4}
 228              		.cfi_restore 4
 229              		.cfi_def_cfa_offset 0
 230 0044 7047     		bx	lr
 231              		.cfi_endproc
 232              	.LFE10:
 233              		.size	QX_AddExtdValToBuf, .-QX_AddExtdValToBuf
 234 0046 00BF     		.section	.text.QX_BuildHeader,"ax",%progbits
 235              		.align	2
 236              		.global	QX_BuildHeader
 237              		.thumb
 238              		.thumb_func
 239              		.type	QX_BuildHeader, %function
 240              	QX_BuildHeader:
 241              	.LFB7:
 387:..\..\FreeflyAPI/QX_Protocol.c **** 	// Start at the Attribute Field
 242              		.loc 1 387 0
 243              		.cfi_startproc
 244              		@ args = 0, pretend = 0, frame = 8
 245              		@ frame_needed = 0, uses_anonymous_args = 0
 246              	.LVL31:
 247 0000 30B5     		push	{r4, r5, lr}
 248              		.cfi_def_cfa_offset 12
 249              		.cfi_offset 4, -12
 250              		.cfi_offset 5, -8
 251              		.cfi_offset 14, -4
 252 0002 83B0     		sub	sp, sp, #12
 253              		.cfi_def_cfa_offset 24
 254 0004 0446     		mov	r4, r0
 389:..\..\FreeflyAPI/QX_Protocol.c **** 
 255              		.loc 1 389 0
 256 0006 836E     		ldr	r3, [r0, #104]
 257 0008 0546     		mov	r5, r0
 258 000a 45F8703F 		str	r3, [r5, #112]!
 392:..\..\FreeflyAPI/QX_Protocol.c **** 
 259              		.loc 1 392 0
 260 000e C168     		ldr	r1, [r0, #12]
 261 0010 2846     		mov	r0, r5
 262              	.LVL32:
 263 0012 FFF7FEFF 		bl	QX_AddExtdValToBuf
 264              	.LVL33:
 394:..\..\FreeflyAPI/QX_Protocol.c **** 	
 265              		.loc 1 394 0
 266 0016 0023     		movs	r3, #0
 267 0018 6374     		strb	r3, [r4, #17]
 397:..\..\FreeflyAPI/QX_Protocol.c **** 		Msg_p->Header.AddOptionByte1 = 1;
 268              		.loc 1 397 0
 269 001a A37C     		ldrb	r3, [r4, #18]	@ zero_extendqisi2
 270 001c 0BB1     		cbz	r3, .L20
 398:..\..\FreeflyAPI/QX_Protocol.c **** 	}
 271              		.loc 1 398 0
 272 001e 0123     		movs	r3, #1
 273 0020 6374     		strb	r3, [r4, #17]
ARM GAS  C:\Users\hamis\AppData\Local\Temp\ccsOK97v.s 			page 15


 274              	.L20:
 402:..\..\FreeflyAPI/QX_Protocol.c **** 	OptionByte |= (Msg_p->Header.Type & 0xF);
 275              		.loc 1 402 0
 276 0022 0023     		movs	r3, #0
 277 0024 8DF80730 		strb	r3, [sp, #7]
 403:..\..\FreeflyAPI/QX_Protocol.c **** 	OptionByte |= (Msg_p->Header.FF_Ext & 0x01) << 4;
 278              		.loc 1 403 0
 279 0028 237C     		ldrb	r3, [r4, #16]	@ zero_extendqisi2
 280 002a 9DF80720 		ldrb	r2, [sp, #7]	@ zero_extendqisi2
 281 002e 03F00F03 		and	r3, r3, #15
 282 0032 1343     		orrs	r3, r3, r2
 283 0034 8DF80730 		strb	r3, [sp, #7]
 404:..\..\FreeflyAPI/QX_Protocol.c **** 	OptionByte |= (Msg_p->Header.Remove_Req_Fields & 0x01) << 5;
 284              		.loc 1 404 0
 285 0038 E37C     		ldrb	r3, [r4, #19]	@ zero_extendqisi2
 286 003a 1B01     		lsls	r3, r3, #4
 287 003c 9DF80720 		ldrb	r2, [sp, #7]	@ zero_extendqisi2
 288 0040 03F01003 		and	r3, r3, #16
 289 0044 1343     		orrs	r3, r3, r2
 290 0046 8DF80730 		strb	r3, [sp, #7]
 405:..\..\FreeflyAPI/QX_Protocol.c **** 	OptionByte |= (Msg_p->Header.Remove_Addr_Fields & 0x01) << 6;
 291              		.loc 1 405 0
 292 004a E37D     		ldrb	r3, [r4, #23]	@ zero_extendqisi2
 293 004c 5B01     		lsls	r3, r3, #5
 294 004e 9DF80720 		ldrb	r2, [sp, #7]	@ zero_extendqisi2
 295 0052 03F02003 		and	r3, r3, #32
 296 0056 1343     		orrs	r3, r3, r2
 297 0058 8DF80730 		strb	r3, [sp, #7]
 406:..\..\FreeflyAPI/QX_Protocol.c **** 	OptionByte |= (Msg_p->Header.AddOptionByte1 & 0x01) << 7;
 298              		.loc 1 406 0
 299 005c A37D     		ldrb	r3, [r4, #22]	@ zero_extendqisi2
 300 005e 9B01     		lsls	r3, r3, #6
 301 0060 9DF80720 		ldrb	r2, [sp, #7]	@ zero_extendqisi2
 302 0064 03F04003 		and	r3, r3, #64
 303 0068 1343     		orrs	r3, r3, r2
 304 006a 8DF80730 		strb	r3, [sp, #7]
 407:..\..\FreeflyAPI/QX_Protocol.c **** 	*Msg_p->MsgBuf_p++ = OptionByte;
 305              		.loc 1 407 0
 306 006e 627C     		ldrb	r2, [r4, #17]	@ zero_extendqisi2
 307 0070 9DF80730 		ldrb	r3, [sp, #7]	@ zero_extendqisi2
 308 0074 43EAC213 		orr	r3, r3, r2, lsl #7
 309 0078 DBB2     		uxtb	r3, r3
 310 007a 8DF80730 		strb	r3, [sp, #7]
 408:..\..\FreeflyAPI/QX_Protocol.c **** 	
 311              		.loc 1 408 0
 312 007e 236F     		ldr	r3, [r4, #112]
 313 0080 5A1C     		adds	r2, r3, #1
 314 0082 2267     		str	r2, [r4, #112]
 315 0084 9DF80720 		ldrb	r2, [sp, #7]	@ zero_extendqisi2
 316 0088 1A70     		strb	r2, [r3]
 411:..\..\FreeflyAPI/QX_Protocol.c **** 		OptionByte = 0;
 317              		.loc 1 411 0
 318 008a 637C     		ldrb	r3, [r4, #17]	@ zero_extendqisi2
 319 008c 83B1     		cbz	r3, .L21
 412:..\..\FreeflyAPI/QX_Protocol.c **** 		OptionByte |= (Msg_p->Header.AddCRC32 & 0x01) << 0;
 320              		.loc 1 412 0
 321 008e 0023     		movs	r3, #0
ARM GAS  C:\Users\hamis\AppData\Local\Temp\ccsOK97v.s 			page 16


 322 0090 8DF80730 		strb	r3, [sp, #7]
 413:..\..\FreeflyAPI/QX_Protocol.c **** 		*Msg_p->MsgBuf_p++ = OptionByte;
 323              		.loc 1 413 0
 324 0094 A37C     		ldrb	r3, [r4, #18]	@ zero_extendqisi2
 325 0096 9DF80720 		ldrb	r2, [sp, #7]	@ zero_extendqisi2
 326 009a 03F00103 		and	r3, r3, #1
 327 009e 1343     		orrs	r3, r3, r2
 328 00a0 8DF80730 		strb	r3, [sp, #7]
 414:..\..\FreeflyAPI/QX_Protocol.c **** 	}
 329              		.loc 1 414 0
 330 00a4 236F     		ldr	r3, [r4, #112]
 331 00a6 5A1C     		adds	r2, r3, #1
 332 00a8 2267     		str	r2, [r4, #112]
 333 00aa 9DF80720 		ldrb	r2, [sp, #7]	@ zero_extendqisi2
 334 00ae 1A70     		strb	r2, [r3]
 335              	.L21:
 418:..\..\FreeflyAPI/QX_Protocol.c **** 		QX_AddExtdValToBuf(&Msg_p->MsgBuf_p, Msg_p->Header.Source_Addr);
 336              		.loc 1 418 0
 337 00b0 A37D     		ldrb	r3, [r4, #22]	@ zero_extendqisi2
 338 00b2 43B9     		cbnz	r3, .L22
 419:..\..\FreeflyAPI/QX_Protocol.c **** 		QX_AddExtdValToBuf(&Msg_p->MsgBuf_p, Msg_p->Header.Target_Addr);
 339              		.loc 1 419 0
 340 00b4 217E     		ldrb	r1, [r4, #24]	@ zero_extendqisi2
 341 00b6 2846     		mov	r0, r5
 342 00b8 FFF7FEFF 		bl	QX_AddExtdValToBuf
 343              	.LVL34:
 420:..\..\FreeflyAPI/QX_Protocol.c **** 	} else {
 344              		.loc 1 420 0
 345 00bc 617E     		ldrb	r1, [r4, #25]	@ zero_extendqisi2
 346 00be 2846     		mov	r0, r5
 347 00c0 FFF7FEFF 		bl	QX_AddExtdValToBuf
 348              	.LVL35:
 349 00c4 02E0     		b	.L23
 350              	.L22:
 422:..\..\FreeflyAPI/QX_Protocol.c **** 		Msg_p->Header.Target_Addr = QX_DEV_ID_BROADCAST;
 351              		.loc 1 422 0
 352 00c6 0023     		movs	r3, #0
 353 00c8 2376     		strb	r3, [r4, #24]
 423:..\..\FreeflyAPI/QX_Protocol.c **** 	}
 354              		.loc 1 423 0
 355 00ca 6376     		strb	r3, [r4, #25]
 356              	.L23:
 427:..\..\FreeflyAPI/QX_Protocol.c **** 		QX_AddExtdValToBuf(&Msg_p->MsgBuf_p, Msg_p->Header.TransReq_Addr);
 357              		.loc 1 427 0
 358 00cc E37D     		ldrb	r3, [r4, #23]	@ zero_extendqisi2
 359 00ce 43B9     		cbnz	r3, .L24
 428:..\..\FreeflyAPI/QX_Protocol.c **** 		QX_AddExtdValToBuf(&Msg_p->MsgBuf_p, Msg_p->Header.RespReq_Addr);
 360              		.loc 1 428 0
 361 00d0 A17E     		ldrb	r1, [r4, #26]	@ zero_extendqisi2
 362 00d2 2846     		mov	r0, r5
 363 00d4 FFF7FEFF 		bl	QX_AddExtdValToBuf
 364              	.LVL36:
 429:..\..\FreeflyAPI/QX_Protocol.c **** 	} else {
 365              		.loc 1 429 0
 366 00d8 E17E     		ldrb	r1, [r4, #27]	@ zero_extendqisi2
 367 00da 2846     		mov	r0, r5
 368 00dc FFF7FEFF 		bl	QX_AddExtdValToBuf
ARM GAS  C:\Users\hamis\AppData\Local\Temp\ccsOK97v.s 			page 17


 369              	.LVL37:
 370 00e0 02E0     		b	.L25
 371              	.L24:
 431:..\..\FreeflyAPI/QX_Protocol.c **** 		Msg_p->Header.RespReq_Addr = QX_DEV_ID_BROADCAST;
 372              		.loc 1 431 0
 373 00e2 0023     		movs	r3, #0
 374 00e4 A376     		strb	r3, [r4, #26]
 432:..\..\FreeflyAPI/QX_Protocol.c **** 	}
 375              		.loc 1 432 0
 376 00e6 E376     		strb	r3, [r4, #27]
 377              	.L25:
 435:..\..\FreeflyAPI/QX_Protocol.c **** }
 378              		.loc 1 435 0
 379 00e8 236F     		ldr	r3, [r4, #112]
 380 00ea E366     		str	r3, [r4, #108]
 436:..\..\FreeflyAPI/QX_Protocol.c **** 
 381              		.loc 1 436 0
 382 00ec 03B0     		add	sp, sp, #12
 383              		.cfi_def_cfa_offset 12
 384              		@ sp needed
 385 00ee 30BD     		pop	{r4, r5, pc}
 386              		.cfi_endproc
 387              	.LFE7:
 388              		.size	QX_BuildHeader, .-QX_BuildHeader
 389              		.section	.text.QX_TxMsg_Setup,"ax",%progbits
 390              		.align	2
 391              		.global	QX_TxMsg_Setup
 392              		.thumb
 393              		.thumb_func
 394              		.type	QX_TxMsg_Setup, %function
 395              	QX_TxMsg_Setup:
 396              	.LFB5:
 283:..\..\FreeflyAPI/QX_Protocol.c **** 	// Set the Buffer pointer to the start of the Attribute field accounting for the maximum number of
 397              		.loc 1 283 0
 398              		.cfi_startproc
 399              		@ args = 0, pretend = 0, frame = 0
 400              		@ frame_needed = 0, uses_anonymous_args = 0
 401              	.LVL38:
 402 0000 08B5     		push	{r3, lr}
 403              		.cfi_def_cfa_offset 8
 404              		.cfi_offset 3, -8
 405              		.cfi_offset 14, -4
 286:..\..\FreeflyAPI/QX_Protocol.c **** 	TxMsg_p->MsgBuf_p = TxMsg_p->MsgBufAtt_p;
 406              		.loc 1 286 0
 407 0002 00F12003 		add	r3, r0, #32
 408 0006 8366     		str	r3, [r0, #104]
 287:..\..\FreeflyAPI/QX_Protocol.c **** 	
 409              		.loc 1 287 0
 410 0008 0367     		str	r3, [r0, #112]
 290:..\..\FreeflyAPI/QX_Protocol.c **** 		if (*QX_BuildHeader_Legacy != NULL){
 411              		.loc 1 290 0
 412 000a 4379     		ldrb	r3, [r0, #5]	@ zero_extendqisi2
 413 000c 2BB1     		cbz	r3, .L28
 291:..\..\FreeflyAPI/QX_Protocol.c **** 			QX_BuildHeader_Legacy(TxMsg_p);
 414              		.loc 1 291 0
 415 000e 064B     		ldr	r3, .L32
 416 0010 1B68     		ldr	r3, [r3]
ARM GAS  C:\Users\hamis\AppData\Local\Temp\ccsOK97v.s 			page 18


 417 0012 33B1     		cbz	r3, .L30
 292:..\..\FreeflyAPI/QX_Protocol.c **** 		} else {
 418              		.loc 1 292 0
 419 0014 9847     		blx	r3
 420              	.LVL39:
 300:..\..\FreeflyAPI/QX_Protocol.c **** }
 421              		.loc 1 300 0
 422 0016 0020     		movs	r0, #0
 423 0018 08BD     		pop	{r3, pc}
 424              	.LVL40:
 425              	.L28:
 297:..\..\FreeflyAPI/QX_Protocol.c **** 	}
 426              		.loc 1 297 0
 427 001a FFF7FEFF 		bl	QX_BuildHeader
 428              	.LVL41:
 300:..\..\FreeflyAPI/QX_Protocol.c **** }
 429              		.loc 1 300 0
 430 001e 0020     		movs	r0, #0
 431 0020 08BD     		pop	{r3, pc}
 432              	.LVL42:
 433              	.L30:
 294:..\..\FreeflyAPI/QX_Protocol.c **** 		}
 434              		.loc 1 294 0
 435 0022 0120     		movs	r0, #1
 436              	.LVL43:
 301:..\..\FreeflyAPI/QX_Protocol.c **** 
 437              		.loc 1 301 0
 438 0024 08BD     		pop	{r3, pc}
 439              	.L33:
 440 0026 00BF     		.align	2
 441              	.L32:
 442 0028 00000000 		.word	.LANCHOR0
 443              		.cfi_endproc
 444              	.LFE5:
 445              		.size	QX_TxMsg_Setup, .-QX_TxMsg_Setup
 446              		.section	.text.QX_GetExtdValFromBuf,"ax",%progbits
 447              		.align	2
 448              		.global	QX_GetExtdValFromBuf
 449              		.thumb
 450              		.thumb_func
 451              		.type	QX_GetExtdValFromBuf, %function
 452              	QX_GetExtdValFromBuf:
 453              	.LFB11:
 515:..\..\FreeflyAPI/QX_Protocol.c **** 
 516:..\..\FreeflyAPI/QX_Protocol.c **** //----------------------------------------------------------------------------
 517:..\..\FreeflyAPI/QX_Protocol.c **** // Get a 7th bit extendable (4 byte max) value from a buffer
 518:..\..\FreeflyAPI/QX_Protocol.c **** uint32_t QX_GetExtdValFromBuf(uint8_t **p)
 519:..\..\FreeflyAPI/QX_Protocol.c **** {
 454              		.loc 1 519 0
 455              		.cfi_startproc
 456              		@ args = 0, pretend = 0, frame = 0
 457              		@ frame_needed = 0, uses_anonymous_args = 0
 458              		@ link register save eliminated.
 459              	.LVL44:
 460 0000 70B4     		push	{r4, r5, r6}
 461              		.cfi_def_cfa_offset 12
 462              		.cfi_offset 4, -12
ARM GAS  C:\Users\hamis\AppData\Local\Temp\ccsOK97v.s 			page 19


 463              		.cfi_offset 5, -8
 464              		.cfi_offset 6, -4
 465 0002 0546     		mov	r5, r0
 466              	.LVL45:
 520:..\..\FreeflyAPI/QX_Protocol.c **** 	uint32_t Val = 0;
 521:..\..\FreeflyAPI/QX_Protocol.c **** 	int n;
 522:..\..\FreeflyAPI/QX_Protocol.c **** 	for (n = 0; n < 4; n++){
 467              		.loc 1 522 0
 468 0004 0023     		movs	r3, #0
 520:..\..\FreeflyAPI/QX_Protocol.c **** 	uint32_t Val = 0;
 469              		.loc 1 520 0
 470 0006 1846     		mov	r0, r3
 471              	.LVL46:
 472              		.loc 1 522 0
 473 0008 11E0     		b	.L35
 474              	.LVL47:
 475              	.L38:
 523:..\..\FreeflyAPI/QX_Protocol.c **** 		Val = (((uint32_t)(**p & 0x7F)) << (7*n)) | Val;
 476              		.loc 1 523 0
 477 000a 2A68     		ldr	r2, [r5]
 478 000c 1478     		ldrb	r4, [r2]	@ zero_extendqisi2
 479 000e 04F07F01 		and	r1, r4, #127
 480 0012 C3EBC306 		rsb	r6, r3, r3, lsl #3
 481 0016 B140     		lsls	r1, r1, r6
 482 0018 0843     		orrs	r0, r0, r1
 483              	.LVL48:
 524:..\..\FreeflyAPI/QX_Protocol.c **** 		if (**p & 0x80){
 484              		.loc 1 524 0
 485 001a 14F0800F 		tst	r4, #128
 486 001e 03D0     		beq	.L36
 525:..\..\FreeflyAPI/QX_Protocol.c **** 			(*p)++;
 487              		.loc 1 525 0
 488 0020 0132     		adds	r2, r2, #1
 489 0022 2A60     		str	r2, [r5]
 522:..\..\FreeflyAPI/QX_Protocol.c **** 		Val = (((uint32_t)(**p & 0x7F)) << (7*n)) | Val;
 490              		.loc 1 522 0
 491 0024 0133     		adds	r3, r3, #1
 492              	.LVL49:
 493 0026 02E0     		b	.L35
 494              	.L36:
 526:..\..\FreeflyAPI/QX_Protocol.c **** 		} else {
 527:..\..\FreeflyAPI/QX_Protocol.c **** 			(*p)++;
 495              		.loc 1 527 0
 496 0028 0132     		adds	r2, r2, #1
 497 002a 2A60     		str	r2, [r5]
 528:..\..\FreeflyAPI/QX_Protocol.c **** 			break;
 498              		.loc 1 528 0
 499 002c 01E0     		b	.L37
 500              	.LVL50:
 501              	.L35:
 522:..\..\FreeflyAPI/QX_Protocol.c **** 		Val = (((uint32_t)(**p & 0x7F)) << (7*n)) | Val;
 502              		.loc 1 522 0 discriminator 1
 503 002e 032B     		cmp	r3, #3
 504 0030 EBDD     		ble	.L38
 505              	.L37:
 529:..\..\FreeflyAPI/QX_Protocol.c **** 		}
 530:..\..\FreeflyAPI/QX_Protocol.c **** 	}
ARM GAS  C:\Users\hamis\AppData\Local\Temp\ccsOK97v.s 			page 20


 531:..\..\FreeflyAPI/QX_Protocol.c **** 	return Val;
 532:..\..\FreeflyAPI/QX_Protocol.c **** }
 506              		.loc 1 532 0
 507 0032 70BC     		pop	{r4, r5, r6}
 508              		.cfi_restore 6
 509              		.cfi_restore 5
 510              		.cfi_restore 4
 511              		.cfi_def_cfa_offset 0
 512              	.LVL51:
 513 0034 7047     		bx	lr
 514              		.cfi_endproc
 515              	.LFE11:
 516              		.size	QX_GetExtdValFromBuf, .-QX_GetExtdValFromBuf
 517 0036 00BF     		.section	.text.QX_ParseHeader,"ax",%progbits
 518              		.align	2
 519              		.global	QX_ParseHeader
 520              		.thumb
 521              		.thumb_func
 522              		.type	QX_ParseHeader, %function
 523              	QX_ParseHeader:
 524              	.LFB8:
 442:..\..\FreeflyAPI/QX_Protocol.c **** 	volatile uint8_t OptionByte;
 525              		.loc 1 442 0
 526              		.cfi_startproc
 527              		@ args = 0, pretend = 0, frame = 8
 528              		@ frame_needed = 0, uses_anonymous_args = 0
 529              	.LVL52:
 530 0000 30B5     		push	{r4, r5, lr}
 531              		.cfi_def_cfa_offset 12
 532              		.cfi_offset 4, -12
 533              		.cfi_offset 5, -8
 534              		.cfi_offset 14, -4
 535 0002 83B0     		sub	sp, sp, #12
 536              		.cfi_def_cfa_offset 24
 537 0004 0446     		mov	r4, r0
 445:..\..\FreeflyAPI/QX_Protocol.c **** 
 538              		.loc 1 445 0
 539 0006 836E     		ldr	r3, [r0, #104]
 540 0008 0546     		mov	r5, r0
 541 000a 45F8703F 		str	r3, [r5, #112]!
 449:..\..\FreeflyAPI/QX_Protocol.c **** 
 542              		.loc 1 449 0
 543 000e 2846     		mov	r0, r5
 544              	.LVL53:
 545 0010 FFF7FEFF 		bl	QX_GetExtdValFromBuf
 546              	.LVL54:
 547 0014 E060     		str	r0, [r4, #12]
 452:..\..\FreeflyAPI/QX_Protocol.c **** 	Msg_p->Header.Type = (QX_Msg_Type_e)(OptionByte & 0xF);
 548              		.loc 1 452 0
 549 0016 216F     		ldr	r1, [r4, #112]
 550 0018 481C     		adds	r0, r1, #1
 551 001a 2067     		str	r0, [r4, #112]
 552 001c 0B78     		ldrb	r3, [r1]	@ zero_extendqisi2
 553 001e 8DF80730 		strb	r3, [sp, #7]
 453:..\..\FreeflyAPI/QX_Protocol.c **** 	Msg_p->Header.FF_Ext = (OptionByte >> 4) & 0x1;
 554              		.loc 1 453 0
 555 0022 9DF80730 		ldrb	r3, [sp, #7]	@ zero_extendqisi2
ARM GAS  C:\Users\hamis\AppData\Local\Temp\ccsOK97v.s 			page 21


 556 0026 03F00F03 		and	r3, r3, #15
 557 002a 2374     		strb	r3, [r4, #16]
 454:..\..\FreeflyAPI/QX_Protocol.c **** 	Msg_p->Header.Remove_Req_Fields = (OptionByte >> 5) & 0x1;
 558              		.loc 1 454 0
 559 002c 9DF80730 		ldrb	r3, [sp, #7]	@ zero_extendqisi2
 560 0030 C3F30013 		ubfx	r3, r3, #4, #1
 561 0034 E374     		strb	r3, [r4, #19]
 455:..\..\FreeflyAPI/QX_Protocol.c **** 	Msg_p->Header.Remove_Addr_Fields = (OptionByte >> 6) & 0x1;
 562              		.loc 1 455 0
 563 0036 9DF80730 		ldrb	r3, [sp, #7]	@ zero_extendqisi2
 564 003a C3F34013 		ubfx	r3, r3, #5, #1
 565 003e E375     		strb	r3, [r4, #23]
 456:..\..\FreeflyAPI/QX_Protocol.c **** 	Msg_p->Header.AddOptionByte1 = (OptionByte >> 7) & 0x1;
 566              		.loc 1 456 0
 567 0040 9DF80730 		ldrb	r3, [sp, #7]	@ zero_extendqisi2
 568 0044 C3F38013 		ubfx	r3, r3, #6, #1
 569 0048 A375     		strb	r3, [r4, #22]
 457:..\..\FreeflyAPI/QX_Protocol.c **** 	
 570              		.loc 1 457 0
 571 004a 9DF80720 		ldrb	r2, [sp, #7]	@ zero_extendqisi2
 572 004e D209     		lsrs	r2, r2, #7
 573 0050 6274     		strb	r2, [r4, #17]
 460:..\..\FreeflyAPI/QX_Protocol.c **** 		OptionByte = *Msg_p->MsgBuf_p++;
 574              		.loc 1 460 0
 575 0052 4AB1     		cbz	r2, .L41
 461:..\..\FreeflyAPI/QX_Protocol.c **** 		Msg_p->Header.AddCRC32 = (OptionByte >> 0) & 0x1;
 576              		.loc 1 461 0
 577 0054 881C     		adds	r0, r1, #2
 578 0056 2067     		str	r0, [r4, #112]
 579 0058 4A78     		ldrb	r2, [r1, #1]	@ zero_extendqisi2
 580 005a 8DF80720 		strb	r2, [sp, #7]
 462:..\..\FreeflyAPI/QX_Protocol.c **** 	}
 581              		.loc 1 462 0
 582 005e 9DF80720 		ldrb	r2, [sp, #7]	@ zero_extendqisi2
 583 0062 02F00102 		and	r2, r2, #1
 584 0066 A274     		strb	r2, [r4, #18]
 585              	.L41:
 466:..\..\FreeflyAPI/QX_Protocol.c **** 		Msg_p->Header.Source_Addr = (QX_DevId_e)(QX_GetExtdValFromBuf(&Msg_p->MsgBuf_p));
 586              		.loc 1 466 0
 587 0068 3BB9     		cbnz	r3, .L42
 467:..\..\FreeflyAPI/QX_Protocol.c **** 		Msg_p->Header.Target_Addr = (QX_DevId_e)(QX_GetExtdValFromBuf(&Msg_p->MsgBuf_p));
 588              		.loc 1 467 0
 589 006a 2846     		mov	r0, r5
 590 006c FFF7FEFF 		bl	QX_GetExtdValFromBuf
 591              	.LVL55:
 592 0070 2076     		strb	r0, [r4, #24]
 468:..\..\FreeflyAPI/QX_Protocol.c **** 	}
 593              		.loc 1 468 0
 594 0072 2846     		mov	r0, r5
 595 0074 FFF7FEFF 		bl	QX_GetExtdValFromBuf
 596              	.LVL56:
 597 0078 6076     		strb	r0, [r4, #25]
 598              	.L42:
 472:..\..\FreeflyAPI/QX_Protocol.c **** 		Msg_p->Header.TransReq_Addr = (QX_DevId_e)(QX_GetExtdValFromBuf(&Msg_p->MsgBuf_p));
 599              		.loc 1 472 0
 600 007a E37D     		ldrb	r3, [r4, #23]	@ zero_extendqisi2
 601 007c 3BB9     		cbnz	r3, .L43
ARM GAS  C:\Users\hamis\AppData\Local\Temp\ccsOK97v.s 			page 22


 473:..\..\FreeflyAPI/QX_Protocol.c **** 		Msg_p->Header.RespReq_Addr = (QX_DevId_e)(QX_GetExtdValFromBuf(&Msg_p->MsgBuf_p));
 602              		.loc 1 473 0
 603 007e 2846     		mov	r0, r5
 604 0080 FFF7FEFF 		bl	QX_GetExtdValFromBuf
 605              	.LVL57:
 606 0084 A076     		strb	r0, [r4, #26]
 474:..\..\FreeflyAPI/QX_Protocol.c **** 	}
 607              		.loc 1 474 0
 608 0086 2846     		mov	r0, r5
 609 0088 FFF7FEFF 		bl	QX_GetExtdValFromBuf
 610              	.LVL58:
 611 008c E076     		strb	r0, [r4, #27]
 612              	.L43:
 478:..\..\FreeflyAPI/QX_Protocol.c **** 		Msg_p->MsgBuf_p += 2;
 613              		.loc 1 478 0
 614 008e E37C     		ldrb	r3, [r4, #19]	@ zero_extendqisi2
 615 0090 13B1     		cbz	r3, .L40
 479:..\..\FreeflyAPI/QX_Protocol.c **** 	}
 616              		.loc 1 479 0
 617 0092 236F     		ldr	r3, [r4, #112]
 618 0094 0233     		adds	r3, r3, #2
 619 0096 2367     		str	r3, [r4, #112]
 620              	.L40:
 481:..\..\FreeflyAPI/QX_Protocol.c **** 
 621              		.loc 1 481 0
 622 0098 03B0     		add	sp, sp, #12
 623              		.cfi_def_cfa_offset 12
 624              		@ sp needed
 625 009a 30BD     		pop	{r4, r5, pc}
 626              		.cfi_endproc
 627              	.LFE8:
 628              		.size	QX_ParseHeader, .-QX_ParseHeader
 629              		.section	.text.QX_Disable_Default_Response,"ax",%progbits
 630              		.align	2
 631              		.global	QX_Disable_Default_Response
 632              		.thumb
 633              		.thumb_func
 634              		.type	QX_Disable_Default_Response, %function
 635              	QX_Disable_Default_Response:
 636              	.LFB12:
 533:..\..\FreeflyAPI/QX_Protocol.c **** 
 534:..\..\FreeflyAPI/QX_Protocol.c **** 
 535:..\..\FreeflyAPI/QX_Protocol.c **** //----------------------------------------------------------------------------
 536:..\..\FreeflyAPI/QX_Protocol.c **** // Disable the default response to a message
 537:..\..\FreeflyAPI/QX_Protocol.c **** void QX_Disable_Default_Response(QX_Msg_t *Msg_p)
 538:..\..\FreeflyAPI/QX_Protocol.c **** {
 637              		.loc 1 538 0
 638              		.cfi_startproc
 639              		@ args = 0, pretend = 0, frame = 0
 640              		@ frame_needed = 0, uses_anonymous_args = 0
 641              		@ link register save eliminated.
 642              	.LVL59:
 539:..\..\FreeflyAPI/QX_Protocol.c **** 	Msg_p->DisableStdResponse = 1;
 643              		.loc 1 539 0
 644 0000 0123     		movs	r3, #1
 645 0002 4370     		strb	r3, [r0, #1]
 646 0004 7047     		bx	lr
ARM GAS  C:\Users\hamis\AppData\Local\Temp\ccsOK97v.s 			page 23


 647              		.cfi_endproc
 648              	.LFE12:
 649              		.size	QX_Disable_Default_Response, .-QX_Disable_Default_Response
 650 0006 00BF     		.section	.text.QX_compute_crc32,"ax",%progbits
 651              		.align	2
 652              		.global	QX_compute_crc32
 653              		.thumb
 654              		.thumb_func
 655              		.type	QX_compute_crc32, %function
 656              	QX_compute_crc32:
 657              	.LFB13:
 540:..\..\FreeflyAPI/QX_Protocol.c **** }
 541:..\..\FreeflyAPI/QX_Protocol.c **** 
 542:..\..\FreeflyAPI/QX_Protocol.c **** 
 543:..\..\FreeflyAPI/QX_Protocol.c **** //----------------------------------------------------------------------------
 544:..\..\FreeflyAPI/QX_Protocol.c **** // compute a chunk of the CRC
 545:..\..\FreeflyAPI/QX_Protocol.c **** uint32_t QX_compute_crc32(uint8_t data)
 546:..\..\FreeflyAPI/QX_Protocol.c **** {
 658              		.loc 1 546 0
 659              		.cfi_startproc
 660              		@ args = 0, pretend = 0, frame = 0
 661              		@ frame_needed = 0, uses_anonymous_args = 0
 662              		@ link register save eliminated.
 663              	.LVL60:
 547:..\..\FreeflyAPI/QX_Protocol.c ****     uint8_t i;
 548:..\..\FreeflyAPI/QX_Protocol.c ****     uint32_t crc;
 549:..\..\FreeflyAPI/QX_Protocol.c ****     
 550:..\..\FreeflyAPI/QX_Protocol.c ****     crc = (uint32_t)data << 24;
 664              		.loc 1 550 0
 665 0000 0006     		lsls	r0, r0, #24
 666              	.LVL61:
 551:..\..\FreeflyAPI/QX_Protocol.c ****     for(i = 0; i < 8; i++)
 667              		.loc 1 551 0
 668 0002 0023     		movs	r3, #0
 669 0004 08E0     		b	.L48
 670              	.LVL62:
 671              	.L51:
 552:..\..\FreeflyAPI/QX_Protocol.c ****     {
 553:..\..\FreeflyAPI/QX_Protocol.c ****         if((crc & 0x80000000) != 0)
 672              		.loc 1 553 0
 673 0006 0028     		cmp	r0, #0
 674 0008 03DA     		bge	.L49
 554:..\..\FreeflyAPI/QX_Protocol.c ****             crc = (crc << 1) ^ 0x04C11DB7;
 675              		.loc 1 554 0
 676 000a 054A     		ldr	r2, .L52
 677 000c 82EA4000 		eor	r0, r2, r0, lsl #1
 678              	.LVL63:
 679 0010 00E0     		b	.L50
 680              	.L49:
 555:..\..\FreeflyAPI/QX_Protocol.c ****         else
 556:..\..\FreeflyAPI/QX_Protocol.c ****             crc = (crc << 1);
 681              		.loc 1 556 0
 682 0012 4000     		lsls	r0, r0, #1
 683              	.LVL64:
 684              	.L50:
 551:..\..\FreeflyAPI/QX_Protocol.c ****     {
 685              		.loc 1 551 0 discriminator 2
ARM GAS  C:\Users\hamis\AppData\Local\Temp\ccsOK97v.s 			page 24


 686 0014 0133     		adds	r3, r3, #1
 687              	.LVL65:
 688 0016 DBB2     		uxtb	r3, r3
 689              	.LVL66:
 690              	.L48:
 551:..\..\FreeflyAPI/QX_Protocol.c ****     {
 691              		.loc 1 551 0 is_stmt 0 discriminator 1
 692 0018 072B     		cmp	r3, #7
 693 001a F4D9     		bls	.L51
 557:..\..\FreeflyAPI/QX_Protocol.c ****     }
 558:..\..\FreeflyAPI/QX_Protocol.c ****     
 559:..\..\FreeflyAPI/QX_Protocol.c ****     return crc;
 560:..\..\FreeflyAPI/QX_Protocol.c **** }
 694              		.loc 1 560 0 is_stmt 1
 695 001c 7047     		bx	lr
 696              	.L53:
 697 001e 00BF     		.align	2
 698              	.L52:
 699 0020 B71DC104 		.word	79764919
 700              		.cfi_endproc
 701              	.LFE13:
 702              		.size	QX_compute_crc32, .-QX_compute_crc32
 703              		.section	.text.QX_accumulate_crc32,"ax",%progbits
 704              		.align	2
 705              		.global	QX_accumulate_crc32
 706              		.thumb
 707              		.thumb_func
 708              		.type	QX_accumulate_crc32, %function
 709              	QX_accumulate_crc32:
 710              	.LFB14:
 561:..\..\FreeflyAPI/QX_Protocol.c **** 
 562:..\..\FreeflyAPI/QX_Protocol.c **** 
 563:..\..\FreeflyAPI/QX_Protocol.c **** //----------------------------------------------------------------------------
 564:..\..\FreeflyAPI/QX_Protocol.c **** // Calculate CRC32 - overrideable
 565:..\..\FreeflyAPI/QX_Protocol.c **** uint32_t QX_accumulate_crc32(uint32_t initial, const uint8_t * data, uint32_t size)
 566:..\..\FreeflyAPI/QX_Protocol.c **** {
 711              		.loc 1 566 0
 712              		.cfi_startproc
 713              		@ args = 0, pretend = 0, frame = 0
 714              		@ frame_needed = 0, uses_anonymous_args = 0
 715              	.LVL67:
 716 0000 F8B5     		push	{r3, r4, r5, r6, r7, lr}
 717              		.cfi_def_cfa_offset 24
 718              		.cfi_offset 3, -24
 719              		.cfi_offset 4, -20
 720              		.cfi_offset 5, -16
 721              		.cfi_offset 6, -12
 722              		.cfi_offset 7, -8
 723              		.cfi_offset 14, -4
 724 0002 0546     		mov	r5, r0
 725 0004 0F46     		mov	r7, r1
 726 0006 1646     		mov	r6, r2
 727              	.LVL68:
 567:..\..\FreeflyAPI/QX_Protocol.c ****     uint32_t i;
 568:..\..\FreeflyAPI/QX_Protocol.c ****     uint32_t final;
 569:..\..\FreeflyAPI/QX_Protocol.c ****     
 570:..\..\FreeflyAPI/QX_Protocol.c ****     final = initial;
ARM GAS  C:\Users\hamis\AppData\Local\Temp\ccsOK97v.s 			page 25


 571:..\..\FreeflyAPI/QX_Protocol.c ****     for(i = 0; i < size; i++)
 728              		.loc 1 571 0
 729 0008 0024     		movs	r4, #0
 730 000a 07E0     		b	.L55
 731              	.LVL69:
 732              	.L56:
 572:..\..\FreeflyAPI/QX_Protocol.c ****         final = QX_compute_crc32((uint8_t)(final >> 24) ^ data[i]) ^ (final << 8);
 733              		.loc 1 572 0 discriminator 3
 734 000c 385D     		ldrb	r0, [r7, r4]	@ zero_extendqisi2
 735 000e 80EA1560 		eor	r0, r0, r5, lsr #24
 736 0012 FFF7FEFF 		bl	QX_compute_crc32
 737              	.LVL70:
 738 0016 80EA0525 		eor	r5, r0, r5, lsl #8
 739              	.LVL71:
 571:..\..\FreeflyAPI/QX_Protocol.c ****         final = QX_compute_crc32((uint8_t)(final >> 24) ^ data[i]) ^ (final << 8);
 740              		.loc 1 571 0 discriminator 3
 741 001a 0134     		adds	r4, r4, #1
 742              	.LVL72:
 743              	.L55:
 571:..\..\FreeflyAPI/QX_Protocol.c ****         final = QX_compute_crc32((uint8_t)(final >> 24) ^ data[i]) ^ (final << 8);
 744              		.loc 1 571 0 is_stmt 0 discriminator 1
 745 001c B442     		cmp	r4, r6
 746 001e F5D3     		bcc	.L56
 573:..\..\FreeflyAPI/QX_Protocol.c ****     
 574:..\..\FreeflyAPI/QX_Protocol.c ****     return final;
 575:..\..\FreeflyAPI/QX_Protocol.c **** }
 747              		.loc 1 575 0 is_stmt 1
 748 0020 2846     		mov	r0, r5
 749 0022 F8BD     		pop	{r3, r4, r5, r6, r7, pc}
 750              		.cfi_endproc
 751              	.LFE14:
 752              		.size	QX_accumulate_crc32, .-QX_accumulate_crc32
 753              		.section	.text.QX_TxMsg_Finish,"ax",%progbits
 754              		.align	2
 755              		.global	QX_TxMsg_Finish
 756              		.thumb
 757              		.thumb_func
 758              		.type	QX_TxMsg_Finish, %function
 759              	QX_TxMsg_Finish:
 760              	.LFB6:
 307:..\..\FreeflyAPI/QX_Protocol.c **** 	uint8_t QX_use2ByteLen = 0;
 761              		.loc 1 307 0
 762              		.cfi_startproc
 763              		@ args = 0, pretend = 0, frame = 8
 764              		@ frame_needed = 0, uses_anonymous_args = 0
 765              	.LVL73:
 311:..\..\FreeflyAPI/QX_Protocol.c **** 	
 766              		.loc 1 311 0
 767 0000 0379     		ldrb	r3, [r0, #4]	@ zero_extendqisi2
 768 0002 012B     		cmp	r3, #1
 769 0004 79D0     		beq	.L68
 307:..\..\FreeflyAPI/QX_Protocol.c **** 	uint8_t QX_use2ByteLen = 0;
 770              		.loc 1 307 0
 771 0006 F0B5     		push	{r4, r5, r6, r7, lr}
 772              		.cfi_def_cfa_offset 20
 773              		.cfi_offset 4, -20
 774              		.cfi_offset 5, -16
ARM GAS  C:\Users\hamis\AppData\Local\Temp\ccsOK97v.s 			page 26


 775              		.cfi_offset 6, -12
 776              		.cfi_offset 7, -8
 777              		.cfi_offset 14, -4
 778 0008 83B0     		sub	sp, sp, #12
 779              		.cfi_def_cfa_offset 32
 314:..\..\FreeflyAPI/QX_Protocol.c **** 	
 780              		.loc 1 314 0
 781 000a 076F     		ldr	r7, [r0, #112]
 782 000c 836E     		ldr	r3, [r0, #104]
 783 000e FB1A     		subs	r3, r7, r3
 784 0010 9BB2     		uxth	r3, r3
 785 0012 0381     		strh	r3, [r0, #8]	@ movhi
 317:..\..\FreeflyAPI/QX_Protocol.c **** 		TxMsg_p->MsgBufStart_p = &TxMsg_p->MsgBuf[0];
 786              		.loc 1 317 0
 787 0014 4279     		ldrb	r2, [r0, #5]	@ zero_extendqisi2
 788 0016 0AB9     		cbnz	r2, .L60
 317:..\..\FreeflyAPI/QX_Protocol.c **** 		TxMsg_p->MsgBufStart_p = &TxMsg_p->MsgBuf[0];
 789              		.loc 1 317 0 is_stmt 0 discriminator 1
 790 0018 642B     		cmp	r3, #100
 791 001a 04D9     		bls	.L61
 792              	.L60:
 318:..\..\FreeflyAPI/QX_Protocol.c **** 		QX_use2ByteLen = 1;
 793              		.loc 1 318 0 is_stmt 1
 794 001c 00F11C03 		add	r3, r0, #28
 795 0020 4366     		str	r3, [r0, #100]
 796              	.LVL74:
 319:..\..\FreeflyAPI/QX_Protocol.c **** 	} else {
 797              		.loc 1 319 0
 798 0022 0126     		movs	r6, #1
 799 0024 03E0     		b	.L62
 800              	.LVL75:
 801              	.L61:
 321:..\..\FreeflyAPI/QX_Protocol.c **** 	}
 802              		.loc 1 321 0
 803 0026 00F11D03 		add	r3, r0, #29
 804 002a 4366     		str	r3, [r0, #100]
 308:..\..\FreeflyAPI/QX_Protocol.c **** 	
 805              		.loc 1 308 0
 806 002c 0026     		movs	r6, #0
 807              	.LVL76:
 808              	.L62:
 809 002e 0446     		mov	r4, r0
 810              	.LVL77:
 325:..\..\FreeflyAPI/QX_Protocol.c **** 	
 811              		.loc 1 325 0
 812 0030 436E     		ldr	r3, [r0, #100]
 813 0032 FB1A     		subs	r3, r7, r3
 814 0034 9BB2     		uxth	r3, r3
 815 0036 A0F86230 		strh	r3, [r0, #98]	@ movhi
 328:..\..\FreeflyAPI/QX_Protocol.c **** 		
 816              		.loc 1 328 0
 817 003a 827C     		ldrb	r2, [r0, #18]	@ zero_extendqisi2
 818 003c A2B1     		cbz	r2, .L63
 819              	.LBB4:
 331:..\..\FreeflyAPI/QX_Protocol.c **** 		memset(TxMsg_p->MsgBuf_p, 0, bytes_to_add);		// write zeros to the padding
 820              		.loc 1 331 0
 821 003e 03F00303 		and	r3, r3, #3
ARM GAS  C:\Users\hamis\AppData\Local\Temp\ccsOK97v.s 			page 27


 822 0042 C3F10405 		rsb	r5, r3, #4
 823              	.LVL78:
 332:..\..\FreeflyAPI/QX_Protocol.c **** 		TxMsg_p->MsgBuf_p += bytes_to_add;				// Move to where the CRC should be inserted
 824              		.loc 1 332 0
 825 0046 2A46     		mov	r2, r5
 826 0048 0021     		movs	r1, #0
 827 004a 3846     		mov	r0, r7
 828              	.LVL79:
 829 004c FFF7FEFF 		bl	memset
 830              	.LVL80:
 333:..\..\FreeflyAPI/QX_Protocol.c **** 		TxMsg_p->MsgBuf_MsgLen += bytes_to_add;			// msg length not including CRC + outer checksum
 831              		.loc 1 333 0
 832 0050 226F     		ldr	r2, [r4, #112]
 833 0052 2A44     		add	r2, r2, r5
 834 0054 2267     		str	r2, [r4, #112]
 334:..\..\FreeflyAPI/QX_Protocol.c **** 		TxMsg_p->Header.MsgLength = (TxMsg_p->MsgBuf_p - TxMsg_p->MsgBufAtt_p) + 4;	// length between att
 835              		.loc 1 334 0
 836 0056 B4F86230 		ldrh	r3, [r4, #98]
 837 005a 1D44     		add	r5, r5, r3
 838              	.LVL81:
 839 005c A4F86250 		strh	r5, [r4, #98]	@ movhi
 335:..\..\FreeflyAPI/QX_Protocol.c **** 	}
 840              		.loc 1 335 0
 841 0060 A36E     		ldr	r3, [r4, #104]
 842 0062 D21A     		subs	r2, r2, r3
 843 0064 0432     		adds	r2, r2, #4
 844 0066 2281     		strh	r2, [r4, #8]	@ movhi
 845              	.L63:
 846              	.LBE4:
 339:..\..\FreeflyAPI/QX_Protocol.c **** 			TxMsg_p->MsgBuf[0] = 'Q';
 847              		.loc 1 339 0
 848 0068 6379     		ldrb	r3, [r4, #5]	@ zero_extendqisi2
 849 006a 43B1     		cbz	r3, .L64
 340:..\..\FreeflyAPI/QX_Protocol.c **** 			TxMsg_p->MsgBuf[1] = 'B';
 850              		.loc 1 340 0
 851 006c 5123     		movs	r3, #81
 852 006e 2377     		strb	r3, [r4, #28]
 341:..\..\FreeflyAPI/QX_Protocol.c **** 			TxMsg_p->MsgBuf[2] = (TxMsg_p->Header.MsgLength >> 8) & 0xFF;
 853              		.loc 1 341 0
 854 0070 4223     		movs	r3, #66
 855 0072 6377     		strb	r3, [r4, #29]
 342:..\..\FreeflyAPI/QX_Protocol.c **** 			TxMsg_p->MsgBuf[3] = TxMsg_p->Header.MsgLength & 0xFF;
 856              		.loc 1 342 0
 857 0074 2389     		ldrh	r3, [r4, #8]
 858 0076 1A0A     		lsrs	r2, r3, #8
 859 0078 A277     		strb	r2, [r4, #30]
 343:..\..\FreeflyAPI/QX_Protocol.c **** 	} else {	// QX
 860              		.loc 1 343 0
 861 007a E377     		strb	r3, [r4, #31]
 862 007c 14E0     		b	.L65
 863              	.L64:
 345:..\..\FreeflyAPI/QX_Protocol.c **** 			TxMsg_p->MsgBuf[0] = 'Q';
 864              		.loc 1 345 0
 865 007e 5EB1     		cbz	r6, .L66
 346:..\..\FreeflyAPI/QX_Protocol.c **** 			TxMsg_p->MsgBuf[1] = 'X';
 866              		.loc 1 346 0
 867 0080 5123     		movs	r3, #81
ARM GAS  C:\Users\hamis\AppData\Local\Temp\ccsOK97v.s 			page 28


 868 0082 2377     		strb	r3, [r4, #28]
 347:..\..\FreeflyAPI/QX_Protocol.c **** 			TxMsg_p->MsgBuf[2] = (TxMsg_p->Header.MsgLength & 0x7F) | 0x80;
 869              		.loc 1 347 0
 870 0084 5823     		movs	r3, #88
 871 0086 6377     		strb	r3, [r4, #29]
 348:..\..\FreeflyAPI/QX_Protocol.c **** 			TxMsg_p->MsgBuf[3] = ((TxMsg_p->Header.MsgLength >> 7) & 0x7F);
 872              		.loc 1 348 0
 873 0088 2389     		ldrh	r3, [r4, #8]
 874 008a 63F07F02 		orn	r2, r3, #127
 875 008e A277     		strb	r2, [r4, #30]
 349:..\..\FreeflyAPI/QX_Protocol.c **** 		} else {
 876              		.loc 1 349 0
 877 0090 C3F3C613 		ubfx	r3, r3, #7, #7
 878 0094 E377     		strb	r3, [r4, #31]
 879 0096 07E0     		b	.L65
 880              	.L66:
 351:..\..\FreeflyAPI/QX_Protocol.c **** 			TxMsg_p->MsgBuf[2] = 'X';
 881              		.loc 1 351 0
 882 0098 5123     		movs	r3, #81
 883 009a 6377     		strb	r3, [r4, #29]
 352:..\..\FreeflyAPI/QX_Protocol.c **** 			TxMsg_p->MsgBuf[3] = TxMsg_p->Header.MsgLength & 0x7F;
 884              		.loc 1 352 0
 885 009c 5823     		movs	r3, #88
 886 009e A377     		strb	r3, [r4, #30]
 353:..\..\FreeflyAPI/QX_Protocol.c **** 		}
 887              		.loc 1 353 0
 888 00a0 2389     		ldrh	r3, [r4, #8]
 889 00a2 03F07F03 		and	r3, r3, #127
 890 00a6 E377     		strb	r3, [r4, #31]
 891              	.L65:
 358:..\..\FreeflyAPI/QX_Protocol.c **** 		uint32_t crc = QX_accumulate_crc32(0xFFFFFFFF, TxMsg_p->MsgBufStart_p, TxMsg_p->MsgBuf_MsgLen);
 892              		.loc 1 358 0
 893 00a8 A37C     		ldrb	r3, [r4, #18]	@ zero_extendqisi2
 894 00aa 9BB1     		cbz	r3, .L67
 895              	.LBB5:
 359:..\..\FreeflyAPI/QX_Protocol.c **** 		memcpy(TxMsg_p->MsgBuf_p, &crc, sizeof(crc));
 896              		.loc 1 359 0
 897 00ac B4F86220 		ldrh	r2, [r4, #98]
 898 00b0 616E     		ldr	r1, [r4, #100]
 899 00b2 4FF0FF30 		mov	r0, #-1
 900 00b6 FFF7FEFF 		bl	QX_accumulate_crc32
 901              	.LVL82:
 902 00ba 02AB     		add	r3, sp, #8
 903 00bc 43F8040D 		str	r0, [r3, #-4]!
 360:..\..\FreeflyAPI/QX_Protocol.c **** 		TxMsg_p->MsgBuf_p += 4;		// Add space for CRC32 checksum
 904              		.loc 1 360 0
 905 00c0 226F     		ldr	r2, [r4, #112]
 906 00c2 1868     		ldr	r0, [r3]	@ unaligned
 907 00c4 1060     		str	r0, [r2]	@ unaligned
 361:..\..\FreeflyAPI/QX_Protocol.c **** 		TxMsg_p->MsgBuf_MsgLen = TxMsg_p->MsgBuf_p - TxMsg_p->MsgBufStart_p;	// Update the overall msg le
 908              		.loc 1 361 0
 909 00c6 236F     		ldr	r3, [r4, #112]
 910 00c8 0433     		adds	r3, r3, #4
 911 00ca 2367     		str	r3, [r4, #112]
 362:..\..\FreeflyAPI/QX_Protocol.c **** 	}
 912              		.loc 1 362 0
 913 00cc 626E     		ldr	r2, [r4, #100]
ARM GAS  C:\Users\hamis\AppData\Local\Temp\ccsOK97v.s 			page 29


 914 00ce 9B1A     		subs	r3, r3, r2
 915 00d0 A4F86230 		strh	r3, [r4, #98]	@ movhi
 916              	.L67:
 917              	.LBE5:
 366:..\..\FreeflyAPI/QX_Protocol.c **** 	
 918              		.loc 1 366 0
 919 00d4 2189     		ldrh	r1, [r4, #8]
 920 00d6 A06E     		ldr	r0, [r4, #104]
 921 00d8 FFF7FEFF 		bl	QX_Calc8bChecksum
 922              	.LVL83:
 368:..\..\FreeflyAPI/QX_Protocol.c **** 	TxMsg_p->MsgBuf_MsgLen++;	// Final message length on the wire
 923              		.loc 1 368 0
 924 00dc 236F     		ldr	r3, [r4, #112]
 925 00de 5A1C     		adds	r2, r3, #1
 926 00e0 2267     		str	r2, [r4, #112]
 927 00e2 C043     		mvns	r0, r0
 928              	.LVL84:
 929 00e4 1870     		strb	r0, [r3]
 369:..\..\FreeflyAPI/QX_Protocol.c **** 	
 930              		.loc 1 369 0
 931 00e6 B4F86230 		ldrh	r3, [r4, #98]
 932 00ea 0133     		adds	r3, r3, #1
 933 00ec A4F86230 		strh	r3, [r4, #98]	@ movhi
 378:..\..\FreeflyAPI/QX_Protocol.c **** 	
 934              		.loc 1 378 0
 935 00f0 2046     		mov	r0, r4
 936 00f2 FFF7FEFF 		bl	QX_SendMsg2CommsPort_CB
 937              	.LVL85:
 380:..\..\FreeflyAPI/QX_Protocol.c **** }
 938              		.loc 1 380 0
 939 00f6 0020     		movs	r0, #0
 940 00f8 01E0     		b	.L59
 941              	.LVL86:
 942              	.L68:
 943              		.cfi_def_cfa_offset 0
 944              		.cfi_restore 4
 945              		.cfi_restore 5
 946              		.cfi_restore 6
 947              		.cfi_restore 7
 948              		.cfi_restore 14
 311:..\..\FreeflyAPI/QX_Protocol.c **** 	
 949              		.loc 1 311 0
 950 00fa 0820     		movs	r0, #8
 951              	.LVL87:
 952 00fc 7047     		bx	lr
 953              	.LVL88:
 954              	.L59:
 955              		.cfi_def_cfa_offset 32
 956              		.cfi_offset 4, -20
 957              		.cfi_offset 5, -16
 958              		.cfi_offset 6, -12
 959              		.cfi_offset 7, -8
 960              		.cfi_offset 14, -4
 381:..\..\FreeflyAPI/QX_Protocol.c **** 
 961              		.loc 1 381 0
 962 00fe 03B0     		add	sp, sp, #12
 963              		.cfi_def_cfa_offset 20
ARM GAS  C:\Users\hamis\AppData\Local\Temp\ccsOK97v.s 			page 30


 964              		@ sp needed
 965 0100 F0BD     		pop	{r4, r5, r6, r7, pc}
 966              		.cfi_endproc
 967              	.LFE6:
 968              		.size	QX_TxMsg_Finish, .-QX_TxMsg_Finish
 969 0102 00BF     		.section	.text.QX_InitSrv,"ax",%progbits
 970              		.align	2
 971              		.global	QX_InitSrv
 972              		.thumb
 973              		.thumb_func
 974              		.type	QX_InitSrv, %function
 975              	QX_InitSrv:
 976              	.LFB15:
 576:..\..\FreeflyAPI/QX_Protocol.c **** 
 577:..\..\FreeflyAPI/QX_Protocol.c **** 
 578:..\..\FreeflyAPI/QX_Protocol.c **** //****************************************************************************
 579:..\..\FreeflyAPI/QX_Protocol.c **** // Public Function Definitions
 580:..\..\FreeflyAPI/QX_Protocol.c **** //****************************************************************************
 581:..\..\FreeflyAPI/QX_Protocol.c **** 
 582:..\..\FreeflyAPI/QX_Protocol.c **** //----------------------------------------------------------------------------
 583:..\..\FreeflyAPI/QX_Protocol.c **** // Initialize the server with the address, parser callback, etc
 584:..\..\FreeflyAPI/QX_Protocol.c **** void QX_InitSrv(QX_Server_t *QX_Server, QX_DevId_e Address, uint8_t *(*Parser_CB)(QX_Msg_t *))
 585:..\..\FreeflyAPI/QX_Protocol.c **** {
 977              		.loc 1 585 0
 978              		.cfi_startproc
 979              		@ args = 0, pretend = 0, frame = 0
 980              		@ frame_needed = 0, uses_anonymous_args = 0
 981              		@ link register save eliminated.
 982              	.LVL89:
 586:..\..\FreeflyAPI/QX_Protocol.c **** 	QX_Server->Parser_CB = Parser_CB;	// Register Callback for parsing
 983              		.loc 1 586 0
 984 0000 4260     		str	r2, [r0, #4]
 587:..\..\FreeflyAPI/QX_Protocol.c **** 	QX_Server->Address = Address;
 985              		.loc 1 587 0
 986 0002 0170     		strb	r1, [r0]
 987 0004 7047     		bx	lr
 988              		.cfi_endproc
 989              	.LFE15:
 990              		.size	QX_InitSrv, .-QX_InitSrv
 991 0006 00BF     		.section	.text.QX_InitCli,"ax",%progbits
 992              		.align	2
 993              		.global	QX_InitCli
 994              		.thumb
 995              		.thumb_func
 996              		.type	QX_InitCli, %function
 997              	QX_InitCli:
 998              	.LFB16:
 588:..\..\FreeflyAPI/QX_Protocol.c **** }
 589:..\..\FreeflyAPI/QX_Protocol.c **** 
 590:..\..\FreeflyAPI/QX_Protocol.c **** //----------------------------------------------------------------------------
 591:..\..\FreeflyAPI/QX_Protocol.c **** // Initialize the client with the address, parser callback, etc
 592:..\..\FreeflyAPI/QX_Protocol.c **** void QX_InitCli(QX_Client_t *QX_Client, QX_DevId_e Address, uint8_t *(*Parser_CB)(QX_Msg_t *))
 593:..\..\FreeflyAPI/QX_Protocol.c **** {
 999              		.loc 1 593 0
 1000              		.cfi_startproc
 1001              		@ args = 0, pretend = 0, frame = 0
 1002              		@ frame_needed = 0, uses_anonymous_args = 0
ARM GAS  C:\Users\hamis\AppData\Local\Temp\ccsOK97v.s 			page 31


 1003              		@ link register save eliminated.
 1004              	.LVL90:
 594:..\..\FreeflyAPI/QX_Protocol.c **** 	QX_Client->Parser_CB = Parser_CB;	// Register Callback for parsing
 1005              		.loc 1 594 0
 1006 0000 4260     		str	r2, [r0, #4]
 595:..\..\FreeflyAPI/QX_Protocol.c **** 	QX_Client->Address = Address;
 1007              		.loc 1 595 0
 1008 0002 0170     		strb	r1, [r0]
 1009 0004 7047     		bx	lr
 1010              		.cfi_endproc
 1011              	.LFE16:
 1012              		.size	QX_InitCli, .-QX_InitCli
 1013 0006 00BF     		.section	.text.QX_Connection_Status_Update,"ax",%progbits
 1014              		.align	2
 1015              		.global	QX_Connection_Status_Update
 1016              		.thumb
 1017              		.thumb_func
 1018              		.type	QX_Connection_Status_Update, %function
 1019              	QX_Connection_Status_Update:
 1020              	.LFB18:
 596:..\..\FreeflyAPI/QX_Protocol.c **** }
 597:..\..\FreeflyAPI/QX_Protocol.c **** 
 598:..\..\FreeflyAPI/QX_Protocol.c **** //----------------------------------------------------------------------------
 599:..\..\FreeflyAPI/QX_Protocol.c **** // QX Stream RX Char State Machine
 600:..\..\FreeflyAPI/QX_Protocol.c **** // Accepts 1 charater from a serial data stream and recieves full messages
 601:..\..\FreeflyAPI/QX_Protocol.c **** // Returns 1 if a message was parsed in this call
 602:..\..\FreeflyAPI/QX_Protocol.c **** uint8_t QX_StreamRxCharSM(QX_Comms_Port_e port, unsigned char rxbyte)
 603:..\..\FreeflyAPI/QX_Protocol.c **** {
 604:..\..\FreeflyAPI/QX_Protocol.c **** 	uint8_t chksum;
 605:..\..\FreeflyAPI/QX_Protocol.c **** 	
 606:..\..\FreeflyAPI/QX_Protocol.c **** 	switch(QX_CommsPorts[port].RxState)
 607:..\..\FreeflyAPI/QX_Protocol.c **** 	{
 608:..\..\FreeflyAPI/QX_Protocol.c **** 		case QX_RX_STATE_START_WAIT:
 609:..\..\FreeflyAPI/QX_Protocol.c **** 				if(rxbyte == 'Q')
 610:..\..\FreeflyAPI/QX_Protocol.c **** 				{
 611:..\..\FreeflyAPI/QX_Protocol.c **** 					QX_CommsPorts[port].RxCntr = 1;
 612:..\..\FreeflyAPI/QX_Protocol.c **** 					QX_CommsPorts[port].RxMsg.MsgBuf[0] = rxbyte;
 613:..\..\FreeflyAPI/QX_Protocol.c **** 					QX_CommsPorts[port].RxMsg.MsgBuf_p = &QX_CommsPorts[port].RxMsg.MsgBuf[1];
 614:..\..\FreeflyAPI/QX_Protocol.c **** 					QX_CommsPorts[port].RxState = QX_RX_STATE_GET_PROTOCOL_VER;
 615:..\..\FreeflyAPI/QX_Protocol.c **** 				} else {
 616:..\..\FreeflyAPI/QX_Protocol.c **** 					QX_CommsPorts[port].non_Q_cnt++;
 617:..\..\FreeflyAPI/QX_Protocol.c **** 				}
 618:..\..\FreeflyAPI/QX_Protocol.c **** 				break;
 619:..\..\FreeflyAPI/QX_Protocol.c **** 				
 620:..\..\FreeflyAPI/QX_Protocol.c **** 		case QX_RX_STATE_GET_PROTOCOL_VER:
 621:..\..\FreeflyAPI/QX_Protocol.c **** 				*QX_CommsPorts[port].RxMsg.MsgBuf_p++ = rxbyte;
 622:..\..\FreeflyAPI/QX_Protocol.c **** 				QX_CommsPorts[port].RxCntr++;
 623:..\..\FreeflyAPI/QX_Protocol.c **** 				if(rxbyte == 'X'){
 624:..\..\FreeflyAPI/QX_Protocol.c **** 					QX_CommsPorts[port].RxMsg.Legacy_Header = 0;
 625:..\..\FreeflyAPI/QX_Protocol.c **** 					QX_CommsPorts[port].RxState = QX_RX_STATE_GET_QX_LEN0;
 626:..\..\FreeflyAPI/QX_Protocol.c **** 				}
 627:..\..\FreeflyAPI/QX_Protocol.c **** 				else if (rxbyte == 'B'){
 628:..\..\FreeflyAPI/QX_Protocol.c **** 					QX_CommsPorts[port].RxMsg.Legacy_Header = 1;
 629:..\..\FreeflyAPI/QX_Protocol.c **** 					QX_CommsPorts[port].RxState = QX_RX_STATE_GET_QB_LEN0;
 630:..\..\FreeflyAPI/QX_Protocol.c **** 				}
 631:..\..\FreeflyAPI/QX_Protocol.c **** 				else {
 632:..\..\FreeflyAPI/QX_Protocol.c **** 					QX_CommsPorts[port].RxState = QX_RX_STATE_START_WAIT;
ARM GAS  C:\Users\hamis\AppData\Local\Temp\ccsOK97v.s 			page 32


 633:..\..\FreeflyAPI/QX_Protocol.c **** 				}
 634:..\..\FreeflyAPI/QX_Protocol.c **** 				break;
 635:..\..\FreeflyAPI/QX_Protocol.c **** 				
 636:..\..\FreeflyAPI/QX_Protocol.c **** 		case QX_RX_STATE_GET_QX_LEN0:	// Length LSB
 637:..\..\FreeflyAPI/QX_Protocol.c **** 			*QX_CommsPorts[port].RxMsg.MsgBuf_p++ = rxbyte;
 638:..\..\FreeflyAPI/QX_Protocol.c **** 				QX_CommsPorts[port].RxCntr++;
 639:..\..\FreeflyAPI/QX_Protocol.c **** 		
 640:..\..\FreeflyAPI/QX_Protocol.c **** 			if (rxbyte & 0x80){		// Check for Bit 7 extension
 641:..\..\FreeflyAPI/QX_Protocol.c **** 				QX_CommsPorts[port].RxMsg.Header.MsgLength = (uint16_t)(rxbyte & ~0x80);
 642:..\..\FreeflyAPI/QX_Protocol.c **** 				QX_CommsPorts[port].RxState = QX_RX_STATE_GET_QX_LEN1;
 643:..\..\FreeflyAPI/QX_Protocol.c **** 			} else {
 644:..\..\FreeflyAPI/QX_Protocol.c **** 				QX_CommsPorts[port].RxMsg.Header.MsgLength = (uint16_t)(rxbyte);
 645:..\..\FreeflyAPI/QX_Protocol.c **** 				QX_CommsPorts[port].RxMsg.MsgBufAtt_p = QX_CommsPorts[port].RxMsg.MsgBuf_p;
 646:..\..\FreeflyAPI/QX_Protocol.c **** 				QX_CommsPorts[port].RxMsg.RunningChecksum = 0;
 647:..\..\FreeflyAPI/QX_Protocol.c **** 				QX_CommsPorts[port].RxState = QX_RX_STATE_GET_DATA;
 648:..\..\FreeflyAPI/QX_Protocol.c **** 				
 649:..\..\FreeflyAPI/QX_Protocol.c **** 				if(QX_MAX_PAYLOAD_LEN < QX_CommsPorts[port].RxMsg.Header.MsgLength)        // Maximum message l
 650:..\..\FreeflyAPI/QX_Protocol.c **** 				{
 651:..\..\FreeflyAPI/QX_Protocol.c **** 					QX_CommsPorts[port].RxState = QX_RX_STATE_START_WAIT;
 652:..\..\FreeflyAPI/QX_Protocol.c **** 				}
 653:..\..\FreeflyAPI/QX_Protocol.c **** 			}
 654:..\..\FreeflyAPI/QX_Protocol.c **** 			
 655:..\..\FreeflyAPI/QX_Protocol.c **** 			break;
 656:..\..\FreeflyAPI/QX_Protocol.c **** 			
 657:..\..\FreeflyAPI/QX_Protocol.c **** 		case QX_RX_STATE_GET_QX_LEN1:	// Length MSB
 658:..\..\FreeflyAPI/QX_Protocol.c **** 			*QX_CommsPorts[port].RxMsg.MsgBuf_p++ = rxbyte;
 659:..\..\FreeflyAPI/QX_Protocol.c **** 			QX_CommsPorts[port].RxCntr++;
 660:..\..\FreeflyAPI/QX_Protocol.c **** 			QX_CommsPorts[port].RxMsg.MsgBufAtt_p = QX_CommsPorts[port].RxMsg.MsgBuf_p;
 661:..\..\FreeflyAPI/QX_Protocol.c **** 			
 662:..\..\FreeflyAPI/QX_Protocol.c **** 			if (rxbyte & 0x80){
 663:..\..\FreeflyAPI/QX_Protocol.c **** 				QX_CommsPorts[port].RxState = QX_RX_STATE_START_WAIT;	// Should not reach here, 21 bit length n
 664:..\..\FreeflyAPI/QX_Protocol.c **** 			} else {
 665:..\..\FreeflyAPI/QX_Protocol.c **** 				QX_CommsPorts[port].RxMsg.Header.MsgLength |= (((uint16_t)(rxbyte & ~0x80)) << 7);
 666:..\..\FreeflyAPI/QX_Protocol.c **** 				QX_CommsPorts[port].RxMsg.RunningChecksum = 0;
 667:..\..\FreeflyAPI/QX_Protocol.c **** 				QX_CommsPorts[port].RxState = QX_RX_STATE_GET_DATA;
 668:..\..\FreeflyAPI/QX_Protocol.c **** 			}
 669:..\..\FreeflyAPI/QX_Protocol.c **** 			
 670:..\..\FreeflyAPI/QX_Protocol.c **** 			if(QX_MAX_PAYLOAD_LEN < QX_CommsPorts[port].RxMsg.Header.MsgLength)
 671:..\..\FreeflyAPI/QX_Protocol.c **** 			{
 672:..\..\FreeflyAPI/QX_Protocol.c **** 				QX_CommsPorts[port].RxState = QX_RX_STATE_START_WAIT;
 673:..\..\FreeflyAPI/QX_Protocol.c **** 			}
 674:..\..\FreeflyAPI/QX_Protocol.c **** 			
 675:..\..\FreeflyAPI/QX_Protocol.c **** 			break;
 676:..\..\FreeflyAPI/QX_Protocol.c **** 				
 677:..\..\FreeflyAPI/QX_Protocol.c **** 		case QX_RX_STATE_GET_QB_LEN0:
 678:..\..\FreeflyAPI/QX_Protocol.c **** 				*QX_CommsPorts[port].RxMsg.MsgBuf_p++ = rxbyte;
 679:..\..\FreeflyAPI/QX_Protocol.c **** 				QX_CommsPorts[port].RxCntr++;
 680:..\..\FreeflyAPI/QX_Protocol.c **** 				QX_CommsPorts[port].RxMsg.Header.MsgLength = (uint16_t)rxbyte << 8;
 681:..\..\FreeflyAPI/QX_Protocol.c **** 				QX_CommsPorts[port].RxState = QX_RX_STATE_GET_QB_LEN1;
 682:..\..\FreeflyAPI/QX_Protocol.c **** 				break;
 683:..\..\FreeflyAPI/QX_Protocol.c **** 				
 684:..\..\FreeflyAPI/QX_Protocol.c **** 		case QX_RX_STATE_GET_QB_LEN1:
 685:..\..\FreeflyAPI/QX_Protocol.c **** 				*QX_CommsPorts[port].RxMsg.MsgBuf_p++ = rxbyte;	// Leave the message buf pointer at the attribu
 686:..\..\FreeflyAPI/QX_Protocol.c **** 				QX_CommsPorts[port].RxCntr++;
 687:..\..\FreeflyAPI/QX_Protocol.c **** 				QX_CommsPorts[port].RxMsg.MsgBufAtt_p = QX_CommsPorts[port].RxMsg.MsgBuf_p;
 688:..\..\FreeflyAPI/QX_Protocol.c **** 				QX_CommsPorts[port].RxMsg.Header.MsgLength |= (uint16_t)rxbyte;
 689:..\..\FreeflyAPI/QX_Protocol.c **** 				QX_CommsPorts[port].RxMsg.RunningChecksum = 0;
ARM GAS  C:\Users\hamis\AppData\Local\Temp\ccsOK97v.s 			page 33


 690:..\..\FreeflyAPI/QX_Protocol.c **** 				QX_CommsPorts[port].RxState = QX_RX_STATE_GET_DATA;
 691:..\..\FreeflyAPI/QX_Protocol.c **** 				if(QX_MAX_PAYLOAD_LEN < QX_CommsPorts[port].RxMsg.Header.MsgLength)
 692:..\..\FreeflyAPI/QX_Protocol.c **** 				{
 693:..\..\FreeflyAPI/QX_Protocol.c **** 						QX_CommsPorts[port].RxState = QX_RX_STATE_START_WAIT;
 694:..\..\FreeflyAPI/QX_Protocol.c **** 				}
 695:..\..\FreeflyAPI/QX_Protocol.c **** 				break;
 696:..\..\FreeflyAPI/QX_Protocol.c **** 				
 697:..\..\FreeflyAPI/QX_Protocol.c **** 		case QX_RX_STATE_GET_DATA:
 698:..\..\FreeflyAPI/QX_Protocol.c **** 				*QX_CommsPorts[port].RxMsg.MsgBuf_p++ = rxbyte;
 699:..\..\FreeflyAPI/QX_Protocol.c **** 				QX_CommsPorts[port].RxCntr++;
 700:..\..\FreeflyAPI/QX_Protocol.c **** 				QX_CommsPorts[port].RxMsg.RunningChecksum += rxbyte;
 701:..\..\FreeflyAPI/QX_Protocol.c **** 				if(QX_CommsPorts[port].RxMsg.Header.MsgLength <= QX_CommsPorts[port].RxCntr - (QX_CommsPorts[po
 702:..\..\FreeflyAPI/QX_Protocol.c **** 				{
 703:..\..\FreeflyAPI/QX_Protocol.c **** 						QX_CommsPorts[port].RxState = QX_RX_STATE_GET_CHKSUM;
 704:..\..\FreeflyAPI/QX_Protocol.c **** 				}
 705:..\..\FreeflyAPI/QX_Protocol.c **** 				break;
 706:..\..\FreeflyAPI/QX_Protocol.c **** 				
 707:..\..\FreeflyAPI/QX_Protocol.c **** 		case QX_RX_STATE_GET_CHKSUM:
 708:..\..\FreeflyAPI/QX_Protocol.c **** 				*QX_CommsPorts[port].RxMsg.MsgBuf_p++ = rxbyte;
 709:..\..\FreeflyAPI/QX_Protocol.c **** 				QX_CommsPorts[port].RxCntr++;
 710:..\..\FreeflyAPI/QX_Protocol.c **** 				chksum = rxbyte;
 711:..\..\FreeflyAPI/QX_Protocol.c **** 				QX_CommsPorts[port].RxState = QX_RX_STATE_START_WAIT;
 712:..\..\FreeflyAPI/QX_Protocol.c **** 				QX_CommsPorts[port].RxMsg.CommPort = port;
 713:..\..\FreeflyAPI/QX_Protocol.c **** 				if((chksum + QX_CommsPorts[port].RxMsg.RunningChecksum) == 0xFF)		// Is checksum ok?
 714:..\..\FreeflyAPI/QX_Protocol.c **** 				{
 715:..\..\FreeflyAPI/QX_Protocol.c **** 					QX_CommsPorts[port].Timeout_Cntr = 0;
 716:..\..\FreeflyAPI/QX_Protocol.c **** 					QX_CommsPorts[port].last_rx_msg_time = QX_GetTicks_ms();
 717:..\..\FreeflyAPI/QX_Protocol.c **** 					QX_CommsPorts[port].Connected = 1;
 718:..\..\FreeflyAPI/QX_Protocol.c **** 					QX_CommsPorts[port].RxMsg.MsgBuf_MsgLen = QX_CommsPorts[port].RxCntr;
 719:..\..\FreeflyAPI/QX_Protocol.c **** 					QX_RxMsg(&QX_CommsPorts[port].RxMsg);	// Receive the Message
 720:..\..\FreeflyAPI/QX_Protocol.c **** 					return 1;
 721:..\..\FreeflyAPI/QX_Protocol.c **** 				} else {
 722:..\..\FreeflyAPI/QX_Protocol.c **** 					QX_CommsPorts[port].ChkSumFail_cnt++;
 723:..\..\FreeflyAPI/QX_Protocol.c **** 				}
 724:..\..\FreeflyAPI/QX_Protocol.c **** 				break;
 725:..\..\FreeflyAPI/QX_Protocol.c **** 	}
 726:..\..\FreeflyAPI/QX_Protocol.c **** 	return 0;
 727:..\..\FreeflyAPI/QX_Protocol.c **** }
 728:..\..\FreeflyAPI/QX_Protocol.c **** 
 729:..\..\FreeflyAPI/QX_Protocol.c **** //----------------------------------------------------------------------------
 730:..\..\FreeflyAPI/QX_Protocol.c **** // Call periodically to update lost connection status
 731:..\..\FreeflyAPI/QX_Protocol.c **** void QX_Connection_Status_Update(QX_Comms_Port_e port)
 732:..\..\FreeflyAPI/QX_Protocol.c **** {
 1021              		.loc 1 732 0
 1022              		.cfi_startproc
 1023              		@ args = 0, pretend = 0, frame = 0
 1024              		@ frame_needed = 0, uses_anonymous_args = 0
 1025              	.LVL91:
 1026 0000 10B5     		push	{r4, lr}
 1027              		.cfi_def_cfa_offset 8
 1028              		.cfi_offset 4, -8
 1029              		.cfi_offset 14, -4
 1030 0002 0446     		mov	r4, r0
 733:..\..\FreeflyAPI/QX_Protocol.c **** 	// Update Timeout Timer
 734:..\..\FreeflyAPI/QX_Protocol.c **** 	QX_CommsPorts[port].Timeout_Cntr = (QX_GetTicks_ms() - QX_CommsPorts[port].last_rx_msg_time);
 1031              		.loc 1 734 0
 1032 0004 FFF7FEFF 		bl	QX_GetTicks_ms
ARM GAS  C:\Users\hamis\AppData\Local\Temp\ccsOK97v.s 			page 34


 1033              	.LVL92:
 1034 0008 8C23     		movs	r3, #140
 1035 000a 094A     		ldr	r2, .L76
 1036 000c 03FB0422 		mla	r2, r3, r4, r2
 1037 0010 D2F88830 		ldr	r3, [r2, #136]
 1038 0014 C01A     		subs	r0, r0, r3
 1039 0016 9067     		str	r0, [r2, #120]
 735:..\..\FreeflyAPI/QX_Protocol.c **** 	
 736:..\..\FreeflyAPI/QX_Protocol.c **** 	// Turn off connected flag if needed (turned on by successful packet RX)
 737:..\..\FreeflyAPI/QX_Protocol.c **** 	if (QX_CommsPorts[port].Timeout_Cntr > QX_PORT_TIMEOUT_MSEC){
 1040              		.loc 1 737 0
 1041 0018 B0F5FA6F 		cmp	r0, #2000
 1042 001c 06D9     		bls	.L73
 738:..\..\FreeflyAPI/QX_Protocol.c **** 		QX_CommsPorts[port].Connected = 0;
 1043              		.loc 1 738 0
 1044 001e 8C22     		movs	r2, #140
 1045 0020 034B     		ldr	r3, .L76
 1046 0022 02FB0434 		mla	r4, r2, r4, r3
 1047 0026 0023     		movs	r3, #0
 1048 0028 84F87C30 		strb	r3, [r4, #124]
 1049              	.L73:
 1050 002c 10BD     		pop	{r4, pc}
 1051              	.L77:
 1052 002e 00BF     		.align	2
 1053              	.L76:
 1054 0030 00000000 		.word	QX_CommsPorts
 1055              		.cfi_endproc
 1056              	.LFE18:
 1057              		.size	QX_Connection_Status_Update, .-QX_Connection_Status_Update
 1058              		.section	.text.QX_InitTxOptions,"ax",%progbits
 1059              		.align	2
 1060              		.global	QX_InitTxOptions
 1061              		.thumb
 1062              		.thumb_func
 1063              		.type	QX_InitTxOptions, %function
 1064              	QX_InitTxOptions:
 1065              	.LFB19:
 739:..\..\FreeflyAPI/QX_Protocol.c **** 	}
 740:..\..\FreeflyAPI/QX_Protocol.c **** }
 741:..\..\FreeflyAPI/QX_Protocol.c **** 
 742:..\..\FreeflyAPI/QX_Protocol.c **** 
 743:..\..\FreeflyAPI/QX_Protocol.c **** //----------------------------------------------------------------------------
 744:..\..\FreeflyAPI/QX_Protocol.c **** // Initialize the TX Options structure for a standard message
 745:..\..\FreeflyAPI/QX_Protocol.c **** void QX_InitTxOptions(QX_TxMsgOptions_t *options)
 746:..\..\FreeflyAPI/QX_Protocol.c **** {
 1066              		.loc 1 746 0
 1067              		.cfi_startproc
 1068              		@ args = 0, pretend = 0, frame = 0
 1069              		@ frame_needed = 0, uses_anonymous_args = 0
 1070              		@ link register save eliminated.
 1071              	.LVL93:
 747:..\..\FreeflyAPI/QX_Protocol.c **** 	// Keep address fields by default
 748:..\..\FreeflyAPI/QX_Protocol.c **** 	options->Remove_Addr_Fields = 0;
 1072              		.loc 1 748 0
 1073 0000 0023     		movs	r3, #0
 1074 0002 8370     		strb	r3, [r0, #2]
 749:..\..\FreeflyAPI/QX_Protocol.c **** 	options->Remove_Req_Fields = 0;
ARM GAS  C:\Users\hamis\AppData\Local\Temp\ccsOK97v.s 			page 35


 1075              		.loc 1 749 0
 1076 0004 C370     		strb	r3, [r0, #3]
 750:..\..\FreeflyAPI/QX_Protocol.c **** 	
 751:..\..\FreeflyAPI/QX_Protocol.c **** 	// standard addresses
 752:..\..\FreeflyAPI/QX_Protocol.c **** 	options->RespReq_Addr = QX_DEV_ID_BROADCAST;
 1077              		.loc 1 752 0
 1078 0006 8371     		strb	r3, [r0, #6]
 753:..\..\FreeflyAPI/QX_Protocol.c **** 	options->Target_Addr = QX_DEV_ID_BROADCAST;
 1079              		.loc 1 753 0
 1080 0008 0371     		strb	r3, [r0, #4]
 754:..\..\FreeflyAPI/QX_Protocol.c **** 	options->TransReq_Addr = QX_DEV_ID_BROADCAST;
 1081              		.loc 1 754 0
 1082 000a 4371     		strb	r3, [r0, #5]
 755:..\..\FreeflyAPI/QX_Protocol.c **** 	
 756:..\..\FreeflyAPI/QX_Protocol.c **** 	// standard flags
 757:..\..\FreeflyAPI/QX_Protocol.c **** 	options->FF_Ext = 0;
 1083              		.loc 1 757 0
 1084 000c 0370     		strb	r3, [r0]
 758:..\..\FreeflyAPI/QX_Protocol.c **** 	options->use_CRC32 = 0;
 1085              		.loc 1 758 0
 1086 000e 4370     		strb	r3, [r0, #1]
 1087 0010 7047     		bx	lr
 1088              		.cfi_endproc
 1089              	.LFE19:
 1090              		.size	QX_InitTxOptions, .-QX_InitTxOptions
 1091 0012 00BF     		.section	.text.QX_SendPacket_Srv_CurVal,"ax",%progbits
 1092              		.align	2
 1093              		.global	QX_SendPacket_Srv_CurVal
 1094              		.thumb
 1095              		.thumb_func
 1096              		.type	QX_SendPacket_Srv_CurVal, %function
 1097              	QX_SendPacket_Srv_CurVal:
 1098              	.LFB20:
 759:..\..\FreeflyAPI/QX_Protocol.c **** }
 760:..\..\FreeflyAPI/QX_Protocol.c **** 
 761:..\..\FreeflyAPI/QX_Protocol.c **** 
 762:..\..\FreeflyAPI/QX_Protocol.c **** //----------------------------------------------------------------------------
 763:..\..\FreeflyAPI/QX_Protocol.c **** // Full Featured Send QX Packet - For use by the Application (Not in auto response to Read/Write)
 764:..\..\FreeflyAPI/QX_Protocol.c **** // This version supports all features
 765:..\..\FreeflyAPI/QX_Protocol.c **** // This function builds an appropriate message structure and calls calls QX_TxMsg().
 766:..\..\FreeflyAPI/QX_Protocol.c **** QX_Stat_e QX_SendPacket_Srv_CurVal(QX_Server_t *Srv_p, uint32_t Attrib, QX_Comms_Port_e CommPort, Q
 767:..\..\FreeflyAPI/QX_Protocol.c **** {
 1099              		.loc 1 767 0
 1100              		.cfi_startproc
 1101              		@ args = 12, pretend = 8, frame = 120
 1102              		@ frame_needed = 0, uses_anonymous_args = 0
 1103              	.LVL94:
 1104 0000 82B0     		sub	sp, sp, #8
 1105              		.cfi_def_cfa_offset 8
 1106 0002 70B5     		push	{r4, r5, r6, lr}
 1107              		.cfi_def_cfa_offset 24
 1108              		.cfi_offset 4, -24
 1109              		.cfi_offset 5, -20
 1110              		.cfi_offset 6, -16
 1111              		.cfi_offset 14, -12
 1112 0004 9EB0     		sub	sp, sp, #120
 1113              		.cfi_def_cfa_offset 144
ARM GAS  C:\Users\hamis\AppData\Local\Temp\ccsOK97v.s 			page 36


 1114 0006 0446     		mov	r4, r0
 1115 0008 0D46     		mov	r5, r1
 1116 000a 1646     		mov	r6, r2
 1117 000c 2393     		str	r3, [sp, #140]
 768:..\..\FreeflyAPI/QX_Protocol.c **** 	QX_Msg_t TxMsg;
 769:..\..\FreeflyAPI/QX_Protocol.c **** 	QX_InitMsg(&TxMsg);
 1118              		.loc 1 769 0
 1119 000e 01A8     		add	r0, sp, #4
 1120              	.LVL95:
 1121 0010 FFF7FEFF 		bl	QX_InitMsg
 1122              	.LVL96:
 770:..\..\FreeflyAPI/QX_Protocol.c **** 	
 771:..\..\FreeflyAPI/QX_Protocol.c **** 	TxMsg.CommPort = CommPort;
 1123              		.loc 1 771 0
 1124 0014 8DF80A60 		strb	r6, [sp, #10]
 772:..\..\FreeflyAPI/QX_Protocol.c **** 	TxMsg.Header.Attrib = Attrib;
 1125              		.loc 1 772 0
 1126 0018 0495     		str	r5, [sp, #16]
 773:..\..\FreeflyAPI/QX_Protocol.c **** 	TxMsg.Header.Type = QX_MSG_TYPE_CURVAL;
 1127              		.loc 1 773 0
 1128 001a 0025     		movs	r5, #0
 1129              	.LVL97:
 1130 001c 8DF81450 		strb	r5, [sp, #20]
 774:..\..\FreeflyAPI/QX_Protocol.c **** 	TxMsg.Header.Target_Addr = options.Target_Addr;
 1131              		.loc 1 774 0
 1132 0020 9DF89030 		ldrb	r3, [sp, #144]	@ zero_extendqisi2
 1133 0024 8DF81D30 		strb	r3, [sp, #29]
 775:..\..\FreeflyAPI/QX_Protocol.c **** 	TxMsg.Header.TransReq_Addr = options.TransReq_Addr;
 1134              		.loc 1 775 0
 1135 0028 9DF89130 		ldrb	r3, [sp, #145]	@ zero_extendqisi2
 1136 002c 8DF81E30 		strb	r3, [sp, #30]
 776:..\..\FreeflyAPI/QX_Protocol.c **** 	TxMsg.Header.RespReq_Addr = options.RespReq_Addr;
 1137              		.loc 1 776 0
 1138 0030 9DF89230 		ldrb	r3, [sp, #146]	@ zero_extendqisi2
 1139 0034 8DF81F30 		strb	r3, [sp, #31]
 777:..\..\FreeflyAPI/QX_Protocol.c **** 	TxMsg.Header.Source_Addr = Srv_p->Address;
 1140              		.loc 1 777 0
 1141 0038 2378     		ldrb	r3, [r4]	@ zero_extendqisi2
 1142 003a 8DF81C30 		strb	r3, [sp, #28]
 778:..\..\FreeflyAPI/QX_Protocol.c **** 	TxMsg.Header.FF_Ext = options.FF_Ext;
 1143              		.loc 1 778 0
 1144 003e 9DF88C30 		ldrb	r3, [sp, #140]	@ zero_extendqisi2
 1145 0042 8DF81730 		strb	r3, [sp, #23]
 779:..\..\FreeflyAPI/QX_Protocol.c **** 	TxMsg.Header.AddCRC32 = options.use_CRC32;
 1146              		.loc 1 779 0
 1147 0046 9DF88D30 		ldrb	r3, [sp, #141]	@ zero_extendqisi2
 1148 004a 8DF81630 		strb	r3, [sp, #22]
 780:..\..\FreeflyAPI/QX_Protocol.c **** 	
 781:..\..\FreeflyAPI/QX_Protocol.c **** 	QX_TxMsg_Setup(&TxMsg);
 1149              		.loc 1 781 0
 1150 004e 01A8     		add	r0, sp, #4
 1151 0050 FFF7FEFF 		bl	QX_TxMsg_Setup
 1152              	.LVL98:
 782:..\..\FreeflyAPI/QX_Protocol.c **** 	TxMsg.Parse_Type = QX_PARSE_TYPE_CURVAL_SEND;
 1153              		.loc 1 782 0
 1154 0054 8DF80450 		strb	r5, [sp, #4]
 783:..\..\FreeflyAPI/QX_Protocol.c **** 	TxMsg.MsgBuf_p = Srv_p->Parser_CB(&TxMsg);
ARM GAS  C:\Users\hamis\AppData\Local\Temp\ccsOK97v.s 			page 37


 1155              		.loc 1 783 0
 1156 0058 6368     		ldr	r3, [r4, #4]
 1157 005a 01A8     		add	r0, sp, #4
 1158 005c 9847     		blx	r3
 1159              	.LVL99:
 1160 005e 1D90     		str	r0, [sp, #116]
 784:..\..\FreeflyAPI/QX_Protocol.c **** 	return QX_TxMsg_Finish(&TxMsg);
 1161              		.loc 1 784 0
 1162 0060 01A8     		add	r0, sp, #4
 1163 0062 FFF7FEFF 		bl	QX_TxMsg_Finish
 1164              	.LVL100:
 785:..\..\FreeflyAPI/QX_Protocol.c **** }
 1165              		.loc 1 785 0
 1166 0066 1EB0     		add	sp, sp, #120
 1167              		.cfi_def_cfa_offset 24
 1168              		@ sp needed
 1169 0068 BDE87040 		pop	{r4, r5, r6, lr}
 1170              		.cfi_restore 14
 1171              		.cfi_restore 6
 1172              		.cfi_restore 5
 1173              		.cfi_restore 4
 1174              		.cfi_def_cfa_offset 8
 1175              	.LVL101:
 1176 006c 02B0     		add	sp, sp, #8
 1177              		.cfi_def_cfa_offset 0
 1178 006e 7047     		bx	lr
 1179              		.cfi_endproc
 1180              	.LFE20:
 1181              		.size	QX_SendPacket_Srv_CurVal, .-QX_SendPacket_Srv_CurVal
 1182              		.section	.text.QX_Srv_Rx_Read,"ax",%progbits
 1183              		.align	2
 1184              		.global	QX_Srv_Rx_Read
 1185              		.thumb
 1186              		.thumb_func
 1187              		.type	QX_Srv_Rx_Read, %function
 1188              	QX_Srv_Rx_Read:
 1189              	.LFB2:
 216:..\..\FreeflyAPI/QX_Protocol.c **** 	// Check Address - For each server node, if unicast & address match or broadcast, handle it
 1190              		.loc 1 216 0
 1191              		.cfi_startproc
 1192              		@ args = 0, pretend = 0, frame = 8
 1193              		@ frame_needed = 0, uses_anonymous_args = 0
 1194              	.LVL102:
 1195 0000 30B5     		push	{r4, r5, lr}
 1196              		.cfi_def_cfa_offset 12
 1197              		.cfi_offset 4, -12
 1198              		.cfi_offset 5, -8
 1199              		.cfi_offset 14, -4
 1200 0002 85B0     		sub	sp, sp, #20
 1201              		.cfi_def_cfa_offset 32
 1202 0004 0546     		mov	r5, r0
 1203              	.LVL103:
 1204              	.LBB6:
 218:..\..\FreeflyAPI/QX_Protocol.c **** 		if ((RxMsg_p->Header.Target_Addr == QX_Servers[srv_i].Address) || (RxMsg_p->Header.Target_Addr ==
 1205              		.loc 1 218 0
 1206 0006 0024     		movs	r4, #0
 1207 0008 27E0     		b	.L82
ARM GAS  C:\Users\hamis\AppData\Local\Temp\ccsOK97v.s 			page 38


 1208              	.LVL104:
 1209              	.L85:
 219:..\..\FreeflyAPI/QX_Protocol.c **** 			QX_TxMsgOptions_t options;
 1210              		.loc 1 219 0
 1211 000a 6B7E     		ldrb	r3, [r5, #25]	@ zero_extendqisi2
 1212 000c 154A     		ldr	r2, .L87
 1213 000e 12F83420 		ldrb	r2, [r2, r4, lsl #3]	@ zero_extendqisi2
 1214 0012 9342     		cmp	r3, r2
 1215 0014 00D0     		beq	.L83
 219:..\..\FreeflyAPI/QX_Protocol.c **** 			QX_TxMsgOptions_t options;
 1216              		.loc 1 219 0 is_stmt 0 discriminator 1
 1217 0016 FBB9     		cbnz	r3, .L84
 1218              	.L83:
 1219              	.LBB7:
 221:..\..\FreeflyAPI/QX_Protocol.c **** 			options.use_CRC32 = RxMsg_p->Header.AddCRC32;
 1220              		.loc 1 221 0 is_stmt 1
 1221 0018 02A8     		add	r0, sp, #8
 1222 001a FFF7FEFF 		bl	QX_InitTxOptions
 1223              	.LVL105:
 222:..\..\FreeflyAPI/QX_Protocol.c **** 			options.FF_Ext = RxMsg_p->Header.FF_Ext;
 1224              		.loc 1 222 0
 1225 001e AB7C     		ldrb	r3, [r5, #18]	@ zero_extendqisi2
 1226 0020 8DF80930 		strb	r3, [sp, #9]
 223:..\..\FreeflyAPI/QX_Protocol.c **** 			options.Remove_Addr_Fields = RxMsg_p->Header.Remove_Addr_Fields;
 1227              		.loc 1 223 0
 1228 0024 EB7C     		ldrb	r3, [r5, #19]	@ zero_extendqisi2
 1229 0026 8DF80830 		strb	r3, [sp, #8]
 224:..\..\FreeflyAPI/QX_Protocol.c **** 			options.Remove_Req_Fields = 1;		// No need for request fields in a response.
 1230              		.loc 1 224 0
 1231 002a AB7D     		ldrb	r3, [r5, #22]	@ zero_extendqisi2
 1232 002c 8DF80A30 		strb	r3, [sp, #10]
 225:..\..\FreeflyAPI/QX_Protocol.c **** 			options.Target_Addr = RxMsg_p->Header.Source_Addr;		// Reverse target
 1233              		.loc 1 225 0
 1234 0030 0123     		movs	r3, #1
 1235 0032 8DF80B30 		strb	r3, [sp, #11]
 226:..\..\FreeflyAPI/QX_Protocol.c **** 			QX_SendPacket_Srv_CurVal(&QX_Servers[srv_i], RxMsg_p->Header.Attrib, RxMsg_p->CommPort, options)
 1236              		.loc 1 226 0
 1237 0036 2B7E     		ldrb	r3, [r5, #24]	@ zero_extendqisi2
 1238 0038 8DF80C30 		strb	r3, [sp, #12]
 227:..\..\FreeflyAPI/QX_Protocol.c **** 		}
 1239              		.loc 1 227 0
 1240 003c AA79     		ldrb	r2, [r5, #6]	@ zero_extendqisi2
 1241 003e 039B     		ldr	r3, [sp, #12]
 1242 0040 ADF80030 		strh	r3, [sp]	@ movhi
 1243 0044 1B0C     		lsrs	r3, r3, #16
 1244 0046 8DF80230 		strb	r3, [sp, #2]
 1245 004a 029B     		ldr	r3, [sp, #8]
 1246 004c E968     		ldr	r1, [r5, #12]
 1247 004e 0548     		ldr	r0, .L87
 1248 0050 00EBC400 		add	r0, r0, r4, lsl #3
 1249 0054 FFF7FEFF 		bl	QX_SendPacket_Srv_CurVal
 1250              	.LVL106:
 1251              	.L84:
 1252              	.LBE7:
 218:..\..\FreeflyAPI/QX_Protocol.c **** 		if ((RxMsg_p->Header.Target_Addr == QX_Servers[srv_i].Address) || (RxMsg_p->Header.Target_Addr ==
 1253              		.loc 1 218 0 discriminator 2
 1254 0058 0134     		adds	r4, r4, #1
ARM GAS  C:\Users\hamis\AppData\Local\Temp\ccsOK97v.s 			page 39


 1255              	.LVL107:
 1256              	.L82:
 218:..\..\FreeflyAPI/QX_Protocol.c **** 		if ((RxMsg_p->Header.Target_Addr == QX_Servers[srv_i].Address) || (RxMsg_p->Header.Target_Addr ==
 1257              		.loc 1 218 0 is_stmt 0 discriminator 1
 1258 005a 002C     		cmp	r4, #0
 1259 005c D5DD     		ble	.L85
 1260              	.LBE6:
 230:..\..\FreeflyAPI/QX_Protocol.c **** 
 1261              		.loc 1 230 0 is_stmt 1
 1262 005e 05B0     		add	sp, sp, #20
 1263              		.cfi_def_cfa_offset 12
 1264              		@ sp needed
 1265 0060 30BD     		pop	{r4, r5, pc}
 1266              	.LVL108:
 1267              	.L88:
 1268 0062 00BF     		.align	2
 1269              	.L87:
 1270 0064 00000000 		.word	QX_Servers
 1271              		.cfi_endproc
 1272              	.LFE2:
 1273              		.size	QX_Srv_Rx_Read, .-QX_Srv_Rx_Read
 1274              		.section	.text.QX_Srv_Rx_Write,"ax",%progbits
 1275              		.align	2
 1276              		.global	QX_Srv_Rx_Write
 1277              		.thumb
 1278              		.thumb_func
 1279              		.type	QX_Srv_Rx_Write, %function
 1280              	QX_Srv_Rx_Write:
 1281              	.LFB3:
 236:..\..\FreeflyAPI/QX_Protocol.c **** 	// Set parsing type
 1282              		.loc 1 236 0
 1283              		.cfi_startproc
 1284              		@ args = 0, pretend = 0, frame = 8
 1285              		@ frame_needed = 0, uses_anonymous_args = 0
 1286              	.LVL109:
 1287 0000 30B5     		push	{r4, r5, lr}
 1288              		.cfi_def_cfa_offset 12
 1289              		.cfi_offset 4, -12
 1290              		.cfi_offset 5, -8
 1291              		.cfi_offset 14, -4
 1292 0002 85B0     		sub	sp, sp, #20
 1293              		.cfi_def_cfa_offset 32
 1294 0004 0546     		mov	r5, r0
 238:..\..\FreeflyAPI/QX_Protocol.c **** 		RxMsg_p->Parse_Type = QX_PARSE_TYPE_WRITE_REL_RECV;
 1295              		.loc 1 238 0
 1296 0006 037C     		ldrb	r3, [r0, #16]	@ zero_extendqisi2
 1297 0008 032B     		cmp	r3, #3
 1298 000a 02D1     		bne	.L90
 239:..\..\FreeflyAPI/QX_Protocol.c **** 	} else if (RxMsg_p->Header.Type == QX_MSG_TYPE_WRITE_ABS){
 1299              		.loc 1 239 0
 1300 000c 0523     		movs	r3, #5
 1301 000e 0370     		strb	r3, [r0]
 1302 0010 03E0     		b	.L91
 1303              	.L90:
 240:..\..\FreeflyAPI/QX_Protocol.c **** 		RxMsg_p->Parse_Type = QX_PARSE_TYPE_WRITE_ABS_RECV;
 1304              		.loc 1 240 0
 1305 0012 022B     		cmp	r3, #2
ARM GAS  C:\Users\hamis\AppData\Local\Temp\ccsOK97v.s 			page 40


 1306 0014 01D1     		bne	.L91
 241:..\..\FreeflyAPI/QX_Protocol.c **** 	}
 1307              		.loc 1 241 0
 1308 0016 0323     		movs	r3, #3
 1309 0018 0370     		strb	r3, [r0]
 1310              	.L91:
 236:..\..\FreeflyAPI/QX_Protocol.c **** 	// Set parsing type
 1311              		.loc 1 236 0 discriminator 1
 1312 001a 0024     		movs	r4, #0
 1313 001c 2FE0     		b	.L92
 1314              	.LVL110:
 1315              	.L95:
 1316              	.LBB8:
 246:..\..\FreeflyAPI/QX_Protocol.c **** 			QX_Servers[srv_i].Parser_CB(RxMsg_p);	// Application callback
 1317              		.loc 1 246 0
 1318 001e 6B7E     		ldrb	r3, [r5, #25]	@ zero_extendqisi2
 1319 0020 194A     		ldr	r2, .L97
 1320 0022 12F83420 		ldrb	r2, [r2, r4, lsl #3]	@ zero_extendqisi2
 1321 0026 9342     		cmp	r3, r2
 1322 0028 00D0     		beq	.L93
 246:..\..\FreeflyAPI/QX_Protocol.c **** 			QX_Servers[srv_i].Parser_CB(RxMsg_p);	// Application callback
 1323              		.loc 1 246 0 is_stmt 0 discriminator 1
 1324 002a 3BBB     		cbnz	r3, .L94
 1325              	.L93:
 247:..\..\FreeflyAPI/QX_Protocol.c **** 		
 1326              		.loc 1 247 0 is_stmt 1
 1327 002c 164B     		ldr	r3, .L97
 1328 002e 03EBC403 		add	r3, r3, r4, lsl #3
 1329 0032 5B68     		ldr	r3, [r3, #4]
 1330 0034 2846     		mov	r0, r5
 1331 0036 9847     		blx	r3
 1332              	.LVL111:
 250:..\..\FreeflyAPI/QX_Protocol.c **** 				QX_TxMsgOptions_t options;
 1333              		.loc 1 250 0
 1334 0038 6B78     		ldrb	r3, [r5, #1]	@ zero_extendqisi2
 1335 003a FBB9     		cbnz	r3, .L94
 1336              	.LBB9:
 252:..\..\FreeflyAPI/QX_Protocol.c **** 				options.use_CRC32 = RxMsg_p->Header.AddCRC32;
 1337              		.loc 1 252 0
 1338 003c 02A8     		add	r0, sp, #8
 1339 003e FFF7FEFF 		bl	QX_InitTxOptions
 1340              	.LVL112:
 253:..\..\FreeflyAPI/QX_Protocol.c **** 				options.FF_Ext = RxMsg_p->Header.FF_Ext;
 1341              		.loc 1 253 0
 1342 0042 AB7C     		ldrb	r3, [r5, #18]	@ zero_extendqisi2
 1343 0044 8DF80930 		strb	r3, [sp, #9]
 254:..\..\FreeflyAPI/QX_Protocol.c **** 				options.Remove_Addr_Fields = RxMsg_p->Header.Remove_Addr_Fields;
 1344              		.loc 1 254 0
 1345 0048 EB7C     		ldrb	r3, [r5, #19]	@ zero_extendqisi2
 1346 004a 8DF80830 		strb	r3, [sp, #8]
 255:..\..\FreeflyAPI/QX_Protocol.c **** 				options.Remove_Req_Fields = 1;		// No need for request fields in a response.
 1347              		.loc 1 255 0
 1348 004e AB7D     		ldrb	r3, [r5, #22]	@ zero_extendqisi2
 1349 0050 8DF80A30 		strb	r3, [sp, #10]
 256:..\..\FreeflyAPI/QX_Protocol.c **** 				options.Target_Addr = RxMsg_p->Header.Source_Addr;		// Reverse target
 1350              		.loc 1 256 0
 1351 0054 0123     		movs	r3, #1
ARM GAS  C:\Users\hamis\AppData\Local\Temp\ccsOK97v.s 			page 41


 1352 0056 8DF80B30 		strb	r3, [sp, #11]
 257:..\..\FreeflyAPI/QX_Protocol.c **** 				QX_SendPacket_Srv_CurVal(&QX_Servers[srv_i], RxMsg_p->Header.Attrib, RxMsg_p->CommPort, options
 1353              		.loc 1 257 0
 1354 005a 2B7E     		ldrb	r3, [r5, #24]	@ zero_extendqisi2
 1355 005c 8DF80C30 		strb	r3, [sp, #12]
 258:..\..\FreeflyAPI/QX_Protocol.c **** 			}
 1356              		.loc 1 258 0
 1357 0060 AA79     		ldrb	r2, [r5, #6]	@ zero_extendqisi2
 1358 0062 039B     		ldr	r3, [sp, #12]
 1359 0064 ADF80030 		strh	r3, [sp]	@ movhi
 1360 0068 1B0C     		lsrs	r3, r3, #16
 1361 006a 8DF80230 		strb	r3, [sp, #2]
 1362 006e 029B     		ldr	r3, [sp, #8]
 1363 0070 E968     		ldr	r1, [r5, #12]
 1364 0072 0548     		ldr	r0, .L97
 1365 0074 00EBC400 		add	r0, r0, r4, lsl #3
 1366 0078 FFF7FEFF 		bl	QX_SendPacket_Srv_CurVal
 1367              	.LVL113:
 1368              	.L94:
 1369              	.LBE9:
 245:..\..\FreeflyAPI/QX_Protocol.c **** 		if ((RxMsg_p->Header.Target_Addr == QX_Servers[srv_i].Address) || (RxMsg_p->Header.Target_Addr ==
 1370              		.loc 1 245 0 discriminator 2
 1371 007c 0134     		adds	r4, r4, #1
 1372              	.LVL114:
 1373              	.L92:
 245:..\..\FreeflyAPI/QX_Protocol.c **** 		if ((RxMsg_p->Header.Target_Addr == QX_Servers[srv_i].Address) || (RxMsg_p->Header.Target_Addr ==
 1374              		.loc 1 245 0 is_stmt 0 discriminator 1
 1375 007e 002C     		cmp	r4, #0
 1376 0080 CDDD     		ble	.L95
 1377              	.LBE8:
 262:..\..\FreeflyAPI/QX_Protocol.c **** 
 1378              		.loc 1 262 0 is_stmt 1
 1379 0082 05B0     		add	sp, sp, #20
 1380              		.cfi_def_cfa_offset 12
 1381              		@ sp needed
 1382 0084 30BD     		pop	{r4, r5, pc}
 1383              	.LVL115:
 1384              	.L98:
 1385 0086 00BF     		.align	2
 1386              	.L97:
 1387 0088 00000000 		.word	QX_Servers
 1388              		.cfi_endproc
 1389              	.LFE3:
 1390              		.size	QX_Srv_Rx_Write, .-QX_Srv_Rx_Write
 1391              		.section	.text.QX_RxMsg,"ax",%progbits
 1392              		.align	2
 1393              		.global	QX_RxMsg
 1394              		.thumb
 1395              		.thumb_func
 1396              		.type	QX_RxMsg, %function
 1397              	QX_RxMsg:
 1398              	.LFB1:
 148:..\..\FreeflyAPI/QX_Protocol.c **** 	RxMsg_p->MsgBuf_p = &RxMsg_p->MsgBuf[0];
 1399              		.loc 1 148 0
 1400              		.cfi_startproc
 1401              		@ args = 0, pretend = 0, frame = 8
 1402              		@ frame_needed = 0, uses_anonymous_args = 0
ARM GAS  C:\Users\hamis\AppData\Local\Temp\ccsOK97v.s 			page 42


 1403              	.LVL116:
 1404 0000 70B5     		push	{r4, r5, r6, lr}
 1405              		.cfi_def_cfa_offset 16
 1406              		.cfi_offset 4, -16
 1407              		.cfi_offset 5, -12
 1408              		.cfi_offset 6, -8
 1409              		.cfi_offset 14, -4
 1410 0002 82B0     		sub	sp, sp, #8
 1411              		.cfi_def_cfa_offset 24
 1412 0004 0446     		mov	r4, r0
 149:..\..\FreeflyAPI/QX_Protocol.c **** 	RxMsg_p->MsgBufStart_p = &RxMsg_p->MsgBuf[0];
 1413              		.loc 1 149 0
 1414 0006 00F11C05 		add	r5, r0, #28
 1415 000a 0567     		str	r5, [r0, #112]
 150:..\..\FreeflyAPI/QX_Protocol.c **** 	RxMsg_p->AttNotHandled = 0;		// Assume it will be handled to start - let the parser set this flag 
 1416              		.loc 1 150 0
 1417 000c 4566     		str	r5, [r0, #100]
 151:..\..\FreeflyAPI/QX_Protocol.c **** 	
 1418              		.loc 1 151 0
 1419 000e 0023     		movs	r3, #0
 1420 0010 0371     		strb	r3, [r0, #4]
 159:..\..\FreeflyAPI/QX_Protocol.c **** 		if (*QX_ParseHeader_Legacy != NULL){
 1421              		.loc 1 159 0
 1422 0012 4379     		ldrb	r3, [r0, #5]	@ zero_extendqisi2
 1423 0014 2BB1     		cbz	r3, .L100
 160:..\..\FreeflyAPI/QX_Protocol.c **** 			QX_ParseHeader_Legacy(RxMsg_p);
 1424              		.loc 1 160 0
 1425 0016 1F4B     		ldr	r3, .L112
 1426 0018 5B68     		ldr	r3, [r3, #4]
 1427 001a 002B     		cmp	r3, #0
 1428 001c 34D0     		beq	.L109
 161:..\..\FreeflyAPI/QX_Protocol.c **** 		} else {
 1429              		.loc 1 161 0
 1430 001e 9847     		blx	r3
 1431              	.LVL117:
 1432 0020 01E0     		b	.L102
 1433              	.LVL118:
 1434              	.L100:
 166:..\..\FreeflyAPI/QX_Protocol.c **** 	}
 1435              		.loc 1 166 0
 1436 0022 FFF7FEFF 		bl	QX_ParseHeader
 1437              	.LVL119:
 1438              	.L102:
 169:..\..\FreeflyAPI/QX_Protocol.c **** 	
 1439              		.loc 1 169 0
 1440 0026 236F     		ldr	r3, [r4, #112]
 1441 0028 E366     		str	r3, [r4, #108]
 172:..\..\FreeflyAPI/QX_Protocol.c **** 		uint32_t crc32_result = QX_accumulate_crc32(0xFFFFFFFF, RxMsg_p->MsgBuf, RxMsg_p->MsgBuf_MsgLen -
 1442              		.loc 1 172 0
 1443 002a A37C     		ldrb	r3, [r4, #18]	@ zero_extendqisi2
 1444 002c 9BB1     		cbz	r3, .L103
 1445              	.LBB10:
 173:..\..\FreeflyAPI/QX_Protocol.c **** 		uint32_t crc32_msg = 0;
 1446              		.loc 1 173 0
 1447 002e B4F86260 		ldrh	r6, [r4, #98]
 1448 0032 721F     		subs	r2, r6, #5
 1449 0034 2946     		mov	r1, r5
ARM GAS  C:\Users\hamis\AppData\Local\Temp\ccsOK97v.s 			page 43


 1450 0036 4FF0FF30 		mov	r0, #-1
 1451 003a FFF7FEFF 		bl	QX_accumulate_crc32
 1452              	.LVL120:
 1453 003e 0246     		mov	r2, r0
 1454              	.LVL121:
 174:..\..\FreeflyAPI/QX_Protocol.c **** 		memcpy(&crc32_msg, &RxMsg_p->MsgBuf[RxMsg_p->MsgBuf_MsgLen - 5], sizeof(crc32_msg));
 1455              		.loc 1 174 0
 1456 0040 0023     		movs	r3, #0
 1457 0042 0193     		str	r3, [sp, #4]
 175:..\..\FreeflyAPI/QX_Protocol.c **** 		if (crc32_result != crc32_msg)
 1458              		.loc 1 175 0
 1459 0044 1336     		adds	r6, r6, #19
 1460 0046 2644     		add	r6, r6, r4
 1461 0048 7068     		ldr	r0, [r6, #4]	@ unaligned
 1462              	.LVL122:
 1463 004a 0190     		str	r0, [sp, #4]	@ unaligned
 176:..\..\FreeflyAPI/QX_Protocol.c **** 			return QX_STAT_ERROR_RXMSG_CRC32_FAIL;
 1464              		.loc 1 176 0
 1465 004c 019B     		ldr	r3, [sp, #4]
 1466 004e 9A42     		cmp	r2, r3
 1467 0050 01D0     		beq	.L103
 177:..\..\FreeflyAPI/QX_Protocol.c **** 	}
 1468              		.loc 1 177 0
 1469 0052 0720     		movs	r0, #7
 1470 0054 1BE0     		b	.L101
 1471              	.LVL123:
 1472              	.L103:
 1473              	.LBE10:
 181:..\..\FreeflyAPI/QX_Protocol.c **** 	
 1474              		.loc 1 181 0
 1475 0056 2046     		mov	r0, r4
 1476 0058 FFF7FEFF 		bl	QX_FwdMsg_CB
 1477              	.LVL124:
 189:..\..\FreeflyAPI/QX_Protocol.c **** 		
 1478              		.loc 1 189 0
 1479 005c 237C     		ldrb	r3, [r4, #16]	@ zero_extendqisi2
 1480 005e 032B     		cmp	r3, #3
 1481 0060 14D8     		bhi	.L110
 1482 0062 DFE803F0 		tbb	[pc, r3]
 1483              	.L106:
 1484 0066 0C       		.byte	(.L105-.L106)/2
 1485 0067 02       		.byte	(.L107-.L106)/2
 1486 0068 07       		.byte	(.L108-.L106)/2
 1487 0069 07       		.byte	(.L108-.L106)/2
 1488              		.p2align 1
 1489              	.L107:
 192:..\..\FreeflyAPI/QX_Protocol.c **** 			break;
 1490              		.loc 1 192 0
 1491 006a 2046     		mov	r0, r4
 1492 006c FFF7FEFF 		bl	QX_Srv_Rx_Read
 1493              	.LVL125:
 208:..\..\FreeflyAPI/QX_Protocol.c **** }
 1494              		.loc 1 208 0
 1495 0070 0020     		movs	r0, #0
 193:..\..\FreeflyAPI/QX_Protocol.c **** 		
 1496              		.loc 1 193 0
 1497 0072 0CE0     		b	.L101
ARM GAS  C:\Users\hamis\AppData\Local\Temp\ccsOK97v.s 			page 44


 1498              	.L108:
 197:..\..\FreeflyAPI/QX_Protocol.c **** 			break;
 1499              		.loc 1 197 0
 1500 0074 2046     		mov	r0, r4
 1501 0076 FFF7FEFF 		bl	QX_Srv_Rx_Write
 1502              	.LVL126:
 208:..\..\FreeflyAPI/QX_Protocol.c **** }
 1503              		.loc 1 208 0
 1504 007a 0020     		movs	r0, #0
 198:..\..\FreeflyAPI/QX_Protocol.c **** 		
 1505              		.loc 1 198 0
 1506 007c 07E0     		b	.L101
 1507              	.L105:
 201:..\..\FreeflyAPI/QX_Protocol.c **** 			break;
 1508              		.loc 1 201 0
 1509 007e 2046     		mov	r0, r4
 1510 0080 FFF7FEFF 		bl	QX_Cli_Rx_CurVal
 1511              	.LVL127:
 208:..\..\FreeflyAPI/QX_Protocol.c **** }
 1512              		.loc 1 208 0
 1513 0084 0020     		movs	r0, #0
 202:..\..\FreeflyAPI/QX_Protocol.c **** 		
 1514              		.loc 1 202 0
 1515 0086 02E0     		b	.L101
 1516              	.LVL128:
 1517              	.L109:
 163:..\..\FreeflyAPI/QX_Protocol.c **** 		}
 1518              		.loc 1 163 0
 1519 0088 0120     		movs	r0, #1
 1520              	.LVL129:
 1521 008a 00E0     		b	.L101
 1522              	.L110:
 205:..\..\FreeflyAPI/QX_Protocol.c **** 	}
 1523              		.loc 1 205 0
 1524 008c 0220     		movs	r0, #2
 1525              	.L101:
 209:..\..\FreeflyAPI/QX_Protocol.c **** 
 1526              		.loc 1 209 0
 1527 008e 02B0     		add	sp, sp, #8
 1528              		.cfi_def_cfa_offset 16
 1529              		@ sp needed
 1530 0090 70BD     		pop	{r4, r5, r6, pc}
 1531              	.LVL130:
 1532              	.L113:
 1533 0092 00BF     		.align	2
 1534              	.L112:
 1535 0094 00000000 		.word	.LANCHOR0
 1536              		.cfi_endproc
 1537              	.LFE1:
 1538              		.size	QX_RxMsg, .-QX_RxMsg
 1539              		.section	.text.QX_StreamRxCharSM,"ax",%progbits
 1540              		.align	2
 1541              		.global	QX_StreamRxCharSM
 1542              		.thumb
 1543              		.thumb_func
 1544              		.type	QX_StreamRxCharSM, %function
 1545              	QX_StreamRxCharSM:
ARM GAS  C:\Users\hamis\AppData\Local\Temp\ccsOK97v.s 			page 45


 1546              	.LFB17:
 603:..\..\FreeflyAPI/QX_Protocol.c **** 	uint8_t chksum;
 1547              		.loc 1 603 0
 1548              		.cfi_startproc
 1549              		@ args = 0, pretend = 0, frame = 0
 1550              		@ frame_needed = 0, uses_anonymous_args = 0
 1551              	.LVL131:
 1552 0000 70B5     		push	{r4, r5, r6, lr}
 1553              		.cfi_def_cfa_offset 16
 1554              		.cfi_offset 4, -16
 1555              		.cfi_offset 5, -12
 1556              		.cfi_offset 6, -8
 1557              		.cfi_offset 14, -4
 606:..\..\FreeflyAPI/QX_Protocol.c **** 	{
 1558              		.loc 1 606 0
 1559 0002 8C23     		movs	r3, #140
 1560 0004 03FB00F3 		mul	r3, r3, r0
 1561 0008 A34A     		ldr	r2, .L138
 1562 000a D35C     		ldrb	r3, [r2, r3]	@ zero_extendqisi2
 1563 000c 072B     		cmp	r3, #7
 1564 000e 00F23881 		bhi	.L132
 1565 0012 DFE813F0 		tbh	[pc, r3, lsl #1]
 1566              	.L117:
 1567 0016 0800     		.2byte	(.L116-.L117)/2
 1568 0018 2600     		.2byte	(.L118-.L117)/2
 1569 001a 5100     		.2byte	(.L119-.L117)/2
 1570 001c 8200     		.2byte	(.L120-.L117)/2
 1571 001e B600     		.2byte	(.L121-.L117)/2
 1572 0020 C800     		.2byte	(.L122-.L117)/2
 1573 0022 E300     		.2byte	(.L123-.L117)/2
 1574 0024 0401     		.2byte	(.L124-.L117)/2
 1575              		.p2align 1
 1576              	.L116:
 609:..\..\FreeflyAPI/QX_Protocol.c **** 				{
 1577              		.loc 1 609 0
 1578 0026 5129     		cmp	r1, #81
 1579 0028 10D1     		bne	.L125
 611:..\..\FreeflyAPI/QX_Protocol.c **** 					QX_CommsPorts[port].RxMsg.MsgBuf[0] = rxbyte;
 1580              		.loc 1 611 0
 1581 002a 9B4A     		ldr	r2, .L138
 1582 002c 8C23     		movs	r3, #140
 1583 002e 03FB00F0 		mul	r0, r3, r0
 1584              	.LVL132:
 1585 0032 1418     		adds	r4, r2, r0
 1586 0034 0125     		movs	r5, #1
 1587 0036 6580     		strh	r5, [r4, #2]	@ movhi
 612:..\..\FreeflyAPI/QX_Protocol.c **** 					QX_CommsPorts[port].RxMsg.MsgBuf_p = &QX_CommsPorts[port].RxMsg.MsgBuf[1];
 1588              		.loc 1 612 0
 1589 0038 84F82010 		strb	r1, [r4, #32]
 613:..\..\FreeflyAPI/QX_Protocol.c **** 					QX_CommsPorts[port].RxState = QX_RX_STATE_GET_PROTOCOL_VER;
 1590              		.loc 1 613 0
 1591 003c 00F11903 		add	r3, r0, #25
 1592 0040 1344     		add	r3, r3, r2
 1593 0042 0833     		adds	r3, r3, #8
 1594 0044 6367     		str	r3, [r4, #116]
 614:..\..\FreeflyAPI/QX_Protocol.c **** 				} else {
 1595              		.loc 1 614 0
ARM GAS  C:\Users\hamis\AppData\Local\Temp\ccsOK97v.s 			page 46


 1596 0046 1554     		strb	r5, [r2, r0]
 726:..\..\FreeflyAPI/QX_Protocol.c **** }
 1597              		.loc 1 726 0
 1598 0048 0020     		movs	r0, #0
 1599 004a 70BD     		pop	{r4, r5, r6, pc}
 1600              	.LVL133:
 1601              	.L125:
 616:..\..\FreeflyAPI/QX_Protocol.c **** 				}
 1602              		.loc 1 616 0
 1603 004c 8C23     		movs	r3, #140
 1604 004e 924A     		ldr	r2, .L138
 1605 0050 03FB0020 		mla	r0, r3, r0, r2
 1606              	.LVL134:
 1607 0054 D0F88430 		ldr	r3, [r0, #132]
 1608 0058 0133     		adds	r3, r3, #1
 1609 005a C0F88430 		str	r3, [r0, #132]
 726:..\..\FreeflyAPI/QX_Protocol.c **** }
 1610              		.loc 1 726 0
 1611 005e 0020     		movs	r0, #0
 1612 0060 70BD     		pop	{r4, r5, r6, pc}
 1613              	.LVL135:
 1614              	.L118:
 621:..\..\FreeflyAPI/QX_Protocol.c **** 				QX_CommsPorts[port].RxCntr++;
 1615              		.loc 1 621 0
 1616 0062 8C23     		movs	r3, #140
 1617 0064 8C4A     		ldr	r2, .L138
 1618 0066 03FB0023 		mla	r3, r3, r0, r2
 1619 006a 5A6F     		ldr	r2, [r3, #116]
 1620 006c 541C     		adds	r4, r2, #1
 1621 006e 5C67     		str	r4, [r3, #116]
 1622 0070 1170     		strb	r1, [r2]
 622:..\..\FreeflyAPI/QX_Protocol.c **** 				if(rxbyte == 'X'){
 1623              		.loc 1 622 0
 1624 0072 5A88     		ldrh	r2, [r3, #2]
 1625 0074 0132     		adds	r2, r2, #1
 1626 0076 5A80     		strh	r2, [r3, #2]	@ movhi
 623:..\..\FreeflyAPI/QX_Protocol.c **** 					QX_CommsPorts[port].RxMsg.Legacy_Header = 0;
 1627              		.loc 1 623 0
 1628 0078 5829     		cmp	r1, #88
 1629 007a 09D1     		bne	.L126
 624:..\..\FreeflyAPI/QX_Protocol.c **** 					QX_CommsPorts[port].RxState = QX_RX_STATE_GET_QX_LEN0;
 1630              		.loc 1 624 0
 1631 007c 864A     		ldr	r2, .L138
 1632 007e 8C23     		movs	r3, #140
 1633 0080 03FB00F3 		mul	r3, r3, r0
 1634 0084 D118     		adds	r1, r2, r3
 1635              	.LVL136:
 1636 0086 0020     		movs	r0, #0
 1637              	.LVL137:
 1638 0088 4872     		strb	r0, [r1, #9]
 625:..\..\FreeflyAPI/QX_Protocol.c **** 				}
 1639              		.loc 1 625 0
 1640 008a 0221     		movs	r1, #2
 1641 008c D154     		strb	r1, [r2, r3]
 1642 008e 70BD     		pop	{r4, r5, r6, pc}
 1643              	.LVL138:
 1644              	.L126:
ARM GAS  C:\Users\hamis\AppData\Local\Temp\ccsOK97v.s 			page 47


 627:..\..\FreeflyAPI/QX_Protocol.c **** 					QX_CommsPorts[port].RxMsg.Legacy_Header = 1;
 1645              		.loc 1 627 0
 1646 0090 4229     		cmp	r1, #66
 1647 0092 0AD1     		bne	.L127
 628:..\..\FreeflyAPI/QX_Protocol.c **** 					QX_CommsPorts[port].RxState = QX_RX_STATE_GET_QB_LEN0;
 1648              		.loc 1 628 0
 1649 0094 804A     		ldr	r2, .L138
 1650 0096 8C23     		movs	r3, #140
 1651 0098 03FB00F0 		mul	r0, r3, r0
 1652              	.LVL139:
 1653 009c 1318     		adds	r3, r2, r0
 1654 009e 0121     		movs	r1, #1
 1655              	.LVL140:
 1656 00a0 5972     		strb	r1, [r3, #9]
 629:..\..\FreeflyAPI/QX_Protocol.c **** 				}
 1657              		.loc 1 629 0
 1658 00a2 0423     		movs	r3, #4
 1659 00a4 1354     		strb	r3, [r2, r0]
 726:..\..\FreeflyAPI/QX_Protocol.c **** }
 1660              		.loc 1 726 0
 1661 00a6 0020     		movs	r0, #0
 1662 00a8 70BD     		pop	{r4, r5, r6, pc}
 1663              	.LVL141:
 1664              	.L127:
 632:..\..\FreeflyAPI/QX_Protocol.c **** 				}
 1665              		.loc 1 632 0
 1666 00aa 8C23     		movs	r3, #140
 1667 00ac 03FB00F3 		mul	r3, r3, r0
 1668 00b0 0020     		movs	r0, #0
 1669              	.LVL142:
 1670 00b2 794A     		ldr	r2, .L138
 1671 00b4 D054     		strb	r0, [r2, r3]
 1672 00b6 70BD     		pop	{r4, r5, r6, pc}
 1673              	.LVL143:
 1674              	.L119:
 637:..\..\FreeflyAPI/QX_Protocol.c **** 				QX_CommsPorts[port].RxCntr++;
 1675              		.loc 1 637 0
 1676 00b8 8C23     		movs	r3, #140
 1677 00ba 774A     		ldr	r2, .L138
 1678 00bc 03FB0023 		mla	r3, r3, r0, r2
 1679 00c0 5A6F     		ldr	r2, [r3, #116]
 1680 00c2 541C     		adds	r4, r2, #1
 1681 00c4 5C67     		str	r4, [r3, #116]
 1682 00c6 1170     		strb	r1, [r2]
 638:..\..\FreeflyAPI/QX_Protocol.c **** 		
 1683              		.loc 1 638 0
 1684 00c8 5A88     		ldrh	r2, [r3, #2]
 1685 00ca 0132     		adds	r2, r2, #1
 1686 00cc 5A80     		strh	r2, [r3, #2]	@ movhi
 640:..\..\FreeflyAPI/QX_Protocol.c **** 				QX_CommsPorts[port].RxMsg.Header.MsgLength = (uint16_t)(rxbyte & ~0x80);
 1687              		.loc 1 640 0
 1688 00ce 11F0800F 		tst	r1, #128
 1689 00d2 0BD0     		beq	.L128
 641:..\..\FreeflyAPI/QX_Protocol.c **** 				QX_CommsPorts[port].RxState = QX_RX_STATE_GET_QX_LEN1;
 1690              		.loc 1 641 0
 1691 00d4 01F07F01 		and	r1, r1, #127
 1692              	.LVL144:
ARM GAS  C:\Users\hamis\AppData\Local\Temp\ccsOK97v.s 			page 48


 1693 00d8 6F4A     		ldr	r2, .L138
 1694 00da 8C23     		movs	r3, #140
 1695 00dc 03FB00F0 		mul	r0, r3, r0
 1696              	.LVL145:
 1697 00e0 1318     		adds	r3, r2, r0
 1698 00e2 9981     		strh	r1, [r3, #12]	@ movhi
 642:..\..\FreeflyAPI/QX_Protocol.c **** 			} else {
 1699              		.loc 1 642 0
 1700 00e4 0323     		movs	r3, #3
 1701 00e6 1354     		strb	r3, [r2, r0]
 726:..\..\FreeflyAPI/QX_Protocol.c **** }
 1702              		.loc 1 726 0
 1703 00e8 0020     		movs	r0, #0
 1704 00ea 70BD     		pop	{r4, r5, r6, pc}
 1705              	.LVL146:
 1706              	.L128:
 644:..\..\FreeflyAPI/QX_Protocol.c **** 				QX_CommsPorts[port].RxMsg.MsgBufAtt_p = QX_CommsPorts[port].RxMsg.MsgBuf_p;
 1707              		.loc 1 644 0
 1708 00ec 89B2     		uxth	r1, r1
 1709              	.LVL147:
 1710 00ee 6A4C     		ldr	r4, .L138
 1711 00f0 8C23     		movs	r3, #140
 1712 00f2 03FB00F3 		mul	r3, r3, r0
 1713 00f6 E218     		adds	r2, r4, r3
 1714 00f8 9181     		strh	r1, [r2, #12]	@ movhi
 645:..\..\FreeflyAPI/QX_Protocol.c **** 				QX_CommsPorts[port].RxMsg.RunningChecksum = 0;
 1715              		.loc 1 645 0
 1716 00fa 556F     		ldr	r5, [r2, #116]
 1717 00fc D566     		str	r5, [r2, #108]
 646:..\..\FreeflyAPI/QX_Protocol.c **** 				QX_CommsPorts[port].RxState = QX_RX_STATE_GET_DATA;
 1718              		.loc 1 646 0
 1719 00fe 0025     		movs	r5, #0
 1720 0100 9571     		strb	r5, [r2, #6]
 647:..\..\FreeflyAPI/QX_Protocol.c **** 				
 1721              		.loc 1 647 0
 1722 0102 0622     		movs	r2, #6
 1723 0104 E254     		strb	r2, [r4, r3]
 649:..\..\FreeflyAPI/QX_Protocol.c **** 				{
 1724              		.loc 1 649 0
 1725 0106 4029     		cmp	r1, #64
 1726 0108 40F2BD80 		bls	.L133
 651:..\..\FreeflyAPI/QX_Protocol.c **** 				}
 1727              		.loc 1 651 0
 1728 010c 8C23     		movs	r3, #140
 1729 010e 03FB00F3 		mul	r3, r3, r0
 1730 0112 2846     		mov	r0, r5
 1731              	.LVL148:
 1732 0114 2246     		mov	r2, r4
 1733 0116 D554     		strb	r5, [r2, r3]
 1734 0118 70BD     		pop	{r4, r5, r6, pc}
 1735              	.LVL149:
 1736              	.L120:
 658:..\..\FreeflyAPI/QX_Protocol.c **** 			QX_CommsPorts[port].RxCntr++;
 1737              		.loc 1 658 0
 1738 011a 8C23     		movs	r3, #140
 1739 011c 5E4A     		ldr	r2, .L138
 1740 011e 03FB0023 		mla	r3, r3, r0, r2
ARM GAS  C:\Users\hamis\AppData\Local\Temp\ccsOK97v.s 			page 49


 1741 0122 5A6F     		ldr	r2, [r3, #116]
 1742 0124 541C     		adds	r4, r2, #1
 1743 0126 5C67     		str	r4, [r3, #116]
 1744 0128 1170     		strb	r1, [r2]
 659:..\..\FreeflyAPI/QX_Protocol.c **** 			QX_CommsPorts[port].RxMsg.MsgBufAtt_p = QX_CommsPorts[port].RxMsg.MsgBuf_p;
 1745              		.loc 1 659 0
 1746 012a 5A88     		ldrh	r2, [r3, #2]
 1747 012c 0132     		adds	r2, r2, #1
 1748 012e 5A80     		strh	r2, [r3, #2]	@ movhi
 660:..\..\FreeflyAPI/QX_Protocol.c **** 			
 1749              		.loc 1 660 0
 1750 0130 5A6F     		ldr	r2, [r3, #116]
 1751 0132 DA66     		str	r2, [r3, #108]
 662:..\..\FreeflyAPI/QX_Protocol.c **** 				QX_CommsPorts[port].RxState = QX_RX_STATE_START_WAIT;	// Should not reach here, 21 bit length n
 1752              		.loc 1 662 0
 1753 0134 11F0800F 		tst	r1, #128
 1754 0138 06D0     		beq	.L129
 663:..\..\FreeflyAPI/QX_Protocol.c **** 			} else {
 1755              		.loc 1 663 0
 1756 013a 8C23     		movs	r3, #140
 1757 013c 03FB00F3 		mul	r3, r3, r0
 1758 0140 0021     		movs	r1, #0
 1759              	.LVL150:
 1760 0142 554A     		ldr	r2, .L138
 1761 0144 D154     		strb	r1, [r2, r3]
 1762 0146 0EE0     		b	.L130
 1763              	.LVL151:
 1764              	.L129:
 665:..\..\FreeflyAPI/QX_Protocol.c **** 				QX_CommsPorts[port].RxMsg.RunningChecksum = 0;
 1765              		.loc 1 665 0
 1766 0148 C901     		lsls	r1, r1, #7
 1767              	.LVL152:
 1768 014a 534D     		ldr	r5, .L138
 1769 014c 8C23     		movs	r3, #140
 1770 014e 03FB00F3 		mul	r3, r3, r0
 1771 0152 EA18     		adds	r2, r5, r3
 1772 0154 01F47E51 		and	r1, r1, #16256
 1773 0158 9489     		ldrh	r4, [r2, #12]
 1774 015a 2143     		orrs	r1, r1, r4
 1775 015c 9181     		strh	r1, [r2, #12]	@ movhi
 666:..\..\FreeflyAPI/QX_Protocol.c **** 				QX_CommsPorts[port].RxState = QX_RX_STATE_GET_DATA;
 1776              		.loc 1 666 0
 1777 015e 0021     		movs	r1, #0
 1778 0160 9171     		strb	r1, [r2, #6]
 667:..\..\FreeflyAPI/QX_Protocol.c **** 			}
 1779              		.loc 1 667 0
 1780 0162 0622     		movs	r2, #6
 1781 0164 EA54     		strb	r2, [r5, r3]
 1782              	.L130:
 670:..\..\FreeflyAPI/QX_Protocol.c **** 			{
 1783              		.loc 1 670 0
 1784 0166 8C23     		movs	r3, #140
 1785 0168 4B4A     		ldr	r2, .L138
 1786 016a 03FB0023 		mla	r3, r3, r0, r2
 1787 016e 9B89     		ldrh	r3, [r3, #12]
 1788 0170 402B     		cmp	r3, #64
 1789 0172 40F28A80 		bls	.L134
ARM GAS  C:\Users\hamis\AppData\Local\Temp\ccsOK97v.s 			page 50


 672:..\..\FreeflyAPI/QX_Protocol.c **** 			}
 1790              		.loc 1 672 0
 1791 0176 8C23     		movs	r3, #140
 1792 0178 03FB00F3 		mul	r3, r3, r0
 1793 017c 0020     		movs	r0, #0
 1794              	.LVL153:
 1795 017e D054     		strb	r0, [r2, r3]
 1796 0180 70BD     		pop	{r4, r5, r6, pc}
 1797              	.LVL154:
 1798              	.L121:
 678:..\..\FreeflyAPI/QX_Protocol.c **** 				QX_CommsPorts[port].RxCntr++;
 1799              		.loc 1 678 0
 1800 0182 454C     		ldr	r4, .L138
 1801 0184 8C23     		movs	r3, #140
 1802 0186 03FB00F0 		mul	r0, r3, r0
 1803              	.LVL155:
 1804 018a 2318     		adds	r3, r4, r0
 1805 018c 5A6F     		ldr	r2, [r3, #116]
 1806 018e 551C     		adds	r5, r2, #1
 1807 0190 5D67     		str	r5, [r3, #116]
 1808 0192 1170     		strb	r1, [r2]
 679:..\..\FreeflyAPI/QX_Protocol.c **** 				QX_CommsPorts[port].RxMsg.Header.MsgLength = (uint16_t)rxbyte << 8;
 1809              		.loc 1 679 0
 1810 0194 5A88     		ldrh	r2, [r3, #2]
 1811 0196 0132     		adds	r2, r2, #1
 1812 0198 5A80     		strh	r2, [r3, #2]	@ movhi
 680:..\..\FreeflyAPI/QX_Protocol.c **** 				QX_CommsPorts[port].RxState = QX_RX_STATE_GET_QB_LEN1;
 1813              		.loc 1 680 0
 1814 019a 0902     		lsls	r1, r1, #8
 1815              	.LVL156:
 1816 019c 9981     		strh	r1, [r3, #12]	@ movhi
 681:..\..\FreeflyAPI/QX_Protocol.c **** 				break;
 1817              		.loc 1 681 0
 1818 019e 0523     		movs	r3, #5
 1819 01a0 2354     		strb	r3, [r4, r0]
 726:..\..\FreeflyAPI/QX_Protocol.c **** }
 1820              		.loc 1 726 0
 1821 01a2 0020     		movs	r0, #0
 682:..\..\FreeflyAPI/QX_Protocol.c **** 				
 1822              		.loc 1 682 0
 1823 01a4 70BD     		pop	{r4, r5, r6, pc}
 1824              	.LVL157:
 1825              	.L122:
 685:..\..\FreeflyAPI/QX_Protocol.c **** 				QX_CommsPorts[port].RxCntr++;
 1826              		.loc 1 685 0
 1827 01a6 3C4D     		ldr	r5, .L138
 1828 01a8 8C24     		movs	r4, #140
 1829 01aa 04FB00F4 		mul	r4, r4, r0
 1830 01ae 2B19     		adds	r3, r5, r4
 1831 01b0 5A6F     		ldr	r2, [r3, #116]
 1832 01b2 561C     		adds	r6, r2, #1
 1833 01b4 5E67     		str	r6, [r3, #116]
 1834 01b6 1170     		strb	r1, [r2]
 686:..\..\FreeflyAPI/QX_Protocol.c **** 				QX_CommsPorts[port].RxMsg.MsgBufAtt_p = QX_CommsPorts[port].RxMsg.MsgBuf_p;
 1835              		.loc 1 686 0
 1836 01b8 5A88     		ldrh	r2, [r3, #2]
 1837 01ba 0132     		adds	r2, r2, #1
ARM GAS  C:\Users\hamis\AppData\Local\Temp\ccsOK97v.s 			page 51


 1838 01bc 5A80     		strh	r2, [r3, #2]	@ movhi
 687:..\..\FreeflyAPI/QX_Protocol.c **** 				QX_CommsPorts[port].RxMsg.Header.MsgLength |= (uint16_t)rxbyte;
 1839              		.loc 1 687 0
 1840 01be 5A6F     		ldr	r2, [r3, #116]
 1841 01c0 DA66     		str	r2, [r3, #108]
 688:..\..\FreeflyAPI/QX_Protocol.c **** 				QX_CommsPorts[port].RxMsg.RunningChecksum = 0;
 1842              		.loc 1 688 0
 1843 01c2 9A89     		ldrh	r2, [r3, #12]
 1844 01c4 1143     		orrs	r1, r1, r2
 1845              	.LVL158:
 1846 01c6 9981     		strh	r1, [r3, #12]	@ movhi
 689:..\..\FreeflyAPI/QX_Protocol.c **** 				QX_CommsPorts[port].RxState = QX_RX_STATE_GET_DATA;
 1847              		.loc 1 689 0
 1848 01c8 0022     		movs	r2, #0
 1849 01ca 9A71     		strb	r2, [r3, #6]
 690:..\..\FreeflyAPI/QX_Protocol.c **** 				if(QX_MAX_PAYLOAD_LEN < QX_CommsPorts[port].RxMsg.Header.MsgLength)
 1850              		.loc 1 690 0
 1851 01cc 0623     		movs	r3, #6
 1852 01ce 2B55     		strb	r3, [r5, r4]
 691:..\..\FreeflyAPI/QX_Protocol.c **** 				{
 1853              		.loc 1 691 0
 1854 01d0 89B2     		uxth	r1, r1
 1855 01d2 4029     		cmp	r1, #64
 1856 01d4 5BD9     		bls	.L135
 693:..\..\FreeflyAPI/QX_Protocol.c **** 				}
 1857              		.loc 1 693 0
 1858 01d6 1046     		mov	r0, r2
 1859              	.LVL159:
 1860 01d8 2855     		strb	r0, [r5, r4]
 1861 01da 70BD     		pop	{r4, r5, r6, pc}
 1862              	.LVL160:
 1863              	.L123:
 698:..\..\FreeflyAPI/QX_Protocol.c **** 				QX_CommsPorts[port].RxCntr++;
 1864              		.loc 1 698 0
 1865 01dc 2E4C     		ldr	r4, .L138
 1866 01de 8C25     		movs	r5, #140
 1867 01e0 05FB00F5 		mul	r5, r5, r0
 1868 01e4 6219     		adds	r2, r4, r5
 1869 01e6 536F     		ldr	r3, [r2, #116]
 1870 01e8 5E1C     		adds	r6, r3, #1
 1871 01ea 5667     		str	r6, [r2, #116]
 1872 01ec 1970     		strb	r1, [r3]
 699:..\..\FreeflyAPI/QX_Protocol.c **** 				QX_CommsPorts[port].RxMsg.RunningChecksum += rxbyte;
 1873              		.loc 1 699 0
 1874 01ee 5388     		ldrh	r3, [r2, #2]
 1875 01f0 0133     		adds	r3, r3, #1
 1876 01f2 5380     		strh	r3, [r2, #2]	@ movhi
 700:..\..\FreeflyAPI/QX_Protocol.c **** 				if(QX_CommsPorts[port].RxMsg.Header.MsgLength <= QX_CommsPorts[port].RxCntr - (QX_CommsPorts[po
 1877              		.loc 1 700 0
 1878 01f4 9679     		ldrb	r6, [r2, #6]	@ zero_extendqisi2
 1879 01f6 3144     		add	r1, r1, r6
 1880              	.LVL161:
 1881 01f8 9171     		strb	r1, [r2, #6]
 701:..\..\FreeflyAPI/QX_Protocol.c **** 				{
 1882              		.loc 1 701 0
 1883 01fa 9189     		ldrh	r1, [r2, #12]
 1884 01fc 9BB2     		uxth	r3, r3
ARM GAS  C:\Users\hamis\AppData\Local\Temp\ccsOK97v.s 			page 52


 1885 01fe D26E     		ldr	r2, [r2, #108]
 1886 0200 1835     		adds	r5, r5, #24
 1887 0202 2C44     		add	r4, r4, r5
 1888 0204 0834     		adds	r4, r4, #8
 1889 0206 141B     		subs	r4, r2, r4
 1890 0208 1B1B     		subs	r3, r3, r4
 1891 020a 9942     		cmp	r1, r3
 1892 020c 41DC     		bgt	.L136
 703:..\..\FreeflyAPI/QX_Protocol.c **** 				}
 1893              		.loc 1 703 0
 1894 020e 8C23     		movs	r3, #140
 1895 0210 03FB00F0 		mul	r0, r3, r0
 1896              	.LVL162:
 1897 0214 0722     		movs	r2, #7
 1898 0216 204B     		ldr	r3, .L138
 1899 0218 1A54     		strb	r2, [r3, r0]
 726:..\..\FreeflyAPI/QX_Protocol.c **** }
 1900              		.loc 1 726 0
 1901 021a 0020     		movs	r0, #0
 1902 021c 70BD     		pop	{r4, r5, r6, pc}
 1903              	.LVL163:
 1904              	.L124:
 708:..\..\FreeflyAPI/QX_Protocol.c **** 				QX_CommsPorts[port].RxCntr++;
 1905              		.loc 1 708 0
 1906 021e 1E4D     		ldr	r5, .L138
 1907 0220 8C22     		movs	r2, #140
 1908 0222 02FB00F2 		mul	r2, r2, r0
 1909 0226 AB18     		adds	r3, r5, r2
 1910 0228 5C6F     		ldr	r4, [r3, #116]
 1911 022a 661C     		adds	r6, r4, #1
 1912 022c 5E67     		str	r6, [r3, #116]
 1913 022e 2170     		strb	r1, [r4]
 709:..\..\FreeflyAPI/QX_Protocol.c **** 				chksum = rxbyte;
 1914              		.loc 1 709 0
 1915 0230 5C88     		ldrh	r4, [r3, #2]
 1916 0232 0134     		adds	r4, r4, #1
 1917 0234 5C80     		strh	r4, [r3, #2]	@ movhi
 1918              	.LVL164:
 711:..\..\FreeflyAPI/QX_Protocol.c **** 				QX_CommsPorts[port].RxMsg.CommPort = port;
 1919              		.loc 1 711 0
 1920 0236 0024     		movs	r4, #0
 1921 0238 AC54     		strb	r4, [r5, r2]
 712:..\..\FreeflyAPI/QX_Protocol.c **** 				if((chksum + QX_CommsPorts[port].RxMsg.RunningChecksum) == 0xFF)		// Is checksum ok?
 1922              		.loc 1 712 0
 1923 023a 9872     		strb	r0, [r3, #10]
 713:..\..\FreeflyAPI/QX_Protocol.c **** 				{
 1924              		.loc 1 713 0
 1925 023c 9B79     		ldrb	r3, [r3, #6]	@ zero_extendqisi2
 1926 023e 1944     		add	r1, r1, r3
 1927              	.LVL165:
 1928 0240 FF29     		cmp	r1, #255
 1929 0242 13D1     		bne	.L131
 715:..\..\FreeflyAPI/QX_Protocol.c **** 					QX_CommsPorts[port].last_rx_msg_time = QX_GetTicks_ms();
 1930              		.loc 1 715 0
 1931 0244 8C25     		movs	r5, #140
 1932 0246 144B     		ldr	r3, .L138
 1933 0248 05FB0035 		mla	r5, r5, r0, r3
ARM GAS  C:\Users\hamis\AppData\Local\Temp\ccsOK97v.s 			page 53


 1934 024c AC67     		str	r4, [r5, #120]
 716:..\..\FreeflyAPI/QX_Protocol.c **** 					QX_CommsPorts[port].Connected = 1;
 1935              		.loc 1 716 0
 1936 024e FFF7FEFF 		bl	QX_GetTicks_ms
 1937              	.LVL166:
 1938 0252 C5F88800 		str	r0, [r5, #136]
 717:..\..\FreeflyAPI/QX_Protocol.c **** 					QX_CommsPorts[port].RxMsg.MsgBuf_MsgLen = QX_CommsPorts[port].RxCntr;
 1939              		.loc 1 717 0
 1940 0256 0124     		movs	r4, #1
 1941 0258 85F87C40 		strb	r4, [r5, #124]
 718:..\..\FreeflyAPI/QX_Protocol.c **** 					QX_RxMsg(&QX_CommsPorts[port].RxMsg);	// Receive the Message
 1942              		.loc 1 718 0
 1943 025c 6B88     		ldrh	r3, [r5, #2]
 1944 025e A5F86630 		strh	r3, [r5, #102]	@ movhi
 719:..\..\FreeflyAPI/QX_Protocol.c **** 					return 1;
 1945              		.loc 1 719 0
 1946 0262 281D     		adds	r0, r5, #4
 1947 0264 FFF7FEFF 		bl	QX_RxMsg
 1948              	.LVL167:
 720:..\..\FreeflyAPI/QX_Protocol.c **** 				} else {
 1949              		.loc 1 720 0
 1950 0268 2046     		mov	r0, r4
 1951 026a 70BD     		pop	{r4, r5, r6, pc}
 1952              	.LVL168:
 1953              	.L131:
 722:..\..\FreeflyAPI/QX_Protocol.c **** 				}
 1954              		.loc 1 722 0
 1955 026c 8C22     		movs	r2, #140
 1956 026e 0A4B     		ldr	r3, .L138
 1957 0270 02FB0030 		mla	r0, r2, r0, r3
 1958              	.LVL169:
 1959 0274 D0F88030 		ldr	r3, [r0, #128]
 1960 0278 0133     		adds	r3, r3, #1
 1961 027a C0F88030 		str	r3, [r0, #128]
 726:..\..\FreeflyAPI/QX_Protocol.c **** }
 1962              		.loc 1 726 0
 1963 027e 0020     		movs	r0, #0
 724:..\..\FreeflyAPI/QX_Protocol.c **** 	}
 1964              		.loc 1 724 0
 1965 0280 70BD     		pop	{r4, r5, r6, pc}
 1966              	.LVL170:
 1967              	.L132:
 726:..\..\FreeflyAPI/QX_Protocol.c **** }
 1968              		.loc 1 726 0
 1969 0282 0020     		movs	r0, #0
 1970              	.LVL171:
 1971 0284 70BD     		pop	{r4, r5, r6, pc}
 1972              	.LVL172:
 1973              	.L133:
 1974 0286 0020     		movs	r0, #0
 1975              	.LVL173:
 1976 0288 70BD     		pop	{r4, r5, r6, pc}
 1977              	.LVL174:
 1978              	.L134:
 1979 028a 0020     		movs	r0, #0
 1980              	.LVL175:
 1981 028c 70BD     		pop	{r4, r5, r6, pc}
ARM GAS  C:\Users\hamis\AppData\Local\Temp\ccsOK97v.s 			page 54


 1982              	.LVL176:
 1983              	.L135:
 1984 028e 0020     		movs	r0, #0
 1985              	.LVL177:
 1986 0290 70BD     		pop	{r4, r5, r6, pc}
 1987              	.LVL178:
 1988              	.L136:
 1989 0292 0020     		movs	r0, #0
 1990              	.LVL179:
 727:..\..\FreeflyAPI/QX_Protocol.c **** 
 1991              		.loc 1 727 0
 1992 0294 70BD     		pop	{r4, r5, r6, pc}
 1993              	.L139:
 1994 0296 00BF     		.align	2
 1995              	.L138:
 1996 0298 00000000 		.word	QX_CommsPorts
 1997              		.cfi_endproc
 1998              	.LFE17:
 1999              		.size	QX_StreamRxCharSM, .-QX_StreamRxCharSM
 2000              		.section	.text.QX_SendPacket_Cli_Read,"ax",%progbits
 2001              		.align	2
 2002              		.global	QX_SendPacket_Cli_Read
 2003              		.thumb
 2004              		.thumb_func
 2005              		.type	QX_SendPacket_Cli_Read, %function
 2006              	QX_SendPacket_Cli_Read:
 2007              	.LFB21:
 786:..\..\FreeflyAPI/QX_Protocol.c **** 
 787:..\..\FreeflyAPI/QX_Protocol.c **** //----------------------------------------------------------------------------
 788:..\..\FreeflyAPI/QX_Protocol.c **** // Full Featured Send QX Packet - For use by the Application (Not in auto response to Read/Write)
 789:..\..\FreeflyAPI/QX_Protocol.c **** // This version supports all features
 790:..\..\FreeflyAPI/QX_Protocol.c **** // This function builds an appropriate message structure and calls calls QX_TxMsg().
 791:..\..\FreeflyAPI/QX_Protocol.c **** QX_Stat_e QX_SendPacket_Cli_Read(QX_Client_t *Cli_p, uint32_t Attrib, QX_Comms_Port_e CommPort, QX_
 792:..\..\FreeflyAPI/QX_Protocol.c **** {
 2008              		.loc 1 792 0
 2009              		.cfi_startproc
 2010              		@ args = 12, pretend = 8, frame = 120
 2011              		@ frame_needed = 0, uses_anonymous_args = 0
 2012              	.LVL180:
 2013 0000 82B0     		sub	sp, sp, #8
 2014              		.cfi_def_cfa_offset 8
 2015 0002 70B5     		push	{r4, r5, r6, lr}
 2016              		.cfi_def_cfa_offset 24
 2017              		.cfi_offset 4, -24
 2018              		.cfi_offset 5, -20
 2019              		.cfi_offset 6, -16
 2020              		.cfi_offset 14, -12
 2021 0004 9EB0     		sub	sp, sp, #120
 2022              		.cfi_def_cfa_offset 144
 2023 0006 0446     		mov	r4, r0
 2024 0008 0D46     		mov	r5, r1
 2025 000a 1646     		mov	r6, r2
 2026 000c 2393     		str	r3, [sp, #140]
 793:..\..\FreeflyAPI/QX_Protocol.c **** 	QX_Msg_t TxMsg;
 794:..\..\FreeflyAPI/QX_Protocol.c **** 	QX_InitMsg(&TxMsg);
 2027              		.loc 1 794 0
 2028 000e 01A8     		add	r0, sp, #4
ARM GAS  C:\Users\hamis\AppData\Local\Temp\ccsOK97v.s 			page 55


 2029              	.LVL181:
 2030 0010 FFF7FEFF 		bl	QX_InitMsg
 2031              	.LVL182:
 795:..\..\FreeflyAPI/QX_Protocol.c **** 	
 796:..\..\FreeflyAPI/QX_Protocol.c **** 	TxMsg.CommPort = CommPort;
 2032              		.loc 1 796 0
 2033 0014 8DF80A60 		strb	r6, [sp, #10]
 797:..\..\FreeflyAPI/QX_Protocol.c **** 	TxMsg.Header.Attrib = Attrib;
 2034              		.loc 1 797 0
 2035 0018 0495     		str	r5, [sp, #16]
 798:..\..\FreeflyAPI/QX_Protocol.c **** 	TxMsg.Header.Type = QX_MSG_TYPE_READ;
 2036              		.loc 1 798 0
 2037 001a 0123     		movs	r3, #1
 2038 001c 8DF81430 		strb	r3, [sp, #20]
 799:..\..\FreeflyAPI/QX_Protocol.c **** 	TxMsg.Header.Target_Addr = options.Target_Addr;
 2039              		.loc 1 799 0
 2040 0020 9DF89030 		ldrb	r3, [sp, #144]	@ zero_extendqisi2
 2041 0024 8DF81D30 		strb	r3, [sp, #29]
 800:..\..\FreeflyAPI/QX_Protocol.c **** 	TxMsg.Header.TransReq_Addr = QX_DEV_ID_BROADCAST;
 2042              		.loc 1 800 0
 2043 0028 0023     		movs	r3, #0
 2044 002a 8DF81E30 		strb	r3, [sp, #30]
 801:..\..\FreeflyAPI/QX_Protocol.c **** 	TxMsg.Header.RespReq_Addr = options.RespReq_Addr;
 2045              		.loc 1 801 0
 2046 002e 9DF89230 		ldrb	r3, [sp, #146]	@ zero_extendqisi2
 2047 0032 8DF81F30 		strb	r3, [sp, #31]
 802:..\..\FreeflyAPI/QX_Protocol.c **** 	TxMsg.Header.Source_Addr = Cli_p->Address;
 2048              		.loc 1 802 0
 2049 0036 2378     		ldrb	r3, [r4]	@ zero_extendqisi2
 2050 0038 8DF81C30 		strb	r3, [sp, #28]
 803:..\..\FreeflyAPI/QX_Protocol.c **** 	TxMsg.Header.FF_Ext = options.FF_Ext;
 2051              		.loc 1 803 0
 2052 003c 9DF88C30 		ldrb	r3, [sp, #140]	@ zero_extendqisi2
 2053 0040 8DF81730 		strb	r3, [sp, #23]
 804:..\..\FreeflyAPI/QX_Protocol.c **** 	TxMsg.Header.AddCRC32 = options.use_CRC32;
 2054              		.loc 1 804 0
 2055 0044 9DF88D30 		ldrb	r3, [sp, #141]	@ zero_extendqisi2
 2056 0048 8DF81630 		strb	r3, [sp, #22]
 805:..\..\FreeflyAPI/QX_Protocol.c **** 	
 806:..\..\FreeflyAPI/QX_Protocol.c **** 	QX_TxMsg_Setup(&TxMsg);
 2057              		.loc 1 806 0
 2058 004c 01A8     		add	r0, sp, #4
 2059 004e FFF7FEFF 		bl	QX_TxMsg_Setup
 2060              	.LVL183:
 807:..\..\FreeflyAPI/QX_Protocol.c **** 	return QX_TxMsg_Finish(&TxMsg);	// Read Messages have no data. Finish the message right away!
 2061              		.loc 1 807 0
 2062 0052 01A8     		add	r0, sp, #4
 2063 0054 FFF7FEFF 		bl	QX_TxMsg_Finish
 2064              	.LVL184:
 808:..\..\FreeflyAPI/QX_Protocol.c **** }
 2065              		.loc 1 808 0
 2066 0058 1EB0     		add	sp, sp, #120
 2067              		.cfi_def_cfa_offset 24
 2068              		@ sp needed
 2069 005a BDE87040 		pop	{r4, r5, r6, lr}
 2070              		.cfi_restore 14
 2071              		.cfi_restore 6
ARM GAS  C:\Users\hamis\AppData\Local\Temp\ccsOK97v.s 			page 56


 2072              		.cfi_restore 5
 2073              		.cfi_restore 4
 2074              		.cfi_def_cfa_offset 8
 2075              	.LVL185:
 2076 005e 02B0     		add	sp, sp, #8
 2077              		.cfi_def_cfa_offset 0
 2078 0060 7047     		bx	lr
 2079              		.cfi_endproc
 2080              	.LFE21:
 2081              		.size	QX_SendPacket_Cli_Read, .-QX_SendPacket_Cli_Read
 2082 0062 00BF     		.section	.text.QX_SendPacket_Cli_WriteABS,"ax",%progbits
 2083              		.align	2
 2084              		.global	QX_SendPacket_Cli_WriteABS
 2085              		.thumb
 2086              		.thumb_func
 2087              		.type	QX_SendPacket_Cli_WriteABS, %function
 2088              	QX_SendPacket_Cli_WriteABS:
 2089              	.LFB22:
 809:..\..\FreeflyAPI/QX_Protocol.c **** 
 810:..\..\FreeflyAPI/QX_Protocol.c **** //----------------------------------------------------------------------------
 811:..\..\FreeflyAPI/QX_Protocol.c **** // Full Featured Send QX Packet - For use by the Application (Not in auto response to Read/Write)
 812:..\..\FreeflyAPI/QX_Protocol.c **** // This version supports all features
 813:..\..\FreeflyAPI/QX_Protocol.c **** // This function builds an appropriate message structure and calls calls QX_TxMsg().
 814:..\..\FreeflyAPI/QX_Protocol.c **** QX_Stat_e QX_SendPacket_Cli_WriteABS(QX_Client_t *Cli_p, uint32_t Attrib, QX_Comms_Port_e CommPort,
 815:..\..\FreeflyAPI/QX_Protocol.c **** {
 2090              		.loc 1 815 0
 2091              		.cfi_startproc
 2092              		@ args = 12, pretend = 8, frame = 120
 2093              		@ frame_needed = 0, uses_anonymous_args = 0
 2094              	.LVL186:
 2095 0000 82B0     		sub	sp, sp, #8
 2096              		.cfi_def_cfa_offset 8
 2097 0002 70B5     		push	{r4, r5, r6, lr}
 2098              		.cfi_def_cfa_offset 24
 2099              		.cfi_offset 4, -24
 2100              		.cfi_offset 5, -20
 2101              		.cfi_offset 6, -16
 2102              		.cfi_offset 14, -12
 2103 0004 9EB0     		sub	sp, sp, #120
 2104              		.cfi_def_cfa_offset 144
 2105 0006 0446     		mov	r4, r0
 2106 0008 0D46     		mov	r5, r1
 2107 000a 1646     		mov	r6, r2
 2108 000c 2393     		str	r3, [sp, #140]
 816:..\..\FreeflyAPI/QX_Protocol.c **** 	QX_Msg_t TxMsg;
 817:..\..\FreeflyAPI/QX_Protocol.c **** 	QX_InitMsg(&TxMsg);
 2109              		.loc 1 817 0
 2110 000e 01A8     		add	r0, sp, #4
 2111              	.LVL187:
 2112 0010 FFF7FEFF 		bl	QX_InitMsg
 2113              	.LVL188:
 818:..\..\FreeflyAPI/QX_Protocol.c **** 	
 819:..\..\FreeflyAPI/QX_Protocol.c **** 	TxMsg.CommPort = CommPort;
 2114              		.loc 1 819 0
 2115 0014 8DF80A60 		strb	r6, [sp, #10]
 820:..\..\FreeflyAPI/QX_Protocol.c **** 	TxMsg.Header.Attrib = Attrib;
 2116              		.loc 1 820 0
ARM GAS  C:\Users\hamis\AppData\Local\Temp\ccsOK97v.s 			page 57


 2117 0018 0495     		str	r5, [sp, #16]
 821:..\..\FreeflyAPI/QX_Protocol.c **** 	TxMsg.Header.Type = QX_MSG_TYPE_WRITE_ABS;
 2118              		.loc 1 821 0
 2119 001a 0225     		movs	r5, #2
 2120              	.LVL189:
 2121 001c 8DF81450 		strb	r5, [sp, #20]
 822:..\..\FreeflyAPI/QX_Protocol.c **** 	TxMsg.Header.Target_Addr = options.Target_Addr;
 2122              		.loc 1 822 0
 2123 0020 9DF89030 		ldrb	r3, [sp, #144]	@ zero_extendqisi2
 2124 0024 8DF81D30 		strb	r3, [sp, #29]
 823:..\..\FreeflyAPI/QX_Protocol.c **** 	TxMsg.Header.TransReq_Addr = options.TransReq_Addr;
 2125              		.loc 1 823 0
 2126 0028 9DF89130 		ldrb	r3, [sp, #145]	@ zero_extendqisi2
 2127 002c 8DF81E30 		strb	r3, [sp, #30]
 824:..\..\FreeflyAPI/QX_Protocol.c **** 	TxMsg.Header.RespReq_Addr = options.RespReq_Addr;
 2128              		.loc 1 824 0
 2129 0030 9DF89230 		ldrb	r3, [sp, #146]	@ zero_extendqisi2
 2130 0034 8DF81F30 		strb	r3, [sp, #31]
 825:..\..\FreeflyAPI/QX_Protocol.c **** 	TxMsg.Header.Source_Addr = Cli_p->Address;
 2131              		.loc 1 825 0
 2132 0038 2378     		ldrb	r3, [r4]	@ zero_extendqisi2
 2133 003a 8DF81C30 		strb	r3, [sp, #28]
 826:..\..\FreeflyAPI/QX_Protocol.c **** 	TxMsg.Header.FF_Ext = options.FF_Ext;
 2134              		.loc 1 826 0
 2135 003e 9DF88C30 		ldrb	r3, [sp, #140]	@ zero_extendqisi2
 2136 0042 8DF81730 		strb	r3, [sp, #23]
 827:..\..\FreeflyAPI/QX_Protocol.c **** 	TxMsg.Header.AddCRC32 = options.use_CRC32;
 2137              		.loc 1 827 0
 2138 0046 9DF88D30 		ldrb	r3, [sp, #141]	@ zero_extendqisi2
 2139 004a 8DF81630 		strb	r3, [sp, #22]
 828:..\..\FreeflyAPI/QX_Protocol.c **** 	
 829:..\..\FreeflyAPI/QX_Protocol.c **** 	QX_TxMsg_Setup(&TxMsg);
 2140              		.loc 1 829 0
 2141 004e 01A8     		add	r0, sp, #4
 2142 0050 FFF7FEFF 		bl	QX_TxMsg_Setup
 2143              	.LVL190:
 830:..\..\FreeflyAPI/QX_Protocol.c **** 	TxMsg.Parse_Type = QX_PARSE_TYPE_WRITE_ABS_SEND;
 2144              		.loc 1 830 0
 2145 0054 8DF80450 		strb	r5, [sp, #4]
 831:..\..\FreeflyAPI/QX_Protocol.c **** 	TxMsg.MsgBuf_p = Cli_p->Parser_CB(&TxMsg);
 2146              		.loc 1 831 0
 2147 0058 6368     		ldr	r3, [r4, #4]
 2148 005a 01A8     		add	r0, sp, #4
 2149 005c 9847     		blx	r3
 2150              	.LVL191:
 2151 005e 1D90     		str	r0, [sp, #116]
 832:..\..\FreeflyAPI/QX_Protocol.c **** 	return QX_TxMsg_Finish(&TxMsg);
 2152              		.loc 1 832 0
 2153 0060 01A8     		add	r0, sp, #4
 2154 0062 FFF7FEFF 		bl	QX_TxMsg_Finish
 2155              	.LVL192:
 833:..\..\FreeflyAPI/QX_Protocol.c **** }
 2156              		.loc 1 833 0
 2157 0066 1EB0     		add	sp, sp, #120
 2158              		.cfi_def_cfa_offset 24
 2159              		@ sp needed
 2160 0068 BDE87040 		pop	{r4, r5, r6, lr}
ARM GAS  C:\Users\hamis\AppData\Local\Temp\ccsOK97v.s 			page 58


 2161              		.cfi_restore 14
 2162              		.cfi_restore 6
 2163              		.cfi_restore 5
 2164              		.cfi_restore 4
 2165              		.cfi_def_cfa_offset 8
 2166              	.LVL193:
 2167 006c 02B0     		add	sp, sp, #8
 2168              		.cfi_def_cfa_offset 0
 2169 006e 7047     		bx	lr
 2170              		.cfi_endproc
 2171              	.LFE22:
 2172              		.size	QX_SendPacket_Cli_WriteABS, .-QX_SendPacket_Cli_WriteABS
 2173              		.section	.text.QX_SendPacket_Cli_WriteREL,"ax",%progbits
 2174              		.align	2
 2175              		.global	QX_SendPacket_Cli_WriteREL
 2176              		.thumb
 2177              		.thumb_func
 2178              		.type	QX_SendPacket_Cli_WriteREL, %function
 2179              	QX_SendPacket_Cli_WriteREL:
 2180              	.LFB23:
 834:..\..\FreeflyAPI/QX_Protocol.c **** 
 835:..\..\FreeflyAPI/QX_Protocol.c **** //----------------------------------------------------------------------------
 836:..\..\FreeflyAPI/QX_Protocol.c **** // Full Featured Send QX Packet - For use by the Application (Not in auto response to Read/Write)
 837:..\..\FreeflyAPI/QX_Protocol.c **** // This version supports all features
 838:..\..\FreeflyAPI/QX_Protocol.c **** // This function builds an appropriate message structure and calls calls QX_TxMsg().
 839:..\..\FreeflyAPI/QX_Protocol.c **** QX_Stat_e QX_SendPacket_Cli_WriteREL(QX_Client_t *Cli_p, uint32_t Attrib, QX_Comms_Port_e CommPort,
 840:..\..\FreeflyAPI/QX_Protocol.c **** {
 2181              		.loc 1 840 0
 2182              		.cfi_startproc
 2183              		@ args = 12, pretend = 8, frame = 120
 2184              		@ frame_needed = 0, uses_anonymous_args = 0
 2185              	.LVL194:
 2186 0000 82B0     		sub	sp, sp, #8
 2187              		.cfi_def_cfa_offset 8
 2188 0002 70B5     		push	{r4, r5, r6, lr}
 2189              		.cfi_def_cfa_offset 24
 2190              		.cfi_offset 4, -24
 2191              		.cfi_offset 5, -20
 2192              		.cfi_offset 6, -16
 2193              		.cfi_offset 14, -12
 2194 0004 9EB0     		sub	sp, sp, #120
 2195              		.cfi_def_cfa_offset 144
 2196 0006 0446     		mov	r4, r0
 2197 0008 0D46     		mov	r5, r1
 2198 000a 1646     		mov	r6, r2
 2199 000c 2393     		str	r3, [sp, #140]
 841:..\..\FreeflyAPI/QX_Protocol.c **** 	QX_Msg_t TxMsg;
 842:..\..\FreeflyAPI/QX_Protocol.c **** 	QX_InitMsg(&TxMsg);
 2200              		.loc 1 842 0
 2201 000e 01A8     		add	r0, sp, #4
 2202              	.LVL195:
 2203 0010 FFF7FEFF 		bl	QX_InitMsg
 2204              	.LVL196:
 843:..\..\FreeflyAPI/QX_Protocol.c **** 	
 844:..\..\FreeflyAPI/QX_Protocol.c **** 	TxMsg.CommPort = CommPort;
 2205              		.loc 1 844 0
 2206 0014 8DF80A60 		strb	r6, [sp, #10]
ARM GAS  C:\Users\hamis\AppData\Local\Temp\ccsOK97v.s 			page 59


 845:..\..\FreeflyAPI/QX_Protocol.c **** 	TxMsg.Header.Attrib = Attrib;
 2207              		.loc 1 845 0
 2208 0018 0495     		str	r5, [sp, #16]
 846:..\..\FreeflyAPI/QX_Protocol.c **** 	TxMsg.Header.Type = QX_MSG_TYPE_WRITE_REL;
 2209              		.loc 1 846 0
 2210 001a 0323     		movs	r3, #3
 2211 001c 8DF81430 		strb	r3, [sp, #20]
 847:..\..\FreeflyAPI/QX_Protocol.c **** 	TxMsg.Header.Target_Addr = options.Target_Addr;
 2212              		.loc 1 847 0
 2213 0020 9DF89030 		ldrb	r3, [sp, #144]	@ zero_extendqisi2
 2214 0024 8DF81D30 		strb	r3, [sp, #29]
 848:..\..\FreeflyAPI/QX_Protocol.c **** 	TxMsg.Header.TransReq_Addr = options.TransReq_Addr;
 2215              		.loc 1 848 0
 2216 0028 9DF89130 		ldrb	r3, [sp, #145]	@ zero_extendqisi2
 2217 002c 8DF81E30 		strb	r3, [sp, #30]
 849:..\..\FreeflyAPI/QX_Protocol.c **** 	TxMsg.Header.RespReq_Addr = options.RespReq_Addr;
 2218              		.loc 1 849 0
 2219 0030 9DF89230 		ldrb	r3, [sp, #146]	@ zero_extendqisi2
 2220 0034 8DF81F30 		strb	r3, [sp, #31]
 850:..\..\FreeflyAPI/QX_Protocol.c **** 	TxMsg.Header.Source_Addr = Cli_p->Address;
 2221              		.loc 1 850 0
 2222 0038 2378     		ldrb	r3, [r4]	@ zero_extendqisi2
 2223 003a 8DF81C30 		strb	r3, [sp, #28]
 851:..\..\FreeflyAPI/QX_Protocol.c **** 	TxMsg.Header.FF_Ext = options.FF_Ext;
 2224              		.loc 1 851 0
 2225 003e 9DF88C30 		ldrb	r3, [sp, #140]	@ zero_extendqisi2
 2226 0042 8DF81730 		strb	r3, [sp, #23]
 852:..\..\FreeflyAPI/QX_Protocol.c **** 	TxMsg.Header.AddCRC32 = options.use_CRC32;
 2227              		.loc 1 852 0
 2228 0046 9DF88D30 		ldrb	r3, [sp, #141]	@ zero_extendqisi2
 2229 004a 8DF81630 		strb	r3, [sp, #22]
 853:..\..\FreeflyAPI/QX_Protocol.c **** 	
 854:..\..\FreeflyAPI/QX_Protocol.c **** 	QX_TxMsg_Setup(&TxMsg);
 2230              		.loc 1 854 0
 2231 004e 01A8     		add	r0, sp, #4
 2232 0050 FFF7FEFF 		bl	QX_TxMsg_Setup
 2233              	.LVL197:
 855:..\..\FreeflyAPI/QX_Protocol.c **** 	TxMsg.Parse_Type = QX_PARSE_TYPE_WRITE_REL_SEND;
 2234              		.loc 1 855 0
 2235 0054 0423     		movs	r3, #4
 2236 0056 8DF80430 		strb	r3, [sp, #4]
 856:..\..\FreeflyAPI/QX_Protocol.c **** 	TxMsg.MsgBuf_p = Cli_p->Parser_CB(&TxMsg);
 2237              		.loc 1 856 0
 2238 005a 6368     		ldr	r3, [r4, #4]
 2239 005c 01A8     		add	r0, sp, #4
 2240 005e 9847     		blx	r3
 2241              	.LVL198:
 2242 0060 1D90     		str	r0, [sp, #116]
 857:..\..\FreeflyAPI/QX_Protocol.c **** 	return QX_TxMsg_Finish(&TxMsg);
 2243              		.loc 1 857 0
 2244 0062 01A8     		add	r0, sp, #4
 2245 0064 FFF7FEFF 		bl	QX_TxMsg_Finish
 2246              	.LVL199:
 858:..\..\FreeflyAPI/QX_Protocol.c **** }
 2247              		.loc 1 858 0
 2248 0068 1EB0     		add	sp, sp, #120
 2249              		.cfi_def_cfa_offset 24
ARM GAS  C:\Users\hamis\AppData\Local\Temp\ccsOK97v.s 			page 60


 2250              		@ sp needed
 2251 006a BDE87040 		pop	{r4, r5, r6, lr}
 2252              		.cfi_restore 14
 2253              		.cfi_restore 6
 2254              		.cfi_restore 5
 2255              		.cfi_restore 4
 2256              		.cfi_def_cfa_offset 8
 2257              	.LVL200:
 2258 006e 02B0     		add	sp, sp, #8
 2259              		.cfi_def_cfa_offset 0
 2260 0070 7047     		bx	lr
 2261              		.cfi_endproc
 2262              	.LFE23:
 2263              		.size	QX_SendPacket_Cli_WriteREL, .-QX_SendPacket_Cli_WriteREL
 2264 0072 00BF     		.section	.text.QX_SendPacket_Cli_Control,"ax",%progbits
 2265              		.align	2
 2266              		.global	QX_SendPacket_Cli_Control
 2267              		.thumb
 2268              		.thumb_func
 2269              		.type	QX_SendPacket_Cli_Control, %function
 2270              	QX_SendPacket_Cli_Control:
 2271              	.LFB24:
 859:..\..\FreeflyAPI/QX_Protocol.c **** 
 860:..\..\FreeflyAPI/QX_Protocol.c **** //----------------------------------------------------------------------------
 861:..\..\FreeflyAPI/QX_Protocol.c **** // Send QX Packet with TRID and RRID for control.
 862:..\..\FreeflyAPI/QX_Protocol.c **** // This version supports all features
 863:..\..\FreeflyAPI/QX_Protocol.c **** // This function builds an appropriate message structure and calls calls QX_TxMsg().
 864:..\..\FreeflyAPI/QX_Protocol.c **** QX_Stat_e QX_SendPacket_Cli_Control(QX_Client_t *Cli_p, uint32_t Attrib, QX_Comms_Port_e CommPort, 
 865:..\..\FreeflyAPI/QX_Protocol.c **** {	
 2272              		.loc 1 865 0
 2273              		.cfi_startproc
 2274              		@ args = 12, pretend = 8, frame = 0
 2275              		@ frame_needed = 0, uses_anonymous_args = 0
 2276              	.LVL201:
 2277 0000 82B0     		sub	sp, sp, #8
 2278              		.cfi_def_cfa_offset 8
 2279 0002 10B5     		push	{r4, lr}
 2280              		.cfi_def_cfa_offset 16
 2281              		.cfi_offset 4, -16
 2282              		.cfi_offset 14, -12
 2283 0004 82B0     		sub	sp, sp, #8
 2284              		.cfi_def_cfa_offset 24
 2285 0006 0593     		str	r3, [sp, #20]
 866:..\..\FreeflyAPI/QX_Protocol.c **** 	return QX_SendPacket_Cli_WriteABS(Cli_p, Attrib, CommPort, options);
 2286              		.loc 1 866 0
 2287 0008 069C     		ldr	r4, [sp, #24]
 2288 000a ADF80040 		strh	r4, [sp]	@ movhi
 2289 000e 240C     		lsrs	r4, r4, #16
 2290 0010 8DF80240 		strb	r4, [sp, #2]
 2291 0014 FFF7FEFF 		bl	QX_SendPacket_Cli_WriteABS
 2292              	.LVL202:
 867:..\..\FreeflyAPI/QX_Protocol.c **** }
 2293              		.loc 1 867 0
 2294 0018 02B0     		add	sp, sp, #8
 2295              		.cfi_def_cfa_offset 16
 2296              		@ sp needed
 2297 001a BDE81040 		pop	{r4, lr}
ARM GAS  C:\Users\hamis\AppData\Local\Temp\ccsOK97v.s 			page 61


 2298              		.cfi_restore 14
 2299              		.cfi_restore 4
 2300              		.cfi_def_cfa_offset 8
 2301 001e 02B0     		add	sp, sp, #8
 2302              		.cfi_def_cfa_offset 0
 2303 0020 7047     		bx	lr
 2304              		.cfi_endproc
 2305              	.LFE24:
 2306              		.size	QX_SendPacket_Cli_Control, .-QX_SendPacket_Cli_Control
 2307              		.global	QX_ParseHeader_Legacy
 2308              		.global	QX_BuildHeader_Legacy
 2309              		.comm	QX_CommsPorts,140,4
 2310              		.comm	QX_Clients,8,4
 2311              		.comm	QX_Servers,8,4
 2312 0022 00BF     		.bss
 2313              		.align	2
 2314              		.set	.LANCHOR0,. + 0
 2315              		.type	QX_BuildHeader_Legacy, %object
 2316              		.size	QX_BuildHeader_Legacy, 4
 2317              	QX_BuildHeader_Legacy:
 2318 0000 00000000 		.space	4
 2319              		.type	QX_ParseHeader_Legacy, %object
 2320              		.size	QX_ParseHeader_Legacy, 4
 2321              	QX_ParseHeader_Legacy:
 2322 0004 00000000 		.space	4
 2323              		.text
 2324              	.Letext0:
 2325              		.file 2 "d:\\program files (x86)\\psoc creator\\4.4\\psoc creator\\import\\gnu\\arm\\5.4.1\\arm-no
 2326              		.file 3 "d:\\program files (x86)\\psoc creator\\4.4\\psoc creator\\import\\gnu\\arm\\5.4.1\\arm-no
 2327              		.file 4 "..\\..\\FreeflyAPI\\QX_App_Config.h"
 2328              		.file 5 "..\\..\\FreeflyAPI\\QX_Protocol.h"