ARM GAS  C:\Users\hamis\AppData\Local\Temp\ccfstIpD.s 			page 1


   1              		.syntax unified
   2              		.cpu cortex-m3
   3              		.fpu softvfp
   4              		.eabi_attribute 20, 1
   5              		.eabi_attribute 21, 1
   6              		.eabi_attribute 23, 3
   7              		.eabi_attribute 24, 1
   8              		.eabi_attribute 25, 1
   9              		.eabi_attribute 26, 1
  10              		.eabi_attribute 30, 1
  11              		.eabi_attribute 34, 1
  12              		.eabi_attribute 18, 4
  13              		.thumb
  14              		.syntax unified
  15              		.file	"main.c"
  16              		.text
  17              	.Ltext0:
  18              		.cfi_sections	.debug_frame
  19              		.section	.text.UART_RX_ISR,"ax",%progbits
  20              		.align	2
  21              		.global	UART_RX_ISR
  22              		.thumb
  23              		.thumb_func
  24              		.type	UART_RX_ISR, %function
  25              	UART_RX_ISR:
  26              	.LFB65:
  27              		.file 1 "main.c"
   1:main.c        **** /* ========================================
   2:main.c        ****  *
   3:main.c        ****  * Copyright YOUR COMPANY, THE YEAR
   4:main.c        ****  * All Rights Reserved
   5:main.c        ****  * UNPUBLISHED, LICENSED SOFTWARE.
   6:main.c        ****  *
   7:main.c        ****  * CONFIDENTIAL AND PROPRIETARY INFORMATION
   8:main.c        ****  * WHICH IS THE PROPERTY OF your company.
   9:main.c        ****  *
  10:main.c        ****  * ========================================
  11:main.c        **** */
  12:main.c        **** #include "project.h"
  13:main.c        **** 
  14:main.c        **** // Necessary ports of the FreeflyAPI
  15:main.c        **** #include "QX_Protocol.h"
  16:main.c        **** #include "QX_Protocol_App.h"
  17:main.c        **** 
  18:main.c        **** // Constants
  19:main.c        **** #define LOOP_DELAY_MS 20  // 50 Hz loop
  20:main.c        **** 
  21:main.c        **** // Example Rx handler
  22:main.c        **** void UART_ReceiveHandler(void)
  23:main.c        **** {
  24:main.c        ****     uint8_t rxByte;
  25:main.c        ****     // Poll for received bytes (or use interrupt if preferred)
  26:main.c        ****     while ((rxByte = UART_GetChar()) != 0)
  27:main.c        ****     {
  28:main.c        ****         // Pass each received byte to the MOVI API
  29:main.c        ****         QX_StreamRxCharSM(QX_COMMS_PORT_UART, rxByte);
  30:main.c        ****     }
ARM GAS  C:\Users\hamis\AppData\Local\Temp\ccfstIpD.s 			page 2


  31:main.c        **** }
  32:main.c        **** // Handle writing the command for the API
  33:main.c        **** int ff_api_encode_control(uint8_t *out_buf, uint16_t *out_len)
  34:main.c        **** {
  35:main.c        ****     QX_TxMsgOptions_t options;
  36:main.c        ****     QX_InitTxOptions(&options);
  37:main.c        ****     options.Target_Addr = QX_DEV_ID_GIMBAL;
  38:main.c        ****     options.TransReq_Addr = QX_DEV_ID_BROADCAST;
  39:main.c        ****     options.RespReq_Addr = QX_DEV_ID_BROADCAST;
  40:main.c        **** 
  41:main.c        ****     // Build the message
  42:main.c        ****     QX_Msg_t TxMsg;
  43:main.c        ****     QX_InitMsg(&TxMsg);
  44:main.c        **** 
  45:main.c        ****     TxMsg.CommPort = QX_COMMS_PORT_UART;
  46:main.c        ****     TxMsg.Header.Attrib = 277;
  47:main.c        ****     TxMsg.Header.Type = QX_MSG_TYPE_WRITE_ABS;
  48:main.c        ****     TxMsg.Header.Target_Addr = options.Target_Addr;
  49:main.c        ****     TxMsg.Header.TransReq_Addr = options.TransReq_Addr;
  50:main.c        ****     TxMsg.Header.RespReq_Addr = options.RespReq_Addr;
  51:main.c        ****     TxMsg.Header.Source_Addr = QX_Clients[0].Address;
  52:main.c        ****     TxMsg.Header.FF_Ext = options.FF_Ext;
  53:main.c        ****     TxMsg.Header.AddCRC32 = options.use_CRC32;
  54:main.c        **** 
  55:main.c        ****     QX_TxMsg_Setup(&TxMsg);
  56:main.c        ****     TxMsg.Parse_Type = QX_PARSE_TYPE_WRITE_ABS_SEND;
  57:main.c        ****     TxMsg.MsgBuf_p = QX_Clients[0].Parser_CB(&TxMsg);
  58:main.c        ****     QX_TxMsg_Finish(&TxMsg);
  59:main.c        **** 
  60:main.c        ****     // Copy the encoded message to out_buf
  61:main.c        ****     for (uint16_t i = 0; i < TxMsg.MsgBuf_MsgLen; i++)
  62:main.c        ****         out_buf[i] = TxMsg.MsgBufStart_p[i];
  63:main.c        **** 
  64:main.c        ****     *out_len = TxMsg.MsgBuf_MsgLen;
  65:main.c        ****     return 0; // success
  66:main.c        **** }
  67:main.c        **** 
  68:main.c        **** // UART RX ISR prototype.
  69:main.c        **** // The UART componnent interrupts on Rx, this ISR then 
  70:main.c        **** // processes on this interrupt.
  71:main.c        **** CY_ISR(UART_RX_ISR)
  72:main.c        **** {
  28              		.loc 1 72 0
  29              		.cfi_startproc
  30              		@ args = 0, pretend = 0, frame = 0
  31              		@ frame_needed = 0, uses_anonymous_args = 0
  32 0000 08B5     		push	{r3, lr}
  33              		.cfi_def_cfa_offset 8
  34              		.cfi_offset 3, -8
  35              		.cfi_offset 14, -4
  73:main.c        ****     uint8_t rxByte;
  74:main.c        ****     // Process all bytes in the RX buffer
  75:main.c        ****     while (UART_GetRxBufferSize() > 0)
  36              		.loc 1 75 0
  37 0002 05E0     		b	.L2
  38              	.L3:
  76:main.c        ****     {
ARM GAS  C:\Users\hamis\AppData\Local\Temp\ccfstIpD.s 			page 3


  77:main.c        ****         rxByte = UART_GetByte(); // Get the next received byte
  39              		.loc 1 77 0
  40 0004 FFF7FEFF 		bl	UART_GetByte
  41              	.LVL0:
  78:main.c        ****         QX_StreamRxCharSM(QX_COMMS_PORT_UART, rxByte); // Pass to QX Protocol
  42              		.loc 1 78 0
  43 0008 C1B2     		uxtb	r1, r0
  44 000a 0020     		movs	r0, #0
  45              	.LVL1:
  46 000c FFF7FEFF 		bl	QX_StreamRxCharSM
  47              	.LVL2:
  48              	.L2:
  75:main.c        ****     {
  49              		.loc 1 75 0
  50 0010 FFF7FEFF 		bl	UART_GetRxBufferSize
  51              	.LVL3:
  52 0014 0028     		cmp	r0, #0
  53 0016 F5D1     		bne	.L3
  79:main.c        ****     }
  80:main.c        **** }
  54              		.loc 1 80 0
  55 0018 08BD     		pop	{r3, pc}
  56              		.cfi_endproc
  57              	.LFE65:
  58              		.size	UART_RX_ISR, .-UART_RX_ISR
  59 001a 00BF     		.section	.text.UART_ReceiveHandler,"ax",%progbits
  60              		.align	2
  61              		.global	UART_ReceiveHandler
  62              		.thumb
  63              		.thumb_func
  64              		.type	UART_ReceiveHandler, %function
  65              	UART_ReceiveHandler:
  66              	.LFB63:
  23:main.c        ****     uint8_t rxByte;
  67              		.loc 1 23 0
  68              		.cfi_startproc
  69              		@ args = 0, pretend = 0, frame = 0
  70              		@ frame_needed = 0, uses_anonymous_args = 0
  71 0000 08B5     		push	{r3, lr}
  72              		.cfi_def_cfa_offset 8
  73              		.cfi_offset 3, -8
  74              		.cfi_offset 14, -4
  26:main.c        ****     {
  75              		.loc 1 26 0
  76 0002 02E0     		b	.L6
  77              	.LVL4:
  78              	.L7:
  29:main.c        ****     }
  79              		.loc 1 29 0
  80 0004 0020     		movs	r0, #0
  81              	.LVL5:
  82 0006 FFF7FEFF 		bl	QX_StreamRxCharSM
  83              	.LVL6:
  84              	.L6:
  26:main.c        ****     {
  85              		.loc 1 26 0
  86 000a FFF7FEFF 		bl	UART_GetChar
ARM GAS  C:\Users\hamis\AppData\Local\Temp\ccfstIpD.s 			page 4


  87              	.LVL7:
  88 000e 0146     		mov	r1, r0
  89 0010 0028     		cmp	r0, #0
  90 0012 F7D1     		bne	.L7
  31:main.c        **** // Handle writing the command for the API
  91              		.loc 1 31 0
  92 0014 08BD     		pop	{r3, pc}
  93              		.cfi_endproc
  94              	.LFE63:
  95              		.size	UART_ReceiveHandler, .-UART_ReceiveHandler
  96 0016 00BF     		.section	.text.ff_api_encode_control,"ax",%progbits
  97              		.align	2
  98              		.global	ff_api_encode_control
  99              		.thumb
 100              		.thumb_func
 101              		.type	ff_api_encode_control, %function
 102              	ff_api_encode_control:
 103              	.LFB64:
  34:main.c        ****     QX_TxMsgOptions_t options;
 104              		.loc 1 34 0
 105              		.cfi_startproc
 106              		@ args = 0, pretend = 0, frame = 128
 107              		@ frame_needed = 0, uses_anonymous_args = 0
 108              	.LVL8:
 109 0000 2DE9F041 		push	{r4, r5, r6, r7, r8, lr}
 110              		.cfi_def_cfa_offset 24
 111              		.cfi_offset 4, -24
 112              		.cfi_offset 5, -20
 113              		.cfi_offset 6, -16
 114              		.cfi_offset 7, -12
 115              		.cfi_offset 8, -8
 116              		.cfi_offset 14, -4
 117 0004 A0B0     		sub	sp, sp, #128
 118              		.cfi_def_cfa_offset 152
 119 0006 0546     		mov	r5, r0
 120 0008 0E46     		mov	r6, r1
  36:main.c        ****     options.Target_Addr = QX_DEV_ID_GIMBAL;
 121              		.loc 1 36 0
 122 000a 1EA8     		add	r0, sp, #120
 123              	.LVL9:
 124 000c FFF7FEFF 		bl	QX_InitTxOptions
 125              	.LVL10:
  37:main.c        ****     options.TransReq_Addr = QX_DEV_ID_BROADCAST;
 126              		.loc 1 37 0
 127 0010 0227     		movs	r7, #2
 128 0012 8DF87C70 		strb	r7, [sp, #124]
  38:main.c        ****     options.RespReq_Addr = QX_DEV_ID_BROADCAST;
 129              		.loc 1 38 0
 130 0016 0024     		movs	r4, #0
 131 0018 8DF87D40 		strb	r4, [sp, #125]
  39:main.c        **** 
 132              		.loc 1 39 0
 133 001c 8DF87E40 		strb	r4, [sp, #126]
  43:main.c        **** 
 134              		.loc 1 43 0
 135 0020 01A8     		add	r0, sp, #4
 136 0022 FFF7FEFF 		bl	QX_InitMsg
ARM GAS  C:\Users\hamis\AppData\Local\Temp\ccfstIpD.s 			page 5


 137              	.LVL11:
  45:main.c        ****     TxMsg.Header.Attrib = 277;
 138              		.loc 1 45 0
 139 0026 8DF80A40 		strb	r4, [sp, #10]
  46:main.c        ****     TxMsg.Header.Type = QX_MSG_TYPE_WRITE_ABS;
 140              		.loc 1 46 0
 141 002a 40F21513 		movw	r3, #277
 142 002e 0493     		str	r3, [sp, #16]
  47:main.c        ****     TxMsg.Header.Target_Addr = options.Target_Addr;
 143              		.loc 1 47 0
 144 0030 8DF81470 		strb	r7, [sp, #20]
  48:main.c        ****     TxMsg.Header.TransReq_Addr = options.TransReq_Addr;
 145              		.loc 1 48 0
 146 0034 9DF87C30 		ldrb	r3, [sp, #124]	@ zero_extendqisi2
 147 0038 8DF81D30 		strb	r3, [sp, #29]
  49:main.c        ****     TxMsg.Header.RespReq_Addr = options.RespReq_Addr;
 148              		.loc 1 49 0
 149 003c 9DF87D30 		ldrb	r3, [sp, #125]	@ zero_extendqisi2
 150 0040 8DF81E30 		strb	r3, [sp, #30]
  50:main.c        ****     TxMsg.Header.Source_Addr = QX_Clients[0].Address;
 151              		.loc 1 50 0
 152 0044 9DF87E30 		ldrb	r3, [sp, #126]	@ zero_extendqisi2
 153 0048 8DF81F30 		strb	r3, [sp, #31]
  51:main.c        ****     TxMsg.Header.FF_Ext = options.FF_Ext;
 154              		.loc 1 51 0
 155 004c DFF85480 		ldr	r8, .L13
 156 0050 98F80030 		ldrb	r3, [r8]	@ zero_extendqisi2
 157 0054 8DF81C30 		strb	r3, [sp, #28]
  52:main.c        ****     TxMsg.Header.AddCRC32 = options.use_CRC32;
 158              		.loc 1 52 0
 159 0058 9DF87830 		ldrb	r3, [sp, #120]	@ zero_extendqisi2
 160 005c 8DF81730 		strb	r3, [sp, #23]
  53:main.c        **** 
 161              		.loc 1 53 0
 162 0060 9DF87930 		ldrb	r3, [sp, #121]	@ zero_extendqisi2
 163 0064 8DF81630 		strb	r3, [sp, #22]
  55:main.c        ****     TxMsg.Parse_Type = QX_PARSE_TYPE_WRITE_ABS_SEND;
 164              		.loc 1 55 0
 165 0068 01A8     		add	r0, sp, #4
 166 006a FFF7FEFF 		bl	QX_TxMsg_Setup
 167              	.LVL12:
  56:main.c        ****     TxMsg.MsgBuf_p = QX_Clients[0].Parser_CB(&TxMsg);
 168              		.loc 1 56 0
 169 006e 8DF80470 		strb	r7, [sp, #4]
  57:main.c        ****     QX_TxMsg_Finish(&TxMsg);
 170              		.loc 1 57 0
 171 0072 D8F80430 		ldr	r3, [r8, #4]
 172 0076 01A8     		add	r0, sp, #4
 173 0078 9847     		blx	r3
 174              	.LVL13:
 175 007a 1D90     		str	r0, [sp, #116]
  58:main.c        **** 
 176              		.loc 1 58 0
 177 007c 01A8     		add	r0, sp, #4
 178 007e FFF7FEFF 		bl	QX_TxMsg_Finish
 179              	.LVL14:
 180              	.LBB2:
ARM GAS  C:\Users\hamis\AppData\Local\Temp\ccfstIpD.s 			page 6


  61:main.c        ****         out_buf[i] = TxMsg.MsgBufStart_p[i];
 181              		.loc 1 61 0
 182 0082 2346     		mov	r3, r4
 183 0084 04E0     		b	.L10
 184              	.LVL15:
 185              	.L11:
  62:main.c        **** 
 186              		.loc 1 62 0 discriminator 3
 187 0086 1A9A     		ldr	r2, [sp, #104]
 188 0088 D25C     		ldrb	r2, [r2, r3]	@ zero_extendqisi2
 189 008a EA54     		strb	r2, [r5, r3]
  61:main.c        ****         out_buf[i] = TxMsg.MsgBufStart_p[i];
 190              		.loc 1 61 0 discriminator 3
 191 008c 0133     		adds	r3, r3, #1
 192              	.LVL16:
 193 008e 9BB2     		uxth	r3, r3
 194              	.LVL17:
 195              	.L10:
  61:main.c        ****         out_buf[i] = TxMsg.MsgBufStart_p[i];
 196              		.loc 1 61 0 is_stmt 0 discriminator 1
 197 0090 BDF86620 		ldrh	r2, [sp, #102]
 198 0094 9342     		cmp	r3, r2
 199 0096 F6D3     		bcc	.L11
 200              	.LBE2:
  64:main.c        ****     return 0; // success
 201              		.loc 1 64 0 is_stmt 1
 202 0098 3280     		strh	r2, [r6]	@ movhi
  66:main.c        **** 
 203              		.loc 1 66 0
 204 009a 0020     		movs	r0, #0
 205 009c 20B0     		add	sp, sp, #128
 206              		.cfi_def_cfa_offset 24
 207              		@ sp needed
 208 009e BDE8F081 		pop	{r4, r5, r6, r7, r8, pc}
 209              	.LVL18:
 210              	.L14:
 211 00a2 00BF     		.align	2
 212              	.L13:
 213 00a4 00000000 		.word	QX_Clients
 214              		.cfi_endproc
 215              	.LFE64:
 216              		.size	ff_api_encode_control, .-ff_api_encode_control
 217              		.section	.text.main,"ax",%progbits
 218              		.align	2
 219              		.global	main
 220              		.thumb
 221              		.thumb_func
 222              		.type	main, %function
 223              	main:
 224              	.LFB66:
  81:main.c        **** 
  82:main.c        **** int main(void)
  83:main.c        **** {
 225              		.loc 1 83 0
 226              		.cfi_startproc
 227              		@ args = 0, pretend = 0, frame = 152
 228              		@ frame_needed = 0, uses_anonymous_args = 0
ARM GAS  C:\Users\hamis\AppData\Local\Temp\ccfstIpD.s 			page 7


 229 0000 10B5     		push	{r4, lr}
 230              		.cfi_def_cfa_offset 8
 231              		.cfi_offset 4, -8
 232              		.cfi_offset 14, -4
 233 0002 A6B0     		sub	sp, sp, #152
 234              		.cfi_def_cfa_offset 160
  84:main.c        ****     CyGlobalIntEnable; /* Enable global interrupts. */
 235              		.loc 1 84 0
 236              		.syntax unified
 237              	@ 84 "main.c" 1
 238 0004 62B6     		CPSIE   i
 239              	@ 0 "" 2
  85:main.c        **** 
  86:main.c        ****     /* Freefly over COM Initialization */
  87:main.c        ****     UART_Start();                                // Start UART on hardware RxTx
 240              		.loc 1 87 0
 241              		.thumb
 242              		.syntax unified
 243 0006 FFF7FEFF 		bl	UART_Start
 244              	.LVL19:
  88:main.c        ****     QX_InitCli(&QX_Clients[0],                   // Chose client instance, only one.
 245              		.loc 1 88 0
 246 000a 2E4A     		ldr	r2, .L24
 247 000c 0A21     		movs	r1, #10
 248 000e 2E48     		ldr	r0, .L24+4
 249 0010 FFF7FEFF 		bl	QX_InitCli
 250              	.LVL20:
  89:main.c        ****                 QX_DEV_ID_MOVI_API_CONTROLLER,   // Movi API Controller Address.
  90:main.c        ****                 QX_ParsePacket_Cli_MoVI_Ctrl_CB  // Callback function. This parses the returned bit
  91:main.c        ****     );
  92:main.c        ****     UART_PutString("% -- Initialized! -- %\r\n");
 251              		.loc 1 92 0
 252 0014 2D48     		ldr	r0, .L24+8
 253 0016 FFF7FEFF 		bl	UART_PutString
 254              	.LVL21:
  93:main.c        ****     isr_rx_StartEx(UART_RX_ISR);
 255              		.loc 1 93 0
 256 001a 2D48     		ldr	r0, .L24+12
 257 001c FFF7FEFF 		bl	isr_rx_StartEx
 258              	.LVL22:
  94:main.c        ****     FreeflyAPI.begin();
 259              		.loc 1 94 0
 260 0020 2C4B     		ldr	r3, .L24+16
 261 0022 1B68     		ldr	r3, [r3]
 262 0024 9847     		blx	r3
 263              	.LVL23:
 264              	.L22:
 265              	.LBB3:
  95:main.c        **** 
  96:main.c        ****     for(;;)
  97:main.c        ****     {
  98:main.c        ****         CyDelay(500);
 266              		.loc 1 98 0
 267 0026 4FF4FA70 		mov	r0, #500
 268 002a FFF7FEFF 		bl	CyDelay
 269              	.LVL24:
  99:main.c        ****         
ARM GAS  C:\Users\hamis\AppData\Local\Temp\ccfstIpD.s 			page 8


 100:main.c        ****         uint8_t button_state = SW1_debounced_Read();
 270              		.loc 1 100 0
 271 002e FFF7FEFF 		bl	SW1_debounced_Read
 272              	.LVL25:
 273 0032 0446     		mov	r4, r0
 274              	.LVL26:
 101:main.c        ****         char msg[20];
 102:main.c        ****         sprintf(msg, "SW1: %d\r\n", button_state); // Converts 0/1 to ASCII
 275              		.loc 1 102 0
 276 0034 0246     		mov	r2, r0
 277 0036 2849     		ldr	r1, .L24+20
 278 0038 01A8     		add	r0, sp, #4
 279              	.LVL27:
 280 003a FFF7FEFF 		bl	sprintf
 281              	.LVL28:
 103:main.c        ****         UART_PutString(msg); // Prints "SW1: 0" or "SW1: 1"
 282              		.loc 1 103 0
 283 003e 01A8     		add	r0, sp, #4
 284 0040 FFF7FEFF 		bl	UART_PutString
 285              	.LVL29:
 104:main.c        ****         
 105:main.c        ****         // Example: Set control values
 106:main.c        ****         FreeflyAPI.control.pan.type = RATE;
 286              		.loc 1 106 0
 287 0044 234B     		ldr	r3, .L24+16
 288 0046 0122     		movs	r2, #1
 289 0048 1A75     		strb	r2, [r3, #20]
 107:main.c        ****         FreeflyAPI.control.tilt.type = RATE;
 290              		.loc 1 107 0
 291 004a 1A77     		strb	r2, [r3, #28]
 108:main.c        ****         FreeflyAPI.control.tilt.value = 0.0f;  // No tilt
 292              		.loc 1 108 0
 293 004c 0022     		movs	r2, #0
 294 004e 9A61     		str	r2, [r3, #24]	@ float
 109:main.c        ****         
 110:main.c        ****         if(button_state){
 295              		.loc 1 110 0
 296 0050 1CB1     		cbz	r4, .L16
 111:main.c        ****             FreeflyAPI.control.pan.value = 0.5f;   // Example value
 297              		.loc 1 111 0
 298 0052 4FF07C52 		mov	r2, #1056964608
 299 0056 1A61     		str	r2, [r3, #16]	@ float
 300 0058 02E0     		b	.L17
 301              	.L16:
 112:main.c        ****         } else {
 113:main.c        ****             FreeflyAPI.control.pan.value = 0.0f;   // Example value
 302              		.loc 1 113 0
 303 005a 0022     		movs	r2, #0
 304 005c 1D4B     		ldr	r3, .L24+16
 305 005e 1A61     		str	r2, [r3, #16]	@ float
 306              	.L17:
 114:main.c        ****         }
 115:main.c        ****         
 116:main.c        ****         // Encode the control message
 117:main.c        ****         uint8_t uart_buf[128];
 118:main.c        ****         uint16_t uart_len;
 119:main.c        ****         ff_api_encode_control(uart_buf, &uart_len);
ARM GAS  C:\Users\hamis\AppData\Local\Temp\ccfstIpD.s 			page 9


 307              		.loc 1 119 0
 308 0060 0DF10201 		add	r1, sp, #2
 309 0064 06A8     		add	r0, sp, #24
 310 0066 FFF7FEFF 		bl	ff_api_encode_control
 311              	.LVL30:
 312              	.LBB4:
 120:main.c        ****         
 121:main.c        ****         // Calculate checksum on control packet
 122:main.c        ****         uint8_t checksum = 0;
 123:main.c        ****         for (int i = 3; i <= 30; i++) {
 313              		.loc 1 123 0
 314 006a 0322     		movs	r2, #3
 315              	.LBE4:
 122:main.c        ****         for (int i = 3; i <= 30; i++) {
 316              		.loc 1 122 0
 317 006c 0023     		movs	r3, #0
 318              	.LBB5:
 319              		.loc 1 123 0
 320 006e 06E0     		b	.L18
 321              	.LVL31:
 322              	.L19:
 124:main.c        ****             checksum += uart_buf[i];
 323              		.loc 1 124 0 discriminator 3
 324 0070 26A9     		add	r1, sp, #152
 325 0072 1144     		add	r1, r1, r2
 326 0074 11F8801C 		ldrb	r1, [r1, #-128]	@ zero_extendqisi2
 327 0078 0B44     		add	r3, r3, r1
 328              	.LVL32:
 329 007a DBB2     		uxtb	r3, r3
 330              	.LVL33:
 123:main.c        ****             checksum += uart_buf[i];
 331              		.loc 1 123 0 discriminator 3
 332 007c 0132     		adds	r2, r2, #1
 333              	.LVL34:
 334              	.L18:
 123:main.c        ****             checksum += uart_buf[i];
 335              		.loc 1 123 0 is_stmt 0 discriminator 1
 336 007e 1E2A     		cmp	r2, #30
 337 0080 F6DD     		ble	.L19
 338              	.LBE5:
 125:main.c        ****         }
 126:main.c        ****         checksum = 255 - (checksum % 256);
 339              		.loc 1 126 0 is_stmt 1
 340 0082 DB43     		mvns	r3, r3
 341              	.LVL35:
 342 0084 DBB2     		uxtb	r3, r3
 343              	.LVL36:
 127:main.c        ****         // Compare to packet
 128:main.c        ****         if (uart_buf[31] == checksum) {
 344              		.loc 1 128 0
 345 0086 9DF83720 		ldrb	r2, [sp, #55]	@ zero_extendqisi2
 346              	.LVL37:
 347 008a 9342     		cmp	r3, r2
 348 008c 03D1     		bne	.L20
 129:main.c        ****             // Checksum is valid
 130:main.c        ****              UART_PutString("Checksum is valid!\r\n");
 349              		.loc 1 130 0
ARM GAS  C:\Users\hamis\AppData\Local\Temp\ccfstIpD.s 			page 10


 350 008e 1348     		ldr	r0, .L24+24
 351 0090 FFF7FEFF 		bl	UART_PutString
 352              	.LVL38:
 353 0094 02E0     		b	.L21
 354              	.LVL39:
 355              	.L20:
 131:main.c        ****         } else {
 132:main.c        ****             // Checksum error
 133:main.c        ****              UART_PutString("Checksum error ):\r\n");
 356              		.loc 1 133 0
 357 0096 1248     		ldr	r0, .L24+28
 358 0098 FFF7FEFF 		bl	UART_PutString
 359              	.LVL40:
 360              	.L21:
 134:main.c        ****         }
 135:main.c        ****         
 136:main.c        ****         UART_PutString("Raw command:\r\n");
 361              		.loc 1 136 0
 362 009c 1148     		ldr	r0, .L24+32
 363 009e FFF7FEFF 		bl	UART_PutString
 364              	.LVL41:
 137:main.c        ****         // Send the message over UART
 138:main.c        ****         UART_PutArray(uart_buf, uart_len);
 365              		.loc 1 138 0
 366 00a2 9DF80210 		ldrb	r1, [sp, #2]	@ zero_extendqisi2
 367 00a6 06A8     		add	r0, sp, #24
 368 00a8 FFF7FEFF 		bl	UART_PutArray
 369              	.LVL42:
 139:main.c        ****         
 140:main.c        ****         
 141:main.c        ****         
 142:main.c        ****         // Create spacing
 143:main.c        ****         UART_PutString("\r\n");
 370              		.loc 1 143 0
 371 00ac 0E4C     		ldr	r4, .L24+36
 372 00ae 2046     		mov	r0, r4
 373 00b0 FFF7FEFF 		bl	UART_PutString
 374              	.LVL43:
 144:main.c        ****         UART_PutString("\r\n");
 375              		.loc 1 144 0
 376 00b4 2046     		mov	r0, r4
 377 00b6 FFF7FEFF 		bl	UART_PutString
 378              	.LVL44:
 145:main.c        **** 
 146:main.c        ****         // Poll for status every second (optional)
 147:main.c        ****         CyDelay(1000);
 379              		.loc 1 147 0
 380 00ba 4FF47A70 		mov	r0, #1000
 381 00be FFF7FEFF 		bl	CyDelay
 382              	.LVL45:
 383              	.LBE3:
 148:main.c        ****     }
 384              		.loc 1 148 0
 385 00c2 B0E7     		b	.L22
 386              	.L25:
 387              		.align	2
 388              	.L24:
ARM GAS  C:\Users\hamis\AppData\Local\Temp\ccfstIpD.s 			page 11


 389 00c4 00000000 		.word	QX_ParsePacket_Cli_MoVI_Ctrl_CB
 390 00c8 00000000 		.word	QX_Clients
 391 00cc 00000000 		.word	.LC0
 392 00d0 00000000 		.word	UART_RX_ISR
 393 00d4 00000000 		.word	FreeflyAPI
 394 00d8 1C000000 		.word	.LC1
 395 00dc 28000000 		.word	.LC2
 396 00e0 40000000 		.word	.LC3
 397 00e4 54000000 		.word	.LC4
 398 00e8 64000000 		.word	.LC5
 399              		.cfi_endproc
 400              	.LFE66:
 401              		.size	main, .-main
 402              		.section	.rodata.str1.4,"aMS",%progbits,1
 403              		.align	2
 404              	.LC0:
 405 0000 25202D2D 		.ascii	"% -- Initialized! -- %\015\012\000"
 405      20496E69 
 405      7469616C 
 405      697A6564 
 405      21202D2D 
 406 0019 000000   		.space	3
 407              	.LC1:
 408 001c 5357313A 		.ascii	"SW1: %d\015\012\000"
 408      2025640D 
 408      0A00
 409 0026 0000     		.space	2
 410              	.LC2:
 411 0028 43686563 		.ascii	"Checksum is valid!\015\012\000"
 411      6B73756D 
 411      20697320 
 411      76616C69 
 411      64210D0A 
 412 003d 000000   		.space	3
 413              	.LC3:
 414 0040 43686563 		.ascii	"Checksum error ):\015\012\000"
 414      6B73756D 
 414      20657272 
 414      6F722029 
 414      3A0D0A00 
 415              	.LC4:
 416 0054 52617720 		.ascii	"Raw command:\015\012\000"
 416      636F6D6D 
 416      616E643A 
 416      0D0A00
 417 0063 00       		.space	1
 418              	.LC5:
 419 0064 0D0A00   		.ascii	"\015\012\000"
 420              		.text
 421              	.Letext0:
 422              		.file 2 "d:\\program files (x86)\\psoc creator\\4.4\\psoc creator\\import\\gnu\\arm\\5.4.1\\arm-no
 423              		.file 3 "d:\\program files (x86)\\psoc creator\\4.4\\psoc creator\\import\\gnu\\arm\\5.4.1\\arm-no
 424              		.file 4 "D:\\PSoC Programs\\FreeflyAPI/QX_App_Config.h"
 425              		.file 5 "D:\\PSoC Programs\\FreeflyAPI/QX_Protocol.h"
 426              		.file 6 "D:\\PSoC Programs\\FreeflyAPI/QX_Protocol_App.h"
 427              		.file 7 "Generated_Source\\PSoC5/core_cm3.h"
 428              		.file 8 "Generated_Source\\PSoC5/UART.h"
ARM GAS  C:\Users\hamis\AppData\Local\Temp\ccfstIpD.s 			page 12


 429              		.file 9 "Generated_Source\\PSoC5/CyLib.h"
 430              		.file 10 "Generated_Source\\PSoC5/SW1_debounced.h"
 431              		.file 11 "<built-in>"
 432              		.file 12 "Generated_Source\\PSoC5/isr_rx.h"