ARM GAS  C:\Users\hamis\AppData\Local\Temp\cc1fRzXM.s 			page 1


   1              		.syntax unified
   2              		.cpu cortex-m3
   3              		.fpu softvfp
   4              		.eabi_attribute 20, 1
   5              		.eabi_attribute 21, 1
   6              		.eabi_attribute 23, 3
   7              		.eabi_attribute 24, 1
   8              		.eabi_attribute 25, 1
   9              		.eabi_attribute 26, 1
  10              		.eabi_attribute 30, 1
  11              		.eabi_attribute 34, 1
  12              		.eabi_attribute 18, 4
  13              		.thumb
  14              		.syntax unified
  15              		.file	"QX_Parsing_Functions.c"
  16              		.text
  17              	.Ltext0:
  18              		.cfi_sections	.debug_frame
  19              		.section	.text.QX_Parser_SetMsgPtr,"ax",%progbits
  20              		.align	2
  21              		.global	QX_Parser_SetMsgPtr
  22              		.thumb
  23              		.thumb_func
  24              		.type	QX_Parser_SetMsgPtr, %function
  25              	QX_Parser_SetMsgPtr:
  26              	.LFB0:
  27              		.file 1 "..\\..\\FreeflyAPI\\QX_Parsing_Functions.c"
   1:..\..\FreeflyAPI/QX_Parsing_Functions.c **** /*-----------------------------------------------------------------
   2:..\..\FreeflyAPI/QX_Parsing_Functions.c **** 	Copyright 2017 Freefly Systems
   3:..\..\FreeflyAPI/QX_Parsing_Functions.c **** 
   4:..\..\FreeflyAPI/QX_Parsing_Functions.c **** 	Licensed under the Apache License, Version 2.0 (the "License");
   5:..\..\FreeflyAPI/QX_Parsing_Functions.c **** 	you may not use this file except in compliance with the License.
   6:..\..\FreeflyAPI/QX_Parsing_Functions.c **** 	You may obtain a copy of the License at
   7:..\..\FreeflyAPI/QX_Parsing_Functions.c **** 
   8:..\..\FreeflyAPI/QX_Parsing_Functions.c **** 		http://www.apache.org/licenses/LICENSE-2.0
   9:..\..\FreeflyAPI/QX_Parsing_Functions.c **** 
  10:..\..\FreeflyAPI/QX_Parsing_Functions.c **** 	Unless required by applicable law or agreed to in writing, software
  11:..\..\FreeflyAPI/QX_Parsing_Functions.c **** 	distributed under the License is distributed on an "AS IS" BASIS,
  12:..\..\FreeflyAPI/QX_Parsing_Functions.c **** 	WITHOUT WARRANTIES OR CONDITIONS OF ANY KIND, either express or implied.
  13:..\..\FreeflyAPI/QX_Parsing_Functions.c **** 	See the License for the specific language governing permissions and
  14:..\..\FreeflyAPI/QX_Parsing_Functions.c **** 	limitations under the License.
  15:..\..\FreeflyAPI/QX_Parsing_Functions.c **** 		
  16:..\..\FreeflyAPI/QX_Parsing_Functions.c ****     Filename: "QX_Parsing_Functions.c"
  17:..\..\FreeflyAPI/QX_Parsing_Functions.c **** -----------------------------------------------------------------*/
  18:..\..\FreeflyAPI/QX_Parsing_Functions.c **** 
  19:..\..\FreeflyAPI/QX_Parsing_Functions.c **** //****************************************************************************
  20:..\..\FreeflyAPI/QX_Parsing_Functions.c **** // Headers
  21:..\..\FreeflyAPI/QX_Parsing_Functions.c **** //****************************************************************************
  22:..\..\FreeflyAPI/QX_Parsing_Functions.c **** #include "QX_Parsing_Functions.h"
  23:..\..\FreeflyAPI/QX_Parsing_Functions.c **** #include <stdlib.h>		// for Standard Data Types
  24:..\..\FreeflyAPI/QX_Parsing_Functions.c **** #include <stdint.h>		// for Standard Data Types
  25:..\..\FreeflyAPI/QX_Parsing_Functions.c **** #include <math.h>
  26:..\..\FreeflyAPI/QX_Parsing_Functions.c **** 
  27:..\..\FreeflyAPI/QX_Parsing_Functions.c **** //****************************************************************************
  28:..\..\FreeflyAPI/QX_Parsing_Functions.c **** // Private Global Vars
  29:..\..\FreeflyAPI/QX_Parsing_Functions.c **** //****************************************************************************
  30:..\..\FreeflyAPI/QX_Parsing_Functions.c **** volatile uint8_t *msgPtr;
ARM GAS  C:\Users\hamis\AppData\Local\Temp\cc1fRzXM.s 			page 2


  31:..\..\FreeflyAPI/QX_Parsing_Functions.c **** QB_Parser_Dir_e rw;
  32:..\..\FreeflyAPI/QX_Parsing_Functions.c **** QB_Parser_Dir_e rw_orig;
  33:..\..\FreeflyAPI/QX_Parsing_Functions.c **** 
  34:..\..\FreeflyAPI/QX_Parsing_Functions.c **** uint16_t get_uint16_t;
  35:..\..\FreeflyAPI/QX_Parsing_Functions.c **** 
  36:..\..\FreeflyAPI/QX_Parsing_Functions.c **** //****************************************************************************
  37:..\..\FreeflyAPI/QX_Parsing_Functions.c **** // Private Defines
  38:..\..\FreeflyAPI/QX_Parsing_Functions.c **** //****************************************************************************
  39:..\..\FreeflyAPI/QX_Parsing_Functions.c **** 
  40:..\..\FreeflyAPI/QX_Parsing_Functions.c **** // Bit Masks
  41:..\..\FreeflyAPI/QX_Parsing_Functions.c **** #define BITFIELD_MASK_1                    0x01
  42:..\..\FreeflyAPI/QX_Parsing_Functions.c **** #define BITFIELD_MASK_2                    0x03
  43:..\..\FreeflyAPI/QX_Parsing_Functions.c **** #define BITFIELD_MASK_3                    0x07
  44:..\..\FreeflyAPI/QX_Parsing_Functions.c **** #define BITFIELD_MASK_4                    0x0F
  45:..\..\FreeflyAPI/QX_Parsing_Functions.c **** #define BITFIELD_MASK_5                    0x1F
  46:..\..\FreeflyAPI/QX_Parsing_Functions.c **** #define BITFIELD_MASK_6                    0x3F
  47:..\..\FreeflyAPI/QX_Parsing_Functions.c **** #define BITFIELD_MASK_7                    0x7F
  48:..\..\FreeflyAPI/QX_Parsing_Functions.c **** #define BITFIELD_MASK_8                    0xFF
  49:..\..\FreeflyAPI/QX_Parsing_Functions.c **** 
  50:..\..\FreeflyAPI/QX_Parsing_Functions.c **** // Parser Macros
  51:..\..\FreeflyAPI/QX_Parsing_Functions.c **** #define ADDSL(v) { *msgPtr++ = (uint8_t)(v >> 24); *msgPtr++ = (uint8_t)(v >> 16); *msgPtr++ = (uin
  52:..\..\FreeflyAPI/QX_Parsing_Functions.c **** #define ADDSS(v) { *msgPtr++ = (uint8_t)(v >> 8); *msgPtr++ = (uint8_t)(v); }
  53:..\..\FreeflyAPI/QX_Parsing_Functions.c **** #define ADDUS(v) { *msgPtr++ = (uint8_t)(v >> 8); *msgPtr++ = (uint8_t)(v); }
  54:..\..\FreeflyAPI/QX_Parsing_Functions.c **** #define ADDCHAR(v) { *msgPtr++ = (uint8_t)(v); }
  55:..\..\FreeflyAPI/QX_Parsing_Functions.c **** 
  56:..\..\FreeflyAPI/QX_Parsing_Functions.c **** #define GETUC ((uint8_t)*msgPtr++)
  57:..\..\FreeflyAPI/QX_Parsing_Functions.c **** #define GETSC ((int8_t)*msgPtr++)
  58:..\..\FreeflyAPI/QX_Parsing_Functions.c **** #define GETSS ((int16_t)((*msgPtr) << 8) | (int16_t)((*(msgPtr + 1)))); msgPtr += 2;
  59:..\..\FreeflyAPI/QX_Parsing_Functions.c **** #define GETUS ((uint16_t)((*msgPtr) << 8) | (uint16_t)((*(msgPtr + 1)))); msgPtr += 2;
  60:..\..\FreeflyAPI/QX_Parsing_Functions.c **** #define GETSL ((int32_t)((*msgPtr) << 24) | (int32_t)((*(msgPtr + 1)) << 16) | (int32_t)((*(msgPtr 
  61:..\..\FreeflyAPI/QX_Parsing_Functions.c **** 
  62:..\..\FreeflyAPI/QX_Parsing_Functions.c **** 
  63:..\..\FreeflyAPI/QX_Parsing_Functions.c **** //****************************************************************************
  64:..\..\FreeflyAPI/QX_Parsing_Functions.c **** // Public Function Definitions
  65:..\..\FreeflyAPI/QX_Parsing_Functions.c **** //****************************************************************************
  66:..\..\FreeflyAPI/QX_Parsing_Functions.c **** 
  67:..\..\FreeflyAPI/QX_Parsing_Functions.c **** // Set the Parser Message Pointer. 
  68:..\..\FreeflyAPI/QX_Parsing_Functions.c **** // This function is used prior to the first parsing function calls, then the parsing functions incr
  69:..\..\FreeflyAPI/QX_Parsing_Functions.c **** void QX_Parser_SetMsgPtr(uint8_t *p){
  28              		.loc 1 69 0
  29              		.cfi_startproc
  30              		@ args = 0, pretend = 0, frame = 0
  31              		@ frame_needed = 0, uses_anonymous_args = 0
  32              		@ link register save eliminated.
  33              	.LVL0:
  70:..\..\FreeflyAPI/QX_Parsing_Functions.c **** 	msgPtr = p;
  34              		.loc 1 70 0
  35 0000 014B     		ldr	r3, .L2
  36 0002 1860     		str	r0, [r3]
  37 0004 7047     		bx	lr
  38              	.L3:
  39 0006 00BF     		.align	2
  40              	.L2:
  41 0008 00000000 		.word	msgPtr
  42              		.cfi_endproc
  43              	.LFE0:
  44              		.size	QX_Parser_SetMsgPtr, .-QX_Parser_SetMsgPtr
ARM GAS  C:\Users\hamis\AppData\Local\Temp\cc1fRzXM.s 			page 3


  45              		.section	.text.QX_Parser_AdvMsgPtr,"ax",%progbits
  46              		.align	2
  47              		.global	QX_Parser_AdvMsgPtr
  48              		.thumb
  49              		.thumb_func
  50              		.type	QX_Parser_AdvMsgPtr, %function
  51              	QX_Parser_AdvMsgPtr:
  52              	.LFB1:
  71:..\..\FreeflyAPI/QX_Parsing_Functions.c **** }
  72:..\..\FreeflyAPI/QX_Parsing_Functions.c **** 
  73:..\..\FreeflyAPI/QX_Parsing_Functions.c **** // Move the pointer by one byte (useful for bitfield parser functions that do not advance the point
  74:..\..\FreeflyAPI/QX_Parsing_Functions.c **** void QX_Parser_AdvMsgPtr(void){
  53              		.loc 1 74 0
  54              		.cfi_startproc
  55              		@ args = 0, pretend = 0, frame = 0
  56              		@ frame_needed = 0, uses_anonymous_args = 0
  57              		@ link register save eliminated.
  75:..\..\FreeflyAPI/QX_Parsing_Functions.c **** 	msgPtr++;
  58              		.loc 1 75 0
  59 0000 024A     		ldr	r2, .L5
  60 0002 1368     		ldr	r3, [r2]
  61 0004 0133     		adds	r3, r3, #1
  62 0006 1360     		str	r3, [r2]
  63 0008 7047     		bx	lr
  64              	.L6:
  65 000a 00BF     		.align	2
  66              	.L5:
  67 000c 00000000 		.word	msgPtr
  68              		.cfi_endproc
  69              	.LFE1:
  70              		.size	QX_Parser_AdvMsgPtr, .-QX_Parser_AdvMsgPtr
  71              		.section	.text.QX_Parser_GetMsgPtr,"ax",%progbits
  72              		.align	2
  73              		.global	QX_Parser_GetMsgPtr
  74              		.thumb
  75              		.thumb_func
  76              		.type	QX_Parser_GetMsgPtr, %function
  77              	QX_Parser_GetMsgPtr:
  78              	.LFB2:
  76:..\..\FreeflyAPI/QX_Parsing_Functions.c **** }
  77:..\..\FreeflyAPI/QX_Parsing_Functions.c **** 
  78:..\..\FreeflyAPI/QX_Parsing_Functions.c **** // Gets the Parser Pointer
  79:..\..\FreeflyAPI/QX_Parsing_Functions.c **** volatile uint8_t *QX_Parser_GetMsgPtr(void){
  79              		.loc 1 79 0
  80              		.cfi_startproc
  81              		@ args = 0, pretend = 0, frame = 0
  82              		@ frame_needed = 0, uses_anonymous_args = 0
  83              		@ link register save eliminated.
  80:..\..\FreeflyAPI/QX_Parsing_Functions.c **** 	return msgPtr;
  81:..\..\FreeflyAPI/QX_Parsing_Functions.c **** }
  84              		.loc 1 81 0
  85 0000 014B     		ldr	r3, .L8
  86 0002 1868     		ldr	r0, [r3]
  87 0004 7047     		bx	lr
  88              	.L9:
  89 0006 00BF     		.align	2
  90              	.L8:
ARM GAS  C:\Users\hamis\AppData\Local\Temp\cc1fRzXM.s 			page 4


  91 0008 00000000 		.word	msgPtr
  92              		.cfi_endproc
  93              	.LFE2:
  94              		.size	QX_Parser_GetMsgPtr, .-QX_Parser_GetMsgPtr
  95              		.section	.text.QX_Parser_SetDir_Read,"ax",%progbits
  96              		.align	2
  97              		.global	QX_Parser_SetDir_Read
  98              		.thumb
  99              		.thumb_func
 100              		.type	QX_Parser_SetDir_Read, %function
 101              	QX_Parser_SetDir_Read:
 102              	.LFB3:
  82:..\..\FreeflyAPI/QX_Parsing_Functions.c **** 
  83:..\..\FreeflyAPI/QX_Parsing_Functions.c **** // Sets the Parser to Read
  84:..\..\FreeflyAPI/QX_Parsing_Functions.c **** void QX_Parser_SetDir_Read(void){
 103              		.loc 1 84 0
 104              		.cfi_startproc
 105              		@ args = 0, pretend = 0, frame = 0
 106              		@ frame_needed = 0, uses_anonymous_args = 0
 107              		@ link register save eliminated.
  85:..\..\FreeflyAPI/QX_Parsing_Functions.c **** 	rw = QB_Parser_Dir_Read;
 108              		.loc 1 85 0
 109 0000 0022     		movs	r2, #0
 110 0002 014B     		ldr	r3, .L11
 111 0004 1A70     		strb	r2, [r3]
 112 0006 7047     		bx	lr
 113              	.L12:
 114              		.align	2
 115              	.L11:
 116 0008 00000000 		.word	rw
 117              		.cfi_endproc
 118              	.LFE3:
 119              		.size	QX_Parser_SetDir_Read, .-QX_Parser_SetDir_Read
 120              		.section	.text.QX_Parser_SetDir_WriteRel,"ax",%progbits
 121              		.align	2
 122              		.global	QX_Parser_SetDir_WriteRel
 123              		.thumb
 124              		.thumb_func
 125              		.type	QX_Parser_SetDir_WriteRel, %function
 126              	QX_Parser_SetDir_WriteRel:
 127              	.LFB4:
  86:..\..\FreeflyAPI/QX_Parsing_Functions.c **** }
  87:..\..\FreeflyAPI/QX_Parsing_Functions.c **** 
  88:..\..\FreeflyAPI/QX_Parsing_Functions.c **** // Sets the Parser to Delta Write
  89:..\..\FreeflyAPI/QX_Parsing_Functions.c **** void QX_Parser_SetDir_WriteRel(void){
 128              		.loc 1 89 0
 129              		.cfi_startproc
 130              		@ args = 0, pretend = 0, frame = 0
 131              		@ frame_needed = 0, uses_anonymous_args = 0
 132              		@ link register save eliminated.
  90:..\..\FreeflyAPI/QX_Parsing_Functions.c **** 	rw = QB_Parser_Dir_WriteDel;
 133              		.loc 1 90 0
 134 0000 0122     		movs	r2, #1
 135 0002 014B     		ldr	r3, .L14
 136 0004 1A70     		strb	r2, [r3]
 137 0006 7047     		bx	lr
 138              	.L15:
ARM GAS  C:\Users\hamis\AppData\Local\Temp\cc1fRzXM.s 			page 5


 139              		.align	2
 140              	.L14:
 141 0008 00000000 		.word	rw
 142              		.cfi_endproc
 143              	.LFE4:
 144              		.size	QX_Parser_SetDir_WriteRel, .-QX_Parser_SetDir_WriteRel
 145              		.section	.text.QX_Parser_SetDir_WriteAbs,"ax",%progbits
 146              		.align	2
 147              		.global	QX_Parser_SetDir_WriteAbs
 148              		.thumb
 149              		.thumb_func
 150              		.type	QX_Parser_SetDir_WriteAbs, %function
 151              	QX_Parser_SetDir_WriteAbs:
 152              	.LFB5:
  91:..\..\FreeflyAPI/QX_Parsing_Functions.c **** }
  92:..\..\FreeflyAPI/QX_Parsing_Functions.c **** 
  93:..\..\FreeflyAPI/QX_Parsing_Functions.c **** // Sets the Parser to Absolute Write
  94:..\..\FreeflyAPI/QX_Parsing_Functions.c **** void QX_Parser_SetDir_WriteAbs(void){
 153              		.loc 1 94 0
 154              		.cfi_startproc
 155              		@ args = 0, pretend = 0, frame = 0
 156              		@ frame_needed = 0, uses_anonymous_args = 0
 157              		@ link register save eliminated.
  95:..\..\FreeflyAPI/QX_Parsing_Functions.c **** 	rw = QB_Parser_Dir_WriteAbs;
 158              		.loc 1 95 0
 159 0000 0222     		movs	r2, #2
 160 0002 014B     		ldr	r3, .L17
 161 0004 1A70     		strb	r2, [r3]
 162 0006 7047     		bx	lr
 163              	.L18:
 164              		.align	2
 165              	.L17:
 166 0008 00000000 		.word	rw
 167              		.cfi_endproc
 168              	.LFE5:
 169              		.size	QX_Parser_SetDir_WriteAbs, .-QX_Parser_SetDir_WriteAbs
 170              		.section	.text.QX_Parser_GetDir,"ax",%progbits
 171              		.align	2
 172              		.global	QX_Parser_GetDir
 173              		.thumb
 174              		.thumb_func
 175              		.type	QX_Parser_GetDir, %function
 176              	QX_Parser_GetDir:
 177              	.LFB6:
  96:..\..\FreeflyAPI/QX_Parsing_Functions.c **** }
  97:..\..\FreeflyAPI/QX_Parsing_Functions.c **** 
  98:..\..\FreeflyAPI/QX_Parsing_Functions.c **** // Get the parsing type
  99:..\..\FreeflyAPI/QX_Parsing_Functions.c **** QB_Parser_Dir_e QX_Parser_GetDir(void){
 178              		.loc 1 99 0
 179              		.cfi_startproc
 180              		@ args = 0, pretend = 0, frame = 0
 181              		@ frame_needed = 0, uses_anonymous_args = 0
 182              		@ link register save eliminated.
 100:..\..\FreeflyAPI/QX_Parsing_Functions.c **** 	return rw;
 101:..\..\FreeflyAPI/QX_Parsing_Functions.c **** }
 183              		.loc 1 101 0
 184 0000 014B     		ldr	r3, .L20
ARM GAS  C:\Users\hamis\AppData\Local\Temp\cc1fRzXM.s 			page 6


 185 0002 1878     		ldrb	r0, [r3]	@ zero_extendqisi2
 186 0004 7047     		bx	lr
 187              	.L21:
 188 0006 00BF     		.align	2
 189              	.L20:
 190 0008 00000000 		.word	rw
 191              		.cfi_endproc
 192              	.LFE6:
 193              		.size	QX_Parser_GetDir, .-QX_Parser_GetDir
 194              		.section	.text.QX_Parser_Dir_ForceWriteAbs_Set,"ax",%progbits
 195              		.align	2
 196              		.global	QX_Parser_Dir_ForceWriteAbs_Set
 197              		.thumb
 198              		.thumb_func
 199              		.type	QX_Parser_Dir_ForceWriteAbs_Set, %function
 200              	QX_Parser_Dir_ForceWriteAbs_Set:
 201              	.LFB7:
 102:..\..\FreeflyAPI/QX_Parsing_Functions.c **** 
 103:..\..\FreeflyAPI/QX_Parsing_Functions.c **** // If write, temporarily force the parsing to be absolute, for attributes that have some absolute o
 104:..\..\FreeflyAPI/QX_Parsing_Functions.c **** void QX_Parser_Dir_ForceWriteAbs_Set(void){
 202              		.loc 1 104 0
 203              		.cfi_startproc
 204              		@ args = 0, pretend = 0, frame = 0
 205              		@ frame_needed = 0, uses_anonymous_args = 0
 206              		@ link register save eliminated.
 105:..\..\FreeflyAPI/QX_Parsing_Functions.c **** 	rw_orig = rw;
 207              		.loc 1 105 0
 208 0000 044B     		ldr	r3, .L24
 209 0002 1B78     		ldrb	r3, [r3]	@ zero_extendqisi2
 210 0004 044A     		ldr	r2, .L24+4
 211 0006 1370     		strb	r3, [r2]
 106:..\..\FreeflyAPI/QX_Parsing_Functions.c **** 	if (rw == QB_Parser_Dir_WriteDel){
 212              		.loc 1 106 0
 213 0008 012B     		cmp	r3, #1
 214 000a 02D1     		bne	.L22
 107:..\..\FreeflyAPI/QX_Parsing_Functions.c **** 		rw = QB_Parser_Dir_WriteAbs;
 215              		.loc 1 107 0
 216 000c 0222     		movs	r2, #2
 217 000e 014B     		ldr	r3, .L24
 218 0010 1A70     		strb	r2, [r3]
 219              	.L22:
 220 0012 7047     		bx	lr
 221              	.L25:
 222              		.align	2
 223              	.L24:
 224 0014 00000000 		.word	rw
 225 0018 00000000 		.word	rw_orig
 226              		.cfi_endproc
 227              	.LFE7:
 228              		.size	QX_Parser_Dir_ForceWriteAbs_Set, .-QX_Parser_Dir_ForceWriteAbs_Set
 229              		.section	.text.QX_Parser_Dir_ForceWriteAbs_Reset,"ax",%progbits
 230              		.align	2
 231              		.global	QX_Parser_Dir_ForceWriteAbs_Reset
 232              		.thumb
 233              		.thumb_func
 234              		.type	QX_Parser_Dir_ForceWriteAbs_Reset, %function
 235              	QX_Parser_Dir_ForceWriteAbs_Reset:
ARM GAS  C:\Users\hamis\AppData\Local\Temp\cc1fRzXM.s 			page 7


 236              	.LFB8:
 108:..\..\FreeflyAPI/QX_Parsing_Functions.c **** 	}
 109:..\..\FreeflyAPI/QX_Parsing_Functions.c **** }
 110:..\..\FreeflyAPI/QX_Parsing_Functions.c **** 
 111:..\..\FreeflyAPI/QX_Parsing_Functions.c **** // Reset temporary absolute parser forcing
 112:..\..\FreeflyAPI/QX_Parsing_Functions.c **** void QX_Parser_Dir_ForceWriteAbs_Reset(void){
 237              		.loc 1 112 0
 238              		.cfi_startproc
 239              		@ args = 0, pretend = 0, frame = 0
 240              		@ frame_needed = 0, uses_anonymous_args = 0
 241              		@ link register save eliminated.
 113:..\..\FreeflyAPI/QX_Parsing_Functions.c **** 	rw = rw_orig;
 242              		.loc 1 113 0
 243 0000 024B     		ldr	r3, .L27
 244 0002 1A78     		ldrb	r2, [r3]	@ zero_extendqisi2
 245 0004 024B     		ldr	r3, .L27+4
 246 0006 1A70     		strb	r2, [r3]
 247 0008 7047     		bx	lr
 248              	.L28:
 249 000a 00BF     		.align	2
 250              	.L27:
 251 000c 00000000 		.word	rw_orig
 252 0010 00000000 		.word	rw
 253              		.cfi_endproc
 254              	.LFE8:
 255              		.size	QX_Parser_Dir_ForceWriteAbs_Reset, .-QX_Parser_Dir_ForceWriteAbs_Reset
 256              		.global	__aeabi_fmul
 257              		.global	__aeabi_fcmpgt
 258              		.global	__aeabi_fcmplt
 259              		.global	__aeabi_i2f
 260              		.global	__aeabi_fadd
 261              		.global	__aeabi_f2iz
 262              		.section	.text.AddFloatAsSignedLong,"ax",%progbits
 263              		.align	2
 264              		.global	AddFloatAsSignedLong
 265              		.thumb
 266              		.thumb_func
 267              		.type	AddFloatAsSignedLong, %function
 268              	AddFloatAsSignedLong:
 269              	.LFB9:
 114:..\..\FreeflyAPI/QX_Parsing_Functions.c **** }
 115:..\..\FreeflyAPI/QX_Parsing_Functions.c **** 
 116:..\..\FreeflyAPI/QX_Parsing_Functions.c **** //****************************************************************************
 117:..\..\FreeflyAPI/QX_Parsing_Functions.c **** // Private Function Definitions
 118:..\..\FreeflyAPI/QX_Parsing_Functions.c **** //****************************************************************************
 119:..\..\FreeflyAPI/QX_Parsing_Functions.c **** 
 120:..\..\FreeflyAPI/QX_Parsing_Functions.c **** void AddFloatAsSignedLong(float *v, uint32_t n, float scaleto)
 121:..\..\FreeflyAPI/QX_Parsing_Functions.c **** {
 270              		.loc 1 121 0
 271              		.cfi_startproc
 272              		@ args = 0, pretend = 0, frame = 0
 273              		@ frame_needed = 0, uses_anonymous_args = 0
 274              	.LVL1:
 275 0000 2DE9F047 		push	{r4, r5, r6, r7, r8, r9, r10, lr}
 276              		.cfi_def_cfa_offset 32
 277              		.cfi_offset 4, -32
 278              		.cfi_offset 5, -28
ARM GAS  C:\Users\hamis\AppData\Local\Temp\cc1fRzXM.s 			page 8


 279              		.cfi_offset 6, -24
 280              		.cfi_offset 7, -20
 281              		.cfi_offset 8, -16
 282              		.cfi_offset 9, -12
 283              		.cfi_offset 10, -8
 284              		.cfi_offset 14, -4
 285 0004 0546     		mov	r5, r0
 286 0006 1746     		mov	r7, r2
 122:..\..\FreeflyAPI/QX_Parsing_Functions.c ****     while(n--)
 287              		.loc 1 122 0
 288 0008 3DE0     		b	.L30
 289              	.LVL2:
 290              	.L33:
 291              	.LBB2:
 123:..\..\FreeflyAPI/QX_Parsing_Functions.c ****     {
 124:..\..\FreeflyAPI/QX_Parsing_Functions.c ****         int32_t value = (int32_t)(((*v) * scaleto) + 0.5f * ((0 < *v) - (*v < 0)));
 292              		.loc 1 124 0
 293 000a D5F80080 		ldr	r8, [r5]	@ float
 294 000e 3946     		mov	r1, r7
 295 0010 4046     		mov	r0, r8
 296 0012 FFF7FEFF 		bl	__aeabi_fmul
 297              	.LVL3:
 298 0016 8246     		mov	r10, r0
 299 0018 0124     		movs	r4, #1
 300 001a 0021     		movs	r1, #0
 301 001c 4046     		mov	r0, r8
 302 001e FFF7FEFF 		bl	__aeabi_fcmpgt
 303              	.LVL4:
 304 0022 00B9     		cbnz	r0, .L31
 305 0024 0024     		movs	r4, #0
 306              	.L31:
 307 0026 4FF00109 		mov	r9, #1
 308 002a 0021     		movs	r1, #0
 309 002c 4046     		mov	r0, r8
 310 002e FFF7FEFF 		bl	__aeabi_fcmplt
 311              	.LVL5:
 312 0032 08B9     		cbnz	r0, .L32
 313 0034 4FF00009 		mov	r9, #0
 314              	.L32:
 315 0038 C9EB0400 		rsb	r0, r9, r4
 316 003c FFF7FEFF 		bl	__aeabi_i2f
 317              	.LVL6:
 318 0040 4FF07C51 		mov	r1, #1056964608
 319 0044 FFF7FEFF 		bl	__aeabi_fmul
 320              	.LVL7:
 321 0048 0146     		mov	r1, r0
 322 004a 5046     		mov	r0, r10
 323 004c FFF7FEFF 		bl	__aeabi_fadd
 324              	.LVL8:
 325 0050 FFF7FEFF 		bl	__aeabi_f2iz
 326              	.LVL9:
 125:..\..\FreeflyAPI/QX_Parsing_Functions.c ****         ADDSL(value);
 327              		.loc 1 125 0
 328 0054 0E4B     		ldr	r3, .L35
 329 0056 1A68     		ldr	r2, [r3]
 330 0058 511C     		adds	r1, r2, #1
 331 005a 1960     		str	r1, [r3]
ARM GAS  C:\Users\hamis\AppData\Local\Temp\cc1fRzXM.s 			page 9


 332 005c 010E     		lsrs	r1, r0, #24
 333 005e 1170     		strb	r1, [r2]
 334 0060 1A68     		ldr	r2, [r3]
 335 0062 511C     		adds	r1, r2, #1
 336 0064 1960     		str	r1, [r3]
 337 0066 C0F30741 		ubfx	r1, r0, #16, #8
 338 006a 1170     		strb	r1, [r2]
 339 006c 1A68     		ldr	r2, [r3]
 340 006e 511C     		adds	r1, r2, #1
 341 0070 1960     		str	r1, [r3]
 342 0072 C0F30721 		ubfx	r1, r0, #8, #8
 343 0076 1170     		strb	r1, [r2]
 344 0078 1A68     		ldr	r2, [r3]
 345 007a 511C     		adds	r1, r2, #1
 346 007c 1960     		str	r1, [r3]
 347 007e C0B2     		uxtb	r0, r0
 348              	.LVL10:
 349 0080 1070     		strb	r0, [r2]
 126:..\..\FreeflyAPI/QX_Parsing_Functions.c ****         v++;
 350              		.loc 1 126 0
 351 0082 0435     		adds	r5, r5, #4
 352              	.LVL11:
 353              	.LBE2:
 122:..\..\FreeflyAPI/QX_Parsing_Functions.c ****     {
 354              		.loc 1 122 0
 355 0084 3146     		mov	r1, r6
 356              	.LVL12:
 357              	.L30:
 358 0086 4E1E     		subs	r6, r1, #1
 359              	.LVL13:
 360 0088 0029     		cmp	r1, #0
 361 008a BED1     		bne	.L33
 127:..\..\FreeflyAPI/QX_Parsing_Functions.c ****     }
 128:..\..\FreeflyAPI/QX_Parsing_Functions.c **** }
 362              		.loc 1 128 0
 363 008c BDE8F087 		pop	{r4, r5, r6, r7, r8, r9, r10, pc}
 364              	.LVL14:
 365              	.L36:
 366              		.align	2
 367              	.L35:
 368 0090 00000000 		.word	msgPtr
 369              		.cfi_endproc
 370              	.LFE9:
 371              		.size	AddFloatAsSignedLong, .-AddFloatAsSignedLong
 372              		.section	.text.AddFloatAsSignedShort,"ax",%progbits
 373              		.align	2
 374              		.global	AddFloatAsSignedShort
 375              		.thumb
 376              		.thumb_func
 377              		.type	AddFloatAsSignedShort, %function
 378              	AddFloatAsSignedShort:
 379              	.LFB10:
 129:..\..\FreeflyAPI/QX_Parsing_Functions.c **** 
 130:..\..\FreeflyAPI/QX_Parsing_Functions.c **** void AddFloatAsSignedShort(float *v, uint32_t n, float scaleto)
 131:..\..\FreeflyAPI/QX_Parsing_Functions.c **** {
 380              		.loc 1 131 0
 381              		.cfi_startproc
ARM GAS  C:\Users\hamis\AppData\Local\Temp\cc1fRzXM.s 			page 10


 382              		@ args = 0, pretend = 0, frame = 0
 383              		@ frame_needed = 0, uses_anonymous_args = 0
 384              	.LVL15:
 385 0000 2DE9F047 		push	{r4, r5, r6, r7, r8, r9, r10, lr}
 386              		.cfi_def_cfa_offset 32
 387              		.cfi_offset 4, -32
 388              		.cfi_offset 5, -28
 389              		.cfi_offset 6, -24
 390              		.cfi_offset 7, -20
 391              		.cfi_offset 8, -16
 392              		.cfi_offset 9, -12
 393              		.cfi_offset 10, -8
 394              		.cfi_offset 14, -4
 395 0004 0546     		mov	r5, r0
 396 0006 1746     		mov	r7, r2
 132:..\..\FreeflyAPI/QX_Parsing_Functions.c ****     while(n--)
 397              		.loc 1 132 0
 398 0008 33E0     		b	.L38
 399              	.LVL16:
 400              	.L41:
 401              	.LBB3:
 133:..\..\FreeflyAPI/QX_Parsing_Functions.c ****     {
 134:..\..\FreeflyAPI/QX_Parsing_Functions.c ****         int16_t value = (int16_t)(((*v) * scaleto) + 0.5f * ((0 < *v) - (*v < 0)));
 402              		.loc 1 134 0
 403 000a D5F80080 		ldr	r8, [r5]	@ float
 404 000e 3946     		mov	r1, r7
 405 0010 4046     		mov	r0, r8
 406 0012 FFF7FEFF 		bl	__aeabi_fmul
 407              	.LVL17:
 408 0016 8246     		mov	r10, r0
 409 0018 0124     		movs	r4, #1
 410 001a 0021     		movs	r1, #0
 411 001c 4046     		mov	r0, r8
 412 001e FFF7FEFF 		bl	__aeabi_fcmpgt
 413              	.LVL18:
 414 0022 00B9     		cbnz	r0, .L39
 415 0024 0024     		movs	r4, #0
 416              	.L39:
 417 0026 4FF00109 		mov	r9, #1
 418 002a 0021     		movs	r1, #0
 419 002c 4046     		mov	r0, r8
 420 002e FFF7FEFF 		bl	__aeabi_fcmplt
 421              	.LVL19:
 422 0032 08B9     		cbnz	r0, .L40
 423 0034 4FF00009 		mov	r9, #0
 424              	.L40:
 425 0038 C9EB0400 		rsb	r0, r9, r4
 426 003c FFF7FEFF 		bl	__aeabi_i2f
 427              	.LVL20:
 428 0040 4FF07C51 		mov	r1, #1056964608
 429 0044 FFF7FEFF 		bl	__aeabi_fmul
 430              	.LVL21:
 431 0048 0146     		mov	r1, r0
 432 004a 5046     		mov	r0, r10
 433 004c FFF7FEFF 		bl	__aeabi_fadd
 434              	.LVL22:
 435 0050 FFF7FEFF 		bl	__aeabi_f2iz
ARM GAS  C:\Users\hamis\AppData\Local\Temp\cc1fRzXM.s 			page 11


 436              	.LVL23:
 437 0054 00B2     		sxth	r0, r0
 438              	.LVL24:
 135:..\..\FreeflyAPI/QX_Parsing_Functions.c ****         ADDSS(value);
 439              		.loc 1 135 0
 440 0056 094B     		ldr	r3, .L43
 441 0058 1A68     		ldr	r2, [r3]
 442 005a 511C     		adds	r1, r2, #1
 443 005c 1960     		str	r1, [r3]
 444 005e C0F30721 		ubfx	r1, r0, #8, #8
 445 0062 1170     		strb	r1, [r2]
 446 0064 1A68     		ldr	r2, [r3]
 447 0066 511C     		adds	r1, r2, #1
 448 0068 1960     		str	r1, [r3]
 449 006a C0B2     		uxtb	r0, r0
 450              	.LVL25:
 451 006c 1070     		strb	r0, [r2]
 136:..\..\FreeflyAPI/QX_Parsing_Functions.c ****         v++;
 452              		.loc 1 136 0
 453 006e 0435     		adds	r5, r5, #4
 454              	.LVL26:
 455              	.LBE3:
 132:..\..\FreeflyAPI/QX_Parsing_Functions.c ****     {
 456              		.loc 1 132 0
 457 0070 3146     		mov	r1, r6
 458              	.LVL27:
 459              	.L38:
 460 0072 4E1E     		subs	r6, r1, #1
 461              	.LVL28:
 462 0074 0029     		cmp	r1, #0
 463 0076 C8D1     		bne	.L41
 137:..\..\FreeflyAPI/QX_Parsing_Functions.c ****     }
 138:..\..\FreeflyAPI/QX_Parsing_Functions.c **** }
 464              		.loc 1 138 0
 465 0078 BDE8F087 		pop	{r4, r5, r6, r7, r8, r9, r10, pc}
 466              	.LVL29:
 467              	.L44:
 468              		.align	2
 469              	.L43:
 470 007c 00000000 		.word	msgPtr
 471              		.cfi_endproc
 472              	.LFE10:
 473              		.size	AddFloatAsSignedShort, .-AddFloatAsSignedShort
 474              		.section	.text.AddFloatAsSignedChar,"ax",%progbits
 475              		.align	2
 476              		.global	AddFloatAsSignedChar
 477              		.thumb
 478              		.thumb_func
 479              		.type	AddFloatAsSignedChar, %function
 480              	AddFloatAsSignedChar:
 481              	.LFB11:
 139:..\..\FreeflyAPI/QX_Parsing_Functions.c **** 
 140:..\..\FreeflyAPI/QX_Parsing_Functions.c **** void AddFloatAsSignedChar(float *v, uint32_t n, float scaleto)
 141:..\..\FreeflyAPI/QX_Parsing_Functions.c **** {
 482              		.loc 1 141 0
 483              		.cfi_startproc
 484              		@ args = 0, pretend = 0, frame = 0
ARM GAS  C:\Users\hamis\AppData\Local\Temp\cc1fRzXM.s 			page 12


 485              		@ frame_needed = 0, uses_anonymous_args = 0
 486              	.LVL30:
 487 0000 2DE9F047 		push	{r4, r5, r6, r7, r8, r9, r10, lr}
 488              		.cfi_def_cfa_offset 32
 489              		.cfi_offset 4, -32
 490              		.cfi_offset 5, -28
 491              		.cfi_offset 6, -24
 492              		.cfi_offset 7, -20
 493              		.cfi_offset 8, -16
 494              		.cfi_offset 9, -12
 495              		.cfi_offset 10, -8
 496              		.cfi_offset 14, -4
 497 0004 0646     		mov	r6, r0
 498 0006 9046     		mov	r8, r2
 142:..\..\FreeflyAPI/QX_Parsing_Functions.c ****     while(n--)
 499              		.loc 1 142 0
 500 0008 2BE0     		b	.L46
 501              	.LVL31:
 502              	.L49:
 503              	.LBB4:
 143:..\..\FreeflyAPI/QX_Parsing_Functions.c ****     {
 144:..\..\FreeflyAPI/QX_Parsing_Functions.c ****         int8_t value = (int8_t)(((*v) * scaleto) + 0.5f * ((0 < *v) - (*v < 0)));
 504              		.loc 1 144 0
 505 000a 3568     		ldr	r5, [r6]	@ float
 506 000c 4146     		mov	r1, r8
 507 000e 2846     		mov	r0, r5
 508 0010 FFF7FEFF 		bl	__aeabi_fmul
 509              	.LVL32:
 510 0014 8246     		mov	r10, r0
 511 0016 0124     		movs	r4, #1
 512 0018 0021     		movs	r1, #0
 513 001a 2846     		mov	r0, r5
 514 001c FFF7FEFF 		bl	__aeabi_fcmpgt
 515              	.LVL33:
 516 0020 00B9     		cbnz	r0, .L47
 517 0022 0024     		movs	r4, #0
 518              	.L47:
 519 0024 4FF00109 		mov	r9, #1
 520 0028 0021     		movs	r1, #0
 521 002a 2846     		mov	r0, r5
 522 002c FFF7FEFF 		bl	__aeabi_fcmplt
 523              	.LVL34:
 524 0030 08B9     		cbnz	r0, .L48
 525 0032 4FF00009 		mov	r9, #0
 526              	.L48:
 527 0036 C9EB0400 		rsb	r0, r9, r4
 528 003a FFF7FEFF 		bl	__aeabi_i2f
 529              	.LVL35:
 530 003e 4FF07C51 		mov	r1, #1056964608
 531 0042 FFF7FEFF 		bl	__aeabi_fmul
 532              	.LVL36:
 533 0046 0146     		mov	r1, r0
 534 0048 5046     		mov	r0, r10
 535 004a FFF7FEFF 		bl	__aeabi_fadd
 536              	.LVL37:
 537 004e FFF7FEFF 		bl	__aeabi_f2iz
 538              	.LVL38:
ARM GAS  C:\Users\hamis\AppData\Local\Temp\cc1fRzXM.s 			page 13


 145:..\..\FreeflyAPI/QX_Parsing_Functions.c ****         ADDCHAR(value);
 539              		.loc 1 145 0
 540 0052 064A     		ldr	r2, .L51
 541 0054 1368     		ldr	r3, [r2]
 542 0056 591C     		adds	r1, r3, #1
 543 0058 1160     		str	r1, [r2]
 544 005a C0B2     		uxtb	r0, r0
 545 005c 1870     		strb	r0, [r3]
 146:..\..\FreeflyAPI/QX_Parsing_Functions.c ****         v++;
 546              		.loc 1 146 0
 547 005e 0436     		adds	r6, r6, #4
 548              	.LVL39:
 549              	.LBE4:
 142:..\..\FreeflyAPI/QX_Parsing_Functions.c ****     {
 550              		.loc 1 142 0
 551 0060 3946     		mov	r1, r7
 552              	.LVL40:
 553              	.L46:
 554 0062 4F1E     		subs	r7, r1, #1
 555              	.LVL41:
 556 0064 0029     		cmp	r1, #0
 557 0066 D0D1     		bne	.L49
 147:..\..\FreeflyAPI/QX_Parsing_Functions.c ****     }
 148:..\..\FreeflyAPI/QX_Parsing_Functions.c **** }
 558              		.loc 1 148 0
 559 0068 BDE8F087 		pop	{r4, r5, r6, r7, r8, r9, r10, pc}
 560              	.LVL42:
 561              	.L52:
 562              		.align	2
 563              	.L51:
 564 006c 00000000 		.word	msgPtr
 565              		.cfi_endproc
 566              	.LFE11:
 567              		.size	AddFloatAsSignedChar, .-AddFloatAsSignedChar
 568              		.global	__aeabi_f2uiz
 569              		.section	.text.AddFloatAsUnsignedChar,"ax",%progbits
 570              		.align	2
 571              		.global	AddFloatAsUnsignedChar
 572              		.thumb
 573              		.thumb_func
 574              		.type	AddFloatAsUnsignedChar, %function
 575              	AddFloatAsUnsignedChar:
 576              	.LFB12:
 149:..\..\FreeflyAPI/QX_Parsing_Functions.c **** 
 150:..\..\FreeflyAPI/QX_Parsing_Functions.c **** void AddFloatAsUnsignedChar(float *v, uint32_t n, float scaleto)
 151:..\..\FreeflyAPI/QX_Parsing_Functions.c **** {
 577              		.loc 1 151 0
 578              		.cfi_startproc
 579              		@ args = 0, pretend = 0, frame = 0
 580              		@ frame_needed = 0, uses_anonymous_args = 0
 581              	.LVL43:
 582 0000 2DE9F047 		push	{r4, r5, r6, r7, r8, r9, r10, lr}
 583              		.cfi_def_cfa_offset 32
 584              		.cfi_offset 4, -32
 585              		.cfi_offset 5, -28
 586              		.cfi_offset 6, -24
 587              		.cfi_offset 7, -20
ARM GAS  C:\Users\hamis\AppData\Local\Temp\cc1fRzXM.s 			page 14


 588              		.cfi_offset 8, -16
 589              		.cfi_offset 9, -12
 590              		.cfi_offset 10, -8
 591              		.cfi_offset 14, -4
 592 0004 0646     		mov	r6, r0
 593 0006 9046     		mov	r8, r2
 152:..\..\FreeflyAPI/QX_Parsing_Functions.c ****     while(n--)
 594              		.loc 1 152 0
 595 0008 2BE0     		b	.L54
 596              	.LVL44:
 597              	.L57:
 598              	.LBB5:
 153:..\..\FreeflyAPI/QX_Parsing_Functions.c ****     {
 154:..\..\FreeflyAPI/QX_Parsing_Functions.c ****         uint8_t value = (uint8_t) (((*v) * scaleto) + 0.5f * ((0 < *v) - (*v < 0)));
 599              		.loc 1 154 0
 600 000a 3568     		ldr	r5, [r6]	@ float
 601 000c 4146     		mov	r1, r8
 602 000e 2846     		mov	r0, r5
 603 0010 FFF7FEFF 		bl	__aeabi_fmul
 604              	.LVL45:
 605 0014 8246     		mov	r10, r0
 606 0016 0124     		movs	r4, #1
 607 0018 0021     		movs	r1, #0
 608 001a 2846     		mov	r0, r5
 609 001c FFF7FEFF 		bl	__aeabi_fcmpgt
 610              	.LVL46:
 611 0020 00B9     		cbnz	r0, .L55
 612 0022 0024     		movs	r4, #0
 613              	.L55:
 614 0024 4FF00109 		mov	r9, #1
 615 0028 0021     		movs	r1, #0
 616 002a 2846     		mov	r0, r5
 617 002c FFF7FEFF 		bl	__aeabi_fcmplt
 618              	.LVL47:
 619 0030 08B9     		cbnz	r0, .L56
 620 0032 4FF00009 		mov	r9, #0
 621              	.L56:
 622 0036 C9EB0400 		rsb	r0, r9, r4
 623 003a FFF7FEFF 		bl	__aeabi_i2f
 624              	.LVL48:
 625 003e 4FF07C51 		mov	r1, #1056964608
 626 0042 FFF7FEFF 		bl	__aeabi_fmul
 627              	.LVL49:
 628 0046 0146     		mov	r1, r0
 629 0048 5046     		mov	r0, r10
 630 004a FFF7FEFF 		bl	__aeabi_fadd
 631              	.LVL50:
 632 004e FFF7FEFF 		bl	__aeabi_f2uiz
 633              	.LVL51:
 634 0052 C0B2     		uxtb	r0, r0
 635              	.LVL52:
 155:..\..\FreeflyAPI/QX_Parsing_Functions.c ****         ADDCHAR(value);
 636              		.loc 1 155 0
 637 0054 054A     		ldr	r2, .L59
 638 0056 1368     		ldr	r3, [r2]
 639 0058 591C     		adds	r1, r3, #1
 640 005a 1160     		str	r1, [r2]
ARM GAS  C:\Users\hamis\AppData\Local\Temp\cc1fRzXM.s 			page 15


 641 005c 1870     		strb	r0, [r3]
 156:..\..\FreeflyAPI/QX_Parsing_Functions.c ****         v++;
 642              		.loc 1 156 0
 643 005e 0436     		adds	r6, r6, #4
 644              	.LVL53:
 645              	.LBE5:
 152:..\..\FreeflyAPI/QX_Parsing_Functions.c ****     {
 646              		.loc 1 152 0
 647 0060 3946     		mov	r1, r7
 648              	.LVL54:
 649              	.L54:
 650 0062 4F1E     		subs	r7, r1, #1
 651              	.LVL55:
 652 0064 0029     		cmp	r1, #0
 653 0066 D0D1     		bne	.L57
 157:..\..\FreeflyAPI/QX_Parsing_Functions.c ****     }
 158:..\..\FreeflyAPI/QX_Parsing_Functions.c **** }
 654              		.loc 1 158 0
 655 0068 BDE8F087 		pop	{r4, r5, r6, r7, r8, r9, r10, pc}
 656              	.LVL56:
 657              	.L60:
 658              		.align	2
 659              	.L59:
 660 006c 00000000 		.word	msgPtr
 661              		.cfi_endproc
 662              	.LFE12:
 663              		.size	AddFloatAsUnsignedChar, .-AddFloatAsUnsignedChar
 664              		.section	.text.AddFloatAsUnsignedShort,"ax",%progbits
 665              		.align	2
 666              		.global	AddFloatAsUnsignedShort
 667              		.thumb
 668              		.thumb_func
 669              		.type	AddFloatAsUnsignedShort, %function
 670              	AddFloatAsUnsignedShort:
 671              	.LFB13:
 159:..\..\FreeflyAPI/QX_Parsing_Functions.c **** 
 160:..\..\FreeflyAPI/QX_Parsing_Functions.c **** void AddFloatAsUnsignedShort(float *v, uint32_t n, float scaleto)
 161:..\..\FreeflyAPI/QX_Parsing_Functions.c **** {
 672              		.loc 1 161 0
 673              		.cfi_startproc
 674              		@ args = 0, pretend = 0, frame = 0
 675              		@ frame_needed = 0, uses_anonymous_args = 0
 676              	.LVL57:
 677 0000 2DE9F047 		push	{r4, r5, r6, r7, r8, r9, r10, lr}
 678              		.cfi_def_cfa_offset 32
 679              		.cfi_offset 4, -32
 680              		.cfi_offset 5, -28
 681              		.cfi_offset 6, -24
 682              		.cfi_offset 7, -20
 683              		.cfi_offset 8, -16
 684              		.cfi_offset 9, -12
 685              		.cfi_offset 10, -8
 686              		.cfi_offset 14, -4
 687 0004 0546     		mov	r5, r0
 688 0006 1746     		mov	r7, r2
 162:..\..\FreeflyAPI/QX_Parsing_Functions.c ****     while(n--)
 689              		.loc 1 162 0
ARM GAS  C:\Users\hamis\AppData\Local\Temp\cc1fRzXM.s 			page 16


 690 0008 32E0     		b	.L62
 691              	.LVL58:
 692              	.L65:
 693              	.LBB6:
 163:..\..\FreeflyAPI/QX_Parsing_Functions.c ****     {
 164:..\..\FreeflyAPI/QX_Parsing_Functions.c ****         uint16_t value = (uint16_t) (((*v) * scaleto) + 0.5f * ((0 < *v) - (*v < 0)));
 694              		.loc 1 164 0
 695 000a D5F80080 		ldr	r8, [r5]	@ float
 696 000e 3946     		mov	r1, r7
 697 0010 4046     		mov	r0, r8
 698 0012 FFF7FEFF 		bl	__aeabi_fmul
 699              	.LVL59:
 700 0016 8246     		mov	r10, r0
 701 0018 0124     		movs	r4, #1
 702 001a 0021     		movs	r1, #0
 703 001c 4046     		mov	r0, r8
 704 001e FFF7FEFF 		bl	__aeabi_fcmpgt
 705              	.LVL60:
 706 0022 00B9     		cbnz	r0, .L63
 707 0024 0024     		movs	r4, #0
 708              	.L63:
 709 0026 4FF00109 		mov	r9, #1
 710 002a 0021     		movs	r1, #0
 711 002c 4046     		mov	r0, r8
 712 002e FFF7FEFF 		bl	__aeabi_fcmplt
 713              	.LVL61:
 714 0032 08B9     		cbnz	r0, .L64
 715 0034 4FF00009 		mov	r9, #0
 716              	.L64:
 717 0038 C9EB0400 		rsb	r0, r9, r4
 718 003c FFF7FEFF 		bl	__aeabi_i2f
 719              	.LVL62:
 720 0040 4FF07C51 		mov	r1, #1056964608
 721 0044 FFF7FEFF 		bl	__aeabi_fmul
 722              	.LVL63:
 723 0048 0146     		mov	r1, r0
 724 004a 5046     		mov	r0, r10
 725 004c FFF7FEFF 		bl	__aeabi_fadd
 726              	.LVL64:
 727 0050 FFF7FEFF 		bl	__aeabi_f2uiz
 728              	.LVL65:
 729 0054 80B2     		uxth	r0, r0
 730              	.LVL66:
 165:..\..\FreeflyAPI/QX_Parsing_Functions.c ****         ADDUS(value);
 731              		.loc 1 165 0
 732 0056 094B     		ldr	r3, .L67
 733 0058 1A68     		ldr	r2, [r3]
 734 005a 511C     		adds	r1, r2, #1
 735 005c 1960     		str	r1, [r3]
 736 005e 010A     		lsrs	r1, r0, #8
 737 0060 1170     		strb	r1, [r2]
 738 0062 1A68     		ldr	r2, [r3]
 739 0064 511C     		adds	r1, r2, #1
 740 0066 1960     		str	r1, [r3]
 741 0068 C0B2     		uxtb	r0, r0
 742              	.LVL67:
 743 006a 1070     		strb	r0, [r2]
ARM GAS  C:\Users\hamis\AppData\Local\Temp\cc1fRzXM.s 			page 17


 166:..\..\FreeflyAPI/QX_Parsing_Functions.c ****         v++;
 744              		.loc 1 166 0
 745 006c 0435     		adds	r5, r5, #4
 746              	.LVL68:
 747              	.LBE6:
 162:..\..\FreeflyAPI/QX_Parsing_Functions.c ****     {
 748              		.loc 1 162 0
 749 006e 3146     		mov	r1, r6
 750              	.LVL69:
 751              	.L62:
 752 0070 4E1E     		subs	r6, r1, #1
 753              	.LVL70:
 754 0072 0029     		cmp	r1, #0
 755 0074 C9D1     		bne	.L65
 167:..\..\FreeflyAPI/QX_Parsing_Functions.c ****     }
 168:..\..\FreeflyAPI/QX_Parsing_Functions.c **** }
 756              		.loc 1 168 0
 757 0076 BDE8F087 		pop	{r4, r5, r6, r7, r8, r9, r10, pc}
 758              	.LVL71:
 759              	.L68:
 760 007a 00BF     		.align	2
 761              	.L67:
 762 007c 00000000 		.word	msgPtr
 763              		.cfi_endproc
 764              	.LFE13:
 765              		.size	AddFloatAsUnsignedShort, .-AddFloatAsUnsignedShort
 766              		.global	__aeabi_fcmpun
 767              		.section	.text.GetFloatAsSignedLong,"ax",%progbits
 768              		.align	2
 769              		.global	GetFloatAsSignedLong
 770              		.thumb
 771              		.thumb_func
 772              		.type	GetFloatAsSignedLong, %function
 773              	GetFloatAsSignedLong:
 774              	.LFB14:
 169:..\..\FreeflyAPI/QX_Parsing_Functions.c **** 
 170:..\..\FreeflyAPI/QX_Parsing_Functions.c **** void GetFloatAsSignedLong(float *v, uint32_t n, float max, float min, float scalefrom)
 171:..\..\FreeflyAPI/QX_Parsing_Functions.c **** {
 775              		.loc 1 171 0
 776              		.cfi_startproc
 777              		@ args = 4, pretend = 0, frame = 0
 778              		@ frame_needed = 0, uses_anonymous_args = 0
 779              	.LVL72:
 780 0000 2DE9F047 		push	{r4, r5, r6, r7, r8, r9, r10, lr}
 781              		.cfi_def_cfa_offset 32
 782              		.cfi_offset 4, -32
 783              		.cfi_offset 5, -28
 784              		.cfi_offset 6, -24
 785              		.cfi_offset 7, -20
 786              		.cfi_offset 8, -16
 787              		.cfi_offset 9, -12
 788              		.cfi_offset 10, -8
 789              		.cfi_offset 14, -4
 790 0004 0446     		mov	r4, r0
 791 0006 1746     		mov	r7, r2
 792 0008 9846     		mov	r8, r3
 793 000a DDF820A0 		ldr	r10, [sp, #32]	@ float
ARM GAS  C:\Users\hamis\AppData\Local\Temp\cc1fRzXM.s 			page 18


 172:..\..\FreeflyAPI/QX_Parsing_Functions.c ****     if(rw == QB_Parser_Dir_WriteDel)
 794              		.loc 1 172 0
 795 000e 354B     		ldr	r3, .L94
 796              	.LVL73:
 797 0010 1B78     		ldrb	r3, [r3]	@ zero_extendqisi2
 798 0012 012B     		cmp	r3, #1
 799 0014 5FD1     		bne	.L71
 800 0016 2EE0     		b	.L70
 801              	.LVL74:
 802              	.L78:
 803              	.LBB7:
 173:..\..\FreeflyAPI/QX_Parsing_Functions.c ****     {
 174:..\..\FreeflyAPI/QX_Parsing_Functions.c ****         while(n--)
 175:..\..\FreeflyAPI/QX_Parsing_Functions.c ****         {
 176:..\..\FreeflyAPI/QX_Parsing_Functions.c ****             float r = (float)GETSL;
 804              		.loc 1 176 0
 805 0018 DFF8CC90 		ldr	r9, .L94+4
 806 001c D9F80050 		ldr	r5, [r9]
 807 0020 2878     		ldrb	r0, [r5]	@ zero_extendqisi2
 808 0022 6B78     		ldrb	r3, [r5, #1]	@ zero_extendqisi2
 809 0024 1B04     		lsls	r3, r3, #16
 810 0026 43EA0063 		orr	r3, r3, r0, lsl #24
 811 002a A878     		ldrb	r0, [r5, #2]	@ zero_extendqisi2
 812 002c 43EA0023 		orr	r3, r3, r0, lsl #8
 813 0030 E878     		ldrb	r0, [r5, #3]	@ zero_extendqisi2
 814 0032 1843     		orrs	r0, r0, r3
 815 0034 FFF7FEFF 		bl	__aeabi_i2f
 816              	.LVL75:
 817 0038 0435     		adds	r5, r5, #4
 818 003a C9F80050 		str	r5, [r9]
 177:..\..\FreeflyAPI/QX_Parsing_Functions.c ****             r = r * scalefrom;
 819              		.loc 1 177 0
 820 003e 5146     		mov	r1, r10
 821 0040 FFF7FEFF 		bl	__aeabi_fmul
 822              	.LVL76:
 178:..\..\FreeflyAPI/QX_Parsing_Functions.c ****             *v += r;
 823              		.loc 1 178 0
 824 0044 2168     		ldr	r1, [r4]	@ float
 825 0046 FFF7FEFF 		bl	__aeabi_fadd
 826              	.LVL77:
 827 004a 2060     		str	r0, [r4]	@ float
 179:..\..\FreeflyAPI/QX_Parsing_Functions.c ****             if(max < *v) *v = max;
 828              		.loc 1 179 0
 829 004c 3946     		mov	r1, r7
 830 004e FFF7FEFF 		bl	__aeabi_fcmpgt
 831              	.LVL78:
 832 0052 00B1     		cbz	r0, .L72
 833              		.loc 1 179 0 is_stmt 0 discriminator 1
 834 0054 2760     		str	r7, [r4]	@ float
 835              	.L72:
 180:..\..\FreeflyAPI/QX_Parsing_Functions.c ****             if(*v < min) *v = min;
 836              		.loc 1 180 0 is_stmt 1
 837 0056 4146     		mov	r1, r8
 838 0058 2068     		ldr	r0, [r4]	@ float
 839 005a FFF7FEFF 		bl	__aeabi_fcmplt
 840              	.LVL79:
 841 005e 08B1     		cbz	r0, .L74
ARM GAS  C:\Users\hamis\AppData\Local\Temp\cc1fRzXM.s 			page 19


 842              		.loc 1 180 0 is_stmt 0 discriminator 1
 843 0060 C4F80080 		str	r8, [r4]	@ float
 844              	.L74:
 181:..\..\FreeflyAPI/QX_Parsing_Functions.c ****             if(isnan(*v)) *v = 0.0f;
 845              		.loc 1 181 0 is_stmt 1
 846 0064 2168     		ldr	r1, [r4]	@ float
 847 0066 0846     		mov	r0, r1
 848 0068 FFF7FEFF 		bl	__aeabi_fcmpun
 849              	.LVL80:
 850 006c 08B1     		cbz	r0, .L76
 851              		.loc 1 181 0 is_stmt 0 discriminator 1
 852 006e 0023     		movs	r3, #0
 853 0070 2360     		str	r3, [r4]	@ float
 854              	.L76:
 182:..\..\FreeflyAPI/QX_Parsing_Functions.c ****             v++;
 855              		.loc 1 182 0 is_stmt 1
 856 0072 0434     		adds	r4, r4, #4
 857              	.LVL81:
 858              	.LBE7:
 174:..\..\FreeflyAPI/QX_Parsing_Functions.c ****         {
 859              		.loc 1 174 0
 860 0074 3146     		mov	r1, r6
 861              	.LVL82:
 862              	.L70:
 863 0076 4E1E     		subs	r6, r1, #1
 864              	.LVL83:
 865 0078 0029     		cmp	r1, #0
 866 007a CDD1     		bne	.L78
 867 007c BDE8F087 		pop	{r4, r5, r6, r7, r8, r9, r10, pc}
 868              	.LVL84:
 869              	.L86:
 870              	.LBB8:
 183:..\..\FreeflyAPI/QX_Parsing_Functions.c ****         }
 184:..\..\FreeflyAPI/QX_Parsing_Functions.c ****     }
 185:..\..\FreeflyAPI/QX_Parsing_Functions.c ****     else
 186:..\..\FreeflyAPI/QX_Parsing_Functions.c ****     {
 187:..\..\FreeflyAPI/QX_Parsing_Functions.c ****         while(n--)
 188:..\..\FreeflyAPI/QX_Parsing_Functions.c ****         {
 189:..\..\FreeflyAPI/QX_Parsing_Functions.c ****             float r = (float)GETSL;
 871              		.loc 1 189 0
 872 0080 194E     		ldr	r6, .L94+4
 873 0082 3568     		ldr	r5, [r6]
 874 0084 2878     		ldrb	r0, [r5]	@ zero_extendqisi2
 875 0086 6B78     		ldrb	r3, [r5, #1]	@ zero_extendqisi2
 876 0088 1B04     		lsls	r3, r3, #16
 877 008a 43EA0063 		orr	r3, r3, r0, lsl #24
 878 008e A878     		ldrb	r0, [r5, #2]	@ zero_extendqisi2
 879 0090 43EA0023 		orr	r3, r3, r0, lsl #8
 880 0094 E878     		ldrb	r0, [r5, #3]	@ zero_extendqisi2
 881 0096 1843     		orrs	r0, r0, r3
 882 0098 FFF7FEFF 		bl	__aeabi_i2f
 883              	.LVL85:
 884 009c 0435     		adds	r5, r5, #4
 885 009e 3560     		str	r5, [r6]
 190:..\..\FreeflyAPI/QX_Parsing_Functions.c ****             r = r * scalefrom;
 886              		.loc 1 190 0
 887 00a0 0146     		mov	r1, r0
ARM GAS  C:\Users\hamis\AppData\Local\Temp\cc1fRzXM.s 			page 20


 888 00a2 5046     		mov	r0, r10
 889              	.LVL86:
 890 00a4 FFF7FEFF 		bl	__aeabi_fmul
 891              	.LVL87:
 892 00a8 0146     		mov	r1, r0
 893              	.LVL88:
 191:..\..\FreeflyAPI/QX_Parsing_Functions.c ****             *v = r;
 894              		.loc 1 191 0
 895 00aa 2060     		str	r0, [r4]	@ float
 192:..\..\FreeflyAPI/QX_Parsing_Functions.c ****             if(max < *v) *v = max;
 896              		.loc 1 192 0
 897 00ac 3846     		mov	r0, r7
 898              	.LVL89:
 899 00ae FFF7FEFF 		bl	__aeabi_fcmplt
 900              	.LVL90:
 901 00b2 00B1     		cbz	r0, .L80
 902              		.loc 1 192 0 is_stmt 0 discriminator 1
 903 00b4 2760     		str	r7, [r4]	@ float
 904              	.L80:
 193:..\..\FreeflyAPI/QX_Parsing_Functions.c ****             if(*v < min) *v = min;
 905              		.loc 1 193 0 is_stmt 1
 906 00b6 2168     		ldr	r1, [r4]	@ float
 907 00b8 4046     		mov	r0, r8
 908 00ba FFF7FEFF 		bl	__aeabi_fcmpgt
 909              	.LVL91:
 910 00be 08B1     		cbz	r0, .L82
 911              		.loc 1 193 0 is_stmt 0 discriminator 1
 912 00c0 C4F80080 		str	r8, [r4]	@ float
 913              	.L82:
 194:..\..\FreeflyAPI/QX_Parsing_Functions.c ****             if(isnan(*v)) *v = 0.0f;
 914              		.loc 1 194 0 is_stmt 1
 915 00c4 2168     		ldr	r1, [r4]	@ float
 916 00c6 0846     		mov	r0, r1
 917 00c8 FFF7FEFF 		bl	__aeabi_fcmpun
 918              	.LVL92:
 919 00cc 08B1     		cbz	r0, .L84
 920              		.loc 1 194 0 is_stmt 0 discriminator 1
 921 00ce 0023     		movs	r3, #0
 922 00d0 2360     		str	r3, [r4]	@ float
 923              	.L84:
 195:..\..\FreeflyAPI/QX_Parsing_Functions.c ****             v++;
 924              		.loc 1 195 0 is_stmt 1
 925 00d2 0434     		adds	r4, r4, #4
 926              	.LVL93:
 927              	.LBE8:
 187:..\..\FreeflyAPI/QX_Parsing_Functions.c ****         {
 928              		.loc 1 187 0
 929 00d4 4946     		mov	r1, r9
 930              	.LVL94:
 931              	.L71:
 932 00d6 01F1FF39 		add	r9, r1, #-1
 933              	.LVL95:
 934 00da 0029     		cmp	r1, #0
 935 00dc D0D1     		bne	.L86
 936 00de BDE8F087 		pop	{r4, r5, r6, r7, r8, r9, r10, pc}
 937              	.LVL96:
 938              	.L95:
ARM GAS  C:\Users\hamis\AppData\Local\Temp\cc1fRzXM.s 			page 21


 939 00e2 00BF     		.align	2
 940              	.L94:
 941 00e4 00000000 		.word	rw
 942 00e8 00000000 		.word	msgPtr
 943              		.cfi_endproc
 944              	.LFE14:
 945              		.size	GetFloatAsSignedLong, .-GetFloatAsSignedLong
 946              		.section	.text.GetFloatAsSignedShort,"ax",%progbits
 947              		.align	2
 948              		.global	GetFloatAsSignedShort
 949              		.thumb
 950              		.thumb_func
 951              		.type	GetFloatAsSignedShort, %function
 952              	GetFloatAsSignedShort:
 953              	.LFB15:
 196:..\..\FreeflyAPI/QX_Parsing_Functions.c ****         }
 197:..\..\FreeflyAPI/QX_Parsing_Functions.c ****     }
 198:..\..\FreeflyAPI/QX_Parsing_Functions.c **** }
 199:..\..\FreeflyAPI/QX_Parsing_Functions.c **** 
 200:..\..\FreeflyAPI/QX_Parsing_Functions.c **** void GetFloatAsSignedShort(float *v, uint32_t n, float max, float min, float scalefrom)
 201:..\..\FreeflyAPI/QX_Parsing_Functions.c **** {
 954              		.loc 1 201 0
 955              		.cfi_startproc
 956              		@ args = 4, pretend = 0, frame = 0
 957              		@ frame_needed = 0, uses_anonymous_args = 0
 958              	.LVL97:
 959 0000 2DE9F047 		push	{r4, r5, r6, r7, r8, r9, r10, lr}
 960              		.cfi_def_cfa_offset 32
 961              		.cfi_offset 4, -32
 962              		.cfi_offset 5, -28
 963              		.cfi_offset 6, -24
 964              		.cfi_offset 7, -20
 965              		.cfi_offset 8, -16
 966              		.cfi_offset 9, -12
 967              		.cfi_offset 10, -8
 968              		.cfi_offset 14, -4
 969 0004 0446     		mov	r4, r0
 970 0006 1746     		mov	r7, r2
 971 0008 9846     		mov	r8, r3
 972 000a DDF820A0 		ldr	r10, [sp, #32]	@ float
 202:..\..\FreeflyAPI/QX_Parsing_Functions.c ****     if(rw == QB_Parser_Dir_WriteDel)
 973              		.loc 1 202 0
 974 000e 304B     		ldr	r3, .L121
 975              	.LVL98:
 976 0010 1B78     		ldrb	r3, [r3]	@ zero_extendqisi2
 977 0012 012B     		cmp	r3, #1
 978 0014 55D1     		bne	.L98
 979 0016 29E0     		b	.L97
 980              	.LVL99:
 981              	.L105:
 982              	.LBB9:
 203:..\..\FreeflyAPI/QX_Parsing_Functions.c ****     {
 204:..\..\FreeflyAPI/QX_Parsing_Functions.c ****         while(n--)
 205:..\..\FreeflyAPI/QX_Parsing_Functions.c ****         {
 206:..\..\FreeflyAPI/QX_Parsing_Functions.c ****             float r = (float)GETSS;
 983              		.loc 1 206 0
 984 0018 DFF8B890 		ldr	r9, .L121+4
ARM GAS  C:\Users\hamis\AppData\Local\Temp\cc1fRzXM.s 			page 22


 985 001c D9F80050 		ldr	r5, [r9]
 986 0020 2B78     		ldrb	r3, [r5]	@ zero_extendqisi2
 987 0022 1B02     		lsls	r3, r3, #8
 988 0024 1BB2     		sxth	r3, r3
 989 0026 6878     		ldrb	r0, [r5, #1]	@ zero_extendqisi2
 990 0028 1843     		orrs	r0, r0, r3
 991 002a FFF7FEFF 		bl	__aeabi_i2f
 992              	.LVL100:
 993 002e 0235     		adds	r5, r5, #2
 994 0030 C9F80050 		str	r5, [r9]
 207:..\..\FreeflyAPI/QX_Parsing_Functions.c ****             r = r * scalefrom;
 995              		.loc 1 207 0
 996 0034 5146     		mov	r1, r10
 997 0036 FFF7FEFF 		bl	__aeabi_fmul
 998              	.LVL101:
 208:..\..\FreeflyAPI/QX_Parsing_Functions.c ****             *v += r;
 999              		.loc 1 208 0
 1000 003a 2168     		ldr	r1, [r4]	@ float
 1001 003c FFF7FEFF 		bl	__aeabi_fadd
 1002              	.LVL102:
 1003 0040 2060     		str	r0, [r4]	@ float
 209:..\..\FreeflyAPI/QX_Parsing_Functions.c ****             if(max < *v) *v = max;
 1004              		.loc 1 209 0
 1005 0042 3946     		mov	r1, r7
 1006 0044 FFF7FEFF 		bl	__aeabi_fcmpgt
 1007              	.LVL103:
 1008 0048 00B1     		cbz	r0, .L99
 1009              		.loc 1 209 0 is_stmt 0 discriminator 1
 1010 004a 2760     		str	r7, [r4]	@ float
 1011              	.L99:
 210:..\..\FreeflyAPI/QX_Parsing_Functions.c ****             if(*v < min) *v = min;
 1012              		.loc 1 210 0 is_stmt 1
 1013 004c 4146     		mov	r1, r8
 1014 004e 2068     		ldr	r0, [r4]	@ float
 1015 0050 FFF7FEFF 		bl	__aeabi_fcmplt
 1016              	.LVL104:
 1017 0054 08B1     		cbz	r0, .L101
 1018              		.loc 1 210 0 is_stmt 0 discriminator 1
 1019 0056 C4F80080 		str	r8, [r4]	@ float
 1020              	.L101:
 211:..\..\FreeflyAPI/QX_Parsing_Functions.c ****             if(isnan(*v)) *v = 0.0f;
 1021              		.loc 1 211 0 is_stmt 1
 1022 005a 2168     		ldr	r1, [r4]	@ float
 1023 005c 0846     		mov	r0, r1
 1024 005e FFF7FEFF 		bl	__aeabi_fcmpun
 1025              	.LVL105:
 1026 0062 08B1     		cbz	r0, .L103
 1027              		.loc 1 211 0 is_stmt 0 discriminator 1
 1028 0064 0023     		movs	r3, #0
 1029 0066 2360     		str	r3, [r4]	@ float
 1030              	.L103:
 212:..\..\FreeflyAPI/QX_Parsing_Functions.c ****             v++;
 1031              		.loc 1 212 0 is_stmt 1
 1032 0068 0434     		adds	r4, r4, #4
 1033              	.LVL106:
 1034              	.LBE9:
 204:..\..\FreeflyAPI/QX_Parsing_Functions.c ****         {
ARM GAS  C:\Users\hamis\AppData\Local\Temp\cc1fRzXM.s 			page 23


 1035              		.loc 1 204 0
 1036 006a 3146     		mov	r1, r6
 1037              	.LVL107:
 1038              	.L97:
 1039 006c 4E1E     		subs	r6, r1, #1
 1040              	.LVL108:
 1041 006e 0029     		cmp	r1, #0
 1042 0070 D2D1     		bne	.L105
 1043 0072 BDE8F087 		pop	{r4, r5, r6, r7, r8, r9, r10, pc}
 1044              	.LVL109:
 1045              	.L113:
 1046              	.LBB10:
 213:..\..\FreeflyAPI/QX_Parsing_Functions.c ****         }
 214:..\..\FreeflyAPI/QX_Parsing_Functions.c ****     }
 215:..\..\FreeflyAPI/QX_Parsing_Functions.c ****     else
 216:..\..\FreeflyAPI/QX_Parsing_Functions.c ****     {
 217:..\..\FreeflyAPI/QX_Parsing_Functions.c ****         while(n--)
 218:..\..\FreeflyAPI/QX_Parsing_Functions.c ****         {
 219:..\..\FreeflyAPI/QX_Parsing_Functions.c ****             float r = (float)GETSS;
 1047              		.loc 1 219 0
 1048 0076 174E     		ldr	r6, .L121+4
 1049 0078 3568     		ldr	r5, [r6]
 1050 007a 2B78     		ldrb	r3, [r5]	@ zero_extendqisi2
 1051 007c 1B02     		lsls	r3, r3, #8
 1052 007e 1BB2     		sxth	r3, r3
 1053 0080 6878     		ldrb	r0, [r5, #1]	@ zero_extendqisi2
 1054 0082 1843     		orrs	r0, r0, r3
 1055 0084 FFF7FEFF 		bl	__aeabi_i2f
 1056              	.LVL110:
 1057 0088 0235     		adds	r5, r5, #2
 1058 008a 3560     		str	r5, [r6]
 220:..\..\FreeflyAPI/QX_Parsing_Functions.c ****             r = r * scalefrom;
 1059              		.loc 1 220 0
 1060 008c 0146     		mov	r1, r0
 1061 008e 5046     		mov	r0, r10
 1062              	.LVL111:
 1063 0090 FFF7FEFF 		bl	__aeabi_fmul
 1064              	.LVL112:
 1065 0094 0146     		mov	r1, r0
 1066              	.LVL113:
 221:..\..\FreeflyAPI/QX_Parsing_Functions.c ****             *v = r;
 1067              		.loc 1 221 0
 1068 0096 2060     		str	r0, [r4]	@ float
 222:..\..\FreeflyAPI/QX_Parsing_Functions.c ****             if(max < *v) *v = max;
 1069              		.loc 1 222 0
 1070 0098 3846     		mov	r0, r7
 1071              	.LVL114:
 1072 009a FFF7FEFF 		bl	__aeabi_fcmplt
 1073              	.LVL115:
 1074 009e 00B1     		cbz	r0, .L107
 1075              		.loc 1 222 0 is_stmt 0 discriminator 1
 1076 00a0 2760     		str	r7, [r4]	@ float
 1077              	.L107:
 223:..\..\FreeflyAPI/QX_Parsing_Functions.c ****             if(*v < min) *v = min;
 1078              		.loc 1 223 0 is_stmt 1
 1079 00a2 2168     		ldr	r1, [r4]	@ float
 1080 00a4 4046     		mov	r0, r8
ARM GAS  C:\Users\hamis\AppData\Local\Temp\cc1fRzXM.s 			page 24


 1081 00a6 FFF7FEFF 		bl	__aeabi_fcmpgt
 1082              	.LVL116:
 1083 00aa 08B1     		cbz	r0, .L109
 1084              		.loc 1 223 0 is_stmt 0 discriminator 1
 1085 00ac C4F80080 		str	r8, [r4]	@ float
 1086              	.L109:
 224:..\..\FreeflyAPI/QX_Parsing_Functions.c ****             if(isnan(*v)) *v = 0.0f;
 1087              		.loc 1 224 0 is_stmt 1
 1088 00b0 2168     		ldr	r1, [r4]	@ float
 1089 00b2 0846     		mov	r0, r1
 1090 00b4 FFF7FEFF 		bl	__aeabi_fcmpun
 1091              	.LVL117:
 1092 00b8 08B1     		cbz	r0, .L111
 1093              		.loc 1 224 0 is_stmt 0 discriminator 1
 1094 00ba 0023     		movs	r3, #0
 1095 00bc 2360     		str	r3, [r4]	@ float
 1096              	.L111:
 225:..\..\FreeflyAPI/QX_Parsing_Functions.c ****             v++;
 1097              		.loc 1 225 0 is_stmt 1
 1098 00be 0434     		adds	r4, r4, #4
 1099              	.LVL118:
 1100              	.LBE10:
 217:..\..\FreeflyAPI/QX_Parsing_Functions.c ****         {
 1101              		.loc 1 217 0
 1102 00c0 4946     		mov	r1, r9
 1103              	.LVL119:
 1104              	.L98:
 1105 00c2 01F1FF39 		add	r9, r1, #-1
 1106              	.LVL120:
 1107 00c6 0029     		cmp	r1, #0
 1108 00c8 D5D1     		bne	.L113
 1109 00ca BDE8F087 		pop	{r4, r5, r6, r7, r8, r9, r10, pc}
 1110              	.LVL121:
 1111              	.L122:
 1112 00ce 00BF     		.align	2
 1113              	.L121:
 1114 00d0 00000000 		.word	rw
 1115 00d4 00000000 		.word	msgPtr
 1116              		.cfi_endproc
 1117              	.LFE15:
 1118              		.size	GetFloatAsSignedShort, .-GetFloatAsSignedShort
 1119              		.section	.text.GetFloatAsSignedChar,"ax",%progbits
 1120              		.align	2
 1121              		.global	GetFloatAsSignedChar
 1122              		.thumb
 1123              		.thumb_func
 1124              		.type	GetFloatAsSignedChar, %function
 1125              	GetFloatAsSignedChar:
 1126              	.LFB16:
 226:..\..\FreeflyAPI/QX_Parsing_Functions.c ****         }
 227:..\..\FreeflyAPI/QX_Parsing_Functions.c ****     }
 228:..\..\FreeflyAPI/QX_Parsing_Functions.c **** }
 229:..\..\FreeflyAPI/QX_Parsing_Functions.c **** 
 230:..\..\FreeflyAPI/QX_Parsing_Functions.c **** void GetFloatAsSignedChar(float *v, uint32_t n, float max, float min, float scalefrom)
 231:..\..\FreeflyAPI/QX_Parsing_Functions.c **** {
 1127              		.loc 1 231 0
 1128              		.cfi_startproc
ARM GAS  C:\Users\hamis\AppData\Local\Temp\cc1fRzXM.s 			page 25


 1129              		@ args = 4, pretend = 0, frame = 0
 1130              		@ frame_needed = 0, uses_anonymous_args = 0
 1131              	.LVL122:
 1132 0000 2DE9F843 		push	{r3, r4, r5, r6, r7, r8, r9, lr}
 1133              		.cfi_def_cfa_offset 32
 1134              		.cfi_offset 3, -32
 1135              		.cfi_offset 4, -28
 1136              		.cfi_offset 5, -24
 1137              		.cfi_offset 6, -20
 1138              		.cfi_offset 7, -16
 1139              		.cfi_offset 8, -12
 1140              		.cfi_offset 9, -8
 1141              		.cfi_offset 14, -4
 1142 0004 0446     		mov	r4, r0
 1143 0006 1546     		mov	r5, r2
 1144 0008 1F46     		mov	r7, r3
 1145 000a DDF82080 		ldr	r8, [sp, #32]	@ float
 232:..\..\FreeflyAPI/QX_Parsing_Functions.c ****     if(rw == QB_Parser_Dir_WriteDel)
 1146              		.loc 1 232 0
 1147 000e 2B4B     		ldr	r3, .L149
 1148              	.LVL123:
 1149 0010 1B78     		ldrb	r3, [r3]	@ zero_extendqisi2
 1150 0012 012B     		cmp	r3, #1
 1151 0014 4CD1     		bne	.L125
 1152 0016 24E0     		b	.L124
 1153              	.LVL124:
 1154              	.L132:
 1155              	.LBB11:
 233:..\..\FreeflyAPI/QX_Parsing_Functions.c ****     {
 234:..\..\FreeflyAPI/QX_Parsing_Functions.c ****         while(n--)
 235:..\..\FreeflyAPI/QX_Parsing_Functions.c ****         {
 236:..\..\FreeflyAPI/QX_Parsing_Functions.c ****             float r = (float)GETSC;
 1156              		.loc 1 236 0
 1157 0018 294A     		ldr	r2, .L149+4
 1158 001a 1368     		ldr	r3, [r2]
 1159 001c 591C     		adds	r1, r3, #1
 1160 001e 1160     		str	r1, [r2]
 1161 0020 1878     		ldrb	r0, [r3]	@ zero_extendqisi2
 1162 0022 40B2     		sxtb	r0, r0
 1163 0024 FFF7FEFF 		bl	__aeabi_i2f
 1164              	.LVL125:
 237:..\..\FreeflyAPI/QX_Parsing_Functions.c ****             r = r * scalefrom;
 1165              		.loc 1 237 0
 1166 0028 4146     		mov	r1, r8
 1167 002a FFF7FEFF 		bl	__aeabi_fmul
 1168              	.LVL126:
 238:..\..\FreeflyAPI/QX_Parsing_Functions.c ****             *v += r;
 1169              		.loc 1 238 0
 1170 002e 2168     		ldr	r1, [r4]	@ float
 1171 0030 FFF7FEFF 		bl	__aeabi_fadd
 1172              	.LVL127:
 1173 0034 8146     		mov	r9, r0
 1174 0036 2060     		str	r0, [r4]	@ float
 239:..\..\FreeflyAPI/QX_Parsing_Functions.c ****             if(max < *v) *v = max;
 1175              		.loc 1 239 0
 1176 0038 2946     		mov	r1, r5
 1177 003a FFF7FEFF 		bl	__aeabi_fcmpgt
ARM GAS  C:\Users\hamis\AppData\Local\Temp\cc1fRzXM.s 			page 26


 1178              	.LVL128:
 1179 003e 08B1     		cbz	r0, .L147
 1180              		.loc 1 239 0 is_stmt 0 discriminator 1
 1181 0040 2560     		str	r5, [r4]	@ float
 1182 0042 05E0     		b	.L128
 1183              	.L147:
 240:..\..\FreeflyAPI/QX_Parsing_Functions.c ****             else if(*v < min) *v = min;
 1184              		.loc 1 240 0 is_stmt 1
 1185 0044 3946     		mov	r1, r7
 1186 0046 4846     		mov	r0, r9
 1187 0048 FFF7FEFF 		bl	__aeabi_fcmplt
 1188              	.LVL129:
 1189 004c 00B1     		cbz	r0, .L128
 1190              		.loc 1 240 0 is_stmt 0 discriminator 1
 1191 004e 2760     		str	r7, [r4]	@ float
 1192              	.L128:
 241:..\..\FreeflyAPI/QX_Parsing_Functions.c ****             if(isnan(*v)) *v = 0.0f;
 1193              		.loc 1 241 0 is_stmt 1
 1194 0050 2168     		ldr	r1, [r4]	@ float
 1195 0052 0846     		mov	r0, r1
 1196 0054 FFF7FEFF 		bl	__aeabi_fcmpun
 1197              	.LVL130:
 1198 0058 08B1     		cbz	r0, .L130
 1199              		.loc 1 241 0 is_stmt 0 discriminator 1
 1200 005a 0023     		movs	r3, #0
 1201 005c 2360     		str	r3, [r4]	@ float
 1202              	.L130:
 242:..\..\FreeflyAPI/QX_Parsing_Functions.c ****             v++;
 1203              		.loc 1 242 0 is_stmt 1
 1204 005e 0434     		adds	r4, r4, #4
 1205              	.LVL131:
 1206              	.LBE11:
 234:..\..\FreeflyAPI/QX_Parsing_Functions.c ****         {
 1207              		.loc 1 234 0
 1208 0060 3146     		mov	r1, r6
 1209              	.LVL132:
 1210              	.L124:
 1211 0062 4E1E     		subs	r6, r1, #1
 1212              	.LVL133:
 1213 0064 0029     		cmp	r1, #0
 1214 0066 D7D1     		bne	.L132
 1215 0068 BDE8F883 		pop	{r3, r4, r5, r6, r7, r8, r9, pc}
 1216              	.LVL134:
 1217              	.L140:
 1218              	.LBB12:
 243:..\..\FreeflyAPI/QX_Parsing_Functions.c ****         }
 244:..\..\FreeflyAPI/QX_Parsing_Functions.c ****     }
 245:..\..\FreeflyAPI/QX_Parsing_Functions.c ****     else
 246:..\..\FreeflyAPI/QX_Parsing_Functions.c ****     {
 247:..\..\FreeflyAPI/QX_Parsing_Functions.c ****         while(n--)
 248:..\..\FreeflyAPI/QX_Parsing_Functions.c ****         {
 249:..\..\FreeflyAPI/QX_Parsing_Functions.c ****             float r = (float)GETSC;
 1219              		.loc 1 249 0
 1220 006c 144A     		ldr	r2, .L149+4
 1221 006e 1368     		ldr	r3, [r2]
 1222 0070 591C     		adds	r1, r3, #1
 1223 0072 1160     		str	r1, [r2]
ARM GAS  C:\Users\hamis\AppData\Local\Temp\cc1fRzXM.s 			page 27


 1224 0074 1878     		ldrb	r0, [r3]	@ zero_extendqisi2
 1225 0076 40B2     		sxtb	r0, r0
 1226 0078 FFF7FEFF 		bl	__aeabi_i2f
 1227              	.LVL135:
 250:..\..\FreeflyAPI/QX_Parsing_Functions.c ****             r = r * scalefrom;
 1228              		.loc 1 250 0
 1229 007c 0146     		mov	r1, r0
 1230 007e 4046     		mov	r0, r8
 1231              	.LVL136:
 1232 0080 FFF7FEFF 		bl	__aeabi_fmul
 1233              	.LVL137:
 1234 0084 0146     		mov	r1, r0
 1235              	.LVL138:
 251:..\..\FreeflyAPI/QX_Parsing_Functions.c ****             *v = r;
 1236              		.loc 1 251 0
 1237 0086 2060     		str	r0, [r4]	@ float
 252:..\..\FreeflyAPI/QX_Parsing_Functions.c ****             if(max < *v) *v = max;
 1238              		.loc 1 252 0
 1239 0088 2846     		mov	r0, r5
 1240              	.LVL139:
 1241 008a FFF7FEFF 		bl	__aeabi_fcmplt
 1242              	.LVL140:
 1243 008e 00B1     		cbz	r0, .L134
 1244              		.loc 1 252 0 is_stmt 0 discriminator 1
 1245 0090 2560     		str	r5, [r4]	@ float
 1246              	.L134:
 253:..\..\FreeflyAPI/QX_Parsing_Functions.c ****             if(*v < min) *v = min;
 1247              		.loc 1 253 0 is_stmt 1
 1248 0092 2168     		ldr	r1, [r4]	@ float
 1249 0094 3846     		mov	r0, r7
 1250 0096 FFF7FEFF 		bl	__aeabi_fcmpgt
 1251              	.LVL141:
 1252 009a 00B1     		cbz	r0, .L136
 1253              		.loc 1 253 0 is_stmt 0 discriminator 1
 1254 009c 2760     		str	r7, [r4]	@ float
 1255              	.L136:
 254:..\..\FreeflyAPI/QX_Parsing_Functions.c ****             if(isnan(*v)) *v = 0.0f;
 1256              		.loc 1 254 0 is_stmt 1
 1257 009e 2168     		ldr	r1, [r4]	@ float
 1258 00a0 0846     		mov	r0, r1
 1259 00a2 FFF7FEFF 		bl	__aeabi_fcmpun
 1260              	.LVL142:
 1261 00a6 08B1     		cbz	r0, .L138
 1262              		.loc 1 254 0 is_stmt 0 discriminator 1
 1263 00a8 0023     		movs	r3, #0
 1264 00aa 2360     		str	r3, [r4]	@ float
 1265              	.L138:
 255:..\..\FreeflyAPI/QX_Parsing_Functions.c ****             v++;
 1266              		.loc 1 255 0 is_stmt 1
 1267 00ac 0434     		adds	r4, r4, #4
 1268              	.LVL143:
 1269              	.LBE12:
 247:..\..\FreeflyAPI/QX_Parsing_Functions.c ****         {
 1270              		.loc 1 247 0
 1271 00ae 3146     		mov	r1, r6
 1272              	.LVL144:
 1273              	.L125:
ARM GAS  C:\Users\hamis\AppData\Local\Temp\cc1fRzXM.s 			page 28


 1274 00b0 4E1E     		subs	r6, r1, #1
 1275              	.LVL145:
 1276 00b2 0029     		cmp	r1, #0
 1277 00b4 DAD1     		bne	.L140
 1278 00b6 BDE8F883 		pop	{r3, r4, r5, r6, r7, r8, r9, pc}
 1279              	.LVL146:
 1280              	.L150:
 1281 00ba 00BF     		.align	2
 1282              	.L149:
 1283 00bc 00000000 		.word	rw
 1284 00c0 00000000 		.word	msgPtr
 1285              		.cfi_endproc
 1286              	.LFE16:
 1287              		.size	GetFloatAsSignedChar, .-GetFloatAsSignedChar
 1288              		.global	__aeabi_ui2f
 1289              		.section	.text.GetFloatAsUnsignedChar,"ax",%progbits
 1290              		.align	2
 1291              		.global	GetFloatAsUnsignedChar
 1292              		.thumb
 1293              		.thumb_func
 1294              		.type	GetFloatAsUnsignedChar, %function
 1295              	GetFloatAsUnsignedChar:
 1296              	.LFB17:
 256:..\..\FreeflyAPI/QX_Parsing_Functions.c ****         }
 257:..\..\FreeflyAPI/QX_Parsing_Functions.c ****     }
 258:..\..\FreeflyAPI/QX_Parsing_Functions.c **** }
 259:..\..\FreeflyAPI/QX_Parsing_Functions.c **** 
 260:..\..\FreeflyAPI/QX_Parsing_Functions.c **** void GetFloatAsUnsignedChar(float *v, uint32_t n, float max, float min, float scalefrom)
 261:..\..\FreeflyAPI/QX_Parsing_Functions.c **** {
 1297              		.loc 1 261 0
 1298              		.cfi_startproc
 1299              		@ args = 4, pretend = 0, frame = 0
 1300              		@ frame_needed = 0, uses_anonymous_args = 0
 1301              	.LVL147:
 1302 0000 2DE9F041 		push	{r4, r5, r6, r7, r8, lr}
 1303              		.cfi_def_cfa_offset 24
 1304              		.cfi_offset 4, -24
 1305              		.cfi_offset 5, -20
 1306              		.cfi_offset 6, -16
 1307              		.cfi_offset 7, -12
 1308              		.cfi_offset 8, -8
 1309              		.cfi_offset 14, -4
 1310 0004 0446     		mov	r4, r0
 1311 0006 1546     		mov	r5, r2
 1312 0008 1E46     		mov	r6, r3
 1313 000a DDF81880 		ldr	r8, [sp, #24]	@ float
 262:..\..\FreeflyAPI/QX_Parsing_Functions.c ****     if(rw == QB_Parser_Dir_WriteDel)
 1314              		.loc 1 262 0
 1315 000e 294B     		ldr	r3, .L176
 1316              	.LVL148:
 1317 0010 1B78     		ldrb	r3, [r3]	@ zero_extendqisi2
 1318 0012 012B     		cmp	r3, #1
 1319 0014 49D1     		bne	.L153
 1320 0016 22E0     		b	.L152
 1321              	.LVL149:
 1322              	.L160:
 1323              	.LBB13:
ARM GAS  C:\Users\hamis\AppData\Local\Temp\cc1fRzXM.s 			page 29


 263:..\..\FreeflyAPI/QX_Parsing_Functions.c ****     {
 264:..\..\FreeflyAPI/QX_Parsing_Functions.c ****         while(n--)
 265:..\..\FreeflyAPI/QX_Parsing_Functions.c ****         {
 266:..\..\FreeflyAPI/QX_Parsing_Functions.c ****             float r = (float)GETSC;
 1324              		.loc 1 266 0
 1325 0018 274A     		ldr	r2, .L176+4
 1326 001a 1368     		ldr	r3, [r2]
 1327 001c 591C     		adds	r1, r3, #1
 1328 001e 1160     		str	r1, [r2]
 1329 0020 1878     		ldrb	r0, [r3]	@ zero_extendqisi2
 1330 0022 40B2     		sxtb	r0, r0
 1331 0024 FFF7FEFF 		bl	__aeabi_i2f
 1332              	.LVL150:
 267:..\..\FreeflyAPI/QX_Parsing_Functions.c ****             r = r * scalefrom;
 1333              		.loc 1 267 0
 1334 0028 4146     		mov	r1, r8
 1335 002a FFF7FEFF 		bl	__aeabi_fmul
 1336              	.LVL151:
 268:..\..\FreeflyAPI/QX_Parsing_Functions.c ****             *v += (float)r;
 1337              		.loc 1 268 0
 1338 002e 2168     		ldr	r1, [r4]	@ float
 1339 0030 FFF7FEFF 		bl	__aeabi_fadd
 1340              	.LVL152:
 1341 0034 2060     		str	r0, [r4]	@ float
 269:..\..\FreeflyAPI/QX_Parsing_Functions.c ****             if(max < *v) *v = max;
 1342              		.loc 1 269 0
 1343 0036 2946     		mov	r1, r5
 1344 0038 FFF7FEFF 		bl	__aeabi_fcmpgt
 1345              	.LVL153:
 1346 003c 00B1     		cbz	r0, .L154
 1347              		.loc 1 269 0 is_stmt 0 discriminator 1
 1348 003e 2560     		str	r5, [r4]	@ float
 1349              	.L154:
 270:..\..\FreeflyAPI/QX_Parsing_Functions.c ****             if(*v < min) *v = min;
 1350              		.loc 1 270 0 is_stmt 1
 1351 0040 3146     		mov	r1, r6
 1352 0042 2068     		ldr	r0, [r4]	@ float
 1353 0044 FFF7FEFF 		bl	__aeabi_fcmplt
 1354              	.LVL154:
 1355 0048 00B1     		cbz	r0, .L156
 1356              		.loc 1 270 0 is_stmt 0 discriminator 1
 1357 004a 2660     		str	r6, [r4]	@ float
 1358              	.L156:
 271:..\..\FreeflyAPI/QX_Parsing_Functions.c ****             if(isnan(*v)) *v = 0.0f;
 1359              		.loc 1 271 0 is_stmt 1
 1360 004c 2168     		ldr	r1, [r4]	@ float
 1361 004e 0846     		mov	r0, r1
 1362 0050 FFF7FEFF 		bl	__aeabi_fcmpun
 1363              	.LVL155:
 1364 0054 08B1     		cbz	r0, .L158
 1365              		.loc 1 271 0 is_stmt 0 discriminator 1
 1366 0056 0023     		movs	r3, #0
 1367 0058 2360     		str	r3, [r4]	@ float
 1368              	.L158:
 272:..\..\FreeflyAPI/QX_Parsing_Functions.c ****             v++;
 1369              		.loc 1 272 0 is_stmt 1
 1370 005a 0434     		adds	r4, r4, #4
ARM GAS  C:\Users\hamis\AppData\Local\Temp\cc1fRzXM.s 			page 30


 1371              	.LVL156:
 1372              	.LBE13:
 264:..\..\FreeflyAPI/QX_Parsing_Functions.c ****         {
 1373              		.loc 1 264 0
 1374 005c 3946     		mov	r1, r7
 1375              	.LVL157:
 1376              	.L152:
 1377 005e 4F1E     		subs	r7, r1, #1
 1378              	.LVL158:
 1379 0060 0029     		cmp	r1, #0
 1380 0062 D9D1     		bne	.L160
 1381 0064 BDE8F081 		pop	{r4, r5, r6, r7, r8, pc}
 1382              	.LVL159:
 1383              	.L168:
 1384              	.LBB14:
 273:..\..\FreeflyAPI/QX_Parsing_Functions.c ****         }
 274:..\..\FreeflyAPI/QX_Parsing_Functions.c ****     }
 275:..\..\FreeflyAPI/QX_Parsing_Functions.c ****     else
 276:..\..\FreeflyAPI/QX_Parsing_Functions.c ****     {
 277:..\..\FreeflyAPI/QX_Parsing_Functions.c ****         while(n--)
 278:..\..\FreeflyAPI/QX_Parsing_Functions.c ****         {
 279:..\..\FreeflyAPI/QX_Parsing_Functions.c ****             float r = (float)GETUC;
 1385              		.loc 1 279 0
 1386 0068 134A     		ldr	r2, .L176+4
 1387 006a 1368     		ldr	r3, [r2]
 1388 006c 591C     		adds	r1, r3, #1
 1389 006e 1160     		str	r1, [r2]
 1390 0070 1878     		ldrb	r0, [r3]	@ zero_extendqisi2
 1391 0072 FFF7FEFF 		bl	__aeabi_ui2f
 1392              	.LVL160:
 280:..\..\FreeflyAPI/QX_Parsing_Functions.c ****             r = r * scalefrom;
 1393              		.loc 1 280 0
 1394 0076 0146     		mov	r1, r0
 1395 0078 4046     		mov	r0, r8
 1396              	.LVL161:
 1397 007a FFF7FEFF 		bl	__aeabi_fmul
 1398              	.LVL162:
 1399 007e 0146     		mov	r1, r0
 1400              	.LVL163:
 281:..\..\FreeflyAPI/QX_Parsing_Functions.c ****             *v = (float)r;
 1401              		.loc 1 281 0
 1402 0080 2060     		str	r0, [r4]	@ float
 282:..\..\FreeflyAPI/QX_Parsing_Functions.c ****             if(max < *v) *v = max;
 1403              		.loc 1 282 0
 1404 0082 2846     		mov	r0, r5
 1405              	.LVL164:
 1406 0084 FFF7FEFF 		bl	__aeabi_fcmplt
 1407              	.LVL165:
 1408 0088 00B1     		cbz	r0, .L162
 1409              		.loc 1 282 0 is_stmt 0 discriminator 1
 1410 008a 2560     		str	r5, [r4]	@ float
 1411              	.L162:
 283:..\..\FreeflyAPI/QX_Parsing_Functions.c ****             if(*v < min) *v = min;
 1412              		.loc 1 283 0 is_stmt 1
 1413 008c 2168     		ldr	r1, [r4]	@ float
 1414 008e 3046     		mov	r0, r6
 1415 0090 FFF7FEFF 		bl	__aeabi_fcmpgt
ARM GAS  C:\Users\hamis\AppData\Local\Temp\cc1fRzXM.s 			page 31


 1416              	.LVL166:
 1417 0094 00B1     		cbz	r0, .L164
 1418              		.loc 1 283 0 is_stmt 0 discriminator 1
 1419 0096 2660     		str	r6, [r4]	@ float
 1420              	.L164:
 284:..\..\FreeflyAPI/QX_Parsing_Functions.c ****             if(isnan(*v)) *v = 0.0f;
 1421              		.loc 1 284 0 is_stmt 1
 1422 0098 2168     		ldr	r1, [r4]	@ float
 1423 009a 0846     		mov	r0, r1
 1424 009c FFF7FEFF 		bl	__aeabi_fcmpun
 1425              	.LVL167:
 1426 00a0 08B1     		cbz	r0, .L166
 1427              		.loc 1 284 0 is_stmt 0 discriminator 1
 1428 00a2 0023     		movs	r3, #0
 1429 00a4 2360     		str	r3, [r4]	@ float
 1430              	.L166:
 285:..\..\FreeflyAPI/QX_Parsing_Functions.c ****             v++;
 1431              		.loc 1 285 0 is_stmt 1
 1432 00a6 0434     		adds	r4, r4, #4
 1433              	.LVL168:
 1434              	.LBE14:
 277:..\..\FreeflyAPI/QX_Parsing_Functions.c ****         {
 1435              		.loc 1 277 0
 1436 00a8 3946     		mov	r1, r7
 1437              	.LVL169:
 1438              	.L153:
 1439 00aa 4F1E     		subs	r7, r1, #1
 1440              	.LVL170:
 1441 00ac 0029     		cmp	r1, #0
 1442 00ae DBD1     		bne	.L168
 1443 00b0 BDE8F081 		pop	{r4, r5, r6, r7, r8, pc}
 1444              	.LVL171:
 1445              	.L177:
 1446              		.align	2
 1447              	.L176:
 1448 00b4 00000000 		.word	rw
 1449 00b8 00000000 		.word	msgPtr
 1450              		.cfi_endproc
 1451              	.LFE17:
 1452              		.size	GetFloatAsUnsignedChar, .-GetFloatAsUnsignedChar
 1453              		.section	.text.GetFloatAsUnsignedShort,"ax",%progbits
 1454              		.align	2
 1455              		.global	GetFloatAsUnsignedShort
 1456              		.thumb
 1457              		.thumb_func
 1458              		.type	GetFloatAsUnsignedShort, %function
 1459              	GetFloatAsUnsignedShort:
 1460              	.LFB18:
 286:..\..\FreeflyAPI/QX_Parsing_Functions.c ****         }
 287:..\..\FreeflyAPI/QX_Parsing_Functions.c ****     }
 288:..\..\FreeflyAPI/QX_Parsing_Functions.c **** }
 289:..\..\FreeflyAPI/QX_Parsing_Functions.c **** 
 290:..\..\FreeflyAPI/QX_Parsing_Functions.c **** void GetFloatAsUnsignedShort(float *v, uint32_t n, float max, float min, float scalefrom)
 291:..\..\FreeflyAPI/QX_Parsing_Functions.c **** {
 1461              		.loc 1 291 0
 1462              		.cfi_startproc
 1463              		@ args = 4, pretend = 0, frame = 0
ARM GAS  C:\Users\hamis\AppData\Local\Temp\cc1fRzXM.s 			page 32


 1464              		@ frame_needed = 0, uses_anonymous_args = 0
 1465              	.LVL172:
 1466 0000 2DE9F047 		push	{r4, r5, r6, r7, r8, r9, r10, lr}
 1467              		.cfi_def_cfa_offset 32
 1468              		.cfi_offset 4, -32
 1469              		.cfi_offset 5, -28
 1470              		.cfi_offset 6, -24
 1471              		.cfi_offset 7, -20
 1472              		.cfi_offset 8, -16
 1473              		.cfi_offset 9, -12
 1474              		.cfi_offset 10, -8
 1475              		.cfi_offset 14, -4
 1476 0004 0446     		mov	r4, r0
 1477 0006 1646     		mov	r6, r2
 1478 0008 1F46     		mov	r7, r3
 1479 000a DDF82090 		ldr	r9, [sp, #32]	@ float
 292:..\..\FreeflyAPI/QX_Parsing_Functions.c ****     if(rw == QB_Parser_Dir_WriteDel)
 1480              		.loc 1 292 0
 1481 000e 304B     		ldr	r3, .L203
 1482              	.LVL173:
 1483 0010 1B78     		ldrb	r3, [r3]	@ zero_extendqisi2
 1484 0012 012B     		cmp	r3, #1
 1485 0014 55D1     		bne	.L180
 1486 0016 27E0     		b	.L179
 1487              	.LVL174:
 1488              	.L187:
 1489              	.LBB15:
 293:..\..\FreeflyAPI/QX_Parsing_Functions.c ****     {
 294:..\..\FreeflyAPI/QX_Parsing_Functions.c ****         while(n--)
 295:..\..\FreeflyAPI/QX_Parsing_Functions.c ****         {
 296:..\..\FreeflyAPI/QX_Parsing_Functions.c ****             float r = (float)GETUS;
 1490              		.loc 1 296 0
 1491 0018 DFF8B8A0 		ldr	r10, .L203+4
 1492 001c DAF80050 		ldr	r5, [r10]
 1493 0020 2878     		ldrb	r0, [r5]	@ zero_extendqisi2
 1494 0022 6B78     		ldrb	r3, [r5, #1]	@ zero_extendqisi2
 1495 0024 43EA0020 		orr	r0, r3, r0, lsl #8
 1496 0028 FFF7FEFF 		bl	__aeabi_i2f
 1497              	.LVL175:
 1498 002c 0235     		adds	r5, r5, #2
 1499 002e CAF80050 		str	r5, [r10]
 297:..\..\FreeflyAPI/QX_Parsing_Functions.c ****             r = r * scalefrom;
 1500              		.loc 1 297 0
 1501 0032 4946     		mov	r1, r9
 1502 0034 FFF7FEFF 		bl	__aeabi_fmul
 1503              	.LVL176:
 298:..\..\FreeflyAPI/QX_Parsing_Functions.c ****             *v += (float)r;
 1504              		.loc 1 298 0
 1505 0038 2168     		ldr	r1, [r4]	@ float
 1506 003a FFF7FEFF 		bl	__aeabi_fadd
 1507              	.LVL177:
 1508 003e 2060     		str	r0, [r4]	@ float
 299:..\..\FreeflyAPI/QX_Parsing_Functions.c ****             if(max < *v) *v = max;
 1509              		.loc 1 299 0
 1510 0040 3146     		mov	r1, r6
 1511 0042 FFF7FEFF 		bl	__aeabi_fcmpgt
 1512              	.LVL178:
ARM GAS  C:\Users\hamis\AppData\Local\Temp\cc1fRzXM.s 			page 33


 1513 0046 00B1     		cbz	r0, .L181
 1514              		.loc 1 299 0 is_stmt 0 discriminator 1
 1515 0048 2660     		str	r6, [r4]	@ float
 1516              	.L181:
 300:..\..\FreeflyAPI/QX_Parsing_Functions.c ****             if(*v < min) *v = min;
 1517              		.loc 1 300 0 is_stmt 1
 1518 004a 3946     		mov	r1, r7
 1519 004c 2068     		ldr	r0, [r4]	@ float
 1520 004e FFF7FEFF 		bl	__aeabi_fcmplt
 1521              	.LVL179:
 1522 0052 00B1     		cbz	r0, .L183
 1523              		.loc 1 300 0 is_stmt 0 discriminator 1
 1524 0054 2760     		str	r7, [r4]	@ float
 1525              	.L183:
 301:..\..\FreeflyAPI/QX_Parsing_Functions.c ****             if(isnan(*v)) *v = 0.0f;
 1526              		.loc 1 301 0 is_stmt 1
 1527 0056 2168     		ldr	r1, [r4]	@ float
 1528 0058 0846     		mov	r0, r1
 1529 005a FFF7FEFF 		bl	__aeabi_fcmpun
 1530              	.LVL180:
 1531 005e 08B1     		cbz	r0, .L185
 1532              		.loc 1 301 0 is_stmt 0 discriminator 1
 1533 0060 0023     		movs	r3, #0
 1534 0062 2360     		str	r3, [r4]	@ float
 1535              	.L185:
 302:..\..\FreeflyAPI/QX_Parsing_Functions.c ****             v++;
 1536              		.loc 1 302 0 is_stmt 1
 1537 0064 0434     		adds	r4, r4, #4
 1538              	.LVL181:
 1539              	.LBE15:
 294:..\..\FreeflyAPI/QX_Parsing_Functions.c ****         {
 1540              		.loc 1 294 0
 1541 0066 4146     		mov	r1, r8
 1542              	.LVL182:
 1543              	.L179:
 1544 0068 01F1FF38 		add	r8, r1, #-1
 1545              	.LVL183:
 1546 006c 0029     		cmp	r1, #0
 1547 006e D3D1     		bne	.L187
 1548 0070 BDE8F087 		pop	{r4, r5, r6, r7, r8, r9, r10, pc}
 1549              	.LVL184:
 1550              	.L195:
 1551              	.LBB16:
 303:..\..\FreeflyAPI/QX_Parsing_Functions.c ****         }
 304:..\..\FreeflyAPI/QX_Parsing_Functions.c ****     }
 305:..\..\FreeflyAPI/QX_Parsing_Functions.c ****     else
 306:..\..\FreeflyAPI/QX_Parsing_Functions.c ****     {
 307:..\..\FreeflyAPI/QX_Parsing_Functions.c ****         while(n--)
 308:..\..\FreeflyAPI/QX_Parsing_Functions.c ****         {
 309:..\..\FreeflyAPI/QX_Parsing_Functions.c ****             float r = (float)GETUS;
 1552              		.loc 1 309 0
 1553 0074 DFF85CA0 		ldr	r10, .L203+4
 1554 0078 DAF80050 		ldr	r5, [r10]
 1555 007c 2878     		ldrb	r0, [r5]	@ zero_extendqisi2
 1556 007e 6B78     		ldrb	r3, [r5, #1]	@ zero_extendqisi2
 1557 0080 43EA0020 		orr	r0, r3, r0, lsl #8
 1558 0084 FFF7FEFF 		bl	__aeabi_i2f
ARM GAS  C:\Users\hamis\AppData\Local\Temp\cc1fRzXM.s 			page 34


 1559              	.LVL185:
 1560 0088 0235     		adds	r5, r5, #2
 1561 008a CAF80050 		str	r5, [r10]
 310:..\..\FreeflyAPI/QX_Parsing_Functions.c ****             r = r * scalefrom;
 1562              		.loc 1 310 0
 1563 008e 0146     		mov	r1, r0
 1564 0090 4846     		mov	r0, r9
 1565              	.LVL186:
 1566 0092 FFF7FEFF 		bl	__aeabi_fmul
 1567              	.LVL187:
 1568 0096 0146     		mov	r1, r0
 1569              	.LVL188:
 311:..\..\FreeflyAPI/QX_Parsing_Functions.c ****             *v = (float)r;
 1570              		.loc 1 311 0
 1571 0098 2060     		str	r0, [r4]	@ float
 312:..\..\FreeflyAPI/QX_Parsing_Functions.c ****             if(max < *v) *v = max;
 1572              		.loc 1 312 0
 1573 009a 3046     		mov	r0, r6
 1574              	.LVL189:
 1575 009c FFF7FEFF 		bl	__aeabi_fcmplt
 1576              	.LVL190:
 1577 00a0 00B1     		cbz	r0, .L189
 1578              		.loc 1 312 0 is_stmt 0 discriminator 1
 1579 00a2 2660     		str	r6, [r4]	@ float
 1580              	.L189:
 313:..\..\FreeflyAPI/QX_Parsing_Functions.c ****             if(*v < min) *v = min;
 1581              		.loc 1 313 0 is_stmt 1
 1582 00a4 2168     		ldr	r1, [r4]	@ float
 1583 00a6 3846     		mov	r0, r7
 1584 00a8 FFF7FEFF 		bl	__aeabi_fcmpgt
 1585              	.LVL191:
 1586 00ac 00B1     		cbz	r0, .L191
 1587              		.loc 1 313 0 is_stmt 0 discriminator 1
 1588 00ae 2760     		str	r7, [r4]	@ float
 1589              	.L191:
 314:..\..\FreeflyAPI/QX_Parsing_Functions.c ****             if(isnan(*v)) *v = 0.0f;
 1590              		.loc 1 314 0 is_stmt 1
 1591 00b0 2168     		ldr	r1, [r4]	@ float
 1592 00b2 0846     		mov	r0, r1
 1593 00b4 FFF7FEFF 		bl	__aeabi_fcmpun
 1594              	.LVL192:
 1595 00b8 08B1     		cbz	r0, .L193
 1596              		.loc 1 314 0 is_stmt 0 discriminator 1
 1597 00ba 0023     		movs	r3, #0
 1598 00bc 2360     		str	r3, [r4]	@ float
 1599              	.L193:
 315:..\..\FreeflyAPI/QX_Parsing_Functions.c ****             v++;
 1600              		.loc 1 315 0 is_stmt 1
 1601 00be 0434     		adds	r4, r4, #4
 1602              	.LVL193:
 1603              	.LBE16:
 307:..\..\FreeflyAPI/QX_Parsing_Functions.c ****         {
 1604              		.loc 1 307 0
 1605 00c0 4146     		mov	r1, r8
 1606              	.LVL194:
 1607              	.L180:
 1608 00c2 01F1FF38 		add	r8, r1, #-1
ARM GAS  C:\Users\hamis\AppData\Local\Temp\cc1fRzXM.s 			page 35


 1609              	.LVL195:
 1610 00c6 0029     		cmp	r1, #0
 1611 00c8 D4D1     		bne	.L195
 1612 00ca BDE8F087 		pop	{r4, r5, r6, r7, r8, r9, r10, pc}
 1613              	.LVL196:
 1614              	.L204:
 1615 00ce 00BF     		.align	2
 1616              	.L203:
 1617 00d0 00000000 		.word	rw
 1618 00d4 00000000 		.word	msgPtr
 1619              		.cfi_endproc
 1620              	.LFE18:
 1621              		.size	GetFloatAsUnsignedShort, .-GetFloatAsUnsignedShort
 1622              		.section	.text.AddSignedLongAsSignedLong,"ax",%progbits
 1623              		.align	2
 1624              		.global	AddSignedLongAsSignedLong
 1625              		.thumb
 1626              		.thumb_func
 1627              		.type	AddSignedLongAsSignedLong, %function
 1628              	AddSignedLongAsSignedLong:
 1629              	.LFB19:
 316:..\..\FreeflyAPI/QX_Parsing_Functions.c ****         }
 317:..\..\FreeflyAPI/QX_Parsing_Functions.c ****     }
 318:..\..\FreeflyAPI/QX_Parsing_Functions.c **** }
 319:..\..\FreeflyAPI/QX_Parsing_Functions.c **** 
 320:..\..\FreeflyAPI/QX_Parsing_Functions.c **** void AddSignedLongAsSignedLong(int32_t *v, uint32_t n)
 321:..\..\FreeflyAPI/QX_Parsing_Functions.c **** {
 1630              		.loc 1 321 0
 1631              		.cfi_startproc
 1632              		@ args = 0, pretend = 0, frame = 0
 1633              		@ frame_needed = 0, uses_anonymous_args = 0
 1634              		@ link register save eliminated.
 1635              	.LVL197:
 1636 0000 30B4     		push	{r4, r5}
 1637              		.cfi_def_cfa_offset 8
 1638              		.cfi_offset 4, -8
 1639              		.cfi_offset 5, -4
 322:..\..\FreeflyAPI/QX_Parsing_Functions.c ****     while(n--)
 1640              		.loc 1 322 0
 1641 0002 19E0     		b	.L206
 1642              	.LVL198:
 1643              	.L207:
 1644              	.LBB17:
 323:..\..\FreeflyAPI/QX_Parsing_Functions.c ****     {
 324:..\..\FreeflyAPI/QX_Parsing_Functions.c ****         int32_t value = *v;
 1645              		.loc 1 324 0
 1646 0004 50F8042B 		ldr	r2, [r0], #4
 1647              	.LVL199:
 325:..\..\FreeflyAPI/QX_Parsing_Functions.c ****         ADDSL(value);
 1648              		.loc 1 325 0
 1649 0008 0E4B     		ldr	r3, .L209
 1650 000a 1968     		ldr	r1, [r3]
 1651 000c 4D1C     		adds	r5, r1, #1
 1652 000e 1D60     		str	r5, [r3]
 1653 0010 150E     		lsrs	r5, r2, #24
 1654 0012 0D70     		strb	r5, [r1]
 1655 0014 1968     		ldr	r1, [r3]
ARM GAS  C:\Users\hamis\AppData\Local\Temp\cc1fRzXM.s 			page 36


 1656 0016 4D1C     		adds	r5, r1, #1
 1657 0018 1D60     		str	r5, [r3]
 1658 001a C2F30745 		ubfx	r5, r2, #16, #8
 1659 001e 0D70     		strb	r5, [r1]
 1660 0020 1968     		ldr	r1, [r3]
 1661 0022 4D1C     		adds	r5, r1, #1
 1662 0024 1D60     		str	r5, [r3]
 1663 0026 C2F30725 		ubfx	r5, r2, #8, #8
 1664 002a 0D70     		strb	r5, [r1]
 1665 002c 1968     		ldr	r1, [r3]
 1666 002e 4D1C     		adds	r5, r1, #1
 1667 0030 1D60     		str	r5, [r3]
 1668 0032 D2B2     		uxtb	r2, r2
 1669              	.LVL200:
 1670 0034 0A70     		strb	r2, [r1]
 1671              	.LVL201:
 1672              	.LBE17:
 322:..\..\FreeflyAPI/QX_Parsing_Functions.c ****     while(n--)
 1673              		.loc 1 322 0
 1674 0036 2146     		mov	r1, r4
 1675              	.LVL202:
 1676              	.L206:
 1677 0038 4C1E     		subs	r4, r1, #1
 1678              	.LVL203:
 1679 003a 0029     		cmp	r1, #0
 1680 003c E2D1     		bne	.L207
 326:..\..\FreeflyAPI/QX_Parsing_Functions.c ****         v++;
 327:..\..\FreeflyAPI/QX_Parsing_Functions.c ****     }
 328:..\..\FreeflyAPI/QX_Parsing_Functions.c **** }
 1681              		.loc 1 328 0
 1682 003e 30BC     		pop	{r4, r5}
 1683              		.cfi_restore 5
 1684              		.cfi_restore 4
 1685              		.cfi_def_cfa_offset 0
 1686              	.LVL204:
 1687 0040 7047     		bx	lr
 1688              	.L210:
 1689 0042 00BF     		.align	2
 1690              	.L209:
 1691 0044 00000000 		.word	msgPtr
 1692              		.cfi_endproc
 1693              	.LFE19:
 1694              		.size	AddSignedLongAsSignedLong, .-AddSignedLongAsSignedLong
 1695              		.section	.text.AddSignedLongAsSignedShort,"ax",%progbits
 1696              		.align	2
 1697              		.global	AddSignedLongAsSignedShort
 1698              		.thumb
 1699              		.thumb_func
 1700              		.type	AddSignedLongAsSignedShort, %function
 1701              	AddSignedLongAsSignedShort:
 1702              	.LFB20:
 329:..\..\FreeflyAPI/QX_Parsing_Functions.c **** 
 330:..\..\FreeflyAPI/QX_Parsing_Functions.c **** void AddSignedLongAsSignedShort(int32_t *v, uint32_t n)
 331:..\..\FreeflyAPI/QX_Parsing_Functions.c **** {
 1703              		.loc 1 331 0
 1704              		.cfi_startproc
 1705              		@ args = 0, pretend = 0, frame = 0
ARM GAS  C:\Users\hamis\AppData\Local\Temp\cc1fRzXM.s 			page 37


 1706              		@ frame_needed = 0, uses_anonymous_args = 0
 1707              		@ link register save eliminated.
 1708              	.LVL205:
 1709 0000 30B4     		push	{r4, r5}
 1710              		.cfi_def_cfa_offset 8
 1711              		.cfi_offset 4, -8
 1712              		.cfi_offset 5, -4
 332:..\..\FreeflyAPI/QX_Parsing_Functions.c ****     while(n--)
 1713              		.loc 1 332 0
 1714 0002 0EE0     		b	.L212
 1715              	.LVL206:
 1716              	.L213:
 1717              	.LBB18:
 333:..\..\FreeflyAPI/QX_Parsing_Functions.c ****     {
 334:..\..\FreeflyAPI/QX_Parsing_Functions.c ****         int16_t value = (int16_t)(*v);
 1718              		.loc 1 334 0
 1719 0004 50F8043B 		ldr	r3, [r0], #4
 1720              	.LVL207:
 335:..\..\FreeflyAPI/QX_Parsing_Functions.c ****         ADDSS(value);
 1721              		.loc 1 335 0
 1722 0008 084A     		ldr	r2, .L215
 1723 000a 1168     		ldr	r1, [r2]
 1724 000c 4D1C     		adds	r5, r1, #1
 1725 000e 1560     		str	r5, [r2]
 1726 0010 C3F30725 		ubfx	r5, r3, #8, #8
 1727 0014 0D70     		strb	r5, [r1]
 1728 0016 1168     		ldr	r1, [r2]
 1729 0018 4D1C     		adds	r5, r1, #1
 1730 001a 1560     		str	r5, [r2]
 1731 001c DBB2     		uxtb	r3, r3
 1732              	.LVL208:
 1733 001e 0B70     		strb	r3, [r1]
 1734              	.LVL209:
 1735              	.LBE18:
 332:..\..\FreeflyAPI/QX_Parsing_Functions.c ****     while(n--)
 1736              		.loc 1 332 0
 1737 0020 2146     		mov	r1, r4
 1738              	.LVL210:
 1739              	.L212:
 1740 0022 4C1E     		subs	r4, r1, #1
 1741              	.LVL211:
 1742 0024 0029     		cmp	r1, #0
 1743 0026 EDD1     		bne	.L213
 336:..\..\FreeflyAPI/QX_Parsing_Functions.c ****         v++;
 337:..\..\FreeflyAPI/QX_Parsing_Functions.c ****     }
 338:..\..\FreeflyAPI/QX_Parsing_Functions.c **** }
 1744              		.loc 1 338 0
 1745 0028 30BC     		pop	{r4, r5}
 1746              		.cfi_restore 5
 1747              		.cfi_restore 4
 1748              		.cfi_def_cfa_offset 0
 1749              	.LVL212:
 1750 002a 7047     		bx	lr
 1751              	.L216:
 1752              		.align	2
 1753              	.L215:
 1754 002c 00000000 		.word	msgPtr
ARM GAS  C:\Users\hamis\AppData\Local\Temp\cc1fRzXM.s 			page 38


 1755              		.cfi_endproc
 1756              	.LFE20:
 1757              		.size	AddSignedLongAsSignedShort, .-AddSignedLongAsSignedShort
 1758              		.section	.text.AddSignedLongAsSignedChar,"ax",%progbits
 1759              		.align	2
 1760              		.global	AddSignedLongAsSignedChar
 1761              		.thumb
 1762              		.thumb_func
 1763              		.type	AddSignedLongAsSignedChar, %function
 1764              	AddSignedLongAsSignedChar:
 1765              	.LFB21:
 339:..\..\FreeflyAPI/QX_Parsing_Functions.c **** 
 340:..\..\FreeflyAPI/QX_Parsing_Functions.c **** void AddSignedLongAsSignedChar(int32_t *v, uint32_t n)
 341:..\..\FreeflyAPI/QX_Parsing_Functions.c **** {
 1766              		.loc 1 341 0
 1767              		.cfi_startproc
 1768              		@ args = 0, pretend = 0, frame = 0
 1769              		@ frame_needed = 0, uses_anonymous_args = 0
 1770              		@ link register save eliminated.
 1771              	.LVL213:
 1772 0000 30B4     		push	{r4, r5}
 1773              		.cfi_def_cfa_offset 8
 1774              		.cfi_offset 4, -8
 1775              		.cfi_offset 5, -4
 342:..\..\FreeflyAPI/QX_Parsing_Functions.c ****     while(n--)
 1776              		.loc 1 342 0
 1777 0002 08E0     		b	.L218
 1778              	.LVL214:
 1779              	.L219:
 1780              	.LBB19:
 343:..\..\FreeflyAPI/QX_Parsing_Functions.c ****     {
 344:..\..\FreeflyAPI/QX_Parsing_Functions.c ****         int8_t value = (int8_t)(*v);
 1781              		.loc 1 344 0
 1782 0004 50F8043B 		ldr	r3, [r0], #4
 1783              	.LVL215:
 345:..\..\FreeflyAPI/QX_Parsing_Functions.c ****         ADDCHAR(value);
 1784              		.loc 1 345 0
 1785 0008 0549     		ldr	r1, .L221
 1786 000a 0A68     		ldr	r2, [r1]
 1787 000c 551C     		adds	r5, r2, #1
 1788 000e 0D60     		str	r5, [r1]
 1789 0010 DBB2     		uxtb	r3, r3
 1790 0012 1370     		strb	r3, [r2]
 1791              	.LVL216:
 1792              	.LBE19:
 342:..\..\FreeflyAPI/QX_Parsing_Functions.c ****     while(n--)
 1793              		.loc 1 342 0
 1794 0014 2146     		mov	r1, r4
 1795              	.LVL217:
 1796              	.L218:
 1797 0016 4C1E     		subs	r4, r1, #1
 1798              	.LVL218:
 1799 0018 0029     		cmp	r1, #0
 1800 001a F3D1     		bne	.L219
 346:..\..\FreeflyAPI/QX_Parsing_Functions.c ****         v++;
 347:..\..\FreeflyAPI/QX_Parsing_Functions.c ****     }
 348:..\..\FreeflyAPI/QX_Parsing_Functions.c **** }
ARM GAS  C:\Users\hamis\AppData\Local\Temp\cc1fRzXM.s 			page 39


 1801              		.loc 1 348 0
 1802 001c 30BC     		pop	{r4, r5}
 1803              		.cfi_restore 5
 1804              		.cfi_restore 4
 1805              		.cfi_def_cfa_offset 0
 1806              	.LVL219:
 1807 001e 7047     		bx	lr
 1808              	.L222:
 1809              		.align	2
 1810              	.L221:
 1811 0020 00000000 		.word	msgPtr
 1812              		.cfi_endproc
 1813              	.LFE21:
 1814              		.size	AddSignedLongAsSignedChar, .-AddSignedLongAsSignedChar
 1815              		.section	.text.AddSignedLongAsUnsignedChar,"ax",%progbits
 1816              		.align	2
 1817              		.global	AddSignedLongAsUnsignedChar
 1818              		.thumb
 1819              		.thumb_func
 1820              		.type	AddSignedLongAsUnsignedChar, %function
 1821              	AddSignedLongAsUnsignedChar:
 1822              	.LFB22:
 349:..\..\FreeflyAPI/QX_Parsing_Functions.c **** 
 350:..\..\FreeflyAPI/QX_Parsing_Functions.c **** void AddSignedLongAsUnsignedChar(int32_t *v, uint32_t n)
 351:..\..\FreeflyAPI/QX_Parsing_Functions.c **** {
 1823              		.loc 1 351 0
 1824              		.cfi_startproc
 1825              		@ args = 0, pretend = 0, frame = 0
 1826              		@ frame_needed = 0, uses_anonymous_args = 0
 1827              		@ link register save eliminated.
 1828              	.LVL220:
 1829 0000 30B4     		push	{r4, r5}
 1830              		.cfi_def_cfa_offset 8
 1831              		.cfi_offset 4, -8
 1832              		.cfi_offset 5, -4
 352:..\..\FreeflyAPI/QX_Parsing_Functions.c ****     while(n--)
 1833              		.loc 1 352 0
 1834 0002 08E0     		b	.L224
 1835              	.LVL221:
 1836              	.L225:
 1837              	.LBB20:
 353:..\..\FreeflyAPI/QX_Parsing_Functions.c ****     {
 354:..\..\FreeflyAPI/QX_Parsing_Functions.c ****         uint8_t value = (uint8_t)(*v);
 1838              		.loc 1 354 0
 1839 0004 50F8043B 		ldr	r3, [r0], #4
 1840              	.LVL222:
 1841 0008 DBB2     		uxtb	r3, r3
 1842              	.LVL223:
 355:..\..\FreeflyAPI/QX_Parsing_Functions.c ****         ADDCHAR(value);
 1843              		.loc 1 355 0
 1844 000a 0549     		ldr	r1, .L227
 1845 000c 0A68     		ldr	r2, [r1]
 1846 000e 551C     		adds	r5, r2, #1
 1847 0010 0D60     		str	r5, [r1]
 1848 0012 1370     		strb	r3, [r2]
 1849              	.LVL224:
 1850              	.LBE20:
ARM GAS  C:\Users\hamis\AppData\Local\Temp\cc1fRzXM.s 			page 40


 352:..\..\FreeflyAPI/QX_Parsing_Functions.c ****     while(n--)
 1851              		.loc 1 352 0
 1852 0014 2146     		mov	r1, r4
 1853              	.LVL225:
 1854              	.L224:
 1855 0016 4C1E     		subs	r4, r1, #1
 1856              	.LVL226:
 1857 0018 0029     		cmp	r1, #0
 1858 001a F3D1     		bne	.L225
 356:..\..\FreeflyAPI/QX_Parsing_Functions.c ****         v++;
 357:..\..\FreeflyAPI/QX_Parsing_Functions.c ****     }
 358:..\..\FreeflyAPI/QX_Parsing_Functions.c **** }
 1859              		.loc 1 358 0
 1860 001c 30BC     		pop	{r4, r5}
 1861              		.cfi_restore 5
 1862              		.cfi_restore 4
 1863              		.cfi_def_cfa_offset 0
 1864              	.LVL227:
 1865 001e 7047     		bx	lr
 1866              	.L228:
 1867              		.align	2
 1868              	.L227:
 1869 0020 00000000 		.word	msgPtr
 1870              		.cfi_endproc
 1871              	.LFE22:
 1872              		.size	AddSignedLongAsUnsignedChar, .-AddSignedLongAsUnsignedChar
 1873              		.section	.text.GetSignedLongAsSignedLong,"ax",%progbits
 1874              		.align	2
 1875              		.global	GetSignedLongAsSignedLong
 1876              		.thumb
 1877              		.thumb_func
 1878              		.type	GetSignedLongAsSignedLong, %function
 1879              	GetSignedLongAsSignedLong:
 1880              	.LFB23:
 359:..\..\FreeflyAPI/QX_Parsing_Functions.c **** 
 360:..\..\FreeflyAPI/QX_Parsing_Functions.c **** void GetSignedLongAsSignedLong(int32_t *v, uint32_t n, int32_t max, int32_t min)
 361:..\..\FreeflyAPI/QX_Parsing_Functions.c **** {
 1881              		.loc 1 361 0
 1882              		.cfi_startproc
 1883              		@ args = 0, pretend = 0, frame = 0
 1884              		@ frame_needed = 0, uses_anonymous_args = 0
 1885              		@ link register save eliminated.
 1886              	.LVL228:
 1887 0000 F0B4     		push	{r4, r5, r6, r7}
 1888              		.cfi_def_cfa_offset 16
 1889              		.cfi_offset 4, -16
 1890              		.cfi_offset 5, -12
 1891              		.cfi_offset 6, -8
 1892              		.cfi_offset 7, -4
 362:..\..\FreeflyAPI/QX_Parsing_Functions.c ****     if(rw == QB_Parser_Dir_WriteDel)
 1893              		.loc 1 362 0
 1894 0002 204C     		ldr	r4, .L240
 1895 0004 2478     		ldrb	r4, [r4]	@ zero_extendqisi2
 1896 0006 012C     		cmp	r4, #1
 1897 0008 36D1     		bne	.L231
 1898 000a 19E0     		b	.L230
 1899              	.LVL229:
ARM GAS  C:\Users\hamis\AppData\Local\Temp\cc1fRzXM.s 			page 41


 1900              	.L234:
 1901              	.LBB21:
 363:..\..\FreeflyAPI/QX_Parsing_Functions.c ****     {
 364:..\..\FreeflyAPI/QX_Parsing_Functions.c ****         while(n--)
 365:..\..\FreeflyAPI/QX_Parsing_Functions.c ****         {
 366:..\..\FreeflyAPI/QX_Parsing_Functions.c ****             int32_t r = GETSL;
 1902              		.loc 1 366 0
 1903 000c 1E4E     		ldr	r6, .L240+4
 1904 000e 3468     		ldr	r4, [r6]
 1905 0010 2778     		ldrb	r7, [r4]	@ zero_extendqisi2
 1906 0012 6178     		ldrb	r1, [r4, #1]	@ zero_extendqisi2
 1907 0014 0904     		lsls	r1, r1, #16
 1908 0016 41EA0761 		orr	r1, r1, r7, lsl #24
 1909 001a A778     		ldrb	r7, [r4, #2]	@ zero_extendqisi2
 1910 001c 41EA0721 		orr	r1, r1, r7, lsl #8
 1911 0020 E778     		ldrb	r7, [r4, #3]	@ zero_extendqisi2
 1912 0022 3943     		orrs	r1, r1, r7
 1913              	.LVL230:
 1914 0024 0434     		adds	r4, r4, #4
 1915 0026 3460     		str	r4, [r6]
 367:..\..\FreeflyAPI/QX_Parsing_Functions.c ****             *v += r;
 1916              		.loc 1 367 0
 1917 0028 0468     		ldr	r4, [r0]
 1918 002a 2144     		add	r1, r1, r4
 1919              	.LVL231:
 1920 002c 0160     		str	r1, [r0]
 368:..\..\FreeflyAPI/QX_Parsing_Functions.c ****             if(max < *v) *v = max;
 1921              		.loc 1 368 0
 1922 002e 9142     		cmp	r1, r2
 1923 0030 00DD     		ble	.L232
 1924              		.loc 1 368 0 is_stmt 0 discriminator 1
 1925 0032 0260     		str	r2, [r0]
 1926              	.L232:
 369:..\..\FreeflyAPI/QX_Parsing_Functions.c ****             if(*v < min) *v = min;
 1927              		.loc 1 369 0 is_stmt 1
 1928 0034 0168     		ldr	r1, [r0]
 1929 0036 9942     		cmp	r1, r3
 1930 0038 00DA     		bge	.L233
 1931              		.loc 1 369 0 is_stmt 0 discriminator 1
 1932 003a 0360     		str	r3, [r0]
 1933              	.L233:
 370:..\..\FreeflyAPI/QX_Parsing_Functions.c ****             v++;
 1934              		.loc 1 370 0 is_stmt 1
 1935 003c 0430     		adds	r0, r0, #4
 1936              	.LVL232:
 1937              	.LBE21:
 364:..\..\FreeflyAPI/QX_Parsing_Functions.c ****         {
 1938              		.loc 1 364 0
 1939 003e 2946     		mov	r1, r5
 1940              	.LVL233:
 1941              	.L230:
 1942 0040 4D1E     		subs	r5, r1, #1
 1943              	.LVL234:
 1944 0042 0029     		cmp	r1, #0
 1945 0044 E2D1     		bne	.L234
 1946 0046 1AE0     		b	.L229
 1947              	.LVL235:
ARM GAS  C:\Users\hamis\AppData\Local\Temp\cc1fRzXM.s 			page 42


 1948              	.L238:
 1949              	.LBB22:
 371:..\..\FreeflyAPI/QX_Parsing_Functions.c ****         }
 372:..\..\FreeflyAPI/QX_Parsing_Functions.c ****     }
 373:..\..\FreeflyAPI/QX_Parsing_Functions.c ****     else
 374:..\..\FreeflyAPI/QX_Parsing_Functions.c ****     {
 375:..\..\FreeflyAPI/QX_Parsing_Functions.c ****         while(n--)
 376:..\..\FreeflyAPI/QX_Parsing_Functions.c ****         {
 377:..\..\FreeflyAPI/QX_Parsing_Functions.c ****             int32_t r = GETSL;
 1950              		.loc 1 377 0
 1951 0048 0F4D     		ldr	r5, .L240+4
 1952 004a 2C68     		ldr	r4, [r5]
 1953 004c 2778     		ldrb	r7, [r4]	@ zero_extendqisi2
 1954 004e 6178     		ldrb	r1, [r4, #1]	@ zero_extendqisi2
 1955 0050 0904     		lsls	r1, r1, #16
 1956 0052 41EA0761 		orr	r1, r1, r7, lsl #24
 1957 0056 A778     		ldrb	r7, [r4, #2]	@ zero_extendqisi2
 1958 0058 41EA0721 		orr	r1, r1, r7, lsl #8
 1959 005c E778     		ldrb	r7, [r4, #3]	@ zero_extendqisi2
 1960 005e 3943     		orrs	r1, r1, r7
 1961              	.LVL236:
 1962 0060 0434     		adds	r4, r4, #4
 1963 0062 2C60     		str	r4, [r5]
 378:..\..\FreeflyAPI/QX_Parsing_Functions.c ****             *v = r;
 1964              		.loc 1 378 0
 1965 0064 0160     		str	r1, [r0]
 379:..\..\FreeflyAPI/QX_Parsing_Functions.c ****             if(max < *v) *v = max;
 1966              		.loc 1 379 0
 1967 0066 8A42     		cmp	r2, r1
 1968 0068 00DA     		bge	.L236
 1969              		.loc 1 379 0 is_stmt 0 discriminator 1
 1970 006a 0260     		str	r2, [r0]
 1971              	.L236:
 380:..\..\FreeflyAPI/QX_Parsing_Functions.c ****             if(*v < min) *v = min;
 1972              		.loc 1 380 0 is_stmt 1
 1973 006c 0168     		ldr	r1, [r0]
 1974              	.LVL237:
 1975 006e 8B42     		cmp	r3, r1
 1976 0070 00DD     		ble	.L237
 1977              		.loc 1 380 0 is_stmt 0 discriminator 1
 1978 0072 0360     		str	r3, [r0]
 1979              	.L237:
 381:..\..\FreeflyAPI/QX_Parsing_Functions.c ****             v++;
 1980              		.loc 1 381 0 is_stmt 1
 1981 0074 0430     		adds	r0, r0, #4
 1982              	.LVL238:
 1983              	.LBE22:
 375:..\..\FreeflyAPI/QX_Parsing_Functions.c ****         {
 1984              		.loc 1 375 0
 1985 0076 3146     		mov	r1, r6
 1986              	.LVL239:
 1987              	.L231:
 1988 0078 4E1E     		subs	r6, r1, #1
 1989              	.LVL240:
 1990 007a 0029     		cmp	r1, #0
 1991 007c E4D1     		bne	.L238
 1992              	.LVL241:
ARM GAS  C:\Users\hamis\AppData\Local\Temp\cc1fRzXM.s 			page 43


 1993              	.L229:
 382:..\..\FreeflyAPI/QX_Parsing_Functions.c ****         }
 383:..\..\FreeflyAPI/QX_Parsing_Functions.c ****     }
 384:..\..\FreeflyAPI/QX_Parsing_Functions.c **** }
 1994              		.loc 1 384 0
 1995 007e F0BC     		pop	{r4, r5, r6, r7}
 1996              		.cfi_restore 7
 1997              		.cfi_restore 6
 1998              		.cfi_restore 5
 1999              		.cfi_restore 4
 2000              		.cfi_def_cfa_offset 0
 2001 0080 7047     		bx	lr
 2002              	.L241:
 2003 0082 00BF     		.align	2
 2004              	.L240:
 2005 0084 00000000 		.word	rw
 2006 0088 00000000 		.word	msgPtr
 2007              		.cfi_endproc
 2008              	.LFE23:
 2009              		.size	GetSignedLongAsSignedLong, .-GetSignedLongAsSignedLong
 2010              		.section	.text.GetSignedLongAsSignedShort,"ax",%progbits
 2011              		.align	2
 2012              		.global	GetSignedLongAsSignedShort
 2013              		.thumb
 2014              		.thumb_func
 2015              		.type	GetSignedLongAsSignedShort, %function
 2016              	GetSignedLongAsSignedShort:
 2017              	.LFB24:
 385:..\..\FreeflyAPI/QX_Parsing_Functions.c **** 
 386:..\..\FreeflyAPI/QX_Parsing_Functions.c **** void GetSignedLongAsSignedShort(int32_t *v, uint32_t n, int32_t max, int32_t min)
 387:..\..\FreeflyAPI/QX_Parsing_Functions.c **** {
 2018              		.loc 1 387 0
 2019              		.cfi_startproc
 2020              		@ args = 0, pretend = 0, frame = 0
 2021              		@ frame_needed = 0, uses_anonymous_args = 0
 2022              		@ link register save eliminated.
 2023              	.LVL242:
 2024 0000 F0B4     		push	{r4, r5, r6, r7}
 2025              		.cfi_def_cfa_offset 16
 2026              		.cfi_offset 4, -16
 2027              		.cfi_offset 5, -12
 2028              		.cfi_offset 6, -8
 2029              		.cfi_offset 7, -4
 388:..\..\FreeflyAPI/QX_Parsing_Functions.c ****     if(rw == QB_Parser_Dir_WriteDel)
 2030              		.loc 1 388 0
 2031 0002 1B4C     		ldr	r4, .L253
 2032 0004 2478     		ldrb	r4, [r4]	@ zero_extendqisi2
 2033 0006 012C     		cmp	r4, #1
 2034 0008 2CD1     		bne	.L244
 2035 000a 14E0     		b	.L243
 2036              	.LVL243:
 2037              	.L247:
 2038              	.LBB23:
 389:..\..\FreeflyAPI/QX_Parsing_Functions.c ****     {
 390:..\..\FreeflyAPI/QX_Parsing_Functions.c ****         while(n--)
 391:..\..\FreeflyAPI/QX_Parsing_Functions.c ****         {
 392:..\..\FreeflyAPI/QX_Parsing_Functions.c ****             int32_t r = (int32_t)GETSS;
ARM GAS  C:\Users\hamis\AppData\Local\Temp\cc1fRzXM.s 			page 44


 2039              		.loc 1 392 0
 2040 000c 194D     		ldr	r5, .L253+4
 2041 000e 2C68     		ldr	r4, [r5]
 2042 0010 2178     		ldrb	r1, [r4]	@ zero_extendqisi2
 2043 0012 0902     		lsls	r1, r1, #8
 2044 0014 09B2     		sxth	r1, r1
 2045 0016 6778     		ldrb	r7, [r4, #1]	@ zero_extendqisi2
 2046 0018 3943     		orrs	r1, r1, r7
 2047              	.LVL244:
 2048 001a 0234     		adds	r4, r4, #2
 2049 001c 2C60     		str	r4, [r5]
 393:..\..\FreeflyAPI/QX_Parsing_Functions.c ****             *v += r;
 2050              		.loc 1 393 0
 2051 001e 0468     		ldr	r4, [r0]
 2052 0020 2144     		add	r1, r1, r4
 2053              	.LVL245:
 2054 0022 0160     		str	r1, [r0]
 394:..\..\FreeflyAPI/QX_Parsing_Functions.c ****             if(max < *v) *v = max;
 2055              		.loc 1 394 0
 2056 0024 9142     		cmp	r1, r2
 2057 0026 00DD     		ble	.L245
 2058              		.loc 1 394 0 is_stmt 0 discriminator 1
 2059 0028 0260     		str	r2, [r0]
 2060              	.L245:
 395:..\..\FreeflyAPI/QX_Parsing_Functions.c ****             if(*v < min) *v = min;
 2061              		.loc 1 395 0 is_stmt 1
 2062 002a 0168     		ldr	r1, [r0]
 2063 002c 9942     		cmp	r1, r3
 2064 002e 00DA     		bge	.L246
 2065              		.loc 1 395 0 is_stmt 0 discriminator 1
 2066 0030 0360     		str	r3, [r0]
 2067              	.L246:
 396:..\..\FreeflyAPI/QX_Parsing_Functions.c ****             v++;
 2068              		.loc 1 396 0 is_stmt 1
 2069 0032 0430     		adds	r0, r0, #4
 2070              	.LVL246:
 2071              	.LBE23:
 390:..\..\FreeflyAPI/QX_Parsing_Functions.c ****         {
 2072              		.loc 1 390 0
 2073 0034 3146     		mov	r1, r6
 2074              	.LVL247:
 2075              	.L243:
 2076 0036 4E1E     		subs	r6, r1, #1
 2077              	.LVL248:
 2078 0038 0029     		cmp	r1, #0
 2079 003a E7D1     		bne	.L247
 2080 003c 15E0     		b	.L242
 2081              	.L251:
 2082              	.LBB24:
 397:..\..\FreeflyAPI/QX_Parsing_Functions.c ****         }
 398:..\..\FreeflyAPI/QX_Parsing_Functions.c ****     }
 399:..\..\FreeflyAPI/QX_Parsing_Functions.c ****     else
 400:..\..\FreeflyAPI/QX_Parsing_Functions.c ****     {
 401:..\..\FreeflyAPI/QX_Parsing_Functions.c ****         while(n--)
 402:..\..\FreeflyAPI/QX_Parsing_Functions.c ****         {
 403:..\..\FreeflyAPI/QX_Parsing_Functions.c ****             int32_t r = (int32_t)GETSS;
 2083              		.loc 1 403 0
ARM GAS  C:\Users\hamis\AppData\Local\Temp\cc1fRzXM.s 			page 45


 2084 003e 0D4D     		ldr	r5, .L253+4
 2085 0040 2C68     		ldr	r4, [r5]
 2086 0042 2178     		ldrb	r1, [r4]	@ zero_extendqisi2
 2087 0044 0902     		lsls	r1, r1, #8
 2088 0046 09B2     		sxth	r1, r1
 2089 0048 6778     		ldrb	r7, [r4, #1]	@ zero_extendqisi2
 2090 004a 3943     		orrs	r1, r1, r7
 2091              	.LVL249:
 2092 004c 0234     		adds	r4, r4, #2
 2093 004e 2C60     		str	r4, [r5]
 404:..\..\FreeflyAPI/QX_Parsing_Functions.c ****             *v = r;
 2094              		.loc 1 404 0
 2095 0050 0160     		str	r1, [r0]
 405:..\..\FreeflyAPI/QX_Parsing_Functions.c ****             if(max < *v) *v = max;
 2096              		.loc 1 405 0
 2097 0052 8A42     		cmp	r2, r1
 2098 0054 00DA     		bge	.L249
 2099              		.loc 1 405 0 is_stmt 0 discriminator 1
 2100 0056 0260     		str	r2, [r0]
 2101              	.L249:
 406:..\..\FreeflyAPI/QX_Parsing_Functions.c ****             if(*v < min) *v = min;
 2102              		.loc 1 406 0 is_stmt 1
 2103 0058 0168     		ldr	r1, [r0]
 2104              	.LVL250:
 2105 005a 8B42     		cmp	r3, r1
 2106 005c 00DD     		ble	.L250
 2107              		.loc 1 406 0 is_stmt 0 discriminator 1
 2108 005e 0360     		str	r3, [r0]
 2109              	.L250:
 407:..\..\FreeflyAPI/QX_Parsing_Functions.c ****             v++;
 2110              		.loc 1 407 0 is_stmt 1
 2111 0060 0430     		adds	r0, r0, #4
 2112              	.LVL251:
 2113              	.LBE24:
 401:..\..\FreeflyAPI/QX_Parsing_Functions.c ****         {
 2114              		.loc 1 401 0
 2115 0062 3146     		mov	r1, r6
 2116              	.LVL252:
 2117              	.L244:
 2118 0064 4E1E     		subs	r6, r1, #1
 2119              	.LVL253:
 2120 0066 0029     		cmp	r1, #0
 2121 0068 E9D1     		bne	.L251
 2122              	.L242:
 408:..\..\FreeflyAPI/QX_Parsing_Functions.c ****         }
 409:..\..\FreeflyAPI/QX_Parsing_Functions.c ****     }
 410:..\..\FreeflyAPI/QX_Parsing_Functions.c **** }
 2123              		.loc 1 410 0
 2124 006a F0BC     		pop	{r4, r5, r6, r7}
 2125              		.cfi_restore 7
 2126              		.cfi_restore 6
 2127              		.cfi_restore 5
 2128              		.cfi_restore 4
 2129              		.cfi_def_cfa_offset 0
 2130              	.LVL254:
 2131 006c 7047     		bx	lr
 2132              	.L254:
ARM GAS  C:\Users\hamis\AppData\Local\Temp\cc1fRzXM.s 			page 46


 2133 006e 00BF     		.align	2
 2134              	.L253:
 2135 0070 00000000 		.word	rw
 2136 0074 00000000 		.word	msgPtr
 2137              		.cfi_endproc
 2138              	.LFE24:
 2139              		.size	GetSignedLongAsSignedShort, .-GetSignedLongAsSignedShort
 2140              		.section	.text.GetSignedLongAsSignedChar,"ax",%progbits
 2141              		.align	2
 2142              		.global	GetSignedLongAsSignedChar
 2143              		.thumb
 2144              		.thumb_func
 2145              		.type	GetSignedLongAsSignedChar, %function
 2146              	GetSignedLongAsSignedChar:
 2147              	.LFB25:
 411:..\..\FreeflyAPI/QX_Parsing_Functions.c **** 
 412:..\..\FreeflyAPI/QX_Parsing_Functions.c **** void GetSignedLongAsSignedChar(int32_t *v, uint32_t n, int32_t max, int32_t min)
 413:..\..\FreeflyAPI/QX_Parsing_Functions.c **** {
 2148              		.loc 1 413 0
 2149              		.cfi_startproc
 2150              		@ args = 0, pretend = 0, frame = 0
 2151              		@ frame_needed = 0, uses_anonymous_args = 0
 2152              		@ link register save eliminated.
 2153              	.LVL255:
 2154 0000 70B4     		push	{r4, r5, r6}
 2155              		.cfi_def_cfa_offset 12
 2156              		.cfi_offset 4, -12
 2157              		.cfi_offset 5, -8
 2158              		.cfi_offset 6, -4
 414:..\..\FreeflyAPI/QX_Parsing_Functions.c ****     if(rw == QB_Parser_Dir_WriteDel)
 2159              		.loc 1 414 0
 2160 0002 184C     		ldr	r4, .L266
 2161 0004 2478     		ldrb	r4, [r4]	@ zero_extendqisi2
 2162 0006 012C     		cmp	r4, #1
 2163 0008 26D1     		bne	.L257
 2164 000a 11E0     		b	.L256
 2165              	.LVL256:
 2166              	.L260:
 2167              	.LBB25:
 415:..\..\FreeflyAPI/QX_Parsing_Functions.c ****     {
 416:..\..\FreeflyAPI/QX_Parsing_Functions.c ****         while(n--)
 417:..\..\FreeflyAPI/QX_Parsing_Functions.c ****         {
 418:..\..\FreeflyAPI/QX_Parsing_Functions.c ****             int32_t r = (int32_t)GETSC;
 2168              		.loc 1 418 0
 2169 000c 164C     		ldr	r4, .L266+4
 2170 000e 2168     		ldr	r1, [r4]
 2171 0010 4E1C     		adds	r6, r1, #1
 2172 0012 2660     		str	r6, [r4]
 2173 0014 0978     		ldrb	r1, [r1]	@ zero_extendqisi2
 2174 0016 4CB2     		sxtb	r4, r1
 2175              	.LVL257:
 419:..\..\FreeflyAPI/QX_Parsing_Functions.c ****             *v += r;
 2176              		.loc 1 419 0
 2177 0018 0168     		ldr	r1, [r0]
 2178 001a 2144     		add	r1, r1, r4
 2179 001c 0160     		str	r1, [r0]
 420:..\..\FreeflyAPI/QX_Parsing_Functions.c ****             if(max < *v) *v = max;
ARM GAS  C:\Users\hamis\AppData\Local\Temp\cc1fRzXM.s 			page 47


 2180              		.loc 1 420 0
 2181 001e 9142     		cmp	r1, r2
 2182 0020 00DD     		ble	.L258
 2183              		.loc 1 420 0 is_stmt 0 discriminator 1
 2184 0022 0260     		str	r2, [r0]
 2185              	.L258:
 421:..\..\FreeflyAPI/QX_Parsing_Functions.c ****             if(*v < min) *v = min;
 2186              		.loc 1 421 0 is_stmt 1
 2187 0024 0168     		ldr	r1, [r0]
 2188 0026 9942     		cmp	r1, r3
 2189 0028 00DA     		bge	.L259
 2190              		.loc 1 421 0 is_stmt 0 discriminator 1
 2191 002a 0360     		str	r3, [r0]
 2192              	.L259:
 422:..\..\FreeflyAPI/QX_Parsing_Functions.c ****             v++;
 2193              		.loc 1 422 0 is_stmt 1
 2194 002c 0430     		adds	r0, r0, #4
 2195              	.LVL258:
 2196              	.LBE25:
 416:..\..\FreeflyAPI/QX_Parsing_Functions.c ****         {
 2197              		.loc 1 416 0
 2198 002e 2946     		mov	r1, r5
 2199              	.LVL259:
 2200              	.L256:
 2201 0030 4D1E     		subs	r5, r1, #1
 2202              	.LVL260:
 2203 0032 0029     		cmp	r1, #0
 2204 0034 EAD1     		bne	.L260
 2205 0036 12E0     		b	.L255
 2206              	.L264:
 2207              	.LBB26:
 423:..\..\FreeflyAPI/QX_Parsing_Functions.c ****         }
 424:..\..\FreeflyAPI/QX_Parsing_Functions.c ****     }
 425:..\..\FreeflyAPI/QX_Parsing_Functions.c ****     else
 426:..\..\FreeflyAPI/QX_Parsing_Functions.c ****     {
 427:..\..\FreeflyAPI/QX_Parsing_Functions.c ****         while(n--)
 428:..\..\FreeflyAPI/QX_Parsing_Functions.c ****         {
 429:..\..\FreeflyAPI/QX_Parsing_Functions.c ****             int32_t r = (int32_t)GETSC;
 2208              		.loc 1 429 0
 2209 0038 0B4C     		ldr	r4, .L266+4
 2210 003a 2168     		ldr	r1, [r4]
 2211 003c 4E1C     		adds	r6, r1, #1
 2212 003e 2660     		str	r6, [r4]
 2213 0040 0978     		ldrb	r1, [r1]	@ zero_extendqisi2
 2214 0042 49B2     		sxtb	r1, r1
 2215              	.LVL261:
 430:..\..\FreeflyAPI/QX_Parsing_Functions.c ****             *v = r;
 2216              		.loc 1 430 0
 2217 0044 0160     		str	r1, [r0]
 431:..\..\FreeflyAPI/QX_Parsing_Functions.c ****             if(max < *v) *v = max;
 2218              		.loc 1 431 0
 2219 0046 8A42     		cmp	r2, r1
 2220 0048 00DA     		bge	.L262
 2221              		.loc 1 431 0 is_stmt 0 discriminator 1
 2222 004a 0260     		str	r2, [r0]
 2223              	.L262:
 432:..\..\FreeflyAPI/QX_Parsing_Functions.c ****             if(*v < min) *v = min;
ARM GAS  C:\Users\hamis\AppData\Local\Temp\cc1fRzXM.s 			page 48


 2224              		.loc 1 432 0 is_stmt 1
 2225 004c 0168     		ldr	r1, [r0]
 2226              	.LVL262:
 2227 004e 8B42     		cmp	r3, r1
 2228 0050 00DD     		ble	.L263
 2229              		.loc 1 432 0 is_stmt 0 discriminator 1
 2230 0052 0360     		str	r3, [r0]
 2231              	.L263:
 433:..\..\FreeflyAPI/QX_Parsing_Functions.c ****             v++;
 2232              		.loc 1 433 0 is_stmt 1
 2233 0054 0430     		adds	r0, r0, #4
 2234              	.LVL263:
 2235              	.LBE26:
 427:..\..\FreeflyAPI/QX_Parsing_Functions.c ****         {
 2236              		.loc 1 427 0
 2237 0056 2946     		mov	r1, r5
 2238              	.LVL264:
 2239              	.L257:
 2240 0058 4D1E     		subs	r5, r1, #1
 2241              	.LVL265:
 2242 005a 0029     		cmp	r1, #0
 2243 005c ECD1     		bne	.L264
 2244              	.L255:
 434:..\..\FreeflyAPI/QX_Parsing_Functions.c ****         }
 435:..\..\FreeflyAPI/QX_Parsing_Functions.c ****     }
 436:..\..\FreeflyAPI/QX_Parsing_Functions.c **** }
 2245              		.loc 1 436 0
 2246 005e 70BC     		pop	{r4, r5, r6}
 2247              		.cfi_restore 6
 2248              		.cfi_restore 5
 2249              		.cfi_restore 4
 2250              		.cfi_def_cfa_offset 0
 2251              	.LVL266:
 2252 0060 7047     		bx	lr
 2253              	.L267:
 2254 0062 00BF     		.align	2
 2255              	.L266:
 2256 0064 00000000 		.word	rw
 2257 0068 00000000 		.word	msgPtr
 2258              		.cfi_endproc
 2259              	.LFE25:
 2260              		.size	GetSignedLongAsSignedChar, .-GetSignedLongAsSignedChar
 2261              		.section	.text.GetSignedLongAsUnsignedChar,"ax",%progbits
 2262              		.align	2
 2263              		.global	GetSignedLongAsUnsignedChar
 2264              		.thumb
 2265              		.thumb_func
 2266              		.type	GetSignedLongAsUnsignedChar, %function
 2267              	GetSignedLongAsUnsignedChar:
 2268              	.LFB26:
 437:..\..\FreeflyAPI/QX_Parsing_Functions.c **** 
 438:..\..\FreeflyAPI/QX_Parsing_Functions.c **** void GetSignedLongAsUnsignedChar(int32_t *v, uint32_t n, int32_t max, int32_t min)
 439:..\..\FreeflyAPI/QX_Parsing_Functions.c **** {
 2269              		.loc 1 439 0
 2270              		.cfi_startproc
 2271              		@ args = 0, pretend = 0, frame = 0
 2272              		@ frame_needed = 0, uses_anonymous_args = 0
ARM GAS  C:\Users\hamis\AppData\Local\Temp\cc1fRzXM.s 			page 49


 2273              		@ link register save eliminated.
 2274              	.LVL267:
 2275 0000 70B4     		push	{r4, r5, r6}
 2276              		.cfi_def_cfa_offset 12
 2277              		.cfi_offset 4, -12
 2278              		.cfi_offset 5, -8
 2279              		.cfi_offset 6, -4
 440:..\..\FreeflyAPI/QX_Parsing_Functions.c ****     if(rw == QB_Parser_Dir_WriteDel)
 2280              		.loc 1 440 0
 2281 0002 184C     		ldr	r4, .L279
 2282 0004 2478     		ldrb	r4, [r4]	@ zero_extendqisi2
 2283 0006 012C     		cmp	r4, #1
 2284 0008 26D1     		bne	.L270
 2285 000a 11E0     		b	.L269
 2286              	.LVL268:
 2287              	.L273:
 2288              	.LBB27:
 441:..\..\FreeflyAPI/QX_Parsing_Functions.c ****     {
 442:..\..\FreeflyAPI/QX_Parsing_Functions.c ****         while(n--)
 443:..\..\FreeflyAPI/QX_Parsing_Functions.c ****         {
 444:..\..\FreeflyAPI/QX_Parsing_Functions.c ****             int32_t r = (int32_t)GETSC;    // Force int8_t if relative change
 2289              		.loc 1 444 0
 2290 000c 164C     		ldr	r4, .L279+4
 2291 000e 2168     		ldr	r1, [r4]
 2292 0010 4E1C     		adds	r6, r1, #1
 2293 0012 2660     		str	r6, [r4]
 2294 0014 0978     		ldrb	r1, [r1]	@ zero_extendqisi2
 2295 0016 4CB2     		sxtb	r4, r1
 2296              	.LVL269:
 445:..\..\FreeflyAPI/QX_Parsing_Functions.c ****             *v += r;
 2297              		.loc 1 445 0
 2298 0018 0168     		ldr	r1, [r0]
 2299 001a 2144     		add	r1, r1, r4
 2300 001c 0160     		str	r1, [r0]
 446:..\..\FreeflyAPI/QX_Parsing_Functions.c ****             if(max < *v) *v = max;
 2301              		.loc 1 446 0
 2302 001e 9142     		cmp	r1, r2
 2303 0020 00DD     		ble	.L271
 2304              		.loc 1 446 0 is_stmt 0 discriminator 1
 2305 0022 0260     		str	r2, [r0]
 2306              	.L271:
 447:..\..\FreeflyAPI/QX_Parsing_Functions.c ****             if(*v < min) *v = min;
 2307              		.loc 1 447 0 is_stmt 1
 2308 0024 0168     		ldr	r1, [r0]
 2309 0026 9942     		cmp	r1, r3
 2310 0028 00DA     		bge	.L272
 2311              		.loc 1 447 0 is_stmt 0 discriminator 1
 2312 002a 0360     		str	r3, [r0]
 2313              	.L272:
 448:..\..\FreeflyAPI/QX_Parsing_Functions.c ****             v++;
 2314              		.loc 1 448 0 is_stmt 1
 2315 002c 0430     		adds	r0, r0, #4
 2316              	.LVL270:
 2317              	.LBE27:
 442:..\..\FreeflyAPI/QX_Parsing_Functions.c ****         {
 2318              		.loc 1 442 0
 2319 002e 2946     		mov	r1, r5
ARM GAS  C:\Users\hamis\AppData\Local\Temp\cc1fRzXM.s 			page 50


 2320              	.LVL271:
 2321              	.L269:
 2322 0030 4D1E     		subs	r5, r1, #1
 2323              	.LVL272:
 2324 0032 0029     		cmp	r1, #0
 2325 0034 EAD1     		bne	.L273
 2326 0036 12E0     		b	.L268
 2327              	.L277:
 2328              	.LBB28:
 449:..\..\FreeflyAPI/QX_Parsing_Functions.c ****         }
 450:..\..\FreeflyAPI/QX_Parsing_Functions.c ****     }
 451:..\..\FreeflyAPI/QX_Parsing_Functions.c ****     else
 452:..\..\FreeflyAPI/QX_Parsing_Functions.c ****     {
 453:..\..\FreeflyAPI/QX_Parsing_Functions.c ****         while(n--)
 454:..\..\FreeflyAPI/QX_Parsing_Functions.c ****         {
 455:..\..\FreeflyAPI/QX_Parsing_Functions.c ****             int32_t r = (int32_t)GETUC;
 2329              		.loc 1 455 0
 2330 0038 0B4C     		ldr	r4, .L279+4
 2331 003a 2168     		ldr	r1, [r4]
 2332 003c 4E1C     		adds	r6, r1, #1
 2333 003e 2660     		str	r6, [r4]
 2334 0040 0978     		ldrb	r1, [r1]	@ zero_extendqisi2
 2335 0042 C9B2     		uxtb	r1, r1
 2336              	.LVL273:
 456:..\..\FreeflyAPI/QX_Parsing_Functions.c ****             *v = r;
 2337              		.loc 1 456 0
 2338 0044 0160     		str	r1, [r0]
 457:..\..\FreeflyAPI/QX_Parsing_Functions.c ****             if(max < *v) *v = max;
 2339              		.loc 1 457 0
 2340 0046 8A42     		cmp	r2, r1
 2341 0048 00DA     		bge	.L275
 2342              		.loc 1 457 0 is_stmt 0 discriminator 1
 2343 004a 0260     		str	r2, [r0]
 2344              	.L275:
 458:..\..\FreeflyAPI/QX_Parsing_Functions.c ****             if(*v < min) *v = min;
 2345              		.loc 1 458 0 is_stmt 1
 2346 004c 0168     		ldr	r1, [r0]
 2347              	.LVL274:
 2348 004e 8B42     		cmp	r3, r1
 2349 0050 00DD     		ble	.L276
 2350              		.loc 1 458 0 is_stmt 0 discriminator 1
 2351 0052 0360     		str	r3, [r0]
 2352              	.L276:
 459:..\..\FreeflyAPI/QX_Parsing_Functions.c ****             v++;
 2353              		.loc 1 459 0 is_stmt 1
 2354 0054 0430     		adds	r0, r0, #4
 2355              	.LVL275:
 2356              	.LBE28:
 453:..\..\FreeflyAPI/QX_Parsing_Functions.c ****         {
 2357              		.loc 1 453 0
 2358 0056 2946     		mov	r1, r5
 2359              	.LVL276:
 2360              	.L270:
 2361 0058 4D1E     		subs	r5, r1, #1
 2362              	.LVL277:
 2363 005a 0029     		cmp	r1, #0
 2364 005c ECD1     		bne	.L277
ARM GAS  C:\Users\hamis\AppData\Local\Temp\cc1fRzXM.s 			page 51


 2365              	.L268:
 460:..\..\FreeflyAPI/QX_Parsing_Functions.c ****         }
 461:..\..\FreeflyAPI/QX_Parsing_Functions.c ****     }
 462:..\..\FreeflyAPI/QX_Parsing_Functions.c **** }
 2366              		.loc 1 462 0
 2367 005e 70BC     		pop	{r4, r5, r6}
 2368              		.cfi_restore 6
 2369              		.cfi_restore 5
 2370              		.cfi_restore 4
 2371              		.cfi_def_cfa_offset 0
 2372              	.LVL278:
 2373 0060 7047     		bx	lr
 2374              	.L280:
 2375 0062 00BF     		.align	2
 2376              	.L279:
 2377 0064 00000000 		.word	rw
 2378 0068 00000000 		.word	msgPtr
 2379              		.cfi_endproc
 2380              	.LFE26:
 2381              		.size	GetSignedLongAsUnsignedChar, .-GetSignedLongAsUnsignedChar
 2382              		.section	.text.AddSignedShortAsSignedShort,"ax",%progbits
 2383              		.align	2
 2384              		.global	AddSignedShortAsSignedShort
 2385              		.thumb
 2386              		.thumb_func
 2387              		.type	AddSignedShortAsSignedShort, %function
 2388              	AddSignedShortAsSignedShort:
 2389              	.LFB27:
 463:..\..\FreeflyAPI/QX_Parsing_Functions.c **** 
 464:..\..\FreeflyAPI/QX_Parsing_Functions.c **** void AddSignedShortAsSignedShort(int16_t *v, uint32_t n)
 465:..\..\FreeflyAPI/QX_Parsing_Functions.c **** {
 2390              		.loc 1 465 0
 2391              		.cfi_startproc
 2392              		@ args = 0, pretend = 0, frame = 0
 2393              		@ frame_needed = 0, uses_anonymous_args = 0
 2394              		@ link register save eliminated.
 2395              	.LVL279:
 2396 0000 30B4     		push	{r4, r5}
 2397              		.cfi_def_cfa_offset 8
 2398              		.cfi_offset 4, -8
 2399              		.cfi_offset 5, -4
 466:..\..\FreeflyAPI/QX_Parsing_Functions.c ****     while(n--)
 2400              		.loc 1 466 0
 2401 0002 0EE0     		b	.L282
 2402              	.LVL280:
 2403              	.L283:
 2404              	.LBB29:
 467:..\..\FreeflyAPI/QX_Parsing_Functions.c ****     {
 468:..\..\FreeflyAPI/QX_Parsing_Functions.c ****         int16_t value = *v;
 2405              		.loc 1 468 0
 2406 0004 30F9023B 		ldrsh	r3, [r0], #2
 2407              	.LVL281:
 469:..\..\FreeflyAPI/QX_Parsing_Functions.c ****         ADDSS(value);
 2408              		.loc 1 469 0
 2409 0008 084A     		ldr	r2, .L285
 2410 000a 1168     		ldr	r1, [r2]
 2411 000c 4D1C     		adds	r5, r1, #1
ARM GAS  C:\Users\hamis\AppData\Local\Temp\cc1fRzXM.s 			page 52


 2412 000e 1560     		str	r5, [r2]
 2413 0010 C3F30725 		ubfx	r5, r3, #8, #8
 2414 0014 0D70     		strb	r5, [r1]
 2415 0016 1168     		ldr	r1, [r2]
 2416 0018 4D1C     		adds	r5, r1, #1
 2417 001a 1560     		str	r5, [r2]
 2418 001c DBB2     		uxtb	r3, r3
 2419              	.LVL282:
 2420 001e 0B70     		strb	r3, [r1]
 2421              	.LVL283:
 2422              	.LBE29:
 466:..\..\FreeflyAPI/QX_Parsing_Functions.c ****     while(n--)
 2423              		.loc 1 466 0
 2424 0020 2146     		mov	r1, r4
 2425              	.LVL284:
 2426              	.L282:
 2427 0022 4C1E     		subs	r4, r1, #1
 2428              	.LVL285:
 2429 0024 0029     		cmp	r1, #0
 2430 0026 EDD1     		bne	.L283
 470:..\..\FreeflyAPI/QX_Parsing_Functions.c ****         v++;
 471:..\..\FreeflyAPI/QX_Parsing_Functions.c ****     }
 472:..\..\FreeflyAPI/QX_Parsing_Functions.c **** }
 2431              		.loc 1 472 0
 2432 0028 30BC     		pop	{r4, r5}
 2433              		.cfi_restore 5
 2434              		.cfi_restore 4
 2435              		.cfi_def_cfa_offset 0
 2436              	.LVL286:
 2437 002a 7047     		bx	lr
 2438              	.L286:
 2439              		.align	2
 2440              	.L285:
 2441 002c 00000000 		.word	msgPtr
 2442              		.cfi_endproc
 2443              	.LFE27:
 2444              		.size	AddSignedShortAsSignedShort, .-AddSignedShortAsSignedShort
 2445              		.section	.text.AddSignedShortAsSignedChar,"ax",%progbits
 2446              		.align	2
 2447              		.global	AddSignedShortAsSignedChar
 2448              		.thumb
 2449              		.thumb_func
 2450              		.type	AddSignedShortAsSignedChar, %function
 2451              	AddSignedShortAsSignedChar:
 2452              	.LFB28:
 473:..\..\FreeflyAPI/QX_Parsing_Functions.c **** 
 474:..\..\FreeflyAPI/QX_Parsing_Functions.c **** void AddSignedShortAsSignedChar(int16_t *v, uint32_t n)
 475:..\..\FreeflyAPI/QX_Parsing_Functions.c **** {
 2453              		.loc 1 475 0
 2454              		.cfi_startproc
 2455              		@ args = 0, pretend = 0, frame = 0
 2456              		@ frame_needed = 0, uses_anonymous_args = 0
 2457              		@ link register save eliminated.
 2458              	.LVL287:
 2459 0000 30B4     		push	{r4, r5}
 2460              		.cfi_def_cfa_offset 8
 2461              		.cfi_offset 4, -8
ARM GAS  C:\Users\hamis\AppData\Local\Temp\cc1fRzXM.s 			page 53


 2462              		.cfi_offset 5, -4
 476:..\..\FreeflyAPI/QX_Parsing_Functions.c ****     while(n--)
 2463              		.loc 1 476 0
 2464 0002 08E0     		b	.L288
 2465              	.LVL288:
 2466              	.L289:
 2467              	.LBB30:
 477:..\..\FreeflyAPI/QX_Parsing_Functions.c ****     {
 478:..\..\FreeflyAPI/QX_Parsing_Functions.c ****         int8_t value = (int8_t)(*v);
 2468              		.loc 1 478 0
 2469 0004 30F9023B 		ldrsh	r3, [r0], #2
 2470              	.LVL289:
 479:..\..\FreeflyAPI/QX_Parsing_Functions.c ****         ADDCHAR(value);
 2471              		.loc 1 479 0
 2472 0008 0549     		ldr	r1, .L291
 2473 000a 0A68     		ldr	r2, [r1]
 2474 000c 551C     		adds	r5, r2, #1
 2475 000e 0D60     		str	r5, [r1]
 2476 0010 DBB2     		uxtb	r3, r3
 2477 0012 1370     		strb	r3, [r2]
 2478              	.LVL290:
 2479              	.LBE30:
 476:..\..\FreeflyAPI/QX_Parsing_Functions.c ****     while(n--)
 2480              		.loc 1 476 0
 2481 0014 2146     		mov	r1, r4
 2482              	.LVL291:
 2483              	.L288:
 2484 0016 4C1E     		subs	r4, r1, #1
 2485              	.LVL292:
 2486 0018 0029     		cmp	r1, #0
 2487 001a F3D1     		bne	.L289
 480:..\..\FreeflyAPI/QX_Parsing_Functions.c ****         v++;
 481:..\..\FreeflyAPI/QX_Parsing_Functions.c ****     }
 482:..\..\FreeflyAPI/QX_Parsing_Functions.c **** }
 2488              		.loc 1 482 0
 2489 001c 30BC     		pop	{r4, r5}
 2490              		.cfi_restore 5
 2491              		.cfi_restore 4
 2492              		.cfi_def_cfa_offset 0
 2493              	.LVL293:
 2494 001e 7047     		bx	lr
 2495              	.L292:
 2496              		.align	2
 2497              	.L291:
 2498 0020 00000000 		.word	msgPtr
 2499              		.cfi_endproc
 2500              	.LFE28:
 2501              		.size	AddSignedShortAsSignedChar, .-AddSignedShortAsSignedChar
 2502              		.section	.text.AddSignedShortAsUnsignedChar,"ax",%progbits
 2503              		.align	2
 2504              		.global	AddSignedShortAsUnsignedChar
 2505              		.thumb
 2506              		.thumb_func
 2507              		.type	AddSignedShortAsUnsignedChar, %function
 2508              	AddSignedShortAsUnsignedChar:
 2509              	.LFB29:
 483:..\..\FreeflyAPI/QX_Parsing_Functions.c **** 
ARM GAS  C:\Users\hamis\AppData\Local\Temp\cc1fRzXM.s 			page 54


 484:..\..\FreeflyAPI/QX_Parsing_Functions.c **** void AddSignedShortAsUnsignedChar(int16_t *v, uint32_t n)
 485:..\..\FreeflyAPI/QX_Parsing_Functions.c **** {
 2510              		.loc 1 485 0
 2511              		.cfi_startproc
 2512              		@ args = 0, pretend = 0, frame = 0
 2513              		@ frame_needed = 0, uses_anonymous_args = 0
 2514              		@ link register save eliminated.
 2515              	.LVL294:
 2516 0000 30B4     		push	{r4, r5}
 2517              		.cfi_def_cfa_offset 8
 2518              		.cfi_offset 4, -8
 2519              		.cfi_offset 5, -4
 486:..\..\FreeflyAPI/QX_Parsing_Functions.c ****     while(n--)
 2520              		.loc 1 486 0
 2521 0002 08E0     		b	.L294
 2522              	.LVL295:
 2523              	.L295:
 2524              	.LBB31:
 487:..\..\FreeflyAPI/QX_Parsing_Functions.c ****     {
 488:..\..\FreeflyAPI/QX_Parsing_Functions.c ****         uint8_t value = (uint8_t)(*v);
 2525              		.loc 1 488 0
 2526 0004 30F9023B 		ldrsh	r3, [r0], #2
 2527              	.LVL296:
 2528 0008 DBB2     		uxtb	r3, r3
 2529              	.LVL297:
 489:..\..\FreeflyAPI/QX_Parsing_Functions.c ****         ADDCHAR(value);
 2530              		.loc 1 489 0
 2531 000a 0549     		ldr	r1, .L297
 2532 000c 0A68     		ldr	r2, [r1]
 2533 000e 551C     		adds	r5, r2, #1
 2534 0010 0D60     		str	r5, [r1]
 2535 0012 1370     		strb	r3, [r2]
 2536              	.LVL298:
 2537              	.LBE31:
 486:..\..\FreeflyAPI/QX_Parsing_Functions.c ****     while(n--)
 2538              		.loc 1 486 0
 2539 0014 2146     		mov	r1, r4
 2540              	.LVL299:
 2541              	.L294:
 2542 0016 4C1E     		subs	r4, r1, #1
 2543              	.LVL300:
 2544 0018 0029     		cmp	r1, #0
 2545 001a F3D1     		bne	.L295
 490:..\..\FreeflyAPI/QX_Parsing_Functions.c ****         v++;
 491:..\..\FreeflyAPI/QX_Parsing_Functions.c ****     }
 492:..\..\FreeflyAPI/QX_Parsing_Functions.c **** }
 2546              		.loc 1 492 0
 2547 001c 30BC     		pop	{r4, r5}
 2548              		.cfi_restore 5
 2549              		.cfi_restore 4
 2550              		.cfi_def_cfa_offset 0
 2551              	.LVL301:
 2552 001e 7047     		bx	lr
 2553              	.L298:
 2554              		.align	2
 2555              	.L297:
 2556 0020 00000000 		.word	msgPtr
ARM GAS  C:\Users\hamis\AppData\Local\Temp\cc1fRzXM.s 			page 55


 2557              		.cfi_endproc
 2558              	.LFE29:
 2559              		.size	AddSignedShortAsUnsignedChar, .-AddSignedShortAsUnsignedChar
 2560              		.section	.text.GetSignedShortAsSignedShort,"ax",%progbits
 2561              		.align	2
 2562              		.global	GetSignedShortAsSignedShort
 2563              		.thumb
 2564              		.thumb_func
 2565              		.type	GetSignedShortAsSignedShort, %function
 2566              	GetSignedShortAsSignedShort:
 2567              	.LFB30:
 493:..\..\FreeflyAPI/QX_Parsing_Functions.c **** 
 494:..\..\FreeflyAPI/QX_Parsing_Functions.c **** void GetSignedShortAsSignedShort(int16_t *v, uint32_t n, float max, float min)
 495:..\..\FreeflyAPI/QX_Parsing_Functions.c **** {
 2568              		.loc 1 495 0
 2569              		.cfi_startproc
 2570              		@ args = 0, pretend = 0, frame = 0
 2571              		@ frame_needed = 0, uses_anonymous_args = 0
 2572              	.LVL302:
 2573 0000 F8B5     		push	{r3, r4, r5, r6, r7, lr}
 2574              		.cfi_def_cfa_offset 24
 2575              		.cfi_offset 3, -24
 2576              		.cfi_offset 4, -20
 2577              		.cfi_offset 5, -16
 2578              		.cfi_offset 6, -12
 2579              		.cfi_offset 7, -8
 2580              		.cfi_offset 14, -4
 2581 0002 0446     		mov	r4, r0
 2582 0004 1546     		mov	r5, r2
 2583 0006 1E46     		mov	r6, r3
 496:..\..\FreeflyAPI/QX_Parsing_Functions.c ****     if(rw == QB_Parser_Dir_WriteDel)
 2584              		.loc 1 496 0
 2585 0008 2A4B     		ldr	r3, .L318
 2586              	.LVL303:
 2587 000a 1B78     		ldrb	r3, [r3]	@ zero_extendqisi2
 2588 000c 012B     		cmp	r3, #1
 2589 000e 4DD1     		bne	.L301
 2590 0010 24E0     		b	.L300
 2591              	.LVL304:
 2592              	.L306:
 2593              	.LBB32:
 497:..\..\FreeflyAPI/QX_Parsing_Functions.c ****     {
 498:..\..\FreeflyAPI/QX_Parsing_Functions.c ****         while(n--)
 499:..\..\FreeflyAPI/QX_Parsing_Functions.c ****         {
 500:..\..\FreeflyAPI/QX_Parsing_Functions.c ****             int16_t r = GETSS;
 2594              		.loc 1 500 0
 2595 0012 2949     		ldr	r1, .L318+4
 2596 0014 0A68     		ldr	r2, [r1]
 2597 0016 1378     		ldrb	r3, [r2]	@ zero_extendqisi2
 2598 0018 1B02     		lsls	r3, r3, #8
 2599 001a 1BB2     		sxth	r3, r3
 2600 001c 5078     		ldrb	r0, [r2, #1]	@ zero_extendqisi2
 2601 001e 0343     		orrs	r3, r3, r0
 2602              	.LVL305:
 2603 0020 0232     		adds	r2, r2, #2
 2604 0022 0A60     		str	r2, [r1]
 501:..\..\FreeflyAPI/QX_Parsing_Functions.c ****             *v += r;
ARM GAS  C:\Users\hamis\AppData\Local\Temp\cc1fRzXM.s 			page 56


 2605              		.loc 1 501 0
 2606 0024 2088     		ldrh	r0, [r4]
 2607 0026 1844     		add	r0, r0, r3
 2608 0028 00B2     		sxth	r0, r0
 2609 002a 2080     		strh	r0, [r4]	@ movhi
 502:..\..\FreeflyAPI/QX_Parsing_Functions.c ****             if(max < *v) *v = max;
 2610              		.loc 1 502 0
 2611 002c FFF7FEFF 		bl	__aeabi_i2f
 2612              	.LVL306:
 2613 0030 2946     		mov	r1, r5
 2614 0032 FFF7FEFF 		bl	__aeabi_fcmpgt
 2615              	.LVL307:
 2616 0036 18B1     		cbz	r0, .L302
 2617              		.loc 1 502 0 is_stmt 0 discriminator 1
 2618 0038 2846     		mov	r0, r5
 2619 003a FFF7FEFF 		bl	__aeabi_f2iz
 2620              	.LVL308:
 2621 003e 2080     		strh	r0, [r4]	@ movhi
 2622              	.L302:
 503:..\..\FreeflyAPI/QX_Parsing_Functions.c ****             if(*v < min) *v = min;
 2623              		.loc 1 503 0 is_stmt 1
 2624 0040 B4F90000 		ldrsh	r0, [r4]
 2625 0044 FFF7FEFF 		bl	__aeabi_i2f
 2626              	.LVL309:
 2627 0048 3146     		mov	r1, r6
 2628 004a FFF7FEFF 		bl	__aeabi_fcmplt
 2629              	.LVL310:
 2630 004e 18B1     		cbz	r0, .L304
 2631              		.loc 1 503 0 is_stmt 0 discriminator 1
 2632 0050 3046     		mov	r0, r6
 2633 0052 FFF7FEFF 		bl	__aeabi_f2iz
 2634              	.LVL311:
 2635 0056 2080     		strh	r0, [r4]	@ movhi
 2636              	.L304:
 504:..\..\FreeflyAPI/QX_Parsing_Functions.c ****             v++;
 2637              		.loc 1 504 0 is_stmt 1
 2638 0058 0234     		adds	r4, r4, #2
 2639              	.LVL312:
 2640              	.LBE32:
 498:..\..\FreeflyAPI/QX_Parsing_Functions.c ****         {
 2641              		.loc 1 498 0
 2642 005a 3946     		mov	r1, r7
 2643              	.LVL313:
 2644              	.L300:
 2645 005c 4F1E     		subs	r7, r1, #1
 2646              	.LVL314:
 2647 005e 0029     		cmp	r1, #0
 2648 0060 D7D1     		bne	.L306
 2649 0062 F8BD     		pop	{r3, r4, r5, r6, r7, pc}
 2650              	.LVL315:
 2651              	.L312:
 2652              	.LBB33:
 505:..\..\FreeflyAPI/QX_Parsing_Functions.c ****         }
 506:..\..\FreeflyAPI/QX_Parsing_Functions.c ****     }
 507:..\..\FreeflyAPI/QX_Parsing_Functions.c ****     else
 508:..\..\FreeflyAPI/QX_Parsing_Functions.c ****     {
 509:..\..\FreeflyAPI/QX_Parsing_Functions.c ****         while(n--)
ARM GAS  C:\Users\hamis\AppData\Local\Temp\cc1fRzXM.s 			page 57


 510:..\..\FreeflyAPI/QX_Parsing_Functions.c ****         {
 511:..\..\FreeflyAPI/QX_Parsing_Functions.c ****             int16_t r = GETSS;
 2653              		.loc 1 511 0
 2654 0064 144A     		ldr	r2, .L318+4
 2655 0066 1368     		ldr	r3, [r2]
 2656 0068 1878     		ldrb	r0, [r3]	@ zero_extendqisi2
 2657 006a 0002     		lsls	r0, r0, #8
 2658 006c 00B2     		sxth	r0, r0
 2659 006e 5978     		ldrb	r1, [r3, #1]	@ zero_extendqisi2
 2660 0070 0843     		orrs	r0, r0, r1
 2661              	.LVL316:
 2662 0072 0233     		adds	r3, r3, #2
 2663 0074 1360     		str	r3, [r2]
 512:..\..\FreeflyAPI/QX_Parsing_Functions.c ****             *v = r;
 2664              		.loc 1 512 0
 2665 0076 2080     		strh	r0, [r4]	@ movhi
 513:..\..\FreeflyAPI/QX_Parsing_Functions.c ****             if(max < *v) *v = max;
 2666              		.loc 1 513 0
 2667 0078 FFF7FEFF 		bl	__aeabi_i2f
 2668              	.LVL317:
 2669 007c 0146     		mov	r1, r0
 2670 007e 2846     		mov	r0, r5
 2671 0080 FFF7FEFF 		bl	__aeabi_fcmplt
 2672              	.LVL318:
 2673 0084 18B1     		cbz	r0, .L308
 2674              		.loc 1 513 0 is_stmt 0 discriminator 1
 2675 0086 2846     		mov	r0, r5
 2676 0088 FFF7FEFF 		bl	__aeabi_f2iz
 2677              	.LVL319:
 2678 008c 2080     		strh	r0, [r4]	@ movhi
 2679              	.L308:
 514:..\..\FreeflyAPI/QX_Parsing_Functions.c ****             if(*v < min) *v = min;
 2680              		.loc 1 514 0 is_stmt 1
 2681 008e B4F90000 		ldrsh	r0, [r4]
 2682 0092 FFF7FEFF 		bl	__aeabi_i2f
 2683              	.LVL320:
 2684 0096 0146     		mov	r1, r0
 2685 0098 3046     		mov	r0, r6
 2686 009a FFF7FEFF 		bl	__aeabi_fcmpgt
 2687              	.LVL321:
 2688 009e 18B1     		cbz	r0, .L310
 2689              		.loc 1 514 0 is_stmt 0 discriminator 1
 2690 00a0 3046     		mov	r0, r6
 2691 00a2 FFF7FEFF 		bl	__aeabi_f2iz
 2692              	.LVL322:
 2693 00a6 2080     		strh	r0, [r4]	@ movhi
 2694              	.L310:
 515:..\..\FreeflyAPI/QX_Parsing_Functions.c ****             v++;
 2695              		.loc 1 515 0 is_stmt 1
 2696 00a8 0234     		adds	r4, r4, #2
 2697              	.LVL323:
 2698              	.LBE33:
 509:..\..\FreeflyAPI/QX_Parsing_Functions.c ****         {
 2699              		.loc 1 509 0
 2700 00aa 3946     		mov	r1, r7
 2701              	.LVL324:
 2702              	.L301:
ARM GAS  C:\Users\hamis\AppData\Local\Temp\cc1fRzXM.s 			page 58


 2703 00ac 4F1E     		subs	r7, r1, #1
 2704              	.LVL325:
 2705 00ae 0029     		cmp	r1, #0
 2706 00b0 D8D1     		bne	.L312
 2707 00b2 F8BD     		pop	{r3, r4, r5, r6, r7, pc}
 2708              	.LVL326:
 2709              	.L319:
 2710              		.align	2
 2711              	.L318:
 2712 00b4 00000000 		.word	rw
 2713 00b8 00000000 		.word	msgPtr
 2714              		.cfi_endproc
 2715              	.LFE30:
 2716              		.size	GetSignedShortAsSignedShort, .-GetSignedShortAsSignedShort
 2717              		.section	.text.GetSignedShortAsSignedChar,"ax",%progbits
 2718              		.align	2
 2719              		.global	GetSignedShortAsSignedChar
 2720              		.thumb
 2721              		.thumb_func
 2722              		.type	GetSignedShortAsSignedChar, %function
 2723              	GetSignedShortAsSignedChar:
 2724              	.LFB31:
 516:..\..\FreeflyAPI/QX_Parsing_Functions.c ****         }
 517:..\..\FreeflyAPI/QX_Parsing_Functions.c ****     }
 518:..\..\FreeflyAPI/QX_Parsing_Functions.c **** }
 519:..\..\FreeflyAPI/QX_Parsing_Functions.c **** 
 520:..\..\FreeflyAPI/QX_Parsing_Functions.c **** void GetSignedShortAsSignedChar(int16_t *v, uint32_t n, float max, float min)
 521:..\..\FreeflyAPI/QX_Parsing_Functions.c **** {
 2725              		.loc 1 521 0
 2726              		.cfi_startproc
 2727              		@ args = 0, pretend = 0, frame = 0
 2728              		@ frame_needed = 0, uses_anonymous_args = 0
 2729              	.LVL327:
 2730 0000 F8B5     		push	{r3, r4, r5, r6, r7, lr}
 2731              		.cfi_def_cfa_offset 24
 2732              		.cfi_offset 3, -24
 2733              		.cfi_offset 4, -20
 2734              		.cfi_offset 5, -16
 2735              		.cfi_offset 6, -12
 2736              		.cfi_offset 7, -8
 2737              		.cfi_offset 14, -4
 2738 0002 0446     		mov	r4, r0
 2739 0004 1546     		mov	r5, r2
 2740 0006 1E46     		mov	r6, r3
 522:..\..\FreeflyAPI/QX_Parsing_Functions.c ****     if(rw == QB_Parser_Dir_WriteDel)
 2741              		.loc 1 522 0
 2742 0008 284B     		ldr	r3, .L339
 2743              	.LVL328:
 2744 000a 1B78     		ldrb	r3, [r3]	@ zero_extendqisi2
 2745 000c 012B     		cmp	r3, #1
 2746 000e 48D1     		bne	.L322
 2747 0010 21E0     		b	.L321
 2748              	.LVL329:
 2749              	.L327:
 2750              	.LBB34:
 523:..\..\FreeflyAPI/QX_Parsing_Functions.c ****     {
 524:..\..\FreeflyAPI/QX_Parsing_Functions.c ****         while(n--)
ARM GAS  C:\Users\hamis\AppData\Local\Temp\cc1fRzXM.s 			page 59


 525:..\..\FreeflyAPI/QX_Parsing_Functions.c ****         {
 526:..\..\FreeflyAPI/QX_Parsing_Functions.c ****             int16_t r = (int16_t)GETSC;
 2751              		.loc 1 526 0
 2752 0012 274A     		ldr	r2, .L339+4
 2753 0014 1368     		ldr	r3, [r2]
 2754 0016 591C     		adds	r1, r3, #1
 2755 0018 1160     		str	r1, [r2]
 2756 001a 1878     		ldrb	r0, [r3]	@ zero_extendqisi2
 2757 001c 40B2     		sxtb	r0, r0
 2758              	.LVL330:
 527:..\..\FreeflyAPI/QX_Parsing_Functions.c ****             *v += (int16_t)r;
 2759              		.loc 1 527 0
 2760 001e 2388     		ldrh	r3, [r4]
 2761 0020 1844     		add	r0, r0, r3
 2762              	.LVL331:
 2763 0022 00B2     		sxth	r0, r0
 2764 0024 2080     		strh	r0, [r4]	@ movhi
 528:..\..\FreeflyAPI/QX_Parsing_Functions.c ****             if(max < *v) *v = max;
 2765              		.loc 1 528 0
 2766 0026 FFF7FEFF 		bl	__aeabi_i2f
 2767              	.LVL332:
 2768 002a 2946     		mov	r1, r5
 2769 002c FFF7FEFF 		bl	__aeabi_fcmpgt
 2770              	.LVL333:
 2771 0030 18B1     		cbz	r0, .L323
 2772              		.loc 1 528 0 is_stmt 0 discriminator 1
 2773 0032 2846     		mov	r0, r5
 2774 0034 FFF7FEFF 		bl	__aeabi_f2iz
 2775              	.LVL334:
 2776 0038 2080     		strh	r0, [r4]	@ movhi
 2777              	.L323:
 529:..\..\FreeflyAPI/QX_Parsing_Functions.c ****             if(*v < min) *v = min;
 2778              		.loc 1 529 0 is_stmt 1
 2779 003a B4F90000 		ldrsh	r0, [r4]
 2780 003e FFF7FEFF 		bl	__aeabi_i2f
 2781              	.LVL335:
 2782 0042 3146     		mov	r1, r6
 2783 0044 FFF7FEFF 		bl	__aeabi_fcmplt
 2784              	.LVL336:
 2785 0048 18B1     		cbz	r0, .L325
 2786              		.loc 1 529 0 is_stmt 0 discriminator 1
 2787 004a 3046     		mov	r0, r6
 2788 004c FFF7FEFF 		bl	__aeabi_f2iz
 2789              	.LVL337:
 2790 0050 2080     		strh	r0, [r4]	@ movhi
 2791              	.L325:
 530:..\..\FreeflyAPI/QX_Parsing_Functions.c ****             v++;
 2792              		.loc 1 530 0 is_stmt 1
 2793 0052 0234     		adds	r4, r4, #2
 2794              	.LVL338:
 2795              	.LBE34:
 524:..\..\FreeflyAPI/QX_Parsing_Functions.c ****         {
 2796              		.loc 1 524 0
 2797 0054 3946     		mov	r1, r7
 2798              	.LVL339:
 2799              	.L321:
 2800 0056 4F1E     		subs	r7, r1, #1
ARM GAS  C:\Users\hamis\AppData\Local\Temp\cc1fRzXM.s 			page 60


 2801              	.LVL340:
 2802 0058 0029     		cmp	r1, #0
 2803 005a DAD1     		bne	.L327
 2804 005c F8BD     		pop	{r3, r4, r5, r6, r7, pc}
 2805              	.LVL341:
 2806              	.L333:
 2807              	.LBB35:
 531:..\..\FreeflyAPI/QX_Parsing_Functions.c ****         }
 532:..\..\FreeflyAPI/QX_Parsing_Functions.c ****     }
 533:..\..\FreeflyAPI/QX_Parsing_Functions.c ****     else
 534:..\..\FreeflyAPI/QX_Parsing_Functions.c ****     {
 535:..\..\FreeflyAPI/QX_Parsing_Functions.c ****         while(n--)
 536:..\..\FreeflyAPI/QX_Parsing_Functions.c ****         {
 537:..\..\FreeflyAPI/QX_Parsing_Functions.c ****             int16_t r = (int16_t)GETSC;
 2808              		.loc 1 537 0
 2809 005e 144A     		ldr	r2, .L339+4
 2810 0060 1368     		ldr	r3, [r2]
 2811 0062 591C     		adds	r1, r3, #1
 2812 0064 1160     		str	r1, [r2]
 2813 0066 1878     		ldrb	r0, [r3]	@ zero_extendqisi2
 2814 0068 40B2     		sxtb	r0, r0
 2815 006a 00B2     		sxth	r0, r0
 2816              	.LVL342:
 538:..\..\FreeflyAPI/QX_Parsing_Functions.c ****             *v = (int16_t)r;
 2817              		.loc 1 538 0
 2818 006c 2080     		strh	r0, [r4]	@ movhi
 539:..\..\FreeflyAPI/QX_Parsing_Functions.c ****             if(max < *v) *v = max;
 2819              		.loc 1 539 0
 2820 006e FFF7FEFF 		bl	__aeabi_i2f
 2821              	.LVL343:
 2822 0072 0146     		mov	r1, r0
 2823 0074 2846     		mov	r0, r5
 2824 0076 FFF7FEFF 		bl	__aeabi_fcmplt
 2825              	.LVL344:
 2826 007a 18B1     		cbz	r0, .L329
 2827              		.loc 1 539 0 is_stmt 0 discriminator 1
 2828 007c 2846     		mov	r0, r5
 2829 007e FFF7FEFF 		bl	__aeabi_f2iz
 2830              	.LVL345:
 2831 0082 2080     		strh	r0, [r4]	@ movhi
 2832              	.L329:
 540:..\..\FreeflyAPI/QX_Parsing_Functions.c ****             if(*v < min) *v = min;
 2833              		.loc 1 540 0 is_stmt 1
 2834 0084 B4F90000 		ldrsh	r0, [r4]
 2835 0088 FFF7FEFF 		bl	__aeabi_i2f
 2836              	.LVL346:
 2837 008c 0146     		mov	r1, r0
 2838 008e 3046     		mov	r0, r6
 2839 0090 FFF7FEFF 		bl	__aeabi_fcmpgt
 2840              	.LVL347:
 2841 0094 18B1     		cbz	r0, .L331
 2842              		.loc 1 540 0 is_stmt 0 discriminator 1
 2843 0096 3046     		mov	r0, r6
 2844 0098 FFF7FEFF 		bl	__aeabi_f2iz
 2845              	.LVL348:
 2846 009c 2080     		strh	r0, [r4]	@ movhi
 2847              	.L331:
ARM GAS  C:\Users\hamis\AppData\Local\Temp\cc1fRzXM.s 			page 61


 541:..\..\FreeflyAPI/QX_Parsing_Functions.c ****             v++;
 2848              		.loc 1 541 0 is_stmt 1
 2849 009e 0234     		adds	r4, r4, #2
 2850              	.LVL349:
 2851              	.LBE35:
 535:..\..\FreeflyAPI/QX_Parsing_Functions.c ****         {
 2852              		.loc 1 535 0
 2853 00a0 3946     		mov	r1, r7
 2854              	.LVL350:
 2855              	.L322:
 2856 00a2 4F1E     		subs	r7, r1, #1
 2857              	.LVL351:
 2858 00a4 0029     		cmp	r1, #0
 2859 00a6 DAD1     		bne	.L333
 2860 00a8 F8BD     		pop	{r3, r4, r5, r6, r7, pc}
 2861              	.LVL352:
 2862              	.L340:
 2863 00aa 00BF     		.align	2
 2864              	.L339:
 2865 00ac 00000000 		.word	rw
 2866 00b0 00000000 		.word	msgPtr
 2867              		.cfi_endproc
 2868              	.LFE31:
 2869              		.size	GetSignedShortAsSignedChar, .-GetSignedShortAsSignedChar
 2870              		.section	.text.GetSignedShortAsUnsignedChar,"ax",%progbits
 2871              		.align	2
 2872              		.global	GetSignedShortAsUnsignedChar
 2873              		.thumb
 2874              		.thumb_func
 2875              		.type	GetSignedShortAsUnsignedChar, %function
 2876              	GetSignedShortAsUnsignedChar:
 2877              	.LFB32:
 542:..\..\FreeflyAPI/QX_Parsing_Functions.c ****         }
 543:..\..\FreeflyAPI/QX_Parsing_Functions.c ****     }
 544:..\..\FreeflyAPI/QX_Parsing_Functions.c **** }
 545:..\..\FreeflyAPI/QX_Parsing_Functions.c **** 
 546:..\..\FreeflyAPI/QX_Parsing_Functions.c **** void GetSignedShortAsUnsignedChar(int16_t *v, uint32_t n, int16_t max, int16_t min)
 547:..\..\FreeflyAPI/QX_Parsing_Functions.c **** {
 2878              		.loc 1 547 0
 2879              		.cfi_startproc
 2880              		@ args = 0, pretend = 0, frame = 0
 2881              		@ frame_needed = 0, uses_anonymous_args = 0
 2882              		@ link register save eliminated.
 2883              	.LVL353:
 2884 0000 70B4     		push	{r4, r5, r6}
 2885              		.cfi_def_cfa_offset 12
 2886              		.cfi_offset 4, -12
 2887              		.cfi_offset 5, -8
 2888              		.cfi_offset 6, -4
 548:..\..\FreeflyAPI/QX_Parsing_Functions.c ****     if(rw == QB_Parser_Dir_WriteDel)
 2889              		.loc 1 548 0
 2890 0002 194C     		ldr	r4, .L352
 2891 0004 2478     		ldrb	r4, [r4]	@ zero_extendqisi2
 2892 0006 012C     		cmp	r4, #1
 2893 0008 28D1     		bne	.L343
 2894 000a 13E0     		b	.L342
 2895              	.LVL354:
ARM GAS  C:\Users\hamis\AppData\Local\Temp\cc1fRzXM.s 			page 62


 2896              	.L346:
 2897              	.LBB36:
 549:..\..\FreeflyAPI/QX_Parsing_Functions.c ****     {
 550:..\..\FreeflyAPI/QX_Parsing_Functions.c ****         while(n--)
 551:..\..\FreeflyAPI/QX_Parsing_Functions.c ****         {
 552:..\..\FreeflyAPI/QX_Parsing_Functions.c ****             int16_t r = (int16_t)GETSC;
 2898              		.loc 1 552 0
 2899 000c 174C     		ldr	r4, .L352+4
 2900 000e 2168     		ldr	r1, [r4]
 2901 0010 4E1C     		adds	r6, r1, #1
 2902 0012 2660     		str	r6, [r4]
 2903 0014 0978     		ldrb	r1, [r1]	@ zero_extendqisi2
 2904 0016 4CB2     		sxtb	r4, r1
 2905              	.LVL355:
 553:..\..\FreeflyAPI/QX_Parsing_Functions.c ****             *v += r;
 2906              		.loc 1 553 0
 2907 0018 0188     		ldrh	r1, [r0]
 2908 001a 2144     		add	r1, r1, r4
 2909 001c 09B2     		sxth	r1, r1
 2910 001e 0180     		strh	r1, [r0]	@ movhi
 554:..\..\FreeflyAPI/QX_Parsing_Functions.c ****             if(max < *v) *v = max;
 2911              		.loc 1 554 0
 2912 0020 9142     		cmp	r1, r2
 2913 0022 00DD     		ble	.L344
 2914              		.loc 1 554 0 is_stmt 0 discriminator 1
 2915 0024 0280     		strh	r2, [r0]	@ movhi
 2916              	.L344:
 555:..\..\FreeflyAPI/QX_Parsing_Functions.c ****             if(*v < min) *v = min;
 2917              		.loc 1 555 0 is_stmt 1
 2918 0026 B0F90010 		ldrsh	r1, [r0]
 2919 002a 9942     		cmp	r1, r3
 2920 002c 00DA     		bge	.L345
 2921              		.loc 1 555 0 is_stmt 0 discriminator 1
 2922 002e 0380     		strh	r3, [r0]	@ movhi
 2923              	.L345:
 556:..\..\FreeflyAPI/QX_Parsing_Functions.c ****             v++;
 2924              		.loc 1 556 0 is_stmt 1
 2925 0030 0230     		adds	r0, r0, #2
 2926              	.LVL356:
 2927              	.LBE36:
 550:..\..\FreeflyAPI/QX_Parsing_Functions.c ****         {
 2928              		.loc 1 550 0
 2929 0032 2946     		mov	r1, r5
 2930              	.LVL357:
 2931              	.L342:
 2932 0034 4D1E     		subs	r5, r1, #1
 2933              	.LVL358:
 2934 0036 0029     		cmp	r1, #0
 2935 0038 E8D1     		bne	.L346
 2936 003a 12E0     		b	.L341
 2937              	.L350:
 2938              	.LBB37:
 557:..\..\FreeflyAPI/QX_Parsing_Functions.c ****         }
 558:..\..\FreeflyAPI/QX_Parsing_Functions.c ****     }
 559:..\..\FreeflyAPI/QX_Parsing_Functions.c ****     else
 560:..\..\FreeflyAPI/QX_Parsing_Functions.c ****     {
 561:..\..\FreeflyAPI/QX_Parsing_Functions.c ****         while(n--)
ARM GAS  C:\Users\hamis\AppData\Local\Temp\cc1fRzXM.s 			page 63


 562:..\..\FreeflyAPI/QX_Parsing_Functions.c ****         {
 563:..\..\FreeflyAPI/QX_Parsing_Functions.c ****             int16_t r = (int16_t)GETUC;
 2939              		.loc 1 563 0
 2940 003c 0B4C     		ldr	r4, .L352+4
 2941 003e 2168     		ldr	r1, [r4]
 2942 0040 4E1C     		adds	r6, r1, #1
 2943 0042 2660     		str	r6, [r4]
 2944 0044 0978     		ldrb	r1, [r1]	@ zero_extendqisi2
 2945              	.LVL359:
 564:..\..\FreeflyAPI/QX_Parsing_Functions.c ****             *v = r;
 2946              		.loc 1 564 0
 2947 0046 0180     		strh	r1, [r0]	@ movhi
 565:..\..\FreeflyAPI/QX_Parsing_Functions.c ****             if(max < *v) *v = max;
 2948              		.loc 1 565 0
 2949 0048 8A42     		cmp	r2, r1
 2950 004a 00DA     		bge	.L348
 2951              		.loc 1 565 0 is_stmt 0 discriminator 1
 2952 004c 0280     		strh	r2, [r0]	@ movhi
 2953              	.L348:
 566:..\..\FreeflyAPI/QX_Parsing_Functions.c ****             if(*v < min) *v = min;
 2954              		.loc 1 566 0 is_stmt 1
 2955 004e B0F90010 		ldrsh	r1, [r0]
 2956              	.LVL360:
 2957 0052 8B42     		cmp	r3, r1
 2958 0054 00DD     		ble	.L349
 2959              		.loc 1 566 0 is_stmt 0 discriminator 1
 2960 0056 0380     		strh	r3, [r0]	@ movhi
 2961              	.L349:
 567:..\..\FreeflyAPI/QX_Parsing_Functions.c ****             v++;
 2962              		.loc 1 567 0 is_stmt 1
 2963 0058 0230     		adds	r0, r0, #2
 2964              	.LVL361:
 2965              	.LBE37:
 561:..\..\FreeflyAPI/QX_Parsing_Functions.c ****         {
 2966              		.loc 1 561 0
 2967 005a 2946     		mov	r1, r5
 2968              	.LVL362:
 2969              	.L343:
 2970 005c 4D1E     		subs	r5, r1, #1
 2971              	.LVL363:
 2972 005e 0029     		cmp	r1, #0
 2973 0060 ECD1     		bne	.L350
 2974              	.L341:
 568:..\..\FreeflyAPI/QX_Parsing_Functions.c ****         }
 569:..\..\FreeflyAPI/QX_Parsing_Functions.c ****     }
 570:..\..\FreeflyAPI/QX_Parsing_Functions.c **** }
 2975              		.loc 1 570 0
 2976 0062 70BC     		pop	{r4, r5, r6}
 2977              		.cfi_restore 6
 2978              		.cfi_restore 5
 2979              		.cfi_restore 4
 2980              		.cfi_def_cfa_offset 0
 2981              	.LVL364:
 2982 0064 7047     		bx	lr
 2983              	.L353:
 2984 0066 00BF     		.align	2
 2985              	.L352:
ARM GAS  C:\Users\hamis\AppData\Local\Temp\cc1fRzXM.s 			page 64


 2986 0068 00000000 		.word	rw
 2987 006c 00000000 		.word	msgPtr
 2988              		.cfi_endproc
 2989              	.LFE32:
 2990              		.size	GetSignedShortAsUnsignedChar, .-GetSignedShortAsUnsignedChar
 2991              		.section	.text.AddSignedCharAsSignedChar,"ax",%progbits
 2992              		.align	2
 2993              		.global	AddSignedCharAsSignedChar
 2994              		.thumb
 2995              		.thumb_func
 2996              		.type	AddSignedCharAsSignedChar, %function
 2997              	AddSignedCharAsSignedChar:
 2998              	.LFB33:
 571:..\..\FreeflyAPI/QX_Parsing_Functions.c **** 
 572:..\..\FreeflyAPI/QX_Parsing_Functions.c **** void AddSignedCharAsSignedChar(int8_t *v, uint32_t n)
 573:..\..\FreeflyAPI/QX_Parsing_Functions.c **** {
 2999              		.loc 1 573 0
 3000              		.cfi_startproc
 3001              		@ args = 0, pretend = 0, frame = 0
 3002              		@ frame_needed = 0, uses_anonymous_args = 0
 3003              		@ link register save eliminated.
 3004              	.LVL365:
 3005 0000 10B4     		push	{r4}
 3006              		.cfi_def_cfa_offset 4
 3007              		.cfi_offset 4, -4
 574:..\..\FreeflyAPI/QX_Parsing_Functions.c ****     while(n--)
 3008              		.loc 1 574 0
 3009 0002 07E0     		b	.L355
 3010              	.LVL366:
 3011              	.L356:
 575:..\..\FreeflyAPI/QX_Parsing_Functions.c ****     {
 576:..\..\FreeflyAPI/QX_Parsing_Functions.c ****         ADDCHAR(*v);
 3012              		.loc 1 576 0
 3013 0004 064A     		ldr	r2, .L358
 3014 0006 1368     		ldr	r3, [r2]
 3015 0008 591C     		adds	r1, r3, #1
 3016 000a 1160     		str	r1, [r2]
 3017 000c 10F8012B 		ldrb	r2, [r0], #1	@ zero_extendqisi2
 3018              	.LVL367:
 3019 0010 1A70     		strb	r2, [r3]
 3020              	.LVL368:
 574:..\..\FreeflyAPI/QX_Parsing_Functions.c ****     while(n--)
 3021              		.loc 1 574 0
 3022 0012 2146     		mov	r1, r4
 3023              	.LVL369:
 3024              	.L355:
 3025 0014 4C1E     		subs	r4, r1, #1
 3026              	.LVL370:
 3027 0016 0029     		cmp	r1, #0
 3028 0018 F4D1     		bne	.L356
 577:..\..\FreeflyAPI/QX_Parsing_Functions.c ****         v++;
 578:..\..\FreeflyAPI/QX_Parsing_Functions.c ****     }
 579:..\..\FreeflyAPI/QX_Parsing_Functions.c **** }
 3029              		.loc 1 579 0
 3030 001a 10BC     		pop	{r4}
 3031              		.cfi_restore 4
 3032              		.cfi_def_cfa_offset 0
ARM GAS  C:\Users\hamis\AppData\Local\Temp\cc1fRzXM.s 			page 65


 3033              	.LVL371:
 3034 001c 7047     		bx	lr
 3035              	.L359:
 3036 001e 00BF     		.align	2
 3037              	.L358:
 3038 0020 00000000 		.word	msgPtr
 3039              		.cfi_endproc
 3040              	.LFE33:
 3041              		.size	AddSignedCharAsSignedChar, .-AddSignedCharAsSignedChar
 3042              		.section	.text.GetSignedCharAsSignedChar,"ax",%progbits
 3043              		.align	2
 3044              		.global	GetSignedCharAsSignedChar
 3045              		.thumb
 3046              		.thumb_func
 3047              		.type	GetSignedCharAsSignedChar, %function
 3048              	GetSignedCharAsSignedChar:
 3049              	.LFB34:
 580:..\..\FreeflyAPI/QX_Parsing_Functions.c **** 
 581:..\..\FreeflyAPI/QX_Parsing_Functions.c **** void GetSignedCharAsSignedChar(int8_t *v, uint32_t n, int8_t max, int8_t min)
 582:..\..\FreeflyAPI/QX_Parsing_Functions.c **** {
 3050              		.loc 1 582 0
 3051              		.cfi_startproc
 3052              		@ args = 0, pretend = 0, frame = 0
 3053              		@ frame_needed = 0, uses_anonymous_args = 0
 3054              		@ link register save eliminated.
 3055              	.LVL372:
 3056 0000 70B4     		push	{r4, r5, r6}
 3057              		.cfi_def_cfa_offset 12
 3058              		.cfi_offset 4, -12
 3059              		.cfi_offset 5, -8
 3060              		.cfi_offset 6, -4
 583:..\..\FreeflyAPI/QX_Parsing_Functions.c ****     if(rw == QB_Parser_Dir_WriteDel)
 3061              		.loc 1 583 0
 3062 0002 194C     		ldr	r4, .L371
 3063 0004 2478     		ldrb	r4, [r4]	@ zero_extendqisi2
 3064 0006 012C     		cmp	r4, #1
 3065 0008 29D1     		bne	.L362
 3066 000a 13E0     		b	.L361
 3067              	.LVL373:
 3068              	.L365:
 3069              	.LBB38:
 584:..\..\FreeflyAPI/QX_Parsing_Functions.c ****     {
 585:..\..\FreeflyAPI/QX_Parsing_Functions.c ****         while(n--)
 586:..\..\FreeflyAPI/QX_Parsing_Functions.c ****         {
 587:..\..\FreeflyAPI/QX_Parsing_Functions.c ****             int8_t r = GETSC;
 3070              		.loc 1 587 0
 3071 000c 174C     		ldr	r4, .L371+4
 3072 000e 2168     		ldr	r1, [r4]
 3073 0010 4E1C     		adds	r6, r1, #1
 3074 0012 2660     		str	r6, [r4]
 3075 0014 0978     		ldrb	r1, [r1]	@ zero_extendqisi2
 3076 0016 4CB2     		sxtb	r4, r1
 3077              	.LVL374:
 588:..\..\FreeflyAPI/QX_Parsing_Functions.c ****             int32_t temp = *v;    // Promote to signed so we can do a meaningful clamp check
 3078              		.loc 1 588 0
 3079 0018 90F90010 		ldrsb	r1, [r0]
 3080              	.LVL375:
ARM GAS  C:\Users\hamis\AppData\Local\Temp\cc1fRzXM.s 			page 66


 589:..\..\FreeflyAPI/QX_Parsing_Functions.c ****             temp += r;
 3081              		.loc 1 589 0
 3082 001c 2144     		add	r1, r1, r4
 3083              	.LVL376:
 590:..\..\FreeflyAPI/QX_Parsing_Functions.c ****             if(max < temp) temp = max;
 3084              		.loc 1 590 0
 3085 001e 1446     		mov	r4, r2
 3086              	.LVL377:
 3087 0020 9142     		cmp	r1, r2
 3088 0022 00DC     		bgt	.L363
 589:..\..\FreeflyAPI/QX_Parsing_Functions.c ****             temp += r;
 3089              		.loc 1 589 0
 3090 0024 0C46     		mov	r4, r1
 3091              	.L363:
 3092              	.LVL378:
 591:..\..\FreeflyAPI/QX_Parsing_Functions.c ****             if(temp < min) temp = min;
 3093              		.loc 1 591 0
 3094 0026 1946     		mov	r1, r3
 3095 0028 9C42     		cmp	r4, r3
 3096 002a 00DB     		blt	.L364
 3097 002c 2146     		mov	r1, r4
 3098              	.L364:
 3099              	.LVL379:
 592:..\..\FreeflyAPI/QX_Parsing_Functions.c ****             *v = (uint8_t)temp;
 3100              		.loc 1 592 0
 3101 002e 00F8011B 		strb	r1, [r0], #1
 3102              	.LVL380:
 3103              	.LBE38:
 585:..\..\FreeflyAPI/QX_Parsing_Functions.c ****         {
 3104              		.loc 1 585 0
 3105 0032 2946     		mov	r1, r5
 3106              	.LVL381:
 3107              	.L361:
 3108 0034 4D1E     		subs	r5, r1, #1
 3109              	.LVL382:
 3110 0036 0029     		cmp	r1, #0
 3111 0038 E8D1     		bne	.L365
 3112 003a 13E0     		b	.L360
 3113              	.L369:
 3114              	.LBB39:
 593:..\..\FreeflyAPI/QX_Parsing_Functions.c ****             v++;
 594:..\..\FreeflyAPI/QX_Parsing_Functions.c ****         }
 595:..\..\FreeflyAPI/QX_Parsing_Functions.c ****     }
 596:..\..\FreeflyAPI/QX_Parsing_Functions.c ****     else
 597:..\..\FreeflyAPI/QX_Parsing_Functions.c ****     {
 598:..\..\FreeflyAPI/QX_Parsing_Functions.c ****         while(n--)
 599:..\..\FreeflyAPI/QX_Parsing_Functions.c ****         {
 600:..\..\FreeflyAPI/QX_Parsing_Functions.c ****             int8_t r = GETSC;
 3115              		.loc 1 600 0
 3116 003c 0B4C     		ldr	r4, .L371+4
 3117 003e 2168     		ldr	r1, [r4]
 3118 0040 4E1C     		adds	r6, r1, #1
 3119 0042 2660     		str	r6, [r4]
 3120 0044 0978     		ldrb	r1, [r1]	@ zero_extendqisi2
 3121 0046 49B2     		sxtb	r1, r1
 3122              	.LVL383:
 601:..\..\FreeflyAPI/QX_Parsing_Functions.c ****             *v = r;
ARM GAS  C:\Users\hamis\AppData\Local\Temp\cc1fRzXM.s 			page 67


 3123              		.loc 1 601 0
 3124 0048 0170     		strb	r1, [r0]
 602:..\..\FreeflyAPI/QX_Parsing_Functions.c ****             if(max < *v) *v = max;
 3125              		.loc 1 602 0
 3126 004a 8A42     		cmp	r2, r1
 3127 004c 00DA     		bge	.L367
 3128              		.loc 1 602 0 is_stmt 0 discriminator 1
 3129 004e 0270     		strb	r2, [r0]
 3130              	.L367:
 603:..\..\FreeflyAPI/QX_Parsing_Functions.c ****             if(*v < min) *v = min;
 3131              		.loc 1 603 0 is_stmt 1
 3132 0050 90F90010 		ldrsb	r1, [r0]
 3133              	.LVL384:
 3134 0054 8B42     		cmp	r3, r1
 3135 0056 00DD     		ble	.L368
 3136              		.loc 1 603 0 is_stmt 0 discriminator 1
 3137 0058 0370     		strb	r3, [r0]
 3138              	.L368:
 604:..\..\FreeflyAPI/QX_Parsing_Functions.c ****             v++;
 3139              		.loc 1 604 0 is_stmt 1
 3140 005a 0130     		adds	r0, r0, #1
 3141              	.LVL385:
 3142              	.LBE39:
 598:..\..\FreeflyAPI/QX_Parsing_Functions.c ****         {
 3143              		.loc 1 598 0
 3144 005c 2946     		mov	r1, r5
 3145              	.LVL386:
 3146              	.L362:
 3147 005e 4D1E     		subs	r5, r1, #1
 3148              	.LVL387:
 3149 0060 0029     		cmp	r1, #0
 3150 0062 EBD1     		bne	.L369
 3151              	.L360:
 605:..\..\FreeflyAPI/QX_Parsing_Functions.c ****         }
 606:..\..\FreeflyAPI/QX_Parsing_Functions.c ****     }
 607:..\..\FreeflyAPI/QX_Parsing_Functions.c **** }
 3152              		.loc 1 607 0
 3153 0064 70BC     		pop	{r4, r5, r6}
 3154              		.cfi_restore 6
 3155              		.cfi_restore 5
 3156              		.cfi_restore 4
 3157              		.cfi_def_cfa_offset 0
 3158              	.LVL388:
 3159 0066 7047     		bx	lr
 3160              	.L372:
 3161              		.align	2
 3162              	.L371:
 3163 0068 00000000 		.word	rw
 3164 006c 00000000 		.word	msgPtr
 3165              		.cfi_endproc
 3166              	.LFE34:
 3167              		.size	GetSignedCharAsSignedChar, .-GetSignedCharAsSignedChar
 3168              		.section	.text.AddUnsignedCharAsUnsignedChar,"ax",%progbits
 3169              		.align	2
 3170              		.global	AddUnsignedCharAsUnsignedChar
 3171              		.thumb
 3172              		.thumb_func
ARM GAS  C:\Users\hamis\AppData\Local\Temp\cc1fRzXM.s 			page 68


 3173              		.type	AddUnsignedCharAsUnsignedChar, %function
 3174              	AddUnsignedCharAsUnsignedChar:
 3175              	.LFB35:
 608:..\..\FreeflyAPI/QX_Parsing_Functions.c **** 
 609:..\..\FreeflyAPI/QX_Parsing_Functions.c **** void AddUnsignedCharAsUnsignedChar(uint8_t *v, uint32_t n)
 610:..\..\FreeflyAPI/QX_Parsing_Functions.c **** {
 3176              		.loc 1 610 0
 3177              		.cfi_startproc
 3178              		@ args = 0, pretend = 0, frame = 0
 3179              		@ frame_needed = 0, uses_anonymous_args = 0
 3180              		@ link register save eliminated.
 3181              	.LVL389:
 3182 0000 10B4     		push	{r4}
 3183              		.cfi_def_cfa_offset 4
 3184              		.cfi_offset 4, -4
 611:..\..\FreeflyAPI/QX_Parsing_Functions.c ****     while(n--)
 3185              		.loc 1 611 0
 3186 0002 07E0     		b	.L374
 3187              	.LVL390:
 3188              	.L375:
 612:..\..\FreeflyAPI/QX_Parsing_Functions.c ****     {
 613:..\..\FreeflyAPI/QX_Parsing_Functions.c ****         ADDCHAR(*v);
 3189              		.loc 1 613 0
 3190 0004 064A     		ldr	r2, .L377
 3191 0006 1368     		ldr	r3, [r2]
 3192 0008 591C     		adds	r1, r3, #1
 3193 000a 1160     		str	r1, [r2]
 3194 000c 10F8012B 		ldrb	r2, [r0], #1	@ zero_extendqisi2
 3195              	.LVL391:
 3196 0010 1A70     		strb	r2, [r3]
 3197              	.LVL392:
 611:..\..\FreeflyAPI/QX_Parsing_Functions.c ****     while(n--)
 3198              		.loc 1 611 0
 3199 0012 2146     		mov	r1, r4
 3200              	.LVL393:
 3201              	.L374:
 3202 0014 4C1E     		subs	r4, r1, #1
 3203              	.LVL394:
 3204 0016 0029     		cmp	r1, #0
 3205 0018 F4D1     		bne	.L375
 614:..\..\FreeflyAPI/QX_Parsing_Functions.c ****         v++;
 615:..\..\FreeflyAPI/QX_Parsing_Functions.c ****     }
 616:..\..\FreeflyAPI/QX_Parsing_Functions.c **** }
 3206              		.loc 1 616 0
 3207 001a 10BC     		pop	{r4}
 3208              		.cfi_restore 4
 3209              		.cfi_def_cfa_offset 0
 3210              	.LVL395:
 3211 001c 7047     		bx	lr
 3212              	.L378:
 3213 001e 00BF     		.align	2
 3214              	.L377:
 3215 0020 00000000 		.word	msgPtr
 3216              		.cfi_endproc
 3217              	.LFE35:
 3218              		.size	AddUnsignedCharAsUnsignedChar, .-AddUnsignedCharAsUnsignedChar
 3219              		.section	.text.GetUnsignedCharAsUnsignedChar,"ax",%progbits
ARM GAS  C:\Users\hamis\AppData\Local\Temp\cc1fRzXM.s 			page 69


 3220              		.align	2
 3221              		.global	GetUnsignedCharAsUnsignedChar
 3222              		.thumb
 3223              		.thumb_func
 3224              		.type	GetUnsignedCharAsUnsignedChar, %function
 3225              	GetUnsignedCharAsUnsignedChar:
 3226              	.LFB36:
 617:..\..\FreeflyAPI/QX_Parsing_Functions.c **** 
 618:..\..\FreeflyAPI/QX_Parsing_Functions.c **** void GetUnsignedCharAsUnsignedChar(uint8_t *v, uint32_t n, uint8_t max, uint8_t min)
 619:..\..\FreeflyAPI/QX_Parsing_Functions.c **** {
 3227              		.loc 1 619 0
 3228              		.cfi_startproc
 3229              		@ args = 0, pretend = 0, frame = 0
 3230              		@ frame_needed = 0, uses_anonymous_args = 0
 3231              		@ link register save eliminated.
 3232              	.LVL396:
 3233 0000 70B4     		push	{r4, r5, r6}
 3234              		.cfi_def_cfa_offset 12
 3235              		.cfi_offset 4, -12
 3236              		.cfi_offset 5, -8
 3237              		.cfi_offset 6, -4
 620:..\..\FreeflyAPI/QX_Parsing_Functions.c ****     if(rw == QB_Parser_Dir_WriteDel)
 3238              		.loc 1 620 0
 3239 0002 184C     		ldr	r4, .L390
 3240 0004 2478     		ldrb	r4, [r4]	@ zero_extendqisi2
 3241 0006 012C     		cmp	r4, #1
 3242 0008 27D1     		bne	.L381
 3243 000a 12E0     		b	.L380
 3244              	.LVL397:
 3245              	.L384:
 3246              	.LBB40:
 621:..\..\FreeflyAPI/QX_Parsing_Functions.c ****     {
 622:..\..\FreeflyAPI/QX_Parsing_Functions.c ****         while(n--)
 623:..\..\FreeflyAPI/QX_Parsing_Functions.c ****         {
 624:..\..\FreeflyAPI/QX_Parsing_Functions.c ****             int8_t r = GETSC;
 3247              		.loc 1 624 0
 3248 000c 164C     		ldr	r4, .L390+4
 3249 000e 2168     		ldr	r1, [r4]
 3250 0010 4E1C     		adds	r6, r1, #1
 3251 0012 2660     		str	r6, [r4]
 3252 0014 0978     		ldrb	r1, [r1]	@ zero_extendqisi2
 3253 0016 4CB2     		sxtb	r4, r1
 3254              	.LVL398:
 625:..\..\FreeflyAPI/QX_Parsing_Functions.c ****             int32_t temp = *v;    //Promote to signed so we can do a meaningful clamp check
 3255              		.loc 1 625 0
 3256 0018 0178     		ldrb	r1, [r0]	@ zero_extendqisi2
 3257              	.LVL399:
 626:..\..\FreeflyAPI/QX_Parsing_Functions.c ****             temp += r;
 3258              		.loc 1 626 0
 3259 001a 2144     		add	r1, r1, r4
 3260              	.LVL400:
 627:..\..\FreeflyAPI/QX_Parsing_Functions.c ****             if(max < temp) temp = max;
 3261              		.loc 1 627 0
 3262 001c 1446     		mov	r4, r2
 3263              	.LVL401:
 3264 001e 9142     		cmp	r1, r2
 3265 0020 00DC     		bgt	.L382
ARM GAS  C:\Users\hamis\AppData\Local\Temp\cc1fRzXM.s 			page 70


 626:..\..\FreeflyAPI/QX_Parsing_Functions.c ****             temp += r;
 3266              		.loc 1 626 0
 3267 0022 0C46     		mov	r4, r1
 3268              	.L382:
 3269              	.LVL402:
 628:..\..\FreeflyAPI/QX_Parsing_Functions.c ****             if(temp < min) temp = min;
 3270              		.loc 1 628 0
 3271 0024 1946     		mov	r1, r3
 3272 0026 9C42     		cmp	r4, r3
 3273 0028 00DB     		blt	.L383
 3274 002a 2146     		mov	r1, r4
 3275              	.L383:
 3276              	.LVL403:
 629:..\..\FreeflyAPI/QX_Parsing_Functions.c ****             *v = (uint8_t)temp;
 3277              		.loc 1 629 0
 3278 002c 00F8011B 		strb	r1, [r0], #1
 3279              	.LVL404:
 3280              	.LBE40:
 622:..\..\FreeflyAPI/QX_Parsing_Functions.c ****         {
 3281              		.loc 1 622 0
 3282 0030 2946     		mov	r1, r5
 3283              	.LVL405:
 3284              	.L380:
 3285 0032 4D1E     		subs	r5, r1, #1
 3286              	.LVL406:
 3287 0034 0029     		cmp	r1, #0
 3288 0036 E9D1     		bne	.L384
 3289 0038 12E0     		b	.L379
 3290              	.L388:
 3291              	.LBB41:
 630:..\..\FreeflyAPI/QX_Parsing_Functions.c ****             v++;
 631:..\..\FreeflyAPI/QX_Parsing_Functions.c ****         }
 632:..\..\FreeflyAPI/QX_Parsing_Functions.c ****     }
 633:..\..\FreeflyAPI/QX_Parsing_Functions.c ****     else
 634:..\..\FreeflyAPI/QX_Parsing_Functions.c ****     {
 635:..\..\FreeflyAPI/QX_Parsing_Functions.c ****         while(n--)
 636:..\..\FreeflyAPI/QX_Parsing_Functions.c ****         {
 637:..\..\FreeflyAPI/QX_Parsing_Functions.c ****             uint8_t r = GETUC;
 3292              		.loc 1 637 0
 3293 003a 0B4C     		ldr	r4, .L390+4
 3294 003c 2168     		ldr	r1, [r4]
 3295 003e 4E1C     		adds	r6, r1, #1
 3296 0040 2660     		str	r6, [r4]
 3297 0042 0978     		ldrb	r1, [r1]	@ zero_extendqisi2
 3298 0044 C9B2     		uxtb	r1, r1
 3299              	.LVL407:
 638:..\..\FreeflyAPI/QX_Parsing_Functions.c ****             *v = r;
 3300              		.loc 1 638 0
 3301 0046 0170     		strb	r1, [r0]
 639:..\..\FreeflyAPI/QX_Parsing_Functions.c ****             if(max < *v) *v = max;
 3302              		.loc 1 639 0
 3303 0048 8A42     		cmp	r2, r1
 3304 004a 00D2     		bcs	.L386
 3305              		.loc 1 639 0 is_stmt 0 discriminator 1
 3306 004c 0270     		strb	r2, [r0]
 3307              	.L386:
 640:..\..\FreeflyAPI/QX_Parsing_Functions.c ****             if(*v < min) *v = min;
ARM GAS  C:\Users\hamis\AppData\Local\Temp\cc1fRzXM.s 			page 71


 3308              		.loc 1 640 0 is_stmt 1
 3309 004e 0178     		ldrb	r1, [r0]	@ zero_extendqisi2
 3310              	.LVL408:
 3311 0050 8B42     		cmp	r3, r1
 3312 0052 00D9     		bls	.L387
 3313              		.loc 1 640 0 is_stmt 0 discriminator 1
 3314 0054 0370     		strb	r3, [r0]
 3315              	.L387:
 641:..\..\FreeflyAPI/QX_Parsing_Functions.c ****             v++;
 3316              		.loc 1 641 0 is_stmt 1
 3317 0056 0130     		adds	r0, r0, #1
 3318              	.LVL409:
 3319              	.LBE41:
 635:..\..\FreeflyAPI/QX_Parsing_Functions.c ****         {
 3320              		.loc 1 635 0
 3321 0058 2946     		mov	r1, r5
 3322              	.LVL410:
 3323              	.L381:
 3324 005a 4D1E     		subs	r5, r1, #1
 3325              	.LVL411:
 3326 005c 0029     		cmp	r1, #0
 3327 005e ECD1     		bne	.L388
 3328              	.L379:
 642:..\..\FreeflyAPI/QX_Parsing_Functions.c ****         }
 643:..\..\FreeflyAPI/QX_Parsing_Functions.c ****     }
 644:..\..\FreeflyAPI/QX_Parsing_Functions.c **** }
 3329              		.loc 1 644 0
 3330 0060 70BC     		pop	{r4, r5, r6}
 3331              		.cfi_restore 6
 3332              		.cfi_restore 5
 3333              		.cfi_restore 4
 3334              		.cfi_def_cfa_offset 0
 3335              	.LVL412:
 3336 0062 7047     		bx	lr
 3337              	.L391:
 3338              		.align	2
 3339              	.L390:
 3340 0064 00000000 		.word	rw
 3341 0068 00000000 		.word	msgPtr
 3342              		.cfi_endproc
 3343              	.LFE36:
 3344              		.size	GetUnsignedCharAsUnsignedChar, .-GetUnsignedCharAsUnsignedChar
 3345              		.section	.text.AddUnsignedShortAsUnsignedShort,"ax",%progbits
 3346              		.align	2
 3347              		.global	AddUnsignedShortAsUnsignedShort
 3348              		.thumb
 3349              		.thumb_func
 3350              		.type	AddUnsignedShortAsUnsignedShort, %function
 3351              	AddUnsignedShortAsUnsignedShort:
 3352              	.LFB37:
 645:..\..\FreeflyAPI/QX_Parsing_Functions.c **** 
 646:..\..\FreeflyAPI/QX_Parsing_Functions.c **** void AddUnsignedShortAsUnsignedShort(uint16_t *v, uint32_t n)
 647:..\..\FreeflyAPI/QX_Parsing_Functions.c **** {
 3353              		.loc 1 647 0
 3354              		.cfi_startproc
 3355              		@ args = 0, pretend = 0, frame = 0
 3356              		@ frame_needed = 0, uses_anonymous_args = 0
ARM GAS  C:\Users\hamis\AppData\Local\Temp\cc1fRzXM.s 			page 72


 3357              		@ link register save eliminated.
 3358              	.LVL413:
 3359 0000 10B4     		push	{r4}
 3360              		.cfi_def_cfa_offset 4
 3361              		.cfi_offset 4, -4
 648:..\..\FreeflyAPI/QX_Parsing_Functions.c ****     while(n--)
 3362              		.loc 1 648 0
 3363 0002 0EE0     		b	.L393
 3364              	.LVL414:
 3365              	.L394:
 649:..\..\FreeflyAPI/QX_Parsing_Functions.c ****     {
 650:..\..\FreeflyAPI/QX_Parsing_Functions.c ****         ADDUS(*v);
 3366              		.loc 1 650 0
 3367 0004 094B     		ldr	r3, .L396
 3368 0006 1968     		ldr	r1, [r3]
 3369 0008 4A1C     		adds	r2, r1, #1
 3370 000a 1A60     		str	r2, [r3]
 3371 000c 0288     		ldrh	r2, [r0]
 3372 000e 120A     		lsrs	r2, r2, #8
 3373 0010 0A70     		strb	r2, [r1]
 3374 0012 1A68     		ldr	r2, [r3]
 3375 0014 511C     		adds	r1, r2, #1
 3376 0016 1960     		str	r1, [r3]
 3377 0018 30F8023B 		ldrh	r3, [r0], #2
 3378              	.LVL415:
 3379 001c DBB2     		uxtb	r3, r3
 3380 001e 1370     		strb	r3, [r2]
 3381              	.LVL416:
 648:..\..\FreeflyAPI/QX_Parsing_Functions.c ****     while(n--)
 3382              		.loc 1 648 0
 3383 0020 2146     		mov	r1, r4
 3384              	.LVL417:
 3385              	.L393:
 3386 0022 4C1E     		subs	r4, r1, #1
 3387              	.LVL418:
 3388 0024 0029     		cmp	r1, #0
 3389 0026 EDD1     		bne	.L394
 651:..\..\FreeflyAPI/QX_Parsing_Functions.c ****         v++;
 652:..\..\FreeflyAPI/QX_Parsing_Functions.c ****     }
 653:..\..\FreeflyAPI/QX_Parsing_Functions.c **** }
 3390              		.loc 1 653 0
 3391 0028 10BC     		pop	{r4}
 3392              		.cfi_restore 4
 3393              		.cfi_def_cfa_offset 0
 3394              	.LVL419:
 3395 002a 7047     		bx	lr
 3396              	.L397:
 3397              		.align	2
 3398              	.L396:
 3399 002c 00000000 		.word	msgPtr
 3400              		.cfi_endproc
 3401              	.LFE37:
 3402              		.size	AddUnsignedShortAsUnsignedShort, .-AddUnsignedShortAsUnsignedShort
 3403              		.section	.text.GetUnsignedShortAsUnsignedShort,"ax",%progbits
 3404              		.align	2
 3405              		.global	GetUnsignedShortAsUnsignedShort
 3406              		.thumb
ARM GAS  C:\Users\hamis\AppData\Local\Temp\cc1fRzXM.s 			page 73


 3407              		.thumb_func
 3408              		.type	GetUnsignedShortAsUnsignedShort, %function
 3409              	GetUnsignedShortAsUnsignedShort:
 3410              	.LFB38:
 654:..\..\FreeflyAPI/QX_Parsing_Functions.c **** 
 655:..\..\FreeflyAPI/QX_Parsing_Functions.c **** void GetUnsignedShortAsUnsignedShort(uint16_t *v, uint32_t n, uint16_t max, uint16_t min)
 656:..\..\FreeflyAPI/QX_Parsing_Functions.c **** {
 3411              		.loc 1 656 0
 3412              		.cfi_startproc
 3413              		@ args = 0, pretend = 0, frame = 0
 3414              		@ frame_needed = 0, uses_anonymous_args = 0
 3415              		@ link register save eliminated.
 3416              	.LVL420:
 3417 0000 F0B4     		push	{r4, r5, r6, r7}
 3418              		.cfi_def_cfa_offset 16
 3419              		.cfi_offset 4, -16
 3420              		.cfi_offset 5, -12
 3421              		.cfi_offset 6, -8
 3422              		.cfi_offset 7, -4
 657:..\..\FreeflyAPI/QX_Parsing_Functions.c ****     if(rw == QB_Parser_Dir_WriteDel)
 3423              		.loc 1 657 0
 3424 0002 1A4C     		ldr	r4, .L409
 3425 0004 2478     		ldrb	r4, [r4]	@ zero_extendqisi2
 3426 0006 012C     		cmp	r4, #1
 3427 0008 2BD1     		bne	.L400
 3428 000a 14E0     		b	.L399
 3429              	.LVL421:
 3430              	.L403:
 3431              	.LBB42:
 658:..\..\FreeflyAPI/QX_Parsing_Functions.c ****     {
 659:..\..\FreeflyAPI/QX_Parsing_Functions.c ****         while(n--)
 660:..\..\FreeflyAPI/QX_Parsing_Functions.c ****         {
 661:..\..\FreeflyAPI/QX_Parsing_Functions.c ****             uint16_t r = GETUS;
 3432              		.loc 1 661 0
 3433 000c 184E     		ldr	r6, .L409+4
 3434 000e 3468     		ldr	r4, [r6]
 3435 0010 2578     		ldrb	r5, [r4]	@ zero_extendqisi2
 3436 0012 6178     		ldrb	r1, [r4, #1]	@ zero_extendqisi2
 3437 0014 41EA0525 		orr	r5, r1, r5, lsl #8
 3438              	.LVL422:
 3439 0018 0234     		adds	r4, r4, #2
 3440 001a 3460     		str	r4, [r6]
 662:..\..\FreeflyAPI/QX_Parsing_Functions.c ****             *v += r;
 3441              		.loc 1 662 0
 3442 001c 0188     		ldrh	r1, [r0]
 3443 001e 2944     		add	r1, r1, r5
 3444 0020 89B2     		uxth	r1, r1
 3445 0022 0180     		strh	r1, [r0]	@ movhi
 663:..\..\FreeflyAPI/QX_Parsing_Functions.c ****             if(max < *v) *v = max;
 3446              		.loc 1 663 0
 3447 0024 9142     		cmp	r1, r2
 3448 0026 00D9     		bls	.L401
 3449              		.loc 1 663 0 is_stmt 0 discriminator 1
 3450 0028 0280     		strh	r2, [r0]	@ movhi
 3451              	.L401:
 664:..\..\FreeflyAPI/QX_Parsing_Functions.c ****             if(*v < min) *v = min;
 3452              		.loc 1 664 0 is_stmt 1
ARM GAS  C:\Users\hamis\AppData\Local\Temp\cc1fRzXM.s 			page 74


 3453 002a 0188     		ldrh	r1, [r0]
 3454 002c 9942     		cmp	r1, r3
 3455 002e 00D2     		bcs	.L402
 3456              		.loc 1 664 0 is_stmt 0 discriminator 1
 3457 0030 0380     		strh	r3, [r0]	@ movhi
 3458              	.L402:
 665:..\..\FreeflyAPI/QX_Parsing_Functions.c ****             v++;
 3459              		.loc 1 665 0 is_stmt 1
 3460 0032 0230     		adds	r0, r0, #2
 3461              	.LVL423:
 3462              	.LBE42:
 659:..\..\FreeflyAPI/QX_Parsing_Functions.c ****         {
 3463              		.loc 1 659 0
 3464 0034 3946     		mov	r1, r7
 3465              	.LVL424:
 3466              	.L399:
 3467 0036 4F1E     		subs	r7, r1, #1
 3468              	.LVL425:
 3469 0038 0029     		cmp	r1, #0
 3470 003a E7D1     		bne	.L403
 3471 003c 14E0     		b	.L398
 3472              	.LVL426:
 3473              	.L407:
 3474              	.LBB43:
 666:..\..\FreeflyAPI/QX_Parsing_Functions.c ****         }
 667:..\..\FreeflyAPI/QX_Parsing_Functions.c ****     }
 668:..\..\FreeflyAPI/QX_Parsing_Functions.c ****     else
 669:..\..\FreeflyAPI/QX_Parsing_Functions.c ****     {
 670:..\..\FreeflyAPI/QX_Parsing_Functions.c ****         while(n--)
 671:..\..\FreeflyAPI/QX_Parsing_Functions.c ****         {
 672:..\..\FreeflyAPI/QX_Parsing_Functions.c ****             uint16_t r = GETUS;
 3475              		.loc 1 672 0
 3476 003e 0C4D     		ldr	r5, .L409+4
 3477 0040 2968     		ldr	r1, [r5]
 3478 0042 0F78     		ldrb	r7, [r1]	@ zero_extendqisi2
 3479 0044 4C78     		ldrb	r4, [r1, #1]	@ zero_extendqisi2
 3480 0046 44EA0724 		orr	r4, r4, r7, lsl #8
 3481              	.LVL427:
 3482 004a 0231     		adds	r1, r1, #2
 3483 004c 2960     		str	r1, [r5]
 673:..\..\FreeflyAPI/QX_Parsing_Functions.c ****             *v = r;
 3484              		.loc 1 673 0
 3485 004e 0480     		strh	r4, [r0]	@ movhi
 674:..\..\FreeflyAPI/QX_Parsing_Functions.c ****             if(max < *v) *v = max;
 3486              		.loc 1 674 0
 3487 0050 A242     		cmp	r2, r4
 3488 0052 00D2     		bcs	.L405
 3489              		.loc 1 674 0 is_stmt 0 discriminator 1
 3490 0054 0280     		strh	r2, [r0]	@ movhi
 3491              	.L405:
 675:..\..\FreeflyAPI/QX_Parsing_Functions.c ****             if(*v < min) *v = min;
 3492              		.loc 1 675 0 is_stmt 1
 3493 0056 0188     		ldrh	r1, [r0]
 3494 0058 8B42     		cmp	r3, r1
 3495 005a 00D9     		bls	.L406
 3496              		.loc 1 675 0 is_stmt 0 discriminator 1
 3497 005c 0380     		strh	r3, [r0]	@ movhi
ARM GAS  C:\Users\hamis\AppData\Local\Temp\cc1fRzXM.s 			page 75


 3498              	.L406:
 676:..\..\FreeflyAPI/QX_Parsing_Functions.c ****             v++;
 3499              		.loc 1 676 0 is_stmt 1
 3500 005e 0230     		adds	r0, r0, #2
 3501              	.LVL428:
 3502              	.LBE43:
 670:..\..\FreeflyAPI/QX_Parsing_Functions.c ****         {
 3503              		.loc 1 670 0
 3504 0060 3146     		mov	r1, r6
 3505              	.LVL429:
 3506              	.L400:
 3507 0062 4E1E     		subs	r6, r1, #1
 3508              	.LVL430:
 3509 0064 0029     		cmp	r1, #0
 3510 0066 EAD1     		bne	.L407
 3511              	.LVL431:
 3512              	.L398:
 677:..\..\FreeflyAPI/QX_Parsing_Functions.c ****         }
 678:..\..\FreeflyAPI/QX_Parsing_Functions.c ****     }
 679:..\..\FreeflyAPI/QX_Parsing_Functions.c **** }
 3513              		.loc 1 679 0
 3514 0068 F0BC     		pop	{r4, r5, r6, r7}
 3515              		.cfi_restore 7
 3516              		.cfi_restore 6
 3517              		.cfi_restore 5
 3518              		.cfi_restore 4
 3519              		.cfi_def_cfa_offset 0
 3520 006a 7047     		bx	lr
 3521              	.L410:
 3522              		.align	2
 3523              	.L409:
 3524 006c 00000000 		.word	rw
 3525 0070 00000000 		.word	msgPtr
 3526              		.cfi_endproc
 3527              	.LFE38:
 3528              		.size	GetUnsignedShortAsUnsignedShort, .-GetUnsignedShortAsUnsignedShort
 3529              		.section	.text.AddBitsAsByte,"ax",%progbits
 3530              		.align	2
 3531              		.global	AddBitsAsByte
 3532              		.thumb
 3533              		.thumb_func
 3534              		.type	AddBitsAsByte, %function
 3535              	AddBitsAsByte:
 3536              	.LFB39:
 680:..\..\FreeflyAPI/QX_Parsing_Functions.c **** 
 681:..\..\FreeflyAPI/QX_Parsing_Functions.c **** // Adds a field of bits to a char
 682:..\..\FreeflyAPI/QX_Parsing_Functions.c **** void AddBitsAsByte(uint8_t *v, uint8_t start_bit, uint8_t n_bits)
 683:..\..\FreeflyAPI/QX_Parsing_Functions.c **** {
 3537              		.loc 1 683 0
 3538              		.cfi_startproc
 3539              		@ args = 0, pretend = 0, frame = 0
 3540              		@ frame_needed = 0, uses_anonymous_args = 0
 3541              		@ link register save eliminated.
 3542              	.LVL432:
 3543 0000 70B4     		push	{r4, r5, r6}
 3544              		.cfi_def_cfa_offset 12
 3545              		.cfi_offset 4, -12
ARM GAS  C:\Users\hamis\AppData\Local\Temp\cc1fRzXM.s 			page 76


 3546              		.cfi_offset 5, -8
 3547              		.cfi_offset 6, -4
 684:..\..\FreeflyAPI/QX_Parsing_Functions.c **** 	uint8_t temp = *msgPtr;
 3548              		.loc 1 684 0
 3549 0002 154B     		ldr	r3, .L424
 3550 0004 1D68     		ldr	r5, [r3]
 3551 0006 2C78     		ldrb	r4, [r5]	@ zero_extendqisi2
 3552 0008 E4B2     		uxtb	r4, r4
 3553              	.LVL433:
 685:..\..\FreeflyAPI/QX_Parsing_Functions.c **** 	uint8_t mask;
 686:..\..\FreeflyAPI/QX_Parsing_Functions.c **** 	
 687:..\..\FreeflyAPI/QX_Parsing_Functions.c **** 	switch (n_bits){
 3554              		.loc 1 687 0
 3555 000a 013A     		subs	r2, r2, #1
 3556              	.LVL434:
 3557 000c 072A     		cmp	r2, #7
 3558 000e 14D8     		bhi	.L413
 3559 0010 DFE802F0 		tbb	[pc, r2]
 3560              	.L414:
 3561 0014 12       		.byte	(.L422-.L414)/2
 3562 0015 04       		.byte	(.L415-.L414)/2
 3563 0016 06       		.byte	(.L416-.L414)/2
 3564 0017 08       		.byte	(.L417-.L414)/2
 3565 0018 0A       		.byte	(.L418-.L414)/2
 3566 0019 0C       		.byte	(.L419-.L414)/2
 3567 001a 0E       		.byte	(.L420-.L414)/2
 3568 001b 10       		.byte	(.L421-.L414)/2
 3569              		.p2align 1
 3570              	.L415:
 3571              	.LVL435:
 688:..\..\FreeflyAPI/QX_Parsing_Functions.c **** 		case 1:
 689:..\..\FreeflyAPI/QX_Parsing_Functions.c **** 			mask = BITFIELD_MASK_1; break;
 690:..\..\FreeflyAPI/QX_Parsing_Functions.c **** 		case 2:
 691:..\..\FreeflyAPI/QX_Parsing_Functions.c **** 			mask = BITFIELD_MASK_2; break;
 3572              		.loc 1 691 0
 3573 001c 0326     		movs	r6, #3
 3574 001e 0CE0     		b	.L413
 3575              	.LVL436:
 3576              	.L416:
 692:..\..\FreeflyAPI/QX_Parsing_Functions.c **** 		case 3:
 693:..\..\FreeflyAPI/QX_Parsing_Functions.c **** 			mask = BITFIELD_MASK_3; break;
 3577              		.loc 1 693 0
 3578 0020 0726     		movs	r6, #7
 3579 0022 0AE0     		b	.L413
 3580              	.LVL437:
 3581              	.L417:
 694:..\..\FreeflyAPI/QX_Parsing_Functions.c **** 		case 4:
 695:..\..\FreeflyAPI/QX_Parsing_Functions.c **** 			mask = BITFIELD_MASK_4; break;
 3582              		.loc 1 695 0
 3583 0024 0F26     		movs	r6, #15
 3584 0026 08E0     		b	.L413
 3585              	.LVL438:
 3586              	.L418:
 696:..\..\FreeflyAPI/QX_Parsing_Functions.c **** 		case 5:
 697:..\..\FreeflyAPI/QX_Parsing_Functions.c **** 			mask = BITFIELD_MASK_5; break;
 3587              		.loc 1 697 0
 3588 0028 1F26     		movs	r6, #31
ARM GAS  C:\Users\hamis\AppData\Local\Temp\cc1fRzXM.s 			page 77


 3589 002a 06E0     		b	.L413
 3590              	.LVL439:
 3591              	.L419:
 698:..\..\FreeflyAPI/QX_Parsing_Functions.c **** 		case 6:
 699:..\..\FreeflyAPI/QX_Parsing_Functions.c **** 			mask = BITFIELD_MASK_6; break;
 3592              		.loc 1 699 0
 3593 002c 3F26     		movs	r6, #63
 3594 002e 04E0     		b	.L413
 3595              	.LVL440:
 3596              	.L420:
 700:..\..\FreeflyAPI/QX_Parsing_Functions.c **** 		case 7:
 701:..\..\FreeflyAPI/QX_Parsing_Functions.c **** 			mask = BITFIELD_MASK_7; break;
 3597              		.loc 1 701 0
 3598 0030 7F26     		movs	r6, #127
 3599 0032 02E0     		b	.L413
 3600              	.LVL441:
 3601              	.L421:
 702:..\..\FreeflyAPI/QX_Parsing_Functions.c **** 		case 8:
 703:..\..\FreeflyAPI/QX_Parsing_Functions.c **** 			mask = BITFIELD_MASK_8; break;
 3602              		.loc 1 703 0
 3603 0034 FF26     		movs	r6, #255
 3604 0036 00E0     		b	.L413
 3605              	.LVL442:
 3606              	.L422:
 689:..\..\FreeflyAPI/QX_Parsing_Functions.c **** 		case 2:
 3607              		.loc 1 689 0
 3608 0038 0126     		movs	r6, #1
 3609              	.L413:
 3610              	.LVL443:
 704:..\..\FreeflyAPI/QX_Parsing_Functions.c **** 		default:
 705:..\..\FreeflyAPI/QX_Parsing_Functions.c **** 			break;
 706:..\..\FreeflyAPI/QX_Parsing_Functions.c **** 	}
 707:..\..\FreeflyAPI/QX_Parsing_Functions.c **** 	
 708:..\..\FreeflyAPI/QX_Parsing_Functions.c **** 	// Move the mask up to the starting position and clear the existing bits in the field
 709:..\..\FreeflyAPI/QX_Parsing_Functions.c **** 	temp &= ~(mask << start_bit);
 3611              		.loc 1 709 0
 3612 003a 06FA01F3 		lsl	r3, r6, r1
 3613 003e 24EA0304 		bic	r4, r4, r3
 3614              	.LVL444:
 3615 0042 64B2     		sxtb	r4, r4
 3616              	.LVL445:
 710:..\..\FreeflyAPI/QX_Parsing_Functions.c **** 	
 711:..\..\FreeflyAPI/QX_Parsing_Functions.c **** 	// Add the bit field in
 712:..\..\FreeflyAPI/QX_Parsing_Functions.c **** 	temp |= ((*v & mask) << start_bit);
 3617              		.loc 1 712 0
 3618 0044 0378     		ldrb	r3, [r0]	@ zero_extendqisi2
 3619 0046 3340     		ands	r3, r3, r6
 3620 0048 03FA01F1 		lsl	r1, r3, r1
 3621              	.LVL446:
 3622 004c 2143     		orrs	r1, r1, r4
 3623 004e C9B2     		uxtb	r1, r1
 3624              	.LVL447:
 713:..\..\FreeflyAPI/QX_Parsing_Functions.c **** 	*msgPtr = temp;
 3625              		.loc 1 713 0
 3626 0050 2970     		strb	r1, [r5]
 714:..\..\FreeflyAPI/QX_Parsing_Functions.c **** }
 3627              		.loc 1 714 0
ARM GAS  C:\Users\hamis\AppData\Local\Temp\cc1fRzXM.s 			page 78


 3628 0052 70BC     		pop	{r4, r5, r6}
 3629              		.cfi_restore 6
 3630              		.cfi_restore 5
 3631              		.cfi_restore 4
 3632              		.cfi_def_cfa_offset 0
 3633              	.LVL448:
 3634 0054 7047     		bx	lr
 3635              	.L425:
 3636 0056 00BF     		.align	2
 3637              	.L424:
 3638 0058 00000000 		.word	msgPtr
 3639              		.cfi_endproc
 3640              	.LFE39:
 3641              		.size	AddBitsAsByte, .-AddBitsAsByte
 3642              		.section	.text.GetBitsAsByte,"ax",%progbits
 3643              		.align	2
 3644              		.global	GetBitsAsByte
 3645              		.thumb
 3646              		.thumb_func
 3647              		.type	GetBitsAsByte, %function
 3648              	GetBitsAsByte:
 3649              	.LFB40:
 715:..\..\FreeflyAPI/QX_Parsing_Functions.c **** 
 716:..\..\FreeflyAPI/QX_Parsing_Functions.c **** // Applys the bitfield from the buffer to a byte within the range of bits specified. 
 717:..\..\FreeflyAPI/QX_Parsing_Functions.c **** // The returned bitfield starts at bit 0 in the byte.
 718:..\..\FreeflyAPI/QX_Parsing_Functions.c **** // Relative write direction applies the bitfield as an XOR toggle mask, which flips each bit within
 719:..\..\FreeflyAPI/QX_Parsing_Functions.c **** // Absolute write direction applies the bitfield as an absolute value.
 720:..\..\FreeflyAPI/QX_Parsing_Functions.c **** void GetBitsAsByte(uint8_t *v, uint8_t start_bit, uint8_t n_bits)
 721:..\..\FreeflyAPI/QX_Parsing_Functions.c **** {
 3650              		.loc 1 721 0
 3651              		.cfi_startproc
 3652              		@ args = 0, pretend = 0, frame = 0
 3653              		@ frame_needed = 0, uses_anonymous_args = 0
 3654              		@ link register save eliminated.
 3655              	.LVL449:
 3656 0000 10B4     		push	{r4}
 3657              		.cfi_def_cfa_offset 4
 3658              		.cfi_offset 4, -4
 722:..\..\FreeflyAPI/QX_Parsing_Functions.c **** 	uint8_t mask, xor_mask;
 723:..\..\FreeflyAPI/QX_Parsing_Functions.c **** 	
 724:..\..\FreeflyAPI/QX_Parsing_Functions.c **** 	switch (n_bits){
 3659              		.loc 1 724 0
 3660 0002 013A     		subs	r2, r2, #1
 3661              	.LVL450:
 3662 0004 072A     		cmp	r2, #7
 3663 0006 14D8     		bhi	.L428
 3664 0008 DFE802F0 		tbb	[pc, r2]
 3665              	.L429:
 3666 000c 12       		.byte	(.L439-.L429)/2
 3667 000d 04       		.byte	(.L430-.L429)/2
 3668 000e 06       		.byte	(.L431-.L429)/2
 3669 000f 08       		.byte	(.L432-.L429)/2
 3670 0010 0A       		.byte	(.L433-.L429)/2
 3671 0011 0C       		.byte	(.L434-.L429)/2
 3672 0012 0E       		.byte	(.L435-.L429)/2
 3673 0013 10       		.byte	(.L436-.L429)/2
 3674              		.p2align 1
ARM GAS  C:\Users\hamis\AppData\Local\Temp\cc1fRzXM.s 			page 79


 3675              	.L430:
 3676              	.LVL451:
 725:..\..\FreeflyAPI/QX_Parsing_Functions.c **** 		case 1:
 726:..\..\FreeflyAPI/QX_Parsing_Functions.c **** 			mask = BITFIELD_MASK_1; break;
 727:..\..\FreeflyAPI/QX_Parsing_Functions.c **** 		case 2:
 728:..\..\FreeflyAPI/QX_Parsing_Functions.c **** 			mask = BITFIELD_MASK_2; break;
 3677              		.loc 1 728 0
 3678 0014 0324     		movs	r4, #3
 3679 0016 0CE0     		b	.L428
 3680              	.LVL452:
 3681              	.L431:
 729:..\..\FreeflyAPI/QX_Parsing_Functions.c **** 		case 3:
 730:..\..\FreeflyAPI/QX_Parsing_Functions.c **** 			mask = BITFIELD_MASK_3; break;
 3682              		.loc 1 730 0
 3683 0018 0724     		movs	r4, #7
 3684 001a 0AE0     		b	.L428
 3685              	.LVL453:
 3686              	.L432:
 731:..\..\FreeflyAPI/QX_Parsing_Functions.c **** 		case 4:
 732:..\..\FreeflyAPI/QX_Parsing_Functions.c **** 			mask = BITFIELD_MASK_4; break;
 3687              		.loc 1 732 0
 3688 001c 0F24     		movs	r4, #15
 3689 001e 08E0     		b	.L428
 3690              	.LVL454:
 3691              	.L433:
 733:..\..\FreeflyAPI/QX_Parsing_Functions.c **** 		case 5:
 734:..\..\FreeflyAPI/QX_Parsing_Functions.c **** 			mask = BITFIELD_MASK_5; break;
 3692              		.loc 1 734 0
 3693 0020 1F24     		movs	r4, #31
 3694 0022 06E0     		b	.L428
 3695              	.LVL455:
 3696              	.L434:
 735:..\..\FreeflyAPI/QX_Parsing_Functions.c **** 		case 6:
 736:..\..\FreeflyAPI/QX_Parsing_Functions.c **** 			mask = BITFIELD_MASK_6; break;
 3697              		.loc 1 736 0
 3698 0024 3F24     		movs	r4, #63
 3699 0026 04E0     		b	.L428
 3700              	.LVL456:
 3701              	.L435:
 737:..\..\FreeflyAPI/QX_Parsing_Functions.c **** 		case 7:
 738:..\..\FreeflyAPI/QX_Parsing_Functions.c **** 			mask = BITFIELD_MASK_7; break;
 3702              		.loc 1 738 0
 3703 0028 7F24     		movs	r4, #127
 3704 002a 02E0     		b	.L428
 3705              	.LVL457:
 3706              	.L436:
 739:..\..\FreeflyAPI/QX_Parsing_Functions.c **** 		case 8:
 740:..\..\FreeflyAPI/QX_Parsing_Functions.c **** 			mask = BITFIELD_MASK_8; break;
 3707              		.loc 1 740 0
 3708 002c FF24     		movs	r4, #255
 3709 002e 00E0     		b	.L428
 3710              	.LVL458:
 3711              	.L439:
 726:..\..\FreeflyAPI/QX_Parsing_Functions.c **** 		case 2:
 3712              		.loc 1 726 0
 3713 0030 0124     		movs	r4, #1
 3714              	.L428:
ARM GAS  C:\Users\hamis\AppData\Local\Temp\cc1fRzXM.s 			page 80


 3715              	.LVL459:
 741:..\..\FreeflyAPI/QX_Parsing_Functions.c **** 		default:
 742:..\..\FreeflyAPI/QX_Parsing_Functions.c **** 			break;
 743:..\..\FreeflyAPI/QX_Parsing_Functions.c **** 	}
 744:..\..\FreeflyAPI/QX_Parsing_Functions.c **** 	
 745:..\..\FreeflyAPI/QX_Parsing_Functions.c **** 	if(rw == QB_Parser_Dir_WriteDel)
 3716              		.loc 1 745 0
 3717 0032 0D4B     		ldr	r3, .L441
 3718 0034 1B78     		ldrb	r3, [r3]	@ zero_extendqisi2
 3719 0036 012B     		cmp	r3, #1
 3720 0038 0BD1     		bne	.L437
 746:..\..\FreeflyAPI/QX_Parsing_Functions.c ****     {
 747:..\..\FreeflyAPI/QX_Parsing_Functions.c **** 		xor_mask = (*msgPtr >> start_bit) & mask;
 3721              		.loc 1 747 0
 3722 003a 0C4B     		ldr	r3, .L441+4
 3723 003c 1B68     		ldr	r3, [r3]
 3724 003e 1B78     		ldrb	r3, [r3]	@ zero_extendqisi2
 3725 0040 DBB2     		uxtb	r3, r3
 3726 0042 43FA01F1 		asr	r1, r3, r1
 3727              	.LVL460:
 3728 0046 0C40     		ands	r4, r4, r1
 3729              	.LVL461:
 3730 0048 E4B2     		uxtb	r4, r4
 3731              	.LVL462:
 748:..\..\FreeflyAPI/QX_Parsing_Functions.c **** 		*v ^= xor_mask;
 3732              		.loc 1 748 0
 3733 004a 0378     		ldrb	r3, [r0]	@ zero_extendqisi2
 3734 004c 5C40     		eors	r4, r4, r3
 3735              	.LVL463:
 3736 004e 0470     		strb	r4, [r0]
 3737 0050 07E0     		b	.L426
 3738              	.LVL464:
 3739              	.L437:
 749:..\..\FreeflyAPI/QX_Parsing_Functions.c ****     }
 750:..\..\FreeflyAPI/QX_Parsing_Functions.c ****     else
 751:..\..\FreeflyAPI/QX_Parsing_Functions.c ****     {
 752:..\..\FreeflyAPI/QX_Parsing_Functions.c **** 		*v = (*msgPtr >> start_bit) & mask;
 3740              		.loc 1 752 0
 3741 0052 064B     		ldr	r3, .L441+4
 3742 0054 1B68     		ldr	r3, [r3]
 3743 0056 1B78     		ldrb	r3, [r3]	@ zero_extendqisi2
 3744 0058 DBB2     		uxtb	r3, r3
 3745 005a 43FA01F1 		asr	r1, r3, r1
 3746              	.LVL465:
 3747 005e 2140     		ands	r1, r1, r4
 3748 0060 0170     		strb	r1, [r0]
 3749              	.LVL466:
 3750              	.L426:
 753:..\..\FreeflyAPI/QX_Parsing_Functions.c ****     }
 754:..\..\FreeflyAPI/QX_Parsing_Functions.c **** }
 3751              		.loc 1 754 0
 3752 0062 10BC     		pop	{r4}
 3753              		.cfi_restore 4
 3754              		.cfi_def_cfa_offset 0
 3755 0064 7047     		bx	lr
 3756              	.L442:
 3757 0066 00BF     		.align	2
ARM GAS  C:\Users\hamis\AppData\Local\Temp\cc1fRzXM.s 			page 81


 3758              	.L441:
 3759 0068 00000000 		.word	rw
 3760 006c 00000000 		.word	msgPtr
 3761              		.cfi_endproc
 3762              	.LFE40:
 3763              		.size	GetBitsAsByte, .-GetBitsAsByte
 3764              		.comm	get_uint16_t,2,2
 3765              		.comm	rw_orig,1,1
 3766              		.comm	rw,1,1
 3767              		.comm	msgPtr,4,4
 3768              		.text
 3769              	.Letext0:
 3770              		.file 2 "d:\\program files (x86)\\psoc creator\\4.4\\psoc creator\\import\\gnu\\arm\\5.4.1\\arm-no
 3771              		.file 3 "d:\\program files (x86)\\psoc creator\\4.4\\psoc creator\\import\\gnu\\arm\\5.4.1\\arm-no
 3772              		.file 4 "..\\..\\FreeflyAPI\\QX_Parsing_Functions.h"