ARM GAS  C:\Users\hamis\AppData\Local\Temp\cc1fRzXM.s 			page 1


   1              		.syntax unified
   2              		.cpu cortex-m3
   3              		.fpu softvfp
   4              		.eabi_attribute 20, 1
   5              		.eabi_attribute 21, 1
   6              		.eabi_attribute 23, 3
   7              		.eabi_attribute 24, 1
   8              		.eabi_attribute 25, 1
   9              		.eabi_attribute 26, 1
  10              		.eabi_attribute 30, 1
  11              		.eabi_attribute 34, 1
  12              		.eabi_attribute 18, 4
  13              		.thumb
  14              		.syntax unified
  15              		.file	"QX_Parsing_Functions.c"
  16              		.text
  17              	.Ltext0:
  18              		.cfi_sections	.debug_frame
  19              		.section	.text.QX_Parser_SetMsgPtr,"ax",%progbits
  20              		.align	2
  21              		.global	QX_Parser_SetMsgPtr
  22              		.thumb
  23              		.thumb_func
  24              		.type	QX_Parser_SetMsgPtr, %function
  25              	QX_Parser_SetMsgPtr:
  26              	.LFB0:
  27              		.file 1 "..\\..\\FreeflyAPI\\QX_Parsing_Functions.c"
   1:..\..\FreeflyAPI/QX_Parsing_Functions.c **** /*-----------------------------------------------------------------
   2:..\..\FreeflyAPI/QX_Parsing_Functions.c **** 	Copyright 2017 Freefly Systems
   3:..\..\FreeflyAPI/QX_Parsing_Functions.c **** 
   4:..\..\FreeflyAPI/QX_Parsing_Functions.c **** 	Licensed under the Apache License, Version 2.0 (the "License");
   5:..\..\FreeflyAPI/QX_Parsing_Functions.c **** 	you may not use this file except in compliance with the License.
   6:..\..\FreeflyAPI/QX_Parsing_Functions.c **** 	You may obtain a copy of the License at
   7:..\..\FreeflyAPI/QX_Parsing_Functions.c **** 
   8:..\..\FreeflyAPI/QX_Parsing_Functions.c **** 		http://www.apache.org/licenses/LICENSE-2.0
   9:..\..\FreeflyAPI/QX_Parsing_Functions.c **** 
  10:..\..\FreeflyAPI/QX_Parsing_Functions.c **** 	Unless required by applicable law or agreed to in writing, software
  11:..\..\FreeflyAPI/QX_Parsing_Functions.c **** 	distributed under the License is distributed on an "AS IS" BASIS,
  12:..\..\FreeflyAPI/QX_Parsing_Functions.c **** 	WITHOUT WARRANTIES OR CONDITIONS OF ANY KIND, either express or implied.
  13:..\..\FreeflyAPI/QX_Parsing_Functions.c **** 	See the License for the specific language governing permissions and
  14:..\..\FreeflyAPI/QX_Parsing_Functions.c **** 	limitations under the License.
  15:..\..\FreeflyAPI/QX_Parsing_Functions.c **** 		
  16:..\..\FreeflyAPI/QX_Parsing_Functions.c ****     Filename: "QX_Parsing_Functions.c"
  17:..\..\FreeflyAPI/QX_Parsing_Functions.c **** -----------------------------------------------------------------*/
  18:..\..\FreeflyAPI/QX_Parsing_Functions.c **** 
  19:..\..\FreeflyAPI/QX_Parsing_Functions.c **** //****************************************************************************
  20:..\..\FreeflyAPI/QX_Parsing_Functions.c **** // Headers
  21:..\..\FreeflyAPI/QX_Parsing_Functions.c **** //****************************************************************************
  22:..\..\FreeflyAPI/QX_Parsing_Functions.c **** #include "QX_Parsing_Functions.h"
  23:..\..\FreeflyAPI/QX_Parsing_Functions.c **** #include <stdlib.h>		// for Standard Data Types
  24:..\..\FreeflyAPI/QX_Parsing_Functions.c **** #include <stdint.h>		// for Standard Data Types
  25:..\..\FreeflyAPI/QX_Parsing_Functions.c **** #include <math.h>
  26:..\..\FreeflyAPI/QX_Parsing_Functions.c **** 
  27:..\..\FreeflyAPI/QX_Parsing_Functions.c **** //****************************************************************************
  28:..\..\FreeflyAPI/QX_Parsing_Functions.c **** // Private Global Vars
  29:..\..\FreeflyAPI/QX_Parsing_Functions.c **** //****************************************************************************
  30:..\..\FreeflyAPI/QX_Parsing_Functions.c **** volatile uint8_t *msgPtr;
ARM GAS  C:\Users\hamis\AppData\Local\Temp\cc1fRzXM.s 			page 2


  31:..\..\FreeflyAPI/QX_Parsing_Functions.c **** QB_Parser_Dir_e rw;
  32:..\..\FreeflyAPI/QX_Parsing_Functions.c **** QB_Parser_Dir_e rw_orig;
  33:..\..\FreeflyAPI/QX_Parsing_Functions.c **** 
  34:..\..\FreeflyAPI/QX_Parsing_Functions.c **** uint16_t get_uint16_t;
  35:..\..\FreeflyAPI/QX_Parsing_Functions.c **** 
  36:..\..\FreeflyAPI/QX_Parsing_Functions.c **** //****************************************************************************
  37:..\..\FreeflyAPI/QX_Parsing_Functions.c **** // Private Defines
  38:..\..\FreeflyAPI/QX_Parsing_Functions.c **** //****************************************************************************
  39:..\..\FreeflyAPI/QX_Parsing_Functions.c **** 
  40:..\..\FreeflyAPI/QX_Parsing_Functions.c **** // Bit Masks
  41:..\..\FreeflyAPI/QX_Parsing_Functions.c **** #define BITFIELD_MASK_1                    0x01
  42:..\..\FreeflyAPI/QX_Parsing_Functions.c **** #define BITFIELD_MASK_2                    0x03
  43:..\..\FreeflyAPI/QX_Parsing_Functions.c **** #define BITFIELD_MASK_3                    0x07
  44:..\..\FreeflyAPI/QX_Parsing_Functions.c **** #define BITFIELD_MASK_4                    0x0F
  45:..\..\FreeflyAPI/QX_Parsing_Functions.c **** #define BITFIELD_MASK_5                    0x1F
  46:..\..\FreeflyAPI/QX_Parsing_Functions.c **** #define BITFIELD_MASK_6                    0x3F
  47:..\..\FreeflyAPI/QX_Parsing_Functions.c **** #define BITFIELD_MASK_7                    0x7F
  48:..\..\FreeflyAPI/QX_Parsing_Functions.c **** #define BITFIELD_MASK_8                    0xFF
  49:..\..\FreeflyAPI/QX_Parsing_Functions.c **** 
  50:..\..\FreeflyAPI/QX_Parsing_Functions.c **** // Parser Macros
  51:..\..\FreeflyAPI/QX_Parsing_Functions.c **** #define ADDSL(v) { *msgPtr++ = (uint8_t)(v >> 24); *msgPtr++ = (uint8_t)(v >> 16); *msgPtr++ = (uin
  52:..\..\FreeflyAPI/QX_Parsing_Functions.c **** #define ADDSS(v) { *msgPtr++ = (uint8_t)(v >> 8); *msgPtr++ = (uint8_t)(v); }
  53:..\..\FreeflyAPI/QX_Parsing_Functions.c **** #define ADDUS(v) { *msgPtr++ = (uint8_t)(v >> 8); *msgPtr++ = (uint8_t)(v); }
  54:..\..\FreeflyAPI/QX_Parsing_Functions.c **** #define ADDCHAR(v) { *msgPtr++ = (uint8_t)(v); }
  55:..\..\FreeflyAPI/QX_Parsing_Functions.c **** 
  56:..\..\FreeflyAPI/QX_Parsing_Functions.c **** #define GETUC ((uint8_t)*msgPtr++)
  57:..\..\FreeflyAPI/QX_Parsing_Functions.c **** #define GETSC ((int8_t)*msgPtr++)
  58:..\..\FreeflyAPI/QX_Parsing_Functions.c **** #define GETSS ((int16_t)((*msgPtr) << 8) | (int16_t)((*(msgPtr + 1)))); msgPtr += 2;
  59:..\..\FreeflyAPI/QX_Parsing_Functions.c **** #define GETUS ((uint16_t)((*msgPtr) << 8) | (uint16_t)((*(msgPtr + 1)))); msgPtr += 2;
  60:..\..\FreeflyAPI/QX_Parsing_Functions.c **** #define GETSL ((int32_t)((*msgPtr) << 24) | (int32_t)((*(msgPtr + 1)) << 16) | (int32_t)((*(msgPtr 
  61:..\..\FreeflyAPI/QX_Parsing_Functions.c **** 
  62:..\..\FreeflyAPI/QX_Parsing_Functions.c **** 
  63:..\..\FreeflyAPI/QX_Parsing_Functions.c **** //****************************************************************************
  64:..\..\FreeflyAPI/QX_Parsing_Functions.c **** // Public Function Definitions
  65:..\..\FreeflyAPI/QX_Parsing_Functions.c **** //****************************************************************************
  66:..\..\FreeflyAPI/QX_Parsing_Functions.c **** 
  67:..\..\FreeflyAPI/QX_Parsing_Functions.c **** // Set the Parser Message Pointer. 
  68:..\..\FreeflyAPI/QX_Parsing_Functions.c **** // This function is used prior to the first parsing function calls, then the parsing functions incr
  69:..\..\FreeflyAPI/QX_Parsing_Functions.c **** void QX_Parser_SetMsgPtr(uint8_t *p){
  28              		.loc 1 69 0
  29              		.cfi_startproc
  30              		@ args = 0, pretend = 0, frame = 0
  31              		@ frame_needed = 0, uses_anonymous_args = 0
  32              		@ link register save eliminated.
  33              	.LVL0:
  70:..\..\FreeflyAPI/QX_Parsing_Functions.c **** 	msgPtr = p;
  34              		.loc 1 70 0
  35 0000 014B     		ldr	r3, .L2
  36 0002 1860     		str	r0, [r3]
  37 0004 7047     		bx	lr
  38              	.L3:
  39 0006 00BF     		.align	2
  40              	.L2:
  41 0008 00000000 		.word	msgPtr
  42              		.cfi_endproc
  43              	.LFE0:
  44              		.size	QX_Parser_SetMsgPtr, .-QX_Parser_SetMsgPtr
ARM GAS  C:\Users\hamis\AppData\Local\Temp\cc1fRzXM.s 			page 3


  45              		.section	.text.QX_Parser_AdvMsgPtr,"ax",%progbits
  46              		.align	2
  47              		.global	QX_Parser_AdvMsgPtr
  48              		.thumb
  49              		.thumb_func
  50              		.type	QX_Parser_AdvMsgPtr, %function
  51              	QX_Parser_AdvMsgPtr:
  52              	.LFB1:
  71:..\..\FreeflyAPI/QX_Parsing_Functions.c **** }
  72:..\..\FreeflyAPI/QX_Parsing_Functions.c **** 
  73:..\..\FreeflyAPI/QX_Parsing_Functions.c **** // Move the pointer by one byte (useful for bitfield parser functions that do not advance the point
  74:..\..\FreeflyAPI/QX_Parsing_Functions.c **** void QX_Parser_AdvMsgPtr(void){
  53              		.loc 1 74 0
  54              		.cfi_startproc
  55              		@ args = 0, pretend = 0, frame = 0
  56              		@ frame_needed = 0, uses_anonymous_args = 0
  57              		@ link register save eliminated.
  75:..\..\FreeflyAPI/QX_Parsing_Functions.c **** 	msgPtr++;
  58              		.loc 1 75 0
  59 0000 024A     		ldr	r2, .L5
  60 0002 1368     		ldr	r3, [r2]
  61 0004 0133     		adds	r3, r3, #1
  62 0006 1360     		str	r3, [r2]
  63 0008 7047     		bx	lr
  64              	.L6:
  65 000a 00BF     		.align	2
  66              	.L5:
  67 000c 00000000 		.word	msgPtr
  68              		.cfi_endproc
  69              	.LFE1:
  70              		.size	QX_Parser_AdvMsgPtr, .-QX_Parser_AdvMsgPtr
  71              		.section	.text.QX_Parser_GetMsgPtr,"ax",%progbits
  72              		.align	2
  73              		.global	QX_Parser_GetMsgPtr
  74              		.thumb
  75              		.thumb_func
  76              		.type	QX_Parser_GetMsgPtr, %function
  77              	QX_Parser_GetMsgPtr:
  78              	.LFB2:
  76:..\..\FreeflyAPI/QX_Parsing_Functions.c **** }
  77:..\..\FreeflyAPI/QX_Parsing_Functions.c **** 
  78:..\..\FreeflyAPI/QX_Parsing_Functions.c **** // Gets the Parser Pointer
  79:..\..\FreeflyAPI/QX_Parsing_Functions.c **** volatile uint8_t *QX_Parser_GetMsgPtr(void){
  79              		.loc 1 79 0
  80              		.cfi_startproc
  81              		@ args = 0, pretend = 0, frame = 0
  82              		@ frame_needed = 0, uses_anonymous_args = 0
  83              		@ link register save eliminated.
  80:..\..\FreeflyAPI/QX_Parsing_Functions.c **** 	return msgPtr;
  81:..\..\FreeflyAPI/QX_Parsing_Functions.c **** }
  84              		.loc 1 81 0
  85 0000 014B     		ldr	r3, .L8
  86 0002 1868     		ldr	r0, [r3]
  87 0004 7047     		bx	lr
  88              	.L9:
  89 0006 00BF     		.align	2
  90              	.L8:
ARM GAS  C:\Users\hamis\AppData\Local\Temp\cc1fRzXM.s 			page 4


  91 0008 00000000 		.word	msgPtr
  92              		.cfi_endproc
  93              	.LFE2:
  94              		.size	QX_Parser_GetMsgPtr, .-QX_Parser_GetMsgPtr
  95              		.section	.text.QX_Parser_SetDir_Read,"ax",%progbits
  96              		.align	2
  97              		.global	QX_Parser_SetDir_Read
  98              		.thumb
  99              		.thumb_func
 100              		.type	QX_Parser_SetDir_Read, %function
 101              	QX_Parser_SetDir_Read:
 102              	.LFB3:
  82:..\..\FreeflyAPI/QX_Parsing_Functions.c **** 
  83:..\..\FreeflyAPI/QX_Parsing_Functions.c **** // Sets the Parser to Read
  84:..\..\FreeflyAPI/QX_Parsing_Functions.c **** void QX_Parser_SetDir_Read(void){
 103              		.loc 1 84 0
 104              		.cfi_startproc
 105              		@ args = 0, pretend = 0, frame = 0
 106              		@ frame_needed = 0, uses_anonymous_args = 0
 107              		@ link register save eliminated.
  85:..\..\FreeflyAPI/QX_Parsing_Functions.c **** 	rw = QB_Parser_Dir_Read;
 108              		.loc 1 85 0
 109 0000 0022     		movs	r2, #0
 110 0002 014B     		ldr	r3, .L11
 111 0004 1A70     		strb	r2, [r3]
 112 0006 7047     		bx	lr
 113              	.L12:
 114              		.align	2
 115              	.L11:
 116 0008 00000000 		.word	rw
 117              		.cfi_endproc
 118              	.LFE3:
 119              		.size	QX_Parser_SetDir_Read, .-QX_Parser_SetDir_Read
 120              		.section	.text.QX_Parser_SetDir_WriteRel,"ax",%progbits
 121              		.align	2
 122              		.global	QX_Parser_SetDir_WriteRel
 123              		.thumb
 124              		.thumb_func
 125              		.type	QX_Parser_SetDir_WriteRel, %function
 126              	QX_Parser_SetDir_WriteRel:
 127              	.LFB4:
  86:..\..\FreeflyAPI/QX_Parsing_Functions.c **** }
  87:..\..\FreeflyAPI/QX_Parsing_Functions.c **** 
  88:..\..\FreeflyAPI/QX_Parsing_Functions.c **** // Sets the Parser to Delta Write
  89:..\..\FreeflyAPI/QX_Parsing_Functions.c **** void QX_Parser_SetDir_WriteRel(void){
 128              		.loc 1 89 0
 129              		.cfi_startproc
 130              		@ args = 0, pretend = 0, frame = 0
 131              		@ frame_needed = 0, uses_anonymous_args = 0
 132              		@ link register save eliminated.
  90:..\..\FreeflyAPI/QX_Parsing_Functions.c **** 	rw = QB_Parser_Dir_WriteDel;
 133              		.loc 1 90 0
 134 0000 0122     		movs	r2, #1
 135 0002 014B     		ldr	r3, .L14
 136 0004 1A70     		strb	r2, [r3]
 137 0006 7047     		bx	lr
 138              	.L15:
ARM GAS  C:\Users\hamis\AppData\Local\Temp\cc1fRzXM.s 			page 5


 139              		.align	2
 140              	.L14:
 141 0008 00000000 		.word	rw
 142              		.cfi_endproc
 143              	.LFE4:
 144              		.size	QX_Parser_SetDir_WriteRel, .-QX_Parser_SetDir_WriteRel
 145              		.section	.text.QX_Parser_SetDir_WriteAbs,"ax",%progbits
 146              		.align	2
 147              		.global	QX_Parser_SetDir_WriteAbs
 148              		.thumb
 149              		.thumb_func
 150              		.type	QX_Parser_SetDir_WriteAbs, %function
 151              	QX_Parser_SetDir_WriteAbs:
 152              	.LFB5:
  91:..\..\FreeflyAPI/QX_Parsing_Functions.c **** }
  92:..\..\FreeflyAPI/QX_Parsing_Functions.c **** 
  93:..\..\FreeflyAPI/QX_Parsing_Functions.c **** // Sets the Parser to Absolute Write
  94:..\..\FreeflyAPI/QX_Parsing_Functions.c **** void QX_Parser_SetDir_WriteAbs(void){
 153              		.loc 1 94 0
 154              		.cfi_startproc
 155              		@ args = 0, pretend = 0, frame = 0
 156              		@ frame_needed = 0, uses_anonymous_args = 0
 157              		@ link register save eliminated.
  95:..\..\FreeflyAPI/QX_Parsing_Functions.c **** 	rw = QB_Parser_Dir_WriteAbs;
 158              		.loc 1 95 0
 159 0000 0222     		movs	r2, #2
 160 0002 014B     		ldr	r3, .L17
 161 0004 1A70     		strb	r2, [r3]
 162 0006 7047     		bx	lr
 163              	.L18:
 164              		.align	2
 165              	.L17:
 166 0008 00000000 		.word	rw
 167              		.cfi_endproc
 168              	.LFE5:
 169              		.size	QX_Parser_SetDir_WriteAbs, .-QX_Parser_SetDir_WriteAbs
 170              		.section	.text.QX_Parser_GetDir,"ax",%progbits
 171              		.align	2
 172              		.global	QX_Parser_GetDir
 173              		.thumb
 174              		.thumb_func
 175              		.type	QX_Parser_GetDir, %function
 176              	QX_Parser_GetDir:
 177              	.LFB6:
  96:..\..\FreeflyAPI/QX_Parsing_Functions.c **** }
  97:..\..\FreeflyAPI/QX_Parsing_Functions.c **** 
  98:..\..\FreeflyAPI/QX_Parsing_Functions.c **** // Get the parsing type
  99:..\..\FreeflyAPI/QX_Parsing_Functions.c **** QB_Parser_Dir_e QX_Parser_GetDir(void){
 178              		.loc 1 99 0
 179              		.cfi_startproc
 180              		@ args = 0, pretend = 0, frame = 0
 181              		@ frame_needed = 0, uses_anonymous_args = 0
 182              		@ link register save eliminated.
 100:..\..\FreeflyAPI/QX_Parsing_Functions.c **** 	return rw;
 101:..\..\FreeflyAPI/QX_Parsing_Functions.c **** }
 183              		.loc 1 101 0
 184 0000 014B     		ldr	r3, .L20
ARM GAS  C:\Users\hamis\AppData\Local\Temp\cc1fRzXM.s 			page 6


 185 0002 1878     		ldrb	r0, [r3]	@ zero_extendqisi2
 186 0004 7047     		bx	lr
 187              	.L21:
 188 0006 00BF     		.align	2
 189              	.L20:
 190 0008 00000000 		.word	rw
 191              		.cfi_endproc
 192              	.LFE6:
 193              		.size	QX_Parser_GetDir, .-QX_Parser_GetDir
 194              		.section	.text.QX_Parser_Dir_ForceWriteAbs_Set,"ax",%progbits
 195              		.align	2
 196              		.global	QX_Parser_Dir_ForceWriteAbs_Set
 197              		.thumb
 198              		.thumb_func
 199              		.type	QX_Parser_Dir_ForceWriteAbs_Set, %function
 200              	QX_Parser_Dir_ForceWriteAbs_Set:
 201              	.LFB7:
 102:..\..\FreeflyAPI/QX_Parsing_Functions.c **** 
 103:..\..\FreeflyAPI/QX_Parsing_Functions.c **** // If write, temporarily force the parsing to be absolute, for attributes that have some absolute o
 104:..\..\FreeflyAPI/QX_Parsing_Functions.c **** void QX_Parser_Dir_ForceWriteAbs_Set(void){
 202              		.loc 1 104 0
 203              		.cfi_startproc
 204              		@ args = 0, pretend = 0, frame = 0
 205              		@ frame_needed = 0, uses_anonymous_args = 0
 206              		@ link register save eliminated.
 105:..\..\FreeflyAPI/QX_Parsing_Functions.c **** 	rw_orig = rw;
 207              		.loc 1 105 0
 208 0000 044B     		ldr	r3, .L24
 209 0002 1B78     		ldrb	r3, [r3]	@ zero_extendqisi2
 210 0004 044A     		ldr	r2, .L24+4
 211 0006 1370     		strb	r3, [r2]
 106:..\..\FreeflyAPI/QX_Parsing_Functions.c **** 	if (rw == QB_Parser_Dir_WriteDel){
 212              		.loc 1 106 0
 213 0008 012B     		cmp	r3, #1
 214 000a 02D1     		bne	.L22
 107:..\..\FreeflyAPI/QX_Parsing_Functions.c **** 		rw = QB_Parser_Dir_WriteAbs;
 215              		.loc 1 107 0
 216 000c 0222     		movs	r2, #2
 217 000e 014B     		ldr	r3, .L24
 218 0010 1A70     		strb	r2, [r3]
 219              	.L22:
 220 0012 7047     		bx	lr
 221              	.L25:
 222              		.align	2
 223              	.L24:
 224 0014 00000000 		.word	rw
 225 0018 00000000 		.word	rw_orig
 226              		.cfi_endproc
 227              	.LFE7:
 228              		.size	QX_Parser_Dir_ForceWriteAbs_Set, .-QX_Parser_Dir_ForceWriteAbs_Set
 229              		.section	.text.QX_Parser_Dir_ForceWriteAbs_Reset,"ax",%progbits
 230              		.align	2
 231              		.global	QX_Parser_Dir_ForceWriteAbs_Reset
 232              		.thumb
 233              		.thumb_func
 234              		.type	QX_Parser_Dir_ForceWriteAbs_Reset, %function
 235              	QX_Parser_Dir_ForceWriteAbs_Reset:
ARM GAS  C:\Users\hamis\AppData\Local\Temp\cc1fRzXM.s 			page 7


 236              	.LFB8:
 108:..\..\FreeflyAPI/QX_Parsing_Functions.c **** 	}
 109:..\..\FreeflyAPI/QX_Parsing_Functions.c **** }
 110:..\..\FreeflyAPI/QX_Parsing_Functions.c **** 
 111:..\..\FreeflyAPI/QX_Parsing_Functions.c **** // Reset temporary absolute parser forcing
 112:..\..\FreeflyAPI/QX_Parsing_Functions.c **** void QX_Parser_Dir_ForceWriteAbs_Reset(void){
 237              		.loc 1 112 0
 238              		.cfi_startproc
 239              		@ args = 0, pretend = 0, frame = 0
 240              		@ frame_needed = 0, uses_anonymous_args = 0
 241              		@ link register save eliminated.
 113:..\..\FreeflyAPI/QX_Parsing_Functions.c **** 	rw = rw_orig;
 242              		.loc 1 113 0
 243 0000 024B     		ldr	r3, .L27
 244 0002 1A78     		ldrb	r2, [r3]	@ zero_extendqisi2
 245 0004 024B     		ldr	r3, .L27+4
 246 0006 1A70     		strb	r2, [r3]
 247 0008 7047     		bx	lr
 248              	.L28:
 249 000a 00BF     		.align	2
 250              	.L27:
 251 000c 00000000 		.word	rw_orig
 252 0010 00000000 		.word	rw
 253              		.cfi_endproc
 254              	.LFE8:
 255              		.size	QX_Parser_Dir_ForceWriteAbs_Reset, .-QX_Parser_Dir_ForceWriteAbs_Reset
 256              		.global	__aeabi_fmul
 257              		.global	__aeabi_fcmpgt
 258              		.global	__aeabi_fcmplt
 259              		.global	__aeabi_i2f
 260              		.global	__aeabi_fadd
 261              		.global	__aeabi_f2iz
 262              		.section	.text.AddFloatAsSignedLong,"ax",%progbits
 263              		.align	2
 264              		.global	AddFloatAsSignedLong
 265              		.thumb
 266              		.thumb_func
 267              		.type	AddFloatAsSignedLong, %function
 268              	AddFloatAsSignedLong:
 269              	.LFB9:
 114:..\..\FreeflyAPI/QX_Parsing_Functions.c **** }
 115:..\..\FreeflyAPI/QX_Parsing_Functions.c **** 
 116:..\..\FreeflyAPI/QX_Parsing_Functions.c **** //****************************************************************************
 117:..\..\FreeflyAPI/QX_Parsing_Functions.c **** // Private Function Definitions
 118:..\..\FreeflyAPI/QX_Parsing_Functions.c **** //****************************************************************************
 119:..\..\FreeflyAPI/QX_Parsing_Functions.c **** 
 120:..\..\FreeflyAPI/QX_Parsing_Functions.c **** void AddFloatAsSignedLong(float *v, uint32_t n, float scaleto)
 121:..\..\FreeflyAPI/QX_Parsing_Functions.c **** {
 270              		.loc 1 121 0
 271              		.cfi_startproc
 272              		@ args = 0, pretend = 0, frame = 0
 273              		@ frame_needed = 0, uses_anonymous_args = 0
 274              	.LVL1:
 275 0000 2DE9F047 		push	{r4, r5, r6, r7, r8, r9, r10, lr}
 276              		.cfi_def_cfa_offset 32
 277              		.cfi_offset 4, -32
 278              		.cfi_offset 5, -28
ARM GAS  C:\Users\hamis\AppData\Local\Temp\cc1fRzXM.s 			page 8


 279              		.cfi_offset 6, -24
 280              		.cfi_offset 7, -20
 281              		.cfi_offset 8, -16
 282              		.cfi_offset 9, -12
 283              		.cfi_offset 10, -8
 284              		.cfi_offset 14, -4
 285 0004 0546     		mov	r5, r0
 286 0006 1746     		mov	r7, r2
 122:..\..\FreeflyAPI/QX_Parsing_Functions.c ****     while(n--)
 287              		.loc 1 122 0
 288 0008 3DE0     		b	.L30
 289              	.LVL2:
 290              	.L33:
 291              	.LBB2:
 123:..\..\FreeflyAPI/QX_Parsing_Functions.c ****     {
 124:..\..\FreeflyAPI/QX_Parsing_Functions.c ****         int32_t value = (int32_t)(((*v) * scaleto) + 0.5f * ((0 < *v) - (*v < 0)));
 292              		.loc 1 124 0
 293 000a D5F80080 		ldr	r8, [r5]	@ float
 294 000e 3946     		mov	r1, r7
 295 0010 4046     		mov	r0, r8
 296 0012 FFF7FEFF 		bl	__aeabi_fmul
 297              	.LVL3:
 298 0016 8246     		mov	r10, r0
 299 0018 0124     		movs	r4, #1
 300 001a 0021     		movs	r1, #0
 301 001c 4046     		mov	r0, r8
 302 001e FFF7FEFF 		bl	__aeabi_fcmpgt
 303              	.LVL4:
 304 0022 00B9     		cbnz	r0, .L31
 305 0024 0024     		movs	r4, #0
 306              	.L31:
 307 0026 4FF00109 		mov	r9, #1
 308 002a 0021     		movs	r1, #0
 309 002c 4046     		mov	r0, r8
 310 002e FFF7FEFF 		bl	__aeabi_fcmplt
 311              	.LVL5:
 312 0032 08B9     		cbnz	r0, .L32
 313 0034 4FF00009 		mov	r9, #0
 314              	.L32:
 315 0038 C9EB0400 		rsb	r0, r9, r4
 316 003c FFF7FEFF 		bl	__aeabi_i2f
 317              	.LVL6:
 318 0040 4FF07C51 		mov	r1, #1056964608
 319 0044 FFF7FEFF 		bl	__aeabi_fmul
 320              	.LVL7:
 321 0048 0146     		mov	r1, r0
 322 004a 5046     		mov	r0, r10
 323 004c FFF7FEFF 		bl	__aeabi_fadd
 324              	.LVL8:
 325 0050 FFF7FEFF 		bl	__aeabi_f2iz
 326              	.LVL9:
 125:..\..\FreeflyAPI/QX_Parsing_Functions.c ****         ADDSL(value);
 327              		.loc 1 125 0
 328 0054 0E4B     		ldr	r3, .L35
 329 0056 1A68     		ldr	r2, [r3]
 330 0058 511C     		adds	r1, r2, #1
 331 005a 1960     		str	r1, [r3]
ARM GAS  C:\Users\hamis\AppData\Local\Temp\cc1fRzXM.s 			page 9


 332 005c 010E     		lsrs	r1, r0, #24
 333 005e 1170     		strb	r1, [r2]
 334 0060 1A68     		ldr	r2, [r3]
 335 0062 511C     		adds	r1, r2, #1
 336 0064 1960     		str	r1, [r3]
 337 0066 C0F30741 		ubfx	r1, r0, #16, #8
 338 006a 1170     		strb	r1, [r2]
 339 006c 1A68     		ldr	r2, [r3]
 340 006e 511C     		adds	r1, r2, #1
 341 0070 1960     		str	r1, [r3]
 342 0072 C0F30721 		ubfx	r1, r0, #8, #8
 343 0076 1170     		strb	r1, [r2]
 344 0078 1A68     		ldr	r2, [r3]
 345 007a 511C     		adds	r1, r2, #1
 346 007c 1960     		str	r1, [r3]
 347 007e C0B2     		uxtb	r0, r0
 348              	.LVL10:
 349 0080 1070     		strb	r0, [r2]
 126:..\..\FreeflyAPI/QX_Parsing_Functions.c ****         v++;
 350              		.loc 1 126 0
 351 0082 0435     		adds	r5, r5, #4
 352              	.LVL11:
 353              	.LBE2:
 122:..\..\FreeflyAPI/QX_Parsing_Functions.c ****     {
 354              		.loc 1 122 0
 355 0084 3146     		mov	r1, r6
 356              	.LVL12:
 357              	.L30:
 358 0086 4E1E     		subs	r6, r1, #1
 359              	.LVL13:
 360 0088 0029     		cmp	r1, #0
 361 008a BED1     		bne	.L33
 127:..\..\FreeflyAPI/QX_Parsing_Functions.c ****     }
 128:..\..\FreeflyAPI/QX_Parsing_Functions.c **** }
 362              		.loc 1 128 0
 363 008c BDE8F087 		pop	{r4, r5, r6, r7, r8, r9, r10, pc}
 364              	.LVL14:
 365              	.L36:
 366              		.align	2
 367              	.L35:
 368 0090 00000000 		.word	msgPtr
 369              		.cfi_endproc
 370              	.LFE9:
 371              		.size	AddFloatAsSignedLong, .-AddFloatAsSignedLong
 372              		.section	.text.AddFloatAsSignedShort,"ax",%progbits
 373              		.align	2
 374              		.global	AddFloatAsSignedShort
 375              		.thumb
 376              		.thumb_func
 377              		.type	AddFloatAsSignedShort, %function
 378              	AddFloatAsSignedShort:
 379              	.LFB10:
 129:..\..\FreeflyAPI/QX_Parsing_Functions.c **** 
 130:..\..\FreeflyAPI/QX_Parsing_Functions.c **** void AddFloatAsSignedShort(float *v, uint32_t n, float scaleto)
 131:..\..\FreeflyAPI/QX_Parsing_Functions.c **** {
 380              		.loc 1 131 0
 381              		.cfi_startproc
ARM GAS  C:\Users\hamis\AppData\Local\Temp\cc1fRzXM.s 			page 10


 382              		@ args = 0, pretend = 0, frame = 0
 383              		@ frame_needed = 0, uses_anonymous_args = 0
 384              	.LVL15:
 385 0000 2DE9F047 		push	{r4, r5, r6, r7, r8, r9, r10, lr}
 386              		.cfi_def_cfa_offset 32
 387              		.cfi_offset 4, -32
 388              		.cfi_offset 5, -28
 389              		.cfi_offset 6, -24
 390              		.cfi_offset 7, -20
 391              		.cfi_offset 8, -16
 392              		.cfi_offset 9, -12
 393              		.cfi_offset 10, -8
 394              		.cfi_offset 14, -4
 395 0004 0546     		mov	r5, r0
 396 0006 1746     		mov	r7, r2
 132:..\..\FreeflyAPI/QX_Parsing_Functions.c ****     while(n--)
 397              		.loc 1 132 0
 398 0008 33E0     		b	.L38
 399              	.LVL16:
 400              	.L41:
 401              	.LBB3:
 133:..\..\FreeflyAPI/QX_Parsing_Functions.c ****     {
 134:..\..\FreeflyAPI/QX_Parsing_Functions.c ****         int16_t value = (int16_t)(((*v) * scaleto) + 0.5f * ((0 < *v) - (*v < 0)));
 402              		.loc 1 134 0
 403 000a D5F80080 		ldr	r8, [r5]	@ float
 404 000e 3946     		mov	r1, r7
 405 0010 4046     		mov	r0, r8
 406 0012 FFF7FEFF 		bl	__aeabi_fmul
 407              	.LVL17:
 408 0016 8246     		mov	r10, r0
 409 0018 0124     		movs	r4, #1
 410 001a 0021     		movs	r1, #0
 411 001c 4046     		mov	r0, r8
 412 001e FFF7FEFF 		bl	__aeabi_fcmpgt
 413              	.LVL18:
 414 0022 00B9     		cbnz	r0, .L39
 415 0024 0024     		movs	r4, #0
 416              	.L39:
 417 0026 4FF00109 		mov	r9, #1
 418 002a 0021     		movs	r1, #0
 419 002c 4046     		mov	r0, r8
 420 002e FFF7FEFF 		bl	__aeabi_fcmplt
 421              	.LVL19:
 422 0032 08B9     		cbnz	r0, .L40
 423 0034 4FF00009 		mov	r9, #0
 424              	.L40:
 425 0038 C9EB0400 		rsb	r0, r9, r4
 426 003c FFF7FEFF 		bl	__aeabi_i2f
 427              	.LVL20:
 428 0040 4FF07C51 		mov	r1, #1056964608
 429 0044 FFF7FEFF 		bl	__aeabi_fmul
 430              	.LVL21:
 431 0048 0146     		mov	r1, r0
 432 004a 5046     		mov	r0, r10
 433 004c FFF7FEFF 		bl	__aeabi_fadd
 434              	.LVL22:
 435 0050 FFF7FEFF 		bl	__aeabi_f2iz
ARM GAS  C:\Users\hamis\AppData\Local\Temp\cc1fRzXM.s 			page 11


 436              	.LVL23:
 437 0054 00B2     		sxth	r0, r0
 438              	.LVL24:
 135:..\..\FreeflyAPI/QX_Parsing_Functions.c ****         ADDSS(value);
 439              		.loc 1 135 0
 440 0056 094B     		ldr	r3, .L43
 441 0058 1A68     		ldr	r2, [r3]
 442 005a 511C     		adds	r1, r2, #1
 443 005c 1960     		str	r1, [r3]
 444 005e C0F30721 		ubfx	r1, r0, #8, #8
 445 0062 1170     		strb	r1, [r2]
 446 0064 1A68     		ldr	r2, [r3]
 447 0066 511C     		adds	r1, r2, #1
 448 0068 1960     		str	r1, [r3]
 449 006a C0B2     		uxtb	r0, r0
 450              	.LVL25:
 451 006c 1070     		strb	r0, [r2]
 136:..\..\FreeflyAPI/QX_Parsing_Functions.c ****         v++;
 452              		.loc 1 136 0
 453 006e 0435     		adds	r5, r5, #4
 454              	.LVL26:
 455              	.LBE3:
 132:..\..\FreeflyAPI/QX_Parsing_Functions.c ****     {
 456              		.loc 1 132 0
 457 0070 3146     		mov	r1, r6
 458              	.LVL27:
 459              	.L38:
 460 0072 4E1E     		subs	r6, r1, #1
 461              	.LVL28:
 462 0074 0029     		cmp	r1, #0
 463 0076 C8D1     		bne	.L41
 137:..\..\FreeflyAPI/QX_Parsing_Functions.c ****     }
 138:..\..\FreeflyAPI/QX_Parsing_Functions.c **** }
 464              		.loc 1 138 0
 465 0078 BDE8F087 		pop	{r4, r5, r6, r7, r8, r9, r10, pc}
 466              	.LVL29:
 467              	.L44:
 468              		.align	2
 469              	.L43:
 470 007c 00000000 		.word	msgPtr
 471              		.cfi_endproc
 472              	.LFE10:
 473              		.size	AddFloatAsSignedShort, .-AddFloatAsSignedShort
 474              		.section	.text.AddFloatAsSignedChar,"ax",%progbits
 475              		.align	2
 476              		.global	AddFloatAsSignedChar
 477              		.thumb
 478              		.thumb_func
 479              		.type	AddFloatAsSignedChar, %function
 480              	AddFloatAsSignedChar:
 481              	.LFB11:
 139:..\..\FreeflyAPI/QX_Parsing_Functions.c **** 
 140:..\..\FreeflyAPI/QX_Parsing_Functions.c **** void AddFloatAsSignedChar(float *v, uint32_t n, float scaleto)
 141:..\..\FreeflyAPI/QX_Parsing_Functions.c **** {
 482              		.loc 1 141 0
 483              		.cfi_startproc
 484              		@ args = 0, pretend = 0, frame = 0
ARM GAS  C:\Users\hamis\AppData\Local\Temp\cc1fRzXM.s 			page 12


 485              		@ frame_needed = 0, uses_anonymous_args = 0
 486              	.LVL30:
 487 0000 2DE9F047 		push	{r4, r5, r6, r7, r8, r9, r10, lr}
 488              		.cfi_def_cfa_offset 32
 489              		.cfi_offset 4, -32
 490              		.cfi_offset 5, -28
 491              		.cfi_offset 6, -24
 492              		.cfi_offset 7, -20
 493              		.cfi_offset 8, -16
 494              		.cfi_offset 9, -12
 495              		.cfi_offset 10, -8
 496              		.cfi_offset 14, -4
 497 0004 0646     		mov	r6, r0
 498 0006 9046     		mov	r8, r2
 142:..\..\FreeflyAPI/QX_Parsing_Functions.c ****     while(n--)
 499              		.loc 1 142 0
 500 0008 2BE0     		b	.L46
 501              	.LVL31:
 502              	.L49:
 503              	.LBB4:
 143:..\..\FreeflyAPI/QX_Parsing_Functions.c ****     {
 144:..\..\FreeflyAPI/QX_Parsing_Functions.c ****         int8_t value = (int8_t)(((*v) * scaleto) + 0.5f * ((0 < *v) - (*v < 0)));
 504              		.loc 1 144 0
 505 000a 3568     		ldr	r5, [r6]	@ float
 506 000c 4146     		mov	r1, r8
 507 000e 2846     		mov	r0, r5
 508 0010 FFF7FEFF 		bl	__aeabi_fmul
 509              	.LVL32:
 510 0014 8246     		mov	r10, r0
 511 0016 0124     		movs	r4, #1
 512 0018 0021     		movs	r1, #0
 513 001a 2846     		mov	r0, r5
 514 001c FFF7FEFF 		bl	__aeabi_fcmpgt
 515              	.LVL33:
 516 0020 00B9     		cbnz	r0, .L47
 517 0022 0024     		movs	r4, #0
 518              	.L47:
 519 0024 4FF00109 		mov	r9, #1
 520 0028 0021     		movs	r1, #0
 521 002a 2846     		mov	r0, r5
 522 002c FFF7FEFF 		bl	__aeabi_fcmplt
 523              	.LVL34:
 524 0030 08B9     		cbnz	r0, .L48
 525 0032 4FF00009 		mov	r9, #0
 526              	.L48:
 527 0036 C9EB0400 		rsb	r0, r9, r4
 528 003a FFF7FEFF 		bl	__aeabi_i2f
 529              	.LVL35:
 530 003e 4FF07C51 		mov	r1, #1056964608
 531 0042 FFF7FEFF 		bl	__aeabi_fmul
 532              	.LVL36:
 533 0046 0146     		mov	r1, r0
 534 0048 5046     		mov	r0, r10
 535 004a FFF7FEFF 		bl	__aeabi_fadd
 536              	.LVL37:
 537 004e FFF7FEFF 		bl	__aeabi_f2iz
 538              	.LVL38:
ARM GAS  C:\Users\hamis\AppData\Local\Temp\cc1fRzXM.s 			page 13


 145:..\..\FreeflyAPI/QX_Parsing_Functions.c ****         ADDCHAR(value);
 539              		.loc 1 145 0
 540 0052 064A     		ldr	r2, .L51
 541 0054 1368     		ldr	r3, [r2]
 542 0056 591C     		adds	r1, r3, #1
 543 0058 1160     		str	r1, [r2]
 544 005a C0B2     		uxtb	r0, r0
 545 005c 1870     		strb	r0, [r3]
 146:..\..\FreeflyAPI/QX_Parsing_Functions.c ****         v++;
 546              		.loc 1 146 0
 547 005e 0436     		adds	r6, r6, #4
 548              	.LVL39:
 549              	.LBE4:
 142:..\..\FreeflyAPI/QX_Parsing_Functions.c ****     {
 550              		.loc 1 142 0
 551 0060 3946     		mov	r1, r7
 552              	.LVL40:
 553              	.L46:
 554 0062 4F1E     		subs	r7, r1, #1
 555              	.LVL41:
 556 0064 0029     		cmp	r1, #0
 557 0066 D0D1     		bne	.L49
 147:..\..\FreeflyAPI/QX_Parsing_Functions.c ****     }
 148:..\..\FreeflyAPI/QX_Parsing_Functions.c **** }
 558              		.loc 1 148 0
 559 0068 BDE8F087 		pop	{r4, r5, r6, r7, r8, r9, r10, pc}
 560              	.LVL42:
 561              	.L52:
 562              		.align	2
 563              	.L51:
 564 006c 00000000 		.word	msgPtr
 565              		.cfi_endproc
 566              	.LFE11:
 567              		.size	AddFloatAsSignedChar, .-AddFloatAsSignedChar
 568              		.global	__aeabi_f2uiz
 569              		.section	.text.AddFloatAsUnsignedChar,"ax",%progbits
 570              		.align	2
 571              		.global	AddFloatAsUnsignedChar
 572              		.thumb
 573              		.thumb_func
 574              		.type	AddFloatAsUnsignedChar, %function
 575              	AddFloatAsUnsignedChar:
 576              	.LFB12:
 149:..\..\FreeflyAPI/QX_Parsing_Functions.c **** 
 150:..\..\FreeflyAPI/QX_Parsing_Functions.c **** void AddFloatAsUnsignedChar(float *v, uint32_t n, float scaleto)
 151:..\..\FreeflyAPI/QX_Parsing_Functions.c **** {
 577              		.loc 1 151 0
 578              		.cfi_startproc
 579              		@ args = 0, pretend = 0, frame = 0
 580              		@ frame_needed = 0, uses_anonymous_args = 0
 581              	.LVL43:
 582 0000 2DE9F047 		push	{r4, r5, r6, r7, r8, r9, r10, lr}
 583              		.cfi_def_cfa_offset 32
 584              		.cfi_offset 4, -32
 585              		.cfi_offset 5, -28
 586              		.cfi_offset 6, -24
 587              		.cfi_offset 7, -20
ARM GAS  C:\Users\hamis\AppData\Local\Temp\cc1fRzXM.s 			page 14


 588              		.cfi_offset 8, -16
 589              		.cfi_offset 9, -12
 590              		.cfi_offset 10, -8
 591              		.cfi_offset 14, -4
 592 0004 0646     		mov	r6, r0
 593 0006 9046     		mov	r8, r2
 152:..\..\FreeflyAPI/QX_Parsing_Functions.c ****     while(n--)
 594              		.loc 1 152 0
 595 0008 2BE0     		b	.L54
 596              	.LVL44:
 597              	.L57:
 598              	.LBB5:
 153:..\..\FreeflyAPI/QX_Parsing_Functions.c ****     {
 154:..\..\FreeflyAPI/QX_Parsing_Functions.c ****         uint8_t value = (uint8_t) (((*v) * scaleto) + 0.5f * ((0 < *v) - (*v < 0)));
 599              		.loc 1 154 0
 600 000a 3568     		ldr	r5, [r6]	@ float
 601 000c 4146     		mov	r1, r8
 602 000e 2846     		mov	r0, r5
 603 0010 FFF7FEFF 		bl	__aeabi_fmul
 604              	.LVL45:
 605 0014 8246     		mov	r10, r0
 606 0016 0124     		movs	r4, #1
 607 0018 0021     		movs	r1, #0
 608 001a 2846     		mov	r0, r5
 609 001c FFF7FEFF 		bl	__aeabi_fcmpgt
 610              	.LVL46:
 611 0020 00B9     		cbnz	r0, .L55
 612 0022 0024     		movs	r4, #0
 613              	.L55:
 614 0024 4FF00109 		mov	r9, #1
 615 0028 0021     		movs	r1, #0
 616 002a 2846     		mov	r0, r5
 617 002c FFF7FEFF 		bl	__aeabi_fcmplt
 618              	.LVL47:
 619 0030 08B9     		cbnz	r0, .L56
 620 0032 4FF00009 		mov	r9, #0
 621              	.L56:
 622 0036 C9EB0400 		rsb	r0, r9, r4
 623 003a FFF7FEFF 		bl	__aeabi_i2f
 624              	.LVL48:
 625 003e 4FF07C51 		mov	r1, #1056964608
 626 0042 FFF7FEFF 		bl	__aeabi_fmul
 627              	.LVL49:
 628 0046 0146     		mov	r1, r0
 629 0048 5046     		mov	r0, r10
 630 004a FFF7FEFF 		bl	__aeabi_fadd
 631              	.LVL50:
 632 004e FFF7FEFF 		bl	__aeabi_f2uiz
 633              	.LVL51:
 634 0052 C0B2     		uxtb	r0, r0
 635              	.LVL52:
 155:..\..\FreeflyAPI/QX_Parsing_Functions.c ****         ADDCHAR(value);
 636              		.loc 1 155 0
 637 0054 054A     		ldr	r2, .L59
 638 0056 1368     		ldr	r3, [r2]
 639 0058 591C     		adds	r1, r3, #1
 640 005a 1160     		str	r1, [r2]
ARM GAS  C:\Users\hamis\AppData\Local\Temp\cc1fRzXM.s 			page 15


 641 005c 1870     		strb	r0, [r3]
 156:..\..\FreeflyAPI/QX_Parsing_Functions.c ****         v++;
 642              		.loc 1 156 0
 643 005e 0436     		adds	r6, r6, #4
 644              	.LVL53:
 645              	.LBE5:
 152:..\..\FreeflyAPI/QX_Parsing_Functions.c ****     {
 646              		.loc 1 152 0
 647 0060 3946     		mov	r1, r7
 648              	.LVL54:
 649              	.L54:
 650 0062 4F1E     		subs	r7, r1, #1
 651              	.LVL55:
 652 0064 0029     		cmp	r1, #0
 653 0066 D0D1     		bne	.L57
 157:..\..\FreeflyAPI/QX_Parsing_Functions.c ****     }
 158:..\..\FreeflyAPI/QX_Parsing_Functions.c **** }
 654              		.loc 1 158 0
 655 0068 BDE8F087 		pop	{r4, r5, r6, r7, r8, r9, r10, pc}
 656              	.LVL56:
 657              	.L60:
 658              		.align	2
 659              	.L59:
 660 006c 00000000 		.word	msgPtr
 661              		.cfi_endproc
 662              	.LFE12:
 663              		.size	AddFloatAsUnsignedChar, .-AddFloatAsUnsignedChar
 664              		.section	.text.AddFloatAsUnsignedShort,"ax",%progbits
 665              		.align	2
 666              		.global	AddFloatAsUnsignedShort
 667              		.thumb
 668              		.thumb_func
 669              		.type	AddFloatAsUnsignedShort, %function
 670              	AddFloatAsUnsignedShort:
 671              	.LFB13:
 159:..\..\FreeflyAPI/QX_Parsing_Functions.c **** 
 160:..\..\FreeflyAPI/QX_Parsing_Functions.c **** void AddFloatAsUnsignedShort(float *v, uint32_t n, float scaleto)
 161:..\..\FreeflyAPI/QX_Parsing_Functions.c **** {
 672              		.loc 1 161 0
 673              		.cfi_startproc
 674              		@ args = 0, pretend = 0, frame = 0
 675              		@ frame_needed = 0, uses_anonymous_args = 0
 676              	.LVL57:
 677 0000 2DE9F047 		push	{r4, r5, r6, r7, r8, r9, r10, lr}
 678              		.cfi_def_cfa_offset 32
 679              		.cfi_offset 4, -32
 680              		.cfi_offset 5, -28
 681              		.cfi_offset 6, -24
 682              		.cfi_offset 7, -20
 683              		.cfi_offset 8, -16
 684              		.cfi_offset 9, -12
 685              		.cfi_offset 10, -8
 686              		.cfi_offset 14, -4
 687 0004 0546     		mov	r5, r0
 688 0006 1746     		mov	r7, r2
 162:..\..\FreeflyAPI/QX_Parsing_Functions.c ****     while(n--)
 689              		.loc 1 162 0
ARM GAS  C:\Users\hamis\AppData\Local\Temp\cc1fRzXM.s 			page 16


 690 0008 32E0     		b	.L62
 691              	.LVL58:
 692              	.L65:
 693              	.LBB6:
 163:..\..\FreeflyAPI/QX_Parsing_Functions.c ****     {
 164:..\..\FreeflyAPI/QX_Parsing_Functions.c ****         uint16_t value = (uint16_t) (((*v) * scaleto) + 0.5f * ((0 < *v) - (*v < 0)));
 694              		.loc 1 164 0
 695 000a D5F80080 		ldr	r8, [r5]	@ float
 696 000e 3946     		mov	r1, r7
 697 0010 4046     		mov	r0, r8
 698 0012 FFF7FEFF 		bl	__aeabi_fmul
 699              	.LVL59:
 700 0016 8246     		mov	r10, r0
 701 0018 0124     		movs	r4, #1
 702 001a 0021     		movs	r1, #0
 703 001c 4046     		mov	r0, r8
 704 001e FFF7FEFF 		bl	__aeabi_fcmpgt
 705              	.LVL60:
 706 0022 00B9     		cbnz	r0, .L63
 707 0024 0024     		movs	r4, #0
 708              	.L63:
 709 0026 4FF00109 		mov	r9, #1
 710 002a 0021     		movs	r1, #0
 711 002c 4046     		mov	r0, r8
 712 002e FFF7FEFF 		bl	__aeabi_fcmplt
 713              	.LVL61:
 714 0032 08B9     		cbnz	r0, .L64
 715 0034 4FF00009 		mov	r9, #0
 716              	.L64:
 717 0038 C9EB0400 		rsb	r0, r9, r4
 718 003c FFF7FEFF 		bl	__aeabi_i2f
 719              	.LVL62:
 720 0040 4FF07C51 		mov	r1, #1056964608
 721 0044 FFF7FEFF 		bl	__aeabi_fmul
 722              	.LVL63:
 723 0048 0146     		mov	r1, r0
 724 004a 5046     		mov	r0, r10
 725 004c FFF7FEFF 		bl	__aeabi_fadd
 726              	.LVL64:
 727 0050 FFF7FEFF 		bl	__aeabi_f2uiz
 728              	.LVL65:
 729 0054 80B2     		uxth	r0, r0
 730              	.LVL66:
 165:..\..\FreeflyAPI/QX_Parsing_Functions.c ****         ADDUS(value);
 731              		.loc 1 165 0
 732 0056 094B     		ldr	r3, .L67
 733 0058 1A68     		ldr	r2, [r3]
 734 005a 511C     		adds	r1, r2, #1
 735 005c 1960     		str	r1, [r3]
 736 005e 010A     		lsrs	r1, r0, #8
 737 0060 1170     		strb	r1, [r2]
 738 0062 1A68     		ldr	r2, [r3]
 739 0064 511C     		adds	r1, r2, #1
 740 0066 1960     		str	r1, [r3]
 741 0068 C0B2     		uxtb	r0, r0
 742              	.LVL67:
 743 006a 1070     		strb	r0, [r2]
ARM GAS  C:\Users\hamis\AppData\Local\Temp\cc1fRzXM.s 			page 17


 166:..\..\FreeflyAPI/QX_Parsing_Functions.c ****         v++;
 744              		.loc 1 166 0
 745 006c 0435     		adds	r5, r5, #4
 746              	.LVL68:
 747              	.LBE6:
 162:..\..\FreeflyAPI/QX_Parsing_Functions.c ****     {
 748              		.loc 1 162 0
 749 006e 3146     		mov	r1, r6
 750              	.LVL69:
 751              	.L62:
 752 0070 4E1E     		subs	r6, r1, #1
 753              	.LVL70:
 754 0072 0029     		cmp	r1, #0
 755 0074 C9D1     		bne	.L65
 167:..\..\FreeflyAPI/QX_Parsing_Functions.c ****     }
 168:..\..\FreeflyAPI/QX_Parsing_Functions.c **** }
 756              		.loc 1 168 0
 757 0076 BDE8F087 		pop	{r4, r5, r6, r7, r8, r9, r10, pc}
 758              	.LVL71:
 759              	.L68:
 760 007a 00BF     		.align	2
 761              	.L67:
 762 007c 00000000 		.word	msgPtr
 763              		.cfi_endproc
 764              	.LFE13:
 765              		.size	AddFloatAsUnsignedShort, .-AddFloatAsUnsignedShort
 766              		.global	__aeabi_fcmpun
 767              		.section	.text.GetFloatAsSignedLong,"ax",%progbits
 768              		.align	2
 769              		.global	GetFloatAsSignedLong
 770              		.thumb
 771              		.thumb_func
 772              		.type	GetFloatAsSignedLong, %function
 773              	GetFloatAsSignedLong:
 774              	.LFB14:
 169:..\..\FreeflyAPI/QX_Parsing_Functions.c **** 
 170:..\..\FreeflyAPI/QX_Parsing_Functions.c **** void GetFloatAsSignedLong(float *v, uint32_t n, float max, float min, float scalefrom)
 171:..\..\FreeflyAPI/QX_Parsing_Functions.c **** {
 775              		.loc 1 171 0
 776              		.cfi_startproc
 777              		@ args = 4, pretend = 0, frame = 0
 778              		@ frame_needed = 0, uses_anonymous_args = 0
 779              	.LVL72:
 780 0000 2DE9F047 		push	{r4, r5, r6, r7, r8, r9, r10, lr}
 781              		.cfi_def_cfa_offset 32
 782              		.cfi_offset 4, -32
 783              		.cfi_offset 5, -28
 784              		.cfi_offset 6, -24
 785              		.cfi_offset 7, -20
 786              		.cfi_offset 8, -16
 787              		.cfi_offset 9, -12
 788              		.cfi_offset 10, -8
 789              		.cfi_offset 14, -4
 790 0004 0446     		mov	r4, r0
 791 0006 1746     		mov	r7, r2
 792 0008 9846     		mov	r8, r3
 793 000a DDF820A0 		ldr	r10, [sp, #32]	@ float
ARM GAS  C:\Users\hamis\AppData\Local\Temp\cc1fRzXM.s 			page 18


 172:..\..\FreeflyAPI/QX_Parsing_Functions.c ****     if(rw == QB_Parser_Dir_WriteDel)
 794              		.loc 1 172 0
 795 000e 354B     		ldr	r3, .L94
 796              	.LVL73:
 797 0010 1B78     		ldrb	r3, [r3]	@ zero_extendqisi2
 798 0012 012B     		cmp	r3, #1
 799 0014 5FD1     		bne	.L71
 800 0016 2EE0     		b	.L70
 801              	.LVL74:
 802              	.L78:
 803              	.LBB7:
 173:..\..\FreeflyAPI/QX_Parsing_Functions.c ****     {
 174:..\..\FreeflyAPI/QX_Parsing_Functions.c ****         while(n--)
 175:..\..\FreeflyAPI/QX_Parsing_Functions.c ****         {
 176:..\..\FreeflyAPI/QX_Parsing_Functions.c ****             float r = (float)GETSL;
 804              		.loc 1 176 0
 805 0018 DFF8CC90 		ldr	r9, .L94+4
 806 001c D9F80050 		ldr	r5, [r9]
 807 0020 2878     		ldrb	r0, [r5]	@ zero_extendqisi2
 808 0022 6B78     		ldrb	r3, [r5, #1]	@ zero_extendqisi2
 809 0024 1B04     		lsls	r3, r3, #16
 810 0026 43EA0063 		orr	r3, r3, r0, lsl #24
 811 002a A878     		ldrb	r0, [r5, #2]	@ zero_extendqisi2
 812 002c 43EA0023 		orr	r3, r3, r0, lsl #8
 813 0030 E878     		ldrb	r0, [r5, #3]	@ zero_extendqisi2
 814 0032 1843     		orrs	r0, r0, r3
 815 0034 FFF7FEFF 		bl	__aeabi_i2f
 816              	.LVL75:
 817 0038 0435     		adds	r5, r5, #4
 818 003a C9F80050 		str	r5, [r9]
 177:..\..\FreeflyAPI/QX_Parsing_Functions.c ****             r = r * scalefrom;
 819              		.loc 1 177 0
 820 003e 5146     		mov	r1, r10
 821 0040 FFF7FEFF 		bl	__aeabi_fmul
 822              	.LVL76:
 178:..\..\FreeflyAPI/QX_Parsing_Functions.c ****             *v += r;
 823              		.loc 1 178 0
 824 0044 2168     		ldr	r1, [r4]	@ float
 825 0046 FFF7FEFF 		bl	__aeabi_fadd
 826              	.LVL77:
 827 004a 2060     		str	r0, [r4]	@ float
 179:..\..\FreeflyAPI/QX_Parsing_Functions.c ****             if(max < *v) *v = max;
 828              		.loc 1 179 0
 829 004c 3946     		mov	r1, r7
 830 004e FFF7FEFF 		bl	__aeabi_fcmpgt
 831              	.LVL78:
 832 0052 00B1     		cbz	r0, .L72
 833              		.loc 1 179 0 is_stmt 0 discriminator 1
 834 0054 2760     		str	r7, [r4]	@ float
 835              	.L72:
 180:..\..\FreeflyAPI/QX_Parsing_Functions.c ****             if(*v < min) *v = min;
 836              		.loc 1 180 0 is_stmt 1
 837 0056 4146     		mov	r1, r8
 838 0058 2068     		ldr	r0, [r4]	@ float
 839 005a FFF7FEFF 		bl	__aeabi_fcmplt
 840              	.LVL79:
 841 005e 08B1     		cbz	r0, .L74
ARM GAS  C:\Users\hamis\AppData\Local\Temp\cc1fRzXM.s 			page 19


 842              		.loc 1 180 0 is_stmt 0 discriminator 1
 843 0060 C4F80080 		str	r8, [r4]	@ float
 844              	.L74:
 181:..\..\FreeflyAPI/QX_Parsing_Functions.c ****             if(isnan(*v)) *v = 0.0f;
 845              		.loc 1 181 0 is_stmt 1
 846 0064 2168     		ldr	r1, [r4]	@ float
 847 0066 0846     		mov	r0, r1
 848 0068 FFF7FEFF 		bl	__aeabi_fcmpun
 849              	.LVL80:
 850 006c 08B1     		cbz	r0, .L76
 851              		.loc 1 181 0 is_stmt 0 discriminator 1
 852 006e 0023     		movs	r3, #0
 853 0070 2360     		str	r3, [r4]	@ float
 854              	.L76:
 182:..\..\FreeflyAPI/QX_Parsing_Functions.c ****             v++;
 855              		.loc 1 182 0 is_stmt 1
 856 0072 0434     		adds	r4, r4, #4
 857              	.LVL81:
 858              	.LBE7:
 174:..\..\FreeflyAPI/QX_Parsing_Functions.c ****         {
 859              		.loc 1 174 0
 860 0074 3146     		mov	r1, r6
 861              	.LVL82:
 862              	.L70:
 863 0076 4E1E     		subs	r6, r1, #1
 864              	.LVL83:
 865 0078 0029     		cmp	r1, #0
 866 007a CDD1     		bne	.L78
 867 007c BDE8F087 		pop	{r4, r5, r6, r7, r8, r9, r10, pc}
 868              	.LVL84:
 869              	.L86:
 870              	.LBB8:
 183:..\..\FreeflyAPI/QX_Parsing_Functions.c ****         }
 184:..\..\FreeflyAPI/QX_Parsing_Functions.c ****     }
 185:..\..\FreeflyAPI/QX_Parsing_Functions.c ****     else
 186:..\..\FreeflyAPI/QX_Parsing_Functions.c ****     {
 187:..\..\FreeflyAPI/QX_Parsing_Functions.c ****         while(n--)
 188:..\..\FreeflyAPI/QX_Parsing_Functions.c ****         {
 189:..\..\FreeflyAPI/QX_Parsing_Functions.c ****             float r = (float)GETSL;
 871              		.loc 1 189 0
 872 0080 194E     		ldr	r6, .L94+4
 873 0082 3568     		ldr	r5, [r6]
 874 0084 2878     		ldrb	r0, [r5]	@ zero_extendqisi2
 875 0086 6B78     		ldrb	r3, [r5, #1]	@ zero_extendqisi2
 876 0088 1B04     		lsls	r3, r3, #16
 877 008a 43EA0063 		orr	r3, r3, r0, lsl #24
 878 008e A878     		ldrb	r0, [r5, #2]	@ zero_extendqisi2
 879 0090 43EA0023 		orr	r3, r3, r0, lsl #8
 880 0094 E878     		ldrb	r0, [r5, #3]	@ zero_extendqisi2
 881 0096 1843     		orrs	r0, r0, r3
 882 0098 FFF7FEFF 		bl	__aeabi_i2f
 883              	.LVL85:
 884 009c 0435     		adds	r5, r5, #4
 885 009e 3560     		str	r5, [r6]
 190:..\..\FreeflyAPI/QX_Parsing_Functions.c ****             r = r * scalefrom;
 886              		.loc 1 190 0
 887 00a0 0146     		mov	r1, r0
ARM GAS  C:\Users\hamis\AppData\Local\Temp\cc1fRzXM.s 			page 20


 888 00a2 5046     		mov	r0, r10
 889              	.LVL86:
 890 00a4 FFF7FEFF 		bl	__aeabi_fmul
 891              	.LVL87:
 892 00a8 0146     		mov	r1, r0
 893              	.LVL88:
 191:..\..\FreeflyAPI/QX_Parsing_Functions.c ****             *v = r;
 894              		.loc 1 191 0
 895 00aa 2060     		str	r0, [r4]	@ float
 192:..\..\FreeflyAPI/QX_Parsing_Functions.c ****             if(max < *v) *v = max;
 896              		.loc 1 192 0
 897 00ac 3846     		mov	r0, r7
 898              	.LVL89:
 899 00ae FFF7FEFF 		bl	__aeabi_fcmplt
 900              	.LVL90:
 901 00b2 00B1     		cbz	r0, .L80
 902              		.loc 1 192 0 is_stmt 0 discriminator 1
 903 00b4 2760     		str	r7, [r4]	@ float
 904              	.L80:
 193:..\..\FreeflyAPI/QX_Parsing_Functions.c ****             if(*v < min) *v = min;
 905              		.loc 1 193 0 is_stmt 1
 906 00b6 2168     		ldr	r1, [r4]	@ float
 907 00b8 4046     		mov	r0, r8
 908 00ba FFF7FEFF 		bl	__aeabi_fcmpgt
 909              	.LVL91:
 910 00be 08B1     		cbz	r0, .L82
 911              		.loc 1 193 0 is_stmt 0 discriminator 1
 912 00c0 C4F80080 		str	r8, [r4]	@ float
 913              	.L82:
 194:..\..\FreeflyAPI/QX_Parsing_Functions.c ****             if(isnan(*v)) *v = 0.0f;
 914              		.loc 1 194 0 is_stmt 1
 915 00c4 2168     		ldr	r1, [r4]	@ float
 916 00c6 0846     		mov	r0, r1
 917 00c8 FFF7FEFF 		bl	__aeabi_fcmpun
 918              	.LVL92:
 919 00cc 08B1     		cbz	r0, .L84
 920              		.loc 1 194 0 is_stmt 0 discriminator 1
 921 00ce 0023     		movs	r3, #0
 922 00d0 2360     		str	r3, [r4]	@ float
 923              	.L84:
 195:..\..\FreeflyAPI/QX_Parsing_Functions.c ****             v++;
 924              		.loc 1 195 0 is_stmt 1
 925 00d2 0434     		adds	r4, r4, #4
 926              	.LVL93:
 927              	.LBE8:
 187:..\..\FreeflyAPI/QX_Parsing_Functions.c ****         {
 928              		.loc 1 187 0
 929 00d4 4946     		mov	r1, r9
 930              	.LVL94:
 931              	.L71:
 932 00d6 01F1FF39 		add	r9, r1, #-1
 933              	.LVL95:
 934 00da 0029     		cmp	r1, #0
 935 00dc D0D1     		bne	.L86
 936 00de BDE8F087 		pop	{r4, r5, r6, r7, r8, r9, r10, pc}
 937              	.LVL96:
 938              	.L95:
ARM GAS  C:\Users\hamis\AppData\Local\Temp\cc1fRzXM.s 			page 21


 939 00e2 00BF     		.align	2
 940              	.L94:
 941 00e4 00000000 		.word	rw
 942 00e8 00000000 		.word	msgPtr
 943              		.cfi_endproc
 944              	.LFE14:
 945              		.size	GetFloatAsSignedLong, .-GetFloatAsSignedLong
 946              		.section	.text.GetFloatAsSignedShort,"ax",%progbits
 947              		.align	2
 948              		.global	GetFloatAsSignedShort
 949              		.thumb
 950              		.thumb_func
 951              		.type	GetFloatAsSignedShort, %function
 952              	GetFloatAsSignedShort:
 953              	.LFB15:
 196:..\..\FreeflyAPI/QX_Parsing_Functions.c ****         }
 197:..\..\FreeflyAPI/QX_Parsing_Functions.c ****     }
 198:..\..\FreeflyAPI/QX_Parsing_Functions.c **** }
 199:..\..\FreeflyAPI/QX_Parsing_Functions.c **** 
 200:..\..\FreeflyAPI/QX_Parsing_Functions.c **** void GetFloatAsSignedShort(float *v, uint32_t n, float max, float min, float scalefrom)
 201:..\..\FreeflyAPI/QX_Parsing_Functions.c **** {
 954              		.loc 1 201 0
 955              		.cfi_startproc
 956              		@ args = 4, pretend = 0, frame = 0
 957              		@ frame_needed = 0, uses_anonymous_args = 0
 958              	.LVL97:
 959 0000 2DE9F047 		push	{r4, r5, r6, r7, r8, r9, r10, lr}
 960              		.cfi_def_cfa_offset 32
 961              		.cfi_offset 4, -32
 962              		.cfi_offset 5, -28
 963              		.cfi_offset 6, -24
 964              		.cfi_offset 7, -20
 965              		.cfi_offset 8, -16
 966              		.cfi_offset 9, -12
 967              		.cfi_offset 10, -8
 968              		.cfi_offset 14, -4
 969 0004 0446     		mov	r4, r0
 970 0006 1746     		mov	r7, r2
 971 0008 9846     		mov	r8, r3
 972 000a DDF820A0 		ldr	r10, [sp, #32]	@ float
 202:..\..\FreeflyAPI/QX_Parsing_Functions.c ****     if(rw == QB_Parser_Dir_WriteDel)
 973              		.loc 1 202 0
 974 000e 304B     		ldr	r3, .L121
 975              	.LVL98:
 976 0010 1B78     		ldrb	r3, [r3]	@ zero_extendqisi2
 977 0012 012B     		cmp	r3, #1
 978 0014 55D1     		bne	.L98
 979 0016 29E0     		b	.L97
 980              	.LVL99:
 981              	.L105:
 982              	.LBB9:
 203:..\..\FreeflyAPI/QX_Parsing_Functions.c ****     {
 204:..\..\FreeflyAPI/QX_Parsing_Functions.c ****         while(n--)
 205:..\..\FreeflyAPI/QX_Parsing_Functions.c ****         {
 206:..\..\FreeflyAPI/QX_Parsing_Functions.c ****             float r = (float)GETSS;
 983              		.loc 1 206 0
 984 0018 DFF8B890 		ldr	r9, .L121+4
ARM GAS  C:\Users\hamis\AppData\Local\Temp\cc1fRzXM.s 			page 22


 985 001c D9F80050 		ldr	r5, [r9]
 986 0020 2B78     		ldrb	r3, [r5]	@ zero_extendqisi2
 987 0022 1B02     		lsls	r3, r3, #8
 988 0024 1BB2     		sxth	r3, r3
 989 0026 6878     		ldrb	r0, [r5, #1]	@ zero_extendqisi2
 990 0028 1843     		orrs	r0, r0, r3
 991 002a FFF7FEFF 		bl	__aeabi_i2f
 992              	.LVL100:
 993 002e 0235     		adds	r5, r5, #2
 994 0030 C9F80050 		str	r5, [r9]
 207:..\..\FreeflyAPI/QX_Parsing_Functions.c ****             r = r * scalefrom;
 995              		.loc 1 207 0
 996 0034 5146     		mov	r1, r10
 997 0036 FFF7FEFF 		bl	__aeabi_fmul
 998              	.LVL101:
 208:..\..\FreeflyAPI/QX_Parsing_Functions.c ****             *v += r;
 999              		.loc 1 208 0
 1000 003a 2168     		ldr	r1, [r4]	@ float
 1001 003c FFF7FEFF 		bl	__aeabi_fadd
 1002              	.LVL102:
 1003 0040 2060     		str	r0, [r4]	@ float
 209:..\..\FreeflyAPI/QX_Parsing_Functions.c ****             if(max < *v) *v = max;
 1004              		.loc 1 209 0
 1005 0042 3946     		mov	r1, r7
 1006 0044 FFF7FEFF 		bl	__aeabi_fcmpgt
 1007              	.LVL103:
 1008 0048 00B1     		cbz	r0, .L99
 1009              		.loc 1 209 0 is_stmt 0 discriminator 1
 1010 004a 2760     		str	r7, [r4]	@ float
 1011              	.L99:
 210:..\..\FreeflyAPI/QX_Parsing_Functions.c ****             if(*v < min) *v = min;
 1012              		.loc 1 210 0 is_stmt 1
 1013 004c 4146     		mov	r1, r8
 1014 004e 2068     		ldr	r0, [r4]	@ float
 1015 0050 FFF7FEFF 		bl	__aeabi_fcmplt
 1016              	.LVL104:
 1017 0054 08B1     		cbz	r0, .L101
 1018              		.loc 1 210 0 is_stmt 0 discriminator 1
 1019 0056 C4F80080 		str	r8, [r4]	@ float
 1020              	.L101:
 211:..\..\FreeflyAPI/QX_Parsing_Functions.c ****             if(isnan(*v)) *v = 0.0f;
 1021              		.loc 1 211 0 is_stmt 1
 1022 005a 2168     		ldr	r1, [r4]	@ float
 1023 005c 0846     		mov	r0, r1
 1024 005e FFF7FEFF 		bl	__aeabi_fcmpun
 1025              	.LVL105:
 1026 0062 08B1     		cbz	r0, .L103
 1027              		.loc 1 211 0 is_stmt 0 discriminator 1
 1028 0064 0023     		movs	r3, #0
 1029 0066 2360     		str	r3, [r4]	@ float
 1030              	.L103:
 212:..\..\FreeflyAPI/QX_Parsing_Functions.c ****             v++;
 1031              		.loc 1 212 0 is_stmt 1
 1032 0068 0434     		adds	r4, r4, #4
 1033              	.LVL106:
 1034              	.LBE9:
 204:..\..\FreeflyAPI/QX_Parsing_Functions.c ****         {
ARM GAS  C:\Users\hamis\AppData\Local\Temp\cc1fRzXM.s 			page 23


 1035              		.loc 1 204 0
 1036 006a 3146     		mov	r1, r6
 1037              	.LVL107:
 1038              	.L97:
 1039 006c 4E1E     		subs	r6, r1, #1
 1040              	.LVL108:
 1041 006e 0029     		cmp	r1, #0
 1042 0070 D2D1     		bne	.L105
 1043 0072 BDE8F087 		pop	{r4, r5, r6, r7, r8, r9, r10, pc}
 1044              	.LVL109:
 1045              	.L113:
 1046              	.LBB10:
 213:..\..\FreeflyAPI/QX_Parsing_Functions.c ****         }
 214:..\..\FreeflyAPI/QX_Parsing_Functions.c ****     }
 215:..\..\FreeflyAPI/QX_Parsing_Functions.c ****     else
 216:..\..\FreeflyAPI/QX_Parsing_Functions.c ****     {
 217:..\..\FreeflyAPI/QX_Parsing_Functions.c ****         while(n--)
 218:..\..\FreeflyAPI/QX_Parsing_Functions.c ****         {
 219:..\..\FreeflyAPI/QX_Parsing_Functions.c ****             float r = (float)GETSS;
 1047              		.loc 1 219 0
 1048 0076 174E     		ldr	r6, .L121+4
 1049 0078 3568     		ldr	r5, [r6]
 1050 007a 2B78     		ldrb	r3, [r5]	@ zero_extendqisi2
 1051 007c 1B02     		lsls	r3, r3, #8
 1052 007e 1BB2     		sxth	r3, r3
 1053 0080 6878     		ldrb	r0, [r5, #1]	@ zero_extendqisi2
 1054 0082 1843     		orrs	r0, r0, r3
 1055 0084 FFF7FEFF 		bl	__aeabi_i2f
 1056              	.LVL110:
 1057 0088 0235     		adds	r5, r5, #2
 1058 008a 3560     		str	r5, [r6]
 220:..\..\FreeflyAPI/QX_Parsing_Functions.c ****             r = r * scalefrom;
 1059              		.loc 1 220 0
 1060 008c 0146     		mov	r1, r0
 1061 008e 5046     		mov	r0, r10
 1062              	.LVL111:
 1063 0090 FFF7FEFF 		bl	__aeabi_fmul
 1064              	.LVL112:
 1065 0094 0146     		mov	r1, r0
 1066              	.LVL113:
 221:..\..\FreeflyAPI/QX_Parsing_Functions.c ****             *v = r;
 1067              		.loc 1 221 0
 1068 0096 2060     		str	r0, [r4]	@ float
 222:..\..\FreeflyAPI/QX_Parsing_Functions.c ****             if(max < *v) *v = max;
 1069              		.loc 1 222 0
 1070 0098 3846     		mov	r0, r7
 1071              	.LVL114:
 1072 009a FFF7FEFF 		bl	__aeabi_fcmplt
 1073              	.LVL115:
 1074 009e 00B1     		cbz	r0, .L107
 1075              		.loc 1 222 0 is_stmt 0 discriminator 1
 1076 00a0 2760     		str	r7, [r4]	@ float
 1077              	.L107:
 223:..\..\FreeflyAPI/QX_Parsing_Functions.c ****             if(*v < min) *v = min;
 1078              		.loc 1 223 0 is_stmt 1
 1079 00a2 2168     		ldr	r1, [r4]	@ float
 1080 00a4 4046     		mov	r0, r8
ARM GAS  C:\Users\hamis\AppData\Local\Temp\cc1fRzXM.s 			page 24


 1081 00a6 FFF7FEFF 		bl	__aeabi_fcmpgt
 1082              	.LVL116:
 1083 00aa 08B1     		cbz	r0, .L109
 1084              		.loc 1 223 0 is_stmt 0 discriminator 1
 1085 00ac C4F80080 		str	r8, [r4]	@ float
 1086              	.L109:
 224:..\..\FreeflyAPI/QX_Parsing_Functions.c ****             if(isnan(*v)) *v = 0.0f;
 1087              		.loc 1 224 0 is_stmt 1
 1088 00b0 2168     		ldr	r1, [r4]	@ float
 1089 00b2 0846     		mov	r0, r1
 1090 00b4 FFF7FEFF 		bl	__aeabi_fcmpun
 1091              	.LVL117:
 1092 00b8 08B1     		cbz	r0, .L111
 1093              		.loc 1 224 0 is_stmt 0 discriminator 1
 1094 00ba 0023     		movs	r3, #0
 1095 00bc 2360     		str	r3, [r4]	@ float
 1096              	.L111:
 225:..\..\FreeflyAPI/QX_Parsing_Functions.c ****             v++;
 1097              		.loc 1 225 0 is_stmt 1
 1098 00be 0434     		adds	r4, r4, #4
 1099              	.LVL118:
 1100              	.LBE10:
 217:..\..\FreeflyAPI/QX_Parsing_Functions.c ****         {
 1101              		.loc 1 217 0
 1102 00c0 4946     		mov	r1, r9
 1103              	.LVL119:
 1104              	.L98:
 1105 00c2 01F1FF39 		add	r9, r1, #-1
 1106              	.LVL120:
 1107 00c6 0029     		cmp	r1, #0
 1108 00c8 D5D1     		bne	.L113
 1109 00ca BDE8F087 		pop	{r4, r5, r6, r7, r8, r9, r10, pc}
 1110              	.LVL121:
 1111              	.L122:
 1112 00ce 00BF     		.align	2
 1113              	.L121:
 1114 00d0 00000000 		.word	rw
 1115 00d4 00000000 		.word	msgPtr
 1116              		.cfi_endproc
 1117              	.LFE15:
 1118              		.size	GetFloatAsSignedShort, .-GetFloatAsSignedShort
 1119              		.section	.text.GetFloatAsSignedChar,"ax",%progbits
 1120              		.align	2
 1121              		.global	GetFloatAsSignedChar
 1122              		.thumb
 1123              		.thumb_func
 1124              		.type	GetFloatAsSignedChar, %function
 1125              	GetFloatAsSignedChar:
 1126              	.LFB16:
 226:..\..\FreeflyAPI/QX_Parsing_Functions.c ****         }
 227:..\..\FreeflyAPI/QX_Parsing_Functions.c ****     }
 228:..\..\FreeflyAPI/QX_Parsing_Functions.c **** }
 229:..\..\FreeflyAPI/QX_Parsing_Functions.c **** 
 230:..\..\FreeflyAPI/QX_Parsing_Functions.c **** void GetFloatAsSignedChar(float *v, uint32_t n, float max, float min, float scalefrom)
 231:..\..\FreeflyAPI/QX_Parsing_Functions.c **** {
 1127              		.loc 1 231 0
 1128              		.cfi_startproc
ARM GAS  C:\Users\hamis\AppData\Local\Temp\cc1fRzXM.s 			page 25


 1129              		@ args = 4, pretend = 0, frame = 0
 1130              		@ frame_needed = 0, uses_anonymous_args = 0
 1131              	.LVL122:
 1132 0000 2DE9F843 		push	{r3, r4, r5, r6, r7, r8, r9, lr}
 1133              		.cfi_def_cfa_offset 32
 1134              		.cfi_offset 3, -32
 1135              		.cfi_offset 4, -28
 1136              		.cfi_offset 5, -24
 1137              		.cfi_offset 6, -20
 1138              		.cfi_offset 7, -16
 1139              		.cfi_offset 8, -12
 1140              		.cfi_offset 9, -8
 1141              		.cfi_offset 14, -4
 1142 0004 0446     		mov	r4, r0
 1143 0006 1546     		mov	r5, r2
 1144 0008 1F46     		mov	r7, r3
 1145 000a DDF82080 		ldr	r8, [sp, #32]	@ float
 232:..\..\FreeflyAPI/QX_Parsing_Functions.c ****     if(rw == QB_Parser_Dir_WriteDel)
 1146              		.loc 1 232 0
 1147 000e 2B4B     		ldr	r3, .L149
 1148              	.LVL123:
 1149 0010 1B78     		ldrb	r3, [r3]	@ zero_extendqisi2
 1150 0012 012B     		cmp	r3, #1
 1151 0014 4CD1     		bne	.L125
 1152 0016 24E0     		b	.L124
 1153              	.LVL124:
 1154              	.L132:
 1155              	.LBB11:
 233:..\..\FreeflyAPI/QX_Parsing_Functions.c ****     {
 234:..\..\FreeflyAPI/QX_Parsing_Functions.c ****         while(n--)
 235:..\..\FreeflyAPI/QX_Parsing_Functions.c ****         {
 236:..\..\FreeflyAPI/QX_Parsing_Functions.c ****             float r = (float)GETSC;
 1156              		.loc 1 236 0
 1157 0018 294A     		ldr	r2, .L149+4
 1158 001a 1368     		ldr	r3, [r2]
 1159 001c 591C     		adds	r1, r3, #1
 1160 001e 1160     		str	r1, [r2]
 1161 0020 1878     		ldrb	r0, [r3]	@ zero_extendqisi2
 1162 0022 40B2     		sxtb	r0, r0
 1163 0024 FFF7FEFF 		bl	__aeabi_i2f
 1164              	.LVL125:
 237:..\..\FreeflyAPI/QX_Parsing_Functions.c ****             r = r * scalefrom;
 1165              		.loc 1 237 0
 1166 0028 4146     		mov	r1, r8
 1167 002a FFF7FEFF 		bl	__aeabi_fmul
 1168              	.LVL126:
 238:..\..\FreeflyAPI/QX_Parsing_Functions.c ****             *v += r;
 1169              		.loc 1 238 0
 1170 002e 2168     		ldr	r1, [r4]	@ float
 1171 0030 FFF7FEFF 		bl	__aeabi_fadd
 1172              	.LVL127:
 1173 0034 8146     		mov	r9, r0
 1174 0036 2060     		str	r0, [r4]	@ float
 239:..\..\FreeflyAPI/QX_Parsing_Functions.c ****             if(max < *v) *v = max;
 1175              		.loc 1 239 0
 1176 0038 2946     		mov	r1, r5
 1177 003a FFF7FEFF 		bl	__aeabi_fcmpgt
ARM GAS  C:\Users\hamis\AppData\Local\Temp\cc1fRzXM.s 			page 26


 1178              	.LVL128:
 1179 003e 08B1     		cbz	r0, .L147
 1180              		.loc 1 239 0 is_stmt 0 discriminator 1
 1181 0040 2560     		str	r5, [r4]	@ float
 1182 0042 05E0     		b	.L128
 1183              	.L147:
 240:..\..\FreeflyAPI/QX_Parsing_Functions.c ****             else if(*v < min) *v = min;
 1184              		.loc 1 240 0 is_stmt 1
 1185 0044 3946     		mov	r1, r7
 1186 0046 4846     		mov	r0, r9
 1187 0048 FFF7FEFF 		bl	__aeabi_fcmplt
 1188              	.LVL129:
 1189 004c 00B1     		cbz	r0, .L128
 1190              		.loc 1 240 0 is_stmt 0 discriminator 1
 1191 004e 2760     		str	r7, [r4]	@ float
 1192              	.L128:
 241:..\..\FreeflyAPI/QX_Parsing_Functions.c ****             if(isnan(*v)) *v = 0.0f;
 1193              		.loc 1 241 0 is_stmt 1
 1194 0050 2168     		ldr	r1, [r4]	@ float
 1195 0052 0846     		mov	r0, r1
 1196 0054 FFF7FEFF 		bl	__aeabi_fcmpun
 1197              	.LVL130:
 1198 0058 08B1     		cbz	r0, .L130
 1199              		.loc 1 241 0 is_stmt 0 discriminator 1
 1200 005a 0023     		movs	r3, #0
 1201 005c 2360     		str	r3, [r4]	@ float
 1202              	.L130:
 242:..\..\FreeflyAPI/QX_Parsing_Functions.c ****             v++;
 1203              		.loc 1 242 0 is_stmt 1
 1204 005e 0434     		adds	r4, r4, #4
 1205              	.LVL131:
 1206              	.LBE11:
 234:..\..\FreeflyAPI/QX_Parsing_Functions.c ****         {
 1207              		.loc 1 234 0
 1208 0060 3146     		mov	r1, r6
 1209              	.LVL132:
 1210              	.L124:
 1211 0062 4E1E     		subs	r6, r1, #1
 1212              	.LVL133:
 1213 0064 0029     		cmp	r1, #0
 1214 0066 D7D1     		bne	.L132
 1215 0068 BDE8F883 		pop	{r3, r4, r5, r6, r7, r8, r9, pc}
 1216              	.LVL134:
 1217              	.L140:
 1218              	.LBB12:
 243:..\..\FreeflyAPI/QX_Parsing_Functions.c ****         }
 244:..\..\FreeflyAPI/QX_Parsing_Functions.c ****     }
 245:..\..\FreeflyAPI/QX_Parsing_Functions.c ****     else
 246:..\..\FreeflyAPI/QX_Parsing_Functions.c ****     {
 247:..\..\FreeflyAPI/QX_Parsing_Functions.c ****         while(n--)
 248:..\..\FreeflyAPI/QX_Parsing_Functions.c ****         {
 249:..\..\FreeflyAPI/QX_Parsing_Functions.c ****             float r = (float)GETSC;
 1219              		.loc 1 249 0
 1220 006c 144A     		ldr	r2, .L149+4
 1221 006e 1368     		ldr	r3, [r2]
 1222 0070 591C     		adds	r1, r3, #1
 1223 0072 1160     		str	r1, [r2]
ARM GAS  C:\Users\hamis\AppData\Local\Temp\cc1fRzXM.s 			page 27


 1224 0074 1878     		ldrb	r0, [r3]	@ zero_extendqisi2
 1225 0076 40B2     		sxtb	r0, r0
 1226 0078 FFF7FEFF 		bl	__aeabi_i2f
 1227              	.LVL135:
 250:..\..\FreeflyAPI/QX_Parsing_Functions.c ****             r = r * scalefrom;
 1228              		.loc 1 250 0
 1229 007c 0146     		mov	r1, r0
 1230 007e 4046     		mov	r0, r8
 1231              	.LVL136:
 1232 0080 FFF7FEFF 		bl	__aeabi_fmul
 1233              	.LVL137:
 1234 0084 0146     		mov	r1, r0
 1235              	.LVL138:
 251:..\..\FreeflyAPI/QX_Parsing_Functions.c ****             *v = r;
 1236              		.loc 1 251 0
 1237 0086 2060     		str	r0, [r4]	@ float
 252:..\..\FreeflyAPI/QX_Parsing_Functions.c ****             if(max < *v) *v = max;
 1238              		.loc 1 252 0
 1239 0088 2846     		mov	r0, r5
 1240              	.LVL139:
 1241 008a FFF7FEFF 		bl	__aeabi_fcmplt
 1242              	.LVL140:
 1243 008e 00B1     		cbz	r0, .L134
 1244              		.loc 1 252 0 is_stmt 0 discriminator 1
 1245 0090 2560     		str	r5, [r4]	@ float
 1246              	.L134:
 253:..\..\FreeflyAPI/QX_Parsing_Functions.c ****             if(*v < min) *v = min;
 1247              		.loc 1 253 0 is_stmt 1
 1248 0092 2168     		ldr	r1, [r4]	@ float
 1249 0094 3846     		mov	r0, r7
 1250 0096 FFF7FEFF 		bl	__aeabi_fcmpgt
 1251              	.LVL141:
 1252 009a 00B1     		cbz	r0, .L136
 1253              		.loc 1 253 0 is_stmt 0 discriminator 1
 1254 009c 2760     		str	r7, [r4]	@ float
 1255              	.L136:
 254:..\..\FreeflyAPI/QX_Parsing_Functions.c ****             if(isnan(*v)) *v = 0.0f;
 1256              		.loc 1 254 0 is_stmt 1
 1257 009e 2168     		ldr	r1, [r4]	@ float
 1258 00a0 0846     		mov	r0, r1
 1259 00a2 FFF7FEFF 		bl	__aeabi_fcmpun
 1260              	.LVL142:
 1261 00a6 08B1     		cbz	r0, .L138
 1262              		.loc 1 254 0 is_stmt 0 discriminator 1
 1263 00a8 0023     		movs	r3, #0
 1264 00aa 2360     		str	r3, [r4]	@ float
 1265              	.L138:
 255:..\..\FreeflyAPI/QX_Parsing_Functions.c ****             v++;
 1266              		.loc 1 255 0 is_stmt 1
 1267 00ac 0434     		adds	r4, r4, #4
 1268              	.LVL143:
 1269              	.LBE12:
 247:..\..\FreeflyAPI/QX_Parsing_Functions.c ****         {
 1270              		.loc 1 247 0
 1271 00ae 3146     		mov	r1, r6
 1272              	.LVL144:
 1273              	.L125:
ARM GAS  C:\Users\hamis\AppData\Local\Temp\cc1fRzXM.s 			page 28


 1274 00b0 4E1E     		subs	r6, r1, #1
 1275              	.LVL145:
 1276 00b2 0029     		cmp	r1, #0
 1277 00b4 DAD1     		bne	.L140
 1278 00b6 BDE8F883 		pop	{r3, r4, r5, r6, r7, r8, r9, pc}
 1279              	.LVL146:
 1280              	.L150:
 1281 00ba 00BF     		.align	2
 1282              	.L149:
 1283 00bc 00000000 		.word	rw
 1284 00c0 00000000 		.word	msgPtr
 1285              		.cfi_endproc
 1286              	.LFE16:
 1287              		.size	GetFloatAsSignedChar, .-GetFloatAsSignedChar
 1288              		.global	__aeabi_ui2f
 1289              		.section	.text.GetFloatAsUnsignedChar,"ax",%progbits
 1290              		.align	2
 1291              		.global	GetFloatAsUnsignedChar
 1292              		.thumb
 1293              		.thumb_func
 1294              		.type	GetFloatAsUnsignedChar, %function
 1295              	GetFloatAsUnsignedChar:
 1296              	.LFB17:
 256:..\..\FreeflyAPI/QX_Parsing_Functions.c ****         }
 257:..\..\FreeflyAPI/QX_Parsing_Functions.c ****     }
 258:..\..\FreeflyAPI/QX_Parsing_Functions.c **** }
 259:..\..\FreeflyAPI/QX_Parsing_Functions.c **** 
 260:..\..\FreeflyAPI/QX_Parsing_Functions.c **** void GetFloatAsUnsignedChar(float *v, uint32_t n, float max, float min, float scalefrom)
 261:..\..\FreeflyAPI/QX_Parsing_Functions.c **** {
 1297              		.loc 1 261 0
 1298              		.cfi_startproc
 1299              		@ args = 4, pretend = 0, frame = 0
 1300              		@ frame_needed = 0, uses_anonymous_args = 0
 1301              	.LVL147:
 1302 0000 2DE9F041 		push	{r4, r5, r6, r7, r8, lr}
 1303              		.cfi_def_cfa_offset 24
 1304              		.cfi_offset 4, -24
 1305              		.cfi_offset 5, -20
 1306              		.cfi_offset 6, -16
 1307              		.cfi_offset 7, -12
 1308              		.cfi_offset 8, -8
 1309              		.cfi_offset 14, -4
 1310 0004 0446     		mov	r4, r0
 1311 0006 1546     		mov	r5, r2
 1312 0008 1E46     		mov	r6, r3
 1313 000a DDF81880 		ldr	r8, [sp, #24]	@ float
 262:..\..\FreeflyAPI/QX_Parsing_Functions.c ****     if(rw == QB_Parser_Dir_WriteDel)
 1314              		.loc 1 262 0
 1315 000e 294B     		ldr	r3, .L176
 1316              	.LVL148:
 1317 0010 1B78     		ldrb	r3, [r3]	@ zero_extendqisi2
 1318 0012 012B     		cmp	r3, #1
 1319 0014 49D1     		bne	.L153
 1320 0016 22E0     		b	.L152
 1321              	.LVL149:
 1322              	.L160:
 1323              	.LBB13:
ARM GAS  C:\Users\hamis\AppData\Local\Temp\cc1fRzXM.s 			page 29


 263:..\..\FreeflyAPI/QX_Parsing_Functions.c ****     {
 264:..\..\FreeflyAPI/QX_Parsing_Functions.c ****         while(n--)
 265:..\..\FreeflyAPI/QX_Parsing_Functions.c ****         {
 266:..\..\FreeflyAPI/QX_Parsing_Functions.c ****             float r = (float)GETSC;
 1324              		.loc 1 266 0
 1325 0018 274A     		ldr	r2, .L176+4
 1326 001a 1368     		ldr	r3, [r2]
 1327 001c 591C     		adds	r1, r3, #1
 1328 001e 1160     		str	r1, [r2]
 1329 0020 1878     		ldrb	r0, [r3]	@ zero_extendqisi2
 1330 0022 40B2     		sxtb	r0, r0
 1331 0024 FFF7FEFF 		bl	__aeabi_i2f
 1332              	.LVL150:
 267:..\..\FreeflyAPI/QX_Parsing_Functions.c ****             r = r * scalefrom;
 1333              		.loc 1 267 0
 1334 0028 4146     		mov	r1, r8
 1335 002a FFF7FEFF 		bl	__aeabi_fmul
 1336              	.LVL151:
 268:..\..\FreeflyAPI/QX_Parsing_Functions.c ****             *v += (float)r;
 1337              		.loc 1 268 0
 1338 002e 2168     		ldr	r1, [r4]	@ float
 1339 0030 FFF7FEFF 		bl	__aeabi_fadd
 1340              	.LVL152:
 1341 0034 2060     		str	r0, [r4]	@ float
 269:..\..\FreeflyAPI/QX_Parsing_Functions.c ****             if(max < *v) *v = max;
 1342              		.loc 1 269 0
 1343 0036 2946     		mov	r1, r5
 1344 0038 FFF7FEFF 		bl	__aeabi_fcmpgt
 1345              	.LVL153:
 1346 003c 00B1     		cbz	r0, .L154
 1347              		.loc 1 269 0 is_stmt 0 discriminator 1
 1348 003e 2560     		str	r5, [r4]	@ float
 1349              	.L154:
 270:..\..\FreeflyAPI/QX_Parsing_Functions.c ****             if(*v < min) *v = min;
 1350              		.loc 1 270 0 is_stmt 1
 1351 0040 3146     		mov	r1, r6
 1352 0042 2068     		ldr	r0, [r4]	@ float
 1353 0044 FFF7FEFF 		bl	__aeabi_fcmplt
 1354              	.LVL154:
 1355 0048 00B1     		cbz	r0, .L156
 1356              		.loc 1 270 0 is_stmt 0 discriminator 1
 1357 004a 2660     		str	r6, [r4]	@ float
 1358              	.L156:
 271:..\..\FreeflyAPI/QX_Parsing_Functions.c ****             if(isnan(*v)) *v = 0.0f;
 1359              		.loc 1 271 0 is_stmt 1
 1360 004c 2168     		ldr	r1, [r4]	@ float
 1361 004e 0846     		mov	r0, r1
 1362 0050 FFF7FEFF 		bl	__aeabi_fcmpun
 1363              	.LVL155:
 1364 0054 08B1     		cbz	r0, .L158
 1365              		.loc 1 271 0 is_stmt 0 discriminator 1
 1366 0056 0023     		movs	r3, #0
 1367 0058 2360     		str	r3, [r4]	@ float
 1368              	.L158:
 272:..\..\FreeflyAPI/QX_Parsing_Functions.c ****             v++;
 1369              		.loc 1 272 0 is_stmt 1
 1370 005a 0434     		adds	r4, r4, #4
ARM GAS  C:\Users\hamis\AppData\Local\Temp\cc1fRzXM.s 			page 30


 1371              	.LVL156:
 1372              	.LBE13:
 264:..\..\FreeflyAPI/QX_Parsing_Functions.c ****         {
 1373              		.loc 1 264 0
 1374 005c 3946     		mov	r1, r7
 1375              	.LVL157:
 1376              	.L152:
 1377 005e 4F1E     		subs	r7, r1, #1
 1378              	.LVL158:
 1379 0060 0029     		cmp	r1, #0
 1380 0062 D9D1     		bne	.L160
 1381 0064 BDE8F081 		pop	{r4, r5, r6, r7, r8, pc}
 1382              	.LVL159:
 1383              	.L168:
 1384              	.LBB14:
 273:..\..\FreeflyAPI/QX_Parsing_Functions.c ****         }
 274:..\..\FreeflyAPI/QX_Parsing_Functions.c ****     }
 275:..\..\FreeflyAPI/QX_Parsing_Functions.c ****     else
 276:..\..\FreeflyAPI/QX_Parsing_Functions.c ****     {
 277:..\..\FreeflyAPI/QX_Parsing_Functions.c ****         while(n--)
 278:..\..\FreeflyAPI/QX_Parsing_Functions.c ****         {
 279:..\..\FreeflyAPI/QX_Parsing_Functions.c ****             float r = (float)GETUC;
 1385              		.loc 1 279 0
 1386 0068 134A     		ldr	r2, .L176+4
 1387 006a 1368     		ldr	r3, [r2]
 1388 006c 591C     		adds	r1, r3, #1
 1389 006e 1160     		str	r1, [r2]
 1390 0070 1878     		ldrb	r0, [r3]	@ zero_extendqisi2
 1391 0072 FFF7FEFF 		bl	__aeabi_ui2f
 1392              	.LVL160:
 280:..\..\FreeflyAPI/QX_Parsing_Functions.c ****             r = r * scalefrom;
 1393              		.loc 1 280 0
 1394 0076 0146     		mov	r1, r0
 1395 0078 4046     		mov	r0, r8
 1396              	.LVL161:
 1397 007a FFF7FEFF 		bl	__aeabi_fmul
 1398              	.LVL162:
 1399 007e 0146     		mov	r1, r0
 1400              	.LVL163:
 281:..\..\FreeflyAPI/QX_Parsing_Functions.c ****             *v = (float)r;
 1401              		.loc 1 281 0
 1402 0080 2060     		str	r0, [r4]	@ float
 282:..\..\FreeflyAPI/QX_Parsing_Functions.c ****             if(max < *v) *v = max;
 1403              		.loc 1 282 0
 1404 0082 2846     		mov	r0, r5
 1405              	.LVL164:
 1406 0084 FFF7FEFF 		bl	__aeabi_fcmplt
 1407              	.LVL165:
 1408 0088 00B1     		cbz	r0, .L162
 1409              		.loc 1 282 0 is_stmt 0 discriminator 1
 1410 008a 2560     		str	r5, [r4]	@ float
 1411              	.L162:
 283:..\..\FreeflyAPI/QX_Parsing_Functions.c ****             if(*v < min) *v = min;
 1412              		.loc 1 283 0 is_stmt 1
 1413 008c 2168     		ldr	r1, [r4]	@ float
 1414 008e 3046     		mov	r0, r6
 1415 0090 FFF7FEFF 		bl	__aeabi_fcmpgt
ARM GAS  C:\Users\hamis\AppData\Local\Temp\cc1fRzXM.s 			page 31


 1416              	.LVL166:
 1417 0094 00B1     		cbz	r0, .L164
 1418              		.loc 1 283 0 is_stmt 0 discriminator 1
 1419 0096 2660     		str	r6, [r4]	@ float
 1420              	.L164:
 284:..\..\FreeflyAPI/QX_Parsing_Functions.c ****             if(isnan(*v)) *v = 0.0f;
 1421              		.loc 1 284 0 is_stmt 1
 1422 0098 2168     		ldr	r1, [r4]	@ float
 1423 009a 0846     		mov	r0, r1
 1424 009c FFF7FEFF 		bl	__aeabi_fcmpun
 1425              	.LVL167:
 1426 00a0 08B1     		cbz	r0, .L166
 1427              		.loc 1 284 0 is_stmt 0 discriminator 1
 1428 00a2 0023     		movs	r3, #0
 1429 00a4 2360     		str	r3, [r4]	@ float
 1430              	.L166:
 285:..\..\FreeflyAPI/QX_Parsing_Functions.c ****             v++;
 1431              		.loc 1 285 0 is_stmt 1
 1432 00a6 0434     		adds	r4, r4, #4
 1433              	.LVL168:
 1434              	.LBE14:
 277:..\..\FreeflyAPI/QX_Parsing_Functions.c ****         {
 1435              		.loc 1 277 0
 1436 00a8 3946     		mov	r1, r7
 1437              	.LVL169:
 1438              	.L153:
 1439 00aa 4F1E     		subs	r7, r1, #1
 1440              	.LVL170:
 1441 00ac 0029     		cmp	r1, #0
 1442 00ae DBD1     		bne	.L168
 1443 00b0 BDE8F081 		pop	{r4, r5, r6, r7, r8, pc}
 1444              	.LVL171:
 1445              	.L177:
 1446              		.align	2
 1447              	.L176:
 1448 00b4 00000000 		.word	rw
 1449 00b8 00000000 		.word	msgPtr
 1450              		.cfi_endproc
 1451              	.LFE17:
 1452              		.size	GetFloatAsUnsignedChar, .-GetFloatAsUnsignedChar
 1453              		.section	.text.GetFloatAsUnsignedShort,"ax",%progbits
 1454              		.align	2
 1455              		.global	GetFloatAsUnsignedShort
 1456              		.thumb
 1457              		.thumb_func
 1458              		.type	GetFloatAsUnsignedShort, %function
 1459              	GetFloatAsUnsignedShort:
 1460              	.LFB18:
 286:..\..\FreeflyAPI/QX_Parsing_Functions.c ****         }
 287:..\..\FreeflyAPI/QX_Parsing_Functions.c ****     }
 288:..\..\FreeflyAPI/QX_Parsing_Functions.c **** }
 289:..\..\FreeflyAPI/QX_Parsing_Functions.c **** 
 290:..\..\FreeflyAPI/QX_Parsing_Functions.c **** void GetFloatAsUnsignedShort(float *v, uint32_t n, float max, float min, float scalefrom)
 291:..\..\FreeflyAPI/QX_Parsing_Functions.c **** {
 1461              		.loc 1 291 0
 1462              		.cfi_startproc
 1463              		@ args = 4, pretend = 0, frame = 0
ARM GAS  C:\Users\hamis\AppData\Local\Temp\cc1fRzXM.s 			page 32


 1464              		@ frame_needed = 0, uses_anonymous_args = 0
 1465              	.LVL172:
 1466 0000 2DE9F047 		push	{r4, r5, r6, r7, r8, r9, r10, lr}
 1467              		.cfi_def_cfa_offset 32
 1468              		.cfi_offset 4, -32
 1469              		.cfi_offset 5, -28
 1470              		.cfi_offset 6, -24
 1471              		.cfi_offset 7, -20
 1472              		.cfi_offset 8, -16
 1473              		.cfi_offset 9, -12
 1474              		.cfi_offset 10, -8
 1475              		.cfi_offset 14, -4
 1476 0004 0446     		mov	r4, r0
 1477 0006 1646     		mov	r6, r2
 1478 0008 1F46     		mov	r7, r3
 1479 000a DDF82090 		ldr	r9, [sp, #32]	@ float
 292:..\..\FreeflyAPI/QX_Parsing_Functions.c ****     if(rw == QB_Parser_Dir_WriteDel)
 1480              		.loc 1 292 0
 1481 000e 304B     		ldr	r3, .L203
 1482              	.LVL173:
 1483 0010 1B78     		ldrb	r3, [r3]	@ zero_extendqisi2
 1484 0012 012B     		cmp	r3, #1
 1485 0014 55D1     		bne	.L180
 1486 0016 27E0     		b	.L179
 1487              	.LVL174:
 1488              	.L187:
 1489              	.LBB15:
 293:..\..\FreeflyAPI/QX_Parsing_Functions.c ****     {
 294:..\..\FreeflyAPI/QX_Parsing_Functions.c ****         while(n--)
 295:..\..\FreeflyAPI/QX_Parsing_Functions.c ****         {
 296:..\..\FreeflyAPI/QX_Parsing_Functions.c ****             float r = (float)GETUS;
 1490              		.loc 1 296 0
 1491 0018 DFF8B8A0 		ldr	r10, .L203+4
 1492 001c DAF80050 		ldr	r5, [r10]
 1493 0020 2878     		ldrb	r0, [r5]	@ zero_extendqisi2
 1494 0022 6B78     		ldrb	r3, [r5, #1]	@ zero_extendqisi2
 1495 0024 43EA0020 		orr	r0, r3, r0, lsl #8
 1496 0028 FFF7FEFF 		bl	__aeabi_i2f
 1497              	.LVL175:
 1498 002c 0235     		adds	r5, r5, #2
 1499 002e CAF80050 		str	r5, [r10]
 297:..\..\FreeflyAPI/QX_Parsing_Functions.c ****             r = r * scalefrom;
 1500              		.loc 1 297 0
 1501 0032 4946     		mov	r1, r9
 1502 0034 FFF7FEFF 		bl	__aeabi_fmul
 1503              	.LVL176:
 298:..\..\FreeflyAPI/QX_Parsing_Functions.c ****             *v += (float)r;
 1504              		.loc 1 298 0
 1505 0038 2168     		ldr	r1, [r4]	@ float
 1506 003a FFF7FEFF 		bl	__aeabi_fadd
 1507              	.LVL177:
 1508 003e 2060     		str	r0, [r4]	@ float
 299:..\..\FreeflyAPI/QX_Parsing_Functions.c ****             if(max < *v) *v = max;
 1509              		.loc 1 299 0
 1510 0040 3146     		mov	r1, r6
 1511 0042 FFF7FEFF 		bl	__aeabi_fcmpgt
 1512              	.LVL178:
ARM GAS  C:\Users\hamis\AppData\Local\Temp\cc1fRzXM.s 			page 33


 1513 0046 00B1     		cbz	r0, .L181
 1514              		.loc 1 299 0 is_stmt 0 discriminator 1
 1515 0048 2660     		str	r6, [r4]	@ float
 1516              	.L181:
 300:..\..\FreeflyAPI/QX_Parsing_Functions.c ****             if(*v < min) *v = min;
 1517              		.loc 1 300 0 is_stmt 1
 1518 004a 3946     		mov	r1, r7
 1519 004c 2068     		ldr	r0, [r4]	@ float
 1520 004e FFF7FEFF 		bl	__aeabi_fcmplt
 1521              	.LVL179:
 1522 0052 00B1     		cbz	r0, .L183
 1523              		.loc 1 300 0 is_stmt 0 discriminator 1
 1524 0054 2760     		str	r7, [r4]	@ float
 1525              	.L183:
 301:..\..\FreeflyAPI/QX_Parsing_Functions.c ****             if(isnan(*v)) *v = 0.0f;
 1526              		.loc 1 301 0 is_stmt 1
 1527 0056 2168     		ldr	r1, [r4]	@ float
 1528 0058 0846     		mov	r0, r1
 1529 005a FFF7FEFF 		bl	__aeabi_fcmpun
 1530              	.LVL180:
 1531 005e 08B1     		cbz	r0, .L185
 1532              		.loc 1 301 0 is_stmt 0 discriminator 1
 1533 0060 0023     		movs	r3, #0
 1534 0062 2360     		str	r3, [r4]	@ float
 1535              	.L185:
 302:..\..\FreeflyAPI/QX_Parsing_Functions.c ****             v++;
 1536              		.loc 1 302 0 is_stmt 1
 1537 0064 0434     		adds	r4, r4, #4
 1538              	.LVL181:
 1539              	.LBE15:
 294:..\..\FreeflyAPI/QX_Parsing_Functions.c ****         {
 1540              		.loc 1 294 0
 1541 0066 4146     		mov	r1, r8
 1542              	.LVL182:
 1543              	.L179:
 1544 0068 01F1FF38 		add	r8, r1, #-1
 1545              	.LVL183:
 1546 006c 0029     		cmp	r1, #0
 1547 006e D3D1     		bne	.L187
 1548 0070 BDE8F087 		pop	{r4, r5, r6, r7, r8, r9, r10, pc}
 1549              	.LVL184:
 1550              	.L195:
 1551              	.LBB16:
 303:..\..\FreeflyAPI/QX_Parsing_Functions.c ****         }
 304:..\..\FreeflyAPI/QX_Parsing_Functions.c ****     }
 305:..\..\FreeflyAPI/QX_Parsing_Functions.c ****     else
 306:..\..\FreeflyAPI/QX_Parsing_Functions.c ****     {
 307:..\..\FreeflyAPI/QX_Parsing_Functions.c ****         while(n--)
 308:..\..\FreeflyAPI/QX_Parsing_Functions.c ****         {
 309:..\..\FreeflyAPI/QX_Parsing_Functions.c ****             float r = (float)GETUS;
 1552              		.loc 1 309 0
 1553 0074 DFF85CA0 		ldr	r10, .L203+4
 1554 0078 DAF80050 		ldr	r5, [r10]
 1555 007c 2878     		ldrb	r0, [r5]	@ zero_extendqisi2
 1556 007e 6B78     		ldrb	r3, [r5, #1]	@ zero_extendqisi2
 1557 0080 43EA0020 		orr	r0, r3, r0, lsl #8
 1558 0084 FFF7FEFF 		bl	__aeabi_i2f
ARM GAS  C:\Users\hamis\AppData\Local\Temp\cc1fRzXM.s 			page 34


 1559              	.LVL185:
 1560 0088 0235     		adds	r5, r5, #2
 1561 008a CAF80050 		str	r5, [r10]
 310:..\..\FreeflyAPI/QX_Parsing_Functions.c ****             r = r * scalefrom;
 1562              		.loc 1 310 0
 1563 008e 0146     		mov	r1, r0
 1564 0090 4846     		mov	r0, r9
 1565              	.LVL186:
 1566 0092 FFF7FEFF 		bl	__aeabi_fmul
 1567              	.LVL187:
 1568 0096 0146     		mov	r1, r0
 1569              	.LVL188:
 311:..\..\FreeflyAPI/QX_Parsing_Functions.c ****             *v = (float)r;
 1570              		.loc 1 311 0
 1571 0098 2060     		str	r0, [r4]	@ float
 312:..\..\FreeflyAPI/QX_Parsing_Functions.c ****             if(max < *v) *v = max;
 1572              		.loc 1 312 0
 1573 009a 3046     		mov	r0, r6
 1574              	.LVL189:
 1575 009c FFF7FEFF 		bl	__aeabi_fcmplt
 1576              	.LVL190:
 1577 00a0 00B1     		cbz	r0, .L189
 1578              		.loc 1 312 0 is_stmt 0 discriminator 1
 1579 00a2 2660     		str	r6, [r4]	@ float
 1580              	.L189:
 313:..\..\FreeflyAPI/QX_Parsing_Functions.c ****             if(*v < min) *v = min;
 1581              		.loc 1 313 0 is_stmt 1
 1582 00a4 2168     		ldr	r1, [r4]	@ float
 1583 00a6 3846     		mov	r0, r7
 1584 00a8 FFF7FEFF 		bl	__aeabi_fcmpgt
 1585              	.LVL191:
 1586 00ac 00B1     		cbz	r0, .L191
 1587              		.loc 1 313 0 is_stmt 0 discriminator 1
 1588 00ae 2760     		str	r7, [r4]	@ float
 1589              	.L191:
 314:..\..\FreeflyAPI/QX_Parsing_Functions.c ****             if(isnan(*v)) *v = 0.0f;
 1590              		.loc 1 314 0 is_stmt 1
 1591 00b0 2168     		ldr	r1, [r4]	@ float
 1592 00b2 0846     		mov	r0, r1
 1593 00b4 FFF7FEFF 		bl	__aeabi_fcmpun
 1594              	.LVL192:
 1595 00b8 08B1     		cbz	r0, .L193
 1596              		.loc 1 314 0 is_stmt 0 discriminator 1
 1597 00ba 0023     		movs	r3, #0
 1598 00bc 2360     		str	r3, [r4]	@ float
 1599              	.L193:
 315:..\..\FreeflyAPI/QX_Parsing_Functions.c ****             v++;
 1600              		.loc 1 315 0 is_stmt 1
 1601 00be 0434     		adds	r4, r4, #4
 1602              	.LVL193:
 1603              	.LBE16:
 307:..\..\FreeflyAPI/QX_Parsing_Functions.c ****         {
 1604              		.loc 1 307 0
 1605 00c0 4146     		mov	r1, r8
 1606              	.LVL194:
 1607              	.L180:
 1608 00c2 01F1FF38 		add	r8, r1, #-1
ARM GAS  C:\Users\hamis\AppData\Local\Temp\cc1fRzXM.s 			page 35


 1609              	.LVL195:
 1610 00c6 0029     		cmp	r1, #0
 1611 00c8 D4D1     		bne	.L195
 1612 00ca BDE8F087 		pop	{r4, r5, r6, r7, r8, r9, r10, pc}
 1613              	.LVL196:
 1614              	.L204:
 1615 00ce 00BF     		.align	2
 1616              	.L203:
 1617 00d0 00000000 		.word	rw
 1618 00d4 00000000 		.word	msgPtr
 1619              		.cfi_endproc
 1620              	.LFE18:
 1621              		.size	GetFloatAsUnsignedShort, .-GetFloatAsUnsignedShort
 1622              		.section	.text.AddSignedLongAsSignedLong,"ax",%progbits
 1623              		.align	2
 1624              		.global	AddSignedLongAsSignedLong
 1625              		.thumb
 1626              		.thumb_func
 1627              		.type	AddSignedLongAsSignedLong, %function
 1628              	AddSignedLongAsSignedLong:
 1629              	.LFB19:
 316:..\..\FreeflyAPI/QX_Parsing_Functions.c ****         }
 317:..\..\FreeflyAPI/QX_Parsing_Functions.c ****     }
 318:..\..\FreeflyAPI/QX_Parsing_Functions.c **** }
 319:..\..\FreeflyAPI/QX_Parsing_Functions.c **** 
 320:..\..\FreeflyAPI/QX_Parsing_Functions.c **** void AddSignedLongAsSignedLong(int32_t *v, uint32_t n)
 321:..\..\FreeflyAPI/QX_Parsing_Functions.c **** {
 1630              		.loc 1 321 0
 1631              		.cfi_startproc
 1632              		@ args = 0, pretend = 0, frame = 0
 1633              		@ frame_needed = 0, uses_anonymous_args = 0
 1634              		@ link register save eliminated.
 1635              	.LVL197:
 1636 0000 30B4     		push	{r4, r5}
 1637              		.cfi_def_cfa_offset 8
 1638              		.cfi_offset 4, -8
 1639              		.cfi_offset 5, -4
 322:..\..\FreeflyAPI/QX_Parsing_Functions.c ****     while(n--)
 1640              		.loc 1 322 0
 1641 0002 19E0     		b	.L206
 1642              	.LVL198:
 1643              	.L207:
 1644              	.LBB17:
 323:..\..\FreeflyAPI/QX_Parsing_Functions.c ****     {
 324:..\..\FreeflyAPI/QX_Parsing_Functions.c ****         int32_t value = *v;
 1645              		.loc 1 324 0
 1646 0004 50F8042B 		ldr	r2, [r0], #4
 1647              	.LVL199:
 325:..\..\FreeflyAPI/QX_Parsing_Functions.c ****         ADDSL(value);
 1648              		.loc 1 325 0
 1649 0008 0E4B     		ldr	r3, .L209
 1650 000a 1968     		ldr	r1, [r3]
 1651 000c 4D1C     		adds	r5, r1, #1
 1652 000e 1D60     		str	r5, [r3]
 1653 0010 150E     		lsrs	r5, r2, #24
 1654 0012 0D70     		strb	r5, [r1]
 1655 0014 1968     		ldr	r1, [r3]
ARM GAS  C:\Users\hamis\AppData\Local\Temp\cc1fRzXM.s 			page 36


 1656 0016 4D1C     		adds	r5, r1, #1
 1657 0018 1D60     		str	r5, [r3]
 1658 001a C2F30745 		ubfx	r5, r2, #16, #8
 1659 001e 0D70     		strb	r5, [r1]
 1660 0020 1968     		ldr	r1, [r3]
 1661 0022 4D1C     		adds	r5, r1, #1
 1662 0024 1D60     		str	r5, [r3]
 1663 0026 C2F30725 		ubfx	r5, r2, #8, #8
 1664 002a 0D70     		strb	r5, [r1]
 1665 002c 1968     		ldr	r1, [r3]
 1666 002e 4D1C     		adds	r5, r1, #1
 1667 0030 1D60     		str	r5, [r3]
 1668 0032 D2B2     		uxtb	r2, r2
 1669              	.LVL200:
 1670 0034 0A70     		strb	r2, [r1]
 1671              	.LVL201:
 1672              	.LBE17:
 322:..\..\FreeflyAPI/QX_Parsing_Functions.c ****     while(n--)
 1673              		.loc 1 322 0
 1674 0036 2146     		mov	r1, r4
 1675              	.LVL202:
 1676              	.L206:
 1677 0038 4C1E     		subs	r4, r1, #1
 1678              	.LVL203:
 1679 003a 0029     		cmp	r1, #0
 1680 003c E2D1     		bne	.L207
 326:..\..\FreeflyAPI/QX_Parsing_Functions.c ****         v++;
 327:..\..\FreeflyAPI/QX_Parsing_Functions.c ****     }
 328:..\..\FreeflyAPI/QX_Parsing_Functions.c **** }
 1681              		.loc 1 328 0
 1682 003e 30BC     		pop	{r4, r5}
 1683              		.cfi_restore 5
 1684              		.cfi_restore 4
 1685              		.cfi_def_cfa_offset 0
 1686              	.LVL204:
 1687 0040 7047     		bx	lr
 1688              	.L210:
 1689 0042 00BF     		.align	2
 1690              	.L209:
 1691 0044 00000000 		.word	msgPtr
 1692              		.cfi_endproc
 1693              	.LFE19:
 1694              		.size	AddSignedLongAsSignedLong, .-AddSignedLongAsSignedLong
 1695              		.section	.text.AddSignedLongAsSignedShort,"ax",%progbits
 1696              		.align	2
 1697              		.global	AddSignedLongAsSignedShort
 1698              		.thumb
 1699              		.thumb_func
 1700              		.type	AddSignedLongAsSignedShort, %function
 1701              	AddSignedLongAsSignedShort:
 1702              	.LFB20:
 329:..\..\FreeflyAPI/QX_Parsing_Functions.c **** 
 330:..\..\FreeflyAPI/QX_Parsing_Functions.c **** void AddSignedLongAsSignedShort(int32_t *v, uint32_t n)
 331:..\..\FreeflyAPI/QX_Parsing_Functions.c **** {
 1703              		.loc 1 331 0
 1704              		.cfi_startproc
 1705              		@ args = 0, pretend = 0, frame = 0
ARM GAS  C:\Users\hamis\AppData\Local\Temp\cc1fRzXM.s 			page 37


 1706              		@ frame_needed = 0, uses_anonymous_args = 0
 1707              		@ link register save eliminated.
 1708              	.LVL205:
 1709 0000 30B4     		push	{r4, r5}
 1710              		.cfi_def_cfa_offset 8
 1711              		.cfi_offset 4, -8
 1712              		.cfi_offset 5, -4
 332:..\..\FreeflyAPI/QX_Parsing_Functions.c ****     while(n--)
 1713              		.loc 1 332 0
 1714 0002 0EE0     		b	.L212
 1715              	.LVL206:
 1716              	.L213:
 1717              	.LBB18:
 333:..\..\FreeflyAPI/QX_Parsing_Functions.c ****     {
 334:..\..\FreeflyAPI/QX_Parsing_Functions.c ****         int16_t value = (int16_t)(*v);
 1718              		.loc 1 334 0
 1719 0004 50F8043B 		ldr	r3, [r0], #4
 1720              	.LVL207:
 335:..\..\FreeflyAPI/QX_Parsing_Functions.c ****         ADDSS(value);
 1721              		.loc 1 335 0
 1722 0008 084A     		ldr	r2, .L215
 1723 000a 1168     		ldr	r1, [r2]
 1724 000c 4D1C     		adds	r5, r1, #1
 1725 000e 1560     		str	r5, [r2]
 1726 0010 C3F30725 		ubfx	r5, r3, #8, #8
 1727 0014 0D70     		strb	r5, [r1]
 1728 0016 1168     		ldr	r1, [r2]
 1729 0018 4D1C     		adds	r5, r1, #1
 1730 001a 1560     		str	r5, [r2]
 1731 001c DBB2     		uxtb	r3, r3
 1732              	.LVL208:
 1733 001e 0B70     		strb	r3, [r1]
 1734              	.LVL209:
 1735              	.LBE18:
 332:..\..\FreeflyAPI/QX_Parsing_Functions.c ****     while(n--)
 1736              		.loc 1 332 0
 1737 0020 2146     		mov	r1, r4
 1738              	.LVL210:
 1739              	.L212:
 1740 0022 4C1E     		subs	r4, r1, #1
 1741              	.LVL211:
 1742 0024 0029     		cmp	r1, #0
 1743 0026 EDD1     		bne	.L213
 336:..\..\FreeflyAPI/QX_Parsing_Functions.c ****         v++;
 337:..\..\FreeflyAPI/QX_Parsing_Functions.c ****     }
 338:..\..\FreeflyAPI/QX_Parsing_Functions.c **** }
 1744              		.loc 1 338 0
 1745 0028 30BC     		pop	{r4, r5}
 1746              		.cfi_restore 5
 1747              		.cfi_restore 4
 1748              		.cfi_def_cfa_offset 0
 1749              	.LVL212:
 1750 002a 7047     		bx	lr
 1751              	.L216:
 1752              		.align	2
 1753              	.L215:
 1754 002c 00000000 		.word	msgPtr
ARM GAS  C:\Users\hamis\AppData\Local\Temp\cc1fRzXM.s 			page 38


 1755              		.cfi_endproc
 1756              	.LFE20:
 1757              		.size	AddSignedLongAsSignedShort, .-AddSignedLongAsSignedShort
 1758              		.section	.text.AddSignedLongAsSignedChar,"ax",%progbits
 1759              		.align	2
 1760              		.global	AddSignedLongAsSignedChar
 1761              		.thumb
 1762              		.thumb_func
 1763              		.type	AddSignedLongAsSignedChar, %function
 1764              	AddSignedLongAsSignedChar:
 1765              	.LFB21:
 339:..\..\FreeflyAPI/QX_Parsing_Functions.c **** 
 340:..\..\FreeflyAPI/QX_Parsing_Functions.c **** void AddSignedLongAsSignedChar(int32_t *v, uint32_t n)
 341:..\..\FreeflyAPI/QX_Parsing_Functions.c **** {
 1766              		.loc 1 341 0
 1767              		.cfi_startproc
 1768              		@ args = 0, pretend = 0, frame = 0
 1769              		@ frame_needed = 0, uses_anonymous_args = 0
 1770              		@ link register save eliminated.
 1771              	.LVL213:
 1772 0000 30B4     		push	{r4, r5}
 1773              		.cfi_def_cfa_offset 8
 1774              		.cfi_offset 4, -8
 1775              		.cfi_offset 5, -4
 342:..\..\FreeflyAPI/QX_Parsing_Functions.c ****     while(n--)
 1776              		.loc 1 342 0
 1777 0002 08E0     		b	.L218
 1778              	.LVL214:
 1779              	.L219:
 1780              	.LBB19:
 343:..\..\FreeflyAPI/QX_Parsing_Functions.c ****     {
 344:..\..\FreeflyAPI/QX_Parsing_Functions.c ****         int8_t value = (int8_t)(*v);
 1781              		.loc 1 344 0
 1782 0004 50F8043B 		ldr	r3, [r0], #4
 1783              	.LVL215:
 345:..\..\FreeflyAPI/QX_Parsing_Functions.c ****         ADDCHAR(value);
 1784              		.loc 1 345 0
 1785 0008 0549     		ldr	r1, .L221
 1786 000a 0A68     		ldr	r2, [r1]
 1787 000c 551C     		adds	r5, r2, #1
 1788 000e 0D60     		str	r5, [r1]
 1789 0010 DBB2     		uxtb	r3, r3
 1790 0012 1370     		strb	r3, [r2]
 1791              	.LVL216:
 1792              	.LBE19:
 342:..\..\FreeflyAPI/QX_Parsing_Functions.c ****     while(n--)
 1793              		.loc 1 342 0
 1794 0014 2146     		mov	r1, r4
 1795              	.LVL217:
 1796              	.L218:
 1797 0016 4C1E     		subs	r4, r1, #1
 1798              	.LVL218:
 1799 0018 0029     		cmp	r1, #0
 1800 001a F3D1     		bne	.L219
 346:..\..\FreeflyAPI/QX_Parsing_Functions.c ****         v++;
 347:..\..\FreeflyAPI/QX_Parsing_Functions.c ****     }
 348:..\..\FreeflyAPI/QX_Parsing_Functions.c **** }
ARM GAS  C:\Users\hamis\AppData\Local\Temp\cc1fRzXM.s 			page 39


 1801              		.loc 1 348 0
 1802 001c 30BC     		pop	{r4, r5}
 1803              		.cfi_restore 5
 1804              		.cfi_restore 4
 1805              		.cfi_def_cfa_offset 0
 1806              	.LVL219:
 1807 001e 7047     		bx	lr
 1808              	.L222:
 1809              		.align	2
 1810              	.L221:
 1811 0020 00000000 		.word	msgPtr
 1812              		.cfi_endproc
 1813              	.LFE21:
 1814              		.size	AddSignedLongAsSignedChar, .-AddSignedLongAsSignedChar
 1815              		.section	.text.AddSignedLongAsUnsignedChar,"ax",%progbits
 1816              		.align	2
 1817              		.global	AddSignedLongAsUnsignedChar
 1818              		.thumb
 1819              		.thumb_func
 1820              		.type	AddSignedLongAsUnsignedChar, %function
 1821              	AddSignedLongAsUnsignedChar:
 1822              	.LFB22:
 349:..\..\FreeflyAPI/QX_Parsing_Functions.c **** 
 350:..\..\FreeflyAPI/QX_Parsing_Functions.c **** void AddSignedLongAsUnsignedChar(int32_t *v, uint32_t n)
 351:..\..\FreeflyAPI/QX_Parsing_Functions.c **** {
 1823              		.loc 1 351 0
 1824              		.cfi_startproc
 1825              		@ args = 0, pretend = 0, frame = 0
 1826              		@ frame_needed = 0, uses_anonymous_args = 0
 1827              		@ link register save eliminated.
 1828              	.LVL220:
 1829 0000 30B4     		push	{r4, r5}
 1830              		.cfi_def_cfa_offset 8
 1831              		.cfi_offset 4, -8
 1832              		.cfi_offset 5, -4
 352:..\..\FreeflyAPI/QX_Parsing_Functions.c ****     while(n--)
 1833              		.loc 1 352 0
 1834 0002 08E0     		b	.L224
 1835              	.LVL221:
 1836              	.L225:
 1837              	.LBB20:
 353:..\..\FreeflyAPI/QX_Parsing_Functions.c ****     {
 354:..\..\FreeflyAPI/QX_Parsing_Functions.c ****         uint8_t value = (uint8_t)(*v);
 1838              		.loc 1 354 0
 1839 0004 50F8043B 		ldr	r3, [r0], #4
 1840              	.LVL222:
 1841 0008 DBB2     		uxtb	r3, r3
 1842              	.LVL223:
 355:..\..\FreeflyAPI/QX_Parsing_Functions.c ****         ADDCHAR(value);
 1843              		.loc 1 355 0
 1844 000a 0549     		ldr	r1, .L227
 1845 000c 0A68     		ldr	r2, [r1]
 1846 000e 551C     		adds	r5, r2, #1
 1847 0010 0D60     		str	r5, [r1]
 1848 0012 1370     		strb	r3, [r2]
 1849              	.LVL224:
 1850              	.LBE20:
ARM GAS  C:\Users\hamis\AppData\Local\Temp\cc1fRzXM.s 			page 40


 352:..\..\FreeflyAPI/QX_Parsing_Functions.c ****     while(n--)
 1851              		.loc 1 352 0
 1852 0014 2146     		mov	r1, r4
 1853              	.LVL225:
 1854              	.L224:
 1855 0016 4C1E     		subs	r4, r1, #1
 1856              	.LVL226:
 1857 0018 0029     		cmp	r1, #0
 1858 001a F3D1     		bne	.L225
 356:..\..\FreeflyAPI/QX_Parsing_Functions.c ****         v++;
 357:..\..\FreeflyAPI/QX_Parsing_Functions.c ****     }
 358:..\..\FreeflyAPI/QX_Parsing_Functions.c **** }
 1859              		.loc 1 358 0
 1860 001c 30BC     		pop	{r4, r5}
 1861              		.cfi_restore 5
 1862              		.cfi_restore 4
 1863              		.cfi_def_cfa_offset 0
 1864              	.LVL227:
 1865 001e 7047     		bx	lr
 1866              	.L228:
 1867              		.align	2
 1868              	.L227:
 1869 0020 00000000 		.word	msgPtr
 1870              		.cfi_endproc
 1871              	.LFE22:
 1872              		.size	AddSignedLongAsUnsignedChar, .-AddSignedLongAsUnsignedChar
 1873              		.section	.text.GetSignedLongAsSignedLong,"ax",%progbits
 1874              		.align	2
 1875              		.global	GetSignedLongAsSignedLong
 1876              		.thumb
 1877              		.thumb_func
 1878              		.type	GetSignedLongAsSignedLong, %function
 1879              	GetSignedLongAsSignedLong:
 1880              	.LFB23:
 359:..\..\FreeflyAPI/QX_Parsing_Functions.c **** 
 360:..\..\FreeflyAPI/QX_Parsing_Functions.c **** void GetSignedLongAsSignedLong(int32_t *v, uint32_t n, int32_t max, int32_t min)
 361:..\..\FreeflyAPI/QX_Parsing_Functions.c **** {
 1881              		.loc 1 361 0
 1882              		.cfi_startproc
 1883              		@ args = 0, pretend = 0, frame = 0
 1884              		@ frame_needed = 0, uses_anonymous_args = 0
 1885              		@ link register save eliminated.
 1886              	.LVL228:
 1887 0000 F0B4     		push	{r4, r5, r6, r7}
 1888              		.cfi_def_cfa_offset 16
 1889              		.cfi_offset 4, -16
 1890              		.cfi_offset 5, -12
 1891              		.cfi_offset 6, -8
 1892              		.cfi_offset 7, -4
 362:..\..\FreeflyAPI/QX_Parsing_Functions.c ****     if(rw == QB_Parser_Dir_WriteDel)
 1893              		.loc 1 362 0
 1894 0002 204C     		ldr	r4, .L240
 1895 0004 2478     		ldrb	r4, [r4]	@ zero_extendqisi2
 1896 0006 012C     		cmp	r4, #1
 1897 0008 36D1     		bne	.L231
 1898 000a 19E0     		b	.L230
 1899              	.LVL229:
ARM GAS  C:\Users\hamis\AppData\Local\Temp\cc1fRzXM.s 			page 41


 1900              	.L234:
 1901              	.LBB21:
 363:..\..\FreeflyAPI/QX_Parsing_Functions.c ****     {
 364:..\..\FreeflyAPI/QX_Parsing_Functions.c ****         while(n--)
 365:..\..\FreeflyAPI/QX_Parsing_Functions.c ****         {
 366:..\..\FreeflyAPI/QX_Parsing_Functions.c ****             int32_t r = GETSL;
 1902              		.loc 1 366 0
 1903 000c 1E4E     		ldr	r6, .L240+4
 1904 000e 3468     		ldr	r4, [r6]
 1905 0010 2778     		ldrb	r7, [r4]	@ zero_extendqisi2
 1906 0012 6178     		ldrb	r1, [r4, #1]	@ zero_extendqisi2
 1907 0014 0904     		lsls	r1, r1, #16
 1908 0016 41EA0761 		orr	r1, r1, r7, lsl #24
 1909 001a A778     		ldrb	r7, [r4, #2]	@ zero_extendqisi2
 1910 001c 41EA0721 		orr	r1, r1, r7, lsl #8
 1911 0020 E778     		ldrb	r7, [r4, #3]	@ zero_extendqisi2
 1912 0022 3943     		orrs	r1, r1, r7
 1913              	.LVL230:
 1914 0024 0434     		adds	r4, r4, #4
 1915 0026 3460     		str	r4, [r6]
 367:..\..\FreeflyAPI/QX_Parsing_Functions.c ****             *v += r;
 1916              		.loc 1 367 0
 1917 0028 0468     		ldr	r4, [r0]
 1918 002a 2144     		add	r1, r1, r4
 1919              	.LVL231:
 1920 002c 0160     		str	r1, [r0]
 368:..\..\FreeflyAPI/QX_Parsing_Functions.c ****             if(max < *v) *v = max;
 1921              		.loc 1 368 0
 1922 002e 9142     		cmp	r1, r2
 1923 0030 00DD     		ble	.L232
 1924              		.loc 1 368 0 is_stmt 0 discriminator 1
 1925 0032 0260     		str	r2, [r0]
 1926              	.L232:
 369:..\..\FreeflyAPI/QX_Parsing_Functions.c ****             if(*v < min) *v = min;
 1927              		.loc 1 369 0 is_stmt 1
 1928 0034 0168     		ldr	r1, [r0]
 1929 0036 9942     		cmp	r1, r3
 1930 0038 00DA     		bge	.L233
 1931              		.loc 1 369 0 is_stmt 0 discriminator 1
 1932 003a 0360     		str	r3, [r0]
 1933              	.L233:
 370:..\..\FreeflyAPI/QX_Parsing_Functions.c ****             v++;
 1934              		.loc 1 370 0 is_stmt 1
 1935 003c 0430     		adds	r0, r0, #4
 1936              	.LVL232:
 1937              	.LBE21:
 364:..\..\FreeflyAPI/QX_Parsing_Functions.c ****         {
 1938              		.loc 1 364 0
 1939 003e 2946     		mov	r1, r5
 1940              	.LVL233:
 1941              	.L230:
 1942 0040 4D1E     		subs	r5, r1, #1
 1943              	.LVL234:
 1944 0042 0029     		cmp	r1, #0
 1945 0044 E2D1     		bne	.L234
 1946 0046 1AE0     		b	.L229
 1947              	.LVL235:
ARM GAS  C:\Users\hamis\AppData\Local\Temp\cc1fRzXM.s 			page 42


 1948              	.L238:
 1949              	.LBB22:
 371:..\..\FreeflyAPI/QX_Parsing_Functions.c ****         }
 372:..\..\FreeflyAPI/QX_Parsing_Functions.c ****     }
 373:..\..\FreeflyAPI/QX_Parsing_Functions.c ****     else
 374:..\..\FreeflyAPI/QX_Parsing_Functions.c ****     {
 375:..\..\FreeflyAPI/QX_Parsing_Functions.c ****         while(n--)
 376:..\..\FreeflyAPI/QX_Parsing_Functions.c ****         {
 377:..\..\FreeflyAPI/QX_Parsing_Functions.c ****             int32_t r = GETSL;
 1950              		.loc 1 377 0
 1951 0048 0F4D     		ldr	r5, .L240+4
 1952 004a 2C68     		ldr	r4, [r5]
 1953 004c 2778     		ldrb	r7, [r4]	@ zero_extendqisi2
 1954 004e 6178     		ldrb	r1, [r4, #1]	@ zero_extendqisi2
 1955 0050 0904     		lsls	r1, r1, #16
 1956 0052 41EA0761 		orr	r1, r1, r7, lsl #24
 1957 0056 A778     		ldrb	r7, [r4, #2]	@ zero_extendqisi2
 1958 0058 41EA0721 		orr	r1, r1, r7, lsl #8
 1959 005c E778     		ldrb	r7, [r4, #3]	@ zero_extendqisi2
 1960 005e 3943     		orrs	r1, r1, r7
 1961              	.LVL236:
 1962 0060 0434     		adds	r4, r4, #4
 1963 0062 2C60     		str	r4, [r5]
 378:..\..\FreeflyAPI/QX_Parsing_Functions.c ****             *v = r;
 1964              		.loc 1 378 0
 1965 0064 0160     		str	r1, [r0]
 379:..\..\FreeflyAPI/QX_Parsing_Functions.c ****             if(max < *v) *v = max;
 1966              		.loc 1 379 0
 1967 0066 8A42     		cmp	r2, r1
 1968 0068 00DA     		bge	.L236
 1969              		.loc 1 379 0 is_stmt 0 discriminator 1
 1970 006a 0260     		str	r2, [r0]
 1971              	.L236:
 380:..\..\FreeflyAPI/QX_Parsing_Functions.c ****             if(*v < min) *v = min;
 1972              		.loc 1 380 0 is_stmt 1
 1973 006c 0168     		ldr	r1, [r0]
 1974              	.LVL237:
 1975 006e 8B42     		cmp	r3, r1
 1976 0070 00DD     		ble	.L237
 1977              		.loc 1 380 0 is_stmt 0 discriminator 1
 1978 0072 0360     		str	r3, [r0]
 1979              	.L237:
 381:..\..\FreeflyAPI/QX_Parsing_Functions.c ****             v++;
 1980              		.loc 1 381 0 is_stmt 1
 1981 0074 0430     		adds	r0, r0, #4
 1982              	.LVL238:
 1983              	.LBE22:
 375:..\..\FreeflyAPI/QX_Parsing_Functions.c ****         {
 1984              		.loc 1 375 0
 1985 0076 3146     		mov	r1, r6
 1986              	.LVL239:
 1987              	.L231:
 1988 0078 4E1E     		subs	r6, r1, #1
 1989              	.LVL240:
 1990 007a 0029     		cmp	r1, #0
 1991 007c E4D1     		bne	.L238
 1992              	.LVL241:
ARM GAS  C:\Users\hamis\AppData\Local\Temp\cc1fRzXM.s 			page 43


 1993              	.L229:
 382:..\..\FreeflyAPI/QX_Parsing_Functions.c ****         }
 383:..\..\FreeflyAPI/QX_Parsing_Functions.c ****     }
 384:..\..\FreeflyAPI/QX_Parsing_Functions.c **** }
 1994              		.loc 1 384 0
 1995 007e F0BC     		pop	{r4, r5, r6, r7}
 1996              		.cfi_restore 7
 1997              		.cfi_restore 6
 1998              		.cfi_restore 5
 1999              		.cfi_restore 4
 2000              		.cfi_def_cfa_offset 0
 2001 0080 7047     		bx	lr
 2002              	.L241:
 2003 0082 00BF     		.align	2
 2004              	.L240:
 2005 0084 00000000 		.word	rw
 2006 0088 00000000 		.word	msgPtr
 2007              		.cfi_endproc
 2008              	.LFE23:
 2009              		.size	GetSignedLongAsSignedLong, .-GetSignedLongAsSignedLong
 2010              		.section	.text.GetSignedLongAsSignedShort,"ax",%progbits
 2011              		.align	2
 2012              		.global	GetSignedLongAsSignedShort
 2013              		.thumb
 2014              		.thumb_func
 2015              		.type	GetSignedLongAsSignedShort, %function
 2016              	GetSignedLongAsSignedShort:
 2017              	.LFB24:
 385:..\..\FreeflyAPI/QX_Parsing_Functions.c **** 
 386:..\..\FreeflyAPI/QX_Parsing_Functions.c **** void GetSignedLongAsSignedShort(int32_t *v, uint32_t n, int32_t max, int32_t min)
 387:..\..\FreeflyAPI/QX_Parsing_Functions.c **** {
 2018              		.loc 1 387 0
 2019              		.cfi_startproc
 2020              		@ args = 0, pretend = 0, frame = 0
 2021              		@ frame_needed = 0, uses_anonymous_args = 0
 2022              		@ link register save eliminated.
 2023              	.LVL242:
 2024 0000 F0B4     		push	{r4, r5, r6, r7}
 2025              		.cfi_def_cfa_offset 16
 2026              		.cfi_offset 4, -16
 2027              		.cfi_offset 5, -12
 2028              		.cfi_offset 6, -8
 2029              		.cfi_offset 7, -4
 388:..\..\FreeflyAPI/QX_Parsing_Functions.c ****     if(rw == QB_Parser_Dir_WriteDel)
 2030              		.loc 1 388 0
 2031 0002 1B4C     		ldr	r4, .L253
 2032 0004 2478     		ldrb	r4, [r4]	@ zero_extendqisi2
 2033 0006 012C     		cmp	r4, #1
 2034 0008 2CD1     		bne	.L244
 2035 000a 14E0     		b	.L243
 2036              	.LVL243:
 2037              	.L247:
 2038              	.LBB23:
 389:..\..\FreeflyAPI/QX_Parsing_Functions.c ****     {
 390:..\..\FreeflyAPI/QX_Parsing_Functions.c ****         while(n--)
 391:..\..\FreeflyAPI/QX_Parsing_Functions.c ****         {
 392:..\..\FreeflyAPI/QX_Parsing_Functions.c ****             int32_t r = (int32_t)GETSS;
ARM GAS  C:\Users\hamis\AppData\Local\Temp\cc1fRzXM.s 			page 44


 2039              		.loc 1 392 0
 2040 000c 194D     		ldr	r5, .L253+4
 2041 000e 2C68     		ldr	r4, [r5]
 2042 0010 2178     		ldrb	r1, [r4]	@ zero_extendqisi2
 2043 0012 0902     		lsls	r1, r1, #8
 2044 0014 09B2     		sxth	r1, r1
 2045 0016 6778     		ldrb	r7, [r4, #1]	@ zero_extendqisi2
 2046 0018 3943     		orrs	r1, r1, r7
 2047              	.LVL244:
 2048 001a 0234     		adds	r4, r4, #2
 2049 001c 2C60     		str	r4, [r5]
 393:..\..\FreeflyAPI/QX_Parsing_Functions.c ****             *v += r;
 2050              		.loc 1 393 0
 2051 001e 0468     		ldr	r4, [r0]
 2052 0020 2144     		add	r1, r1, r4
 2053              	.LVL245:
 2054 0022 0160     		str	r1, [r0]
 394:..\..\FreeflyAPI/QX_Parsing_Functions.c ****             if(max < *v) *v = max;
 2055              		.loc 1 394 0
 2056 0024 9142     		cmp	r1, r2
 2057 0026 00DD     		ble	.L245
 2058              		.loc 1 394 0 is_stmt 0 discriminator 1
 2059 0028 0260     		str	r2, [r0]
 2060              	.L245:
 395:..\..\FreeflyAPI/QX_Parsing_Functions.c ****             if(*v < min) *v = min;
 2061              		.loc 1 395 0 is_stmt 1
 2062 002a 0168     		ldr	r1, [r0]
 2063 002c 9942     		cmp	r1, r3
 2064 002e 00DA     		bge	.L246
 2065              		.loc 1 395 0 is_stmt 0 discriminator 1
 2066 0030 0360     		str	r3, [r0]
 2067              	.L246:
 396:..\..\FreeflyAPI/QX_Parsing_Functions.c ****             v++;
 2068              		.loc 1 396 0 is_stmt 1
 2069 0032 0430     		adds	r0, r0, #4
 2070              	.LVL246:
 2071              	.LBE23:
 390:..\..\FreeflyAPI/QX_Parsing_Functions.c ****         {
 2072              		.loc 1 390 0
 2073 0034 3146     		mov	r1, r6
 2074              	.LVL247:
 2075              	.L243:
 2076 0036 4E1E     		subs	r6, r1, #1
 2077              	.LVL248:
 2078 0038 0029     		cmp	r1, #0
 2079 003a E7D1     		bne	.L247
 2080 003c 15E0     		b	.L242
 2081              	.L251:
 2082              	.LBB24:
 397:..\..\FreeflyAPI/QX_Parsing_Functions.c ****         }
 398:..\..\FreeflyAPI/QX_Parsing_Functions.c ****     }
 399:..\..\FreeflyAPI/QX_Parsing_Functions.c ****     else
 400:..\..\FreeflyAPI/QX_Parsing_Functions.c ****     {
 401:..\..\FreeflyAPI/QX_Parsing_Functions.c ****         while(n--)
 402:..\..\FreeflyAPI/QX_Parsing_Functions.c ****         {
 403:..\..\FreeflyAPI/QX_Parsing_Functions.c ****             int32_t r = (int32_t)GETSS;
 2083              		.loc 1 403 0
ARM GAS  C:\Users\hamis\AppData\Local\Temp\cc1fRzXM.s 			page 45


 2084 003e 0D4D     		ldr	r5, .L253+4
 2085 0040 2C68     		ldr	r4, [r5]
 2086 0042 2178     		ldrb	r1, [r4]	@ zero_extendqisi2
 2087 0044 0902     		lsls	r1, r1, #8
 2088 0046 09B2     		sxth	r1, r1
 2089 0048 6778     		ldrb	r7, [r4, #1]	@ zero_extendqisi2
 2090 004a 3943     		orrs	r1, r1, r7
 2091              	.LVL249:
 2092 004c 0234     		adds	r4, r4, #2
 2093 004e 2C60     		str	r4, [r5]
 404:..\..\FreeflyAPI/QX_Parsing_Functions.c ****             *v = r;
 2094              		.loc 1 404 0
 2095 0050 0160     		str	r1, [r0]
 405:..\..\FreeflyAPI/QX_Parsing_Functions.c ****             if(max < *v) *v = max;
 2096              		.loc 1 405 0
 2097 0052 8A42     		cmp	r2, r1
 2098 0054 00DA     		bge	.L249
 2099              		.loc 1 405 0 is_stmt 0 discriminator 1
 2100 0056 0260     		str	r2, [r0]
 2101              	.L249:
 406:..\..\FreeflyAPI/QX_Parsing_Functions.c ****             if(*v < min) *v = min;
 2102              		.loc 1 406 0 is_stmt 1
 2103 0058 0168     		ldr	r1, [r0]
 2104              	.LVL250:
 2105 005a 8B42     		cmp	r3, r1
 2106 005c 00DD     		ble	.L250
 2107              		.loc 1 406 0 is_stmt 0 discriminator 1
 2108 005e 0360     		str	r3, [r0]
 2109              	.L250:
 407:..\..\FreeflyAPI/QX_Parsing_Functions.c ****             v++;
 2110              		.loc 1 407 0 is_stmt 1
 2111 0060 0430     		adds	r0, r0, #4
 2112              	.LVL251:
 2113              	.LBE24:
 401:..\..\FreeflyAPI/QX_Parsing_Functions.c ****         {
 2114              		.loc 1 401 0
 2115 0062 3146     		mov	r1, r6
 2116              	.LVL252:
 2117              	.L244:
 2118 0064 4E1E     		subs	r6, r1, #1
 2119              	.LVL253:
 2120 0066 0029     		cmp	r1, #0
 2121 0068 E9D1     		bne	.L251
 2122              	.L242:
 408:..\..\FreeflyAPI/QX_Parsing_Functions.c ****         }
 409:..\..\FreeflyAPI/QX_Parsing_Functions.c ****     }
 410:..\..\FreeflyAPI/QX_Parsing_Functions.c **** }
 2123              		.loc 1 410 0
 2124 006a F0BC     		pop	{r4, r5, r6, r7}
 2125              		.cfi_restore 7
 2126              		.cfi_restore 6
 2127              		.cfi_restore 5
 2128              		.cfi_restore 4
 2129              		.cfi_def_cfa_offset 0
 2130              	.LVL254:
 2131 006c 7047     		bx	lr
 2132              	.L254:
ARM GAS  C:\Users\hamis\AppData\Local\Temp\cc1fRzXM.s 			page 46


 2133 006e 00BF     		.align	2
 2134              	.L253:
 2135 0070 00000000 		.word	rw
 2136 0074 00000000 		.word	msgPtr
 2137              		.cfi_endproc
 2138              	.LFE24:
 2139              		.size	GetSignedLongAsSignedShort, .-GetSignedLongAsSignedShort
 2140              		.section	.text.GetSignedLongAsSignedChar,"ax",%progbits
 2141              		.align	2
 2142              		.global	GetSignedLongAsSignedChar
 2143              		.thumb
 2144              		.thumb_func
 2145              		.type	GetSignedLongAsSignedChar, %function
 2146              	GetSignedLongAsSignedChar:
 2147              	.LFB25:
 411:..\..\FreeflyAPI/QX_Parsing_Functions.c **** 
 412:..\..\FreeflyAPI/QX_Parsing_Functions.c **** void GetSignedLongAsSignedChar(int32_t *v, uint32_t n, int32_t max, int32_t min)
 413:..\..\FreeflyAPI/QX_Parsing_Functions.c **** {
 2148              		.loc 1 413 0
 2149              		.cfi_startproc
 2150              		@ args = 0, pretend = 0, frame = 0
 2151              		@ frame_needed = 0, uses_anonymous_args = 0
 2152              		@ link register save eliminated.
 2153              	.LVL255:
 2154 0000 70B4     		push	{r4, r5, r6}
 2155              		.cfi_def_cfa_offset 12
 2156              		.cfi_offset 4, -12
 2157              		.cfi_offset 5, -8
 2158              		.cfi_offset 6, -4
 414:..\..\FreeflyAPI/QX_Parsing_Functions.c ****     if(rw == QB_Parser_Dir_WriteDel)
 2159              		.loc 1 414 0
 2160 0002 184C     		ldr	r4, .L266
 2161 0004 2478     		ldrb	r4, [r4]	@ zero_extendqisi2
 2162 0006 012C     		cmp	r4, #1
 2163 0008 26D1     		bne	.L257
 2164 000a 11E0     		b	.L256
 2165              	.LVL256:
 2166              	.L260:
 2167              	.LBB25:
 415:..\..\FreeflyAPI/QX_Parsing_Functions.c ****     {
 416:..\..\FreeflyAPI/QX_Parsing_Functions.c ****         while(n--)
 417:..\..\FreeflyAPI/QX_Parsing_Functions.c ****         {
 418:..\..\FreeflyAPI/QX_Parsing_Functions.c ****             int32_t r = (int32_t)GETSC;
 2168              		.loc 1 418 0
 2169 000c 164C     		ldr	r4, .L266+4
 2170 000e 2168     		ldr	r1, [r4]
 2171 0010 4E1C     		adds	r6, r1, #1
 2172 0012 2660     		str	r6, [r4]
 2173 0014 0978     		ldrb	r1, [r1]	@ zero_extendqisi2
 2174 0016 4CB2     		sxtb	r4, r1
 2175              	.LVL257:
 419:..\..\FreeflyAPI/QX_Parsing_Functions.c ****             *v += r;
 2176              		.loc 1 419 0
 2177 0018 0168     		ldr	r1, [r0]
 2178 001a 2144     		add	r1, r1, r4
 2179 001c 0160     		str	r1, [r0]
 420:..\..\FreeflyAPI/QX_Parsing_Functions.c ****             if(max < *v) *v = max;
ARM GAS  C:\Users\hamis\AppData\Local\Temp\cc1fRzXM.s 			page 47


 2180              		.loc 1 420 0
 2181 001e 9142     		cmp	r1, r2
 2182 0020 00DD     		ble	.L258
 2183              		.loc 1 420 0 is_stmt 0 discriminator 1
 2184 0022 0260     		str	r2, [r0]
 2185              	.L258:
 421:..\..\FreeflyAPI/QX_Parsing_Functions.c ****             if(*v < min) *v = min;
 2186              		.loc 1 421 0 is_stmt 1
 2187 0024 0168     		ldr	r1, [r0]
 2188 0026 9942     		cmp	r1, r3
 2189 0028 00DA     		bge	.L259
 2190              		.loc 1 421 0 is_stmt 0 discriminator 1
 2191 002a 0360     		str	r3, [r0]
 2192              	.L259:
 422:..\..\FreeflyAPI/QX_Parsing_Functions.c ****             v++;
 2193              		.loc 1 422 0 is_stmt 1
 2194 002c 0430     		adds	r0, r0, #4
 2195              	.LVL258:
 2196              	.LBE25:
 416:..\..\FreeflyAPI/QX_Parsing_Functions.c ****         {
 2197              		.loc 1 416 0
 2198 002e 2946     		mov	r1, r5
 2199              	.LVL259:
 2200              	.L256:
 2201 0030 4D1E     		subs	r5, r1, #1
 2202              	.LVL260:
 2203 0032 0029     		cmp	r1, #0
 2204 0034 EAD1     		bne	.L260
 2205 0036 12E0     		b	.L255
 2206              	.L264:
 2207              	.LBB26:
 423:..\..\FreeflyAPI/QX_Parsing_Functions.c ****         }
 424:..\..\FreeflyAPI/QX_Parsing_Functions.c ****     }
 425:..\..\FreeflyAPI/QX_Parsing_Functions.c ****     else
 426:..\..\FreeflyAPI/QX_Parsing_Functions.c ****     {
 427:..\..\FreeflyAPI/QX_Parsing_Functions.c ****         while(n--)
 428:..\..\FreeflyAPI/QX_Parsing_Functions.c ****         {
 429:..\..\FreeflyAPI/QX_Parsing_Functions.c ****             int32_t r = (int32_t)GETSC;
 2208              		.loc 1 429 0
 2209 0038 0B4C     		ldr	r4, .L266+4
 2210 003a 2168     		ldr	r1, [r4]
 2211 003c 4E1C     		adds	r6, r1, #1
 2212 003e 2660     		str	r6, [r4]
 2213 0040 0978     		ldrb	r1, [r1]	@ zero_extendqisi2
 2214 0042 49B2     		sxtb	r1, r1
 2215              	.LVL261:
 430:..\..\FreeflyAPI/QX_Parsing_Functions.c ****             *v = r;
 2216              		.loc 1 430 0
 2217 0044 0160     		str	r1, [r0]
 431:..\..\FreeflyAPI/QX_Parsing_Functions.c ****             if(max < *v) *v = max;
 2218              		.loc 1 431 0
 2219 0046 8A42     		cmp	r2, r1
 2220 0048 00DA     		bge	.L262
 2221              		.loc 1 431 0 is_stmt 0 discriminator 1
 2222 004a 0260     		str	r2, [r0]
 2223              	.L262:
 432:..\..\FreeflyAPI/QX_Parsing_Functions.c ****             if(*v < min) *v = min;
ARM GAS  C:\Users\hamis\AppData\Local\Temp\cc1fRzXM.s 			page 48


 2224              		.loc 1 432 0 is_stmt 1
 2225 004c 0168     		ldr	r1, [r0]
 2226              	.LVL262:
 2227 004e 8B42     		cmp	r3, r1
 2228 0050 00DD     		ble	.L263
 2229              		.loc 1 432 0 is_stmt 0 discriminator 1
 2230 0052 0360     		str	r3, [r0]
 2231              	.L263:
 433:..\..\FreeflyAPI/QX_Parsing_Functions.c ****             v++;
 2232              		.loc 1 433 0 is_stmt 1
 2233 0054 0430     		adds	r0, r0, #4
 2234              	.LVL263:
 2235              	.LBE26:
 427:..\..\FreeflyAPI/QX_Parsing_Functions.c ****         {
 2236              		.loc 1 427 0
 2237 0056 2946     		mov	r1, r5
 2238              	.LVL264:
 2239              	.L257:
 2240 0058 4D1E     		subs	r5, r1, #1
 2241              	.LVL265:
 2242 005a 0029     		cmp	r1, #0
 2243 005c ECD1     		bne	.L264
 2244              	.L255:
 434:..\..\FreeflyAPI/QX_Parsing_Functions.c ****         }
 435:..\..\FreeflyAPI/QX_Parsing_Functions.c ****     }
 436:..\..\FreeflyAPI/QX_Parsing_Functions.c **** }
 2245              		.loc 1 436 0
 2246 005e 70BC     		pop	{r4, r5, r6}
 2247              		.cfi_restore 6
 2248              		.cfi_restore 5
 2249              		.cfi_restore 4
 2250              		.cfi_def_cfa_offset 0
 2251              	.LVL266:
 2252 0060 7047     		bx	lr
 2253              	.L267:
 2254 0062 00BF     		.align	2
 2255              	.L266:
 2256 0064 00000000 		.word	rw
 2257 0068 00000000 		.word	msgPtr
 2258              		.cfi_endproc
 2259              	.LFE25:
 2260              		.size	GetSignedLongAsSignedChar, .-GetSignedLongAsSignedChar
 2261              		.section	.text.GetSignedLongAsUnsignedChar,"ax",%progbits
 2262              		.align	2
 2263              		.global	GetSignedLongAsUnsignedChar
 2264              		.thumb
 2265              		.thumb_func
 2266              		.type	GetSignedLongAsUnsignedChar, %function
 2267              	GetSignedLongAsUnsignedChar:
 2268              	.LFB26:
 437:..\..\FreeflyAPI/QX_Parsing_Functions.c **** 
 438:..\..\FreeflyAPI/QX_Parsing_Functions.c **** void GetSignedLongAsUnsignedChar(int32_t *v, uint32_t n, int32_t max, int32_t min)
 439:..\..\FreeflyAPI/QX_Parsing_Functions.c **** {
 2269              		.loc 1 439 0
 2270              		.cfi_startproc
 2271              		@ args = 0, pretend = 0, frame = 0
 2272              		@ frame_needed = 0, uses_anonymous_args = 0
ARM GAS  C:\Users\hamis\AppData\Local\Temp\cc1fRzXM.s 			page 49


 2273              		@ link register save eliminated.
 2274              	.LVL267:
 2275 0000 70B4     		push	{r4, r5, r6}
 2276              		.cfi_def_cfa_offset 12
 2277              		.cfi_offset 4, -12
 2278              		.cfi_offset 5, -8
 2279              		.cfi_offset 6, -4
 440:..\..\FreeflyAPI/QX_Parsing_Functions.c ****     if(rw == QB_Parser_Dir_WriteDel)
 2280              		.loc 1 440 0
 2281 0002 184C     		ldr	r4, .L279
 2282 0004 2478     		ldrb	r4, [r4]	@ zero_extendqisi2
 2283 0006 012C     		cmp	r4, #1
 2284 0008 26D1     		bne	.L270
 2285 000a 11E0     		b	.L269
 2286              	.LVL268:
 2287              	.L273:
 2288              	.LBB27:
 441:..\..\FreeflyAPI/QX_Parsing_Functions.c ****     {
 442:..\..\FreeflyAPI/QX_Parsing_Functions.c ****         while(n--)
 443:..\..\FreeflyAPI/QX_Parsing_Functions.c ****         {
 444:..\..\FreeflyAPI/QX_Parsing_Functions.c ****             int32_t r = (int32_t)GETSC;    // Force int8_t if relative change
 2289              		.loc 1 444 0
 2290 000c 164C     		ldr	r4, .L279+4
 2291 000e 2168     		ldr	r1, [r4]
 2292 0010 4E1C     		adds	r6, r1, #1
 2293 0012 2660     		str	r6, [r4]
 2294 0014 0978     		ldrb	r1, [r1]	@ zero_extendqisi2
 2295 0016 4CB2     		sxtb	r4, r1
 2296              	.LVL269:
 445:..\..\FreeflyAPI/QX_Parsing_Functions.c ****             *v += r;
 2297              		.loc 1 445 0
 2298 0018 0168     		ldr	r1, [r0]
 2299 001a 2144     		add	r1, r1, r4
 2300 001c 0160     		str	r1, [r0]
 446:..\..\FreeflyAPI/QX_Parsing_Functions.c ****             if(max < *v) *v = max;
 2301              		.loc 1 446 0
 2302 001e 9142     		cmp	r1, r2
 2303 0020 00DD     		ble	.L271
 2304              		.loc 1 446 0 is_stmt 0 discriminator 1
 2305 0022 0260     		str	r2, [r0]
 2306              	.L271:
 447:..\..\FreeflyAPI/QX_Parsing_Functions.c ****             if(*v < min) *v = min;
 2307              		.loc 1 447 0 is_stmt 1
 2308 0024 0168     		ldr	r1, [r0]
 2309 0026 9942     		cmp	r1, r3
 2310 0028 00DA     		bge	.L272
 2311              		.loc 1 447 0 is_stmt 0 discriminator 1
 2312 002a 0360     		str	r3, [r0]
 2313              	.L272:
 448:..\..\FreeflyAPI/QX_Parsing_Functions.c ****             v++;
 2314              		.loc 1 448 0 is_stmt 1
 2315 002c 0430     		adds	r0, r0, #4
 2316              	.LVL270:
 2317              	.LBE27:
 442:..\..\FreeflyAPI/QX_Parsing_Functions.c ****         {
 2318              		.loc 1 442 0
 2319 002e 2946     		mov	r1, r5
ARM GAS  C:\Users\hamis\AppData\Local\Temp\cc1fRzXM.s 			page 50


 2320              	.LVL271:
 2321              	.L269:
 2322 0030 4D1E     		subs	r5, r1, #1
 2323              	.LVL272:
 2324 0032 0029     		cmp	r1, #0
 2325 0034 EAD1     		bne	.L273
 2326 0036 12E0     		b	.L268
 2327              	.L277:
 2328              	.LBB28:
 449:..\..\FreeflyAPI/QX_Parsing_Functions.c ****         }
 450:..\..\FreeflyAPI/QX_Parsing_Functions.c ****     }
 451:..\..\FreeflyAPI/QX_Parsing_Functions.c ****     else
 452:..\..\FreeflyAPI/QX_Parsing_Functions.c ****     {
 453:..\..\FreeflyAPI/QX_Parsing_Functions.c ****         while(n--)
 454:..\..\FreeflyAPI/QX_Parsing_Functions.c ****         {
 455:..\..\FreeflyAPI/QX_Parsing_Functions.c ****             int32_t r = (int32_t)GETUC;
 2329              		.loc 1 455 0
 2330 0038 0B4C     		ldr	r4, .L279+4
 2331 003a 2168     		ldr	r1, [r4]
 2332 003c 4E1C     		adds	r6, r1, #1
 2333 003e 2660     		str	r6, [r4]
 2334 0040 0978     		ldrb	r1, [r1]	@ zero_extendqisi2
 2335 0042 C9B2     		uxtb	r1, r1
 2336              	.LVL273:
 456:..\..\FreeflyAPI/QX_Parsing_Functions.c ****             *v = r;
 2337              		.loc 1 456 0
 2338 0044 0160     		str	r1, [r0]
 457:..\..\FreeflyAPI/QX_Parsing_Functions.c ****             if(max < *v) *v = max;
 2339              		.loc 1 457 0
 2340 0046 8A42     		cmp	r2, r1
 2341 0048 00DA     		bge	.L275
 2342              		.loc 1 457 0 is_stmt 0 discriminator 1
 2343 004a 0260     		str	r2, [r0]
 2344              	.L275:
 458:..\..\FreeflyAPI/QX_Parsing_Functions.c ****             if(*v < min) *v = min;
 2345              		.loc 1 458 0 is_stmt 1
 2346 004c 0168     		ldr	r1, [r0]
 2347              	.LVL274:
 2348 004e 8B42     		cmp	r3, r1
 2349 0050 00DD     		ble	.L276
 2350              		.loc 1 458 0 is_stmt 0 discriminator 1
 2351 0052 0360     		str	r3, [r0]
 2352              	.L276:
 459:..\..\FreeflyAPI/QX_Parsing_Functions.c ****             v++;
 2353              		.loc 1 459 0 is_stmt 1
 2354 0054 0430     		adds	r0, r0, #4
 2355              	.LVL275:
 2356              	.LBE28:
 453:..\..\FreeflyAPI/QX_Parsing_Functions.c ****         {
 2357              		.loc 1 453 0
 2358 0056 2946     		mov	r1, r5
 2359              	.LVL276:
 2360              	.L270:
 2361 0058 4D1E     		subs	r5, r1, #1
 2362              	.LVL277:
 2363 005a 0029     		cmp	r1, #0
 2364 005c ECD1     		bne	.L277
ARM GAS  C:\Users\hamis\AppData\Local\Temp\cc1fRzXM.s 			page 51


 2365              	.L268:
 460:..\..\FreeflyAPI/QX_Parsing_Functions.c ****         }
 461:..\..\FreeflyAPI/QX_Parsing_Functions.c ****     }
 462:..\..\FreeflyAPI/QX_Parsing_Functions.c **** }
 2366              		.loc 1 462 0
 2367 005e 70BC     		pop	{r4, r5, r6}
 2368              		.cfi_restore 6
 2369              		.cfi_restore 5
 2370              		.cfi_restore 4
 2371              		.cfi_def_cfa_offset 0
 2372              	.LVL278:
 2373 0060 7047     		bx	lr
 2374              	.L280:
 2375 0062 00BF     		.align	2
 2376              	.L279:
 2377 0064 00000000 		.word	rw
 2378 0068 00000000 		.word	msgPtr
 2379              		.cfi_endproc
 2380              	.LFE26:
 2381              		.size	GetSignedLongAsUnsignedChar, .-GetSignedLongAsUnsignedChar
 2382              		.section	.text.AddSignedShortAsSignedShort,"ax",%progbits
 2383              		.align	2
 2384              		.global	AddSignedShortAsSignedShort
 2385              		.thumb
 2386              		.thumb_func
 2387              		.type	AddSignedShortAsSignedShort, %function
 2388              	AddSignedShortAsSignedShort:
 2389              	.LFB27:
 463:..\..\FreeflyAPI/QX_Parsing_Functions.c **** 
 464:..\..\FreeflyAPI/QX_Parsing_Functions.c **** void AddSignedShortAsSignedShort(int16_t *v, uint32_t n)
 465:..\..\FreeflyAPI/QX_Parsing_Functions.c **** {
 2390              		.loc 1 465 0
 2391              		.cfi_startproc
 2392              		@ args = 0, pretend = 0, frame = 0
 2393              		@ frame_needed = 0, uses_anonymous_args = 0
 2394              		@ link register save eliminated.
 2395              	.LVL279:
 2396 0000 30B4     		push	{r4, r5}
 2397              		.cfi_def_cfa_offset 8
 2398              		.cfi_offset 4, -8
 2399              		.cfi_offset 5, -4
 466:..\..\FreeflyAPI/QX_Parsing_Functions.c ****     while(n--)
 2400              		.loc 1 466 0
 2401 0002 0EE0     		b	.L282
 2402              	.LVL280:
 2403              	.L283:
 2404              	.LBB29:
 467:..\..\FreeflyAPI/QX_Parsing_Functions.c ****     {
 468:..\..\FreeflyAPI/QX_Parsing_Functions.c ****         int16_t value = *v;
 2405              		.loc 1 468 0
 2406 0004 30F9023B 		ldrsh	r3, [r0], #2
 2407              	.LVL281:
 469:..\..\FreeflyAPI/QX_Parsing_Functions.c ****         ADDSS(value);
 2408              		.loc 1 469 0
 2409 0008 084A     		ldr	r2, .L285
 2410 000a 1168     		ldr	r1, [r2]
 2411 000c 4D1C     		adds	r5, r1, #1
ARM GAS  C:\Users\hamis\AppData\Local\Temp\cc1fRzXM.s 			page 52


 2412 000e 1560     		str	r5, [r2]
 2413 0010 C3F30725 		ubfx	r5, r3, #8, #8
 2414 0014 0D70     		strb	r5, [r1]
 2415 0016 1168     		ldr	r1, [r2]
 2416 0018 4D1C     		adds	r5, r1, #1
 2417 001a 1560     		str	r5, [r2]
 2418 001c DBB2     		uxtb	r3, r3
 2419              	.LVL282:
 2420 001e 0B70     		strb	r3, [r1]
 2421              	.LVL283:
 2422              	.LBE29:
 466:..\..\FreeflyAPI/QX_Parsing_Functions.c ****     while(n--)
 2423              		.loc 1 466 0
 2424 0020 2146     		mov	r1, r4
 2425              	.LVL284:
 2426              	.L282:
 2427 0022 4C1E     		subs	r4, r1, #1
 2428              	.LVL285:
 2429 0024 0029     		cmp	r1, #0
 2430 0026 EDD1     		bne	.L283
 470:..\..\FreeflyAPI/QX_Parsing_Functions.c ****         v++;
 471:..\..\FreeflyAPI/QX_Parsing_Functions.c ****     }
 472:..\..\FreeflyAPI/QX_Parsing_Functions.c **** }
 2431              		.loc 1 472 0
 2432 0028 30BC     		pop	{r4, r5}
 2433              		.cfi_restore 5
 2434              		.cfi_restore 4
 2435              		.cfi_def_cfa_offset 0
 2436              	.LVL286:
 2437 002a 7047     		bx	lr
 2438              	.L286:
 2439              		.align	2
 2440              	.L285:
 2441 002c 00000000 		.word	msgPtr
 2442              		.cfi_endproc
 2443              	.LFE27:
 2444              		.size	AddSignedShortAsSignedShort, .-AddSignedShortAsSignedShort
 2445              		.section	.text.AddSignedShortAsSignedChar,"ax",%progbits
 2446              		.align	2
 2447              		.global	AddSignedShortAsSignedChar
 2448              		.thumb
 2449              		.thumb_func
 2450              		.type	AddSignedShortAsSignedChar, %function
 2451              	AddSignedShortAsSignedChar:
 2452              	.LFB28:
 473:..\..\FreeflyAPI/QX_Parsing_Functions.c **** 
 474:..\..\FreeflyAPI/QX_Parsing_Functions.c **** void AddSignedShortAsSignedChar(int16_t *v, uint32_t n)
 475:..\..\FreeflyAPI/QX_Parsing_Functions.c **** {
 2453              		.loc 1 475 0
 2454              		.cfi_startproc
 2455              		@ args = 0, pretend = 0, frame = 0
 2456              		@ frame_needed = 0, uses_anonymous_args = 0
 2457              		@ link register save eliminated.
 2458              	.LVL287:
 2459 0000 30B4     		push	{r4, r5}
 2460              		.cfi_def_cfa_offset 8
 2461              		.cfi_offset 4, -8
ARM GAS  C:\Users\hamis\AppData\Local\Temp\cc1fRzXM.s 			page 53


 2462              		.cfi_offset 5, -4
 476:..\..\FreeflyAPI/QX_Parsing_Functions.c ****     while(n--)
 2463              		.loc 1 476 0
 2464 0002 08E0     		b	.L288
 2465              	.LVL288:
 2466              	.L289:
 2467              	.LBB30:
 477:..\..\FreeflyAPI/QX_Parsing_Functions.c ****     {
 478:..\..\FreeflyAPI/QX_Parsing_Functions.c ****         int8_t value = (int8_t)(*v);
 2468              		.loc 1 478 0
 2469 0004 30F9023B 		ldrsh	r3, [r0], #2
 2470              	.LVL289:
 479:..\..\FreeflyAPI/QX_Parsing_Functions.c ****         ADDCHAR(value);
 2471              		.loc 1 479 0
 2472 0008 0549     		ldr	r1, .L291
 2473 000a 0A68     		ldr	r2, [r1]
 2474 000c 551C     		adds	r5, r2, #1
 2475 000e 0D60     		str	r5, [r1]
 2476 0010 DBB2     		uxtb	r3, r3
 2477 0012 1370     		strb	r3, [r2]
 2478              	.LVL290:
 2479              	.LBE30:
 476:..\..\FreeflyAPI/QX_Parsing_Functions.c ****     while(n--)
 2480              		.loc 1 476 0
 2481 0014 2146     		mov	r1, r4
 2482              	.LVL291:
 2483              	.L288:
 2484 0016 4C1E     		subs	r4, r1, #1
 2485              	.LVL292:
 2486 0018 0029     		cmp	r1, #0
 2487 001a F3D1     		bne	.L289
 480:..\..\FreeflyAPI/QX_Parsing_Functions.c ****         v++;
 481:..\..\FreeflyAPI/QX_Parsing_Functions.c ****     }
 482:..\..\FreeflyAPI/QX_Parsing_Functions.c **** }
 2488              		.loc 1 482 0
 2489 001c 30BC     		pop	{r4, r5}
 2490              		.cfi_restore 5
 2491              		.cfi_restore 4
 2492              		.cfi_def_cfa_offset 0
 2493              	.LVL293:
 2494 001e 7047     		bx	lr
 2495              	.L292:
 2496              		.align	2
 2497              	.L291:
 2498 0020 00000000 		.word	msgPtr
 2499              		.cfi_endproc
 2500              	.LFE28:
 2501              		.size	AddSignedShortAsSignedChar, .-AddSignedShortAsSignedChar
 2502              		.section	.text.AddSignedShortAsUnsignedChar,"ax",%progbits
 2503              		.align	2
 2504              		.global	AddSignedShortAsUnsignedChar
 2505              		.thumb
 2506              		.thumb_func
 2507              		.type	AddSignedShortAsUnsignedChar, %function
 2508              	AddSignedShortAsUnsignedChar:
 2509              	.LFB29:
 483:..\..\FreeflyAPI/QX_Parsing_Functions.c **** 
ARM GAS  C:\Users\hamis\AppData\Local\Temp\cc1fRzXM.s 			page 54


 484:..\..\FreeflyAPI/QX_Parsing_Functions.c **** void AddSignedShortAsUnsignedChar(int16_t *v, uint32_t n)
 485:..\..\FreeflyAPI/QX_Parsing_Functions.c **** {
 2510              		.loc 1 485 0
 2511              		.cfi_startproc
 2512              		@ args = 0, pretend = 0, frame = 0
 2513              		@ frame_needed = 0, uses_anonymous_args = 0
 2514              		@ link register save eliminated.
 2515              	.LVL294:
 2516 0000 30B4     		push	{r4, r5}
 2517              		.cfi_def_cfa_offset 8
 2518              		.cfi_offset 4, -8
 2519              		.cfi_offset 5, -4
 486:..\..\FreeflyAPI/QX_Parsing_Functions.c ****     while(n--)
 2520              		.loc 1 486 0
 2521 0002 08E0     		b	.L294
 2522              	.LVL295:
 2523              	.L295:
 2524              	.LBB31:
 487:..\..\FreeflyAPI/QX_Parsing_Functions.c ****     {
 488:..\..\FreeflyAPI/QX_Parsing_Functions.c ****         uint8_t value = (uint8_t)(*v);
 2525              		.loc 1 488 0
 2526 0004 30F9023B 		ldrsh	r3, [r0], #2
 2527              	.LVL296:
 2528 0008 DBB2     		uxtb	r3, r3
 2529              	.LVL297:
 489:..\..\FreeflyAPI/QX_Parsing_Functions.c ****         ADDCHAR(value);
 2530              		.loc 1 489 0
 2531 000a 0549     		ldr	r1, .L297
 2532 000c 0A68     		ldr	r2, [r1]
 2533 000e 551C     		adds	r5, r2, #1
 2534 0010 0D60     		str	r5, [r1]
 2535 0012 1370     		strb	r3, [r2]
 2536              	.LVL298:
 2537              	.LBE31:
 486:..\..\FreeflyAPI/QX_Parsing_Functions.c ****     while(n--)
 2538              		.loc 1 486 0
 2539 0014 2146     		mov	r1, r4
 2540              	.LVL299:
 2541              	.L294:
 2542 0016 4C1E     		subs	r4, r1, #1
 2543              	.LVL300:
 2544 0018 0029     		cmp	r1, #0
 2545 001a F3D1     		bne	.L295
 490:..\..\FreeflyAPI/QX_Parsing_Functions.c ****         v++;
 491:..\..\FreeflyAPI/QX_Parsing_Functions.c ****     }
 492:..\..\FreeflyAPI/QX_Parsing_Functions.c **** }
 2546              		.loc 1 492 0
 2547 001c 30BC     		pop	{r4, r5}
 2548              		.cfi_restore 5
 2549              		.cfi_restore 4
 2550              		.cfi_def_cfa_offset 0
 2551              	.LVL301:
 2552 001e 7047     		bx	lr
 2553              	.L298:
 2554              		.align	2
 2555              	.L297:
 2556 0020 00000000 		.word	msgPtr
ARM GAS  C:\Users\hamis\AppData\Local\Temp\cc1fRzXM.s 			page 55


 2557              		.cfi_endproc
 2558              	.LFE29:
 2559              		.size	AddSignedShortAsUnsignedChar, .-AddSignedShortAsUnsignedChar
 2560              		.section	.text.GetSignedShortAsSignedShort,"ax",%progbits
 2561              		.align	2
 2562              		.global	GetSignedShortAsSignedShort
 2563              		.thumb
 2564              		.thumb_func
 2565              		.type	GetSignedShortAsSignedShort, %function
 2566              	GetSignedShortAsSignedShort:
 2567              	.LFB30:
 493:..\..\FreeflyAPI/QX_Parsing_Functions.c **** 
 494:..\..\FreeflyAPI/QX_Parsing_Functions.c **** void GetSignedShortAsSignedShort(int16_t *v, uint32_t n, float max, float min)
 495:..\..\FreeflyAPI/QX_Parsing_Functions.c **** {
 2568              		.loc 1 495 0
 2569              		.cfi_startproc
 2570              		@ args = 0, pretend = 0, frame = 0
 2571              		@ frame_needed = 0, uses_anonymous_args = 0
 2572              	.LVL302:
 2573 0000 F8B5     		push	{r3, r4, r5, r6, r7, lr}
 2574              		.cfi_def_cfa_offset 24
 2575              		.cfi_offset 3, -24
 2576              		.cfi_offset 4, -20
 2577              		.cfi_offset 5, -16
 2578              		.cfi_offset 6, -12
 2579              		.cfi_offset 7, -8
 2580              		.cfi_offset 14, -4
 2581 0002 0446     		mov	r4, r0
 2582 0004 1546     		mov	r5, r2
 2583 0006 1E46     		mov	r6, r3
 496:..\..\FreeflyAPI/QX_Parsing_Functions.c ****     if(rw == QB_Parser_Dir_WriteDel)
 2584              		.loc 1 496 0
 2585 0008 2A4B     		ldr	r3, .L318
 2586              	.LVL303:
 2587 000a 1B78     		ldrb	r3, [r3]	@ zero_extendqisi2
 2588 000c 012B     		cmp	r3, #1
 2589 000e 4DD1     		bne	.L301
 2590 0010 24E0     		b	.L300
 2591              	.LVL304:
 2592              	.L306:
 2593              	.LBB32:
 497:..\..\FreeflyAPI/QX_Parsing_Functions.c ****     {
 498:..\..\FreeflyAPI/QX_Parsing_Functions.c ****         while(n--)
 499:..\..\FreeflyAPI/QX_Parsing_Functions.c ****         {
 500:..\..\FreeflyAPI/QX_Parsing_Functions.c ****             int16_t r = GETSS;
 2594              		.loc 1 500 0
 2595 0012 2949     		ldr	r1, .L318+4
 2596 0014 0A68     		ldr	r2, [r1]
 2597 0016 1378     		ldrb	r3, [r2]	@ zero_extendqisi2
 2598 0018 1B02     		lsls	r3, r3, #8
 2599 001a 1BB2     		sxth	r3, r3
 2600 001c 5078     		ldrb	r0, [r2, #1]	@ zero_extendqisi2
 2601 001e 0343     		orrs	r3, r3, r0
 2602              	.LVL305:
 2603 0020 0232     		adds	r2, r2, #2
 2604 0022 0A60     		str	r2, [r1]
 501:..\..\FreeflyAPI/QX_Parsing_Functions.c ****             *v += r;
ARM GAS  C:\Users\hamis\AppData\Local\Temp\cc1fRzXM.s 			page 56


 2605              		.loc 1 501 0
 2606 0024 2088     		ldrh	r0, [r4]
 2607 0026 1844     		add	r0, r0, r3
 2608 0028 00B2     		sxth	r0, r0
 2609 002a 2080     		strh	r0, [r4]	@ movhi
 502:..\..\FreeflyAPI/QX_Parsing_Functions.c ****             if(max < *v) *v = max;
 2610              		.loc 1 502 0
 2611 002c FFF7FEFF 		bl	__aeabi_i2f
 2612              	.LVL306:
 2613 0030 2946     		mov	r1, r5
 2614 0032 FFF7FEFF 		bl	__aeabi_fcmpgt
 2615              	.LVL307:
 2616 0036 18B1     		cbz	r0, .L302
 2617              		.loc 1 502 0 is_stmt 0 discriminator 1
 2618 0038 2846     		mov	r0, r5
 2619 003a FFF7FEFF 		bl	__aeabi_f2iz
 2620              	.LVL308:
 2621 003e 2080     		strh	r0, [r4]	@ movhi
 2622              	.L302:
 503:..\..\FreeflyAPI/QX_Parsing_Functions.c ****             if(*v < min) *v = min;
 2623              		.loc 1 503 0 is_stmt 1
 2624 0040 B4F90000 		ldrsh	r0, [r4]
 2625 0044 FFF7FEFF 		bl	__aeabi_i2f
 2626              	.LVL309:
 2627 0048 3146     		mov	r1, r6
 2628 004a FFF7FEFF 		bl	__aeabi_fcmplt
 2629              	.LVL310:
 2630 004e 18B1     		cbz	r0, .L304
 2631              		.loc 1 503 0 is_stmt 0 discriminator 1
 2632 0050 3046     		mov	r0, r6
 2633 0052 FFF7FEFF 		bl	__aeabi_f2iz
 2634              	.LVL311:
 2635 0056 2080     		strh	r0, [r4]	@ movhi
 2636              	.L304:
 504:..\..\FreeflyAPI/QX_Parsing_Functions.c ****             v++;
 2637              		.loc 1 504 0 is_stmt 1
 2638 0058 0234     		adds	r4, r4, #2
 2639              	.LVL312:
 2640              	.LBE32:
 498:..\..\FreeflyAPI/QX_Parsing_Functions.c ****         {
 2641              		.loc 1 498 0
 2642 005a 3946     		mov	r1, r7
 2643              	.LVL313:
 2644              	.L300:
 2645 005c 4F1E     		subs	r7, r1, #1
 2646              	.LVL314:
 2647 005e 0029     		cmp	r1, #0
 2648 0060 D7D1     		bne	.L306
 2649 0062 F8BD     		pop	{r3, r4, r5, r6, r7, pc}
 2650              	.LVL315:
 2651              	.L312:
 2652              	.LBB33:
 505:..\..\FreeflyAPI/QX_Parsing_Functions.c ****         }
 506:..\..\FreeflyAPI/QX_Parsing_Functions.c ****     }
 507:..\..\FreeflyAPI/QX_Parsing_Functions.c ****     else
 508:..\..\FreeflyAPI/QX_Parsing_Functions.c ****     {
 509:..\..\FreeflyAPI/QX_Parsing_Functions.c ****         while(n--)
ARM GAS  C:\Users\hamis\AppData\Local\Temp\cc1fRzXM.s 			page 57


 510:..\..\FreeflyAPI/QX_Parsing_Functions.c ****         {
 511:..\..\FreeflyAPI/QX_Parsing_Functions.c ****             int16_t r = GETSS;
 2653              		.loc 1 511 0
 2654 0064 144A     		ldr	r2, .L318+4
 2655 0066 1368     		ldr	r3, [r2]
 2656 0068 1878     		ldrb	r0, [r3]	@ zero_extendqisi2
 2657 006a 0002     		lsls	r0, r0, #8
 2658 006c 00B2     		sxth	r0, r0
 2659 006e 5978     		ldrb	r1, [r3, #1]	@ zero_extendqisi2
 2660 0070 0843     		orrs	r0, r0, r1
 2661              	.LVL316:
 2662 0072 0233     		adds	r3, r3, #2
 2663 0074 1360     		str	r3, [r2]
 512:..\..\FreeflyAPI/QX_Parsing_Functions.c ****             *v = r;
 2664              		.loc 1 512 0
 2665 0076 2080     		strh	r0, [r4]	@ movhi
 513:..\..\FreeflyAPI/QX_Parsing_Functions.c ****             if(max < *v) *v = max;
 2666              		.loc 1 513 0
 2667 0078 FFF7FEFF 		bl	__aeabi_i2f
 2668              	.LVL317:
 2669 007c 0146     		mov	r1, r0
 2670 007e 2846     		mov	r0, r5
 2671 0080 FFF7FEFF 		bl	__aeabi_fcmplt
 2672              	.LVL318:
 2673 0084 18B1     		cbz	r0, .L308
 2674              		.loc 1 513 0 is_stmt 0 discriminator 1
 2675 0086 2846     		mov	r0, r5
 2676 0088 FFF7FEFF 		bl	__aeabi_f2iz
 2677              	.LVL319:
 2678 008c 2080     		strh	r0, [r4]	@ movhi
 2679              	.L308:
 514:..\..\FreeflyAPI/QX_Parsing_Functions.c ****             if(*v < min) *v = min;
 2680              		.loc 1 514 0 is_stmt 1
 2681 008e B4F90000 		ldrsh	r0, [r4]
 2682 0092 FFF7FEFF 		bl	__aeabi_i2f
 2683              	.LVL320:
 2684 0096 0146     		mov	r1, r0
 2685 0098 3046     		mov	r0, r6
 2686 009a FFF7FEFF 		bl	__aeabi_fcmpgt
 2687              	.LVL321:
 2688 009e 18B1     		cbz	r0, .L310
 2689              		.loc 1 514 0 is_stmt 0 discriminator 1
 2690 00a0 3046     		mov	r0, r6
 2691 00a2 FFF7FEFF 		bl	__aeabi_f2iz
 2692              	.LVL322:
 2693 00a6 2080     		strh	r0, [r4]	@ movhi
 2694              	.L310:
 515:..\..\FreeflyAPI/QX_Parsing_Functions.c ****             v++;
 2695              		.loc 1 515 0 is_stmt 1
 2696 00a8 0234     		adds	r4, r4, #2
 2697              	.LVL323:
 2698              	.LBE33:
 509:..\..\FreeflyAPI/QX_Parsing_Functions.c ****         {
 2699              		.loc 1 509 0
 2700 00aa 3946     		mov	r1, r7
 2701              	.LVL324:
 2702              	.L301:
ARM GAS  C:\Users\hamis\AppData\Local\Temp\cc1fRzXM.s 			page 58


 2703 00ac 4F1E     		subs	r7, r1, #1
 2704              	.LVL325:
 2705 00ae 0029     		cmp	r1, #0
 2706 00b0 D8D1     		bne	.L312
 2707 00b2 F8BD     		pop	{r3, r4, r5, r6, r7, pc}
 2708              	.LVL326:
 2709              	.L319:
 2710              		.align	2
 2711              	.L318:
 2712 00b4 00000000 		.word	rw
 2713 00b8 00000000 		.word	msgPtr
 2714              		.cfi_endproc
 2715              	.LFE30:
 2716              		.size	GetSignedShortAsSignedShort, .-GetSignedShortAsSignedShort
 2717              		.section	.text.GetSignedShortAsSignedChar,"ax",%progbits
 2718              		.align	2
 2719              		.global	GetSignedShortAsSignedChar
 2720              		.thumb
 2721              		.thumb_func
 2722              		.type	GetSignedShortAsSignedChar, %function
 2723              	GetSignedShortAsSignedChar:
 2724              	.LFB31:
 516:..\..\FreeflyAPI/QX_Parsing_Functions.c ****         }
 517:..\..\FreeflyAPI/QX_Parsing_Functions.c ****     }
 518:..\..\FreeflyAPI/QX_Parsing_Functions.c **** }
 519:..\..\FreeflyAPI/QX_Parsing_Functions.c **** 
 520:..\..\FreeflyAPI/QX_Parsing_Functions.c **** void GetSignedShortAsSignedChar(int16_t *v, uint32_t n, float max, float min)
 521:..\..\FreeflyAPI/QX_Parsing_Functions.c **** {
 2725              		.loc 1 521 0
 2726              		.cfi_startproc
 2727              		@ args = 0, pretend = 0, frame = 0
 2728              		@ frame_needed = 0, uses_anonymous_args = 0
 2729              	.LVL327:
 2730 0000 F8B5     		push	{r3, r4, r5, r6, r7, lr}
 2731              		.cfi_def_cfa_offset 24
 2732              		.cfi_offset 3, -24
 2733              		.cfi_offset 4, -20
 2734              		.cfi_offset 5, -16
 2735              		.cfi_offset 6, -12
 2736              		.cfi_offset 7, -8
 2737              		.cfi_offset 14, -4
 2738 0002 0446     		mov	r4, r0
 2739 0004 1546     		mov	r5, r2
 2740 0006 1E46     		mov	r6, r3
 522:..\..\FreeflyAPI/QX_Parsing_Functions.c ****     if(rw == QB_Parser_Dir_WriteDel)
 2741              		.loc 1 522 0
 2742 0008 284B     		ldr	r3, .L339
 2743              	.LVL328:
 2744 000a 1B78     		ldrb	r3, [r3]	@ zero_extendqisi2
 2745 000c 012B     		cmp	r3, #1
 2746 000e 48D1     		bne	.L322
 2747 0010 21E0     		b	.L321
 2748              	.LVL329:
 2749              	.L327:
 2750              	.LBB34:
 523:..\..\FreeflyAPI/QX_Parsing_Functions.c ****     {
 524:..\..\FreeflyAPI/QX_Parsing_Functions.c ****         while(n--)
ARM GAS  C:\Users\hamis\AppData\Local\Temp\cc1fRzXM.s 			page 59


 525:..\..\FreeflyAPI/QX_Parsing_Functions.c ****         {
 526:..\..\FreeflyAPI/QX_Parsing_Functions.c ****             int16_t r = (int16_t)GETSC;
 2751              		.loc 1 526 0
 2752 0012 274A     		ldr	r2, .L339+4
 2753 0014 1368     		ldr	r3, [r2]
 2754 0016 591C     		adds	r1, r3, #1
 2755 0018 1160     		str	r1, [r2]
 2756 001a 1878     		ldrb	r0, [r3]	@ zero_extendqisi2
 2757 001c 40B2     		sxtb	r0, r0
 2758              	.LVL330:
 527:..\..\FreeflyAPI/QX_Parsing_Functions.c ****             *v += (int16_t)r;
 2759              		.loc 1 527 0
 2760 001e 2388     		ldrh	r3, [r4]
 2761 0020 1844     		add	r0, r0, r3
 2762              	.LVL331:
 2763 0022 00B2     		sxth	r0, r0
 2764 0024 2080     		strh	r0, [r4]	@ movhi
 528:..\..\FreeflyAPI/QX_Parsing_Functions.c ****             if(max < *v) *v = max;
 2765              		.loc 1 528 0
 2766 0026 FFF7FEFF 		bl	__aeabi_i2f
 2767              	.LVL332:
 2768 002a 2946     		mov	r1, r5
 2769 002c FFF7FEFF 		bl	__aeabi_fcmpgt
 2770              	.LVL333:
 2771 0030 18B1     		cbz	r0, .L323
 2772              		.loc 1 528 0 is_stmt 0 discriminator 1
 2773 0032 2846     		mov	r0, r5
 2774 0034 FFF7FEFF 		bl	__aeabi_f2iz
 2775              	.LVL334:
 2776 0038 2080     		strh	r0, [r4]	@ movhi
 2777              	.L323:
 529:..\..\FreeflyAPI/QX_Parsing_Functions.c ****             if(*v < min) *v = min;
 2778              		.loc 1 529 0 is_stmt 1
 2779 003a B4F90000 		ldrsh	r0, [r4]
 2780 003e FFF7FEFF 		bl	__aeabi_i2f
 2781              	.LVL335:
 2782 0042 3146     		mov	r1, r6
 2783 0044 FFF7FEFF 		bl	__aeabi_fcmplt
 2784              	.LVL336:
 2785 0048 18B1     		cbz	r0, .L325
 2786              		.loc 1 529 0 is_stmt 0 discriminator 1
 2787 004a 3046     		mov	r0, r6
 2788 004c FFF7FEFF 		bl	__aeabi_f2iz
 2789              	.LVL337:
 2790 0050 2080     		strh	r0, [r4]	@ movhi
 2791              	.L325:
 530:..\..\FreeflyAPI/QX_Parsing_Functions.c ****             v++;
 2792              		.loc 1 530 0 is_stmt 1
 2793 0052 0234     		adds	r4, r4, #2
 2794              	.LVL338:
 2795              	.LBE34:
 524:..\..\FreeflyAPI/QX_Parsing_Functions.c ****         {
 2796              		.loc 1 524 0
 2797 0054 3946     		mov	r1, r7
 2798              	.LVL339:
 2799              	.L321:
 2800 0056 4F1E     		subs	r7, r1, #1
ARM GAS  C:\Users\hamis\AppData\Local\Temp\cc1fRzXM.s 			page 60


 2801              	.LVL340:
 2802 0058 0029     		cmp	r1, #0
 2803 005a DAD1     		bne	.L327
 2804 005c F8BD     		pop	{r3, r4, r5, r6, r7, pc}
 2805              	.LVL341:
 2806              	.L333:
 2807              	.LBB35:
 531:..\..\FreeflyAPI/QX_Parsing_Functions.c ****         }
 532:..\..\FreeflyAPI/QX_Parsing_Functions.c ****     }
 533:..\..\FreeflyAPI/QX_Parsing_Functions.c ****     else
 534:..\..\FreeflyAPI/QX_Parsing_Functions.c ****     {
 535:..\..\FreeflyAPI/QX_Parsing_Functions.c ****         while(n--)
 536:..\..\FreeflyAPI/QX_Parsing_Functions.c ****         {
 537:..\..\FreeflyAPI/QX_Parsing_Functions.c ****             int16_t r = (int16_t)GETSC;
 2808              		.loc 1 537 0
 2809 005e 144A     		ldr	r2, .L339+4
 2810 0060 1368     		ldr	r3, [r2]
 2811 0062 591C     		adds	r1, r3, #1
 2812 0064 1160     		str	r1, [r2]
 2813 0066 1878     		ldrb	r0, [r3]	@ zero_extendqisi2
 2814 0068 40B2     		sxtb	r0, r0
 2815 006a 00B2     		sxth	r0, r0
 2816              	.LVL342:
 538:..\..\FreeflyAPI/QX_Parsing_Functions.c ****             *v = (int16_t)r;
 2817              		.loc 1 538 0
 2818 006c 2080     		strh	r0, [r4]	@ movhi
 539:..\..\FreeflyAPI/QX_Parsing_Functions.c ****             if(max < *v) *v = max;
 2819              		.loc 1 539 0
 2820 006e FFF7FEFF 		bl	__aeabi_i2f
 2821              	.LVL343:
 2822 0072 0146     		mov	r1, r0
 2823 0074 2846     		mov	r0, r5
 2824 0076 FFF7FEFF 		bl	__aeabi_fcmplt
 2825              	.LVL344:
 2826 007a 18B1     		cbz	r0, .L329
 2827              		.loc 1 539 0 is_stmt 0 discriminator 1
 2828 007c 2846     		mov	r0, r5
 2829 007e FFF7FEFF 		bl	__aeabi_f2iz
 2830              	.LVL345:
 2831 0082 2080     		strh	r0, [r4]	@ movhi
 2832              	.L329:
 540:..\..\FreeflyAPI/QX_Parsing_Functions.c ****             if(*v < min) *v = min;
 2833              		.loc 1 540 0 is_stmt 1
 2834 0084 B4F90000 		ldrsh	r0, [r4]
 2835 0088 FFF7FEFF 		bl	__aeabi_i2f
 2836              	.LVL346:
 2837 008c 0146     		mov	r1, r0
 2838 008e 3046     		mov	r0, r6
 2839 0090 FFF7FEFF 		bl	__aeabi_fcmpgt
 2840              	.LVL347:
 2841 0094 18B1     		cbz	r0, .L331
 2842              		.loc 1 540 0 is_stmt 0 discriminator 1
 2843 0096 3046     		mov	r0, r6
 2844 0098 FFF7FEFF 		bl	__aeabi_f2iz
 2845              	.LVL348:
 2846 009c 2080     		strh	r0, [r4]	@ movhi
 2847              	.L331:
ARM GAS  C:\Users\hamis\AppData\Local\Temp\cc1fRzXM.s 			page 61


 541:..\..\FreeflyAPI/QX_Parsing_Functions.c ****             v++;
 2848              		.loc 1 541 0 is_stmt 1
 2849 009e 0234     		adds	r4, r4, #2
 2850              	.LVL349:
 2851              	.LBE35:
 535:..\..\FreeflyAPI/QX_Parsing_Functions.c ****         {
 2852              		.loc 1 535 0
 2853 00a0 3946     		mov	r1, r7
 2854              	.LVL350:
 2855              	.L322:
 2856 00a2 4F1E     		subs	r7, r1, #1
 2857              	.LVL351:
 2858 00a4 0029     		cmp	r1, #0
 2859 00a6 DAD1     		bne	.L333
 2860 00a8 F8BD     		pop	{r3, r4, r5, r6, r7, pc}
 2861              	.LVL352:
 2862              	.L340:
 2863 00aa 00BF     		.align	2
 2864              	.L339:
 2865 00ac 00000000 		.word	rw
 2866 00b0 00000000 		.word	msgPtr
 2867              		.cfi_endproc
 2868              	.LFE31:
 2869              		.size	GetSignedShortAsSignedChar, .-GetSignedShortAsSignedChar
 2870              		.section	.text.GetSignedShortAsUnsignedChar,"ax",%progbits
 2871              		.align	2
 2872              		.global	GetSignedShortAsUnsignedChar
 2873              		.thumb
 2874              		.thumb_func
 2875              		.type	GetSignedShortAsUnsignedChar, %function
 2876              	GetSignedShortAsUnsignedChar:
 2877              	.LFB32:
 542:..\..\FreeflyAPI/QX_Parsing_Functions.c ****         }
 543:..\..\FreeflyAPI/QX_Parsing_Functions.c ****     }
 544:..\..\FreeflyAPI/QX_Parsing_Functions.c **** }
 545:..\..\FreeflyAPI/QX_Parsing_Functions.c **** 
 546:..\..\FreeflyAPI/QX_Parsing_Functions.c **** void GetSignedShortAsUnsignedChar(int16_t *v, uint32_t n, int16_t max, int16_t min)
 547:..\..\FreeflyAPI/QX_Parsing_Functions.c **** {
 2878              		.loc 1 547 0
 2879              		.cfi_startproc
 2880              		@ args = 0, pretend = 0, frame = 0
 2881              		@ frame_needed = 0, uses_anonymous_args = 0
 2882              		@ link register save eliminated.
 2883              	.LVL353:
 2884 0000 70B4     		push	{r4, r5, r6}
 2885              		.cfi_def_cfa_offset 12
 2886              		.cfi_offset 4, -12
 2887              		.cfi_offset 5, -8
 2888              		.cfi_offset 6, -4
 548:..\..\FreeflyAPI/QX_Parsing_Functions.c ****     if(rw == QB_Parser_Dir_WriteDel)
 2889              		.loc 1 548 0
 2890 0002 194C     		ldr	r4, .L352
 2891 0004 2478     		ldrb	r4, [r4]	@ zero_extendqisi2
 2892 0006 012C     		cmp	r4, #1
 2893 0008 28D1     		bne	.L343
 2894 000a 13E0     		b	.L342
 2895              	.LVL354:
ARM GAS  C:\Users\hamis\AppData\Local\Temp\cc1fRzXM.s 			page 62


 2896              	.L346:
 2897              	.LBB36:
 549:..\..\FreeflyAPI/QX_Parsing_Functions.c ****     {
 550:..\..\FreeflyAPI/QX_Parsing_Functions.c ****         while(n--)
 551:..\..\FreeflyAPI/QX_Parsing_Functions.c ****         {
 552:..\..\FreeflyAPI/QX_Parsing_Functions.c ****             int16_t r = (int16_t)GETSC;
 2898              		.loc 1 552 0
 2899 000c 174C     		ldr	r4, .L352+4
 2900 000e 2168     		ldr	r1, [r4]
 2901 0010 4E1C     		adds	r6, r1, #1
 2902 0012 2660     		str	r6, [r4]
 2903 0014 0978     		ldrb	r1, [r1]	@ zero_extendqisi2
 2904 0016 4CB2     		sxtb	r4, r1
 2905              	.LVL355:
 553:..\..\FreeflyAPI/QX_Parsing_Functions.c ****             *v += r;
 2906              		.loc 1 553 0
 2907 0018 0188     		ldrh	r1, [r0]
 2908 001a 2144     		add	r1, r1, r4
 2909 001c 09B2     		sxth	r1, r1
 2910 001e 0180     		strh	r1, [r0]	@ movhi
 554:..\..\FreeflyAPI/QX_Parsing_Functions.c ****             if(max < *v) *v = max;
 2911              		.loc 1 554 0
 2912 0020 9142     		cmp	r1, r2
 2913 0022 00DD     		ble	.L344
 2914              		.loc 1 554 0 is_stmt 0 discriminator 1
 2915 0024 0280     		strh	r2, [r0]	@ movhi
 2916              	.L344:
 555:..\..\FreeflyAPI/QX_Parsing_Functions.c ****             if(*v < min) *v = min;
 2917              		.loc 1 555 0 is_stmt 1
 2918 0026 B0F90010 		ldrsh	r1, [r0]
 2919 002a 9942     		cmp	r1, r3
 2920 002c 00DA     		bge	.L345
 2921              		.loc 1 555 0 is_stmt 0 discriminator 1
 2922 002e 0380     		strh	r3, [r0]	@ movhi
 2923              	.L345:
 556:..\..\FreeflyAPI/QX_Parsing_Functions.c ****             v++;
 2924              		.loc 1 556 0 is_stmt 1
 2925 0030 0230     		adds	r0, r0, #2
 2926              	.LVL356:
 2927              	.LBE36:
 550:..\..\FreeflyAPI/QX_Parsing_Functions.c ****         {
 2928              		.loc 1 550 0
 2929 0032 2946     		mov	r1, r5
 2930              	.LVL357:
 2931              	.L342:
 2932 0034 4D1E     		subs	r5, r1, #1
 2933              	.LVL358:
 2934 0036 0029     		cmp	r1, #0
 2935 0038 E8D1     		bne	.L346
 2936 003a 12E0     		b	.L341
 2937              	.L350:
 2938              	.LBB37:
 557:..\..\FreeflyAPI/QX_Parsing_Functions.c ****         }
 558:..\..\FreeflyAPI/QX_Parsing_Functions.c ****     }
 559:..\..\FreeflyAPI/QX_Parsing_Functions.c ****     else
 560:..\..\FreeflyAPI/QX_Parsing_Functions.c ****     {
 561:..\..\FreeflyAPI/QX_Parsing_Functions.c ****         while(n--)
ARM GAS  C:\Users\hamis\AppData\Local\Temp\cc1fRzXM.s 			page 63


 562:..\..\FreeflyAPI/QX_Parsing_Functions.c ****         {
 563:..\..\FreeflyAPI/QX_Parsing_Functions.c ****             int16_t r = (int16_t)GETUC;
 2939              		.loc 1 563 0
 2940 003c 0B4C     		ldr	r4, .L352+4
 2941 003e 2168     		ldr	r1, [r4]
 2942 0040 4E1C     		adds	r6, r1, #1
 2943 0042 2660     		str	r6, [r4]
 2944 0044 0978     		ldrb	r1, [r1]	@ zero_extendqisi2
 2945              	.LVL359:
 564:..\..\FreeflyAPI/QX_Parsing_Functions.c ****             *v = r;
 2946              		.loc 1 564 0
 2947 0046 0180     		strh	r1, [r0]	@ movhi
 565:..\..\FreeflyAPI/QX_Parsing_Functions.c ****             if(max < *v) *v = max;
 2948              		.loc 1 565 0
 2949 0048 8A42     		cmp	r2, r1
 2950 004a 00DA     		bge	.L348
 2951              		.loc 1 565 0 is_stmt 0 discriminator 1
 2952 004c 0280     		strh	r2, [r0]	@ movhi
 2953              	.L348:
 566:..\..\FreeflyAPI/QX_Parsing_Functions.c ****             if(*v < min) *v = min;
 2954              		.loc 1 566 0 is_stmt 1
 2955 004e B0F90010 		ldrsh	r1, [r0]
 2956              	.LVL360:
 2957 0052 8B42     		cmp	r3, r1
 2958 0054 00DD     		ble	.L349
 2959              		.loc 1 566 0 is_stmt 0 discriminator 1
 2960 0056 0380     		strh	r3, [r0]	@ movhi
 2961              	.L349:
 567:..\..\FreeflyAPI/QX_Parsing_Functions.c ****             v++;
 2962              		.loc 1 567 0 is_stmt 1
 2963 0058 0230     		adds	r0, r0, #2
 2964              	.LVL361:
 2965              	.LBE37:
 561:..\..\FreeflyAPI/QX_Parsing_Functions.c ****         {
 2966              		.loc 1 561 0
 2967 005a 2946     		mov	r1, r5
 2968              	.LVL362:
 2969              	.L343:
 2970 005c 4D1E     		subs	r5, r1, #1
 2971              	.LVL363:
 2972 005e 0029     		cmp	r1, #0
 2973 0060 ECD1     		bne	.L350
 2974              	.L341:
 568:..\..\FreeflyAPI/QX_Parsing_Functions.c ****         }
 569:..\..\FreeflyAPI/QX_Parsing_Functions.c ****     }
 570:..\..\FreeflyAPI/QX_Parsing_Functions.c **** }
 2975              		.loc 1 570 0
 2976 0062 70BC     		pop	{r4, r5, r6}
 2977              		.cfi_restore 6
 2978              		.cfi_restore 5
 2979              		.cfi_restore 4
 2980              		.cfi_def_cfa_offset 0
 2981              	.LVL364:
 2982 0064 7047     		bx	lr
 2983              	.L353:
 2984 0066 00BF     		.align	2
 2985              	.L352:
ARM GAS  C:\Users\hamis\AppData\Local\Temp\cc1fRzXM.s 			page 64


 2986 0068 00000000 		.word	rw
 2987 006c 00000000 		.word	msgPtr
 2988              		.cfi_endproc
 2989              	.LFE32:
 2990              		.size	GetSignedShortAsUnsignedChar, .-GetSignedShortAsUnsignedChar
 2991              		.section	.text.AddSignedCharAsSignedChar,"ax",%progbits
 2992              		.align	2
 2993              		.global	AddSignedCharAsSignedChar
 2994              		.thumb
 2995              		.thumb_func
 2996              		.type	AddSignedCharAsSignedChar, %function
 2997              	AddSignedCharAsSignedChar:
 2998              	.LFB33:
 571:..\..\FreeflyAPI/QX_Parsing_Functions.c **** 
 572:..\..\FreeflyAPI/QX_Parsing_Functions.c **** void AddSignedCharAsSignedChar(int8_t *v, uint32_t n)
 573:..\..\FreeflyAPI/QX_Parsing_Functions.c **** {
 2999              		.loc 1 573 0
 3000              		.cfi_startproc
 3001              		@ args = 0, pretend = 0, frame = 0
 3002              		@ frame_needed = 0, uses_anonymous_args = 0
 3003              		@ link register save eliminated.
 3004              	.LVL365:
 3005 0000 10B4     		push	{r4}
 3006              		.cfi_def_cfa_offset 4
 3007              		.cfi_offset 4, -4
 574:..\..\FreeflyAPI/QX_Parsing_Functions.c ****     while(n--)
 3008              		.loc 1 574 0
 3009 0002 07E0     		b	.L355
 3010              	.LVL366:
 3011              	.L356:
 575:..\..\FreeflyAPI/QX_Parsing_Functions.c ****     {
 576:..\..\FreeflyAPI/QX_Parsing_Functions.c ****         ADDCHAR(*v);
 3012              		.loc 1 576 0
 3013 0004 064A     		ldr	r2, .L358
 3014 0006 1368     		ldr	r3, [r2]
 3015 0008 591C     		adds	r1, r3, #1
 3016 000a 1160     		str	r1, [r2]
 3017 000c 10F8012B 		ldrb	r2, [r0], #1	@ zero_extendqisi2
 3018              	.LVL367:
 3019 0010 1A70     		strb	r2, [r3]
 3020              	.LVL368:
 574:..\..\FreeflyAPI/QX_Parsing_Functions.c ****     while(n--)
 3021              		.loc 1 574 0
 3022 0012 2146     		mov	r1, r4
 3023              	.LVL369:
 3024              	.L355:
 3025 0014 4C1E     		subs	r4, r1, #1
 3026              	.LVL370:
 3027 0016 0029     		cmp	r1, #0
 3028 0018 F4D1     		bne	.L356
 577:..\..\FreeflyAPI/QX_Parsing_Functions.c ****         v++;
 578:..\..\FreeflyAPI/QX_Parsing_Functions.c ****     }
 579:..\..\FreeflyAPI/QX_Parsing_Functions.c **** }
 3029              		.loc 1 579 0
 3030 001a 10BC     		pop	{r4}
 3031              		.cfi_restore 4
 3032              		.cfi_def_cfa_offset 0
ARM GAS  C:\Users\hamis\AppData\Local\Temp\cc1fRzXM.s 			page 65


 3033              	.LVL371:
 3034 001c 7047     		bx	lr
 3035              	.L359:
 3036 001e 00BF     		.align	2
 3037              	.L358:
 3038 0020 00000000 		.word	msgPtr
 3039              		.cfi_endproc
 3040              	.LFE33:
 3041              		.size	AddSignedCharAsSignedChar, .-AddSignedCharAsSignedChar
 3042              		.section	.text.GetSignedCharAsSignedChar,"ax",%progbits
 3043              		.align	2
 3044              		.global	GetSignedCharAsSignedChar
 3045              		.thumb
 3046              		.thumb_func
 3047              		.type	GetSignedCharAsSignedChar, %function
 3048              	GetSignedCharAsSignedChar:
 3049              	.LFB34:
 580:..\..\FreeflyAPI/QX_Parsing_Functions.c **** 
 581:..\..\FreeflyAPI/QX_Parsing_Functions.c **** void GetSignedCharAsSignedChar(int8_t *v, uint32_t n, int8_t max, int8_t min)
 582:..\..\FreeflyAPI/QX_Parsing_Functions.c **** {
 3050              		.loc 1 582 0
 3051              		.cfi_startproc
 3052              		@ args = 0, pretend = 0, frame = 0
 3053              		@ frame_needed = 0, uses_anonymous_args = 0
 3054              		@ link register save eliminated.
 3055              	.LVL372:
 3056 0000 70B4     		push	{r4, r5, r6}
 3057              		.cfi_def_cfa_offset 12
 3058              		.cfi_offset 4, -12
 3059              		.cfi_offset 5, -8
 3060              		.cfi_offset 6, -4
 583:..\..\FreeflyAPI/QX_Parsing_Functions.c ****     if(rw == QB_Parser_Dir_WriteDel)
 3061              		.loc 1 583 0
 3062 0002 194C     		ldr	r4, .L371
 3063 0004 2478     		ldrb	r4, [r4]	@ zero_extendqisi2
 3064 0006 012C     		cmp	r4, #1
 3065 0008 29D1     		bne	.L362
 3066 000a 13E0     		b	.L361
 3067              	.LVL373:
 3068              	.L365:
 3069              	.LBB38:
 584:..\..\FreeflyAPI/QX_Parsing_Functions.c ****     {
 585:..\..\FreeflyAPI/QX_Parsing_Functions.c ****         while(n--)
 586:..\..\FreeflyAPI/QX_Parsing_Functions.c ****         {
 587:..\..\FreeflyAPI/QX_Parsing_Functions.c ****             int8_t r = GETSC;
 3070              		.loc 1 587 0
 3071 000c 174C     		ldr	r4, .L371+4
 3072 000e 2168     		ldr	r1, [r4]
 3073 0010 4E1C     		adds	r6, r1, #1
 3074 0012 2660     		str	r6, [r4]
 3075 0014 0978     		ldrb	r1, [r1]	@ zero_extendqisi2
 3076 0016 4CB2     		sxtb	r4, r1
 3077              	.LVL374:
 588:..\..\FreeflyAPI/QX_Parsing_Functions.c ****             int32_t temp = *v;    // Promote to signed so we can do a meaningful clamp check
 3078              		.loc 1 588 0
 3079 0018 90F90010 		ldrsb	r1, [r0]
 3080              	.LVL375:
ARM GAS  C:\Users\hamis\AppData\Local\Temp\cc1fRzXM.s 			page 66


 589:..\..\FreeflyAPI/QX_Parsing_Functions.c ****             temp += r;
 3081              		.loc 1 589 0
 3082 001c 2144     		add	r1, r1, r4
 3083              	.LVL376:
 590:..\..\FreeflyAPI/QX_Parsing_Functions.c ****             if(max < temp) temp = max;
 3084              		.loc 1 590 0
 3085 001e 1446     		mov	r4, r2
 3086              	.LVL377:
 3087 0020 9142     		cmp	r1, r2
 3088 0022 00DC     		bgt	.L363
 589:..\..\FreeflyAPI/QX_Parsing_Functions.c ****             temp += r;
 3089              		.loc 1 589 0
 3090 0024 0C46     		mov	r4, r1
 3091              	.L363:
 3092              	.LVL378:
 591:..\..\FreeflyAPI/QX_Parsing_Functions.c ****             if(temp < min) temp = min;
 3093              		.loc 1 591 0
 3094 0026 1946     		mov	r1, r3
 3095 0028 9C42     		cmp	r4, r3
 3096 002a 00DB     		blt	.L364
 3097 002c 2146     		mov	r1, r4
 3098              	.L364:
 3099              	.LVL379:
 592:..\..\FreeflyAPI/QX_Parsing_Functions.c ****             *v = (uint8_t)temp;
 3100              		.loc 1 592 0
 3101 002e 00F8011B 		strb	r1, [r0], #1
 3102              	.LVL380:
 3103              	.LBE38:
 585:..\..\FreeflyAPI/QX_Parsing_Functions.c ****         {
 3104              		.loc 1 585 0
 3105 0032 2946     		mov	r1, r5
 3106              	.LVL381:
 3107              	.L361:
 3108 0034 4D1E     		subs	r5, r1, #1
 3109              	.LVL382:
 3110 0036 0029     		cmp	r1, #0
 3111 0038 E8D1     		bne	.L365
 3112 003a 13E0     		b	.L360
 3113              	.L369:
 3114              	.LBB39:
 593:..\..\FreeflyAPI/QX_Parsing_Functions.c ****             v++;
 594:..\..\FreeflyAPI/QX_Parsing_Functions.c ****         }
 595:..\..\FreeflyAPI/QX_Parsing_Functions.c ****     }
 596:..\..\FreeflyAPI/QX_Parsing_Functions.c ****     else
 597:..\..\FreeflyAPI/QX_Parsing_Functions.c ****     {
 598:..\..\FreeflyAPI/QX_Parsing_Functions.c ****         while(n--)
 599:..\..\FreeflyAPI/QX_Parsing_Functions.c ****         {
 600:..\..\FreeflyAPI/QX_Parsing_Functions.c ****             int8_t r = GETSC;
 3115              		.loc 1 600 0
 3116 003c 0B4C     		ldr	r4, .L371+4
 3117 003e 2168     		ldr	r1, [r4]
 3118 0040 4E1C     		adds	r6, r1, #1
 3119 0042 2660     		str	r6, [r4]
 3120 0044 0978     		ldrb	r1, [r1]	@ zero_extendqisi2
 3121 0046 49B2     		sxtb	r1, r1
 3122              	.LVL383:
 601:..\..\FreeflyAPI/QX_Parsing_Functions.c ****             *v = r;
ARM GAS  C:\Users\hamis\AppData\Local\Temp\cc1fRzXM.s 			page 67


 3123              		.loc 1 601 0
 3124 0048 0170     		strb	r1, [r0]
 602:..\..\FreeflyAPI/QX_Parsing_Functions.c ****             if(max < *v) *v = max;
 3125              		.loc 1 602 0
 3126 004a 8A42     		cmp	r2, r1
 3127 004c 00DA     		bge	.L367
 3128              		.loc 1 602 0 is_stmt 0 discriminator 1
 3129 004e 0270     		strb	r2, [r0]
 3130              	.L367:
 603:..\..\FreeflyAPI/QX_Parsing_Functions.c ****             if(*v < min) *v = min;
 3131              		.loc 1 603 0 is_stmt 1
 3132 0050 90F90010 		ldrsb	r1, [r0]
 3133              	.LVL384:
 3134 0054 8B42     		cmp	r3, r1
 3135 0056 00DD     		ble	.L368
 3136              		.loc 1 603 0 is_stmt 0 discriminator 1
 3137 0058 0370     		strb	r3, [r0]
 3138              	.L368:
 604:..\..\FreeflyAPI/QX_Parsing_Functions.c ****             v++;
 3139              		.loc 1 604 0 is_stmt 1
 3140 005a 0130     		adds	r0, r0, #1
 3141              	.LVL385:
 3142              	.LBE39:
 598:..\..\FreeflyAPI/QX_Parsing_Functions.c ****         {
 3143              		.loc 1 598 0
 3144 005c 2946     		mov	r1, r5
 3145              	.LVL386:
 3146              	.L362:
 3147 005e 4D1E     		subs	r5, r1, #1
 3148              	.LVL387:
 3149 0060 0029     		cmp	r1, #0
 3150 0062 EBD1     		bne	.L369
 3151              	.L360:
 605:..\..\FreeflyAPI/QX_Parsing_Functions.c ****         }
 606:..\..\FreeflyAPI/QX_Parsing_Functions.c ****     }
 607:..\..\FreeflyAPI/QX_Parsing_Functions.c **** }
 3152              		.loc 1 607 0
 3153 0064 70BC     		pop	{r4, r5, r6}
 3154              		.cfi_restore 6
 3155              		.cfi_restore 5
 3156              		.cfi_restore 4
 3157              		.cfi_def_cfa_offset 0
 3158              	.LVL388:
 3159 0066 7047     		bx	lr
 3160              	.L372:
 3161              		.align	2
 3162              	.L371:
 3163 0068 00000000 		.word	rw
 3164 006c 00000000 		.word	msgPtr
 3165              		.cfi_endproc
 3166              	.LFE34:
 3167              		.size	GetSignedCharAsSignedChar, .-GetSignedCharAsSignedChar
 3168              		.section	.text.AddUnsignedCharAsUnsignedChar,"ax",%progbits
 3169              		.align	2
 3170              		.global	AddUnsignedCharAsUnsignedChar
 3171              		.thumb
 3172              		.thumb_func
ARM GAS  C:\Users\hamis\AppData\Local\Temp\cc1fRzXM.s 			page 68


 3173              		.type	AddUnsignedCharAsUnsignedChar, %function
 3174              	AddUnsignedCharAsUnsignedChar:
 3175              	.LFB35:
 608:..\..\FreeflyAPI/QX_Parsing_Functions.c **** 
 609:..\..\FreeflyAPI/QX_Parsing_Functions.c **** void AddUnsignedCharAsUnsignedChar(uint8_t *v, uint32_t n)
 610:..\..\FreeflyAPI/QX_Parsing_Functions.c **** {
 3176              		.loc 1 610 0
 3177              		.cfi_startproc
 3178              		@ args = 0, pretend = 0, frame = 0
 3179              		@ frame_needed = 0, uses_anonymous_args = 0
 3180              		@ link register save eliminated.
 3181              	.LVL389:
 3182 0000 10B4     		push	{r4}
 3183              		.cfi_def_cfa_offset 4
 3184              		.cfi_offset 4, -4
 611:..\..\FreeflyAPI/QX_Parsing_Functions.c ****     while(n--)
 3185              		.loc 1 611 0
 3186 0002 07E0     		b	.L374
 3187              	.LVL390:
 3188              	.L375:
 612:..\..\FreeflyAPI/QX_Parsing_Functions.c ****     {
 613:..\..\FreeflyAPI/QX_Parsing_Functions.c ****         ADDCHAR(*v);
 3189              		.loc 1 613 0
 3190 0004 064A     		ldr	r2, .L377
 3191 0006 1368     		ldr	r3, [r2]
 3192 0008 591C     		adds	r1, r3, #1
 3193 000a 1160     		str	r1, [r2]
 3194 000c 10F8012B 		ldrb	r2, [r0], #1	@ zero_extendqisi2
 3195              	.LVL391:
 3196 0010 1A70     		strb	r2, [r3]
 3197              	.LVL392:
 611:..\..\FreeflyAPI/QX_Parsing_Functions.c ****     while(n--)
 3198              		.loc 1 611 0
 3199 0012 2146     		mov	r1, r4
 3200              	.LVL393:
 3201              	.L374:
 3202 0014 4C1E     		subs	r4, r1, #1
 3203              	.LVL394:
 3204 0016 0029     		cmp	r1, #0
 3205 0018 F4D1     		bne	.L375
 614:..\..\FreeflyAPI/QX_Parsing_Functions.c ****         v++;
 615:..\..\FreeflyAPI/QX_Parsing_Functions.c ****     }
 616:..\..\FreeflyAPI/QX_Parsing_Functions.c **** }
 3206              		.loc 1 616 0
 3207 001a 10BC     		pop	{r4}
 3208              		.cfi_restore 4
 3209              		.cfi_def_cfa_offset 0
 3210              	.LVL395:
 3211 001c 7047     		bx	lr
 3212              	.L378:
 3213 001e 00BF     		.align	2
 3214              	.L377:
 3215 0020 00000000 		.word	msgPtr
 3216              		.cfi_endproc
 3217              	.LFE35:
 3218              		.size	AddUnsignedCharAsUnsignedChar, .-AddUnsignedCharAsUnsignedChar
 3219              		.section	.text.GetUnsignedCharAsUnsignedChar,"ax",%progbits
ARM GAS  C:\Users\hamis\AppData\Local\Temp\cc1fRzXM.s 			page 69


 3220              		.align	2
 3221              		.global	GetUnsignedCharAsUnsignedChar
 3222              		.thumb
 3223              		.thumb_func
 3224              		.type	GetUnsignedCharAsUnsignedChar, %function
 3225              	GetUnsignedCharAsUnsignedChar:
 3226              	.LFB36:
 617:..\..\FreeflyAPI/QX_Parsing_Functions.c **** 
 618:..\..\FreeflyAPI/QX_Parsing_Functions.c **** void GetUnsignedCharAsUnsignedChar(uint8_t *v, uint32_t n, uint8_t max, uint8_t min)
 619:..\..\FreeflyAPI/QX_Parsing_Functions.c **** {
 3227              		.loc 1 619 0
 3228              		.cfi_startproc
 3229              		@ args = 0, pretend = 0, frame = 0
 3230              		@ frame_needed = 0, uses_anonymous_args = 0
 3231              		@ link register save eliminated.
 3232              	.LVL396:
 3233 0000 70B4     		push	{r4, r5, r6}
 3234              		.cfi_def_cfa_offset 12
 3235              		.cfi_offset 4, -12
 3236              		.cfi_offset 5, -8
 3237              		.cfi_offset 6, -4
 620:..\..\FreeflyAPI/QX_Parsing_Functions.c ****     if(rw == QB_Parser_Dir_WriteDel)
 3238              		.loc 1 620 0
 3239 0002 184C     		ldr	r4, .L390
 3240 0004 2478     		ldrb	r4, [r4]	@ zero_extendqisi2
 3241 0006 012C     		cmp	r4, #1
 3242 0008 27D1     		bne	.L381
 3243 000a 12E0     		b	.L380
 3244              	.LVL397:
 3245              	.L384:
 3246              	.LBB40:
 621:..\..\FreeflyAPI/QX_Parsing_Functions.c ****     {
 622:..\..\FreeflyAPI/QX_Parsing_Functions.c ****         while(n--)
 623:..\..\FreeflyAPI/QX_Parsing_Functions.c ****         {
 624:..\..\FreeflyAPI/QX_Parsing_Functions.c ****             int8_t r = GETSC;
 3247              		.loc 1 624 0
 3248 000c 164C     		ldr	r4, .L390+4
 3249 000e 2168     		ldr	r1, [r4]
 3250 0010 4E1C     		adds	r6, r1, #1
 3251 0012 2660     		str	r6, [r4]
 3252 0014 0978     		ldrb	r1, [r1]	@ zero_extendqisi2
 3253 0016 4CB2     		sxtb	r4, r1
 3254              	.LVL398:
 625:..\..\FreeflyAPI/QX_Parsing_Functions.c ****             int32_t temp = *v;    //Promote to signed so we can do a meaningful clamp check
 3255              		.loc 1 625 0
 3256 0018 0178     		ldrb	r1, [r0]	@ zero_extendqisi2
 3257              	.LVL399:
 626:..\..\FreeflyAPI/QX_Parsing_Functions.c ****             temp += r;
 3258              		.loc 1 626 0
 3259 001a 2144     		add	r1, r1, r4
 3260              	.LVL400:
 627:..\..\FreeflyAPI/QX_Parsing_Functions.c ****             if(max < temp) temp = max;
 3261              		.loc 1 627 0
 3262 001c 1446     		mov	r4, r2
 3263              	.LVL401:
 3264 001e 9142     		cmp	r1, r2
 3265 0020 00DC     		bgt	.L382
ARM GAS  C:\Users\hamis\AppData\Local\Temp\cc1fRzXM.s 			page 70


 626:..\..\FreeflyAPI/QX_Parsing_Functions.c ****             temp += r;
 3266              		.loc 1 626 0
 3267 0022 0C46     		mov	r4, r1
 3268              	.L382:
 3269              	.LVL402:
 628:..\..\FreeflyAPI/QX_Parsing_Functions.c ****             if(temp < min) temp = min;
 3270              		.loc 1 628 0
 3271 0024 1946     		mov	r1, r3
 3272 0026 9C42     		cmp	r4, r3
 3273 0028 00DB     		blt	.L383
 3274 002a 2146     		mov	r1, r4
 3275              	.L383:
 3276              	.LVL403:
 629:..\..\FreeflyAPI/QX_Parsing_Functions.c ****             *v = (uint8_t)temp;
 3277              		.loc 1 629 0
 3278 002c 00F8011B 		strb	r1, [r0], #1
 3279              	.LVL404:
 3280              	.LBE40:
 622:..\..\FreeflyAPI/QX_Parsing_Functions.c ****         {
 3281              		.loc 1 622 0
 3282 0030 2946     		mov	r1, r5
 3283              	.LVL405:
 3284              	.L380:
 3285 0032 4D1E     		subs	r5, r1, #1
 3286              	.LVL406:
 3287 0034 0029     		cmp	r1, #0
 3288 0036 E9D1     		bne	.L384
 3289 0038 12E0     		b	.L379
 3290              	.L388:
 3291              	.LBB41:
 630:..\..\FreeflyAPI/QX_Parsing_Functions.c ****             v++;
 631:..\..\FreeflyAPI/QX_Parsing_Functions.c ****         }
 632:..\..\FreeflyAPI/QX_Parsing_Functions.c ****     }
 633:..\..\FreeflyAPI/QX_Parsing_Functions.c ****     else
 634:..\..\FreeflyAPI/QX_Parsing_Functions.c ****     {
 635:..\..\FreeflyAPI/QX_Parsing_Functions.c ****         while(n--)
 636:..\..\FreeflyAPI/QX_Parsing_Functions.c ****         {
 637:..\..\FreeflyAPI/QX_Parsing_Functions.c ****             uint8_t r = GETUC;
 3292              		.loc 1 637 0
 3293 003a 0B4C     		ldr	r4, .L390+4
 3294 003c 2168     		ldr	r1, [r4]
 3295 003e 4E1C     		adds	r6, r1, #1
 3296 0040 2660     		str	r6, [r4]
 3297 0042 0978     		ldrb	r1, [r1]	@ zero_extendqisi2
 3298 0044 C9B2     		uxtb	r1, r1
 3299              	.LVL407:
 638:..\..\FreeflyAPI/QX_Parsing_Functions.c ****             *v = r;
 3300              		.loc 1 638 0
 3301 0046 0170     		strb	r1, [r0]
 639:..\..\FreeflyAPI/QX_Parsing_Functions.c ****             if(max < *v) *v = max;
 3302              		.loc 1 639 0
 3303 0048 8A42     		cmp	r2, r1
 3304 004a 00D2     		bcs	.L386
 3305              		.loc 1 639 0 is_stmt 0 discriminator 1
 3306 004c 0270     		strb	r2, [r0]
 3307              	.L386:
 640:..\..\FreeflyAPI/QX_Parsing_Functions.c ****             if(*v < min) *v = min;
ARM GAS  C:\Users\hamis\AppData\Local\Temp\cc1fRzXM.s 			page 71


 3308              		.loc 1 640 0 is_stmt 1
 3309 004e 0178     		ldrb	r1, [r0]	@ zero_extendqisi2
 3310              	.LVL408:
 3311 0050 8B42     		cmp	r3, r1
 3312 0052 00D9     		bls	.L387
 3313              		.loc 1 640 0 is_stmt 0 discriminator 1
 3314 0054 0370     		strb	r3, [r0]
 3315              	.L387:
 641:..\..\FreeflyAPI/QX_Parsing_Functions.c ****             v++;
 3316              		.loc 1 641 0 is_stmt 1
 3317 0056 0130     		adds	r0, r0, #1
 3318              	.LVL409:
 3319              	.LBE41:
 635:..\..\FreeflyAPI/QX_Parsing_Functions.c ****         {
 3320              		.loc 1 635 0
 3321 0058 2946     		mov	r1, r5
 3322              	.LVL410:
 3323              	.L381:
 3324 005a 4D1E     		subs	r5, r1, #1
 3325              	.LVL411:
 3326 005c 0029     		cmp	r1, #0
 3327 005e ECD1     		bne	.L388
 3328              	.L379:
 642:..\..\FreeflyAPI/QX_Parsing_Functions.c ****         }
 643:..\..\FreeflyAPI/QX_Parsing_Functions.c ****     }
 644:..\..\FreeflyAPI/QX_Parsing_Functions.c **** }
 3329              		.loc 1 644 0
 3330 0060 70BC     		pop	{r4, r5, r6}
 3331              		.cfi_restore 6
 3332              		.cfi_restore 5
 3333              		.cfi_restore 4
 3334              		.cfi_def_cfa_offset 0
 3335              	.LVL412:
 3336 0062 7047     		bx	lr
 3337              	.L391:
 3338              		.align	2
 3339              	.L390:
 3340 0064 00000000 		.word	rw
 3341 0068 00000000 		.word	msgPtr
 3342              		.cfi_endproc
 3343              	.LFE36:
 3344              		.size	GetUnsignedCharAsUnsignedChar, .-GetUnsignedCharAsUnsignedChar
 3345              		.section	.text.AddUnsignedShortAsUnsignedShort,"ax",%progbits
 3346              		.align	2
 3347              		.global	AddUnsignedShortAsUnsignedShort
 3348              		.thumb
 3349              		.thumb_func
 3350              		.type	AddUnsignedShortAsUnsignedShort, %function
 3351              	AddUnsignedShortAsUnsignedShort:
 3352              	.LFB37:
 645:..\..\FreeflyAPI/QX_Parsing_Functions.c **** 
 646:..\..\FreeflyAPI/QX_Parsing_Functions.c **** void AddUnsignedShortAsUnsignedShort(uint16_t *v, uint32_t n)
 647:..\..\FreeflyAPI/QX_Parsing_Functions.c **** {
 3353              		.loc 1 647 0
 3354              		.cfi_startproc
 3355              		@ args = 0, pretend = 0, frame = 0
 3356              		@ frame_needed = 0, uses_anonymous_args = 0
ARM GAS  C:\Users\hamis\AppData\Local\Temp\cc1fRzXM.s 			page 72


 3357              		@ link register save eliminated.
 3358              	.LVL413:
 3359 0000 10B4     		push	{r4}
 3360              		.cfi_def_cfa_offset 4
 3361              		.cfi_offset 4, -4
 648:..\..\FreeflyAPI/QX_Parsing_Functions.c ****     while(n--)
 3362              		.loc 1 648 0
 3363 0002 0EE0     		b	.L393
 3364              	.LVL414:
 3365              	.L394:
 649:..\..\FreeflyAPI/QX_Parsing_Functions.c ****     {
 650:..\..\FreeflyAPI/QX_Parsing_Functions.c ****         ADDUS(*v);
 3366              		.loc 1 650 0
 3367 0004 094B     		ldr	r3, .L396
 3368 0006 1968     		ldr	r1, [r3]
 3369 0008 4A1C     		adds	r2, r1, #1
 3370 000a 1A60     		str	r2, [r3]
 3371 000c 0288     		ldrh	r2, [r0]
 3372 000e 120A     		lsrs	r2, r2, #8
 3373 0010 0A70     		strb	r2, [r1]
 3374 0012 1A68     		ldr	r2, [r3]
 3375 0014 511C     		adds	r1, r2, #1
 3376 0016 1960     		str	r1, [r3]
 3377 0018 30F8023B 		ldrh	r3, [r0], #2
 3378              	.LVL415:
 3379 001c DBB2     		uxtb	r3, r3
 3380 001e 1370     		strb	r3, [r2]
 3381              	.LVL416:
 648:..\..\FreeflyAPI/QX_Parsing_Functions.c ****     while(n--)
 3382              		.loc 1 648 0
 3383 0020 2146     		mov	r1, r4
 3384              	.LVL417:
 3385              	.L393:
 3386 0022 4C1E     		subs	r4, r1, #1
 3387              	.LVL418:
 3388 0024 0029     		cmp	r1, #0
 3389 0026 EDD1     		bne	.L394
 651:..\..\FreeflyAPI/QX_Parsing_Functions.c ****         v++;
 652:..\..\FreeflyAPI/QX_Parsing_Functions.c ****     }
 653:..\..\FreeflyAPI/QX_Parsing_Functions.c **** }
 3390              		.loc 1 653 0
 3391 0028 10BC     		pop	{r4}
 3392              		.cfi_restore 4
 3393              		.cfi_def_cfa_offset 0
 3394              	.LVL419:
 3395 002a 7047     		bx	lr
 3396              	.L397:
 3397              		.align	2
 3398              	.L396:
 3399 002c 00000000 		.word	msgPtr
 3400              		.cfi_endproc
 3401              	.LFE37:
 3402              		.size	AddUnsignedShortAsUnsignedShort, .-AddUnsignedShortAsUnsignedShort
 3403              		.section	.text.GetUnsignedShortAsUnsignedShort,"ax",%progbits
 3404              		.align	2
 3405              		.global	GetUnsignedShortAsUnsignedShort
 3406              		.thumb
ARM GAS  C:\Users\hamis\AppData\Local\Temp\cc1fRzXM.s 			page 73


 3407              		.thumb_func
 3408              		.type	GetUnsignedShortAsUnsignedShort, %function
 3409              	GetUnsignedShortAsUnsignedShort:
 3410              	.LFB38:
 654:..\..\FreeflyAPI/QX_Parsing_Functions.c **** 
 655:..\..\FreeflyAPI/QX_Parsing_Functions.c **** void GetUnsignedShortAsUnsignedShort(uint16_t *v, uint32_t n, uint16_t max, uint16_t min)
 656:..\..\FreeflyAPI/QX_Parsing_Functions.c **** {
 3411              		.loc 1 656 0
 3412              		.cfi_startproc
 3413              		@ args = 0, pretend = 0, frame = 0
 3414              		@ frame_needed = 0, uses_anonymous_args = 0
 3415              		@ link register save eliminated.
 3416              	.LVL420:
 3417 0000 F0B4     		push	{r4, r5, r6, r7}
 3418              		.cfi_def_cfa_offset 16
 3419              		.cfi_offset 4, -16
 3420              		.cfi_offset 5, -12
 3421              		.cfi_offset 6, -8
 3422              		.cfi_offset 7, -4
 657:..\..\FreeflyAPI/QX_Parsing_Functions.c ****     if(rw == QB_Parser_Dir_WriteDel)
 3423              		.loc 1 657 0
 3424 0002 1A4C     		ldr	r4, .L409
 3425 0004 2478     		ldrb	r4, [r4]	@ zero_extendqisi2
 3426 0006 012C     		cmp	r4, #1
 3427 0008 2BD1     		bne	.L400
 3428 000a 14E0     		b	.L399
 3429              	.LVL421:
 3430              	.L403:
 3431              	.LBB42:
 658:..\..\FreeflyAPI/QX_Parsing_Functions.c ****     {
 659:..\..\FreeflyAPI/QX_Parsing_Functions.c ****         while(n--)
 660:..\..\FreeflyAPI/QX_Parsing_Functions.c ****         {
 661:..\..\FreeflyAPI/QX_Parsing_Functions.c ****             uint16_t r = GETUS;
 3432              		.loc 1 661 0
 3433 000c 184E     		ldr	r6, .L409+4
 3434 000e 3468     		ldr	r4, [r6]
 3435 0010 2578     		ldrb	r5, [r4]	@ zero_extendqisi2
 3436 0012 6178     		ldrb	r1, [r4, #1]	@ zero_extendqisi2
 3437 0014 41EA0525 		orr	r5, r1, r5, lsl #8
 3438              	.LVL422:
 3439 0018 0234     		adds	r4, r4, #2
 3440 001a 3460     		str	r4, [r6]
 662:..\..\FreeflyAPI/QX_Parsing_Functions.c ****             *v += r;
 3441              		.loc 1 662 0
 3442 001c 0188     		ldrh	r1, [r0]
 3443 001e 2944     		add	r1, r1, r5
 3444 0020 89B2     		uxth	r1, r1
 3445 0022 0180     		strh	r1, [r0]	@ movhi
 663:..\..\FreeflyAPI/QX_Parsing_Functions.c ****             if(max < *v) *v = max;
 3446              		.loc 1 663 0
 3447 0024 9142     		cmp	r1, r2
 3448 0026 00D9     		bls	.L401
 3449              		.loc 1 663 0 is_stmt 0 discriminator 1
 3450 0028 0280     		strh	r2, [r0]	@ movhi
 3451              	.L401:
 664:..\..\FreeflyAPI/QX_Parsing_Functions.c ****             if(*v < min) *v = min;
 3452              		.loc 1 664 0 is_stmt 1
ARM GAS  C:\Users\hamis\AppData\Local\Temp\cc1fRzXM.s 			page 74


 3453 002a 0188     		ldrh	r1, [r0]
 3454 002c 9942     		cmp	r1, r3
 3455 002e 00D2     		bcs	.L402
 3456              		.loc 1 664 0 is_stmt 0 discriminator 1
 3457 0030 0380     		strh	r3, [r0]	@ movhi
 3458              	.L402:
 665:..\..\FreeflyAPI/QX_Parsing_Functions.c ****             v++;
 3459              		.loc 1 665 0 is_stmt 1
 3460 0032 0230     		adds	r0, r0, #2
 3461              	.LVL423:
 3462              	.LBE42:
 659:..\..\FreeflyAPI/QX_Parsing_Functions.c ****         {
 3463              		.loc 1 659 0
 3464 0034 3946     		mov	r1, r7
 3465              	.LVL424:
 3466              	.L399:
 3467 0036 4F1E     		subs	r7, r1, #1
 3468              	.LVL425:
 3469 0038 0029     		cmp	r1, #0
 3470 003a E7D1     		bne	.L403
 3471 003c 14E0     		b	.L398
 3472              	.LVL426:
 3473              	.L407:
 3474              	.LBB43:
 666:..\..\FreeflyAPI/QX_Parsing_Functions.c ****         }
 667:..\..\FreeflyAPI/QX_Parsing_Functions.c ****     }
 668:..\..\FreeflyAPI/QX_Parsing_Functions.c ****     else
 669:..\..\FreeflyAPI/QX_Parsing_Functions.c ****     {
 670:..\..\FreeflyAPI/QX_Parsing_Functions.c ****         while(n--)
 671:..\..\FreeflyAPI/QX_Parsing_Functions.c ****         {
 672:..\..\FreeflyAPI/QX_Parsing_Functions.c ****             uint16_t r = GETUS;
 3475              		.loc 1 672 0
 3476 003e 0C4D     		ldr	r5, .L409+4
 3477 0040 2968     		ldr	r1, [r5]
 3478 0042 0F78     		ldrb	r7, [r1]	@ zero_extendqisi2
 3479 0044 4C78     		ldrb	r4, [r1, #1]	@ zero_extendqisi2
 3480 0046 44EA0724 		orr	r4, r4, r7, lsl #8
 3481              	.LVL427:
 3482 004a 0231     		adds	r1, r1, #2
 3483 004c 2960     		str	r1, [r5]
 673:..\..\FreeflyAPI/QX_Parsing_Functions.c ****             *v = r;
 3484              		.loc 1 673 0
 3485 004e 0480     		strh	r4, [r0]	@ movhi
 674:..\..\FreeflyAPI/QX_Parsing_Functions.c ****             if(max < *v) *v = max;
 3486              		.loc 1 674 0
 3487 0050 A242     		cmp	r2, r4
 3488 0052 00D2     		bcs	.L405
 3489              		.loc 1 674 0 is_stmt 0 discriminator 1
 3490 0054 0280     		strh	r2, [r0]	@ movhi
 3491              	.L405:
 675:..\..\FreeflyAPI/QX_Parsing_Functions.c ****             if(*v < min) *v = min;
 3492              		.loc 1 675 0 is_stmt 1
 3493 0056 0188     		ldrh	r1, [r0]
 3494 0058 8B42     		cmp	r3, r1
 3495 005a 00D9     		bls	.L406
 3496              		.loc 1 675 0 is_stmt 0 discriminator 1
 3497 005c 0380     		strh	r3, [r0]	@ movhi
ARM GAS  C:\Users\hamis\AppData\Local\Temp\cc1fRzXM.s 			page 75


 3498              	.L406:
 676:..\..\FreeflyAPI/QX_Parsing_Functions.c ****             v++;
 3499              		.loc 1 676 0 is_stmt 1
 3500 005e 0230     		adds	r0, r0, #2
 3501              	.LVL428:
 3502              	.LBE43:
 670:..\..\FreeflyAPI/QX_Parsing_Functions.c ****         {
 3503              		.loc 1 670 0
 3504 0060 3146     		mov	r1, r6
 3505              	.LVL429:
 3506              	.L400:
 3507 0062 4E1E     		subs	r6, r1, #1
 3508              	.LVL430:
 3509 0064 0029     		cmp	r1, #0
 3510 0066 EAD1     		bne	.L407
 3511              	.LVL431:
 3512              	.L398:
 677:..\..\FreeflyAPI/QX_Parsing_Functions.c ****         }
 678:..\..\FreeflyAPI/QX_Parsing_Functions.c ****     }
 679:..\..\FreeflyAPI/QX_Parsing_Functions.c **** }
 3513              		.loc 1 679 0
 3514 0068 F0BC     		pop	{r4, r5, r6, r7}
 3515              		.cfi_restore 7
 3516              		.cfi_restore 6
 3517              		.cfi_restore 5
 3518              		.cfi_restore 4
 3519              		.cfi_def_cfa_offset 0
 3520 006a 7047     		bx	lr
 3521              	.L410:
 3522              		.align	2
 3523              	.L409:
 3524 006c 00000000 		.word	rw
 3525 0070 00000000 		.word	msgPtr
 3526              		.cfi_endproc
 3527              	.LFE38:
 3528              		.size	GetUnsignedShortAsUnsignedShort, .-GetUnsignedShortAsUnsignedShort
 3529              		.section	.text.AddBitsAsByte,"ax",%progbits
 3530              		.align	2
 3531              		.global	AddBitsAsByte
 3532              		.thumb
 3533              		.thumb_func
 3534              		.type	AddBitsAsByte, %function
 3535              	AddBitsAsByte:
 3536              	.LFB39:
 680:..\..\FreeflyAPI/QX_Parsing_Functions.c **** 
 681:..\..\FreeflyAPI/QX_Parsing_Functions.c **** // Adds a field of bits to a char
 682:..\..\FreeflyAPI/QX_Parsing_Functions.c **** void AddBitsAsByte(uint8_t *v, uint8_t start_bit, uint8_t n_bits)
 683:..\..\FreeflyAPI/QX_Parsing_Functions.c **** {
 3537              		.loc 1 683 0
 3538              		.cfi_startproc
 3539              		@ args = 0, pretend = 0, frame = 0
 3540              		@ frame_needed = 0, uses_anonymous_args = 0
 3541              		@ link register save eliminated.
 3542              	.LVL432:
 3543 0000 70B4     		push	{r4, r5, r6}
 3544              		.cfi_def_cfa_offset 12
 3545              		.cfi_offset 4, -12
ARM GAS  C:\Users\hamis\AppData\Local\Temp\cc1fRzXM.s 			page 76


 3546              		.cfi_offset 5, -8
 3547              		.cfi_offset 6, -4
 684:..\..\FreeflyAPI/QX_Parsing_Functions.c **** 	uint8_t temp = *msgPtr;
 3548              		.loc 1 684 0
 3549 0002 154B     		ldr	r3, .L424
 3550 0004 1D68     		ldr	r5, [r3]
 3551 0006 2C78     		ldrb	r4, [r5]	@ zero_extendqisi2
 3552 0008 E4B2     		uxtb	r4, r4
 3553              	.LVL433:
 685:..\..\FreeflyAPI/QX_Parsing_Functions.c **** 	uint8_t mask;
 686:..\..\FreeflyAPI/QX_Parsing_Functions.c **** 	
 687:..\..\FreeflyAPI/QX_Parsing_Functions.c **** 	switch (n_bits){
 3554              		.loc 1 687 0
 3555 000a 013A     		subs	r2, r2, #1
 3556              	.LVL434:
 3557 000c 072A     		cmp	r2, #7
 3558 000e 14D8     		bhi	.L413
 3559 0010 DFE802F0 		tbb	[pc, r2]
 3560              	.L414:
 3561 0014 12       		.byte	(.L422-.L414)/2
 3562 0015 04       		.byte	(.L415-.L414)/2
 3563 0016 06       		.byte	(.L416-.L414)/2
 3564 0017 08       		.byte	(.L417-.L414)/2
 3565 0018 0A       		.byte	(.L418-.L414)/2
 3566 0019 0C       		.byte	(.L419-.L414)/2
 3567 001a 0E       		.byte	(.L420-.L414)/2
 3568 001b 10       		.byte	(.L421-.L414)/2
 3569              		.p2align 1
 3570              	.L415:
 3571              	.LVL435:
 688:..\..\FreeflyAPI/QX_Parsing_Functions.c **** 		case 1:
 689:..\..\FreeflyAPI/QX_Parsing_Functions.c **** 			mask = BITFIELD_MASK_1; break;
 690:..\..\FreeflyAPI/QX_Parsing_Functions.c **** 		case 2:
 691:..\..\FreeflyAPI/QX_Parsing_Functions.c **** 			mask = BITFIELD_MASK_2; break;
 3572              		.loc 1 691 0
 3573 001c 0326     		movs	r6, #3
 3574 001e 0CE0     		b	.L413
 3575              	.LVL436:
 3576              	.L416:
 692:..\..\FreeflyAPI/QX_Parsing_Functions.c **** 		case 3:
 693:..\..\FreeflyAPI/QX_Parsing_Functions.c **** 			mask = BITFIELD_MASK_3; break;
 3577              		.loc 1 693 0
 3578 0020 0726     		movs	r6, #7
 3579 0022 0AE0     		b	.L413
 3580              	.LVL437:
 3581              	.L417:
 694:..\..\FreeflyAPI/QX_Parsing_Functions.c **** 		case 4:
 695:..\..\FreeflyAPI/QX_Parsing_Functions.c **** 			mask = BITFIELD_MASK_4; break;
 3582              		.loc 1 695 0
 3583 0024 0F26     		movs	r6, #15
 3584 0026 08E0     		b	.L413
 3585              	.LVL438:
 3586              	.L418:
 696:..\..\FreeflyAPI/QX_Parsing_Functions.c **** 		case 5:
 697:..\..\FreeflyAPI/QX_Parsing_Functions.c **** 			mask = BITFIELD_MASK_5; break;
 3587              		.loc 1 697 0
 3588 0028 1F26     		movs	r6, #31
ARM GAS  C:\Users\hamis\AppData\Local\Temp\cc1fRzXM.s 			page 77


 3589 002a 06E0     		b	.L413
 3590              	.LVL439:
 3591              	.L419:
 698:..\..\FreeflyAPI/QX_Parsing_Functions.c **** 		case 6:
 699:..\..\FreeflyAPI/QX_Parsing_Functions.c **** 			mask = BITFIELD_MASK_6; break;
 3592              		.loc 1 699 0
 3593 002c 3F26     		movs	r6, #63
 3594 002e 04E0     		b	.L413
 3595              	.LVL440:
 3596              	.L420:
 700:..\..\FreeflyAPI/QX_Parsing_Functions.c **** 		case 7:
 701:..\..\FreeflyAPI/QX_Parsing_Functions.c **** 			mask = BITFIELD_MASK_7; break;
 3597              		.loc 1 701 0
 3598 0030 7F26     		movs	r6, #127
 3599 0032 02E0     		b	.L413
 3600              	.LVL441:
 3601              	.L421:
 702:..\..\FreeflyAPI/QX_Parsing_Functions.c **** 		case 8:
 703:..\..\FreeflyAPI/QX_Parsing_Functions.c **** 			mask = BITFIELD_MASK_8; break;
 3602              		.loc 1 703 0
 3603 0034 FF26     		movs	r6, #255
 3604 0036 00E0     		b	.L413
 3605              	.LVL442:
 3606              	.L422:
 689:..\..\FreeflyAPI/QX_Parsing_Functions.c **** 		case 2:
 3607              		.loc 1 689 0
 3608 0038 0126     		movs	r6, #1
 3609              	.L413:
 3610              	.LVL443:
 704:..\..\FreeflyAPI/QX_Parsing_Functions.c **** 		default:
 705:..\..\FreeflyAPI/QX_Parsing_Functions.c **** 			break;
 706:..\..\FreeflyAPI/QX_Parsing_Functions.c **** 	}
 707:..\..\FreeflyAPI/QX_Parsing_Functions.c **** 	
 708:..\..\FreeflyAPI/QX_Parsing_Functions.c **** 	// Move the mask up to the starting position and clear the existing bits in the field
 709:..\..\FreeflyAPI/QX_Parsing_Functions.c **** 	temp &= ~(mask << start_bit);
 3611              		.loc 1 709 0
 3612 003a 06FA01F3 		lsl	r3, r6, r1
 3613 003e 24EA0304 		bic	r4, r4, r3
 3614              	.LVL444:
 3615 0042 64B2     		sxtb	r4, r4
 3616              	.LVL445:
 710:..\..\FreeflyAPI/QX_Parsing_Functions.c **** 	
 711:..\..\FreeflyAPI/QX_Parsing_Functions.c **** 	// Add the bit field in
 712:..\..\FreeflyAPI/QX_Parsing_Functions.c **** 	temp |= ((*v & mask) << start_bit);
 3617              		.loc 1 712 0
 3618 0044 0378     		ldrb	r3, [r0]	@ zero_extendqisi2
 3619 0046 3340     		ands	r3, r3, r6
 3620 0048 03FA01F1 		lsl	r1, r3, r1
 3621              	.LVL446:
 3622 004c 2143     		orrs	r1, r1, r4
 3623 004e C9B2     		uxtb	r1, r1
 3624              	.LVL447:
 713:..\..\FreeflyAPI/QX_Parsing_Functions.c **** 	*msgPtr = temp;
 3625              		.loc 1 713 0
 3626 0050 2970     		strb	r1, [r5]
 714:..\..\FreeflyAPI/QX_Parsing_Functions.c **** }
 3627              		.loc 1 714 0
ARM GAS  C:\Users\hamis\AppData\Local\Temp\cc1fRzXM.s 			page 78


 3628 0052 70BC     		pop	{r4, r5, r6}
 3629              		.cfi_restore 6
 3630              		.cfi_restore 5
 3631              		.cfi_restore 4
 3632              		.cfi_def_cfa_offset 0
 3633              	.LVL448:
 3634 0054 7047     		bx	lr
 3635              	.L425:
 3636 0056 00BF     		.align	2
 3637              	.L424:
 3638 0058 00000000 		.word	msgPtr
 3639              		.cfi_endproc
 3640              	.LFE39:
 3641              		.size	AddBitsAsByte, .-AddBitsAsByte
 3642              		.section	.text.GetBitsAsByte,"ax",%progbits
 3643              		.align	2
 3644              		.global	GetBitsAsByte
 3645              		.thumb
 3646              		.thumb_func
 3647              		.type	GetBitsAsByte, %function
 3648              	GetBitsAsByte:
 3649              	.LFB40:
 715:..\..\FreeflyAPI/QX_Parsing_Functions.c **** 
 716:..\..\FreeflyAPI/QX_Parsing_Functions.c **** // Applys the bitfield from the buffer to a byte within the range of bits specified. 
 717:..\..\FreeflyAPI/QX_Parsing_Functions.c **** // The returned bitfield starts at bit 0 in the byte.
 718:..\..\FreeflyAPI/QX_Parsing_Functions.c **** // Relative write direction applies the bitfield as an XOR toggle mask, which flips each bit within
 719:..\..\FreeflyAPI/QX_Parsing_Functions.c **** // Absolute write direction applies the bitfield as an absolute value.
 720:..\..\FreeflyAPI/QX_Parsing_Functions.c **** void GetBitsAsByte(uint8_t *v, uint8_t start_bit, uint8_t n_bits)
 721:..\..\FreeflyAPI/QX_Parsing_Functions.c **** {
 3650              		.loc 1 721 0
 3651              		.cfi_startproc
 3652              		@ args = 0, pretend = 0, frame = 0
 3653              		@ frame_needed = 0, uses_anonymous_args = 0
 3654              		@ link register save eliminated.
 3655              	.LVL449:
 3656 0000 10B4     		push	{r4}
 3657              		.cfi_def_cfa_offset 4
 3658              		.cfi_offset 4, -4
 722:..\..\FreeflyAPI/QX_Parsing_Functions.c **** 	uint8_t mask, xor_mask;
 723:..\..\FreeflyAPI/QX_Parsing_Functions.c **** 	
 724:..\..\FreeflyAPI/QX_Parsing_Functions.c **** 	switch (n_bits){
 3659              		.loc 1 724 0
 3660 0002 013A     		subs	r2, r2, #1
 3661              	.LVL450:
 3662 0004 072A     		cmp	r2, #7
 3663 0006 14D8     		bhi	.L428
 3664 0008 DFE802F0 		tbb	[pc, r2]
 3665              	.L429:
 3666 000c 12       		.byte	(.L439-.L429)/2
 3667 000d 04       		.byte	(.L430-.L429)/2
 3668 000e 06       		.byte	(.L431-.L429)/2
 3669 000f 08       		.byte	(.L432-.L429)/2
 3670 0010 0A       		.byte	(.L433-.L429)/2
 3671 0011 0C       		.byte	(.L434-.L429)/2
 3672 0012 0E       		.byte	(.L435-.L429)/2
 3673 0013 10       		.byte	(.L436-.L429)/2
 3674              		.p2align 1
ARM GAS  C:\Users\hamis\AppData\Local\Temp\cc1fRzXM.s 			page 79


 3675              	.L430:
 3676              	.LVL451:
 725:..\..\FreeflyAPI/QX_Parsing_Functions.c **** 		case 1:
 726:..\..\FreeflyAPI/QX_Parsing_Functions.c **** 			mask = BITFIELD_MASK_1; break;
 727:..\..\FreeflyAPI/QX_Parsing_Functions.c **** 		case 2:
 728:..\..\FreeflyAPI/QX_Parsing_Functions.c **** 			mask = BITFIELD_MASK_2; break;
 3677              		.loc 1 728 0
 3678 0014 0324     		movs	r4, #3
 3679 0016 0CE0     		b	.L428
 3680              	.LVL452:
 3681              	.L431:
 729:..\..\FreeflyAPI/QX_Parsing_Functions.c **** 		case 3:
 730:..\..\FreeflyAPI/QX_Parsing_Functions.c **** 			mask = BITFIELD_MASK_3; break;
 3682              		.loc 1 730 0
 3683 0018 0724     		movs	r4, #7
 3684 001a 0AE0     		b	.L428
 3685              	.LVL453:
 3686              	.L432:
 731:..\..\FreeflyAPI/QX_Parsing_Functions.c **** 		case 4:
 732:..\..\FreeflyAPI/QX_Parsing_Functions.c **** 			mask = BITFIELD_MASK_4; break;
 3687              		.loc 1 732 0
 3688 001c 0F24     		movs	r4, #15
 3689 001e 08E0     		b	.L428
 3690              	.LVL454:
 3691              	.L433:
 733:..\..\FreeflyAPI/QX_Parsing_Functions.c **** 		case 5:
 734:..\..\FreeflyAPI/QX_Parsing_Functions.c **** 			mask = BITFIELD_MASK_5; break;
 3692              		.loc 1 734 0
 3693 0020 1F24     		movs	r4, #31
 3694 0022 06E0     		b	.L428
 3695              	.LVL455:
 3696              	.L434:
 735:..\..\FreeflyAPI/QX_Parsing_Functions.c **** 		case 6:
 736:..\..\FreeflyAPI/QX_Parsing_Functions.c **** 			mask = BITFIELD_MASK_6; break;
 3697              		.loc 1 736 0
 3698 0024 3F24     		movs	r4, #63
 3699 0026 04E0     		b	.L428
 3700              	.LVL456:
 3701              	.L435:
 737:..\..\FreeflyAPI/QX_Parsing_Functions.c **** 		case 7:
 738:..\..\FreeflyAPI/QX_Parsing_Functions.c **** 			mask = BITFIELD_MASK_7; break;
 3702              		.loc 1 738 0
 3703 0028 7F24     		movs	r4, #127
 3704 002a 02E0     		b	.L428
 3705              	.LVL457:
 3706              	.L436:
 739:..\..\FreeflyAPI/QX_Parsing_Functions.c **** 		case 8:
 740:..\..\FreeflyAPI/QX_Parsing_Functions.c **** 			mask = BITFIELD_MASK_8; break;
 3707              		.loc 1 740 0
 3708 002c FF24     		movs	r4, #255
 3709 002e 00E0     		b	.L428
 3710              	.LVL458:
 3711              	.L439:
 726:..\..\FreeflyAPI/QX_Parsing_Functions.c **** 		case 2:
 3712              		.loc 1 726 0
 3713 0030 0124     		movs	r4, #1
 3714              	.L428:
ARM GAS  C:\Users\hamis\AppData\Local\Temp\cc1fRzXM.s 			page 80


 3715              	.LVL459:
 741:..\..\FreeflyAPI/QX_Parsing_Functions.c **** 		default:
 742:..\..\FreeflyAPI/QX_Parsing_Functions.c **** 			break;
 743:..\..\FreeflyAPI/QX_Parsing_Functions.c **** 	}
 744:..\..\FreeflyAPI/QX_Parsing_Functions.c **** 	
 745:..\..\FreeflyAPI/QX_Parsing_Functions.c **** 	if(rw == QB_Parser_Dir_WriteDel)
 3716              		.loc 1 745 0
 3717 0032 0D4B     		ldr	r3, .L441
 3718 0034 1B78     		ldrb	r3, [r3]	@ zero_extendqisi2
 3719 0036 012B     		cmp	r3, #1
 3720 0038 0BD1     		bne	.L437
 746:..\..\FreeflyAPI/QX_Parsing_Functions.c ****     {
 747:..\..\FreeflyAPI/QX_Parsing_Functions.c **** 		xor_mask = (*msgPtr >> start_bit) & mask;
 3721              		.loc 1 747 0
 3722 003a 0C4B     		ldr	r3, .L441+4
 3723 003c 1B68     		ldr	r3, [r3]
 3724 003e 1B78     		ldrb	r3, [r3]	@ zero_extendqisi2
 3725 0040 DBB2     		uxtb	r3, r3
 3726 0042 43FA01F1 		asr	r1, r3, r1
 3727              	.LVL460:
 3728 0046 0C40     		ands	r4, r4, r1
 3729              	.LVL461:
 3730 0048 E4B2     		uxtb	r4, r4
 3731              	.LVL462:
 748:..\..\FreeflyAPI/QX_Parsing_Functions.c **** 		*v ^= xor_mask;
 3732              		.loc 1 748 0
 3733 004a 0378     		ldrb	r3, [r0]	@ zero_extendqisi2
 3734 004c 5C40     		eors	r4, r4, r3
 3735              	.LVL463:
 3736 004e 0470     		strb	r4, [r0]
 3737 0050 07E0     		b	.L426
 3738              	.LVL464:
 3739              	.L437:
 749:..\..\FreeflyAPI/QX_Parsing_Functions.c ****     }
 750:..\..\FreeflyAPI/QX_Parsing_Functions.c ****     else
 751:..\..\FreeflyAPI/QX_Parsing_Functions.c ****     {
 752:..\..\FreeflyAPI/QX_Parsing_Functions.c **** 		*v = (*msgPtr >> start_bit) & mask;
 3740              		.loc 1 752 0
 3741 0052 064B     		ldr	r3, .L441+4
 3742 0054 1B68     		ldr	r3, [r3]
 3743 0056 1B78     		ldrb	r3, [r3]	@ zero_extendqisi2
 3744 0058 DBB2     		uxtb	r3, r3
 3745 005a 43FA01F1 		asr	r1, r3, r1
 3746              	.LVL465:
 3747 005e 2140     		ands	r1, r1, r4
 3748 0060 0170     		strb	r1, [r0]
 3749              	.LVL466:
 3750              	.L426:
 753:..\..\FreeflyAPI/QX_Parsing_Functions.c ****     }
 754:..\..\FreeflyAPI/QX_Parsing_Functions.c **** }
 3751              		.loc 1 754 0
 3752 0062 10BC     		pop	{r4}
 3753              		.cfi_restore 4
 3754              		.cfi_def_cfa_offset 0
 3755 0064 7047     		bx	lr
 3756              	.L442:
 3757 0066 00BF     		.align	2
ARM GAS  C:\Users\hamis\AppData\Local\Temp\cc1fRzXM.s 			page 81


 3758              	.L441:
 3759 0068 00000000 		.word	rw
 3760 006c 00000000 		.word	msgPtr
 3761              		.cfi_endproc
 3762              	.LFE40:
 3763              		.size	GetBitsAsByte, .-GetBitsAsByte
 3764              		.comm	get_uint16_t,2,2
 3765              		.comm	rw_orig,1,1
 3766              		.comm	rw,1,1
 3767              		.comm	msgPtr,4,4
 3768              		.text
 3769              	.Letext0:
 3770              		.file 2 "d:\\program files (x86)\\psoc creator\\4.4\\psoc creator\\import\\gnu\\arm\\5.4.1\\arm-no
 3771              		.file 3 "d:\\program files (x86)\\psoc creator\\4.4\\psoc creator\\import\\gnu\\arm\\5.4.1\\arm-no
 3772              		.file 4 "..\\..\\FreeflyAPI\\QX_Parsing_Functions.h"
 3773              		.section	.debug_info,"",%progbits
 3774              	.Ldebug_info0:
 3775 0000 AF0F0000 		.4byte	0xfaf
 3776 0004 0400     		.2byte	0x4
 3777 0006 00000000 		.4byte	.Ldebug_abbrev0
 3778 000a 04       		.byte	0x4
 3779 000b 01       		.uleb128 0x1
 3780 000c 92040000 		.4byte	.LASF82
 3781 0010 0C       		.byte	0xc
 3782 0011 E2000000 		.4byte	.LASF83
 3783 0015 B1020000 		.4byte	.LASF84
 3784 0019 00000000 		.4byte	.Ldebug_ranges0+0
 3785 001d 00000000 		.4byte	0
 3786 0021 00000000 		.4byte	.Ldebug_line0
 3787 0025 02       		.uleb128 0x2
 3788 0026 04       		.byte	0x4
 3789 0027 04       		.byte	0x4
 3790 0028 1F040000 		.4byte	.LASF0
 3791 002c 02       		.uleb128 0x2
 3792 002d 04       		.byte	0x4
 3793 002e 07       		.byte	0x7
 3794 002f A4020000 		.4byte	.LASF1
 3795 0033 03       		.uleb128 0x3
 3796 0034 04       		.byte	0x4
 3797 0035 05       		.byte	0x5
 3798 0036 696E7400 		.ascii	"int\000"
 3799 003a 02       		.uleb128 0x2
 3800 003b 08       		.byte	0x8
 3801 003c 05       		.byte	0x5
 3802 003d 37010000 		.4byte	.LASF2
 3803 0041 02       		.uleb128 0x2
 3804 0042 08       		.byte	0x8
 3805 0043 04       		.byte	0x4
 3806 0044 BF030000 		.4byte	.LASF3
 3807 0048 04       		.uleb128 0x4
 3808 0049 0A010000 		.4byte	.LASF5
 3809 004d 02       		.byte	0x2
 3810 004e 1B       		.byte	0x1b
 3811 004f 53000000 		.4byte	0x53
 3812 0053 02       		.uleb128 0x2
 3813 0054 01       		.byte	0x1
 3814 0055 06       		.byte	0x6
ARM GAS  C:\Users\hamis\AppData\Local\Temp\cc1fRzXM.s 			page 82


 3815 0056 45010000 		.4byte	.LASF4
 3816 005a 04       		.uleb128 0x4
 3817 005b 4B000000 		.4byte	.LASF6
 3818 005f 02       		.byte	0x2
 3819 0060 1D       		.byte	0x1d
 3820 0061 65000000 		.4byte	0x65
 3821 0065 02       		.uleb128 0x2
 3822 0066 01       		.byte	0x1
 3823 0067 08       		.byte	0x8
 3824 0068 4E040000 		.4byte	.LASF7
 3825 006c 04       		.uleb128 0x4
 3826 006d 3D020000 		.4byte	.LASF8
 3827 0071 02       		.byte	0x2
 3828 0072 29       		.byte	0x29
 3829 0073 77000000 		.4byte	0x77
 3830 0077 02       		.uleb128 0x2
 3831 0078 02       		.byte	0x2
 3832 0079 05       		.byte	0x5
 3833 007a 73040000 		.4byte	.LASF9
 3834 007e 04       		.uleb128 0x4
 3835 007f 9A050000 		.4byte	.LASF10
 3836 0083 02       		.byte	0x2
 3837 0084 2B       		.byte	0x2b
 3838 0085 89000000 		.4byte	0x89
 3839 0089 02       		.uleb128 0x2
 3840 008a 02       		.byte	0x2
 3841 008b 07       		.byte	0x7
 3842 008c 13030000 		.4byte	.LASF11
 3843 0090 04       		.uleb128 0x4
 3844 0091 A5050000 		.4byte	.LASF12
 3845 0095 02       		.byte	0x2
 3846 0096 3F       		.byte	0x3f
 3847 0097 9B000000 		.4byte	0x9b
 3848 009b 02       		.uleb128 0x2
 3849 009c 04       		.byte	0x4
 3850 009d 05       		.byte	0x5
 3851 009e 87010000 		.4byte	.LASF13
 3852 00a2 04       		.uleb128 0x4
 3853 00a3 13020000 		.4byte	.LASF14
 3854 00a7 02       		.byte	0x2
 3855 00a8 41       		.byte	0x41
 3856 00a9 AD000000 		.4byte	0xad
 3857 00ad 02       		.uleb128 0x2
 3858 00ae 04       		.byte	0x4
 3859 00af 07       		.byte	0x7
 3860 00b0 EE020000 		.4byte	.LASF15
 3861 00b4 02       		.uleb128 0x2
 3862 00b5 08       		.byte	0x8
 3863 00b6 07       		.byte	0x7
 3864 00b7 BA000000 		.4byte	.LASF16
 3865 00bb 02       		.uleb128 0x2
 3866 00bc 04       		.byte	0x4
 3867 00bd 07       		.byte	0x7
 3868 00be 92030000 		.4byte	.LASF17
 3869 00c2 02       		.uleb128 0x2
 3870 00c3 01       		.byte	0x1
 3871 00c4 08       		.byte	0x8
ARM GAS  C:\Users\hamis\AppData\Local\Temp\cc1fRzXM.s 			page 83


 3872 00c5 7B050000 		.4byte	.LASF18
 3873 00c9 04       		.uleb128 0x4
 3874 00ca FA050000 		.4byte	.LASF19
 3875 00ce 03       		.byte	0x3
 3876 00cf 14       		.byte	0x14
 3877 00d0 48000000 		.4byte	0x48
 3878 00d4 04       		.uleb128 0x4
 3879 00d5 56060000 		.4byte	.LASF20
 3880 00d9 03       		.byte	0x3
 3881 00da 18       		.byte	0x18
 3882 00db 5A000000 		.4byte	0x5a
 3883 00df 04       		.uleb128 0x4
 3884 00e0 2F010000 		.4byte	.LASF21
 3885 00e4 03       		.byte	0x3
 3886 00e5 20       		.byte	0x20
 3887 00e6 6C000000 		.4byte	0x6c
 3888 00ea 04       		.uleb128 0x4
 3889 00eb D1010000 		.4byte	.LASF22
 3890 00ef 03       		.byte	0x3
 3891 00f0 24       		.byte	0x24
 3892 00f1 7E000000 		.4byte	0x7e
 3893 00f5 04       		.uleb128 0x4
 3894 00f6 46040000 		.4byte	.LASF23
 3895 00fa 03       		.byte	0x3
 3896 00fb 2C       		.byte	0x2c
 3897 00fc 90000000 		.4byte	0x90
 3898 0100 04       		.uleb128 0x4
 3899 0101 58050000 		.4byte	.LASF24
 3900 0105 03       		.byte	0x3
 3901 0106 30       		.byte	0x30
 3902 0107 A2000000 		.4byte	0xa2
 3903 010b 05       		.uleb128 0x5
 3904 010c 01       		.byte	0x1
 3905 010d 65000000 		.4byte	0x65
 3906 0111 04       		.byte	0x4
 3907 0112 24       		.byte	0x24
 3908 0113 2A010000 		.4byte	0x12a
 3909 0117 06       		.uleb128 0x6
 3910 0118 00030000 		.4byte	.LASF25
 3911 011c 00       		.byte	0
 3912 011d 06       		.uleb128 0x6
 3913 011e 5C040000 		.4byte	.LASF26
 3914 0122 01       		.byte	0x1
 3915 0123 06       		.uleb128 0x6
 3916 0124 CD050000 		.4byte	.LASF27
 3917 0128 02       		.byte	0x2
 3918 0129 00       		.byte	0
 3919 012a 04       		.uleb128 0x4
 3920 012b 3B000000 		.4byte	.LASF28
 3921 012f 04       		.byte	0x4
 3922 0130 28       		.byte	0x28
 3923 0131 0B010000 		.4byte	0x10b
 3924 0135 02       		.uleb128 0x2
 3925 0136 08       		.byte	0x8
 3926 0137 04       		.byte	0x4
 3927 0138 DA010000 		.4byte	.LASF29
 3928 013c 07       		.uleb128 0x7
ARM GAS  C:\Users\hamis\AppData\Local\Temp\cc1fRzXM.s 			page 84


 3929 013d 70000000 		.4byte	.LASF38
 3930 0141 01       		.byte	0x1
 3931 0142 45       		.byte	0x45
 3932 0143 00000000 		.4byte	.LFB0
 3933 0147 0C000000 		.4byte	.LFE0-.LFB0
 3934 014b 01       		.uleb128 0x1
 3935 014c 9C       		.byte	0x9c
 3936 014d 5D010000 		.4byte	0x15d
 3937 0151 08       		.uleb128 0x8
 3938 0152 7000     		.ascii	"p\000"
 3939 0154 01       		.byte	0x1
 3940 0155 45       		.byte	0x45
 3941 0156 5D010000 		.4byte	0x15d
 3942 015a 01       		.uleb128 0x1
 3943 015b 50       		.byte	0x50
 3944 015c 00       		.byte	0
 3945 015d 09       		.uleb128 0x9
 3946 015e 04       		.byte	0x4
 3947 015f D4000000 		.4byte	0xd4
 3948 0163 0A       		.uleb128 0xa
 3949 0164 20050000 		.4byte	.LASF30
 3950 0168 01       		.byte	0x1
 3951 0169 4A       		.byte	0x4a
 3952 016a 00000000 		.4byte	.LFB1
 3953 016e 10000000 		.4byte	.LFE1-.LFB1
 3954 0172 01       		.uleb128 0x1
 3955 0173 9C       		.byte	0x9c
 3956 0174 0B       		.uleb128 0xb
 3957 0175 FF010000 		.4byte	.LASF34
 3958 0179 01       		.byte	0x1
 3959 017a 4F       		.byte	0x4f
 3960 017b 89010000 		.4byte	0x189
 3961 017f 00000000 		.4byte	.LFB2
 3962 0183 0C000000 		.4byte	.LFE2-.LFB2
 3963 0187 01       		.uleb128 0x1
 3964 0188 9C       		.byte	0x9c
 3965 0189 09       		.uleb128 0x9
 3966 018a 04       		.byte	0x4
 3967 018b 8F010000 		.4byte	0x18f
 3968 018f 0C       		.uleb128 0xc
 3969 0190 D4000000 		.4byte	0xd4
 3970 0194 0A       		.uleb128 0xa
 3971 0195 42050000 		.4byte	.LASF31
 3972 0199 01       		.byte	0x1
 3973 019a 54       		.byte	0x54
 3974 019b 00000000 		.4byte	.LFB3
 3975 019f 0C000000 		.4byte	.LFE3-.LFB3
 3976 01a3 01       		.uleb128 0x1
 3977 01a4 9C       		.byte	0x9c
 3978 01a5 0A       		.uleb128 0xa
 3979 01a6 25040000 		.4byte	.LASF32
 3980 01aa 01       		.byte	0x1
 3981 01ab 59       		.byte	0x59
 3982 01ac 00000000 		.4byte	.LFB4
 3983 01b0 0C000000 		.4byte	.LFE4-.LFB4
 3984 01b4 01       		.uleb128 0x1
 3985 01b5 9C       		.byte	0x9c
ARM GAS  C:\Users\hamis\AppData\Local\Temp\cc1fRzXM.s 			page 85


 3986 01b6 0A       		.uleb128 0xa
 3987 01b7 23020000 		.4byte	.LASF33
 3988 01bb 01       		.byte	0x1
 3989 01bc 5E       		.byte	0x5e
 3990 01bd 00000000 		.4byte	.LFB5
 3991 01c1 0C000000 		.4byte	.LFE5-.LFB5
 3992 01c5 01       		.uleb128 0x1
 3993 01c6 9C       		.byte	0x9c
 3994 01c7 0B       		.uleb128 0xb
 3995 01c8 D1000000 		.4byte	.LASF35
 3996 01cc 01       		.byte	0x1
 3997 01cd 63       		.byte	0x63
 3998 01ce 2A010000 		.4byte	0x12a
 3999 01d2 00000000 		.4byte	.LFB6
 4000 01d6 0C000000 		.4byte	.LFE6-.LFB6
 4001 01da 01       		.uleb128 0x1
 4002 01db 9C       		.byte	0x9c
 4003 01dc 0A       		.uleb128 0xa
 4004 01dd 00000000 		.4byte	.LASF36
 4005 01e1 01       		.byte	0x1
 4006 01e2 68       		.byte	0x68
 4007 01e3 00000000 		.4byte	.LFB7
 4008 01e7 1C000000 		.4byte	.LFE7-.LFB7
 4009 01eb 01       		.uleb128 0x1
 4010 01ec 9C       		.byte	0x9c
 4011 01ed 0A       		.uleb128 0xa
 4012 01ee 2C060000 		.4byte	.LASF37
 4013 01f2 01       		.byte	0x1
 4014 01f3 70       		.byte	0x70
 4015 01f4 00000000 		.4byte	.LFB8
 4016 01f8 14000000 		.4byte	.LFE8-.LFB8
 4017 01fc 01       		.uleb128 0x1
 4018 01fd 9C       		.byte	0x9c
 4019 01fe 0D       		.uleb128 0xd
 4020 01ff 7D040000 		.4byte	.LASF39
 4021 0203 01       		.byte	0x1
 4022 0204 78       		.byte	0x78
 4023 0205 00000000 		.4byte	.LFB9
 4024 0209 94000000 		.4byte	.LFE9-.LFB9
 4025 020d 01       		.uleb128 0x1
 4026 020e 9C       		.byte	0x9c
 4027 020f 56020000 		.4byte	0x256
 4028 0213 0E       		.uleb128 0xe
 4029 0214 7600     		.ascii	"v\000"
 4030 0216 01       		.byte	0x1
 4031 0217 78       		.byte	0x78
 4032 0218 56020000 		.4byte	0x256
 4033 021c 00000000 		.4byte	.LLST0
 4034 0220 0E       		.uleb128 0xe
 4035 0221 6E00     		.ascii	"n\000"
 4036 0223 01       		.byte	0x1
 4037 0224 78       		.byte	0x78
 4038 0225 00010000 		.4byte	0x100
 4039 0229 1E000000 		.4byte	.LLST1
 4040 022d 0F       		.uleb128 0xf
 4041 022e 4E060000 		.4byte	.LASF40
 4042 0232 01       		.byte	0x1
ARM GAS  C:\Users\hamis\AppData\Local\Temp\cc1fRzXM.s 			page 86


 4043 0233 78       		.byte	0x78
 4044 0234 25000000 		.4byte	0x25
 4045 0238 5F000000 		.4byte	.LLST2
 4046 023c 10       		.uleb128 0x10
 4047 023d 0A000000 		.4byte	.LBB2
 4048 0241 7A000000 		.4byte	.LBE2-.LBB2
 4049 0245 11       		.uleb128 0x11
 4050 0246 5E020000 		.4byte	.LASF42
 4051 024a 01       		.byte	0x1
 4052 024b 7C       		.byte	0x7c
 4053 024c F5000000 		.4byte	0xf5
 4054 0250 8D000000 		.4byte	.LLST3
 4055 0254 00       		.byte	0
 4056 0255 00       		.byte	0
 4057 0256 09       		.uleb128 0x9
 4058 0257 04       		.byte	0x4
 4059 0258 25000000 		.4byte	0x25
 4060 025c 0D       		.uleb128 0xd
 4061 025d E4050000 		.4byte	.LASF41
 4062 0261 01       		.byte	0x1
 4063 0262 82       		.byte	0x82
 4064 0263 00000000 		.4byte	.LFB10
 4065 0267 80000000 		.4byte	.LFE10-.LFB10
 4066 026b 01       		.uleb128 0x1
 4067 026c 9C       		.byte	0x9c
 4068 026d B4020000 		.4byte	0x2b4
 4069 0271 0E       		.uleb128 0xe
 4070 0272 7600     		.ascii	"v\000"
 4071 0274 01       		.byte	0x1
 4072 0275 82       		.byte	0x82
 4073 0276 56020000 		.4byte	0x256
 4074 027a A0000000 		.4byte	.LLST4
 4075 027e 0E       		.uleb128 0xe
 4076 027f 6E00     		.ascii	"n\000"
 4077 0281 01       		.byte	0x1
 4078 0282 82       		.byte	0x82
 4079 0283 00010000 		.4byte	0x100
 4080 0287 BE000000 		.4byte	.LLST5
 4081 028b 0F       		.uleb128 0xf
 4082 028c 4E060000 		.4byte	.LASF40
 4083 0290 01       		.byte	0x1
 4084 0291 82       		.byte	0x82
 4085 0292 25000000 		.4byte	0x25
 4086 0296 FF000000 		.4byte	.LLST6
 4087 029a 10       		.uleb128 0x10
 4088 029b 0A000000 		.4byte	.LBB3
 4089 029f 66000000 		.4byte	.LBE3-.LBB3
 4090 02a3 11       		.uleb128 0x11
 4091 02a4 5E020000 		.4byte	.LASF42
 4092 02a8 01       		.byte	0x1
 4093 02a9 86       		.byte	0x86
 4094 02aa DF000000 		.4byte	0xdf
 4095 02ae 2D010000 		.4byte	.LLST7
 4096 02b2 00       		.byte	0
 4097 02b3 00       		.byte	0
 4098 02b4 0D       		.uleb128 0xd
 4099 02b5 EA010000 		.4byte	.LASF43
ARM GAS  C:\Users\hamis\AppData\Local\Temp\cc1fRzXM.s 			page 87


 4100 02b9 01       		.byte	0x1
 4101 02ba 8C       		.byte	0x8c
 4102 02bb 00000000 		.4byte	.LFB11
 4103 02bf 70000000 		.4byte	.LFE11-.LFB11
 4104 02c3 01       		.uleb128 0x1
 4105 02c4 9C       		.byte	0x9c
 4106 02c5 0C030000 		.4byte	0x30c
 4107 02c9 0E       		.uleb128 0xe
 4108 02ca 7600     		.ascii	"v\000"
 4109 02cc 01       		.byte	0x1
 4110 02cd 8C       		.byte	0x8c
 4111 02ce 56020000 		.4byte	0x256
 4112 02d2 40010000 		.4byte	.LLST8
 4113 02d6 0E       		.uleb128 0xe
 4114 02d7 6E00     		.ascii	"n\000"
 4115 02d9 01       		.byte	0x1
 4116 02da 8C       		.byte	0x8c
 4117 02db 00010000 		.4byte	0x100
 4118 02df 5E010000 		.4byte	.LLST9
 4119 02e3 0F       		.uleb128 0xf
 4120 02e4 4E060000 		.4byte	.LASF40
 4121 02e8 01       		.byte	0x1
 4122 02e9 8C       		.byte	0x8c
 4123 02ea 25000000 		.4byte	0x25
 4124 02ee 9F010000 		.4byte	.LLST10
 4125 02f2 10       		.uleb128 0x10
 4126 02f3 0A000000 		.4byte	.LBB4
 4127 02f7 56000000 		.4byte	.LBE4-.LBB4
 4128 02fb 11       		.uleb128 0x11
 4129 02fc 5E020000 		.4byte	.LASF42
 4130 0300 01       		.byte	0x1
 4131 0301 90       		.byte	0x90
 4132 0302 C9000000 		.4byte	0xc9
 4133 0306 CD010000 		.4byte	.LLST11
 4134 030a 00       		.byte	0
 4135 030b 00       		.byte	0
 4136 030c 0D       		.uleb128 0xd
 4137 030d 47020000 		.4byte	.LASF44
 4138 0311 01       		.byte	0x1
 4139 0312 96       		.byte	0x96
 4140 0313 00000000 		.4byte	.LFB12
 4141 0317 70000000 		.4byte	.LFE12-.LFB12
 4142 031b 01       		.uleb128 0x1
 4143 031c 9C       		.byte	0x9c
 4144 031d 64030000 		.4byte	0x364
 4145 0321 0E       		.uleb128 0xe
 4146 0322 7600     		.ascii	"v\000"
 4147 0324 01       		.byte	0x1
 4148 0325 96       		.byte	0x96
 4149 0326 56020000 		.4byte	0x256
 4150 032a E0010000 		.4byte	.LLST12
 4151 032e 0E       		.uleb128 0xe
 4152 032f 6E00     		.ascii	"n\000"
 4153 0331 01       		.byte	0x1
 4154 0332 96       		.byte	0x96
 4155 0333 00010000 		.4byte	0x100
 4156 0337 FE010000 		.4byte	.LLST13
ARM GAS  C:\Users\hamis\AppData\Local\Temp\cc1fRzXM.s 			page 88


 4157 033b 0F       		.uleb128 0xf
 4158 033c 4E060000 		.4byte	.LASF40
 4159 0340 01       		.byte	0x1
 4160 0341 96       		.byte	0x96
 4161 0342 25000000 		.4byte	0x25
 4162 0346 3F020000 		.4byte	.LLST14
 4163 034a 10       		.uleb128 0x10
 4164 034b 0A000000 		.4byte	.LBB5
 4165 034f 56000000 		.4byte	.LBE5-.LBB5
 4166 0353 11       		.uleb128 0x11
 4167 0354 5E020000 		.4byte	.LASF42
 4168 0358 01       		.byte	0x1
 4169 0359 9A       		.byte	0x9a
 4170 035a D4000000 		.4byte	0xd4
 4171 035e 6D020000 		.4byte	.LLST15
 4172 0362 00       		.byte	0
 4173 0363 00       		.byte	0
 4174 0364 0D       		.uleb128 0xd
 4175 0365 30030000 		.4byte	.LASF45
 4176 0369 01       		.byte	0x1
 4177 036a A0       		.byte	0xa0
 4178 036b 00000000 		.4byte	.LFB13
 4179 036f 80000000 		.4byte	.LFE13-.LFB13
 4180 0373 01       		.uleb128 0x1
 4181 0374 9C       		.byte	0x9c
 4182 0375 BC030000 		.4byte	0x3bc
 4183 0379 0E       		.uleb128 0xe
 4184 037a 7600     		.ascii	"v\000"
 4185 037c 01       		.byte	0x1
 4186 037d A0       		.byte	0xa0
 4187 037e 56020000 		.4byte	0x256
 4188 0382 80020000 		.4byte	.LLST16
 4189 0386 0E       		.uleb128 0xe
 4190 0387 6E00     		.ascii	"n\000"
 4191 0389 01       		.byte	0x1
 4192 038a A0       		.byte	0xa0
 4193 038b 00010000 		.4byte	0x100
 4194 038f 9E020000 		.4byte	.LLST17
 4195 0393 0F       		.uleb128 0xf
 4196 0394 4E060000 		.4byte	.LASF40
 4197 0398 01       		.byte	0x1
 4198 0399 A0       		.byte	0xa0
 4199 039a 25000000 		.4byte	0x25
 4200 039e DF020000 		.4byte	.LLST18
 4201 03a2 10       		.uleb128 0x10
 4202 03a3 0A000000 		.4byte	.LBB6
 4203 03a7 64000000 		.4byte	.LBE6-.LBB6
 4204 03ab 11       		.uleb128 0x11
 4205 03ac 5E020000 		.4byte	.LASF42
 4206 03b0 01       		.byte	0x1
 4207 03b1 A4       		.byte	0xa4
 4208 03b2 EA000000 		.4byte	0xea
 4209 03b6 0D030000 		.4byte	.LLST19
 4210 03ba 00       		.byte	0
 4211 03bb 00       		.byte	0
 4212 03bc 0D       		.uleb128 0xd
 4213 03bd 89060000 		.4byte	.LASF46
ARM GAS  C:\Users\hamis\AppData\Local\Temp\cc1fRzXM.s 			page 89


 4214 03c1 01       		.byte	0x1
 4215 03c2 AA       		.byte	0xaa
 4216 03c3 00000000 		.4byte	.LFB14
 4217 03c7 EC000000 		.4byte	.LFE14-.LFB14
 4218 03cb 01       		.uleb128 0x1
 4219 03cc 9C       		.byte	0x9c
 4220 03cd 4B040000 		.4byte	0x44b
 4221 03d1 0E       		.uleb128 0xe
 4222 03d2 7600     		.ascii	"v\000"
 4223 03d4 01       		.byte	0x1
 4224 03d5 AA       		.byte	0xaa
 4225 03d6 56020000 		.4byte	0x256
 4226 03da 20030000 		.4byte	.LLST20
 4227 03de 0E       		.uleb128 0xe
 4228 03df 6E00     		.ascii	"n\000"
 4229 03e1 01       		.byte	0x1
 4230 03e2 AA       		.byte	0xaa
 4231 03e3 00010000 		.4byte	0x100
 4232 03e7 3E030000 		.4byte	.LLST21
 4233 03eb 0E       		.uleb128 0xe
 4234 03ec 6D617800 		.ascii	"max\000"
 4235 03f0 01       		.byte	0x1
 4236 03f1 AA       		.byte	0xaa
 4237 03f2 25000000 		.4byte	0x25
 4238 03f6 A0030000 		.4byte	.LLST22
 4239 03fa 0E       		.uleb128 0xe
 4240 03fb 6D696E00 		.ascii	"min\000"
 4241 03ff 01       		.byte	0x1
 4242 0400 AA       		.byte	0xaa
 4243 0401 25000000 		.4byte	0x25
 4244 0405 CE030000 		.4byte	.LLST23
 4245 0409 0F       		.uleb128 0xf
 4246 040a 26030000 		.4byte	.LASF47
 4247 040e 01       		.byte	0x1
 4248 040f AA       		.byte	0xaa
 4249 0410 25000000 		.4byte	0x25
 4250 0414 FC030000 		.4byte	.LLST24
 4251 0418 12       		.uleb128 0x12
 4252 0419 18000000 		.4byte	.LBB7
 4253 041d 5C000000 		.4byte	.LBE7-.LBB7
 4254 0421 33040000 		.4byte	0x433
 4255 0425 13       		.uleb128 0x13
 4256 0426 7200     		.ascii	"r\000"
 4257 0428 01       		.byte	0x1
 4258 0429 B0       		.byte	0xb0
 4259 042a 25000000 		.4byte	0x25
 4260 042e 28040000 		.4byte	.LLST25
 4261 0432 00       		.byte	0
 4262 0433 10       		.uleb128 0x10
 4263 0434 80000000 		.4byte	.LBB8
 4264 0438 54000000 		.4byte	.LBE8-.LBB8
 4265 043c 13       		.uleb128 0x13
 4266 043d 7200     		.ascii	"r\000"
 4267 043f 01       		.byte	0x1
 4268 0440 BD       		.byte	0xbd
 4269 0441 25000000 		.4byte	0x25
 4270 0445 46040000 		.4byte	.LLST26
ARM GAS  C:\Users\hamis\AppData\Local\Temp\cc1fRzXM.s 			page 90


 4271 0449 00       		.byte	0
 4272 044a 00       		.byte	0
 4273 044b 0D       		.uleb128 0xd
 4274 044c 98010000 		.4byte	.LASF48
 4275 0450 01       		.byte	0x1
 4276 0451 C8       		.byte	0xc8
 4277 0452 00000000 		.4byte	.LFB15
 4278 0456 D8000000 		.4byte	.LFE15-.LFB15
 4279 045a 01       		.uleb128 0x1
 4280 045b 9C       		.byte	0x9c
 4281 045c DA040000 		.4byte	0x4da
 4282 0460 0E       		.uleb128 0xe
 4283 0461 7600     		.ascii	"v\000"
 4284 0463 01       		.byte	0x1
 4285 0464 C8       		.byte	0xc8
 4286 0465 56020000 		.4byte	0x256
 4287 0469 7A040000 		.4byte	.LLST27
 4288 046d 0E       		.uleb128 0xe
 4289 046e 6E00     		.ascii	"n\000"
 4290 0470 01       		.byte	0x1
 4291 0471 C8       		.byte	0xc8
 4292 0472 00010000 		.4byte	0x100
 4293 0476 98040000 		.4byte	.LLST28
 4294 047a 0E       		.uleb128 0xe
 4295 047b 6D617800 		.ascii	"max\000"
 4296 047f 01       		.byte	0x1
 4297 0480 C8       		.byte	0xc8
 4298 0481 25000000 		.4byte	0x25
 4299 0485 FA040000 		.4byte	.LLST29
 4300 0489 0E       		.uleb128 0xe
 4301 048a 6D696E00 		.ascii	"min\000"
 4302 048e 01       		.byte	0x1
 4303 048f C8       		.byte	0xc8
 4304 0490 25000000 		.4byte	0x25
 4305 0494 28050000 		.4byte	.LLST30
 4306 0498 0F       		.uleb128 0xf
 4307 0499 26030000 		.4byte	.LASF47
 4308 049d 01       		.byte	0x1
 4309 049e C8       		.byte	0xc8
 4310 049f 25000000 		.4byte	0x25
 4311 04a3 56050000 		.4byte	.LLST31
 4312 04a7 12       		.uleb128 0x12
 4313 04a8 18000000 		.4byte	.LBB9
 4314 04ac 52000000 		.4byte	.LBE9-.LBB9
 4315 04b0 C2040000 		.4byte	0x4c2
 4316 04b4 13       		.uleb128 0x13
 4317 04b5 7200     		.ascii	"r\000"
 4318 04b7 01       		.byte	0x1
 4319 04b8 CE       		.byte	0xce
 4320 04b9 25000000 		.4byte	0x25
 4321 04bd 82050000 		.4byte	.LLST32
 4322 04c1 00       		.byte	0
 4323 04c2 10       		.uleb128 0x10
 4324 04c3 76000000 		.4byte	.LBB10
 4325 04c7 4A000000 		.4byte	.LBE10-.LBB10
 4326 04cb 13       		.uleb128 0x13
 4327 04cc 7200     		.ascii	"r\000"
ARM GAS  C:\Users\hamis\AppData\Local\Temp\cc1fRzXM.s 			page 91


 4328 04ce 01       		.byte	0x1
 4329 04cf DB       		.byte	0xdb
 4330 04d0 25000000 		.4byte	0x25
 4331 04d4 A0050000 		.4byte	.LLST33
 4332 04d8 00       		.byte	0
 4333 04d9 00       		.byte	0
 4334 04da 0D       		.uleb128 0xd
 4335 04db 7D030000 		.4byte	.LASF49
 4336 04df 01       		.byte	0x1
 4337 04e0 E6       		.byte	0xe6
 4338 04e1 00000000 		.4byte	.LFB16
 4339 04e5 C4000000 		.4byte	.LFE16-.LFB16
 4340 04e9 01       		.uleb128 0x1
 4341 04ea 9C       		.byte	0x9c
 4342 04eb 69050000 		.4byte	0x569
 4343 04ef 0E       		.uleb128 0xe
 4344 04f0 7600     		.ascii	"v\000"
 4345 04f2 01       		.byte	0x1
 4346 04f3 E6       		.byte	0xe6
 4347 04f4 56020000 		.4byte	0x256
 4348 04f8 D4050000 		.4byte	.LLST34
 4349 04fc 0E       		.uleb128 0xe
 4350 04fd 6E00     		.ascii	"n\000"
 4351 04ff 01       		.byte	0x1
 4352 0500 E6       		.byte	0xe6
 4353 0501 00010000 		.4byte	0x100
 4354 0505 F2050000 		.4byte	.LLST35
 4355 0509 0E       		.uleb128 0xe
 4356 050a 6D617800 		.ascii	"max\000"
 4357 050e 01       		.byte	0x1
 4358 050f E6       		.byte	0xe6
 4359 0510 25000000 		.4byte	0x25
 4360 0514 49060000 		.4byte	.LLST36
 4361 0518 0E       		.uleb128 0xe
 4362 0519 6D696E00 		.ascii	"min\000"
 4363 051d 01       		.byte	0x1
 4364 051e E6       		.byte	0xe6
 4365 051f 25000000 		.4byte	0x25
 4366 0523 77060000 		.4byte	.LLST37
 4367 0527 0F       		.uleb128 0xf
 4368 0528 26030000 		.4byte	.LASF47
 4369 052c 01       		.byte	0x1
 4370 052d E6       		.byte	0xe6
 4371 052e 25000000 		.4byte	0x25
 4372 0532 A5060000 		.4byte	.LLST38
 4373 0536 12       		.uleb128 0x12
 4374 0537 18000000 		.4byte	.LBB11
 4375 053b 48000000 		.4byte	.LBE11-.LBB11
 4376 053f 51050000 		.4byte	0x551
 4377 0543 13       		.uleb128 0x13
 4378 0544 7200     		.ascii	"r\000"
 4379 0546 01       		.byte	0x1
 4380 0547 EC       		.byte	0xec
 4381 0548 25000000 		.4byte	0x25
 4382 054c D1060000 		.4byte	.LLST39
 4383 0550 00       		.byte	0
 4384 0551 10       		.uleb128 0x10
ARM GAS  C:\Users\hamis\AppData\Local\Temp\cc1fRzXM.s 			page 92


 4385 0552 6C000000 		.4byte	.LBB12
 4386 0556 42000000 		.4byte	.LBE12-.LBB12
 4387 055a 13       		.uleb128 0x13
 4388 055b 7200     		.ascii	"r\000"
 4389 055d 01       		.byte	0x1
 4390 055e F9       		.byte	0xf9
 4391 055f 25000000 		.4byte	0x25
 4392 0563 EF060000 		.4byte	.LLST40
 4393 0567 00       		.byte	0
 4394 0568 00       		.byte	0
 4395 0569 14       		.uleb128 0x14
 4396 056a 6B010000 		.4byte	.LASF50
 4397 056e 01       		.byte	0x1
 4398 056f 0401     		.2byte	0x104
 4399 0571 00000000 		.4byte	.LFB17
 4400 0575 BC000000 		.4byte	.LFE17-.LFB17
 4401 0579 01       		.uleb128 0x1
 4402 057a 9C       		.byte	0x9c
 4403 057b 00060000 		.4byte	0x600
 4404 057f 15       		.uleb128 0x15
 4405 0580 7600     		.ascii	"v\000"
 4406 0582 01       		.byte	0x1
 4407 0583 0401     		.2byte	0x104
 4408 0585 56020000 		.4byte	0x256
 4409 0589 23070000 		.4byte	.LLST41
 4410 058d 15       		.uleb128 0x15
 4411 058e 6E00     		.ascii	"n\000"
 4412 0590 01       		.byte	0x1
 4413 0591 0401     		.2byte	0x104
 4414 0593 00010000 		.4byte	0x100
 4415 0597 41070000 		.4byte	.LLST42
 4416 059b 15       		.uleb128 0x15
 4417 059c 6D617800 		.ascii	"max\000"
 4418 05a0 01       		.byte	0x1
 4419 05a1 0401     		.2byte	0x104
 4420 05a3 25000000 		.4byte	0x25
 4421 05a7 98070000 		.4byte	.LLST43
 4422 05ab 15       		.uleb128 0x15
 4423 05ac 6D696E00 		.ascii	"min\000"
 4424 05b0 01       		.byte	0x1
 4425 05b1 0401     		.2byte	0x104
 4426 05b3 25000000 		.4byte	0x25
 4427 05b7 C6070000 		.4byte	.LLST44
 4428 05bb 16       		.uleb128 0x16
 4429 05bc 26030000 		.4byte	.LASF47
 4430 05c0 01       		.byte	0x1
 4431 05c1 0401     		.2byte	0x104
 4432 05c3 25000000 		.4byte	0x25
 4433 05c7 F4070000 		.4byte	.LLST45
 4434 05cb 12       		.uleb128 0x12
 4435 05cc 18000000 		.4byte	.LBB13
 4436 05d0 44000000 		.4byte	.LBE13-.LBB13
 4437 05d4 E7050000 		.4byte	0x5e7
 4438 05d8 17       		.uleb128 0x17
 4439 05d9 7200     		.ascii	"r\000"
 4440 05db 01       		.byte	0x1
 4441 05dc 0A01     		.2byte	0x10a
ARM GAS  C:\Users\hamis\AppData\Local\Temp\cc1fRzXM.s 			page 93


 4442 05de 25000000 		.4byte	0x25
 4443 05e2 20080000 		.4byte	.LLST46
 4444 05e6 00       		.byte	0
 4445 05e7 10       		.uleb128 0x10
 4446 05e8 68000000 		.4byte	.LBB14
 4447 05ec 40000000 		.4byte	.LBE14-.LBB14
 4448 05f0 17       		.uleb128 0x17
 4449 05f1 7200     		.ascii	"r\000"
 4450 05f3 01       		.byte	0x1
 4451 05f4 1701     		.2byte	0x117
 4452 05f6 25000000 		.4byte	0x25
 4453 05fa 3E080000 		.4byte	.LLST47
 4454 05fe 00       		.byte	0
 4455 05ff 00       		.byte	0
 4456 0600 14       		.uleb128 0x14
 4457 0601 9E060000 		.4byte	.LASF51
 4458 0605 01       		.byte	0x1
 4459 0606 2201     		.2byte	0x122
 4460 0608 00000000 		.4byte	.LFB18
 4461 060c D8000000 		.4byte	.LFE18-.LFB18
 4462 0610 01       		.uleb128 0x1
 4463 0611 9C       		.byte	0x9c
 4464 0612 97060000 		.4byte	0x697
 4465 0616 15       		.uleb128 0x15
 4466 0617 7600     		.ascii	"v\000"
 4467 0619 01       		.byte	0x1
 4468 061a 2201     		.2byte	0x122
 4469 061c 56020000 		.4byte	0x256
 4470 0620 72080000 		.4byte	.LLST48
 4471 0624 15       		.uleb128 0x15
 4472 0625 6E00     		.ascii	"n\000"
 4473 0627 01       		.byte	0x1
 4474 0628 2201     		.2byte	0x122
 4475 062a 00010000 		.4byte	0x100
 4476 062e 90080000 		.4byte	.LLST49
 4477 0632 15       		.uleb128 0x15
 4478 0633 6D617800 		.ascii	"max\000"
 4479 0637 01       		.byte	0x1
 4480 0638 2201     		.2byte	0x122
 4481 063a 25000000 		.4byte	0x25
 4482 063e E7080000 		.4byte	.LLST50
 4483 0642 15       		.uleb128 0x15
 4484 0643 6D696E00 		.ascii	"min\000"
 4485 0647 01       		.byte	0x1
 4486 0648 2201     		.2byte	0x122
 4487 064a 25000000 		.4byte	0x25
 4488 064e 15090000 		.4byte	.LLST51
 4489 0652 16       		.uleb128 0x16
 4490 0653 26030000 		.4byte	.LASF47
 4491 0657 01       		.byte	0x1
 4492 0658 2201     		.2byte	0x122
 4493 065a 25000000 		.4byte	0x25
 4494 065e 43090000 		.4byte	.LLST52
 4495 0662 12       		.uleb128 0x12
 4496 0663 18000000 		.4byte	.LBB15
 4497 0667 4E000000 		.4byte	.LBE15-.LBB15
 4498 066b 7E060000 		.4byte	0x67e
ARM GAS  C:\Users\hamis\AppData\Local\Temp\cc1fRzXM.s 			page 94


 4499 066f 17       		.uleb128 0x17
 4500 0670 7200     		.ascii	"r\000"
 4501 0672 01       		.byte	0x1
 4502 0673 2801     		.2byte	0x128
 4503 0675 25000000 		.4byte	0x25
 4504 0679 6F090000 		.4byte	.LLST53
 4505 067d 00       		.byte	0
 4506 067e 10       		.uleb128 0x10
 4507 067f 74000000 		.4byte	.LBB16
 4508 0683 4C000000 		.4byte	.LBE16-.LBB16
 4509 0687 17       		.uleb128 0x17
 4510 0688 7200     		.ascii	"r\000"
 4511 068a 01       		.byte	0x1
 4512 068b 3501     		.2byte	0x135
 4513 068d 25000000 		.4byte	0x25
 4514 0691 8D090000 		.4byte	.LLST54
 4515 0695 00       		.byte	0
 4516 0696 00       		.byte	0
 4517 0697 18       		.uleb128 0x18
 4518 0698 51010000 		.4byte	.LASF52
 4519 069c 01       		.byte	0x1
 4520 069d 4001     		.2byte	0x140
 4521 069f 00000000 		.4byte	.LFB19
 4522 06a3 48000000 		.4byte	.LFE19-.LFB19
 4523 06a7 01       		.uleb128 0x1
 4524 06a8 9C       		.byte	0x9c
 4525 06a9 E4060000 		.4byte	0x6e4
 4526 06ad 15       		.uleb128 0x15
 4527 06ae 7600     		.ascii	"v\000"
 4528 06b0 01       		.byte	0x1
 4529 06b1 4001     		.2byte	0x140
 4530 06b3 E4060000 		.4byte	0x6e4
 4531 06b7 C1090000 		.4byte	.LLST55
 4532 06bb 15       		.uleb128 0x15
 4533 06bc 6E00     		.ascii	"n\000"
 4534 06be 01       		.byte	0x1
 4535 06bf 4001     		.2byte	0x140
 4536 06c1 00010000 		.4byte	0x100
 4537 06c5 EC090000 		.4byte	.LLST56
 4538 06c9 10       		.uleb128 0x10
 4539 06ca 04000000 		.4byte	.LBB17
 4540 06ce 32000000 		.4byte	.LBE17-.LBB17
 4541 06d2 19       		.uleb128 0x19
 4542 06d3 5E020000 		.4byte	.LASF42
 4543 06d7 01       		.byte	0x1
 4544 06d8 4401     		.2byte	0x144
 4545 06da F5000000 		.4byte	0xf5
 4546 06de 2D0A0000 		.4byte	.LLST57
 4547 06e2 00       		.byte	0
 4548 06e3 00       		.byte	0
 4549 06e4 09       		.uleb128 0x9
 4550 06e5 04       		.byte	0x4
 4551 06e6 F5000000 		.4byte	0xf5
 4552 06ea 18       		.uleb128 0x18
 4553 06eb CB030000 		.4byte	.LASF53
 4554 06ef 01       		.byte	0x1
 4555 06f0 4A01     		.2byte	0x14a
ARM GAS  C:\Users\hamis\AppData\Local\Temp\cc1fRzXM.s 			page 95


 4556 06f2 00000000 		.4byte	.LFB20
 4557 06f6 30000000 		.4byte	.LFE20-.LFB20
 4558 06fa 01       		.uleb128 0x1
 4559 06fb 9C       		.byte	0x9c
 4560 06fc 37070000 		.4byte	0x737
 4561 0700 15       		.uleb128 0x15
 4562 0701 7600     		.ascii	"v\000"
 4563 0703 01       		.byte	0x1
 4564 0704 4A01     		.2byte	0x14a
 4565 0706 E4060000 		.4byte	0x6e4
 4566 070a 400A0000 		.4byte	.LLST58
 4567 070e 15       		.uleb128 0x15
 4568 070f 6E00     		.ascii	"n\000"
 4569 0711 01       		.byte	0x1
 4570 0712 4A01     		.2byte	0x14a
 4571 0714 00010000 		.4byte	0x100
 4572 0718 6B0A0000 		.4byte	.LLST59
 4573 071c 10       		.uleb128 0x10
 4574 071d 04000000 		.4byte	.LBB18
 4575 0721 1C000000 		.4byte	.LBE18-.LBB18
 4576 0725 19       		.uleb128 0x19
 4577 0726 5E020000 		.4byte	.LASF42
 4578 072a 01       		.byte	0x1
 4579 072b 4E01     		.2byte	0x14e
 4580 072d DF000000 		.4byte	0xdf
 4581 0731 AC0A0000 		.4byte	.LLST60
 4582 0735 00       		.byte	0
 4583 0736 00       		.byte	0
 4584 0737 18       		.uleb128 0x18
 4585 0738 61050000 		.4byte	.LASF54
 4586 073c 01       		.byte	0x1
 4587 073d 5401     		.2byte	0x154
 4588 073f 00000000 		.4byte	.LFB21
 4589 0743 24000000 		.4byte	.LFE21-.LFB21
 4590 0747 01       		.uleb128 0x1
 4591 0748 9C       		.byte	0x9c
 4592 0749 84070000 		.4byte	0x784
 4593 074d 15       		.uleb128 0x15
 4594 074e 7600     		.ascii	"v\000"
 4595 0750 01       		.byte	0x1
 4596 0751 5401     		.2byte	0x154
 4597 0753 E4060000 		.4byte	0x6e4
 4598 0757 BF0A0000 		.4byte	.LLST61
 4599 075b 15       		.uleb128 0x15
 4600 075c 6E00     		.ascii	"n\000"
 4601 075e 01       		.byte	0x1
 4602 075f 5401     		.2byte	0x154
 4603 0761 00010000 		.4byte	0x100
 4604 0765 EA0A0000 		.4byte	.LLST62
 4605 0769 10       		.uleb128 0x10
 4606 076a 04000000 		.4byte	.LBB19
 4607 076e 10000000 		.4byte	.LBE19-.LBB19
 4608 0772 19       		.uleb128 0x19
 4609 0773 5E020000 		.4byte	.LASF42
 4610 0777 01       		.byte	0x1
 4611 0778 5801     		.2byte	0x158
 4612 077a C9000000 		.4byte	0xc9
ARM GAS  C:\Users\hamis\AppData\Local\Temp\cc1fRzXM.s 			page 96


 4613 077e 2B0B0000 		.4byte	.LLST63
 4614 0782 00       		.byte	0
 4615 0783 00       		.byte	0
 4616 0784 18       		.uleb128 0x18
 4617 0785 AE010000 		.4byte	.LASF55
 4618 0789 01       		.byte	0x1
 4619 078a 5E01     		.2byte	0x15e
 4620 078c 00000000 		.4byte	.LFB22
 4621 0790 24000000 		.4byte	.LFE22-.LFB22
 4622 0794 01       		.uleb128 0x1
 4623 0795 9C       		.byte	0x9c
 4624 0796 D1070000 		.4byte	0x7d1
 4625 079a 15       		.uleb128 0x15
 4626 079b 7600     		.ascii	"v\000"
 4627 079d 01       		.byte	0x1
 4628 079e 5E01     		.2byte	0x15e
 4629 07a0 E4060000 		.4byte	0x6e4
 4630 07a4 3E0B0000 		.4byte	.LLST64
 4631 07a8 15       		.uleb128 0x15
 4632 07a9 6E00     		.ascii	"n\000"
 4633 07ab 01       		.byte	0x1
 4634 07ac 5E01     		.2byte	0x15e
 4635 07ae 00010000 		.4byte	0x100
 4636 07b2 690B0000 		.4byte	.LLST65
 4637 07b6 10       		.uleb128 0x10
 4638 07b7 04000000 		.4byte	.LBB20
 4639 07bb 10000000 		.4byte	.LBE20-.LBB20
 4640 07bf 19       		.uleb128 0x19
 4641 07c0 5E020000 		.4byte	.LASF42
 4642 07c4 01       		.byte	0x1
 4643 07c5 6201     		.2byte	0x162
 4644 07c7 D4000000 		.4byte	0xd4
 4645 07cb AA0B0000 		.4byte	.LLST66
 4646 07cf 00       		.byte	0
 4647 07d0 00       		.byte	0
 4648 07d1 18       		.uleb128 0x18
 4649 07d2 A5030000 		.4byte	.LASF56
 4650 07d6 01       		.byte	0x1
 4651 07d7 6801     		.2byte	0x168
 4652 07d9 00000000 		.4byte	.LFB23
 4653 07dd 8C000000 		.4byte	.LFE23-.LFB23
 4654 07e1 01       		.uleb128 0x1
 4655 07e2 9C       		.byte	0x9c
 4656 07e3 54080000 		.4byte	0x854
 4657 07e7 15       		.uleb128 0x15
 4658 07e8 7600     		.ascii	"v\000"
 4659 07ea 01       		.byte	0x1
 4660 07eb 6801     		.2byte	0x168
 4661 07ed E4060000 		.4byte	0x6e4
 4662 07f1 BD0B0000 		.4byte	.LLST67
 4663 07f5 15       		.uleb128 0x15
 4664 07f6 6E00     		.ascii	"n\000"
 4665 07f8 01       		.byte	0x1
 4666 07f9 6801     		.2byte	0x168
 4667 07fb 00010000 		.4byte	0x100
 4668 07ff DB0B0000 		.4byte	.LLST68
 4669 0803 1A       		.uleb128 0x1a
ARM GAS  C:\Users\hamis\AppData\Local\Temp\cc1fRzXM.s 			page 97


 4670 0804 6D617800 		.ascii	"max\000"
 4671 0808 01       		.byte	0x1
 4672 0809 6801     		.2byte	0x168
 4673 080b F5000000 		.4byte	0xf5
 4674 080f 01       		.uleb128 0x1
 4675 0810 52       		.byte	0x52
 4676 0811 1A       		.uleb128 0x1a
 4677 0812 6D696E00 		.ascii	"min\000"
 4678 0816 01       		.byte	0x1
 4679 0817 6801     		.2byte	0x168
 4680 0819 F5000000 		.4byte	0xf5
 4681 081d 01       		.uleb128 0x1
 4682 081e 53       		.byte	0x53
 4683 081f 12       		.uleb128 0x12
 4684 0820 0C000000 		.4byte	.LBB21
 4685 0824 32000000 		.4byte	.LBE21-.LBB21
 4686 0828 3B080000 		.4byte	0x83b
 4687 082c 17       		.uleb128 0x17
 4688 082d 7200     		.ascii	"r\000"
 4689 082f 01       		.byte	0x1
 4690 0830 6E01     		.2byte	0x16e
 4691 0832 F5000000 		.4byte	0xf5
 4692 0836 300C0000 		.4byte	.LLST69
 4693 083a 00       		.byte	0
 4694 083b 10       		.uleb128 0x10
 4695 083c 48000000 		.4byte	.LBB22
 4696 0840 2E000000 		.4byte	.LBE22-.LBB22
 4697 0844 17       		.uleb128 0x17
 4698 0845 7200     		.ascii	"r\000"
 4699 0847 01       		.byte	0x1
 4700 0848 7901     		.2byte	0x179
 4701 084a F5000000 		.4byte	0xf5
 4702 084e 430C0000 		.4byte	.LLST70
 4703 0852 00       		.byte	0
 4704 0853 00       		.byte	0
 4705 0854 18       		.uleb128 0x18
 4706 0855 62030000 		.4byte	.LASF57
 4707 0859 01       		.byte	0x1
 4708 085a 8201     		.2byte	0x182
 4709 085c 00000000 		.4byte	.LFB24
 4710 0860 78000000 		.4byte	.LFE24-.LFB24
 4711 0864 01       		.uleb128 0x1
 4712 0865 9C       		.byte	0x9c
 4713 0866 D7080000 		.4byte	0x8d7
 4714 086a 15       		.uleb128 0x15
 4715 086b 7600     		.ascii	"v\000"
 4716 086d 01       		.byte	0x1
 4717 086e 8201     		.2byte	0x182
 4718 0870 E4060000 		.4byte	0x6e4
 4719 0874 560C0000 		.4byte	.LLST71
 4720 0878 15       		.uleb128 0x15
 4721 0879 6E00     		.ascii	"n\000"
 4722 087b 01       		.byte	0x1
 4723 087c 8201     		.2byte	0x182
 4724 087e 00010000 		.4byte	0x100
 4725 0882 740C0000 		.4byte	.LLST72
 4726 0886 1A       		.uleb128 0x1a
ARM GAS  C:\Users\hamis\AppData\Local\Temp\cc1fRzXM.s 			page 98


 4727 0887 6D617800 		.ascii	"max\000"
 4728 088b 01       		.byte	0x1
 4729 088c 8201     		.2byte	0x182
 4730 088e F5000000 		.4byte	0xf5
 4731 0892 01       		.uleb128 0x1
 4732 0893 52       		.byte	0x52
 4733 0894 1A       		.uleb128 0x1a
 4734 0895 6D696E00 		.ascii	"min\000"
 4735 0899 01       		.byte	0x1
 4736 089a 8201     		.2byte	0x182
 4737 089c F5000000 		.4byte	0xf5
 4738 08a0 01       		.uleb128 0x1
 4739 08a1 53       		.byte	0x53
 4740 08a2 12       		.uleb128 0x12
 4741 08a3 0C000000 		.4byte	.LBB23
 4742 08a7 28000000 		.4byte	.LBE23-.LBB23
 4743 08ab BE080000 		.4byte	0x8be
 4744 08af 17       		.uleb128 0x17
 4745 08b0 7200     		.ascii	"r\000"
 4746 08b2 01       		.byte	0x1
 4747 08b3 8801     		.2byte	0x188
 4748 08b5 F5000000 		.4byte	0xf5
 4749 08b9 BE0C0000 		.4byte	.LLST73
 4750 08bd 00       		.byte	0
 4751 08be 10       		.uleb128 0x10
 4752 08bf 3E000000 		.4byte	.LBB24
 4753 08c3 24000000 		.4byte	.LBE24-.LBB24
 4754 08c7 17       		.uleb128 0x17
 4755 08c8 7200     		.ascii	"r\000"
 4756 08ca 01       		.byte	0x1
 4757 08cb 9301     		.2byte	0x193
 4758 08cd F5000000 		.4byte	0xf5
 4759 08d1 D10C0000 		.4byte	.LLST74
 4760 08d5 00       		.byte	0
 4761 08d6 00       		.byte	0
 4762 08d7 18       		.uleb128 0x18
 4763 08d8 A0000000 		.4byte	.LASF58
 4764 08dc 01       		.byte	0x1
 4765 08dd 9C01     		.2byte	0x19c
 4766 08df 00000000 		.4byte	.LFB25
 4767 08e3 6C000000 		.4byte	.LFE25-.LFB25
 4768 08e7 01       		.uleb128 0x1
 4769 08e8 9C       		.byte	0x9c
 4770 08e9 5A090000 		.4byte	0x95a
 4771 08ed 15       		.uleb128 0x15
 4772 08ee 7600     		.ascii	"v\000"
 4773 08f0 01       		.byte	0x1
 4774 08f1 9C01     		.2byte	0x19c
 4775 08f3 E4060000 		.4byte	0x6e4
 4776 08f7 E40C0000 		.4byte	.LLST75
 4777 08fb 15       		.uleb128 0x15
 4778 08fc 6E00     		.ascii	"n\000"
 4779 08fe 01       		.byte	0x1
 4780 08ff 9C01     		.2byte	0x19c
 4781 0901 00010000 		.4byte	0x100
 4782 0905 020D0000 		.4byte	.LLST76
 4783 0909 1A       		.uleb128 0x1a
ARM GAS  C:\Users\hamis\AppData\Local\Temp\cc1fRzXM.s 			page 99


 4784 090a 6D617800 		.ascii	"max\000"
 4785 090e 01       		.byte	0x1
 4786 090f 9C01     		.2byte	0x19c
 4787 0911 F5000000 		.4byte	0xf5
 4788 0915 01       		.uleb128 0x1
 4789 0916 52       		.byte	0x52
 4790 0917 1A       		.uleb128 0x1a
 4791 0918 6D696E00 		.ascii	"min\000"
 4792 091c 01       		.byte	0x1
 4793 091d 9C01     		.2byte	0x19c
 4794 091f F5000000 		.4byte	0xf5
 4795 0923 01       		.uleb128 0x1
 4796 0924 53       		.byte	0x53
 4797 0925 12       		.uleb128 0x12
 4798 0926 0C000000 		.4byte	.LBB25
 4799 092a 22000000 		.4byte	.LBE25-.LBB25
 4800 092e 41090000 		.4byte	0x941
 4801 0932 17       		.uleb128 0x17
 4802 0933 7200     		.ascii	"r\000"
 4803 0935 01       		.byte	0x1
 4804 0936 A201     		.2byte	0x1a2
 4805 0938 F5000000 		.4byte	0xf5
 4806 093c 4C0D0000 		.4byte	.LLST77
 4807 0940 00       		.byte	0
 4808 0941 10       		.uleb128 0x10
 4809 0942 38000000 		.4byte	.LBB26
 4810 0946 1E000000 		.4byte	.LBE26-.LBB26
 4811 094a 17       		.uleb128 0x17
 4812 094b 7200     		.ascii	"r\000"
 4813 094d 01       		.byte	0x1
 4814 094e AD01     		.2byte	0x1ad
 4815 0950 F5000000 		.4byte	0xf5
 4816 0954 5F0D0000 		.4byte	.LLST78
 4817 0958 00       		.byte	0
 4818 0959 00       		.byte	0
 4819 095a 18       		.uleb128 0x18
 4820 095b 03040000 		.4byte	.LASF59
 4821 095f 01       		.byte	0x1
 4822 0960 B601     		.2byte	0x1b6
 4823 0962 00000000 		.4byte	.LFB26
 4824 0966 6C000000 		.4byte	.LFE26-.LFB26
 4825 096a 01       		.uleb128 0x1
 4826 096b 9C       		.byte	0x9c
 4827 096c DD090000 		.4byte	0x9dd
 4828 0970 15       		.uleb128 0x15
 4829 0971 7600     		.ascii	"v\000"
 4830 0973 01       		.byte	0x1
 4831 0974 B601     		.2byte	0x1b6
 4832 0976 E4060000 		.4byte	0x6e4
 4833 097a 720D0000 		.4byte	.LLST79
 4834 097e 15       		.uleb128 0x15
 4835 097f 6E00     		.ascii	"n\000"
 4836 0981 01       		.byte	0x1
 4837 0982 B601     		.2byte	0x1b6
 4838 0984 00010000 		.4byte	0x100
 4839 0988 900D0000 		.4byte	.LLST80
 4840 098c 1A       		.uleb128 0x1a
ARM GAS  C:\Users\hamis\AppData\Local\Temp\cc1fRzXM.s 			page 100


 4841 098d 6D617800 		.ascii	"max\000"
 4842 0991 01       		.byte	0x1
 4843 0992 B601     		.2byte	0x1b6
 4844 0994 F5000000 		.4byte	0xf5
 4845 0998 01       		.uleb128 0x1
 4846 0999 52       		.byte	0x52
 4847 099a 1A       		.uleb128 0x1a
 4848 099b 6D696E00 		.ascii	"min\000"
 4849 099f 01       		.byte	0x1
 4850 09a0 B601     		.2byte	0x1b6
 4851 09a2 F5000000 		.4byte	0xf5
 4852 09a6 01       		.uleb128 0x1
 4853 09a7 53       		.byte	0x53
 4854 09a8 12       		.uleb128 0x12
 4855 09a9 0C000000 		.4byte	.LBB27
 4856 09ad 22000000 		.4byte	.LBE27-.LBB27
 4857 09b1 C4090000 		.4byte	0x9c4
 4858 09b5 17       		.uleb128 0x17
 4859 09b6 7200     		.ascii	"r\000"
 4860 09b8 01       		.byte	0x1
 4861 09b9 BC01     		.2byte	0x1bc
 4862 09bb F5000000 		.4byte	0xf5
 4863 09bf DA0D0000 		.4byte	.LLST81
 4864 09c3 00       		.byte	0
 4865 09c4 10       		.uleb128 0x10
 4866 09c5 38000000 		.4byte	.LBB28
 4867 09c9 1E000000 		.4byte	.LBE28-.LBB28
 4868 09cd 17       		.uleb128 0x17
 4869 09ce 7200     		.ascii	"r\000"
 4870 09d0 01       		.byte	0x1
 4871 09d1 C701     		.2byte	0x1c7
 4872 09d3 F5000000 		.4byte	0xf5
 4873 09d7 ED0D0000 		.4byte	.LLST82
 4874 09db 00       		.byte	0
 4875 09dc 00       		.byte	0
 4876 09dd 18       		.uleb128 0x18
 4877 09de 84000000 		.4byte	.LASF60
 4878 09e2 01       		.byte	0x1
 4879 09e3 D001     		.2byte	0x1d0
 4880 09e5 00000000 		.4byte	.LFB27
 4881 09e9 30000000 		.4byte	.LFE27-.LFB27
 4882 09ed 01       		.uleb128 0x1
 4883 09ee 9C       		.byte	0x9c
 4884 09ef 2A0A0000 		.4byte	0xa2a
 4885 09f3 15       		.uleb128 0x15
 4886 09f4 7600     		.ascii	"v\000"
 4887 09f6 01       		.byte	0x1
 4888 09f7 D001     		.2byte	0x1d0
 4889 09f9 2A0A0000 		.4byte	0xa2a
 4890 09fd 000E0000 		.4byte	.LLST83
 4891 0a01 15       		.uleb128 0x15
 4892 0a02 6E00     		.ascii	"n\000"
 4893 0a04 01       		.byte	0x1
 4894 0a05 D001     		.2byte	0x1d0
 4895 0a07 00010000 		.4byte	0x100
 4896 0a0b 2B0E0000 		.4byte	.LLST84
 4897 0a0f 10       		.uleb128 0x10
ARM GAS  C:\Users\hamis\AppData\Local\Temp\cc1fRzXM.s 			page 101


 4898 0a10 04000000 		.4byte	.LBB29
 4899 0a14 1C000000 		.4byte	.LBE29-.LBB29
 4900 0a18 19       		.uleb128 0x19
 4901 0a19 5E020000 		.4byte	.LASF42
 4902 0a1d 01       		.byte	0x1
 4903 0a1e D401     		.2byte	0x1d4
 4904 0a20 DF000000 		.4byte	0xdf
 4905 0a24 6C0E0000 		.4byte	.LLST85
 4906 0a28 00       		.byte	0
 4907 0a29 00       		.byte	0
 4908 0a2a 09       		.uleb128 0x9
 4909 0a2b 04       		.byte	0x4
 4910 0a2c DF000000 		.4byte	0xdf
 4911 0a30 18       		.uleb128 0x18
 4912 0a31 55000000 		.4byte	.LASF61
 4913 0a35 01       		.byte	0x1
 4914 0a36 DA01     		.2byte	0x1da
 4915 0a38 00000000 		.4byte	.LFB28
 4916 0a3c 24000000 		.4byte	.LFE28-.LFB28
 4917 0a40 01       		.uleb128 0x1
 4918 0a41 9C       		.byte	0x9c
 4919 0a42 7D0A0000 		.4byte	0xa7d
 4920 0a46 15       		.uleb128 0x15
 4921 0a47 7600     		.ascii	"v\000"
 4922 0a49 01       		.byte	0x1
 4923 0a4a DA01     		.2byte	0x1da
 4924 0a4c 2A0A0000 		.4byte	0xa2a
 4925 0a50 7F0E0000 		.4byte	.LLST86
 4926 0a54 15       		.uleb128 0x15
 4927 0a55 6E00     		.ascii	"n\000"
 4928 0a57 01       		.byte	0x1
 4929 0a58 DA01     		.2byte	0x1da
 4930 0a5a 00010000 		.4byte	0x100
 4931 0a5e AA0E0000 		.4byte	.LLST87
 4932 0a62 10       		.uleb128 0x10
 4933 0a63 04000000 		.4byte	.LBB30
 4934 0a67 10000000 		.4byte	.LBE30-.LBB30
 4935 0a6b 19       		.uleb128 0x19
 4936 0a6c 5E020000 		.4byte	.LASF42
 4937 0a70 01       		.byte	0x1
 4938 0a71 DE01     		.2byte	0x1de
 4939 0a73 C9000000 		.4byte	0xc9
 4940 0a77 EB0E0000 		.4byte	.LLST88
 4941 0a7b 00       		.byte	0
 4942 0a7c 00       		.byte	0
 4943 0a7d 18       		.uleb128 0x18
 4944 0a7e 01060000 		.4byte	.LASF62
 4945 0a82 01       		.byte	0x1
 4946 0a83 E401     		.2byte	0x1e4
 4947 0a85 00000000 		.4byte	.LFB29
 4948 0a89 24000000 		.4byte	.LFE29-.LFB29
 4949 0a8d 01       		.uleb128 0x1
 4950 0a8e 9C       		.byte	0x9c
 4951 0a8f CA0A0000 		.4byte	0xaca
 4952 0a93 15       		.uleb128 0x15
 4953 0a94 7600     		.ascii	"v\000"
 4954 0a96 01       		.byte	0x1
ARM GAS  C:\Users\hamis\AppData\Local\Temp\cc1fRzXM.s 			page 102


 4955 0a97 E401     		.2byte	0x1e4
 4956 0a99 2A0A0000 		.4byte	0xa2a
 4957 0a9d FE0E0000 		.4byte	.LLST89
 4958 0aa1 15       		.uleb128 0x15
 4959 0aa2 6E00     		.ascii	"n\000"
 4960 0aa4 01       		.byte	0x1
 4961 0aa5 E401     		.2byte	0x1e4
 4962 0aa7 00010000 		.4byte	0x100
 4963 0aab 290F0000 		.4byte	.LLST90
 4964 0aaf 10       		.uleb128 0x10
 4965 0ab0 04000000 		.4byte	.LBB31
 4966 0ab4 10000000 		.4byte	.LBE31-.LBB31
 4967 0ab8 19       		.uleb128 0x19
 4968 0ab9 5E020000 		.4byte	.LASF42
 4969 0abd 01       		.byte	0x1
 4970 0abe E801     		.2byte	0x1e8
 4971 0ac0 D4000000 		.4byte	0xd4
 4972 0ac4 6A0F0000 		.4byte	.LLST91
 4973 0ac8 00       		.byte	0
 4974 0ac9 00       		.byte	0
 4975 0aca 14       		.uleb128 0x14
 4976 0acb 13010000 		.4byte	.LASF63
 4977 0acf 01       		.byte	0x1
 4978 0ad0 EE01     		.2byte	0x1ee
 4979 0ad2 00000000 		.4byte	.LFB30
 4980 0ad6 BC000000 		.4byte	.LFE30-.LFB30
 4981 0ada 01       		.uleb128 0x1
 4982 0adb 9C       		.byte	0x9c
 4983 0adc 510B0000 		.4byte	0xb51
 4984 0ae0 15       		.uleb128 0x15
 4985 0ae1 7600     		.ascii	"v\000"
 4986 0ae3 01       		.byte	0x1
 4987 0ae4 EE01     		.2byte	0x1ee
 4988 0ae6 2A0A0000 		.4byte	0xa2a
 4989 0aea 7D0F0000 		.4byte	.LLST92
 4990 0aee 15       		.uleb128 0x15
 4991 0aef 6E00     		.ascii	"n\000"
 4992 0af1 01       		.byte	0x1
 4993 0af2 EE01     		.2byte	0x1ee
 4994 0af4 00010000 		.4byte	0x100
 4995 0af8 9B0F0000 		.4byte	.LLST93
 4996 0afc 15       		.uleb128 0x15
 4997 0afd 6D617800 		.ascii	"max\000"
 4998 0b01 01       		.byte	0x1
 4999 0b02 EE01     		.2byte	0x1ee
 5000 0b04 25000000 		.4byte	0x25
 5001 0b08 F20F0000 		.4byte	.LLST94
 5002 0b0c 15       		.uleb128 0x15
 5003 0b0d 6D696E00 		.ascii	"min\000"
 5004 0b11 01       		.byte	0x1
 5005 0b12 EE01     		.2byte	0x1ee
 5006 0b14 25000000 		.4byte	0x25
 5007 0b18 20100000 		.4byte	.LLST95
 5008 0b1c 12       		.uleb128 0x12
 5009 0b1d 12000000 		.4byte	.LBB32
 5010 0b21 48000000 		.4byte	.LBE32-.LBB32
 5011 0b25 380B0000 		.4byte	0xb38
ARM GAS  C:\Users\hamis\AppData\Local\Temp\cc1fRzXM.s 			page 103


 5012 0b29 17       		.uleb128 0x17
 5013 0b2a 7200     		.ascii	"r\000"
 5014 0b2c 01       		.byte	0x1
 5015 0b2d F401     		.2byte	0x1f4
 5016 0b2f DF000000 		.4byte	0xdf
 5017 0b33 4E100000 		.4byte	.LLST96
 5018 0b37 00       		.byte	0
 5019 0b38 10       		.uleb128 0x10
 5020 0b39 64000000 		.4byte	.LBB33
 5021 0b3d 46000000 		.4byte	.LBE33-.LBB33
 5022 0b41 17       		.uleb128 0x17
 5023 0b42 7200     		.ascii	"r\000"
 5024 0b44 01       		.byte	0x1
 5025 0b45 FF01     		.2byte	0x1ff
 5026 0b47 DF000000 		.4byte	0xdf
 5027 0b4b 61100000 		.4byte	.LLST97
 5028 0b4f 00       		.byte	0
 5029 0b50 00       		.byte	0
 5030 0b51 14       		.uleb128 0x14
 5031 0b52 20000000 		.4byte	.LASF64
 5032 0b56 01       		.byte	0x1
 5033 0b57 0802     		.2byte	0x208
 5034 0b59 00000000 		.4byte	.LFB31
 5035 0b5d B4000000 		.4byte	.LFE31-.LFB31
 5036 0b61 01       		.uleb128 0x1
 5037 0b62 9C       		.byte	0x9c
 5038 0b63 D80B0000 		.4byte	0xbd8
 5039 0b67 15       		.uleb128 0x15
 5040 0b68 7600     		.ascii	"v\000"
 5041 0b6a 01       		.byte	0x1
 5042 0b6b 0802     		.2byte	0x208
 5043 0b6d 2A0A0000 		.4byte	0xa2a
 5044 0b71 74100000 		.4byte	.LLST98
 5045 0b75 15       		.uleb128 0x15
 5046 0b76 6E00     		.ascii	"n\000"
 5047 0b78 01       		.byte	0x1
 5048 0b79 0802     		.2byte	0x208
 5049 0b7b 00010000 		.4byte	0x100
 5050 0b7f 92100000 		.4byte	.LLST99
 5051 0b83 15       		.uleb128 0x15
 5052 0b84 6D617800 		.ascii	"max\000"
 5053 0b88 01       		.byte	0x1
 5054 0b89 0802     		.2byte	0x208
 5055 0b8b 25000000 		.4byte	0x25
 5056 0b8f E9100000 		.4byte	.LLST100
 5057 0b93 15       		.uleb128 0x15
 5058 0b94 6D696E00 		.ascii	"min\000"
 5059 0b98 01       		.byte	0x1
 5060 0b99 0802     		.2byte	0x208
 5061 0b9b 25000000 		.4byte	0x25
 5062 0b9f 17110000 		.4byte	.LLST101
 5063 0ba3 12       		.uleb128 0x12
 5064 0ba4 12000000 		.4byte	.LBB34
 5065 0ba8 42000000 		.4byte	.LBE34-.LBB34
 5066 0bac BF0B0000 		.4byte	0xbbf
 5067 0bb0 17       		.uleb128 0x17
 5068 0bb1 7200     		.ascii	"r\000"
ARM GAS  C:\Users\hamis\AppData\Local\Temp\cc1fRzXM.s 			page 104


 5069 0bb3 01       		.byte	0x1
 5070 0bb4 0E02     		.2byte	0x20e
 5071 0bb6 DF000000 		.4byte	0xdf
 5072 0bba 45110000 		.4byte	.LLST102
 5073 0bbe 00       		.byte	0
 5074 0bbf 10       		.uleb128 0x10
 5075 0bc0 5E000000 		.4byte	.LBB35
 5076 0bc4 42000000 		.4byte	.LBE35-.LBB35
 5077 0bc8 17       		.uleb128 0x17
 5078 0bc9 7200     		.ascii	"r\000"
 5079 0bcb 01       		.byte	0x1
 5080 0bcc 1902     		.2byte	0x219
 5081 0bce DF000000 		.4byte	0xdf
 5082 0bd2 5E110000 		.4byte	.LLST103
 5083 0bd6 00       		.byte	0
 5084 0bd7 00       		.byte	0
 5085 0bd8 18       		.uleb128 0x18
 5086 0bd9 E6030000 		.4byte	.LASF65
 5087 0bdd 01       		.byte	0x1
 5088 0bde 2202     		.2byte	0x222
 5089 0be0 00000000 		.4byte	.LFB32
 5090 0be4 70000000 		.4byte	.LFE32-.LFB32
 5091 0be8 01       		.uleb128 0x1
 5092 0be9 9C       		.byte	0x9c
 5093 0bea 5B0C0000 		.4byte	0xc5b
 5094 0bee 15       		.uleb128 0x15
 5095 0bef 7600     		.ascii	"v\000"
 5096 0bf1 01       		.byte	0x1
 5097 0bf2 2202     		.2byte	0x222
 5098 0bf4 2A0A0000 		.4byte	0xa2a
 5099 0bf8 71110000 		.4byte	.LLST104
 5100 0bfc 15       		.uleb128 0x15
 5101 0bfd 6E00     		.ascii	"n\000"
 5102 0bff 01       		.byte	0x1
 5103 0c00 2202     		.2byte	0x222
 5104 0c02 00010000 		.4byte	0x100
 5105 0c06 8F110000 		.4byte	.LLST105
 5106 0c0a 1A       		.uleb128 0x1a
 5107 0c0b 6D617800 		.ascii	"max\000"
 5108 0c0f 01       		.byte	0x1
 5109 0c10 2202     		.2byte	0x222
 5110 0c12 DF000000 		.4byte	0xdf
 5111 0c16 01       		.uleb128 0x1
 5112 0c17 52       		.byte	0x52
 5113 0c18 1A       		.uleb128 0x1a
 5114 0c19 6D696E00 		.ascii	"min\000"
 5115 0c1d 01       		.byte	0x1
 5116 0c1e 2202     		.2byte	0x222
 5117 0c20 DF000000 		.4byte	0xdf
 5118 0c24 01       		.uleb128 0x1
 5119 0c25 53       		.byte	0x53
 5120 0c26 12       		.uleb128 0x12
 5121 0c27 0C000000 		.4byte	.LBB36
 5122 0c2b 26000000 		.4byte	.LBE36-.LBB36
 5123 0c2f 420C0000 		.4byte	0xc42
 5124 0c33 17       		.uleb128 0x17
 5125 0c34 7200     		.ascii	"r\000"
ARM GAS  C:\Users\hamis\AppData\Local\Temp\cc1fRzXM.s 			page 105


 5126 0c36 01       		.byte	0x1
 5127 0c37 2802     		.2byte	0x228
 5128 0c39 DF000000 		.4byte	0xdf
 5129 0c3d D9110000 		.4byte	.LLST106
 5130 0c41 00       		.byte	0
 5131 0c42 10       		.uleb128 0x10
 5132 0c43 3C000000 		.4byte	.LBB37
 5133 0c47 1E000000 		.4byte	.LBE37-.LBB37
 5134 0c4b 17       		.uleb128 0x17
 5135 0c4c 7200     		.ascii	"r\000"
 5136 0c4e 01       		.byte	0x1
 5137 0c4f 3302     		.2byte	0x233
 5138 0c51 DF000000 		.4byte	0xdf
 5139 0c55 F2110000 		.4byte	.LLST107
 5140 0c59 00       		.byte	0
 5141 0c5a 00       		.byte	0
 5142 0c5b 18       		.uleb128 0x18
 5143 0c5c 48030000 		.4byte	.LASF66
 5144 0c60 01       		.byte	0x1
 5145 0c61 3C02     		.2byte	0x23c
 5146 0c63 00000000 		.4byte	.LFB33
 5147 0c67 24000000 		.4byte	.LFE33-.LFB33
 5148 0c6b 01       		.uleb128 0x1
 5149 0c6c 9C       		.byte	0x9c
 5150 0c6d 8E0C0000 		.4byte	0xc8e
 5151 0c71 15       		.uleb128 0x15
 5152 0c72 7600     		.ascii	"v\000"
 5153 0c74 01       		.byte	0x1
 5154 0c75 3C02     		.2byte	0x23c
 5155 0c77 8E0C0000 		.4byte	0xc8e
 5156 0c7b 05120000 		.4byte	.LLST108
 5157 0c7f 15       		.uleb128 0x15
 5158 0c80 6E00     		.ascii	"n\000"
 5159 0c82 01       		.byte	0x1
 5160 0c83 3C02     		.2byte	0x23c
 5161 0c85 00010000 		.4byte	0x100
 5162 0c89 30120000 		.4byte	.LLST109
 5163 0c8d 00       		.byte	0
 5164 0c8e 09       		.uleb128 0x9
 5165 0c8f 04       		.byte	0x4
 5166 0c90 C9000000 		.4byte	0xc9
 5167 0c94 18       		.uleb128 0x18
 5168 0c95 80050000 		.4byte	.LASF67
 5169 0c99 01       		.byte	0x1
 5170 0c9a 4502     		.2byte	0x245
 5171 0c9c 00000000 		.4byte	.LFB34
 5172 0ca0 70000000 		.4byte	.LFE34-.LFB34
 5173 0ca4 01       		.uleb128 0x1
 5174 0ca5 9C       		.byte	0x9c
 5175 0ca6 270D0000 		.4byte	0xd27
 5176 0caa 15       		.uleb128 0x15
 5177 0cab 7600     		.ascii	"v\000"
 5178 0cad 01       		.byte	0x1
 5179 0cae 4502     		.2byte	0x245
 5180 0cb0 8E0C0000 		.4byte	0xc8e
 5181 0cb4 71120000 		.4byte	.LLST110
 5182 0cb8 15       		.uleb128 0x15
ARM GAS  C:\Users\hamis\AppData\Local\Temp\cc1fRzXM.s 			page 106


 5183 0cb9 6E00     		.ascii	"n\000"
 5184 0cbb 01       		.byte	0x1
 5185 0cbc 4502     		.2byte	0x245
 5186 0cbe 00010000 		.4byte	0x100
 5187 0cc2 8F120000 		.4byte	.LLST111
 5188 0cc6 1A       		.uleb128 0x1a
 5189 0cc7 6D617800 		.ascii	"max\000"
 5190 0ccb 01       		.byte	0x1
 5191 0ccc 4502     		.2byte	0x245
 5192 0cce C9000000 		.4byte	0xc9
 5193 0cd2 01       		.uleb128 0x1
 5194 0cd3 52       		.byte	0x52
 5195 0cd4 1A       		.uleb128 0x1a
 5196 0cd5 6D696E00 		.ascii	"min\000"
 5197 0cd9 01       		.byte	0x1
 5198 0cda 4502     		.2byte	0x245
 5199 0cdc C9000000 		.4byte	0xc9
 5200 0ce0 01       		.uleb128 0x1
 5201 0ce1 53       		.byte	0x53
 5202 0ce2 12       		.uleb128 0x12
 5203 0ce3 0C000000 		.4byte	.LBB38
 5204 0ce7 26000000 		.4byte	.LBE38-.LBB38
 5205 0ceb 0E0D0000 		.4byte	0xd0e
 5206 0cef 17       		.uleb128 0x17
 5207 0cf0 7200     		.ascii	"r\000"
 5208 0cf2 01       		.byte	0x1
 5209 0cf3 4B02     		.2byte	0x24b
 5210 0cf5 C9000000 		.4byte	0xc9
 5211 0cf9 D9120000 		.4byte	.LLST112
 5212 0cfd 19       		.uleb128 0x19
 5213 0cfe 82010000 		.4byte	.LASF68
 5214 0d02 01       		.byte	0x1
 5215 0d03 4C02     		.2byte	0x24c
 5216 0d05 F5000000 		.4byte	0xf5
 5217 0d09 EC120000 		.4byte	.LLST113
 5218 0d0d 00       		.byte	0
 5219 0d0e 10       		.uleb128 0x10
 5220 0d0f 3C000000 		.4byte	.LBB39
 5221 0d13 20000000 		.4byte	.LBE39-.LBB39
 5222 0d17 17       		.uleb128 0x17
 5223 0d18 7200     		.ascii	"r\000"
 5224 0d1a 01       		.byte	0x1
 5225 0d1b 5802     		.2byte	0x258
 5226 0d1d C9000000 		.4byte	0xc9
 5227 0d21 15130000 		.4byte	.LLST114
 5228 0d25 00       		.byte	0
 5229 0d26 00       		.byte	0
 5230 0d27 18       		.uleb128 0x18
 5231 0d28 AF050000 		.4byte	.LASF69
 5232 0d2c 01       		.byte	0x1
 5233 0d2d 6102     		.2byte	0x261
 5234 0d2f 00000000 		.4byte	.LFB35
 5235 0d33 24000000 		.4byte	.LFE35-.LFB35
 5236 0d37 01       		.uleb128 0x1
 5237 0d38 9C       		.byte	0x9c
 5238 0d39 5A0D0000 		.4byte	0xd5a
 5239 0d3d 15       		.uleb128 0x15
ARM GAS  C:\Users\hamis\AppData\Local\Temp\cc1fRzXM.s 			page 107


 5240 0d3e 7600     		.ascii	"v\000"
 5241 0d40 01       		.byte	0x1
 5242 0d41 6102     		.2byte	0x261
 5243 0d43 5D010000 		.4byte	0x15d
 5244 0d47 28130000 		.4byte	.LLST115
 5245 0d4b 15       		.uleb128 0x15
 5246 0d4c 6E00     		.ascii	"n\000"
 5247 0d4e 01       		.byte	0x1
 5248 0d4f 6102     		.2byte	0x261
 5249 0d51 00010000 		.4byte	0x100
 5250 0d55 53130000 		.4byte	.LLST116
 5251 0d59 00       		.byte	0
 5252 0d5a 18       		.uleb128 0x18
 5253 0d5b 5E060000 		.4byte	.LASF70
 5254 0d5f 01       		.byte	0x1
 5255 0d60 6A02     		.2byte	0x26a
 5256 0d62 00000000 		.4byte	.LFB36
 5257 0d66 6C000000 		.4byte	.LFE36-.LFB36
 5258 0d6a 01       		.uleb128 0x1
 5259 0d6b 9C       		.byte	0x9c
 5260 0d6c ED0D0000 		.4byte	0xded
 5261 0d70 15       		.uleb128 0x15
 5262 0d71 7600     		.ascii	"v\000"
 5263 0d73 01       		.byte	0x1
 5264 0d74 6A02     		.2byte	0x26a
 5265 0d76 5D010000 		.4byte	0x15d
 5266 0d7a 94130000 		.4byte	.LLST117
 5267 0d7e 15       		.uleb128 0x15
 5268 0d7f 6E00     		.ascii	"n\000"
 5269 0d81 01       		.byte	0x1
 5270 0d82 6A02     		.2byte	0x26a
 5271 0d84 00010000 		.4byte	0x100
 5272 0d88 B2130000 		.4byte	.LLST118
 5273 0d8c 1A       		.uleb128 0x1a
 5274 0d8d 6D617800 		.ascii	"max\000"
 5275 0d91 01       		.byte	0x1
 5276 0d92 6A02     		.2byte	0x26a
 5277 0d94 D4000000 		.4byte	0xd4
 5278 0d98 01       		.uleb128 0x1
 5279 0d99 52       		.byte	0x52
 5280 0d9a 1A       		.uleb128 0x1a
 5281 0d9b 6D696E00 		.ascii	"min\000"
 5282 0d9f 01       		.byte	0x1
 5283 0da0 6A02     		.2byte	0x26a
 5284 0da2 D4000000 		.4byte	0xd4
 5285 0da6 01       		.uleb128 0x1
 5286 0da7 53       		.byte	0x53
 5287 0da8 12       		.uleb128 0x12
 5288 0da9 0C000000 		.4byte	.LBB40
 5289 0dad 24000000 		.4byte	.LBE40-.LBB40
 5290 0db1 D40D0000 		.4byte	0xdd4
 5291 0db5 17       		.uleb128 0x17
 5292 0db6 7200     		.ascii	"r\000"
 5293 0db8 01       		.byte	0x1
 5294 0db9 7002     		.2byte	0x270
 5295 0dbb C9000000 		.4byte	0xc9
 5296 0dbf FC130000 		.4byte	.LLST119
ARM GAS  C:\Users\hamis\AppData\Local\Temp\cc1fRzXM.s 			page 108


 5297 0dc3 19       		.uleb128 0x19
 5298 0dc4 82010000 		.4byte	.LASF68
 5299 0dc8 01       		.byte	0x1
 5300 0dc9 7102     		.2byte	0x271
 5301 0dcb F5000000 		.4byte	0xf5
 5302 0dcf 0F140000 		.4byte	.LLST120
 5303 0dd3 00       		.byte	0
 5304 0dd4 10       		.uleb128 0x10
 5305 0dd5 3A000000 		.4byte	.LBB41
 5306 0dd9 1E000000 		.4byte	.LBE41-.LBB41
 5307 0ddd 17       		.uleb128 0x17
 5308 0dde 7200     		.ascii	"r\000"
 5309 0de0 01       		.byte	0x1
 5310 0de1 7D02     		.2byte	0x27d
 5311 0de3 D4000000 		.4byte	0xd4
 5312 0de7 38140000 		.4byte	.LLST121
 5313 0deb 00       		.byte	0
 5314 0dec 00       		.byte	0
 5315 0ded 18       		.uleb128 0x18
 5316 0dee 84020000 		.4byte	.LASF71
 5317 0df2 01       		.byte	0x1
 5318 0df3 8602     		.2byte	0x286
 5319 0df5 00000000 		.4byte	.LFB37
 5320 0df9 30000000 		.4byte	.LFE37-.LFB37
 5321 0dfd 01       		.uleb128 0x1
 5322 0dfe 9C       		.byte	0x9c
 5323 0dff 200E0000 		.4byte	0xe20
 5324 0e03 15       		.uleb128 0x15
 5325 0e04 7600     		.ascii	"v\000"
 5326 0e06 01       		.byte	0x1
 5327 0e07 8602     		.2byte	0x286
 5328 0e09 200E0000 		.4byte	0xe20
 5329 0e0d 4B140000 		.4byte	.LLST122
 5330 0e11 15       		.uleb128 0x15
 5331 0e12 6E00     		.ascii	"n\000"
 5332 0e14 01       		.byte	0x1
 5333 0e15 8602     		.2byte	0x286
 5334 0e17 00010000 		.4byte	0x100
 5335 0e1b 76140000 		.4byte	.LLST123
 5336 0e1f 00       		.byte	0
 5337 0e20 09       		.uleb128 0x9
 5338 0e21 04       		.byte	0x4
 5339 0e22 EA000000 		.4byte	0xea
 5340 0e26 18       		.uleb128 0x18
 5341 0e27 64020000 		.4byte	.LASF72
 5342 0e2b 01       		.byte	0x1
 5343 0e2c 8F02     		.2byte	0x28f
 5344 0e2e 00000000 		.4byte	.LFB38
 5345 0e32 74000000 		.4byte	.LFE38-.LFB38
 5346 0e36 01       		.uleb128 0x1
 5347 0e37 9C       		.byte	0x9c
 5348 0e38 A90E0000 		.4byte	0xea9
 5349 0e3c 15       		.uleb128 0x15
 5350 0e3d 7600     		.ascii	"v\000"
 5351 0e3f 01       		.byte	0x1
 5352 0e40 8F02     		.2byte	0x28f
 5353 0e42 200E0000 		.4byte	0xe20
ARM GAS  C:\Users\hamis\AppData\Local\Temp\cc1fRzXM.s 			page 109


 5354 0e46 B7140000 		.4byte	.LLST124
 5355 0e4a 15       		.uleb128 0x15
 5356 0e4b 6E00     		.ascii	"n\000"
 5357 0e4d 01       		.byte	0x1
 5358 0e4e 8F02     		.2byte	0x28f
 5359 0e50 00010000 		.4byte	0x100
 5360 0e54 D5140000 		.4byte	.LLST125
 5361 0e58 1A       		.uleb128 0x1a
 5362 0e59 6D617800 		.ascii	"max\000"
 5363 0e5d 01       		.byte	0x1
 5364 0e5e 8F02     		.2byte	0x28f
 5365 0e60 EA000000 		.4byte	0xea
 5366 0e64 01       		.uleb128 0x1
 5367 0e65 52       		.byte	0x52
 5368 0e66 1A       		.uleb128 0x1a
 5369 0e67 6D696E00 		.ascii	"min\000"
 5370 0e6b 01       		.byte	0x1
 5371 0e6c 8F02     		.2byte	0x28f
 5372 0e6e EA000000 		.4byte	0xea
 5373 0e72 01       		.uleb128 0x1
 5374 0e73 53       		.byte	0x53
 5375 0e74 12       		.uleb128 0x12
 5376 0e75 0C000000 		.4byte	.LBB42
 5377 0e79 28000000 		.4byte	.LBE42-.LBB42
 5378 0e7d 900E0000 		.4byte	0xe90
 5379 0e81 17       		.uleb128 0x17
 5380 0e82 7200     		.ascii	"r\000"
 5381 0e84 01       		.byte	0x1
 5382 0e85 9502     		.2byte	0x295
 5383 0e87 EA000000 		.4byte	0xea
 5384 0e8b 2A150000 		.4byte	.LLST126
 5385 0e8f 00       		.byte	0
 5386 0e90 10       		.uleb128 0x10
 5387 0e91 3E000000 		.4byte	.LBB43
 5388 0e95 22000000 		.4byte	.LBE43-.LBB43
 5389 0e99 17       		.uleb128 0x17
 5390 0e9a 7200     		.ascii	"r\000"
 5391 0e9c 01       		.byte	0x1
 5392 0e9d A002     		.2byte	0x2a0
 5393 0e9f EA000000 		.4byte	0xea
 5394 0ea3 3D150000 		.4byte	.LLST127
 5395 0ea7 00       		.byte	0
 5396 0ea8 00       		.byte	0
 5397 0ea9 18       		.uleb128 0x18
 5398 0eaa 34050000 		.4byte	.LASF73
 5399 0eae 01       		.byte	0x1
 5400 0eaf AA02     		.2byte	0x2aa
 5401 0eb1 00000000 		.4byte	.LFB39
 5402 0eb5 5C000000 		.4byte	.LFE39-.LFB39
 5403 0eb9 01       		.uleb128 0x1
 5404 0eba 9C       		.byte	0x9c
 5405 0ebb 0C0F0000 		.4byte	0xf0c
 5406 0ebf 1A       		.uleb128 0x1a
 5407 0ec0 7600     		.ascii	"v\000"
 5408 0ec2 01       		.byte	0x1
 5409 0ec3 AA02     		.2byte	0x2aa
 5410 0ec5 5D010000 		.4byte	0x15d
ARM GAS  C:\Users\hamis\AppData\Local\Temp\cc1fRzXM.s 			page 110


 5411 0ec9 01       		.uleb128 0x1
 5412 0eca 50       		.byte	0x50
 5413 0ecb 16       		.uleb128 0x16
 5414 0ecc 9B030000 		.4byte	.LASF74
 5415 0ed0 01       		.byte	0x1
 5416 0ed1 AA02     		.2byte	0x2aa
 5417 0ed3 D4000000 		.4byte	0xd4
 5418 0ed7 50150000 		.4byte	.LLST128
 5419 0edb 16       		.uleb128 0x16
 5420 0edc CA010000 		.4byte	.LASF75
 5421 0ee0 01       		.byte	0x1
 5422 0ee1 AA02     		.2byte	0x2aa
 5423 0ee3 D4000000 		.4byte	0xd4
 5424 0ee7 71150000 		.4byte	.LLST129
 5425 0eeb 19       		.uleb128 0x19
 5426 0eec 82010000 		.4byte	.LASF68
 5427 0ef0 01       		.byte	0x1
 5428 0ef1 AC02     		.2byte	0x2ac
 5429 0ef3 D4000000 		.4byte	0xd4
 5430 0ef7 92150000 		.4byte	.LLST130
 5431 0efb 19       		.uleb128 0x19
 5432 0efc 1E020000 		.4byte	.LASF76
 5433 0f00 01       		.byte	0x1
 5434 0f01 AD02     		.2byte	0x2ad
 5435 0f03 D4000000 		.4byte	0xd4
 5436 0f07 BB150000 		.4byte	.LLST131
 5437 0f0b 00       		.byte	0
 5438 0f0c 18       		.uleb128 0x18
 5439 0f0d 1E060000 		.4byte	.LASF77
 5440 0f11 01       		.byte	0x1
 5441 0f12 D002     		.2byte	0x2d0
 5442 0f14 00000000 		.4byte	.LFB40
 5443 0f18 70000000 		.4byte	.LFE40-.LFB40
 5444 0f1c 01       		.uleb128 0x1
 5445 0f1d 9C       		.byte	0x9c
 5446 0f1e 6F0F0000 		.4byte	0xf6f
 5447 0f22 1A       		.uleb128 0x1a
 5448 0f23 7600     		.ascii	"v\000"
 5449 0f25 01       		.byte	0x1
 5450 0f26 D002     		.2byte	0x2d0
 5451 0f28 5D010000 		.4byte	0x15d
 5452 0f2c 01       		.uleb128 0x1
 5453 0f2d 50       		.byte	0x50
 5454 0f2e 16       		.uleb128 0x16
 5455 0f2f 9B030000 		.4byte	.LASF74
 5456 0f33 01       		.byte	0x1
 5457 0f34 D002     		.2byte	0x2d0
 5458 0f36 D4000000 		.4byte	0xd4
 5459 0f3a 25160000 		.4byte	.LLST132
 5460 0f3e 16       		.uleb128 0x16
 5461 0f3f CA010000 		.4byte	.LASF75
 5462 0f43 01       		.byte	0x1
 5463 0f44 D002     		.2byte	0x2d0
 5464 0f46 D4000000 		.4byte	0xd4
 5465 0f4a 5F160000 		.4byte	.LLST133
 5466 0f4e 19       		.uleb128 0x19
 5467 0f4f 1E020000 		.4byte	.LASF76
ARM GAS  C:\Users\hamis\AppData\Local\Temp\cc1fRzXM.s 			page 111


 5468 0f53 01       		.byte	0x1
 5469 0f54 D202     		.2byte	0x2d2
 5470 0f56 D4000000 		.4byte	0xd4
 5471 0f5a 80160000 		.4byte	.LLST134
 5472 0f5e 19       		.uleb128 0x19
 5473 0f5f E1010000 		.4byte	.LASF78
 5474 0f63 01       		.byte	0x1
 5475 0f64 D202     		.2byte	0x2d2
 5476 0f66 D4000000 		.4byte	0xd4
 5477 0f6a F5160000 		.4byte	.LLST135
 5478 0f6e 00       		.byte	0
 5479 0f6f 1B       		.uleb128 0x1b
 5480 0f70 727700   		.ascii	"rw\000"
 5481 0f73 01       		.byte	0x1
 5482 0f74 1F       		.byte	0x1f
 5483 0f75 2A010000 		.4byte	0x12a
 5484 0f79 05       		.uleb128 0x5
 5485 0f7a 03       		.byte	0x3
 5486 0f7b 00000000 		.4byte	rw
 5487 0f7f 1C       		.uleb128 0x1c
 5488 0f80 3F040000 		.4byte	.LASF79
 5489 0f84 01       		.byte	0x1
 5490 0f85 1E       		.byte	0x1e
 5491 0f86 89010000 		.4byte	0x189
 5492 0f8a 05       		.uleb128 0x5
 5493 0f8b 03       		.byte	0x3
 5494 0f8c 00000000 		.4byte	msgPtr
 5495 0f90 1C       		.uleb128 0x1c
 5496 0f91 90010000 		.4byte	.LASF80
 5497 0f95 01       		.byte	0x1
 5498 0f96 20       		.byte	0x20
 5499 0f97 2A010000 		.4byte	0x12a
 5500 0f9b 05       		.uleb128 0x5
 5501 0f9c 03       		.byte	0x3
 5502 0f9d 00000000 		.4byte	rw_orig
 5503 0fa1 1C       		.uleb128 0x1c
 5504 0fa2 7C060000 		.4byte	.LASF81
 5505 0fa6 01       		.byte	0x1
 5506 0fa7 22       		.byte	0x22
 5507 0fa8 EA000000 		.4byte	0xea
 5508 0fac 05       		.uleb128 0x5
 5509 0fad 03       		.byte	0x3
 5510 0fae 00000000 		.4byte	get_uint16_t
 5511 0fb2 00       		.byte	0
 5512              		.section	.debug_abbrev,"",%progbits
 5513              	.Ldebug_abbrev0:
 5514 0000 01       		.uleb128 0x1
 5515 0001 11       		.uleb128 0x11
 5516 0002 01       		.byte	0x1
 5517 0003 25       		.uleb128 0x25
 5518 0004 0E       		.uleb128 0xe
 5519 0005 13       		.uleb128 0x13
 5520 0006 0B       		.uleb128 0xb
 5521 0007 03       		.uleb128 0x3
 5522 0008 0E       		.uleb128 0xe
 5523 0009 1B       		.uleb128 0x1b
 5524 000a 0E       		.uleb128 0xe
ARM GAS  C:\Users\hamis\AppData\Local\Temp\cc1fRzXM.s 			page 112


 5525 000b 55       		.uleb128 0x55
 5526 000c 17       		.uleb128 0x17
 5527 000d 11       		.uleb128 0x11
 5528 000e 01       		.uleb128 0x1
 5529 000f 10       		.uleb128 0x10
 5530 0010 17       		.uleb128 0x17
 5531 0011 00       		.byte	0
 5532 0012 00       		.byte	0
 5533 0013 02       		.uleb128 0x2
 5534 0014 24       		.uleb128 0x24
 5535 0015 00       		.byte	0
 5536 0016 0B       		.uleb128 0xb
 5537 0017 0B       		.uleb128 0xb
 5538 0018 3E       		.uleb128 0x3e
 5539 0019 0B       		.uleb128 0xb
 5540 001a 03       		.uleb128 0x3
 5541 001b 0E       		.uleb128 0xe
 5542 001c 00       		.byte	0
 5543 001d 00       		.byte	0
 5544 001e 03       		.uleb128 0x3
 5545 001f 24       		.uleb128 0x24
 5546 0020 00       		.byte	0
 5547 0021 0B       		.uleb128 0xb
 5548 0022 0B       		.uleb128 0xb
 5549 0023 3E       		.uleb128 0x3e
 5550 0024 0B       		.uleb128 0xb
 5551 0025 03       		.uleb128 0x3
 5552 0026 08       		.uleb128 0x8
 5553 0027 00       		.byte	0
 5554 0028 00       		.byte	0
 5555 0029 04       		.uleb128 0x4
 5556 002a 16       		.uleb128 0x16
 5557 002b 00       		.byte	0
 5558 002c 03       		.uleb128 0x3
 5559 002d 0E       		.uleb128 0xe
 5560 002e 3A       		.uleb128 0x3a
 5561 002f 0B       		.uleb128 0xb
 5562 0030 3B       		.uleb128 0x3b
 5563 0031 0B       		.uleb128 0xb
 5564 0032 49       		.uleb128 0x49
 5565 0033 13       		.uleb128 0x13
 5566 0034 00       		.byte	0
 5567 0035 00       		.byte	0
 5568 0036 05       		.uleb128 0x5
 5569 0037 04       		.uleb128 0x4
 5570 0038 01       		.byte	0x1
 5571 0039 0B       		.uleb128 0xb
 5572 003a 0B       		.uleb128 0xb
 5573 003b 49       		.uleb128 0x49
 5574 003c 13       		.uleb128 0x13
 5575 003d 3A       		.uleb128 0x3a
 5576 003e 0B       		.uleb128 0xb
 5577 003f 3B       		.uleb128 0x3b
 5578 0040 0B       		.uleb128 0xb
 5579 0041 01       		.uleb128 0x1
 5580 0042 13       		.uleb128 0x13
 5581 0043 00       		.byte	0
ARM GAS  C:\Users\hamis\AppData\Local\Temp\cc1fRzXM.s 			page 113


 5582 0044 00       		.byte	0
 5583 0045 06       		.uleb128 0x6
 5584 0046 28       		.uleb128 0x28
 5585 0047 00       		.byte	0
 5586 0048 03       		.uleb128 0x3
 5587 0049 0E       		.uleb128 0xe
 5588 004a 1C       		.uleb128 0x1c
 5589 004b 0B       		.uleb128 0xb
 5590 004c 00       		.byte	0
 5591 004d 00       		.byte	0
 5592 004e 07       		.uleb128 0x7
 5593 004f 2E       		.uleb128 0x2e
 5594 0050 01       		.byte	0x1
 5595 0051 3F       		.uleb128 0x3f
 5596 0052 19       		.uleb128 0x19
 5597 0053 03       		.uleb128 0x3
 5598 0054 0E       		.uleb128 0xe
 5599 0055 3A       		.uleb128 0x3a
 5600 0056 0B       		.uleb128 0xb
 5601 0057 3B       		.uleb128 0x3b
 5602 0058 0B       		.uleb128 0xb
 5603 0059 27       		.uleb128 0x27
 5604 005a 19       		.uleb128 0x19
 5605 005b 11       		.uleb128 0x11
 5606 005c 01       		.uleb128 0x1
 5607 005d 12       		.uleb128 0x12
 5608 005e 06       		.uleb128 0x6
 5609 005f 40       		.uleb128 0x40
 5610 0060 18       		.uleb128 0x18
 5611 0061 9742     		.uleb128 0x2117
 5612 0063 19       		.uleb128 0x19
 5613 0064 01       		.uleb128 0x1
 5614 0065 13       		.uleb128 0x13
 5615 0066 00       		.byte	0
 5616 0067 00       		.byte	0
 5617 0068 08       		.uleb128 0x8
 5618 0069 05       		.uleb128 0x5
 5619 006a 00       		.byte	0
 5620 006b 03       		.uleb128 0x3
 5621 006c 08       		.uleb128 0x8
 5622 006d 3A       		.uleb128 0x3a
 5623 006e 0B       		.uleb128 0xb
 5624 006f 3B       		.uleb128 0x3b
 5625 0070 0B       		.uleb128 0xb
 5626 0071 49       		.uleb128 0x49
 5627 0072 13       		.uleb128 0x13
 5628 0073 02       		.uleb128 0x2
 5629 0074 18       		.uleb128 0x18
 5630 0075 00       		.byte	0
 5631 0076 00       		.byte	0
 5632 0077 09       		.uleb128 0x9
 5633 0078 0F       		.uleb128 0xf
 5634 0079 00       		.byte	0
 5635 007a 0B       		.uleb128 0xb
 5636 007b 0B       		.uleb128 0xb
 5637 007c 49       		.uleb128 0x49
 5638 007d 13       		.uleb128 0x13
ARM GAS  C:\Users\hamis\AppData\Local\Temp\cc1fRzXM.s 			page 114


 5639 007e 00       		.byte	0
 5640 007f 00       		.byte	0
 5641 0080 0A       		.uleb128 0xa
 5642 0081 2E       		.uleb128 0x2e
 5643 0082 00       		.byte	0
 5644 0083 3F       		.uleb128 0x3f
 5645 0084 19       		.uleb128 0x19
 5646 0085 03       		.uleb128 0x3
 5647 0086 0E       		.uleb128 0xe
 5648 0087 3A       		.uleb128 0x3a
 5649 0088 0B       		.uleb128 0xb
 5650 0089 3B       		.uleb128 0x3b
 5651 008a 0B       		.uleb128 0xb
 5652 008b 27       		.uleb128 0x27
 5653 008c 19       		.uleb128 0x19
 5654 008d 11       		.uleb128 0x11
 5655 008e 01       		.uleb128 0x1
 5656 008f 12       		.uleb128 0x12
 5657 0090 06       		.uleb128 0x6
 5658 0091 40       		.uleb128 0x40
 5659 0092 18       		.uleb128 0x18
 5660 0093 9742     		.uleb128 0x2117
 5661 0095 19       		.uleb128 0x19
 5662 0096 00       		.byte	0
 5663 0097 00       		.byte	0
 5664 0098 0B       		.uleb128 0xb
 5665 0099 2E       		.uleb128 0x2e
 5666 009a 00       		.byte	0
 5667 009b 3F       		.uleb128 0x3f
 5668 009c 19       		.uleb128 0x19
 5669 009d 03       		.uleb128 0x3
 5670 009e 0E       		.uleb128 0xe
 5671 009f 3A       		.uleb128 0x3a
 5672 00a0 0B       		.uleb128 0xb
 5673 00a1 3B       		.uleb128 0x3b
 5674 00a2 0B       		.uleb128 0xb
 5675 00a3 27       		.uleb128 0x27
 5676 00a4 19       		.uleb128 0x19
 5677 00a5 49       		.uleb128 0x49
 5678 00a6 13       		.uleb128 0x13
 5679 00a7 11       		.uleb128 0x11
 5680 00a8 01       		.uleb128 0x1
 5681 00a9 12       		.uleb128 0x12
 5682 00aa 06       		.uleb128 0x6
 5683 00ab 40       		.uleb128 0x40
 5684 00ac 18       		.uleb128 0x18
 5685 00ad 9742     		.uleb128 0x2117
 5686 00af 19       		.uleb128 0x19
 5687 00b0 00       		.byte	0
 5688 00b1 00       		.byte	0
 5689 00b2 0C       		.uleb128 0xc
 5690 00b3 35       		.uleb128 0x35
 5691 00b4 00       		.byte	0
 5692 00b5 49       		.uleb128 0x49
 5693 00b6 13       		.uleb128 0x13
 5694 00b7 00       		.byte	0
 5695 00b8 00       		.byte	0
ARM GAS  C:\Users\hamis\AppData\Local\Temp\cc1fRzXM.s 			page 115


 5696 00b9 0D       		.uleb128 0xd
 5697 00ba 2E       		.uleb128 0x2e
 5698 00bb 01       		.byte	0x1
 5699 00bc 3F       		.uleb128 0x3f
 5700 00bd 19       		.uleb128 0x19
 5701 00be 03       		.uleb128 0x3
 5702 00bf 0E       		.uleb128 0xe
 5703 00c0 3A       		.uleb128 0x3a
 5704 00c1 0B       		.uleb128 0xb
 5705 00c2 3B       		.uleb128 0x3b
 5706 00c3 0B       		.uleb128 0xb
 5707 00c4 27       		.uleb128 0x27
 5708 00c5 19       		.uleb128 0x19
 5709 00c6 11       		.uleb128 0x11
 5710 00c7 01       		.uleb128 0x1
 5711 00c8 12       		.uleb128 0x12
 5712 00c9 06       		.uleb128 0x6
 5713 00ca 40       		.uleb128 0x40
 5714 00cb 18       		.uleb128 0x18
 5715 00cc 9642     		.uleb128 0x2116
 5716 00ce 19       		.uleb128 0x19
 5717 00cf 01       		.uleb128 0x1
 5718 00d0 13       		.uleb128 0x13
 5719 00d1 00       		.byte	0
 5720 00d2 00       		.byte	0
 5721 00d3 0E       		.uleb128 0xe
 5722 00d4 05       		.uleb128 0x5
 5723 00d5 00       		.byte	0
 5724 00d6 03       		.uleb128 0x3
 5725 00d7 08       		.uleb128 0x8
 5726 00d8 3A       		.uleb128 0x3a
 5727 00d9 0B       		.uleb128 0xb
 5728 00da 3B       		.uleb128 0x3b
 5729 00db 0B       		.uleb128 0xb
 5730 00dc 49       		.uleb128 0x49
 5731 00dd 13       		.uleb128 0x13
 5732 00de 02       		.uleb128 0x2
 5733 00df 17       		.uleb128 0x17
 5734 00e0 00       		.byte	0
 5735 00e1 00       		.byte	0
 5736 00e2 0F       		.uleb128 0xf
 5737 00e3 05       		.uleb128 0x5
 5738 00e4 00       		.byte	0
 5739 00e5 03       		.uleb128 0x3
 5740 00e6 0E       		.uleb128 0xe
 5741 00e7 3A       		.uleb128 0x3a
 5742 00e8 0B       		.uleb128 0xb
 5743 00e9 3B       		.uleb128 0x3b
 5744 00ea 0B       		.uleb128 0xb
 5745 00eb 49       		.uleb128 0x49
 5746 00ec 13       		.uleb128 0x13
 5747 00ed 02       		.uleb128 0x2
 5748 00ee 17       		.uleb128 0x17
 5749 00ef 00       		.byte	0
 5750 00f0 00       		.byte	0
 5751 00f1 10       		.uleb128 0x10
 5752 00f2 0B       		.uleb128 0xb
ARM GAS  C:\Users\hamis\AppData\Local\Temp\cc1fRzXM.s 			page 116


 5753 00f3 01       		.byte	0x1
 5754 00f4 11       		.uleb128 0x11
 5755 00f5 01       		.uleb128 0x1
 5756 00f6 12       		.uleb128 0x12
 5757 00f7 06       		.uleb128 0x6
 5758 00f8 00       		.byte	0
 5759 00f9 00       		.byte	0
 5760 00fa 11       		.uleb128 0x11
 5761 00fb 34       		.uleb128 0x34
 5762 00fc 00       		.byte	0
 5763 00fd 03       		.uleb128 0x3
 5764 00fe 0E       		.uleb128 0xe
 5765 00ff 3A       		.uleb128 0x3a
 5766 0100 0B       		.uleb128 0xb
 5767 0101 3B       		.uleb128 0x3b
 5768 0102 0B       		.uleb128 0xb
 5769 0103 49       		.uleb128 0x49
 5770 0104 13       		.uleb128 0x13
 5771 0105 02       		.uleb128 0x2
 5772 0106 17       		.uleb128 0x17
 5773 0107 00       		.byte	0
 5774 0108 00       		.byte	0
 5775 0109 12       		.uleb128 0x12
 5776 010a 0B       		.uleb128 0xb
 5777 010b 01       		.byte	0x1
 5778 010c 11       		.uleb128 0x11
 5779 010d 01       		.uleb128 0x1
 5780 010e 12       		.uleb128 0x12
 5781 010f 06       		.uleb128 0x6
 5782 0110 01       		.uleb128 0x1
 5783 0111 13       		.uleb128 0x13
 5784 0112 00       		.byte	0
 5785 0113 00       		.byte	0
 5786 0114 13       		.uleb128 0x13
 5787 0115 34       		.uleb128 0x34
 5788 0116 00       		.byte	0
 5789 0117 03       		.uleb128 0x3
 5790 0118 08       		.uleb128 0x8
 5791 0119 3A       		.uleb128 0x3a
 5792 011a 0B       		.uleb128 0xb
 5793 011b 3B       		.uleb128 0x3b
 5794 011c 0B       		.uleb128 0xb
 5795 011d 49       		.uleb128 0x49
 5796 011e 13       		.uleb128 0x13
 5797 011f 02       		.uleb128 0x2
 5798 0120 17       		.uleb128 0x17
 5799 0121 00       		.byte	0
 5800 0122 00       		.byte	0
 5801 0123 14       		.uleb128 0x14
 5802 0124 2E       		.uleb128 0x2e
 5803 0125 01       		.byte	0x1
 5804 0126 3F       		.uleb128 0x3f
 5805 0127 19       		.uleb128 0x19
 5806 0128 03       		.uleb128 0x3
 5807 0129 0E       		.uleb128 0xe
 5808 012a 3A       		.uleb128 0x3a
 5809 012b 0B       		.uleb128 0xb
ARM GAS  C:\Users\hamis\AppData\Local\Temp\cc1fRzXM.s 			page 117


 5810 012c 3B       		.uleb128 0x3b
 5811 012d 05       		.uleb128 0x5
 5812 012e 27       		.uleb128 0x27
 5813 012f 19       		.uleb128 0x19
 5814 0130 11       		.uleb128 0x11
 5815 0131 01       		.uleb128 0x1
 5816 0132 12       		.uleb128 0x12
 5817 0133 06       		.uleb128 0x6
 5818 0134 40       		.uleb128 0x40
 5819 0135 18       		.uleb128 0x18
 5820 0136 9642     		.uleb128 0x2116
 5821 0138 19       		.uleb128 0x19
 5822 0139 01       		.uleb128 0x1
 5823 013a 13       		.uleb128 0x13
 5824 013b 00       		.byte	0
 5825 013c 00       		.byte	0
 5826 013d 15       		.uleb128 0x15
 5827 013e 05       		.uleb128 0x5
 5828 013f 00       		.byte	0
 5829 0140 03       		.uleb128 0x3
 5830 0141 08       		.uleb128 0x8
 5831 0142 3A       		.uleb128 0x3a
 5832 0143 0B       		.uleb128 0xb
 5833 0144 3B       		.uleb128 0x3b
 5834 0145 05       		.uleb128 0x5
 5835 0146 49       		.uleb128 0x49
 5836 0147 13       		.uleb128 0x13
 5837 0148 02       		.uleb128 0x2
 5838 0149 17       		.uleb128 0x17
 5839 014a 00       		.byte	0
 5840 014b 00       		.byte	0
 5841 014c 16       		.uleb128 0x16
 5842 014d 05       		.uleb128 0x5
 5843 014e 00       		.byte	0
 5844 014f 03       		.uleb128 0x3
 5845 0150 0E       		.uleb128 0xe
 5846 0151 3A       		.uleb128 0x3a
 5847 0152 0B       		.uleb128 0xb
 5848 0153 3B       		.uleb128 0x3b
 5849 0154 05       		.uleb128 0x5
 5850 0155 49       		.uleb128 0x49
 5851 0156 13       		.uleb128 0x13
 5852 0157 02       		.uleb128 0x2
 5853 0158 17       		.uleb128 0x17
 5854 0159 00       		.byte	0
 5855 015a 00       		.byte	0
 5856 015b 17       		.uleb128 0x17
 5857 015c 34       		.uleb128 0x34
 5858 015d 00       		.byte	0
 5859 015e 03       		.uleb128 0x3
 5860 015f 08       		.uleb128 0x8
 5861 0160 3A       		.uleb128 0x3a
 5862 0161 0B       		.uleb128 0xb
 5863 0162 3B       		.uleb128 0x3b
 5864 0163 05       		.uleb128 0x5
 5865 0164 49       		.uleb128 0x49
 5866 0165 13       		.uleb128 0x13
ARM GAS  C:\Users\hamis\AppData\Local\Temp\cc1fRzXM.s 			page 118


 5867 0166 02       		.uleb128 0x2
 5868 0167 17       		.uleb128 0x17
 5869 0168 00       		.byte	0
 5870 0169 00       		.byte	0
 5871 016a 18       		.uleb128 0x18
 5872 016b 2E       		.uleb128 0x2e
 5873 016c 01       		.byte	0x1
 5874 016d 3F       		.uleb128 0x3f
 5875 016e 19       		.uleb128 0x19
 5876 016f 03       		.uleb128 0x3
 5877 0170 0E       		.uleb128 0xe
 5878 0171 3A       		.uleb128 0x3a
 5879 0172 0B       		.uleb128 0xb
 5880 0173 3B       		.uleb128 0x3b
 5881 0174 05       		.uleb128 0x5
 5882 0175 27       		.uleb128 0x27
 5883 0176 19       		.uleb128 0x19
 5884 0177 11       		.uleb128 0x11
 5885 0178 01       		.uleb128 0x1
 5886 0179 12       		.uleb128 0x12
 5887 017a 06       		.uleb128 0x6
 5888 017b 40       		.uleb128 0x40
 5889 017c 18       		.uleb128 0x18
 5890 017d 9742     		.uleb128 0x2117
 5891 017f 19       		.uleb128 0x19
 5892 0180 01       		.uleb128 0x1
 5893 0181 13       		.uleb128 0x13
 5894 0182 00       		.byte	0
 5895 0183 00       		.byte	0
 5896 0184 19       		.uleb128 0x19
 5897 0185 34       		.uleb128 0x34
 5898 0186 00       		.byte	0
 5899 0187 03       		.uleb128 0x3
 5900 0188 0E       		.uleb128 0xe
 5901 0189 3A       		.uleb128 0x3a
 5902 018a 0B       		.uleb128 0xb
 5903 018b 3B       		.uleb128 0x3b
 5904 018c 05       		.uleb128 0x5
 5905 018d 49       		.uleb128 0x49
 5906 018e 13       		.uleb128 0x13
 5907 018f 02       		.uleb128 0x2
 5908 0190 17       		.uleb128 0x17
 5909 0191 00       		.byte	0
 5910 0192 00       		.byte	0
 5911 0193 1A       		.uleb128 0x1a
 5912 0194 05       		.uleb128 0x5
 5913 0195 00       		.byte	0
 5914 0196 03       		.uleb128 0x3
 5915 0197 08       		.uleb128 0x8
 5916 0198 3A       		.uleb128 0x3a
 5917 0199 0B       		.uleb128 0xb
 5918 019a 3B       		.uleb128 0x3b
 5919 019b 05       		.uleb128 0x5
 5920 019c 49       		.uleb128 0x49
 5921 019d 13       		.uleb128 0x13
 5922 019e 02       		.uleb128 0x2
 5923 019f 18       		.uleb128 0x18
ARM GAS  C:\Users\hamis\AppData\Local\Temp\cc1fRzXM.s 			page 119


 5924 01a0 00       		.byte	0
 5925 01a1 00       		.byte	0
 5926 01a2 1B       		.uleb128 0x1b
 5927 01a3 34       		.uleb128 0x34
 5928 01a4 00       		.byte	0
 5929 01a5 03       		.uleb128 0x3
 5930 01a6 08       		.uleb128 0x8
 5931 01a7 3A       		.uleb128 0x3a
 5932 01a8 0B       		.uleb128 0xb
 5933 01a9 3B       		.uleb128 0x3b
 5934 01aa 0B       		.uleb128 0xb
 5935 01ab 49       		.uleb128 0x49
 5936 01ac 13       		.uleb128 0x13
 5937 01ad 3F       		.uleb128 0x3f
 5938 01ae 19       		.uleb128 0x19
 5939 01af 02       		.uleb128 0x2
 5940 01b0 18       		.uleb128 0x18
 5941 01b1 00       		.byte	0
 5942 01b2 00       		.byte	0
 5943 01b3 1C       		.uleb128 0x1c
 5944 01b4 34       		.uleb128 0x34
 5945 01b5 00       		.byte	0
 5946 01b6 03       		.uleb128 0x3
 5947 01b7 0E       		.uleb128 0xe
 5948 01b8 3A       		.uleb128 0x3a
 5949 01b9 0B       		.uleb128 0xb
 5950 01ba 3B       		.uleb128 0x3b
 5951 01bb 0B       		.uleb128 0xb
 5952 01bc 49       		.uleb128 0x49
 5953 01bd 13       		.uleb128 0x13
 5954 01be 3F       		.uleb128 0x3f
 5955 01bf 19       		.uleb128 0x19
 5956 01c0 02       		.uleb128 0x2
 5957 01c1 18       		.uleb128 0x18
 5958 01c2 00       		.byte	0
 5959 01c3 00       		.byte	0
 5960 01c4 00       		.byte	0
 5961              		.section	.debug_loc,"",%progbits
 5962              	.Ldebug_loc0:
 5963              	.LLST0:
 5964 0000 00000000 		.4byte	.LVL1
 5965 0004 0A000000 		.4byte	.LVL2
 5966 0008 0100     		.2byte	0x1
 5967 000a 50       		.byte	0x50
 5968 000b 0A000000 		.4byte	.LVL2
 5969 000f 90000000 		.4byte	.LVL14
 5970 0013 0100     		.2byte	0x1
 5971 0015 55       		.byte	0x55
 5972 0016 00000000 		.4byte	0
 5973 001a 00000000 		.4byte	0
 5974              	.LLST1:
 5975 001e 00000000 		.4byte	.LVL1
 5976 0022 0A000000 		.4byte	.LVL2
 5977 0026 0100     		.2byte	0x1
 5978 0028 51       		.byte	0x51
 5979 0029 0A000000 		.4byte	.LVL2
 5980 002d 86000000 		.4byte	.LVL12
ARM GAS  C:\Users\hamis\AppData\Local\Temp\cc1fRzXM.s 			page 120


 5981 0031 0100     		.2byte	0x1
 5982 0033 56       		.byte	0x56
 5983 0034 86000000 		.4byte	.LVL12
 5984 0038 88000000 		.4byte	.LVL13
 5985 003c 0100     		.2byte	0x1
 5986 003e 51       		.byte	0x51
 5987 003f 88000000 		.4byte	.LVL13
 5988 0043 90000000 		.4byte	.LVL14
 5989 0047 0100     		.2byte	0x1
 5990 0049 56       		.byte	0x56
 5991 004a 90000000 		.4byte	.LVL14
 5992 004e 94000000 		.4byte	.LFE9
 5993 0052 0300     		.2byte	0x3
 5994 0054 71       		.byte	0x71
 5995 0055 7F       		.sleb128 -1
 5996 0056 9F       		.byte	0x9f
 5997 0057 00000000 		.4byte	0
 5998 005b 00000000 		.4byte	0
 5999              	.LLST2:
 6000 005f 00000000 		.4byte	.LVL1
 6001 0063 0A000000 		.4byte	.LVL2
 6002 0067 0100     		.2byte	0x1
 6003 0069 52       		.byte	0x52
 6004 006a 0A000000 		.4byte	.LVL2
 6005 006e 90000000 		.4byte	.LVL14
 6006 0072 0100     		.2byte	0x1
 6007 0074 57       		.byte	0x57
 6008 0075 90000000 		.4byte	.LVL14
 6009 0079 94000000 		.4byte	.LFE9
 6010 007d 0600     		.2byte	0x6
 6011 007f F3       		.byte	0xf3
 6012 0080 03       		.uleb128 0x3
 6013 0081 F5       		.byte	0xf5
 6014 0082 02       		.uleb128 0x2
 6015 0083 25       		.uleb128 0x25
 6016 0084 9F       		.byte	0x9f
 6017 0085 00000000 		.4byte	0
 6018 0089 00000000 		.4byte	0
 6019              	.LLST3:
 6020 008d 54000000 		.4byte	.LVL9
 6021 0091 80000000 		.4byte	.LVL10
 6022 0095 0100     		.2byte	0x1
 6023 0097 50       		.byte	0x50
 6024 0098 00000000 		.4byte	0
 6025 009c 00000000 		.4byte	0
 6026              	.LLST4:
 6027 00a0 00000000 		.4byte	.LVL15
 6028 00a4 0A000000 		.4byte	.LVL16
 6029 00a8 0100     		.2byte	0x1
 6030 00aa 50       		.byte	0x50
 6031 00ab 0A000000 		.4byte	.LVL16
 6032 00af 7C000000 		.4byte	.LVL29
 6033 00b3 0100     		.2byte	0x1
 6034 00b5 55       		.byte	0x55
 6035 00b6 00000000 		.4byte	0
 6036 00ba 00000000 		.4byte	0
 6037              	.LLST5:
ARM GAS  C:\Users\hamis\AppData\Local\Temp\cc1fRzXM.s 			page 121


 6038 00be 00000000 		.4byte	.LVL15
 6039 00c2 0A000000 		.4byte	.LVL16
 6040 00c6 0100     		.2byte	0x1
 6041 00c8 51       		.byte	0x51
 6042 00c9 0A000000 		.4byte	.LVL16
 6043 00cd 72000000 		.4byte	.LVL27
 6044 00d1 0100     		.2byte	0x1
 6045 00d3 56       		.byte	0x56
 6046 00d4 72000000 		.4byte	.LVL27
 6047 00d8 74000000 		.4byte	.LVL28
 6048 00dc 0100     		.2byte	0x1
 6049 00de 51       		.byte	0x51
 6050 00df 74000000 		.4byte	.LVL28
 6051 00e3 7C000000 		.4byte	.LVL29
 6052 00e7 0100     		.2byte	0x1
 6053 00e9 56       		.byte	0x56
 6054 00ea 7C000000 		.4byte	.LVL29
 6055 00ee 80000000 		.4byte	.LFE10
 6056 00f2 0300     		.2byte	0x3
 6057 00f4 71       		.byte	0x71
 6058 00f5 7F       		.sleb128 -1
 6059 00f6 9F       		.byte	0x9f
 6060 00f7 00000000 		.4byte	0
 6061 00fb 00000000 		.4byte	0
 6062              	.LLST6:
 6063 00ff 00000000 		.4byte	.LVL15
 6064 0103 0A000000 		.4byte	.LVL16
 6065 0107 0100     		.2byte	0x1
 6066 0109 52       		.byte	0x52
 6067 010a 0A000000 		.4byte	.LVL16
 6068 010e 7C000000 		.4byte	.LVL29
 6069 0112 0100     		.2byte	0x1
 6070 0114 57       		.byte	0x57
 6071 0115 7C000000 		.4byte	.LVL29
 6072 0119 80000000 		.4byte	.LFE10
 6073 011d 0600     		.2byte	0x6
 6074 011f F3       		.byte	0xf3
 6075 0120 03       		.uleb128 0x3
 6076 0121 F5       		.byte	0xf5
 6077 0122 02       		.uleb128 0x2
 6078 0123 25       		.uleb128 0x25
 6079 0124 9F       		.byte	0x9f
 6080 0125 00000000 		.4byte	0
 6081 0129 00000000 		.4byte	0
 6082              	.LLST7:
 6083 012d 56000000 		.4byte	.LVL24
 6084 0131 6C000000 		.4byte	.LVL25
 6085 0135 0100     		.2byte	0x1
 6086 0137 50       		.byte	0x50
 6087 0138 00000000 		.4byte	0
 6088 013c 00000000 		.4byte	0
 6089              	.LLST8:
 6090 0140 00000000 		.4byte	.LVL30
 6091 0144 0A000000 		.4byte	.LVL31
 6092 0148 0100     		.2byte	0x1
 6093 014a 50       		.byte	0x50
 6094 014b 0A000000 		.4byte	.LVL31
ARM GAS  C:\Users\hamis\AppData\Local\Temp\cc1fRzXM.s 			page 122


 6095 014f 6C000000 		.4byte	.LVL42
 6096 0153 0100     		.2byte	0x1
 6097 0155 56       		.byte	0x56
 6098 0156 00000000 		.4byte	0
 6099 015a 00000000 		.4byte	0
 6100              	.LLST9:
 6101 015e 00000000 		.4byte	.LVL30
 6102 0162 0A000000 		.4byte	.LVL31
 6103 0166 0100     		.2byte	0x1
 6104 0168 51       		.byte	0x51
 6105 0169 0A000000 		.4byte	.LVL31
 6106 016d 62000000 		.4byte	.LVL40
 6107 0171 0100     		.2byte	0x1
 6108 0173 57       		.byte	0x57
 6109 0174 62000000 		.4byte	.LVL40
 6110 0178 64000000 		.4byte	.LVL41
 6111 017c 0100     		.2byte	0x1
 6112 017e 51       		.byte	0x51
 6113 017f 64000000 		.4byte	.LVL41
 6114 0183 6C000000 		.4byte	.LVL42
 6115 0187 0100     		.2byte	0x1
 6116 0189 57       		.byte	0x57
 6117 018a 6C000000 		.4byte	.LVL42
 6118 018e 70000000 		.4byte	.LFE11
 6119 0192 0300     		.2byte	0x3
 6120 0194 71       		.byte	0x71
 6121 0195 7F       		.sleb128 -1
 6122 0196 9F       		.byte	0x9f
 6123 0197 00000000 		.4byte	0
 6124 019b 00000000 		.4byte	0
 6125              	.LLST10:
 6126 019f 00000000 		.4byte	.LVL30
 6127 01a3 0A000000 		.4byte	.LVL31
 6128 01a7 0100     		.2byte	0x1
 6129 01a9 52       		.byte	0x52
 6130 01aa 0A000000 		.4byte	.LVL31
 6131 01ae 6C000000 		.4byte	.LVL42
 6132 01b2 0100     		.2byte	0x1
 6133 01b4 58       		.byte	0x58
 6134 01b5 6C000000 		.4byte	.LVL42
 6135 01b9 70000000 		.4byte	.LFE11
 6136 01bd 0600     		.2byte	0x6
 6137 01bf F3       		.byte	0xf3
 6138 01c0 03       		.uleb128 0x3
 6139 01c1 F5       		.byte	0xf5
 6140 01c2 02       		.uleb128 0x2
 6141 01c3 25       		.uleb128 0x25
 6142 01c4 9F       		.byte	0x9f
 6143 01c5 00000000 		.4byte	0
 6144 01c9 00000000 		.4byte	0
 6145              	.LLST11:
 6146 01cd 52000000 		.4byte	.LVL38
 6147 01d1 62000000 		.4byte	.LVL40
 6148 01d5 0100     		.2byte	0x1
 6149 01d7 50       		.byte	0x50
 6150 01d8 00000000 		.4byte	0
 6151 01dc 00000000 		.4byte	0
ARM GAS  C:\Users\hamis\AppData\Local\Temp\cc1fRzXM.s 			page 123


 6152              	.LLST12:
 6153 01e0 00000000 		.4byte	.LVL43
 6154 01e4 0A000000 		.4byte	.LVL44
 6155 01e8 0100     		.2byte	0x1
 6156 01ea 50       		.byte	0x50
 6157 01eb 0A000000 		.4byte	.LVL44
 6158 01ef 6C000000 		.4byte	.LVL56
 6159 01f3 0100     		.2byte	0x1
 6160 01f5 56       		.byte	0x56
 6161 01f6 00000000 		.4byte	0
 6162 01fa 00000000 		.4byte	0
 6163              	.LLST13:
 6164 01fe 00000000 		.4byte	.LVL43
 6165 0202 0A000000 		.4byte	.LVL44
 6166 0206 0100     		.2byte	0x1
 6167 0208 51       		.byte	0x51
 6168 0209 0A000000 		.4byte	.LVL44
 6169 020d 62000000 		.4byte	.LVL54
 6170 0211 0100     		.2byte	0x1
 6171 0213 57       		.byte	0x57
 6172 0214 62000000 		.4byte	.LVL54
 6173 0218 64000000 		.4byte	.LVL55
 6174 021c 0100     		.2byte	0x1
 6175 021e 51       		.byte	0x51
 6176 021f 64000000 		.4byte	.LVL55
 6177 0223 6C000000 		.4byte	.LVL56
 6178 0227 0100     		.2byte	0x1
 6179 0229 57       		.byte	0x57
 6180 022a 6C000000 		.4byte	.LVL56
 6181 022e 70000000 		.4byte	.LFE12
 6182 0232 0300     		.2byte	0x3
 6183 0234 71       		.byte	0x71
 6184 0235 7F       		.sleb128 -1
 6185 0236 9F       		.byte	0x9f
 6186 0237 00000000 		.4byte	0
 6187 023b 00000000 		.4byte	0
 6188              	.LLST14:
 6189 023f 00000000 		.4byte	.LVL43
 6190 0243 0A000000 		.4byte	.LVL44
 6191 0247 0100     		.2byte	0x1
 6192 0249 52       		.byte	0x52
 6193 024a 0A000000 		.4byte	.LVL44
 6194 024e 6C000000 		.4byte	.LVL56
 6195 0252 0100     		.2byte	0x1
 6196 0254 58       		.byte	0x58
 6197 0255 6C000000 		.4byte	.LVL56
 6198 0259 70000000 		.4byte	.LFE12
 6199 025d 0600     		.2byte	0x6
 6200 025f F3       		.byte	0xf3
 6201 0260 03       		.uleb128 0x3
 6202 0261 F5       		.byte	0xf5
 6203 0262 02       		.uleb128 0x2
 6204 0263 25       		.uleb128 0x25
 6205 0264 9F       		.byte	0x9f
 6206 0265 00000000 		.4byte	0
 6207 0269 00000000 		.4byte	0
 6208              	.LLST15:
ARM GAS  C:\Users\hamis\AppData\Local\Temp\cc1fRzXM.s 			page 124


 6209 026d 54000000 		.4byte	.LVL52
 6210 0271 62000000 		.4byte	.LVL54
 6211 0275 0100     		.2byte	0x1
 6212 0277 50       		.byte	0x50
 6213 0278 00000000 		.4byte	0
 6214 027c 00000000 		.4byte	0
 6215              	.LLST16:
 6216 0280 00000000 		.4byte	.LVL57
 6217 0284 0A000000 		.4byte	.LVL58
 6218 0288 0100     		.2byte	0x1
 6219 028a 50       		.byte	0x50
 6220 028b 0A000000 		.4byte	.LVL58
 6221 028f 7A000000 		.4byte	.LVL71
 6222 0293 0100     		.2byte	0x1
 6223 0295 55       		.byte	0x55
 6224 0296 00000000 		.4byte	0
 6225 029a 00000000 		.4byte	0
 6226              	.LLST17:
 6227 029e 00000000 		.4byte	.LVL57
 6228 02a2 0A000000 		.4byte	.LVL58
 6229 02a6 0100     		.2byte	0x1
 6230 02a8 51       		.byte	0x51
 6231 02a9 0A000000 		.4byte	.LVL58
 6232 02ad 70000000 		.4byte	.LVL69
 6233 02b1 0100     		.2byte	0x1
 6234 02b3 56       		.byte	0x56
 6235 02b4 70000000 		.4byte	.LVL69
 6236 02b8 72000000 		.4byte	.LVL70
 6237 02bc 0100     		.2byte	0x1
 6238 02be 51       		.byte	0x51
 6239 02bf 72000000 		.4byte	.LVL70
 6240 02c3 7A000000 		.4byte	.LVL71
 6241 02c7 0100     		.2byte	0x1
 6242 02c9 56       		.byte	0x56
 6243 02ca 7A000000 		.4byte	.LVL71
 6244 02ce 80000000 		.4byte	.LFE13
 6245 02d2 0300     		.2byte	0x3
 6246 02d4 71       		.byte	0x71
 6247 02d5 7F       		.sleb128 -1
 6248 02d6 9F       		.byte	0x9f
 6249 02d7 00000000 		.4byte	0
 6250 02db 00000000 		.4byte	0
 6251              	.LLST18:
 6252 02df 00000000 		.4byte	.LVL57
 6253 02e3 0A000000 		.4byte	.LVL58
 6254 02e7 0100     		.2byte	0x1
 6255 02e9 52       		.byte	0x52
 6256 02ea 0A000000 		.4byte	.LVL58
 6257 02ee 7A000000 		.4byte	.LVL71
 6258 02f2 0100     		.2byte	0x1
 6259 02f4 57       		.byte	0x57
 6260 02f5 7A000000 		.4byte	.LVL71
 6261 02f9 80000000 		.4byte	.LFE13
 6262 02fd 0600     		.2byte	0x6
 6263 02ff F3       		.byte	0xf3
 6264 0300 03       		.uleb128 0x3
 6265 0301 F5       		.byte	0xf5
ARM GAS  C:\Users\hamis\AppData\Local\Temp\cc1fRzXM.s 			page 125


 6266 0302 02       		.uleb128 0x2
 6267 0303 25       		.uleb128 0x25
 6268 0304 9F       		.byte	0x9f
 6269 0305 00000000 		.4byte	0
 6270 0309 00000000 		.4byte	0
 6271              	.LLST19:
 6272 030d 56000000 		.4byte	.LVL66
 6273 0311 6A000000 		.4byte	.LVL67
 6274 0315 0100     		.2byte	0x1
 6275 0317 50       		.byte	0x50
 6276 0318 00000000 		.4byte	0
 6277 031c 00000000 		.4byte	0
 6278              	.LLST20:
 6279 0320 00000000 		.4byte	.LVL72
 6280 0324 18000000 		.4byte	.LVL74
 6281 0328 0100     		.2byte	0x1
 6282 032a 50       		.byte	0x50
 6283 032b 18000000 		.4byte	.LVL74
 6284 032f E2000000 		.4byte	.LVL96
 6285 0333 0100     		.2byte	0x1
 6286 0335 54       		.byte	0x54
 6287 0336 00000000 		.4byte	0
 6288 033a 00000000 		.4byte	0
 6289              	.LLST21:
 6290 033e 00000000 		.4byte	.LVL72
 6291 0342 18000000 		.4byte	.LVL74
 6292 0346 0100     		.2byte	0x1
 6293 0348 51       		.byte	0x51
 6294 0349 18000000 		.4byte	.LVL74
 6295 034d 76000000 		.4byte	.LVL82
 6296 0351 0100     		.2byte	0x1
 6297 0353 56       		.byte	0x56
 6298 0354 76000000 		.4byte	.LVL82
 6299 0358 78000000 		.4byte	.LVL83
 6300 035c 0100     		.2byte	0x1
 6301 035e 51       		.byte	0x51
 6302 035f 78000000 		.4byte	.LVL83
 6303 0363 80000000 		.4byte	.LVL84
 6304 0367 0100     		.2byte	0x1
 6305 0369 56       		.byte	0x56
 6306 036a 80000000 		.4byte	.LVL84
 6307 036e D6000000 		.4byte	.LVL94
 6308 0372 0100     		.2byte	0x1
 6309 0374 59       		.byte	0x59
 6310 0375 D6000000 		.4byte	.LVL94
 6311 0379 DA000000 		.4byte	.LVL95
 6312 037d 0100     		.2byte	0x1
 6313 037f 51       		.byte	0x51
 6314 0380 DA000000 		.4byte	.LVL95
 6315 0384 E2000000 		.4byte	.LVL96
 6316 0388 0100     		.2byte	0x1
 6317 038a 59       		.byte	0x59
 6318 038b E2000000 		.4byte	.LVL96
 6319 038f EC000000 		.4byte	.LFE14
 6320 0393 0300     		.2byte	0x3
 6321 0395 71       		.byte	0x71
 6322 0396 7F       		.sleb128 -1
ARM GAS  C:\Users\hamis\AppData\Local\Temp\cc1fRzXM.s 			page 126


 6323 0397 9F       		.byte	0x9f
 6324 0398 00000000 		.4byte	0
 6325 039c 00000000 		.4byte	0
 6326              	.LLST22:
 6327 03a0 00000000 		.4byte	.LVL72
 6328 03a4 18000000 		.4byte	.LVL74
 6329 03a8 0100     		.2byte	0x1
 6330 03aa 52       		.byte	0x52
 6331 03ab 18000000 		.4byte	.LVL74
 6332 03af E2000000 		.4byte	.LVL96
 6333 03b3 0100     		.2byte	0x1
 6334 03b5 57       		.byte	0x57
 6335 03b6 E2000000 		.4byte	.LVL96
 6336 03ba EC000000 		.4byte	.LFE14
 6337 03be 0600     		.2byte	0x6
 6338 03c0 F3       		.byte	0xf3
 6339 03c1 03       		.uleb128 0x3
 6340 03c2 F5       		.byte	0xf5
 6341 03c3 02       		.uleb128 0x2
 6342 03c4 25       		.uleb128 0x25
 6343 03c5 9F       		.byte	0x9f
 6344 03c6 00000000 		.4byte	0
 6345 03ca 00000000 		.4byte	0
 6346              	.LLST23:
 6347 03ce 00000000 		.4byte	.LVL72
 6348 03d2 10000000 		.4byte	.LVL73
 6349 03d6 0100     		.2byte	0x1
 6350 03d8 53       		.byte	0x53
 6351 03d9 10000000 		.4byte	.LVL73
 6352 03dd E2000000 		.4byte	.LVL96
 6353 03e1 0100     		.2byte	0x1
 6354 03e3 58       		.byte	0x58
 6355 03e4 E2000000 		.4byte	.LVL96
 6356 03e8 EC000000 		.4byte	.LFE14
 6357 03ec 0600     		.2byte	0x6
 6358 03ee F3       		.byte	0xf3
 6359 03ef 03       		.uleb128 0x3
 6360 03f0 F5       		.byte	0xf5
 6361 03f1 03       		.uleb128 0x3
 6362 03f2 25       		.uleb128 0x25
 6363 03f3 9F       		.byte	0x9f
 6364 03f4 00000000 		.4byte	0
 6365 03f8 00000000 		.4byte	0
 6366              	.LLST24:
 6367 03fc 00000000 		.4byte	.LVL72
 6368 0400 80000000 		.4byte	.LVL84
 6369 0404 0200     		.2byte	0x2
 6370 0406 91       		.byte	0x91
 6371 0407 00       		.sleb128 0
 6372 0408 80000000 		.4byte	.LVL84
 6373 040c E2000000 		.4byte	.LVL96
 6374 0410 0200     		.2byte	0x2
 6375 0412 91       		.byte	0x91
 6376 0413 00       		.sleb128 0
 6377 0414 E2000000 		.4byte	.LVL96
 6378 0418 EC000000 		.4byte	.LFE14
 6379 041c 0200     		.2byte	0x2
ARM GAS  C:\Users\hamis\AppData\Local\Temp\cc1fRzXM.s 			page 127


 6380 041e 7D       		.byte	0x7d
 6381 041f 00       		.sleb128 0
 6382 0420 00000000 		.4byte	0
 6383 0424 00000000 		.4byte	0
 6384              	.LLST25:
 6385 0428 38000000 		.4byte	.LVL75
 6386 042c 43000000 		.4byte	.LVL76-1
 6387 0430 0100     		.2byte	0x1
 6388 0432 50       		.byte	0x50
 6389 0433 44000000 		.4byte	.LVL76
 6390 0437 49000000 		.4byte	.LVL77-1
 6391 043b 0100     		.2byte	0x1
 6392 043d 50       		.byte	0x50
 6393 043e 00000000 		.4byte	0
 6394 0442 00000000 		.4byte	0
 6395              	.LLST26:
 6396 0446 9C000000 		.4byte	.LVL85
 6397 044a A4000000 		.4byte	.LVL86
 6398 044e 0100     		.2byte	0x1
 6399 0450 50       		.byte	0x50
 6400 0451 A4000000 		.4byte	.LVL86
 6401 0455 A7000000 		.4byte	.LVL87-1
 6402 0459 0100     		.2byte	0x1
 6403 045b 51       		.byte	0x51
 6404 045c AA000000 		.4byte	.LVL88
 6405 0460 AE000000 		.4byte	.LVL89
 6406 0464 0100     		.2byte	0x1
 6407 0466 50       		.byte	0x50
 6408 0467 AE000000 		.4byte	.LVL89
 6409 046b B1000000 		.4byte	.LVL90-1
 6410 046f 0100     		.2byte	0x1
 6411 0471 51       		.byte	0x51
 6412 0472 00000000 		.4byte	0
 6413 0476 00000000 		.4byte	0
 6414              	.LLST27:
 6415 047a 00000000 		.4byte	.LVL97
 6416 047e 18000000 		.4byte	.LVL99
 6417 0482 0100     		.2byte	0x1
 6418 0484 50       		.byte	0x50
 6419 0485 18000000 		.4byte	.LVL99
 6420 0489 CE000000 		.4byte	.LVL121
 6421 048d 0100     		.2byte	0x1
 6422 048f 54       		.byte	0x54
 6423 0490 00000000 		.4byte	0
 6424 0494 00000000 		.4byte	0
 6425              	.LLST28:
 6426 0498 00000000 		.4byte	.LVL97
 6427 049c 18000000 		.4byte	.LVL99
 6428 04a0 0100     		.2byte	0x1
 6429 04a2 51       		.byte	0x51
 6430 04a3 18000000 		.4byte	.LVL99
 6431 04a7 6C000000 		.4byte	.LVL107
 6432 04ab 0100     		.2byte	0x1
 6433 04ad 56       		.byte	0x56
 6434 04ae 6C000000 		.4byte	.LVL107
 6435 04b2 6E000000 		.4byte	.LVL108
 6436 04b6 0100     		.2byte	0x1
ARM GAS  C:\Users\hamis\AppData\Local\Temp\cc1fRzXM.s 			page 128


 6437 04b8 51       		.byte	0x51
 6438 04b9 6E000000 		.4byte	.LVL108
 6439 04bd 76000000 		.4byte	.LVL109
 6440 04c1 0100     		.2byte	0x1
 6441 04c3 56       		.byte	0x56
 6442 04c4 76000000 		.4byte	.LVL109
 6443 04c8 C2000000 		.4byte	.LVL119
 6444 04cc 0100     		.2byte	0x1
 6445 04ce 59       		.byte	0x59
 6446 04cf C2000000 		.4byte	.LVL119
 6447 04d3 C6000000 		.4byte	.LVL120
 6448 04d7 0100     		.2byte	0x1
 6449 04d9 51       		.byte	0x51
 6450 04da C6000000 		.4byte	.LVL120
 6451 04de CE000000 		.4byte	.LVL121
 6452 04e2 0100     		.2byte	0x1
 6453 04e4 59       		.byte	0x59
 6454 04e5 CE000000 		.4byte	.LVL121
 6455 04e9 D8000000 		.4byte	.LFE15
 6456 04ed 0300     		.2byte	0x3
 6457 04ef 71       		.byte	0x71
 6458 04f0 7F       		.sleb128 -1
 6459 04f1 9F       		.byte	0x9f
 6460 04f2 00000000 		.4byte	0
 6461 04f6 00000000 		.4byte	0
 6462              	.LLST29:
 6463 04fa 00000000 		.4byte	.LVL97
 6464 04fe 18000000 		.4byte	.LVL99
 6465 0502 0100     		.2byte	0x1
 6466 0504 52       		.byte	0x52
 6467 0505 18000000 		.4byte	.LVL99
 6468 0509 CE000000 		.4byte	.LVL121
 6469 050d 0100     		.2byte	0x1
 6470 050f 57       		.byte	0x57
 6471 0510 CE000000 		.4byte	.LVL121
 6472 0514 D8000000 		.4byte	.LFE15
 6473 0518 0600     		.2byte	0x6
 6474 051a F3       		.byte	0xf3
 6475 051b 03       		.uleb128 0x3
 6476 051c F5       		.byte	0xf5
 6477 051d 02       		.uleb128 0x2
 6478 051e 25       		.uleb128 0x25
 6479 051f 9F       		.byte	0x9f
 6480 0520 00000000 		.4byte	0
 6481 0524 00000000 		.4byte	0
 6482              	.LLST30:
 6483 0528 00000000 		.4byte	.LVL97
 6484 052c 10000000 		.4byte	.LVL98
 6485 0530 0100     		.2byte	0x1
 6486 0532 53       		.byte	0x53
 6487 0533 10000000 		.4byte	.LVL98
 6488 0537 CE000000 		.4byte	.LVL121
 6489 053b 0100     		.2byte	0x1
 6490 053d 58       		.byte	0x58
 6491 053e CE000000 		.4byte	.LVL121
 6492 0542 D8000000 		.4byte	.LFE15
 6493 0546 0600     		.2byte	0x6
ARM GAS  C:\Users\hamis\AppData\Local\Temp\cc1fRzXM.s 			page 129


 6494 0548 F3       		.byte	0xf3
 6495 0549 03       		.uleb128 0x3
 6496 054a F5       		.byte	0xf5
 6497 054b 03       		.uleb128 0x3
 6498 054c 25       		.uleb128 0x25
 6499 054d 9F       		.byte	0x9f
 6500 054e 00000000 		.4byte	0
 6501 0552 00000000 		.4byte	0
 6502              	.LLST31:
 6503 0556 00000000 		.4byte	.LVL97
 6504 055a 76000000 		.4byte	.LVL109
 6505 055e 0200     		.2byte	0x2
 6506 0560 91       		.byte	0x91
 6507 0561 00       		.sleb128 0
 6508 0562 76000000 		.4byte	.LVL109
 6509 0566 CE000000 		.4byte	.LVL121
 6510 056a 0200     		.2byte	0x2
 6511 056c 91       		.byte	0x91
 6512 056d 00       		.sleb128 0
 6513 056e CE000000 		.4byte	.LVL121
 6514 0572 D8000000 		.4byte	.LFE15
 6515 0576 0200     		.2byte	0x2
 6516 0578 7D       		.byte	0x7d
 6517 0579 00       		.sleb128 0
 6518 057a 00000000 		.4byte	0
 6519 057e 00000000 		.4byte	0
 6520              	.LLST32:
 6521 0582 2E000000 		.4byte	.LVL100
 6522 0586 39000000 		.4byte	.LVL101-1
 6523 058a 0100     		.2byte	0x1
 6524 058c 50       		.byte	0x50
 6525 058d 3A000000 		.4byte	.LVL101
 6526 0591 3F000000 		.4byte	.LVL102-1
 6527 0595 0100     		.2byte	0x1
 6528 0597 50       		.byte	0x50
 6529 0598 00000000 		.4byte	0
 6530 059c 00000000 		.4byte	0
 6531              	.LLST33:
 6532 05a0 88000000 		.4byte	.LVL110
 6533 05a4 90000000 		.4byte	.LVL111
 6534 05a8 0100     		.2byte	0x1
 6535 05aa 50       		.byte	0x50
 6536 05ab 90000000 		.4byte	.LVL111
 6537 05af 93000000 		.4byte	.LVL112-1
 6538 05b3 0100     		.2byte	0x1
 6539 05b5 51       		.byte	0x51
 6540 05b6 96000000 		.4byte	.LVL113
 6541 05ba 9A000000 		.4byte	.LVL114
 6542 05be 0100     		.2byte	0x1
 6543 05c0 50       		.byte	0x50
 6544 05c1 9A000000 		.4byte	.LVL114
 6545 05c5 9D000000 		.4byte	.LVL115-1
 6546 05c9 0100     		.2byte	0x1
 6547 05cb 51       		.byte	0x51
 6548 05cc 00000000 		.4byte	0
 6549 05d0 00000000 		.4byte	0
 6550              	.LLST34:
ARM GAS  C:\Users\hamis\AppData\Local\Temp\cc1fRzXM.s 			page 130


 6551 05d4 00000000 		.4byte	.LVL122
 6552 05d8 18000000 		.4byte	.LVL124
 6553 05dc 0100     		.2byte	0x1
 6554 05de 50       		.byte	0x50
 6555 05df 18000000 		.4byte	.LVL124
 6556 05e3 BA000000 		.4byte	.LVL146
 6557 05e7 0100     		.2byte	0x1
 6558 05e9 54       		.byte	0x54
 6559 05ea 00000000 		.4byte	0
 6560 05ee 00000000 		.4byte	0
 6561              	.LLST35:
 6562 05f2 00000000 		.4byte	.LVL122
 6563 05f6 18000000 		.4byte	.LVL124
 6564 05fa 0100     		.2byte	0x1
 6565 05fc 51       		.byte	0x51
 6566 05fd 18000000 		.4byte	.LVL124
 6567 0601 62000000 		.4byte	.LVL132
 6568 0605 0100     		.2byte	0x1
 6569 0607 56       		.byte	0x56
 6570 0608 62000000 		.4byte	.LVL132
 6571 060c 64000000 		.4byte	.LVL133
 6572 0610 0100     		.2byte	0x1
 6573 0612 51       		.byte	0x51
 6574 0613 64000000 		.4byte	.LVL133
 6575 0617 B0000000 		.4byte	.LVL144
 6576 061b 0100     		.2byte	0x1
 6577 061d 56       		.byte	0x56
 6578 061e B0000000 		.4byte	.LVL144
 6579 0622 B2000000 		.4byte	.LVL145
 6580 0626 0100     		.2byte	0x1
 6581 0628 51       		.byte	0x51
 6582 0629 B2000000 		.4byte	.LVL145
 6583 062d BA000000 		.4byte	.LVL146
 6584 0631 0100     		.2byte	0x1
 6585 0633 56       		.byte	0x56
 6586 0634 BA000000 		.4byte	.LVL146
 6587 0638 C4000000 		.4byte	.LFE16
 6588 063c 0300     		.2byte	0x3
 6589 063e 71       		.byte	0x71
 6590 063f 7F       		.sleb128 -1
 6591 0640 9F       		.byte	0x9f
 6592 0641 00000000 		.4byte	0
 6593 0645 00000000 		.4byte	0
 6594              	.LLST36:
 6595 0649 00000000 		.4byte	.LVL122
 6596 064d 18000000 		.4byte	.LVL124
 6597 0651 0100     		.2byte	0x1
 6598 0653 52       		.byte	0x52
 6599 0654 18000000 		.4byte	.LVL124
 6600 0658 BA000000 		.4byte	.LVL146
 6601 065c 0100     		.2byte	0x1
 6602 065e 55       		.byte	0x55
 6603 065f BA000000 		.4byte	.LVL146
 6604 0663 C4000000 		.4byte	.LFE16
 6605 0667 0600     		.2byte	0x6
 6606 0669 F3       		.byte	0xf3
 6607 066a 03       		.uleb128 0x3
ARM GAS  C:\Users\hamis\AppData\Local\Temp\cc1fRzXM.s 			page 131


 6608 066b F5       		.byte	0xf5
 6609 066c 02       		.uleb128 0x2
 6610 066d 25       		.uleb128 0x25
 6611 066e 9F       		.byte	0x9f
 6612 066f 00000000 		.4byte	0
 6613 0673 00000000 		.4byte	0
 6614              	.LLST37:
 6615 0677 00000000 		.4byte	.LVL122
 6616 067b 10000000 		.4byte	.LVL123
 6617 067f 0100     		.2byte	0x1
 6618 0681 53       		.byte	0x53
 6619 0682 10000000 		.4byte	.LVL123
 6620 0686 BA000000 		.4byte	.LVL146
 6621 068a 0100     		.2byte	0x1
 6622 068c 57       		.byte	0x57
 6623 068d BA000000 		.4byte	.LVL146
 6624 0691 C4000000 		.4byte	.LFE16
 6625 0695 0600     		.2byte	0x6
 6626 0697 F3       		.byte	0xf3
 6627 0698 03       		.uleb128 0x3
 6628 0699 F5       		.byte	0xf5
 6629 069a 03       		.uleb128 0x3
 6630 069b 25       		.uleb128 0x25
 6631 069c 9F       		.byte	0x9f
 6632 069d 00000000 		.4byte	0
 6633 06a1 00000000 		.4byte	0
 6634              	.LLST38:
 6635 06a5 00000000 		.4byte	.LVL122
 6636 06a9 6C000000 		.4byte	.LVL134
 6637 06ad 0200     		.2byte	0x2
 6638 06af 91       		.byte	0x91
 6639 06b0 00       		.sleb128 0
 6640 06b1 6C000000 		.4byte	.LVL134
 6641 06b5 BA000000 		.4byte	.LVL146
 6642 06b9 0200     		.2byte	0x2
 6643 06bb 91       		.byte	0x91
 6644 06bc 00       		.sleb128 0
 6645 06bd BA000000 		.4byte	.LVL146
 6646 06c1 C4000000 		.4byte	.LFE16
 6647 06c5 0200     		.2byte	0x2
 6648 06c7 7D       		.byte	0x7d
 6649 06c8 00       		.sleb128 0
 6650 06c9 00000000 		.4byte	0
 6651 06cd 00000000 		.4byte	0
 6652              	.LLST39:
 6653 06d1 28000000 		.4byte	.LVL125
 6654 06d5 2D000000 		.4byte	.LVL126-1
 6655 06d9 0100     		.2byte	0x1
 6656 06db 50       		.byte	0x50
 6657 06dc 2E000000 		.4byte	.LVL126
 6658 06e0 33000000 		.4byte	.LVL127-1
 6659 06e4 0100     		.2byte	0x1
 6660 06e6 50       		.byte	0x50
 6661 06e7 00000000 		.4byte	0
 6662 06eb 00000000 		.4byte	0
 6663              	.LLST40:
 6664 06ef 7C000000 		.4byte	.LVL135
ARM GAS  C:\Users\hamis\AppData\Local\Temp\cc1fRzXM.s 			page 132


 6665 06f3 80000000 		.4byte	.LVL136
 6666 06f7 0100     		.2byte	0x1
 6667 06f9 50       		.byte	0x50
 6668 06fa 80000000 		.4byte	.LVL136
 6669 06fe 83000000 		.4byte	.LVL137-1
 6670 0702 0100     		.2byte	0x1
 6671 0704 51       		.byte	0x51
 6672 0705 86000000 		.4byte	.LVL138
 6673 0709 8A000000 		.4byte	.LVL139
 6674 070d 0100     		.2byte	0x1
 6675 070f 50       		.byte	0x50
 6676 0710 8A000000 		.4byte	.LVL139
 6677 0714 8D000000 		.4byte	.LVL140-1
 6678 0718 0100     		.2byte	0x1
 6679 071a 51       		.byte	0x51
 6680 071b 00000000 		.4byte	0
 6681 071f 00000000 		.4byte	0
 6682              	.LLST41:
 6683 0723 00000000 		.4byte	.LVL147
 6684 0727 18000000 		.4byte	.LVL149
 6685 072b 0100     		.2byte	0x1
 6686 072d 50       		.byte	0x50
 6687 072e 18000000 		.4byte	.LVL149
 6688 0732 B4000000 		.4byte	.LVL171
 6689 0736 0100     		.2byte	0x1
 6690 0738 54       		.byte	0x54
 6691 0739 00000000 		.4byte	0
 6692 073d 00000000 		.4byte	0
 6693              	.LLST42:
 6694 0741 00000000 		.4byte	.LVL147
 6695 0745 18000000 		.4byte	.LVL149
 6696 0749 0100     		.2byte	0x1
 6697 074b 51       		.byte	0x51
 6698 074c 18000000 		.4byte	.LVL149
 6699 0750 5E000000 		.4byte	.LVL157
 6700 0754 0100     		.2byte	0x1
 6701 0756 57       		.byte	0x57
 6702 0757 5E000000 		.4byte	.LVL157
 6703 075b 60000000 		.4byte	.LVL158
 6704 075f 0100     		.2byte	0x1
 6705 0761 51       		.byte	0x51
 6706 0762 60000000 		.4byte	.LVL158
 6707 0766 AA000000 		.4byte	.LVL169
 6708 076a 0100     		.2byte	0x1
 6709 076c 57       		.byte	0x57
 6710 076d AA000000 		.4byte	.LVL169
 6711 0771 AC000000 		.4byte	.LVL170
 6712 0775 0100     		.2byte	0x1
 6713 0777 51       		.byte	0x51
 6714 0778 AC000000 		.4byte	.LVL170
 6715 077c B4000000 		.4byte	.LVL171
 6716 0780 0100     		.2byte	0x1
 6717 0782 57       		.byte	0x57
 6718 0783 B4000000 		.4byte	.LVL171
 6719 0787 BC000000 		.4byte	.LFE17
 6720 078b 0300     		.2byte	0x3
 6721 078d 71       		.byte	0x71
ARM GAS  C:\Users\hamis\AppData\Local\Temp\cc1fRzXM.s 			page 133


 6722 078e 7F       		.sleb128 -1
 6723 078f 9F       		.byte	0x9f
 6724 0790 00000000 		.4byte	0
 6725 0794 00000000 		.4byte	0
 6726              	.LLST43:
 6727 0798 00000000 		.4byte	.LVL147
 6728 079c 18000000 		.4byte	.LVL149
 6729 07a0 0100     		.2byte	0x1
 6730 07a2 52       		.byte	0x52
 6731 07a3 18000000 		.4byte	.LVL149
 6732 07a7 B4000000 		.4byte	.LVL171
 6733 07ab 0100     		.2byte	0x1
 6734 07ad 55       		.byte	0x55
 6735 07ae B4000000 		.4byte	.LVL171
 6736 07b2 BC000000 		.4byte	.LFE17
 6737 07b6 0600     		.2byte	0x6
 6738 07b8 F3       		.byte	0xf3
 6739 07b9 03       		.uleb128 0x3
 6740 07ba F5       		.byte	0xf5
 6741 07bb 02       		.uleb128 0x2
 6742 07bc 25       		.uleb128 0x25
 6743 07bd 9F       		.byte	0x9f
 6744 07be 00000000 		.4byte	0
 6745 07c2 00000000 		.4byte	0
 6746              	.LLST44:
 6747 07c6 00000000 		.4byte	.LVL147
 6748 07ca 10000000 		.4byte	.LVL148
 6749 07ce 0100     		.2byte	0x1
 6750 07d0 53       		.byte	0x53
 6751 07d1 10000000 		.4byte	.LVL148
 6752 07d5 B4000000 		.4byte	.LVL171
 6753 07d9 0100     		.2byte	0x1
 6754 07db 56       		.byte	0x56
 6755 07dc B4000000 		.4byte	.LVL171
 6756 07e0 BC000000 		.4byte	.LFE17
 6757 07e4 0600     		.2byte	0x6
 6758 07e6 F3       		.byte	0xf3
 6759 07e7 03       		.uleb128 0x3
 6760 07e8 F5       		.byte	0xf5
 6761 07e9 03       		.uleb128 0x3
 6762 07ea 25       		.uleb128 0x25
 6763 07eb 9F       		.byte	0x9f
 6764 07ec 00000000 		.4byte	0
 6765 07f0 00000000 		.4byte	0
 6766              	.LLST45:
 6767 07f4 00000000 		.4byte	.LVL147
 6768 07f8 68000000 		.4byte	.LVL159
 6769 07fc 0200     		.2byte	0x2
 6770 07fe 91       		.byte	0x91
 6771 07ff 00       		.sleb128 0
 6772 0800 68000000 		.4byte	.LVL159
 6773 0804 B4000000 		.4byte	.LVL171
 6774 0808 0200     		.2byte	0x2
 6775 080a 91       		.byte	0x91
 6776 080b 00       		.sleb128 0
 6777 080c B4000000 		.4byte	.LVL171
 6778 0810 BC000000 		.4byte	.LFE17
ARM GAS  C:\Users\hamis\AppData\Local\Temp\cc1fRzXM.s 			page 134


 6779 0814 0200     		.2byte	0x2
 6780 0816 7D       		.byte	0x7d
 6781 0817 00       		.sleb128 0
 6782 0818 00000000 		.4byte	0
 6783 081c 00000000 		.4byte	0
 6784              	.LLST46:
 6785 0820 28000000 		.4byte	.LVL150
 6786 0824 2D000000 		.4byte	.LVL151-1
 6787 0828 0100     		.2byte	0x1
 6788 082a 50       		.byte	0x50
 6789 082b 2E000000 		.4byte	.LVL151
 6790 082f 33000000 		.4byte	.LVL152-1
 6791 0833 0100     		.2byte	0x1
 6792 0835 50       		.byte	0x50
 6793 0836 00000000 		.4byte	0
 6794 083a 00000000 		.4byte	0
 6795              	.LLST47:
 6796 083e 76000000 		.4byte	.LVL160
 6797 0842 7A000000 		.4byte	.LVL161
 6798 0846 0100     		.2byte	0x1
 6799 0848 50       		.byte	0x50
 6800 0849 7A000000 		.4byte	.LVL161
 6801 084d 7D000000 		.4byte	.LVL162-1
 6802 0851 0100     		.2byte	0x1
 6803 0853 51       		.byte	0x51
 6804 0854 80000000 		.4byte	.LVL163
 6805 0858 84000000 		.4byte	.LVL164
 6806 085c 0100     		.2byte	0x1
 6807 085e 50       		.byte	0x50
 6808 085f 84000000 		.4byte	.LVL164
 6809 0863 87000000 		.4byte	.LVL165-1
 6810 0867 0100     		.2byte	0x1
 6811 0869 51       		.byte	0x51
 6812 086a 00000000 		.4byte	0
 6813 086e 00000000 		.4byte	0
 6814              	.LLST48:
 6815 0872 00000000 		.4byte	.LVL172
 6816 0876 18000000 		.4byte	.LVL174
 6817 087a 0100     		.2byte	0x1
 6818 087c 50       		.byte	0x50
 6819 087d 18000000 		.4byte	.LVL174
 6820 0881 CE000000 		.4byte	.LVL196
 6821 0885 0100     		.2byte	0x1
 6822 0887 54       		.byte	0x54
 6823 0888 00000000 		.4byte	0
 6824 088c 00000000 		.4byte	0
 6825              	.LLST49:
 6826 0890 00000000 		.4byte	.LVL172
 6827 0894 18000000 		.4byte	.LVL174
 6828 0898 0100     		.2byte	0x1
 6829 089a 51       		.byte	0x51
 6830 089b 18000000 		.4byte	.LVL174
 6831 089f 68000000 		.4byte	.LVL182
 6832 08a3 0100     		.2byte	0x1
 6833 08a5 58       		.byte	0x58
 6834 08a6 68000000 		.4byte	.LVL182
 6835 08aa 6C000000 		.4byte	.LVL183
ARM GAS  C:\Users\hamis\AppData\Local\Temp\cc1fRzXM.s 			page 135


 6836 08ae 0100     		.2byte	0x1
 6837 08b0 51       		.byte	0x51
 6838 08b1 6C000000 		.4byte	.LVL183
 6839 08b5 C2000000 		.4byte	.LVL194
 6840 08b9 0100     		.2byte	0x1
 6841 08bb 58       		.byte	0x58
 6842 08bc C2000000 		.4byte	.LVL194
 6843 08c0 C6000000 		.4byte	.LVL195
 6844 08c4 0100     		.2byte	0x1
 6845 08c6 51       		.byte	0x51
 6846 08c7 C6000000 		.4byte	.LVL195
 6847 08cb CE000000 		.4byte	.LVL196
 6848 08cf 0100     		.2byte	0x1
 6849 08d1 58       		.byte	0x58
 6850 08d2 CE000000 		.4byte	.LVL196
 6851 08d6 D8000000 		.4byte	.LFE18
 6852 08da 0300     		.2byte	0x3
 6853 08dc 71       		.byte	0x71
 6854 08dd 7F       		.sleb128 -1
 6855 08de 9F       		.byte	0x9f
 6856 08df 00000000 		.4byte	0
 6857 08e3 00000000 		.4byte	0
 6858              	.LLST50:
 6859 08e7 00000000 		.4byte	.LVL172
 6860 08eb 18000000 		.4byte	.LVL174
 6861 08ef 0100     		.2byte	0x1
 6862 08f1 52       		.byte	0x52
 6863 08f2 18000000 		.4byte	.LVL174
 6864 08f6 CE000000 		.4byte	.LVL196
 6865 08fa 0100     		.2byte	0x1
 6866 08fc 56       		.byte	0x56
 6867 08fd CE000000 		.4byte	.LVL196
 6868 0901 D8000000 		.4byte	.LFE18
 6869 0905 0600     		.2byte	0x6
 6870 0907 F3       		.byte	0xf3
 6871 0908 03       		.uleb128 0x3
 6872 0909 F5       		.byte	0xf5
 6873 090a 02       		.uleb128 0x2
 6874 090b 25       		.uleb128 0x25
 6875 090c 9F       		.byte	0x9f
 6876 090d 00000000 		.4byte	0
 6877 0911 00000000 		.4byte	0
 6878              	.LLST51:
 6879 0915 00000000 		.4byte	.LVL172
 6880 0919 10000000 		.4byte	.LVL173
 6881 091d 0100     		.2byte	0x1
 6882 091f 53       		.byte	0x53
 6883 0920 10000000 		.4byte	.LVL173
 6884 0924 CE000000 		.4byte	.LVL196
 6885 0928 0100     		.2byte	0x1
 6886 092a 57       		.byte	0x57
 6887 092b CE000000 		.4byte	.LVL196
 6888 092f D8000000 		.4byte	.LFE18
 6889 0933 0600     		.2byte	0x6
 6890 0935 F3       		.byte	0xf3
 6891 0936 03       		.uleb128 0x3
 6892 0937 F5       		.byte	0xf5
ARM GAS  C:\Users\hamis\AppData\Local\Temp\cc1fRzXM.s 			page 136


 6893 0938 03       		.uleb128 0x3
 6894 0939 25       		.uleb128 0x25
 6895 093a 9F       		.byte	0x9f
 6896 093b 00000000 		.4byte	0
 6897 093f 00000000 		.4byte	0
 6898              	.LLST52:
 6899 0943 00000000 		.4byte	.LVL172
 6900 0947 74000000 		.4byte	.LVL184
 6901 094b 0200     		.2byte	0x2
 6902 094d 91       		.byte	0x91
 6903 094e 00       		.sleb128 0
 6904 094f 74000000 		.4byte	.LVL184
 6905 0953 CE000000 		.4byte	.LVL196
 6906 0957 0200     		.2byte	0x2
 6907 0959 91       		.byte	0x91
 6908 095a 00       		.sleb128 0
 6909 095b CE000000 		.4byte	.LVL196
 6910 095f D8000000 		.4byte	.LFE18
 6911 0963 0200     		.2byte	0x2
 6912 0965 7D       		.byte	0x7d
 6913 0966 00       		.sleb128 0
 6914 0967 00000000 		.4byte	0
 6915 096b 00000000 		.4byte	0
 6916              	.LLST53:
 6917 096f 2C000000 		.4byte	.LVL175
 6918 0973 37000000 		.4byte	.LVL176-1
 6919 0977 0100     		.2byte	0x1
 6920 0979 50       		.byte	0x50
 6921 097a 38000000 		.4byte	.LVL176
 6922 097e 3D000000 		.4byte	.LVL177-1
 6923 0982 0100     		.2byte	0x1
 6924 0984 50       		.byte	0x50
 6925 0985 00000000 		.4byte	0
 6926 0989 00000000 		.4byte	0
 6927              	.LLST54:
 6928 098d 88000000 		.4byte	.LVL185
 6929 0991 92000000 		.4byte	.LVL186
 6930 0995 0100     		.2byte	0x1
 6931 0997 50       		.byte	0x50
 6932 0998 92000000 		.4byte	.LVL186
 6933 099c 95000000 		.4byte	.LVL187-1
 6934 09a0 0100     		.2byte	0x1
 6935 09a2 51       		.byte	0x51
 6936 09a3 98000000 		.4byte	.LVL188
 6937 09a7 9C000000 		.4byte	.LVL189
 6938 09ab 0100     		.2byte	0x1
 6939 09ad 50       		.byte	0x50
 6940 09ae 9C000000 		.4byte	.LVL189
 6941 09b2 9F000000 		.4byte	.LVL190-1
 6942 09b6 0100     		.2byte	0x1
 6943 09b8 51       		.byte	0x51
 6944 09b9 00000000 		.4byte	0
 6945 09bd 00000000 		.4byte	0
 6946              	.LLST55:
 6947 09c1 00000000 		.4byte	.LVL197
 6948 09c5 08000000 		.4byte	.LVL199
 6949 09c9 0100     		.2byte	0x1
ARM GAS  C:\Users\hamis\AppData\Local\Temp\cc1fRzXM.s 			page 137


 6950 09cb 50       		.byte	0x50
 6951 09cc 08000000 		.4byte	.LVL199
 6952 09d0 36000000 		.4byte	.LVL201
 6953 09d4 0300     		.2byte	0x3
 6954 09d6 70       		.byte	0x70
 6955 09d7 7C       		.sleb128 -4
 6956 09d8 9F       		.byte	0x9f
 6957 09d9 36000000 		.4byte	.LVL201
 6958 09dd 48000000 		.4byte	.LFE19
 6959 09e1 0100     		.2byte	0x1
 6960 09e3 50       		.byte	0x50
 6961 09e4 00000000 		.4byte	0
 6962 09e8 00000000 		.4byte	0
 6963              	.LLST56:
 6964 09ec 00000000 		.4byte	.LVL197
 6965 09f0 04000000 		.4byte	.LVL198
 6966 09f4 0100     		.2byte	0x1
 6967 09f6 51       		.byte	0x51
 6968 09f7 04000000 		.4byte	.LVL198
 6969 09fb 38000000 		.4byte	.LVL202
 6970 09ff 0100     		.2byte	0x1
 6971 0a01 54       		.byte	0x54
 6972 0a02 38000000 		.4byte	.LVL202
 6973 0a06 3A000000 		.4byte	.LVL203
 6974 0a0a 0100     		.2byte	0x1
 6975 0a0c 51       		.byte	0x51
 6976 0a0d 3A000000 		.4byte	.LVL203
 6977 0a11 40000000 		.4byte	.LVL204
 6978 0a15 0100     		.2byte	0x1
 6979 0a17 54       		.byte	0x54
 6980 0a18 40000000 		.4byte	.LVL204
 6981 0a1c 48000000 		.4byte	.LFE19
 6982 0a20 0300     		.2byte	0x3
 6983 0a22 71       		.byte	0x71
 6984 0a23 7F       		.sleb128 -1
 6985 0a24 9F       		.byte	0x9f
 6986 0a25 00000000 		.4byte	0
 6987 0a29 00000000 		.4byte	0
 6988              	.LLST57:
 6989 0a2d 08000000 		.4byte	.LVL199
 6990 0a31 34000000 		.4byte	.LVL200
 6991 0a35 0100     		.2byte	0x1
 6992 0a37 52       		.byte	0x52
 6993 0a38 00000000 		.4byte	0
 6994 0a3c 00000000 		.4byte	0
 6995              	.LLST58:
 6996 0a40 00000000 		.4byte	.LVL205
 6997 0a44 08000000 		.4byte	.LVL207
 6998 0a48 0100     		.2byte	0x1
 6999 0a4a 50       		.byte	0x50
 7000 0a4b 08000000 		.4byte	.LVL207
 7001 0a4f 20000000 		.4byte	.LVL209
 7002 0a53 0300     		.2byte	0x3
 7003 0a55 70       		.byte	0x70
 7004 0a56 7C       		.sleb128 -4
 7005 0a57 9F       		.byte	0x9f
 7006 0a58 20000000 		.4byte	.LVL209
ARM GAS  C:\Users\hamis\AppData\Local\Temp\cc1fRzXM.s 			page 138


 7007 0a5c 30000000 		.4byte	.LFE20
 7008 0a60 0100     		.2byte	0x1
 7009 0a62 50       		.byte	0x50
 7010 0a63 00000000 		.4byte	0
 7011 0a67 00000000 		.4byte	0
 7012              	.LLST59:
 7013 0a6b 00000000 		.4byte	.LVL205
 7014 0a6f 04000000 		.4byte	.LVL206
 7015 0a73 0100     		.2byte	0x1
 7016 0a75 51       		.byte	0x51
 7017 0a76 04000000 		.4byte	.LVL206
 7018 0a7a 22000000 		.4byte	.LVL210
 7019 0a7e 0100     		.2byte	0x1
 7020 0a80 54       		.byte	0x54
 7021 0a81 22000000 		.4byte	.LVL210
 7022 0a85 24000000 		.4byte	.LVL211
 7023 0a89 0100     		.2byte	0x1
 7024 0a8b 51       		.byte	0x51
 7025 0a8c 24000000 		.4byte	.LVL211
 7026 0a90 2A000000 		.4byte	.LVL212
 7027 0a94 0100     		.2byte	0x1
 7028 0a96 54       		.byte	0x54
 7029 0a97 2A000000 		.4byte	.LVL212
 7030 0a9b 30000000 		.4byte	.LFE20
 7031 0a9f 0300     		.2byte	0x3
 7032 0aa1 71       		.byte	0x71
 7033 0aa2 7F       		.sleb128 -1
 7034 0aa3 9F       		.byte	0x9f
 7035 0aa4 00000000 		.4byte	0
 7036 0aa8 00000000 		.4byte	0
 7037              	.LLST60:
 7038 0aac 08000000 		.4byte	.LVL207
 7039 0ab0 1E000000 		.4byte	.LVL208
 7040 0ab4 0100     		.2byte	0x1
 7041 0ab6 53       		.byte	0x53
 7042 0ab7 00000000 		.4byte	0
 7043 0abb 00000000 		.4byte	0
 7044              	.LLST61:
 7045 0abf 00000000 		.4byte	.LVL213
 7046 0ac3 08000000 		.4byte	.LVL215
 7047 0ac7 0100     		.2byte	0x1
 7048 0ac9 50       		.byte	0x50
 7049 0aca 08000000 		.4byte	.LVL215
 7050 0ace 14000000 		.4byte	.LVL216
 7051 0ad2 0300     		.2byte	0x3
 7052 0ad4 70       		.byte	0x70
 7053 0ad5 7C       		.sleb128 -4
 7054 0ad6 9F       		.byte	0x9f
 7055 0ad7 14000000 		.4byte	.LVL216
 7056 0adb 24000000 		.4byte	.LFE21
 7057 0adf 0100     		.2byte	0x1
 7058 0ae1 50       		.byte	0x50
 7059 0ae2 00000000 		.4byte	0
 7060 0ae6 00000000 		.4byte	0
 7061              	.LLST62:
 7062 0aea 00000000 		.4byte	.LVL213
 7063 0aee 04000000 		.4byte	.LVL214
ARM GAS  C:\Users\hamis\AppData\Local\Temp\cc1fRzXM.s 			page 139


 7064 0af2 0100     		.2byte	0x1
 7065 0af4 51       		.byte	0x51
 7066 0af5 04000000 		.4byte	.LVL214
 7067 0af9 16000000 		.4byte	.LVL217
 7068 0afd 0100     		.2byte	0x1
 7069 0aff 54       		.byte	0x54
 7070 0b00 16000000 		.4byte	.LVL217
 7071 0b04 18000000 		.4byte	.LVL218
 7072 0b08 0100     		.2byte	0x1
 7073 0b0a 51       		.byte	0x51
 7074 0b0b 18000000 		.4byte	.LVL218
 7075 0b0f 1E000000 		.4byte	.LVL219
 7076 0b13 0100     		.2byte	0x1
 7077 0b15 54       		.byte	0x54
 7078 0b16 1E000000 		.4byte	.LVL219
 7079 0b1a 24000000 		.4byte	.LFE21
 7080 0b1e 0300     		.2byte	0x3
 7081 0b20 71       		.byte	0x71
 7082 0b21 7F       		.sleb128 -1
 7083 0b22 9F       		.byte	0x9f
 7084 0b23 00000000 		.4byte	0
 7085 0b27 00000000 		.4byte	0
 7086              	.LLST63:
 7087 0b2b 08000000 		.4byte	.LVL215
 7088 0b2f 16000000 		.4byte	.LVL217
 7089 0b33 0100     		.2byte	0x1
 7090 0b35 53       		.byte	0x53
 7091 0b36 00000000 		.4byte	0
 7092 0b3a 00000000 		.4byte	0
 7093              	.LLST64:
 7094 0b3e 00000000 		.4byte	.LVL220
 7095 0b42 08000000 		.4byte	.LVL222
 7096 0b46 0100     		.2byte	0x1
 7097 0b48 50       		.byte	0x50
 7098 0b49 08000000 		.4byte	.LVL222
 7099 0b4d 14000000 		.4byte	.LVL224
 7100 0b51 0300     		.2byte	0x3
 7101 0b53 70       		.byte	0x70
 7102 0b54 7C       		.sleb128 -4
 7103 0b55 9F       		.byte	0x9f
 7104 0b56 14000000 		.4byte	.LVL224
 7105 0b5a 24000000 		.4byte	.LFE22
 7106 0b5e 0100     		.2byte	0x1
 7107 0b60 50       		.byte	0x50
 7108 0b61 00000000 		.4byte	0
 7109 0b65 00000000 		.4byte	0
 7110              	.LLST65:
 7111 0b69 00000000 		.4byte	.LVL220
 7112 0b6d 04000000 		.4byte	.LVL221
 7113 0b71 0100     		.2byte	0x1
 7114 0b73 51       		.byte	0x51
 7115 0b74 04000000 		.4byte	.LVL221
 7116 0b78 16000000 		.4byte	.LVL225
 7117 0b7c 0100     		.2byte	0x1
 7118 0b7e 54       		.byte	0x54
 7119 0b7f 16000000 		.4byte	.LVL225
 7120 0b83 18000000 		.4byte	.LVL226
ARM GAS  C:\Users\hamis\AppData\Local\Temp\cc1fRzXM.s 			page 140


 7121 0b87 0100     		.2byte	0x1
 7122 0b89 51       		.byte	0x51
 7123 0b8a 18000000 		.4byte	.LVL226
 7124 0b8e 1E000000 		.4byte	.LVL227
 7125 0b92 0100     		.2byte	0x1
 7126 0b94 54       		.byte	0x54
 7127 0b95 1E000000 		.4byte	.LVL227
 7128 0b99 24000000 		.4byte	.LFE22
 7129 0b9d 0300     		.2byte	0x3
 7130 0b9f 71       		.byte	0x71
 7131 0ba0 7F       		.sleb128 -1
 7132 0ba1 9F       		.byte	0x9f
 7133 0ba2 00000000 		.4byte	0
 7134 0ba6 00000000 		.4byte	0
 7135              	.LLST66:
 7136 0baa 0A000000 		.4byte	.LVL223
 7137 0bae 16000000 		.4byte	.LVL225
 7138 0bb2 0100     		.2byte	0x1
 7139 0bb4 53       		.byte	0x53
 7140 0bb5 00000000 		.4byte	0
 7141 0bb9 00000000 		.4byte	0
 7142              	.LLST67:
 7143 0bbd 00000000 		.4byte	.LVL228
 7144 0bc1 3E000000 		.4byte	.LVL232
 7145 0bc5 0100     		.2byte	0x1
 7146 0bc7 50       		.byte	0x50
 7147 0bc8 3E000000 		.4byte	.LVL232
 7148 0bcc 8C000000 		.4byte	.LFE23
 7149 0bd0 0100     		.2byte	0x1
 7150 0bd2 50       		.byte	0x50
 7151 0bd3 00000000 		.4byte	0
 7152 0bd7 00000000 		.4byte	0
 7153              	.LLST68:
 7154 0bdb 00000000 		.4byte	.LVL228
 7155 0bdf 0C000000 		.4byte	.LVL229
 7156 0be3 0100     		.2byte	0x1
 7157 0be5 51       		.byte	0x51
 7158 0be6 0C000000 		.4byte	.LVL229
 7159 0bea 40000000 		.4byte	.LVL233
 7160 0bee 0100     		.2byte	0x1
 7161 0bf0 55       		.byte	0x55
 7162 0bf1 40000000 		.4byte	.LVL233
 7163 0bf5 42000000 		.4byte	.LVL234
 7164 0bf9 0100     		.2byte	0x1
 7165 0bfb 51       		.byte	0x51
 7166 0bfc 42000000 		.4byte	.LVL234
 7167 0c00 48000000 		.4byte	.LVL235
 7168 0c04 0100     		.2byte	0x1
 7169 0c06 55       		.byte	0x55
 7170 0c07 48000000 		.4byte	.LVL235
 7171 0c0b 78000000 		.4byte	.LVL239
 7172 0c0f 0100     		.2byte	0x1
 7173 0c11 56       		.byte	0x56
 7174 0c12 78000000 		.4byte	.LVL239
 7175 0c16 7A000000 		.4byte	.LVL240
 7176 0c1a 0100     		.2byte	0x1
 7177 0c1c 51       		.byte	0x51
ARM GAS  C:\Users\hamis\AppData\Local\Temp\cc1fRzXM.s 			page 141


 7178 0c1d 7A000000 		.4byte	.LVL240
 7179 0c21 7E000000 		.4byte	.LVL241
 7180 0c25 0100     		.2byte	0x1
 7181 0c27 56       		.byte	0x56
 7182 0c28 00000000 		.4byte	0
 7183 0c2c 00000000 		.4byte	0
 7184              	.LLST69:
 7185 0c30 24000000 		.4byte	.LVL230
 7186 0c34 2C000000 		.4byte	.LVL231
 7187 0c38 0100     		.2byte	0x1
 7188 0c3a 51       		.byte	0x51
 7189 0c3b 00000000 		.4byte	0
 7190 0c3f 00000000 		.4byte	0
 7191              	.LLST70:
 7192 0c43 60000000 		.4byte	.LVL236
 7193 0c47 6E000000 		.4byte	.LVL237
 7194 0c4b 0100     		.2byte	0x1
 7195 0c4d 51       		.byte	0x51
 7196 0c4e 00000000 		.4byte	0
 7197 0c52 00000000 		.4byte	0
 7198              	.LLST71:
 7199 0c56 00000000 		.4byte	.LVL242
 7200 0c5a 34000000 		.4byte	.LVL246
 7201 0c5e 0100     		.2byte	0x1
 7202 0c60 50       		.byte	0x50
 7203 0c61 34000000 		.4byte	.LVL246
 7204 0c65 78000000 		.4byte	.LFE24
 7205 0c69 0100     		.2byte	0x1
 7206 0c6b 50       		.byte	0x50
 7207 0c6c 00000000 		.4byte	0
 7208 0c70 00000000 		.4byte	0
 7209              	.LLST72:
 7210 0c74 00000000 		.4byte	.LVL242
 7211 0c78 0C000000 		.4byte	.LVL243
 7212 0c7c 0100     		.2byte	0x1
 7213 0c7e 51       		.byte	0x51
 7214 0c7f 0C000000 		.4byte	.LVL243
 7215 0c83 36000000 		.4byte	.LVL247
 7216 0c87 0100     		.2byte	0x1
 7217 0c89 56       		.byte	0x56
 7218 0c8a 36000000 		.4byte	.LVL247
 7219 0c8e 38000000 		.4byte	.LVL248
 7220 0c92 0100     		.2byte	0x1
 7221 0c94 51       		.byte	0x51
 7222 0c95 38000000 		.4byte	.LVL248
 7223 0c99 64000000 		.4byte	.LVL252
 7224 0c9d 0100     		.2byte	0x1
 7225 0c9f 56       		.byte	0x56
 7226 0ca0 64000000 		.4byte	.LVL252
 7227 0ca4 66000000 		.4byte	.LVL253
 7228 0ca8 0100     		.2byte	0x1
 7229 0caa 51       		.byte	0x51
 7230 0cab 66000000 		.4byte	.LVL253
 7231 0caf 6C000000 		.4byte	.LVL254
 7232 0cb3 0100     		.2byte	0x1
 7233 0cb5 56       		.byte	0x56
 7234 0cb6 00000000 		.4byte	0
ARM GAS  C:\Users\hamis\AppData\Local\Temp\cc1fRzXM.s 			page 142


 7235 0cba 00000000 		.4byte	0
 7236              	.LLST73:
 7237 0cbe 1A000000 		.4byte	.LVL244
 7238 0cc2 22000000 		.4byte	.LVL245
 7239 0cc6 0100     		.2byte	0x1
 7240 0cc8 51       		.byte	0x51
 7241 0cc9 00000000 		.4byte	0
 7242 0ccd 00000000 		.4byte	0
 7243              	.LLST74:
 7244 0cd1 4C000000 		.4byte	.LVL249
 7245 0cd5 5A000000 		.4byte	.LVL250
 7246 0cd9 0100     		.2byte	0x1
 7247 0cdb 51       		.byte	0x51
 7248 0cdc 00000000 		.4byte	0
 7249 0ce0 00000000 		.4byte	0
 7250              	.LLST75:
 7251 0ce4 00000000 		.4byte	.LVL255
 7252 0ce8 2E000000 		.4byte	.LVL258
 7253 0cec 0100     		.2byte	0x1
 7254 0cee 50       		.byte	0x50
 7255 0cef 2E000000 		.4byte	.LVL258
 7256 0cf3 6C000000 		.4byte	.LFE25
 7257 0cf7 0100     		.2byte	0x1
 7258 0cf9 50       		.byte	0x50
 7259 0cfa 00000000 		.4byte	0
 7260 0cfe 00000000 		.4byte	0
 7261              	.LLST76:
 7262 0d02 00000000 		.4byte	.LVL255
 7263 0d06 0C000000 		.4byte	.LVL256
 7264 0d0a 0100     		.2byte	0x1
 7265 0d0c 51       		.byte	0x51
 7266 0d0d 0C000000 		.4byte	.LVL256
 7267 0d11 30000000 		.4byte	.LVL259
 7268 0d15 0100     		.2byte	0x1
 7269 0d17 55       		.byte	0x55
 7270 0d18 30000000 		.4byte	.LVL259
 7271 0d1c 32000000 		.4byte	.LVL260
 7272 0d20 0100     		.2byte	0x1
 7273 0d22 51       		.byte	0x51
 7274 0d23 32000000 		.4byte	.LVL260
 7275 0d27 58000000 		.4byte	.LVL264
 7276 0d2b 0100     		.2byte	0x1
 7277 0d2d 55       		.byte	0x55
 7278 0d2e 58000000 		.4byte	.LVL264
 7279 0d32 5A000000 		.4byte	.LVL265
 7280 0d36 0100     		.2byte	0x1
 7281 0d38 51       		.byte	0x51
 7282 0d39 5A000000 		.4byte	.LVL265
 7283 0d3d 60000000 		.4byte	.LVL266
 7284 0d41 0100     		.2byte	0x1
 7285 0d43 55       		.byte	0x55
 7286 0d44 00000000 		.4byte	0
 7287 0d48 00000000 		.4byte	0
 7288              	.LLST77:
 7289 0d4c 18000000 		.4byte	.LVL257
 7290 0d50 30000000 		.4byte	.LVL259
 7291 0d54 0100     		.2byte	0x1
ARM GAS  C:\Users\hamis\AppData\Local\Temp\cc1fRzXM.s 			page 143


 7292 0d56 54       		.byte	0x54
 7293 0d57 00000000 		.4byte	0
 7294 0d5b 00000000 		.4byte	0
 7295              	.LLST78:
 7296 0d5f 44000000 		.4byte	.LVL261
 7297 0d63 4E000000 		.4byte	.LVL262
 7298 0d67 0100     		.2byte	0x1
 7299 0d69 51       		.byte	0x51
 7300 0d6a 00000000 		.4byte	0
 7301 0d6e 00000000 		.4byte	0
 7302              	.LLST79:
 7303 0d72 00000000 		.4byte	.LVL267
 7304 0d76 2E000000 		.4byte	.LVL270
 7305 0d7a 0100     		.2byte	0x1
 7306 0d7c 50       		.byte	0x50
 7307 0d7d 2E000000 		.4byte	.LVL270
 7308 0d81 6C000000 		.4byte	.LFE26
 7309 0d85 0100     		.2byte	0x1
 7310 0d87 50       		.byte	0x50
 7311 0d88 00000000 		.4byte	0
 7312 0d8c 00000000 		.4byte	0
 7313              	.LLST80:
 7314 0d90 00000000 		.4byte	.LVL267
 7315 0d94 0C000000 		.4byte	.LVL268
 7316 0d98 0100     		.2byte	0x1
 7317 0d9a 51       		.byte	0x51
 7318 0d9b 0C000000 		.4byte	.LVL268
 7319 0d9f 30000000 		.4byte	.LVL271
 7320 0da3 0100     		.2byte	0x1
 7321 0da5 55       		.byte	0x55
 7322 0da6 30000000 		.4byte	.LVL271
 7323 0daa 32000000 		.4byte	.LVL272
 7324 0dae 0100     		.2byte	0x1
 7325 0db0 51       		.byte	0x51
 7326 0db1 32000000 		.4byte	.LVL272
 7327 0db5 58000000 		.4byte	.LVL276
 7328 0db9 0100     		.2byte	0x1
 7329 0dbb 55       		.byte	0x55
 7330 0dbc 58000000 		.4byte	.LVL276
 7331 0dc0 5A000000 		.4byte	.LVL277
 7332 0dc4 0100     		.2byte	0x1
 7333 0dc6 51       		.byte	0x51
 7334 0dc7 5A000000 		.4byte	.LVL277
 7335 0dcb 60000000 		.4byte	.LVL278
 7336 0dcf 0100     		.2byte	0x1
 7337 0dd1 55       		.byte	0x55
 7338 0dd2 00000000 		.4byte	0
 7339 0dd6 00000000 		.4byte	0
 7340              	.LLST81:
 7341 0dda 18000000 		.4byte	.LVL269
 7342 0dde 30000000 		.4byte	.LVL271
 7343 0de2 0100     		.2byte	0x1
 7344 0de4 54       		.byte	0x54
 7345 0de5 00000000 		.4byte	0
 7346 0de9 00000000 		.4byte	0
 7347              	.LLST82:
 7348 0ded 44000000 		.4byte	.LVL273
ARM GAS  C:\Users\hamis\AppData\Local\Temp\cc1fRzXM.s 			page 144


 7349 0df1 4E000000 		.4byte	.LVL274
 7350 0df5 0100     		.2byte	0x1
 7351 0df7 51       		.byte	0x51
 7352 0df8 00000000 		.4byte	0
 7353 0dfc 00000000 		.4byte	0
 7354              	.LLST83:
 7355 0e00 00000000 		.4byte	.LVL279
 7356 0e04 08000000 		.4byte	.LVL281
 7357 0e08 0100     		.2byte	0x1
 7358 0e0a 50       		.byte	0x50
 7359 0e0b 08000000 		.4byte	.LVL281
 7360 0e0f 20000000 		.4byte	.LVL283
 7361 0e13 0300     		.2byte	0x3
 7362 0e15 70       		.byte	0x70
 7363 0e16 7E       		.sleb128 -2
 7364 0e17 9F       		.byte	0x9f
 7365 0e18 20000000 		.4byte	.LVL283
 7366 0e1c 30000000 		.4byte	.LFE27
 7367 0e20 0100     		.2byte	0x1
 7368 0e22 50       		.byte	0x50
 7369 0e23 00000000 		.4byte	0
 7370 0e27 00000000 		.4byte	0
 7371              	.LLST84:
 7372 0e2b 00000000 		.4byte	.LVL279
 7373 0e2f 04000000 		.4byte	.LVL280
 7374 0e33 0100     		.2byte	0x1
 7375 0e35 51       		.byte	0x51
 7376 0e36 04000000 		.4byte	.LVL280
 7377 0e3a 22000000 		.4byte	.LVL284
 7378 0e3e 0100     		.2byte	0x1
 7379 0e40 54       		.byte	0x54
 7380 0e41 22000000 		.4byte	.LVL284
 7381 0e45 24000000 		.4byte	.LVL285
 7382 0e49 0100     		.2byte	0x1
 7383 0e4b 51       		.byte	0x51
 7384 0e4c 24000000 		.4byte	.LVL285
 7385 0e50 2A000000 		.4byte	.LVL286
 7386 0e54 0100     		.2byte	0x1
 7387 0e56 54       		.byte	0x54
 7388 0e57 2A000000 		.4byte	.LVL286
 7389 0e5b 30000000 		.4byte	.LFE27
 7390 0e5f 0300     		.2byte	0x3
 7391 0e61 71       		.byte	0x71
 7392 0e62 7F       		.sleb128 -1
 7393 0e63 9F       		.byte	0x9f
 7394 0e64 00000000 		.4byte	0
 7395 0e68 00000000 		.4byte	0
 7396              	.LLST85:
 7397 0e6c 08000000 		.4byte	.LVL281
 7398 0e70 1E000000 		.4byte	.LVL282
 7399 0e74 0100     		.2byte	0x1
 7400 0e76 53       		.byte	0x53
 7401 0e77 00000000 		.4byte	0
 7402 0e7b 00000000 		.4byte	0
 7403              	.LLST86:
 7404 0e7f 00000000 		.4byte	.LVL287
 7405 0e83 08000000 		.4byte	.LVL289
ARM GAS  C:\Users\hamis\AppData\Local\Temp\cc1fRzXM.s 			page 145


 7406 0e87 0100     		.2byte	0x1
 7407 0e89 50       		.byte	0x50
 7408 0e8a 08000000 		.4byte	.LVL289
 7409 0e8e 14000000 		.4byte	.LVL290
 7410 0e92 0300     		.2byte	0x3
 7411 0e94 70       		.byte	0x70
 7412 0e95 7E       		.sleb128 -2
 7413 0e96 9F       		.byte	0x9f
 7414 0e97 14000000 		.4byte	.LVL290
 7415 0e9b 24000000 		.4byte	.LFE28
 7416 0e9f 0100     		.2byte	0x1
 7417 0ea1 50       		.byte	0x50
 7418 0ea2 00000000 		.4byte	0
 7419 0ea6 00000000 		.4byte	0
 7420              	.LLST87:
 7421 0eaa 00000000 		.4byte	.LVL287
 7422 0eae 04000000 		.4byte	.LVL288
 7423 0eb2 0100     		.2byte	0x1
 7424 0eb4 51       		.byte	0x51
 7425 0eb5 04000000 		.4byte	.LVL288
 7426 0eb9 16000000 		.4byte	.LVL291
 7427 0ebd 0100     		.2byte	0x1
 7428 0ebf 54       		.byte	0x54
 7429 0ec0 16000000 		.4byte	.LVL291
 7430 0ec4 18000000 		.4byte	.LVL292
 7431 0ec8 0100     		.2byte	0x1
 7432 0eca 51       		.byte	0x51
 7433 0ecb 18000000 		.4byte	.LVL292
 7434 0ecf 1E000000 		.4byte	.LVL293
 7435 0ed3 0100     		.2byte	0x1
 7436 0ed5 54       		.byte	0x54
 7437 0ed6 1E000000 		.4byte	.LVL293
 7438 0eda 24000000 		.4byte	.LFE28
 7439 0ede 0300     		.2byte	0x3
 7440 0ee0 71       		.byte	0x71
 7441 0ee1 7F       		.sleb128 -1
 7442 0ee2 9F       		.byte	0x9f
 7443 0ee3 00000000 		.4byte	0
 7444 0ee7 00000000 		.4byte	0
 7445              	.LLST88:
 7446 0eeb 08000000 		.4byte	.LVL289
 7447 0eef 16000000 		.4byte	.LVL291
 7448 0ef3 0100     		.2byte	0x1
 7449 0ef5 53       		.byte	0x53
 7450 0ef6 00000000 		.4byte	0
 7451 0efa 00000000 		.4byte	0
 7452              	.LLST89:
 7453 0efe 00000000 		.4byte	.LVL294
 7454 0f02 08000000 		.4byte	.LVL296
 7455 0f06 0100     		.2byte	0x1
 7456 0f08 50       		.byte	0x50
 7457 0f09 08000000 		.4byte	.LVL296
 7458 0f0d 14000000 		.4byte	.LVL298
 7459 0f11 0300     		.2byte	0x3
 7460 0f13 70       		.byte	0x70
 7461 0f14 7E       		.sleb128 -2
 7462 0f15 9F       		.byte	0x9f
ARM GAS  C:\Users\hamis\AppData\Local\Temp\cc1fRzXM.s 			page 146


 7463 0f16 14000000 		.4byte	.LVL298
 7464 0f1a 24000000 		.4byte	.LFE29
 7465 0f1e 0100     		.2byte	0x1
 7466 0f20 50       		.byte	0x50
 7467 0f21 00000000 		.4byte	0
 7468 0f25 00000000 		.4byte	0
 7469              	.LLST90:
 7470 0f29 00000000 		.4byte	.LVL294
 7471 0f2d 04000000 		.4byte	.LVL295
 7472 0f31 0100     		.2byte	0x1
 7473 0f33 51       		.byte	0x51
 7474 0f34 04000000 		.4byte	.LVL295
 7475 0f38 16000000 		.4byte	.LVL299
 7476 0f3c 0100     		.2byte	0x1
 7477 0f3e 54       		.byte	0x54
 7478 0f3f 16000000 		.4byte	.LVL299
 7479 0f43 18000000 		.4byte	.LVL300
 7480 0f47 0100     		.2byte	0x1
 7481 0f49 51       		.byte	0x51
 7482 0f4a 18000000 		.4byte	.LVL300
 7483 0f4e 1E000000 		.4byte	.LVL301
 7484 0f52 0100     		.2byte	0x1
 7485 0f54 54       		.byte	0x54
 7486 0f55 1E000000 		.4byte	.LVL301
 7487 0f59 24000000 		.4byte	.LFE29
 7488 0f5d 0300     		.2byte	0x3
 7489 0f5f 71       		.byte	0x71
 7490 0f60 7F       		.sleb128 -1
 7491 0f61 9F       		.byte	0x9f
 7492 0f62 00000000 		.4byte	0
 7493 0f66 00000000 		.4byte	0
 7494              	.LLST91:
 7495 0f6a 0A000000 		.4byte	.LVL297
 7496 0f6e 16000000 		.4byte	.LVL299
 7497 0f72 0100     		.2byte	0x1
 7498 0f74 53       		.byte	0x53
 7499 0f75 00000000 		.4byte	0
 7500 0f79 00000000 		.4byte	0
 7501              	.LLST92:
 7502 0f7d 00000000 		.4byte	.LVL302
 7503 0f81 12000000 		.4byte	.LVL304
 7504 0f85 0100     		.2byte	0x1
 7505 0f87 50       		.byte	0x50
 7506 0f88 12000000 		.4byte	.LVL304
 7507 0f8c B4000000 		.4byte	.LVL326
 7508 0f90 0100     		.2byte	0x1
 7509 0f92 54       		.byte	0x54
 7510 0f93 00000000 		.4byte	0
 7511 0f97 00000000 		.4byte	0
 7512              	.LLST93:
 7513 0f9b 00000000 		.4byte	.LVL302
 7514 0f9f 12000000 		.4byte	.LVL304
 7515 0fa3 0100     		.2byte	0x1
 7516 0fa5 51       		.byte	0x51
 7517 0fa6 12000000 		.4byte	.LVL304
 7518 0faa 5C000000 		.4byte	.LVL313
 7519 0fae 0100     		.2byte	0x1
ARM GAS  C:\Users\hamis\AppData\Local\Temp\cc1fRzXM.s 			page 147


 7520 0fb0 57       		.byte	0x57
 7521 0fb1 5C000000 		.4byte	.LVL313
 7522 0fb5 5E000000 		.4byte	.LVL314
 7523 0fb9 0100     		.2byte	0x1
 7524 0fbb 51       		.byte	0x51
 7525 0fbc 5E000000 		.4byte	.LVL314
 7526 0fc0 AC000000 		.4byte	.LVL324
 7527 0fc4 0100     		.2byte	0x1
 7528 0fc6 57       		.byte	0x57
 7529 0fc7 AC000000 		.4byte	.LVL324
 7530 0fcb AE000000 		.4byte	.LVL325
 7531 0fcf 0100     		.2byte	0x1
 7532 0fd1 51       		.byte	0x51
 7533 0fd2 AE000000 		.4byte	.LVL325
 7534 0fd6 B4000000 		.4byte	.LVL326
 7535 0fda 0100     		.2byte	0x1
 7536 0fdc 57       		.byte	0x57
 7537 0fdd B4000000 		.4byte	.LVL326
 7538 0fe1 BC000000 		.4byte	.LFE30
 7539 0fe5 0300     		.2byte	0x3
 7540 0fe7 71       		.byte	0x71
 7541 0fe8 7F       		.sleb128 -1
 7542 0fe9 9F       		.byte	0x9f
 7543 0fea 00000000 		.4byte	0
 7544 0fee 00000000 		.4byte	0
 7545              	.LLST94:
 7546 0ff2 00000000 		.4byte	.LVL302
 7547 0ff6 12000000 		.4byte	.LVL304
 7548 0ffa 0100     		.2byte	0x1
 7549 0ffc 52       		.byte	0x52
 7550 0ffd 12000000 		.4byte	.LVL304
 7551 1001 B4000000 		.4byte	.LVL326
 7552 1005 0100     		.2byte	0x1
 7553 1007 55       		.byte	0x55
 7554 1008 B4000000 		.4byte	.LVL326
 7555 100c BC000000 		.4byte	.LFE30
 7556 1010 0600     		.2byte	0x6
 7557 1012 F3       		.byte	0xf3
 7558 1013 03       		.uleb128 0x3
 7559 1014 F5       		.byte	0xf5
 7560 1015 02       		.uleb128 0x2
 7561 1016 25       		.uleb128 0x25
 7562 1017 9F       		.byte	0x9f
 7563 1018 00000000 		.4byte	0
 7564 101c 00000000 		.4byte	0
 7565              	.LLST95:
 7566 1020 00000000 		.4byte	.LVL302
 7567 1024 0A000000 		.4byte	.LVL303
 7568 1028 0100     		.2byte	0x1
 7569 102a 53       		.byte	0x53
 7570 102b 0A000000 		.4byte	.LVL303
 7571 102f B4000000 		.4byte	.LVL326
 7572 1033 0100     		.2byte	0x1
 7573 1035 56       		.byte	0x56
 7574 1036 B4000000 		.4byte	.LVL326
 7575 103a BC000000 		.4byte	.LFE30
 7576 103e 0600     		.2byte	0x6
ARM GAS  C:\Users\hamis\AppData\Local\Temp\cc1fRzXM.s 			page 148


 7577 1040 F3       		.byte	0xf3
 7578 1041 03       		.uleb128 0x3
 7579 1042 F5       		.byte	0xf5
 7580 1043 03       		.uleb128 0x3
 7581 1044 25       		.uleb128 0x25
 7582 1045 9F       		.byte	0x9f
 7583 1046 00000000 		.4byte	0
 7584 104a 00000000 		.4byte	0
 7585              	.LLST96:
 7586 104e 20000000 		.4byte	.LVL305
 7587 1052 2F000000 		.4byte	.LVL306-1
 7588 1056 0100     		.2byte	0x1
 7589 1058 53       		.byte	0x53
 7590 1059 00000000 		.4byte	0
 7591 105d 00000000 		.4byte	0
 7592              	.LLST97:
 7593 1061 72000000 		.4byte	.LVL316
 7594 1065 7B000000 		.4byte	.LVL317-1
 7595 1069 0100     		.2byte	0x1
 7596 106b 50       		.byte	0x50
 7597 106c 00000000 		.4byte	0
 7598 1070 00000000 		.4byte	0
 7599              	.LLST98:
 7600 1074 00000000 		.4byte	.LVL327
 7601 1078 12000000 		.4byte	.LVL329
 7602 107c 0100     		.2byte	0x1
 7603 107e 50       		.byte	0x50
 7604 107f 12000000 		.4byte	.LVL329
 7605 1083 AA000000 		.4byte	.LVL352
 7606 1087 0100     		.2byte	0x1
 7607 1089 54       		.byte	0x54
 7608 108a 00000000 		.4byte	0
 7609 108e 00000000 		.4byte	0
 7610              	.LLST99:
 7611 1092 00000000 		.4byte	.LVL327
 7612 1096 12000000 		.4byte	.LVL329
 7613 109a 0100     		.2byte	0x1
 7614 109c 51       		.byte	0x51
 7615 109d 12000000 		.4byte	.LVL329
 7616 10a1 56000000 		.4byte	.LVL339
 7617 10a5 0100     		.2byte	0x1
 7618 10a7 57       		.byte	0x57
 7619 10a8 56000000 		.4byte	.LVL339
 7620 10ac 58000000 		.4byte	.LVL340
 7621 10b0 0100     		.2byte	0x1
 7622 10b2 51       		.byte	0x51
 7623 10b3 58000000 		.4byte	.LVL340
 7624 10b7 A2000000 		.4byte	.LVL350
 7625 10bb 0100     		.2byte	0x1
 7626 10bd 57       		.byte	0x57
 7627 10be A2000000 		.4byte	.LVL350
 7628 10c2 A4000000 		.4byte	.LVL351
 7629 10c6 0100     		.2byte	0x1
 7630 10c8 51       		.byte	0x51
 7631 10c9 A4000000 		.4byte	.LVL351
 7632 10cd AA000000 		.4byte	.LVL352
 7633 10d1 0100     		.2byte	0x1
ARM GAS  C:\Users\hamis\AppData\Local\Temp\cc1fRzXM.s 			page 149


 7634 10d3 57       		.byte	0x57
 7635 10d4 AA000000 		.4byte	.LVL352
 7636 10d8 B4000000 		.4byte	.LFE31
 7637 10dc 0300     		.2byte	0x3
 7638 10de 71       		.byte	0x71
 7639 10df 7F       		.sleb128 -1
 7640 10e0 9F       		.byte	0x9f
 7641 10e1 00000000 		.4byte	0
 7642 10e5 00000000 		.4byte	0
 7643              	.LLST100:
 7644 10e9 00000000 		.4byte	.LVL327
 7645 10ed 12000000 		.4byte	.LVL329
 7646 10f1 0100     		.2byte	0x1
 7647 10f3 52       		.byte	0x52
 7648 10f4 12000000 		.4byte	.LVL329
 7649 10f8 AA000000 		.4byte	.LVL352
 7650 10fc 0100     		.2byte	0x1
 7651 10fe 55       		.byte	0x55
 7652 10ff AA000000 		.4byte	.LVL352
 7653 1103 B4000000 		.4byte	.LFE31
 7654 1107 0600     		.2byte	0x6
 7655 1109 F3       		.byte	0xf3
 7656 110a 03       		.uleb128 0x3
 7657 110b F5       		.byte	0xf5
 7658 110c 02       		.uleb128 0x2
 7659 110d 25       		.uleb128 0x25
 7660 110e 9F       		.byte	0x9f
 7661 110f 00000000 		.4byte	0
 7662 1113 00000000 		.4byte	0
 7663              	.LLST101:
 7664 1117 00000000 		.4byte	.LVL327
 7665 111b 0A000000 		.4byte	.LVL328
 7666 111f 0100     		.2byte	0x1
 7667 1121 53       		.byte	0x53
 7668 1122 0A000000 		.4byte	.LVL328
 7669 1126 AA000000 		.4byte	.LVL352
 7670 112a 0100     		.2byte	0x1
 7671 112c 56       		.byte	0x56
 7672 112d AA000000 		.4byte	.LVL352
 7673 1131 B4000000 		.4byte	.LFE31
 7674 1135 0600     		.2byte	0x6
 7675 1137 F3       		.byte	0xf3
 7676 1138 03       		.uleb128 0x3
 7677 1139 F5       		.byte	0xf5
 7678 113a 03       		.uleb128 0x3
 7679 113b 25       		.uleb128 0x25
 7680 113c 9F       		.byte	0x9f
 7681 113d 00000000 		.4byte	0
 7682 1141 00000000 		.4byte	0
 7683              	.LLST102:
 7684 1145 1E000000 		.4byte	.LVL330
 7685 1149 22000000 		.4byte	.LVL331
 7686 114d 0700     		.2byte	0x7
 7687 114f 70       		.byte	0x70
 7688 1150 00       		.sleb128 0
 7689 1151 48       		.byte	0x48
 7690 1152 24       		.byte	0x24
ARM GAS  C:\Users\hamis\AppData\Local\Temp\cc1fRzXM.s 			page 150


 7691 1153 48       		.byte	0x48
 7692 1154 26       		.byte	0x26
 7693 1155 9F       		.byte	0x9f
 7694 1156 00000000 		.4byte	0
 7695 115a 00000000 		.4byte	0
 7696              	.LLST103:
 7697 115e 6C000000 		.4byte	.LVL342
 7698 1162 71000000 		.4byte	.LVL343-1
 7699 1166 0100     		.2byte	0x1
 7700 1168 50       		.byte	0x50
 7701 1169 00000000 		.4byte	0
 7702 116d 00000000 		.4byte	0
 7703              	.LLST104:
 7704 1171 00000000 		.4byte	.LVL353
 7705 1175 32000000 		.4byte	.LVL356
 7706 1179 0100     		.2byte	0x1
 7707 117b 50       		.byte	0x50
 7708 117c 32000000 		.4byte	.LVL356
 7709 1180 70000000 		.4byte	.LFE32
 7710 1184 0100     		.2byte	0x1
 7711 1186 50       		.byte	0x50
 7712 1187 00000000 		.4byte	0
 7713 118b 00000000 		.4byte	0
 7714              	.LLST105:
 7715 118f 00000000 		.4byte	.LVL353
 7716 1193 0C000000 		.4byte	.LVL354
 7717 1197 0100     		.2byte	0x1
 7718 1199 51       		.byte	0x51
 7719 119a 0C000000 		.4byte	.LVL354
 7720 119e 34000000 		.4byte	.LVL357
 7721 11a2 0100     		.2byte	0x1
 7722 11a4 55       		.byte	0x55
 7723 11a5 34000000 		.4byte	.LVL357
 7724 11a9 36000000 		.4byte	.LVL358
 7725 11ad 0100     		.2byte	0x1
 7726 11af 51       		.byte	0x51
 7727 11b0 36000000 		.4byte	.LVL358
 7728 11b4 5C000000 		.4byte	.LVL362
 7729 11b8 0100     		.2byte	0x1
 7730 11ba 55       		.byte	0x55
 7731 11bb 5C000000 		.4byte	.LVL362
 7732 11bf 5E000000 		.4byte	.LVL363
 7733 11c3 0100     		.2byte	0x1
 7734 11c5 51       		.byte	0x51
 7735 11c6 5E000000 		.4byte	.LVL363
 7736 11ca 64000000 		.4byte	.LVL364
 7737 11ce 0100     		.2byte	0x1
 7738 11d0 55       		.byte	0x55
 7739 11d1 00000000 		.4byte	0
 7740 11d5 00000000 		.4byte	0
 7741              	.LLST106:
 7742 11d9 18000000 		.4byte	.LVL355
 7743 11dd 34000000 		.4byte	.LVL357
 7744 11e1 0700     		.2byte	0x7
 7745 11e3 74       		.byte	0x74
 7746 11e4 00       		.sleb128 0
 7747 11e5 48       		.byte	0x48
ARM GAS  C:\Users\hamis\AppData\Local\Temp\cc1fRzXM.s 			page 151


 7748 11e6 24       		.byte	0x24
 7749 11e7 48       		.byte	0x48
 7750 11e8 26       		.byte	0x26
 7751 11e9 9F       		.byte	0x9f
 7752 11ea 00000000 		.4byte	0
 7753 11ee 00000000 		.4byte	0
 7754              	.LLST107:
 7755 11f2 46000000 		.4byte	.LVL359
 7756 11f6 52000000 		.4byte	.LVL360
 7757 11fa 0100     		.2byte	0x1
 7758 11fc 51       		.byte	0x51
 7759 11fd 00000000 		.4byte	0
 7760 1201 00000000 		.4byte	0
 7761              	.LLST108:
 7762 1205 00000000 		.4byte	.LVL365
 7763 1209 10000000 		.4byte	.LVL367
 7764 120d 0100     		.2byte	0x1
 7765 120f 50       		.byte	0x50
 7766 1210 10000000 		.4byte	.LVL367
 7767 1214 12000000 		.4byte	.LVL368
 7768 1218 0300     		.2byte	0x3
 7769 121a 70       		.byte	0x70
 7770 121b 7F       		.sleb128 -1
 7771 121c 9F       		.byte	0x9f
 7772 121d 12000000 		.4byte	.LVL368
 7773 1221 24000000 		.4byte	.LFE33
 7774 1225 0100     		.2byte	0x1
 7775 1227 50       		.byte	0x50
 7776 1228 00000000 		.4byte	0
 7777 122c 00000000 		.4byte	0
 7778              	.LLST109:
 7779 1230 00000000 		.4byte	.LVL365
 7780 1234 04000000 		.4byte	.LVL366
 7781 1238 0100     		.2byte	0x1
 7782 123a 51       		.byte	0x51
 7783 123b 04000000 		.4byte	.LVL366
 7784 123f 14000000 		.4byte	.LVL369
 7785 1243 0100     		.2byte	0x1
 7786 1245 54       		.byte	0x54
 7787 1246 14000000 		.4byte	.LVL369
 7788 124a 16000000 		.4byte	.LVL370
 7789 124e 0100     		.2byte	0x1
 7790 1250 51       		.byte	0x51
 7791 1251 16000000 		.4byte	.LVL370
 7792 1255 1C000000 		.4byte	.LVL371
 7793 1259 0100     		.2byte	0x1
 7794 125b 54       		.byte	0x54
 7795 125c 1C000000 		.4byte	.LVL371
 7796 1260 24000000 		.4byte	.LFE33
 7797 1264 0300     		.2byte	0x3
 7798 1266 71       		.byte	0x71
 7799 1267 7F       		.sleb128 -1
 7800 1268 9F       		.byte	0x9f
 7801 1269 00000000 		.4byte	0
 7802 126d 00000000 		.4byte	0
 7803              	.LLST110:
 7804 1271 00000000 		.4byte	.LVL372
ARM GAS  C:\Users\hamis\AppData\Local\Temp\cc1fRzXM.s 			page 152


 7805 1275 32000000 		.4byte	.LVL380
 7806 1279 0100     		.2byte	0x1
 7807 127b 50       		.byte	0x50
 7808 127c 32000000 		.4byte	.LVL380
 7809 1280 70000000 		.4byte	.LFE34
 7810 1284 0100     		.2byte	0x1
 7811 1286 50       		.byte	0x50
 7812 1287 00000000 		.4byte	0
 7813 128b 00000000 		.4byte	0
 7814              	.LLST111:
 7815 128f 00000000 		.4byte	.LVL372
 7816 1293 0C000000 		.4byte	.LVL373
 7817 1297 0100     		.2byte	0x1
 7818 1299 51       		.byte	0x51
 7819 129a 0C000000 		.4byte	.LVL373
 7820 129e 34000000 		.4byte	.LVL381
 7821 12a2 0100     		.2byte	0x1
 7822 12a4 55       		.byte	0x55
 7823 12a5 34000000 		.4byte	.LVL381
 7824 12a9 36000000 		.4byte	.LVL382
 7825 12ad 0100     		.2byte	0x1
 7826 12af 51       		.byte	0x51
 7827 12b0 36000000 		.4byte	.LVL382
 7828 12b4 5E000000 		.4byte	.LVL386
 7829 12b8 0100     		.2byte	0x1
 7830 12ba 55       		.byte	0x55
 7831 12bb 5E000000 		.4byte	.LVL386
 7832 12bf 60000000 		.4byte	.LVL387
 7833 12c3 0100     		.2byte	0x1
 7834 12c5 51       		.byte	0x51
 7835 12c6 60000000 		.4byte	.LVL387
 7836 12ca 66000000 		.4byte	.LVL388
 7837 12ce 0100     		.2byte	0x1
 7838 12d0 55       		.byte	0x55
 7839 12d1 00000000 		.4byte	0
 7840 12d5 00000000 		.4byte	0
 7841              	.LLST112:
 7842 12d9 18000000 		.4byte	.LVL374
 7843 12dd 20000000 		.4byte	.LVL377
 7844 12e1 0100     		.2byte	0x1
 7845 12e3 54       		.byte	0x54
 7846 12e4 00000000 		.4byte	0
 7847 12e8 00000000 		.4byte	0
 7848              	.LLST113:
 7849 12ec 1C000000 		.4byte	.LVL375
 7850 12f0 26000000 		.4byte	.LVL378
 7851 12f4 0100     		.2byte	0x1
 7852 12f6 51       		.byte	0x51
 7853 12f7 26000000 		.4byte	.LVL378
 7854 12fb 2E000000 		.4byte	.LVL379
 7855 12ff 0100     		.2byte	0x1
 7856 1301 54       		.byte	0x54
 7857 1302 2E000000 		.4byte	.LVL379
 7858 1306 34000000 		.4byte	.LVL381
 7859 130a 0100     		.2byte	0x1
 7860 130c 51       		.byte	0x51
 7861 130d 00000000 		.4byte	0
ARM GAS  C:\Users\hamis\AppData\Local\Temp\cc1fRzXM.s 			page 153


 7862 1311 00000000 		.4byte	0
 7863              	.LLST114:
 7864 1315 48000000 		.4byte	.LVL383
 7865 1319 54000000 		.4byte	.LVL384
 7866 131d 0100     		.2byte	0x1
 7867 131f 51       		.byte	0x51
 7868 1320 00000000 		.4byte	0
 7869 1324 00000000 		.4byte	0
 7870              	.LLST115:
 7871 1328 00000000 		.4byte	.LVL389
 7872 132c 10000000 		.4byte	.LVL391
 7873 1330 0100     		.2byte	0x1
 7874 1332 50       		.byte	0x50
 7875 1333 10000000 		.4byte	.LVL391
 7876 1337 12000000 		.4byte	.LVL392
 7877 133b 0300     		.2byte	0x3
 7878 133d 70       		.byte	0x70
 7879 133e 7F       		.sleb128 -1
 7880 133f 9F       		.byte	0x9f
 7881 1340 12000000 		.4byte	.LVL392
 7882 1344 24000000 		.4byte	.LFE35
 7883 1348 0100     		.2byte	0x1
 7884 134a 50       		.byte	0x50
 7885 134b 00000000 		.4byte	0
 7886 134f 00000000 		.4byte	0
 7887              	.LLST116:
 7888 1353 00000000 		.4byte	.LVL389
 7889 1357 04000000 		.4byte	.LVL390
 7890 135b 0100     		.2byte	0x1
 7891 135d 51       		.byte	0x51
 7892 135e 04000000 		.4byte	.LVL390
 7893 1362 14000000 		.4byte	.LVL393
 7894 1366 0100     		.2byte	0x1
 7895 1368 54       		.byte	0x54
 7896 1369 14000000 		.4byte	.LVL393
 7897 136d 16000000 		.4byte	.LVL394
 7898 1371 0100     		.2byte	0x1
 7899 1373 51       		.byte	0x51
 7900 1374 16000000 		.4byte	.LVL394
 7901 1378 1C000000 		.4byte	.LVL395
 7902 137c 0100     		.2byte	0x1
 7903 137e 54       		.byte	0x54
 7904 137f 1C000000 		.4byte	.LVL395
 7905 1383 24000000 		.4byte	.LFE35
 7906 1387 0300     		.2byte	0x3
 7907 1389 71       		.byte	0x71
 7908 138a 7F       		.sleb128 -1
 7909 138b 9F       		.byte	0x9f
 7910 138c 00000000 		.4byte	0
 7911 1390 00000000 		.4byte	0
 7912              	.LLST117:
 7913 1394 00000000 		.4byte	.LVL396
 7914 1398 30000000 		.4byte	.LVL404
 7915 139c 0100     		.2byte	0x1
 7916 139e 50       		.byte	0x50
 7917 139f 30000000 		.4byte	.LVL404
 7918 13a3 6C000000 		.4byte	.LFE36
ARM GAS  C:\Users\hamis\AppData\Local\Temp\cc1fRzXM.s 			page 154


 7919 13a7 0100     		.2byte	0x1
 7920 13a9 50       		.byte	0x50
 7921 13aa 00000000 		.4byte	0
 7922 13ae 00000000 		.4byte	0
 7923              	.LLST118:
 7924 13b2 00000000 		.4byte	.LVL396
 7925 13b6 0C000000 		.4byte	.LVL397
 7926 13ba 0100     		.2byte	0x1
 7927 13bc 51       		.byte	0x51
 7928 13bd 0C000000 		.4byte	.LVL397
 7929 13c1 32000000 		.4byte	.LVL405
 7930 13c5 0100     		.2byte	0x1
 7931 13c7 55       		.byte	0x55
 7932 13c8 32000000 		.4byte	.LVL405
 7933 13cc 34000000 		.4byte	.LVL406
 7934 13d0 0100     		.2byte	0x1
 7935 13d2 51       		.byte	0x51
 7936 13d3 34000000 		.4byte	.LVL406
 7937 13d7 5A000000 		.4byte	.LVL410
 7938 13db 0100     		.2byte	0x1
 7939 13dd 55       		.byte	0x55
 7940 13de 5A000000 		.4byte	.LVL410
 7941 13e2 5C000000 		.4byte	.LVL411
 7942 13e6 0100     		.2byte	0x1
 7943 13e8 51       		.byte	0x51
 7944 13e9 5C000000 		.4byte	.LVL411
 7945 13ed 62000000 		.4byte	.LVL412
 7946 13f1 0100     		.2byte	0x1
 7947 13f3 55       		.byte	0x55
 7948 13f4 00000000 		.4byte	0
 7949 13f8 00000000 		.4byte	0
 7950              	.LLST119:
 7951 13fc 18000000 		.4byte	.LVL398
 7952 1400 1E000000 		.4byte	.LVL401
 7953 1404 0100     		.2byte	0x1
 7954 1406 54       		.byte	0x54
 7955 1407 00000000 		.4byte	0
 7956 140b 00000000 		.4byte	0
 7957              	.LLST120:
 7958 140f 1A000000 		.4byte	.LVL399
 7959 1413 24000000 		.4byte	.LVL402
 7960 1417 0100     		.2byte	0x1
 7961 1419 51       		.byte	0x51
 7962 141a 24000000 		.4byte	.LVL402
 7963 141e 2C000000 		.4byte	.LVL403
 7964 1422 0100     		.2byte	0x1
 7965 1424 54       		.byte	0x54
 7966 1425 2C000000 		.4byte	.LVL403
 7967 1429 32000000 		.4byte	.LVL405
 7968 142d 0100     		.2byte	0x1
 7969 142f 51       		.byte	0x51
 7970 1430 00000000 		.4byte	0
 7971 1434 00000000 		.4byte	0
 7972              	.LLST121:
 7973 1438 46000000 		.4byte	.LVL407
 7974 143c 50000000 		.4byte	.LVL408
 7975 1440 0100     		.2byte	0x1
ARM GAS  C:\Users\hamis\AppData\Local\Temp\cc1fRzXM.s 			page 155


 7976 1442 51       		.byte	0x51
 7977 1443 00000000 		.4byte	0
 7978 1447 00000000 		.4byte	0
 7979              	.LLST122:
 7980 144b 00000000 		.4byte	.LVL413
 7981 144f 1C000000 		.4byte	.LVL415
 7982 1453 0100     		.2byte	0x1
 7983 1455 50       		.byte	0x50
 7984 1456 1C000000 		.4byte	.LVL415
 7985 145a 20000000 		.4byte	.LVL416
 7986 145e 0300     		.2byte	0x3
 7987 1460 70       		.byte	0x70
 7988 1461 7E       		.sleb128 -2
 7989 1462 9F       		.byte	0x9f
 7990 1463 20000000 		.4byte	.LVL416
 7991 1467 30000000 		.4byte	.LFE37
 7992 146b 0100     		.2byte	0x1
 7993 146d 50       		.byte	0x50
 7994 146e 00000000 		.4byte	0
 7995 1472 00000000 		.4byte	0
 7996              	.LLST123:
 7997 1476 00000000 		.4byte	.LVL413
 7998 147a 04000000 		.4byte	.LVL414
 7999 147e 0100     		.2byte	0x1
 8000 1480 51       		.byte	0x51
 8001 1481 04000000 		.4byte	.LVL414
 8002 1485 22000000 		.4byte	.LVL417
 8003 1489 0100     		.2byte	0x1
 8004 148b 54       		.byte	0x54
 8005 148c 22000000 		.4byte	.LVL417
 8006 1490 24000000 		.4byte	.LVL418
 8007 1494 0100     		.2byte	0x1
 8008 1496 51       		.byte	0x51
 8009 1497 24000000 		.4byte	.LVL418
 8010 149b 2A000000 		.4byte	.LVL419
 8011 149f 0100     		.2byte	0x1
 8012 14a1 54       		.byte	0x54
 8013 14a2 2A000000 		.4byte	.LVL419
 8014 14a6 30000000 		.4byte	.LFE37
 8015 14aa 0300     		.2byte	0x3
 8016 14ac 71       		.byte	0x71
 8017 14ad 7F       		.sleb128 -1
 8018 14ae 9F       		.byte	0x9f
 8019 14af 00000000 		.4byte	0
 8020 14b3 00000000 		.4byte	0
 8021              	.LLST124:
 8022 14b7 00000000 		.4byte	.LVL420
 8023 14bb 34000000 		.4byte	.LVL423
 8024 14bf 0100     		.2byte	0x1
 8025 14c1 50       		.byte	0x50
 8026 14c2 34000000 		.4byte	.LVL423
 8027 14c6 74000000 		.4byte	.LFE38
 8028 14ca 0100     		.2byte	0x1
 8029 14cc 50       		.byte	0x50
 8030 14cd 00000000 		.4byte	0
 8031 14d1 00000000 		.4byte	0
 8032              	.LLST125:
ARM GAS  C:\Users\hamis\AppData\Local\Temp\cc1fRzXM.s 			page 156


 8033 14d5 00000000 		.4byte	.LVL420
 8034 14d9 0C000000 		.4byte	.LVL421
 8035 14dd 0100     		.2byte	0x1
 8036 14df 51       		.byte	0x51
 8037 14e0 0C000000 		.4byte	.LVL421
 8038 14e4 36000000 		.4byte	.LVL424
 8039 14e8 0100     		.2byte	0x1
 8040 14ea 57       		.byte	0x57
 8041 14eb 36000000 		.4byte	.LVL424
 8042 14ef 38000000 		.4byte	.LVL425
 8043 14f3 0100     		.2byte	0x1
 8044 14f5 51       		.byte	0x51
 8045 14f6 38000000 		.4byte	.LVL425
 8046 14fa 3E000000 		.4byte	.LVL426
 8047 14fe 0100     		.2byte	0x1
 8048 1500 57       		.byte	0x57
 8049 1501 3E000000 		.4byte	.LVL426
 8050 1505 62000000 		.4byte	.LVL429
 8051 1509 0100     		.2byte	0x1
 8052 150b 56       		.byte	0x56
 8053 150c 62000000 		.4byte	.LVL429
 8054 1510 64000000 		.4byte	.LVL430
 8055 1514 0100     		.2byte	0x1
 8056 1516 51       		.byte	0x51
 8057 1517 64000000 		.4byte	.LVL430
 8058 151b 68000000 		.4byte	.LVL431
 8059 151f 0100     		.2byte	0x1
 8060 1521 56       		.byte	0x56
 8061 1522 00000000 		.4byte	0
 8062 1526 00000000 		.4byte	0
 8063              	.LLST126:
 8064 152a 18000000 		.4byte	.LVL422
 8065 152e 36000000 		.4byte	.LVL424
 8066 1532 0100     		.2byte	0x1
 8067 1534 55       		.byte	0x55
 8068 1535 00000000 		.4byte	0
 8069 1539 00000000 		.4byte	0
 8070              	.LLST127:
 8071 153d 4A000000 		.4byte	.LVL427
 8072 1541 62000000 		.4byte	.LVL429
 8073 1545 0100     		.2byte	0x1
 8074 1547 54       		.byte	0x54
 8075 1548 00000000 		.4byte	0
 8076 154c 00000000 		.4byte	0
 8077              	.LLST128:
 8078 1550 00000000 		.4byte	.LVL432
 8079 1554 4C000000 		.4byte	.LVL446
 8080 1558 0100     		.2byte	0x1
 8081 155a 51       		.byte	0x51
 8082 155b 4C000000 		.4byte	.LVL446
 8083 155f 5C000000 		.4byte	.LFE39
 8084 1563 0400     		.2byte	0x4
 8085 1565 F3       		.byte	0xf3
 8086 1566 01       		.uleb128 0x1
 8087 1567 51       		.byte	0x51
 8088 1568 9F       		.byte	0x9f
 8089 1569 00000000 		.4byte	0
ARM GAS  C:\Users\hamis\AppData\Local\Temp\cc1fRzXM.s 			page 157


 8090 156d 00000000 		.4byte	0
 8091              	.LLST129:
 8092 1571 00000000 		.4byte	.LVL432
 8093 1575 0C000000 		.4byte	.LVL434
 8094 1579 0100     		.2byte	0x1
 8095 157b 52       		.byte	0x52
 8096 157c 0C000000 		.4byte	.LVL434
 8097 1580 5C000000 		.4byte	.LFE39
 8098 1584 0400     		.2byte	0x4
 8099 1586 F3       		.byte	0xf3
 8100 1587 01       		.uleb128 0x1
 8101 1588 52       		.byte	0x52
 8102 1589 9F       		.byte	0x9f
 8103 158a 00000000 		.4byte	0
 8104 158e 00000000 		.4byte	0
 8105              	.LLST130:
 8106 1592 0A000000 		.4byte	.LVL433
 8107 1596 42000000 		.4byte	.LVL444
 8108 159a 0100     		.2byte	0x1
 8109 159c 54       		.byte	0x54
 8110 159d 44000000 		.4byte	.LVL445
 8111 15a1 50000000 		.4byte	.LVL447
 8112 15a5 0100     		.2byte	0x1
 8113 15a7 54       		.byte	0x54
 8114 15a8 50000000 		.4byte	.LVL447
 8115 15ac 5C000000 		.4byte	.LFE39
 8116 15b0 0100     		.2byte	0x1
 8117 15b2 51       		.byte	0x51
 8118 15b3 00000000 		.4byte	0
 8119 15b7 00000000 		.4byte	0
 8120              	.LLST131:
 8121 15bb 1C000000 		.4byte	.LVL435
 8122 15bf 20000000 		.4byte	.LVL436
 8123 15c3 0200     		.2byte	0x2
 8124 15c5 33       		.byte	0x33
 8125 15c6 9F       		.byte	0x9f
 8126 15c7 20000000 		.4byte	.LVL436
 8127 15cb 24000000 		.4byte	.LVL437
 8128 15cf 0200     		.2byte	0x2
 8129 15d1 37       		.byte	0x37
 8130 15d2 9F       		.byte	0x9f
 8131 15d3 24000000 		.4byte	.LVL437
 8132 15d7 28000000 		.4byte	.LVL438
 8133 15db 0200     		.2byte	0x2
 8134 15dd 3F       		.byte	0x3f
 8135 15de 9F       		.byte	0x9f
 8136 15df 28000000 		.4byte	.LVL438
 8137 15e3 2C000000 		.4byte	.LVL439
 8138 15e7 0200     		.2byte	0x2
 8139 15e9 4F       		.byte	0x4f
 8140 15ea 9F       		.byte	0x9f
 8141 15eb 2C000000 		.4byte	.LVL439
 8142 15ef 30000000 		.4byte	.LVL440
 8143 15f3 0300     		.2byte	0x3
 8144 15f5 08       		.byte	0x8
 8145 15f6 3F       		.byte	0x3f
 8146 15f7 9F       		.byte	0x9f
ARM GAS  C:\Users\hamis\AppData\Local\Temp\cc1fRzXM.s 			page 158


 8147 15f8 30000000 		.4byte	.LVL440
 8148 15fc 34000000 		.4byte	.LVL441
 8149 1600 0300     		.2byte	0x3
 8150 1602 08       		.byte	0x8
 8151 1603 7F       		.byte	0x7f
 8152 1604 9F       		.byte	0x9f
 8153 1605 34000000 		.4byte	.LVL441
 8154 1609 38000000 		.4byte	.LVL442
 8155 160d 0300     		.2byte	0x3
 8156 160f 09       		.byte	0x9
 8157 1610 FF       		.byte	0xff
 8158 1611 9F       		.byte	0x9f
 8159 1612 3A000000 		.4byte	.LVL443
 8160 1616 54000000 		.4byte	.LVL448
 8161 161a 0100     		.2byte	0x1
 8162 161c 56       		.byte	0x56
 8163 161d 00000000 		.4byte	0
 8164 1621 00000000 		.4byte	0
 8165              	.LLST132:
 8166 1625 00000000 		.4byte	.LVL449
 8167 1629 46000000 		.4byte	.LVL460
 8168 162d 0100     		.2byte	0x1
 8169 162f 51       		.byte	0x51
 8170 1630 46000000 		.4byte	.LVL460
 8171 1634 52000000 		.4byte	.LVL464
 8172 1638 0400     		.2byte	0x4
 8173 163a F3       		.byte	0xf3
 8174 163b 01       		.uleb128 0x1
 8175 163c 51       		.byte	0x51
 8176 163d 9F       		.byte	0x9f
 8177 163e 52000000 		.4byte	.LVL464
 8178 1642 5E000000 		.4byte	.LVL465
 8179 1646 0100     		.2byte	0x1
 8180 1648 51       		.byte	0x51
 8181 1649 5E000000 		.4byte	.LVL465
 8182 164d 70000000 		.4byte	.LFE40
 8183 1651 0400     		.2byte	0x4
 8184 1653 F3       		.byte	0xf3
 8185 1654 01       		.uleb128 0x1
 8186 1655 51       		.byte	0x51
 8187 1656 9F       		.byte	0x9f
 8188 1657 00000000 		.4byte	0
 8189 165b 00000000 		.4byte	0
 8190              	.LLST133:
 8191 165f 00000000 		.4byte	.LVL449
 8192 1663 04000000 		.4byte	.LVL450
 8193 1667 0100     		.2byte	0x1
 8194 1669 52       		.byte	0x52
 8195 166a 04000000 		.4byte	.LVL450
 8196 166e 70000000 		.4byte	.LFE40
 8197 1672 0400     		.2byte	0x4
 8198 1674 F3       		.byte	0xf3
 8199 1675 01       		.uleb128 0x1
 8200 1676 52       		.byte	0x52
 8201 1677 9F       		.byte	0x9f
 8202 1678 00000000 		.4byte	0
 8203 167c 00000000 		.4byte	0
ARM GAS  C:\Users\hamis\AppData\Local\Temp\cc1fRzXM.s 			page 159


 8204              	.LLST134:
 8205 1680 14000000 		.4byte	.LVL451
 8206 1684 18000000 		.4byte	.LVL452
 8207 1688 0200     		.2byte	0x2
 8208 168a 33       		.byte	0x33
 8209 168b 9F       		.byte	0x9f
 8210 168c 18000000 		.4byte	.LVL452
 8211 1690 1C000000 		.4byte	.LVL453
 8212 1694 0200     		.2byte	0x2
 8213 1696 37       		.byte	0x37
 8214 1697 9F       		.byte	0x9f
 8215 1698 1C000000 		.4byte	.LVL453
 8216 169c 20000000 		.4byte	.LVL454
 8217 16a0 0200     		.2byte	0x2
 8218 16a2 3F       		.byte	0x3f
 8219 16a3 9F       		.byte	0x9f
 8220 16a4 20000000 		.4byte	.LVL454
 8221 16a8 24000000 		.4byte	.LVL455
 8222 16ac 0200     		.2byte	0x2
 8223 16ae 4F       		.byte	0x4f
 8224 16af 9F       		.byte	0x9f
 8225 16b0 24000000 		.4byte	.LVL455
 8226 16b4 28000000 		.4byte	.LVL456
 8227 16b8 0300     		.2byte	0x3
 8228 16ba 08       		.byte	0x8
 8229 16bb 3F       		.byte	0x3f
 8230 16bc 9F       		.byte	0x9f
 8231 16bd 28000000 		.4byte	.LVL456
 8232 16c1 2C000000 		.4byte	.LVL457
 8233 16c5 0300     		.2byte	0x3
 8234 16c7 08       		.byte	0x8
 8235 16c8 7F       		.byte	0x7f
 8236 16c9 9F       		.byte	0x9f
 8237 16ca 2C000000 		.4byte	.LVL457
 8238 16ce 30000000 		.4byte	.LVL458
 8239 16d2 0300     		.2byte	0x3
 8240 16d4 09       		.byte	0x9
 8241 16d5 FF       		.byte	0xff
 8242 16d6 9F       		.byte	0x9f
 8243 16d7 32000000 		.4byte	.LVL459
 8244 16db 48000000 		.4byte	.LVL461
 8245 16df 0100     		.2byte	0x1
 8246 16e1 54       		.byte	0x54
 8247 16e2 52000000 		.4byte	.LVL464
 8248 16e6 62000000 		.4byte	.LVL466
 8249 16ea 0100     		.2byte	0x1
 8250 16ec 54       		.byte	0x54
 8251 16ed 00000000 		.4byte	0
 8252 16f1 00000000 		.4byte	0
 8253              	.LLST135:
 8254 16f5 4A000000 		.4byte	.LVL462
 8255 16f9 4E000000 		.4byte	.LVL463
 8256 16fd 0100     		.2byte	0x1
 8257 16ff 54       		.byte	0x54
 8258 1700 00000000 		.4byte	0
 8259 1704 00000000 		.4byte	0
 8260              		.section	.debug_aranges,"",%progbits
ARM GAS  C:\Users\hamis\AppData\Local\Temp\cc1fRzXM.s 			page 160


 8261 0000 5C010000 		.4byte	0x15c
 8262 0004 0200     		.2byte	0x2
 8263 0006 00000000 		.4byte	.Ldebug_info0
 8264 000a 04       		.byte	0x4
 8265 000b 00       		.byte	0
 8266 000c 0000     		.2byte	0
 8267 000e 0000     		.2byte	0
 8268 0010 00000000 		.4byte	.LFB0
 8269 0014 0C000000 		.4byte	.LFE0-.LFB0
 8270 0018 00000000 		.4byte	.LFB1
 8271 001c 10000000 		.4byte	.LFE1-.LFB1
 8272 0020 00000000 		.4byte	.LFB2
 8273 0024 0C000000 		.4byte	.LFE2-.LFB2
 8274 0028 00000000 		.4byte	.LFB3
 8275 002c 0C000000 		.4byte	.LFE3-.LFB3
 8276 0030 00000000 		.4byte	.LFB4
 8277 0034 0C000000 		.4byte	.LFE4-.LFB4
 8278 0038 00000000 		.4byte	.LFB5
 8279 003c 0C000000 		.4byte	.LFE5-.LFB5
 8280 0040 00000000 		.4byte	.LFB6
 8281 0044 0C000000 		.4byte	.LFE6-.LFB6
 8282 0048 00000000 		.4byte	.LFB7
 8283 004c 1C000000 		.4byte	.LFE7-.LFB7
 8284 0050 00000000 		.4byte	.LFB8
 8285 0054 14000000 		.4byte	.LFE8-.LFB8
 8286 0058 00000000 		.4byte	.LFB9
 8287 005c 94000000 		.4byte	.LFE9-.LFB9
 8288 0060 00000000 		.4byte	.LFB10
 8289 0064 80000000 		.4byte	.LFE10-.LFB10
 8290 0068 00000000 		.4byte	.LFB11
 8291 006c 70000000 		.4byte	.LFE11-.LFB11
 8292 0070 00000000 		.4byte	.LFB12
 8293 0074 70000000 		.4byte	.LFE12-.LFB12
 8294 0078 00000000 		.4byte	.LFB13
 8295 007c 80000000 		.4byte	.LFE13-.LFB13
 8296 0080 00000000 		.4byte	.LFB14
 8297 0084 EC000000 		.4byte	.LFE14-.LFB14
 8298 0088 00000000 		.4byte	.LFB15
 8299 008c D8000000 		.4byte	.LFE15-.LFB15
 8300 0090 00000000 		.4byte	.LFB16
 8301 0094 C4000000 		.4byte	.LFE16-.LFB16
 8302 0098 00000000 		.4byte	.LFB17
 8303 009c BC000000 		.4byte	.LFE17-.LFB17
 8304 00a0 00000000 		.4byte	.LFB18
 8305 00a4 D8000000 		.4byte	.LFE18-.LFB18
 8306 00a8 00000000 		.4byte	.LFB19
 8307 00ac 48000000 		.4byte	.LFE19-.LFB19
 8308 00b0 00000000 		.4byte	.LFB20
 8309 00b4 30000000 		.4byte	.LFE20-.LFB20
 8310 00b8 00000000 		.4byte	.LFB21
 8311 00bc 24000000 		.4byte	.LFE21-.LFB21
 8312 00c0 00000000 		.4byte	.LFB22
 8313 00c4 24000000 		.4byte	.LFE22-.LFB22
 8314 00c8 00000000 		.4byte	.LFB23
 8315 00cc 8C000000 		.4byte	.LFE23-.LFB23
 8316 00d0 00000000 		.4byte	.LFB24
 8317 00d4 78000000 		.4byte	.LFE24-.LFB24
ARM GAS  C:\Users\hamis\AppData\Local\Temp\cc1fRzXM.s 			page 161


 8318 00d8 00000000 		.4byte	.LFB25
 8319 00dc 6C000000 		.4byte	.LFE25-.LFB25
 8320 00e0 00000000 		.4byte	.LFB26
 8321 00e4 6C000000 		.4byte	.LFE26-.LFB26
 8322 00e8 00000000 		.4byte	.LFB27
 8323 00ec 30000000 		.4byte	.LFE27-.LFB27
 8324 00f0 00000000 		.4byte	.LFB28
 8325 00f4 24000000 		.4byte	.LFE28-.LFB28
 8326 00f8 00000000 		.4byte	.LFB29
 8327 00fc 24000000 		.4byte	.LFE29-.LFB29
 8328 0100 00000000 		.4byte	.LFB30
 8329 0104 BC000000 		.4byte	.LFE30-.LFB30
 8330 0108 00000000 		.4byte	.LFB31
 8331 010c B4000000 		.4byte	.LFE31-.LFB31
 8332 0110 00000000 		.4byte	.LFB32
 8333 0114 70000000 		.4byte	.LFE32-.LFB32
 8334 0118 00000000 		.4byte	.LFB33
 8335 011c 24000000 		.4byte	.LFE33-.LFB33
 8336 0120 00000000 		.4byte	.LFB34
 8337 0124 70000000 		.4byte	.LFE34-.LFB34
 8338 0128 00000000 		.4byte	.LFB35
 8339 012c 24000000 		.4byte	.LFE35-.LFB35
 8340 0130 00000000 		.4byte	.LFB36
 8341 0134 6C000000 		.4byte	.LFE36-.LFB36
 8342 0138 00000000 		.4byte	.LFB37
 8343 013c 30000000 		.4byte	.LFE37-.LFB37
 8344 0140 00000000 		.4byte	.LFB38
 8345 0144 74000000 		.4byte	.LFE38-.LFB38
 8346 0148 00000000 		.4byte	.LFB39
 8347 014c 5C000000 		.4byte	.LFE39-.LFB39
 8348 0150 00000000 		.4byte	.LFB40
 8349 0154 70000000 		.4byte	.LFE40-.LFB40
 8350 0158 00000000 		.4byte	0
 8351 015c 00000000 		.4byte	0
 8352              		.section	.debug_ranges,"",%progbits
 8353              	.Ldebug_ranges0:
 8354 0000 00000000 		.4byte	.LFB0
 8355 0004 0C000000 		.4byte	.LFE0
 8356 0008 00000000 		.4byte	.LFB1
 8357 000c 10000000 		.4byte	.LFE1
 8358 0010 00000000 		.4byte	.LFB2
 8359 0014 0C000000 		.4byte	.LFE2
 8360 0018 00000000 		.4byte	.LFB3
 8361 001c 0C000000 		.4byte	.LFE3
 8362 0020 00000000 		.4byte	.LFB4
 8363 0024 0C000000 		.4byte	.LFE4
 8364 0028 00000000 		.4byte	.LFB5
 8365 002c 0C000000 		.4byte	.LFE5
 8366 0030 00000000 		.4byte	.LFB6
 8367 0034 0C000000 		.4byte	.LFE6
 8368 0038 00000000 		.4byte	.LFB7
 8369 003c 1C000000 		.4byte	.LFE7
 8370 0040 00000000 		.4byte	.LFB8
 8371 0044 14000000 		.4byte	.LFE8
 8372 0048 00000000 		.4byte	.LFB9
 8373 004c 94000000 		.4byte	.LFE9
 8374 0050 00000000 		.4byte	.LFB10
ARM GAS  C:\Users\hamis\AppData\Local\Temp\cc1fRzXM.s 			page 162


 8375 0054 80000000 		.4byte	.LFE10
 8376 0058 00000000 		.4byte	.LFB11
 8377 005c 70000000 		.4byte	.LFE11
 8378 0060 00000000 		.4byte	.LFB12
 8379 0064 70000000 		.4byte	.LFE12
 8380 0068 00000000 		.4byte	.LFB13
 8381 006c 80000000 		.4byte	.LFE13
 8382 0070 00000000 		.4byte	.LFB14
 8383 0074 EC000000 		.4byte	.LFE14
 8384 0078 00000000 		.4byte	.LFB15
 8385 007c D8000000 		.4byte	.LFE15
 8386 0080 00000000 		.4byte	.LFB16
 8387 0084 C4000000 		.4byte	.LFE16
 8388 0088 00000000 		.4byte	.LFB17
 8389 008c BC000000 		.4byte	.LFE17
 8390 0090 00000000 		.4byte	.LFB18
 8391 0094 D8000000 		.4byte	.LFE18
 8392 0098 00000000 		.4byte	.LFB19
 8393 009c 48000000 		.4byte	.LFE19
 8394 00a0 00000000 		.4byte	.LFB20
 8395 00a4 30000000 		.4byte	.LFE20
 8396 00a8 00000000 		.4byte	.LFB21
 8397 00ac 24000000 		.4byte	.LFE21
 8398 00b0 00000000 		.4byte	.LFB22
 8399 00b4 24000000 		.4byte	.LFE22
 8400 00b8 00000000 		.4byte	.LFB23
 8401 00bc 8C000000 		.4byte	.LFE23
 8402 00c0 00000000 		.4byte	.LFB24
 8403 00c4 78000000 		.4byte	.LFE24
 8404 00c8 00000000 		.4byte	.LFB25
 8405 00cc 6C000000 		.4byte	.LFE25
 8406 00d0 00000000 		.4byte	.LFB26
 8407 00d4 6C000000 		.4byte	.LFE26
 8408 00d8 00000000 		.4byte	.LFB27
 8409 00dc 30000000 		.4byte	.LFE27
 8410 00e0 00000000 		.4byte	.LFB28
 8411 00e4 24000000 		.4byte	.LFE28
 8412 00e8 00000000 		.4byte	.LFB29
 8413 00ec 24000000 		.4byte	.LFE29
 8414 00f0 00000000 		.4byte	.LFB30
 8415 00f4 BC000000 		.4byte	.LFE30
 8416 00f8 00000000 		.4byte	.LFB31
 8417 00fc B4000000 		.4byte	.LFE31
 8418 0100 00000000 		.4byte	.LFB32
 8419 0104 70000000 		.4byte	.LFE32
 8420 0108 00000000 		.4byte	.LFB33
 8421 010c 24000000 		.4byte	.LFE33
 8422 0110 00000000 		.4byte	.LFB34
 8423 0114 70000000 		.4byte	.LFE34
 8424 0118 00000000 		.4byte	.LFB35
 8425 011c 24000000 		.4byte	.LFE35
 8426 0120 00000000 		.4byte	.LFB36
 8427 0124 6C000000 		.4byte	.LFE36
 8428 0128 00000000 		.4byte	.LFB37
 8429 012c 30000000 		.4byte	.LFE37
 8430 0130 00000000 		.4byte	.LFB38
 8431 0134 74000000 		.4byte	.LFE38
ARM GAS  C:\Users\hamis\AppData\Local\Temp\cc1fRzXM.s 			page 163


 8432 0138 00000000 		.4byte	.LFB39
 8433 013c 5C000000 		.4byte	.LFE39
 8434 0140 00000000 		.4byte	.LFB40
 8435 0144 70000000 		.4byte	.LFE40
 8436 0148 00000000 		.4byte	0
 8437 014c 00000000 		.4byte	0
 8438              		.section	.debug_line,"",%progbits
 8439              	.Ldebug_line0:
 8440 0000 7F070000 		.section	.debug_str,"MS",%progbits,1
 8440      02004501 
 8440      00000201 
 8440      FB0E0D00 
 8440      01010101 
 8441              	.LASF36:
 8442 0000 51585F50 		.ascii	"QX_Parser_Dir_ForceWriteAbs_Set\000"
 8442      61727365 
 8442      725F4469 
 8442      725F466F 
 8442      72636557 
 8443              	.LASF64:
 8444 0020 47657453 		.ascii	"GetSignedShortAsSignedChar\000"
 8444      69676E65 
 8444      6453686F 
 8444      72744173 
 8444      5369676E 
 8445              	.LASF28:
 8446 003b 51425F50 		.ascii	"QB_Parser_Dir_e\000"
 8446      61727365 
 8446      725F4469 
 8446      725F6500 
 8447              	.LASF6:
 8448 004b 5F5F7569 		.ascii	"__uint8_t\000"
 8448      6E74385F 
 8448      7400
 8449              	.LASF61:
 8450 0055 41646453 		.ascii	"AddSignedShortAsSignedChar\000"
 8450      69676E65 
 8450      6453686F 
 8450      72744173 
 8450      5369676E 
 8451              	.LASF38:
 8452 0070 51585F50 		.ascii	"QX_Parser_SetMsgPtr\000"
 8452      61727365 
 8452      725F5365 
 8452      744D7367 
 8452      50747200 
 8453              	.LASF60:
 8454 0084 41646453 		.ascii	"AddSignedShortAsSignedShort\000"
 8454      69676E65 
 8454      6453686F 
 8454      72744173 
 8454      5369676E 
 8455              	.LASF58:
 8456 00a0 47657453 		.ascii	"GetSignedLongAsSignedChar\000"
 8456      69676E65 
 8456      644C6F6E 
 8456      67417353 
ARM GAS  C:\Users\hamis\AppData\Local\Temp\cc1fRzXM.s 			page 164


 8456      69676E65 
 8457              	.LASF16:
 8458 00ba 6C6F6E67 		.ascii	"long long unsigned int\000"
 8458      206C6F6E 
 8458      6720756E 
 8458      7369676E 
 8458      65642069 
 8459              	.LASF35:
 8460 00d1 51585F50 		.ascii	"QX_Parser_GetDir\000"
 8460      61727365 
 8460      725F4765 
 8460      74446972 
 8460      00
 8461              	.LASF83:
 8462 00e2 2E2E5C2E 		.ascii	"..\\..\\FreeflyAPI\\QX_Parsing_Functions.c\000"
 8462      2E5C4672 
 8462      6565666C 
 8462      79415049 
 8462      5C51585F 
 8463              	.LASF5:
 8464 010a 5F5F696E 		.ascii	"__int8_t\000"
 8464      74385F74 
 8464      00
 8465              	.LASF63:
 8466 0113 47657453 		.ascii	"GetSignedShortAsSignedShort\000"
 8466      69676E65 
 8466      6453686F 
 8466      72744173 
 8466      5369676E 
 8467              	.LASF21:
 8468 012f 696E7431 		.ascii	"int16_t\000"
 8468      365F7400 
 8469              	.LASF2:
 8470 0137 6C6F6E67 		.ascii	"long long int\000"
 8470      206C6F6E 
 8470      6720696E 
 8470      7400
 8471              	.LASF4:
 8472 0145 7369676E 		.ascii	"signed char\000"
 8472      65642063 
 8472      68617200 
 8473              	.LASF52:
 8474 0151 41646453 		.ascii	"AddSignedLongAsSignedLong\000"
 8474      69676E65 
 8474      644C6F6E 
 8474      67417353 
 8474      69676E65 
 8475              	.LASF50:
 8476 016b 47657446 		.ascii	"GetFloatAsUnsignedChar\000"
 8476      6C6F6174 
 8476      4173556E 
 8476      7369676E 
 8476      65644368 
 8477              	.LASF68:
 8478 0182 74656D70 		.ascii	"temp\000"
 8478      00
 8479              	.LASF13:
ARM GAS  C:\Users\hamis\AppData\Local\Temp\cc1fRzXM.s 			page 165


 8480 0187 6C6F6E67 		.ascii	"long int\000"
 8480      20696E74 
 8480      00
 8481              	.LASF80:
 8482 0190 72775F6F 		.ascii	"rw_orig\000"
 8482      72696700 
 8483              	.LASF48:
 8484 0198 47657446 		.ascii	"GetFloatAsSignedShort\000"
 8484      6C6F6174 
 8484      41735369 
 8484      676E6564 
 8484      53686F72 
 8485              	.LASF55:
 8486 01ae 41646453 		.ascii	"AddSignedLongAsUnsignedChar\000"
 8486      69676E65 
 8486      644C6F6E 
 8486      67417355 
 8486      6E736967 
 8487              	.LASF75:
 8488 01ca 6E5F6269 		.ascii	"n_bits\000"
 8488      747300
 8489              	.LASF22:
 8490 01d1 75696E74 		.ascii	"uint16_t\000"
 8490      31365F74 
 8490      00
 8491              	.LASF29:
 8492 01da 646F7562 		.ascii	"double\000"
 8492      6C6500
 8493              	.LASF78:
 8494 01e1 786F725F 		.ascii	"xor_mask\000"
 8494      6D61736B 
 8494      00
 8495              	.LASF43:
 8496 01ea 41646446 		.ascii	"AddFloatAsSignedChar\000"
 8496      6C6F6174 
 8496      41735369 
 8496      676E6564 
 8496      43686172 
 8497              	.LASF34:
 8498 01ff 51585F50 		.ascii	"QX_Parser_GetMsgPtr\000"
 8498      61727365 
 8498      725F4765 
 8498      744D7367 
 8498      50747200 
 8499              	.LASF14:
 8500 0213 5F5F7569 		.ascii	"__uint32_t\000"
 8500      6E743332 
 8500      5F7400
 8501              	.LASF76:
 8502 021e 6D61736B 		.ascii	"mask\000"
 8502      00
 8503              	.LASF33:
 8504 0223 51585F50 		.ascii	"QX_Parser_SetDir_WriteAbs\000"
 8504      61727365 
 8504      725F5365 
 8504      74446972 
 8504      5F577269 
ARM GAS  C:\Users\hamis\AppData\Local\Temp\cc1fRzXM.s 			page 166


 8505              	.LASF8:
 8506 023d 5F5F696E 		.ascii	"__int16_t\000"
 8506      7431365F 
 8506      7400
 8507              	.LASF44:
 8508 0247 41646446 		.ascii	"AddFloatAsUnsignedChar\000"
 8508      6C6F6174 
 8508      4173556E 
 8508      7369676E 
 8508      65644368 
 8509              	.LASF42:
 8510 025e 76616C75 		.ascii	"value\000"
 8510      6500
 8511              	.LASF72:
 8512 0264 47657455 		.ascii	"GetUnsignedShortAsUnsignedShort\000"
 8512      6E736967 
 8512      6E656453 
 8512      686F7274 
 8512      4173556E 
 8513              	.LASF71:
 8514 0284 41646455 		.ascii	"AddUnsignedShortAsUnsignedShort\000"
 8514      6E736967 
 8514      6E656453 
 8514      686F7274 
 8514      4173556E 
 8515              	.LASF1:
 8516 02a4 756E7369 		.ascii	"unsigned int\000"
 8516      676E6564 
 8516      20696E74 
 8516      00
 8517              	.LASF84:
 8518 02b1 443A5C50 		.ascii	"D:\\PSoC Programs\\test_projects\\Proj03_freefly_ap"
 8518      536F4320 
 8518      50726F67 
 8518      72616D73 
 8518      5C746573 
 8519 02e1 695F7561 		.ascii	"i_uart.cydsn\000"
 8519      72742E63 
 8519      7964736E 
 8519      00
 8520              	.LASF15:
 8521 02ee 6C6F6E67 		.ascii	"long unsigned int\000"
 8521      20756E73 
 8521      69676E65 
 8521      6420696E 
 8521      7400
 8522              	.LASF25:
 8523 0300 51425F50 		.ascii	"QB_Parser_Dir_Read\000"
 8523      61727365 
 8523      725F4469 
 8523      725F5265 
 8523      616400
 8524              	.LASF11:
 8525 0313 73686F72 		.ascii	"short unsigned int\000"
 8525      7420756E 
 8525      7369676E 
 8525      65642069 
ARM GAS  C:\Users\hamis\AppData\Local\Temp\cc1fRzXM.s 			page 167


 8525      6E7400
 8526              	.LASF47:
 8527 0326 7363616C 		.ascii	"scalefrom\000"
 8527      6566726F 
 8527      6D00
 8528              	.LASF45:
 8529 0330 41646446 		.ascii	"AddFloatAsUnsignedShort\000"
 8529      6C6F6174 
 8529      4173556E 
 8529      7369676E 
 8529      65645368 
 8530              	.LASF66:
 8531 0348 41646453 		.ascii	"AddSignedCharAsSignedChar\000"
 8531      69676E65 
 8531      64436861 
 8531      72417353 
 8531      69676E65 
 8532              	.LASF57:
 8533 0362 47657453 		.ascii	"GetSignedLongAsSignedShort\000"
 8533      69676E65 
 8533      644C6F6E 
 8533      67417353 
 8533      69676E65 
 8534              	.LASF49:
 8535 037d 47657446 		.ascii	"GetFloatAsSignedChar\000"
 8535      6C6F6174 
 8535      41735369 
 8535      676E6564 
 8535      43686172 
 8536              	.LASF17:
 8537 0392 73697A65 		.ascii	"sizetype\000"
 8537      74797065 
 8537      00
 8538              	.LASF74:
 8539 039b 73746172 		.ascii	"start_bit\000"
 8539      745F6269 
 8539      7400
 8540              	.LASF56:
 8541 03a5 47657453 		.ascii	"GetSignedLongAsSignedLong\000"
 8541      69676E65 
 8541      644C6F6E 
 8541      67417353 
 8541      69676E65 
 8542              	.LASF3:
 8543 03bf 6C6F6E67 		.ascii	"long double\000"
 8543      20646F75 
 8543      626C6500 
 8544              	.LASF53:
 8545 03cb 41646453 		.ascii	"AddSignedLongAsSignedShort\000"
 8545      69676E65 
 8545      644C6F6E 
 8545      67417353 
 8545      69676E65 
 8546              	.LASF65:
 8547 03e6 47657453 		.ascii	"GetSignedShortAsUnsignedChar\000"
 8547      69676E65 
 8547      6453686F 
ARM GAS  C:\Users\hamis\AppData\Local\Temp\cc1fRzXM.s 			page 168


 8547      72744173 
 8547      556E7369 
 8548              	.LASF59:
 8549 0403 47657453 		.ascii	"GetSignedLongAsUnsignedChar\000"
 8549      69676E65 
 8549      644C6F6E 
 8549      67417355 
 8549      6E736967 
 8550              	.LASF0:
 8551 041f 666C6F61 		.ascii	"float\000"
 8551      7400
 8552              	.LASF32:
 8553 0425 51585F50 		.ascii	"QX_Parser_SetDir_WriteRel\000"
 8553      61727365 
 8553      725F5365 
 8553      74446972 
 8553      5F577269 
 8554              	.LASF79:
 8555 043f 6D736750 		.ascii	"msgPtr\000"
 8555      747200
 8556              	.LASF23:
 8557 0446 696E7433 		.ascii	"int32_t\000"
 8557      325F7400 
 8558              	.LASF7:
 8559 044e 756E7369 		.ascii	"unsigned char\000"
 8559      676E6564 
 8559      20636861 
 8559      7200
 8560              	.LASF26:
 8561 045c 51425F50 		.ascii	"QB_Parser_Dir_WriteDel\000"
 8561      61727365 
 8561      725F4469 
 8561      725F5772 
 8561      69746544 
 8562              	.LASF9:
 8563 0473 73686F72 		.ascii	"short int\000"
 8563      7420696E 
 8563      7400
 8564              	.LASF39:
 8565 047d 41646446 		.ascii	"AddFloatAsSignedLong\000"
 8565      6C6F6174 
 8565      41735369 
 8565      676E6564 
 8565      4C6F6E67 
 8566              	.LASF82:
 8567 0492 474E5520 		.ascii	"GNU C11 5.4.1 20160609 (release) [ARM/embedded-5-br"
 8567      43313120 
 8567      352E342E 
 8567      31203230 
 8567      31363036 
 8568 04c5 616E6368 		.ascii	"anch revision 237715] -mcpu=cortex-m3 -mthumb -g -O"
 8568      20726576 
 8568      6973696F 
 8568      6E203233 
 8568      37373135 
 8569 04f8 67202D66 		.ascii	"g -ffunction-sections -ffat-lto-objects\000"
 8569      66756E63 
ARM GAS  C:\Users\hamis\AppData\Local\Temp\cc1fRzXM.s 			page 169


 8569      74696F6E 
 8569      2D736563 
 8569      74696F6E 
 8570              	.LASF30:
 8571 0520 51585F50 		.ascii	"QX_Parser_AdvMsgPtr\000"
 8571      61727365 
 8571      725F4164 
 8571      764D7367 
 8571      50747200 
 8572              	.LASF73:
 8573 0534 41646442 		.ascii	"AddBitsAsByte\000"
 8573      69747341 
 8573      73427974 
 8573      6500
 8574              	.LASF31:
 8575 0542 51585F50 		.ascii	"QX_Parser_SetDir_Read\000"
 8575      61727365 
 8575      725F5365 
 8575      74446972 
 8575      5F526561 
 8576              	.LASF24:
 8577 0558 75696E74 		.ascii	"uint32_t\000"
 8577      33325F74 
 8577      00
 8578              	.LASF54:
 8579 0561 41646453 		.ascii	"AddSignedLongAsSignedChar\000"
 8579      69676E65 
 8579      644C6F6E 
 8579      67417353 
 8579      69676E65 
 8580              	.LASF18:
 8581 057b 63686172 		.ascii	"char\000"
 8581      00
 8582              	.LASF67:
 8583 0580 47657453 		.ascii	"GetSignedCharAsSignedChar\000"
 8583      69676E65 
 8583      64436861 
 8583      72417353 
 8583      69676E65 
 8584              	.LASF10:
 8585 059a 5F5F7569 		.ascii	"__uint16_t\000"
 8585      6E743136 
 8585      5F7400
 8586              	.LASF12:
 8587 05a5 5F5F696E 		.ascii	"__int32_t\000"
 8587      7433325F 
 8587      7400
 8588              	.LASF69:
 8589 05af 41646455 		.ascii	"AddUnsignedCharAsUnsignedChar\000"
 8589      6E736967 
 8589      6E656443 
 8589      68617241 
 8589      73556E73 
 8590              	.LASF27:
 8591 05cd 51425F50 		.ascii	"QB_Parser_Dir_WriteAbs\000"
 8591      61727365 
 8591      725F4469 
ARM GAS  C:\Users\hamis\AppData\Local\Temp\cc1fRzXM.s 			page 170


 8591      725F5772 
 8591      69746541 
 8592              	.LASF41:
 8593 05e4 41646446 		.ascii	"AddFloatAsSignedShort\000"
 8593      6C6F6174 
 8593      41735369 
 8593      676E6564 
 8593      53686F72 
 8594              	.LASF19:
 8595 05fa 696E7438 		.ascii	"int8_t\000"
 8595      5F7400
 8596              	.LASF62:
 8597 0601 41646453 		.ascii	"AddSignedShortAsUnsignedChar\000"
 8597      69676E65 
 8597      6453686F 
 8597      72744173 
 8597      556E7369 
 8598              	.LASF77:
 8599 061e 47657442 		.ascii	"GetBitsAsByte\000"
 8599      69747341 
 8599      73427974 
 8599      6500
 8600              	.LASF37:
 8601 062c 51585F50 		.ascii	"QX_Parser_Dir_ForceWriteAbs_Reset\000"
 8601      61727365 
 8601      725F4469 
 8601      725F466F 
 8601      72636557 
 8602              	.LASF40:
 8603 064e 7363616C 		.ascii	"scaleto\000"
 8603      65746F00 
 8604              	.LASF20:
 8605 0656 75696E74 		.ascii	"uint8_t\000"
 8605      385F7400 
 8606              	.LASF70:
 8607 065e 47657455 		.ascii	"GetUnsignedCharAsUnsignedChar\000"
 8607      6E736967 
 8607      6E656443 
 8607      68617241 
 8607      73556E73 
 8608              	.LASF81:
 8609 067c 6765745F 		.ascii	"get_uint16_t\000"
 8609      75696E74 
 8609      31365F74 
 8609      00
 8610              	.LASF46:
 8611 0689 47657446 		.ascii	"GetFloatAsSignedLong\000"
 8611      6C6F6174 
 8611      41735369 
 8611      676E6564 
 8611      4C6F6E67 
 8612              	.LASF51:
 8613 069e 47657446 		.ascii	"GetFloatAsUnsignedShort\000"
 8613      6C6F6174 
 8613      4173556E 
 8613      7369676E 
 8613      65645368 
ARM GAS  C:\Users\hamis\AppData\Local\Temp\cc1fRzXM.s 			page 171


 8614              		.ident	"GCC: (GNU Tools for ARM Embedded Processors) 5.4.1 20160609 (release) [ARM/embedded-5-bran
