ARM GAS  C:\Users\yoons\AppData\Local\Temp\cc4JHBmd.s 			page 1


   1              		.syntax unified
   2              		.cpu cortex-m3
   3              		.fpu softvfp
   4              		.eabi_attribute 20, 1
   5              		.eabi_attribute 21, 1
   6              		.eabi_attribute 23, 3
   7              		.eabi_attribute 24, 1
   8              		.eabi_attribute 25, 1
   9              		.eabi_attribute 26, 1
  10              		.eabi_attribute 30, 6
  11              		.eabi_attribute 34, 1
  12              		.eabi_attribute 18, 4
  13              		.thumb
  14              		.syntax unified
  15              		.file	"app_statemachine.c"
  16              		.text
  17              	.Ltext0:
  18              		.cfi_sections	.debug_frame
  19              		.section	.rodata
  20              		.align	2
  21              		.type	parent_of, %object
  22              		.size	parent_of, 17
  23              	parent_of:
  24 0000 00       		.byte	0
  25 0001 00       		.byte	0
  26 0002 00       		.byte	0
  27 0003 00       		.byte	0
  28 0004 00       		.byte	0
  29 0005 01       		.byte	1
  30 0006 01       		.byte	1
  31 0007 02       		.byte	2
  32 0008 03       		.byte	3
  33 0009 03       		.byte	3
  34 000a 03       		.byte	3
  35 000b 03       		.byte	3
  36 000c 03       		.byte	3
  37 000d 03       		.byte	3
  38 000e 03       		.byte	3
  39 000f 04       		.byte	4
  40 0010 04       		.byte	4
  41 0011 000000   		.align	2
  42              		.type	can_enter, %object
  43              		.size	can_enter, 68
  44              	can_enter:
  45 0014 00000000 		.space	12
  45      00000000 
  45      00000000 
  46 0020 00000000 		.word	guard_auto_parent
  47 0024 00000000 		.space	12
  47      00000000 
  47      00000000 
  48 0030 00000000 		.word	guard_manu_joystick
  49 0034 00000000 		.word	guard_auto_home
  50 0038 00000000 		.space	4
  51 003c 00000000 		.word	guard_auto_acq_gps
  52 0040 00000000 		.space	24
  52      00000000 
ARM GAS  C:\Users\yoons\AppData\Local\Temp\cc4JHBmd.s 			page 2


  52      00000000 
  52      00000000 
  52      00000000 
  53              		.align	2
  54              		.type	on_entry, %object
  55              		.size	on_entry, 68
  56              	on_entry:
  57 0058 00000000 		.space	4
  58 005c 00000000 		.word	0
  59 0060 00000000 		.word	0
  60 0064 00000000 		.word	0
  61 0068 00000000 		.word	0
  62 006c 00000000 		.word	entry_stby_defer
  63 0070 00000000 		.word	entry_stby_hold
  64 0074 00000000 		.word	entry_manu_joystick
  65 0078 00000000 		.word	entry_auto_home
  66 007c 00000000 		.word	entry_auto_hold
  67 0080 00000000 		.word	entry_auto_acq_gps
  68 0084 00000000 		.word	entry_auto_acq_spiral
  69 0088 00000000 		.word	entry_auto_tracking
  70 008c 00000000 		.word	entry_auto_loss
  71 0090 00000000 		.word	entry_auto_no_lock
  72 0094 00000000 		.word	entry_error_active
  73 0098 00000000 		.word	entry_error_kill
  74              		.align	2
  75              		.type	on_exit, %object
  76              		.size	on_exit, 68
  77              	on_exit:
  78 009c 00000000 		.space	4
  79 00a0 00000000 		.word	0
  80 00a4 00000000 		.word	0
  81 00a8 00000000 		.word	0
  82 00ac 00000000 		.word	0
  83 00b0 00000000 		.word	0
  84 00b4 00000000 		.word	0
  85 00b8 00000000 		.word	exit_manu_joystick
  86 00bc 00000000 		.word	exit_auto_home
  87 00c0 00000000 		.word	0
  88 00c4 00000000 		.word	exit_auto_acq_gps
  89 00c8 00000000 		.word	0
  90 00cc 00000000 		.word	0
  91 00d0 00000000 		.word	0
  92 00d4 00000000 		.word	0
  93 00d8 00000000 		.word	0
  94 00dc 00000000 		.word	0
  95              		.align	2
  96              		.type	on_key, %object
  97              		.size	on_key, 68
  98              	on_key:
  99 00e0 00000000 		.space	20
  99      00000000 
  99      00000000 
  99      00000000 
  99      00000000 
 100 00f4 00000000 		.word	0
 101 00f8 00000000 		.word	key_stby_hold
 102 00fc 00000000 		.word	key_manu_joystick
ARM GAS  C:\Users\yoons\AppData\Local\Temp\cc4JHBmd.s 			page 3


 103 0100 00000000 		.word	key_auto_home
 104 0104 00000000 		.word	key_auto_hold
 105 0108 00000000 		.word	key_auto_acq_gps
 106 010c 00000000 		.word	0
 107 0110 00000000 		.word	key_auto_tracking
 108 0114 00000000 		.word	key_auto_loss
 109 0118 00000000 		.word	key_auto_no_lock
 110 011c 00000000 		.word	key_error_active
 111 0120 00000000 		.word	key_error_kill
 112              		.align	2
 113              		.type	on_build, %object
 114              		.size	on_build, 68
 115              	on_build:
 116 0124 00000000 		.space	20
 116      00000000 
 116      00000000 
 116      00000000 
 116      00000000 
 117 0138 00000000 		.word	build_defer
 118 013c 00000000 		.word	build_hold
 119 0140 00000000 		.word	build_manu_joystick
 120 0144 00000000 		.word	build_auto_home
 121 0148 00000000 		.word	build_hold
 122 014c 00000000 		.word	build_auto_acq_gps
 123 0150 00000000 		.word	build_hold
 124 0154 00000000 		.word	build_auto_tracking
 125 0158 00000000 		.word	build_hold
 126 015c 00000000 		.word	build_hold
 127 0160 00000000 		.word	build_error
 128 0164 00000000 		.word	build_error
 129              		.section	.text.depth_of,"ax",%progbits
 130              		.align	2
 131              		.thumb
 132              		.thumb_func
 133              		.type	depth_of, %function
 134              	depth_of:
 135              	.LFB64:
 136              		.file 1 "app_statemachine.c"
   1:app_statemachine.c **** /* ========================================
   2:app_statemachine.c ****  *
   3:app_statemachine.c ****  * Copyright Hamish Johnson, 2026
   4:app_statemachine.c ****  * All Rights Reserved
   5:app_statemachine.c ****  * UNPUBLISHED, LICENSED SOFTWARE.
   6:app_statemachine.c ****  *
   7:app_statemachine.c ****  * CONFIDENTIAL AND PROPRIETARY INFORMATION
   8:app_statemachine.c ****  * WHICH IS THE PROPERTY OF 
   9:app_statemachine.c ****  * Quantum Internet Systems Lab (QISL),
  10:app_statemachine.c ****  * Department of Physics, SFU, Canada.
  11:app_statemachine.c ****  *
  12:app_statemachine.c ****  * Author: Hamish Johnson (2026)
  13:app_statemachine.c ****  *
  14:app_statemachine.c ****  * ========================================
  15:app_statemachine.c ****  *
  16:app_statemachine.c ****  * HFSM engine: parent table, LCA walk, transition driver, error raiser.
  17:app_statemachine.c ****  *
  18:app_statemachine.c ****  *   ROOT
  19:app_statemachine.c ****  *   ├─ STBY ── STBY_DEFER (boot)
ARM GAS  C:\Users\yoons\AppData\Local\Temp\cc4JHBmd.s 			page 4


  20:app_statemachine.c ****  *   ├       ── STBY_HOLD
  21:app_statemachine.c ****  *   ├─ MANU ── MANU_JOYSTICK
  22:app_statemachine.c ****  *   ├─ AUTO ── AUTO_HOME*
  23:app_statemachine.c ****  *   ├       ── ACQ_GPS*
  24:app_statemachine.c ****  *   ├       ── ACQ_SPIRAL*
  25:app_statemachine.c ****  *   ├       ── TRACKING*
  26:app_statemachine.c ****  *   ├       ── LOSS*
  27:app_statemachine.c ****  *   ├       ── NO_LOCK*
  28:app_statemachine.c ****  *   └─ ERROR ─ ERROR_ACTIVE
  29:app_statemachine.c ****  * 
  30:app_statemachine.c ****  *      * = declared, not yet implemented
  31:app_statemachine.c ****  *
  32:app_statemachine.c ****  * KEYMAP (keep in sync with the key_* handlers in section 5):
  33:app_statemachine.c ****  *   GLOBAL (any non-FATAL leaf):
  34:app_statemachine.c ****  *     k       soft kill -> STBY_HOLD
  35:app_statemachine.c ****  *     [       capture origin from telemetry
  36:app_statemachine.c ****  *     ?       help
  37:app_statemachine.c ****  *     Ctrl+R  clear FATAL latch -> STBY_HOLD
  38:app_statemachine.c ****  *   NAV (suppressed where leaf_traps_nav()==1):
  39:app_statemachine.c ****  *     1/2/3   STBY_HOLD / MANU_JOYSTICK / AUTO
  40:app_statemachine.c ****  *   MANU_JOYSTICK leaf:
  41:app_statemachine.c ****  *     r/a     RATE / ABSOLUTE      e  exit -> STBY_HOLD
  42:app_statemachine.c ****  *     ]       -> AUTO_HOME
  43:app_statemachine.c ****  *
  44:app_statemachine.c ****  * DISPATCH PRECEDENCE (app_dispatch_key):
  45:app_statemachine.c ****  *     FATAL-lockout  >  global  >  leaf  >  nav
  46:app_statemachine.c **** */
  47:app_statemachine.c **** 
  48:app_statemachine.c **** #include "hamfly.h"
  49:app_statemachine.c **** #include "sbc_comms.h"
  50:app_statemachine.c **** #include "telemetry.h"
  51:app_statemachine.c **** #include "utils.h"    // nudge_apply
  52:app_statemachine.c **** #include <project.h>  // For UART
  53:app_statemachine.c **** #include <math.h> // TODO: Remove?
  54:app_statemachine.c **** #include <string.h>
  55:app_statemachine.c **** #include <stdio.h>
  56:app_statemachine.c **** 
  57:app_statemachine.c **** // Substates
  58:app_statemachine.c **** #include "app_statemachine.h"
  59:app_statemachine.c **** #include "app_state_stby.h"
  60:app_statemachine.c **** #include "app_state_manu.h"
  61:app_statemachine.c **** #include "app_state_auto.h"
  62:app_statemachine.c **** #include "app_state_error.h"
  63:app_statemachine.c **** 
  64:app_statemachine.c **** // For timing, PSoC incremented with looptimer ISR.
  65:app_statemachine.c **** extern volatile uint32_t g_tick_ms;
  66:app_statemachine.c **** 
  67:app_statemachine.c **** // Hierarchy %================================================================%
  68:app_statemachine.c **** // Heirarchy allows shared entry/exit behaviour.
  69:app_statemachine.c **** // ROOT is the base of the walk.
  70:app_statemachine.c **** static const state_t parent_of[STATE_COUNT] = {
  71:app_statemachine.c ****     [ROOT]            = ROOT,  // Book keeping
  72:app_statemachine.c ****     [STBY]            = ROOT,  // Parent states
  73:app_statemachine.c ****     [MANU]            = ROOT,
  74:app_statemachine.c ****     [AUTO]            = ROOT,
  75:app_statemachine.c ****     [ERROR]           = ROOT,
  76:app_statemachine.c **** 
ARM GAS  C:\Users\yoons\AppData\Local\Temp\cc4JHBmd.s 			page 5


  77:app_statemachine.c ****     [STBY_DEFER]      = STBY,  // Two types of standby
  78:app_statemachine.c ****     [STBY_HOLD]       = STBY,  // Hold and wait
  79:app_statemachine.c **** 
  80:app_statemachine.c ****     [MANU_JOYSTICK]   = MANU,
  81:app_statemachine.c **** 
  82:app_statemachine.c ****     [AUTO_HOME]       = AUTO,  // Go to 0, 0
  83:app_statemachine.c ****     [AUTO_HOLD]       = AUTO,  // Hold but accept centroids
  84:app_statemachine.c ****     [AUTO_ACQ_GPS]    = AUTO,  // Go to GPS vector pointing
  85:app_statemachine.c ****     [AUTO_ACQ_SPIRAL] = AUTO,  // Spiral search for lock
  86:app_statemachine.c ****     [AUTO_TRACKING]   = AUTO,  // Closed loop tracking
  87:app_statemachine.c ****     [AUTO_LOSS]       = AUTO,  // Loss of centeroiding packets
  88:app_statemachine.c ****     [AUTO_NO_LOCK]    = AUTO,  // No lock after ACQ attempts
  89:app_statemachine.c **** 
  90:app_statemachine.c ****     [ERROR_ACTIVE]    = ERROR,  // Error state. TODO: Severity levels.
  91:app_statemachine.c ****     [ERROR_KILL]      = ERROR,  // Sends kill to gimbal.
  92:app_statemachine.c **** };
  93:app_statemachine.c **** 
  94:app_statemachine.c **** // Hook table type forward declaration
  95:app_statemachine.c **** typedef void    (*state_fn_t)(app_ctx_t *);         // Entry and Exit handlers
  96:app_statemachine.c **** typedef uint8_t (*key_fn_t)  (app_ctx_t *, char);   // Input handlers
  97:app_statemachine.c **** typedef void    (*build_fn_t)(const app_ctx_t *, hamfly_control_t *); //Packet
  98:app_statemachine.c **** typedef uint8_t (*guard_fn_t)(const app_ctx_t *);   // 1=valid, 0=refuse
  99:app_statemachine.c **** 
 100:app_statemachine.c **** // %==========================================================================%
 101:app_statemachine.c **** // %                          Dispatch tables                                 %
 102:app_statemachine.c **** // %==========================================================================%
 103:app_statemachine.c **** // All handler symbols are declared in their respective app_state_*.h headers.
 104:app_statemachine.c **** 
 105:app_statemachine.c **** // Table of entry guards.
 106:app_statemachine.c **** static const guard_fn_t can_enter[STATE_COUNT] = {
 107:app_statemachine.c ****     [MANU_JOYSTICK] = guard_manu_joystick,
 108:app_statemachine.c ****     [AUTO]         = guard_auto_parent,   // need gimbal telemetry to enter
 109:app_statemachine.c ****     [AUTO_HOME]    = guard_auto_home,     // needs origin set + live telemetry
 110:app_statemachine.c ****     [AUTO_ACQ_GPS] = guard_auto_acq_gps,  // needs a GPS target
 111:app_statemachine.c **** };
 112:app_statemachine.c **** 
 113:app_statemachine.c **** // Table of on-entry functions.
 114:app_statemachine.c **** static const state_fn_t on_entry[STATE_COUNT] = {
 115:app_statemachine.c ****     [STBY]            = NULL,   // parent: shared STBY entry, if ever needed
 116:app_statemachine.c ****     [MANU]            = NULL,   // parent
 117:app_statemachine.c ****     [AUTO]            = NULL,   // parent
 118:app_statemachine.c ****     [ERROR]           = NULL,   // parent
 119:app_statemachine.c ****     [STBY_DEFER]      = entry_stby_defer,
 120:app_statemachine.c ****     [STBY_HOLD]       = entry_stby_hold,
 121:app_statemachine.c ****     [MANU_JOYSTICK]   = entry_manu_joystick,
 122:app_statemachine.c ****     [AUTO_HOME]       = entry_auto_home,
 123:app_statemachine.c ****     [AUTO_HOLD]       = entry_auto_hold,
 124:app_statemachine.c ****     [AUTO_ACQ_GPS]    = entry_auto_acq_gps,
 125:app_statemachine.c ****     [AUTO_ACQ_SPIRAL] = entry_auto_acq_spiral,
 126:app_statemachine.c ****     [AUTO_TRACKING]   = entry_auto_tracking,
 127:app_statemachine.c ****     [AUTO_LOSS]       = entry_auto_loss,
 128:app_statemachine.c ****     [AUTO_NO_LOCK]    = entry_auto_no_lock,
 129:app_statemachine.c ****     [ERROR_ACTIVE]    = entry_error_active,
 130:app_statemachine.c ****     [ERROR_KILL]      = entry_error_kill,
 131:app_statemachine.c **** };
 132:app_statemachine.c **** 
 133:app_statemachine.c **** static const state_fn_t on_exit[STATE_COUNT] = {
ARM GAS  C:\Users\yoons\AppData\Local\Temp\cc4JHBmd.s 			page 6


 134:app_statemachine.c ****     [STBY]            = NULL,   // parent
 135:app_statemachine.c ****     [MANU]            = NULL,   // parent
 136:app_statemachine.c ****     [AUTO]            = NULL,   // parent
 137:app_statemachine.c ****     [ERROR]           = NULL,   // parent
 138:app_statemachine.c ****     [STBY_DEFER]      = NULL,
 139:app_statemachine.c ****     [STBY_HOLD]       = NULL,
 140:app_statemachine.c ****     [MANU_JOYSTICK]   = exit_manu_joystick,
 141:app_statemachine.c ****     [AUTO_HOME]       = exit_auto_home,
 142:app_statemachine.c ****     [AUTO_HOLD]       = NULL,
 143:app_statemachine.c ****     [AUTO_ACQ_GPS]    = exit_auto_acq_gps,
 144:app_statemachine.c ****     [AUTO_ACQ_SPIRAL] = NULL,   // TODO
 145:app_statemachine.c ****     [AUTO_TRACKING]   = NULL,   // TODO
 146:app_statemachine.c ****     [AUTO_LOSS]       = NULL,   // TODO
 147:app_statemachine.c ****     [AUTO_NO_LOCK]    = NULL,   // TODO
 148:app_statemachine.c ****     [ERROR_ACTIVE]    = NULL,   // TODO
 149:app_statemachine.c ****     [ERROR_KILL]      = NULL,
 150:app_statemachine.c **** };
 151:app_statemachine.c **** 
 152:app_statemachine.c **** // For key handling over serial
 153:app_statemachine.c **** // Will be superceded by auto flow conditions and SBC commands.
 154:app_statemachine.c **** static const key_fn_t on_key[STATE_COUNT] = {
 155:app_statemachine.c ****     [STBY_DEFER]      = NULL,  // TODO
 156:app_statemachine.c ****     [STBY_HOLD]       = key_stby_hold ,  // TODO
 157:app_statemachine.c ****     [MANU_JOYSTICK]   = key_manu_joystick,
 158:app_statemachine.c ****     [AUTO_HOME]       = key_auto_home,
 159:app_statemachine.c ****     [AUTO_HOLD]       = key_auto_hold,
 160:app_statemachine.c ****     [AUTO_ACQ_GPS]    = key_auto_acq_gps,
 161:app_statemachine.c ****     [AUTO_ACQ_SPIRAL] = NULL,  // TODO
 162:app_statemachine.c ****     [AUTO_TRACKING]   = key_auto_tracking,
 163:app_statemachine.c ****     [AUTO_LOSS]       = key_auto_loss,
 164:app_statemachine.c ****     [AUTO_NO_LOCK]    = key_auto_no_lock,
 165:app_statemachine.c ****     [ERROR_ACTIVE]    = key_error_active,
 166:app_statemachine.c ****     [ERROR_KILL]      = key_error_kill,
 167:app_statemachine.c **** };
 168:app_statemachine.c **** 
 169:app_statemachine.c **** static const build_fn_t on_build[STATE_COUNT] = {
 170:app_statemachine.c ****     [STBY_DEFER]      = build_defer,
 171:app_statemachine.c ****     [STBY_HOLD]       = build_hold,
 172:app_statemachine.c ****     [MANU_JOYSTICK]   = build_manu_joystick,  // NOTE: Nudge folded into joysticl leaf.
 173:app_statemachine.c ****     [AUTO_HOME]       = build_auto_home,
 174:app_statemachine.c ****     [AUTO_HOLD]       = build_hold,
 175:app_statemachine.c ****     [AUTO_ACQ_GPS]    = build_auto_acq_gps,
 176:app_statemachine.c ****     [AUTO_ACQ_SPIRAL] = build_hold,          // placeholder: zero rates, hold
 177:app_statemachine.c ****     [AUTO_TRACKING]   = build_auto_tracking,
 178:app_statemachine.c ****     [AUTO_LOSS]       = build_hold,          // placeholder: hold position
 179:app_statemachine.c ****     [AUTO_NO_LOCK]    = build_hold,          // placeholder: hold position
 180:app_statemachine.c ****     [ERROR_ACTIVE]    = build_error,
 181:app_statemachine.c ****     [ERROR_KILL]      = build_error,
 182:app_statemachine.c **** };
 183:app_statemachine.c **** 
 184:app_statemachine.c **** // %==========================================================================%
 185:app_statemachine.c **** // %                              LCA walk                                    %
 186:app_statemachine.c **** // %==========================================================================%
 187:app_statemachine.c **** // Lowest Common Ancestor (LCA) allows for the relevant exit and entry action
 188:app_statemachine.c **** // cascate occurs as needed to get between heirarchecal leafs. For a given 
 189:app_statemachine.c **** // state, walk up its parents to ROOT, then walk down to incoming state.
 190:app_statemachine.c **** // Allows for heirarchical and shared entry/exit behaviour.
ARM GAS  C:\Users\yoons\AppData\Local\Temp\cc4JHBmd.s 			page 7


 191:app_statemachine.c **** 
 192:app_statemachine.c **** static uint8_t depth_of(state_t s)
 193:app_statemachine.c **** {
 137              		.loc 1 193 0
 138              		.cfi_startproc
 139              		@ args = 0, pretend = 0, frame = 16
 140              		@ frame_needed = 1, uses_anonymous_args = 0
 141              		@ link register save eliminated.
 142 0000 80B4     		push	{r7}
 143              		.cfi_def_cfa_offset 4
 144              		.cfi_offset 7, -4
 145 0002 85B0     		sub	sp, sp, #20
 146              		.cfi_def_cfa_offset 24
 147 0004 00AF     		add	r7, sp, #0
 148              		.cfi_def_cfa_register 7
 149 0006 0346     		mov	r3, r0
 150 0008 FB71     		strb	r3, [r7, #7]
 194:app_statemachine.c ****     uint8_t d = 0;
 151              		.loc 1 194 0
 152 000a 0023     		movs	r3, #0
 153 000c FB73     		strb	r3, [r7, #15]
 195:app_statemachine.c ****     while (s != ROOT) { s = parent_of[s]; d++; }
 154              		.loc 1 195 0
 155 000e 06E0     		b	.L2
 156              	.L3:
 157              		.loc 1 195 0 is_stmt 0 discriminator 2
 158 0010 FB79     		ldrb	r3, [r7, #7]	@ zero_extendqisi2
 159 0012 074A     		ldr	r2, .L5
 160 0014 D35C     		ldrb	r3, [r2, r3]
 161 0016 FB71     		strb	r3, [r7, #7]
 162 0018 FB7B     		ldrb	r3, [r7, #15]	@ zero_extendqisi2
 163 001a 0133     		adds	r3, r3, #1
 164 001c FB73     		strb	r3, [r7, #15]
 165              	.L2:
 166              		.loc 1 195 0 discriminator 1
 167 001e FB79     		ldrb	r3, [r7, #7]	@ zero_extendqisi2
 168 0020 002B     		cmp	r3, #0
 169 0022 F5D1     		bne	.L3
 196:app_statemachine.c ****     return d;
 170              		.loc 1 196 0 is_stmt 1
 171 0024 FB7B     		ldrb	r3, [r7, #15]	@ zero_extendqisi2
 197:app_statemachine.c **** }
 172              		.loc 1 197 0
 173 0026 1846     		mov	r0, r3
 174 0028 1437     		adds	r7, r7, #20
 175              		.cfi_def_cfa_offset 4
 176 002a BD46     		mov	sp, r7
 177              		.cfi_def_cfa_register 13
 178              		@ sp needed
 179 002c 80BC     		pop	{r7}
 180              		.cfi_restore 7
 181              		.cfi_def_cfa_offset 0
 182 002e 7047     		bx	lr
 183              	.L6:
 184              		.align	2
 185              	.L5:
 186 0030 00000000 		.word	parent_of
ARM GAS  C:\Users\yoons\AppData\Local\Temp\cc4JHBmd.s 			page 8


 187              		.cfi_endproc
 188              	.LFE64:
 189              		.size	depth_of, .-depth_of
 190              		.section	.text.lca,"ax",%progbits
 191              		.align	2
 192              		.thumb
 193              		.thumb_func
 194              		.type	lca, %function
 195              	lca:
 196              	.LFB65:
 198:app_statemachine.c **** 
 199:app_statemachine.c **** static state_t lca(state_t a, state_t b)
 200:app_statemachine.c **** {
 197              		.loc 1 200 0
 198              		.cfi_startproc
 199              		@ args = 0, pretend = 0, frame = 16
 200              		@ frame_needed = 1, uses_anonymous_args = 0
 201 0000 80B5     		push	{r7, lr}
 202              		.cfi_def_cfa_offset 8
 203              		.cfi_offset 7, -8
 204              		.cfi_offset 14, -4
 205 0002 84B0     		sub	sp, sp, #16
 206              		.cfi_def_cfa_offset 24
 207 0004 00AF     		add	r7, sp, #0
 208              		.cfi_def_cfa_register 7
 209 0006 0346     		mov	r3, r0
 210 0008 0A46     		mov	r2, r1
 211 000a FB71     		strb	r3, [r7, #7]
 212 000c 1346     		mov	r3, r2
 213 000e BB71     		strb	r3, [r7, #6]
 201:app_statemachine.c ****     uint8_t da = depth_of(a), db = depth_of(b);
 214              		.loc 1 201 0
 215 0010 FB79     		ldrb	r3, [r7, #7]	@ zero_extendqisi2
 216 0012 1846     		mov	r0, r3
 217 0014 FFF7FEFF 		bl	depth_of
 218 0018 0346     		mov	r3, r0
 219 001a FB73     		strb	r3, [r7, #15]
 220 001c BB79     		ldrb	r3, [r7, #6]	@ zero_extendqisi2
 221 001e 1846     		mov	r0, r3
 222 0020 FFF7FEFF 		bl	depth_of
 223 0024 0346     		mov	r3, r0
 224 0026 BB73     		strb	r3, [r7, #14]
 202:app_statemachine.c ****     while (da > db) { a = parent_of[a]; da--; }
 225              		.loc 1 202 0
 226 0028 06E0     		b	.L8
 227              	.L9:
 228              		.loc 1 202 0 is_stmt 0 discriminator 2
 229 002a FB79     		ldrb	r3, [r7, #7]	@ zero_extendqisi2
 230 002c 134A     		ldr	r2, .L15
 231 002e D35C     		ldrb	r3, [r2, r3]
 232 0030 FB71     		strb	r3, [r7, #7]
 233 0032 FB7B     		ldrb	r3, [r7, #15]	@ zero_extendqisi2
 234 0034 013B     		subs	r3, r3, #1
 235 0036 FB73     		strb	r3, [r7, #15]
 236              	.L8:
 237              		.loc 1 202 0 discriminator 1
 238 0038 FA7B     		ldrb	r2, [r7, #15]	@ zero_extendqisi2
ARM GAS  C:\Users\yoons\AppData\Local\Temp\cc4JHBmd.s 			page 9


 239 003a BB7B     		ldrb	r3, [r7, #14]	@ zero_extendqisi2
 240 003c 9A42     		cmp	r2, r3
 241 003e F4D8     		bhi	.L9
 203:app_statemachine.c ****     while (db > da) { b = parent_of[b]; db--; }
 242              		.loc 1 203 0 is_stmt 1
 243 0040 06E0     		b	.L10
 244              	.L11:
 245              		.loc 1 203 0 is_stmt 0 discriminator 2
 246 0042 BB79     		ldrb	r3, [r7, #6]	@ zero_extendqisi2
 247 0044 0D4A     		ldr	r2, .L15
 248 0046 D35C     		ldrb	r3, [r2, r3]
 249 0048 BB71     		strb	r3, [r7, #6]
 250 004a BB7B     		ldrb	r3, [r7, #14]	@ zero_extendqisi2
 251 004c 013B     		subs	r3, r3, #1
 252 004e BB73     		strb	r3, [r7, #14]
 253              	.L10:
 254              		.loc 1 203 0 discriminator 1
 255 0050 BA7B     		ldrb	r2, [r7, #14]	@ zero_extendqisi2
 256 0052 FB7B     		ldrb	r3, [r7, #15]	@ zero_extendqisi2
 257 0054 9A42     		cmp	r2, r3
 258 0056 F4D8     		bhi	.L11
 204:app_statemachine.c ****     while (a != b)  { a = parent_of[a]; b = parent_of[b]; }
 259              		.loc 1 204 0 is_stmt 1
 260 0058 07E0     		b	.L12
 261              	.L13:
 262              		.loc 1 204 0 is_stmt 0 discriminator 2
 263 005a FB79     		ldrb	r3, [r7, #7]	@ zero_extendqisi2
 264 005c 074A     		ldr	r2, .L15
 265 005e D35C     		ldrb	r3, [r2, r3]
 266 0060 FB71     		strb	r3, [r7, #7]
 267 0062 BB79     		ldrb	r3, [r7, #6]	@ zero_extendqisi2
 268 0064 054A     		ldr	r2, .L15
 269 0066 D35C     		ldrb	r3, [r2, r3]
 270 0068 BB71     		strb	r3, [r7, #6]
 271              	.L12:
 272              		.loc 1 204 0 discriminator 1
 273 006a FA79     		ldrb	r2, [r7, #7]	@ zero_extendqisi2
 274 006c BB79     		ldrb	r3, [r7, #6]	@ zero_extendqisi2
 275 006e 9A42     		cmp	r2, r3
 276 0070 F3D1     		bne	.L13
 205:app_statemachine.c ****     return a;
 277              		.loc 1 205 0 is_stmt 1
 278 0072 FB79     		ldrb	r3, [r7, #7]	@ zero_extendqisi2
 206:app_statemachine.c **** }
 279              		.loc 1 206 0
 280 0074 1846     		mov	r0, r3
 281 0076 1037     		adds	r7, r7, #16
 282              		.cfi_def_cfa_offset 8
 283 0078 BD46     		mov	sp, r7
 284              		.cfi_def_cfa_register 13
 285              		@ sp needed
 286 007a 80BD     		pop	{r7, pc}
 287              	.L16:
 288              		.align	2
 289              	.L15:
 290 007c 00000000 		.word	parent_of
 291              		.cfi_endproc
ARM GAS  C:\Users\yoons\AppData\Local\Temp\cc4JHBmd.s 			page 10


 292              	.LFE65:
 293              		.size	lca, .-lca
 294              		.section	.rodata
 295              		.align	2
 296              	.LC0:
 297 0168 5B444247 		.ascii	"[DBG] auto_flow=1\015\012\000"
 297      5D206175 
 297      746F5F66 
 297      6C6F773D 
 297      310D0A00 
 298              		.align	2
 299              	.LC1:
 300 017c 5B444247 		.ascii	"[DBG] auto_flow=0\015\012\000"
 300      5D206175 
 300      746F5F66 
 300      6C6F773D 
 300      300D0A00 
 301              		.align	2
 302              	.LC2:
 303 0190 5B46534D 		.ascii	"[FSM] entry guard failed -> STBY_HOLD\015\012\000"
 303      5D20656E 
 303      74727920 
 303      67756172 
 303      64206661 
 304              		.section	.text.app_transition,"ax",%progbits
 305              		.align	2
 306              		.global	app_transition
 307              		.thumb
 308              		.thumb_func
 309              		.type	app_transition, %function
 310              	app_transition:
 311              	.LFB66:
 207:app_statemachine.c **** 
 208:app_statemachine.c **** // Transition driver %========================================================%
 209:app_statemachine.c **** // Walk src up to LCA (running on_exit), then LCA down to target (running
 210:app_statemachine.c **** // on_entry). Self-transitions are a no-op. ROOT is the absorbing root, so
 211:app_statemachine.c **** // any pair has an LCA.
 212:app_statemachine.c **** 
 213:app_statemachine.c **** void app_transition(app_ctx_t *ctx, state_t target)
 214:app_statemachine.c **** {
 312              		.loc 1 214 0
 313              		.cfi_startproc
 314              		@ args = 0, pretend = 0, frame = 24
 315              		@ frame_needed = 1, uses_anonymous_args = 0
 316 0000 80B5     		push	{r7, lr}
 317              		.cfi_def_cfa_offset 8
 318              		.cfi_offset 7, -8
 319              		.cfi_offset 14, -4
 320 0002 86B0     		sub	sp, sp, #24
 321              		.cfi_def_cfa_offset 32
 322 0004 00AF     		add	r7, sp, #0
 323              		.cfi_def_cfa_register 7
 324 0006 7860     		str	r0, [r7, #4]
 325 0008 0B46     		mov	r3, r1
 326 000a FB70     		strb	r3, [r7, #3]
 215:app_statemachine.c ****     // Check auto state flow pin
 216:app_statemachine.c ****     ctx->auto_flow = (Pin_SwitchAuto_Read() == 1u) ? 1u : 0u;
ARM GAS  C:\Users\yoons\AppData\Local\Temp\cc4JHBmd.s 			page 11


 327              		.loc 1 216 0
 328 000c FFF7FEFF 		bl	Pin_SwitchAuto_Read
 329 0010 0346     		mov	r3, r0
 330 0012 012B     		cmp	r3, #1
 331 0014 01D1     		bne	.L18
 332              		.loc 1 216 0 is_stmt 0 discriminator 1
 333 0016 0122     		movs	r2, #1
 334 0018 00E0     		b	.L19
 335              	.L18:
 336              		.loc 1 216 0 discriminator 2
 337 001a 0022     		movs	r2, #0
 338              	.L19:
 339              		.loc 1 216 0 discriminator 4
 340 001c 7B68     		ldr	r3, [r7, #4]
 341 001e 9A71     		strb	r2, [r3, #6]
 217:app_statemachine.c ****     UART_DEBUG_PutString(ctx->auto_flow ? "[DBG] auto_flow=1\r\n" : "[DBG] auto_flow=0\r\n");
 342              		.loc 1 217 0 is_stmt 1 discriminator 4
 343 0020 7B68     		ldr	r3, [r7, #4]
 344 0022 9B79     		ldrb	r3, [r3, #6]	@ zero_extendqisi2
 345 0024 002B     		cmp	r3, #0
 346 0026 01D0     		beq	.L20
 347              		.loc 1 217 0 is_stmt 0 discriminator 1
 348 0028 414B     		ldr	r3, .L33
 349 002a 00E0     		b	.L21
 350              	.L20:
 351              		.loc 1 217 0 discriminator 2
 352 002c 414B     		ldr	r3, .L33+4
 353              	.L21:
 354              		.loc 1 217 0 discriminator 4
 355 002e 1846     		mov	r0, r3
 356 0030 FFF7FEFF 		bl	dbg_put
 218:app_statemachine.c ****     // Check entry guard
 219:app_statemachine.c ****     if (can_enter[target] && !can_enter[target](ctx)) {
 357              		.loc 1 219 0 is_stmt 1 discriminator 4
 358 0034 FB78     		ldrb	r3, [r7, #3]	@ zero_extendqisi2
 359 0036 404A     		ldr	r2, .L33+8
 360 0038 52F82330 		ldr	r3, [r2, r3, lsl #2]
 361 003c 002B     		cmp	r3, #0
 362 003e 0DD0     		beq	.L22
 363              		.loc 1 219 0 is_stmt 0 discriminator 1
 364 0040 FB78     		ldrb	r3, [r7, #3]	@ zero_extendqisi2
 365 0042 3D4A     		ldr	r2, .L33+8
 366 0044 52F82330 		ldr	r3, [r2, r3, lsl #2]
 367 0048 7868     		ldr	r0, [r7, #4]
 368 004a 9847     		blx	r3
 369 004c 0346     		mov	r3, r0
 370 004e 002B     		cmp	r3, #0
 371 0050 04D1     		bne	.L22
 220:app_statemachine.c ****         UART_DEBUG_PutString("[FSM] entry guard failed -> STBY_HOLD\r\n");
 372              		.loc 1 220 0 is_stmt 1
 373 0052 3A48     		ldr	r0, .L33+12
 374 0054 FFF7FEFF 		bl	dbg_put
 221:app_statemachine.c ****         target = STBY_HOLD;
 375              		.loc 1 221 0
 376 0058 0623     		movs	r3, #6
 377 005a FB70     		strb	r3, [r7, #3]
 378              	.L22:
ARM GAS  C:\Users\yoons\AppData\Local\Temp\cc4JHBmd.s 			page 12


 222:app_statemachine.c ****     }
 223:app_statemachine.c ****     
 224:app_statemachine.c ****     // Self transition handle.
 225:app_statemachine.c ****     state_t src = ctx->state;
 379              		.loc 1 225 0
 380 005c 7B68     		ldr	r3, [r7, #4]
 381 005e 1B79     		ldrb	r3, [r3, #4]
 382 0060 3B75     		strb	r3, [r7, #20]
 226:app_statemachine.c ****     if (target == src) return;
 383              		.loc 1 226 0
 384 0062 FA78     		ldrb	r2, [r7, #3]	@ zero_extendqisi2
 385 0064 3B7D     		ldrb	r3, [r7, #20]	@ zero_extendqisi2
 386 0066 9A42     		cmp	r2, r3
 387 0068 5DD0     		beq	.L32
 227:app_statemachine.c ****     
 228:app_statemachine.c ****     // LCA walk.
 229:app_statemachine.c ****     state_t common = lca(src, target);
 388              		.loc 1 229 0
 389 006a FA78     		ldrb	r2, [r7, #3]	@ zero_extendqisi2
 390 006c 3B7D     		ldrb	r3, [r7, #20]	@ zero_extendqisi2
 391 006e 1146     		mov	r1, r2
 392 0070 1846     		mov	r0, r3
 393 0072 FFF7FEFF 		bl	lca
 394 0076 0346     		mov	r3, r0
 395 0078 FB74     		strb	r3, [r7, #19]
 396              	.LBB2:
 230:app_statemachine.c **** 
 231:app_statemachine.c ****     // Shared parents require no duplicate on_exit calls.
 232:app_statemachine.c ****     // Walk up path, running on_exit.
 233:app_statemachine.c ****     for (state_t s = src; s != common; s = parent_of[s]) {
 397              		.loc 1 233 0
 398 007a 3B7D     		ldrb	r3, [r7, #20]
 399 007c FB75     		strb	r3, [r7, #23]
 400 007e 0FE0     		b	.L25
 401              	.L27:
 234:app_statemachine.c ****         if (on_exit[s]) on_exit[s](ctx);
 402              		.loc 1 234 0
 403 0080 FB7D     		ldrb	r3, [r7, #23]	@ zero_extendqisi2
 404 0082 2F4A     		ldr	r2, .L33+16
 405 0084 52F82330 		ldr	r3, [r2, r3, lsl #2]
 406 0088 002B     		cmp	r3, #0
 407 008a 05D0     		beq	.L26
 408              		.loc 1 234 0 is_stmt 0 discriminator 1
 409 008c FB7D     		ldrb	r3, [r7, #23]	@ zero_extendqisi2
 410 008e 2C4A     		ldr	r2, .L33+16
 411 0090 52F82330 		ldr	r3, [r2, r3, lsl #2]
 412 0094 7868     		ldr	r0, [r7, #4]
 413 0096 9847     		blx	r3
 414              	.L26:
 233:app_statemachine.c ****         if (on_exit[s]) on_exit[s](ctx);
 415              		.loc 1 233 0 is_stmt 1 discriminator 2
 416 0098 FB7D     		ldrb	r3, [r7, #23]	@ zero_extendqisi2
 417 009a 2A4A     		ldr	r2, .L33+20
 418 009c D35C     		ldrb	r3, [r2, r3]
 419 009e FB75     		strb	r3, [r7, #23]
 420              	.L25:
 233:app_statemachine.c ****         if (on_exit[s]) on_exit[s](ctx);
ARM GAS  C:\Users\yoons\AppData\Local\Temp\cc4JHBmd.s 			page 13


 421              		.loc 1 233 0 is_stmt 0 discriminator 1
 422 00a0 FA7D     		ldrb	r2, [r7, #23]	@ zero_extendqisi2
 423 00a2 FB7C     		ldrb	r3, [r7, #19]	@ zero_extendqisi2
 424 00a4 9A42     		cmp	r2, r3
 425 00a6 EBD1     		bne	.L27
 426              	.LBE2:
 235:app_statemachine.c ****     }
 236:app_statemachine.c ****     
 237:app_statemachine.c ****     ctx->prev_leaf = src;  // Return to last state book-keeping.
 427              		.loc 1 237 0 is_stmt 1
 428 00a8 7B68     		ldr	r3, [r7, #4]
 429 00aa 3A7D     		ldrb	r2, [r7, #20]
 430 00ac 5A71     		strb	r2, [r3, #5]
 238:app_statemachine.c **** 
 239:app_statemachine.c ****     // Walk down the path, running on_entry.
 240:app_statemachine.c ****     state_t path[MAX_HFSM_DEPTH];
 241:app_statemachine.c ****     uint8_t n = 0;
 431              		.loc 1 241 0
 432 00ae 0023     		movs	r3, #0
 433 00b0 BB75     		strb	r3, [r7, #22]
 434              	.LBB3:
 242:app_statemachine.c ****     for (state_t s = target; s != common; s = parent_of[s]) {
 435              		.loc 1 242 0
 436 00b2 FB78     		ldrb	r3, [r7, #3]
 437 00b4 7B75     		strb	r3, [r7, #21]
 438 00b6 0CE0     		b	.L28
 439              	.L29:
 243:app_statemachine.c ****         path[n++] = s;
 440              		.loc 1 243 0 discriminator 3
 441 00b8 BB7D     		ldrb	r3, [r7, #22]	@ zero_extendqisi2
 442 00ba 5A1C     		adds	r2, r3, #1
 443 00bc BA75     		strb	r2, [r7, #22]
 444 00be 07F11802 		add	r2, r7, #24
 445 00c2 1344     		add	r3, r3, r2
 446 00c4 7A7D     		ldrb	r2, [r7, #21]
 447 00c6 03F80C2C 		strb	r2, [r3, #-12]
 242:app_statemachine.c ****     for (state_t s = target; s != common; s = parent_of[s]) {
 448              		.loc 1 242 0 discriminator 3
 449 00ca 7B7D     		ldrb	r3, [r7, #21]	@ zero_extendqisi2
 450 00cc 1D4A     		ldr	r2, .L33+20
 451 00ce D35C     		ldrb	r3, [r2, r3]
 452 00d0 7B75     		strb	r3, [r7, #21]
 453              	.L28:
 242:app_statemachine.c ****     for (state_t s = target; s != common; s = parent_of[s]) {
 454              		.loc 1 242 0 is_stmt 0 discriminator 1
 455 00d2 7A7D     		ldrb	r2, [r7, #21]	@ zero_extendqisi2
 456 00d4 FB7C     		ldrb	r3, [r7, #19]	@ zero_extendqisi2
 457 00d6 9A42     		cmp	r2, r3
 458 00d8 EED1     		bne	.L29
 459              	.LBE3:
 244:app_statemachine.c ****     }
 245:app_statemachine.c ****     while (n--) {
 460              		.loc 1 245 0 is_stmt 1
 461 00da 17E0     		b	.L30
 462              	.L31:
 246:app_statemachine.c ****         if (on_entry[path[n]]) on_entry[path[n]](ctx);
 463              		.loc 1 246 0
ARM GAS  C:\Users\yoons\AppData\Local\Temp\cc4JHBmd.s 			page 14


 464 00dc BB7D     		ldrb	r3, [r7, #22]	@ zero_extendqisi2
 465 00de 07F11802 		add	r2, r7, #24
 466 00e2 1344     		add	r3, r3, r2
 467 00e4 13F80C3C 		ldrb	r3, [r3, #-12]	@ zero_extendqisi2
 468 00e8 1A46     		mov	r2, r3
 469 00ea 174B     		ldr	r3, .L33+24
 470 00ec 53F82230 		ldr	r3, [r3, r2, lsl #2]
 471 00f0 002B     		cmp	r3, #0
 472 00f2 0BD0     		beq	.L30
 473              		.loc 1 246 0 is_stmt 0 discriminator 1
 474 00f4 BB7D     		ldrb	r3, [r7, #22]	@ zero_extendqisi2
 475 00f6 07F11802 		add	r2, r7, #24
 476 00fa 1344     		add	r3, r3, r2
 477 00fc 13F80C3C 		ldrb	r3, [r3, #-12]	@ zero_extendqisi2
 478 0100 1A46     		mov	r2, r3
 479 0102 114B     		ldr	r3, .L33+24
 480 0104 53F82230 		ldr	r3, [r3, r2, lsl #2]
 481 0108 7868     		ldr	r0, [r7, #4]
 482 010a 9847     		blx	r3
 483              	.L30:
 245:app_statemachine.c ****         if (on_entry[path[n]]) on_entry[path[n]](ctx);
 484              		.loc 1 245 0 is_stmt 1
 485 010c BB7D     		ldrb	r3, [r7, #22]	@ zero_extendqisi2
 486 010e 5A1E     		subs	r2, r3, #1
 487 0110 BA75     		strb	r2, [r7, #22]
 488 0112 002B     		cmp	r3, #0
 489 0114 E2D1     		bne	.L31
 247:app_statemachine.c ****     }
 248:app_statemachine.c ****     
 249:app_statemachine.c ****     // Store new state.
 250:app_statemachine.c ****     ctx->state          = target;
 490              		.loc 1 250 0
 491 0116 7B68     		ldr	r3, [r7, #4]
 492 0118 FA78     		ldrb	r2, [r7, #3]
 493 011a 1A71     		strb	r2, [r3, #4]
 251:app_statemachine.c ****     ctx->state_entry_ms = g_tick_ms;
 494              		.loc 1 251 0
 495 011c 0B4B     		ldr	r3, .L33+28
 496 011e 1A68     		ldr	r2, [r3]
 497 0120 7B68     		ldr	r3, [r7, #4]
 498 0122 DA66     		str	r2, [r3, #108]
 499 0124 00E0     		b	.L17
 500              	.L32:
 226:app_statemachine.c ****     
 501              		.loc 1 226 0
 502 0126 00BF     		nop
 503              	.L17:
 252:app_statemachine.c **** }
 504              		.loc 1 252 0
 505 0128 1837     		adds	r7, r7, #24
 506              		.cfi_def_cfa_offset 8
 507 012a BD46     		mov	sp, r7
 508              		.cfi_def_cfa_register 13
 509              		@ sp needed
 510 012c 80BD     		pop	{r7, pc}
 511              	.L34:
 512 012e 00BF     		.align	2
ARM GAS  C:\Users\yoons\AppData\Local\Temp\cc4JHBmd.s 			page 15


 513              	.L33:
 514 0130 68010000 		.word	.LC0
 515 0134 7C010000 		.word	.LC1
 516 0138 14000000 		.word	can_enter
 517 013c 90010000 		.word	.LC2
 518 0140 9C000000 		.word	on_exit
 519 0144 00000000 		.word	parent_of
 520 0148 58000000 		.word	on_entry
 521 014c 00000000 		.word	g_tick_ms
 522              		.cfi_endproc
 523              	.LFE66:
 524              		.size	app_transition, .-app_transition
 525              		.section	.text.app_start,"ax",%progbits
 526              		.align	2
 527              		.global	app_start
 528              		.thumb
 529              		.thumb_func
 530              		.type	app_start, %function
 531              	app_start:
 532              	.LFB67:
 253:app_statemachine.c **** 
 254:app_statemachine.c **** // On boot.
 255:app_statemachine.c **** void app_start(app_ctx_t *ctx)
 256:app_statemachine.c **** {
 533              		.loc 1 256 0
 534              		.cfi_startproc
 535              		@ args = 0, pretend = 0, frame = 16
 536              		@ frame_needed = 1, uses_anonymous_args = 0
 537 0000 80B5     		push	{r7, lr}
 538              		.cfi_def_cfa_offset 8
 539              		.cfi_offset 7, -8
 540              		.cfi_offset 14, -4
 541 0002 84B0     		sub	sp, sp, #16
 542              		.cfi_def_cfa_offset 24
 543 0004 00AF     		add	r7, sp, #0
 544              		.cfi_def_cfa_register 7
 545 0006 7860     		str	r0, [r7, #4]
 257:app_statemachine.c ****     // Walk entry conditions from ROOT to the init state,
 258:app_statemachine.c ****     state_t target = ctx->state;
 546              		.loc 1 258 0
 547 0008 7B68     		ldr	r3, [r7, #4]
 548 000a 1B79     		ldrb	r3, [r3, #4]
 549 000c FB73     		strb	r3, [r7, #15]
 259:app_statemachine.c ****     ctx->state = ROOT;
 550              		.loc 1 259 0
 551 000e 7B68     		ldr	r3, [r7, #4]
 552 0010 0022     		movs	r2, #0
 553 0012 1A71     		strb	r2, [r3, #4]
 260:app_statemachine.c ****     app_transition(ctx, target);
 554              		.loc 1 260 0
 555 0014 FB7B     		ldrb	r3, [r7, #15]	@ zero_extendqisi2
 556 0016 1946     		mov	r1, r3
 557 0018 7868     		ldr	r0, [r7, #4]
 558 001a FFF7FEFF 		bl	app_transition
 261:app_statemachine.c **** }
 559              		.loc 1 261 0
 560 001e 00BF     		nop
ARM GAS  C:\Users\yoons\AppData\Local\Temp\cc4JHBmd.s 			page 16


 561 0020 1037     		adds	r7, r7, #16
 562              		.cfi_def_cfa_offset 8
 563 0022 BD46     		mov	sp, r7
 564              		.cfi_def_cfa_register 13
 565              		@ sp needed
 566 0024 80BD     		pop	{r7, pc}
 567              		.cfi_endproc
 568              	.LFE67:
 569              		.size	app_start, .-app_start
 570 0026 00BF     		.section	.rodata
 571              		.align	2
 572              	.LC3:
 573 01b8 5B555345 		.ascii	"[USER] \000"
 573      525D2000 
 574              		.align	2
 575              	.LC4:
 576 01c0 0D0A00   		.ascii	"\015\012\000"
 577              		.section	.text.app_raise_error,"ax",%progbits
 578              		.align	2
 579              		.global	app_raise_error
 580              		.thumb
 581              		.thumb_func
 582              		.type	app_raise_error, %function
 583              	app_raise_error:
 584              	.LFB68:
 262:app_statemachine.c **** 
 263:app_statemachine.c **** // On error: Handles severity.
 264:app_statemachine.c **** void app_raise_error(app_ctx_t *ctx, err_sev_t sev, const char *msg)
 265:app_statemachine.c **** {
 585              		.loc 1 265 0
 586              		.cfi_startproc
 587              		@ args = 0, pretend = 0, frame = 16
 588              		@ frame_needed = 1, uses_anonymous_args = 0
 589 0000 80B5     		push	{r7, lr}
 590              		.cfi_def_cfa_offset 8
 591              		.cfi_offset 7, -8
 592              		.cfi_offset 14, -4
 593 0002 84B0     		sub	sp, sp, #16
 594              		.cfi_def_cfa_offset 24
 595 0004 00AF     		add	r7, sp, #0
 596              		.cfi_def_cfa_register 7
 597 0006 F860     		str	r0, [r7, #12]
 598 0008 0B46     		mov	r3, r1
 599 000a 7A60     		str	r2, [r7, #4]
 600 000c FB72     		strb	r3, [r7, #11]
 266:app_statemachine.c ****     // User error: Invalid request, do not change and notify user.
 267:app_statemachine.c ****     if (sev == SEV_USER) {
 601              		.loc 1 267 0
 602 000e FB7A     		ldrb	r3, [r7, #11]	@ zero_extendqisi2
 603 0010 002B     		cmp	r3, #0
 604 0012 09D1     		bne	.L37
 268:app_statemachine.c ****         UART_DEBUG_PutString("[USER] ");
 605              		.loc 1 268 0
 606 0014 1248     		ldr	r0, .L42
 607 0016 FFF7FEFF 		bl	dbg_put
 269:app_statemachine.c ****         UART_DEBUG_PutString(msg);
 608              		.loc 1 269 0
ARM GAS  C:\Users\yoons\AppData\Local\Temp\cc4JHBmd.s 			page 17


 609 001a 7868     		ldr	r0, [r7, #4]
 610 001c FFF7FEFF 		bl	dbg_put
 270:app_statemachine.c ****         UART_DEBUG_PutString("\r\n");
 611              		.loc 1 270 0
 612 0020 1048     		ldr	r0, .L42+4
 613 0022 FFF7FEFF 		bl	dbg_put
 271:app_statemachine.c ****         return;
 614              		.loc 1 271 0
 615 0026 18E0     		b	.L36
 616              	.L37:
 272:app_statemachine.c ****     }
 273:app_statemachine.c ****     
 274:app_statemachine.c ****     // Fatal error flag.
 275:app_statemachine.c ****     if (ctx->fatal_latched && sev != SEV_FATAL) return;
 617              		.loc 1 275 0
 618 0028 FB68     		ldr	r3, [r7, #12]
 619 002a 1B7E     		ldrb	r3, [r3, #24]	@ zero_extendqisi2
 620 002c 002B     		cmp	r3, #0
 621 002e 02D0     		beq	.L39
 622              		.loc 1 275 0 is_stmt 0 discriminator 1
 623 0030 FB7A     		ldrb	r3, [r7, #11]	@ zero_extendqisi2
 624 0032 032B     		cmp	r3, #3
 625 0034 10D1     		bne	.L41
 626              	.L39:
 276:app_statemachine.c ****     
 277:app_statemachine.c ****     ctx->err_sev = sev;
 627              		.loc 1 277 0 is_stmt 1
 628 0036 FB68     		ldr	r3, [r7, #12]
 629 0038 FA7A     		ldrb	r2, [r7, #11]
 630 003a 1A74     		strb	r2, [r3, #16]
 278:app_statemachine.c ****     ctx->err_msg = msg;
 631              		.loc 1 278 0
 632 003c FB68     		ldr	r3, [r7, #12]
 633 003e 7A68     		ldr	r2, [r7, #4]
 634 0040 5A61     		str	r2, [r3, #20]
 279:app_statemachine.c ****     if (sev == SEV_FATAL) ctx->fatal_latched = 1u;
 635              		.loc 1 279 0
 636 0042 FB7A     		ldrb	r3, [r7, #11]	@ zero_extendqisi2
 637 0044 032B     		cmp	r3, #3
 638 0046 02D1     		bne	.L40
 639              		.loc 1 279 0 is_stmt 0 discriminator 1
 640 0048 FB68     		ldr	r3, [r7, #12]
 641 004a 0122     		movs	r2, #1
 642 004c 1A76     		strb	r2, [r3, #24]
 643              	.L40:
 280:app_statemachine.c ****     
 281:app_statemachine.c ****     app_transition(ctx, ERROR_ACTIVE);  // Go to error state.
 644              		.loc 1 281 0 is_stmt 1
 645 004e 0F21     		movs	r1, #15
 646 0050 F868     		ldr	r0, [r7, #12]
 647 0052 FFF7FEFF 		bl	app_transition
 648 0056 00E0     		b	.L36
 649              	.L41:
 275:app_statemachine.c ****     
 650              		.loc 1 275 0
 651 0058 00BF     		nop
 652              	.L36:
ARM GAS  C:\Users\yoons\AppData\Local\Temp\cc4JHBmd.s 			page 18


 282:app_statemachine.c **** }
 653              		.loc 1 282 0
 654 005a 1037     		adds	r7, r7, #16
 655              		.cfi_def_cfa_offset 8
 656 005c BD46     		mov	sp, r7
 657              		.cfi_def_cfa_register 13
 658              		@ sp needed
 659 005e 80BD     		pop	{r7, pc}
 660              	.L43:
 661              		.align	2
 662              	.L42:
 663 0060 B8010000 		.word	.LC3
 664 0064 C0010000 		.word	.LC4
 665              		.cfi_endproc
 666              	.LFE68:
 667              		.size	app_raise_error, .-app_raise_error
 668              		.section	.rodata
 669 01c3 00       		.align	2
 670              	.LC5:
 671 01c4 524F4F54 		.ascii	"ROOT\000"
 671      00
 672 01c9 000000   		.align	2
 673              	.LC6:
 674 01cc 53544259 		.ascii	"STBY\000"
 674      00
 675 01d1 000000   		.align	2
 676              	.LC7:
 677 01d4 4D414E55 		.ascii	"MANU\000"
 677      00
 678 01d9 000000   		.align	2
 679              	.LC8:
 680 01dc 4155544F 		.ascii	"AUTO\000"
 680      00
 681 01e1 000000   		.align	2
 682              	.LC9:
 683 01e4 4552524F 		.ascii	"ERROR\000"
 683      5200
 684 01ea 0000     		.align	2
 685              	.LC10:
 686 01ec 53544259 		.ascii	"STBY_DEFER\000"
 686      5F444546 
 686      455200
 687 01f7 00       		.align	2
 688              	.LC11:
 689 01f8 53544259 		.ascii	"STBY_HOLD\000"
 689      5F484F4C 
 689      4400
 690 0202 0000     		.align	2
 691              	.LC12:
 692 0204 4D414E55 		.ascii	"MANU_JOYSTICK\000"
 692      5F4A4F59 
 692      53544943 
 692      4B00
 693 0212 0000     		.align	2
 694              	.LC13:
 695 0214 4155544F 		.ascii	"AUTO_HOME\000"
 695      5F484F4D 
ARM GAS  C:\Users\yoons\AppData\Local\Temp\cc4JHBmd.s 			page 19


 695      4500
 696 021e 0000     		.align	2
 697              	.LC14:
 698 0220 4155544F 		.ascii	"AUTO_ACQ_GPS\000"
 698      5F414351 
 698      5F475053 
 698      00
 699 022d 000000   		.align	2
 700              	.LC15:
 701 0230 4155544F 		.ascii	"AUTO_ACQ_SPIRAL\000"
 701      5F414351 
 701      5F535049 
 701      52414C00 
 702              		.align	2
 703              	.LC16:
 704 0240 4155544F 		.ascii	"AUTO_TRACKING\000"
 704      5F545241 
 704      434B494E 
 704      4700
 705 024e 0000     		.align	2
 706              	.LC17:
 707 0250 4155544F 		.ascii	"AUTO_LOSS\000"
 707      5F4C4F53 
 707      5300
 708 025a 0000     		.align	2
 709              	.LC18:
 710 025c 4155544F 		.ascii	"AUTO_NO_LOCK\000"
 710      5F4E4F5F 
 710      4C4F434B 
 710      00
 711 0269 000000   		.align	2
 712              	.LC19:
 713 026c 4552524F 		.ascii	"ERROR_ACTIVE\000"
 713      525F4143 
 713      54495645 
 713      00
 714 0279 000000   		.align	2
 715              		.type	state_names, %object
 716              		.size	state_names, 68
 717              	state_names:
 718 027c C4010000 		.word	.LC5
 719 0280 CC010000 		.word	.LC6
 720 0284 D4010000 		.word	.LC7
 721 0288 DC010000 		.word	.LC8
 722 028c E4010000 		.word	.LC9
 723 0290 EC010000 		.word	.LC10
 724 0294 F8010000 		.word	.LC11
 725 0298 04020000 		.word	.LC12
 726 029c 14020000 		.word	.LC13
 727 02a0 00000000 		.space	4
 728 02a4 20020000 		.word	.LC14
 729 02a8 30020000 		.word	.LC15
 730 02ac 40020000 		.word	.LC16
 731 02b0 50020000 		.word	.LC17
 732 02b4 5C020000 		.word	.LC18
 733 02b8 6C020000 		.word	.LC19
 734 02bc 00000000 		.space	4
ARM GAS  C:\Users\yoons\AppData\Local\Temp\cc4JHBmd.s 			page 20


 735              		.section	.text.app_state_name,"ax",%progbits
 736              		.align	2
 737              		.global	app_state_name
 738              		.thumb
 739              		.thumb_func
 740              		.type	app_state_name, %function
 741              	app_state_name:
 742              	.LFB69:
 283:app_statemachine.c **** 
 284:app_statemachine.c **** // %==========================================================================%
 285:app_statemachine.c **** // %                            State names                                   %
 286:app_statemachine.c **** // %==========================================================================%
 287:app_statemachine.c **** static const char *const state_names[STATE_COUNT] = {
 288:app_statemachine.c ****     [ROOT] = "ROOT",
 289:app_statemachine.c ****     [STBY] = "STBY", [MANU] = "MANU", [AUTO] = "AUTO", [ERROR] = "ERROR",
 290:app_statemachine.c ****     [STBY_DEFER]      = "STBY_DEFER",
 291:app_statemachine.c ****     [STBY_HOLD]       = "STBY_HOLD",
 292:app_statemachine.c ****     [MANU_JOYSTICK]   = "MANU_JOYSTICK",
 293:app_statemachine.c ****     [AUTO_HOME]       = "AUTO_HOME",
 294:app_statemachine.c ****     [AUTO_ACQ_GPS]    = "AUTO_ACQ_GPS",
 295:app_statemachine.c ****     [AUTO_ACQ_SPIRAL] = "AUTO_ACQ_SPIRAL",
 296:app_statemachine.c ****     [AUTO_TRACKING]   = "AUTO_TRACKING",
 297:app_statemachine.c ****     [AUTO_LOSS]       = "AUTO_LOSS",
 298:app_statemachine.c ****     [AUTO_NO_LOCK]    = "AUTO_NO_LOCK",
 299:app_statemachine.c ****     [ERROR_ACTIVE]    = "ERROR_ACTIVE",
 300:app_statemachine.c **** };
 301:app_statemachine.c **** 
 302:app_statemachine.c **** // Helper for serial monitor.
 303:app_statemachine.c **** const char *app_state_name(state_t s) { return state_names[s]; }
 743              		.loc 1 303 0
 744              		.cfi_startproc
 745              		@ args = 0, pretend = 0, frame = 8
 746              		@ frame_needed = 1, uses_anonymous_args = 0
 747              		@ link register save eliminated.
 748 0000 80B4     		push	{r7}
 749              		.cfi_def_cfa_offset 4
 750              		.cfi_offset 7, -4
 751 0002 83B0     		sub	sp, sp, #12
 752              		.cfi_def_cfa_offset 16
 753 0004 00AF     		add	r7, sp, #0
 754              		.cfi_def_cfa_register 7
 755 0006 0346     		mov	r3, r0
 756 0008 FB71     		strb	r3, [r7, #7]
 757              		.loc 1 303 0
 758 000a FB79     		ldrb	r3, [r7, #7]	@ zero_extendqisi2
 759 000c 034A     		ldr	r2, .L46
 760 000e 52F82330 		ldr	r3, [r2, r3, lsl #2]
 761 0012 1846     		mov	r0, r3
 762 0014 0C37     		adds	r7, r7, #12
 763              		.cfi_def_cfa_offset 4
 764 0016 BD46     		mov	sp, r7
 765              		.cfi_def_cfa_register 13
 766              		@ sp needed
 767 0018 80BC     		pop	{r7}
 768              		.cfi_restore 7
 769              		.cfi_def_cfa_offset 0
 770 001a 7047     		bx	lr
ARM GAS  C:\Users\yoons\AppData\Local\Temp\cc4JHBmd.s 			page 21


 771              	.L47:
 772              		.align	2
 773              	.L46:
 774 001c 7C020000 		.word	state_names
 775              		.cfi_endproc
 776              	.LFE69:
 777              		.size	app_state_name, .-app_state_name
 778              		.section	.text.app_telem_tick,"ax",%progbits
 779              		.align	2
 780              		.global	app_telem_tick
 781              		.thumb
 782              		.thumb_func
 783              		.type	app_telem_tick, %function
 784              	app_telem_tick:
 785              	.LFB70:
 304:app_statemachine.c **** 
 305:app_statemachine.c **** 
 306:app_statemachine.c **** // %==========================================================================%
 307:app_statemachine.c **** // %                              Telemetry                                   %
 308:app_statemachine.c **** // %==========================================================================%
 309:app_statemachine.c **** void app_telem_tick(app_ctx_t *ctx)
 310:app_statemachine.c **** {
 786              		.loc 1 310 0
 787              		.cfi_startproc
 788              		@ args = 0, pretend = 0, frame = 8
 789              		@ frame_needed = 1, uses_anonymous_args = 0
 790 0000 80B5     		push	{r7, lr}
 791              		.cfi_def_cfa_offset 8
 792              		.cfi_offset 7, -8
 793              		.cfi_offset 14, -4
 794 0002 82B0     		sub	sp, sp, #8
 795              		.cfi_def_cfa_offset 16
 796 0004 00AF     		add	r7, sp, #0
 797              		.cfi_def_cfa_register 7
 798 0006 7860     		str	r0, [r7, #4]
 311:app_statemachine.c ****     // Do the telemetry grabs if gimble connected
 312:app_statemachine.c ****     if (!ctx->gimbal) return;
 799              		.loc 1 312 0
 800 0008 7B68     		ldr	r3, [r7, #4]
 801 000a 1B68     		ldr	r3, [r3]
 802 000c 002B     		cmp	r3, #0
 803 000e 2DD0     		beq	.L52
 313:app_statemachine.c ****     
 314:app_statemachine.c ****     static uint32_t last_hot_ms  = 0u;  // Hot is the Movi status
 315:app_statemachine.c ****     static uint32_t last_link_ms = 0u;  // Cold are all other sensors
 316:app_statemachine.c ****     if (g_tick_ms - last_hot_ms  >= CONTROL_PERIOD_MS) {  //  10 Hz
 804              		.loc 1 316 0
 805 0010 184B     		ldr	r3, .L53
 806 0012 1A68     		ldr	r2, [r3]
 807 0014 184B     		ldr	r3, .L53+4
 808 0016 1B68     		ldr	r3, [r3]
 809 0018 D31A     		subs	r3, r2, r3
 810 001a 632B     		cmp	r3, #99
 811 001c 06D9     		bls	.L51
 317:app_statemachine.c ****         last_hot_ms = g_tick_ms;
 812              		.loc 1 317 0
 813 001e 154B     		ldr	r3, .L53
ARM GAS  C:\Users\yoons\AppData\Local\Temp\cc4JHBmd.s 			page 22


 814 0020 1B68     		ldr	r3, [r3]
 815 0022 154A     		ldr	r2, .L53+4
 816 0024 1360     		str	r3, [r2]
 318:app_statemachine.c ****         telemetry_send_hot_sbc(ctx);
 817              		.loc 1 318 0
 818 0026 7868     		ldr	r0, [r7, #4]
 819 0028 FFF7FEFF 		bl	telemetry_send_hot_sbc
 820              	.L51:
 319:app_statemachine.c ****     }
 320:app_statemachine.c ****     if (g_tick_ms - last_link_ms >= DIAG_PERIOD_MS) {     //  1 Hz
 821              		.loc 1 320 0
 822 002c 114B     		ldr	r3, .L53
 823 002e 1A68     		ldr	r2, [r3]
 824 0030 124B     		ldr	r3, .L53+8
 825 0032 1B68     		ldr	r3, [r3]
 826 0034 D31A     		subs	r3, r2, r3
 827 0036 41F28732 		movw	r2, #4999
 828 003a 9342     		cmp	r3, r2
 829 003c 17D9     		bls	.L48
 321:app_statemachine.c ****         last_link_ms = g_tick_ms;
 830              		.loc 1 321 0
 831 003e 0D4B     		ldr	r3, .L53
 832 0040 1B68     		ldr	r3, [r3]
 833 0042 0E4A     		ldr	r2, .L53+8
 834 0044 1360     		str	r3, [r2]
 322:app_statemachine.c ****         telemetry_send_link_sbc(ctx);  // These each only excecute if scheduled
 835              		.loc 1 322 0
 836 0046 7868     		ldr	r0, [r7, #4]
 837 0048 FFF7FEFF 		bl	telemetry_send_link_sbc
 323:app_statemachine.c ****         telemetry_send_power_sbc(ctx);
 838              		.loc 1 323 0
 839 004c 7868     		ldr	r0, [r7, #4]
 840 004e FFF7FEFF 		bl	telemetry_send_power_sbc
 324:app_statemachine.c ****         telemetry_send_env_sbc(ctx);
 841              		.loc 1 324 0
 842 0052 7868     		ldr	r0, [r7, #4]
 843 0054 FFF7FEFF 		bl	telemetry_send_env_sbc
 325:app_statemachine.c ****         telemetry_send_gps_sbc(ctx);
 844              		.loc 1 325 0
 845 0058 7868     		ldr	r0, [r7, #4]
 846 005a FFF7FEFF 		bl	telemetry_send_gps_sbc
 326:app_statemachine.c ****         telemetry_send_baro_sbc(ctx);
 847              		.loc 1 326 0
 848 005e 7868     		ldr	r0, [r7, #4]
 849 0060 FFF7FEFF 		bl	telemetry_send_baro_sbc
 327:app_statemachine.c ****         telemetry_send_mag_sbc(ctx);
 850              		.loc 1 327 0
 851 0064 7868     		ldr	r0, [r7, #4]
 852 0066 FFF7FEFF 		bl	telemetry_send_mag_sbc
 853 006a 00E0     		b	.L48
 854              	.L52:
 312:app_statemachine.c ****     
 855              		.loc 1 312 0
 856 006c 00BF     		nop
 857              	.L48:
 328:app_statemachine.c ****     }
 329:app_statemachine.c **** }
ARM GAS  C:\Users\yoons\AppData\Local\Temp\cc4JHBmd.s 			page 23


 858              		.loc 1 329 0
 859 006e 0837     		adds	r7, r7, #8
 860              		.cfi_def_cfa_offset 8
 861 0070 BD46     		mov	sp, r7
 862              		.cfi_def_cfa_register 13
 863              		@ sp needed
 864 0072 80BD     		pop	{r7, pc}
 865              	.L54:
 866              		.align	2
 867              	.L53:
 868 0074 00000000 		.word	g_tick_ms
 869 0078 00000000 		.word	last_hot_ms.8356
 870 007c 04000000 		.word	last_link_ms.8357
 871              		.cfi_endproc
 872              	.LFE70:
 873              		.size	app_telem_tick, .-app_telem_tick
 874              		.section	.text.build_defer,"ax",%progbits
 875              		.align	2
 876              		.global	build_defer
 877              		.thumb
 878              		.thumb_func
 879              		.type	build_defer, %function
 880              	build_defer:
 881              	.LFB71:
 330:app_statemachine.c **** 
 331:app_statemachine.c **** // %==========================================================================%
 332:app_statemachine.c **** // %                        Gimbal control packets                            %
 333:app_statemachine.c **** // %==========================================================================%
 334:app_statemachine.c **** void build_defer(const app_ctx_t *ctx, hamfly_control_t *out)
 335:app_statemachine.c **** {
 882              		.loc 1 335 0
 883              		.cfi_startproc
 884              		@ args = 0, pretend = 0, frame = 8
 885              		@ frame_needed = 1, uses_anonymous_args = 0
 886 0000 80B5     		push	{r7, lr}
 887              		.cfi_def_cfa_offset 8
 888              		.cfi_offset 7, -8
 889              		.cfi_offset 14, -4
 890 0002 82B0     		sub	sp, sp, #8
 891              		.cfi_def_cfa_offset 16
 892 0004 00AF     		add	r7, sp, #0
 893              		.cfi_def_cfa_register 7
 894 0006 7860     		str	r0, [r7, #4]
 895 0008 3960     		str	r1, [r7]
 336:app_statemachine.c ****     (void)ctx;
 337:app_statemachine.c ****     memset(out, 0, sizeof *out);          /* DEFER == 0, so this releases */
 896              		.loc 1 337 0
 897 000a 1422     		movs	r2, #20
 898 000c 0021     		movs	r1, #0
 899 000e 3868     		ldr	r0, [r7]
 900 0010 FFF7FEFF 		bl	memset
 338:app_statemachine.c ****     out->pan_mode = HAMFLY_DEFER;
 901              		.loc 1 338 0
 902 0014 3B68     		ldr	r3, [r7]
 903 0016 0022     		movs	r2, #0
 904 0018 1A73     		strb	r2, [r3, #12]
 339:app_statemachine.c ****     out->tilt_mode = HAMFLY_DEFER;
ARM GAS  C:\Users\yoons\AppData\Local\Temp\cc4JHBmd.s 			page 24


 905              		.loc 1 339 0
 906 001a 3B68     		ldr	r3, [r7]
 907 001c 0022     		movs	r2, #0
 908 001e 5A73     		strb	r2, [r3, #13]
 340:app_statemachine.c ****     out->roll_mode = HAMFLY_DEFER;
 909              		.loc 1 340 0
 910 0020 3B68     		ldr	r3, [r7]
 911 0022 0022     		movs	r2, #0
 912 0024 9A73     		strb	r2, [r3, #14]
 341:app_statemachine.c **** }
 913              		.loc 1 341 0
 914 0026 00BF     		nop
 915 0028 0837     		adds	r7, r7, #8
 916              		.cfi_def_cfa_offset 8
 917 002a BD46     		mov	sp, r7
 918              		.cfi_def_cfa_register 13
 919              		@ sp needed
 920 002c 80BD     		pop	{r7, pc}
 921              		.cfi_endproc
 922              	.LFE71:
 923              		.size	build_defer, .-build_defer
 924 002e 00BF     		.section	.text.build_hold,"ax",%progbits
 925              		.align	2
 926              		.global	build_hold
 927              		.thumb
 928              		.thumb_func
 929              		.type	build_hold, %function
 930              	build_hold:
 931              	.LFB72:
 342:app_statemachine.c **** // Active hold at vel=0.
 343:app_statemachine.c **** void build_hold(const app_ctx_t *ctx, hamfly_control_t *out)
 344:app_statemachine.c **** {
 932              		.loc 1 344 0
 933              		.cfi_startproc
 934              		@ args = 0, pretend = 0, frame = 8
 935              		@ frame_needed = 1, uses_anonymous_args = 0
 936 0000 80B5     		push	{r7, lr}
 937              		.cfi_def_cfa_offset 8
 938              		.cfi_offset 7, -8
 939              		.cfi_offset 14, -4
 940 0002 82B0     		sub	sp, sp, #8
 941              		.cfi_def_cfa_offset 16
 942 0004 00AF     		add	r7, sp, #0
 943              		.cfi_def_cfa_register 7
 944 0006 7860     		str	r0, [r7, #4]
 945 0008 3960     		str	r1, [r7]
 345:app_statemachine.c ****     (void)ctx;
 346:app_statemachine.c ****     memset(out, 0, sizeof *out);
 946              		.loc 1 346 0
 947 000a 1422     		movs	r2, #20
 948 000c 0021     		movs	r1, #0
 949 000e 3868     		ldr	r0, [r7]
 950 0010 FFF7FEFF 		bl	memset
 347:app_statemachine.c ****     out->pan_mode  = HAMFLY_RATE;          /* RATE with value 0 == "stay put" */
 951              		.loc 1 347 0
 952 0014 3B68     		ldr	r3, [r7]
 953 0016 0122     		movs	r2, #1
ARM GAS  C:\Users\yoons\AppData\Local\Temp\cc4JHBmd.s 			page 25


 954 0018 1A73     		strb	r2, [r3, #12]
 348:app_statemachine.c ****     out->tilt_mode = HAMFLY_RATE;
 955              		.loc 1 348 0
 956 001a 3B68     		ldr	r3, [r7]
 957 001c 0122     		movs	r2, #1
 958 001e 5A73     		strb	r2, [r3, #13]
 349:app_statemachine.c ****     out->roll_mode = HAMFLY_DEFER;         /* roll has always been deferred here */
 959              		.loc 1 349 0
 960 0020 3B68     		ldr	r3, [r7]
 961 0022 0022     		movs	r2, #0
 962 0024 9A73     		strb	r2, [r3, #14]
 350:app_statemachine.c **** }
 963              		.loc 1 350 0
 964 0026 00BF     		nop
 965 0028 0837     		adds	r7, r7, #8
 966              		.cfi_def_cfa_offset 8
 967 002a BD46     		mov	sp, r7
 968              		.cfi_def_cfa_register 13
 969              		@ sp needed
 970 002c 80BD     		pop	{r7, pc}
 971              		.cfi_endproc
 972              	.LFE72:
 973              		.size	build_hold, .-build_hold
 974 002e 00BF     		.section	.text.app_build_control,"ax",%progbits
 975              		.align	2
 976              		.global	app_build_control
 977              		.thumb
 978              		.thumb_func
 979              		.type	app_build_control, %function
 980              	app_build_control:
 981              	.LFB73:
 351:app_statemachine.c **** 
 352:app_statemachine.c **** // Do build. For states without a build function returns zeroed packet.
 353:app_statemachine.c **** void app_build_control(const app_ctx_t *ctx, hamfly_control_t *out)
 354:app_statemachine.c **** {
 982              		.loc 1 354 0
 983              		.cfi_startproc
 984              		@ args = 0, pretend = 0, frame = 16
 985              		@ frame_needed = 1, uses_anonymous_args = 0
 986 0000 80B5     		push	{r7, lr}
 987              		.cfi_def_cfa_offset 8
 988              		.cfi_offset 7, -8
 989              		.cfi_offset 14, -4
 990 0002 84B0     		sub	sp, sp, #16
 991              		.cfi_def_cfa_offset 24
 992 0004 00AF     		add	r7, sp, #0
 993              		.cfi_def_cfa_register 7
 994 0006 7860     		str	r0, [r7, #4]
 995 0008 3960     		str	r1, [r7]
 355:app_statemachine.c ****     // Nudge overlay: Allow user triggered nudges to supress state building
 356:app_statemachine.c ****     if (ctx->nudge_hold) {
 996              		.loc 1 356 0
 997 000a 7B68     		ldr	r3, [r7, #4]
 998 000c 93F87130 		ldrb	r3, [r3, #113]	@ zero_extendqisi2
 999 0010 002B     		cmp	r3, #0
 1000 0012 04D0     		beq	.L58
 357:app_statemachine.c ****         build_manu_joystick(ctx, out);  // Borrow from MANU
ARM GAS  C:\Users\yoons\AppData\Local\Temp\cc4JHBmd.s 			page 26


 1001              		.loc 1 357 0
 1002 0014 3968     		ldr	r1, [r7]
 1003 0016 7868     		ldr	r0, [r7, #4]
 1004 0018 FFF7FEFF 		bl	build_manu_joystick
 358:app_statemachine.c ****         // TODO: Ensure we return to the correct state.
 359:app_statemachine.c ****         // TODO: Move to utils? Or a less biased name.
 360:app_statemachine.c ****         return;
 1005              		.loc 1 360 0
 1006 001c 12E0     		b	.L57
 1007              	.L58:
 361:app_statemachine.c ****     }
 362:app_statemachine.c ****     
 363:app_statemachine.c ****     // No nudge, build from state
 364:app_statemachine.c ****     build_fn_t f = on_build[ctx->state];
 1008              		.loc 1 364 0
 1009 001e 7B68     		ldr	r3, [r7, #4]
 1010 0020 1B79     		ldrb	r3, [r3, #4]	@ zero_extendqisi2
 1011 0022 1A46     		mov	r2, r3
 1012 0024 094B     		ldr	r3, .L61
 1013 0026 53F82230 		ldr	r3, [r3, r2, lsl #2]
 1014 002a FB60     		str	r3, [r7, #12]
 365:app_statemachine.c ****     if (f)  f(ctx, out);
 1015              		.loc 1 365 0
 1016 002c FB68     		ldr	r3, [r7, #12]
 1017 002e 002B     		cmp	r3, #0
 1018 0030 04D0     		beq	.L60
 1019              		.loc 1 365 0 is_stmt 0 discriminator 1
 1020 0032 FB68     		ldr	r3, [r7, #12]
 1021 0034 3968     		ldr	r1, [r7]
 1022 0036 7868     		ldr	r0, [r7, #4]
 1023 0038 9847     		blx	r3
 1024 003a 03E0     		b	.L57
 1025              	.L60:
 366:app_statemachine.c ****     else    build_defer(ctx, out);  // Safe default.
 1026              		.loc 1 366 0 is_stmt 1
 1027 003c 3968     		ldr	r1, [r7]
 1028 003e 7868     		ldr	r0, [r7, #4]
 1029 0040 FFF7FEFF 		bl	build_defer
 1030              	.L57:
 367:app_statemachine.c **** }
 1031              		.loc 1 367 0
 1032 0044 1037     		adds	r7, r7, #16
 1033              		.cfi_def_cfa_offset 8
 1034 0046 BD46     		mov	sp, r7
 1035              		.cfi_def_cfa_register 13
 1036              		@ sp needed
 1037 0048 80BD     		pop	{r7, pc}
 1038              	.L62:
 1039 004a 00BF     		.align	2
 1040              	.L61:
 1041 004c 24010000 		.word	on_build
 1042              		.cfi_endproc
 1043              	.LFE73:
 1044              		.size	app_build_control, .-app_build_control
 1045              		.section	.rodata
 1046              		.align	2
 1047              	.LC20:
ARM GAS  C:\Users\yoons\AppData\Local\Temp\cc4JHBmd.s 			page 27


 1048 02c0 6E6F2067 		.ascii	"no gimbal handle\000"
 1048      696D6261 
 1048      6C206861 
 1048      6E646C65 
 1048      00
 1049 02d1 000000   		.align	2
 1050              	.LC21:
 1051 02d4 6E6F2074 		.ascii	"no telemetry (origin not set)\000"
 1051      656C656D 
 1051      65747279 
 1051      20286F72 
 1051      6967696E 
 1052 02f2 0000     		.align	2
 1053              	.LC22:
 1054 02f4 0D0A5B4F 		.ascii	"\015\012[ORIGIN] captured.\015\012\000"
 1054      52494749 
 1054      4E5D2063 
 1054      61707475 
 1054      7265642E 
 1055              		.section	.text.set_origin,"ax",%progbits
 1056              		.align	2
 1057              		.global	set_origin
 1058              		.thumb
 1059              		.thumb_func
 1060              		.type	set_origin, %function
 1061              	set_origin:
 1062              	.LFB74:
 368:app_statemachine.c **** 
 369:app_statemachine.c **** 
 370:app_statemachine.c **** // %==========================================================================%
 371:app_statemachine.c **** // %                        Serial Key dispatch                               %
 372:app_statemachine.c **** // %==========================================================================%
 373:app_statemachine.c **** #define KEY_CTRL_R 0x12  // Reset ASCII code.
 374:app_statemachine.c **** 
 375:app_statemachine.c **** 
 376:app_statemachine.c **** // Capture current attitude and save as origin
 377:app_statemachine.c **** // zero_tilt is a bool which forces the tilt origin to be level
 378:app_statemachine.c **** void set_origin(app_ctx_t *ctx, uint8_t zero_tilt)
 379:app_statemachine.c **** {
 1063              		.loc 1 379 0
 1064              		.cfi_startproc
 1065              		@ args = 0, pretend = 0, frame = 16
 1066              		@ frame_needed = 1, uses_anonymous_args = 0
 1067 0000 80B5     		push	{r7, lr}
 1068              		.cfi_def_cfa_offset 8
 1069              		.cfi_offset 7, -8
 1070              		.cfi_offset 14, -4
 1071 0002 84B0     		sub	sp, sp, #16
 1072              		.cfi_def_cfa_offset 24
 1073 0004 00AF     		add	r7, sp, #0
 1074              		.cfi_def_cfa_register 7
 1075 0006 7860     		str	r0, [r7, #4]
 1076 0008 0B46     		mov	r3, r1
 1077 000a FB70     		strb	r3, [r7, #3]
 380:app_statemachine.c ****     if (!ctx->gimbal) { app_raise_error(ctx, SEV_USER, "no gimbal handle"); return; }
 1078              		.loc 1 380 0
 1079 000c 7B68     		ldr	r3, [r7, #4]
ARM GAS  C:\Users\yoons\AppData\Local\Temp\cc4JHBmd.s 			page 28


 1080 000e 1B68     		ldr	r3, [r3]
 1081 0010 002B     		cmp	r3, #0
 1082 0012 05D1     		bne	.L64
 1083              		.loc 1 380 0 is_stmt 0 discriminator 1
 1084 0014 164A     		ldr	r2, .L70
 1085 0016 0021     		movs	r1, #0
 1086 0018 7868     		ldr	r0, [r7, #4]
 1087 001a FFF7FEFF 		bl	app_raise_error
 1088 001e 23E0     		b	.L63
 1089              	.L64:
 381:app_statemachine.c **** 
 382:app_statemachine.c ****     float pan, tilt;
 383:app_statemachine.c ****     if (!gimbal_pan_tilt_deg(ctx, &pan, &tilt)) {
 1090              		.loc 1 383 0 is_stmt 1
 1091 0020 07F10802 		add	r2, r7, #8
 1092 0024 07F10C03 		add	r3, r7, #12
 1093 0028 1946     		mov	r1, r3
 1094 002a 7868     		ldr	r0, [r7, #4]
 1095 002c FFF7FEFF 		bl	gimbal_pan_tilt_deg
 1096 0030 0346     		mov	r3, r0
 1097 0032 002B     		cmp	r3, #0
 1098 0034 05D1     		bne	.L66
 384:app_statemachine.c ****         app_raise_error(ctx, SEV_USER, "no telemetry (origin not set)");
 1099              		.loc 1 384 0
 1100 0036 0F4A     		ldr	r2, .L70+4
 1101 0038 0021     		movs	r1, #0
 1102 003a 7868     		ldr	r0, [r7, #4]
 1103 003c FFF7FEFF 		bl	app_raise_error
 385:app_statemachine.c ****         return;
 1104              		.loc 1 385 0
 1105 0040 12E0     		b	.L63
 1106              	.L66:
 386:app_statemachine.c ****     }
 387:app_statemachine.c ****     ctx->origin_pan_deg  = pan;
 1107              		.loc 1 387 0
 1108 0042 FA68     		ldr	r2, [r7, #12]	@ float
 1109 0044 7B68     		ldr	r3, [r7, #4]
 1110 0046 9A65     		str	r2, [r3, #88]	@ float
 388:app_statemachine.c ****     ctx->origin_tilt_deg = zero_tilt ? 0.0f : tilt;
 1111              		.loc 1 388 0
 1112 0048 FB78     		ldrb	r3, [r7, #3]	@ zero_extendqisi2
 1113 004a 002B     		cmp	r3, #0
 1114 004c 01D1     		bne	.L67
 1115              		.loc 1 388 0 is_stmt 0 discriminator 1
 1116 004e BB68     		ldr	r3, [r7, #8]	@ float
 1117 0050 01E0     		b	.L68
 1118              	.L67:
 1119              		.loc 1 388 0 discriminator 2
 1120 0052 4FF00003 		mov	r3, #0
 1121              	.L68:
 1122              		.loc 1 388 0 discriminator 4
 1123 0056 7A68     		ldr	r2, [r7, #4]
 1124 0058 D365     		str	r3, [r2, #92]	@ float
 389:app_statemachine.c ****     ctx->origin_set = 1u;
 1125              		.loc 1 389 0 is_stmt 1 discriminator 4
 1126 005a 7B68     		ldr	r3, [r7, #4]
 1127 005c 0122     		movs	r2, #1
ARM GAS  C:\Users\yoons\AppData\Local\Temp\cc4JHBmd.s 			page 29


 1128 005e 83F86020 		strb	r2, [r3, #96]
 390:app_statemachine.c ****     UART_DEBUG_PutString("\r\n[ORIGIN] captured.\r\n");
 1129              		.loc 1 390 0 discriminator 4
 1130 0062 0548     		ldr	r0, .L70+8
 1131 0064 FFF7FEFF 		bl	dbg_put
 1132              	.L63:
 391:app_statemachine.c **** }
 1133              		.loc 1 391 0
 1134 0068 1037     		adds	r7, r7, #16
 1135              		.cfi_def_cfa_offset 8
 1136 006a BD46     		mov	sp, r7
 1137              		.cfi_def_cfa_register 13
 1138              		@ sp needed
 1139 006c 80BD     		pop	{r7, pc}
 1140              	.L71:
 1141 006e 00BF     		.align	2
 1142              	.L70:
 1143 0070 C0020000 		.word	.LC20
 1144 0074 D4020000 		.word	.LC21
 1145 0078 F4020000 		.word	.LC22
 1146              		.cfi_endproc
 1147              	.LFE74:
 1148              		.size	set_origin, .-set_origin
 1149              		.section	.rodata
 1150 030b 00       		.align	2
 1151              	.LC23:
 1152 030c 0D0A2D2D 		.ascii	"\015\012--- keys ---\015\012 1 hold   2 manual     "
 1152      2D206B65 
 1152      7973202D 
 1152      2D2D0D0A 
 1152      20312068 
 1153 0333 20203320 		.ascii	"  3 auto\015\012 x kill   [ set-origin   ? help\015"
 1153      6175746F 
 1153      0D0A2078 
 1153      206B696C 
 1153      6C202020 
 1154 035d 0A206520 		.ascii	"\012 e exit   ] home\015\012 (in MANU) numpad/ijkl/"
 1154      65786974 
 1154      2020205D 
 1154      20686F6D 
 1154      650D0A20 
 1155 0387 77617364 		.ascii	"wasd nudge\015\012\000"
 1155      206E7564 
 1155      67650D0A 
 1155      00
 1156              		.section	.text.print_help,"ax",%progbits
 1157              		.align	2
 1158              		.thumb
 1159              		.thumb_func
 1160              		.type	print_help, %function
 1161              	print_help:
 1162              	.LFB75:
 392:app_statemachine.c **** 
 393:app_statemachine.c **** // Serial key menu, for debugging but superceded soon by SBC comms.
 394:app_statemachine.c **** static void print_help(const app_ctx_t *ctx)
 395:app_statemachine.c **** {
 1163              		.loc 1 395 0
ARM GAS  C:\Users\yoons\AppData\Local\Temp\cc4JHBmd.s 			page 30


 1164              		.cfi_startproc
 1165              		@ args = 0, pretend = 0, frame = 8
 1166              		@ frame_needed = 1, uses_anonymous_args = 0
 1167 0000 80B5     		push	{r7, lr}
 1168              		.cfi_def_cfa_offset 8
 1169              		.cfi_offset 7, -8
 1170              		.cfi_offset 14, -4
 1171 0002 82B0     		sub	sp, sp, #8
 1172              		.cfi_def_cfa_offset 16
 1173 0004 00AF     		add	r7, sp, #0
 1174              		.cfi_def_cfa_register 7
 1175 0006 7860     		str	r0, [r7, #4]
 396:app_statemachine.c ****     (void)ctx;
 397:app_statemachine.c ****     UART_DEBUG_PutString(
 1176              		.loc 1 397 0
 1177 0008 0348     		ldr	r0, .L73
 1178 000a FFF7FEFF 		bl	dbg_put
 398:app_statemachine.c ****         "\r\n--- keys ---\r\n"
 399:app_statemachine.c ****         " 1 hold   2 manual       3 auto\r\n"
 400:app_statemachine.c ****         " x kill   [ set-origin   ? help\r\n"
 401:app_statemachine.c ****         " e exit   ] home\r\n"
 402:app_statemachine.c ****         " (in MANU) numpad/ijkl/wasd nudge\r\n");
 403:app_statemachine.c **** }
 1179              		.loc 1 403 0
 1180 000e 00BF     		nop
 1181 0010 0837     		adds	r7, r7, #8
 1182              		.cfi_def_cfa_offset 8
 1183 0012 BD46     		mov	sp, r7
 1184              		.cfi_def_cfa_register 13
 1185              		@ sp needed
 1186 0014 80BD     		pop	{r7, pc}
 1187              	.L74:
 1188 0016 00BF     		.align	2
 1189              	.L73:
 1190 0018 0C030000 		.word	.LC23
 1191              		.cfi_endproc
 1192              	.LFE75:
 1193              		.size	print_help, .-print_help
 1194              		.section	.rodata
 1195              		.align	2
 1196              	.LC24:
 1197 0394 0D0A4641 		.ascii	"\015\012FATAL cleared.\015\012\000"
 1197      54414C20 
 1197      636C6561 
 1197      7265642E 
 1197      0D0A00
 1198              		.section	.text.handle_global_key,"ax",%progbits
 1199              		.align	2
 1200              		.thumb
 1201              		.thumb_func
 1202              		.type	handle_global_key, %function
 1203              	handle_global_key:
 1204              	.LFB76:
 404:app_statemachine.c **** 
 405:app_statemachine.c **** // Handle global keys in any state.
 406:app_statemachine.c **** static uint8_t handle_global_key(app_ctx_t *ctx, char k)
 407:app_statemachine.c **** {
ARM GAS  C:\Users\yoons\AppData\Local\Temp\cc4JHBmd.s 			page 31


 1205              		.loc 1 407 0
 1206              		.cfi_startproc
 1207              		@ args = 0, pretend = 0, frame = 8
 1208              		@ frame_needed = 1, uses_anonymous_args = 0
 1209 0000 80B5     		push	{r7, lr}
 1210              		.cfi_def_cfa_offset 8
 1211              		.cfi_offset 7, -8
 1212              		.cfi_offset 14, -4
 1213 0002 82B0     		sub	sp, sp, #8
 1214              		.cfi_def_cfa_offset 16
 1215 0004 00AF     		add	r7, sp, #0
 1216              		.cfi_def_cfa_register 7
 1217 0006 7860     		str	r0, [r7, #4]
 1218 0008 0B46     		mov	r3, r1
 1219 000a FB70     		strb	r3, [r7, #3]
 408:app_statemachine.c ****     switch (k) {
 1220              		.loc 1 408 0
 1221 000c FB78     		ldrb	r3, [r7, #3]	@ zero_extendqisi2
 1222 000e 3F2B     		cmp	r3, #63
 1223 0010 39D0     		beq	.L77
 1224 0012 3F2B     		cmp	r3, #63
 1225 0014 02DC     		bgt	.L78
 1226 0016 122B     		cmp	r3, #18
 1227 0018 05D0     		beq	.L79
 1228 001a 39E0     		b	.L76
 1229              	.L78:
 1230 001c 5B2B     		cmp	r3, #91
 1231 001e 2CD0     		beq	.L80
 1232 0020 782B     		cmp	r3, #120
 1233 0022 1BD0     		beq	.L81
 1234 0024 34E0     		b	.L76
 1235              	.L79:
 409:app_statemachine.c ****         case KEY_CTRL_R:  // Clear FATAL error
 410:app_statemachine.c ****             if (ctx->fatal_latched) {
 1236              		.loc 1 410 0
 1237 0026 7B68     		ldr	r3, [r7, #4]
 1238 0028 1B7E     		ldrb	r3, [r3, #24]	@ zero_extendqisi2
 1239 002a 002B     		cmp	r3, #0
 1240 002c 10D0     		beq	.L82
 411:app_statemachine.c ****                 ctx->fatal_latched = 0u;
 1241              		.loc 1 411 0
 1242 002e 7B68     		ldr	r3, [r7, #4]
 1243 0030 0022     		movs	r2, #0
 1244 0032 1A76     		strb	r2, [r3, #24]
 412:app_statemachine.c ****                 ctx->err_sev = SEV_USER;
 1245              		.loc 1 412 0
 1246 0034 7B68     		ldr	r3, [r7, #4]
 1247 0036 0022     		movs	r2, #0
 1248 0038 1A74     		strb	r2, [r3, #16]
 413:app_statemachine.c ****                 ctx->err_msg = NULL;
 1249              		.loc 1 413 0
 1250 003a 7B68     		ldr	r3, [r7, #4]
 1251 003c 0022     		movs	r2, #0
 1252 003e 5A61     		str	r2, [r3, #20]
 414:app_statemachine.c ****                 UART_DEBUG_PutString("\r\nFATAL cleared.\r\n");
 1253              		.loc 1 414 0
 1254 0040 1648     		ldr	r0, .L86
ARM GAS  C:\Users\yoons\AppData\Local\Temp\cc4JHBmd.s 			page 32


 1255 0042 FFF7FEFF 		bl	dbg_put
 415:app_statemachine.c ****                 app_transition(ctx, STBY_HOLD);
 1256              		.loc 1 415 0
 1257 0046 0621     		movs	r1, #6
 1258 0048 7868     		ldr	r0, [r7, #4]
 1259 004a FFF7FEFF 		bl	app_transition
 1260 004e 03E0     		b	.L83
 1261              	.L82:
 416:app_statemachine.c ****             } else {
 417:app_statemachine.c ****                 app_transition(ctx, STBY_DEFER);
 1262              		.loc 1 417 0
 1263 0050 0521     		movs	r1, #5
 1264 0052 7868     		ldr	r0, [r7, #4]
 1265 0054 FFF7FEFF 		bl	app_transition
 1266              	.L83:
 418:app_statemachine.c ****             }
 419:app_statemachine.c ****             return 1;
 1267              		.loc 1 419 0
 1268 0058 0123     		movs	r3, #1
 1269 005a 1AE0     		b	.L84
 1270              	.L81:
 420:app_statemachine.c ****         case 'x':  // Return to HOLD as a safe state
 421:app_statemachine.c ****             if (ctx->gimbal) hamfly_kill(ctx->gimbal);
 1271              		.loc 1 421 0
 1272 005c 7B68     		ldr	r3, [r7, #4]
 1273 005e 1B68     		ldr	r3, [r3]
 1274 0060 002B     		cmp	r3, #0
 1275 0062 04D0     		beq	.L85
 1276              		.loc 1 421 0 is_stmt 0 discriminator 1
 1277 0064 7B68     		ldr	r3, [r7, #4]
 1278 0066 1B68     		ldr	r3, [r3]
 1279 0068 1846     		mov	r0, r3
 1280 006a FFF7FEFF 		bl	hamfly_kill
 1281              	.L85:
 422:app_statemachine.c ****             app_transition(ctx, STBY_HOLD);
 1282              		.loc 1 422 0 is_stmt 1
 1283 006e 0621     		movs	r1, #6
 1284 0070 7868     		ldr	r0, [r7, #4]
 1285 0072 FFF7FEFF 		bl	app_transition
 423:app_statemachine.c ****             return 1;
 1286              		.loc 1 423 0
 1287 0076 0123     		movs	r3, #1
 1288 0078 0BE0     		b	.L84
 1289              	.L80:
 424:app_statemachine.c ****         case '[': set_origin(ctx, 0u); return 1;
 1290              		.loc 1 424 0
 1291 007a 0021     		movs	r1, #0
 1292 007c 7868     		ldr	r0, [r7, #4]
 1293 007e FFF7FEFF 		bl	set_origin
 1294 0082 0123     		movs	r3, #1
 1295 0084 05E0     		b	.L84
 1296              	.L77:
 425:app_statemachine.c ****         case '?': print_help(ctx);  return 1;
 1297              		.loc 1 425 0
 1298 0086 7868     		ldr	r0, [r7, #4]
 1299 0088 FFF7FEFF 		bl	print_help
 1300 008c 0123     		movs	r3, #1
ARM GAS  C:\Users\yoons\AppData\Local\Temp\cc4JHBmd.s 			page 33


 1301 008e 00E0     		b	.L84
 1302              	.L76:
 426:app_statemachine.c ****         default:  return 0;
 1303              		.loc 1 426 0
 1304 0090 0023     		movs	r3, #0
 1305              	.L84:
 427:app_statemachine.c ****     }
 428:app_statemachine.c **** }
 1306              		.loc 1 428 0
 1307 0092 1846     		mov	r0, r3
 1308 0094 0837     		adds	r7, r7, #8
 1309              		.cfi_def_cfa_offset 8
 1310 0096 BD46     		mov	sp, r7
 1311              		.cfi_def_cfa_register 13
 1312              		@ sp needed
 1313 0098 80BD     		pop	{r7, pc}
 1314              	.L87:
 1315 009a 00BF     		.align	2
 1316              	.L86:
 1317 009c 94030000 		.word	.LC24
 1318              		.cfi_endproc
 1319              	.LFE76:
 1320              		.size	handle_global_key, .-handle_global_key
 1321              		.section	.text.leaf_traps_nav,"ax",%progbits
 1322              		.align	2
 1323              		.thumb
 1324              		.thumb_func
 1325              		.type	leaf_traps_nav, %function
 1326              	leaf_traps_nav:
 1327              	.LFB77:
 429:app_statemachine.c **** 
 430:app_statemachine.c **** static uint8_t leaf_traps_nav(state_t s)
 431:app_statemachine.c **** {
 1328              		.loc 1 431 0
 1329              		.cfi_startproc
 1330              		@ args = 0, pretend = 0, frame = 8
 1331              		@ frame_needed = 1, uses_anonymous_args = 0
 1332              		@ link register save eliminated.
 1333 0000 80B4     		push	{r7}
 1334              		.cfi_def_cfa_offset 4
 1335              		.cfi_offset 7, -4
 1336 0002 83B0     		sub	sp, sp, #12
 1337              		.cfi_def_cfa_offset 16
 1338 0004 00AF     		add	r7, sp, #0
 1339              		.cfi_def_cfa_register 7
 1340 0006 0346     		mov	r3, r0
 1341 0008 FB71     		strb	r3, [r7, #7]
 432:app_statemachine.c ****     // Tee following states need to be exited (e) before numerals change state.
 433:app_statemachine.c ****     return (s == MANU_JOYSTICK   ||
 434:app_statemachine.c ****             s == AUTO_HOME       ||
 435:app_statemachine.c ****             s == AUTO_ACQ_GPS    ||
 436:app_statemachine.c ****             s == AUTO_ACQ_SPIRAL ||
 1342              		.loc 1 436 0
 1343 000a FB79     		ldrb	r3, [r7, #7]	@ zero_extendqisi2
 1344 000c 072B     		cmp	r3, #7
 1345 000e 0BD0     		beq	.L89
 433:app_statemachine.c ****             s == AUTO_HOME       ||
ARM GAS  C:\Users\yoons\AppData\Local\Temp\cc4JHBmd.s 			page 34


 1346              		.loc 1 433 0
 1347 0010 FB79     		ldrb	r3, [r7, #7]	@ zero_extendqisi2
 1348 0012 082B     		cmp	r3, #8
 1349 0014 08D0     		beq	.L89
 434:app_statemachine.c ****             s == AUTO_ACQ_GPS    ||
 1350              		.loc 1 434 0
 1351 0016 FB79     		ldrb	r3, [r7, #7]	@ zero_extendqisi2
 1352 0018 0A2B     		cmp	r3, #10
 1353 001a 05D0     		beq	.L89
 435:app_statemachine.c ****             s == AUTO_ACQ_SPIRAL ||
 1354              		.loc 1 435 0
 1355 001c FB79     		ldrb	r3, [r7, #7]	@ zero_extendqisi2
 1356 001e 0B2B     		cmp	r3, #11
 1357 0020 02D0     		beq	.L89
 1358              		.loc 1 436 0 discriminator 2
 1359 0022 FB79     		ldrb	r3, [r7, #7]	@ zero_extendqisi2
 1360 0024 0C2B     		cmp	r3, #12
 1361 0026 01D1     		bne	.L90
 1362              	.L89:
 1363              		.loc 1 436 0 is_stmt 0 discriminator 1
 1364 0028 0123     		movs	r3, #1
 1365 002a 00E0     		b	.L91
 1366              	.L90:
 1367              		.loc 1 436 0 discriminator 3
 1368 002c 0023     		movs	r3, #0
 1369              	.L91:
 433:app_statemachine.c ****             s == AUTO_HOME       ||
 1370              		.loc 1 433 0 is_stmt 1
 1371 002e DBB2     		uxtb	r3, r3
 437:app_statemachine.c ****             s == AUTO_TRACKING);
 438:app_statemachine.c **** }
 1372              		.loc 1 438 0
 1373 0030 1846     		mov	r0, r3
 1374 0032 0C37     		adds	r7, r7, #12
 1375              		.cfi_def_cfa_offset 4
 1376 0034 BD46     		mov	sp, r7
 1377              		.cfi_def_cfa_register 13
 1378              		@ sp needed
 1379 0036 80BC     		pop	{r7}
 1380              		.cfi_restore 7
 1381              		.cfi_def_cfa_offset 0
 1382 0038 7047     		bx	lr
 1383              		.cfi_endproc
 1384              	.LFE77:
 1385              		.size	leaf_traps_nav, .-leaf_traps_nav
 1386 003a 00BF     		.section	.text.handle_nav_key,"ax",%progbits
 1387              		.align	2
 1388              		.thumb
 1389              		.thumb_func
 1390              		.type	handle_nav_key, %function
 1391              	handle_nav_key:
 1392              	.LFB78:
 439:app_statemachine.c **** static uint8_t handle_nav_key(app_ctx_t *ctx, char k)
 440:app_statemachine.c **** {
 1393              		.loc 1 440 0
 1394              		.cfi_startproc
 1395              		@ args = 0, pretend = 0, frame = 8
ARM GAS  C:\Users\yoons\AppData\Local\Temp\cc4JHBmd.s 			page 35


 1396              		@ frame_needed = 1, uses_anonymous_args = 0
 1397 0000 80B5     		push	{r7, lr}
 1398              		.cfi_def_cfa_offset 8
 1399              		.cfi_offset 7, -8
 1400              		.cfi_offset 14, -4
 1401 0002 82B0     		sub	sp, sp, #8
 1402              		.cfi_def_cfa_offset 16
 1403 0004 00AF     		add	r7, sp, #0
 1404              		.cfi_def_cfa_register 7
 1405 0006 7860     		str	r0, [r7, #4]
 1406 0008 0B46     		mov	r3, r1
 1407 000a FB70     		strb	r3, [r7, #3]
 441:app_statemachine.c ****     // TODO: Add remaining states
 442:app_statemachine.c ****     switch (k) {
 1408              		.loc 1 442 0
 1409 000c FB78     		ldrb	r3, [r7, #3]	@ zero_extendqisi2
 1410 000e 322B     		cmp	r3, #50
 1411 0010 09D0     		beq	.L95
 1412 0012 332B     		cmp	r3, #51
 1413 0014 0DD0     		beq	.L96
 1414 0016 312B     		cmp	r3, #49
 1415 0018 11D1     		bne	.L99
 443:app_statemachine.c ****         case '1': app_transition(ctx, STBY_HOLD);     return 1;
 1416              		.loc 1 443 0
 1417 001a 0621     		movs	r1, #6
 1418 001c 7868     		ldr	r0, [r7, #4]
 1419 001e FFF7FEFF 		bl	app_transition
 1420 0022 0123     		movs	r3, #1
 1421 0024 0CE0     		b	.L98
 1422              	.L95:
 444:app_statemachine.c ****         case '2': app_transition(ctx, MANU_JOYSTICK); return 1;
 1423              		.loc 1 444 0
 1424 0026 0721     		movs	r1, #7
 1425 0028 7868     		ldr	r0, [r7, #4]
 1426 002a FFF7FEFF 		bl	app_transition
 1427 002e 0123     		movs	r3, #1
 1428 0030 06E0     		b	.L98
 1429              	.L96:
 445:app_statemachine.c ****         case '3': app_transition(ctx, AUTO_TRACKING); return 1;
 1430              		.loc 1 445 0
 1431 0032 0C21     		movs	r1, #12
 1432 0034 7868     		ldr	r0, [r7, #4]
 1433 0036 FFF7FEFF 		bl	app_transition
 1434 003a 0123     		movs	r3, #1
 1435 003c 00E0     		b	.L98
 1436              	.L99:
 446:app_statemachine.c ****         default:  return 0;
 1437              		.loc 1 446 0
 1438 003e 0023     		movs	r3, #0
 1439              	.L98:
 447:app_statemachine.c ****     }
 448:app_statemachine.c **** }
 1440              		.loc 1 448 0
 1441 0040 1846     		mov	r0, r3
 1442 0042 0837     		adds	r7, r7, #8
 1443              		.cfi_def_cfa_offset 8
 1444 0044 BD46     		mov	sp, r7
ARM GAS  C:\Users\yoons\AppData\Local\Temp\cc4JHBmd.s 			page 36


 1445              		.cfi_def_cfa_register 13
 1446              		@ sp needed
 1447 0046 80BD     		pop	{r7, pc}
 1448              		.cfi_endproc
 1449              	.LFE78:
 1450              		.size	handle_nav_key, .-handle_nav_key
 1451              		.section	.text.app_dispatch_key,"ax",%progbits
 1452              		.align	2
 1453              		.global	app_dispatch_key
 1454              		.thumb
 1455              		.thumb_func
 1456              		.type	app_dispatch_key, %function
 1457              	app_dispatch_key:
 1458              	.LFB79:
 449:app_statemachine.c **** 
 450:app_statemachine.c **** 
 451:app_statemachine.c **** // % Public key handling entry point %----------------------------------------%
 452:app_statemachine.c **** uint8_t app_dispatch_key(app_ctx_t *ctx, char key)
 453:app_statemachine.c **** {
 1459              		.loc 1 453 0
 1460              		.cfi_startproc
 1461              		@ args = 0, pretend = 0, frame = 16
 1462              		@ frame_needed = 1, uses_anonymous_args = 0
 1463 0000 80B5     		push	{r7, lr}
 1464              		.cfi_def_cfa_offset 8
 1465              		.cfi_offset 7, -8
 1466              		.cfi_offset 14, -4
 1467 0002 84B0     		sub	sp, sp, #16
 1468              		.cfi_def_cfa_offset 24
 1469 0004 00AF     		add	r7, sp, #0
 1470              		.cfi_def_cfa_register 7
 1471 0006 7860     		str	r0, [r7, #4]
 1472 0008 0B46     		mov	r3, r1
 1473 000a FB70     		strb	r3, [r7, #3]
 454:app_statemachine.c ****     if (ctx->state >= STATE_COUNT) return 0;  // Guard on real states
 1474              		.loc 1 454 0
 1475 000c 7B68     		ldr	r3, [r7, #4]
 1476 000e 1B79     		ldrb	r3, [r3, #4]	@ zero_extendqisi2
 1477 0010 102B     		cmp	r3, #16
 1478 0012 01D9     		bls	.L101
 1479              		.loc 1 454 0 is_stmt 0 discriminator 1
 1480 0014 0023     		movs	r3, #0
 1481 0016 3DE0     		b	.L102
 1482              	.L101:
 455:app_statemachine.c **** 
 456:app_statemachine.c ****     if (ctx->fatal_latched)  // Lout of if in FATAL error.
 1483              		.loc 1 456 0 is_stmt 1
 1484 0018 7B68     		ldr	r3, [r7, #4]
 1485 001a 1B7E     		ldrb	r3, [r3, #24]	@ zero_extendqisi2
 1486 001c 002B     		cmp	r3, #0
 1487 001e 0BD0     		beq	.L103
 457:app_statemachine.c ****         return (key == KEY_CTRL_R) ? handle_global_key(ctx, key) : 0;
 1488              		.loc 1 457 0
 1489 0020 FB78     		ldrb	r3, [r7, #3]	@ zero_extendqisi2
 1490 0022 122B     		cmp	r3, #18
 1491 0024 06D1     		bne	.L104
 1492              		.loc 1 457 0 is_stmt 0 discriminator 1
ARM GAS  C:\Users\yoons\AppData\Local\Temp\cc4JHBmd.s 			page 37


 1493 0026 FB78     		ldrb	r3, [r7, #3]	@ zero_extendqisi2
 1494 0028 1946     		mov	r1, r3
 1495 002a 7868     		ldr	r0, [r7, #4]
 1496 002c FFF7FEFF 		bl	handle_global_key
 1497 0030 0346     		mov	r3, r0
 1498 0032 2FE0     		b	.L102
 1499              	.L104:
 1500              		.loc 1 457 0 discriminator 2
 1501 0034 0023     		movs	r3, #0
 1502 0036 2DE0     		b	.L102
 1503              	.L103:
 458:app_statemachine.c **** 
 459:app_statemachine.c ****     if (handle_global_key(ctx, key)) return 1;  // Handle global keys first
 1504              		.loc 1 459 0 is_stmt 1
 1505 0038 FB78     		ldrb	r3, [r7, #3]	@ zero_extendqisi2
 1506 003a 1946     		mov	r1, r3
 1507 003c 7868     		ldr	r0, [r7, #4]
 1508 003e FFF7FEFF 		bl	handle_global_key
 1509 0042 0346     		mov	r3, r0
 1510 0044 002B     		cmp	r3, #0
 1511 0046 01D0     		beq	.L106
 1512              		.loc 1 459 0 is_stmt 0 discriminator 1
 1513 0048 0123     		movs	r3, #1
 1514 004a 23E0     		b	.L102
 1515              	.L106:
 460:app_statemachine.c **** 
 461:app_statemachine.c ****     // Handle per leaf key
 462:app_statemachine.c ****     key_fn_t f = on_key[ctx->state];
 1516              		.loc 1 462 0 is_stmt 1
 1517 004c 7B68     		ldr	r3, [r7, #4]
 1518 004e 1B79     		ldrb	r3, [r3, #4]	@ zero_extendqisi2
 1519 0050 1A46     		mov	r2, r3
 1520 0052 124B     		ldr	r3, .L109
 1521 0054 53F82230 		ldr	r3, [r3, r2, lsl #2]
 1522 0058 FB60     		str	r3, [r7, #12]
 463:app_statemachine.c ****     if (f && f(ctx, key)) return 1;
 1523              		.loc 1 463 0
 1524 005a FB68     		ldr	r3, [r7, #12]
 1525 005c 002B     		cmp	r3, #0
 1526 005e 09D0     		beq	.L107
 1527              		.loc 1 463 0 is_stmt 0 discriminator 1
 1528 0060 FA78     		ldrb	r2, [r7, #3]	@ zero_extendqisi2
 1529 0062 FB68     		ldr	r3, [r7, #12]
 1530 0064 1146     		mov	r1, r2
 1531 0066 7868     		ldr	r0, [r7, #4]
 1532 0068 9847     		blx	r3
 1533 006a 0346     		mov	r3, r0
 1534 006c 002B     		cmp	r3, #0
 1535 006e 01D0     		beq	.L107
 1536              		.loc 1 463 0 discriminator 2
 1537 0070 0123     		movs	r3, #1
 1538 0072 0FE0     		b	.L102
 1539              	.L107:
 464:app_statemachine.c ****     
 465:app_statemachine.c ****     // Handle state change numerals unless locked
 466:app_statemachine.c ****     if (!leaf_traps_nav(ctx->state))
 1540              		.loc 1 466 0 is_stmt 1
ARM GAS  C:\Users\yoons\AppData\Local\Temp\cc4JHBmd.s 			page 38


 1541 0074 7B68     		ldr	r3, [r7, #4]
 1542 0076 1B79     		ldrb	r3, [r3, #4]	@ zero_extendqisi2
 1543 0078 1846     		mov	r0, r3
 1544 007a FFF7FEFF 		bl	leaf_traps_nav
 1545 007e 0346     		mov	r3, r0
 1546 0080 002B     		cmp	r3, #0
 1547 0082 06D1     		bne	.L108
 467:app_statemachine.c ****         return handle_nav_key(ctx, key);
 1548              		.loc 1 467 0
 1549 0084 FB78     		ldrb	r3, [r7, #3]	@ zero_extendqisi2
 1550 0086 1946     		mov	r1, r3
 1551 0088 7868     		ldr	r0, [r7, #4]
 1552 008a FFF7FEFF 		bl	handle_nav_key
 1553 008e 0346     		mov	r3, r0
 1554 0090 00E0     		b	.L102
 1555              	.L108:
 468:app_statemachine.c **** 
 469:app_statemachine.c ****     return 0;
 1556              		.loc 1 469 0
 1557 0092 0023     		movs	r3, #0
 1558              	.L102:
 470:app_statemachine.c **** }
 1559              		.loc 1 470 0
 1560 0094 1846     		mov	r0, r3
 1561 0096 1037     		adds	r7, r7, #16
 1562              		.cfi_def_cfa_offset 8
 1563 0098 BD46     		mov	sp, r7
 1564              		.cfi_def_cfa_register 13
 1565              		@ sp needed
 1566 009a 80BD     		pop	{r7, pc}
 1567              	.L110:
 1568              		.align	2
 1569              	.L109:
 1570 009c E0000000 		.word	on_key
 1571              		.cfi_endproc
 1572              	.LFE79:
 1573              		.size	app_dispatch_key, .-app_dispatch_key
 1574              		.section	.text.sbc_state_is_requestable,"ax",%progbits
 1575              		.align	2
 1576              		.thumb
 1577              		.thumb_func
 1578              		.type	sbc_state_is_requestable, %function
 1579              	sbc_state_is_requestable:
 1580              	.LFB80:
 471:app_statemachine.c **** 
 472:app_statemachine.c **** 
 473:app_statemachine.c **** // %==========================================================================%
 474:app_statemachine.c **** // %                        SBC Commands and Control                          %
 475:app_statemachine.c **** // %==========================================================================%
 476:app_statemachine.c **** // Helper - Validate state change request
 477:app_statemachine.c **** static uint8_t sbc_state_is_requestable(uint8_t s)
 478:app_statemachine.c **** {
 1581              		.loc 1 478 0
 1582              		.cfi_startproc
 1583              		@ args = 0, pretend = 0, frame = 8
 1584              		@ frame_needed = 1, uses_anonymous_args = 0
 1585              		@ link register save eliminated.
ARM GAS  C:\Users\yoons\AppData\Local\Temp\cc4JHBmd.s 			page 39


 1586 0000 80B4     		push	{r7}
 1587              		.cfi_def_cfa_offset 4
 1588              		.cfi_offset 7, -4
 1589 0002 83B0     		sub	sp, sp, #12
 1590              		.cfi_def_cfa_offset 16
 1591 0004 00AF     		add	r7, sp, #0
 1592              		.cfi_def_cfa_register 7
 1593 0006 0346     		mov	r3, r0
 1594 0008 FB71     		strb	r3, [r7, #7]
 479:app_statemachine.c ****     // Not implemented. Should be a state-to-state look up table I think.
 480:app_statemachine.c ****     switch ((state_t)s) {
 1595              		.loc 1 480 0
 1596 000a FB79     		ldrb	r3, [r7, #7]	@ zero_extendqisi2
 1597 000c 063B     		subs	r3, r3, #6
 1598 000e 062B     		cmp	r3, #6
 1599 0010 01D8     		bhi	.L112
 481:app_statemachine.c ****         case STBY_HOLD:
 482:app_statemachine.c ****         case MANU_JOYSTICK:
 483:app_statemachine.c ****         case AUTO_HOME:
 484:app_statemachine.c ****         case AUTO_HOLD:
 485:app_statemachine.c ****         case AUTO_ACQ_GPS:
 486:app_statemachine.c ****         case AUTO_ACQ_SPIRAL:
 487:app_statemachine.c ****         case AUTO_TRACKING:
 488:app_statemachine.c ****             return 1u;
 1600              		.loc 1 488 0
 1601 0012 0123     		movs	r3, #1
 1602 0014 00E0     		b	.L114
 1603              	.L112:
 489:app_statemachine.c ****         case ERROR_KILL:  // Serial only for now
 490:app_statemachine.c ****         default:
 491:app_statemachine.c ****             return 0u;
 1604              		.loc 1 491 0
 1605 0016 0023     		movs	r3, #0
 1606              	.L114:
 492:app_statemachine.c ****     }
 493:app_statemachine.c **** }
 1607              		.loc 1 493 0
 1608 0018 1846     		mov	r0, r3
 1609 001a 0C37     		adds	r7, r7, #12
 1610              		.cfi_def_cfa_offset 4
 1611 001c BD46     		mov	sp, r7
 1612              		.cfi_def_cfa_register 13
 1613              		@ sp needed
 1614 001e 80BC     		pop	{r7}
 1615              		.cfi_restore 7
 1616              		.cfi_def_cfa_offset 0
 1617 0020 7047     		bx	lr
 1618              		.cfi_endproc
 1619              	.LFE80:
 1620              		.size	sbc_state_is_requestable, .-sbc_state_is_requestable
 1621              		.section	.text.nudge_allowed_in,"ax",%progbits
 1622              		.align	2
 1623              		.thumb
 1624              		.thumb_func
 1625              		.type	nudge_allowed_in, %function
 1626              	nudge_allowed_in:
 1627              	.LFB81:
ARM GAS  C:\Users\yoons\AppData\Local\Temp\cc4JHBmd.s 			page 40


 494:app_statemachine.c **** 
 495:app_statemachine.c **** // gate which states are allowed to receive manual nudges from SBC
 496:app_statemachine.c **** static uint8_t nudge_allowed_in(state_t s)
 497:app_statemachine.c **** {
 1628              		.loc 1 497 0
 1629              		.cfi_startproc
 1630              		@ args = 0, pretend = 0, frame = 8
 1631              		@ frame_needed = 1, uses_anonymous_args = 0
 1632              		@ link register save eliminated.
 1633 0000 80B4     		push	{r7}
 1634              		.cfi_def_cfa_offset 4
 1635              		.cfi_offset 7, -4
 1636 0002 83B0     		sub	sp, sp, #12
 1637              		.cfi_def_cfa_offset 16
 1638 0004 00AF     		add	r7, sp, #0
 1639              		.cfi_def_cfa_register 7
 1640 0006 0346     		mov	r3, r0
 1641 0008 FB71     		strb	r3, [r7, #7]
 498:app_statemachine.c ****     switch (s) {
 1642              		.loc 1 498 0
 1643 000a FB79     		ldrb	r3, [r7, #7]	@ zero_extendqisi2
 1644 000c 063B     		subs	r3, r3, #6
 1645 000e 082B     		cmp	r3, #8
 1646 0010 16D8     		bhi	.L116
 1647 0012 01A2     		adr	r2, .L118
 1648 0014 52F823F0 		ldr	pc, [r2, r3, lsl #2]
 1649              		.p2align 2
 1650              	.L118:
 1651 0018 3D000000 		.word	.L117+1
 1652 001c 3D000000 		.word	.L117+1
 1653 0020 41000000 		.word	.L116+1
 1654 0024 3D000000 		.word	.L117+1
 1655 0028 41000000 		.word	.L116+1
 1656 002c 41000000 		.word	.L116+1
 1657 0030 41000000 		.word	.L116+1
 1658 0034 3D000000 		.word	.L117+1
 1659 0038 3D000000 		.word	.L117+1
 1660              		.p2align 1
 1661              	.L117:
 499:app_statemachine.c ****         case STBY_HOLD:
 500:app_statemachine.c ****         case MANU_JOYSTICK:
 501:app_statemachine.c ****         case AUTO_HOLD:
 502:app_statemachine.c ****         case AUTO_LOSS:
 503:app_statemachine.c ****         case AUTO_NO_LOCK:
 504:app_statemachine.c ****             return 1u;
 1662              		.loc 1 504 0
 1663 003c 0123     		movs	r3, #1
 1664 003e 00E0     		b	.L119
 1665              	.L116:
 505:app_statemachine.c ****         default:
 506:app_statemachine.c ****             return 0u;
 1666              		.loc 1 506 0
 1667 0040 0023     		movs	r3, #0
 1668              	.L119:
 507:app_statemachine.c ****     }
 508:app_statemachine.c **** }
 1669              		.loc 1 508 0
ARM GAS  C:\Users\yoons\AppData\Local\Temp\cc4JHBmd.s 			page 41


 1670 0042 1846     		mov	r0, r3
 1671 0044 0C37     		adds	r7, r7, #12
 1672              		.cfi_def_cfa_offset 4
 1673 0046 BD46     		mov	sp, r7
 1674              		.cfi_def_cfa_register 13
 1675              		@ sp needed
 1676 0048 80BC     		pop	{r7}
 1677              		.cfi_restore 7
 1678              		.cfi_def_cfa_offset 0
 1679 004a 7047     		bx	lr
 1680              		.cfi_endproc
 1681              	.LFE81:
 1682              		.size	nudge_allowed_in, .-nudge_allowed_in
 1683              		.global	__aeabi_i2f
 1684              		.global	__aeabi_fdiv
 1685              		.section	.rodata
 1686 03a7 00       		.align	2
 1687              	.LC25:
 1688 03a8 5B534243 		.ascii	"[SBC] nudge ignored (not in MANU)\015\012\000"
 1688      5D206E75 
 1688      64676520 
 1688      69676E6F 
 1688      72656420 
 1689              		.global	__aeabi_f2d
 1690              		.align	2
 1691              	.LC26:
 1692 03cc 5B534243 		.ascii	"[SBC] track_kp = %.6f\015\012\000"
 1692      5D207472 
 1692      61636B5F 
 1692      6B70203D 
 1692      20252E36 
 1693              		.align	2
 1694              	.LC27:
 1695 03e4 5B534243 		.ascii	"[SBC] unknown param id=%u\015\012\000"
 1695      5D20756E 
 1695      6B6E6F77 
 1695      6E207061 
 1695      72616D20 
 1696              		.align	2
 1697              	.LC28:
 1698 0400 5B534243 		.ascii	"[SBC] invalid state req=%u\015\012\000"
 1698      5D20696E 
 1698      76616C69 
 1698      64207374 
 1698      61746520 
 1699 041d 000000   		.align	2
 1700              	.LC29:
 1701 0420 5B534243 		.ascii	"[SBC] state req -> %s\015\012\000"
 1701      5D207374 
 1701      61746520 
 1701      72657120 
 1701      2D3E2025 
 1702              		.section	.text.app_sbc_tick,"ax",%progbits
 1703              		.align	2
 1704              		.global	app_sbc_tick
 1705              		.thumb
 1706              		.thumb_func
ARM GAS  C:\Users\yoons\AppData\Local\Temp\cc4JHBmd.s 			page 42


 1707              		.type	app_sbc_tick, %function
 1708              	app_sbc_tick:
 1709              	.LFB82:
 509:app_statemachine.c **** 
 510:app_statemachine.c **** void app_sbc_tick(app_ctx_t *ctx)
 511:app_statemachine.c **** {
 1710              		.loc 1 511 0
 1711              		.cfi_startproc
 1712              		@ args = 0, pretend = 0, frame = 168
 1713              		@ frame_needed = 1, uses_anonymous_args = 0
 1714 0000 90B5     		push	{r4, r7, lr}
 1715              		.cfi_def_cfa_offset 12
 1716              		.cfi_offset 4, -12
 1717              		.cfi_offset 7, -8
 1718              		.cfi_offset 14, -4
 1719 0002 ADB0     		sub	sp, sp, #180
 1720              		.cfi_def_cfa_offset 192
 1721 0004 02AF     		add	r7, sp, #8
 1722              		.cfi_def_cfa 7, 184
 1723 0006 7860     		str	r0, [r7, #4]
 512:app_statemachine.c ****     // TODO: Is this the right flow? The ctx should have a target coord,
 513:app_statemachine.c ****     // when the ISR for the SBC comms triggers it should load a new target 
 514:app_statemachine.c ****     // into the ctx.
 515:app_statemachine.c **** 
 516:app_statemachine.c ****     // 1 -> Check for GPS target
 517:app_statemachine.c ****     payload_gps_target_t tgt;
 518:app_statemachine.c ****     if (sbc_get_gps_target(&tgt))
 1724              		.loc 1 518 0
 1725 0008 07F19803 		add	r3, r7, #152
 1726 000c 1846     		mov	r0, r3
 1727 000e FFF7FEFF 		bl	sbc_get_gps_target
 1728 0012 0346     		mov	r3, r0
 1729 0014 002B     		cmp	r3, #0
 1730 0016 13D0     		beq	.L121
 519:app_statemachine.c ****     {
 520:app_statemachine.c ****         ctx->gps_target_lat_raw = tgt.lat_raw;
 1731              		.loc 1 520 0
 1732 0018 D7F89820 		ldr	r2, [r7, #152]
 1733 001c 7B68     		ldr	r3, [r7, #4]
 1734 001e 5A62     		str	r2, [r3, #36]
 521:app_statemachine.c ****         ctx->gps_target_lon_raw = tgt.lon_raw;
 1735              		.loc 1 521 0
 1736 0020 D7F89C20 		ldr	r2, [r7, #156]
 1737 0024 7B68     		ldr	r3, [r7, #4]
 1738 0026 9A62     		str	r2, [r3, #40]
 522:app_statemachine.c ****         ctx->gps_target_alt_mm  = tgt.alt_mm;
 1739              		.loc 1 522 0
 1740 0028 D7F8A020 		ldr	r2, [r7, #160]
 1741 002c 7B68     		ldr	r3, [r7, #4]
 1742 002e DA62     		str	r2, [r3, #44]
 523:app_statemachine.c ****         ctx->gps_target_set     = 1u;
 1743              		.loc 1 523 0
 1744 0030 7B68     		ldr	r3, [r7, #4]
 1745 0032 0122     		movs	r2, #1
 1746 0034 83F83020 		strb	r2, [r3, #48]
 524:app_statemachine.c ****         ctx->gps_new_target     = 1u;   // ACQ_GPS picks this up on next settle
 1747              		.loc 1 524 0
ARM GAS  C:\Users\yoons\AppData\Local\Temp\cc4JHBmd.s 			page 43


 1748 0038 7B68     		ldr	r3, [r7, #4]
 1749 003a 0122     		movs	r2, #1
 1750 003c 83F83120 		strb	r2, [r3, #49]
 1751              	.L121:
 525:app_statemachine.c ****     }
 526:app_statemachine.c **** 
 527:app_statemachine.c ****     // 2 -> Check for nudge (clamped to soft limits of the origin inside nudge_apply)
 528:app_statemachine.c ****     payload_nudge_t nz;
 529:app_statemachine.c ****     if (sbc_get_nudge(&nz)) {
 1752              		.loc 1 529 0
 1753 0040 07F19403 		add	r3, r7, #148
 1754 0044 1846     		mov	r0, r3
 1755 0046 FFF7FEFF 		bl	sbc_get_nudge
 1756 004a 0346     		mov	r3, r0
 1757 004c 002B     		cmp	r3, #0
 1758 004e 27D0     		beq	.L122
 530:app_statemachine.c ****         if (nudge_allowed_in(ctx->state)) {
 1759              		.loc 1 530 0
 1760 0050 7B68     		ldr	r3, [r7, #4]
 1761 0052 1B79     		ldrb	r3, [r3, #4]	@ zero_extendqisi2
 1762 0054 1846     		mov	r0, r3
 1763 0056 FFF7FEFF 		bl	nudge_allowed_in
 1764 005a 0346     		mov	r3, r0
 1765 005c 002B     		cmp	r3, #0
 1766 005e 1CD0     		beq	.L123
 531:app_statemachine.c ****             nudge_apply(ctx,
 532:app_statemachine.c ****                         (float)nz.dpan_cdeg  / 100.0f,
 1767              		.loc 1 532 0
 1768 0060 B7F99430 		ldrsh	r3, [r7, #148]
 1769 0064 1846     		mov	r0, r3
 1770 0066 FFF7FEFF 		bl	__aeabi_i2f
 1771 006a 0346     		mov	r3, r0
 531:app_statemachine.c ****             nudge_apply(ctx,
 1772              		.loc 1 531 0
 1773 006c 5549     		ldr	r1, .L135
 1774 006e 1846     		mov	r0, r3
 1775 0070 FFF7FEFF 		bl	__aeabi_fdiv
 1776 0074 0346     		mov	r3, r0
 1777 0076 1C46     		mov	r4, r3
 533:app_statemachine.c ****                         (float)nz.dtilt_cdeg / 100.0f);
 1778              		.loc 1 533 0
 1779 0078 B7F99630 		ldrsh	r3, [r7, #150]
 1780 007c 1846     		mov	r0, r3
 1781 007e FFF7FEFF 		bl	__aeabi_i2f
 1782 0082 0346     		mov	r3, r0
 531:app_statemachine.c ****             nudge_apply(ctx,
 1783              		.loc 1 531 0
 1784 0084 4F49     		ldr	r1, .L135
 1785 0086 1846     		mov	r0, r3
 1786 0088 FFF7FEFF 		bl	__aeabi_fdiv
 1787 008c 0346     		mov	r3, r0
 1788 008e 1A46     		mov	r2, r3
 1789 0090 2146     		mov	r1, r4
 1790 0092 7868     		ldr	r0, [r7, #4]
 1791 0094 FFF7FEFF 		bl	nudge_apply
 1792 0098 02E0     		b	.L122
 1793              	.L123:
ARM GAS  C:\Users\yoons\AppData\Local\Temp\cc4JHBmd.s 			page 44


 534:app_statemachine.c ****         } else {
 535:app_statemachine.c ****             UART_DEBUG_PutString("[SBC] nudge ignored (not in MANU)\r\n");
 1794              		.loc 1 535 0
 1795 009a 4B48     		ldr	r0, .L135+4
 1796 009c FFF7FEFF 		bl	dbg_put
 1797              	.L122:
 536:app_statemachine.c ****         }
 537:app_statemachine.c ****     }
 538:app_statemachine.c **** 
 539:app_statemachine.c ****     // 2 -> Parameter tuning
 540:app_statemachine.c ****     payload_param_t pp;
 541:app_statemachine.c ****     if (sbc_get_param(&pp)) {
 1798              		.loc 1 541 0
 1799 00a0 07F18C03 		add	r3, r7, #140
 1800 00a4 1846     		mov	r0, r3
 1801 00a6 FFF7FEFF 		bl	sbc_get_param
 1802 00aa 0346     		mov	r3, r0
 1803 00ac 002B     		cmp	r3, #0
 1804 00ae 2AD0     		beq	.L124
 542:app_statemachine.c ****         switch (pp.id) {
 1805              		.loc 1 542 0
 1806 00b0 97F88C30 		ldrb	r3, [r7, #140]	@ zero_extendqisi2
 1807 00b4 012B     		cmp	r3, #1
 1808 00b6 18D1     		bne	.L133
 543:app_statemachine.c ****             case PARAM_TRACK_KP:
 544:app_statemachine.c ****                 ctx->track_kp = pp.value;
 1809              		.loc 1 544 0
 1810 00b8 D7F89020 		ldr	r2, [r7, #144]	@ float
 1811 00bc 7B68     		ldr	r3, [r7, #4]
 1812 00be 1A65     		str	r2, [r3, #80]	@ float
 1813              	.LBB4:
 545:app_statemachine.c ****                 {
 546:app_statemachine.c ****                     char b[64];
 547:app_statemachine.c ****                     snprintf(b, sizeof b, "[SBC] track_kp = %.6f\r\n",
 548:app_statemachine.c ****                              (double)ctx->track_kp);
 1814              		.loc 1 548 0
 1815 00c0 7B68     		ldr	r3, [r7, #4]
 1816 00c2 1B6D     		ldr	r3, [r3, #80]	@ float
 547:app_statemachine.c ****                              (double)ctx->track_kp);
 1817              		.loc 1 547 0
 1818 00c4 1846     		mov	r0, r3
 1819 00c6 FFF7FEFF 		bl	__aeabi_f2d
 1820 00ca 0346     		mov	r3, r0
 1821 00cc 0C46     		mov	r4, r1
 1822 00ce 07F10800 		add	r0, r7, #8
 1823 00d2 CDE90034 		strd	r3, [sp]
 1824 00d6 3D4A     		ldr	r2, .L135+8
 1825 00d8 4021     		movs	r1, #64
 1826 00da FFF7FEFF 		bl	snprintf
 549:app_statemachine.c ****                     UART_DEBUG_PutString(b);
 1827              		.loc 1 549 0
 1828 00de 07F10803 		add	r3, r7, #8
 1829 00e2 1846     		mov	r0, r3
 1830 00e4 FFF7FEFF 		bl	dbg_put
 1831              	.LBE4:
 550:app_statemachine.c ****                 }
 551:app_statemachine.c ****                 break;
ARM GAS  C:\Users\yoons\AppData\Local\Temp\cc4JHBmd.s 			page 45


 1832              		.loc 1 551 0
 1833 00e8 0DE0     		b	.L124
 1834              	.L133:
 1835              	.LBB5:
 552:app_statemachine.c ****             default:
 553:app_statemachine.c ****                 {
 554:app_statemachine.c ****                     char b[64];
 555:app_statemachine.c ****                     snprintf(b, sizeof b, "[SBC] unknown param id=%u\r\n",
 556:app_statemachine.c ****                              (unsigned)pp.id);
 1836              		.loc 1 556 0
 1837 00ea 97F88C30 		ldrb	r3, [r7, #140]	@ zero_extendqisi2
 555:app_statemachine.c ****                              (unsigned)pp.id);
 1838              		.loc 1 555 0
 1839 00ee 07F10800 		add	r0, r7, #8
 1840 00f2 374A     		ldr	r2, .L135+12
 1841 00f4 4021     		movs	r1, #64
 1842 00f6 FFF7FEFF 		bl	snprintf
 557:app_statemachine.c ****                     UART_DEBUG_PutString(b);
 1843              		.loc 1 557 0
 1844 00fa 07F10803 		add	r3, r7, #8
 1845 00fe 1846     		mov	r0, r3
 1846 0100 FFF7FEFF 		bl	dbg_put
 1847              	.LBE5:
 558:app_statemachine.c ****                 }
 559:app_statemachine.c ****                 break;
 1848              		.loc 1 559 0
 1849 0104 00BF     		nop
 1850              	.L124:
 560:app_statemachine.c ****         }
 561:app_statemachine.c ****     }
 562:app_statemachine.c **** 
 563:app_statemachine.c ****     // 3 -> Capture software origin from current telemetry
 564:app_statemachine.c ****     if (sbc_get_set_origin()) {
 1851              		.loc 1 564 0
 1852 0106 FFF7FEFF 		bl	sbc_get_set_origin
 1853 010a 0346     		mov	r3, r0
 1854 010c 002B     		cmp	r3, #0
 1855 010e 03D0     		beq	.L127
 565:app_statemachine.c ****         set_origin(ctx, 0u);    // same path as the '[' key
 1856              		.loc 1 565 0
 1857 0110 0021     		movs	r1, #0
 1858 0112 7868     		ldr	r0, [r7, #4]
 1859 0114 FFF7FEFF 		bl	set_origin
 1860              	.L127:
 566:app_statemachine.c ****     }
 567:app_statemachine.c **** 
 568:app_statemachine.c ****     // 4 -> State change request
 569:app_statemachine.c ****     payload_state_req_t req;
 570:app_statemachine.c ****     if (!sbc_get_state_req(&req)) return;
 1861              		.loc 1 570 0
 1862 0118 07F18803 		add	r3, r7, #136
 1863 011c 1846     		mov	r0, r3
 1864 011e FFF7FEFF 		bl	sbc_get_state_req
 1865 0122 0346     		mov	r3, r0
 1866 0124 002B     		cmp	r3, #0
 1867 0126 49D0     		beq	.L134
 571:app_statemachine.c **** 
ARM GAS  C:\Users\yoons\AppData\Local\Temp\cc4JHBmd.s 			page 46


 572:app_statemachine.c ****     // Lock out if in FATAL error until ctrl-R.
 573:app_statemachine.c ****     // TODO: SBC needs a way to get out of error state too.
 574:app_statemachine.c ****     if (ctx->fatal_latched)
 1868              		.loc 1 574 0
 1869 0128 7B68     		ldr	r3, [r7, #4]
 1870 012a 1B7E     		ldrb	r3, [r3, #24]	@ zero_extendqisi2
 1871 012c 002B     		cmp	r3, #0
 1872 012e 06D0     		beq	.L130
 575:app_statemachine.c ****     {
 576:app_statemachine.c ****         sbc_send_state_ack((uint8_t)ctx->state, STATE_ACK_REJECTED);
 1873              		.loc 1 576 0
 1874 0130 7B68     		ldr	r3, [r7, #4]
 1875 0132 1B79     		ldrb	r3, [r3, #4]	@ zero_extendqisi2
 1876 0134 0121     		movs	r1, #1
 1877 0136 1846     		mov	r0, r3
 1878 0138 FFF7FEFF 		bl	sbc_send_state_ack
 577:app_statemachine.c ****         return;
 1879              		.loc 1 577 0
 1880 013c 3FE0     		b	.L120
 1881              	.L130:
 578:app_statemachine.c ****     }
 579:app_statemachine.c ****     // Validate state change request.
 580:app_statemachine.c ****     if (!sbc_state_is_requestable(req.requested_state))
 1882              		.loc 1 580 0
 1883 013e 97F88830 		ldrb	r3, [r7, #136]	@ zero_extendqisi2
 1884 0142 1846     		mov	r0, r3
 1885 0144 FFF7FEFF 		bl	sbc_state_is_requestable
 1886 0148 0346     		mov	r3, r0
 1887 014a 002B     		cmp	r3, #0
 1888 014c 14D1     		bne	.L131
 1889              	.LBB6:
 581:app_statemachine.c ****     {
 582:app_statemachine.c ****         sbc_send_state_ack((uint8_t)ctx->state, STATE_ACK_INVALID);
 1890              		.loc 1 582 0
 1891 014e 7B68     		ldr	r3, [r7, #4]
 1892 0150 1B79     		ldrb	r3, [r3, #4]	@ zero_extendqisi2
 1893 0152 0221     		movs	r1, #2
 1894 0154 1846     		mov	r0, r3
 1895 0156 FFF7FEFF 		bl	sbc_send_state_ack
 583:app_statemachine.c ****         char b[64];
 584:app_statemachine.c ****         snprintf(b, sizeof b, "[SBC] invalid state req=%u\r\n",
 585:app_statemachine.c ****                  (unsigned)req.requested_state);
 1896              		.loc 1 585 0
 1897 015a 97F88830 		ldrb	r3, [r7, #136]	@ zero_extendqisi2
 584:app_statemachine.c ****                  (unsigned)req.requested_state);
 1898              		.loc 1 584 0
 1899 015e 07F10800 		add	r0, r7, #8
 1900 0162 1C4A     		ldr	r2, .L135+16
 1901 0164 4021     		movs	r1, #64
 1902 0166 FFF7FEFF 		bl	snprintf
 586:app_statemachine.c ****         UART_DEBUG_PutString(b);
 1903              		.loc 1 586 0
 1904 016a 07F10803 		add	r3, r7, #8
 1905 016e 1846     		mov	r0, r3
 1906 0170 FFF7FEFF 		bl	dbg_put
 587:app_statemachine.c ****         return;
 1907              		.loc 1 587 0
ARM GAS  C:\Users\yoons\AppData\Local\Temp\cc4JHBmd.s 			page 47


 1908 0174 00BF     		nop
 1909 0176 22E0     		b	.L120
 1910              	.L131:
 1911              	.LBE6:
 588:app_statemachine.c ****     }
 589:app_statemachine.c **** 
 590:app_statemachine.c ****     state_t target = (state_t)req.requested_state;
 1912              		.loc 1 590 0
 1913 0178 97F88830 		ldrb	r3, [r7, #136]
 1914 017c 87F8A730 		strb	r3, [r7, #167]
 591:app_statemachine.c ****     // Debug serial monitor print.
 592:app_statemachine.c ****     char b[64];
 593:app_statemachine.c ****     snprintf(b, sizeof b, "[SBC] state req -> %s\r\n", app_state_name(target));
 1915              		.loc 1 593 0
 1916 0180 97F8A730 		ldrb	r3, [r7, #167]	@ zero_extendqisi2
 1917 0184 1846     		mov	r0, r3
 1918 0186 FFF7FEFF 		bl	app_state_name
 1919 018a 0346     		mov	r3, r0
 1920 018c 07F14800 		add	r0, r7, #72
 1921 0190 114A     		ldr	r2, .L135+20
 1922 0192 4021     		movs	r1, #64
 1923 0194 FFF7FEFF 		bl	snprintf
 594:app_statemachine.c ****     UART_DEBUG_PutString(b);
 1924              		.loc 1 594 0
 1925 0198 07F14803 		add	r3, r7, #72
 1926 019c 1846     		mov	r0, r3
 1927 019e FFF7FEFF 		bl	dbg_put
 595:app_statemachine.c ****     // Trigger state change
 596:app_statemachine.c ****     app_transition(ctx, target);
 1928              		.loc 1 596 0
 1929 01a2 97F8A730 		ldrb	r3, [r7, #167]	@ zero_extendqisi2
 1930 01a6 1946     		mov	r1, r3
 1931 01a8 7868     		ldr	r0, [r7, #4]
 1932 01aa FFF7FEFF 		bl	app_transition
 597:app_statemachine.c ****     // Acknowledge on success.
 598:app_statemachine.c ****     sbc_send_state_ack((uint8_t)ctx->state, STATE_ACK_OK);
 1933              		.loc 1 598 0
 1934 01ae 7B68     		ldr	r3, [r7, #4]
 1935 01b0 1B79     		ldrb	r3, [r3, #4]	@ zero_extendqisi2
 1936 01b2 0021     		movs	r1, #0
 1937 01b4 1846     		mov	r0, r3
 1938 01b6 FFF7FEFF 		bl	sbc_send_state_ack
 1939 01ba 00E0     		b	.L120
 1940              	.L134:
 570:app_statemachine.c **** 
 1941              		.loc 1 570 0
 1942 01bc 00BF     		nop
 1943              	.L120:
 599:app_statemachine.c **** }
 1944              		.loc 1 599 0
 1945 01be AC37     		adds	r7, r7, #172
 1946              		.cfi_def_cfa_offset 12
 1947 01c0 BD46     		mov	sp, r7
 1948              		.cfi_def_cfa_register 13
 1949              		@ sp needed
 1950 01c2 90BD     		pop	{r4, r7, pc}
 1951              	.L136:
ARM GAS  C:\Users\yoons\AppData\Local\Temp\cc4JHBmd.s 			page 48


 1952              		.align	2
 1953              	.L135:
 1954 01c4 0000C842 		.word	1120403456
 1955 01c8 A8030000 		.word	.LC25
 1956 01cc CC030000 		.word	.LC26
 1957 01d0 E4030000 		.word	.LC27
 1958 01d4 00040000 		.word	.LC28
 1959 01d8 20040000 		.word	.LC29
 1960              		.cfi_endproc
 1961              	.LFE82:
 1962              		.size	app_sbc_tick, .-app_sbc_tick
 1963              		.bss
 1964              		.align	2
 1965              	last_hot_ms.8356:
 1966 0000 00000000 		.space	4
 1967              		.align	2
 1968              	last_link_ms.8357:
 1969 0004 00000000 		.space	4
 1970              		.text
 1971              	.Letext0:
 1972              		.file 2 "c:\\program files (x86)\\cypress\\psoc creator\\4.4\\psoc creator\\import\\gnu\\arm\\5.4.
 1973              		.file 3 "c:\\program files (x86)\\cypress\\psoc creator\\4.4\\psoc creator\\import\\gnu\\arm\\5.4.
 1974              		.file 4 "..\\..\\..\\HamFlyAPI\\src/hamfly_core_hal.h"
 1975              		.file 5 "..\\..\\..\\HamFlyAPI\\src/hamfly_core_control.h"
 1976              		.file 6 "..\\..\\..\\HamFlyAPI\\src/hamfly_core_telemetry.h"
 1977              		.file 7 "..\\..\\..\\HamFlyAPI\\src/hamfly_comm_rb.h"
 1978              		.file 8 "..\\..\\..\\HamFlyAPI\\src/hamfly_core_gimbal.h"
 1979              		.file 9 "sbc_comms.h"
 1980              		.file 10 "app_ctx.h"
 1981              		.file 11 "Generated_Source\\PSoC5/core_cm3.h"
 1982              		.section	.debug_info,"",%progbits
 1983              	.Ldebug_info0:
 1984 0000 C1110000 		.4byte	0x11c1
 1985 0004 0400     		.2byte	0x4
 1986 0006 00000000 		.4byte	.Ldebug_abbrev0
 1987 000a 04       		.byte	0x4
 1988 000b 01       		.uleb128 0x1
 1989 000c 73060000 		.4byte	.LASF254
 1990 0010 0C       		.byte	0xc
 1991 0011 820A0000 		.4byte	.LASF255
 1992 0015 660B0000 		.4byte	.LASF256
 1993 0019 00000000 		.4byte	.Ldebug_ranges0+0
 1994 001d 00000000 		.4byte	0
 1995 0021 00000000 		.4byte	.Ldebug_line0
 1996 0025 02       		.uleb128 0x2
 1997 0026 01       		.byte	0x1
 1998 0027 06       		.byte	0x6
 1999 0028 8E020000 		.4byte	.LASF0
 2000 002c 03       		.uleb128 0x3
 2001 002d 95010000 		.4byte	.LASF2
 2002 0031 02       		.byte	0x2
 2003 0032 1D       		.byte	0x1d
 2004 0033 37000000 		.4byte	0x37
 2005 0037 02       		.uleb128 0x2
 2006 0038 01       		.byte	0x1
 2007 0039 08       		.byte	0x8
 2008 003a FC020000 		.4byte	.LASF1
ARM GAS  C:\Users\yoons\AppData\Local\Temp\cc4JHBmd.s 			page 49


 2009 003e 03       		.uleb128 0x3
 2010 003f 0E0A0000 		.4byte	.LASF3
 2011 0043 02       		.byte	0x2
 2012 0044 29       		.byte	0x29
 2013 0045 49000000 		.4byte	0x49
 2014 0049 02       		.uleb128 0x2
 2015 004a 02       		.byte	0x2
 2016 004b 05       		.byte	0x5
 2017 004c F90A0000 		.4byte	.LASF4
 2018 0050 03       		.uleb128 0x3
 2019 0051 B0030000 		.4byte	.LASF5
 2020 0055 02       		.byte	0x2
 2021 0056 2B       		.byte	0x2b
 2022 0057 5B000000 		.4byte	0x5b
 2023 005b 02       		.uleb128 0x2
 2024 005c 02       		.byte	0x2
 2025 005d 07       		.byte	0x7
 2026 005e 780C0000 		.4byte	.LASF6
 2027 0062 03       		.uleb128 0x3
 2028 0063 980C0000 		.4byte	.LASF7
 2029 0067 02       		.byte	0x2
 2030 0068 3F       		.byte	0x3f
 2031 0069 6D000000 		.4byte	0x6d
 2032 006d 02       		.uleb128 0x2
 2033 006e 04       		.byte	0x4
 2034 006f 05       		.byte	0x5
 2035 0070 D8010000 		.4byte	.LASF8
 2036 0074 03       		.uleb128 0x3
 2037 0075 13070000 		.4byte	.LASF9
 2038 0079 02       		.byte	0x2
 2039 007a 41       		.byte	0x41
 2040 007b 7F000000 		.4byte	0x7f
 2041 007f 02       		.uleb128 0x2
 2042 0080 04       		.byte	0x4
 2043 0081 07       		.byte	0x7
 2044 0082 9E050000 		.4byte	.LASF10
 2045 0086 02       		.uleb128 0x2
 2046 0087 08       		.byte	0x8
 2047 0088 05       		.byte	0x5
 2048 0089 2D070000 		.4byte	.LASF11
 2049 008d 02       		.uleb128 0x2
 2050 008e 08       		.byte	0x8
 2051 008f 07       		.byte	0x7
 2052 0090 0D090000 		.4byte	.LASF12
 2053 0094 04       		.uleb128 0x4
 2054 0095 04       		.byte	0x4
 2055 0096 05       		.byte	0x5
 2056 0097 696E7400 		.ascii	"int\000"
 2057 009b 02       		.uleb128 0x2
 2058 009c 04       		.byte	0x4
 2059 009d 07       		.byte	0x7
 2060 009e D9070000 		.4byte	.LASF13
 2061 00a2 03       		.uleb128 0x3
 2062 00a3 9A020000 		.4byte	.LASF14
 2063 00a7 03       		.byte	0x3
 2064 00a8 18       		.byte	0x18
 2065 00a9 2C000000 		.4byte	0x2c
ARM GAS  C:\Users\yoons\AppData\Local\Temp\cc4JHBmd.s 			page 50


 2066 00ad 03       		.uleb128 0x3
 2067 00ae 1A0B0000 		.4byte	.LASF15
 2068 00b2 03       		.byte	0x3
 2069 00b3 20       		.byte	0x20
 2070 00b4 3E000000 		.4byte	0x3e
 2071 00b8 03       		.uleb128 0x3
 2072 00b9 60090000 		.4byte	.LASF16
 2073 00bd 03       		.byte	0x3
 2074 00be 24       		.byte	0x24
 2075 00bf 50000000 		.4byte	0x50
 2076 00c3 03       		.uleb128 0x3
 2077 00c4 87000000 		.4byte	.LASF17
 2078 00c8 03       		.byte	0x3
 2079 00c9 2C       		.byte	0x2c
 2080 00ca 62000000 		.4byte	0x62
 2081 00ce 03       		.uleb128 0x3
 2082 00cf 410C0000 		.4byte	.LASF18
 2083 00d3 03       		.byte	0x3
 2084 00d4 30       		.byte	0x30
 2085 00d5 74000000 		.4byte	0x74
 2086 00d9 05       		.uleb128 0x5
 2087 00da 0C       		.byte	0xc
 2088 00db 04       		.byte	0x4
 2089 00dc 24       		.byte	0x24
 2090 00dd 06010000 		.4byte	0x106
 2091 00e1 06       		.uleb128 0x6
 2092 00e2 63747800 		.ascii	"ctx\000"
 2093 00e6 04       		.byte	0x4
 2094 00e7 25       		.byte	0x25
 2095 00e8 06010000 		.4byte	0x106
 2096 00ec 00       		.byte	0
 2097 00ed 07       		.uleb128 0x7
 2098 00ee 19060000 		.4byte	.LASF19
 2099 00f2 04       		.byte	0x4
 2100 00f3 26       		.byte	0x26
 2101 00f4 18010000 		.4byte	0x118
 2102 00f8 04       		.byte	0x4
 2103 00f9 07       		.uleb128 0x7
 2104 00fa 630C0000 		.4byte	.LASF20
 2105 00fe 04       		.byte	0x4
 2106 00ff 27       		.byte	0x27
 2107 0100 2D010000 		.4byte	0x12d
 2108 0104 08       		.byte	0x8
 2109 0105 00       		.byte	0
 2110 0106 08       		.uleb128 0x8
 2111 0107 04       		.byte	0x4
 2112 0108 09       		.uleb128 0x9
 2113 0109 18010000 		.4byte	0x118
 2114 010d 0A       		.uleb128 0xa
 2115 010e 06010000 		.4byte	0x106
 2116 0112 0A       		.uleb128 0xa
 2117 0113 A2000000 		.4byte	0xa2
 2118 0117 00       		.byte	0
 2119 0118 0B       		.uleb128 0xb
 2120 0119 04       		.byte	0x4
 2121 011a 08010000 		.4byte	0x108
 2122 011e 0C       		.uleb128 0xc
ARM GAS  C:\Users\yoons\AppData\Local\Temp\cc4JHBmd.s 			page 51


 2123 011f CE000000 		.4byte	0xce
 2124 0123 2D010000 		.4byte	0x12d
 2125 0127 0A       		.uleb128 0xa
 2126 0128 06010000 		.4byte	0x106
 2127 012c 00       		.byte	0
 2128 012d 0B       		.uleb128 0xb
 2129 012e 04       		.byte	0x4
 2130 012f 1E010000 		.4byte	0x11e
 2131 0133 03       		.uleb128 0x3
 2132 0134 A8080000 		.4byte	.LASF21
 2133 0138 04       		.byte	0x4
 2134 0139 28       		.byte	0x28
 2135 013a D9000000 		.4byte	0xd9
 2136 013e 0D       		.uleb128 0xd
 2137 013f 01       		.byte	0x1
 2138 0140 37000000 		.4byte	0x37
 2139 0144 05       		.byte	0x5
 2140 0145 1E       		.byte	0x1e
 2141 0146 63010000 		.4byte	0x163
 2142 014a 0E       		.uleb128 0xe
 2143 014b 590B0000 		.4byte	.LASF22
 2144 014f 00       		.byte	0
 2145 0150 0E       		.uleb128 0xe
 2146 0151 4D030000 		.4byte	.LASF23
 2147 0155 01       		.byte	0x1
 2148 0156 0E       		.uleb128 0xe
 2149 0157 39080000 		.4byte	.LASF24
 2150 015b 02       		.byte	0x2
 2151 015c 0E       		.uleb128 0xe
 2152 015d 24090000 		.4byte	.LASF25
 2153 0161 03       		.byte	0x3
 2154 0162 00       		.byte	0
 2155 0163 03       		.uleb128 0x3
 2156 0164 3B070000 		.4byte	.LASF26
 2157 0168 05       		.byte	0x5
 2158 0169 2A       		.byte	0x2a
 2159 016a 3E010000 		.4byte	0x13e
 2160 016e 05       		.uleb128 0x5
 2161 016f 14       		.byte	0x14
 2162 0170 05       		.byte	0x5
 2163 0171 2E       		.byte	0x2e
 2164 0172 D7010000 		.4byte	0x1d7
 2165 0176 06       		.uleb128 0x6
 2166 0177 70616E00 		.ascii	"pan\000"
 2167 017b 05       		.byte	0x5
 2168 017c 2F       		.byte	0x2f
 2169 017d D7010000 		.4byte	0x1d7
 2170 0181 00       		.byte	0
 2171 0182 07       		.uleb128 0x7
 2172 0183 D5090000 		.4byte	.LASF27
 2173 0187 05       		.byte	0x5
 2174 0188 30       		.byte	0x30
 2175 0189 D7010000 		.4byte	0x1d7
 2176 018d 04       		.byte	0x4
 2177 018e 07       		.uleb128 0x7
 2178 018f 8B0C0000 		.4byte	.LASF28
 2179 0193 05       		.byte	0x5
ARM GAS  C:\Users\yoons\AppData\Local\Temp\cc4JHBmd.s 			page 52


 2180 0194 31       		.byte	0x31
 2181 0195 D7010000 		.4byte	0x1d7
 2182 0199 08       		.byte	0x8
 2183 019a 07       		.uleb128 0x7
 2184 019b F1080000 		.4byte	.LASF29
 2185 019f 05       		.byte	0x5
 2186 01a0 32       		.byte	0x32
 2187 01a1 63010000 		.4byte	0x163
 2188 01a5 0C       		.byte	0xc
 2189 01a6 07       		.uleb128 0x7
 2190 01a7 6C0A0000 		.4byte	.LASF30
 2191 01ab 05       		.byte	0x5
 2192 01ac 33       		.byte	0x33
 2193 01ad 63010000 		.4byte	0x163
 2194 01b1 0D       		.byte	0xd
 2195 01b2 07       		.uleb128 0x7
 2196 01b3 FB070000 		.4byte	.LASF31
 2197 01b7 05       		.byte	0x5
 2198 01b8 34       		.byte	0x34
 2199 01b9 63010000 		.4byte	0x163
 2200 01bd 0E       		.byte	0xe
 2201 01be 07       		.uleb128 0x7
 2202 01bf 73070000 		.4byte	.LASF32
 2203 01c3 05       		.byte	0x5
 2204 01c4 35       		.byte	0x35
 2205 01c5 A2000000 		.4byte	0xa2
 2206 01c9 0F       		.byte	0xf
 2207 01ca 07       		.uleb128 0x7
 2208 01cb E70B0000 		.4byte	.LASF33
 2209 01cf 05       		.byte	0x5
 2210 01d0 36       		.byte	0x36
 2211 01d1 A2000000 		.4byte	0xa2
 2212 01d5 10       		.byte	0x10
 2213 01d6 00       		.byte	0
 2214 01d7 02       		.uleb128 0x2
 2215 01d8 04       		.byte	0x4
 2216 01d9 04       		.byte	0x4
 2217 01da CA070000 		.4byte	.LASF34
 2218 01de 03       		.uleb128 0x3
 2219 01df 02010000 		.4byte	.LASF35
 2220 01e3 05       		.byte	0x5
 2221 01e4 37       		.byte	0x37
 2222 01e5 6E010000 		.4byte	0x16e
 2223 01e9 05       		.uleb128 0x5
 2224 01ea EC       		.byte	0xec
 2225 01eb 06       		.byte	0x6
 2226 01ec 1F       		.byte	0x1f
 2227 01ed 52050000 		.4byte	0x552
 2228 01f1 07       		.uleb128 0x7
 2229 01f2 D60B0000 		.4byte	.LASF36
 2230 01f6 06       		.byte	0x6
 2231 01f7 21       		.byte	0x21
 2232 01f8 52050000 		.4byte	0x552
 2233 01fc 00       		.byte	0
 2234 01fd 07       		.uleb128 0x7
 2235 01fe 1E070000 		.4byte	.LASF37
 2236 0202 06       		.byte	0x6
ARM GAS  C:\Users\yoons\AppData\Local\Temp\cc4JHBmd.s 			page 53


 2237 0203 22       		.byte	0x22
 2238 0204 D7010000 		.4byte	0x1d7
 2239 0208 04       		.byte	0x4
 2240 0209 07       		.uleb128 0x7
 2241 020a 18040000 		.4byte	.LASF38
 2242 020e 06       		.byte	0x6
 2243 020f 23       		.byte	0x23
 2244 0210 D7010000 		.4byte	0x1d7
 2245 0214 08       		.byte	0x8
 2246 0215 07       		.uleb128 0x7
 2247 0216 AE010000 		.4byte	.LASF39
 2248 021a 06       		.byte	0x6
 2249 021b 24       		.byte	0x24
 2250 021c D7010000 		.4byte	0x1d7
 2251 0220 0C       		.byte	0xc
 2252 0221 07       		.uleb128 0x7
 2253 0222 83010000 		.4byte	.LASF40
 2254 0226 06       		.byte	0x6
 2255 0227 25       		.byte	0x25
 2256 0228 D7010000 		.4byte	0x1d7
 2257 022c 10       		.byte	0x10
 2258 022d 07       		.uleb128 0x7
 2259 022e 8C010000 		.4byte	.LASF41
 2260 0232 06       		.byte	0x6
 2261 0233 26       		.byte	0x26
 2262 0234 D7010000 		.4byte	0x1d7
 2263 0238 14       		.byte	0x14
 2264 0239 07       		.uleb128 0x7
 2265 023a 2F020000 		.4byte	.LASF42
 2266 023e 06       		.byte	0x6
 2267 023f 27       		.byte	0x27
 2268 0240 D7010000 		.4byte	0x1d7
 2269 0244 18       		.byte	0x18
 2270 0245 07       		.uleb128 0x7
 2271 0246 10000000 		.4byte	.LASF43
 2272 024a 06       		.byte	0x6
 2273 024b 28       		.byte	0x28
 2274 024c A2000000 		.4byte	0xa2
 2275 0250 1C       		.byte	0x1c
 2276 0251 07       		.uleb128 0x7
 2277 0252 1F000000 		.4byte	.LASF44
 2278 0256 06       		.byte	0x6
 2279 0257 29       		.byte	0x29
 2280 0258 A2000000 		.4byte	0xa2
 2281 025c 1D       		.byte	0x1d
 2282 025d 07       		.uleb128 0x7
 2283 025e 3E010000 		.4byte	.LASF45
 2284 0262 06       		.byte	0x6
 2285 0263 2C       		.byte	0x2c
 2286 0264 52050000 		.4byte	0x552
 2287 0268 1E       		.byte	0x1e
 2288 0269 07       		.uleb128 0x7
 2289 026a 3E0B0000 		.4byte	.LASF46
 2290 026e 06       		.byte	0x6
 2291 026f 2E       		.byte	0x2e
 2292 0270 52050000 		.4byte	0x552
 2293 0274 1F       		.byte	0x1f
ARM GAS  C:\Users\yoons\AppData\Local\Temp\cc4JHBmd.s 			page 54


 2294 0275 07       		.uleb128 0x7
 2295 0276 CC010000 		.4byte	.LASF47
 2296 027a 06       		.byte	0x6
 2297 027b 31       		.byte	0x31
 2298 027c D7010000 		.4byte	0x1d7
 2299 0280 20       		.byte	0x20
 2300 0281 07       		.uleb128 0x7
 2301 0282 430D0000 		.4byte	.LASF48
 2302 0286 06       		.byte	0x6
 2303 0287 32       		.byte	0x32
 2304 0288 D7010000 		.4byte	0x1d7
 2305 028c 24       		.byte	0x24
 2306 028d 07       		.uleb128 0x7
 2307 028e 74020000 		.4byte	.LASF49
 2308 0292 06       		.byte	0x6
 2309 0293 33       		.byte	0x33
 2310 0294 D7010000 		.4byte	0x1d7
 2311 0298 28       		.byte	0x28
 2312 0299 07       		.uleb128 0x7
 2313 029a 5A040000 		.4byte	.LASF50
 2314 029e 06       		.byte	0x6
 2315 029f 34       		.byte	0x34
 2316 02a0 D7010000 		.4byte	0x1d7
 2317 02a4 2C       		.byte	0x2c
 2318 02a5 07       		.uleb128 0x7
 2319 02a6 63070000 		.4byte	.LASF51
 2320 02aa 06       		.byte	0x6
 2321 02ab 36       		.byte	0x36
 2322 02ac D7010000 		.4byte	0x1d7
 2323 02b0 30       		.byte	0x30
 2324 02b1 07       		.uleb128 0x7
 2325 02b2 B7050000 		.4byte	.LASF52
 2326 02b6 06       		.byte	0x6
 2327 02b7 37       		.byte	0x37
 2328 02b8 D7010000 		.4byte	0x1d7
 2329 02bc 34       		.byte	0x34
 2330 02bd 07       		.uleb128 0x7
 2331 02be A2040000 		.4byte	.LASF53
 2332 02c2 06       		.byte	0x6
 2333 02c3 38       		.byte	0x38
 2334 02c4 D7010000 		.4byte	0x1d7
 2335 02c8 38       		.byte	0x38
 2336 02c9 07       		.uleb128 0x7
 2337 02ca 68050000 		.4byte	.LASF54
 2338 02ce 06       		.byte	0x6
 2339 02cf 39       		.byte	0x39
 2340 02d0 D7010000 		.4byte	0x1d7
 2341 02d4 3C       		.byte	0x3c
 2342 02d5 07       		.uleb128 0x7
 2343 02d6 0D060000 		.4byte	.LASF55
 2344 02da 06       		.byte	0x6
 2345 02db 3B       		.byte	0x3b
 2346 02dc C3000000 		.4byte	0xc3
 2347 02e0 40       		.byte	0x40
 2348 02e1 07       		.uleb128 0x7
 2349 02e2 570C0000 		.4byte	.LASF56
 2350 02e6 06       		.byte	0x6
ARM GAS  C:\Users\yoons\AppData\Local\Temp\cc4JHBmd.s 			page 55


 2351 02e7 3C       		.byte	0x3c
 2352 02e8 C3000000 		.4byte	0xc3
 2353 02ec 44       		.byte	0x44
 2354 02ed 07       		.uleb128 0x7
 2355 02ee 0F080000 		.4byte	.LASF57
 2356 02f2 06       		.byte	0x6
 2357 02f3 41       		.byte	0x41
 2358 02f4 C3000000 		.4byte	0xc3
 2359 02f8 48       		.byte	0x48
 2360 02f9 07       		.uleb128 0x7
 2361 02fa AD040000 		.4byte	.LASF58
 2362 02fe 06       		.byte	0x6
 2363 02ff 42       		.byte	0x42
 2364 0300 AD000000 		.4byte	0xad
 2365 0304 4C       		.byte	0x4c
 2366 0305 07       		.uleb128 0x7
 2367 0306 020A0000 		.4byte	.LASF59
 2368 030a 06       		.byte	0x6
 2369 030b 44       		.byte	0x44
 2370 030c AD000000 		.4byte	0xad
 2371 0310 4E       		.byte	0x4e
 2372 0311 07       		.uleb128 0x7
 2373 0312 31010000 		.4byte	.LASF60
 2374 0316 06       		.byte	0x6
 2375 0317 45       		.byte	0x45
 2376 0318 B8000000 		.4byte	0xb8
 2377 031c 50       		.byte	0x50
 2378 031d 07       		.uleb128 0x7
 2379 031e EC010000 		.4byte	.LASF61
 2380 0322 06       		.byte	0x6
 2381 0323 46       		.byte	0x46
 2382 0324 B8000000 		.4byte	0xb8
 2383 0328 52       		.byte	0x52
 2384 0329 07       		.uleb128 0x7
 2385 032a 60080000 		.4byte	.LASF62
 2386 032e 06       		.byte	0x6
 2387 032f 47       		.byte	0x47
 2388 0330 B8000000 		.4byte	0xb8
 2389 0334 54       		.byte	0x54
 2390 0335 07       		.uleb128 0x7
 2391 0336 DC0B0000 		.4byte	.LASF63
 2392 033a 06       		.byte	0x6
 2393 033b 4A       		.byte	0x4a
 2394 033c 52050000 		.4byte	0x552
 2395 0340 56       		.byte	0x56
 2396 0341 07       		.uleb128 0x7
 2397 0342 F80C0000 		.4byte	.LASF64
 2398 0346 06       		.byte	0x6
 2399 0347 4E       		.byte	0x4e
 2400 0348 D7010000 		.4byte	0x1d7
 2401 034c 58       		.byte	0x58
 2402 034d 07       		.uleb128 0x7
 2403 034e 99090000 		.4byte	.LASF65
 2404 0352 06       		.byte	0x6
 2405 0353 52       		.byte	0x52
 2406 0354 D7010000 		.4byte	0x1d7
 2407 0358 5C       		.byte	0x5c
ARM GAS  C:\Users\yoons\AppData\Local\Temp\cc4JHBmd.s 			page 56


 2408 0359 07       		.uleb128 0x7
 2409 035a FB040000 		.4byte	.LASF66
 2410 035e 06       		.byte	0x6
 2411 035f 57       		.byte	0x57
 2412 0360 52050000 		.4byte	0x552
 2413 0364 60       		.byte	0x60
 2414 0365 07       		.uleb128 0x7
 2415 0366 6E030000 		.4byte	.LASF67
 2416 036a 06       		.byte	0x6
 2417 036b 58       		.byte	0x58
 2418 036c CE000000 		.4byte	0xce
 2419 0370 64       		.byte	0x64
 2420 0371 07       		.uleb128 0x7
 2421 0372 D4000000 		.4byte	.LASF68
 2422 0376 06       		.byte	0x6
 2423 0377 59       		.byte	0x59
 2424 0378 D7010000 		.4byte	0x1d7
 2425 037c 68       		.byte	0x68
 2426 037d 07       		.uleb128 0x7
 2427 037e 2D080000 		.4byte	.LASF69
 2428 0382 06       		.byte	0x6
 2429 0383 5A       		.byte	0x5a
 2430 0384 D7010000 		.4byte	0x1d7
 2431 0388 6C       		.byte	0x6c
 2432 0389 07       		.uleb128 0x7
 2433 038a 7F030000 		.4byte	.LASF70
 2434 038e 06       		.byte	0x6
 2435 038f 5B       		.byte	0x5b
 2436 0390 D7010000 		.4byte	0x1d7
 2437 0394 70       		.byte	0x70
 2438 0395 07       		.uleb128 0x7
 2439 0396 60060000 		.4byte	.LASF71
 2440 039a 06       		.byte	0x6
 2441 039b 5F       		.byte	0x5f
 2442 039c D7010000 		.4byte	0x1d7
 2443 03a0 74       		.byte	0x74
 2444 03a1 07       		.uleb128 0x7
 2445 03a2 35040000 		.4byte	.LASF72
 2446 03a6 06       		.byte	0x6
 2447 03a7 60       		.byte	0x60
 2448 03a8 D7010000 		.4byte	0x1d7
 2449 03ac 78       		.byte	0x78
 2450 03ad 07       		.uleb128 0x7
 2451 03ae 96080000 		.4byte	.LASF73
 2452 03b2 06       		.byte	0x6
 2453 03b3 61       		.byte	0x61
 2454 03b4 D7010000 		.4byte	0x1d7
 2455 03b8 7C       		.byte	0x7c
 2456 03b9 07       		.uleb128 0x7
 2457 03ba E0080000 		.4byte	.LASF74
 2458 03be 06       		.byte	0x6
 2459 03bf 65       		.byte	0x65
 2460 03c0 D7010000 		.4byte	0x1d7
 2461 03c4 80       		.byte	0x80
 2462 03c5 07       		.uleb128 0x7
 2463 03c6 51070000 		.4byte	.LASF75
 2464 03ca 06       		.byte	0x6
ARM GAS  C:\Users\yoons\AppData\Local\Temp\cc4JHBmd.s 			page 57


 2465 03cb 66       		.byte	0x66
 2466 03cc D7010000 		.4byte	0x1d7
 2467 03d0 84       		.byte	0x84
 2468 03d1 07       		.uleb128 0x7
 2469 03d2 2F060000 		.4byte	.LASF76
 2470 03d6 06       		.byte	0x6
 2471 03d7 67       		.byte	0x67
 2472 03d8 D7010000 		.4byte	0x1d7
 2473 03dc 88       		.byte	0x88
 2474 03dd 07       		.uleb128 0x7
 2475 03de 8B090000 		.4byte	.LASF77
 2476 03e2 06       		.byte	0x6
 2477 03e3 6A       		.byte	0x6a
 2478 03e4 52050000 		.4byte	0x552
 2479 03e8 8C       		.byte	0x8c
 2480 03e9 07       		.uleb128 0x7
 2481 03ea B1090000 		.4byte	.LASF78
 2482 03ee 06       		.byte	0x6
 2483 03ef 6E       		.byte	0x6e
 2484 03f0 52050000 		.4byte	0x552
 2485 03f4 8D       		.byte	0x8d
 2486 03f5 07       		.uleb128 0x7
 2487 03f6 28040000 		.4byte	.LASF79
 2488 03fa 06       		.byte	0x6
 2489 03fb 6F       		.byte	0x6f
 2490 03fc 52050000 		.4byte	0x552
 2491 0400 8E       		.byte	0x8e
 2492 0401 07       		.uleb128 0x7
 2493 0402 8C030000 		.4byte	.LASF80
 2494 0406 06       		.byte	0x6
 2495 0407 70       		.byte	0x70
 2496 0408 52050000 		.4byte	0x552
 2497 040c 8F       		.byte	0x8f
 2498 040d 07       		.uleb128 0x7
 2499 040e 13010000 		.4byte	.LASF81
 2500 0412 06       		.byte	0x6
 2501 0413 71       		.byte	0x71
 2502 0414 52050000 		.4byte	0x552
 2503 0418 90       		.byte	0x90
 2504 0419 07       		.uleb128 0x7
 2505 041a 9F010000 		.4byte	.LASF82
 2506 041e 06       		.byte	0x6
 2507 041f 72       		.byte	0x72
 2508 0420 D7010000 		.4byte	0x1d7
 2509 0424 94       		.byte	0x94
 2510 0425 07       		.uleb128 0x7
 2511 0426 EA040000 		.4byte	.LASF83
 2512 042a 06       		.byte	0x6
 2513 042b 73       		.byte	0x73
 2514 042c A2000000 		.4byte	0xa2
 2515 0430 98       		.byte	0x98
 2516 0431 07       		.uleb128 0x7
 2517 0432 38020000 		.4byte	.LASF84
 2518 0436 06       		.byte	0x6
 2519 0437 74       		.byte	0x74
 2520 0438 D7010000 		.4byte	0x1d7
 2521 043c 9C       		.byte	0x9c
ARM GAS  C:\Users\yoons\AppData\Local\Temp\cc4JHBmd.s 			page 58


 2522 043d 07       		.uleb128 0x7
 2523 043e A20C0000 		.4byte	.LASF85
 2524 0442 06       		.byte	0x6
 2525 0443 75       		.byte	0x75
 2526 0444 A2000000 		.4byte	0xa2
 2527 0448 A0       		.byte	0xa0
 2528 0449 07       		.uleb128 0x7
 2529 044a 3D090000 		.4byte	.LASF86
 2530 044e 06       		.byte	0x6
 2531 044f 76       		.byte	0x76
 2532 0450 AD000000 		.4byte	0xad
 2533 0454 A2       		.byte	0xa2
 2534 0455 07       		.uleb128 0x7
 2535 0456 77040000 		.4byte	.LASF87
 2536 045a 06       		.byte	0x6
 2537 045b 77       		.byte	0x77
 2538 045c AD000000 		.4byte	0xad
 2539 0460 A4       		.byte	0xa4
 2540 0461 07       		.uleb128 0x7
 2541 0462 C2050000 		.4byte	.LASF88
 2542 0466 06       		.byte	0x6
 2543 0467 78       		.byte	0x78
 2544 0468 D7010000 		.4byte	0x1d7
 2545 046c A8       		.byte	0xa8
 2546 046d 07       		.uleb128 0x7
 2547 046e A3070000 		.4byte	.LASF89
 2548 0472 06       		.byte	0x6
 2549 0473 79       		.byte	0x79
 2550 0474 AD000000 		.4byte	0xad
 2551 0478 AC       		.byte	0xac
 2552 0479 07       		.uleb128 0x7
 2553 047a 2D0A0000 		.4byte	.LASF90
 2554 047e 06       		.byte	0x6
 2555 047f 7A       		.byte	0x7a
 2556 0480 AD000000 		.4byte	0xad
 2557 0484 AE       		.byte	0xae
 2558 0485 07       		.uleb128 0x7
 2559 0486 3F060000 		.4byte	.LASF91
 2560 048a 06       		.byte	0x6
 2561 048b 7B       		.byte	0x7b
 2562 048c AD000000 		.4byte	0xad
 2563 0490 B0       		.byte	0xb0
 2564 0491 07       		.uleb128 0x7
 2565 0492 63010000 		.4byte	.LASF92
 2566 0496 06       		.byte	0x6
 2567 0497 7C       		.byte	0x7c
 2568 0498 D7010000 		.4byte	0x1d7
 2569 049c B4       		.byte	0xb4
 2570 049d 07       		.uleb128 0x7
 2571 049e 16020000 		.4byte	.LASF93
 2572 04a2 06       		.byte	0x6
 2573 04a3 7D       		.byte	0x7d
 2574 04a4 AD000000 		.4byte	0xad
 2575 04a8 B8       		.byte	0xb8
 2576 04a9 07       		.uleb128 0x7
 2577 04aa F3030000 		.4byte	.LASF94
 2578 04ae 06       		.byte	0x6
ARM GAS  C:\Users\yoons\AppData\Local\Temp\cc4JHBmd.s 			page 59


 2579 04af 80       		.byte	0x80
 2580 04b0 52050000 		.4byte	0x552
 2581 04b4 BA       		.byte	0xba
 2582 04b5 07       		.uleb128 0x7
 2583 04b6 1B080000 		.4byte	.LASF95
 2584 04ba 06       		.byte	0x6
 2585 04bb 81       		.byte	0x81
 2586 04bc D7010000 		.4byte	0x1d7
 2587 04c0 BC       		.byte	0xbc
 2588 04c1 07       		.uleb128 0x7
 2589 04c2 21080000 		.4byte	.LASF96
 2590 04c6 06       		.byte	0x6
 2591 04c7 82       		.byte	0x82
 2592 04c8 D7010000 		.4byte	0x1d7
 2593 04cc C0       		.byte	0xc0
 2594 04cd 07       		.uleb128 0x7
 2595 04ce 27080000 		.4byte	.LASF97
 2596 04d2 06       		.byte	0x6
 2597 04d3 83       		.byte	0x83
 2598 04d4 D7010000 		.4byte	0x1d7
 2599 04d8 C4       		.byte	0xc4
 2600 04d9 07       		.uleb128 0x7
 2601 04da BB030000 		.4byte	.LASF98
 2602 04de 06       		.byte	0x6
 2603 04df 84       		.byte	0x84
 2604 04e0 D7010000 		.4byte	0x1d7
 2605 04e4 C8       		.byte	0xc8
 2606 04e5 07       		.uleb128 0x7
 2607 04e6 6F0C0000 		.4byte	.LASF99
 2608 04ea 06       		.byte	0x6
 2609 04eb 85       		.byte	0x85
 2610 04ec D7010000 		.4byte	0x1d7
 2611 04f0 CC       		.byte	0xcc
 2612 04f1 07       		.uleb128 0x7
 2613 04f2 3F050000 		.4byte	.LASF100
 2614 04f6 06       		.byte	0x6
 2615 04f7 86       		.byte	0x86
 2616 04f8 D7010000 		.4byte	0x1d7
 2617 04fc D0       		.byte	0xd0
 2618 04fd 07       		.uleb128 0x7
 2619 04fe 49050000 		.4byte	.LASF101
 2620 0502 06       		.byte	0x6
 2621 0503 87       		.byte	0x87
 2622 0504 D7010000 		.4byte	0x1d7
 2623 0508 D4       		.byte	0xd4
 2624 0509 07       		.uleb128 0x7
 2625 050a 53050000 		.4byte	.LASF102
 2626 050e 06       		.byte	0x6
 2627 050f 88       		.byte	0x88
 2628 0510 D7010000 		.4byte	0x1d7
 2629 0514 D8       		.byte	0xd8
 2630 0515 07       		.uleb128 0x7
 2631 0516 490B0000 		.4byte	.LASF103
 2632 051a 06       		.byte	0x6
 2633 051b 89       		.byte	0x89
 2634 051c D7010000 		.4byte	0x1d7
 2635 0520 DC       		.byte	0xdc
ARM GAS  C:\Users\yoons\AppData\Local\Temp\cc4JHBmd.s 			page 60


 2636 0521 07       		.uleb128 0x7
 2637 0522 2E000000 		.4byte	.LASF104
 2638 0526 06       		.byte	0x6
 2639 0527 94       		.byte	0x94
 2640 0528 52050000 		.4byte	0x552
 2641 052c E0       		.byte	0xe0
 2642 052d 07       		.uleb128 0x7
 2643 052e D60C0000 		.4byte	.LASF105
 2644 0532 06       		.byte	0x6
 2645 0533 95       		.byte	0x95
 2646 0534 52050000 		.4byte	0x552
 2647 0538 E1       		.byte	0xe1
 2648 0539 07       		.uleb128 0x7
 2649 053a E9050000 		.4byte	.LASF106
 2650 053e 06       		.byte	0x6
 2651 053f 96       		.byte	0x96
 2652 0540 D7010000 		.4byte	0x1d7
 2653 0544 E4       		.byte	0xe4
 2654 0545 07       		.uleb128 0x7
 2655 0546 8D050000 		.4byte	.LASF107
 2656 054a 06       		.byte	0x6
 2657 054b 97       		.byte	0x97
 2658 054c AD000000 		.4byte	0xad
 2659 0550 E8       		.byte	0xe8
 2660 0551 00       		.byte	0
 2661 0552 02       		.uleb128 0x2
 2662 0553 01       		.byte	0x1
 2663 0554 02       		.byte	0x2
 2664 0555 47030000 		.4byte	.LASF108
 2665 0559 03       		.uleb128 0x3
 2666 055a D6050000 		.4byte	.LASF109
 2667 055e 06       		.byte	0x6
 2668 055f 99       		.byte	0x99
 2669 0560 E9010000 		.4byte	0x1e9
 2670 0564 0F       		.uleb128 0xf
 2671 0565 0601     		.2byte	0x106
 2672 0567 07       		.byte	0x7
 2673 0568 22       		.byte	0x22
 2674 0569 A1050000 		.4byte	0x5a1
 2675 056d 06       		.uleb128 0x6
 2676 056e 62756600 		.ascii	"buf\000"
 2677 0572 07       		.byte	0x7
 2678 0573 23       		.byte	0x23
 2679 0574 BD050000 		.4byte	0x5bd
 2680 0578 00       		.byte	0
 2681 0579 10       		.uleb128 0x10
 2682 057a 55020000 		.4byte	.LASF110
 2683 057e 07       		.byte	0x7
 2684 057f 24       		.byte	0x24
 2685 0580 C2050000 		.4byte	0x5c2
 2686 0584 0001     		.2byte	0x100
 2687 0586 10       		.uleb128 0x10
 2688 0587 54000000 		.4byte	.LASF111
 2689 058b 07       		.byte	0x7
 2690 058c 25       		.byte	0x25
 2691 058d C2050000 		.4byte	0x5c2
 2692 0591 0201     		.2byte	0x102
ARM GAS  C:\Users\yoons\AppData\Local\Temp\cc4JHBmd.s 			page 61


 2693 0593 10       		.uleb128 0x10
 2694 0594 400A0000 		.4byte	.LASF112
 2695 0598 07       		.byte	0x7
 2696 0599 26       		.byte	0x26
 2697 059a C2050000 		.4byte	0x5c2
 2698 059e 0401     		.2byte	0x104
 2699 05a0 00       		.byte	0
 2700 05a1 11       		.uleb128 0x11
 2701 05a2 B8050000 		.4byte	0x5b8
 2702 05a6 B1050000 		.4byte	0x5b1
 2703 05aa 12       		.uleb128 0x12
 2704 05ab B1050000 		.4byte	0x5b1
 2705 05af FF       		.byte	0xff
 2706 05b0 00       		.byte	0
 2707 05b1 02       		.uleb128 0x2
 2708 05b2 04       		.byte	0x4
 2709 05b3 07       		.byte	0x7
 2710 05b4 3C000000 		.4byte	.LASF113
 2711 05b8 13       		.uleb128 0x13
 2712 05b9 A2000000 		.4byte	0xa2
 2713 05bd 13       		.uleb128 0x13
 2714 05be A1050000 		.4byte	0x5a1
 2715 05c2 13       		.uleb128 0x13
 2716 05c3 B8000000 		.4byte	0xb8
 2717 05c7 03       		.uleb128 0x3
 2718 05c8 F0020000 		.4byte	.LASF114
 2719 05cc 07       		.byte	0x7
 2720 05cd 27       		.byte	0x27
 2721 05ce 64050000 		.4byte	0x564
 2722 05d2 05       		.uleb128 0x5
 2723 05d3 18       		.byte	0x18
 2724 05d4 08       		.byte	0x8
 2725 05d5 2F       		.byte	0x2f
 2726 05d6 2F060000 		.4byte	0x62f
 2727 05da 07       		.uleb128 0x7
 2728 05db 060C0000 		.4byte	.LASF115
 2729 05df 08       		.byte	0x8
 2730 05e0 30       		.byte	0x30
 2731 05e1 CE000000 		.4byte	0xce
 2732 05e5 00       		.byte	0
 2733 05e6 07       		.uleb128 0x7
 2734 05e7 B7010000 		.4byte	.LASF116
 2735 05eb 08       		.byte	0x8
 2736 05ec 31       		.byte	0x31
 2737 05ed CE000000 		.4byte	0xce
 2738 05f1 04       		.byte	0x4
 2739 05f2 07       		.uleb128 0x7
 2740 05f3 17030000 		.4byte	.LASF117
 2741 05f7 08       		.byte	0x8
 2742 05f8 32       		.byte	0x32
 2743 05f9 CE000000 		.4byte	0xce
 2744 05fd 08       		.byte	0x8
 2745 05fe 07       		.uleb128 0x7
 2746 05ff C1070000 		.4byte	.LASF118
 2747 0603 08       		.byte	0x8
 2748 0604 33       		.byte	0x33
 2749 0605 CE000000 		.4byte	0xce
ARM GAS  C:\Users\yoons\AppData\Local\Temp\cc4JHBmd.s 			page 62


 2750 0609 0C       		.byte	0xc
 2751 060a 07       		.uleb128 0x7
 2752 060b 92040000 		.4byte	.LASF119
 2753 060f 08       		.byte	0x8
 2754 0610 34       		.byte	0x34
 2755 0611 CE000000 		.4byte	0xce
 2756 0615 10       		.byte	0x10
 2757 0616 07       		.uleb128 0x7
 2758 0617 C0010000 		.4byte	.LASF120
 2759 061b 08       		.byte	0x8
 2760 061c 35       		.byte	0x35
 2761 061d B8000000 		.4byte	0xb8
 2762 0621 14       		.byte	0x14
 2763 0622 07       		.uleb128 0x7
 2764 0623 B9040000 		.4byte	.LASF121
 2765 0627 08       		.byte	0x8
 2766 0628 36       		.byte	0x36
 2767 0629 A2000000 		.4byte	0xa2
 2768 062d 16       		.byte	0x16
 2769 062e 00       		.byte	0
 2770 062f 03       		.uleb128 0x3
 2771 0630 46040000 		.4byte	.LASF122
 2772 0634 08       		.byte	0x8
 2773 0635 37       		.byte	0x37
 2774 0636 D2050000 		.4byte	0x5d2
 2775 063a 0F       		.uleb128 0xf
 2776 063b 8003     		.2byte	0x380
 2777 063d 08       		.byte	0x8
 2778 063e 3E       		.byte	0x3e
 2779 063f F7060000 		.4byte	0x6f7
 2780 0643 06       		.uleb128 0x6
 2781 0644 68616C00 		.ascii	"hal\000"
 2782 0648 08       		.byte	0x8
 2783 0649 3F       		.byte	0x3f
 2784 064a 33010000 		.4byte	0x133
 2785 064e 00       		.byte	0
 2786 064f 06       		.uleb128 0x6
 2787 0650 63746C00 		.ascii	"ctl\000"
 2788 0654 08       		.byte	0x8
 2789 0655 40       		.byte	0x40
 2790 0656 DE010000 		.4byte	0x1de
 2791 065a 0C       		.byte	0xc
 2792 065b 07       		.uleb128 0x7
 2793 065c 6D080000 		.4byte	.LASF123
 2794 0660 08       		.byte	0x8
 2795 0661 41       		.byte	0x41
 2796 0662 59050000 		.4byte	0x559
 2797 0666 20       		.byte	0x20
 2798 0667 10       		.uleb128 0x10
 2799 0668 CB0B0000 		.4byte	.LASF124
 2800 066c 08       		.byte	0x8
 2801 066d 42       		.byte	0x42
 2802 066e 2F060000 		.4byte	0x62f
 2803 0672 0C01     		.2byte	0x10c
 2804 0674 10       		.uleb128 0x10
 2805 0675 01070000 		.4byte	.LASF125
 2806 0679 08       		.byte	0x8
ARM GAS  C:\Users\yoons\AppData\Local\Temp\cc4JHBmd.s 			page 63


 2807 067a 43       		.byte	0x43
 2808 067b C7050000 		.4byte	0x5c7
 2809 067f 2401     		.2byte	0x124
 2810 0681 10       		.uleb128 0x10
 2811 0682 29020000 		.4byte	.LASF126
 2812 0686 08       		.byte	0x8
 2813 0687 44       		.byte	0x44
 2814 0688 C7050000 		.4byte	0x5c7
 2815 068c 2A02     		.2byte	0x22a
 2816 068e 10       		.uleb128 0x10
 2817 068f 25050000 		.4byte	.LASF127
 2818 0693 08       		.byte	0x8
 2819 0694 48       		.byte	0x48
 2820 0695 A2000000 		.4byte	0xa2
 2821 0699 3003     		.2byte	0x330
 2822 069b 10       		.uleb128 0x10
 2823 069c 4A0C0000 		.4byte	.LASF128
 2824 06a0 08       		.byte	0x8
 2825 06a1 4C       		.byte	0x4c
 2826 06a2 B8000000 		.4byte	0xb8
 2827 06a6 3203     		.2byte	0x332
 2828 06a8 10       		.uleb128 0x10
 2829 06a9 72000000 		.4byte	.LASF129
 2830 06ad 08       		.byte	0x8
 2831 06ae 4D       		.byte	0x4d
 2832 06af CE000000 		.4byte	0xce
 2833 06b3 3403     		.2byte	0x334
 2834 06b5 10       		.uleb128 0x10
 2835 06b6 E2000000 		.4byte	.LASF130
 2836 06ba 08       		.byte	0x8
 2837 06bb 4E       		.byte	0x4e
 2838 06bc 52050000 		.4byte	0x552
 2839 06c0 3803     		.2byte	0x338
 2840 06c2 10       		.uleb128 0x10
 2841 06c3 D4040000 		.4byte	.LASF131
 2842 06c7 08       		.byte	0x8
 2843 06c8 4F       		.byte	0x4f
 2844 06c9 B8000000 		.4byte	0xb8
 2845 06cd 3A03     		.2byte	0x33a
 2846 06cf 10       		.uleb128 0x10
 2847 06d0 180A0000 		.4byte	.LASF132
 2848 06d4 08       		.byte	0x8
 2849 06d5 50       		.byte	0x50
 2850 06d6 B8000000 		.4byte	0xb8
 2851 06da 3C03     		.2byte	0x33c
 2852 06dc 10       		.uleb128 0x10
 2853 06dd 06020000 		.4byte	.LASF133
 2854 06e1 08       		.byte	0x8
 2855 06e2 51       		.byte	0x51
 2856 06e3 F7060000 		.4byte	0x6f7
 2857 06e7 3E03     		.2byte	0x33e
 2858 06e9 10       		.uleb128 0x10
 2859 06ea 7A070000 		.4byte	.LASF134
 2860 06ee 08       		.byte	0x8
 2861 06ef 54       		.byte	0x54
 2862 06f0 A2000000 		.4byte	0xa2
 2863 06f4 7E03     		.2byte	0x37e
ARM GAS  C:\Users\yoons\AppData\Local\Temp\cc4JHBmd.s 			page 64


 2864 06f6 00       		.byte	0
 2865 06f7 11       		.uleb128 0x11
 2866 06f8 A2000000 		.4byte	0xa2
 2867 06fc 07070000 		.4byte	0x707
 2868 0700 12       		.uleb128 0x12
 2869 0701 B1050000 		.4byte	0x5b1
 2870 0705 3F       		.byte	0x3f
 2871 0706 00       		.byte	0
 2872 0707 03       		.uleb128 0x3
 2873 0708 00000000 		.4byte	.LASF135
 2874 070c 08       		.byte	0x8
 2875 070d 56       		.byte	0x56
 2876 070e 3A060000 		.4byte	0x63a
 2877 0712 05       		.uleb128 0x5
 2878 0713 01       		.byte	0x1
 2879 0714 09       		.byte	0x9
 2880 0715 3F       		.byte	0x3f
 2881 0716 27070000 		.4byte	0x727
 2882 071a 07       		.uleb128 0x7
 2883 071b D0080000 		.4byte	.LASF136
 2884 071f 09       		.byte	0x9
 2885 0720 40       		.byte	0x40
 2886 0721 A2000000 		.4byte	0xa2
 2887 0725 00       		.byte	0
 2888 0726 00       		.byte	0
 2889 0727 03       		.uleb128 0x3
 2890 0728 8F000000 		.4byte	.LASF137
 2891 072c 09       		.byte	0x9
 2892 072d 41       		.byte	0x41
 2893 072e 12070000 		.4byte	0x712
 2894 0732 05       		.uleb128 0x5
 2895 0733 0C       		.byte	0xc
 2896 0734 09       		.byte	0x9
 2897 0735 44       		.byte	0x44
 2898 0736 5F070000 		.4byte	0x75f
 2899 073a 07       		.uleb128 0x7
 2900 073b 29010000 		.4byte	.LASF138
 2901 073f 09       		.byte	0x9
 2902 0740 45       		.byte	0x45
 2903 0741 C3000000 		.4byte	0xc3
 2904 0745 00       		.byte	0
 2905 0746 07       		.uleb128 0x7
 2906 0747 35030000 		.4byte	.LASF139
 2907 074b 09       		.byte	0x9
 2908 074c 46       		.byte	0x46
 2909 074d C3000000 		.4byte	0xc3
 2910 0751 04       		.byte	0x4
 2911 0752 07       		.uleb128 0x7
 2912 0753 CE090000 		.4byte	.LASF140
 2913 0757 09       		.byte	0x9
 2914 0758 47       		.byte	0x47
 2915 0759 C3000000 		.4byte	0xc3
 2916 075d 08       		.byte	0x8
 2917 075e 00       		.byte	0
 2918 075f 03       		.uleb128 0x3
 2919 0760 720D0000 		.4byte	.LASF141
 2920 0764 09       		.byte	0x9
ARM GAS  C:\Users\yoons\AppData\Local\Temp\cc4JHBmd.s 			page 65


 2921 0765 48       		.byte	0x48
 2922 0766 32070000 		.4byte	0x732
 2923 076a 05       		.uleb128 0x5
 2924 076b 04       		.byte	0x4
 2925 076c 09       		.byte	0x9
 2926 076d 4B       		.byte	0x4b
 2927 076e 8B070000 		.4byte	0x78b
 2928 0772 07       		.uleb128 0x7
 2929 0773 E6070000 		.4byte	.LASF142
 2930 0777 09       		.byte	0x9
 2931 0778 4C       		.byte	0x4c
 2932 0779 AD000000 		.4byte	0xad
 2933 077d 00       		.byte	0
 2934 077e 07       		.uleb128 0x7
 2935 077f BB020000 		.4byte	.LASF143
 2936 0783 09       		.byte	0x9
 2937 0784 4D       		.byte	0x4d
 2938 0785 AD000000 		.4byte	0xad
 2939 0789 02       		.byte	0x2
 2940 078a 00       		.byte	0
 2941 078b 03       		.uleb128 0x3
 2942 078c E3030000 		.4byte	.LASF144
 2943 0790 09       		.byte	0x9
 2944 0791 4E       		.byte	0x4e
 2945 0792 6A070000 		.4byte	0x76a
 2946 0796 05       		.uleb128 0x5
 2947 0797 08       		.byte	0x8
 2948 0798 09       		.byte	0x9
 2949 0799 52       		.byte	0x52
 2950 079a B6070000 		.4byte	0x7b6
 2951 079e 06       		.uleb128 0x6
 2952 079f 696400   		.ascii	"id\000"
 2953 07a2 09       		.byte	0x9
 2954 07a3 53       		.byte	0x53
 2955 07a4 A2000000 		.4byte	0xa2
 2956 07a8 00       		.byte	0
 2957 07a9 07       		.uleb128 0x7
 2958 07aa 63030000 		.4byte	.LASF145
 2959 07ae 09       		.byte	0x9
 2960 07af 54       		.byte	0x54
 2961 07b0 D7010000 		.4byte	0x1d7
 2962 07b4 04       		.byte	0x4
 2963 07b5 00       		.byte	0
 2964 07b6 03       		.uleb128 0x3
 2965 07b7 71090000 		.4byte	.LASF146
 2966 07bb 09       		.byte	0x9
 2967 07bc 55       		.byte	0x55
 2968 07bd 96070000 		.4byte	0x796
 2969 07c1 02       		.uleb128 0x2
 2970 07c2 08       		.byte	0x8
 2971 07c3 04       		.byte	0x4
 2972 07c4 8E070000 		.4byte	.LASF147
 2973 07c8 02       		.uleb128 0x2
 2974 07c9 01       		.byte	0x1
 2975 07ca 08       		.byte	0x8
 2976 07cb 69030000 		.4byte	.LASF148
 2977 07cf 02       		.uleb128 0x2
ARM GAS  C:\Users\yoons\AppData\Local\Temp\cc4JHBmd.s 			page 66


 2978 07d0 08       		.byte	0x8
 2979 07d1 04       		.byte	0x4
 2980 07d2 54080000 		.4byte	.LASF149
 2981 07d6 0B       		.uleb128 0xb
 2982 07d7 04       		.byte	0x4
 2983 07d8 DC070000 		.4byte	0x7dc
 2984 07dc 14       		.uleb128 0x14
 2985 07dd C8070000 		.4byte	0x7c8
 2986 07e1 13       		.uleb128 0x13
 2987 07e2 CE000000 		.4byte	0xce
 2988 07e6 0D       		.uleb128 0xd
 2989 07e7 01       		.byte	0x1
 2990 07e8 37000000 		.4byte	0x37
 2991 07ec 0A       		.byte	0xa
 2992 07ed 33       		.byte	0x33
 2993 07ee 5F080000 		.4byte	0x85f
 2994 07f2 0E       		.uleb128 0xe
 2995 07f3 82000000 		.4byte	.LASF150
 2996 07f7 00       		.byte	0
 2997 07f8 0E       		.uleb128 0xe
 2998 07f9 5C0D0000 		.4byte	.LASF151
 2999 07fd 01       		.byte	0x1
 3000 07fe 0E       		.uleb128 0xe
 3001 07ff 91080000 		.4byte	.LASF152
 3002 0803 02       		.byte	0x2
 3003 0804 0E       		.uleb128 0xe
 3004 0805 030B0000 		.4byte	.LASF153
 3005 0809 03       		.byte	0x3
 3006 080a 0E       		.uleb128 0xe
 3007 080b 07060000 		.4byte	.LASF154
 3008 080f 04       		.byte	0x4
 3009 0810 0E       		.uleb128 0xe
 3010 0811 F0070000 		.4byte	.LASF155
 3011 0815 05       		.byte	0x5
 3012 0816 0E       		.uleb128 0xe
 3013 0817 870D0000 		.4byte	.LASF156
 3014 081b 06       		.byte	0x6
 3015 081c 0E       		.uleb128 0xe
 3016 081d 52090000 		.4byte	.LASF157
 3017 0821 07       		.byte	0x7
 3018 0822 0E       		.uleb128 0xe
 3019 0823 59000000 		.4byte	.LASF158
 3020 0827 08       		.byte	0x8
 3021 0828 0E       		.uleb128 0xe
 3022 0829 9C0D0000 		.4byte	.LASF159
 3023 082d 09       		.byte	0x9
 3024 082e 0E       		.uleb128 0xe
 3025 082f F9010000 		.4byte	.LASF160
 3026 0833 0A       		.byte	0xa
 3027 0834 0E       		.uleb128 0xe
 3028 0835 B5080000 		.4byte	.LASF161
 3029 0839 0B       		.byte	0xb
 3030 083a 0E       		.uleb128 0xe
 3031 083b 48010000 		.4byte	.LASF162
 3032 083f 0C       		.byte	0xc
 3033 0840 0E       		.uleb128 0xe
 3034 0841 3D030000 		.4byte	.LASF163
ARM GAS  C:\Users\yoons\AppData\Local\Temp\cc4JHBmd.s 			page 67


 3035 0845 0D       		.byte	0xd
 3036 0846 0E       		.uleb128 0xe
 3037 0847 0A030000 		.4byte	.LASF164
 3038 084b 0E       		.byte	0xe
 3039 084c 0E       		.uleb128 0xe
 3040 084d EC0B0000 		.4byte	.LASF165
 3041 0851 0F       		.byte	0xf
 3042 0852 0E       		.uleb128 0xe
 3043 0853 380D0000 		.4byte	.LASF166
 3044 0857 10       		.byte	0x10
 3045 0858 0E       		.uleb128 0xe
 3046 0859 07070000 		.4byte	.LASF167
 3047 085d 11       		.byte	0x11
 3048 085e 00       		.byte	0
 3049 085f 03       		.uleb128 0x3
 3050 0860 900C0000 		.4byte	.LASF168
 3051 0864 0A       		.byte	0xa
 3052 0865 45       		.byte	0x45
 3053 0866 E6070000 		.4byte	0x7e6
 3054 086a 0D       		.uleb128 0xd
 3055 086b 01       		.byte	0x1
 3056 086c 37000000 		.4byte	0x37
 3057 0870 0A       		.byte	0xa
 3058 0871 4D       		.byte	0x4d
 3059 0872 8F080000 		.4byte	0x88f
 3060 0876 0E       		.uleb128 0xe
 3061 0877 15050000 		.4byte	.LASF169
 3062 087b 00       		.byte	0
 3063 087c 0E       		.uleb128 0xe
 3064 087d 5A020000 		.4byte	.LASF170
 3065 0881 01       		.byte	0x1
 3066 0882 0E       		.uleb128 0xe
 3067 0883 56010000 		.4byte	.LASF171
 3068 0887 02       		.byte	0x2
 3069 0888 0E       		.uleb128 0xe
 3070 0889 81090000 		.4byte	.LASF172
 3071 088d 03       		.byte	0x3
 3072 088e 00       		.byte	0
 3073 088f 03       		.uleb128 0x3
 3074 0890 CA000000 		.4byte	.LASF173
 3075 0894 0A       		.byte	0xa
 3076 0895 52       		.byte	0x52
 3077 0896 6A080000 		.4byte	0x86a
 3078 089a 05       		.uleb128 0x5
 3079 089b 90       		.byte	0x90
 3080 089c 0A       		.byte	0xa
 3081 089d 55       		.byte	0x55
 3082 089e A70A0000 		.4byte	0xaa7
 3083 08a2 07       		.uleb128 0x7
 3084 08a3 E2020000 		.4byte	.LASF174
 3085 08a7 0A       		.byte	0xa
 3086 08a8 57       		.byte	0x57
 3087 08a9 A70A0000 		.4byte	0xaa7
 3088 08ad 00       		.byte	0
 3089 08ae 07       		.uleb128 0x7
 3090 08af 23010000 		.4byte	.LASF175
 3091 08b3 0A       		.byte	0xa
ARM GAS  C:\Users\yoons\AppData\Local\Temp\cc4JHBmd.s 			page 68


 3092 08b4 5A       		.byte	0x5a
 3093 08b5 5F080000 		.4byte	0x85f
 3094 08b9 04       		.byte	0x4
 3095 08ba 07       		.uleb128 0x7
 3096 08bb B1020000 		.4byte	.LASF176
 3097 08bf 0A       		.byte	0xa
 3098 08c0 5B       		.byte	0x5b
 3099 08c1 5F080000 		.4byte	0x85f
 3100 08c5 05       		.byte	0x5
 3101 08c6 07       		.uleb128 0x7
 3102 08c7 500A0000 		.4byte	.LASF177
 3103 08cb 0A       		.byte	0xa
 3104 08cc 5D       		.byte	0x5d
 3105 08cd A2000000 		.4byte	0xa2
 3106 08d1 06       		.byte	0x6
 3107 08d2 07       		.uleb128 0x7
 3108 08d3 72010000 		.4byte	.LASF178
 3109 08d7 0A       		.byte	0xa
 3110 08d8 5E       		.byte	0x5e
 3111 08d9 A2000000 		.4byte	0xa2
 3112 08dd 07       		.byte	0x7
 3113 08de 07       		.uleb128 0x7
 3114 08df C6020000 		.4byte	.LASF179
 3115 08e3 0A       		.byte	0xa
 3116 08e4 60       		.byte	0x60
 3117 08e5 CE000000 		.4byte	0xce
 3118 08e9 08       		.byte	0x8
 3119 08ea 07       		.uleb128 0x7
 3120 08eb 030D0000 		.4byte	.LASF180
 3121 08ef 0A       		.byte	0xa
 3122 08f0 62       		.byte	0x62
 3123 08f1 CE000000 		.4byte	0xce
 3124 08f5 0C       		.byte	0xc
 3125 08f6 07       		.uleb128 0x7
 3126 08f7 85050000 		.4byte	.LASF181
 3127 08fb 0A       		.byte	0xa
 3128 08fc 65       		.byte	0x65
 3129 08fd 8F080000 		.4byte	0x88f
 3130 0901 10       		.byte	0x10
 3131 0902 07       		.uleb128 0x7
 3132 0903 69090000 		.4byte	.LASF182
 3133 0907 0A       		.byte	0xa
 3134 0908 66       		.byte	0x66
 3135 0909 D6070000 		.4byte	0x7d6
 3136 090d 14       		.byte	0x14
 3137 090e 07       		.uleb128 0x7
 3138 090f 95070000 		.4byte	.LASF183
 3139 0913 0A       		.byte	0xa
 3140 0914 67       		.byte	0x67
 3141 0915 A2000000 		.4byte	0xa2
 3142 0919 18       		.byte	0x18
 3143 091a 07       		.uleb128 0x7
 3144 091b AC0A0000 		.4byte	.LASF184
 3145 091f 0A       		.byte	0xa
 3146 0920 6C       		.byte	0x6c
 3147 0921 63010000 		.4byte	0x163
 3148 0925 19       		.byte	0x19
ARM GAS  C:\Users\yoons\AppData\Local\Temp\cc4JHBmd.s 			page 69


 3149 0926 07       		.uleb128 0x7
 3150 0927 B20C0000 		.4byte	.LASF185
 3151 092b 0A       		.byte	0xa
 3152 092c 6F       		.byte	0x6f
 3153 092d D7010000 		.4byte	0x1d7
 3154 0931 1C       		.byte	0x1c
 3155 0932 07       		.uleb128 0x7
 3156 0933 CE0A0000 		.4byte	.LASF186
 3157 0937 0A       		.byte	0xa
 3158 0938 70       		.byte	0x70
 3159 0939 D7010000 		.4byte	0x1d7
 3160 093d 20       		.byte	0x20
 3161 093e 07       		.uleb128 0x7
 3162 093f FA080000 		.4byte	.LASF187
 3163 0943 0A       		.byte	0xa
 3164 0944 75       		.byte	0x75
 3165 0945 C3000000 		.4byte	0xc3
 3166 0949 24       		.byte	0x24
 3167 094a 07       		.uleb128 0x7
 3168 094b 2B0B0000 		.4byte	.LASF188
 3169 094f 0A       		.byte	0xa
 3170 0950 76       		.byte	0x76
 3171 0951 C3000000 		.4byte	0xc3
 3172 0955 28       		.byte	0x28
 3173 0956 07       		.uleb128 0x7
 3174 0957 F0000000 		.4byte	.LASF189
 3175 095b 0A       		.byte	0xa
 3176 095c 77       		.byte	0x77
 3177 095d C3000000 		.4byte	0xc3
 3178 0961 2C       		.byte	0x2c
 3179 0962 07       		.uleb128 0x7
 3180 0963 D4030000 		.4byte	.LASF190
 3181 0967 0A       		.byte	0xa
 3182 0968 78       		.byte	0x78
 3183 0969 A2000000 		.4byte	0xa2
 3184 096d 30       		.byte	0x30
 3185 096e 07       		.uleb128 0x7
 3186 096f 63000000 		.4byte	.LASF191
 3187 0973 0A       		.byte	0xa
 3188 0974 79       		.byte	0x79
 3189 0975 A2000000 		.4byte	0xa2
 3190 0979 31       		.byte	0x31
 3191 097a 07       		.uleb128 0x7
 3192 097b 63020000 		.4byte	.LASF192
 3193 097f 0A       		.byte	0xa
 3194 0980 7C       		.byte	0x7c
 3195 0981 C3000000 		.4byte	0xc3
 3196 0985 34       		.byte	0x34
 3197 0986 07       		.uleb128 0x7
 3198 0987 300C0000 		.4byte	.LASF193
 3199 098b 0A       		.byte	0xa
 3200 098c 7D       		.byte	0x7d
 3201 098d C3000000 		.4byte	0xc3
 3202 0991 38       		.byte	0x38
 3203 0992 07       		.uleb128 0x7
 3204 0993 7E020000 		.4byte	.LASF194
 3205 0997 0A       		.byte	0xa
ARM GAS  C:\Users\yoons\AppData\Local\Temp\cc4JHBmd.s 			page 70


 3206 0998 7E       		.byte	0x7e
 3207 0999 C3000000 		.4byte	0xc3
 3208 099d 3C       		.byte	0x3c
 3209 099e 07       		.uleb128 0x7
 3210 099f ED0A0000 		.4byte	.LASF195
 3211 09a3 0A       		.byte	0xa
 3212 09a4 81       		.byte	0x81
 3213 09a5 A2000000 		.4byte	0xa2
 3214 09a9 40       		.byte	0x40
 3215 09aa 07       		.uleb128 0x7
 3216 09ab FD030000 		.4byte	.LASF196
 3217 09af 0A       		.byte	0xa
 3218 09b0 82       		.byte	0x82
 3219 09b1 D7010000 		.4byte	0x1d7
 3220 09b5 44       		.byte	0x44
 3221 09b6 07       		.uleb128 0x7
 3222 09b7 5A0A0000 		.4byte	.LASF197
 3223 09bb 0A       		.byte	0xa
 3224 09bc 83       		.byte	0x83
 3225 09bd D7010000 		.4byte	0x1d7
 3226 09c1 48       		.byte	0x48
 3227 09c2 07       		.uleb128 0x7
 3228 09c3 A8000000 		.4byte	.LASF198
 3229 09c7 0A       		.byte	0xa
 3230 09c8 84       		.byte	0x84
 3231 09c9 CE000000 		.4byte	0xce
 3232 09cd 4C       		.byte	0x4c
 3233 09ce 07       		.uleb128 0x7
 3234 09cf B60A0000 		.4byte	.LASF199
 3235 09d3 0A       		.byte	0xa
 3236 09d4 87       		.byte	0x87
 3237 09d5 D7010000 		.4byte	0x1d7
 3238 09d9 50       		.byte	0x50
 3239 09da 07       		.uleb128 0x7
 3240 09db 47020000 		.4byte	.LASF200
 3241 09df 0A       		.byte	0xa
 3242 09e0 89       		.byte	0x89
 3243 09e1 AD000000 		.4byte	0xad
 3244 09e5 54       		.byte	0x54
 3245 09e6 07       		.uleb128 0x7
 3246 09e7 9E0A0000 		.4byte	.LASF201
 3247 09eb 0A       		.byte	0xa
 3248 09ec 8A       		.byte	0x8a
 3249 09ed AD000000 		.4byte	0xad
 3250 09f1 56       		.byte	0x56
 3251 09f2 07       		.uleb128 0x7
 3252 09f3 DE0A0000 		.4byte	.LASF202
 3253 09f7 0A       		.byte	0xa
 3254 09f8 8E       		.byte	0x8e
 3255 09f9 D7010000 		.4byte	0x1d7
 3256 09fd 58       		.byte	0x58
 3257 09fe 07       		.uleb128 0x7
 3258 09ff 05050000 		.4byte	.LASF203
 3259 0a03 0A       		.byte	0xa
 3260 0a04 8F       		.byte	0x8f
 3261 0a05 D7010000 		.4byte	0x1d7
 3262 0a09 5C       		.byte	0x5c
ARM GAS  C:\Users\yoons\AppData\Local\Temp\cc4JHBmd.s 			page 71


 3263 0a0a 07       		.uleb128 0x7
 3264 0a0b E1010000 		.4byte	.LASF204
 3265 0a0f 0A       		.byte	0xa
 3266 0a10 90       		.byte	0x90
 3267 0a11 A2000000 		.4byte	0xa2
 3268 0a15 60       		.byte	0x60
 3269 0a16 07       		.uleb128 0x7
 3270 0a17 5D050000 		.4byte	.LASF205
 3271 0a1b 0A       		.byte	0xa
 3272 0a1c 93       		.byte	0x93
 3273 0a1d CE000000 		.4byte	0xce
 3274 0a21 64       		.byte	0x64
 3275 0a22 07       		.uleb128 0x7
 3276 0a23 F90B0000 		.4byte	.LASF206
 3277 0a27 0A       		.byte	0xa
 3278 0a28 94       		.byte	0x94
 3279 0a29 CE000000 		.4byte	0xce
 3280 0a2d 68       		.byte	0x68
 3281 0a2e 07       		.uleb128 0x7
 3282 0a2f E90C0000 		.4byte	.LASF207
 3283 0a33 0A       		.byte	0xa
 3284 0a34 95       		.byte	0x95
 3285 0a35 CE000000 		.4byte	0xce
 3286 0a39 6C       		.byte	0x6c
 3287 0a3a 07       		.uleb128 0x7
 3288 0a3b A5090000 		.4byte	.LASF208
 3289 0a3f 0A       		.byte	0xa
 3290 0a40 96       		.byte	0x96
 3291 0a41 A2000000 		.4byte	0xa2
 3292 0a45 70       		.byte	0x70
 3293 0a46 07       		.uleb128 0x7
 3294 0a47 910D0000 		.4byte	.LASF209
 3295 0a4b 0A       		.byte	0xa
 3296 0a4c 99       		.byte	0x99
 3297 0a4d A2000000 		.4byte	0xa2
 3298 0a51 71       		.byte	0x71
 3299 0a52 07       		.uleb128 0x7
 3300 0a53 77080000 		.4byte	.LASF210
 3301 0a57 0A       		.byte	0xa
 3302 0a58 9A       		.byte	0x9a
 3303 0a59 CE000000 		.4byte	0xce
 3304 0a5d 74       		.byte	0x74
 3305 0a5e 07       		.uleb128 0x7
 3306 0a5f 22030000 		.4byte	.LASF211
 3307 0a63 0A       		.byte	0xa
 3308 0a64 9B       		.byte	0x9b
 3309 0a65 D7010000 		.4byte	0x1d7
 3310 0a69 78       		.byte	0x78
 3311 0a6a 07       		.uleb128 0x7
 3312 0a6b 190D0000 		.4byte	.LASF212
 3313 0a6f 0A       		.byte	0xa
 3314 0a70 9C       		.byte	0x9c
 3315 0a71 D7010000 		.4byte	0x1d7
 3316 0a75 7C       		.byte	0x7c
 3317 0a76 07       		.uleb128 0x7
 3318 0a77 23060000 		.4byte	.LASF213
 3319 0a7b 0A       		.byte	0xa
ARM GAS  C:\Users\yoons\AppData\Local\Temp\cc4JHBmd.s 			page 72


 3320 0a7c 9D       		.byte	0x9d
 3321 0a7d D7010000 		.4byte	0x1d7
 3322 0a81 80       		.byte	0x80
 3323 0a82 07       		.uleb128 0x7
 3324 0a83 230C0000 		.4byte	.LASF214
 3325 0a87 0A       		.byte	0xa
 3326 0a88 9E       		.byte	0x9e
 3327 0a89 D7010000 		.4byte	0x1d7
 3328 0a8d 84       		.byte	0x84
 3329 0a8e 07       		.uleb128 0x7
 3330 0a8f 4F0D0000 		.4byte	.LASF215
 3331 0a93 0A       		.byte	0xa
 3332 0a94 9F       		.byte	0x9f
 3333 0a95 A2000000 		.4byte	0xa2
 3334 0a99 88       		.byte	0x88
 3335 0a9a 07       		.uleb128 0x7
 3336 0a9b C10C0000 		.4byte	.LASF216
 3337 0a9f 0A       		.byte	0xa
 3338 0aa0 A0       		.byte	0xa0
 3339 0aa1 CE000000 		.4byte	0xce
 3340 0aa5 8C       		.byte	0x8c
 3341 0aa6 00       		.byte	0
 3342 0aa7 0B       		.uleb128 0xb
 3343 0aa8 04       		.byte	0x4
 3344 0aa9 07070000 		.4byte	0x707
 3345 0aad 03       		.uleb128 0x3
 3346 0aae 59030000 		.4byte	.LASF217
 3347 0ab2 0A       		.byte	0xa
 3348 0ab3 A2       		.byte	0xa2
 3349 0ab4 9A080000 		.4byte	0x89a
 3350 0ab8 03       		.uleb128 0x3
 3351 0ab9 2D0D0000 		.4byte	.LASF218
 3352 0abd 01       		.byte	0x1
 3353 0abe 5F       		.byte	0x5f
 3354 0abf C30A0000 		.4byte	0xac3
 3355 0ac3 0B       		.uleb128 0xb
 3356 0ac4 04       		.byte	0x4
 3357 0ac5 C90A0000 		.4byte	0xac9
 3358 0ac9 09       		.uleb128 0x9
 3359 0aca D40A0000 		.4byte	0xad4
 3360 0ace 0A       		.uleb128 0xa
 3361 0acf D40A0000 		.4byte	0xad4
 3362 0ad3 00       		.byte	0
 3363 0ad4 0B       		.uleb128 0xb
 3364 0ad5 04       		.byte	0x4
 3365 0ad6 AD0A0000 		.4byte	0xaad
 3366 0ada 03       		.uleb128 0x3
 3367 0adb D0070000 		.4byte	.LASF219
 3368 0adf 01       		.byte	0x1
 3369 0ae0 60       		.byte	0x60
 3370 0ae1 E50A0000 		.4byte	0xae5
 3371 0ae5 0B       		.uleb128 0xb
 3372 0ae6 04       		.byte	0x4
 3373 0ae7 EB0A0000 		.4byte	0xaeb
 3374 0aeb 0C       		.uleb128 0xc
 3375 0aec A2000000 		.4byte	0xa2
 3376 0af0 FF0A0000 		.4byte	0xaff
ARM GAS  C:\Users\yoons\AppData\Local\Temp\cc4JHBmd.s 			page 73


 3377 0af4 0A       		.uleb128 0xa
 3378 0af5 D40A0000 		.4byte	0xad4
 3379 0af9 0A       		.uleb128 0xa
 3380 0afa C8070000 		.4byte	0x7c8
 3381 0afe 00       		.byte	0
 3382 0aff 03       		.uleb128 0x3
 3383 0b00 C5080000 		.4byte	.LASF220
 3384 0b04 01       		.byte	0x1
 3385 0b05 61       		.byte	0x61
 3386 0b06 0A0B0000 		.4byte	0xb0a
 3387 0b0a 0B       		.uleb128 0xb
 3388 0b0b 04       		.byte	0x4
 3389 0b0c 100B0000 		.4byte	0xb10
 3390 0b10 09       		.uleb128 0x9
 3391 0b11 200B0000 		.4byte	0xb20
 3392 0b15 0A       		.uleb128 0xa
 3393 0b16 200B0000 		.4byte	0xb20
 3394 0b1a 0A       		.uleb128 0xa
 3395 0b1b 2B0B0000 		.4byte	0xb2b
 3396 0b1f 00       		.byte	0
 3397 0b20 0B       		.uleb128 0xb
 3398 0b21 04       		.byte	0x4
 3399 0b22 260B0000 		.4byte	0xb26
 3400 0b26 14       		.uleb128 0x14
 3401 0b27 AD0A0000 		.4byte	0xaad
 3402 0b2b 0B       		.uleb128 0xb
 3403 0b2c 04       		.byte	0x4
 3404 0b2d DE010000 		.4byte	0x1de
 3405 0b31 03       		.uleb128 0x3
 3406 0b32 86080000 		.4byte	.LASF221
 3407 0b36 01       		.byte	0x1
 3408 0b37 62       		.byte	0x62
 3409 0b38 3C0B0000 		.4byte	0xb3c
 3410 0b3c 0B       		.uleb128 0xb
 3411 0b3d 04       		.byte	0x4
 3412 0b3e 420B0000 		.4byte	0xb42
 3413 0b42 0C       		.uleb128 0xc
 3414 0b43 A2000000 		.4byte	0xa2
 3415 0b47 510B0000 		.4byte	0xb51
 3416 0b4b 0A       		.uleb128 0xa
 3417 0b4c 200B0000 		.4byte	0xb20
 3418 0b50 00       		.byte	0
 3419 0b51 15       		.uleb128 0x15
 3420 0b52 220B0000 		.4byte	.LASF222
 3421 0b56 01       		.byte	0x1
 3422 0b57 C0       		.byte	0xc0
 3423 0b58 A2000000 		.4byte	0xa2
 3424 0b5c 00000000 		.4byte	.LFB64
 3425 0b60 34000000 		.4byte	.LFE64-.LFB64
 3426 0b64 01       		.uleb128 0x1
 3427 0b65 9C       		.byte	0x9c
 3428 0b66 830B0000 		.4byte	0xb83
 3429 0b6a 16       		.uleb128 0x16
 3430 0b6b 7300     		.ascii	"s\000"
 3431 0b6d 01       		.byte	0x1
 3432 0b6e C0       		.byte	0xc0
 3433 0b6f 5F080000 		.4byte	0x85f
ARM GAS  C:\Users\yoons\AppData\Local\Temp\cc4JHBmd.s 			page 74


 3434 0b73 02       		.uleb128 0x2
 3435 0b74 91       		.byte	0x91
 3436 0b75 6F       		.sleb128 -17
 3437 0b76 17       		.uleb128 0x17
 3438 0b77 6400     		.ascii	"d\000"
 3439 0b79 01       		.byte	0x1
 3440 0b7a C2       		.byte	0xc2
 3441 0b7b A2000000 		.4byte	0xa2
 3442 0b7f 02       		.uleb128 0x2
 3443 0b80 91       		.byte	0x91
 3444 0b81 77       		.sleb128 -9
 3445 0b82 00       		.byte	0
 3446 0b83 18       		.uleb128 0x18
 3447 0b84 6C636100 		.ascii	"lca\000"
 3448 0b88 01       		.byte	0x1
 3449 0b89 C7       		.byte	0xc7
 3450 0b8a 5F080000 		.4byte	0x85f
 3451 0b8e 00000000 		.4byte	.LFB65
 3452 0b92 80000000 		.4byte	.LFE65-.LFB65
 3453 0b96 01       		.uleb128 0x1
 3454 0b97 9C       		.byte	0x9c
 3455 0b98 CF0B0000 		.4byte	0xbcf
 3456 0b9c 16       		.uleb128 0x16
 3457 0b9d 6100     		.ascii	"a\000"
 3458 0b9f 01       		.byte	0x1
 3459 0ba0 C7       		.byte	0xc7
 3460 0ba1 5F080000 		.4byte	0x85f
 3461 0ba5 02       		.uleb128 0x2
 3462 0ba6 91       		.byte	0x91
 3463 0ba7 6F       		.sleb128 -17
 3464 0ba8 16       		.uleb128 0x16
 3465 0ba9 6200     		.ascii	"b\000"
 3466 0bab 01       		.byte	0x1
 3467 0bac C7       		.byte	0xc7
 3468 0bad 5F080000 		.4byte	0x85f
 3469 0bb1 02       		.uleb128 0x2
 3470 0bb2 91       		.byte	0x91
 3471 0bb3 6E       		.sleb128 -18
 3472 0bb4 17       		.uleb128 0x17
 3473 0bb5 646100   		.ascii	"da\000"
 3474 0bb8 01       		.byte	0x1
 3475 0bb9 C9       		.byte	0xc9
 3476 0bba A2000000 		.4byte	0xa2
 3477 0bbe 02       		.uleb128 0x2
 3478 0bbf 91       		.byte	0x91
 3479 0bc0 77       		.sleb128 -9
 3480 0bc1 17       		.uleb128 0x17
 3481 0bc2 646200   		.ascii	"db\000"
 3482 0bc5 01       		.byte	0x1
 3483 0bc6 C9       		.byte	0xc9
 3484 0bc7 A2000000 		.4byte	0xa2
 3485 0bcb 02       		.uleb128 0x2
 3486 0bcc 91       		.byte	0x91
 3487 0bcd 76       		.sleb128 -10
 3488 0bce 00       		.byte	0
 3489 0bcf 19       		.uleb128 0x19
 3490 0bd0 A2020000 		.4byte	.LASF226
ARM GAS  C:\Users\yoons\AppData\Local\Temp\cc4JHBmd.s 			page 75


 3491 0bd4 01       		.byte	0x1
 3492 0bd5 D5       		.byte	0xd5
 3493 0bd6 00000000 		.4byte	.LFB66
 3494 0bda 50010000 		.4byte	.LFE66-.LFB66
 3495 0bde 01       		.uleb128 0x1
 3496 0bdf 9C       		.byte	0x9c
 3497 0be0 670C0000 		.4byte	0xc67
 3498 0be4 16       		.uleb128 0x16
 3499 0be5 63747800 		.ascii	"ctx\000"
 3500 0be9 01       		.byte	0x1
 3501 0bea D5       		.byte	0xd5
 3502 0beb D40A0000 		.4byte	0xad4
 3503 0bef 02       		.uleb128 0x2
 3504 0bf0 91       		.byte	0x91
 3505 0bf1 64       		.sleb128 -28
 3506 0bf2 1A       		.uleb128 0x1a
 3507 0bf3 B0050000 		.4byte	.LASF223
 3508 0bf7 01       		.byte	0x1
 3509 0bf8 D5       		.byte	0xd5
 3510 0bf9 5F080000 		.4byte	0x85f
 3511 0bfd 02       		.uleb128 0x2
 3512 0bfe 91       		.byte	0x91
 3513 0bff 63       		.sleb128 -29
 3514 0c00 17       		.uleb128 0x17
 3515 0c01 73726300 		.ascii	"src\000"
 3516 0c05 01       		.byte	0x1
 3517 0c06 E1       		.byte	0xe1
 3518 0c07 5F080000 		.4byte	0x85f
 3519 0c0b 02       		.uleb128 0x2
 3520 0c0c 91       		.byte	0x91
 3521 0c0d 74       		.sleb128 -12
 3522 0c0e 1B       		.uleb128 0x1b
 3523 0c0f 1E050000 		.4byte	.LASF224
 3524 0c13 01       		.byte	0x1
 3525 0c14 E5       		.byte	0xe5
 3526 0c15 5F080000 		.4byte	0x85f
 3527 0c19 02       		.uleb128 0x2
 3528 0c1a 91       		.byte	0x91
 3529 0c1b 73       		.sleb128 -13
 3530 0c1c 1B       		.uleb128 0x1b
 3531 0c1d A3000000 		.4byte	.LASF225
 3532 0c21 01       		.byte	0x1
 3533 0c22 F0       		.byte	0xf0
 3534 0c23 670C0000 		.4byte	0xc67
 3535 0c27 02       		.uleb128 0x2
 3536 0c28 91       		.byte	0x91
 3537 0c29 6C       		.sleb128 -20
 3538 0c2a 17       		.uleb128 0x17
 3539 0c2b 6E00     		.ascii	"n\000"
 3540 0c2d 01       		.byte	0x1
 3541 0c2e F1       		.byte	0xf1
 3542 0c2f A2000000 		.4byte	0xa2
 3543 0c33 02       		.uleb128 0x2
 3544 0c34 91       		.byte	0x91
 3545 0c35 76       		.sleb128 -10
 3546 0c36 1C       		.uleb128 0x1c
 3547 0c37 7A000000 		.4byte	.LBB2
ARM GAS  C:\Users\yoons\AppData\Local\Temp\cc4JHBmd.s 			page 76


 3548 0c3b 2E000000 		.4byte	.LBE2-.LBB2
 3549 0c3f 500C0000 		.4byte	0xc50
 3550 0c43 17       		.uleb128 0x17
 3551 0c44 7300     		.ascii	"s\000"
 3552 0c46 01       		.byte	0x1
 3553 0c47 E9       		.byte	0xe9
 3554 0c48 5F080000 		.4byte	0x85f
 3555 0c4c 02       		.uleb128 0x2
 3556 0c4d 91       		.byte	0x91
 3557 0c4e 77       		.sleb128 -9
 3558 0c4f 00       		.byte	0
 3559 0c50 1D       		.uleb128 0x1d
 3560 0c51 B2000000 		.4byte	.LBB3
 3561 0c55 28000000 		.4byte	.LBE3-.LBB3
 3562 0c59 17       		.uleb128 0x17
 3563 0c5a 7300     		.ascii	"s\000"
 3564 0c5c 01       		.byte	0x1
 3565 0c5d F2       		.byte	0xf2
 3566 0c5e 5F080000 		.4byte	0x85f
 3567 0c62 02       		.uleb128 0x2
 3568 0c63 91       		.byte	0x91
 3569 0c64 75       		.sleb128 -11
 3570 0c65 00       		.byte	0
 3571 0c66 00       		.byte	0
 3572 0c67 11       		.uleb128 0x11
 3573 0c68 5F080000 		.4byte	0x85f
 3574 0c6c 770C0000 		.4byte	0xc77
 3575 0c70 12       		.uleb128 0x12
 3576 0c71 B1050000 		.4byte	0x5b1
 3577 0c75 03       		.byte	0x3
 3578 0c76 00       		.byte	0
 3579 0c77 19       		.uleb128 0x19
 3580 0c78 460A0000 		.4byte	.LASF227
 3581 0c7c 01       		.byte	0x1
 3582 0c7d FF       		.byte	0xff
 3583 0c7e 00000000 		.4byte	.LFB67
 3584 0c82 26000000 		.4byte	.LFE67-.LFB67
 3585 0c86 01       		.uleb128 0x1
 3586 0c87 9C       		.byte	0x9c
 3587 0c88 AA0C0000 		.4byte	0xcaa
 3588 0c8c 16       		.uleb128 0x16
 3589 0c8d 63747800 		.ascii	"ctx\000"
 3590 0c91 01       		.byte	0x1
 3591 0c92 FF       		.byte	0xff
 3592 0c93 D40A0000 		.4byte	0xad4
 3593 0c97 02       		.uleb128 0x2
 3594 0c98 91       		.byte	0x91
 3595 0c99 6C       		.sleb128 -20
 3596 0c9a 1E       		.uleb128 0x1e
 3597 0c9b B0050000 		.4byte	.LASF223
 3598 0c9f 01       		.byte	0x1
 3599 0ca0 0201     		.2byte	0x102
 3600 0ca2 5F080000 		.4byte	0x85f
 3601 0ca6 02       		.uleb128 0x2
 3602 0ca7 91       		.byte	0x91
 3603 0ca8 77       		.sleb128 -9
 3604 0ca9 00       		.byte	0
ARM GAS  C:\Users\yoons\AppData\Local\Temp\cc4JHBmd.s 			page 77


 3605 0caa 1F       		.uleb128 0x1f
 3606 0cab 2F050000 		.4byte	.LASF228
 3607 0caf 01       		.byte	0x1
 3608 0cb0 0801     		.2byte	0x108
 3609 0cb2 00000000 		.4byte	.LFB68
 3610 0cb6 68000000 		.4byte	.LFE68-.LFB68
 3611 0cba 01       		.uleb128 0x1
 3612 0cbb 9C       		.byte	0x9c
 3613 0cbc EE0C0000 		.4byte	0xcee
 3614 0cc0 20       		.uleb128 0x20
 3615 0cc1 63747800 		.ascii	"ctx\000"
 3616 0cc5 01       		.byte	0x1
 3617 0cc6 0801     		.2byte	0x108
 3618 0cc8 D40A0000 		.4byte	0xad4
 3619 0ccc 02       		.uleb128 0x2
 3620 0ccd 91       		.byte	0x91
 3621 0cce 74       		.sleb128 -12
 3622 0ccf 20       		.uleb128 0x20
 3623 0cd0 73657600 		.ascii	"sev\000"
 3624 0cd4 01       		.byte	0x1
 3625 0cd5 0801     		.2byte	0x108
 3626 0cd7 8F080000 		.4byte	0x88f
 3627 0cdb 02       		.uleb128 0x2
 3628 0cdc 91       		.byte	0x91
 3629 0cdd 73       		.sleb128 -13
 3630 0cde 20       		.uleb128 0x20
 3631 0cdf 6D736700 		.ascii	"msg\000"
 3632 0ce3 01       		.byte	0x1
 3633 0ce4 0801     		.2byte	0x108
 3634 0ce6 D6070000 		.4byte	0x7d6
 3635 0cea 02       		.uleb128 0x2
 3636 0ceb 91       		.byte	0x91
 3637 0cec 6C       		.sleb128 -20
 3638 0ced 00       		.byte	0
 3639 0cee 21       		.uleb128 0x21
 3640 0cef BB000000 		.4byte	.LASF240
 3641 0cf3 01       		.byte	0x1
 3642 0cf4 2F01     		.2byte	0x12f
 3643 0cf6 D6070000 		.4byte	0x7d6
 3644 0cfa 00000000 		.4byte	.LFB69
 3645 0cfe 20000000 		.4byte	.LFE69-.LFB69
 3646 0d02 01       		.uleb128 0x1
 3647 0d03 9C       		.byte	0x9c
 3648 0d04 160D0000 		.4byte	0xd16
 3649 0d08 20       		.uleb128 0x20
 3650 0d09 7300     		.ascii	"s\000"
 3651 0d0b 01       		.byte	0x1
 3652 0d0c 2F01     		.2byte	0x12f
 3653 0d0e 5F080000 		.4byte	0x85f
 3654 0d12 02       		.uleb128 0x2
 3655 0d13 91       		.byte	0x91
 3656 0d14 77       		.sleb128 -9
 3657 0d15 00       		.byte	0
 3658 0d16 1F       		.uleb128 0x1f
 3659 0d17 45000000 		.4byte	.LASF229
 3660 0d1b 01       		.byte	0x1
 3661 0d1c 3501     		.2byte	0x135
ARM GAS  C:\Users\yoons\AppData\Local\Temp\cc4JHBmd.s 			page 78


 3662 0d1e 00000000 		.4byte	.LFB70
 3663 0d22 80000000 		.4byte	.LFE70-.LFB70
 3664 0d26 01       		.uleb128 0x1
 3665 0d27 9C       		.byte	0x9c
 3666 0d28 600D0000 		.4byte	0xd60
 3667 0d2c 20       		.uleb128 0x20
 3668 0d2d 63747800 		.ascii	"ctx\000"
 3669 0d31 01       		.byte	0x1
 3670 0d32 3501     		.2byte	0x135
 3671 0d34 D40A0000 		.4byte	0xad4
 3672 0d38 02       		.uleb128 0x2
 3673 0d39 91       		.byte	0x91
 3674 0d3a 74       		.sleb128 -12
 3675 0d3b 1E       		.uleb128 0x1e
 3676 0d3c 760A0000 		.4byte	.LASF230
 3677 0d40 01       		.byte	0x1
 3678 0d41 3A01     		.2byte	0x13a
 3679 0d43 CE000000 		.4byte	0xce
 3680 0d47 05       		.uleb128 0x5
 3681 0d48 03       		.byte	0x3
 3682 0d49 00000000 		.4byte	last_hot_ms.8356
 3683 0d4d 1E       		.uleb128 0x1e
 3684 0d4e 9B030000 		.4byte	.LASF231
 3685 0d52 01       		.byte	0x1
 3686 0d53 3B01     		.2byte	0x13b
 3687 0d55 CE000000 		.4byte	0xce
 3688 0d59 05       		.uleb128 0x5
 3689 0d5a 03       		.byte	0x3
 3690 0d5b 04000000 		.4byte	last_link_ms.8357
 3691 0d5f 00       		.byte	0
 3692 0d60 1F       		.uleb128 0x1f
 3693 0d61 C8040000 		.4byte	.LASF232
 3694 0d65 01       		.byte	0x1
 3695 0d66 4E01     		.2byte	0x14e
 3696 0d68 00000000 		.4byte	.LFB71
 3697 0d6c 2E000000 		.4byte	.LFE71-.LFB71
 3698 0d70 01       		.uleb128 0x1
 3699 0d71 9C       		.byte	0x9c
 3700 0d72 950D0000 		.4byte	0xd95
 3701 0d76 20       		.uleb128 0x20
 3702 0d77 63747800 		.ascii	"ctx\000"
 3703 0d7b 01       		.byte	0x1
 3704 0d7c 4E01     		.2byte	0x14e
 3705 0d7e 200B0000 		.4byte	0xb20
 3706 0d82 02       		.uleb128 0x2
 3707 0d83 91       		.byte	0x91
 3708 0d84 74       		.sleb128 -12
 3709 0d85 20       		.uleb128 0x20
 3710 0d86 6F757400 		.ascii	"out\000"
 3711 0d8a 01       		.byte	0x1
 3712 0d8b 4E01     		.2byte	0x14e
 3713 0d8d 2B0B0000 		.4byte	0xb2b
 3714 0d91 02       		.uleb128 0x2
 3715 0d92 91       		.byte	0x91
 3716 0d93 70       		.sleb128 -16
 3717 0d94 00       		.byte	0
 3718 0d95 1F       		.uleb128 0x1f
ARM GAS  C:\Users\yoons\AppData\Local\Temp\cc4JHBmd.s 			page 79


 3719 0d96 C9030000 		.4byte	.LASF233
 3720 0d9a 01       		.byte	0x1
 3721 0d9b 5701     		.2byte	0x157
 3722 0d9d 00000000 		.4byte	.LFB72
 3723 0da1 2E000000 		.4byte	.LFE72-.LFB72
 3724 0da5 01       		.uleb128 0x1
 3725 0da6 9C       		.byte	0x9c
 3726 0da7 CA0D0000 		.4byte	0xdca
 3727 0dab 20       		.uleb128 0x20
 3728 0dac 63747800 		.ascii	"ctx\000"
 3729 0db0 01       		.byte	0x1
 3730 0db1 5701     		.2byte	0x157
 3731 0db3 200B0000 		.4byte	0xb20
 3732 0db7 02       		.uleb128 0x2
 3733 0db8 91       		.byte	0x91
 3734 0db9 74       		.sleb128 -12
 3735 0dba 20       		.uleb128 0x20
 3736 0dbb 6F757400 		.ascii	"out\000"
 3737 0dbf 01       		.byte	0x1
 3738 0dc0 5701     		.2byte	0x157
 3739 0dc2 2B0B0000 		.4byte	0xb2b
 3740 0dc6 02       		.uleb128 0x2
 3741 0dc7 91       		.byte	0x91
 3742 0dc8 70       		.sleb128 -16
 3743 0dc9 00       		.byte	0
 3744 0dca 1F       		.uleb128 0x1f
 3745 0dcb 080B0000 		.4byte	.LASF234
 3746 0dcf 01       		.byte	0x1
 3747 0dd0 6101     		.2byte	0x161
 3748 0dd2 00000000 		.4byte	.LFB73
 3749 0dd6 50000000 		.4byte	.LFE73-.LFB73
 3750 0dda 01       		.uleb128 0x1
 3751 0ddb 9C       		.byte	0x9c
 3752 0ddc 0C0E0000 		.4byte	0xe0c
 3753 0de0 20       		.uleb128 0x20
 3754 0de1 63747800 		.ascii	"ctx\000"
 3755 0de5 01       		.byte	0x1
 3756 0de6 6101     		.2byte	0x161
 3757 0de8 200B0000 		.4byte	0xb20
 3758 0dec 02       		.uleb128 0x2
 3759 0ded 91       		.byte	0x91
 3760 0dee 6C       		.sleb128 -20
 3761 0def 20       		.uleb128 0x20
 3762 0df0 6F757400 		.ascii	"out\000"
 3763 0df4 01       		.byte	0x1
 3764 0df5 6101     		.2byte	0x161
 3765 0df7 2B0B0000 		.4byte	0xb2b
 3766 0dfb 02       		.uleb128 0x2
 3767 0dfc 91       		.byte	0x91
 3768 0dfd 68       		.sleb128 -24
 3769 0dfe 22       		.uleb128 0x22
 3770 0dff 6600     		.ascii	"f\000"
 3771 0e01 01       		.byte	0x1
 3772 0e02 6C01     		.2byte	0x16c
 3773 0e04 FF0A0000 		.4byte	0xaff
 3774 0e08 02       		.uleb128 0x2
 3775 0e09 91       		.byte	0x91
ARM GAS  C:\Users\yoons\AppData\Local\Temp\cc4JHBmd.s 			page 80


 3776 0e0a 74       		.sleb128 -12
 3777 0e0b 00       		.byte	0
 3778 0e0c 1F       		.uleb128 0x1f
 3779 0e0d 49080000 		.4byte	.LASF235
 3780 0e11 01       		.byte	0x1
 3781 0e12 7A01     		.2byte	0x17a
 3782 0e14 00000000 		.4byte	.LFB74
 3783 0e18 7C000000 		.4byte	.LFE74-.LFB74
 3784 0e1c 01       		.uleb128 0x1
 3785 0e1d 9C       		.byte	0x9c
 3786 0e1e 5F0E0000 		.4byte	0xe5f
 3787 0e22 20       		.uleb128 0x20
 3788 0e23 63747800 		.ascii	"ctx\000"
 3789 0e27 01       		.byte	0x1
 3790 0e28 7A01     		.2byte	0x17a
 3791 0e2a D40A0000 		.4byte	0xad4
 3792 0e2e 02       		.uleb128 0x2
 3793 0e2f 91       		.byte	0x91
 3794 0e30 6C       		.sleb128 -20
 3795 0e31 23       		.uleb128 0x23
 3796 0e32 C4090000 		.4byte	.LASF236
 3797 0e36 01       		.byte	0x1
 3798 0e37 7A01     		.2byte	0x17a
 3799 0e39 A2000000 		.4byte	0xa2
 3800 0e3d 02       		.uleb128 0x2
 3801 0e3e 91       		.byte	0x91
 3802 0e3f 6B       		.sleb128 -21
 3803 0e40 22       		.uleb128 0x22
 3804 0e41 70616E00 		.ascii	"pan\000"
 3805 0e45 01       		.byte	0x1
 3806 0e46 7E01     		.2byte	0x17e
 3807 0e48 D7010000 		.4byte	0x1d7
 3808 0e4c 02       		.uleb128 0x2
 3809 0e4d 91       		.byte	0x91
 3810 0e4e 74       		.sleb128 -12
 3811 0e4f 1E       		.uleb128 0x1e
 3812 0e50 D5090000 		.4byte	.LASF27
 3813 0e54 01       		.byte	0x1
 3814 0e55 7E01     		.2byte	0x17e
 3815 0e57 D7010000 		.4byte	0x1d7
 3816 0e5b 02       		.uleb128 0x2
 3817 0e5c 91       		.byte	0x91
 3818 0e5d 70       		.sleb128 -16
 3819 0e5e 00       		.byte	0
 3820 0e5f 24       		.uleb128 0x24
 3821 0e60 6C040000 		.4byte	.LASF257
 3822 0e64 01       		.byte	0x1
 3823 0e65 8A01     		.2byte	0x18a
 3824 0e67 00000000 		.4byte	.LFB75
 3825 0e6b 1C000000 		.4byte	.LFE75-.LFB75
 3826 0e6f 01       		.uleb128 0x1
 3827 0e70 9C       		.byte	0x9c
 3828 0e71 850E0000 		.4byte	0xe85
 3829 0e75 20       		.uleb128 0x20
 3830 0e76 63747800 		.ascii	"ctx\000"
 3831 0e7a 01       		.byte	0x1
 3832 0e7b 8A01     		.2byte	0x18a
ARM GAS  C:\Users\yoons\AppData\Local\Temp\cc4JHBmd.s 			page 81


 3833 0e7d 200B0000 		.4byte	0xb20
 3834 0e81 02       		.uleb128 0x2
 3835 0e82 91       		.byte	0x91
 3836 0e83 74       		.sleb128 -12
 3837 0e84 00       		.byte	0
 3838 0e85 25       		.uleb128 0x25
 3839 0e86 110C0000 		.4byte	.LASF237
 3840 0e8a 01       		.byte	0x1
 3841 0e8b 9601     		.2byte	0x196
 3842 0e8d A2000000 		.4byte	0xa2
 3843 0e91 00000000 		.4byte	.LFB76
 3844 0e95 A0000000 		.4byte	.LFE76-.LFB76
 3845 0e99 01       		.uleb128 0x1
 3846 0e9a 9C       		.byte	0x9c
 3847 0e9b BC0E0000 		.4byte	0xebc
 3848 0e9f 20       		.uleb128 0x20
 3849 0ea0 63747800 		.ascii	"ctx\000"
 3850 0ea4 01       		.byte	0x1
 3851 0ea5 9601     		.2byte	0x196
 3852 0ea7 D40A0000 		.4byte	0xad4
 3853 0eab 02       		.uleb128 0x2
 3854 0eac 91       		.byte	0x91
 3855 0ead 74       		.sleb128 -12
 3856 0eae 20       		.uleb128 0x20
 3857 0eaf 6B00     		.ascii	"k\000"
 3858 0eb1 01       		.byte	0x1
 3859 0eb2 9601     		.2byte	0x196
 3860 0eb4 C8070000 		.4byte	0x7c8
 3861 0eb8 02       		.uleb128 0x2
 3862 0eb9 91       		.byte	0x91
 3863 0eba 73       		.sleb128 -13
 3864 0ebb 00       		.byte	0
 3865 0ebc 26       		.uleb128 0x26
 3866 0ebd F3090000 		.4byte	.LASF238
 3867 0ec1 01       		.byte	0x1
 3868 0ec2 AE01     		.2byte	0x1ae
 3869 0ec4 A2000000 		.4byte	0xa2
 3870 0ec8 00000000 		.4byte	.LFB77
 3871 0ecc 3A000000 		.4byte	.LFE77-.LFB77
 3872 0ed0 01       		.uleb128 0x1
 3873 0ed1 9C       		.byte	0x9c
 3874 0ed2 E40E0000 		.4byte	0xee4
 3875 0ed6 20       		.uleb128 0x20
 3876 0ed7 7300     		.ascii	"s\000"
 3877 0ed9 01       		.byte	0x1
 3878 0eda AE01     		.2byte	0x1ae
 3879 0edc 5F080000 		.4byte	0x85f
 3880 0ee0 02       		.uleb128 0x2
 3881 0ee1 91       		.byte	0x91
 3882 0ee2 77       		.sleb128 -9
 3883 0ee3 00       		.byte	0
 3884 0ee4 25       		.uleb128 0x25
 3885 0ee5 BF0A0000 		.4byte	.LASF239
 3886 0ee9 01       		.byte	0x1
 3887 0eea B701     		.2byte	0x1b7
 3888 0eec A2000000 		.4byte	0xa2
 3889 0ef0 00000000 		.4byte	.LFB78
ARM GAS  C:\Users\yoons\AppData\Local\Temp\cc4JHBmd.s 			page 82


 3890 0ef4 48000000 		.4byte	.LFE78-.LFB78
 3891 0ef8 01       		.uleb128 0x1
 3892 0ef9 9C       		.byte	0x9c
 3893 0efa 1B0F0000 		.4byte	0xf1b
 3894 0efe 20       		.uleb128 0x20
 3895 0eff 63747800 		.ascii	"ctx\000"
 3896 0f03 01       		.byte	0x1
 3897 0f04 B701     		.2byte	0x1b7
 3898 0f06 D40A0000 		.4byte	0xad4
 3899 0f0a 02       		.uleb128 0x2
 3900 0f0b 91       		.byte	0x91
 3901 0f0c 74       		.sleb128 -12
 3902 0f0d 20       		.uleb128 0x20
 3903 0f0e 6B00     		.ascii	"k\000"
 3904 0f10 01       		.byte	0x1
 3905 0f11 B701     		.2byte	0x1b7
 3906 0f13 C8070000 		.4byte	0x7c8
 3907 0f17 02       		.uleb128 0x2
 3908 0f18 91       		.byte	0x91
 3909 0f19 73       		.sleb128 -13
 3910 0f1a 00       		.byte	0
 3911 0f1b 27       		.uleb128 0x27
 3912 0f1c 610D0000 		.4byte	.LASF241
 3913 0f20 01       		.byte	0x1
 3914 0f21 C401     		.2byte	0x1c4
 3915 0f23 A2000000 		.4byte	0xa2
 3916 0f27 00000000 		.4byte	.LFB79
 3917 0f2b A0000000 		.4byte	.LFE79-.LFB79
 3918 0f2f 01       		.uleb128 0x1
 3919 0f30 9C       		.byte	0x9c
 3920 0f31 610F0000 		.4byte	0xf61
 3921 0f35 20       		.uleb128 0x20
 3922 0f36 63747800 		.ascii	"ctx\000"
 3923 0f3a 01       		.byte	0x1
 3924 0f3b C401     		.2byte	0x1c4
 3925 0f3d D40A0000 		.4byte	0xad4
 3926 0f41 02       		.uleb128 0x2
 3927 0f42 91       		.byte	0x91
 3928 0f43 6C       		.sleb128 -20
 3929 0f44 20       		.uleb128 0x20
 3930 0f45 6B657900 		.ascii	"key\000"
 3931 0f49 01       		.byte	0x1
 3932 0f4a C401     		.2byte	0x1c4
 3933 0f4c C8070000 		.4byte	0x7c8
 3934 0f50 02       		.uleb128 0x2
 3935 0f51 91       		.byte	0x91
 3936 0f52 6B       		.sleb128 -21
 3937 0f53 22       		.uleb128 0x22
 3938 0f54 6600     		.ascii	"f\000"
 3939 0f56 01       		.byte	0x1
 3940 0f57 CE01     		.2byte	0x1ce
 3941 0f59 DA0A0000 		.4byte	0xada
 3942 0f5d 02       		.uleb128 0x2
 3943 0f5e 91       		.byte	0x91
 3944 0f5f 74       		.sleb128 -12
 3945 0f60 00       		.byte	0
 3946 0f61 26       		.uleb128 0x26
ARM GAS  C:\Users\yoons\AppData\Local\Temp\cc4JHBmd.s 			page 83


 3947 0f62 DA090000 		.4byte	.LASF242
 3948 0f66 01       		.byte	0x1
 3949 0f67 DD01     		.2byte	0x1dd
 3950 0f69 A2000000 		.4byte	0xa2
 3951 0f6d 00000000 		.4byte	.LFB80
 3952 0f71 22000000 		.4byte	.LFE80-.LFB80
 3953 0f75 01       		.uleb128 0x1
 3954 0f76 9C       		.byte	0x9c
 3955 0f77 890F0000 		.4byte	0xf89
 3956 0f7b 20       		.uleb128 0x20
 3957 0f7c 7300     		.ascii	"s\000"
 3958 0f7e 01       		.byte	0x1
 3959 0f7f DD01     		.2byte	0x1dd
 3960 0f81 A2000000 		.4byte	0xa2
 3961 0f85 02       		.uleb128 0x2
 3962 0f86 91       		.byte	0x91
 3963 0f87 77       		.sleb128 -9
 3964 0f88 00       		.byte	0
 3965 0f89 26       		.uleb128 0x26
 3966 0f8a 74050000 		.4byte	.LASF243
 3967 0f8e 01       		.byte	0x1
 3968 0f8f F001     		.2byte	0x1f0
 3969 0f91 A2000000 		.4byte	0xa2
 3970 0f95 00000000 		.4byte	.LFB81
 3971 0f99 4C000000 		.4byte	.LFE81-.LFB81
 3972 0f9d 01       		.uleb128 0x1
 3973 0f9e 9C       		.byte	0x9c
 3974 0f9f B10F0000 		.4byte	0xfb1
 3975 0fa3 20       		.uleb128 0x20
 3976 0fa4 7300     		.ascii	"s\000"
 3977 0fa6 01       		.byte	0x1
 3978 0fa7 F001     		.2byte	0x1f0
 3979 0fa9 5F080000 		.4byte	0x85f
 3980 0fad 02       		.uleb128 0x2
 3981 0fae 91       		.byte	0x91
 3982 0faf 77       		.sleb128 -9
 3983 0fb0 00       		.byte	0
 3984 0fb1 1F       		.uleb128 0x1f
 3985 0fb2 53060000 		.4byte	.LASF244
 3986 0fb6 01       		.byte	0x1
 3987 0fb7 FE01     		.2byte	0x1fe
 3988 0fb9 00000000 		.4byte	.LFB82
 3989 0fbd DC010000 		.4byte	.LFE82-.LFB82
 3990 0fc1 01       		.uleb128 0x1
 3991 0fc2 9C       		.byte	0x9c
 3992 0fc3 7F100000 		.4byte	0x107f
 3993 0fc7 20       		.uleb128 0x20
 3994 0fc8 63747800 		.ascii	"ctx\000"
 3995 0fcc 01       		.byte	0x1
 3996 0fcd FE01     		.2byte	0x1fe
 3997 0fcf D40A0000 		.4byte	0xad4
 3998 0fd3 03       		.uleb128 0x3
 3999 0fd4 91       		.byte	0x91
 4000 0fd5 CC7E     		.sleb128 -180
 4001 0fd7 22       		.uleb128 0x22
 4002 0fd8 74677400 		.ascii	"tgt\000"
 4003 0fdc 01       		.byte	0x1
ARM GAS  C:\Users\yoons\AppData\Local\Temp\cc4JHBmd.s 			page 84


 4004 0fdd 0502     		.2byte	0x205
 4005 0fdf 5F070000 		.4byte	0x75f
 4006 0fe3 02       		.uleb128 0x2
 4007 0fe4 91       		.byte	0x91
 4008 0fe5 60       		.sleb128 -32
 4009 0fe6 22       		.uleb128 0x22
 4010 0fe7 6E7A00   		.ascii	"nz\000"
 4011 0fea 01       		.byte	0x1
 4012 0feb 1002     		.2byte	0x210
 4013 0fed 8B070000 		.4byte	0x78b
 4014 0ff1 02       		.uleb128 0x2
 4015 0ff2 91       		.byte	0x91
 4016 0ff3 5C       		.sleb128 -36
 4017 0ff4 22       		.uleb128 0x22
 4018 0ff5 707000   		.ascii	"pp\000"
 4019 0ff8 01       		.byte	0x1
 4020 0ff9 1C02     		.2byte	0x21c
 4021 0ffb B6070000 		.4byte	0x7b6
 4022 0fff 02       		.uleb128 0x2
 4023 1000 91       		.byte	0x91
 4024 1001 54       		.sleb128 -44
 4025 1002 22       		.uleb128 0x22
 4026 1003 72657100 		.ascii	"req\000"
 4027 1007 01       		.byte	0x1
 4028 1008 3902     		.2byte	0x239
 4029 100a 27070000 		.4byte	0x727
 4030 100e 02       		.uleb128 0x2
 4031 100f 91       		.byte	0x91
 4032 1010 50       		.sleb128 -48
 4033 1011 1E       		.uleb128 0x1e
 4034 1012 B0050000 		.4byte	.LASF223
 4035 1016 01       		.byte	0x1
 4036 1017 4E02     		.2byte	0x24e
 4037 1019 5F080000 		.4byte	0x85f
 4038 101d 02       		.uleb128 0x2
 4039 101e 91       		.byte	0x91
 4040 101f 6F       		.sleb128 -17
 4041 1020 22       		.uleb128 0x22
 4042 1021 6200     		.ascii	"b\000"
 4043 1023 01       		.byte	0x1
 4044 1024 5002     		.2byte	0x250
 4045 1026 7F100000 		.4byte	0x107f
 4046 102a 03       		.uleb128 0x3
 4047 102b 91       		.byte	0x91
 4048 102c 907F     		.sleb128 -112
 4049 102e 1C       		.uleb128 0x1c
 4050 102f C0000000 		.4byte	.LBB4
 4051 1033 28000000 		.4byte	.LBE4-.LBB4
 4052 1037 4A100000 		.4byte	0x104a
 4053 103b 22       		.uleb128 0x22
 4054 103c 6200     		.ascii	"b\000"
 4055 103e 01       		.byte	0x1
 4056 103f 2202     		.2byte	0x222
 4057 1041 7F100000 		.4byte	0x107f
 4058 1045 03       		.uleb128 0x3
 4059 1046 91       		.byte	0x91
 4060 1047 D07E     		.sleb128 -176
ARM GAS  C:\Users\yoons\AppData\Local\Temp\cc4JHBmd.s 			page 85


 4061 1049 00       		.byte	0
 4062 104a 1C       		.uleb128 0x1c
 4063 104b EA000000 		.4byte	.LBB5
 4064 104f 1A000000 		.4byte	.LBE5-.LBB5
 4065 1053 66100000 		.4byte	0x1066
 4066 1057 22       		.uleb128 0x22
 4067 1058 6200     		.ascii	"b\000"
 4068 105a 01       		.byte	0x1
 4069 105b 2A02     		.2byte	0x22a
 4070 105d 7F100000 		.4byte	0x107f
 4071 1061 03       		.uleb128 0x3
 4072 1062 91       		.byte	0x91
 4073 1063 D07E     		.sleb128 -176
 4074 1065 00       		.byte	0
 4075 1066 1D       		.uleb128 0x1d
 4076 1067 4E010000 		.4byte	.LBB6
 4077 106b 2A000000 		.4byte	.LBE6-.LBB6
 4078 106f 22       		.uleb128 0x22
 4079 1070 6200     		.ascii	"b\000"
 4080 1072 01       		.byte	0x1
 4081 1073 4702     		.2byte	0x247
 4082 1075 7F100000 		.4byte	0x107f
 4083 1079 03       		.uleb128 0x3
 4084 107a 91       		.byte	0x91
 4085 107b D07E     		.sleb128 -176
 4086 107d 00       		.byte	0
 4087 107e 00       		.byte	0
 4088 107f 11       		.uleb128 0x11
 4089 1080 C8070000 		.4byte	0x7c8
 4090 1084 8F100000 		.4byte	0x108f
 4091 1088 12       		.uleb128 0x12
 4092 1089 B1050000 		.4byte	0x5b1
 4093 108d 3F       		.byte	0x3f
 4094 108e 00       		.byte	0
 4095 108f 11       		.uleb128 0x11
 4096 1090 9F100000 		.4byte	0x109f
 4097 1094 9F100000 		.4byte	0x109f
 4098 1098 12       		.uleb128 0x12
 4099 1099 B1050000 		.4byte	0x5b1
 4100 109d 10       		.byte	0x10
 4101 109e 00       		.byte	0
 4102 109f 14       		.uleb128 0x14
 4103 10a0 5F080000 		.4byte	0x85f
 4104 10a4 1B       		.uleb128 0x1b
 4105 10a5 05080000 		.4byte	.LASF245
 4106 10a9 01       		.byte	0x1
 4107 10aa 46       		.byte	0x46
 4108 10ab B5100000 		.4byte	0x10b5
 4109 10af 05       		.uleb128 0x5
 4110 10b0 03       		.byte	0x3
 4111 10b1 00000000 		.4byte	parent_of
 4112 10b5 14       		.uleb128 0x14
 4113 10b6 8F100000 		.4byte	0x108f
 4114 10ba 11       		.uleb128 0x11
 4115 10bb CA100000 		.4byte	0x10ca
 4116 10bf CA100000 		.4byte	0x10ca
 4117 10c3 12       		.uleb128 0x12
ARM GAS  C:\Users\yoons\AppData\Local\Temp\cc4JHBmd.s 			page 86


 4118 10c4 B1050000 		.4byte	0x5b1
 4119 10c8 10       		.byte	0x10
 4120 10c9 00       		.byte	0
 4121 10ca 14       		.uleb128 0x14
 4122 10cb 310B0000 		.4byte	0xb31
 4123 10cf 1B       		.uleb128 0x1b
 4124 10d0 FD050000 		.4byte	.LASF246
 4125 10d4 01       		.byte	0x1
 4126 10d5 6A       		.byte	0x6a
 4127 10d6 E0100000 		.4byte	0x10e0
 4128 10da 05       		.uleb128 0x5
 4129 10db 03       		.byte	0x3
 4130 10dc 14000000 		.4byte	can_enter
 4131 10e0 14       		.uleb128 0x14
 4132 10e1 BA100000 		.4byte	0x10ba
 4133 10e5 11       		.uleb128 0x11
 4134 10e6 F5100000 		.4byte	0x10f5
 4135 10ea F5100000 		.4byte	0x10f5
 4136 10ee 12       		.uleb128 0x12
 4137 10ef B1050000 		.4byte	0x5b1
 4138 10f3 10       		.byte	0x10
 4139 10f4 00       		.byte	0
 4140 10f5 14       		.uleb128 0x14
 4141 10f6 B80A0000 		.4byte	0xab8
 4142 10fa 1B       		.uleb128 0x1b
 4143 10fb D9020000 		.4byte	.LASF247
 4144 10ff 01       		.byte	0x1
 4145 1100 72       		.byte	0x72
 4146 1101 0B110000 		.4byte	0x110b
 4147 1105 05       		.uleb128 0x5
 4148 1106 03       		.byte	0x3
 4149 1107 58000000 		.4byte	on_entry
 4150 110b 14       		.uleb128 0x14
 4151 110c E5100000 		.4byte	0x10e5
 4152 1110 1B       		.uleb128 0x1b
 4153 1111 A8030000 		.4byte	.LASF248
 4154 1115 01       		.byte	0x1
 4155 1116 85       		.byte	0x85
 4156 1117 21110000 		.4byte	0x1121
 4157 111b 05       		.uleb128 0x5
 4158 111c 03       		.byte	0x3
 4159 111d 9C000000 		.4byte	on_exit
 4160 1121 14       		.uleb128 0x14
 4161 1122 E5100000 		.4byte	0x10e5
 4162 1126 11       		.uleb128 0x11
 4163 1127 36110000 		.4byte	0x1136
 4164 112b 36110000 		.4byte	0x1136
 4165 112f 12       		.uleb128 0x12
 4166 1130 B1050000 		.4byte	0x5b1
 4167 1134 10       		.byte	0x10
 4168 1135 00       		.byte	0
 4169 1136 14       		.uleb128 0x14
 4170 1137 DA0A0000 		.4byte	0xada
 4171 113b 1B       		.uleb128 0x1b
 4172 113c E9020000 		.4byte	.LASF249
 4173 1140 01       		.byte	0x1
 4174 1141 9A       		.byte	0x9a
ARM GAS  C:\Users\yoons\AppData\Local\Temp\cc4JHBmd.s 			page 87


 4175 1142 4C110000 		.4byte	0x114c
 4176 1146 05       		.uleb128 0x5
 4177 1147 03       		.byte	0x3
 4178 1148 E0000000 		.4byte	on_key
 4179 114c 14       		.uleb128 0x14
 4180 114d 26110000 		.4byte	0x1126
 4181 1151 11       		.uleb128 0x11
 4182 1152 61110000 		.4byte	0x1161
 4183 1156 61110000 		.4byte	0x1161
 4184 115a 12       		.uleb128 0x12
 4185 115b B1050000 		.4byte	0x5b1
 4186 115f 10       		.byte	0x10
 4187 1160 00       		.byte	0
 4188 1161 14       		.uleb128 0x14
 4189 1162 FF0A0000 		.4byte	0xaff
 4190 1166 1B       		.uleb128 0x1b
 4191 1167 950A0000 		.4byte	.LASF250
 4192 116b 01       		.byte	0x1
 4193 116c A9       		.byte	0xa9
 4194 116d 77110000 		.4byte	0x1177
 4195 1171 05       		.uleb128 0x5
 4196 1172 03       		.byte	0x3
 4197 1173 24010000 		.4byte	on_build
 4198 1177 14       		.uleb128 0x14
 4199 1178 51110000 		.4byte	0x1151
 4200 117c 11       		.uleb128 0x11
 4201 117d 8C110000 		.4byte	0x118c
 4202 1181 8C110000 		.4byte	0x118c
 4203 1185 12       		.uleb128 0x12
 4204 1186 B1050000 		.4byte	0x5b1
 4205 118a 10       		.byte	0x10
 4206 118b 00       		.byte	0
 4207 118c 14       		.uleb128 0x14
 4208 118d D6070000 		.4byte	0x7d6
 4209 1191 1E       		.uleb128 0x1e
 4210 1192 86040000 		.4byte	.LASF251
 4211 1196 01       		.byte	0x1
 4212 1197 1F01     		.2byte	0x11f
 4213 1199 A3110000 		.4byte	0x11a3
 4214 119d 05       		.uleb128 0x5
 4215 119e 03       		.byte	0x3
 4216 119f 7C020000 		.4byte	state_names
 4217 11a3 14       		.uleb128 0x14
 4218 11a4 7C110000 		.4byte	0x117c
 4219 11a8 28       		.uleb128 0x28
 4220 11a9 B4070000 		.4byte	.LASF252
 4221 11ad 0B       		.byte	0xb
 4222 11ae 1207     		.2byte	0x712
 4223 11b0 B4110000 		.4byte	0x11b4
 4224 11b4 13       		.uleb128 0x13
 4225 11b5 C3000000 		.4byte	0xc3
 4226 11b9 29       		.uleb128 0x29
 4227 11ba 0E040000 		.4byte	.LASF253
 4228 11be 01       		.byte	0x1
 4229 11bf 41       		.byte	0x41
 4230 11c0 E1070000 		.4byte	0x7e1
 4231 11c4 00       		.byte	0
ARM GAS  C:\Users\yoons\AppData\Local\Temp\cc4JHBmd.s 			page 88


 4232              		.section	.debug_abbrev,"",%progbits
 4233              	.Ldebug_abbrev0:
 4234 0000 01       		.uleb128 0x1
 4235 0001 11       		.uleb128 0x11
 4236 0002 01       		.byte	0x1
 4237 0003 25       		.uleb128 0x25
 4238 0004 0E       		.uleb128 0xe
 4239 0005 13       		.uleb128 0x13
 4240 0006 0B       		.uleb128 0xb
 4241 0007 03       		.uleb128 0x3
 4242 0008 0E       		.uleb128 0xe
 4243 0009 1B       		.uleb128 0x1b
 4244 000a 0E       		.uleb128 0xe
 4245 000b 55       		.uleb128 0x55
 4246 000c 17       		.uleb128 0x17
 4247 000d 11       		.uleb128 0x11
 4248 000e 01       		.uleb128 0x1
 4249 000f 10       		.uleb128 0x10
 4250 0010 17       		.uleb128 0x17
 4251 0011 00       		.byte	0
 4252 0012 00       		.byte	0
 4253 0013 02       		.uleb128 0x2
 4254 0014 24       		.uleb128 0x24
 4255 0015 00       		.byte	0
 4256 0016 0B       		.uleb128 0xb
 4257 0017 0B       		.uleb128 0xb
 4258 0018 3E       		.uleb128 0x3e
 4259 0019 0B       		.uleb128 0xb
 4260 001a 03       		.uleb128 0x3
 4261 001b 0E       		.uleb128 0xe
 4262 001c 00       		.byte	0
 4263 001d 00       		.byte	0
 4264 001e 03       		.uleb128 0x3
 4265 001f 16       		.uleb128 0x16
 4266 0020 00       		.byte	0
 4267 0021 03       		.uleb128 0x3
 4268 0022 0E       		.uleb128 0xe
 4269 0023 3A       		.uleb128 0x3a
 4270 0024 0B       		.uleb128 0xb
 4271 0025 3B       		.uleb128 0x3b
 4272 0026 0B       		.uleb128 0xb
 4273 0027 49       		.uleb128 0x49
 4274 0028 13       		.uleb128 0x13
 4275 0029 00       		.byte	0
 4276 002a 00       		.byte	0
 4277 002b 04       		.uleb128 0x4
 4278 002c 24       		.uleb128 0x24
 4279 002d 00       		.byte	0
 4280 002e 0B       		.uleb128 0xb
 4281 002f 0B       		.uleb128 0xb
 4282 0030 3E       		.uleb128 0x3e
 4283 0031 0B       		.uleb128 0xb
 4284 0032 03       		.uleb128 0x3
 4285 0033 08       		.uleb128 0x8
 4286 0034 00       		.byte	0
 4287 0035 00       		.byte	0
 4288 0036 05       		.uleb128 0x5
ARM GAS  C:\Users\yoons\AppData\Local\Temp\cc4JHBmd.s 			page 89


 4289 0037 13       		.uleb128 0x13
 4290 0038 01       		.byte	0x1
 4291 0039 0B       		.uleb128 0xb
 4292 003a 0B       		.uleb128 0xb
 4293 003b 3A       		.uleb128 0x3a
 4294 003c 0B       		.uleb128 0xb
 4295 003d 3B       		.uleb128 0x3b
 4296 003e 0B       		.uleb128 0xb
 4297 003f 01       		.uleb128 0x1
 4298 0040 13       		.uleb128 0x13
 4299 0041 00       		.byte	0
 4300 0042 00       		.byte	0
 4301 0043 06       		.uleb128 0x6
 4302 0044 0D       		.uleb128 0xd
 4303 0045 00       		.byte	0
 4304 0046 03       		.uleb128 0x3
 4305 0047 08       		.uleb128 0x8
 4306 0048 3A       		.uleb128 0x3a
 4307 0049 0B       		.uleb128 0xb
 4308 004a 3B       		.uleb128 0x3b
 4309 004b 0B       		.uleb128 0xb
 4310 004c 49       		.uleb128 0x49
 4311 004d 13       		.uleb128 0x13
 4312 004e 38       		.uleb128 0x38
 4313 004f 0B       		.uleb128 0xb
 4314 0050 00       		.byte	0
 4315 0051 00       		.byte	0
 4316 0052 07       		.uleb128 0x7
 4317 0053 0D       		.uleb128 0xd
 4318 0054 00       		.byte	0
 4319 0055 03       		.uleb128 0x3
 4320 0056 0E       		.uleb128 0xe
 4321 0057 3A       		.uleb128 0x3a
 4322 0058 0B       		.uleb128 0xb
 4323 0059 3B       		.uleb128 0x3b
 4324 005a 0B       		.uleb128 0xb
 4325 005b 49       		.uleb128 0x49
 4326 005c 13       		.uleb128 0x13
 4327 005d 38       		.uleb128 0x38
 4328 005e 0B       		.uleb128 0xb
 4329 005f 00       		.byte	0
 4330 0060 00       		.byte	0
 4331 0061 08       		.uleb128 0x8
 4332 0062 0F       		.uleb128 0xf
 4333 0063 00       		.byte	0
 4334 0064 0B       		.uleb128 0xb
 4335 0065 0B       		.uleb128 0xb
 4336 0066 00       		.byte	0
 4337 0067 00       		.byte	0
 4338 0068 09       		.uleb128 0x9
 4339 0069 15       		.uleb128 0x15
 4340 006a 01       		.byte	0x1
 4341 006b 27       		.uleb128 0x27
 4342 006c 19       		.uleb128 0x19
 4343 006d 01       		.uleb128 0x1
 4344 006e 13       		.uleb128 0x13
 4345 006f 00       		.byte	0
ARM GAS  C:\Users\yoons\AppData\Local\Temp\cc4JHBmd.s 			page 90


 4346 0070 00       		.byte	0
 4347 0071 0A       		.uleb128 0xa
 4348 0072 05       		.uleb128 0x5
 4349 0073 00       		.byte	0
 4350 0074 49       		.uleb128 0x49
 4351 0075 13       		.uleb128 0x13
 4352 0076 00       		.byte	0
 4353 0077 00       		.byte	0
 4354 0078 0B       		.uleb128 0xb
 4355 0079 0F       		.uleb128 0xf
 4356 007a 00       		.byte	0
 4357 007b 0B       		.uleb128 0xb
 4358 007c 0B       		.uleb128 0xb
 4359 007d 49       		.uleb128 0x49
 4360 007e 13       		.uleb128 0x13
 4361 007f 00       		.byte	0
 4362 0080 00       		.byte	0
 4363 0081 0C       		.uleb128 0xc
 4364 0082 15       		.uleb128 0x15
 4365 0083 01       		.byte	0x1
 4366 0084 27       		.uleb128 0x27
 4367 0085 19       		.uleb128 0x19
 4368 0086 49       		.uleb128 0x49
 4369 0087 13       		.uleb128 0x13
 4370 0088 01       		.uleb128 0x1
 4371 0089 13       		.uleb128 0x13
 4372 008a 00       		.byte	0
 4373 008b 00       		.byte	0
 4374 008c 0D       		.uleb128 0xd
 4375 008d 04       		.uleb128 0x4
 4376 008e 01       		.byte	0x1
 4377 008f 0B       		.uleb128 0xb
 4378 0090 0B       		.uleb128 0xb
 4379 0091 49       		.uleb128 0x49
 4380 0092 13       		.uleb128 0x13
 4381 0093 3A       		.uleb128 0x3a
 4382 0094 0B       		.uleb128 0xb
 4383 0095 3B       		.uleb128 0x3b
 4384 0096 0B       		.uleb128 0xb
 4385 0097 01       		.uleb128 0x1
 4386 0098 13       		.uleb128 0x13
 4387 0099 00       		.byte	0
 4388 009a 00       		.byte	0
 4389 009b 0E       		.uleb128 0xe
 4390 009c 28       		.uleb128 0x28
 4391 009d 00       		.byte	0
 4392 009e 03       		.uleb128 0x3
 4393 009f 0E       		.uleb128 0xe
 4394 00a0 1C       		.uleb128 0x1c
 4395 00a1 0B       		.uleb128 0xb
 4396 00a2 00       		.byte	0
 4397 00a3 00       		.byte	0
 4398 00a4 0F       		.uleb128 0xf
 4399 00a5 13       		.uleb128 0x13
 4400 00a6 01       		.byte	0x1
 4401 00a7 0B       		.uleb128 0xb
 4402 00a8 05       		.uleb128 0x5
ARM GAS  C:\Users\yoons\AppData\Local\Temp\cc4JHBmd.s 			page 91


 4403 00a9 3A       		.uleb128 0x3a
 4404 00aa 0B       		.uleb128 0xb
 4405 00ab 3B       		.uleb128 0x3b
 4406 00ac 0B       		.uleb128 0xb
 4407 00ad 01       		.uleb128 0x1
 4408 00ae 13       		.uleb128 0x13
 4409 00af 00       		.byte	0
 4410 00b0 00       		.byte	0
 4411 00b1 10       		.uleb128 0x10
 4412 00b2 0D       		.uleb128 0xd
 4413 00b3 00       		.byte	0
 4414 00b4 03       		.uleb128 0x3
 4415 00b5 0E       		.uleb128 0xe
 4416 00b6 3A       		.uleb128 0x3a
 4417 00b7 0B       		.uleb128 0xb
 4418 00b8 3B       		.uleb128 0x3b
 4419 00b9 0B       		.uleb128 0xb
 4420 00ba 49       		.uleb128 0x49
 4421 00bb 13       		.uleb128 0x13
 4422 00bc 38       		.uleb128 0x38
 4423 00bd 05       		.uleb128 0x5
 4424 00be 00       		.byte	0
 4425 00bf 00       		.byte	0
 4426 00c0 11       		.uleb128 0x11
 4427 00c1 01       		.uleb128 0x1
 4428 00c2 01       		.byte	0x1
 4429 00c3 49       		.uleb128 0x49
 4430 00c4 13       		.uleb128 0x13
 4431 00c5 01       		.uleb128 0x1
 4432 00c6 13       		.uleb128 0x13
 4433 00c7 00       		.byte	0
 4434 00c8 00       		.byte	0
 4435 00c9 12       		.uleb128 0x12
 4436 00ca 21       		.uleb128 0x21
 4437 00cb 00       		.byte	0
 4438 00cc 49       		.uleb128 0x49
 4439 00cd 13       		.uleb128 0x13
 4440 00ce 2F       		.uleb128 0x2f
 4441 00cf 0B       		.uleb128 0xb
 4442 00d0 00       		.byte	0
 4443 00d1 00       		.byte	0
 4444 00d2 13       		.uleb128 0x13
 4445 00d3 35       		.uleb128 0x35
 4446 00d4 00       		.byte	0
 4447 00d5 49       		.uleb128 0x49
 4448 00d6 13       		.uleb128 0x13
 4449 00d7 00       		.byte	0
 4450 00d8 00       		.byte	0
 4451 00d9 14       		.uleb128 0x14
 4452 00da 26       		.uleb128 0x26
 4453 00db 00       		.byte	0
 4454 00dc 49       		.uleb128 0x49
 4455 00dd 13       		.uleb128 0x13
 4456 00de 00       		.byte	0
 4457 00df 00       		.byte	0
 4458 00e0 15       		.uleb128 0x15
 4459 00e1 2E       		.uleb128 0x2e
ARM GAS  C:\Users\yoons\AppData\Local\Temp\cc4JHBmd.s 			page 92


 4460 00e2 01       		.byte	0x1
 4461 00e3 03       		.uleb128 0x3
 4462 00e4 0E       		.uleb128 0xe
 4463 00e5 3A       		.uleb128 0x3a
 4464 00e6 0B       		.uleb128 0xb
 4465 00e7 3B       		.uleb128 0x3b
 4466 00e8 0B       		.uleb128 0xb
 4467 00e9 27       		.uleb128 0x27
 4468 00ea 19       		.uleb128 0x19
 4469 00eb 49       		.uleb128 0x49
 4470 00ec 13       		.uleb128 0x13
 4471 00ed 11       		.uleb128 0x11
 4472 00ee 01       		.uleb128 0x1
 4473 00ef 12       		.uleb128 0x12
 4474 00f0 06       		.uleb128 0x6
 4475 00f1 40       		.uleb128 0x40
 4476 00f2 18       		.uleb128 0x18
 4477 00f3 9742     		.uleb128 0x2117
 4478 00f5 19       		.uleb128 0x19
 4479 00f6 01       		.uleb128 0x1
 4480 00f7 13       		.uleb128 0x13
 4481 00f8 00       		.byte	0
 4482 00f9 00       		.byte	0
 4483 00fa 16       		.uleb128 0x16
 4484 00fb 05       		.uleb128 0x5
 4485 00fc 00       		.byte	0
 4486 00fd 03       		.uleb128 0x3
 4487 00fe 08       		.uleb128 0x8
 4488 00ff 3A       		.uleb128 0x3a
 4489 0100 0B       		.uleb128 0xb
 4490 0101 3B       		.uleb128 0x3b
 4491 0102 0B       		.uleb128 0xb
 4492 0103 49       		.uleb128 0x49
 4493 0104 13       		.uleb128 0x13
 4494 0105 02       		.uleb128 0x2
 4495 0106 18       		.uleb128 0x18
 4496 0107 00       		.byte	0
 4497 0108 00       		.byte	0
 4498 0109 17       		.uleb128 0x17
 4499 010a 34       		.uleb128 0x34
 4500 010b 00       		.byte	0
 4501 010c 03       		.uleb128 0x3
 4502 010d 08       		.uleb128 0x8
 4503 010e 3A       		.uleb128 0x3a
 4504 010f 0B       		.uleb128 0xb
 4505 0110 3B       		.uleb128 0x3b
 4506 0111 0B       		.uleb128 0xb
 4507 0112 49       		.uleb128 0x49
 4508 0113 13       		.uleb128 0x13
 4509 0114 02       		.uleb128 0x2
 4510 0115 18       		.uleb128 0x18
 4511 0116 00       		.byte	0
 4512 0117 00       		.byte	0
 4513 0118 18       		.uleb128 0x18
 4514 0119 2E       		.uleb128 0x2e
 4515 011a 01       		.byte	0x1
 4516 011b 03       		.uleb128 0x3
ARM GAS  C:\Users\yoons\AppData\Local\Temp\cc4JHBmd.s 			page 93


 4517 011c 08       		.uleb128 0x8
 4518 011d 3A       		.uleb128 0x3a
 4519 011e 0B       		.uleb128 0xb
 4520 011f 3B       		.uleb128 0x3b
 4521 0120 0B       		.uleb128 0xb
 4522 0121 27       		.uleb128 0x27
 4523 0122 19       		.uleb128 0x19
 4524 0123 49       		.uleb128 0x49
 4525 0124 13       		.uleb128 0x13
 4526 0125 11       		.uleb128 0x11
 4527 0126 01       		.uleb128 0x1
 4528 0127 12       		.uleb128 0x12
 4529 0128 06       		.uleb128 0x6
 4530 0129 40       		.uleb128 0x40
 4531 012a 18       		.uleb128 0x18
 4532 012b 9642     		.uleb128 0x2116
 4533 012d 19       		.uleb128 0x19
 4534 012e 01       		.uleb128 0x1
 4535 012f 13       		.uleb128 0x13
 4536 0130 00       		.byte	0
 4537 0131 00       		.byte	0
 4538 0132 19       		.uleb128 0x19
 4539 0133 2E       		.uleb128 0x2e
 4540 0134 01       		.byte	0x1
 4541 0135 3F       		.uleb128 0x3f
 4542 0136 19       		.uleb128 0x19
 4543 0137 03       		.uleb128 0x3
 4544 0138 0E       		.uleb128 0xe
 4545 0139 3A       		.uleb128 0x3a
 4546 013a 0B       		.uleb128 0xb
 4547 013b 3B       		.uleb128 0x3b
 4548 013c 0B       		.uleb128 0xb
 4549 013d 27       		.uleb128 0x27
 4550 013e 19       		.uleb128 0x19
 4551 013f 11       		.uleb128 0x11
 4552 0140 01       		.uleb128 0x1
 4553 0141 12       		.uleb128 0x12
 4554 0142 06       		.uleb128 0x6
 4555 0143 40       		.uleb128 0x40
 4556 0144 18       		.uleb128 0x18
 4557 0145 9642     		.uleb128 0x2116
 4558 0147 19       		.uleb128 0x19
 4559 0148 01       		.uleb128 0x1
 4560 0149 13       		.uleb128 0x13
 4561 014a 00       		.byte	0
 4562 014b 00       		.byte	0
 4563 014c 1A       		.uleb128 0x1a
 4564 014d 05       		.uleb128 0x5
 4565 014e 00       		.byte	0
 4566 014f 03       		.uleb128 0x3
 4567 0150 0E       		.uleb128 0xe
 4568 0151 3A       		.uleb128 0x3a
 4569 0152 0B       		.uleb128 0xb
 4570 0153 3B       		.uleb128 0x3b
 4571 0154 0B       		.uleb128 0xb
 4572 0155 49       		.uleb128 0x49
 4573 0156 13       		.uleb128 0x13
ARM GAS  C:\Users\yoons\AppData\Local\Temp\cc4JHBmd.s 			page 94


 4574 0157 02       		.uleb128 0x2
 4575 0158 18       		.uleb128 0x18
 4576 0159 00       		.byte	0
 4577 015a 00       		.byte	0
 4578 015b 1B       		.uleb128 0x1b
 4579 015c 34       		.uleb128 0x34
 4580 015d 00       		.byte	0
 4581 015e 03       		.uleb128 0x3
 4582 015f 0E       		.uleb128 0xe
 4583 0160 3A       		.uleb128 0x3a
 4584 0161 0B       		.uleb128 0xb
 4585 0162 3B       		.uleb128 0x3b
 4586 0163 0B       		.uleb128 0xb
 4587 0164 49       		.uleb128 0x49
 4588 0165 13       		.uleb128 0x13
 4589 0166 02       		.uleb128 0x2
 4590 0167 18       		.uleb128 0x18
 4591 0168 00       		.byte	0
 4592 0169 00       		.byte	0
 4593 016a 1C       		.uleb128 0x1c
 4594 016b 0B       		.uleb128 0xb
 4595 016c 01       		.byte	0x1
 4596 016d 11       		.uleb128 0x11
 4597 016e 01       		.uleb128 0x1
 4598 016f 12       		.uleb128 0x12
 4599 0170 06       		.uleb128 0x6
 4600 0171 01       		.uleb128 0x1
 4601 0172 13       		.uleb128 0x13
 4602 0173 00       		.byte	0
 4603 0174 00       		.byte	0
 4604 0175 1D       		.uleb128 0x1d
 4605 0176 0B       		.uleb128 0xb
 4606 0177 01       		.byte	0x1
 4607 0178 11       		.uleb128 0x11
 4608 0179 01       		.uleb128 0x1
 4609 017a 12       		.uleb128 0x12
 4610 017b 06       		.uleb128 0x6
 4611 017c 00       		.byte	0
 4612 017d 00       		.byte	0
 4613 017e 1E       		.uleb128 0x1e
 4614 017f 34       		.uleb128 0x34
 4615 0180 00       		.byte	0
 4616 0181 03       		.uleb128 0x3
 4617 0182 0E       		.uleb128 0xe
 4618 0183 3A       		.uleb128 0x3a
 4619 0184 0B       		.uleb128 0xb
 4620 0185 3B       		.uleb128 0x3b
 4621 0186 05       		.uleb128 0x5
 4622 0187 49       		.uleb128 0x49
 4623 0188 13       		.uleb128 0x13
 4624 0189 02       		.uleb128 0x2
 4625 018a 18       		.uleb128 0x18
 4626 018b 00       		.byte	0
 4627 018c 00       		.byte	0
 4628 018d 1F       		.uleb128 0x1f
 4629 018e 2E       		.uleb128 0x2e
 4630 018f 01       		.byte	0x1
ARM GAS  C:\Users\yoons\AppData\Local\Temp\cc4JHBmd.s 			page 95


 4631 0190 3F       		.uleb128 0x3f
 4632 0191 19       		.uleb128 0x19
 4633 0192 03       		.uleb128 0x3
 4634 0193 0E       		.uleb128 0xe
 4635 0194 3A       		.uleb128 0x3a
 4636 0195 0B       		.uleb128 0xb
 4637 0196 3B       		.uleb128 0x3b
 4638 0197 05       		.uleb128 0x5
 4639 0198 27       		.uleb128 0x27
 4640 0199 19       		.uleb128 0x19
 4641 019a 11       		.uleb128 0x11
 4642 019b 01       		.uleb128 0x1
 4643 019c 12       		.uleb128 0x12
 4644 019d 06       		.uleb128 0x6
 4645 019e 40       		.uleb128 0x40
 4646 019f 18       		.uleb128 0x18
 4647 01a0 9642     		.uleb128 0x2116
 4648 01a2 19       		.uleb128 0x19
 4649 01a3 01       		.uleb128 0x1
 4650 01a4 13       		.uleb128 0x13
 4651 01a5 00       		.byte	0
 4652 01a6 00       		.byte	0
 4653 01a7 20       		.uleb128 0x20
 4654 01a8 05       		.uleb128 0x5
 4655 01a9 00       		.byte	0
 4656 01aa 03       		.uleb128 0x3
 4657 01ab 08       		.uleb128 0x8
 4658 01ac 3A       		.uleb128 0x3a
 4659 01ad 0B       		.uleb128 0xb
 4660 01ae 3B       		.uleb128 0x3b
 4661 01af 05       		.uleb128 0x5
 4662 01b0 49       		.uleb128 0x49
 4663 01b1 13       		.uleb128 0x13
 4664 01b2 02       		.uleb128 0x2
 4665 01b3 18       		.uleb128 0x18
 4666 01b4 00       		.byte	0
 4667 01b5 00       		.byte	0
 4668 01b6 21       		.uleb128 0x21
 4669 01b7 2E       		.uleb128 0x2e
 4670 01b8 01       		.byte	0x1
 4671 01b9 3F       		.uleb128 0x3f
 4672 01ba 19       		.uleb128 0x19
 4673 01bb 03       		.uleb128 0x3
 4674 01bc 0E       		.uleb128 0xe
 4675 01bd 3A       		.uleb128 0x3a
 4676 01be 0B       		.uleb128 0xb
 4677 01bf 3B       		.uleb128 0x3b
 4678 01c0 05       		.uleb128 0x5
 4679 01c1 27       		.uleb128 0x27
 4680 01c2 19       		.uleb128 0x19
 4681 01c3 49       		.uleb128 0x49
 4682 01c4 13       		.uleb128 0x13
 4683 01c5 11       		.uleb128 0x11
 4684 01c6 01       		.uleb128 0x1
 4685 01c7 12       		.uleb128 0x12
 4686 01c8 06       		.uleb128 0x6
 4687 01c9 40       		.uleb128 0x40
ARM GAS  C:\Users\yoons\AppData\Local\Temp\cc4JHBmd.s 			page 96


 4688 01ca 18       		.uleb128 0x18
 4689 01cb 9742     		.uleb128 0x2117
 4690 01cd 19       		.uleb128 0x19
 4691 01ce 01       		.uleb128 0x1
 4692 01cf 13       		.uleb128 0x13
 4693 01d0 00       		.byte	0
 4694 01d1 00       		.byte	0
 4695 01d2 22       		.uleb128 0x22
 4696 01d3 34       		.uleb128 0x34
 4697 01d4 00       		.byte	0
 4698 01d5 03       		.uleb128 0x3
 4699 01d6 08       		.uleb128 0x8
 4700 01d7 3A       		.uleb128 0x3a
 4701 01d8 0B       		.uleb128 0xb
 4702 01d9 3B       		.uleb128 0x3b
 4703 01da 05       		.uleb128 0x5
 4704 01db 49       		.uleb128 0x49
 4705 01dc 13       		.uleb128 0x13
 4706 01dd 02       		.uleb128 0x2
 4707 01de 18       		.uleb128 0x18
 4708 01df 00       		.byte	0
 4709 01e0 00       		.byte	0
 4710 01e1 23       		.uleb128 0x23
 4711 01e2 05       		.uleb128 0x5
 4712 01e3 00       		.byte	0
 4713 01e4 03       		.uleb128 0x3
 4714 01e5 0E       		.uleb128 0xe
 4715 01e6 3A       		.uleb128 0x3a
 4716 01e7 0B       		.uleb128 0xb
 4717 01e8 3B       		.uleb128 0x3b
 4718 01e9 05       		.uleb128 0x5
 4719 01ea 49       		.uleb128 0x49
 4720 01eb 13       		.uleb128 0x13
 4721 01ec 02       		.uleb128 0x2
 4722 01ed 18       		.uleb128 0x18
 4723 01ee 00       		.byte	0
 4724 01ef 00       		.byte	0
 4725 01f0 24       		.uleb128 0x24
 4726 01f1 2E       		.uleb128 0x2e
 4727 01f2 01       		.byte	0x1
 4728 01f3 03       		.uleb128 0x3
 4729 01f4 0E       		.uleb128 0xe
 4730 01f5 3A       		.uleb128 0x3a
 4731 01f6 0B       		.uleb128 0xb
 4732 01f7 3B       		.uleb128 0x3b
 4733 01f8 05       		.uleb128 0x5
 4734 01f9 27       		.uleb128 0x27
 4735 01fa 19       		.uleb128 0x19
 4736 01fb 11       		.uleb128 0x11
 4737 01fc 01       		.uleb128 0x1
 4738 01fd 12       		.uleb128 0x12
 4739 01fe 06       		.uleb128 0x6
 4740 01ff 40       		.uleb128 0x40
 4741 0200 18       		.uleb128 0x18
 4742 0201 9642     		.uleb128 0x2116
 4743 0203 19       		.uleb128 0x19
 4744 0204 01       		.uleb128 0x1
ARM GAS  C:\Users\yoons\AppData\Local\Temp\cc4JHBmd.s 			page 97


 4745 0205 13       		.uleb128 0x13
 4746 0206 00       		.byte	0
 4747 0207 00       		.byte	0
 4748 0208 25       		.uleb128 0x25
 4749 0209 2E       		.uleb128 0x2e
 4750 020a 01       		.byte	0x1
 4751 020b 03       		.uleb128 0x3
 4752 020c 0E       		.uleb128 0xe
 4753 020d 3A       		.uleb128 0x3a
 4754 020e 0B       		.uleb128 0xb
 4755 020f 3B       		.uleb128 0x3b
 4756 0210 05       		.uleb128 0x5
 4757 0211 27       		.uleb128 0x27
 4758 0212 19       		.uleb128 0x19
 4759 0213 49       		.uleb128 0x49
 4760 0214 13       		.uleb128 0x13
 4761 0215 11       		.uleb128 0x11
 4762 0216 01       		.uleb128 0x1
 4763 0217 12       		.uleb128 0x12
 4764 0218 06       		.uleb128 0x6
 4765 0219 40       		.uleb128 0x40
 4766 021a 18       		.uleb128 0x18
 4767 021b 9642     		.uleb128 0x2116
 4768 021d 19       		.uleb128 0x19
 4769 021e 01       		.uleb128 0x1
 4770 021f 13       		.uleb128 0x13
 4771 0220 00       		.byte	0
 4772 0221 00       		.byte	0
 4773 0222 26       		.uleb128 0x26
 4774 0223 2E       		.uleb128 0x2e
 4775 0224 01       		.byte	0x1
 4776 0225 03       		.uleb128 0x3
 4777 0226 0E       		.uleb128 0xe
 4778 0227 3A       		.uleb128 0x3a
 4779 0228 0B       		.uleb128 0xb
 4780 0229 3B       		.uleb128 0x3b
 4781 022a 05       		.uleb128 0x5
 4782 022b 27       		.uleb128 0x27
 4783 022c 19       		.uleb128 0x19
 4784 022d 49       		.uleb128 0x49
 4785 022e 13       		.uleb128 0x13
 4786 022f 11       		.uleb128 0x11
 4787 0230 01       		.uleb128 0x1
 4788 0231 12       		.uleb128 0x12
 4789 0232 06       		.uleb128 0x6
 4790 0233 40       		.uleb128 0x40
 4791 0234 18       		.uleb128 0x18
 4792 0235 9742     		.uleb128 0x2117
 4793 0237 19       		.uleb128 0x19
 4794 0238 01       		.uleb128 0x1
 4795 0239 13       		.uleb128 0x13
 4796 023a 00       		.byte	0
 4797 023b 00       		.byte	0
 4798 023c 27       		.uleb128 0x27
 4799 023d 2E       		.uleb128 0x2e
 4800 023e 01       		.byte	0x1
 4801 023f 3F       		.uleb128 0x3f
ARM GAS  C:\Users\yoons\AppData\Local\Temp\cc4JHBmd.s 			page 98


 4802 0240 19       		.uleb128 0x19
 4803 0241 03       		.uleb128 0x3
 4804 0242 0E       		.uleb128 0xe
 4805 0243 3A       		.uleb128 0x3a
 4806 0244 0B       		.uleb128 0xb
 4807 0245 3B       		.uleb128 0x3b
 4808 0246 05       		.uleb128 0x5
 4809 0247 27       		.uleb128 0x27
 4810 0248 19       		.uleb128 0x19
 4811 0249 49       		.uleb128 0x49
 4812 024a 13       		.uleb128 0x13
 4813 024b 11       		.uleb128 0x11
 4814 024c 01       		.uleb128 0x1
 4815 024d 12       		.uleb128 0x12
 4816 024e 06       		.uleb128 0x6
 4817 024f 40       		.uleb128 0x40
 4818 0250 18       		.uleb128 0x18
 4819 0251 9642     		.uleb128 0x2116
 4820 0253 19       		.uleb128 0x19
 4821 0254 01       		.uleb128 0x1
 4822 0255 13       		.uleb128 0x13
 4823 0256 00       		.byte	0
 4824 0257 00       		.byte	0
 4825 0258 28       		.uleb128 0x28
 4826 0259 34       		.uleb128 0x34
 4827 025a 00       		.byte	0
 4828 025b 03       		.uleb128 0x3
 4829 025c 0E       		.uleb128 0xe
 4830 025d 3A       		.uleb128 0x3a
 4831 025e 0B       		.uleb128 0xb
 4832 025f 3B       		.uleb128 0x3b
 4833 0260 05       		.uleb128 0x5
 4834 0261 49       		.uleb128 0x49
 4835 0262 13       		.uleb128 0x13
 4836 0263 3F       		.uleb128 0x3f
 4837 0264 19       		.uleb128 0x19
 4838 0265 3C       		.uleb128 0x3c
 4839 0266 19       		.uleb128 0x19
 4840 0267 00       		.byte	0
 4841 0268 00       		.byte	0
 4842 0269 29       		.uleb128 0x29
 4843 026a 34       		.uleb128 0x34
 4844 026b 00       		.byte	0
 4845 026c 03       		.uleb128 0x3
 4846 026d 0E       		.uleb128 0xe
 4847 026e 3A       		.uleb128 0x3a
 4848 026f 0B       		.uleb128 0xb
 4849 0270 3B       		.uleb128 0x3b
 4850 0271 0B       		.uleb128 0xb
 4851 0272 49       		.uleb128 0x49
 4852 0273 13       		.uleb128 0x13
 4853 0274 3F       		.uleb128 0x3f
 4854 0275 19       		.uleb128 0x19
 4855 0276 3C       		.uleb128 0x3c
 4856 0277 19       		.uleb128 0x19
 4857 0278 00       		.byte	0
 4858 0279 00       		.byte	0
ARM GAS  C:\Users\yoons\AppData\Local\Temp\cc4JHBmd.s 			page 99


 4859 027a 00       		.byte	0
 4860              		.section	.debug_aranges,"",%progbits
 4861 0000 AC000000 		.4byte	0xac
 4862 0004 0200     		.2byte	0x2
 4863 0006 00000000 		.4byte	.Ldebug_info0
 4864 000a 04       		.byte	0x4
 4865 000b 00       		.byte	0
 4866 000c 0000     		.2byte	0
 4867 000e 0000     		.2byte	0
 4868 0010 00000000 		.4byte	.LFB64
 4869 0014 34000000 		.4byte	.LFE64-.LFB64
 4870 0018 00000000 		.4byte	.LFB65
 4871 001c 80000000 		.4byte	.LFE65-.LFB65
 4872 0020 00000000 		.4byte	.LFB66
 4873 0024 50010000 		.4byte	.LFE66-.LFB66
 4874 0028 00000000 		.4byte	.LFB67
 4875 002c 26000000 		.4byte	.LFE67-.LFB67
 4876 0030 00000000 		.4byte	.LFB68
 4877 0034 68000000 		.4byte	.LFE68-.LFB68
 4878 0038 00000000 		.4byte	.LFB69
 4879 003c 20000000 		.4byte	.LFE69-.LFB69
 4880 0040 00000000 		.4byte	.LFB70
 4881 0044 80000000 		.4byte	.LFE70-.LFB70
 4882 0048 00000000 		.4byte	.LFB71
 4883 004c 2E000000 		.4byte	.LFE71-.LFB71
 4884 0050 00000000 		.4byte	.LFB72
 4885 0054 2E000000 		.4byte	.LFE72-.LFB72
 4886 0058 00000000 		.4byte	.LFB73
 4887 005c 50000000 		.4byte	.LFE73-.LFB73
 4888 0060 00000000 		.4byte	.LFB74
 4889 0064 7C000000 		.4byte	.LFE74-.LFB74
 4890 0068 00000000 		.4byte	.LFB75
 4891 006c 1C000000 		.4byte	.LFE75-.LFB75
 4892 0070 00000000 		.4byte	.LFB76
 4893 0074 A0000000 		.4byte	.LFE76-.LFB76
 4894 0078 00000000 		.4byte	.LFB77
 4895 007c 3A000000 		.4byte	.LFE77-.LFB77
 4896 0080 00000000 		.4byte	.LFB78
 4897 0084 48000000 		.4byte	.LFE78-.LFB78
 4898 0088 00000000 		.4byte	.LFB79
 4899 008c A0000000 		.4byte	.LFE79-.LFB79
 4900 0090 00000000 		.4byte	.LFB80
 4901 0094 22000000 		.4byte	.LFE80-.LFB80
 4902 0098 00000000 		.4byte	.LFB81
 4903 009c 4C000000 		.4byte	.LFE81-.LFB81
 4904 00a0 00000000 		.4byte	.LFB82
 4905 00a4 DC010000 		.4byte	.LFE82-.LFB82
 4906 00a8 00000000 		.4byte	0
 4907 00ac 00000000 		.4byte	0
 4908              		.section	.debug_ranges,"",%progbits
 4909              	.Ldebug_ranges0:
 4910 0000 00000000 		.4byte	.LFB64
 4911 0004 34000000 		.4byte	.LFE64
 4912 0008 00000000 		.4byte	.LFB65
 4913 000c 80000000 		.4byte	.LFE65
 4914 0010 00000000 		.4byte	.LFB66
 4915 0014 50010000 		.4byte	.LFE66
ARM GAS  C:\Users\yoons\AppData\Local\Temp\cc4JHBmd.s 			page 100


 4916 0018 00000000 		.4byte	.LFB67
 4917 001c 26000000 		.4byte	.LFE67
 4918 0020 00000000 		.4byte	.LFB68
 4919 0024 68000000 		.4byte	.LFE68
 4920 0028 00000000 		.4byte	.LFB69
 4921 002c 20000000 		.4byte	.LFE69
 4922 0030 00000000 		.4byte	.LFB70
 4923 0034 80000000 		.4byte	.LFE70
 4924 0038 00000000 		.4byte	.LFB71
 4925 003c 2E000000 		.4byte	.LFE71
 4926 0040 00000000 		.4byte	.LFB72
 4927 0044 2E000000 		.4byte	.LFE72
 4928 0048 00000000 		.4byte	.LFB73
 4929 004c 50000000 		.4byte	.LFE73
 4930 0050 00000000 		.4byte	.LFB74
 4931 0054 7C000000 		.4byte	.LFE74
 4932 0058 00000000 		.4byte	.LFB75
 4933 005c 1C000000 		.4byte	.LFE75
 4934 0060 00000000 		.4byte	.LFB76
 4935 0064 A0000000 		.4byte	.LFE76
 4936 0068 00000000 		.4byte	.LFB77
 4937 006c 3A000000 		.4byte	.LFE77
 4938 0070 00000000 		.4byte	.LFB78
 4939 0074 48000000 		.4byte	.LFE78
 4940 0078 00000000 		.4byte	.LFB79
 4941 007c A0000000 		.4byte	.LFE79
 4942 0080 00000000 		.4byte	.LFB80
 4943 0084 22000000 		.4byte	.LFE80
 4944 0088 00000000 		.4byte	.LFB81
 4945 008c 4C000000 		.4byte	.LFE81
 4946 0090 00000000 		.4byte	.LFB82
 4947 0094 DC010000 		.4byte	.LFE82
 4948 0098 00000000 		.4byte	0
 4949 009c 00000000 		.4byte	0
 4950              		.section	.debug_line,"",%progbits
 4951              	.Ldebug_line0:
 4952 0000 E9040000 		.section	.debug_str,"MS",%progbits,1
 4952      0200F301 
 4952      00000201 
 4952      FB0E0D00 
 4952      01010101 
 4953              	.LASF135:
 4954 0000 68616D66 		.ascii	"hamfly_gimbal_t\000"
 4954      6C795F67 
 4954      696D6261 
 4954      6C5F7400 
 4955              	.LASF43:
 4956 0010 67696D62 		.ascii	"gimbal_status1\000"
 4956      616C5F73 
 4956      74617475 
 4956      733100
 4957              	.LASF44:
 4958 001f 67696D62 		.ascii	"gimbal_status2\000"
 4958      616C5F73 
 4958      74617475 
 4958      733200
 4959              	.LASF104:
ARM GAS  C:\Users\yoons\AppData\Local\Temp\cc4JHBmd.s 			page 101


 4960 002e 73797365 		.ascii	"sysecho_valid\000"
 4960      63686F5F 
 4960      76616C69 
 4960      6400
 4961              	.LASF113:
 4962 003c 73697A65 		.ascii	"sizetype\000"
 4962      74797065 
 4962      00
 4963              	.LASF229:
 4964 0045 6170705F 		.ascii	"app_telem_tick\000"
 4964      74656C65 
 4964      6D5F7469 
 4964      636B00
 4965              	.LASF111:
 4966 0054 7461696C 		.ascii	"tail\000"
 4966      00
 4967              	.LASF158:
 4968 0059 4155544F 		.ascii	"AUTO_HOME\000"
 4968      5F484F4D 
 4968      4500
 4969              	.LASF191:
 4970 0063 6770735F 		.ascii	"gps_new_target\000"
 4970      6E65775F 
 4970      74617267 
 4970      657400
 4971              	.LASF129:
 4972 0072 70656E64 		.ascii	"pending_sent_ms\000"
 4972      696E675F 
 4972      73656E74 
 4972      5F6D7300 
 4973              	.LASF150:
 4974 0082 524F4F54 		.ascii	"ROOT\000"
 4974      00
 4975              	.LASF17:
 4976 0087 696E7433 		.ascii	"int32_t\000"
 4976      325F7400 
 4977              	.LASF137:
 4978 008f 7061796C 		.ascii	"payload_state_req_t\000"
 4978      6F61645F 
 4978      73746174 
 4978      655F7265 
 4978      715F7400 
 4979              	.LASF225:
 4980 00a3 70617468 		.ascii	"path\000"
 4980      00
 4981              	.LASF198:
 4982 00a8 6770735F 		.ascii	"gps_last_sample_ms\000"
 4982      6C617374 
 4982      5F73616D 
 4982      706C655F 
 4982      6D7300
 4983              	.LASF240:
 4984 00bb 6170705F 		.ascii	"app_state_name\000"
 4984      73746174 
 4984      655F6E61 
 4984      6D6500
 4985              	.LASF173:
ARM GAS  C:\Users\yoons\AppData\Local\Temp\cc4JHBmd.s 			page 102


 4986 00ca 6572725F 		.ascii	"err_sev_t\000"
 4986      7365765F 
 4986      7400
 4987              	.LASF68:
 4988 00d4 6174745F 		.ascii	"att_pitch_deg\000"
 4988      70697463 
 4988      685F6465 
 4988      6700
 4989              	.LASF130:
 4990 00e2 70656E64 		.ascii	"pending_ready\000"
 4990      696E675F 
 4990      72656164 
 4990      7900
 4991              	.LASF189:
 4992 00f0 6770735F 		.ascii	"gps_target_alt_mm\000"
 4992      74617267 
 4992      65745F61 
 4992      6C745F6D 
 4992      6D00
 4993              	.LASF35:
 4994 0102 68616D66 		.ascii	"hamfly_control_t\000"
 4994      6C795F63 
 4994      6F6E7472 
 4994      6F6C5F74 
 4994      00
 4995              	.LASF81:
 4996 0113 666C6167 		.ascii	"flag_gps_locked\000"
 4996      5F677073 
 4996      5F6C6F63 
 4996      6B656400 
 4997              	.LASF175:
 4998 0123 73746174 		.ascii	"state\000"
 4998      6500
 4999              	.LASF138:
 5000 0129 6C61745F 		.ascii	"lat_raw\000"
 5000      72617700 
 5001              	.LASF60:
 5002 0131 6770735F 		.ascii	"gps_raw_hacc\000"
 5002      7261775F 
 5002      68616363 
 5002      00
 5003              	.LASF45:
 5004 013e 6770735F 		.ascii	"gps_valid\000"
 5004      76616C69 
 5004      6400
 5005              	.LASF162:
 5006 0148 4155544F 		.ascii	"AUTO_TRACKING\000"
 5006      5F545241 
 5006      434B494E 
 5006      4700
 5007              	.LASF171:
 5008 0156 5345565F 		.ascii	"SEV_SOFTWARE\000"
 5008      534F4654 
 5008      57415245 
 5008      00
 5009              	.LASF92:
 5010 0163 73797373 		.ascii	"sysstat_batt_a\000"
ARM GAS  C:\Users\yoons\AppData\Local\Temp\cc4JHBmd.s 			page 103


 5010      7461745F 
 5010      62617474 
 5010      5F6100
 5011              	.LASF178:
 5012 0172 686F6D65 		.ascii	"home_return_stby\000"
 5012      5F726574 
 5012      75726E5F 
 5012      73746279 
 5012      00
 5013              	.LASF40:
 5014 0183 67696D62 		.ascii	"gimbal_i\000"
 5014      616C5F69 
 5014      00
 5015              	.LASF41:
 5016 018c 67696D62 		.ascii	"gimbal_j\000"
 5016      616C5F6A 
 5016      00
 5017              	.LASF2:
 5018 0195 5F5F7569 		.ascii	"__uint8_t\000"
 5018      6E74385F 
 5018      7400
 5019              	.LASF82:
 5020 019f 73797373 		.ascii	"sysstat_batt_v\000"
 5020      7461745F 
 5020      62617474 
 5020      5F7600
 5021              	.LASF39:
 5022 01ae 67696D62 		.ascii	"gimbal_r\000"
 5022      616C5F72 
 5022      00
 5023              	.LASF116:
 5024 01b7 74785F62 		.ascii	"tx_bytes\000"
 5024      79746573 
 5024      00
 5025              	.LASF120:
 5026 01c0 72786275 		.ascii	"rxbuf_drops\000"
 5026      665F6472 
 5026      6F707300 
 5027              	.LASF47:
 5028 01cc 6770735F 		.ascii	"gps_lat_deg\000"
 5028      6C61745F 
 5028      64656700 
 5029              	.LASF8:
 5030 01d8 6C6F6E67 		.ascii	"long int\000"
 5030      20696E74 
 5030      00
 5031              	.LASF204:
 5032 01e1 6F726967 		.ascii	"origin_set\000"
 5032      696E5F73 
 5032      657400
 5033              	.LASF61:
 5034 01ec 6770735F 		.ascii	"gps_raw_vacc\000"
 5034      7261775F 
 5034      76616363 
 5034      00
 5035              	.LASF160:
 5036 01f9 4155544F 		.ascii	"AUTO_ACQ_GPS\000"
ARM GAS  C:\Users\yoons\AppData\Local\Temp\cc4JHBmd.s 			page 104


 5036      5F414351 
 5036      5F475053 
 5036      00
 5037              	.LASF133:
 5038 0206 70656E64 		.ascii	"pending_payload\000"
 5038      696E675F 
 5038      7061796C 
 5038      6F616400 
 5039              	.LASF93:
 5040 0216 73797373 		.ascii	"sysstat_charge_mah\000"
 5040      7461745F 
 5040      63686172 
 5040      67655F6D 
 5040      616800
 5041              	.LASF126:
 5042 0229 74786275 		.ascii	"txbuf\000"
 5042      6600
 5043              	.LASF42:
 5044 022f 67696D62 		.ascii	"gimbal_k\000"
 5044      616C5F6B 
 5044      00
 5045              	.LASF84:
 5046 0238 73797373 		.ascii	"sysstat_temp_c\000"
 5046      7461745F 
 5046      74656D70 
 5046      5F6300
 5047              	.LASF200:
 5048 0247 74726163 		.ascii	"track_cx_last\000"
 5048      6B5F6378 
 5048      5F6C6173 
 5048      7400
 5049              	.LASF110:
 5050 0255 68656164 		.ascii	"head\000"
 5050      00
 5051              	.LASF170:
 5052 025a 5345565F 		.ascii	"SEV_WARN\000"
 5052      5741524E 
 5052      00
 5053              	.LASF192:
 5054 0263 6770735F 		.ascii	"gps_work_lat_raw\000"
 5054      776F726B 
 5054      5F6C6174 
 5054      5F726177 
 5054      00
 5055              	.LASF49:
 5056 0274 6770735F 		.ascii	"gps_alt_m\000"
 5056      616C745F 
 5056      6D00
 5057              	.LASF194:
 5058 027e 6770735F 		.ascii	"gps_work_alt_mm\000"
 5058      776F726B 
 5058      5F616C74 
 5058      5F6D6D00 
 5059              	.LASF0:
 5060 028e 7369676E 		.ascii	"signed char\000"
 5060      65642063 
 5060      68617200 
ARM GAS  C:\Users\yoons\AppData\Local\Temp\cc4JHBmd.s 			page 105


 5061              	.LASF14:
 5062 029a 75696E74 		.ascii	"uint8_t\000"
 5062      385F7400 
 5063              	.LASF226:
 5064 02a2 6170705F 		.ascii	"app_transition\000"
 5064      7472616E 
 5064      73697469 
 5064      6F6E00
 5065              	.LASF176:
 5066 02b1 70726576 		.ascii	"prev_leaf\000"
 5066      5F6C6561 
 5066      6600
 5067              	.LASF143:
 5068 02bb 6474696C 		.ascii	"dtilt_cdeg\000"
 5068      745F6364 
 5068      656700
 5069              	.LASF179:
 5070 02c6 6175746F 		.ascii	"auto_hold_entry_ms\000"
 5070      5F686F6C 
 5070      645F656E 
 5070      7472795F 
 5070      6D7300
 5071              	.LASF247:
 5072 02d9 6F6E5F65 		.ascii	"on_entry\000"
 5072      6E747279 
 5072      00
 5073              	.LASF174:
 5074 02e2 67696D62 		.ascii	"gimbal\000"
 5074      616C00
 5075              	.LASF249:
 5076 02e9 6F6E5F6B 		.ascii	"on_key\000"
 5076      657900
 5077              	.LASF114:
 5078 02f0 68616D66 		.ascii	"hamfly_rb_t\000"
 5078      6C795F72 
 5078      625F7400 
 5079              	.LASF1:
 5080 02fc 756E7369 		.ascii	"unsigned char\000"
 5080      676E6564 
 5080      20636861 
 5080      7200
 5081              	.LASF164:
 5082 030a 4155544F 		.ascii	"AUTO_NO_LOCK\000"
 5082      5F4E4F5F 
 5082      4C4F434B 
 5082      00
 5083              	.LASF117:
 5084 0317 72785F70 		.ascii	"rx_packets\000"
 5084      61636B65 
 5084      747300
 5085              	.LASF211:
 5086 0322 6E756467 		.ascii	"nudge_base_pan_deg\000"
 5086      655F6261 
 5086      73655F70 
 5086      616E5F64 
 5086      656700
 5087              	.LASF139:
ARM GAS  C:\Users\yoons\AppData\Local\Temp\cc4JHBmd.s 			page 106


 5088 0335 6C6F6E5F 		.ascii	"lon_raw\000"
 5088      72617700 
 5089              	.LASF163:
 5090 033d 4155544F 		.ascii	"AUTO_LOSS\000"
 5090      5F4C4F53 
 5090      5300
 5091              	.LASF108:
 5092 0347 5F426F6F 		.ascii	"_Bool\000"
 5092      6C00
 5093              	.LASF23:
 5094 034d 48414D46 		.ascii	"HAMFLY_RATE\000"
 5094      4C595F52 
 5094      41544500 
 5095              	.LASF217:
 5096 0359 6170705F 		.ascii	"app_ctx_t\000"
 5096      6374785F 
 5096      7400
 5097              	.LASF145:
 5098 0363 76616C75 		.ascii	"value\000"
 5098      6500
 5099              	.LASF148:
 5100 0369 63686172 		.ascii	"char\000"
 5100      00
 5101              	.LASF67:
 5102 036e 6174745F 		.ascii	"att_timestamp_ms\000"
 5102      74696D65 
 5102      7374616D 
 5102      705F6D73 
 5102      00
 5103              	.LASF70:
 5104 037f 6174745F 		.ascii	"att_roll_deg\000"
 5104      726F6C6C 
 5104      5F646567 
 5104      00
 5105              	.LASF80:
 5106 038c 666C6167 		.ascii	"flag_radio_los\000"
 5106      5F726164 
 5106      696F5F6C 
 5106      6F7300
 5107              	.LASF231:
 5108 039b 6C617374 		.ascii	"last_link_ms\000"
 5108      5F6C696E 
 5108      6B5F6D73 
 5108      00
 5109              	.LASF248:
 5110 03a8 6F6E5F65 		.ascii	"on_exit\000"
 5110      78697400 
 5111              	.LASF5:
 5112 03b0 5F5F7569 		.ascii	"__uint16_t\000"
 5112      6E743136 
 5112      5F7400
 5113              	.LASF98:
 5114 03bb 6D61675F 		.ascii	"mag_magnitude\000"
 5114      6D61676E 
 5114      69747564 
 5114      6500
 5115              	.LASF233:
ARM GAS  C:\Users\yoons\AppData\Local\Temp\cc4JHBmd.s 			page 107


 5116 03c9 6275696C 		.ascii	"build_hold\000"
 5116      645F686F 
 5116      6C6400
 5117              	.LASF190:
 5118 03d4 6770735F 		.ascii	"gps_target_set\000"
 5118      74617267 
 5118      65745F73 
 5118      657400
 5119              	.LASF144:
 5120 03e3 7061796C 		.ascii	"payload_nudge_t\000"
 5120      6F61645F 
 5120      6E756467 
 5120      655F7400 
 5121              	.LASF94:
 5122 03f3 6D61675F 		.ascii	"mag_valid\000"
 5122      76616C69 
 5122      6400
 5123              	.LASF196:
 5124 03fd 6770735F 		.ascii	"gps_last_pan_deg\000"
 5124      6C617374 
 5124      5F70616E 
 5124      5F646567 
 5124      00
 5125              	.LASF253:
 5126 040e 675F7469 		.ascii	"g_tick_ms\000"
 5126      636B5F6D 
 5126      7300
 5127              	.LASF38:
 5128 0418 62617474 		.ascii	"battery_right_v\000"
 5128      6572795F 
 5128      72696768 
 5128      745F7600 
 5129              	.LASF79:
 5130 0428 666C6167 		.ascii	"flag_gps_los\000"
 5130      5F677073 
 5130      5F6C6F73 
 5130      00
 5131              	.LASF72:
 5132 0435 6174745F 		.ascii	"att_yaw_rate_dps\000"
 5132      7961775F 
 5132      72617465 
 5132      5F647073 
 5132      00
 5133              	.LASF122:
 5134 0446 68616D66 		.ascii	"hamfly_statistics_t\000"
 5134      6C795F73 
 5134      74617469 
 5134      73746963 
 5134      735F7400 
 5135              	.LASF50:
 5136 045a 6770735F 		.ascii	"gps_ground_spd_ms\000"
 5136      67726F75 
 5136      6E645F73 
 5136      70645F6D 
 5136      7300
 5137              	.LASF257:
 5138 046c 7072696E 		.ascii	"print_help\000"
ARM GAS  C:\Users\yoons\AppData\Local\Temp\cc4JHBmd.s 			page 108


 5138      745F6865 
 5138      6C7000
 5139              	.LASF87:
 5140 0477 73797373 		.ascii	"sysstat_time_s\000"
 5140      7461745F 
 5140      74696D65 
 5140      5F7300
 5141              	.LASF251:
 5142 0486 73746174 		.ascii	"state_names\000"
 5142      655F6E61 
 5142      6D657300 
 5143              	.LASF119:
 5144 0492 72785F62 		.ascii	"rx_bad_checksum\000"
 5144      61645F63 
 5144      6865636B 
 5144      73756D00 
 5145              	.LASF53:
 5146 04a2 6770735F 		.ascii	"gps_vacc_m\000"
 5146      76616363 
 5146      5F6D00
 5147              	.LASF58:
 5148 04ad 6770735F 		.ascii	"gps_raw_spd\000"
 5148      7261775F 
 5148      73706400 
 5149              	.LASF121:
 5150 04b9 75617274 		.ascii	"uart_err_flags\000"
 5150      5F657272 
 5150      5F666C61 
 5150      677300
 5151              	.LASF232:
 5152 04c8 6275696C 		.ascii	"build_defer\000"
 5152      645F6465 
 5152      66657200 
 5153              	.LASF131:
 5154 04d4 70656E64 		.ascii	"pending_response_attr\000"
 5154      696E675F 
 5154      72657370 
 5154      6F6E7365 
 5154      5F617474 
 5155              	.LASF83:
 5156 04ea 73797373 		.ascii	"sysstat_gps_sats\000"
 5156      7461745F 
 5156      6770735F 
 5156      73617473 
 5156      00
 5157              	.LASF66:
 5158 04fb 6174745F 		.ascii	"att_valid\000"
 5158      76616C69 
 5158      6400
 5159              	.LASF203:
 5160 0505 6F726967 		.ascii	"origin_tilt_deg\000"
 5160      696E5F74 
 5160      696C745F 
 5160      64656700 
 5161              	.LASF169:
 5162 0515 5345565F 		.ascii	"SEV_USER\000"
 5162      55534552 
ARM GAS  C:\Users\yoons\AppData\Local\Temp\cc4JHBmd.s 			page 109


 5162      00
 5163              	.LASF224:
 5164 051e 636F6D6D 		.ascii	"common\000"
 5164      6F6E00
 5165              	.LASF127:
 5166 0525 67696D62 		.ascii	"gimbal_id\000"
 5166      616C5F69 
 5166      6400
 5167              	.LASF228:
 5168 052f 6170705F 		.ascii	"app_raise_error\000"
 5168      72616973 
 5168      655F6572 
 5168      726F7200 
 5169              	.LASF100:
 5170 053f 6D61675F 		.ascii	"mag_off_x\000"
 5170      6F66665F 
 5170      7800
 5171              	.LASF101:
 5172 0549 6D61675F 		.ascii	"mag_off_y\000"
 5172      6F66665F 
 5172      7900
 5173              	.LASF102:
 5174 0553 6D61675F 		.ascii	"mag_off_z\000"
 5174      6F66665F 
 5174      7A00
 5175              	.LASF205:
 5176 055d 6C617374 		.ascii	"last_tx_ms\000"
 5176      5F74785F 
 5176      6D7300
 5177              	.LASF54:
 5178 0568 6770735F 		.ascii	"gps_sacc_ms\000"
 5178      73616363 
 5178      5F6D7300 
 5179              	.LASF243:
 5180 0574 6E756467 		.ascii	"nudge_allowed_in\000"
 5180      655F616C 
 5180      6C6F7765 
 5180      645F696E 
 5180      00
 5181              	.LASF181:
 5182 0585 6572725F 		.ascii	"err_sev\000"
 5182      73657600 
 5183              	.LASF107:
 5184 058d 73797365 		.ascii	"sysecho_imu_rate\000"
 5184      63686F5F 
 5184      696D755F 
 5184      72617465 
 5184      00
 5185              	.LASF10:
 5186 059e 6C6F6E67 		.ascii	"long unsigned int\000"
 5186      20756E73 
 5186      69676E65 
 5186      6420696E 
 5186      7400
 5187              	.LASF223:
 5188 05b0 74617267 		.ascii	"target\000"
 5188      657400
ARM GAS  C:\Users\yoons\AppData\Local\Temp\cc4JHBmd.s 			page 110


 5189              	.LASF52:
 5190 05b7 6770735F 		.ascii	"gps_hacc_m\000"
 5190      68616363 
 5190      5F6D00
 5191              	.LASF88:
 5192 05c2 73797373 		.ascii	"sysstat_pressure_mb\000"
 5192      7461745F 
 5192      70726573 
 5192      73757265 
 5192      5F6D6200 
 5193              	.LASF109:
 5194 05d6 68616D66 		.ascii	"hamfly_telemetry_t\000"
 5194      6C795F74 
 5194      656C656D 
 5194      65747279 
 5194      5F7400
 5195              	.LASF106:
 5196 05e9 73797365 		.ascii	"sysecho_pressure_mb\000"
 5196      63686F5F 
 5196      70726573 
 5196      73757265 
 5196      5F6D6200 
 5197              	.LASF246:
 5198 05fd 63616E5F 		.ascii	"can_enter\000"
 5198      656E7465 
 5198      7200
 5199              	.LASF154:
 5200 0607 4552524F 		.ascii	"ERROR\000"
 5200      5200
 5201              	.LASF55:
 5202 060d 6770735F 		.ascii	"gps_raw_lat\000"
 5202      7261775F 
 5202      6C617400 
 5203              	.LASF19:
 5204 0619 75617274 		.ascii	"uart_putc\000"
 5204      5F707574 
 5204      6300
 5205              	.LASF213:
 5206 0623 7467745F 		.ascii	"tgt_pan_deg\000"
 5206      70616E5F 
 5206      64656700 
 5207              	.LASF76:
 5208 062f 6174745F 		.ascii	"att_yaw_err_deg\000"
 5208      7961775F 
 5208      6572725F 
 5208      64656700 
 5209              	.LASF91:
 5210 063f 73797373 		.ascii	"sysstat_imu_latency\000"
 5210      7461745F 
 5210      696D755F 
 5210      6C617465 
 5210      6E637900 
 5211              	.LASF244:
 5212 0653 6170705F 		.ascii	"app_sbc_tick\000"
 5212      7362635F 
 5212      7469636B 
 5212      00
ARM GAS  C:\Users\yoons\AppData\Local\Temp\cc4JHBmd.s 			page 111


 5213              	.LASF71:
 5214 0660 6174745F 		.ascii	"att_pitch_rate_dps\000"
 5214      70697463 
 5214      685F7261 
 5214      74655F64 
 5214      707300
 5215              	.LASF254:
 5216 0673 474E5520 		.ascii	"GNU C11 5.4.1 20160609 (release) [ARM/embedded-5-br"
 5216      43313120 
 5216      352E342E 
 5216      31203230 
 5216      31363036 
 5217 06a6 616E6368 		.ascii	"anch revision 237715] -mcpu=cortex-m3 -mthumb -g -O"
 5217      20726576 
 5217      6973696F 
 5217      6E203233 
 5217      37373135 
 5218 06d9 30202D66 		.ascii	"0 -ffunction-sections -ffat-lto-objects\000"
 5218      66756E63 
 5218      74696F6E 
 5218      2D736563 
 5218      74696F6E 
 5219              	.LASF125:
 5220 0701 72786275 		.ascii	"rxbuf\000"
 5220      6600
 5221              	.LASF167:
 5222 0707 53544154 		.ascii	"STATE_COUNT\000"
 5222      455F434F 
 5222      554E5400 
 5223              	.LASF9:
 5224 0713 5F5F7569 		.ascii	"__uint32_t\000"
 5224      6E743332 
 5224      5F7400
 5225              	.LASF37:
 5226 071e 62617474 		.ascii	"battery_left_v\000"
 5226      6572795F 
 5226      6C656674 
 5226      5F7600
 5227              	.LASF11:
 5228 072d 6C6F6E67 		.ascii	"long long int\000"
 5228      206C6F6E 
 5228      6720696E 
 5228      7400
 5229              	.LASF26:
 5230 073b 68616D66 		.ascii	"hamfly_control_mode_t\000"
 5230      6C795F63 
 5230      6F6E7472 
 5230      6F6C5F6D 
 5230      6F64655F 
 5231              	.LASF75:
 5232 0751 6174745F 		.ascii	"att_pitch_err_deg\000"
 5232      70697463 
 5232      685F6572 
 5232      725F6465 
 5232      6700
 5233              	.LASF51:
 5234 0763 6770735F 		.ascii	"gps_heading_deg\000"
ARM GAS  C:\Users\yoons\AppData\Local\Temp\cc4JHBmd.s 			page 112


 5234      68656164 
 5234      696E675F 
 5234      64656700 
 5235              	.LASF32:
 5236 0773 656E6162 		.ascii	"enable\000"
 5236      6C6500
 5237              	.LASF134:
 5238 077a 70656E64 		.ascii	"pending_payload_len\000"
 5238      696E675F 
 5238      7061796C 
 5238      6F61645F 
 5238      6C656E00 
 5239              	.LASF147:
 5240 078e 646F7562 		.ascii	"double\000"
 5240      6C6500
 5241              	.LASF183:
 5242 0795 66617461 		.ascii	"fatal_latched\000"
 5242      6C5F6C61 
 5242      74636865 
 5242      6400
 5243              	.LASF89:
 5244 07a3 73797373 		.ascii	"sysstat_imu_rate\000"
 5244      7461745F 
 5244      696D755F 
 5244      72617465 
 5244      00
 5245              	.LASF252:
 5246 07b4 49544D5F 		.ascii	"ITM_RxBuffer\000"
 5246      52784275 
 5246      66666572 
 5246      00
 5247              	.LASF118:
 5248 07c1 72785F62 		.ascii	"rx_bytes\000"
 5248      79746573 
 5248      00
 5249              	.LASF34:
 5250 07ca 666C6F61 		.ascii	"float\000"
 5250      7400
 5251              	.LASF219:
 5252 07d0 6B65795F 		.ascii	"key_fn_t\000"
 5252      666E5F74 
 5252      00
 5253              	.LASF13:
 5254 07d9 756E7369 		.ascii	"unsigned int\000"
 5254      676E6564 
 5254      20696E74 
 5254      00
 5255              	.LASF142:
 5256 07e6 6470616E 		.ascii	"dpan_cdeg\000"
 5256      5F636465 
 5256      6700
 5257              	.LASF155:
 5258 07f0 53544259 		.ascii	"STBY_DEFER\000"
 5258      5F444546 
 5258      455200
 5259              	.LASF31:
 5260 07fb 726F6C6C 		.ascii	"roll_mode\000"
ARM GAS  C:\Users\yoons\AppData\Local\Temp\cc4JHBmd.s 			page 113


 5260      5F6D6F64 
 5260      6500
 5261              	.LASF245:
 5262 0805 70617265 		.ascii	"parent_of\000"
 5262      6E745F6F 
 5262      6600
 5263              	.LASF57:
 5264 080f 6770735F 		.ascii	"gps_raw_alt\000"
 5264      7261775F 
 5264      616C7400 
 5265              	.LASF95:
 5266 081b 6D61675F 		.ascii	"mag_x\000"
 5266      7800
 5267              	.LASF96:
 5268 0821 6D61675F 		.ascii	"mag_y\000"
 5268      7900
 5269              	.LASF97:
 5270 0827 6D61675F 		.ascii	"mag_z\000"
 5270      7A00
 5271              	.LASF69:
 5272 082d 6174745F 		.ascii	"att_yaw_deg\000"
 5272      7961775F 
 5272      64656700 
 5273              	.LASF24:
 5274 0839 48414D46 		.ascii	"HAMFLY_ABSOLUTE\000"
 5274      4C595F41 
 5274      42534F4C 
 5274      55544500 
 5275              	.LASF235:
 5276 0849 7365745F 		.ascii	"set_origin\000"
 5276      6F726967 
 5276      696E00
 5277              	.LASF149:
 5278 0854 6C6F6E67 		.ascii	"long double\000"
 5278      20646F75 
 5278      626C6500 
 5279              	.LASF62:
 5280 0860 6770735F 		.ascii	"gps_raw_sacc\000"
 5280      7261775F 
 5280      73616363 
 5280      00
 5281              	.LASF123:
 5282 086d 74656C65 		.ascii	"telemetry\000"
 5282      6D657472 
 5282      7900
 5283              	.LASF210:
 5284 0877 6E756467 		.ascii	"nudge_start_ms\000"
 5284      655F7374 
 5284      6172745F 
 5284      6D7300
 5285              	.LASF221:
 5286 0886 67756172 		.ascii	"guard_fn_t\000"
 5286      645F666E 
 5286      5F7400
 5287              	.LASF152:
 5288 0891 4D414E55 		.ascii	"MANU\000"
 5288      00
ARM GAS  C:\Users\yoons\AppData\Local\Temp\cc4JHBmd.s 			page 114


 5289              	.LASF73:
 5290 0896 6174745F 		.ascii	"att_roll_rate_dps\000"
 5290      726F6C6C 
 5290      5F726174 
 5290      655F6470 
 5290      7300
 5291              	.LASF21:
 5292 08a8 68616D66 		.ascii	"hamfly_hal_t\000"
 5292      6C795F68 
 5292      616C5F74 
 5292      00
 5293              	.LASF161:
 5294 08b5 4155544F 		.ascii	"AUTO_ACQ_SPIRAL\000"
 5294      5F414351 
 5294      5F535049 
 5294      52414C00 
 5295              	.LASF220:
 5296 08c5 6275696C 		.ascii	"build_fn_t\000"
 5296      645F666E 
 5296      5F7400
 5297              	.LASF136:
 5298 08d0 72657175 		.ascii	"requested_state\000"
 5298      65737465 
 5298      645F7374 
 5298      61746500 
 5299              	.LASF74:
 5300 08e0 6174745F 		.ascii	"att_roll_err_deg\000"
 5300      726F6C6C 
 5300      5F657272 
 5300      5F646567 
 5300      00
 5301              	.LASF29:
 5302 08f1 70616E5F 		.ascii	"pan_mode\000"
 5302      6D6F6465 
 5302      00
 5303              	.LASF187:
 5304 08fa 6770735F 		.ascii	"gps_target_lat_raw\000"
 5304      74617267 
 5304      65745F6C 
 5304      61745F72 
 5304      617700
 5305              	.LASF12:
 5306 090d 6C6F6E67 		.ascii	"long long unsigned int\000"
 5306      206C6F6E 
 5306      6720756E 
 5306      7369676E 
 5306      65642069 
 5307              	.LASF25:
 5308 0924 48414D46 		.ascii	"HAMFLY_ABSOLUTE_MAJESTIC\000"
 5308      4C595F41 
 5308      42534F4C 
 5308      5554455F 
 5308      4D414A45 
 5309              	.LASF86:
 5310 093d 73797373 		.ascii	"sysstat_status_flags\000"
 5310      7461745F 
 5310      73746174 
ARM GAS  C:\Users\yoons\AppData\Local\Temp\cc4JHBmd.s 			page 115


 5310      75735F66 
 5310      6C616773 
 5311              	.LASF157:
 5312 0952 4D414E55 		.ascii	"MANU_JOYSTICK\000"
 5312      5F4A4F59 
 5312      53544943 
 5312      4B00
 5313              	.LASF16:
 5314 0960 75696E74 		.ascii	"uint16_t\000"
 5314      31365F74 
 5314      00
 5315              	.LASF182:
 5316 0969 6572725F 		.ascii	"err_msg\000"
 5316      6D736700 
 5317              	.LASF146:
 5318 0971 7061796C 		.ascii	"payload_param_t\000"
 5318      6F61645F 
 5318      70617261 
 5318      6D5F7400 
 5319              	.LASF172:
 5320 0981 5345565F 		.ascii	"SEV_FATAL\000"
 5320      46415441 
 5320      4C00
 5321              	.LASF77:
 5322 098b 73797373 		.ascii	"sysstat_valid\000"
 5322      7461745F 
 5322      76616C69 
 5322      6400
 5323              	.LASF65:
 5324 0999 6261726F 		.ascii	"baro_roc_ms\000"
 5324      5F726F63 
 5324      5F6D7300 
 5325              	.LASF208:
 5326 09a5 64696167 		.ascii	"diag_active\000"
 5326      5F616374 
 5326      69766500 
 5327              	.LASF78:
 5328 09b1 666C6167 		.ascii	"flag_compass_error\000"
 5328      5F636F6D 
 5328      70617373 
 5328      5F657272 
 5328      6F7200
 5329              	.LASF236:
 5330 09c4 7A65726F 		.ascii	"zero_tilt\000"
 5330      5F74696C 
 5330      7400
 5331              	.LASF140:
 5332 09ce 616C745F 		.ascii	"alt_mm\000"
 5332      6D6D00
 5333              	.LASF27:
 5334 09d5 74696C74 		.ascii	"tilt\000"
 5334      00
 5335              	.LASF242:
 5336 09da 7362635F 		.ascii	"sbc_state_is_requestable\000"
 5336      73746174 
 5336      655F6973 
 5336      5F726571 
ARM GAS  C:\Users\yoons\AppData\Local\Temp\cc4JHBmd.s 			page 116


 5336      75657374 
 5337              	.LASF238:
 5338 09f3 6C656166 		.ascii	"leaf_traps_nav\000"
 5338      5F747261 
 5338      70735F6E 
 5338      617600
 5339              	.LASF59:
 5340 0a02 6770735F 		.ascii	"gps_raw_hdg\000"
 5340      7261775F 
 5340      68646700 
 5341              	.LASF3:
 5342 0a0e 5F5F696E 		.ascii	"__int16_t\000"
 5342      7431365F 
 5342      7400
 5343              	.LASF132:
 5344 0a18 70656E64 		.ascii	"pending_response_len\000"
 5344      696E675F 
 5344      72657370 
 5344      6F6E7365 
 5344      5F6C656E 
 5345              	.LASF90:
 5346 0a2d 73797373 		.ascii	"sysstat_cam_status\000"
 5346      7461745F 
 5346      63616D5F 
 5346      73746174 
 5346      757300
 5347              	.LASF112:
 5348 0a40 64726F70 		.ascii	"drops\000"
 5348      7300
 5349              	.LASF227:
 5350 0a46 6170705F 		.ascii	"app_start\000"
 5350      73746172 
 5350      7400
 5351              	.LASF177:
 5352 0a50 6175746F 		.ascii	"auto_flow\000"
 5352      5F666C6F 
 5352      7700
 5353              	.LASF197:
 5354 0a5a 6770735F 		.ascii	"gps_last_tilt_deg\000"
 5354      6C617374 
 5354      5F74696C 
 5354      745F6465 
 5354      6700
 5355              	.LASF30:
 5356 0a6c 74696C74 		.ascii	"tilt_mode\000"
 5356      5F6D6F64 
 5356      6500
 5357              	.LASF230:
 5358 0a76 6C617374 		.ascii	"last_hot_ms\000"
 5358      5F686F74 
 5358      5F6D7300 
 5359              	.LASF255:
 5360 0a82 6170705F 		.ascii	"app_statemachine.c\000"
 5360      73746174 
 5360      656D6163 
 5360      68696E65 
 5360      2E6300
ARM GAS  C:\Users\yoons\AppData\Local\Temp\cc4JHBmd.s 			page 117


 5361              	.LASF250:
 5362 0a95 6F6E5F62 		.ascii	"on_build\000"
 5362      75696C64 
 5362      00
 5363              	.LASF201:
 5364 0a9e 74726163 		.ascii	"track_cy_last\000"
 5364      6B5F6379 
 5364      5F6C6173 
 5364      7400
 5365              	.LASF184:
 5366 0aac 686F6C64 		.ascii	"hold_mode\000"
 5366      5F6D6F64 
 5366      6500
 5367              	.LASF199:
 5368 0ab6 74726163 		.ascii	"track_kp\000"
 5368      6B5F6B70 
 5368      00
 5369              	.LASF239:
 5370 0abf 68616E64 		.ascii	"handle_nav_key\000"
 5370      6C655F6E 
 5370      61765F6B 
 5370      657900
 5371              	.LASF186:
 5372 0ace 6162735F 		.ascii	"abs_tilt_target\000"
 5372      74696C74 
 5372      5F746172 
 5372      67657400 
 5373              	.LASF202:
 5374 0ade 6F726967 		.ascii	"origin_pan_deg\000"
 5374      696E5F70 
 5374      616E5F64 
 5374      656700
 5375              	.LASF195:
 5376 0aed 6770735F 		.ascii	"gps_settled\000"
 5376      73657474 
 5376      6C656400 
 5377              	.LASF4:
 5378 0af9 73686F72 		.ascii	"short int\000"
 5378      7420696E 
 5378      7400
 5379              	.LASF153:
 5380 0b03 4155544F 		.ascii	"AUTO\000"
 5380      00
 5381              	.LASF234:
 5382 0b08 6170705F 		.ascii	"app_build_control\000"
 5382      6275696C 
 5382      645F636F 
 5382      6E74726F 
 5382      6C00
 5383              	.LASF15:
 5384 0b1a 696E7431 		.ascii	"int16_t\000"
 5384      365F7400 
 5385              	.LASF222:
 5386 0b22 64657074 		.ascii	"depth_of\000"
 5386      685F6F66 
 5386      00
 5387              	.LASF188:
ARM GAS  C:\Users\yoons\AppData\Local\Temp\cc4JHBmd.s 			page 118


 5388 0b2b 6770735F 		.ascii	"gps_target_lon_raw\000"
 5388      74617267 
 5388      65745F6C 
 5388      6F6E5F72 
 5388      617700
 5389              	.LASF46:
 5390 0b3e 6770735F 		.ascii	"gps_locked\000"
 5390      6C6F636B 
 5390      656400
 5391              	.LASF103:
 5392 0b49 6D61675F 		.ascii	"mag_declination\000"
 5392      6465636C 
 5392      696E6174 
 5392      696F6E00 
 5393              	.LASF22:
 5394 0b59 48414D46 		.ascii	"HAMFLY_DEFER\000"
 5394      4C595F44 
 5394      45464552 
 5394      00
 5395              	.LASF256:
 5396 0b66 433A5C55 		.ascii	"C:\\Users\\yoons\\Documents\\wprkspace-hamish\\PSoC"
 5396      73657273 
 5396      5C796F6F 
 5396      6E735C44 
 5396      6F63756D 
 5397 0b94 2D50726F 		.ascii	"-Programs\\test_projects\\Proj08_DemoTxIntegration."
 5397      6772616D 
 5397      735C7465 
 5397      73745F70 
 5397      726F6A65 
 5398 0bc5 63796473 		.ascii	"cydsn\000"
 5398      6E00
 5399              	.LASF124:
 5400 0bcb 73746174 		.ascii	"statistics\000"
 5400      69737469 
 5400      637300
 5401              	.LASF36:
 5402 0bd6 76616C69 		.ascii	"valid\000"
 5402      6400
 5403              	.LASF63:
 5404 0bdc 6261726F 		.ascii	"baro_valid\000"
 5404      5F76616C 
 5404      696400
 5405              	.LASF33:
 5406 0be7 6B696C6C 		.ascii	"kill\000"
 5406      00
 5407              	.LASF165:
 5408 0bec 4552524F 		.ascii	"ERROR_ACTIVE\000"
 5408      525F4143 
 5408      54495645 
 5408      00
 5409              	.LASF206:
 5410 0bf9 6C617374 		.ascii	"last_diag_ms\000"
 5410      5F646961 
 5410      675F6D73 
 5410      00
 5411              	.LASF115:
ARM GAS  C:\Users\yoons\AppData\Local\Temp\cc4JHBmd.s 			page 119


 5412 0c06 74785F70 		.ascii	"tx_packets\000"
 5412      61636B65 
 5412      747300
 5413              	.LASF237:
 5414 0c11 68616E64 		.ascii	"handle_global_key\000"
 5414      6C655F67 
 5414      6C6F6261 
 5414      6C5F6B65 
 5414      7900
 5415              	.LASF214:
 5416 0c23 7467745F 		.ascii	"tgt_tilt_deg\000"
 5416      74696C74 
 5416      5F646567 
 5416      00
 5417              	.LASF193:
 5418 0c30 6770735F 		.ascii	"gps_work_lon_raw\000"
 5418      776F726B 
 5418      5F6C6F6E 
 5418      5F726177 
 5418      00
 5419              	.LASF18:
 5420 0c41 75696E74 		.ascii	"uint32_t\000"
 5420      33325F74 
 5420      00
 5421              	.LASF128:
 5422 0c4a 70656E64 		.ascii	"pending_attr\000"
 5422      696E675F 
 5422      61747472 
 5422      00
 5423              	.LASF56:
 5424 0c57 6770735F 		.ascii	"gps_raw_lon\000"
 5424      7261775F 
 5424      6C6F6E00 
 5425              	.LASF20:
 5426 0c63 6765745F 		.ascii	"get_tick_ms\000"
 5426      7469636B 
 5426      5F6D7300 
 5427              	.LASF99:
 5428 0c6f 6D61675F 		.ascii	"mag_freq\000"
 5428      66726571 
 5428      00
 5429              	.LASF6:
 5430 0c78 73686F72 		.ascii	"short unsigned int\000"
 5430      7420756E 
 5430      7369676E 
 5430      65642069 
 5430      6E7400
 5431              	.LASF28:
 5432 0c8b 726F6C6C 		.ascii	"roll\000"
 5432      00
 5433              	.LASF168:
 5434 0c90 73746174 		.ascii	"state_t\000"
 5434      655F7400 
 5435              	.LASF7:
 5436 0c98 5F5F696E 		.ascii	"__int32_t\000"
 5436      7433325F 
 5436      7400
ARM GAS  C:\Users\yoons\AppData\Local\Temp\cc4JHBmd.s 			page 120


 5437              	.LASF85:
 5438 0ca2 73797373 		.ascii	"sysstat_cpu_pct\000"
 5438      7461745F 
 5438      6370755F 
 5438      70637400 
 5439              	.LASF185:
 5440 0cb2 6162735F 		.ascii	"abs_pan_target\000"
 5440      70616E5F 
 5440      74617267 
 5440      657400
 5441              	.LASF216:
 5442 0cc1 6E756467 		.ascii	"nudge_burst_start_ms\000"
 5442      655F6275 
 5442      7273745F 
 5442      73746172 
 5442      745F6D73 
 5443              	.LASF105:
 5444 0cd6 73797365 		.ascii	"sysecho_gps_locked\000"
 5444      63686F5F 
 5444      6770735F 
 5444      6C6F636B 
 5444      656400
 5445              	.LASF207:
 5446 0ce9 73746174 		.ascii	"state_entry_ms\000"
 5446      655F656E 
 5446      7472795F 
 5446      6D7300
 5447              	.LASF64:
 5448 0cf8 6261726F 		.ascii	"baro_alt_m\000"
 5448      5F616C74 
 5448      5F6D00
 5449              	.LASF180:
 5450 0d03 74656C65 		.ascii	"telem_stable_since_ms\000"
 5450      6D5F7374 
 5450      61626C65 
 5450      5F73696E 
 5450      63655F6D 
 5451              	.LASF212:
 5452 0d19 6E756467 		.ascii	"nudge_base_tilt_deg\000"
 5452      655F6261 
 5452      73655F74 
 5452      696C745F 
 5452      64656700 
 5453              	.LASF218:
 5454 0d2d 73746174 		.ascii	"state_fn_t\000"
 5454      655F666E 
 5454      5F7400
 5455              	.LASF166:
 5456 0d38 4552524F 		.ascii	"ERROR_KILL\000"
 5456      525F4B49 
 5456      4C4C00
 5457              	.LASF48:
 5458 0d43 6770735F 		.ascii	"gps_lon_deg\000"
 5458      6C6F6E5F 
 5458      64656700 
 5459              	.LASF215:
 5460 0d4f 6E756467 		.ascii	"nudge_active\000"
ARM GAS  C:\Users\yoons\AppData\Local\Temp\cc4JHBmd.s 			page 121


 5460      655F6163 
 5460      74697665 
 5460      00
 5461              	.LASF151:
 5462 0d5c 53544259 		.ascii	"STBY\000"
 5462      00
 5463              	.LASF241:
 5464 0d61 6170705F 		.ascii	"app_dispatch_key\000"
 5464      64697370 
 5464      61746368 
 5464      5F6B6579 
 5464      00
 5465              	.LASF141:
 5466 0d72 7061796C 		.ascii	"payload_gps_target_t\000"
 5466      6F61645F 
 5466      6770735F 
 5466      74617267 
 5466      65745F74 
 5467              	.LASF156:
 5468 0d87 53544259 		.ascii	"STBY_HOLD\000"
 5468      5F484F4C 
 5468      4400
 5469              	.LASF209:
 5470 0d91 6E756467 		.ascii	"nudge_hold\000"
 5470      655F686F 
 5470      6C6400
 5471              	.LASF159:
 5472 0d9c 4155544F 		.ascii	"AUTO_HOLD\000"
 5472      5F484F4C 
 5472      4400
 5473              		.ident	"GCC: (GNU Tools for ARM Embedded Processors) 5.4.1 20160609 (release) [ARM/embedded-5-bran
