ARM GAS  C:\Users\yoons\AppData\Local\Temp\ccNhtbdn.s 			page 1


   1              		.syntax unified
   2              		.cpu cortex-m3
   3              		.fpu softvfp
   4              		.eabi_attribute 20, 1
   5              		.eabi_attribute 21, 1
   6              		.eabi_attribute 23, 3
   7              		.eabi_attribute 24, 1
   8              		.eabi_attribute 25, 1
   9              		.eabi_attribute 26, 1
  10              		.eabi_attribute 30, 6
  11              		.eabi_attribute 34, 1
  12              		.eabi_attribute 18, 4
  13              		.thumb
  14              		.syntax unified
  15              		.file	"app_statemachine.c"
  16              		.text
  17              	.Ltext0:
  18              		.cfi_sections	.debug_frame
  19              		.section	.rodata
  20              		.align	2
  21              		.type	parent_of, %object
  22              		.size	parent_of, 17
  23              	parent_of:
  24 0000 00       		.byte	0
  25 0001 00       		.byte	0
  26 0002 00       		.byte	0
  27 0003 00       		.byte	0
  28 0004 00       		.byte	0
  29 0005 01       		.byte	1
  30 0006 01       		.byte	1
  31 0007 02       		.byte	2
  32 0008 03       		.byte	3
  33 0009 03       		.byte	3
  34 000a 03       		.byte	3
  35 000b 03       		.byte	3
  36 000c 03       		.byte	3
  37 000d 03       		.byte	3
  38 000e 03       		.byte	3
  39 000f 04       		.byte	4
  40 0010 04       		.byte	4
  41 0011 000000   		.align	2
  42              		.type	can_enter, %object
  43              		.size	can_enter, 68
  44              	can_enter:
  45 0014 00000000 		.space	12
  45      00000000 
  45      00000000 
  46 0020 00000000 		.word	guard_auto_parent
  47 0024 00000000 		.space	12
  47      00000000 
  47      00000000 
  48 0030 00000000 		.word	guard_manu_joystick
  49 0034 00000000 		.word	guard_auto_home
  50 0038 00000000 		.space	4
  51 003c 00000000 		.word	guard_auto_acq_gps
  52 0040 00000000 		.space	24
  52      00000000 
ARM GAS  C:\Users\yoons\AppData\Local\Temp\ccNhtbdn.s 			page 2


  52      00000000 
  52      00000000 
  52      00000000 
  53              		.align	2
  54              		.type	on_entry, %object
  55              		.size	on_entry, 68
  56              	on_entry:
  57 0058 00000000 		.space	4
  58 005c 00000000 		.word	0
  59 0060 00000000 		.word	0
  60 0064 00000000 		.word	0
  61 0068 00000000 		.word	0
  62 006c 00000000 		.word	entry_stby_defer
  63 0070 00000000 		.word	entry_stby_hold
  64 0074 00000000 		.word	entry_manu_joystick
  65 0078 00000000 		.word	entry_auto_home
  66 007c 00000000 		.word	entry_auto_hold
  67 0080 00000000 		.word	entry_auto_acq_gps
  68 0084 00000000 		.word	entry_auto_acq_spiral
  69 0088 00000000 		.word	entry_auto_tracking
  70 008c 00000000 		.word	entry_auto_loss
  71 0090 00000000 		.word	entry_auto_no_lock
  72 0094 00000000 		.word	entry_error_active
  73 0098 00000000 		.word	entry_error_kill
  74              		.align	2
  75              		.type	on_exit, %object
  76              		.size	on_exit, 68
  77              	on_exit:
  78 009c 00000000 		.space	4
  79 00a0 00000000 		.word	0
  80 00a4 00000000 		.word	0
  81 00a8 00000000 		.word	0
  82 00ac 00000000 		.word	0
  83 00b0 00000000 		.word	0
  84 00b4 00000000 		.word	0
  85 00b8 00000000 		.word	exit_manu_joystick
  86 00bc 00000000 		.word	exit_auto_home
  87 00c0 00000000 		.word	0
  88 00c4 00000000 		.word	exit_auto_acq_gps
  89 00c8 00000000 		.word	0
  90 00cc 00000000 		.word	0
  91 00d0 00000000 		.word	0
  92 00d4 00000000 		.word	0
  93 00d8 00000000 		.word	0
  94 00dc 00000000 		.word	0
  95              		.align	2
  96              		.type	on_key, %object
  97              		.size	on_key, 68
  98              	on_key:
  99 00e0 00000000 		.space	20
  99      00000000 
  99      00000000 
  99      00000000 
  99      00000000 
 100 00f4 00000000 		.word	0
 101 00f8 00000000 		.word	key_stby_hold
 102 00fc 00000000 		.word	key_manu_joystick
ARM GAS  C:\Users\yoons\AppData\Local\Temp\ccNhtbdn.s 			page 3


 103 0100 00000000 		.word	key_auto_home
 104 0104 00000000 		.word	key_auto_hold
 105 0108 00000000 		.word	key_auto_acq_gps
 106 010c 00000000 		.word	0
 107 0110 00000000 		.word	key_auto_tracking
 108 0114 00000000 		.word	key_auto_loss
 109 0118 00000000 		.word	key_auto_no_lock
 110 011c 00000000 		.word	key_error_active
 111 0120 00000000 		.word	key_error_kill
 112              		.align	2
 113              		.type	on_build, %object
 114              		.size	on_build, 68
 115              	on_build:
 116 0124 00000000 		.space	20
 116      00000000 
 116      00000000 
 116      00000000 
 116      00000000 
 117 0138 00000000 		.word	build_defer
 118 013c 00000000 		.word	build_hold
 119 0140 00000000 		.word	build_manu_joystick
 120 0144 00000000 		.word	build_auto_home
 121 0148 00000000 		.word	build_hold
 122 014c 00000000 		.word	build_auto_acq_gps
 123 0150 00000000 		.word	build_hold
 124 0154 00000000 		.word	build_auto_tracking
 125 0158 00000000 		.word	build_hold
 126 015c 00000000 		.word	build_hold
 127 0160 00000000 		.word	build_error
 128 0164 00000000 		.word	build_error
 129              		.section	.text.depth_of,"ax",%progbits
 130              		.align	2
 131              		.thumb
 132              		.thumb_func
 133              		.type	depth_of, %function
 134              	depth_of:
 135              	.LFB64:
 136              		.file 1 "app_statemachine.c"
   1:app_statemachine.c **** /* ========================================
   2:app_statemachine.c ****  *
   3:app_statemachine.c ****  * Copyright Hamish Johnson, 2026
   4:app_statemachine.c ****  * All Rights Reserved
   5:app_statemachine.c ****  * UNPUBLISHED, LICENSED SOFTWARE.
   6:app_statemachine.c ****  *
   7:app_statemachine.c ****  * CONFIDENTIAL AND PROPRIETARY INFORMATION
   8:app_statemachine.c ****  * WHICH IS THE PROPERTY OF 
   9:app_statemachine.c ****  * Quantum Internet Systems Lab (QISL),
  10:app_statemachine.c ****  * Department of Physics, SFU, Canada.
  11:app_statemachine.c ****  *
  12:app_statemachine.c ****  * Author: Hamish Johnson (2026)
  13:app_statemachine.c ****  *
  14:app_statemachine.c ****  * ========================================
  15:app_statemachine.c ****  *
  16:app_statemachine.c ****  * HFSM engine: parent table, LCA walk, transition driver, error raiser.
  17:app_statemachine.c ****  *
  18:app_statemachine.c ****  *   ROOT
  19:app_statemachine.c ****  *   ├─ STBY ── STBY_DEFER (boot)
ARM GAS  C:\Users\yoons\AppData\Local\Temp\ccNhtbdn.s 			page 4


  20:app_statemachine.c ****  *   ├       ── STBY_HOLD
  21:app_statemachine.c ****  *   ├─ MANU ── MANU_JOYSTICK
  22:app_statemachine.c ****  *   ├─ AUTO ── AUTO_HOME*
  23:app_statemachine.c ****  *   ├       ── ACQ_GPS*
  24:app_statemachine.c ****  *   ├       ── ACQ_SPIRAL*
  25:app_statemachine.c ****  *   ├       ── TRACKING*
  26:app_statemachine.c ****  *   ├       ── LOSS*
  27:app_statemachine.c ****  *   ├       ── NO_LOCK*
  28:app_statemachine.c ****  *   └─ ERROR ─ ERROR_ACTIVE
  29:app_statemachine.c ****  * 
  30:app_statemachine.c ****  *      * = declared, not yet implemented
  31:app_statemachine.c ****  *
  32:app_statemachine.c ****  * KEYMAP (keep in sync with the key_* handlers in section 5):
  33:app_statemachine.c ****  *   GLOBAL (any non-FATAL leaf):
  34:app_statemachine.c ****  *     k       soft kill -> STBY_HOLD
  35:app_statemachine.c ****  *     [       capture origin from telemetry
  36:app_statemachine.c ****  *     ?       help
  37:app_statemachine.c ****  *     Ctrl+R  clear FATAL latch -> STBY_HOLD
  38:app_statemachine.c ****  *   NAV (suppressed where leaf_traps_nav()==1):
  39:app_statemachine.c ****  *     1/2/3   STBY_HOLD / MANU_JOYSTICK / AUTO
  40:app_statemachine.c ****  *   MANU_JOYSTICK leaf:
  41:app_statemachine.c ****  *     r/a     RATE / ABSOLUTE      e  exit -> STBY_HOLD
  42:app_statemachine.c ****  *     ]       -> AUTO_HOME
  43:app_statemachine.c ****  *
  44:app_statemachine.c ****  * DISPATCH PRECEDENCE (app_dispatch_key):
  45:app_statemachine.c ****  *     FATAL-lockout  >  global  >  leaf  >  nav
  46:app_statemachine.c **** */
  47:app_statemachine.c **** 
  48:app_statemachine.c **** #include "hamfly.h"
  49:app_statemachine.c **** #include "sbc_comms.h"
  50:app_statemachine.c **** #include "telemetry.h"
  51:app_statemachine.c **** #include "utils.h"    // nudge_apply
  52:app_statemachine.c **** #include <project.h>  // For UART
  53:app_statemachine.c **** #include <math.h> // TODO: Remove?
  54:app_statemachine.c **** #include <string.h>
  55:app_statemachine.c **** #include <stdio.h>
  56:app_statemachine.c **** 
  57:app_statemachine.c **** // Substates
  58:app_statemachine.c **** #include "app_statemachine.h"
  59:app_statemachine.c **** #include "app_state_stby.h"
  60:app_statemachine.c **** #include "app_state_manu.h"
  61:app_statemachine.c **** #include "app_state_auto.h"
  62:app_statemachine.c **** #include "app_state_error.h"
  63:app_statemachine.c **** 
  64:app_statemachine.c **** // For timing, PSoC incremented with looptimer ISR.
  65:app_statemachine.c **** extern volatile uint32_t g_tick_ms;
  66:app_statemachine.c **** 
  67:app_statemachine.c **** // Hierarchy %================================================================%
  68:app_statemachine.c **** // Heirarchy allows shared entry/exit behaviour.
  69:app_statemachine.c **** // ROOT is the base of the walk.
  70:app_statemachine.c **** static const state_t parent_of[STATE_COUNT] = {
  71:app_statemachine.c ****     [ROOT]            = ROOT,  // Book keeping
  72:app_statemachine.c ****     [STBY]            = ROOT,  // Parent states
  73:app_statemachine.c ****     [MANU]            = ROOT,
  74:app_statemachine.c ****     [AUTO]            = ROOT,
  75:app_statemachine.c ****     [ERROR]           = ROOT,
  76:app_statemachine.c **** 
ARM GAS  C:\Users\yoons\AppData\Local\Temp\ccNhtbdn.s 			page 5


  77:app_statemachine.c ****     [STBY_DEFER]      = STBY,  // Two types of standby
  78:app_statemachine.c ****     [STBY_HOLD]       = STBY,  // Hold and wait
  79:app_statemachine.c **** 
  80:app_statemachine.c ****     [MANU_JOYSTICK]   = MANU,
  81:app_statemachine.c **** 
  82:app_statemachine.c ****     [AUTO_HOME]       = AUTO,  // Go to 0, 0
  83:app_statemachine.c ****     [AUTO_HOLD]       = AUTO,  // Hold but accept centroids
  84:app_statemachine.c ****     [AUTO_ACQ_GPS]    = AUTO,  // Go to GPS vector pointing
  85:app_statemachine.c ****     [AUTO_ACQ_SPIRAL] = AUTO,  // Spiral search for lock
  86:app_statemachine.c ****     [AUTO_TRACKING]   = AUTO,  // Closed loop tracking
  87:app_statemachine.c ****     [AUTO_LOSS]       = AUTO,  // Loss of centeroiding packets
  88:app_statemachine.c ****     [AUTO_NO_LOCK]    = AUTO,  // No lock after ACQ attempts
  89:app_statemachine.c **** 
  90:app_statemachine.c ****     [ERROR_ACTIVE]    = ERROR,  // Error state. TODO: Severity levels.
  91:app_statemachine.c ****     [ERROR_KILL]      = ERROR,  // Sends kill to gimbal.
  92:app_statemachine.c **** };
  93:app_statemachine.c **** 
  94:app_statemachine.c **** // Hook table type forward declaration
  95:app_statemachine.c **** typedef void    (*state_fn_t)(app_ctx_t *);         // Entry and Exit handlers
  96:app_statemachine.c **** typedef uint8_t (*key_fn_t)  (app_ctx_t *, char);   // Input handlers
  97:app_statemachine.c **** typedef void    (*build_fn_t)(const app_ctx_t *, hamfly_control_t *); //Packet
  98:app_statemachine.c **** typedef uint8_t (*guard_fn_t)(const app_ctx_t *);   // 1=valid, 0=refuse
  99:app_statemachine.c **** 
 100:app_statemachine.c **** // %==========================================================================%
 101:app_statemachine.c **** // %                          Dispatch tables                                 %
 102:app_statemachine.c **** // %==========================================================================%
 103:app_statemachine.c **** // All handler symbols are declared in their respective app_state_*.h headers.
 104:app_statemachine.c **** 
 105:app_statemachine.c **** // Table of entry guards.
 106:app_statemachine.c **** static const guard_fn_t can_enter[STATE_COUNT] = {
 107:app_statemachine.c ****     [MANU_JOYSTICK] = guard_manu_joystick,
 108:app_statemachine.c ****     [AUTO]         = guard_auto_parent,   // need gimbal telemetry to enter
 109:app_statemachine.c ****     [AUTO_HOME]    = guard_auto_home,     // needs origin set + live telemetry
 110:app_statemachine.c ****     [AUTO_ACQ_GPS] = guard_auto_acq_gps,  // needs a GPS target
 111:app_statemachine.c **** };
 112:app_statemachine.c **** 
 113:app_statemachine.c **** // Table of on-entry functions.
 114:app_statemachine.c **** static const state_fn_t on_entry[STATE_COUNT] = {
 115:app_statemachine.c ****     [STBY]            = NULL,   // parent: shared STBY entry, if ever needed
 116:app_statemachine.c ****     [MANU]            = NULL,   // parent
 117:app_statemachine.c ****     [AUTO]            = NULL,   // parent
 118:app_statemachine.c ****     [ERROR]           = NULL,   // parent
 119:app_statemachine.c ****     [STBY_DEFER]      = entry_stby_defer,
 120:app_statemachine.c ****     [STBY_HOLD]       = entry_stby_hold,
 121:app_statemachine.c ****     [MANU_JOYSTICK]   = entry_manu_joystick,
 122:app_statemachine.c ****     [AUTO_HOME]       = entry_auto_home,
 123:app_statemachine.c ****     [AUTO_HOLD]       = entry_auto_hold,
 124:app_statemachine.c ****     [AUTO_ACQ_GPS]    = entry_auto_acq_gps,
 125:app_statemachine.c ****     [AUTO_ACQ_SPIRAL] = entry_auto_acq_spiral,
 126:app_statemachine.c ****     [AUTO_TRACKING]   = entry_auto_tracking,
 127:app_statemachine.c ****     [AUTO_LOSS]       = entry_auto_loss,
 128:app_statemachine.c ****     [AUTO_NO_LOCK]    = entry_auto_no_lock,
 129:app_statemachine.c ****     [ERROR_ACTIVE]    = entry_error_active,
 130:app_statemachine.c ****     [ERROR_KILL]      = entry_error_kill,
 131:app_statemachine.c **** };
 132:app_statemachine.c **** 
 133:app_statemachine.c **** static const state_fn_t on_exit[STATE_COUNT] = {
ARM GAS  C:\Users\yoons\AppData\Local\Temp\ccNhtbdn.s 			page 6


 134:app_statemachine.c ****     [STBY]            = NULL,   // parent
 135:app_statemachine.c ****     [MANU]            = NULL,   // parent
 136:app_statemachine.c ****     [AUTO]            = NULL,   // parent
 137:app_statemachine.c ****     [ERROR]           = NULL,   // parent
 138:app_statemachine.c ****     [STBY_DEFER]      = NULL,
 139:app_statemachine.c ****     [STBY_HOLD]       = NULL,
 140:app_statemachine.c ****     [MANU_JOYSTICK]   = exit_manu_joystick,
 141:app_statemachine.c ****     [AUTO_HOME]       = exit_auto_home,
 142:app_statemachine.c ****     [AUTO_HOLD]       = NULL,
 143:app_statemachine.c ****     [AUTO_ACQ_GPS]    = exit_auto_acq_gps,
 144:app_statemachine.c ****     [AUTO_ACQ_SPIRAL] = NULL,   // TODO
 145:app_statemachine.c ****     [AUTO_TRACKING]   = NULL,   // TODO
 146:app_statemachine.c ****     [AUTO_LOSS]       = NULL,   // TODO
 147:app_statemachine.c ****     [AUTO_NO_LOCK]    = NULL,   // TODO
 148:app_statemachine.c ****     [ERROR_ACTIVE]    = NULL,   // TODO
 149:app_statemachine.c ****     [ERROR_KILL]      = NULL,
 150:app_statemachine.c **** };
 151:app_statemachine.c **** 
 152:app_statemachine.c **** // For key handling over serial
 153:app_statemachine.c **** // Will be superceded by auto flow conditions and SBC commands.
 154:app_statemachine.c **** static const key_fn_t on_key[STATE_COUNT] = {
 155:app_statemachine.c ****     [STBY_DEFER]      = NULL,  // TODO
 156:app_statemachine.c ****     [STBY_HOLD]       = key_stby_hold ,  // TODO
 157:app_statemachine.c ****     [MANU_JOYSTICK]   = key_manu_joystick,
 158:app_statemachine.c ****     [AUTO_HOME]       = key_auto_home,
 159:app_statemachine.c ****     [AUTO_HOLD]       = key_auto_hold,
 160:app_statemachine.c ****     [AUTO_ACQ_GPS]    = key_auto_acq_gps,
 161:app_statemachine.c ****     [AUTO_ACQ_SPIRAL] = NULL,  // TODO
 162:app_statemachine.c ****     [AUTO_TRACKING]   = key_auto_tracking,
 163:app_statemachine.c ****     [AUTO_LOSS]       = key_auto_loss,
 164:app_statemachine.c ****     [AUTO_NO_LOCK]    = key_auto_no_lock,
 165:app_statemachine.c ****     [ERROR_ACTIVE]    = key_error_active,
 166:app_statemachine.c ****     [ERROR_KILL]      = key_error_kill,
 167:app_statemachine.c **** };
 168:app_statemachine.c **** 
 169:app_statemachine.c **** static const build_fn_t on_build[STATE_COUNT] = {
 170:app_statemachine.c ****     [STBY_DEFER]      = build_defer,
 171:app_statemachine.c ****     [STBY_HOLD]       = build_hold,
 172:app_statemachine.c ****     [MANU_JOYSTICK]   = build_manu_joystick,  // NOTE: Nudge folded into joysticl leaf.
 173:app_statemachine.c ****     [AUTO_HOME]       = build_auto_home,
 174:app_statemachine.c ****     [AUTO_HOLD]       = build_hold,
 175:app_statemachine.c ****     [AUTO_ACQ_GPS]    = build_auto_acq_gps,
 176:app_statemachine.c ****     [AUTO_ACQ_SPIRAL] = build_hold,          // placeholder: zero rates, hold
 177:app_statemachine.c ****     [AUTO_TRACKING]   = build_auto_tracking,
 178:app_statemachine.c ****     [AUTO_LOSS]       = build_hold,          // placeholder: hold position
 179:app_statemachine.c ****     [AUTO_NO_LOCK]    = build_hold,          // placeholder: hold position
 180:app_statemachine.c ****     [ERROR_ACTIVE]    = build_error,
 181:app_statemachine.c ****     [ERROR_KILL]      = build_error,
 182:app_statemachine.c **** };
 183:app_statemachine.c **** 
 184:app_statemachine.c **** // %==========================================================================%
 185:app_statemachine.c **** // %                              LCA walk                                    %
 186:app_statemachine.c **** // %==========================================================================%
 187:app_statemachine.c **** // Lowest Common Ancestor (LCA) allows for the relevant exit and entry action
 188:app_statemachine.c **** // cascate occurs as needed to get between heirarchecal leafs. For a given 
 189:app_statemachine.c **** // state, walk up its parents to ROOT, then walk down to incoming state.
 190:app_statemachine.c **** // Allows for heirarchical and shared entry/exit behaviour.
ARM GAS  C:\Users\yoons\AppData\Local\Temp\ccNhtbdn.s 			page 7


 191:app_statemachine.c **** 
 192:app_statemachine.c **** static uint8_t depth_of(state_t s)
 193:app_statemachine.c **** {
 137              		.loc 1 193 0
 138              		.cfi_startproc
 139              		@ args = 0, pretend = 0, frame = 16
 140              		@ frame_needed = 1, uses_anonymous_args = 0
 141              		@ link register save eliminated.
 142 0000 80B4     		push	{r7}
 143              		.cfi_def_cfa_offset 4
 144              		.cfi_offset 7, -4
 145 0002 85B0     		sub	sp, sp, #20
 146              		.cfi_def_cfa_offset 24
 147 0004 00AF     		add	r7, sp, #0
 148              		.cfi_def_cfa_register 7
 149 0006 0346     		mov	r3, r0
 150 0008 FB71     		strb	r3, [r7, #7]
 194:app_statemachine.c ****     uint8_t d = 0;
 151              		.loc 1 194 0
 152 000a 0023     		movs	r3, #0
 153 000c FB73     		strb	r3, [r7, #15]
 195:app_statemachine.c ****     while (s != ROOT) { s = parent_of[s]; d++; }
 154              		.loc 1 195 0
 155 000e 06E0     		b	.L2
 156              	.L3:
 157              		.loc 1 195 0 is_stmt 0 discriminator 2
 158 0010 FB79     		ldrb	r3, [r7, #7]	@ zero_extendqisi2
 159 0012 074A     		ldr	r2, .L5
 160 0014 D35C     		ldrb	r3, [r2, r3]
 161 0016 FB71     		strb	r3, [r7, #7]
 162 0018 FB7B     		ldrb	r3, [r7, #15]	@ zero_extendqisi2
 163 001a 0133     		adds	r3, r3, #1
 164 001c FB73     		strb	r3, [r7, #15]
 165              	.L2:
 166              		.loc 1 195 0 discriminator 1
 167 001e FB79     		ldrb	r3, [r7, #7]	@ zero_extendqisi2
 168 0020 002B     		cmp	r3, #0
 169 0022 F5D1     		bne	.L3
 196:app_statemachine.c ****     return d;
 170              		.loc 1 196 0 is_stmt 1
 171 0024 FB7B     		ldrb	r3, [r7, #15]	@ zero_extendqisi2
 197:app_statemachine.c **** }
 172              		.loc 1 197 0
 173 0026 1846     		mov	r0, r3
 174 0028 1437     		adds	r7, r7, #20
 175              		.cfi_def_cfa_offset 4
 176 002a BD46     		mov	sp, r7
 177              		.cfi_def_cfa_register 13
 178              		@ sp needed
 179 002c 80BC     		pop	{r7}
 180              		.cfi_restore 7
 181              		.cfi_def_cfa_offset 0
 182 002e 7047     		bx	lr
 183              	.L6:
 184              		.align	2
 185              	.L5:
 186 0030 00000000 		.word	parent_of
ARM GAS  C:\Users\yoons\AppData\Local\Temp\ccNhtbdn.s 			page 8


 187              		.cfi_endproc
 188              	.LFE64:
 189              		.size	depth_of, .-depth_of
 190              		.section	.text.lca,"ax",%progbits
 191              		.align	2
 192              		.thumb
 193              		.thumb_func
 194              		.type	lca, %function
 195              	lca:
 196              	.LFB65:
 198:app_statemachine.c **** 
 199:app_statemachine.c **** static state_t lca(state_t a, state_t b)
 200:app_statemachine.c **** {
 197              		.loc 1 200 0
 198              		.cfi_startproc
 199              		@ args = 0, pretend = 0, frame = 16
 200              		@ frame_needed = 1, uses_anonymous_args = 0
 201 0000 80B5     		push	{r7, lr}
 202              		.cfi_def_cfa_offset 8
 203              		.cfi_offset 7, -8
 204              		.cfi_offset 14, -4
 205 0002 84B0     		sub	sp, sp, #16
 206              		.cfi_def_cfa_offset 24
 207 0004 00AF     		add	r7, sp, #0
 208              		.cfi_def_cfa_register 7
 209 0006 0346     		mov	r3, r0
 210 0008 0A46     		mov	r2, r1
 211 000a FB71     		strb	r3, [r7, #7]
 212 000c 1346     		mov	r3, r2
 213 000e BB71     		strb	r3, [r7, #6]
 201:app_statemachine.c ****     uint8_t da = depth_of(a), db = depth_of(b);
 214              		.loc 1 201 0
 215 0010 FB79     		ldrb	r3, [r7, #7]	@ zero_extendqisi2
 216 0012 1846     		mov	r0, r3
 217 0014 FFF7FEFF 		bl	depth_of
 218 0018 0346     		mov	r3, r0
 219 001a FB73     		strb	r3, [r7, #15]
 220 001c BB79     		ldrb	r3, [r7, #6]	@ zero_extendqisi2
 221 001e 1846     		mov	r0, r3
 222 0020 FFF7FEFF 		bl	depth_of
 223 0024 0346     		mov	r3, r0
 224 0026 BB73     		strb	r3, [r7, #14]
 202:app_statemachine.c ****     while (da > db) { a = parent_of[a]; da--; }
 225              		.loc 1 202 0
 226 0028 06E0     		b	.L8
 227              	.L9:
 228              		.loc 1 202 0 is_stmt 0 discriminator 2
 229 002a FB79     		ldrb	r3, [r7, #7]	@ zero_extendqisi2
 230 002c 134A     		ldr	r2, .L15
 231 002e D35C     		ldrb	r3, [r2, r3]
 232 0030 FB71     		strb	r3, [r7, #7]
 233 0032 FB7B     		ldrb	r3, [r7, #15]	@ zero_extendqisi2
 234 0034 013B     		subs	r3, r3, #1
 235 0036 FB73     		strb	r3, [r7, #15]
 236              	.L8:
 237              		.loc 1 202 0 discriminator 1
 238 0038 FA7B     		ldrb	r2, [r7, #15]	@ zero_extendqisi2
ARM GAS  C:\Users\yoons\AppData\Local\Temp\ccNhtbdn.s 			page 9


 239 003a BB7B     		ldrb	r3, [r7, #14]	@ zero_extendqisi2
 240 003c 9A42     		cmp	r2, r3
 241 003e F4D8     		bhi	.L9
 203:app_statemachine.c ****     while (db > da) { b = parent_of[b]; db--; }
 242              		.loc 1 203 0 is_stmt 1
 243 0040 06E0     		b	.L10
 244              	.L11:
 245              		.loc 1 203 0 is_stmt 0 discriminator 2
 246 0042 BB79     		ldrb	r3, [r7, #6]	@ zero_extendqisi2
 247 0044 0D4A     		ldr	r2, .L15
 248 0046 D35C     		ldrb	r3, [r2, r3]
 249 0048 BB71     		strb	r3, [r7, #6]
 250 004a BB7B     		ldrb	r3, [r7, #14]	@ zero_extendqisi2
 251 004c 013B     		subs	r3, r3, #1
 252 004e BB73     		strb	r3, [r7, #14]
 253              	.L10:
 254              		.loc 1 203 0 discriminator 1
 255 0050 BA7B     		ldrb	r2, [r7, #14]	@ zero_extendqisi2
 256 0052 FB7B     		ldrb	r3, [r7, #15]	@ zero_extendqisi2
 257 0054 9A42     		cmp	r2, r3
 258 0056 F4D8     		bhi	.L11
 204:app_statemachine.c ****     while (a != b)  { a = parent_of[a]; b = parent_of[b]; }
 259              		.loc 1 204 0 is_stmt 1
 260 0058 07E0     		b	.L12
 261              	.L13:
 262              		.loc 1 204 0 is_stmt 0 discriminator 2
 263 005a FB79     		ldrb	r3, [r7, #7]	@ zero_extendqisi2
 264 005c 074A     		ldr	r2, .L15
 265 005e D35C     		ldrb	r3, [r2, r3]
 266 0060 FB71     		strb	r3, [r7, #7]
 267 0062 BB79     		ldrb	r3, [r7, #6]	@ zero_extendqisi2
 268 0064 054A     		ldr	r2, .L15
 269 0066 D35C     		ldrb	r3, [r2, r3]
 270 0068 BB71     		strb	r3, [r7, #6]
 271              	.L12:
 272              		.loc 1 204 0 discriminator 1
 273 006a FA79     		ldrb	r2, [r7, #7]	@ zero_extendqisi2
 274 006c BB79     		ldrb	r3, [r7, #6]	@ zero_extendqisi2
 275 006e 9A42     		cmp	r2, r3
 276 0070 F3D1     		bne	.L13
 205:app_statemachine.c ****     return a;
 277              		.loc 1 205 0 is_stmt 1
 278 0072 FB79     		ldrb	r3, [r7, #7]	@ zero_extendqisi2
 206:app_statemachine.c **** }
 279              		.loc 1 206 0
 280 0074 1846     		mov	r0, r3
 281 0076 1037     		adds	r7, r7, #16
 282              		.cfi_def_cfa_offset 8
 283 0078 BD46     		mov	sp, r7
 284              		.cfi_def_cfa_register 13
 285              		@ sp needed
 286 007a 80BD     		pop	{r7, pc}
 287              	.L16:
 288              		.align	2
 289              	.L15:
 290 007c 00000000 		.word	parent_of
 291              		.cfi_endproc
ARM GAS  C:\Users\yoons\AppData\Local\Temp\ccNhtbdn.s 			page 10


 292              	.LFE65:
 293              		.size	lca, .-lca
 294              		.section	.rodata
 295              		.align	2
 296              	.LC0:
 297 0168 5B444247 		.ascii	"[DBG] auto_flow=1\015\012\000"
 297      5D206175 
 297      746F5F66 
 297      6C6F773D 
 297      310D0A00 
 298              		.align	2
 299              	.LC1:
 300 017c 5B444247 		.ascii	"[DBG] auto_flow=0\015\012\000"
 300      5D206175 
 300      746F5F66 
 300      6C6F773D 
 300      300D0A00 
 301              		.align	2
 302              	.LC2:
 303 0190 5B46534D 		.ascii	"[FSM] entry guard failed -> STBY_HOLD\015\012\000"
 303      5D20656E 
 303      74727920 
 303      67756172 
 303      64206661 
 304              		.section	.text.app_transition,"ax",%progbits
 305              		.align	2
 306              		.global	app_transition
 307              		.thumb
 308              		.thumb_func
 309              		.type	app_transition, %function
 310              	app_transition:
 311              	.LFB66:
 207:app_statemachine.c **** 
 208:app_statemachine.c **** // Transition driver %========================================================%
 209:app_statemachine.c **** // Walk src up to LCA (running on_exit), then LCA down to target (running
 210:app_statemachine.c **** // on_entry). Self-transitions are a no-op. ROOT is the absorbing root, so
 211:app_statemachine.c **** // any pair has an LCA.
 212:app_statemachine.c **** 
 213:app_statemachine.c **** void app_transition(app_ctx_t *ctx, state_t target)
 214:app_statemachine.c **** {
 312              		.loc 1 214 0
 313              		.cfi_startproc
 314              		@ args = 0, pretend = 0, frame = 24
 315              		@ frame_needed = 1, uses_anonymous_args = 0
 316 0000 80B5     		push	{r7, lr}
 317              		.cfi_def_cfa_offset 8
 318              		.cfi_offset 7, -8
 319              		.cfi_offset 14, -4
 320 0002 86B0     		sub	sp, sp, #24
 321              		.cfi_def_cfa_offset 32
 322 0004 00AF     		add	r7, sp, #0
 323              		.cfi_def_cfa_register 7
 324 0006 7860     		str	r0, [r7, #4]
 325 0008 0B46     		mov	r3, r1
 326 000a FB70     		strb	r3, [r7, #3]
 215:app_statemachine.c ****     // Check auto state flow pin
 216:app_statemachine.c ****     ctx->auto_flow = (Pin_SwitchAuto_Read() == 1u) ? 1u : 0u;
ARM GAS  C:\Users\yoons\AppData\Local\Temp\ccNhtbdn.s 			page 11


 327              		.loc 1 216 0
 328 000c FFF7FEFF 		bl	Pin_SwitchAuto_Read
 329 0010 0346     		mov	r3, r0
 330 0012 012B     		cmp	r3, #1
 331 0014 01D1     		bne	.L18
 332              		.loc 1 216 0 is_stmt 0 discriminator 1
 333 0016 0122     		movs	r2, #1
 334 0018 00E0     		b	.L19
 335              	.L18:
 336              		.loc 1 216 0 discriminator 2
 337 001a 0022     		movs	r2, #0
 338              	.L19:
 339              		.loc 1 216 0 discriminator 4
 340 001c 7B68     		ldr	r3, [r7, #4]
 341 001e 9A71     		strb	r2, [r3, #6]
 217:app_statemachine.c ****     UART_DEBUG_PutString(ctx->auto_flow ? "[DBG] auto_flow=1\r\n" : "[DBG] auto_flow=0\r\n");
 342              		.loc 1 217 0 is_stmt 1 discriminator 4
 343 0020 7B68     		ldr	r3, [r7, #4]
 344 0022 9B79     		ldrb	r3, [r3, #6]	@ zero_extendqisi2
 345 0024 002B     		cmp	r3, #0
 346 0026 01D0     		beq	.L20
 347              		.loc 1 217 0 is_stmt 0 discriminator 1
 348 0028 414B     		ldr	r3, .L33
 349 002a 00E0     		b	.L21
 350              	.L20:
 351              		.loc 1 217 0 discriminator 2
 352 002c 414B     		ldr	r3, .L33+4
 353              	.L21:
 354              		.loc 1 217 0 discriminator 4
 355 002e 1846     		mov	r0, r3
 356 0030 FFF7FEFF 		bl	dbg_put
 218:app_statemachine.c ****     // Check entry guard
 219:app_statemachine.c ****     if (can_enter[target] && !can_enter[target](ctx)) {
 357              		.loc 1 219 0 is_stmt 1 discriminator 4
 358 0034 FB78     		ldrb	r3, [r7, #3]	@ zero_extendqisi2
 359 0036 404A     		ldr	r2, .L33+8
 360 0038 52F82330 		ldr	r3, [r2, r3, lsl #2]
 361 003c 002B     		cmp	r3, #0
 362 003e 0DD0     		beq	.L22
 363              		.loc 1 219 0 is_stmt 0 discriminator 1
 364 0040 FB78     		ldrb	r3, [r7, #3]	@ zero_extendqisi2
 365 0042 3D4A     		ldr	r2, .L33+8
 366 0044 52F82330 		ldr	r3, [r2, r3, lsl #2]
 367 0048 7868     		ldr	r0, [r7, #4]
 368 004a 9847     		blx	r3
 369 004c 0346     		mov	r3, r0
 370 004e 002B     		cmp	r3, #0
 371 0050 04D1     		bne	.L22
 220:app_statemachine.c ****         UART_DEBUG_PutString("[FSM] entry guard failed -> STBY_HOLD\r\n");
 372              		.loc 1 220 0 is_stmt 1
 373 0052 3A48     		ldr	r0, .L33+12
 374 0054 FFF7FEFF 		bl	dbg_put
 221:app_statemachine.c ****         target = STBY_HOLD;
 375              		.loc 1 221 0
 376 0058 0623     		movs	r3, #6
 377 005a FB70     		strb	r3, [r7, #3]
 378              	.L22:
ARM GAS  C:\Users\yoons\AppData\Local\Temp\ccNhtbdn.s 			page 12


 222:app_statemachine.c ****     }
 223:app_statemachine.c ****     
 224:app_statemachine.c ****     // Self transition handle.
 225:app_statemachine.c ****     state_t src = ctx->state;
 379              		.loc 1 225 0
 380 005c 7B68     		ldr	r3, [r7, #4]
 381 005e 1B79     		ldrb	r3, [r3, #4]
 382 0060 3B75     		strb	r3, [r7, #20]
 226:app_statemachine.c ****     if (target == src) return;
 383              		.loc 1 226 0
 384 0062 FA78     		ldrb	r2, [r7, #3]	@ zero_extendqisi2
 385 0064 3B7D     		ldrb	r3, [r7, #20]	@ zero_extendqisi2
 386 0066 9A42     		cmp	r2, r3
 387 0068 5DD0     		beq	.L32
 227:app_statemachine.c ****     
 228:app_statemachine.c ****     // LCA walk.
 229:app_statemachine.c ****     state_t common = lca(src, target);
 388              		.loc 1 229 0
 389 006a FA78     		ldrb	r2, [r7, #3]	@ zero_extendqisi2
 390 006c 3B7D     		ldrb	r3, [r7, #20]	@ zero_extendqisi2
 391 006e 1146     		mov	r1, r2
 392 0070 1846     		mov	r0, r3
 393 0072 FFF7FEFF 		bl	lca
 394 0076 0346     		mov	r3, r0
 395 0078 FB74     		strb	r3, [r7, #19]
 396              	.LBB2:
 230:app_statemachine.c **** 
 231:app_statemachine.c ****     // Shared parents require no duplicate on_exit calls.
 232:app_statemachine.c ****     // Walk up path, running on_exit.
 233:app_statemachine.c ****     for (state_t s = src; s != common; s = parent_of[s]) {
 397              		.loc 1 233 0
 398 007a 3B7D     		ldrb	r3, [r7, #20]
 399 007c FB75     		strb	r3, [r7, #23]
 400 007e 0FE0     		b	.L25
 401              	.L27:
 234:app_statemachine.c ****         if (on_exit[s]) on_exit[s](ctx);
 402              		.loc 1 234 0
 403 0080 FB7D     		ldrb	r3, [r7, #23]	@ zero_extendqisi2
 404 0082 2F4A     		ldr	r2, .L33+16
 405 0084 52F82330 		ldr	r3, [r2, r3, lsl #2]
 406 0088 002B     		cmp	r3, #0
 407 008a 05D0     		beq	.L26
 408              		.loc 1 234 0 is_stmt 0 discriminator 1
 409 008c FB7D     		ldrb	r3, [r7, #23]	@ zero_extendqisi2
 410 008e 2C4A     		ldr	r2, .L33+16
 411 0090 52F82330 		ldr	r3, [r2, r3, lsl #2]
 412 0094 7868     		ldr	r0, [r7, #4]
 413 0096 9847     		blx	r3
 414              	.L26:
 233:app_statemachine.c ****         if (on_exit[s]) on_exit[s](ctx);
 415              		.loc 1 233 0 is_stmt 1 discriminator 2
 416 0098 FB7D     		ldrb	r3, [r7, #23]	@ zero_extendqisi2
 417 009a 2A4A     		ldr	r2, .L33+20
 418 009c D35C     		ldrb	r3, [r2, r3]
 419 009e FB75     		strb	r3, [r7, #23]
 420              	.L25:
 233:app_statemachine.c ****         if (on_exit[s]) on_exit[s](ctx);
ARM GAS  C:\Users\yoons\AppData\Local\Temp\ccNhtbdn.s 			page 13


 421              		.loc 1 233 0 is_stmt 0 discriminator 1
 422 00a0 FA7D     		ldrb	r2, [r7, #23]	@ zero_extendqisi2
 423 00a2 FB7C     		ldrb	r3, [r7, #19]	@ zero_extendqisi2
 424 00a4 9A42     		cmp	r2, r3
 425 00a6 EBD1     		bne	.L27
 426              	.LBE2:
 235:app_statemachine.c ****     }
 236:app_statemachine.c ****     
 237:app_statemachine.c ****     ctx->prev_leaf = src;  // Return to last state book-keeping.
 427              		.loc 1 237 0 is_stmt 1
 428 00a8 7B68     		ldr	r3, [r7, #4]
 429 00aa 3A7D     		ldrb	r2, [r7, #20]
 430 00ac 5A71     		strb	r2, [r3, #5]
 238:app_statemachine.c **** 
 239:app_statemachine.c ****     // Walk down the path, running on_entry.
 240:app_statemachine.c ****     state_t path[MAX_HFSM_DEPTH];
 241:app_statemachine.c ****     uint8_t n = 0;
 431              		.loc 1 241 0
 432 00ae 0023     		movs	r3, #0
 433 00b0 BB75     		strb	r3, [r7, #22]
 434              	.LBB3:
 242:app_statemachine.c ****     for (state_t s = target; s != common; s = parent_of[s]) {
 435              		.loc 1 242 0
 436 00b2 FB78     		ldrb	r3, [r7, #3]
 437 00b4 7B75     		strb	r3, [r7, #21]
 438 00b6 0CE0     		b	.L28
 439              	.L29:
 243:app_statemachine.c ****         path[n++] = s;
 440              		.loc 1 243 0 discriminator 3
 441 00b8 BB7D     		ldrb	r3, [r7, #22]	@ zero_extendqisi2
 442 00ba 5A1C     		adds	r2, r3, #1
 443 00bc BA75     		strb	r2, [r7, #22]
 444 00be 07F11802 		add	r2, r7, #24
 445 00c2 1344     		add	r3, r3, r2
 446 00c4 7A7D     		ldrb	r2, [r7, #21]
 447 00c6 03F80C2C 		strb	r2, [r3, #-12]
 242:app_statemachine.c ****     for (state_t s = target; s != common; s = parent_of[s]) {
 448              		.loc 1 242 0 discriminator 3
 449 00ca 7B7D     		ldrb	r3, [r7, #21]	@ zero_extendqisi2
 450 00cc 1D4A     		ldr	r2, .L33+20
 451 00ce D35C     		ldrb	r3, [r2, r3]
 452 00d0 7B75     		strb	r3, [r7, #21]
 453              	.L28:
 242:app_statemachine.c ****     for (state_t s = target; s != common; s = parent_of[s]) {
 454              		.loc 1 242 0 is_stmt 0 discriminator 1
 455 00d2 7A7D     		ldrb	r2, [r7, #21]	@ zero_extendqisi2
 456 00d4 FB7C     		ldrb	r3, [r7, #19]	@ zero_extendqisi2
 457 00d6 9A42     		cmp	r2, r3
 458 00d8 EED1     		bne	.L29
 459              	.LBE3:
 244:app_statemachine.c ****     }
 245:app_statemachine.c ****     while (n--) {
 460              		.loc 1 245 0 is_stmt 1
 461 00da 17E0     		b	.L30
 462              	.L31:
 246:app_statemachine.c ****         if (on_entry[path[n]]) on_entry[path[n]](ctx);
 463              		.loc 1 246 0
ARM GAS  C:\Users\yoons\AppData\Local\Temp\ccNhtbdn.s 			page 14


 464 00dc BB7D     		ldrb	r3, [r7, #22]	@ zero_extendqisi2
 465 00de 07F11802 		add	r2, r7, #24
 466 00e2 1344     		add	r3, r3, r2
 467 00e4 13F80C3C 		ldrb	r3, [r3, #-12]	@ zero_extendqisi2
 468 00e8 1A46     		mov	r2, r3
 469 00ea 174B     		ldr	r3, .L33+24
 470 00ec 53F82230 		ldr	r3, [r3, r2, lsl #2]
 471 00f0 002B     		cmp	r3, #0
 472 00f2 0BD0     		beq	.L30
 473              		.loc 1 246 0 is_stmt 0 discriminator 1
 474 00f4 BB7D     		ldrb	r3, [r7, #22]	@ zero_extendqisi2
 475 00f6 07F11802 		add	r2, r7, #24
 476 00fa 1344     		add	r3, r3, r2
 477 00fc 13F80C3C 		ldrb	r3, [r3, #-12]	@ zero_extendqisi2
 478 0100 1A46     		mov	r2, r3
 479 0102 114B     		ldr	r3, .L33+24
 480 0104 53F82230 		ldr	r3, [r3, r2, lsl #2]
 481 0108 7868     		ldr	r0, [r7, #4]
 482 010a 9847     		blx	r3
 483              	.L30:
 245:app_statemachine.c ****         if (on_entry[path[n]]) on_entry[path[n]](ctx);
 484              		.loc 1 245 0 is_stmt 1
 485 010c BB7D     		ldrb	r3, [r7, #22]	@ zero_extendqisi2
 486 010e 5A1E     		subs	r2, r3, #1
 487 0110 BA75     		strb	r2, [r7, #22]
 488 0112 002B     		cmp	r3, #0
 489 0114 E2D1     		bne	.L31
 247:app_statemachine.c ****     }
 248:app_statemachine.c ****     
 249:app_statemachine.c ****     // Store new state.
 250:app_statemachine.c ****     ctx->state          = target;
 490              		.loc 1 250 0
 491 0116 7B68     		ldr	r3, [r7, #4]
 492 0118 FA78     		ldrb	r2, [r7, #3]
 493 011a 1A71     		strb	r2, [r3, #4]
 251:app_statemachine.c ****     ctx->state_entry_ms = g_tick_ms;
 494              		.loc 1 251 0
 495 011c 0B4B     		ldr	r3, .L33+28
 496 011e 1A68     		ldr	r2, [r3]
 497 0120 7B68     		ldr	r3, [r7, #4]
 498 0122 DA66     		str	r2, [r3, #108]
 499 0124 00E0     		b	.L17
 500              	.L32:
 226:app_statemachine.c ****     
 501              		.loc 1 226 0
 502 0126 00BF     		nop
 503              	.L17:
 252:app_statemachine.c **** }
 504              		.loc 1 252 0
 505 0128 1837     		adds	r7, r7, #24
 506              		.cfi_def_cfa_offset 8
 507 012a BD46     		mov	sp, r7
 508              		.cfi_def_cfa_register 13
 509              		@ sp needed
 510 012c 80BD     		pop	{r7, pc}
 511              	.L34:
 512 012e 00BF     		.align	2
ARM GAS  C:\Users\yoons\AppData\Local\Temp\ccNhtbdn.s 			page 15


 513              	.L33:
 514 0130 68010000 		.word	.LC0
 515 0134 7C010000 		.word	.LC1
 516 0138 14000000 		.word	can_enter
 517 013c 90010000 		.word	.LC2
 518 0140 9C000000 		.word	on_exit
 519 0144 00000000 		.word	parent_of
 520 0148 58000000 		.word	on_entry
 521 014c 00000000 		.word	g_tick_ms
 522              		.cfi_endproc
 523              	.LFE66:
 524              		.size	app_transition, .-app_transition
 525              		.section	.text.app_start,"ax",%progbits
 526              		.align	2
 527              		.global	app_start
 528              		.thumb
 529              		.thumb_func
 530              		.type	app_start, %function
 531              	app_start:
 532              	.LFB67:
 253:app_statemachine.c **** 
 254:app_statemachine.c **** // On boot.
 255:app_statemachine.c **** void app_start(app_ctx_t *ctx)
 256:app_statemachine.c **** {
 533              		.loc 1 256 0
 534              		.cfi_startproc
 535              		@ args = 0, pretend = 0, frame = 16
 536              		@ frame_needed = 1, uses_anonymous_args = 0
 537 0000 80B5     		push	{r7, lr}
 538              		.cfi_def_cfa_offset 8
 539              		.cfi_offset 7, -8
 540              		.cfi_offset 14, -4
 541 0002 84B0     		sub	sp, sp, #16
 542              		.cfi_def_cfa_offset 24
 543 0004 00AF     		add	r7, sp, #0
 544              		.cfi_def_cfa_register 7
 545 0006 7860     		str	r0, [r7, #4]
 257:app_statemachine.c ****     // Walk entry conditions from ROOT to the init state,
 258:app_statemachine.c ****     state_t target = ctx->state;
 546              		.loc 1 258 0
 547 0008 7B68     		ldr	r3, [r7, #4]
 548 000a 1B79     		ldrb	r3, [r3, #4]
 549 000c FB73     		strb	r3, [r7, #15]
 259:app_statemachine.c ****     ctx->state = ROOT;
 550              		.loc 1 259 0
 551 000e 7B68     		ldr	r3, [r7, #4]
 552 0010 0022     		movs	r2, #0
 553 0012 1A71     		strb	r2, [r3, #4]
 260:app_statemachine.c ****     app_transition(ctx, target);
 554              		.loc 1 260 0
 555 0014 FB7B     		ldrb	r3, [r7, #15]	@ zero_extendqisi2
 556 0016 1946     		mov	r1, r3
 557 0018 7868     		ldr	r0, [r7, #4]
 558 001a FFF7FEFF 		bl	app_transition
 261:app_statemachine.c **** }
 559              		.loc 1 261 0
 560 001e 00BF     		nop
ARM GAS  C:\Users\yoons\AppData\Local\Temp\ccNhtbdn.s 			page 16


 561 0020 1037     		adds	r7, r7, #16
 562              		.cfi_def_cfa_offset 8
 563 0022 BD46     		mov	sp, r7
 564              		.cfi_def_cfa_register 13
 565              		@ sp needed
 566 0024 80BD     		pop	{r7, pc}
 567              		.cfi_endproc
 568              	.LFE67:
 569              		.size	app_start, .-app_start
 570 0026 00BF     		.section	.rodata
 571              		.align	2
 572              	.LC3:
 573 01b8 5B555345 		.ascii	"[USER] \000"
 573      525D2000 
 574              		.align	2
 575              	.LC4:
 576 01c0 0D0A00   		.ascii	"\015\012\000"
 577              		.section	.text.app_raise_error,"ax",%progbits
 578              		.align	2
 579              		.global	app_raise_error
 580              		.thumb
 581              		.thumb_func
 582              		.type	app_raise_error, %function
 583              	app_raise_error:
 584              	.LFB68:
 262:app_statemachine.c **** 
 263:app_statemachine.c **** // On error: Handles severity.
 264:app_statemachine.c **** void app_raise_error(app_ctx_t *ctx, err_sev_t sev, const char *msg)
 265:app_statemachine.c **** {
 585              		.loc 1 265 0
 586              		.cfi_startproc
 587              		@ args = 0, pretend = 0, frame = 16
 588              		@ frame_needed = 1, uses_anonymous_args = 0
 589 0000 80B5     		push	{r7, lr}
 590              		.cfi_def_cfa_offset 8
 591              		.cfi_offset 7, -8
 592              		.cfi_offset 14, -4
 593 0002 84B0     		sub	sp, sp, #16
 594              		.cfi_def_cfa_offset 24
 595 0004 00AF     		add	r7, sp, #0
 596              		.cfi_def_cfa_register 7
 597 0006 F860     		str	r0, [r7, #12]
 598 0008 0B46     		mov	r3, r1
 599 000a 7A60     		str	r2, [r7, #4]
 600 000c FB72     		strb	r3, [r7, #11]
 266:app_statemachine.c ****     // User error: Invalid request, do not change and notify user.
 267:app_statemachine.c ****     if (sev == SEV_USER) {
 601              		.loc 1 267 0
 602 000e FB7A     		ldrb	r3, [r7, #11]	@ zero_extendqisi2
 603 0010 002B     		cmp	r3, #0
 604 0012 09D1     		bne	.L37
 268:app_statemachine.c ****         UART_DEBUG_PutString("[USER] ");
 605              		.loc 1 268 0
 606 0014 1248     		ldr	r0, .L42
 607 0016 FFF7FEFF 		bl	dbg_put
 269:app_statemachine.c ****         UART_DEBUG_PutString(msg);
 608              		.loc 1 269 0
ARM GAS  C:\Users\yoons\AppData\Local\Temp\ccNhtbdn.s 			page 17


 609 001a 7868     		ldr	r0, [r7, #4]
 610 001c FFF7FEFF 		bl	dbg_put
 270:app_statemachine.c ****         UART_DEBUG_PutString("\r\n");
 611              		.loc 1 270 0
 612 0020 1048     		ldr	r0, .L42+4
 613 0022 FFF7FEFF 		bl	dbg_put
 271:app_statemachine.c ****         return;
 614              		.loc 1 271 0
 615 0026 18E0     		b	.L36
 616              	.L37:
 272:app_statemachine.c ****     }
 273:app_statemachine.c ****     
 274:app_statemachine.c ****     // Fatal error flag.
 275:app_statemachine.c ****     if (ctx->fatal_latched && sev != SEV_FATAL) return;
 617              		.loc 1 275 0
 618 0028 FB68     		ldr	r3, [r7, #12]
 619 002a 1B7E     		ldrb	r3, [r3, #24]	@ zero_extendqisi2
 620 002c 002B     		cmp	r3, #0
 621 002e 02D0     		beq	.L39
 622              		.loc 1 275 0 is_stmt 0 discriminator 1
 623 0030 FB7A     		ldrb	r3, [r7, #11]	@ zero_extendqisi2
 624 0032 032B     		cmp	r3, #3
 625 0034 10D1     		bne	.L41
 626              	.L39:
 276:app_statemachine.c ****     
 277:app_statemachine.c ****     ctx->err_sev = sev;
 627              		.loc 1 277 0 is_stmt 1
 628 0036 FB68     		ldr	r3, [r7, #12]
 629 0038 FA7A     		ldrb	r2, [r7, #11]
 630 003a 1A74     		strb	r2, [r3, #16]
 278:app_statemachine.c ****     ctx->err_msg = msg;
 631              		.loc 1 278 0
 632 003c FB68     		ldr	r3, [r7, #12]
 633 003e 7A68     		ldr	r2, [r7, #4]
 634 0040 5A61     		str	r2, [r3, #20]
 279:app_statemachine.c ****     if (sev == SEV_FATAL) ctx->fatal_latched = 1u;
 635              		.loc 1 279 0
 636 0042 FB7A     		ldrb	r3, [r7, #11]	@ zero_extendqisi2
 637 0044 032B     		cmp	r3, #3
 638 0046 02D1     		bne	.L40
 639              		.loc 1 279 0 is_stmt 0 discriminator 1
 640 0048 FB68     		ldr	r3, [r7, #12]
 641 004a 0122     		movs	r2, #1
 642 004c 1A76     		strb	r2, [r3, #24]
 643              	.L40:
 280:app_statemachine.c ****     
 281:app_statemachine.c ****     app_transition(ctx, ERROR_ACTIVE);  // Go to error state.
 644              		.loc 1 281 0 is_stmt 1
 645 004e 0F21     		movs	r1, #15
 646 0050 F868     		ldr	r0, [r7, #12]
 647 0052 FFF7FEFF 		bl	app_transition
 648 0056 00E0     		b	.L36
 649              	.L41:
 275:app_statemachine.c ****     
 650              		.loc 1 275 0
 651 0058 00BF     		nop
 652              	.L36:
ARM GAS  C:\Users\yoons\AppData\Local\Temp\ccNhtbdn.s 			page 18


 282:app_statemachine.c **** }
 653              		.loc 1 282 0
 654 005a 1037     		adds	r7, r7, #16
 655              		.cfi_def_cfa_offset 8
 656 005c BD46     		mov	sp, r7
 657              		.cfi_def_cfa_register 13
 658              		@ sp needed
 659 005e 80BD     		pop	{r7, pc}
 660              	.L43:
 661              		.align	2
 662              	.L42:
 663 0060 B8010000 		.word	.LC3
 664 0064 C0010000 		.word	.LC4
 665              		.cfi_endproc
 666              	.LFE68:
 667              		.size	app_raise_error, .-app_raise_error
 668              		.section	.rodata
 669 01c3 00       		.align	2
 670              	.LC5:
 671 01c4 524F4F54 		.ascii	"ROOT\000"
 671      00
 672 01c9 000000   		.align	2
 673              	.LC6:
 674 01cc 53544259 		.ascii	"STBY\000"
 674      00
 675 01d1 000000   		.align	2
 676              	.LC7:
 677 01d4 4D414E55 		.ascii	"MANU\000"
 677      00
 678 01d9 000000   		.align	2
 679              	.LC8:
 680 01dc 4155544F 		.ascii	"AUTO\000"
 680      00
 681 01e1 000000   		.align	2
 682              	.LC9:
 683 01e4 4552524F 		.ascii	"ERROR\000"
 683      5200
 684 01ea 0000     		.align	2
 685              	.LC10:
 686 01ec 53544259 		.ascii	"STBY_DEFER\000"
 686      5F444546 
 686      455200
 687 01f7 00       		.align	2
 688              	.LC11:
 689 01f8 53544259 		.ascii	"STBY_HOLD\000"
 689      5F484F4C 
 689      4400
 690 0202 0000     		.align	2
 691              	.LC12:
 692 0204 4D414E55 		.ascii	"MANU_JOYSTICK\000"
 692      5F4A4F59 
 692      53544943 
 692      4B00
 693 0212 0000     		.align	2
 694              	.LC13:
 695 0214 4155544F 		.ascii	"AUTO_HOME\000"
 695      5F484F4D 
ARM GAS  C:\Users\yoons\AppData\Local\Temp\ccNhtbdn.s 			page 19


 695      4500
 696 021e 0000     		.align	2
 697              	.LC14:
 698 0220 4155544F 		.ascii	"AUTO_ACQ_GPS\000"
 698      5F414351 
 698      5F475053 
 698      00
 699 022d 000000   		.align	2
 700              	.LC15:
 701 0230 4155544F 		.ascii	"AUTO_ACQ_SPIRAL\000"
 701      5F414351 
 701      5F535049 
 701      52414C00 
 702              		.align	2
 703              	.LC16:
 704 0240 4155544F 		.ascii	"AUTO_TRACKING\000"
 704      5F545241 
 704      434B494E 
 704      4700
 705 024e 0000     		.align	2
 706              	.LC17:
 707 0250 4155544F 		.ascii	"AUTO_LOSS\000"
 707      5F4C4F53 
 707      5300
 708 025a 0000     		.align	2
 709              	.LC18:
 710 025c 4155544F 		.ascii	"AUTO_NO_LOCK\000"
 710      5F4E4F5F 
 710      4C4F434B 
 710      00
 711 0269 000000   		.align	2
 712              	.LC19:
 713 026c 4552524F 		.ascii	"ERROR_ACTIVE\000"
 713      525F4143 
 713      54495645 
 713      00
 714 0279 000000   		.align	2
 715              		.type	state_names, %object
 716              		.size	state_names, 68
 717              	state_names:
 718 027c C4010000 		.word	.LC5
 719 0280 CC010000 		.word	.LC6
 720 0284 D4010000 		.word	.LC7
 721 0288 DC010000 		.word	.LC8
 722 028c E4010000 		.word	.LC9
 723 0290 EC010000 		.word	.LC10
 724 0294 F8010000 		.word	.LC11
 725 0298 04020000 		.word	.LC12
 726 029c 14020000 		.word	.LC13
 727 02a0 00000000 		.space	4
 728 02a4 20020000 		.word	.LC14
 729 02a8 30020000 		.word	.LC15
 730 02ac 40020000 		.word	.LC16
 731 02b0 50020000 		.word	.LC17
 732 02b4 5C020000 		.word	.LC18
 733 02b8 6C020000 		.word	.LC19
 734 02bc 00000000 		.space	4
ARM GAS  C:\Users\yoons\AppData\Local\Temp\ccNhtbdn.s 			page 20


 735              		.section	.text.app_state_name,"ax",%progbits
 736              		.align	2
 737              		.global	app_state_name
 738              		.thumb
 739              		.thumb_func
 740              		.type	app_state_name, %function
 741              	app_state_name:
 742              	.LFB69:
 283:app_statemachine.c **** 
 284:app_statemachine.c **** // %==========================================================================%
 285:app_statemachine.c **** // %                            State names                                   %
 286:app_statemachine.c **** // %==========================================================================%
 287:app_statemachine.c **** static const char *const state_names[STATE_COUNT] = {
 288:app_statemachine.c ****     [ROOT] = "ROOT",
 289:app_statemachine.c ****     [STBY] = "STBY", [MANU] = "MANU", [AUTO] = "AUTO", [ERROR] = "ERROR",
 290:app_statemachine.c ****     [STBY_DEFER]      = "STBY_DEFER",
 291:app_statemachine.c ****     [STBY_HOLD]       = "STBY_HOLD",
 292:app_statemachine.c ****     [MANU_JOYSTICK]   = "MANU_JOYSTICK",
 293:app_statemachine.c ****     [AUTO_HOME]       = "AUTO_HOME",
 294:app_statemachine.c ****     [AUTO_ACQ_GPS]    = "AUTO_ACQ_GPS",
 295:app_statemachine.c ****     [AUTO_ACQ_SPIRAL] = "AUTO_ACQ_SPIRAL",
 296:app_statemachine.c ****     [AUTO_TRACKING]   = "AUTO_TRACKING",
 297:app_statemachine.c ****     [AUTO_LOSS]       = "AUTO_LOSS",
 298:app_statemachine.c ****     [AUTO_NO_LOCK]    = "AUTO_NO_LOCK",
 299:app_statemachine.c ****     [ERROR_ACTIVE]    = "ERROR_ACTIVE",
 300:app_statemachine.c **** };
 301:app_statemachine.c **** 
 302:app_statemachine.c **** // Helper for serial monitor.
 303:app_statemachine.c **** const char *app_state_name(state_t s) { return state_names[s]; }
 743              		.loc 1 303 0
 744              		.cfi_startproc
 745              		@ args = 0, pretend = 0, frame = 8
 746              		@ frame_needed = 1, uses_anonymous_args = 0
 747              		@ link register save eliminated.
 748 0000 80B4     		push	{r7}
 749              		.cfi_def_cfa_offset 4
 750              		.cfi_offset 7, -4
 751 0002 83B0     		sub	sp, sp, #12
 752              		.cfi_def_cfa_offset 16
 753 0004 00AF     		add	r7, sp, #0
 754              		.cfi_def_cfa_register 7
 755 0006 0346     		mov	r3, r0
 756 0008 FB71     		strb	r3, [r7, #7]
 757              		.loc 1 303 0
 758 000a FB79     		ldrb	r3, [r7, #7]	@ zero_extendqisi2
 759 000c 034A     		ldr	r2, .L46
 760 000e 52F82330 		ldr	r3, [r2, r3, lsl #2]
 761 0012 1846     		mov	r0, r3
 762 0014 0C37     		adds	r7, r7, #12
 763              		.cfi_def_cfa_offset 4
 764 0016 BD46     		mov	sp, r7
 765              		.cfi_def_cfa_register 13
 766              		@ sp needed
 767 0018 80BC     		pop	{r7}
 768              		.cfi_restore 7
 769              		.cfi_def_cfa_offset 0
 770 001a 7047     		bx	lr
ARM GAS  C:\Users\yoons\AppData\Local\Temp\ccNhtbdn.s 			page 21


 771              	.L47:
 772              		.align	2
 773              	.L46:
 774 001c 7C020000 		.word	state_names
 775              		.cfi_endproc
 776              	.LFE69:
 777              		.size	app_state_name, .-app_state_name
 778              		.section	.text.app_telem_tick,"ax",%progbits
 779              		.align	2
 780              		.global	app_telem_tick
 781              		.thumb
 782              		.thumb_func
 783              		.type	app_telem_tick, %function
 784              	app_telem_tick:
 785              	.LFB70:
 304:app_statemachine.c **** 
 305:app_statemachine.c **** 
 306:app_statemachine.c **** // %==========================================================================%
 307:app_statemachine.c **** // %                              Telemetry                                   %
 308:app_statemachine.c **** // %==========================================================================%
 309:app_statemachine.c **** void app_telem_tick(app_ctx_t *ctx)
 310:app_statemachine.c **** {
 786              		.loc 1 310 0
 787              		.cfi_startproc
 788              		@ args = 0, pretend = 0, frame = 8
 789              		@ frame_needed = 1, uses_anonymous_args = 0
 790 0000 80B5     		push	{r7, lr}
 791              		.cfi_def_cfa_offset 8
 792              		.cfi_offset 7, -8
 793              		.cfi_offset 14, -4
 794 0002 82B0     		sub	sp, sp, #8
 795              		.cfi_def_cfa_offset 16
 796 0004 00AF     		add	r7, sp, #0
 797              		.cfi_def_cfa_register 7
 798 0006 7860     		str	r0, [r7, #4]
 311:app_statemachine.c ****     // Do the telemetry grabs if gimble connected
 312:app_statemachine.c ****     if (!ctx->gimbal) return;
 799              		.loc 1 312 0
 800 0008 7B68     		ldr	r3, [r7, #4]
 801 000a 1B68     		ldr	r3, [r3]
 802 000c 002B     		cmp	r3, #0
 803 000e 2DD0     		beq	.L52
 313:app_statemachine.c ****     
 314:app_statemachine.c ****     static uint32_t last_hot_ms  = 0u;  // Hot is the Movi status
 315:app_statemachine.c ****     static uint32_t last_link_ms = 0u;  // Cold are all other sensors
 316:app_statemachine.c ****     if (g_tick_ms - last_hot_ms  >= CONTROL_PERIOD_MS) {  //  10 Hz
 804              		.loc 1 316 0
 805 0010 184B     		ldr	r3, .L53
 806 0012 1A68     		ldr	r2, [r3]
 807 0014 184B     		ldr	r3, .L53+4
 808 0016 1B68     		ldr	r3, [r3]
 809 0018 D31A     		subs	r3, r2, r3
 810 001a 632B     		cmp	r3, #99
 811 001c 06D9     		bls	.L51
 317:app_statemachine.c ****         last_hot_ms = g_tick_ms;
 812              		.loc 1 317 0
 813 001e 154B     		ldr	r3, .L53
ARM GAS  C:\Users\yoons\AppData\Local\Temp\ccNhtbdn.s 			page 22


 814 0020 1B68     		ldr	r3, [r3]
 815 0022 154A     		ldr	r2, .L53+4
 816 0024 1360     		str	r3, [r2]
 318:app_statemachine.c ****         telemetry_send_hot_sbc(ctx);
 817              		.loc 1 318 0
 818 0026 7868     		ldr	r0, [r7, #4]
 819 0028 FFF7FEFF 		bl	telemetry_send_hot_sbc
 820              	.L51:
 319:app_statemachine.c ****     }
 320:app_statemachine.c ****     if (g_tick_ms - last_link_ms >= DIAG_PERIOD_MS) {     //  1 Hz
 821              		.loc 1 320 0
 822 002c 114B     		ldr	r3, .L53
 823 002e 1A68     		ldr	r2, [r3]
 824 0030 124B     		ldr	r3, .L53+8
 825 0032 1B68     		ldr	r3, [r3]
 826 0034 D31A     		subs	r3, r2, r3
 827 0036 41F28732 		movw	r2, #4999
 828 003a 9342     		cmp	r3, r2
 829 003c 17D9     		bls	.L48
 321:app_statemachine.c ****         last_link_ms = g_tick_ms;
 830              		.loc 1 321 0
 831 003e 0D4B     		ldr	r3, .L53
 832 0040 1B68     		ldr	r3, [r3]
 833 0042 0E4A     		ldr	r2, .L53+8
 834 0044 1360     		str	r3, [r2]
 322:app_statemachine.c ****         telemetry_send_link_sbc(ctx);  // These each only excecute if scheduled
 835              		.loc 1 322 0
 836 0046 7868     		ldr	r0, [r7, #4]
 837 0048 FFF7FEFF 		bl	telemetry_send_link_sbc
 323:app_statemachine.c ****         telemetry_send_power_sbc(ctx);
 838              		.loc 1 323 0
 839 004c 7868     		ldr	r0, [r7, #4]
 840 004e FFF7FEFF 		bl	telemetry_send_power_sbc
 324:app_statemachine.c ****         telemetry_send_env_sbc(ctx);
 841              		.loc 1 324 0
 842 0052 7868     		ldr	r0, [r7, #4]
 843 0054 FFF7FEFF 		bl	telemetry_send_env_sbc
 325:app_statemachine.c ****         telemetry_send_gps_sbc(ctx);
 844              		.loc 1 325 0
 845 0058 7868     		ldr	r0, [r7, #4]
 846 005a FFF7FEFF 		bl	telemetry_send_gps_sbc
 326:app_statemachine.c ****         telemetry_send_baro_sbc(ctx);
 847              		.loc 1 326 0
 848 005e 7868     		ldr	r0, [r7, #4]
 849 0060 FFF7FEFF 		bl	telemetry_send_baro_sbc
 327:app_statemachine.c ****         telemetry_send_mag_sbc(ctx);
 850              		.loc 1 327 0
 851 0064 7868     		ldr	r0, [r7, #4]
 852 0066 FFF7FEFF 		bl	telemetry_send_mag_sbc
 853 006a 00E0     		b	.L48
 854              	.L52:
 312:app_statemachine.c ****     
 855              		.loc 1 312 0
 856 006c 00BF     		nop
 857              	.L48:
 328:app_statemachine.c ****     }
 329:app_statemachine.c **** }
ARM GAS  C:\Users\yoons\AppData\Local\Temp\ccNhtbdn.s 			page 23


 858              		.loc 1 329 0
 859 006e 0837     		adds	r7, r7, #8
 860              		.cfi_def_cfa_offset 8
 861 0070 BD46     		mov	sp, r7
 862              		.cfi_def_cfa_register 13
 863              		@ sp needed
 864 0072 80BD     		pop	{r7, pc}
 865              	.L54:
 866              		.align	2
 867              	.L53:
 868 0074 00000000 		.word	g_tick_ms
 869 0078 00000000 		.word	last_hot_ms.8381
 870 007c 04000000 		.word	last_link_ms.8382
 871              		.cfi_endproc
 872              	.LFE70:
 873              		.size	app_telem_tick, .-app_telem_tick
 874              		.section	.text.build_defer,"ax",%progbits
 875              		.align	2
 876              		.global	build_defer
 877              		.thumb
 878              		.thumb_func
 879              		.type	build_defer, %function
 880              	build_defer:
 881              	.LFB71:
 330:app_statemachine.c **** 
 331:app_statemachine.c **** // %==========================================================================%
 332:app_statemachine.c **** // %                        Gimbal control packets                            %
 333:app_statemachine.c **** // %==========================================================================%
 334:app_statemachine.c **** void build_defer(const app_ctx_t *ctx, hamfly_control_t *out)
 335:app_statemachine.c **** {
 882              		.loc 1 335 0
 883              		.cfi_startproc
 884              		@ args = 0, pretend = 0, frame = 8
 885              		@ frame_needed = 1, uses_anonymous_args = 0
 886 0000 80B5     		push	{r7, lr}
 887              		.cfi_def_cfa_offset 8
 888              		.cfi_offset 7, -8
 889              		.cfi_offset 14, -4
 890 0002 82B0     		sub	sp, sp, #8
 891              		.cfi_def_cfa_offset 16
 892 0004 00AF     		add	r7, sp, #0
 893              		.cfi_def_cfa_register 7
 894 0006 7860     		str	r0, [r7, #4]
 895 0008 3960     		str	r1, [r7]
 336:app_statemachine.c ****     (void)ctx;
 337:app_statemachine.c ****     memset(out, 0, sizeof *out);          /* DEFER == 0, so this releases */
 896              		.loc 1 337 0
 897 000a 1422     		movs	r2, #20
 898 000c 0021     		movs	r1, #0
 899 000e 3868     		ldr	r0, [r7]
 900 0010 FFF7FEFF 		bl	memset
 338:app_statemachine.c ****     out->pan_mode = HAMFLY_DEFER;
 901              		.loc 1 338 0
 902 0014 3B68     		ldr	r3, [r7]
 903 0016 0022     		movs	r2, #0
 904 0018 1A73     		strb	r2, [r3, #12]
 339:app_statemachine.c ****     out->tilt_mode = HAMFLY_DEFER;
ARM GAS  C:\Users\yoons\AppData\Local\Temp\ccNhtbdn.s 			page 24


 905              		.loc 1 339 0
 906 001a 3B68     		ldr	r3, [r7]
 907 001c 0022     		movs	r2, #0
 908 001e 5A73     		strb	r2, [r3, #13]
 340:app_statemachine.c ****     out->roll_mode = HAMFLY_DEFER;
 909              		.loc 1 340 0
 910 0020 3B68     		ldr	r3, [r7]
 911 0022 0022     		movs	r2, #0
 912 0024 9A73     		strb	r2, [r3, #14]
 341:app_statemachine.c **** }
 913              		.loc 1 341 0
 914 0026 00BF     		nop
 915 0028 0837     		adds	r7, r7, #8
 916              		.cfi_def_cfa_offset 8
 917 002a BD46     		mov	sp, r7
 918              		.cfi_def_cfa_register 13
 919              		@ sp needed
 920 002c 80BD     		pop	{r7, pc}
 921              		.cfi_endproc
 922              	.LFE71:
 923              		.size	build_defer, .-build_defer
 924 002e 00BF     		.section	.text.build_hold,"ax",%progbits
 925              		.align	2
 926              		.global	build_hold
 927              		.thumb
 928              		.thumb_func
 929              		.type	build_hold, %function
 930              	build_hold:
 931              	.LFB72:
 342:app_statemachine.c **** // Active hold at vel=0.
 343:app_statemachine.c **** void build_hold(const app_ctx_t *ctx, hamfly_control_t *out)
 344:app_statemachine.c **** {
 932              		.loc 1 344 0
 933              		.cfi_startproc
 934              		@ args = 0, pretend = 0, frame = 8
 935              		@ frame_needed = 1, uses_anonymous_args = 0
 936 0000 80B5     		push	{r7, lr}
 937              		.cfi_def_cfa_offset 8
 938              		.cfi_offset 7, -8
 939              		.cfi_offset 14, -4
 940 0002 82B0     		sub	sp, sp, #8
 941              		.cfi_def_cfa_offset 16
 942 0004 00AF     		add	r7, sp, #0
 943              		.cfi_def_cfa_register 7
 944 0006 7860     		str	r0, [r7, #4]
 945 0008 3960     		str	r1, [r7]
 345:app_statemachine.c ****     (void)ctx;
 346:app_statemachine.c ****     memset(out, 0, sizeof *out);
 946              		.loc 1 346 0
 947 000a 1422     		movs	r2, #20
 948 000c 0021     		movs	r1, #0
 949 000e 3868     		ldr	r0, [r7]
 950 0010 FFF7FEFF 		bl	memset
 347:app_statemachine.c ****     out->pan_mode  = HAMFLY_RATE;          /* RATE with value 0 == "stay put" */
 951              		.loc 1 347 0
 952 0014 3B68     		ldr	r3, [r7]
 953 0016 0122     		movs	r2, #1
ARM GAS  C:\Users\yoons\AppData\Local\Temp\ccNhtbdn.s 			page 25


 954 0018 1A73     		strb	r2, [r3, #12]
 348:app_statemachine.c ****     out->tilt_mode = HAMFLY_RATE;
 955              		.loc 1 348 0
 956 001a 3B68     		ldr	r3, [r7]
 957 001c 0122     		movs	r2, #1
 958 001e 5A73     		strb	r2, [r3, #13]
 349:app_statemachine.c ****     out->roll_mode = HAMFLY_DEFER;         /* roll has always been deferred here */
 959              		.loc 1 349 0
 960 0020 3B68     		ldr	r3, [r7]
 961 0022 0022     		movs	r2, #0
 962 0024 9A73     		strb	r2, [r3, #14]
 350:app_statemachine.c **** }
 963              		.loc 1 350 0
 964 0026 00BF     		nop
 965 0028 0837     		adds	r7, r7, #8
 966              		.cfi_def_cfa_offset 8
 967 002a BD46     		mov	sp, r7
 968              		.cfi_def_cfa_register 13
 969              		@ sp needed
 970 002c 80BD     		pop	{r7, pc}
 971              		.cfi_endproc
 972              	.LFE72:
 973              		.size	build_hold, .-build_hold
 974 002e 00BF     		.section	.text.app_build_control,"ax",%progbits
 975              		.align	2
 976              		.global	app_build_control
 977              		.thumb
 978              		.thumb_func
 979              		.type	app_build_control, %function
 980              	app_build_control:
 981              	.LFB73:
 351:app_statemachine.c **** 
 352:app_statemachine.c **** // Do build. For states without a build function returns zeroed packet.
 353:app_statemachine.c **** void app_build_control(const app_ctx_t *ctx, hamfly_control_t *out)
 354:app_statemachine.c **** {
 982              		.loc 1 354 0
 983              		.cfi_startproc
 984              		@ args = 0, pretend = 0, frame = 16
 985              		@ frame_needed = 1, uses_anonymous_args = 0
 986 0000 80B5     		push	{r7, lr}
 987              		.cfi_def_cfa_offset 8
 988              		.cfi_offset 7, -8
 989              		.cfi_offset 14, -4
 990 0002 84B0     		sub	sp, sp, #16
 991              		.cfi_def_cfa_offset 24
 992 0004 00AF     		add	r7, sp, #0
 993              		.cfi_def_cfa_register 7
 994 0006 7860     		str	r0, [r7, #4]
 995 0008 3960     		str	r1, [r7]
 355:app_statemachine.c ****     // Nudge overlay: Allow user triggered nudges to supress state building
 356:app_statemachine.c ****     if (ctx->nudge_hold) {
 996              		.loc 1 356 0
 997 000a 7B68     		ldr	r3, [r7, #4]
 998 000c 93F87130 		ldrb	r3, [r3, #113]	@ zero_extendqisi2
 999 0010 002B     		cmp	r3, #0
 1000 0012 04D0     		beq	.L58
 357:app_statemachine.c ****         build_manu_joystick(ctx, out);  // Borrow from MANU
ARM GAS  C:\Users\yoons\AppData\Local\Temp\ccNhtbdn.s 			page 26


 1001              		.loc 1 357 0
 1002 0014 3968     		ldr	r1, [r7]
 1003 0016 7868     		ldr	r0, [r7, #4]
 1004 0018 FFF7FEFF 		bl	build_manu_joystick
 358:app_statemachine.c ****         // TODO: Ensure we return to the correct state.
 359:app_statemachine.c ****         // TODO: Move to utils? Or a less biased name.
 360:app_statemachine.c ****         return;
 1005              		.loc 1 360 0
 1006 001c 12E0     		b	.L57
 1007              	.L58:
 361:app_statemachine.c ****     }
 362:app_statemachine.c ****     
 363:app_statemachine.c ****     // No nudge, build from state
 364:app_statemachine.c ****     build_fn_t f = on_build[ctx->state];
 1008              		.loc 1 364 0
 1009 001e 7B68     		ldr	r3, [r7, #4]
 1010 0020 1B79     		ldrb	r3, [r3, #4]	@ zero_extendqisi2
 1011 0022 1A46     		mov	r2, r3
 1012 0024 094B     		ldr	r3, .L61
 1013 0026 53F82230 		ldr	r3, [r3, r2, lsl #2]
 1014 002a FB60     		str	r3, [r7, #12]
 365:app_statemachine.c ****     if (f)  f(ctx, out);
 1015              		.loc 1 365 0
 1016 002c FB68     		ldr	r3, [r7, #12]
 1017 002e 002B     		cmp	r3, #0
 1018 0030 04D0     		beq	.L60
 1019              		.loc 1 365 0 is_stmt 0 discriminator 1
 1020 0032 FB68     		ldr	r3, [r7, #12]
 1021 0034 3968     		ldr	r1, [r7]
 1022 0036 7868     		ldr	r0, [r7, #4]
 1023 0038 9847     		blx	r3
 1024 003a 03E0     		b	.L57
 1025              	.L60:
 366:app_statemachine.c ****     else    build_defer(ctx, out);  // Safe default.
 1026              		.loc 1 366 0 is_stmt 1
 1027 003c 3968     		ldr	r1, [r7]
 1028 003e 7868     		ldr	r0, [r7, #4]
 1029 0040 FFF7FEFF 		bl	build_defer
 1030              	.L57:
 367:app_statemachine.c **** }
 1031              		.loc 1 367 0
 1032 0044 1037     		adds	r7, r7, #16
 1033              		.cfi_def_cfa_offset 8
 1034 0046 BD46     		mov	sp, r7
 1035              		.cfi_def_cfa_register 13
 1036              		@ sp needed
 1037 0048 80BD     		pop	{r7, pc}
 1038              	.L62:
 1039 004a 00BF     		.align	2
 1040              	.L61:
 1041 004c 24010000 		.word	on_build
 1042              		.cfi_endproc
 1043              	.LFE73:
 1044              		.size	app_build_control, .-app_build_control
 1045              		.section	.rodata
 1046              		.align	2
 1047              	.LC20:
ARM GAS  C:\Users\yoons\AppData\Local\Temp\ccNhtbdn.s 			page 27


 1048 02c0 6E6F2067 		.ascii	"no gimbal handle\000"
 1048      696D6261 
 1048      6C206861 
 1048      6E646C65 
 1048      00
 1049 02d1 000000   		.align	2
 1050              	.LC21:
 1051 02d4 6E6F2074 		.ascii	"no telemetry (origin not set)\000"
 1051      656C656D 
 1051      65747279 
 1051      20286F72 
 1051      6967696E 
 1052 02f2 0000     		.align	2
 1053              	.LC22:
 1054 02f4 0D0A5B4F 		.ascii	"\015\012[ORIGIN] captured.\015\012\000"
 1054      52494749 
 1054      4E5D2063 
 1054      61707475 
 1054      7265642E 
 1055              		.section	.text.set_origin,"ax",%progbits
 1056              		.align	2
 1057              		.global	set_origin
 1058              		.thumb
 1059              		.thumb_func
 1060              		.type	set_origin, %function
 1061              	set_origin:
 1062              	.LFB74:
 368:app_statemachine.c **** 
 369:app_statemachine.c **** 
 370:app_statemachine.c **** // %==========================================================================%
 371:app_statemachine.c **** // %                        Serial Key dispatch                               %
 372:app_statemachine.c **** // %==========================================================================%
 373:app_statemachine.c **** #define KEY_CTRL_R 0x12  // Reset ASCII code.
 374:app_statemachine.c **** 
 375:app_statemachine.c **** 
 376:app_statemachine.c **** // Capture current attitude and save as origin
 377:app_statemachine.c **** // zero_tilt is a bool which forces the tilt origin to be level
 378:app_statemachine.c **** uint8_t set_origin(app_ctx_t *ctx, uint8_t zero_tilt)
 379:app_statemachine.c **** {
 1063              		.loc 1 379 0
 1064              		.cfi_startproc
 1065              		@ args = 0, pretend = 0, frame = 16
 1066              		@ frame_needed = 1, uses_anonymous_args = 0
 1067 0000 80B5     		push	{r7, lr}
 1068              		.cfi_def_cfa_offset 8
 1069              		.cfi_offset 7, -8
 1070              		.cfi_offset 14, -4
 1071 0002 84B0     		sub	sp, sp, #16
 1072              		.cfi_def_cfa_offset 24
 1073 0004 00AF     		add	r7, sp, #0
 1074              		.cfi_def_cfa_register 7
 1075 0006 7860     		str	r0, [r7, #4]
 1076 0008 0B46     		mov	r3, r1
 1077 000a FB70     		strb	r3, [r7, #3]
 380:app_statemachine.c ****     if (!ctx->gimbal) {
 1078              		.loc 1 380 0
 1079 000c 7B68     		ldr	r3, [r7, #4]
ARM GAS  C:\Users\yoons\AppData\Local\Temp\ccNhtbdn.s 			page 28


 1080 000e 1B68     		ldr	r3, [r3]
 1081 0010 002B     		cmp	r3, #0
 1082 0012 06D1     		bne	.L64
 381:app_statemachine.c ****         app_raise_error(ctx, SEV_USER, "no gimbal handle");
 1083              		.loc 1 381 0
 1084 0014 184A     		ldr	r2, .L70
 1085 0016 0021     		movs	r1, #0
 1086 0018 7868     		ldr	r0, [r7, #4]
 1087 001a FFF7FEFF 		bl	app_raise_error
 382:app_statemachine.c ****         return 0u;
 1088              		.loc 1 382 0
 1089 001e 0023     		movs	r3, #0
 1090 0020 25E0     		b	.L69
 1091              	.L64:
 383:app_statemachine.c ****     }
 384:app_statemachine.c ****     float pan, tilt;
 385:app_statemachine.c ****     if (!gimbal_pan_tilt_deg(ctx, &pan, &tilt)) {
 1092              		.loc 1 385 0
 1093 0022 07F10802 		add	r2, r7, #8
 1094 0026 07F10C03 		add	r3, r7, #12
 1095 002a 1946     		mov	r1, r3
 1096 002c 7868     		ldr	r0, [r7, #4]
 1097 002e FFF7FEFF 		bl	gimbal_pan_tilt_deg
 1098 0032 0346     		mov	r3, r0
 1099 0034 002B     		cmp	r3, #0
 1100 0036 06D1     		bne	.L66
 386:app_statemachine.c ****         app_raise_error(ctx, SEV_USER, "no telemetry (origin not set)");
 1101              		.loc 1 386 0
 1102 0038 104A     		ldr	r2, .L70+4
 1103 003a 0021     		movs	r1, #0
 1104 003c 7868     		ldr	r0, [r7, #4]
 1105 003e FFF7FEFF 		bl	app_raise_error
 387:app_statemachine.c ****         return 0u;
 1106              		.loc 1 387 0
 1107 0042 0023     		movs	r3, #0
 1108 0044 13E0     		b	.L69
 1109              	.L66:
 388:app_statemachine.c ****     }
 389:app_statemachine.c ****     ctx->origin_pan_deg  = pan;
 1110              		.loc 1 389 0
 1111 0046 FA68     		ldr	r2, [r7, #12]	@ float
 1112 0048 7B68     		ldr	r3, [r7, #4]
 1113 004a 9A65     		str	r2, [r3, #88]	@ float
 390:app_statemachine.c ****     ctx->origin_tilt_deg = zero_tilt ? 0.0f : tilt;
 1114              		.loc 1 390 0
 1115 004c FB78     		ldrb	r3, [r7, #3]	@ zero_extendqisi2
 1116 004e 002B     		cmp	r3, #0
 1117 0050 01D1     		bne	.L67
 1118              		.loc 1 390 0 is_stmt 0 discriminator 1
 1119 0052 BB68     		ldr	r3, [r7, #8]	@ float
 1120 0054 01E0     		b	.L68
 1121              	.L67:
 1122              		.loc 1 390 0 discriminator 2
 1123 0056 4FF00003 		mov	r3, #0
 1124              	.L68:
 1125              		.loc 1 390 0 discriminator 4
 1126 005a 7A68     		ldr	r2, [r7, #4]
ARM GAS  C:\Users\yoons\AppData\Local\Temp\ccNhtbdn.s 			page 29


 1127 005c D365     		str	r3, [r2, #92]	@ float
 391:app_statemachine.c ****     ctx->origin_set = 1u;
 1128              		.loc 1 391 0 is_stmt 1 discriminator 4
 1129 005e 7B68     		ldr	r3, [r7, #4]
 1130 0060 0122     		movs	r2, #1
 1131 0062 83F86020 		strb	r2, [r3, #96]
 392:app_statemachine.c ****     UART_DEBUG_PutString("\r\n[ORIGIN] captured.\r\n");
 1132              		.loc 1 392 0 discriminator 4
 1133 0066 0648     		ldr	r0, .L70+8
 1134 0068 FFF7FEFF 		bl	dbg_put
 393:app_statemachine.c ****     return 1u;
 1135              		.loc 1 393 0 discriminator 4
 1136 006c 0123     		movs	r3, #1
 1137              	.L69:
 394:app_statemachine.c **** }
 1138              		.loc 1 394 0 discriminator 1
 1139 006e 1846     		mov	r0, r3
 1140 0070 1037     		adds	r7, r7, #16
 1141              		.cfi_def_cfa_offset 8
 1142 0072 BD46     		mov	sp, r7
 1143              		.cfi_def_cfa_register 13
 1144              		@ sp needed
 1145 0074 80BD     		pop	{r7, pc}
 1146              	.L71:
 1147 0076 00BF     		.align	2
 1148              	.L70:
 1149 0078 C0020000 		.word	.LC20
 1150 007c D4020000 		.word	.LC21
 1151 0080 F4020000 		.word	.LC22
 1152              		.cfi_endproc
 1153              	.LFE74:
 1154              		.size	set_origin, .-set_origin
 1155              		.section	.rodata
 1156 030b 00       		.align	2
 1157              	.LC23:
 1158 030c 0D0A2D2D 		.ascii	"\015\012--- keys ---\015\012 1 hold   2 manual     "
 1158      2D206B65 
 1158      7973202D 
 1158      2D2D0D0A 
 1158      20312068 
 1159 0333 20203320 		.ascii	"  3 auto\015\012 x kill   [ set-origin   ? help\015"
 1159      6175746F 
 1159      0D0A2078 
 1159      206B696C 
 1159      6C202020 
 1160 035d 0A206520 		.ascii	"\012 e exit   ] home\015\012 (in MANU) numpad/ijkl/"
 1160      65786974 
 1160      2020205D 
 1160      20686F6D 
 1160      650D0A20 
 1161 0387 77617364 		.ascii	"wasd nudge\015\012\000"
 1161      206E7564 
 1161      67650D0A 
 1161      00
 1162              		.section	.text.print_help,"ax",%progbits
 1163              		.align	2
 1164              		.thumb
ARM GAS  C:\Users\yoons\AppData\Local\Temp\ccNhtbdn.s 			page 30


 1165              		.thumb_func
 1166              		.type	print_help, %function
 1167              	print_help:
 1168              	.LFB75:
 395:app_statemachine.c **** 
 396:app_statemachine.c **** // Serial key menu, for debugging but superceded soon by SBC comms.
 397:app_statemachine.c **** static void print_help(const app_ctx_t *ctx)
 398:app_statemachine.c **** {
 1169              		.loc 1 398 0
 1170              		.cfi_startproc
 1171              		@ args = 0, pretend = 0, frame = 8
 1172              		@ frame_needed = 1, uses_anonymous_args = 0
 1173 0000 80B5     		push	{r7, lr}
 1174              		.cfi_def_cfa_offset 8
 1175              		.cfi_offset 7, -8
 1176              		.cfi_offset 14, -4
 1177 0002 82B0     		sub	sp, sp, #8
 1178              		.cfi_def_cfa_offset 16
 1179 0004 00AF     		add	r7, sp, #0
 1180              		.cfi_def_cfa_register 7
 1181 0006 7860     		str	r0, [r7, #4]
 399:app_statemachine.c ****     (void)ctx;
 400:app_statemachine.c ****     UART_DEBUG_PutString(
 1182              		.loc 1 400 0
 1183 0008 0348     		ldr	r0, .L73
 1184 000a FFF7FEFF 		bl	dbg_put
 401:app_statemachine.c ****         "\r\n--- keys ---\r\n"
 402:app_statemachine.c ****         " 1 hold   2 manual       3 auto\r\n"
 403:app_statemachine.c ****         " x kill   [ set-origin   ? help\r\n"
 404:app_statemachine.c ****         " e exit   ] home\r\n"
 405:app_statemachine.c ****         " (in MANU) numpad/ijkl/wasd nudge\r\n");
 406:app_statemachine.c **** }
 1185              		.loc 1 406 0
 1186 000e 00BF     		nop
 1187 0010 0837     		adds	r7, r7, #8
 1188              		.cfi_def_cfa_offset 8
 1189 0012 BD46     		mov	sp, r7
 1190              		.cfi_def_cfa_register 13
 1191              		@ sp needed
 1192 0014 80BD     		pop	{r7, pc}
 1193              	.L74:
 1194 0016 00BF     		.align	2
 1195              	.L73:
 1196 0018 0C030000 		.word	.LC23
 1197              		.cfi_endproc
 1198              	.LFE75:
 1199              		.size	print_help, .-print_help
 1200              		.section	.rodata
 1201              		.align	2
 1202              	.LC24:
 1203 0394 0D0A4641 		.ascii	"\015\012FATAL cleared.\015\012\000"
 1203      54414C20 
 1203      636C6561 
 1203      7265642E 
 1203      0D0A00
 1204              		.section	.text.handle_global_key,"ax",%progbits
 1205              		.align	2
ARM GAS  C:\Users\yoons\AppData\Local\Temp\ccNhtbdn.s 			page 31


 1206              		.thumb
 1207              		.thumb_func
 1208              		.type	handle_global_key, %function
 1209              	handle_global_key:
 1210              	.LFB76:
 407:app_statemachine.c **** 
 408:app_statemachine.c **** // Handle global keys in any state.
 409:app_statemachine.c **** static uint8_t handle_global_key(app_ctx_t *ctx, char k)
 410:app_statemachine.c **** {
 1211              		.loc 1 410 0
 1212              		.cfi_startproc
 1213              		@ args = 0, pretend = 0, frame = 8
 1214              		@ frame_needed = 1, uses_anonymous_args = 0
 1215 0000 80B5     		push	{r7, lr}
 1216              		.cfi_def_cfa_offset 8
 1217              		.cfi_offset 7, -8
 1218              		.cfi_offset 14, -4
 1219 0002 82B0     		sub	sp, sp, #8
 1220              		.cfi_def_cfa_offset 16
 1221 0004 00AF     		add	r7, sp, #0
 1222              		.cfi_def_cfa_register 7
 1223 0006 7860     		str	r0, [r7, #4]
 1224 0008 0B46     		mov	r3, r1
 1225 000a FB70     		strb	r3, [r7, #3]
 411:app_statemachine.c ****     switch (k) {
 1226              		.loc 1 411 0
 1227 000c FB78     		ldrb	r3, [r7, #3]	@ zero_extendqisi2
 1228 000e 3F2B     		cmp	r3, #63
 1229 0010 39D0     		beq	.L77
 1230 0012 3F2B     		cmp	r3, #63
 1231 0014 02DC     		bgt	.L78
 1232 0016 122B     		cmp	r3, #18
 1233 0018 05D0     		beq	.L79
 1234 001a 39E0     		b	.L76
 1235              	.L78:
 1236 001c 5B2B     		cmp	r3, #91
 1237 001e 2CD0     		beq	.L80
 1238 0020 782B     		cmp	r3, #120
 1239 0022 1BD0     		beq	.L81
 1240 0024 34E0     		b	.L76
 1241              	.L79:
 412:app_statemachine.c ****         case KEY_CTRL_R:  // Clear FATAL error
 413:app_statemachine.c ****             if (ctx->fatal_latched) {
 1242              		.loc 1 413 0
 1243 0026 7B68     		ldr	r3, [r7, #4]
 1244 0028 1B7E     		ldrb	r3, [r3, #24]	@ zero_extendqisi2
 1245 002a 002B     		cmp	r3, #0
 1246 002c 10D0     		beq	.L82
 414:app_statemachine.c ****                 ctx->fatal_latched = 0u;
 1247              		.loc 1 414 0
 1248 002e 7B68     		ldr	r3, [r7, #4]
 1249 0030 0022     		movs	r2, #0
 1250 0032 1A76     		strb	r2, [r3, #24]
 415:app_statemachine.c ****                 ctx->err_sev = SEV_USER;
 1251              		.loc 1 415 0
 1252 0034 7B68     		ldr	r3, [r7, #4]
 1253 0036 0022     		movs	r2, #0
ARM GAS  C:\Users\yoons\AppData\Local\Temp\ccNhtbdn.s 			page 32


 1254 0038 1A74     		strb	r2, [r3, #16]
 416:app_statemachine.c ****                 ctx->err_msg = NULL;
 1255              		.loc 1 416 0
 1256 003a 7B68     		ldr	r3, [r7, #4]
 1257 003c 0022     		movs	r2, #0
 1258 003e 5A61     		str	r2, [r3, #20]
 417:app_statemachine.c ****                 UART_DEBUG_PutString("\r\nFATAL cleared.\r\n");
 1259              		.loc 1 417 0
 1260 0040 1648     		ldr	r0, .L86
 1261 0042 FFF7FEFF 		bl	dbg_put
 418:app_statemachine.c ****                 app_transition(ctx, STBY_HOLD);
 1262              		.loc 1 418 0
 1263 0046 0621     		movs	r1, #6
 1264 0048 7868     		ldr	r0, [r7, #4]
 1265 004a FFF7FEFF 		bl	app_transition
 1266 004e 03E0     		b	.L83
 1267              	.L82:
 419:app_statemachine.c ****             } else {
 420:app_statemachine.c ****                 app_transition(ctx, STBY_DEFER);
 1268              		.loc 1 420 0
 1269 0050 0521     		movs	r1, #5
 1270 0052 7868     		ldr	r0, [r7, #4]
 1271 0054 FFF7FEFF 		bl	app_transition
 1272              	.L83:
 421:app_statemachine.c ****             }
 422:app_statemachine.c ****             return 1;
 1273              		.loc 1 422 0
 1274 0058 0123     		movs	r3, #1
 1275 005a 1AE0     		b	.L84
 1276              	.L81:
 423:app_statemachine.c ****         case 'x':  // Return to HOLD as a safe state
 424:app_statemachine.c ****             if (ctx->gimbal) hamfly_kill(ctx->gimbal);
 1277              		.loc 1 424 0
 1278 005c 7B68     		ldr	r3, [r7, #4]
 1279 005e 1B68     		ldr	r3, [r3]
 1280 0060 002B     		cmp	r3, #0
 1281 0062 04D0     		beq	.L85
 1282              		.loc 1 424 0 is_stmt 0 discriminator 1
 1283 0064 7B68     		ldr	r3, [r7, #4]
 1284 0066 1B68     		ldr	r3, [r3]
 1285 0068 1846     		mov	r0, r3
 1286 006a FFF7FEFF 		bl	hamfly_kill
 1287              	.L85:
 425:app_statemachine.c ****             app_transition(ctx, STBY_HOLD);
 1288              		.loc 1 425 0 is_stmt 1
 1289 006e 0621     		movs	r1, #6
 1290 0070 7868     		ldr	r0, [r7, #4]
 1291 0072 FFF7FEFF 		bl	app_transition
 426:app_statemachine.c ****             return 1;
 1292              		.loc 1 426 0
 1293 0076 0123     		movs	r3, #1
 1294 0078 0BE0     		b	.L84
 1295              	.L80:
 427:app_statemachine.c ****         case '[':
 428:app_statemachine.c ****             (void)set_origin(ctx, 0u);
 1296              		.loc 1 428 0
 1297 007a 0021     		movs	r1, #0
ARM GAS  C:\Users\yoons\AppData\Local\Temp\ccNhtbdn.s 			page 33


 1298 007c 7868     		ldr	r0, [r7, #4]
 1299 007e FFF7FEFF 		bl	set_origin
 429:app_statemachine.c ****             return 1;
 1300              		.loc 1 429 0
 1301 0082 0123     		movs	r3, #1
 1302 0084 05E0     		b	.L84
 1303              	.L77:
 430:app_statemachine.c ****         case '?':
 431:app_statemachine.c ****             print_help(ctx); 
 1304              		.loc 1 431 0
 1305 0086 7868     		ldr	r0, [r7, #4]
 1306 0088 FFF7FEFF 		bl	print_help
 432:app_statemachine.c ****             return 1;
 1307              		.loc 1 432 0
 1308 008c 0123     		movs	r3, #1
 1309 008e 00E0     		b	.L84
 1310              	.L76:
 433:app_statemachine.c ****         default:  return 0;
 1311              		.loc 1 433 0
 1312 0090 0023     		movs	r3, #0
 1313              	.L84:
 434:app_statemachine.c ****     }
 435:app_statemachine.c **** }
 1314              		.loc 1 435 0
 1315 0092 1846     		mov	r0, r3
 1316 0094 0837     		adds	r7, r7, #8
 1317              		.cfi_def_cfa_offset 8
 1318 0096 BD46     		mov	sp, r7
 1319              		.cfi_def_cfa_register 13
 1320              		@ sp needed
 1321 0098 80BD     		pop	{r7, pc}
 1322              	.L87:
 1323 009a 00BF     		.align	2
 1324              	.L86:
 1325 009c 94030000 		.word	.LC24
 1326              		.cfi_endproc
 1327              	.LFE76:
 1328              		.size	handle_global_key, .-handle_global_key
 1329              		.section	.text.leaf_traps_nav,"ax",%progbits
 1330              		.align	2
 1331              		.thumb
 1332              		.thumb_func
 1333              		.type	leaf_traps_nav, %function
 1334              	leaf_traps_nav:
 1335              	.LFB77:
 436:app_statemachine.c **** 
 437:app_statemachine.c **** static uint8_t leaf_traps_nav(state_t s)
 438:app_statemachine.c **** {
 1336              		.loc 1 438 0
 1337              		.cfi_startproc
 1338              		@ args = 0, pretend = 0, frame = 8
 1339              		@ frame_needed = 1, uses_anonymous_args = 0
 1340              		@ link register save eliminated.
 1341 0000 80B4     		push	{r7}
 1342              		.cfi_def_cfa_offset 4
 1343              		.cfi_offset 7, -4
 1344 0002 83B0     		sub	sp, sp, #12
ARM GAS  C:\Users\yoons\AppData\Local\Temp\ccNhtbdn.s 			page 34


 1345              		.cfi_def_cfa_offset 16
 1346 0004 00AF     		add	r7, sp, #0
 1347              		.cfi_def_cfa_register 7
 1348 0006 0346     		mov	r3, r0
 1349 0008 FB71     		strb	r3, [r7, #7]
 439:app_statemachine.c ****     // Tee following states need to be exited (e) before numerals change state.
 440:app_statemachine.c ****     return (s == MANU_JOYSTICK   ||
 441:app_statemachine.c ****             s == AUTO_HOME       ||
 442:app_statemachine.c ****             s == AUTO_ACQ_GPS    ||
 443:app_statemachine.c ****             s == AUTO_ACQ_SPIRAL ||
 1350              		.loc 1 443 0
 1351 000a FB79     		ldrb	r3, [r7, #7]	@ zero_extendqisi2
 1352 000c 072B     		cmp	r3, #7
 1353 000e 0BD0     		beq	.L89
 440:app_statemachine.c ****             s == AUTO_HOME       ||
 1354              		.loc 1 440 0
 1355 0010 FB79     		ldrb	r3, [r7, #7]	@ zero_extendqisi2
 1356 0012 082B     		cmp	r3, #8
 1357 0014 08D0     		beq	.L89
 441:app_statemachine.c ****             s == AUTO_ACQ_GPS    ||
 1358              		.loc 1 441 0
 1359 0016 FB79     		ldrb	r3, [r7, #7]	@ zero_extendqisi2
 1360 0018 0A2B     		cmp	r3, #10
 1361 001a 05D0     		beq	.L89
 442:app_statemachine.c ****             s == AUTO_ACQ_SPIRAL ||
 1362              		.loc 1 442 0
 1363 001c FB79     		ldrb	r3, [r7, #7]	@ zero_extendqisi2
 1364 001e 0B2B     		cmp	r3, #11
 1365 0020 02D0     		beq	.L89
 1366              		.loc 1 443 0 discriminator 2
 1367 0022 FB79     		ldrb	r3, [r7, #7]	@ zero_extendqisi2
 1368 0024 0C2B     		cmp	r3, #12
 1369 0026 01D1     		bne	.L90
 1370              	.L89:
 1371              		.loc 1 443 0 is_stmt 0 discriminator 1
 1372 0028 0123     		movs	r3, #1
 1373 002a 00E0     		b	.L91
 1374              	.L90:
 1375              		.loc 1 443 0 discriminator 3
 1376 002c 0023     		movs	r3, #0
 1377              	.L91:
 440:app_statemachine.c ****             s == AUTO_HOME       ||
 1378              		.loc 1 440 0 is_stmt 1
 1379 002e DBB2     		uxtb	r3, r3
 444:app_statemachine.c ****             s == AUTO_TRACKING);
 445:app_statemachine.c **** }
 1380              		.loc 1 445 0
 1381 0030 1846     		mov	r0, r3
 1382 0032 0C37     		adds	r7, r7, #12
 1383              		.cfi_def_cfa_offset 4
 1384 0034 BD46     		mov	sp, r7
 1385              		.cfi_def_cfa_register 13
 1386              		@ sp needed
 1387 0036 80BC     		pop	{r7}
 1388              		.cfi_restore 7
 1389              		.cfi_def_cfa_offset 0
 1390 0038 7047     		bx	lr
ARM GAS  C:\Users\yoons\AppData\Local\Temp\ccNhtbdn.s 			page 35


 1391              		.cfi_endproc
 1392              	.LFE77:
 1393              		.size	leaf_traps_nav, .-leaf_traps_nav
 1394 003a 00BF     		.section	.text.handle_nav_key,"ax",%progbits
 1395              		.align	2
 1396              		.thumb
 1397              		.thumb_func
 1398              		.type	handle_nav_key, %function
 1399              	handle_nav_key:
 1400              	.LFB78:
 446:app_statemachine.c **** static uint8_t handle_nav_key(app_ctx_t *ctx, char k)
 447:app_statemachine.c **** {
 1401              		.loc 1 447 0
 1402              		.cfi_startproc
 1403              		@ args = 0, pretend = 0, frame = 8
 1404              		@ frame_needed = 1, uses_anonymous_args = 0
 1405 0000 80B5     		push	{r7, lr}
 1406              		.cfi_def_cfa_offset 8
 1407              		.cfi_offset 7, -8
 1408              		.cfi_offset 14, -4
 1409 0002 82B0     		sub	sp, sp, #8
 1410              		.cfi_def_cfa_offset 16
 1411 0004 00AF     		add	r7, sp, #0
 1412              		.cfi_def_cfa_register 7
 1413 0006 7860     		str	r0, [r7, #4]
 1414 0008 0B46     		mov	r3, r1
 1415 000a FB70     		strb	r3, [r7, #3]
 448:app_statemachine.c ****     // TODO: Add remaining states
 449:app_statemachine.c ****     switch (k) {
 1416              		.loc 1 449 0
 1417 000c FB78     		ldrb	r3, [r7, #3]	@ zero_extendqisi2
 1418 000e 322B     		cmp	r3, #50
 1419 0010 09D0     		beq	.L95
 1420 0012 332B     		cmp	r3, #51
 1421 0014 0DD0     		beq	.L96
 1422 0016 312B     		cmp	r3, #49
 1423 0018 11D1     		bne	.L99
 450:app_statemachine.c ****         case '1': app_transition(ctx, STBY_HOLD);     return 1;
 1424              		.loc 1 450 0
 1425 001a 0621     		movs	r1, #6
 1426 001c 7868     		ldr	r0, [r7, #4]
 1427 001e FFF7FEFF 		bl	app_transition
 1428 0022 0123     		movs	r3, #1
 1429 0024 0CE0     		b	.L98
 1430              	.L95:
 451:app_statemachine.c ****         case '2': app_transition(ctx, MANU_JOYSTICK); return 1;
 1431              		.loc 1 451 0
 1432 0026 0721     		movs	r1, #7
 1433 0028 7868     		ldr	r0, [r7, #4]
 1434 002a FFF7FEFF 		bl	app_transition
 1435 002e 0123     		movs	r3, #1
 1436 0030 06E0     		b	.L98
 1437              	.L96:
 452:app_statemachine.c ****         case '3': app_transition(ctx, AUTO_TRACKING); return 1;
 1438              		.loc 1 452 0
 1439 0032 0C21     		movs	r1, #12
 1440 0034 7868     		ldr	r0, [r7, #4]
ARM GAS  C:\Users\yoons\AppData\Local\Temp\ccNhtbdn.s 			page 36


 1441 0036 FFF7FEFF 		bl	app_transition
 1442 003a 0123     		movs	r3, #1
 1443 003c 00E0     		b	.L98
 1444              	.L99:
 453:app_statemachine.c ****         default:  return 0;
 1445              		.loc 1 453 0
 1446 003e 0023     		movs	r3, #0
 1447              	.L98:
 454:app_statemachine.c ****     }
 455:app_statemachine.c **** }
 1448              		.loc 1 455 0
 1449 0040 1846     		mov	r0, r3
 1450 0042 0837     		adds	r7, r7, #8
 1451              		.cfi_def_cfa_offset 8
 1452 0044 BD46     		mov	sp, r7
 1453              		.cfi_def_cfa_register 13
 1454              		@ sp needed
 1455 0046 80BD     		pop	{r7, pc}
 1456              		.cfi_endproc
 1457              	.LFE78:
 1458              		.size	handle_nav_key, .-handle_nav_key
 1459              		.section	.text.app_dispatch_key,"ax",%progbits
 1460              		.align	2
 1461              		.global	app_dispatch_key
 1462              		.thumb
 1463              		.thumb_func
 1464              		.type	app_dispatch_key, %function
 1465              	app_dispatch_key:
 1466              	.LFB79:
 456:app_statemachine.c **** 
 457:app_statemachine.c **** 
 458:app_statemachine.c **** // % Public key handling entry point %----------------------------------------%
 459:app_statemachine.c **** uint8_t app_dispatch_key(app_ctx_t *ctx, char key)
 460:app_statemachine.c **** {
 1467              		.loc 1 460 0
 1468              		.cfi_startproc
 1469              		@ args = 0, pretend = 0, frame = 16
 1470              		@ frame_needed = 1, uses_anonymous_args = 0
 1471 0000 80B5     		push	{r7, lr}
 1472              		.cfi_def_cfa_offset 8
 1473              		.cfi_offset 7, -8
 1474              		.cfi_offset 14, -4
 1475 0002 84B0     		sub	sp, sp, #16
 1476              		.cfi_def_cfa_offset 24
 1477 0004 00AF     		add	r7, sp, #0
 1478              		.cfi_def_cfa_register 7
 1479 0006 7860     		str	r0, [r7, #4]
 1480 0008 0B46     		mov	r3, r1
 1481 000a FB70     		strb	r3, [r7, #3]
 461:app_statemachine.c ****     if (ctx->state >= STATE_COUNT) return 0;  // Guard on real states
 1482              		.loc 1 461 0
 1483 000c 7B68     		ldr	r3, [r7, #4]
 1484 000e 1B79     		ldrb	r3, [r3, #4]	@ zero_extendqisi2
 1485 0010 102B     		cmp	r3, #16
 1486 0012 01D9     		bls	.L101
 1487              		.loc 1 461 0 is_stmt 0 discriminator 1
 1488 0014 0023     		movs	r3, #0
ARM GAS  C:\Users\yoons\AppData\Local\Temp\ccNhtbdn.s 			page 37


 1489 0016 3DE0     		b	.L102
 1490              	.L101:
 462:app_statemachine.c **** 
 463:app_statemachine.c ****     if (ctx->fatal_latched)  // Lout of if in FATAL error.
 1491              		.loc 1 463 0 is_stmt 1
 1492 0018 7B68     		ldr	r3, [r7, #4]
 1493 001a 1B7E     		ldrb	r3, [r3, #24]	@ zero_extendqisi2
 1494 001c 002B     		cmp	r3, #0
 1495 001e 0BD0     		beq	.L103
 464:app_statemachine.c ****         return (key == KEY_CTRL_R) ? handle_global_key(ctx, key) : 0;
 1496              		.loc 1 464 0
 1497 0020 FB78     		ldrb	r3, [r7, #3]	@ zero_extendqisi2
 1498 0022 122B     		cmp	r3, #18
 1499 0024 06D1     		bne	.L104
 1500              		.loc 1 464 0 is_stmt 0 discriminator 1
 1501 0026 FB78     		ldrb	r3, [r7, #3]	@ zero_extendqisi2
 1502 0028 1946     		mov	r1, r3
 1503 002a 7868     		ldr	r0, [r7, #4]
 1504 002c FFF7FEFF 		bl	handle_global_key
 1505 0030 0346     		mov	r3, r0
 1506 0032 2FE0     		b	.L102
 1507              	.L104:
 1508              		.loc 1 464 0 discriminator 2
 1509 0034 0023     		movs	r3, #0
 1510 0036 2DE0     		b	.L102
 1511              	.L103:
 465:app_statemachine.c **** 
 466:app_statemachine.c ****     if (handle_global_key(ctx, key)) return 1;  // Handle global keys first
 1512              		.loc 1 466 0 is_stmt 1
 1513 0038 FB78     		ldrb	r3, [r7, #3]	@ zero_extendqisi2
 1514 003a 1946     		mov	r1, r3
 1515 003c 7868     		ldr	r0, [r7, #4]
 1516 003e FFF7FEFF 		bl	handle_global_key
 1517 0042 0346     		mov	r3, r0
 1518 0044 002B     		cmp	r3, #0
 1519 0046 01D0     		beq	.L106
 1520              		.loc 1 466 0 is_stmt 0 discriminator 1
 1521 0048 0123     		movs	r3, #1
 1522 004a 23E0     		b	.L102
 1523              	.L106:
 467:app_statemachine.c **** 
 468:app_statemachine.c ****     // Handle per leaf key
 469:app_statemachine.c ****     key_fn_t f = on_key[ctx->state];
 1524              		.loc 1 469 0 is_stmt 1
 1525 004c 7B68     		ldr	r3, [r7, #4]
 1526 004e 1B79     		ldrb	r3, [r3, #4]	@ zero_extendqisi2
 1527 0050 1A46     		mov	r2, r3
 1528 0052 124B     		ldr	r3, .L109
 1529 0054 53F82230 		ldr	r3, [r3, r2, lsl #2]
 1530 0058 FB60     		str	r3, [r7, #12]
 470:app_statemachine.c ****     if (f && f(ctx, key)) return 1;
 1531              		.loc 1 470 0
 1532 005a FB68     		ldr	r3, [r7, #12]
 1533 005c 002B     		cmp	r3, #0
 1534 005e 09D0     		beq	.L107
 1535              		.loc 1 470 0 is_stmt 0 discriminator 1
 1536 0060 FA78     		ldrb	r2, [r7, #3]	@ zero_extendqisi2
ARM GAS  C:\Users\yoons\AppData\Local\Temp\ccNhtbdn.s 			page 38


 1537 0062 FB68     		ldr	r3, [r7, #12]
 1538 0064 1146     		mov	r1, r2
 1539 0066 7868     		ldr	r0, [r7, #4]
 1540 0068 9847     		blx	r3
 1541 006a 0346     		mov	r3, r0
 1542 006c 002B     		cmp	r3, #0
 1543 006e 01D0     		beq	.L107
 1544              		.loc 1 470 0 discriminator 2
 1545 0070 0123     		movs	r3, #1
 1546 0072 0FE0     		b	.L102
 1547              	.L107:
 471:app_statemachine.c ****     
 472:app_statemachine.c ****     // Handle state change numerals unless locked
 473:app_statemachine.c ****     if (!leaf_traps_nav(ctx->state))
 1548              		.loc 1 473 0 is_stmt 1
 1549 0074 7B68     		ldr	r3, [r7, #4]
 1550 0076 1B79     		ldrb	r3, [r3, #4]	@ zero_extendqisi2
 1551 0078 1846     		mov	r0, r3
 1552 007a FFF7FEFF 		bl	leaf_traps_nav
 1553 007e 0346     		mov	r3, r0
 1554 0080 002B     		cmp	r3, #0
 1555 0082 06D1     		bne	.L108
 474:app_statemachine.c ****         return handle_nav_key(ctx, key);
 1556              		.loc 1 474 0
 1557 0084 FB78     		ldrb	r3, [r7, #3]	@ zero_extendqisi2
 1558 0086 1946     		mov	r1, r3
 1559 0088 7868     		ldr	r0, [r7, #4]
 1560 008a FFF7FEFF 		bl	handle_nav_key
 1561 008e 0346     		mov	r3, r0
 1562 0090 00E0     		b	.L102
 1563              	.L108:
 475:app_statemachine.c **** 
 476:app_statemachine.c ****     return 0;
 1564              		.loc 1 476 0
 1565 0092 0023     		movs	r3, #0
 1566              	.L102:
 477:app_statemachine.c **** }
 1567              		.loc 1 477 0
 1568 0094 1846     		mov	r0, r3
 1569 0096 1037     		adds	r7, r7, #16
 1570              		.cfi_def_cfa_offset 8
 1571 0098 BD46     		mov	sp, r7
 1572              		.cfi_def_cfa_register 13
 1573              		@ sp needed
 1574 009a 80BD     		pop	{r7, pc}
 1575              	.L110:
 1576              		.align	2
 1577              	.L109:
 1578 009c E0000000 		.word	on_key
 1579              		.cfi_endproc
 1580              	.LFE79:
 1581              		.size	app_dispatch_key, .-app_dispatch_key
 1582              		.section	.text.sbc_state_is_requestable,"ax",%progbits
 1583              		.align	2
 1584              		.thumb
 1585              		.thumb_func
 1586              		.type	sbc_state_is_requestable, %function
ARM GAS  C:\Users\yoons\AppData\Local\Temp\ccNhtbdn.s 			page 39


 1587              	sbc_state_is_requestable:
 1588              	.LFB80:
 478:app_statemachine.c **** 
 479:app_statemachine.c **** 
 480:app_statemachine.c **** // %==========================================================================%
 481:app_statemachine.c **** // %                        SBC Commands and Control                          %
 482:app_statemachine.c **** // %==========================================================================%
 483:app_statemachine.c **** // Helper - Validate state change request
 484:app_statemachine.c **** static uint8_t sbc_state_is_requestable(uint8_t s)
 485:app_statemachine.c **** {
 1589              		.loc 1 485 0
 1590              		.cfi_startproc
 1591              		@ args = 0, pretend = 0, frame = 8
 1592              		@ frame_needed = 1, uses_anonymous_args = 0
 1593              		@ link register save eliminated.
 1594 0000 80B4     		push	{r7}
 1595              		.cfi_def_cfa_offset 4
 1596              		.cfi_offset 7, -4
 1597 0002 83B0     		sub	sp, sp, #12
 1598              		.cfi_def_cfa_offset 16
 1599 0004 00AF     		add	r7, sp, #0
 1600              		.cfi_def_cfa_register 7
 1601 0006 0346     		mov	r3, r0
 1602 0008 FB71     		strb	r3, [r7, #7]
 486:app_statemachine.c ****     // Not implemented. Should be a state-to-state look up table I think.
 487:app_statemachine.c ****     switch ((state_t)s) {
 1603              		.loc 1 487 0
 1604 000a FB79     		ldrb	r3, [r7, #7]	@ zero_extendqisi2
 1605 000c 063B     		subs	r3, r3, #6
 1606 000e 062B     		cmp	r3, #6
 1607 0010 01D8     		bhi	.L112
 488:app_statemachine.c ****         case STBY_HOLD:
 489:app_statemachine.c ****         case MANU_JOYSTICK:
 490:app_statemachine.c ****         case AUTO_HOME:
 491:app_statemachine.c ****         case AUTO_HOLD:
 492:app_statemachine.c ****         case AUTO_ACQ_GPS:
 493:app_statemachine.c ****         case AUTO_ACQ_SPIRAL:
 494:app_statemachine.c ****         case AUTO_TRACKING:
 495:app_statemachine.c ****             return 1u;
 1608              		.loc 1 495 0
 1609 0012 0123     		movs	r3, #1
 1610 0014 00E0     		b	.L114
 1611              	.L112:
 496:app_statemachine.c ****         case ERROR_KILL:  // Serial only for now
 497:app_statemachine.c ****         default:
 498:app_statemachine.c ****             return 0u;
 1612              		.loc 1 498 0
 1613 0016 0023     		movs	r3, #0
 1614              	.L114:
 499:app_statemachine.c ****     }
 500:app_statemachine.c **** }
 1615              		.loc 1 500 0
 1616 0018 1846     		mov	r0, r3
 1617 001a 0C37     		adds	r7, r7, #12
 1618              		.cfi_def_cfa_offset 4
 1619 001c BD46     		mov	sp, r7
 1620              		.cfi_def_cfa_register 13
ARM GAS  C:\Users\yoons\AppData\Local\Temp\ccNhtbdn.s 			page 40


 1621              		@ sp needed
 1622 001e 80BC     		pop	{r7}
 1623              		.cfi_restore 7
 1624              		.cfi_def_cfa_offset 0
 1625 0020 7047     		bx	lr
 1626              		.cfi_endproc
 1627              	.LFE80:
 1628              		.size	sbc_state_is_requestable, .-sbc_state_is_requestable
 1629              		.section	.text.nudge_allowed_in,"ax",%progbits
 1630              		.align	2
 1631              		.thumb
 1632              		.thumb_func
 1633              		.type	nudge_allowed_in, %function
 1634              	nudge_allowed_in:
 1635              	.LFB81:
 501:app_statemachine.c **** 
 502:app_statemachine.c **** // gate which states are allowed to receive manual nudges from SBC
 503:app_statemachine.c **** static uint8_t nudge_allowed_in(state_t s)
 504:app_statemachine.c **** {
 1636              		.loc 1 504 0
 1637              		.cfi_startproc
 1638              		@ args = 0, pretend = 0, frame = 8
 1639              		@ frame_needed = 1, uses_anonymous_args = 0
 1640              		@ link register save eliminated.
 1641 0000 80B4     		push	{r7}
 1642              		.cfi_def_cfa_offset 4
 1643              		.cfi_offset 7, -4
 1644 0002 83B0     		sub	sp, sp, #12
 1645              		.cfi_def_cfa_offset 16
 1646 0004 00AF     		add	r7, sp, #0
 1647              		.cfi_def_cfa_register 7
 1648 0006 0346     		mov	r3, r0
 1649 0008 FB71     		strb	r3, [r7, #7]
 505:app_statemachine.c ****     switch (s) {
 1650              		.loc 1 505 0
 1651 000a FB79     		ldrb	r3, [r7, #7]	@ zero_extendqisi2
 1652 000c 063B     		subs	r3, r3, #6
 1653 000e 082B     		cmp	r3, #8
 1654 0010 16D8     		bhi	.L116
 1655 0012 01A2     		adr	r2, .L118
 1656 0014 52F823F0 		ldr	pc, [r2, r3, lsl #2]
 1657              		.p2align 2
 1658              	.L118:
 1659 0018 3D000000 		.word	.L117+1
 1660 001c 3D000000 		.word	.L117+1
 1661 0020 41000000 		.word	.L116+1
 1662 0024 3D000000 		.word	.L117+1
 1663 0028 41000000 		.word	.L116+1
 1664 002c 41000000 		.word	.L116+1
 1665 0030 41000000 		.word	.L116+1
 1666 0034 3D000000 		.word	.L117+1
 1667 0038 3D000000 		.word	.L117+1
 1668              		.p2align 1
 1669              	.L117:
 506:app_statemachine.c ****         case STBY_HOLD:
 507:app_statemachine.c ****         case MANU_JOYSTICK:
 508:app_statemachine.c ****         case AUTO_HOLD:
ARM GAS  C:\Users\yoons\AppData\Local\Temp\ccNhtbdn.s 			page 41


 509:app_statemachine.c ****         case AUTO_LOSS:
 510:app_statemachine.c ****         case AUTO_NO_LOCK:
 511:app_statemachine.c ****             return 1u;
 1670              		.loc 1 511 0
 1671 003c 0123     		movs	r3, #1
 1672 003e 00E0     		b	.L119
 1673              	.L116:
 512:app_statemachine.c ****         default:
 513:app_statemachine.c ****             return 0u;
 1674              		.loc 1 513 0
 1675 0040 0023     		movs	r3, #0
 1676              	.L119:
 514:app_statemachine.c ****     }
 515:app_statemachine.c **** }
 1677              		.loc 1 515 0
 1678 0042 1846     		mov	r0, r3
 1679 0044 0C37     		adds	r7, r7, #12
 1680              		.cfi_def_cfa_offset 4
 1681 0046 BD46     		mov	sp, r7
 1682              		.cfi_def_cfa_register 13
 1683              		@ sp needed
 1684 0048 80BC     		pop	{r7}
 1685              		.cfi_restore 7
 1686              		.cfi_def_cfa_offset 0
 1687 004a 7047     		bx	lr
 1688              		.cfi_endproc
 1689              	.LFE81:
 1690              		.size	nudge_allowed_in, .-nudge_allowed_in
 1691              		.section	.text.app_param_get,"ax",%progbits
 1692              		.align	2
 1693              		.global	app_param_get
 1694              		.thumb
 1695              		.thumb_func
 1696              		.type	app_param_get, %function
 1697              	app_param_get:
 1698              	.LFB82:
 516:app_statemachine.c **** 
 517:app_statemachine.c **** // Lookup parameter by id.
 518:app_statemachine.c **** // Return 1 = found and got it.
 519:app_statemachine.c **** // Return 0 = unknown id.
 520:app_statemachine.c **** uint8_t app_param_get(app_ctx_t *ctx, uint8_t id, float *out_value)
 521:app_statemachine.c **** {
 1699              		.loc 1 521 0
 1700              		.cfi_startproc
 1701              		@ args = 0, pretend = 0, frame = 16
 1702              		@ frame_needed = 1, uses_anonymous_args = 0
 1703              		@ link register save eliminated.
 1704 0000 80B4     		push	{r7}
 1705              		.cfi_def_cfa_offset 4
 1706              		.cfi_offset 7, -4
 1707 0002 85B0     		sub	sp, sp, #20
 1708              		.cfi_def_cfa_offset 24
 1709 0004 00AF     		add	r7, sp, #0
 1710              		.cfi_def_cfa_register 7
 1711 0006 F860     		str	r0, [r7, #12]
 1712 0008 0B46     		mov	r3, r1
 1713 000a 7A60     		str	r2, [r7, #4]
ARM GAS  C:\Users\yoons\AppData\Local\Temp\ccNhtbdn.s 			page 42


 1714 000c FB72     		strb	r3, [r7, #11]
 522:app_statemachine.c ****     switch (id) {
 1715              		.loc 1 522 0
 1716 000e FB7A     		ldrb	r3, [r7, #11]	@ zero_extendqisi2
 1717 0010 012B     		cmp	r3, #1
 1718 0012 05D1     		bne	.L124
 523:app_statemachine.c ****         case PARAM_TRACK_KP:
 524:app_statemachine.c ****             *out_value = ctx->track_kp;
 1719              		.loc 1 524 0
 1720 0014 FB68     		ldr	r3, [r7, #12]
 1721 0016 1A6D     		ldr	r2, [r3, #80]	@ float
 1722 0018 7B68     		ldr	r3, [r7, #4]
 1723 001a 1A60     		str	r2, [r3]	@ float
 525:app_statemachine.c ****             return 1u;
 1724              		.loc 1 525 0
 1725 001c 0123     		movs	r3, #1
 1726 001e 00E0     		b	.L123
 1727              	.L124:
 526:app_statemachine.c ****         default:
 527:app_statemachine.c ****             return 0u;
 1728              		.loc 1 527 0
 1729 0020 0023     		movs	r3, #0
 1730              	.L123:
 528:app_statemachine.c ****     }
 529:app_statemachine.c **** }
 1731              		.loc 1 529 0
 1732 0022 1846     		mov	r0, r3
 1733 0024 1437     		adds	r7, r7, #20
 1734              		.cfi_def_cfa_offset 4
 1735 0026 BD46     		mov	sp, r7
 1736              		.cfi_def_cfa_register 13
 1737              		@ sp needed
 1738 0028 80BC     		pop	{r7}
 1739              		.cfi_restore 7
 1740              		.cfi_def_cfa_offset 0
 1741 002a 7047     		bx	lr
 1742              		.cfi_endproc
 1743              	.LFE82:
 1744              		.size	app_param_get, .-app_param_get
 1745              		.global	__aeabi_i2f
 1746              		.global	__aeabi_fdiv
 1747              		.section	.rodata
 1748 03a7 00       		.align	2
 1749              	.LC25:
 1750 03a8 5B534243 		.ascii	"[SBC] nudge ignored (not in MANU)\015\012\000"
 1750      5D206E75 
 1750      64676520 
 1750      69676E6F 
 1750      72656420 
 1751              		.global	__aeabi_f2d
 1752              		.align	2
 1753              	.LC26:
 1754 03cc 5B534243 		.ascii	"[SBC] track_kp = %.6f\015\012\000"
 1754      5D207472 
 1754      61636B5F 
 1754      6B70203D 
 1754      20252E36 
ARM GAS  C:\Users\yoons\AppData\Local\Temp\ccNhtbdn.s 			page 43


 1755              		.align	2
 1756              	.LC27:
 1757 03e4 5B534243 		.ascii	"[SBC] unknown param id=%u\015\012\000"
 1757      5D20756E 
 1757      6B6E6F77 
 1757      6E207061 
 1757      72616D20 
 1758              		.align	2
 1759              	.LC28:
 1760 0400 0D0A5B53 		.ascii	"\015\012[SBC] FATAL cleared.\015\012\000"
 1760      42435D20 
 1760      46415441 
 1760      4C20636C 
 1760      65617265 
 1761 0419 000000   		.align	2
 1762              	.LC29:
 1763 041c 5B534243 		.ascii	"[SBC] invalid state req=%u\015\012\000"
 1763      5D20696E 
 1763      76616C69 
 1763      64207374 
 1763      61746520 
 1764 0439 000000   		.align	2
 1765              	.LC30:
 1766 043c 5B534243 		.ascii	"[SBC] state req -> %s\015\012\000"
 1766      5D207374 
 1766      61746520 
 1766      72657120 
 1766      2D3E2025 
 1767              		.section	.text.app_sbc_tick,"ax",%progbits
 1768              		.align	2
 1769              		.global	app_sbc_tick
 1770              		.thumb
 1771              		.thumb_func
 1772              		.type	app_sbc_tick, %function
 1773              	app_sbc_tick:
 1774              	.LFB83:
 530:app_statemachine.c **** 
 531:app_statemachine.c **** void app_sbc_tick(app_ctx_t *ctx)
 532:app_statemachine.c **** {
 1775              		.loc 1 532 0
 1776              		.cfi_startproc
 1777              		@ args = 0, pretend = 0, frame = 168
 1778              		@ frame_needed = 1, uses_anonymous_args = 0
 1779 0000 90B5     		push	{r4, r7, lr}
 1780              		.cfi_def_cfa_offset 12
 1781              		.cfi_offset 4, -12
 1782              		.cfi_offset 7, -8
 1783              		.cfi_offset 14, -4
 1784 0002 ADB0     		sub	sp, sp, #180
 1785              		.cfi_def_cfa_offset 192
 1786 0004 02AF     		add	r7, sp, #8
 1787              		.cfi_def_cfa 7, 184
 1788 0006 7860     		str	r0, [r7, #4]
 533:app_statemachine.c ****     // TODO: Is this the right flow? The ctx should have a target coord,
 534:app_statemachine.c ****     // when the ISR for the SBC comms triggers it should load a new target 
 535:app_statemachine.c ****     // into the ctx.
 536:app_statemachine.c **** 
ARM GAS  C:\Users\yoons\AppData\Local\Temp\ccNhtbdn.s 			page 44


 537:app_statemachine.c ****     // 1 -> Check for GPS target
 538:app_statemachine.c ****     payload_gps_target_t tgt;
 539:app_statemachine.c ****     if (sbc_get_gps_target(&tgt))
 1789              		.loc 1 539 0
 1790 0008 07F19803 		add	r3, r7, #152
 1791 000c 1846     		mov	r0, r3
 1792 000e FFF7FEFF 		bl	sbc_get_gps_target
 1793 0012 0346     		mov	r3, r0
 1794 0014 002B     		cmp	r3, #0
 1795 0016 17D0     		beq	.L126
 540:app_statemachine.c ****     {
 541:app_statemachine.c ****         ctx->gps_target_lat_raw = tgt.lat_raw;
 1796              		.loc 1 541 0
 1797 0018 D7F89820 		ldr	r2, [r7, #152]
 1798 001c 7B68     		ldr	r3, [r7, #4]
 1799 001e 5A62     		str	r2, [r3, #36]
 542:app_statemachine.c ****         ctx->gps_target_lon_raw = tgt.lon_raw;
 1800              		.loc 1 542 0
 1801 0020 D7F89C20 		ldr	r2, [r7, #156]
 1802 0024 7B68     		ldr	r3, [r7, #4]
 1803 0026 9A62     		str	r2, [r3, #40]
 543:app_statemachine.c ****         ctx->gps_target_alt_mm  = tgt.alt_mm;
 1804              		.loc 1 543 0
 1805 0028 D7F8A020 		ldr	r2, [r7, #160]
 1806 002c 7B68     		ldr	r3, [r7, #4]
 1807 002e DA62     		str	r2, [r3, #44]
 544:app_statemachine.c ****         ctx->gps_target_set     = 1u;
 1808              		.loc 1 544 0
 1809 0030 7B68     		ldr	r3, [r7, #4]
 1810 0032 0122     		movs	r2, #1
 1811 0034 83F83020 		strb	r2, [r3, #48]
 545:app_statemachine.c ****         ctx->gps_new_target     = 1u;   // ACQ_GPS picks this up on next settle
 1812              		.loc 1 545 0
 1813 0038 7B68     		ldr	r3, [r7, #4]
 1814 003a 0122     		movs	r2, #1
 1815 003c 83F83120 		strb	r2, [r3, #49]
 546:app_statemachine.c ****         sbc_send_cmd_ack(PKT_GPS_TARGET, CMD_ACK_OK);
 1816              		.loc 1 546 0
 1817 0040 0021     		movs	r1, #0
 1818 0042 0F20     		movs	r0, #15
 1819 0044 FFF7FEFF 		bl	sbc_send_cmd_ack
 1820              	.L126:
 547:app_statemachine.c ****     }
 548:app_statemachine.c **** 
 549:app_statemachine.c ****     // 2 -> Check for nudge (clamped to soft limits of the origin inside nudge_apply)
 550:app_statemachine.c ****     payload_nudge_t nz;
 551:app_statemachine.c ****     if (sbc_get_nudge(&nz)) {
 1821              		.loc 1 551 0
 1822 0048 07F19403 		add	r3, r7, #148
 1823 004c 1846     		mov	r0, r3
 1824 004e FFF7FEFF 		bl	sbc_get_nudge
 1825 0052 0346     		mov	r3, r0
 1826 0054 002B     		cmp	r3, #0
 1827 0056 2FD0     		beq	.L127
 552:app_statemachine.c ****         if (nudge_allowed_in(ctx->state)) {
 1828              		.loc 1 552 0
 1829 0058 7B68     		ldr	r3, [r7, #4]
ARM GAS  C:\Users\yoons\AppData\Local\Temp\ccNhtbdn.s 			page 45


 1830 005a 1B79     		ldrb	r3, [r3, #4]	@ zero_extendqisi2
 1831 005c 1846     		mov	r0, r3
 1832 005e FFF7FEFF 		bl	nudge_allowed_in
 1833 0062 0346     		mov	r3, r0
 1834 0064 002B     		cmp	r3, #0
 1835 0066 20D0     		beq	.L128
 553:app_statemachine.c ****             nudge_apply(ctx,
 554:app_statemachine.c ****                         (float)nz.dpan_cdeg  / 100.0f,
 1836              		.loc 1 554 0
 1837 0068 B7F99430 		ldrsh	r3, [r7, #148]
 1838 006c 1846     		mov	r0, r3
 1839 006e FFF7FEFF 		bl	__aeabi_i2f
 1840 0072 0346     		mov	r3, r0
 553:app_statemachine.c ****             nudge_apply(ctx,
 1841              		.loc 1 553 0
 1842 0074 7549     		ldr	r1, .L145
 1843 0076 1846     		mov	r0, r3
 1844 0078 FFF7FEFF 		bl	__aeabi_fdiv
 1845 007c 0346     		mov	r3, r0
 1846 007e 1C46     		mov	r4, r3
 555:app_statemachine.c ****                         (float)nz.dtilt_cdeg / 100.0f);
 1847              		.loc 1 555 0
 1848 0080 B7F99630 		ldrsh	r3, [r7, #150]
 1849 0084 1846     		mov	r0, r3
 1850 0086 FFF7FEFF 		bl	__aeabi_i2f
 1851 008a 0346     		mov	r3, r0
 553:app_statemachine.c ****             nudge_apply(ctx,
 1852              		.loc 1 553 0
 1853 008c 6F49     		ldr	r1, .L145
 1854 008e 1846     		mov	r0, r3
 1855 0090 FFF7FEFF 		bl	__aeabi_fdiv
 1856 0094 0346     		mov	r3, r0
 1857 0096 1A46     		mov	r2, r3
 1858 0098 2146     		mov	r1, r4
 1859 009a 7868     		ldr	r0, [r7, #4]
 1860 009c FFF7FEFF 		bl	nudge_apply
 556:app_statemachine.c ****             sbc_send_cmd_ack(PKT_NUDGE, CMD_ACK_OK);
 1861              		.loc 1 556 0
 1862 00a0 0021     		movs	r1, #0
 1863 00a2 1120     		movs	r0, #17
 1864 00a4 FFF7FEFF 		bl	sbc_send_cmd_ack
 1865 00a8 06E0     		b	.L127
 1866              	.L128:
 557:app_statemachine.c ****         } else {
 558:app_statemachine.c ****             UART_DEBUG_PutString("[SBC] nudge ignored (not in MANU)\r\n");
 1867              		.loc 1 558 0
 1868 00aa 6948     		ldr	r0, .L145+4
 1869 00ac FFF7FEFF 		bl	dbg_put
 559:app_statemachine.c ****             sbc_send_cmd_ack(PKT_NUDGE, CMD_ACK_REJECTED);
 1870              		.loc 1 559 0
 1871 00b0 0121     		movs	r1, #1
 1872 00b2 1120     		movs	r0, #17
 1873 00b4 FFF7FEFF 		bl	sbc_send_cmd_ack
 1874              	.L127:
 560:app_statemachine.c ****         }
 561:app_statemachine.c ****     }
 562:app_statemachine.c **** 
ARM GAS  C:\Users\yoons\AppData\Local\Temp\ccNhtbdn.s 			page 46


 563:app_statemachine.c ****     // 3 -> Parameter tuning
 564:app_statemachine.c ****     payload_param_t pp;
 565:app_statemachine.c ****     if (sbc_get_param(&pp)) {
 1875              		.loc 1 565 0
 1876 00b8 07F18C03 		add	r3, r7, #140
 1877 00bc 1846     		mov	r0, r3
 1878 00be FFF7FEFF 		bl	sbc_get_param
 1879 00c2 0346     		mov	r3, r0
 1880 00c4 002B     		cmp	r3, #0
 1881 00c6 36D0     		beq	.L129
 1882              	.LBB4:
 566:app_statemachine.c ****         uint8_t result = CMD_ACK_OK;
 1883              		.loc 1 566 0
 1884 00c8 0023     		movs	r3, #0
 1885 00ca 87F8A730 		strb	r3, [r7, #167]
 567:app_statemachine.c ****         switch (pp.id) {
 1886              		.loc 1 567 0
 1887 00ce 97F88C30 		ldrb	r3, [r7, #140]	@ zero_extendqisi2
 1888 00d2 012B     		cmp	r3, #1
 1889 00d4 18D1     		bne	.L143
 568:app_statemachine.c ****             case PARAM_TRACK_KP:
 569:app_statemachine.c ****                 ctx->track_kp = pp.value;
 1890              		.loc 1 569 0
 1891 00d6 D7F89020 		ldr	r2, [r7, #144]	@ float
 1892 00da 7B68     		ldr	r3, [r7, #4]
 1893 00dc 1A65     		str	r2, [r3, #80]	@ float
 1894              	.LBB5:
 570:app_statemachine.c ****                 {
 571:app_statemachine.c ****                     char b[64];
 572:app_statemachine.c ****                     snprintf(b, sizeof b, "[SBC] track_kp = %.6f\r\n",
 573:app_statemachine.c ****                              (double)ctx->track_kp);
 1895              		.loc 1 573 0
 1896 00de 7B68     		ldr	r3, [r7, #4]
 1897 00e0 1B6D     		ldr	r3, [r3, #80]	@ float
 572:app_statemachine.c ****                              (double)ctx->track_kp);
 1898              		.loc 1 572 0
 1899 00e2 1846     		mov	r0, r3
 1900 00e4 FFF7FEFF 		bl	__aeabi_f2d
 1901 00e8 0346     		mov	r3, r0
 1902 00ea 0C46     		mov	r4, r1
 1903 00ec 07F10800 		add	r0, r7, #8
 1904 00f0 CDE90034 		strd	r3, [sp]
 1905 00f4 574A     		ldr	r2, .L145+8
 1906 00f6 4021     		movs	r1, #64
 1907 00f8 FFF7FEFF 		bl	snprintf
 574:app_statemachine.c ****                     UART_DEBUG_PutString(b);
 1908              		.loc 1 574 0
 1909 00fc 07F10803 		add	r3, r7, #8
 1910 0100 1846     		mov	r0, r3
 1911 0102 FFF7FEFF 		bl	dbg_put
 1912              	.LBE5:
 575:app_statemachine.c ****                 }
 576:app_statemachine.c ****                 break;
 1913              		.loc 1 576 0
 1914 0106 10E0     		b	.L132
 1915              	.L143:
 1916              	.LBB6:
ARM GAS  C:\Users\yoons\AppData\Local\Temp\ccNhtbdn.s 			page 47


 577:app_statemachine.c ****             default:
 578:app_statemachine.c ****                 {
 579:app_statemachine.c ****                     char b[64];
 580:app_statemachine.c ****                     snprintf(b, sizeof b, "[SBC] unknown param id=%u\r\n",
 581:app_statemachine.c ****                              (unsigned)pp.id);
 1917              		.loc 1 581 0
 1918 0108 97F88C30 		ldrb	r3, [r7, #140]	@ zero_extendqisi2
 580:app_statemachine.c ****                              (unsigned)pp.id);
 1919              		.loc 1 580 0
 1920 010c 07F10800 		add	r0, r7, #8
 1921 0110 514A     		ldr	r2, .L145+12
 1922 0112 4021     		movs	r1, #64
 1923 0114 FFF7FEFF 		bl	snprintf
 582:app_statemachine.c ****                     UART_DEBUG_PutString(b);
 1924              		.loc 1 582 0
 1925 0118 07F10803 		add	r3, r7, #8
 1926 011c 1846     		mov	r0, r3
 1927 011e FFF7FEFF 		bl	dbg_put
 1928              	.LBE6:
 583:app_statemachine.c ****                 }
 584:app_statemachine.c ****                 result = CMD_ACK_INVALID;
 1929              		.loc 1 584 0
 1930 0122 0223     		movs	r3, #2
 1931 0124 87F8A730 		strb	r3, [r7, #167]
 585:app_statemachine.c ****                 break;
 1932              		.loc 1 585 0
 1933 0128 00BF     		nop
 1934              	.L132:
 586:app_statemachine.c ****         }
 587:app_statemachine.c ****         sbc_send_cmd_ack(PKT_PARAM_SET, result);
 1935              		.loc 1 587 0
 1936 012a 97F8A730 		ldrb	r3, [r7, #167]	@ zero_extendqisi2
 1937 012e 1946     		mov	r1, r3
 1938 0130 1220     		movs	r0, #18
 1939 0132 FFF7FEFF 		bl	sbc_send_cmd_ack
 1940              	.L129:
 1941              	.LBE4:
 588:app_statemachine.c ****     }
 589:app_statemachine.c **** 
 590:app_statemachine.c ****     // 4 -> Capture software origin from current telemetry
 591:app_statemachine.c ****     if (sbc_get_set_origin()) {
 1942              		.loc 1 591 0
 1943 0136 FFF7FEFF 		bl	sbc_get_set_origin
 1944 013a 0346     		mov	r3, r0
 1945 013c 002B     		cmp	r3, #0
 1946 013e 11D0     		beq	.L133
 1947              	.LBB7:
 592:app_statemachine.c ****         uint8_t ok = set_origin(ctx, 0u);  // same path as the '[' key
 1948              		.loc 1 592 0
 1949 0140 0021     		movs	r1, #0
 1950 0142 7868     		ldr	r0, [r7, #4]
 1951 0144 FFF7FEFF 		bl	set_origin
 1952 0148 0346     		mov	r3, r0
 1953 014a 87F8A630 		strb	r3, [r7, #166]
 593:app_statemachine.c ****         sbc_send_cmd_ack(PKT_SET_ORIGIN, ok 
 1954              		.loc 1 593 0
 1955 014e 97F8A630 		ldrb	r3, [r7, #166]	@ zero_extendqisi2
ARM GAS  C:\Users\yoons\AppData\Local\Temp\ccNhtbdn.s 			page 48


 1956 0152 002B     		cmp	r3, #0
 1957 0154 01D0     		beq	.L134
 1958              		.loc 1 593 0 is_stmt 0 discriminator 1
 1959 0156 0023     		movs	r3, #0
 1960 0158 00E0     		b	.L135
 1961              	.L134:
 1962              		.loc 1 593 0 discriminator 2
 1963 015a 0323     		movs	r3, #3
 1964              	.L135:
 1965              		.loc 1 593 0 discriminator 4
 1966 015c 1946     		mov	r1, r3
 1967 015e 1320     		movs	r0, #19
 1968 0160 FFF7FEFF 		bl	sbc_send_cmd_ack
 1969              	.L133:
 1970              	.LBE7:
 594:app_statemachine.c ****                          ? CMD_ACK_OK 
 595:app_statemachine.c ****                          : CMD_ACK_NO_TELEM);
 596:app_statemachine.c ****     }
 597:app_statemachine.c ****     
 598:app_statemachine.c ****     // 5 -> Clear FATAL latch
 599:app_statemachine.c ****     if (sbc_get_fatal_clear()) {
 1971              		.loc 1 599 0 is_stmt 1
 1972 0164 FFF7FEFF 		bl	sbc_get_fatal_clear
 1973 0168 0346     		mov	r3, r0
 1974 016a 002B     		cmp	r3, #0
 1975 016c 17D0     		beq	.L136
 600:app_statemachine.c ****         // Mirrors the Ctrl+R path in app_dispatch_key.
 601:app_statemachine.c ****         if (ctx->fatal_latched) {
 1976              		.loc 1 601 0
 1977 016e 7B68     		ldr	r3, [r7, #4]
 1978 0170 1B7E     		ldrb	r3, [r3, #24]	@ zero_extendqisi2
 1979 0172 002B     		cmp	r3, #0
 1980 0174 0FD0     		beq	.L137
 602:app_statemachine.c ****             ctx->fatal_latched = 0u;
 1981              		.loc 1 602 0
 1982 0176 7B68     		ldr	r3, [r7, #4]
 1983 0178 0022     		movs	r2, #0
 1984 017a 1A76     		strb	r2, [r3, #24]
 603:app_statemachine.c ****             ctx->err_sev = SEV_USER;
 1985              		.loc 1 603 0
 1986 017c 7B68     		ldr	r3, [r7, #4]
 1987 017e 0022     		movs	r2, #0
 1988 0180 1A74     		strb	r2, [r3, #16]
 604:app_statemachine.c ****             ctx->err_msg = NULL;
 1989              		.loc 1 604 0
 1990 0182 7B68     		ldr	r3, [r7, #4]
 1991 0184 0022     		movs	r2, #0
 1992 0186 5A61     		str	r2, [r3, #20]
 605:app_statemachine.c ****             UART_DEBUG_PutString("\r\n[SBC] FATAL cleared.\r\n");
 1993              		.loc 1 605 0
 1994 0188 3448     		ldr	r0, .L145+16
 1995 018a FFF7FEFF 		bl	dbg_put
 606:app_statemachine.c ****             app_transition(ctx, STBY_HOLD);
 1996              		.loc 1 606 0
 1997 018e 0621     		movs	r1, #6
 1998 0190 7868     		ldr	r0, [r7, #4]
 1999 0192 FFF7FEFF 		bl	app_transition
ARM GAS  C:\Users\yoons\AppData\Local\Temp\ccNhtbdn.s 			page 49


 2000              	.L137:
 607:app_statemachine.c ****         }
 608:app_statemachine.c ****         sbc_send_cmd_ack(PKT_FATAL_CLEAR, CMD_ACK_OK);
 2001              		.loc 1 608 0
 2002 0196 0021     		movs	r1, #0
 2003 0198 1520     		movs	r0, #21
 2004 019a FFF7FEFF 		bl	sbc_send_cmd_ack
 2005              	.L136:
 609:app_statemachine.c ****     }
 610:app_statemachine.c **** 
 611:app_statemachine.c ****     // 6 -> State change request
 612:app_statemachine.c ****     payload_state_req_t req;
 613:app_statemachine.c ****     if (!sbc_get_state_req(&req)) return;
 2006              		.loc 1 613 0
 2007 019e 07F18803 		add	r3, r7, #136
 2008 01a2 1846     		mov	r0, r3
 2009 01a4 FFF7FEFF 		bl	sbc_get_state_req
 2010 01a8 0346     		mov	r3, r0
 2011 01aa 002B     		cmp	r3, #0
 2012 01ac 49D0     		beq	.L144
 614:app_statemachine.c **** 
 615:app_statemachine.c ****     // Lock out if in FATAL error until ctrl-R.
 616:app_statemachine.c ****     // TODO: SBC needs a way to get out of error state too.
 617:app_statemachine.c ****     if (ctx->fatal_latched)
 2013              		.loc 1 617 0
 2014 01ae 7B68     		ldr	r3, [r7, #4]
 2015 01b0 1B7E     		ldrb	r3, [r3, #24]	@ zero_extendqisi2
 2016 01b2 002B     		cmp	r3, #0
 2017 01b4 06D0     		beq	.L140
 618:app_statemachine.c ****     {
 619:app_statemachine.c ****         sbc_send_state_ack((uint8_t)ctx->state, STATE_ACK_REJECTED);
 2018              		.loc 1 619 0
 2019 01b6 7B68     		ldr	r3, [r7, #4]
 2020 01b8 1B79     		ldrb	r3, [r3, #4]	@ zero_extendqisi2
 2021 01ba 0121     		movs	r1, #1
 2022 01bc 1846     		mov	r0, r3
 2023 01be FFF7FEFF 		bl	sbc_send_state_ack
 620:app_statemachine.c ****         return;
 2024              		.loc 1 620 0
 2025 01c2 3FE0     		b	.L125
 2026              	.L140:
 621:app_statemachine.c ****     }
 622:app_statemachine.c ****     // Validate state change request.
 623:app_statemachine.c ****     if (!sbc_state_is_requestable(req.requested_state))
 2027              		.loc 1 623 0
 2028 01c4 97F88830 		ldrb	r3, [r7, #136]	@ zero_extendqisi2
 2029 01c8 1846     		mov	r0, r3
 2030 01ca FFF7FEFF 		bl	sbc_state_is_requestable
 2031 01ce 0346     		mov	r3, r0
 2032 01d0 002B     		cmp	r3, #0
 2033 01d2 14D1     		bne	.L141
 2034              	.LBB8:
 624:app_statemachine.c ****     {
 625:app_statemachine.c ****         sbc_send_state_ack((uint8_t)ctx->state, STATE_ACK_INVALID);
 2035              		.loc 1 625 0
 2036 01d4 7B68     		ldr	r3, [r7, #4]
 2037 01d6 1B79     		ldrb	r3, [r3, #4]	@ zero_extendqisi2
ARM GAS  C:\Users\yoons\AppData\Local\Temp\ccNhtbdn.s 			page 50


 2038 01d8 0221     		movs	r1, #2
 2039 01da 1846     		mov	r0, r3
 2040 01dc FFF7FEFF 		bl	sbc_send_state_ack
 626:app_statemachine.c ****         char b[64];
 627:app_statemachine.c ****         snprintf(b, sizeof b, "[SBC] invalid state req=%u\r\n",
 628:app_statemachine.c ****                  (unsigned)req.requested_state);
 2041              		.loc 1 628 0
 2042 01e0 97F88830 		ldrb	r3, [r7, #136]	@ zero_extendqisi2
 627:app_statemachine.c ****                  (unsigned)req.requested_state);
 2043              		.loc 1 627 0
 2044 01e4 07F10800 		add	r0, r7, #8
 2045 01e8 1D4A     		ldr	r2, .L145+20
 2046 01ea 4021     		movs	r1, #64
 2047 01ec FFF7FEFF 		bl	snprintf
 629:app_statemachine.c ****         UART_DEBUG_PutString(b);
 2048              		.loc 1 629 0
 2049 01f0 07F10803 		add	r3, r7, #8
 2050 01f4 1846     		mov	r0, r3
 2051 01f6 FFF7FEFF 		bl	dbg_put
 630:app_statemachine.c ****         return;
 2052              		.loc 1 630 0
 2053 01fa 00BF     		nop
 2054 01fc 22E0     		b	.L125
 2055              	.L141:
 2056              	.LBE8:
 631:app_statemachine.c ****     }
 632:app_statemachine.c **** 
 633:app_statemachine.c ****     state_t target = (state_t)req.requested_state;
 2057              		.loc 1 633 0
 2058 01fe 97F88830 		ldrb	r3, [r7, #136]
 2059 0202 87F8A530 		strb	r3, [r7, #165]
 634:app_statemachine.c ****     // Debug serial monitor print.
 635:app_statemachine.c ****     char b[64];
 636:app_statemachine.c ****     snprintf(b, sizeof b, "[SBC] state req -> %s\r\n", app_state_name(target));
 2060              		.loc 1 636 0
 2061 0206 97F8A530 		ldrb	r3, [r7, #165]	@ zero_extendqisi2
 2062 020a 1846     		mov	r0, r3
 2063 020c FFF7FEFF 		bl	app_state_name
 2064 0210 0346     		mov	r3, r0
 2065 0212 07F14800 		add	r0, r7, #72
 2066 0216 134A     		ldr	r2, .L145+24
 2067 0218 4021     		movs	r1, #64
 2068 021a FFF7FEFF 		bl	snprintf
 637:app_statemachine.c ****     UART_DEBUG_PutString(b);
 2069              		.loc 1 637 0
 2070 021e 07F14803 		add	r3, r7, #72
 2071 0222 1846     		mov	r0, r3
 2072 0224 FFF7FEFF 		bl	dbg_put
 638:app_statemachine.c ****     // Trigger state change
 639:app_statemachine.c ****     app_transition(ctx, target);
 2073              		.loc 1 639 0
 2074 0228 97F8A530 		ldrb	r3, [r7, #165]	@ zero_extendqisi2
 2075 022c 1946     		mov	r1, r3
 2076 022e 7868     		ldr	r0, [r7, #4]
 2077 0230 FFF7FEFF 		bl	app_transition
 640:app_statemachine.c ****     // Acknowledge on success.
 641:app_statemachine.c ****     sbc_send_state_ack((uint8_t)ctx->state, STATE_ACK_OK);
ARM GAS  C:\Users\yoons\AppData\Local\Temp\ccNhtbdn.s 			page 51


 2078              		.loc 1 641 0
 2079 0234 7B68     		ldr	r3, [r7, #4]
 2080 0236 1B79     		ldrb	r3, [r3, #4]	@ zero_extendqisi2
 2081 0238 0021     		movs	r1, #0
 2082 023a 1846     		mov	r0, r3
 2083 023c FFF7FEFF 		bl	sbc_send_state_ack
 2084 0240 00E0     		b	.L125
 2085              	.L144:
 613:app_statemachine.c **** 
 2086              		.loc 1 613 0
 2087 0242 00BF     		nop
 2088              	.L125:
 642:app_statemachine.c **** }
 2089              		.loc 1 642 0
 2090 0244 AC37     		adds	r7, r7, #172
 2091              		.cfi_def_cfa_offset 12
 2092 0246 BD46     		mov	sp, r7
 2093              		.cfi_def_cfa_register 13
 2094              		@ sp needed
 2095 0248 90BD     		pop	{r4, r7, pc}
 2096              	.L146:
 2097 024a 00BF     		.align	2
 2098              	.L145:
 2099 024c 0000C842 		.word	1120403456
 2100 0250 A8030000 		.word	.LC25
 2101 0254 CC030000 		.word	.LC26
 2102 0258 E4030000 		.word	.LC27
 2103 025c 00040000 		.word	.LC28
 2104 0260 1C040000 		.word	.LC29
 2105 0264 3C040000 		.word	.LC30
 2106              		.cfi_endproc
 2107              	.LFE83:
 2108              		.size	app_sbc_tick, .-app_sbc_tick
 2109              		.bss
 2110              		.align	2
 2111              	last_hot_ms.8381:
 2112 0000 00000000 		.space	4
 2113              		.align	2
 2114              	last_link_ms.8382:
 2115 0004 00000000 		.space	4
 2116              		.text
 2117              	.Letext0:
 2118              		.file 2 "c:\\program files (x86)\\cypress\\psoc creator\\4.4\\psoc creator\\import\\gnu\\arm\\5.4.
 2119              		.file 3 "c:\\program files (x86)\\cypress\\psoc creator\\4.4\\psoc creator\\import\\gnu\\arm\\5.4.
 2120              		.file 4 "..\\..\\..\\HamFlyAPI\\src/hamfly_core_hal.h"
 2121              		.file 5 "..\\..\\..\\HamFlyAPI\\src/hamfly_core_control.h"
 2122              		.file 6 "..\\..\\..\\HamFlyAPI\\src/hamfly_core_telemetry.h"
 2123              		.file 7 "..\\..\\..\\HamFlyAPI\\src/hamfly_comm_rb.h"
 2124              		.file 8 "..\\..\\..\\HamFlyAPI\\src/hamfly_core_gimbal.h"
 2125              		.file 9 "sbc_comms.h"
 2126              		.file 10 "app_ctx.h"
 2127              		.file 11 "Generated_Source\\PSoC5/core_cm3.h"