ARM GAS  C:\Users\yoons\AppData\Local\Temp\cczguO9p.s 			page 1


   1              		.syntax unified
   2              		.cpu cortex-m3
   3              		.fpu softvfp
   4              		.eabi_attribute 20, 1
   5              		.eabi_attribute 21, 1
   6              		.eabi_attribute 23, 3
   7              		.eabi_attribute 24, 1
   8              		.eabi_attribute 25, 1
   9              		.eabi_attribute 26, 1
  10              		.eabi_attribute 30, 6
  11              		.eabi_attribute 34, 1
  12              		.eabi_attribute 18, 4
  13              		.thumb
  14              		.syntax unified
  15              		.file	"app_state_auto.c"
  16              		.text
  17              	.Ltext0:
  18              		.cfi_sections	.debug_frame
  19              		.section	.text.guard_auto_parent,"ax",%progbits
  20              		.align	2
  21              		.global	guard_auto_parent
  22              		.thumb
  23              		.thumb_func
  24              		.type	guard_auto_parent, %function
  25              	guard_auto_parent:
  26              	.LFB64:
  27              		.file 1 "app_state_auto.c"
   1:app_state_auto.c **** /* ========================================
   2:app_state_auto.c ****  *
   3:app_state_auto.c ****  * Copyright Hamish Johnson, 2026
   4:app_state_auto.c ****  * All Rights Reserved
   5:app_state_auto.c ****  * UNPUBLISHED, LICENSED SOFTWARE.
   6:app_state_auto.c ****  *
   7:app_state_auto.c ****  * CONFIDENTIAL AND PROPRIETARY INFORMATION
   8:app_state_auto.c ****  * WHICH IS THE PROPERTY OF 
   9:app_state_auto.c ****  * Quantum Internet Systems Lab (QISL),
  10:app_state_auto.c ****  * Department of Physics, SFU, Canada.
  11:app_state_auto.c ****  *
  12:app_state_auto.c ****  * Author: Hamish Johnson (2026)
  13:app_state_auto.c ****  *
  14:app_state_auto.c ****  * ========================================
  15:app_state_auto.c ****  *
  16:app_state_auto.c ****  * Parent AUTO - For all tracking states.
  17:app_state_auto.c **** */
  18:app_state_auto.c **** 
  19:app_state_auto.c **** #include "app_state_auto.h"
  20:app_state_auto.c **** #include "app_statemachine.h"  // app_transitions and app_raise_error
  21:app_state_auto.c **** #include "hamfly.h"            // telemetry helpers and gimble mode enums
  22:app_state_auto.c **** #include "sbc_comms.h"         // centroid stream getters + counters
  23:app_state_auto.c **** #include "utils.h"             // Euler angles calc
  24:app_state_auto.c **** #include <project.h>           // UART_DEBUG_PutString
  25:app_state_auto.c **** #include <math.h>              // sinf cosf atan2f sqrtf fabsf
  26:app_state_auto.c **** #include <stdio.h>             // snprintf
  27:app_state_auto.c **** 
  28:app_state_auto.c **** extern volatile uint32_t g_tick_ms;
  29:app_state_auto.c **** 
  30:app_state_auto.c **** // GPS Pointing Math %========================================================%
ARM GAS  C:\Users\yoons\AppData\Local\Temp\cczguO9p.s 			page 2


  31:app_state_auto.c **** // Forward declare here, defined below.
  32:app_state_auto.c **** static float gps_bearing_deg (float lat1, float lon1, float lat2, float lon2);
  33:app_state_auto.c **** static float gps_elev_deg    (float lat1, float lon1, float alt1_m,
  34:app_state_auto.c ****                               float lat2, float lon2, float alt2_m);
  35:app_state_auto.c **** static void  gps_start_slew     (app_ctx_t *ctx);
  36:app_state_auto.c **** static void  gps_update_pointing(app_ctx_t *ctx);
  37:app_state_auto.c **** static void  gps_check_settle   (app_ctx_t *ctx);
  38:app_state_auto.c **** 
  39:app_state_auto.c **** // State On-Entry Guards %====================================================%
  40:app_state_auto.c **** uint8_t guard_auto_parent(const app_ctx_t *ctx)
  41:app_state_auto.c **** {
  28              		.loc 1 41 0
  29              		.cfi_startproc
  30              		@ args = 0, pretend = 0, frame = 16
  31              		@ frame_needed = 1, uses_anonymous_args = 0
  32 0000 80B5     		push	{r7, lr}
  33              		.cfi_def_cfa_offset 8
  34              		.cfi_offset 7, -8
  35              		.cfi_offset 14, -4
  36 0002 84B0     		sub	sp, sp, #16
  37              		.cfi_def_cfa_offset 24
  38 0004 00AF     		add	r7, sp, #0
  39              		.cfi_def_cfa_register 7
  40 0006 7860     		str	r0, [r7, #4]
  42:app_state_auto.c ****     // All AUTO states require live telemetry.
  43:app_state_auto.c ****     float p, t;
  44:app_state_auto.c ****     return gimbal_pan_tilt_deg(ctx, &p, &t);
  41              		.loc 1 44 0
  42 0008 07F10802 		add	r2, r7, #8
  43 000c 07F10C03 		add	r3, r7, #12
  44 0010 1946     		mov	r1, r3
  45 0012 7868     		ldr	r0, [r7, #4]
  46 0014 FFF7FEFF 		bl	gimbal_pan_tilt_deg
  47 0018 0346     		mov	r3, r0
  45:app_state_auto.c **** }
  48              		.loc 1 45 0
  49 001a 1846     		mov	r0, r3
  50 001c 1037     		adds	r7, r7, #16
  51              		.cfi_def_cfa_offset 8
  52 001e BD46     		mov	sp, r7
  53              		.cfi_def_cfa_register 13
  54              		@ sp needed
  55 0020 80BD     		pop	{r7, pc}
  56              		.cfi_endproc
  57              	.LFE64:
  58              		.size	guard_auto_parent, .-guard_auto_parent
  59 0022 00BF     		.section	.text.guard_auto_home,"ax",%progbits
  60              		.align	2
  61              		.global	guard_auto_home
  62              		.thumb
  63              		.thumb_func
  64              		.type	guard_auto_home, %function
  65              	guard_auto_home:
  66              	.LFB65:
  46:app_state_auto.c **** 
  47:app_state_auto.c **** uint8_t guard_auto_home(const app_ctx_t *ctx)
  48:app_state_auto.c **** {
ARM GAS  C:\Users\yoons\AppData\Local\Temp\cczguO9p.s 			page 3


  67              		.loc 1 48 0
  68              		.cfi_startproc
  69              		@ args = 0, pretend = 0, frame = 8
  70              		@ frame_needed = 1, uses_anonymous_args = 0
  71              		@ link register save eliminated.
  72 0000 80B4     		push	{r7}
  73              		.cfi_def_cfa_offset 4
  74              		.cfi_offset 7, -4
  75 0002 83B0     		sub	sp, sp, #12
  76              		.cfi_def_cfa_offset 16
  77 0004 00AF     		add	r7, sp, #0
  78              		.cfi_def_cfa_register 7
  79 0006 7860     		str	r0, [r7, #4]
  49:app_state_auto.c ****     // A home origin must be set.
  50:app_state_auto.c ****     return ctx->origin_set;
  80              		.loc 1 50 0
  81 0008 7B68     		ldr	r3, [r7, #4]
  82 000a 93F86030 		ldrb	r3, [r3, #96]	@ zero_extendqisi2
  51:app_state_auto.c **** }
  83              		.loc 1 51 0
  84 000e 1846     		mov	r0, r3
  85 0010 0C37     		adds	r7, r7, #12
  86              		.cfi_def_cfa_offset 4
  87 0012 BD46     		mov	sp, r7
  88              		.cfi_def_cfa_register 13
  89              		@ sp needed
  90 0014 80BC     		pop	{r7}
  91              		.cfi_restore 7
  92              		.cfi_def_cfa_offset 0
  93 0016 7047     		bx	lr
  94              		.cfi_endproc
  95              	.LFE65:
  96              		.size	guard_auto_home, .-guard_auto_home
  97              		.section	.text.guard_auto_acq_gps,"ax",%progbits
  98              		.align	2
  99              		.global	guard_auto_acq_gps
 100              		.thumb
 101              		.thumb_func
 102              		.type	guard_auto_acq_gps, %function
 103              	guard_auto_acq_gps:
 104              	.LFB66:
  52:app_state_auto.c **** 
  53:app_state_auto.c **** uint8_t guard_auto_acq_gps(const app_ctx_t *ctx)
  54:app_state_auto.c **** {
 105              		.loc 1 54 0
 106              		.cfi_startproc
 107              		@ args = 0, pretend = 0, frame = 8
 108              		@ frame_needed = 1, uses_anonymous_args = 0
 109              		@ link register save eliminated.
 110 0000 80B4     		push	{r7}
 111              		.cfi_def_cfa_offset 4
 112              		.cfi_offset 7, -4
 113 0002 83B0     		sub	sp, sp, #12
 114              		.cfi_def_cfa_offset 16
 115 0004 00AF     		add	r7, sp, #0
 116              		.cfi_def_cfa_register 7
 117 0006 7860     		str	r0, [r7, #4]
ARM GAS  C:\Users\yoons\AppData\Local\Temp\cczguO9p.s 			page 4


  55:app_state_auto.c ****     // A target GPS coordinate must be set.
  56:app_state_auto.c ****     return ctx->gps_target_set;
 118              		.loc 1 56 0
 119 0008 7B68     		ldr	r3, [r7, #4]
 120 000a 93F83030 		ldrb	r3, [r3, #48]	@ zero_extendqisi2
  57:app_state_auto.c **** }
 121              		.loc 1 57 0
 122 000e 1846     		mov	r0, r3
 123 0010 0C37     		adds	r7, r7, #12
 124              		.cfi_def_cfa_offset 4
 125 0012 BD46     		mov	sp, r7
 126              		.cfi_def_cfa_register 13
 127              		@ sp needed
 128 0014 80BC     		pop	{r7}
 129              		.cfi_restore 7
 130              		.cfi_def_cfa_offset 0
 131 0016 7047     		bx	lr
 132              		.cfi_endproc
 133              	.LFE66:
 134              		.size	guard_auto_acq_gps, .-guard_auto_acq_gps
 135              		.global	__aeabi_fsub
 136              		.global	__aeabi_fcmplt
 137              		.section	.rodata
 138              		.align	2
 139              	.LC0:
 140 0000 5B415554 		.ascii	"[AUTO_HOME] arrived\015\012\000"
 140      4F5F484F 
 140      4D455D20 
 140      61727269 
 140      7665640D 
 141 0016 0000     		.align	2
 142              	.LC1:
 143 0018 5B415554 		.ascii	"[AUTO_HOLD] centroid -> AUTO_TRACKING\015\012\000"
 143      4F5F484F 
 143      4C445D20 
 143      63656E74 
 143      726F6964 
 144              		.align	2
 145              	.LC2:
 146 0040 5B415554 		.ascii	"[AUTO_HOLD] timeout -> AUTO_ACQ_SPIRAL\015\012\000"
 146      4F5F484F 
 146      4C445D20 
 146      74696D65 
 146      6F757420 
 147 0069 000000   		.align	2
 148              	.LC3:
 149 006c 5B534243 		.ascii	"[SBC:%s] cx=%d cy=%d dt=%u rx=%lu crcErr=%u uartErr"
 149      3A25735D 
 149      2063783D 
 149      25642063 
 149      793D2564 
 150 009f 3D25750D 		.ascii	"=%u\015\012\000"
 150      0A00
 151 00a5 000000   		.align	2
 152              	.LC4:
 153 00a8 5B415554 		.ascii	"[AUTO_TRACKING] centroid lost -> AUTO_LOSS\015\012\000"
 153      4F5F5452 
ARM GAS  C:\Users\yoons\AppData\Local\Temp\cczguO9p.s 			page 5


 153      41434B49 
 153      4E475D20 
 153      63656E74 
 154 00d5 000000   		.align	2
 155              	.LC5:
 156 00d8 5B415554 		.ascii	"[AUTO_LOSS] centroid returned -> AUTO_TRACKING\015\012"
 156      4F5F4C4F 
 156      53535D20 
 156      63656E74 
 156      726F6964 
 157 0108 00       		.ascii	"\000"
 158 0109 000000   		.align	2
 159              	.LC6:
 160 010c 5B415554 		.ascii	"[AUTO_NO_LOCK] auto -> AUTO_ACQ_GPS\015\012\000"
 160      4F5F4E4F 
 160      5F4C4F43 
 160      4B5D2061 
 160      75746F20 
 161              		.section	.text.app_auto_tick,"ax",%progbits
 162              		.align	2
 163              		.global	app_auto_tick
 164              		.thumb
 165              		.thumb_func
 166              		.type	app_auto_tick, %function
 167              	app_auto_tick:
 168              	.LFB67:
  58:app_state_auto.c **** 
  59:app_state_auto.c **** // %==========================================================================%
  60:app_state_auto.c **** // %                          AUTO Tick Handling                              %
  61:app_state_auto.c **** // %==========================================================================%
  62:app_state_auto.c **** // Handles the multi-tick actions of sub-modes such as:
  63:app_state_auto.c **** //  - HOME: Reached within tolerance and steady.
  64:app_state_auto.c **** //  - ACQ_GPS: Recheck for new coordinate at 1Hz, settle.
  65:app_state_auto.c **** //  - TRACKING: Pull freshest centroid, print.
  66:app_state_auto.c **** 
  67:app_state_auto.c **** void app_auto_tick(app_ctx_t *ctx)
  68:app_state_auto.c **** {
 169              		.loc 1 68 0
 170              		.cfi_startproc
 171              		@ args = 0, pretend = 0, frame = 208
 172              		@ frame_needed = 1, uses_anonymous_args = 0
 173 0000 F0B5     		push	{r4, r5, r6, r7, lr}
 174              		.cfi_def_cfa_offset 20
 175              		.cfi_offset 4, -20
 176              		.cfi_offset 5, -16
 177              		.cfi_offset 6, -12
 178              		.cfi_offset 7, -8
 179              		.cfi_offset 14, -4
 180 0002 BBB0     		sub	sp, sp, #236
 181              		.cfi_def_cfa_offset 256
 182 0004 06AF     		add	r7, sp, #24
 183              		.cfi_def_cfa 7, 232
 184 0006 F860     		str	r0, [r7, #12]
  69:app_state_auto.c ****     // AUTO_HOME
  70:app_state_auto.c ****     if (ctx->state == AUTO_HOME && ctx->nudge_hold) {
 185              		.loc 1 70 0
 186 0008 FB68     		ldr	r3, [r7, #12]
ARM GAS  C:\Users\yoons\AppData\Local\Temp\cczguO9p.s 			page 6


 187 000a 1B79     		ldrb	r3, [r3, #4]	@ zero_extendqisi2
 188 000c 082B     		cmp	r3, #8
 189 000e 66D1     		bne	.L8
 190              		.loc 1 70 0 is_stmt 0 discriminator 1
 191 0010 FB68     		ldr	r3, [r7, #12]
 192 0012 93F87130 		ldrb	r3, [r3, #113]	@ zero_extendqisi2
 193 0016 002B     		cmp	r3, #0
 194 0018 61D0     		beq	.L8
 195              	.LBB2:
  71:app_state_auto.c ****         uint32_t elapsed = g_tick_ms - ctx->nudge_start_ms;
 196              		.loc 1 71 0 is_stmt 1
 197 001a BD4B     		ldr	r3, .L44
 198 001c 1A68     		ldr	r2, [r3]
 199 001e FB68     		ldr	r3, [r7, #12]
 200 0020 5B6F     		ldr	r3, [r3, #116]
 201 0022 D31A     		subs	r3, r2, r3
 202 0024 C7F8C830 		str	r3, [r7, #200]
  72:app_state_auto.c ****         if (elapsed >= NUDGE_MIN_DWELL_MS) {
 203              		.loc 1 72 0
 204 0028 D7F8C830 		ldr	r3, [r7, #200]
 205 002c 952B     		cmp	r3, #149
 206 002e 40F26381 		bls	.L38
 207              	.LBB3:
  73:app_state_auto.c ****             float p, t;
  74:app_state_auto.c ****             uint8_t arrived = 0u;
 208              		.loc 1 74 0
 209 0032 0023     		movs	r3, #0
 210 0034 87F8CF30 		strb	r3, [r7, #207]
  75:app_state_auto.c ****             if (gimbal_pan_tilt_deg(ctx, &p, &t))
 211              		.loc 1 75 0
 212 0038 07F1B802 		add	r2, r7, #184
 213 003c 07F1BC03 		add	r3, r7, #188
 214 0040 1946     		mov	r1, r3
 215 0042 F868     		ldr	r0, [r7, #12]
 216 0044 FFF7FEFF 		bl	gimbal_pan_tilt_deg
 217 0048 0346     		mov	r3, r0
 218 004a 002B     		cmp	r3, #0
 219 004c 2AD0     		beq	.L10
  76:app_state_auto.c ****                 arrived = (fabsf(p - ctx->tgt_pan_deg)  < NUDGE_SETTLE_DEG) &&
 220              		.loc 1 76 0
 221 004e D7F8BC20 		ldr	r2, [r7, #188]	@ float
 222 0052 FB68     		ldr	r3, [r7, #12]
 223 0054 D3F88030 		ldr	r3, [r3, #128]	@ float
 224 0058 1946     		mov	r1, r3
 225 005a 1046     		mov	r0, r2
 226 005c FFF7FEFF 		bl	__aeabi_fsub
 227 0060 0346     		mov	r3, r0
 228 0062 23F00043 		bic	r3, r3, #-2147483648
 229 0066 AB49     		ldr	r1, .L44+4
 230 0068 1846     		mov	r0, r3
 231 006a FFF7FEFF 		bl	__aeabi_fcmplt
 232 006e 0346     		mov	r3, r0
 233 0070 002B     		cmp	r3, #0
 234 0072 14D0     		beq	.L11
  77:app_state_auto.c ****                           (fabsf(t - ctx->tgt_tilt_deg) < NUDGE_SETTLE_DEG);
 235              		.loc 1 77 0 discriminator 1
 236 0074 D7F8B820 		ldr	r2, [r7, #184]	@ float
ARM GAS  C:\Users\yoons\AppData\Local\Temp\cczguO9p.s 			page 7


 237 0078 FB68     		ldr	r3, [r7, #12]
 238 007a D3F88430 		ldr	r3, [r3, #132]	@ float
 239 007e 1946     		mov	r1, r3
 240 0080 1046     		mov	r0, r2
 241 0082 FFF7FEFF 		bl	__aeabi_fsub
 242 0086 0346     		mov	r3, r0
 243 0088 23F00043 		bic	r3, r3, #-2147483648
  76:app_state_auto.c ****                 arrived = (fabsf(p - ctx->tgt_pan_deg)  < NUDGE_SETTLE_DEG) &&
 244              		.loc 1 76 0 discriminator 1
 245 008c A149     		ldr	r1, .L44+4
 246 008e 1846     		mov	r0, r3
 247 0090 FFF7FEFF 		bl	__aeabi_fcmplt
 248 0094 0346     		mov	r3, r0
 249 0096 002B     		cmp	r3, #0
 250 0098 01D0     		beq	.L11
  76:app_state_auto.c ****                 arrived = (fabsf(p - ctx->tgt_pan_deg)  < NUDGE_SETTLE_DEG) &&
 251              		.loc 1 76 0 is_stmt 0 discriminator 3
 252 009a 0123     		movs	r3, #1
 253 009c 00E0     		b	.L14
 254              	.L11:
  76:app_state_auto.c ****                 arrived = (fabsf(p - ctx->tgt_pan_deg)  < NUDGE_SETTLE_DEG) &&
 255              		.loc 1 76 0 discriminator 4
 256 009e 0023     		movs	r3, #0
 257              	.L14:
  76:app_state_auto.c ****                 arrived = (fabsf(p - ctx->tgt_pan_deg)  < NUDGE_SETTLE_DEG) &&
 258              		.loc 1 76 0 discriminator 6
 259 00a0 87F8CF30 		strb	r3, [r7, #207]
 260              	.L10:
  78:app_state_auto.c ****             if (arrived || elapsed >= NUDGE_TIMEOUT_MS) {
 261              		.loc 1 78 0 is_stmt 1
 262 00a4 97F8CF30 		ldrb	r3, [r7, #207]	@ zero_extendqisi2
 263 00a8 002B     		cmp	r3, #0
 264 00aa 05D1     		bne	.L15
 265              		.loc 1 78 0 is_stmt 0 discriminator 1
 266 00ac D7F8C830 		ldr	r3, [r7, #200]
 267 00b0 B3F5FA6F 		cmp	r3, #2000
 268 00b4 C0F02081 		bcc	.L38
 269              	.L15:
 270              	.LBB4:
  79:app_state_auto.c ****                 UART_DEBUG_PutString("[AUTO_HOME] arrived\r\n");
 271              		.loc 1 79 0 is_stmt 1
 272 00b8 9748     		ldr	r0, .L44+8
 273 00ba FFF7FEFF 		bl	dbg_put
  80:app_state_auto.c ****                 state_t dest = ctx->home_return_stby ? STBY_HOLD : AUTO_HOLD;
 274              		.loc 1 80 0
 275 00be FB68     		ldr	r3, [r7, #12]
 276 00c0 DB79     		ldrb	r3, [r3, #7]	@ zero_extendqisi2
 277 00c2 002B     		cmp	r3, #0
 278 00c4 01D0     		beq	.L17
 279              		.loc 1 80 0 is_stmt 0 discriminator 1
 280 00c6 0623     		movs	r3, #6
 281 00c8 00E0     		b	.L18
 282              	.L17:
 283              		.loc 1 80 0 discriminator 2
 284 00ca 0923     		movs	r3, #9
 285              	.L18:
 286              		.loc 1 80 0 discriminator 4
ARM GAS  C:\Users\yoons\AppData\Local\Temp\cczguO9p.s 			page 8


 287 00cc 87F8C730 		strb	r3, [r7, #199]
  81:app_state_auto.c ****                 app_transition(ctx, dest);  // -> STBY_HOLD or AUTO_HOLD
 288              		.loc 1 81 0 is_stmt 1 discriminator 4
 289 00d0 97F8C730 		ldrb	r3, [r7, #199]	@ zero_extendqisi2
 290 00d4 1946     		mov	r1, r3
 291 00d6 F868     		ldr	r0, [r7, #12]
 292 00d8 FFF7FEFF 		bl	app_transition
 293              	.LBE4:
 294              	.LBE3:
  82:app_state_auto.c ****             }
  83:app_state_auto.c ****         }
  84:app_state_auto.c ****         return;
 295              		.loc 1 84 0 discriminator 4
 296 00dc 0CE1     		b	.L38
 297              	.L8:
 298              	.LBE2:
  85:app_state_auto.c ****     }
  86:app_state_auto.c ****     
  87:app_state_auto.c ****     // AUTO_HOLD: watch for centroids and wait for timout to spiral search
  88:app_state_auto.c ****     if (ctx->state == AUTO_HOLD) {
 299              		.loc 1 88 0
 300 00de FB68     		ldr	r3, [r7, #12]
 301 00e0 1B79     		ldrb	r3, [r3, #4]	@ zero_extendqisi2
 302 00e2 092B     		cmp	r3, #9
 303 00e4 32D1     		bne	.L20
 304              	.LBB5:
  89:app_state_auto.c ****         payload_centroid_t c;
  90:app_state_auto.c ****         if (sbc_get_centroid(STREAM_COARSE, &c)) {
 305              		.loc 1 90 0
 306 00e6 07F1AC03 		add	r3, r7, #172
 307 00ea 1946     		mov	r1, r3
 308 00ec 0020     		movs	r0, #0
 309 00ee FFF7FEFF 		bl	sbc_get_centroid
 310 00f2 0346     		mov	r3, r0
 311 00f4 002B     		cmp	r3, #0
 312 00f6 11D0     		beq	.L21
  91:app_state_auto.c ****             ctx->track_cx_last = c.cx;
 313              		.loc 1 91 0
 314 00f8 B7F9B020 		ldrsh	r2, [r7, #176]
 315 00fc FB68     		ldr	r3, [r7, #12]
 316 00fe A3F85420 		strh	r2, [r3, #84]	@ movhi
  92:app_state_auto.c ****             ctx->track_cy_last = c.cy;
 317              		.loc 1 92 0
 318 0102 B7F9B220 		ldrsh	r2, [r7, #178]
 319 0106 FB68     		ldr	r3, [r7, #12]
 320 0108 A3F85620 		strh	r2, [r3, #86]	@ movhi
  93:app_state_auto.c ****             UART_DEBUG_PutString("[AUTO_HOLD] centroid -> AUTO_TRACKING\r\n");
 321              		.loc 1 93 0
 322 010c 8348     		ldr	r0, .L44+12
 323 010e FFF7FEFF 		bl	dbg_put
  94:app_state_auto.c ****             app_transition(ctx, AUTO_TRACKING);
 324              		.loc 1 94 0
 325 0112 0C21     		movs	r1, #12
 326 0114 F868     		ldr	r0, [r7, #12]
 327 0116 FFF7FEFF 		bl	app_transition
  95:app_state_auto.c ****             return;
 328              		.loc 1 95 0
ARM GAS  C:\Users\yoons\AppData\Local\Temp\cczguO9p.s 			page 9


 329 011a F6E0     		b	.L7
 330              	.L21:
  96:app_state_auto.c ****         }
  97:app_state_auto.c ****         if (ctx->auto_flow &&
 331              		.loc 1 97 0
 332 011c FB68     		ldr	r3, [r7, #12]
 333 011e 9B79     		ldrb	r3, [r3, #6]	@ zero_extendqisi2
 334 0120 002B     		cmp	r3, #0
 335 0122 00F0EB80 		beq	.L39
  98:app_state_auto.c ****             (g_tick_ms - ctx->auto_hold_entry_ms) >= AUTO_HOLD_TO_SPIRAL_MS) {
 336              		.loc 1 98 0 discriminator 1
 337 0126 7A4B     		ldr	r3, .L44
 338 0128 1A68     		ldr	r2, [r3]
 339 012a FB68     		ldr	r3, [r7, #12]
 340 012c 9B68     		ldr	r3, [r3, #8]
 341 012e D31A     		subs	r3, r2, r3
  97:app_state_auto.c ****             (g_tick_ms - ctx->auto_hold_entry_ms) >= AUTO_HOLD_TO_SPIRAL_MS) {
 342              		.loc 1 97 0 discriminator 1
 343 0130 42F20F72 		movw	r2, #9999
 344 0134 9342     		cmp	r3, r2
 345 0136 40F2E180 		bls	.L39
  99:app_state_auto.c ****             UART_DEBUG_PutString("[AUTO_HOLD] timeout -> AUTO_ACQ_SPIRAL\r\n");
 346              		.loc 1 99 0
 347 013a 7948     		ldr	r0, .L44+16
 348 013c FFF7FEFF 		bl	dbg_put
 100:app_state_auto.c ****             app_transition(ctx, AUTO_ACQ_SPIRAL);
 349              		.loc 1 100 0
 350 0140 0B21     		movs	r1, #11
 351 0142 F868     		ldr	r0, [r7, #12]
 352 0144 FFF7FEFF 		bl	app_transition
 101:app_state_auto.c ****         }
 102:app_state_auto.c ****         return;
 353              		.loc 1 102 0
 354 0148 00BF     		nop
 355 014a D7E0     		b	.L39
 356              	.L20:
 357              	.LBE5:
 103:app_state_auto.c ****     }
 104:app_state_auto.c ****     
 105:app_state_auto.c ****     // AUTO_ACQ_GPS
 106:app_state_auto.c ****     // TODO: GPS should go to the set coordinate and settle and stay there,
 107:app_state_auto.c ****     // waiting for centroid packets to arrive for N seconds (0 means wait forever).
 108:app_state_auto.c ****     // If no lock in N seconds, spiral, if lock go to tracking.
 109:app_state_auto.c ****     if (ctx->state == AUTO_ACQ_GPS) {
 358              		.loc 1 109 0
 359 014c FB68     		ldr	r3, [r7, #12]
 360 014e 1B79     		ldrb	r3, [r3, #4]	@ zero_extendqisi2
 361 0150 0A2B     		cmp	r3, #10
 362 0152 18D1     		bne	.L24
 363              	.LBB6:
 110:app_state_auto.c ****         static uint32_t last_pt_ms = 0u;
 111:app_state_auto.c ****         if (g_tick_ms - last_pt_ms >= DIAG_PERIOD_MS) {
 364              		.loc 1 111 0
 365 0154 6E4B     		ldr	r3, .L44
 366 0156 1A68     		ldr	r2, [r3]
 367 0158 724B     		ldr	r3, .L44+20
 368 015a 1B68     		ldr	r3, [r3]
ARM GAS  C:\Users\yoons\AppData\Local\Temp\cczguO9p.s 			page 10


 369 015c D31A     		subs	r3, r2, r3
 370 015e 41F28732 		movw	r2, #4999
 371 0162 9342     		cmp	r3, r2
 372 0164 0BD9     		bls	.L25
 112:app_state_auto.c ****             last_pt_ms = g_tick_ms;
 373              		.loc 1 112 0
 374 0166 6A4B     		ldr	r3, .L44
 375 0168 1B68     		ldr	r3, [r3]
 376 016a 6E4A     		ldr	r2, .L44+20
 377 016c 1360     		str	r3, [r2]
 113:app_state_auto.c ****             if (ctx->gps_target_set) gps_update_pointing(ctx);
 378              		.loc 1 113 0
 379 016e FB68     		ldr	r3, [r7, #12]
 380 0170 93F83030 		ldrb	r3, [r3, #48]	@ zero_extendqisi2
 381 0174 002B     		cmp	r3, #0
 382 0176 02D0     		beq	.L25
 383              		.loc 1 113 0 is_stmt 0 discriminator 1
 384 0178 F868     		ldr	r0, [r7, #12]
 385 017a FFF7FEFF 		bl	gps_update_pointing
 386              	.L25:
 114:app_state_auto.c ****         }
 115:app_state_auto.c ****         gps_check_settle(ctx);   // self-throttled to GPS_SETTLE_PERIOD_MS
 387              		.loc 1 115 0 is_stmt 1
 388 017e F868     		ldr	r0, [r7, #12]
 389 0180 FFF7FEFF 		bl	gps_check_settle
 116:app_state_auto.c ****         return;
 390              		.loc 1 116 0
 391 0184 C1E0     		b	.L7
 392              	.L24:
 393              	.LBE6:
 117:app_state_auto.c ****     }
 118:app_state_auto.c **** 
 119:app_state_auto.c ****     // AUTO_TRACKING
 120:app_state_auto.c ****     if (ctx->state == AUTO_TRACKING) {
 394              		.loc 1 120 0
 395 0186 FB68     		ldr	r3, [r7, #12]
 396 0188 1B79     		ldrb	r3, [r3, #4]	@ zero_extendqisi2
 397 018a 0C2B     		cmp	r3, #12
 398 018c 7ED1     		bne	.L26
 399              	.LBB7:
 121:app_state_auto.c ****         uint8_t got_coarse = 0u;
 400              		.loc 1 121 0
 401 018e 0023     		movs	r3, #0
 402 0190 87F8C630 		strb	r3, [r7, #198]
 403              	.LBB8:
 122:app_state_auto.c ****         static const char *tag[STREAM_COUNTS] = { "C", "F" };
 123:app_state_auto.c ****         for (uint8_t s = 0u; s < STREAM_COUNTS; s++) {
 404              		.loc 1 123 0
 405 0194 0023     		movs	r3, #0
 406 0196 87F8CE30 		strb	r3, [r7, #206]
 407 019a 53E0     		b	.L27
 408              	.L31:
 409              	.LBB9:
 124:app_state_auto.c ****             payload_centroid_t c;
 125:app_state_auto.c ****             if (!sbc_get_centroid(s, &c)) continue; // No centroids
 410              		.loc 1 125 0
 411 019c 07F1A002 		add	r2, r7, #160
ARM GAS  C:\Users\yoons\AppData\Local\Temp\cczguO9p.s 			page 11


 412 01a0 97F8CE30 		ldrb	r3, [r7, #206]	@ zero_extendqisi2
 413 01a4 1146     		mov	r1, r2
 414 01a6 1846     		mov	r0, r3
 415 01a8 FFF7FEFF 		bl	sbc_get_centroid
 416 01ac 0346     		mov	r3, r0
 417 01ae 002B     		cmp	r3, #0
 418 01b0 42D0     		beq	.L40
 126:app_state_auto.c ****             if (s == STREAM_COARSE) {               // Read corasecentroid
 419              		.loc 1 126 0
 420 01b2 97F8CE30 		ldrb	r3, [r7, #206]	@ zero_extendqisi2
 421 01b6 002B     		cmp	r3, #0
 422 01b8 0CD1     		bne	.L30
 127:app_state_auto.c ****                 ctx->track_cx_last  = c.cx;
 423              		.loc 1 127 0
 424 01ba B7F9A420 		ldrsh	r2, [r7, #164]
 425 01be FB68     		ldr	r3, [r7, #12]
 426 01c0 A3F85420 		strh	r2, [r3, #84]	@ movhi
 128:app_state_auto.c ****                 ctx->track_cy_last  = c.cy;
 427              		.loc 1 128 0
 428 01c4 B7F9A620 		ldrsh	r2, [r7, #166]
 429 01c8 FB68     		ldr	r3, [r7, #12]
 430 01ca A3F85620 		strh	r2, [r3, #86]	@ movhi
 129:app_state_auto.c ****                 got_coarse = 1u;
 431              		.loc 1 129 0
 432 01ce 0123     		movs	r3, #1
 433 01d0 87F8C630 		strb	r3, [r7, #198]
 434              	.L30:
 130:app_state_auto.c ****             }
 131:app_state_auto.c ****             // Serial debug
 132:app_state_auto.c ****             char b[128];
 133:app_state_auto.c ****             snprintf(b, sizeof b,
 435              		.loc 1 133 0
 436 01d4 97F8CE30 		ldrb	r3, [r7, #206]	@ zero_extendqisi2
 437 01d8 534A     		ldr	r2, .L44+24
 438 01da 52F82340 		ldr	r4, [r2, r3, lsl #2]
 134:app_state_auto.c ****                      "[SBC:%s] cx=%d cy=%d dt=%u rx=%lu crcErr=%u uartErr=%u\r\n",
 135:app_state_auto.c ****                      tag[s], c.cx, c.cy,
 439              		.loc 1 135 0
 440 01de B7F9A430 		ldrsh	r3, [r7, #164]
 133:app_state_auto.c ****                      "[SBC:%s] cx=%d cy=%d dt=%u rx=%lu crcErr=%u uartErr=%u\r\n",
 441              		.loc 1 133 0
 442 01e2 1D46     		mov	r5, r3
 443              		.loc 1 135 0
 444 01e4 B7F9A630 		ldrsh	r3, [r7, #166]
 133:app_state_auto.c ****                      "[SBC:%s] cx=%d cy=%d dt=%u rx=%lu crcErr=%u uartErr=%u\r\n",
 445              		.loc 1 133 0
 446 01e8 1E46     		mov	r6, r3
 136:app_state_auto.c ****                      sbc_last_centroid_dt_ms(s),
 447              		.loc 1 136 0
 448 01ea 97F8CE30 		ldrb	r3, [r7, #206]	@ zero_extendqisi2
 449 01ee 1846     		mov	r0, r3
 450 01f0 FFF7FEFF 		bl	sbc_last_centroid_dt_ms
 451 01f4 0346     		mov	r3, r0
 133:app_state_auto.c ****                      "[SBC:%s] cx=%d cy=%d dt=%u rx=%lu crcErr=%u uartErr=%u\r\n",
 452              		.loc 1 133 0
 453 01f6 BB60     		str	r3, [r7, #8]
 137:app_state_auto.c ****                      (unsigned long)sbc_rx_pkt_count(),
ARM GAS  C:\Users\yoons\AppData\Local\Temp\cczguO9p.s 			page 12


 454              		.loc 1 137 0
 455 01f8 FFF7FEFF 		bl	sbc_rx_pkt_count
 456 01fc 7860     		str	r0, [r7, #4]
 138:app_state_auto.c ****                      sbc_crc_errors(), sbc_uart_errors());
 457              		.loc 1 138 0
 458 01fe FFF7FEFF 		bl	sbc_crc_errors
 459 0202 0346     		mov	r3, r0
 133:app_state_auto.c ****                      "[SBC:%s] cx=%d cy=%d dt=%u rx=%lu crcErr=%u uartErr=%u\r\n",
 460              		.loc 1 133 0
 461 0204 3B60     		str	r3, [r7]
 462              		.loc 1 138 0
 463 0206 FFF7FEFF 		bl	sbc_uart_errors
 464 020a 0346     		mov	r3, r0
 133:app_state_auto.c ****                      "[SBC:%s] cx=%d cy=%d dt=%u rx=%lu crcErr=%u uartErr=%u\r\n",
 465              		.loc 1 133 0
 466 020c 07F11400 		add	r0, r7, #20
 467 0210 0593     		str	r3, [sp, #20]
 468 0212 3A68     		ldr	r2, [r7]
 469 0214 0492     		str	r2, [sp, #16]
 470 0216 7A68     		ldr	r2, [r7, #4]
 471 0218 0392     		str	r2, [sp, #12]
 472 021a BB68     		ldr	r3, [r7, #8]
 473 021c 0293     		str	r3, [sp, #8]
 474 021e 0196     		str	r6, [sp, #4]
 475 0220 0095     		str	r5, [sp]
 476 0222 2346     		mov	r3, r4
 477 0224 414A     		ldr	r2, .L44+28
 478 0226 8021     		movs	r1, #128
 479 0228 FFF7FEFF 		bl	snprintf
 139:app_state_auto.c ****             UART_DEBUG_PutString(b);
 480              		.loc 1 139 0
 481 022c 07F11403 		add	r3, r7, #20
 482 0230 1846     		mov	r0, r3
 483 0232 FFF7FEFF 		bl	dbg_put
 484 0236 00E0     		b	.L29
 485              	.L40:
 125:app_state_auto.c ****             if (s == STREAM_COARSE) {               // Read corasecentroid
 486              		.loc 1 125 0
 487 0238 00BF     		nop
 488              	.L29:
 489              	.LBE9:
 123:app_state_auto.c ****             payload_centroid_t c;
 490              		.loc 1 123 0 discriminator 2
 491 023a 97F8CE30 		ldrb	r3, [r7, #206]	@ zero_extendqisi2
 492 023e 0133     		adds	r3, r3, #1
 493 0240 87F8CE30 		strb	r3, [r7, #206]
 494              	.L27:
 123:app_state_auto.c ****             payload_centroid_t c;
 495              		.loc 1 123 0 is_stmt 0 discriminator 1
 496 0244 97F8CE30 		ldrb	r3, [r7, #206]	@ zero_extendqisi2
 497 0248 012B     		cmp	r3, #1
 498 024a A7D9     		bls	.L31
 499              	.LBE8:
 140:app_state_auto.c ****         }
 141:app_state_auto.c ****         (void)got_coarse;
 142:app_state_auto.c **** 
 143:app_state_auto.c ****         // Loss check: no coarse centroid for TRACKING_LOSS_TIMEOUT_MS -> AUTO_LOSS
ARM GAS  C:\Users\yoons\AppData\Local\Temp\cczguO9p.s 			page 13


 144:app_state_auto.c ****         uint32_t last_c = sbc_last_rx_ms(STREAM_COARSE);
 500              		.loc 1 144 0 is_stmt 1
 501 024c 0020     		movs	r0, #0
 502 024e FFF7FEFF 		bl	sbc_last_rx_ms
 503 0252 C7F8C000 		str	r0, [r7, #192]
 145:app_state_auto.c ****         if (last_c != 0u &&                  // == No packets ever
 504              		.loc 1 145 0
 505 0256 D7F8C030 		ldr	r3, [r7, #192]
 506 025a 002B     		cmp	r3, #0
 507 025c 50D0     		beq	.L41
 146:app_state_auto.c ****             last_c > ctx->state_entry_ms &&  // == At least one centroidand loss.
 508              		.loc 1 146 0 discriminator 1
 509 025e FB68     		ldr	r3, [r7, #12]
 510 0260 DA6E     		ldr	r2, [r3, #108]
 145:app_state_auto.c ****         if (last_c != 0u &&                  // == No packets ever
 511              		.loc 1 145 0 discriminator 1
 512 0262 D7F8C030 		ldr	r3, [r7, #192]
 513 0266 9A42     		cmp	r2, r3
 514 0268 4AD2     		bcs	.L41
 147:app_state_auto.c ****             (g_tick_ms - last_c) >= TRACKING_LOSS_TIMEOUT_MS) {
 515              		.loc 1 147 0
 516 026a 294B     		ldr	r3, .L44
 517 026c 1A68     		ldr	r2, [r3]
 518 026e D7F8C030 		ldr	r3, [r7, #192]
 519 0272 D31A     		subs	r3, r2, r3
 146:app_state_auto.c ****             last_c > ctx->state_entry_ms &&  // == At least one centroidand loss.
 520              		.loc 1 146 0
 521 0274 41F28732 		movw	r2, #4999
 522 0278 9342     		cmp	r3, r2
 523 027a 41D9     		bls	.L41
 148:app_state_auto.c ****             UART_DEBUG_PutString("[AUTO_TRACKING] centroid lost -> AUTO_LOSS\r\n");
 524              		.loc 1 148 0
 525 027c 2C48     		ldr	r0, .L44+32
 526 027e FFF7FEFF 		bl	dbg_put
 149:app_state_auto.c ****             app_transition(ctx, AUTO_LOSS);
 527              		.loc 1 149 0
 528 0282 0D21     		movs	r1, #13
 529 0284 F868     		ldr	r0, [r7, #12]
 530 0286 FFF7FEFF 		bl	app_transition
 150:app_state_auto.c ****         }
 151:app_state_auto.c ****         return;
 531              		.loc 1 151 0
 532 028a 39E0     		b	.L41
 533              	.L26:
 534              	.LBE7:
 152:app_state_auto.c ****     }
 153:app_state_auto.c ****     
 154:app_state_auto.c ****     // AUTO_LOSS: hold and watch for centroids returning
 155:app_state_auto.c ****     if (ctx->state == AUTO_LOSS) {
 535              		.loc 1 155 0
 536 028c FB68     		ldr	r3, [r7, #12]
 537 028e 1B79     		ldrb	r3, [r3, #4]	@ zero_extendqisi2
 538 0290 0D2B     		cmp	r3, #13
 539 0292 1BD1     		bne	.L33
 540              	.LBB10:
 156:app_state_auto.c ****         payload_centroid_t c;
 157:app_state_auto.c ****         if (sbc_get_centroid(STREAM_COARSE, &c)) {
ARM GAS  C:\Users\yoons\AppData\Local\Temp\cczguO9p.s 			page 14


 541              		.loc 1 157 0
 542 0294 07F19403 		add	r3, r7, #148
 543 0298 1946     		mov	r1, r3
 544 029a 0020     		movs	r0, #0
 545 029c FFF7FEFF 		bl	sbc_get_centroid
 546 02a0 0346     		mov	r3, r0
 547 02a2 002B     		cmp	r3, #0
 548 02a4 2ED0     		beq	.L42
 158:app_state_auto.c ****             ctx->track_cx_last = c.cx;
 549              		.loc 1 158 0
 550 02a6 B7F99820 		ldrsh	r2, [r7, #152]
 551 02aa FB68     		ldr	r3, [r7, #12]
 552 02ac A3F85420 		strh	r2, [r3, #84]	@ movhi
 159:app_state_auto.c ****             ctx->track_cy_last = c.cy;
 553              		.loc 1 159 0
 554 02b0 B7F99A20 		ldrsh	r2, [r7, #154]
 555 02b4 FB68     		ldr	r3, [r7, #12]
 556 02b6 A3F85620 		strh	r2, [r3, #86]	@ movhi
 160:app_state_auto.c ****             UART_DEBUG_PutString("[AUTO_LOSS] centroid returned -> AUTO_TRACKING\r\n");
 557              		.loc 1 160 0
 558 02ba 1E48     		ldr	r0, .L44+36
 559 02bc FFF7FEFF 		bl	dbg_put
 161:app_state_auto.c ****             app_transition(ctx, AUTO_TRACKING);
 560              		.loc 1 161 0
 561 02c0 0C21     		movs	r1, #12
 562 02c2 F868     		ldr	r0, [r7, #12]
 563 02c4 FFF7FEFF 		bl	app_transition
 162:app_state_auto.c ****         }
 163:app_state_auto.c ****         return;
 564              		.loc 1 163 0
 565 02c8 00BF     		nop
 566 02ca 1BE0     		b	.L42
 567              	.L33:
 568              	.LBE10:
 164:app_state_auto.c ****     }
 165:app_state_auto.c ****     
 166:app_state_auto.c ****     // AUTO_NO_LOCK: auto flow re-slews; manual flow waits for user.
 167:app_state_auto.c ****     // TODO: WHat if no GPS set? We should go to AUTO_HOLD rather than GPS maybe
 168:app_state_auto.c ****     if (ctx->state == AUTO_NO_LOCK) {
 569              		.loc 1 168 0
 570 02cc FB68     		ldr	r3, [r7, #12]
 571 02ce 1B79     		ldrb	r3, [r3, #4]	@ zero_extendqisi2
 572 02d0 0E2B     		cmp	r3, #14
 573 02d2 1AD1     		bne	.L7
 169:app_state_auto.c ****         if (ctx->auto_flow && ctx->gps_target_set) {
 574              		.loc 1 169 0
 575 02d4 FB68     		ldr	r3, [r7, #12]
 576 02d6 9B79     		ldrb	r3, [r3, #6]	@ zero_extendqisi2
 577 02d8 002B     		cmp	r3, #0
 578 02da 15D0     		beq	.L43
 579              		.loc 1 169 0 is_stmt 0 discriminator 1
 580 02dc FB68     		ldr	r3, [r7, #12]
 581 02de 93F83030 		ldrb	r3, [r3, #48]	@ zero_extendqisi2
 582 02e2 002B     		cmp	r3, #0
 583 02e4 10D0     		beq	.L43
 170:app_state_auto.c ****             UART_DEBUG_PutString("[AUTO_NO_LOCK] auto -> AUTO_ACQ_GPS\r\n");
 584              		.loc 1 170 0 is_stmt 1
ARM GAS  C:\Users\yoons\AppData\Local\Temp\cczguO9p.s 			page 15


 585 02e6 1448     		ldr	r0, .L44+40
 586 02e8 FFF7FEFF 		bl	dbg_put
 171:app_state_auto.c ****             app_transition(ctx, AUTO_ACQ_GPS);
 587              		.loc 1 171 0
 588 02ec 0A21     		movs	r1, #10
 589 02ee F868     		ldr	r0, [r7, #12]
 590 02f0 FFF7FEFF 		bl	app_transition
 172:app_state_auto.c ****         }
 173:app_state_auto.c ****         return;
 591              		.loc 1 173 0
 592 02f4 00BF     		nop
 593 02f6 07E0     		b	.L43
 594              	.L38:
 595              	.LBB11:
  84:app_state_auto.c ****     }
 596              		.loc 1 84 0
 597 02f8 00BF     		nop
 598 02fa 06E0     		b	.L7
 599              	.L39:
 600              	.LBE11:
 601              	.LBB12:
 102:app_state_auto.c ****     }
 602              		.loc 1 102 0
 603 02fc 00BF     		nop
 604 02fe 04E0     		b	.L7
 605              	.L41:
 606              	.LBE12:
 607              	.LBB13:
 151:app_state_auto.c ****     }
 608              		.loc 1 151 0
 609 0300 00BF     		nop
 610 0302 02E0     		b	.L7
 611              	.L42:
 612              	.LBE13:
 613              	.LBB14:
 163:app_state_auto.c ****     }
 614              		.loc 1 163 0
 615 0304 00BF     		nop
 616 0306 00E0     		b	.L7
 617              	.L43:
 618              	.LBE14:
 619              		.loc 1 173 0
 620 0308 00BF     		nop
 621              	.L7:
 174:app_state_auto.c ****     }
 175:app_state_auto.c ****     
 176:app_state_auto.c **** }
 622              		.loc 1 176 0
 623 030a D437     		adds	r7, r7, #212
 624              		.cfi_def_cfa_offset 20
 625 030c BD46     		mov	sp, r7
 626              		.cfi_def_cfa_register 13
 627              		@ sp needed
 628 030e F0BD     		pop	{r4, r5, r6, r7, pc}
 629              	.L45:
 630              		.align	2
 631              	.L44:
ARM GAS  C:\Users\yoons\AppData\Local\Temp\cczguO9p.s 			page 16


 632 0310 00000000 		.word	g_tick_ms
 633 0314 CDCC4C3D 		.word	1028443341
 634 0318 00000000 		.word	.LC0
 635 031c 18000000 		.word	.LC1
 636 0320 40000000 		.word	.LC2
 637 0324 00000000 		.word	last_pt_ms.8177
 638 0328 00000000 		.word	tag.8179
 639 032c 6C000000 		.word	.LC3
 640 0330 A8000000 		.word	.LC4
 641 0334 D8000000 		.word	.LC5
 642 0338 0C010000 		.word	.LC6
 643              		.cfi_endproc
 644              	.LFE67:
 645              		.size	app_auto_tick, .-app_auto_tick
 646              		.section	.rodata
 647 0132 0000     		.align	2
 648              	.LC7:
 649 0134 0D0A5B41 		.ascii	"\015\012[AUTO_HOME] slewing to origin  e=exit\015\012"
 649      55544F5F 
 649      484F4D45 
 649      5D20736C 
 649      6577696E 
 650 015d 3E2000   		.ascii	"> \000"
 651              		.align	2
 652              	.LC8:
 653 0160 6E6F206F 		.ascii	"no origin set (press '[' first)\000"
 653      72696769 
 653      6E207365 
 653      74202870 
 653      72657373 
 654              		.align	2
 655              	.LC9:
 656 0180 6E6F2074 		.ascii	"no telemetry (home aborted)\000"
 656      656C656D 
 656      65747279 
 656      2028686F 
 656      6D652061 
 657              		.section	.text.entry_auto_home,"ax",%progbits
 658              		.align	2
 659              		.global	entry_auto_home
 660              		.thumb
 661              		.thumb_func
 662              		.type	entry_auto_home, %function
 663              	entry_auto_home:
 664              	.LFB68:
 177:app_state_auto.c **** 
 178:app_state_auto.c **** 
 179:app_state_auto.c **** // %==========================================================================%
 180:app_state_auto.c **** // %                              AUTO_HOME                                   %
 181:app_state_auto.c **** // %==========================================================================%
 182:app_state_auto.c **** void entry_auto_home(app_ctx_t *ctx)
 183:app_state_auto.c **** {
 665              		.loc 1 183 0
 666              		.cfi_startproc
 667              		@ args = 0, pretend = 0, frame = 16
 668              		@ frame_needed = 1, uses_anonymous_args = 0
 669 0000 80B5     		push	{r7, lr}
ARM GAS  C:\Users\yoons\AppData\Local\Temp\cczguO9p.s 			page 17


 670              		.cfi_def_cfa_offset 8
 671              		.cfi_offset 7, -8
 672              		.cfi_offset 14, -4
 673 0002 84B0     		sub	sp, sp, #16
 674              		.cfi_def_cfa_offset 24
 675 0004 00AF     		add	r7, sp, #0
 676              		.cfi_def_cfa_register 7
 677 0006 7860     		str	r0, [r7, #4]
 184:app_state_auto.c ****     UART_DEBUG_PutString("\r\n[AUTO_HOME] slewing to origin  e=exit\r\n> ");
 678              		.loc 1 184 0
 679 0008 2048     		ldr	r0, .L51
 680 000a FFF7FEFF 		bl	dbg_put
 185:app_state_auto.c ****     // TODO: Cross verify if this is handled by entry validator.
 186:app_state_auto.c ****     // Error check: Do we have a software origin set?
 187:app_state_auto.c ****     if (!ctx->origin_set) {
 681              		.loc 1 187 0
 682 000e 7B68     		ldr	r3, [r7, #4]
 683 0010 93F86030 		ldrb	r3, [r3, #96]	@ zero_extendqisi2
 684 0014 002B     		cmp	r3, #0
 685 0016 09D1     		bne	.L47
 188:app_state_auto.c ****         app_raise_error(ctx, SEV_USER, "no origin set (press '[' first)");
 686              		.loc 1 188 0
 687 0018 1D4A     		ldr	r2, .L51+4
 688 001a 0021     		movs	r1, #0
 689 001c 7868     		ldr	r0, [r7, #4]
 690 001e FFF7FEFF 		bl	app_raise_error
 189:app_state_auto.c ****         app_transition(ctx, STBY_HOLD);
 691              		.loc 1 189 0
 692 0022 0621     		movs	r1, #6
 693 0024 7868     		ldr	r0, [r7, #4]
 694 0026 FFF7FEFF 		bl	app_transition
 190:app_state_auto.c ****         return;
 695              		.loc 1 190 0
 696 002a 2CE0     		b	.L46
 697              	.L47:
 191:app_state_auto.c ****     }
 192:app_state_auto.c ****     // Error check: Do we have attitude telemetry from gimbal?
 193:app_state_auto.c ****     float pan, tilt;
 194:app_state_auto.c ****     if (!gimbal_pan_tilt_deg(ctx, &pan, &tilt)) {
 698              		.loc 1 194 0
 699 002c 07F10802 		add	r2, r7, #8
 700 0030 07F10C03 		add	r3, r7, #12
 701 0034 1946     		mov	r1, r3
 702 0036 7868     		ldr	r0, [r7, #4]
 703 0038 FFF7FEFF 		bl	gimbal_pan_tilt_deg
 704 003c 0346     		mov	r3, r0
 705 003e 002B     		cmp	r3, #0
 706 0040 09D1     		bne	.L49
 195:app_state_auto.c ****         app_raise_error(ctx, SEV_USER, "no telemetry (home aborted)");
 707              		.loc 1 195 0
 708 0042 144A     		ldr	r2, .L51+8
 709 0044 0021     		movs	r1, #0
 710 0046 7868     		ldr	r0, [r7, #4]
 711 0048 FFF7FEFF 		bl	app_raise_error
 196:app_state_auto.c ****         app_transition(ctx, STBY_HOLD);
 712              		.loc 1 196 0
 713 004c 0621     		movs	r1, #6
ARM GAS  C:\Users\yoons\AppData\Local\Temp\cczguO9p.s 			page 18


 714 004e 7868     		ldr	r0, [r7, #4]
 715 0050 FFF7FEFF 		bl	app_transition
 197:app_state_auto.c ****         return;
 716              		.loc 1 197 0
 717 0054 17E0     		b	.L46
 718              	.L49:
 198:app_state_auto.c ****     }
 199:app_state_auto.c ****     ctx->nudge_base_pan_deg  = pan;  // Init nudge reference
 719              		.loc 1 199 0
 720 0056 FA68     		ldr	r2, [r7, #12]	@ float
 721 0058 7B68     		ldr	r3, [r7, #4]
 722 005a 9A67     		str	r2, [r3, #120]	@ float
 200:app_state_auto.c ****     ctx->nudge_base_tilt_deg = tilt;
 723              		.loc 1 200 0
 724 005c BA68     		ldr	r2, [r7, #8]	@ float
 725 005e 7B68     		ldr	r3, [r7, #4]
 726 0060 DA67     		str	r2, [r3, #124]	@ float
 201:app_state_auto.c ****     ctx->tgt_pan_deg         = ctx->origin_pan_deg;  // TODO: Do we actualy use these??
 727              		.loc 1 201 0
 728 0062 7B68     		ldr	r3, [r7, #4]
 729 0064 9A6D     		ldr	r2, [r3, #88]	@ float
 730 0066 7B68     		ldr	r3, [r7, #4]
 731 0068 C3F88020 		str	r2, [r3, #128]	@ float
 202:app_state_auto.c ****     ctx->tgt_tilt_deg        = ctx->origin_tilt_deg;
 732              		.loc 1 202 0
 733 006c 7B68     		ldr	r3, [r7, #4]
 734 006e DA6D     		ldr	r2, [r3, #92]	@ float
 735 0070 7B68     		ldr	r3, [r7, #4]
 736 0072 C3F88420 		str	r2, [r3, #132]	@ float
 203:app_state_auto.c ****     ctx->nudge_hold          = 1u;  // Why are we triggering a nudge?
 737              		.loc 1 203 0
 738 0076 7B68     		ldr	r3, [r7, #4]
 739 0078 0122     		movs	r2, #1
 740 007a 83F87120 		strb	r2, [r3, #113]
 204:app_state_auto.c ****     ctx->nudge_start_ms      = g_tick_ms;
 741              		.loc 1 204 0
 742 007e 064B     		ldr	r3, .L51+12
 743 0080 1A68     		ldr	r2, [r3]
 744 0082 7B68     		ldr	r3, [r7, #4]
 745 0084 5A67     		str	r2, [r3, #116]
 746              	.L46:
 205:app_state_auto.c **** }
 747              		.loc 1 205 0
 748 0086 1037     		adds	r7, r7, #16
 749              		.cfi_def_cfa_offset 8
 750 0088 BD46     		mov	sp, r7
 751              		.cfi_def_cfa_register 13
 752              		@ sp needed
 753 008a 80BD     		pop	{r7, pc}
 754              	.L52:
 755              		.align	2
 756              	.L51:
 757 008c 34010000 		.word	.LC7
 758 0090 60010000 		.word	.LC8
 759 0094 80010000 		.word	.LC9
 760 0098 00000000 		.word	g_tick_ms
 761              		.cfi_endproc
ARM GAS  C:\Users\yoons\AppData\Local\Temp\cczguO9p.s 			page 19


 762              	.LFE68:
 763              		.size	entry_auto_home, .-entry_auto_home
 764              		.section	.text.exit_auto_home,"ax",%progbits
 765              		.align	2
 766              		.global	exit_auto_home
 767              		.thumb
 768              		.thumb_func
 769              		.type	exit_auto_home, %function
 770              	exit_auto_home:
 771              	.LFB69:
 206:app_state_auto.c **** 
 207:app_state_auto.c **** void exit_auto_home(app_ctx_t *ctx)
 208:app_state_auto.c **** {
 772              		.loc 1 208 0
 773              		.cfi_startproc
 774              		@ args = 0, pretend = 0, frame = 8
 775              		@ frame_needed = 1, uses_anonymous_args = 0
 776 0000 80B5     		push	{r7, lr}
 777              		.cfi_def_cfa_offset 8
 778              		.cfi_offset 7, -8
 779              		.cfi_offset 14, -4
 780 0002 82B0     		sub	sp, sp, #8
 781              		.cfi_def_cfa_offset 16
 782 0004 00AF     		add	r7, sp, #0
 783              		.cfi_def_cfa_register 7
 784 0006 7860     		str	r0, [r7, #4]
 209:app_state_auto.c ****     // Clear any nudge hold
 210:app_state_auto.c ****     ctx->nudge_hold = 0u;
 785              		.loc 1 210 0
 786 0008 7B68     		ldr	r3, [r7, #4]
 787 000a 0022     		movs	r2, #0
 788 000c 83F87120 		strb	r2, [r3, #113]
 211:app_state_auto.c ****     // Flush centroid after slew.
 212:app_state_auto.c ****     sbc_discard_centroid(STREAM_COARSE);
 789              		.loc 1 212 0
 790 0010 0020     		movs	r0, #0
 791 0012 FFF7FEFF 		bl	sbc_discard_centroid
 213:app_state_auto.c ****     // Reset return stby flag to default
 214:app_state_auto.c ****     ctx->home_return_stby = 0u;
 792              		.loc 1 214 0
 793 0016 7B68     		ldr	r3, [r7, #4]
 794 0018 0022     		movs	r2, #0
 795 001a DA71     		strb	r2, [r3, #7]
 215:app_state_auto.c **** }
 796              		.loc 1 215 0
 797 001c 00BF     		nop
 798 001e 0837     		adds	r7, r7, #8
 799              		.cfi_def_cfa_offset 8
 800 0020 BD46     		mov	sp, r7
 801              		.cfi_def_cfa_register 13
 802              		@ sp needed
 803 0022 80BD     		pop	{r7, pc}
 804              		.cfi_endproc
 805              	.LFE69:
 806              		.size	exit_auto_home, .-exit_auto_home
 807              		.section	.text.key_auto_home,"ax",%progbits
 808              		.align	2
ARM GAS  C:\Users\yoons\AppData\Local\Temp\cczguO9p.s 			page 20


 809              		.global	key_auto_home
 810              		.thumb
 811              		.thumb_func
 812              		.type	key_auto_home, %function
 813              	key_auto_home:
 814              	.LFB70:
 216:app_state_auto.c **** 
 217:app_state_auto.c **** uint8_t key_auto_home(app_ctx_t *ctx, char k)
 218:app_state_auto.c **** {
 815              		.loc 1 218 0
 816              		.cfi_startproc
 817              		@ args = 0, pretend = 0, frame = 8
 818              		@ frame_needed = 1, uses_anonymous_args = 0
 819 0000 80B5     		push	{r7, lr}
 820              		.cfi_def_cfa_offset 8
 821              		.cfi_offset 7, -8
 822              		.cfi_offset 14, -4
 823 0002 82B0     		sub	sp, sp, #8
 824              		.cfi_def_cfa_offset 16
 825 0004 00AF     		add	r7, sp, #0
 826              		.cfi_def_cfa_register 7
 827 0006 7860     		str	r0, [r7, #4]
 828 0008 0B46     		mov	r3, r1
 829 000a FB70     		strb	r3, [r7, #3]
 219:app_state_auto.c ****     // Exit home with e
 220:app_state_auto.c ****     switch (k) {
 830              		.loc 1 220 0
 831 000c FB78     		ldrb	r3, [r7, #3]	@ zero_extendqisi2
 832 000e 652B     		cmp	r3, #101
 833 0010 05D1     		bne	.L58
 221:app_state_auto.c ****         case 'e': app_transition(ctx, STBY_HOLD); return 1;
 834              		.loc 1 221 0
 835 0012 0621     		movs	r1, #6
 836 0014 7868     		ldr	r0, [r7, #4]
 837 0016 FFF7FEFF 		bl	app_transition
 838 001a 0123     		movs	r3, #1
 839 001c 00E0     		b	.L57
 840              	.L58:
 222:app_state_auto.c ****         default:  return 0;
 841              		.loc 1 222 0
 842 001e 0023     		movs	r3, #0
 843              	.L57:
 223:app_state_auto.c ****     }
 224:app_state_auto.c **** }
 844              		.loc 1 224 0
 845 0020 1846     		mov	r0, r3
 846 0022 0837     		adds	r7, r7, #8
 847              		.cfi_def_cfa_offset 8
 848 0024 BD46     		mov	sp, r7
 849              		.cfi_def_cfa_register 13
 850              		@ sp needed
 851 0026 80BD     		pop	{r7, pc}
 852              		.cfi_endproc
 853              	.LFE70:
 854              		.size	key_auto_home, .-key_auto_home
 855              		.global	__aeabi_fdiv
 856              		.section	.text.build_auto_home,"ax",%progbits
ARM GAS  C:\Users\yoons\AppData\Local\Temp\cczguO9p.s 			page 21


 857              		.align	2
 858              		.global	build_auto_home
 859              		.thumb
 860              		.thumb_func
 861              		.type	build_auto_home, %function
 862              	build_auto_home:
 863              	.LFB71:
 225:app_state_auto.c **** 
 226:app_state_auto.c **** void build_auto_home(const app_ctx_t *ctx, hamfly_control_t *out)
 227:app_state_auto.c **** {
 864              		.loc 1 227 0
 865              		.cfi_startproc
 866              		@ args = 0, pretend = 0, frame = 8
 867              		@ frame_needed = 1, uses_anonymous_args = 0
 868 0000 80B5     		push	{r7, lr}
 869              		.cfi_def_cfa_offset 8
 870              		.cfi_offset 7, -8
 871              		.cfi_offset 14, -4
 872 0002 82B0     		sub	sp, sp, #8
 873              		.cfi_def_cfa_offset 16
 874 0004 00AF     		add	r7, sp, #0
 875              		.cfi_def_cfa_register 7
 876 0006 7860     		str	r0, [r7, #4]
 877 0008 3960     		str	r1, [r7]
 228:app_state_auto.c ****     // Use absolute mode to point to saftware origin.
 229:app_state_auto.c ****     // Software origin defaults to gimbal origin.
 230:app_state_auto.c ****     out->kill      = 0u;
 878              		.loc 1 230 0
 879 000a 3B68     		ldr	r3, [r7]
 880 000c 0022     		movs	r2, #0
 881 000e 1A74     		strb	r2, [r3, #16]
 231:app_state_auto.c ****     out->roll_mode = HAMFLY_DEFER;
 882              		.loc 1 231 0
 883 0010 3B68     		ldr	r3, [r7]
 884 0012 0022     		movs	r2, #0
 885 0014 9A73     		strb	r2, [r3, #14]
 232:app_state_auto.c ****     out->roll      = 0.0f;
 886              		.loc 1 232 0
 887 0016 3B68     		ldr	r3, [r7]
 888 0018 4FF00002 		mov	r2, #0
 889 001c 9A60     		str	r2, [r3, #8]	@ float
 233:app_state_auto.c ****     out->pan_mode  = out->tilt_mode = HAMFLY_ABSOLUTE;
 890              		.loc 1 233 0
 891 001e 3B68     		ldr	r3, [r7]
 892 0020 0222     		movs	r2, #2
 893 0022 5A73     		strb	r2, [r3, #13]
 894 0024 3B68     		ldr	r3, [r7]
 895 0026 5A7B     		ldrb	r2, [r3, #13]	@ zero_extendqisi2
 896 0028 3B68     		ldr	r3, [r7]
 897 002a 1A73     		strb	r2, [r3, #12]
 234:app_state_auto.c ****     out->pan  = DEG_TO_UNIT(ctx->tgt_pan_deg - ctx->nudge_base_pan_deg);
 898              		.loc 1 234 0
 899 002c 7B68     		ldr	r3, [r7, #4]
 900 002e D3F88020 		ldr	r2, [r3, #128]	@ float
 901 0032 7B68     		ldr	r3, [r7, #4]
 902 0034 9B6F     		ldr	r3, [r3, #120]	@ float
 903 0036 1946     		mov	r1, r3
ARM GAS  C:\Users\yoons\AppData\Local\Temp\cczguO9p.s 			page 22


 904 0038 1046     		mov	r0, r2
 905 003a FFF7FEFF 		bl	__aeabi_fsub
 906 003e 0346     		mov	r3, r0
 907 0040 0B49     		ldr	r1, .L60
 908 0042 1846     		mov	r0, r3
 909 0044 FFF7FEFF 		bl	__aeabi_fdiv
 910 0048 0346     		mov	r3, r0
 911 004a 1A46     		mov	r2, r3
 912 004c 3B68     		ldr	r3, [r7]
 913 004e 1A60     		str	r2, [r3]	@ float
 235:app_state_auto.c ****     out->tilt = DEG_TO_UNIT(ctx->tgt_tilt_deg);
 914              		.loc 1 235 0
 915 0050 7B68     		ldr	r3, [r7, #4]
 916 0052 D3F88430 		ldr	r3, [r3, #132]	@ float
 917 0056 0649     		ldr	r1, .L60
 918 0058 1846     		mov	r0, r3
 919 005a FFF7FEFF 		bl	__aeabi_fdiv
 920 005e 0346     		mov	r3, r0
 921 0060 1A46     		mov	r2, r3
 922 0062 3B68     		ldr	r3, [r7]
 923 0064 5A60     		str	r2, [r3, #4]	@ float
 236:app_state_auto.c **** }
 924              		.loc 1 236 0
 925 0066 00BF     		nop
 926 0068 0837     		adds	r7, r7, #8
 927              		.cfi_def_cfa_offset 8
 928 006a BD46     		mov	sp, r7
 929              		.cfi_def_cfa_register 13
 930              		@ sp needed
 931 006c 80BD     		pop	{r7, pc}
 932              	.L61:
 933 006e 00BF     		.align	2
 934              	.L60:
 935 0070 00003443 		.word	1127481344
 936              		.cfi_endproc
 937              	.LFE71:
 938              		.size	build_auto_home, .-build_auto_home
 939              		.section	.rodata
 940              		.align	2
 941              	.LC10:
 942 019c 0D0A5B41 		.ascii	"\015\012[AUTO_HOLD] holding, watching for centroids"
 942      55544F5F 
 942      484F4C44 
 942      5D20686F 
 942      6C64696E 
 943 01c9 0D0A3E20 		.ascii	"\015\012> \000"
 943      00
 944              		.section	.text.entry_auto_hold,"ax",%progbits
 945              		.align	2
 946              		.global	entry_auto_hold
 947              		.thumb
 948              		.thumb_func
 949              		.type	entry_auto_hold, %function
 950              	entry_auto_hold:
 951              	.LFB72:
 237:app_state_auto.c **** 
 238:app_state_auto.c **** // %==========================================================================%
ARM GAS  C:\Users\yoons\AppData\Local\Temp\cczguO9p.s 			page 23


 239:app_state_auto.c **** // %                              AUTO_HOLD                                   %
 240:app_state_auto.c **** // %==========================================================================%
 241:app_state_auto.c **** void entry_auto_hold(app_ctx_t *ctx)
 242:app_state_auto.c **** {
 952              		.loc 1 242 0
 953              		.cfi_startproc
 954              		@ args = 0, pretend = 0, frame = 8
 955              		@ frame_needed = 1, uses_anonymous_args = 0
 956 0000 80B5     		push	{r7, lr}
 957              		.cfi_def_cfa_offset 8
 958              		.cfi_offset 7, -8
 959              		.cfi_offset 14, -4
 960 0002 82B0     		sub	sp, sp, #8
 961              		.cfi_def_cfa_offset 16
 962 0004 00AF     		add	r7, sp, #0
 963              		.cfi_def_cfa_register 7
 964 0006 7860     		str	r0, [r7, #4]
 243:app_state_auto.c ****     // Start timer for how long we are in hold
 244:app_state_auto.c ****     ctx->auto_hold_entry_ms = g_tick_ms;
 965              		.loc 1 244 0
 966 0008 054B     		ldr	r3, .L63
 967 000a 1A68     		ldr	r2, [r3]
 968 000c 7B68     		ldr	r3, [r7, #4]
 969 000e 9A60     		str	r2, [r3, #8]
 245:app_state_auto.c ****     UART_DEBUG_PutString("\r\n[AUTO_HOLD] holding, watching for centroids\r\n> ");
 970              		.loc 1 245 0
 971 0010 0448     		ldr	r0, .L63+4
 972 0012 FFF7FEFF 		bl	dbg_put
 246:app_state_auto.c **** }
 973              		.loc 1 246 0
 974 0016 00BF     		nop
 975 0018 0837     		adds	r7, r7, #8
 976              		.cfi_def_cfa_offset 8
 977 001a BD46     		mov	sp, r7
 978              		.cfi_def_cfa_register 13
 979              		@ sp needed
 980 001c 80BD     		pop	{r7, pc}
 981              	.L64:
 982 001e 00BF     		.align	2
 983              	.L63:
 984 0020 00000000 		.word	g_tick_ms
 985 0024 9C010000 		.word	.LC10
 986              		.cfi_endproc
 987              	.LFE72:
 988              		.size	entry_auto_hold, .-entry_auto_hold
 989              		.section	.text.key_auto_hold,"ax",%progbits
 990              		.align	2
 991              		.global	key_auto_hold
 992              		.thumb
 993              		.thumb_func
 994              		.type	key_auto_hold, %function
 995              	key_auto_hold:
 996              	.LFB73:
 247:app_state_auto.c **** 
 248:app_state_auto.c **** uint8_t key_auto_hold(app_ctx_t *ctx, char k)
 249:app_state_auto.c **** {
 997              		.loc 1 249 0
ARM GAS  C:\Users\yoons\AppData\Local\Temp\cczguO9p.s 			page 24


 998              		.cfi_startproc
 999              		@ args = 0, pretend = 0, frame = 8
 1000              		@ frame_needed = 1, uses_anonymous_args = 0
 1001 0000 80B5     		push	{r7, lr}
 1002              		.cfi_def_cfa_offset 8
 1003              		.cfi_offset 7, -8
 1004              		.cfi_offset 14, -4
 1005 0002 82B0     		sub	sp, sp, #8
 1006              		.cfi_def_cfa_offset 16
 1007 0004 00AF     		add	r7, sp, #0
 1008              		.cfi_def_cfa_register 7
 1009 0006 7860     		str	r0, [r7, #4]
 1010 0008 0B46     		mov	r3, r1
 1011 000a FB70     		strb	r3, [r7, #3]
 250:app_state_auto.c ****     // Check if we are handling a nudge first
 251:app_state_auto.c ****     if (handle_nudge_key(ctx, k)) return 1;
 1012              		.loc 1 251 0
 1013 000c FB78     		ldrb	r3, [r7, #3]	@ zero_extendqisi2
 1014 000e 1946     		mov	r1, r3
 1015 0010 7868     		ldr	r0, [r7, #4]
 1016 0012 FFF7FEFF 		bl	handle_nudge_key
 1017 0016 0346     		mov	r3, r0
 1018 0018 002B     		cmp	r3, #0
 1019 001a 01D0     		beq	.L66
 1020              		.loc 1 251 0 is_stmt 0 discriminator 1
 1021 001c 0123     		movs	r3, #1
 1022 001e 00E0     		b	.L67
 1023              	.L66:
 252:app_state_auto.c ****     // Serial debug can exit
 253:app_state_auto.c ****     switch (k) {
 254:app_state_auto.c ****         default:  return 0;
 1024              		.loc 1 254 0 is_stmt 1
 1025 0020 0023     		movs	r3, #0
 1026              	.L67:
 255:app_state_auto.c ****     }
 256:app_state_auto.c **** }
 1027              		.loc 1 256 0
 1028 0022 1846     		mov	r0, r3
 1029 0024 0837     		adds	r7, r7, #8
 1030              		.cfi_def_cfa_offset 8
 1031 0026 BD46     		mov	sp, r7
 1032              		.cfi_def_cfa_register 13
 1033              		@ sp needed
 1034 0028 80BD     		pop	{r7, pc}
 1035              		.cfi_endproc
 1036              	.LFE73:
 1037              		.size	key_auto_hold, .-key_auto_hold
 1038              		.global	__aeabi_fmul
 1039              		.global	__aeabi_fadd
 1040 002a 00BF     		.section	.text.gps_bearing_deg,"ax",%progbits
 1041              		.align	2
 1042              		.thumb
 1043              		.thumb_func
 1044              		.type	gps_bearing_deg, %function
 1045              	gps_bearing_deg:
 1046              	.LFB74:
 257:app_state_auto.c **** 
ARM GAS  C:\Users\yoons\AppData\Local\Temp\cczguO9p.s 			page 25


 258:app_state_auto.c **** // %==========================================================================%
 259:app_state_auto.c **** // %                        AUTO_ACQ_GPS + GPS math                           %
 260:app_state_auto.c **** // %==========================================================================%
 261:app_state_auto.c **** // Note: Keep in mind PSoC 5 LP has no FPU! This means we should avoid
 262:app_state_auto.c **** // floating-point arithmatic as much as possible. But this is not a speed 
 263:app_state_auto.c **** // concern yet so we will keep simulated floating point.
 264:app_state_auto.c **** 
 265:app_state_auto.c **** // TODO: The GPS math stub doesnt need to live here. HamflyAPI should introduce
 266:app_state_auto.c **** // a point at coordinate like function which takes in a target coordinate, and
 267:app_state_auto.c **** // uses its gps reading (if available) to point at another coordinate in user
 268:app_state_auto.c **** // selectable abs or majestic mode. THis would offload the bulk here to the API
 269:app_state_auto.c **** // at the expense of being blind to FP or intiger math.
 270:app_state_auto.c **** 
 271:app_state_auto.c **** // TODO: Currently we use bearing/elevation geometry, but we should move to
 272:app_state_auto.c **** // ECEF Vector math, however we first need to validate IMU data from the gimble
 273:app_state_auto.c **** // or get an external IMU.
 274:app_state_auto.c **** static float gps_bearing_deg(float lat1, float lon1, float lat2, float lon2)
 275:app_state_auto.c **** {
 1047              		.loc 1 275 0
 1048              		.cfi_startproc
 1049              		@ args = 0, pretend = 0, frame = 40
 1050              		@ frame_needed = 1, uses_anonymous_args = 0
 1051 0000 B0B5     		push	{r4, r5, r7, lr}
 1052              		.cfi_def_cfa_offset 16
 1053              		.cfi_offset 4, -16
 1054              		.cfi_offset 5, -12
 1055              		.cfi_offset 7, -8
 1056              		.cfi_offset 14, -4
 1057 0002 8AB0     		sub	sp, sp, #40
 1058              		.cfi_def_cfa_offset 56
 1059 0004 00AF     		add	r7, sp, #0
 1060              		.cfi_def_cfa_register 7
 1061 0006 F860     		str	r0, [r7, #12]	@ float
 1062 0008 B960     		str	r1, [r7, #8]	@ float
 1063 000a 7A60     		str	r2, [r7, #4]	@ float
 1064 000c 3B60     		str	r3, [r7]	@ float
 276:app_state_auto.c ****     // Calculates bearing between two points in degrees.
 277:app_state_auto.c ****     float la1 = lat1 * DEG_TO_RAD, la2 = lat2 * DEG_TO_RAD;
 1065              		.loc 1 277 0
 1066 000e 3749     		ldr	r1, .L73
 1067 0010 F868     		ldr	r0, [r7, #12]	@ float
 1068 0012 FFF7FEFF 		bl	__aeabi_fmul
 1069 0016 0346     		mov	r3, r0
 1070 0018 3B62     		str	r3, [r7, #32]	@ float
 1071 001a 3449     		ldr	r1, .L73
 1072 001c 7868     		ldr	r0, [r7, #4]	@ float
 1073 001e FFF7FEFF 		bl	__aeabi_fmul
 1074 0022 0346     		mov	r3, r0
 1075 0024 FB61     		str	r3, [r7, #28]	@ float
 278:app_state_auto.c ****     float dlo = (lon2 - lon1) * DEG_TO_RAD;
 1076              		.loc 1 278 0
 1077 0026 B968     		ldr	r1, [r7, #8]	@ float
 1078 0028 3868     		ldr	r0, [r7]	@ float
 1079 002a FFF7FEFF 		bl	__aeabi_fsub
 1080 002e 0346     		mov	r3, r0
 1081 0030 2E49     		ldr	r1, .L73
 1082 0032 1846     		mov	r0, r3
ARM GAS  C:\Users\yoons\AppData\Local\Temp\cczguO9p.s 			page 26


 1083 0034 FFF7FEFF 		bl	__aeabi_fmul
 1084 0038 0346     		mov	r3, r0
 1085 003a BB61     		str	r3, [r7, #24]	@ float
 279:app_state_auto.c ****     float x   = sinf(dlo) * cosf(la2);
 1086              		.loc 1 279 0
 1087 003c B869     		ldr	r0, [r7, #24]	@ float
 1088 003e FFF7FEFF 		bl	sinf
 1089 0042 0446     		mov	r4, r0
 1090 0044 F869     		ldr	r0, [r7, #28]	@ float
 1091 0046 FFF7FEFF 		bl	cosf
 1092 004a 0346     		mov	r3, r0
 1093 004c 1946     		mov	r1, r3
 1094 004e 2046     		mov	r0, r4
 1095 0050 FFF7FEFF 		bl	__aeabi_fmul
 1096 0054 0346     		mov	r3, r0
 1097 0056 7B61     		str	r3, [r7, #20]	@ float
 280:app_state_auto.c ****     float y   = cosf(la1) * sinf(la2) - sinf(la1) * cosf(la2) * cosf(dlo);
 1098              		.loc 1 280 0
 1099 0058 386A     		ldr	r0, [r7, #32]	@ float
 1100 005a FFF7FEFF 		bl	cosf
 1101 005e 0446     		mov	r4, r0
 1102 0060 F869     		ldr	r0, [r7, #28]	@ float
 1103 0062 FFF7FEFF 		bl	sinf
 1104 0066 0346     		mov	r3, r0
 1105 0068 1946     		mov	r1, r3
 1106 006a 2046     		mov	r0, r4
 1107 006c FFF7FEFF 		bl	__aeabi_fmul
 1108 0070 0346     		mov	r3, r0
 1109 0072 1C46     		mov	r4, r3
 1110 0074 386A     		ldr	r0, [r7, #32]	@ float
 1111 0076 FFF7FEFF 		bl	sinf
 1112 007a 0546     		mov	r5, r0
 1113 007c F869     		ldr	r0, [r7, #28]	@ float
 1114 007e FFF7FEFF 		bl	cosf
 1115 0082 0346     		mov	r3, r0
 1116 0084 1946     		mov	r1, r3
 1117 0086 2846     		mov	r0, r5
 1118 0088 FFF7FEFF 		bl	__aeabi_fmul
 1119 008c 0346     		mov	r3, r0
 1120 008e 1D46     		mov	r5, r3
 1121 0090 B869     		ldr	r0, [r7, #24]	@ float
 1122 0092 FFF7FEFF 		bl	cosf
 1123 0096 0346     		mov	r3, r0
 1124 0098 1946     		mov	r1, r3
 1125 009a 2846     		mov	r0, r5
 1126 009c FFF7FEFF 		bl	__aeabi_fmul
 1127 00a0 0346     		mov	r3, r0
 1128 00a2 1946     		mov	r1, r3
 1129 00a4 2046     		mov	r0, r4
 1130 00a6 FFF7FEFF 		bl	__aeabi_fsub
 1131 00aa 0346     		mov	r3, r0
 1132 00ac 3B61     		str	r3, [r7, #16]	@ float
 281:app_state_auto.c ****     float b   = atan2f(x, y) * RAD_TO_DEG;
 1133              		.loc 1 281 0
 1134 00ae 3969     		ldr	r1, [r7, #16]	@ float
 1135 00b0 7869     		ldr	r0, [r7, #20]	@ float
 1136 00b2 FFF7FEFF 		bl	atan2f
ARM GAS  C:\Users\yoons\AppData\Local\Temp\cczguO9p.s 			page 27


 1137 00b6 0346     		mov	r3, r0
 1138 00b8 0D49     		ldr	r1, .L73+4
 1139 00ba 1846     		mov	r0, r3
 1140 00bc FFF7FEFF 		bl	__aeabi_fmul
 1141 00c0 0346     		mov	r3, r0
 1142 00c2 7B62     		str	r3, [r7, #36]	@ float
 282:app_state_auto.c ****     if (b < 0.0f) b += 360.0f;
 1143              		.loc 1 282 0
 1144 00c4 4FF00001 		mov	r1, #0
 1145 00c8 786A     		ldr	r0, [r7, #36]	@ float
 1146 00ca FFF7FEFF 		bl	__aeabi_fcmplt
 1147 00ce 0346     		mov	r3, r0
 1148 00d0 002B     		cmp	r3, #0
 1149 00d2 05D0     		beq	.L69
 1150              		.loc 1 282 0 is_stmt 0 discriminator 1
 1151 00d4 0749     		ldr	r1, .L73+8
 1152 00d6 786A     		ldr	r0, [r7, #36]	@ float
 1153 00d8 FFF7FEFF 		bl	__aeabi_fadd
 1154 00dc 0346     		mov	r3, r0
 1155 00de 7B62     		str	r3, [r7, #36]	@ float
 1156              	.L69:
 283:app_state_auto.c ****     return b;  // 0 = North, clockwise
 1157              		.loc 1 283 0 is_stmt 1
 1158 00e0 7B6A     		ldr	r3, [r7, #36]	@ float
 284:app_state_auto.c **** }
 1159              		.loc 1 284 0
 1160 00e2 1846     		mov	r0, r3
 1161 00e4 2837     		adds	r7, r7, #40
 1162              		.cfi_def_cfa_offset 16
 1163 00e6 BD46     		mov	sp, r7
 1164              		.cfi_def_cfa_register 13
 1165              		@ sp needed
 1166 00e8 B0BD     		pop	{r4, r5, r7, pc}
 1167              	.L74:
 1168 00ea 00BF     		.align	2
 1169              	.L73:
 1170 00ec 98F98E3C 		.word	1016002968
 1171 00f0 E62E6542 		.word	1113927398
 1172 00f4 0000B443 		.word	1135869952
 1173              		.cfi_endproc
 1174              	.LFE74:
 1175              		.size	gps_bearing_deg, .-gps_bearing_deg
 1176              		.section	.text.gps_elev_deg,"ax",%progbits
 1177              		.align	2
 1178              		.thumb
 1179              		.thumb_func
 1180              		.type	gps_elev_deg, %function
 1181              	gps_elev_deg:
 1182              	.LFB75:
 285:app_state_auto.c **** static float gps_elev_deg(float lat1, float lon1, float alt1_m,
 286:app_state_auto.c ****                           float lat2, float lon2, float alt2_m)
 287:app_state_auto.c **** {
 1183              		.loc 1 287 0
 1184              		.cfi_startproc
 1185              		@ args = 8, pretend = 0, frame = 40
 1186              		@ frame_needed = 1, uses_anonymous_args = 0
 1187 0000 B0B5     		push	{r4, r5, r7, lr}
ARM GAS  C:\Users\yoons\AppData\Local\Temp\cczguO9p.s 			page 28


 1188              		.cfi_def_cfa_offset 16
 1189              		.cfi_offset 4, -16
 1190              		.cfi_offset 5, -12
 1191              		.cfi_offset 7, -8
 1192              		.cfi_offset 14, -4
 1193 0002 8AB0     		sub	sp, sp, #40
 1194              		.cfi_def_cfa_offset 56
 1195 0004 00AF     		add	r7, sp, #0
 1196              		.cfi_def_cfa_register 7
 1197 0006 F860     		str	r0, [r7, #12]	@ float
 1198 0008 B960     		str	r1, [r7, #8]	@ float
 1199 000a 7A60     		str	r2, [r7, #4]	@ float
 1200 000c 3B60     		str	r3, [r7]	@ float
 288:app_state_auto.c ****     // COmputes elevation angle between two points in degrees.
 289:app_state_auto.c ****     float la1 = lat1 * DEG_TO_RAD, la2 = lat2 * DEG_TO_RAD;
 1201              		.loc 1 289 0
 1202 000e 5049     		ldr	r1, .L80
 1203 0010 F868     		ldr	r0, [r7, #12]	@ float
 1204 0012 FFF7FEFF 		bl	__aeabi_fmul
 1205 0016 0346     		mov	r3, r0
 1206 0018 3B62     		str	r3, [r7, #32]	@ float
 1207 001a 4D49     		ldr	r1, .L80
 1208 001c 3868     		ldr	r0, [r7]	@ float
 1209 001e FFF7FEFF 		bl	__aeabi_fmul
 1210 0022 0346     		mov	r3, r0
 1211 0024 FB61     		str	r3, [r7, #28]	@ float
 290:app_state_auto.c ****     float dlo = (lon2 - lon1) * DEG_TO_RAD;
 1212              		.loc 1 290 0
 1213 0026 B968     		ldr	r1, [r7, #8]	@ float
 1214 0028 B86B     		ldr	r0, [r7, #56]	@ float
 1215 002a FFF7FEFF 		bl	__aeabi_fsub
 1216 002e 0346     		mov	r3, r0
 1217 0030 4749     		ldr	r1, .L80
 1218 0032 1846     		mov	r0, r3
 1219 0034 FFF7FEFF 		bl	__aeabi_fmul
 1220 0038 0346     		mov	r3, r0
 1221 003a BB61     		str	r3, [r7, #24]	@ float
 291:app_state_auto.c ****     float dla = la2 - la1;
 1222              		.loc 1 291 0
 1223 003c 396A     		ldr	r1, [r7, #32]	@ float
 1224 003e F869     		ldr	r0, [r7, #28]	@ float
 1225 0040 FFF7FEFF 		bl	__aeabi_fsub
 1226 0044 0346     		mov	r3, r0
 1227 0046 7B61     		str	r3, [r7, #20]	@ float
 292:app_state_auto.c ****     float a   = sinf(dla * 0.5f) * sinf(dla * 0.5f)
 1228              		.loc 1 292 0
 1229 0048 4FF07C51 		mov	r1, #1056964608
 1230 004c 7869     		ldr	r0, [r7, #20]	@ float
 1231 004e FFF7FEFF 		bl	__aeabi_fmul
 1232 0052 0346     		mov	r3, r0
 1233 0054 1846     		mov	r0, r3
 1234 0056 FFF7FEFF 		bl	sinf
 1235 005a 0446     		mov	r4, r0
 1236 005c 4FF07C51 		mov	r1, #1056964608
 1237 0060 7869     		ldr	r0, [r7, #20]	@ float
 1238 0062 FFF7FEFF 		bl	__aeabi_fmul
 1239 0066 0346     		mov	r3, r0
ARM GAS  C:\Users\yoons\AppData\Local\Temp\cczguO9p.s 			page 29


 1240 0068 1846     		mov	r0, r3
 1241 006a FFF7FEFF 		bl	sinf
 1242 006e 0346     		mov	r3, r0
 1243 0070 1946     		mov	r1, r3
 1244 0072 2046     		mov	r0, r4
 1245 0074 FFF7FEFF 		bl	__aeabi_fmul
 1246 0078 0346     		mov	r3, r0
 1247 007a 1C46     		mov	r4, r3
 293:app_state_auto.c ****               + cosf(la1) * cosf(la2) * sinf(dlo * 0.5f) * sinf(dlo * 0.5f);
 1248              		.loc 1 293 0
 1249 007c 386A     		ldr	r0, [r7, #32]	@ float
 1250 007e FFF7FEFF 		bl	cosf
 1251 0082 0546     		mov	r5, r0
 1252 0084 F869     		ldr	r0, [r7, #28]	@ float
 1253 0086 FFF7FEFF 		bl	cosf
 1254 008a 0346     		mov	r3, r0
 1255 008c 1946     		mov	r1, r3
 1256 008e 2846     		mov	r0, r5
 1257 0090 FFF7FEFF 		bl	__aeabi_fmul
 1258 0094 0346     		mov	r3, r0
 1259 0096 1D46     		mov	r5, r3
 1260 0098 4FF07C51 		mov	r1, #1056964608
 1261 009c B869     		ldr	r0, [r7, #24]	@ float
 1262 009e FFF7FEFF 		bl	__aeabi_fmul
 1263 00a2 0346     		mov	r3, r0
 1264 00a4 1846     		mov	r0, r3
 1265 00a6 FFF7FEFF 		bl	sinf
 1266 00aa 0346     		mov	r3, r0
 1267 00ac 1946     		mov	r1, r3
 1268 00ae 2846     		mov	r0, r5
 1269 00b0 FFF7FEFF 		bl	__aeabi_fmul
 1270 00b4 0346     		mov	r3, r0
 1271 00b6 1D46     		mov	r5, r3
 1272 00b8 4FF07C51 		mov	r1, #1056964608
 1273 00bc B869     		ldr	r0, [r7, #24]	@ float
 1274 00be FFF7FEFF 		bl	__aeabi_fmul
 1275 00c2 0346     		mov	r3, r0
 1276 00c4 1846     		mov	r0, r3
 1277 00c6 FFF7FEFF 		bl	sinf
 1278 00ca 0346     		mov	r3, r0
 1279 00cc 1946     		mov	r1, r3
 1280 00ce 2846     		mov	r0, r5
 1281 00d0 FFF7FEFF 		bl	__aeabi_fmul
 1282 00d4 0346     		mov	r3, r0
 292:app_state_auto.c ****     float a   = sinf(dla * 0.5f) * sinf(dla * 0.5f)
 1283              		.loc 1 292 0
 1284 00d6 1946     		mov	r1, r3
 1285 00d8 2046     		mov	r0, r4
 1286 00da FFF7FEFF 		bl	__aeabi_fadd
 1287 00de 0346     		mov	r3, r0
 1288 00e0 3B61     		str	r3, [r7, #16]	@ float
 294:app_state_auto.c ****     float dist_m = 2.0f * GPS_EARTH_R_M * atan2f(sqrtf(a), sqrtf(1.0f - a));
 1289              		.loc 1 294 0
 1290 00e2 3869     		ldr	r0, [r7, #16]	@ float
 1291 00e4 FFF7FEFF 		bl	sqrtf
 1292 00e8 0446     		mov	r4, r0
 1293 00ea 3969     		ldr	r1, [r7, #16]	@ float
ARM GAS  C:\Users\yoons\AppData\Local\Temp\cczguO9p.s 			page 30


 1294 00ec 4FF07E50 		mov	r0, #1065353216
 1295 00f0 FFF7FEFF 		bl	__aeabi_fsub
 1296 00f4 0346     		mov	r3, r0
 1297 00f6 1846     		mov	r0, r3
 1298 00f8 FFF7FEFF 		bl	sqrtf
 1299 00fc 0346     		mov	r3, r0
 1300 00fe 1946     		mov	r1, r3
 1301 0100 2046     		mov	r0, r4
 1302 0102 FFF7FEFF 		bl	atan2f
 1303 0106 0346     		mov	r3, r0
 1304 0108 1249     		ldr	r1, .L80+4
 1305 010a 1846     		mov	r0, r3
 1306 010c FFF7FEFF 		bl	__aeabi_fmul
 1307 0110 0346     		mov	r3, r0
 1308 0112 7B62     		str	r3, [r7, #36]	@ float
 295:app_state_auto.c ****     if (dist_m < 1.0f) dist_m = 1.0f;  // guard div/0 at zero range
 1309              		.loc 1 295 0
 1310 0114 4FF07E51 		mov	r1, #1065353216
 1311 0118 786A     		ldr	r0, [r7, #36]	@ float
 1312 011a FFF7FEFF 		bl	__aeabi_fcmplt
 1313 011e 0346     		mov	r3, r0
 1314 0120 002B     		cmp	r3, #0
 1315 0122 02D0     		beq	.L76
 1316              		.loc 1 295 0 is_stmt 0 discriminator 1
 1317 0124 4FF07E53 		mov	r3, #1065353216
 1318 0128 7B62     		str	r3, [r7, #36]	@ float
 1319              	.L76:
 296:app_state_auto.c ****     return atan2f(alt2_m - alt1_m, dist_m) * RAD_TO_DEG;
 1320              		.loc 1 296 0 is_stmt 1
 1321 012a 7968     		ldr	r1, [r7, #4]	@ float
 1322 012c F86B     		ldr	r0, [r7, #60]	@ float
 1323 012e FFF7FEFF 		bl	__aeabi_fsub
 1324 0132 0346     		mov	r3, r0
 1325 0134 796A     		ldr	r1, [r7, #36]	@ float
 1326 0136 1846     		mov	r0, r3
 1327 0138 FFF7FEFF 		bl	atan2f
 1328 013c 0346     		mov	r3, r0
 1329 013e 0649     		ldr	r1, .L80+8
 1330 0140 1846     		mov	r0, r3
 1331 0142 FFF7FEFF 		bl	__aeabi_fmul
 1332 0146 0346     		mov	r3, r0
 297:app_state_auto.c **** }
 1333              		.loc 1 297 0
 1334 0148 1846     		mov	r0, r3
 1335 014a 2837     		adds	r7, r7, #40
 1336              		.cfi_def_cfa_offset 16
 1337 014c BD46     		mov	sp, r7
 1338              		.cfi_def_cfa_register 13
 1339              		@ sp needed
 1340 014e B0BD     		pop	{r4, r5, r7, pc}
 1341              	.L81:
 1342              		.align	2
 1343              	.L80:
 1344 0150 98F98E3C 		.word	1016002968
 1345 0154 706D424B 		.word	1262644592
 1346 0158 E62E6542 		.word	1113927398
 1347              		.cfi_endproc
ARM GAS  C:\Users\yoons\AppData\Local\Temp\cczguO9p.s 			page 31


 1348              	.LFE75:
 1349              		.size	gps_elev_deg, .-gps_elev_deg
 1350              		.section	.text.gps_start_slew,"ax",%progbits
 1351              		.align	2
 1352              		.thumb
 1353              		.thumb_func
 1354              		.type	gps_start_slew, %function
 1355              	gps_start_slew:
 1356              	.LFB76:
 298:app_state_auto.c **** 
 299:app_state_auto.c **** // Copy the active target into the working copy and reset the slew.
 300:app_state_auto.c **** static void gps_start_slew(app_ctx_t *ctx)
 301:app_state_auto.c **** {
 1357              		.loc 1 301 0
 1358              		.cfi_startproc
 1359              		@ args = 0, pretend = 0, frame = 8
 1360              		@ frame_needed = 1, uses_anonymous_args = 0
 1361              		@ link register save eliminated.
 1362 0000 80B4     		push	{r7}
 1363              		.cfi_def_cfa_offset 4
 1364              		.cfi_offset 7, -4
 1365 0002 83B0     		sub	sp, sp, #12
 1366              		.cfi_def_cfa_offset 16
 1367 0004 00AF     		add	r7, sp, #0
 1368              		.cfi_def_cfa_register 7
 1369 0006 7860     		str	r0, [r7, #4]
 302:app_state_auto.c ****     ctx->gps_work_lat_raw = ctx->gps_target_lat_raw;
 1370              		.loc 1 302 0
 1371 0008 7B68     		ldr	r3, [r7, #4]
 1372 000a 5A6A     		ldr	r2, [r3, #36]
 1373 000c 7B68     		ldr	r3, [r7, #4]
 1374 000e 5A63     		str	r2, [r3, #52]
 303:app_state_auto.c ****     ctx->gps_work_lon_raw = ctx->gps_target_lon_raw;
 1375              		.loc 1 303 0
 1376 0010 7B68     		ldr	r3, [r7, #4]
 1377 0012 9A6A     		ldr	r2, [r3, #40]
 1378 0014 7B68     		ldr	r3, [r7, #4]
 1379 0016 9A63     		str	r2, [r3, #56]
 304:app_state_auto.c ****     ctx->gps_work_alt_mm  = ctx->gps_target_alt_mm;
 1380              		.loc 1 304 0
 1381 0018 7B68     		ldr	r3, [r7, #4]
 1382 001a DA6A     		ldr	r2, [r3, #44]
 1383 001c 7B68     		ldr	r3, [r7, #4]
 1384 001e DA63     		str	r2, [r3, #60]
 305:app_state_auto.c ****     // Clear flags to say: We are not settled and we have a new target.
 306:app_state_auto.c ****     ctx->gps_settled      = 0u;
 1385              		.loc 1 306 0
 1386 0020 7B68     		ldr	r3, [r7, #4]
 1387 0022 0022     		movs	r2, #0
 1388 0024 83F84020 		strb	r2, [r3, #64]
 307:app_state_auto.c ****     ctx->gps_new_target   = 0u;
 1389              		.loc 1 307 0
 1390 0028 7B68     		ldr	r3, [r7, #4]
 1391 002a 0022     		movs	r2, #0
 1392 002c 83F83120 		strb	r2, [r3, #49]
 308:app_state_auto.c **** }
 1393              		.loc 1 308 0
ARM GAS  C:\Users\yoons\AppData\Local\Temp\cczguO9p.s 			page 32


 1394 0030 00BF     		nop
 1395 0032 0C37     		adds	r7, r7, #12
 1396              		.cfi_def_cfa_offset 4
 1397 0034 BD46     		mov	sp, r7
 1398              		.cfi_def_cfa_register 13
 1399              		@ sp needed
 1400 0036 80BC     		pop	{r7}
 1401              		.cfi_restore 7
 1402              		.cfi_def_cfa_offset 0
 1403 0038 7047     		bx	lr
 1404              		.cfi_endproc
 1405              	.LFE76:
 1406              		.size	gps_start_slew, .-gps_start_slew
 1407              		.global	__aeabi_i2f
 1408 003a 00BF     		.section	.text.gps_update_pointing,"ax",%progbits
 1409              		.align	2
 1410              		.thumb
 1411              		.thumb_func
 1412              		.type	gps_update_pointing, %function
 1413              	gps_update_pointing:
 1414              	.LFB77:
 309:app_state_auto.c **** 
 310:app_state_auto.c **** // Recompute abs_pan/tilt setpoints from the working copy + live gimbal GPS.
 311:app_state_auto.c **** // Overkill for now, but handles the gimble moving, this updates the target in
 312:app_state_auto.c **** // case previous computed absolute move is out of date. Important to have now
 313:app_state_auto.c **** // in case GPS quality degrades or improves during slew.
 314:app_state_auto.c **** static void gps_update_pointing(app_ctx_t *ctx)
 315:app_state_auto.c **** {
 1415              		.loc 1 315 0
 1416              		.cfi_startproc
 1417              		@ args = 0, pretend = 0, frame = 256
 1418              		@ frame_needed = 1, uses_anonymous_args = 0
 1419 0000 80B5     		push	{r7, lr}
 1420              		.cfi_def_cfa_offset 8
 1421              		.cfi_offset 7, -8
 1422              		.cfi_offset 14, -4
 1423 0002 C2B0     		sub	sp, sp, #264
 1424              		.cfi_def_cfa_offset 272
 1425 0004 02AF     		add	r7, sp, #8
 1426              		.cfi_def_cfa 7, 264
 1427 0006 7860     		str	r0, [r7, #4]
 316:app_state_auto.c ****     // TODO: Only give update if moved by 1 degree or more
 317:app_state_auto.c ****     // Get attitude and position
 318:app_state_auto.c ****     hamfly_telemetry_t st;
 319:app_state_auto.c ****     hamfly_get_telemetry(ctx->gimbal, &st);
 1428              		.loc 1 319 0
 1429 0008 7B68     		ldr	r3, [r7, #4]
 1430 000a 1B68     		ldr	r3, [r3]
 1431 000c 07F10802 		add	r2, r7, #8
 1432 0010 1146     		mov	r1, r2
 1433 0012 1846     		mov	r0, r3
 1434 0014 FFF7FEFF 		bl	hamfly_get_telemetry
 320:app_state_auto.c ****     if (!st.gps_valid) return;
 1435              		.loc 1 320 0
 1436 0018 97F82630 		ldrb	r3, [r7, #38]	@ zero_extendqisi2
 1437 001c 83F00103 		eor	r3, r3, #1
 1438 0020 DBB2     		uxtb	r3, r3
ARM GAS  C:\Users\yoons\AppData\Local\Temp\cczguO9p.s 			page 33


 1439 0022 002B     		cmp	r3, #0
 1440 0024 54D1     		bne	.L86
 321:app_state_auto.c ****     // Load working target
 322:app_state_auto.c ****     float tlat = (float)ctx->gps_work_lat_raw * 1e-7f;
 1441              		.loc 1 322 0
 1442 0026 7B68     		ldr	r3, [r7, #4]
 1443 0028 5B6B     		ldr	r3, [r3, #52]
 1444 002a 1846     		mov	r0, r3
 1445 002c FFF7FEFF 		bl	__aeabi_i2f
 1446 0030 0346     		mov	r3, r0
 1447 0032 2A49     		ldr	r1, .L87
 1448 0034 1846     		mov	r0, r3
 1449 0036 FFF7FEFF 		bl	__aeabi_fmul
 1450 003a 0346     		mov	r3, r0
 1451 003c C7F8FC30 		str	r3, [r7, #252]	@ float
 323:app_state_auto.c ****     float tlon = (float)ctx->gps_work_lon_raw * 1e-7f;
 1452              		.loc 1 323 0
 1453 0040 7B68     		ldr	r3, [r7, #4]
 1454 0042 9B6B     		ldr	r3, [r3, #56]
 1455 0044 1846     		mov	r0, r3
 1456 0046 FFF7FEFF 		bl	__aeabi_i2f
 1457 004a 0346     		mov	r3, r0
 1458 004c 2349     		ldr	r1, .L87
 1459 004e 1846     		mov	r0, r3
 1460 0050 FFF7FEFF 		bl	__aeabi_fmul
 1461 0054 0346     		mov	r3, r0
 1462 0056 C7F8F830 		str	r3, [r7, #248]	@ float
 324:app_state_auto.c ****     float talt = (float)ctx->gps_work_alt_mm  * 0.001f;
 1463              		.loc 1 324 0
 1464 005a 7B68     		ldr	r3, [r7, #4]
 1465 005c DB6B     		ldr	r3, [r3, #60]
 1466 005e 1846     		mov	r0, r3
 1467 0060 FFF7FEFF 		bl	__aeabi_i2f
 1468 0064 0346     		mov	r3, r0
 1469 0066 1E49     		ldr	r1, .L87+4
 1470 0068 1846     		mov	r0, r3
 1471 006a FFF7FEFF 		bl	__aeabi_fmul
 1472 006e 0346     		mov	r3, r0
 1473 0070 C7F8F430 		str	r3, [r7, #244]	@ float
 325:app_state_auto.c ****     // Update target
 326:app_state_auto.c ****     ctx->abs_pan_target  = DEG_TO_UNIT(
 1474              		.loc 1 326 0
 1475 0074 B86A     		ldr	r0, [r7, #40]	@ float
 1476 0076 F96A     		ldr	r1, [r7, #44]	@ float
 1477 0078 D7F8F830 		ldr	r3, [r7, #248]	@ float
 1478 007c D7F8FC20 		ldr	r2, [r7, #252]	@ float
 1479 0080 FFF7FEFF 		bl	gps_bearing_deg
 1480 0084 0246     		mov	r2, r0
 1481 0086 BB6B     		ldr	r3, [r7, #56]	@ float
 1482 0088 1946     		mov	r1, r3
 1483 008a 1046     		mov	r0, r2
 1484 008c FFF7FEFF 		bl	__aeabi_fsub
 1485 0090 0346     		mov	r3, r0
 1486 0092 1449     		ldr	r1, .L87+8
 1487 0094 1846     		mov	r0, r3
 1488 0096 FFF7FEFF 		bl	__aeabi_fdiv
 1489 009a 0346     		mov	r3, r0
ARM GAS  C:\Users\yoons\AppData\Local\Temp\cczguO9p.s 			page 34


 1490 009c 1A46     		mov	r2, r3
 1491 009e 7B68     		ldr	r3, [r7, #4]
 1492 00a0 DA61     		str	r2, [r3, #28]	@ float
 327:app_state_auto.c ****         gps_bearing_deg(  st.gps_lat_deg, st.gps_lon_deg, tlat, tlon)
 328:app_state_auto.c ****                         - st.gps_heading_deg);
 329:app_state_auto.c ****     ctx->abs_tilt_target = DEG_TO_UNIT(
 1493              		.loc 1 329 0
 1494 00a2 B86A     		ldr	r0, [r7, #40]	@ float
 1495 00a4 F96A     		ldr	r1, [r7, #44]	@ float
 1496 00a6 3A6B     		ldr	r2, [r7, #48]	@ float
 1497 00a8 D7F8F430 		ldr	r3, [r7, #244]	@ float
 1498 00ac 0193     		str	r3, [sp, #4]	@ float
 1499 00ae D7F8F830 		ldr	r3, [r7, #248]	@ float
 1500 00b2 0093     		str	r3, [sp]	@ float
 1501 00b4 D7F8FC30 		ldr	r3, [r7, #252]	@ float
 1502 00b8 FFF7FEFF 		bl	gps_elev_deg
 1503 00bc 0346     		mov	r3, r0
 1504 00be 0949     		ldr	r1, .L87+8
 1505 00c0 1846     		mov	r0, r3
 1506 00c2 FFF7FEFF 		bl	__aeabi_fdiv
 1507 00c6 0346     		mov	r3, r0
 1508 00c8 1A46     		mov	r2, r3
 1509 00ca 7B68     		ldr	r3, [r7, #4]
 1510 00cc 1A62     		str	r2, [r3, #32]	@ float
 1511 00ce 00E0     		b	.L83
 1512              	.L86:
 320:app_state_auto.c ****     // Load working target
 1513              		.loc 1 320 0
 1514 00d0 00BF     		nop
 1515              	.L83:
 330:app_state_auto.c ****         gps_elev_deg(st.gps_lat_deg, st.gps_lon_deg, st.gps_alt_m, 
 331:app_state_auto.c ****                      tlat, tlon, talt));
 332:app_state_auto.c **** }
 1516              		.loc 1 332 0
 1517 00d2 07F58077 		add	r7, r7, #256
 1518              		.cfi_def_cfa_offset 8
 1519 00d6 BD46     		mov	sp, r7
 1520              		.cfi_def_cfa_register 13
 1521              		@ sp needed
 1522 00d8 80BD     		pop	{r7, pc}
 1523              	.L88:
 1524 00da 00BF     		.align	2
 1525              	.L87:
 1526 00dc 95BFD633 		.word	869711765
 1527 00e0 6F12833A 		.word	981668463
 1528 00e4 00003443 		.word	1127481344
 1529              		.cfi_endproc
 1530              	.LFE77:
 1531              		.size	gps_update_pointing, .-gps_update_pointing
 1532              		.global	__aeabi_ui2f
 1533              		.global	__aeabi_fcmpgt
 1534              		.section	.rodata
 1535 01ce 0000     		.align	2
 1536              	.LC11:
 1537 01d0 5B415554 		.ascii	"[AUTO_ACQ_GPS] new target -> re-slew\015\012\000"
 1537      4F5F4143 
 1537      515F4750 
ARM GAS  C:\Users\yoons\AppData\Local\Temp\cczguO9p.s 			page 35


 1537      535D206E 
 1537      65772074 
 1538 01f7 00       		.align	2
 1539              	.LC12:
 1540 01f8 5B415554 		.ascii	"[AUTO_ACQ_GPS] settled -> AUTO_HOLD\015\012\000"
 1540      4F5F4143 
 1540      515F4750 
 1540      535D2073 
 1540      6574746C 
 1541              		.section	.text.gps_check_settle,"ax",%progbits
 1542              		.align	2
 1543              		.thumb
 1544              		.thumb_func
 1545              		.type	gps_check_settle, %function
 1546              	gps_check_settle:
 1547              	.LFB78:
 333:app_state_auto.c **** 
 334:app_state_auto.c **** // Take finite difference of attitude to tell when arrived at destination.
 335:app_state_auto.c **** // Checks for new target GPS coordinate while in progress, which triggers a 
 336:app_state_auto.c **** // restart of AUTO_ACQ_GPS.
 337:app_state_auto.c **** static void gps_check_settle(app_ctx_t *ctx)
 338:app_state_auto.c **** {
 1548              		.loc 1 338 0
 1549              		.cfi_startproc
 1550              		@ args = 0, pretend = 0, frame = 40
 1551              		@ frame_needed = 1, uses_anonymous_args = 0
 1552 0000 90B5     		push	{r4, r7, lr}
 1553              		.cfi_def_cfa_offset 12
 1554              		.cfi_offset 4, -12
 1555              		.cfi_offset 7, -8
 1556              		.cfi_offset 14, -4
 1557 0002 8BB0     		sub	sp, sp, #44
 1558              		.cfi_def_cfa_offset 56
 1559 0004 00AF     		add	r7, sp, #0
 1560              		.cfi_def_cfa_register 7
 1561 0006 7860     		str	r0, [r7, #4]
 339:app_state_auto.c ****     // Too fast? Dont judge.
 340:app_state_auto.c ****     uint32_t now = g_tick_ms;
 1562              		.loc 1 340 0
 1563 0008 694B     		ldr	r3, .L109
 1564 000a 1B68     		ldr	r3, [r3]
 1565 000c 3B62     		str	r3, [r7, #32]
 341:app_state_auto.c ****     if (now - ctx->gps_last_sample_ms < GPS_SETTLE_PERIOD_MS) return;
 1566              		.loc 1 341 0
 1567 000e 7B68     		ldr	r3, [r7, #4]
 1568 0010 DB6C     		ldr	r3, [r3, #76]
 1569 0012 3A6A     		ldr	r2, [r7, #32]
 1570 0014 D31A     		subs	r3, r2, r3
 1571 0016 312B     		cmp	r3, #49
 1572 0018 40F2C380 		bls	.L107
 342:app_state_auto.c **** 
 343:app_state_auto.c ****     // no telemetry -> can't judge
 344:app_state_auto.c ****     float pan, tilt;
 345:app_state_auto.c ****     if (!gimbal_pan_tilt_deg(ctx, &pan, &tilt))
 1573              		.loc 1 345 0
 1574 001c 07F10802 		add	r2, r7, #8
 1575 0020 07F10C03 		add	r3, r7, #12
ARM GAS  C:\Users\yoons\AppData\Local\Temp\cczguO9p.s 			page 36


 1576 0024 1946     		mov	r1, r3
 1577 0026 7868     		ldr	r0, [r7, #4]
 1578 0028 FFF7FEFF 		bl	gimbal_pan_tilt_deg
 1579 002c 0346     		mov	r3, r0
 1580 002e 002B     		cmp	r3, #0
 1581 0030 00F0B980 		beq	.L108
 346:app_state_auto.c ****     {
 347:app_state_auto.c ****         return;
 348:app_state_auto.c ****     }
 349:app_state_auto.c ****     float speed_dps = 1.0e9f;   // assume moving until we have a valid dt
 1582              		.loc 1 349 0
 1583 0034 5F4B     		ldr	r3, .L109+4
 1584 0036 7B62     		str	r3, [r7, #36]	@ float
 350:app_state_auto.c ****     if (ctx->gps_last_sample_ms != 0u) {
 1585              		.loc 1 350 0
 1586 0038 7B68     		ldr	r3, [r7, #4]
 1587 003a DB6C     		ldr	r3, [r3, #76]
 1588 003c 002B     		cmp	r3, #0
 1589 003e 34D0     		beq	.L93
 1590              	.LBB15:
 351:app_state_auto.c ****         float dt = (float)(now - ctx->gps_last_sample_ms) * 0.001f;
 1591              		.loc 1 351 0
 1592 0040 7B68     		ldr	r3, [r7, #4]
 1593 0042 DB6C     		ldr	r3, [r3, #76]
 1594 0044 3A6A     		ldr	r2, [r7, #32]
 1595 0046 D31A     		subs	r3, r2, r3
 1596 0048 1846     		mov	r0, r3
 1597 004a FFF7FEFF 		bl	__aeabi_ui2f
 1598 004e 0346     		mov	r3, r0
 1599 0050 5949     		ldr	r1, .L109+8
 1600 0052 1846     		mov	r0, r3
 1601 0054 FFF7FEFF 		bl	__aeabi_fmul
 1602 0058 0346     		mov	r3, r0
 1603 005a FB61     		str	r3, [r7, #28]	@ float
 352:app_state_auto.c ****         if (dt > 0.0f)
 1604              		.loc 1 352 0
 1605 005c 4FF00001 		mov	r1, #0
 1606 0060 F869     		ldr	r0, [r7, #28]	@ float
 1607 0062 FFF7FEFF 		bl	__aeabi_fcmpgt
 1608 0066 0346     		mov	r3, r0
 1609 0068 002B     		cmp	r3, #0
 1610 006a 1ED0     		beq	.L93
 353:app_state_auto.c ****             speed_dps = (fabsf(pan  - ctx->gps_last_pan_deg) +
 1611              		.loc 1 353 0
 1612 006c FA68     		ldr	r2, [r7, #12]	@ float
 1613 006e 7B68     		ldr	r3, [r7, #4]
 1614 0070 5B6C     		ldr	r3, [r3, #68]	@ float
 1615 0072 1946     		mov	r1, r3
 1616 0074 1046     		mov	r0, r2
 1617 0076 FFF7FEFF 		bl	__aeabi_fsub
 1618 007a 0346     		mov	r3, r0
 1619 007c 23F00044 		bic	r4, r3, #-2147483648
 354:app_state_auto.c ****                          fabsf(tilt - ctx->gps_last_tilt_deg)) / dt;
 1620              		.loc 1 354 0
 1621 0080 BA68     		ldr	r2, [r7, #8]	@ float
 1622 0082 7B68     		ldr	r3, [r7, #4]
 1623 0084 9B6C     		ldr	r3, [r3, #72]	@ float
ARM GAS  C:\Users\yoons\AppData\Local\Temp\cczguO9p.s 			page 37


 1624 0086 1946     		mov	r1, r3
 1625 0088 1046     		mov	r0, r2
 1626 008a FFF7FEFF 		bl	__aeabi_fsub
 1627 008e 0346     		mov	r3, r0
 1628 0090 23F00043 		bic	r3, r3, #-2147483648
 353:app_state_auto.c ****             speed_dps = (fabsf(pan  - ctx->gps_last_pan_deg) +
 1629              		.loc 1 353 0
 1630 0094 1946     		mov	r1, r3
 1631 0096 2046     		mov	r0, r4
 1632 0098 FFF7FEFF 		bl	__aeabi_fadd
 1633 009c 0346     		mov	r3, r0
 1634 009e F969     		ldr	r1, [r7, #28]	@ float
 1635 00a0 1846     		mov	r0, r3
 1636 00a2 FFF7FEFF 		bl	__aeabi_fdiv
 1637 00a6 0346     		mov	r3, r0
 1638 00a8 7B62     		str	r3, [r7, #36]	@ float
 1639              	.L93:
 1640              	.LBE15:
 355:app_state_auto.c ****     }
 356:app_state_auto.c ****     ctx->gps_last_pan_deg   = pan;
 1641              		.loc 1 356 0
 1642 00aa FA68     		ldr	r2, [r7, #12]	@ float
 1643 00ac 7B68     		ldr	r3, [r7, #4]
 1644 00ae 5A64     		str	r2, [r3, #68]	@ float
 357:app_state_auto.c ****     ctx->gps_last_tilt_deg  = tilt;
 1645              		.loc 1 357 0
 1646 00b0 BA68     		ldr	r2, [r7, #8]	@ float
 1647 00b2 7B68     		ldr	r3, [r7, #4]
 1648 00b4 9A64     		str	r2, [r3, #72]	@ float
 358:app_state_auto.c ****     ctx->gps_last_sample_ms = now;
 1649              		.loc 1 358 0
 1650 00b6 7B68     		ldr	r3, [r7, #4]
 1651 00b8 3A6A     		ldr	r2, [r7, #32]
 1652 00ba DA64     		str	r2, [r3, #76]
 359:app_state_auto.c **** 
 360:app_state_auto.c ****     /* Frame assumption: measured euler pan/tilt share the gimbal's ABSOLUTE
 361:app_state_auto.c ****        command reference. Validate on hardware; if frames differ, the low-speed
 362:app_state_auto.c ****        gate still gives a usable settle proxy. */
 363:app_state_auto.c ****     float cmd_pan_deg  = UNIT_TO_DEG(ctx->abs_pan_target);
 1653              		.loc 1 363 0
 1654 00bc 7B68     		ldr	r3, [r7, #4]
 1655 00be DB69     		ldr	r3, [r3, #28]	@ float
 1656 00c0 3E49     		ldr	r1, .L109+12
 1657 00c2 1846     		mov	r0, r3
 1658 00c4 FFF7FEFF 		bl	__aeabi_fmul
 1659 00c8 0346     		mov	r3, r0
 1660 00ca BB61     		str	r3, [r7, #24]	@ float
 364:app_state_auto.c ****     float cmd_tilt_deg = UNIT_TO_DEG(ctx->abs_tilt_target);
 1661              		.loc 1 364 0
 1662 00cc 7B68     		ldr	r3, [r7, #4]
 1663 00ce 1B6A     		ldr	r3, [r3, #32]	@ float
 1664 00d0 3A49     		ldr	r1, .L109+12
 1665 00d2 1846     		mov	r0, r3
 1666 00d4 FFF7FEFF 		bl	__aeabi_fmul
 1667 00d8 0346     		mov	r3, r0
 1668 00da 7B61     		str	r3, [r7, #20]	@ float
 365:app_state_auto.c ****     uint8_t arrived = (fabsf(pan  - cmd_pan_deg)  < GPS_POINT_SETTLE_DEG) &&
ARM GAS  C:\Users\yoons\AppData\Local\Temp\cczguO9p.s 			page 38


 1669              		.loc 1 365 0
 1670 00dc FB68     		ldr	r3, [r7, #12]	@ float
 1671 00de B969     		ldr	r1, [r7, #24]	@ float
 1672 00e0 1846     		mov	r0, r3
 1673 00e2 FFF7FEFF 		bl	__aeabi_fsub
 1674 00e6 0346     		mov	r3, r0
 1675 00e8 23F00043 		bic	r3, r3, #-2147483648
 1676 00ec 4FF07C51 		mov	r1, #1056964608
 1677 00f0 1846     		mov	r0, r3
 1678 00f2 FFF7FEFF 		bl	__aeabi_fcmplt
 1679 00f6 0346     		mov	r3, r0
 1680 00f8 002B     		cmp	r3, #0
 1681 00fa 11D0     		beq	.L95
 366:app_state_auto.c ****                       (fabsf(tilt - cmd_tilt_deg) < GPS_POINT_SETTLE_DEG);
 1682              		.loc 1 366 0 discriminator 1
 1683 00fc BB68     		ldr	r3, [r7, #8]	@ float
 1684 00fe 7969     		ldr	r1, [r7, #20]	@ float
 1685 0100 1846     		mov	r0, r3
 1686 0102 FFF7FEFF 		bl	__aeabi_fsub
 1687 0106 0346     		mov	r3, r0
 1688 0108 23F00043 		bic	r3, r3, #-2147483648
 365:app_state_auto.c ****     uint8_t arrived = (fabsf(pan  - cmd_pan_deg)  < GPS_POINT_SETTLE_DEG) &&
 1689              		.loc 1 365 0 discriminator 1
 1690 010c 4FF07C51 		mov	r1, #1056964608
 1691 0110 1846     		mov	r0, r3
 1692 0112 FFF7FEFF 		bl	__aeabi_fcmplt
 1693 0116 0346     		mov	r3, r0
 1694 0118 002B     		cmp	r3, #0
 1695 011a 01D0     		beq	.L95
 365:app_state_auto.c ****     uint8_t arrived = (fabsf(pan  - cmd_pan_deg)  < GPS_POINT_SETTLE_DEG) &&
 1696              		.loc 1 365 0 is_stmt 0 discriminator 3
 1697 011c 0123     		movs	r3, #1
 1698 011e 00E0     		b	.L98
 1699              	.L95:
 365:app_state_auto.c ****     uint8_t arrived = (fabsf(pan  - cmd_pan_deg)  < GPS_POINT_SETTLE_DEG) &&
 1700              		.loc 1 365 0 discriminator 4
 1701 0120 0023     		movs	r3, #0
 1702              	.L98:
 365:app_state_auto.c ****     uint8_t arrived = (fabsf(pan  - cmd_pan_deg)  < GPS_POINT_SETTLE_DEG) &&
 1703              		.loc 1 365 0 discriminator 6
 1704 0122 FB74     		strb	r3, [r7, #19]
 367:app_state_auto.c ****     uint8_t slow    = (speed_dps < GPS_RATE_SETTLE_DPS);
 1705              		.loc 1 367 0 is_stmt 1 discriminator 6
 1706 0124 0123     		movs	r3, #1
 1707 0126 1C46     		mov	r4, r3
 1708 0128 4FF07E51 		mov	r1, #1065353216
 1709 012c 786A     		ldr	r0, [r7, #36]	@ float
 1710 012e FFF7FEFF 		bl	__aeabi_fcmplt
 1711 0132 0346     		mov	r3, r0
 1712 0134 002B     		cmp	r3, #0
 1713 0136 01D1     		bne	.L99
 1714 0138 0023     		movs	r3, #0
 1715 013a 1C46     		mov	r4, r3
 1716              	.L99:
 1717 013c E3B2     		uxtb	r3, r4
 1718 013e BB74     		strb	r3, [r7, #18]
 368:app_state_auto.c ****     
ARM GAS  C:\Users\yoons\AppData\Local\Temp\cczguO9p.s 			page 39


 369:app_state_auto.c ****     // Catch new target flag
 370:app_state_auto.c ****     if (ctx->gps_new_target && (ctx->gps_settled || (arrived && slow))) {
 1719              		.loc 1 370 0 discriminator 6
 1720 0140 7B68     		ldr	r3, [r7, #4]
 1721 0142 93F83130 		ldrb	r3, [r3, #49]	@ zero_extendqisi2
 1722 0146 002B     		cmp	r3, #0
 1723 0148 14D0     		beq	.L100
 1724              		.loc 1 370 0 is_stmt 0 discriminator 1
 1725 014a 7B68     		ldr	r3, [r7, #4]
 1726 014c 93F84030 		ldrb	r3, [r3, #64]	@ zero_extendqisi2
 1727 0150 002B     		cmp	r3, #0
 1728 0152 05D1     		bne	.L101
 1729              		.loc 1 370 0 discriminator 2
 1730 0154 FB7C     		ldrb	r3, [r7, #19]	@ zero_extendqisi2
 1731 0156 002B     		cmp	r3, #0
 1732 0158 0CD0     		beq	.L100
 1733              		.loc 1 370 0 discriminator 3
 1734 015a BB7C     		ldrb	r3, [r7, #18]	@ zero_extendqisi2
 1735 015c 002B     		cmp	r3, #0
 1736 015e 09D0     		beq	.L100
 1737              	.L101:
 371:app_state_auto.c ****         UART_DEBUG_PutString("[AUTO_ACQ_GPS] new target -> re-slew\r\n");
 1738              		.loc 1 371 0 is_stmt 1
 1739 0160 1748     		ldr	r0, .L109+16
 1740 0162 FFF7FEFF 		bl	dbg_put
 372:app_state_auto.c ****         gps_start_slew(ctx);  // copies target->work, clears flag + settled
 1741              		.loc 1 372 0
 1742 0166 7868     		ldr	r0, [r7, #4]
 1743 0168 FFF7FEFF 		bl	gps_start_slew
 373:app_state_auto.c ****         gps_update_pointing(ctx);
 1744              		.loc 1 373 0
 1745 016c 7868     		ldr	r0, [r7, #4]
 1746 016e FFF7FEFF 		bl	gps_update_pointing
 374:app_state_auto.c ****         return;
 1747              		.loc 1 374 0
 1748 0172 19E0     		b	.L89
 1749              	.L100:
 375:app_state_auto.c ****     }
 376:app_state_auto.c ****     // Exit condition for valid finishing of GPS slew.
 377:app_state_auto.c ****     if (!ctx->gps_settled && arrived && slow) {
 1750              		.loc 1 377 0
 1751 0174 7B68     		ldr	r3, [r7, #4]
 1752 0176 93F84030 		ldrb	r3, [r3, #64]	@ zero_extendqisi2
 1753 017a 002B     		cmp	r3, #0
 1754 017c 14D1     		bne	.L89
 1755              		.loc 1 377 0 is_stmt 0 discriminator 1
 1756 017e FB7C     		ldrb	r3, [r7, #19]	@ zero_extendqisi2
 1757 0180 002B     		cmp	r3, #0
 1758 0182 11D0     		beq	.L89
 1759              		.loc 1 377 0 discriminator 2
 1760 0184 BB7C     		ldrb	r3, [r7, #18]	@ zero_extendqisi2
 1761 0186 002B     		cmp	r3, #0
 1762 0188 0ED0     		beq	.L89
 378:app_state_auto.c ****         ctx->gps_settled = 1u;
 1763              		.loc 1 378 0 is_stmt 1
 1764 018a 7B68     		ldr	r3, [r7, #4]
 1765 018c 0122     		movs	r2, #1
ARM GAS  C:\Users\yoons\AppData\Local\Temp\cczguO9p.s 			page 40


 1766 018e 83F84020 		strb	r2, [r3, #64]
 379:app_state_auto.c ****         UART_DEBUG_PutString("[AUTO_ACQ_GPS] settled -> AUTO_HOLD\r\n");
 1767              		.loc 1 379 0
 1768 0192 0C48     		ldr	r0, .L109+20
 1769 0194 FFF7FEFF 		bl	dbg_put
 380:app_state_auto.c ****         app_transition(ctx, AUTO_HOLD);
 1770              		.loc 1 380 0
 1771 0198 0921     		movs	r1, #9
 1772 019a 7868     		ldr	r0, [r7, #4]
 1773 019c FFF7FEFF 		bl	app_transition
 1774 01a0 02E0     		b	.L89
 1775              	.L107:
 341:app_state_auto.c **** 
 1776              		.loc 1 341 0
 1777 01a2 00BF     		nop
 1778 01a4 00E0     		b	.L89
 1779              	.L108:
 347:app_state_auto.c ****     }
 1780              		.loc 1 347 0
 1781 01a6 00BF     		nop
 1782              	.L89:
 381:app_state_auto.c ****     }
 382:app_state_auto.c **** }
 1783              		.loc 1 382 0
 1784 01a8 2C37     		adds	r7, r7, #44
 1785              		.cfi_def_cfa_offset 12
 1786 01aa BD46     		mov	sp, r7
 1787              		.cfi_def_cfa_register 13
 1788              		@ sp needed
 1789 01ac 90BD     		pop	{r4, r7, pc}
 1790              	.L110:
 1791 01ae 00BF     		.align	2
 1792              	.L109:
 1793 01b0 00000000 		.word	g_tick_ms
 1794 01b4 286B6E4E 		.word	1315859240
 1795 01b8 6F12833A 		.word	981668463
 1796 01bc 00003443 		.word	1127481344
 1797 01c0 D0010000 		.word	.LC11
 1798 01c4 F8010000 		.word	.LC12
 1799              		.cfi_endproc
 1800              	.LFE78:
 1801              		.size	gps_check_settle, .-gps_check_settle
 1802              		.section	.rodata
 1803 021e 0000     		.align	2
 1804              	.LC13:
 1805 0220 0D0A5B41 		.ascii	"\015\012[AUTO_ACQ_GPS] no GPS target -> STBY_HOLD\015"
 1805      55544F5F 
 1805      4143515F 
 1805      4750535D 
 1805      206E6F20 
 1806 024c 0A00     		.ascii	"\012\000"
 1807 024e 0000     		.align	2
 1808              	.LC14:
 1809 0250 0D0A5B41 		.ascii	"\015\012[AUTO_ACQ_GPS] open-loop GPS pointing  e=ex"
 1809      55544F5F 
 1809      4143515F 
 1809      4750535D 
ARM GAS  C:\Users\yoons\AppData\Local\Temp\cczguO9p.s 			page 41


 1809      206F7065 
 1810 027d 69740D0A 		.ascii	"it\015\012> \000"
 1810      3E2000
 1811              		.section	.text.entry_auto_acq_gps,"ax",%progbits
 1812              		.align	2
 1813              		.global	entry_auto_acq_gps
 1814              		.thumb
 1815              		.thumb_func
 1816              		.type	entry_auto_acq_gps, %function
 1817              	entry_auto_acq_gps:
 1818              	.LFB79:
 383:app_state_auto.c **** 
 384:app_state_auto.c **** void entry_auto_acq_gps(app_ctx_t *ctx)
 385:app_state_auto.c **** {
 1819              		.loc 1 385 0
 1820              		.cfi_startproc
 1821              		@ args = 0, pretend = 0, frame = 8
 1822              		@ frame_needed = 1, uses_anonymous_args = 0
 1823 0000 80B5     		push	{r7, lr}
 1824              		.cfi_def_cfa_offset 8
 1825              		.cfi_offset 7, -8
 1826              		.cfi_offset 14, -4
 1827 0002 82B0     		sub	sp, sp, #8
 1828              		.cfi_def_cfa_offset 16
 1829 0004 00AF     		add	r7, sp, #0
 1830              		.cfi_def_cfa_register 7
 1831 0006 7860     		str	r0, [r7, #4]
 386:app_state_auto.c ****     // Check for GPS target. TODO: Is this hanlded seperately now?
 387:app_state_auto.c ****     if (!ctx->gps_target_set) {
 1832              		.loc 1 387 0
 1833 0008 7B68     		ldr	r3, [r7, #4]
 1834 000a 93F83030 		ldrb	r3, [r3, #48]	@ zero_extendqisi2
 1835 000e 002B     		cmp	r3, #0
 1836 0010 07D1     		bne	.L112
 388:app_state_auto.c ****         UART_DEBUG_PutString("\r\n[AUTO_ACQ_GPS] no GPS target -> STBY_HOLD\r\n");
 1837              		.loc 1 388 0
 1838 0012 0B48     		ldr	r0, .L114
 1839 0014 FFF7FEFF 		bl	dbg_put
 389:app_state_auto.c ****         app_transition(ctx, STBY_HOLD);
 1840              		.loc 1 389 0
 1841 0018 0621     		movs	r1, #6
 1842 001a 7868     		ldr	r0, [r7, #4]
 1843 001c FFF7FEFF 		bl	app_transition
 390:app_state_auto.c ****         return;
 1844              		.loc 1 390 0
 1845 0020 0BE0     		b	.L111
 1846              	.L112:
 391:app_state_auto.c ****     }
 392:app_state_auto.c ****     UART_DEBUG_PutString("\r\n[AUTO_ACQ_GPS] open-loop GPS pointing  e=exit\r\n> ");
 1847              		.loc 1 392 0
 1848 0022 0848     		ldr	r0, .L114+4
 1849 0024 FFF7FEFF 		bl	dbg_put
 393:app_state_auto.c ****     // Set start flag.
 394:app_state_auto.c ****     ctx->gps_last_sample_ms = 0u;
 1850              		.loc 1 394 0
 1851 0028 7B68     		ldr	r3, [r7, #4]
 1852 002a 0022     		movs	r2, #0
ARM GAS  C:\Users\yoons\AppData\Local\Temp\cczguO9p.s 			page 42


 1853 002c DA64     		str	r2, [r3, #76]
 395:app_state_auto.c ****     // Trigger flags that we are starting slew.
 396:app_state_auto.c ****     gps_start_slew(ctx);        // snap target -> work, start fresh
 1854              		.loc 1 396 0
 1855 002e 7868     		ldr	r0, [r7, #4]
 1856 0030 FFF7FEFF 		bl	gps_start_slew
 397:app_state_auto.c ****     // Get and use bearing for pointing math.
 398:app_state_auto.c ****     gps_update_pointing(ctx);   // initial bearing
 1857              		.loc 1 398 0
 1858 0034 7868     		ldr	r0, [r7, #4]
 1859 0036 FFF7FEFF 		bl	gps_update_pointing
 1860              	.L111:
 399:app_state_auto.c **** }
 1861              		.loc 1 399 0
 1862 003a 0837     		adds	r7, r7, #8
 1863              		.cfi_def_cfa_offset 8
 1864 003c BD46     		mov	sp, r7
 1865              		.cfi_def_cfa_register 13
 1866              		@ sp needed
 1867 003e 80BD     		pop	{r7, pc}
 1868              	.L115:
 1869              		.align	2
 1870              	.L114:
 1871 0040 20020000 		.word	.LC13
 1872 0044 50020000 		.word	.LC14
 1873              		.cfi_endproc
 1874              	.LFE79:
 1875              		.size	entry_auto_acq_gps, .-entry_auto_acq_gps
 1876              		.section	.text.exit_auto_acq_gps,"ax",%progbits
 1877              		.align	2
 1878              		.global	exit_auto_acq_gps
 1879              		.thumb
 1880              		.thumb_func
 1881              		.type	exit_auto_acq_gps, %function
 1882              	exit_auto_acq_gps:
 1883              	.LFB80:
 400:app_state_auto.c **** 
 401:app_state_auto.c **** void exit_auto_acq_gps(app_ctx_t *ctx)
 402:app_state_auto.c **** {
 1884              		.loc 1 402 0
 1885              		.cfi_startproc
 1886              		@ args = 0, pretend = 0, frame = 8
 1887              		@ frame_needed = 1, uses_anonymous_args = 0
 1888 0000 80B5     		push	{r7, lr}
 1889              		.cfi_def_cfa_offset 8
 1890              		.cfi_offset 7, -8
 1891              		.cfi_offset 14, -4
 1892 0002 82B0     		sub	sp, sp, #8
 1893              		.cfi_def_cfa_offset 16
 1894 0004 00AF     		add	r7, sp, #0
 1895              		.cfi_def_cfa_register 7
 1896 0006 7860     		str	r0, [r7, #4]
 403:app_state_auto.c ****     // Flush centroid stream to avoid bounce on exit
 404:app_state_auto.c ****     sbc_discard_centroid(STREAM_COARSE);
 1897              		.loc 1 404 0
 1898 0008 0020     		movs	r0, #0
 1899 000a FFF7FEFF 		bl	sbc_discard_centroid
ARM GAS  C:\Users\yoons\AppData\Local\Temp\cczguO9p.s 			page 43


 405:app_state_auto.c ****     
 406:app_state_auto.c ****     // Set pointing direction as the new origin
 407:app_state_auto.c ****     if (ctx->gps_settled) set_origin(ctx, 1u);
 1900              		.loc 1 407 0
 1901 000e 7B68     		ldr	r3, [r7, #4]
 1902 0010 93F84030 		ldrb	r3, [r3, #64]	@ zero_extendqisi2
 1903 0014 002B     		cmp	r3, #0
 1904 0016 03D0     		beq	.L117
 1905              		.loc 1 407 0 is_stmt 0 discriminator 1
 1906 0018 0121     		movs	r1, #1
 1907 001a 7868     		ldr	r0, [r7, #4]
 1908 001c FFF7FEFF 		bl	set_origin
 1909              	.L117:
 408:app_state_auto.c ****     
 409:app_state_auto.c ****     // Reset target variables
 410:app_state_auto.c ****     ctx->abs_pan_target = ctx->abs_tilt_target = 0.0f;
 1910              		.loc 1 410 0 is_stmt 1
 1911 0020 7B68     		ldr	r3, [r7, #4]
 1912 0022 4FF00002 		mov	r2, #0
 1913 0026 1A62     		str	r2, [r3, #32]	@ float
 1914 0028 7B68     		ldr	r3, [r7, #4]
 1915 002a 1A6A     		ldr	r2, [r3, #32]	@ float
 1916 002c 7B68     		ldr	r3, [r7, #4]
 1917 002e DA61     		str	r2, [r3, #28]	@ float
 411:app_state_auto.c **** }
 1918              		.loc 1 411 0
 1919 0030 00BF     		nop
 1920 0032 0837     		adds	r7, r7, #8
 1921              		.cfi_def_cfa_offset 8
 1922 0034 BD46     		mov	sp, r7
 1923              		.cfi_def_cfa_register 13
 1924              		@ sp needed
 1925 0036 80BD     		pop	{r7, pc}
 1926              		.cfi_endproc
 1927              	.LFE80:
 1928              		.size	exit_auto_acq_gps, .-exit_auto_acq_gps
 1929              		.section	.text.key_auto_acq_gps,"ax",%progbits
 1930              		.align	2
 1931              		.global	key_auto_acq_gps
 1932              		.thumb
 1933              		.thumb_func
 1934              		.type	key_auto_acq_gps, %function
 1935              	key_auto_acq_gps:
 1936              	.LFB81:
 412:app_state_auto.c **** 
 413:app_state_auto.c **** uint8_t key_auto_acq_gps(app_ctx_t *ctx, char k)
 414:app_state_auto.c **** {
 1937              		.loc 1 414 0
 1938              		.cfi_startproc
 1939              		@ args = 0, pretend = 0, frame = 8
 1940              		@ frame_needed = 1, uses_anonymous_args = 0
 1941 0000 80B5     		push	{r7, lr}
 1942              		.cfi_def_cfa_offset 8
 1943              		.cfi_offset 7, -8
 1944              		.cfi_offset 14, -4
 1945 0002 82B0     		sub	sp, sp, #8
 1946              		.cfi_def_cfa_offset 16
ARM GAS  C:\Users\yoons\AppData\Local\Temp\cczguO9p.s 			page 44


 1947 0004 00AF     		add	r7, sp, #0
 1948              		.cfi_def_cfa_register 7
 1949 0006 7860     		str	r0, [r7, #4]
 1950 0008 0B46     		mov	r3, r1
 1951 000a FB70     		strb	r3, [r7, #3]
 415:app_state_auto.c ****     switch (k) {
 1952              		.loc 1 415 0
 1953 000c FB78     		ldrb	r3, [r7, #3]	@ zero_extendqisi2
 1954 000e 652B     		cmp	r3, #101
 1955 0010 05D1     		bne	.L122
 416:app_state_auto.c ****         case 'e': app_transition(ctx, STBY_HOLD); return 1;
 1956              		.loc 1 416 0
 1957 0012 0621     		movs	r1, #6
 1958 0014 7868     		ldr	r0, [r7, #4]
 1959 0016 FFF7FEFF 		bl	app_transition
 1960 001a 0123     		movs	r3, #1
 1961 001c 00E0     		b	.L121
 1962              	.L122:
 417:app_state_auto.c ****         default:  return 0;
 1963              		.loc 1 417 0
 1964 001e 0023     		movs	r3, #0
 1965              	.L121:
 418:app_state_auto.c ****     }
 419:app_state_auto.c **** }
 1966              		.loc 1 419 0
 1967 0020 1846     		mov	r0, r3
 1968 0022 0837     		adds	r7, r7, #8
 1969              		.cfi_def_cfa_offset 8
 1970 0024 BD46     		mov	sp, r7
 1971              		.cfi_def_cfa_register 13
 1972              		@ sp needed
 1973 0026 80BD     		pop	{r7, pc}
 1974              		.cfi_endproc
 1975              	.LFE81:
 1976              		.size	key_auto_acq_gps, .-key_auto_acq_gps
 1977              		.section	.text.build_auto_acq_gps,"ax",%progbits
 1978              		.align	2
 1979              		.global	build_auto_acq_gps
 1980              		.thumb
 1981              		.thumb_func
 1982              		.type	build_auto_acq_gps, %function
 1983              	build_auto_acq_gps:
 1984              	.LFB82:
 420:app_state_auto.c **** 
 421:app_state_auto.c **** void build_auto_acq_gps(const app_ctx_t *ctx, hamfly_control_t *out)
 422:app_state_auto.c **** {
 1985              		.loc 1 422 0
 1986              		.cfi_startproc
 1987              		@ args = 0, pretend = 0, frame = 8
 1988              		@ frame_needed = 1, uses_anonymous_args = 0
 1989 0000 80B5     		push	{r7, lr}
 1990              		.cfi_def_cfa_offset 8
 1991              		.cfi_offset 7, -8
 1992              		.cfi_offset 14, -4
 1993 0002 82B0     		sub	sp, sp, #8
 1994              		.cfi_def_cfa_offset 16
 1995 0004 00AF     		add	r7, sp, #0
ARM GAS  C:\Users\yoons\AppData\Local\Temp\cczguO9p.s 			page 45


 1996              		.cfi_def_cfa_register 7
 1997 0006 7860     		str	r0, [r7, #4]
 1998 0008 3960     		str	r1, [r7]
 423:app_state_auto.c ****     out->kill      = 0u;
 1999              		.loc 1 423 0
 2000 000a 3B68     		ldr	r3, [r7]
 2001 000c 0022     		movs	r2, #0
 2002 000e 1A74     		strb	r2, [r3, #16]
 424:app_state_auto.c ****     out->roll_mode = HAMFLY_DEFER;
 2003              		.loc 1 424 0
 2004 0010 3B68     		ldr	r3, [r7]
 2005 0012 0022     		movs	r2, #0
 2006 0014 9A73     		strb	r2, [r3, #14]
 425:app_state_auto.c ****     out->roll      = 0.0f;
 2007              		.loc 1 425 0
 2008 0016 3B68     		ldr	r3, [r7]
 2009 0018 4FF00002 		mov	r2, #0
 2010 001c 9A60     		str	r2, [r3, #8]	@ float
 426:app_state_auto.c ****     out->pan_mode  = out->tilt_mode = HAMFLY_ABSOLUTE;  // TODO: Majestic? Needs testing of pointin
 2011              		.loc 1 426 0
 2012 001e 3B68     		ldr	r3, [r7]
 2013 0020 0222     		movs	r2, #2
 2014 0022 5A73     		strb	r2, [r3, #13]
 2015 0024 3B68     		ldr	r3, [r7]
 2016 0026 5A7B     		ldrb	r2, [r3, #13]	@ zero_extendqisi2
 2017 0028 3B68     		ldr	r3, [r7]
 2018 002a 1A73     		strb	r2, [r3, #12]
 427:app_state_auto.c ****     out->pan  = CLAMP(ctx->abs_pan_target,  -1.0f, 1.0f);
 2019              		.loc 1 427 0
 2020 002c 7B68     		ldr	r3, [r7, #4]
 2021 002e DB69     		ldr	r3, [r3, #28]	@ float
 2022 0030 1C49     		ldr	r1, .L144
 2023 0032 1846     		mov	r0, r3
 2024 0034 FFF7FEFF 		bl	__aeabi_fcmplt
 2025 0038 0346     		mov	r3, r0
 2026 003a 002B     		cmp	r3, #0
 2027 003c 01D0     		beq	.L140
 2028              		.loc 1 427 0 is_stmt 0 discriminator 1
 2029 003e 194B     		ldr	r3, .L144
 2030 0040 0EE0     		b	.L126
 2031              	.L140:
 2032              		.loc 1 427 0 discriminator 2
 2033 0042 7B68     		ldr	r3, [r7, #4]
 2034 0044 DB69     		ldr	r3, [r3, #28]	@ float
 2035 0046 4FF07E51 		mov	r1, #1065353216
 2036 004a 1846     		mov	r0, r3
 2037 004c FFF7FEFF 		bl	__aeabi_fcmpgt
 2038 0050 0346     		mov	r3, r0
 2039 0052 002B     		cmp	r3, #0
 2040 0054 02D0     		beq	.L141
 2041              		.loc 1 427 0 discriminator 4
 2042 0056 4FF07E53 		mov	r3, #1065353216
 2043 005a 01E0     		b	.L126
 2044              	.L141:
 2045              		.loc 1 427 0 discriminator 5
 2046 005c 7B68     		ldr	r3, [r7, #4]
 2047 005e DB69     		ldr	r3, [r3, #28]	@ float
ARM GAS  C:\Users\yoons\AppData\Local\Temp\cczguO9p.s 			page 46


 2048              	.L126:
 2049              		.loc 1 427 0 discriminator 8
 2050 0060 3A68     		ldr	r2, [r7]
 2051 0062 1360     		str	r3, [r2]	@ float
 428:app_state_auto.c ****     out->tilt = CLAMP(ctx->abs_tilt_target, -1.0f, 1.0f);
 2052              		.loc 1 428 0 is_stmt 1 discriminator 8
 2053 0064 7B68     		ldr	r3, [r7, #4]
 2054 0066 1B6A     		ldr	r3, [r3, #32]	@ float
 2055 0068 0E49     		ldr	r1, .L144
 2056 006a 1846     		mov	r0, r3
 2057 006c FFF7FEFF 		bl	__aeabi_fcmplt
 2058 0070 0346     		mov	r3, r0
 2059 0072 002B     		cmp	r3, #0
 2060 0074 01D0     		beq	.L142
 2061              		.loc 1 428 0 is_stmt 0 discriminator 1
 2062 0076 0B4B     		ldr	r3, .L144
 2063 0078 0EE0     		b	.L132
 2064              	.L142:
 2065              		.loc 1 428 0 discriminator 2
 2066 007a 7B68     		ldr	r3, [r7, #4]
 2067 007c 1B6A     		ldr	r3, [r3, #32]	@ float
 2068 007e 4FF07E51 		mov	r1, #1065353216
 2069 0082 1846     		mov	r0, r3
 2070 0084 FFF7FEFF 		bl	__aeabi_fcmpgt
 2071 0088 0346     		mov	r3, r0
 2072 008a 002B     		cmp	r3, #0
 2073 008c 02D0     		beq	.L143
 2074              		.loc 1 428 0 discriminator 4
 2075 008e 4FF07E53 		mov	r3, #1065353216
 2076 0092 01E0     		b	.L132
 2077              	.L143:
 2078              		.loc 1 428 0 discriminator 5
 2079 0094 7B68     		ldr	r3, [r7, #4]
 2080 0096 1B6A     		ldr	r3, [r3, #32]	@ float
 2081              	.L132:
 2082              		.loc 1 428 0 discriminator 8
 2083 0098 3A68     		ldr	r2, [r7]
 2084 009a 5360     		str	r3, [r2, #4]	@ float
 429:app_state_auto.c **** }
 2085              		.loc 1 429 0 is_stmt 1 discriminator 8
 2086 009c 00BF     		nop
 2087 009e 0837     		adds	r7, r7, #8
 2088              		.cfi_def_cfa_offset 8
 2089 00a0 BD46     		mov	sp, r7
 2090              		.cfi_def_cfa_register 13
 2091              		@ sp needed
 2092 00a2 80BD     		pop	{r7, pc}
 2093              	.L145:
 2094              		.align	2
 2095              	.L144:
 2096 00a4 000080BF 		.word	-1082130432
 2097              		.cfi_endproc
 2098              	.LFE82:
 2099              		.size	build_auto_acq_gps, .-build_auto_acq_gps
 2100              		.section	.rodata
 2101              		.align	2
 2102              	.LC15:
ARM GAS  C:\Users\yoons\AppData\Local\Temp\cczguO9p.s 			page 47


 2103 0284 0D0A5B41 		.ascii	"\015\012[AUTO_ACQ_SPIRAL] placeholder (NI).\015\012"
 2103      55544F5F 
 2103      4143515F 
 2103      53504952 
 2103      414C5D20 
 2104 02ab 3E2000   		.ascii	"> \000"
 2105              		.section	.text.entry_auto_acq_spiral,"ax",%progbits
 2106              		.align	2
 2107              		.global	entry_auto_acq_spiral
 2108              		.thumb
 2109              		.thumb_func
 2110              		.type	entry_auto_acq_spiral, %function
 2111              	entry_auto_acq_spiral:
 2112              	.LFB83:
 430:app_state_auto.c **** 
 431:app_state_auto.c **** 
 432:app_state_auto.c **** // %==========================================================================%
 433:app_state_auto.c **** // %                           AUTO_ACQ_SPIRAL                                %
 434:app_state_auto.c **** // %==========================================================================%
 435:app_state_auto.c **** void entry_auto_acq_spiral(app_ctx_t *ctx)
 436:app_state_auto.c **** {
 2113              		.loc 1 436 0
 2114              		.cfi_startproc
 2115              		@ args = 0, pretend = 0, frame = 8
 2116              		@ frame_needed = 1, uses_anonymous_args = 0
 2117 0000 80B5     		push	{r7, lr}
 2118              		.cfi_def_cfa_offset 8
 2119              		.cfi_offset 7, -8
 2120              		.cfi_offset 14, -4
 2121 0002 82B0     		sub	sp, sp, #8
 2122              		.cfi_def_cfa_offset 16
 2123 0004 00AF     		add	r7, sp, #0
 2124              		.cfi_def_cfa_register 7
 2125 0006 7860     		str	r0, [r7, #4]
 437:app_state_auto.c ****     // Not implemented.
 438:app_state_auto.c ****     (void)ctx;
 439:app_state_auto.c ****     UART_DEBUG_PutString("\r\n[AUTO_ACQ_SPIRAL] placeholder (NI).\r\n> ");
 2126              		.loc 1 439 0
 2127 0008 0348     		ldr	r0, .L147
 2128 000a FFF7FEFF 		bl	dbg_put
 440:app_state_auto.c **** }
 2129              		.loc 1 440 0
 2130 000e 00BF     		nop
 2131 0010 0837     		adds	r7, r7, #8
 2132              		.cfi_def_cfa_offset 8
 2133 0012 BD46     		mov	sp, r7
 2134              		.cfi_def_cfa_register 13
 2135              		@ sp needed
 2136 0014 80BD     		pop	{r7, pc}
 2137              	.L148:
 2138 0016 00BF     		.align	2
 2139              	.L147:
 2140 0018 84020000 		.word	.LC15
 2141              		.cfi_endproc
 2142              	.LFE83:
 2143              		.size	entry_auto_acq_spiral, .-entry_auto_acq_spiral
 2144              		.section	.rodata
ARM GAS  C:\Users\yoons\AppData\Local\Temp\cczguO9p.s 			page 48


 2145 02ae 0000     		.align	2
 2146              	.LC16:
 2147 02b0 0D0A5B41 		.ascii	"\015\012[AUTO_TRACKING] closed-loop  e=exit\015\012"
 2147      55544F5F 
 2147      54524143 
 2147      4B494E47 
 2147      5D20636C 
 2148 02d7 3E2000   		.ascii	"> \000"
 2149              		.section	.text.entry_auto_tracking,"ax",%progbits
 2150              		.align	2
 2151              		.global	entry_auto_tracking
 2152              		.thumb
 2153              		.thumb_func
 2154              		.type	entry_auto_tracking, %function
 2155              	entry_auto_tracking:
 2156              	.LFB84:
 441:app_state_auto.c **** 
 442:app_state_auto.c **** // %==========================================================================%
 443:app_state_auto.c **** // %                            AUTO_TRACKING                                 %
 444:app_state_auto.c **** // %==========================================================================%
 445:app_state_auto.c **** void entry_auto_tracking(app_ctx_t *ctx)
 446:app_state_auto.c **** {
 2157              		.loc 1 446 0
 2158              		.cfi_startproc
 2159              		@ args = 0, pretend = 0, frame = 8
 2160              		@ frame_needed = 1, uses_anonymous_args = 0
 2161 0000 80B5     		push	{r7, lr}
 2162              		.cfi_def_cfa_offset 8
 2163              		.cfi_offset 7, -8
 2164              		.cfi_offset 14, -4
 2165 0002 82B0     		sub	sp, sp, #8
 2166              		.cfi_def_cfa_offset 16
 2167 0004 00AF     		add	r7, sp, #0
 2168              		.cfi_def_cfa_register 7
 2169 0006 7860     		str	r0, [r7, #4]
 447:app_state_auto.c ****     // Clear any old values for clean handover.
 448:app_state_auto.c ****     ctx->track_cx_last = 0;  // Clear last centroid value
 2170              		.loc 1 448 0
 2171 0008 7B68     		ldr	r3, [r7, #4]
 2172 000a 0022     		movs	r2, #0
 2173 000c A3F85420 		strh	r2, [r3, #84]	@ movhi
 449:app_state_auto.c ****     ctx->track_cy_last = 0;
 2174              		.loc 1 449 0
 2175 0010 7B68     		ldr	r3, [r7, #4]
 2176 0012 0022     		movs	r2, #0
 2177 0014 A3F85620 		strh	r2, [r3, #86]	@ movhi
 450:app_state_auto.c ****     UART_DEBUG_PutString("\r\n[AUTO_TRACKING] closed-loop  e=exit\r\n> ");
 2178              		.loc 1 450 0
 2179 0018 0348     		ldr	r0, .L150
 2180 001a FFF7FEFF 		bl	dbg_put
 451:app_state_auto.c **** }
 2181              		.loc 1 451 0
 2182 001e 00BF     		nop
 2183 0020 0837     		adds	r7, r7, #8
 2184              		.cfi_def_cfa_offset 8
 2185 0022 BD46     		mov	sp, r7
 2186              		.cfi_def_cfa_register 13
ARM GAS  C:\Users\yoons\AppData\Local\Temp\cczguO9p.s 			page 49


 2187              		@ sp needed
 2188 0024 80BD     		pop	{r7, pc}
 2189              	.L151:
 2190 0026 00BF     		.align	2
 2191              	.L150:
 2192 0028 B0020000 		.word	.LC16
 2193              		.cfi_endproc
 2194              	.LFE84:
 2195              		.size	entry_auto_tracking, .-entry_auto_tracking
 2196              		.section	.text.key_auto_tracking,"ax",%progbits
 2197              		.align	2
 2198              		.global	key_auto_tracking
 2199              		.thumb
 2200              		.thumb_func
 2201              		.type	key_auto_tracking, %function
 2202              	key_auto_tracking:
 2203              	.LFB85:
 452:app_state_auto.c **** 
 453:app_state_auto.c **** uint8_t key_auto_tracking(app_ctx_t *ctx, char k)
 454:app_state_auto.c **** {
 2204              		.loc 1 454 0
 2205              		.cfi_startproc
 2206              		@ args = 0, pretend = 0, frame = 8
 2207              		@ frame_needed = 1, uses_anonymous_args = 0
 2208 0000 80B5     		push	{r7, lr}
 2209              		.cfi_def_cfa_offset 8
 2210              		.cfi_offset 7, -8
 2211              		.cfi_offset 14, -4
 2212 0002 82B0     		sub	sp, sp, #8
 2213              		.cfi_def_cfa_offset 16
 2214 0004 00AF     		add	r7, sp, #0
 2215              		.cfi_def_cfa_register 7
 2216 0006 7860     		str	r0, [r7, #4]
 2217 0008 0B46     		mov	r3, r1
 2218 000a FB70     		strb	r3, [r7, #3]
 455:app_state_auto.c ****     // TEMP: Debug exit to hold with e over serial.
 456:app_state_auto.c ****     switch (k) {
 2219              		.loc 1 456 0
 2220 000c FB78     		ldrb	r3, [r7, #3]	@ zero_extendqisi2
 2221 000e 652B     		cmp	r3, #101
 2222 0010 05D1     		bne	.L156
 457:app_state_auto.c ****         case 'e': app_transition(ctx, STBY_HOLD); return 1;
 2223              		.loc 1 457 0
 2224 0012 0621     		movs	r1, #6
 2225 0014 7868     		ldr	r0, [r7, #4]
 2226 0016 FFF7FEFF 		bl	app_transition
 2227 001a 0123     		movs	r3, #1
 2228 001c 00E0     		b	.L155
 2229              	.L156:
 458:app_state_auto.c ****         default:  return 0;
 2230              		.loc 1 458 0
 2231 001e 0023     		movs	r3, #0
 2232              	.L155:
 459:app_state_auto.c ****     }
 460:app_state_auto.c **** }
 2233              		.loc 1 460 0
 2234 0020 1846     		mov	r0, r3
ARM GAS  C:\Users\yoons\AppData\Local\Temp\cczguO9p.s 			page 50


 2235 0022 0837     		adds	r7, r7, #8
 2236              		.cfi_def_cfa_offset 8
 2237 0024 BD46     		mov	sp, r7
 2238              		.cfi_def_cfa_register 13
 2239              		@ sp needed
 2240 0026 80BD     		pop	{r7, pc}
 2241              		.cfi_endproc
 2242              	.LFE85:
 2243              		.size	key_auto_tracking, .-key_auto_tracking
 2244              		.section	.text.build_auto_tracking,"ax",%progbits
 2245              		.align	2
 2246              		.global	build_auto_tracking
 2247              		.thumb
 2248              		.thumb_func
 2249              		.type	build_auto_tracking, %function
 2250              	build_auto_tracking:
 2251              	.LFB86:
 461:app_state_auto.c **** 
 462:app_state_auto.c **** void build_auto_tracking(const app_ctx_t *ctx, hamfly_control_t *out)
 463:app_state_auto.c **** {
 2252              		.loc 1 463 0
 2253              		.cfi_startproc
 2254              		@ args = 0, pretend = 0, frame = 16
 2255              		@ frame_needed = 1, uses_anonymous_args = 0
 2256 0000 80B5     		push	{r7, lr}
 2257              		.cfi_def_cfa_offset 8
 2258              		.cfi_offset 7, -8
 2259              		.cfi_offset 14, -4
 2260 0002 84B0     		sub	sp, sp, #16
 2261              		.cfi_def_cfa_offset 24
 2262 0004 00AF     		add	r7, sp, #0
 2263              		.cfi_def_cfa_register 7
 2264 0006 7860     		str	r0, [r7, #4]
 2265 0008 3960     		str	r1, [r7]
 464:app_state_auto.c ****     // Construct control packet from centroid error signal.
 465:app_state_auto.c ****     out->kill      = 0u;
 2266              		.loc 1 465 0
 2267 000a 3B68     		ldr	r3, [r7]
 2268 000c 0022     		movs	r2, #0
 2269 000e 1A74     		strb	r2, [r3, #16]
 466:app_state_auto.c ****     out->roll_mode = HAMFLY_DEFER;  // No roll
 2270              		.loc 1 466 0
 2271 0010 3B68     		ldr	r3, [r7]
 2272 0012 0022     		movs	r2, #0
 2273 0014 9A73     		strb	r2, [r3, #14]
 467:app_state_auto.c ****     out->roll      = 0.0f;
 2274              		.loc 1 467 0
 2275 0016 3B68     		ldr	r3, [r7]
 2276 0018 4FF00002 		mov	r2, #0
 2277 001c 9A60     		str	r2, [r3, #8]	@ float
 468:app_state_auto.c ****     out->pan_mode  = out->tilt_mode = HAMFLY_RATE;  // Rate mode
 2278              		.loc 1 468 0
 2279 001e 3B68     		ldr	r3, [r7]
 2280 0020 0122     		movs	r2, #1
 2281 0022 5A73     		strb	r2, [r3, #13]
 2282 0024 3B68     		ldr	r3, [r7]
 2283 0026 5A7B     		ldrb	r2, [r3, #13]	@ zero_extendqisi2
ARM GAS  C:\Users\yoons\AppData\Local\Temp\cczguO9p.s 			page 51


 2284 0028 3B68     		ldr	r3, [r7]
 2285 002a 1A73     		strb	r2, [r3, #12]
 469:app_state_auto.c ****     float cx_mrad = (float)ctx->track_cx_last * 0.1f;  // 0.1 mrad to mrad
 2286              		.loc 1 469 0
 2287 002c 7B68     		ldr	r3, [r7, #4]
 2288 002e B3F95430 		ldrsh	r3, [r3, #84]
 2289 0032 1846     		mov	r0, r3
 2290 0034 FFF7FEFF 		bl	__aeabi_i2f
 2291 0038 0346     		mov	r3, r0
 2292 003a 3749     		ldr	r1, .L178
 2293 003c 1846     		mov	r0, r3
 2294 003e FFF7FEFF 		bl	__aeabi_fmul
 2295 0042 0346     		mov	r3, r0
 2296 0044 FB60     		str	r3, [r7, #12]	@ float
 470:app_state_auto.c ****     float cy_mrad = (float)ctx->track_cy_last * 0.1f;
 2297              		.loc 1 470 0
 2298 0046 7B68     		ldr	r3, [r7, #4]
 2299 0048 B3F95630 		ldrsh	r3, [r3, #86]
 2300 004c 1846     		mov	r0, r3
 2301 004e FFF7FEFF 		bl	__aeabi_i2f
 2302 0052 0346     		mov	r3, r0
 2303 0054 3049     		ldr	r1, .L178
 2304 0056 1846     		mov	r0, r3
 2305 0058 FFF7FEFF 		bl	__aeabi_fmul
 2306 005c 0346     		mov	r3, r0
 2307 005e BB60     		str	r3, [r7, #8]	@ float
 471:app_state_auto.c ****     // Simple proportional gain linear feedback.
 472:app_state_auto.c ****     out->pan  =  CLAMP(ctx->track_kp * cx_mrad, -1.0f, 1.0f);  // TODO: Confirm direction
 2308              		.loc 1 472 0
 2309 0060 7B68     		ldr	r3, [r7, #4]
 2310 0062 1B6D     		ldr	r3, [r3, #80]	@ float
 2311 0064 F968     		ldr	r1, [r7, #12]	@ float
 2312 0066 1846     		mov	r0, r3
 2313 0068 FFF7FEFF 		bl	__aeabi_fmul
 2314 006c 0346     		mov	r3, r0
 2315 006e 2B49     		ldr	r1, .L178+4
 2316 0070 1846     		mov	r0, r3
 2317 0072 FFF7FEFF 		bl	__aeabi_fcmplt
 2318 0076 0346     		mov	r3, r0
 2319 0078 002B     		cmp	r3, #0
 2320 007a 01D0     		beq	.L174
 2321              		.loc 1 472 0 is_stmt 0 discriminator 1
 2322 007c 274B     		ldr	r3, .L178+4
 2323 007e 18E0     		b	.L160
 2324              	.L174:
 2325              		.loc 1 472 0 discriminator 2
 2326 0080 7B68     		ldr	r3, [r7, #4]
 2327 0082 1B6D     		ldr	r3, [r3, #80]	@ float
 2328 0084 F968     		ldr	r1, [r7, #12]	@ float
 2329 0086 1846     		mov	r0, r3
 2330 0088 FFF7FEFF 		bl	__aeabi_fmul
 2331 008c 0346     		mov	r3, r0
 2332 008e 4FF07E51 		mov	r1, #1065353216
 2333 0092 1846     		mov	r0, r3
 2334 0094 FFF7FEFF 		bl	__aeabi_fcmpgt
 2335 0098 0346     		mov	r3, r0
 2336 009a 002B     		cmp	r3, #0
ARM GAS  C:\Users\yoons\AppData\Local\Temp\cczguO9p.s 			page 52


 2337 009c 02D0     		beq	.L175
 2338              		.loc 1 472 0 discriminator 4
 2339 009e 4FF07E53 		mov	r3, #1065353216
 2340 00a2 06E0     		b	.L160
 2341              	.L175:
 2342              		.loc 1 472 0 discriminator 5
 2343 00a4 7B68     		ldr	r3, [r7, #4]
 2344 00a6 1B6D     		ldr	r3, [r3, #80]	@ float
 2345 00a8 F968     		ldr	r1, [r7, #12]	@ float
 2346 00aa 1846     		mov	r0, r3
 2347 00ac FFF7FEFF 		bl	__aeabi_fmul
 2348 00b0 0346     		mov	r3, r0
 2349              	.L160:
 2350              		.loc 1 472 0 discriminator 8
 2351 00b2 3A68     		ldr	r2, [r7]
 2352 00b4 1360     		str	r3, [r2]	@ float
 473:app_state_auto.c ****     out->tilt = -CLAMP(ctx->track_kp * cy_mrad, -1.0f, 1.0f);  // +cy = up
 2353              		.loc 1 473 0 is_stmt 1 discriminator 8
 2354 00b6 7B68     		ldr	r3, [r7, #4]
 2355 00b8 1B6D     		ldr	r3, [r3, #80]	@ float
 2356 00ba B968     		ldr	r1, [r7, #8]	@ float
 2357 00bc 1846     		mov	r0, r3
 2358 00be FFF7FEFF 		bl	__aeabi_fmul
 2359 00c2 0346     		mov	r3, r0
 2360 00c4 1549     		ldr	r1, .L178+4
 2361 00c6 1846     		mov	r0, r3
 2362 00c8 FFF7FEFF 		bl	__aeabi_fcmplt
 2363 00cc 0346     		mov	r3, r0
 2364 00ce 002B     		cmp	r3, #0
 2365 00d0 02D0     		beq	.L176
 2366              		.loc 1 473 0 is_stmt 0 discriminator 1
 2367 00d2 4FF07E53 		mov	r3, #1065353216
 2368 00d6 19E0     		b	.L166
 2369              	.L176:
 2370              		.loc 1 473 0 discriminator 2
 2371 00d8 7B68     		ldr	r3, [r7, #4]
 2372 00da 1B6D     		ldr	r3, [r3, #80]	@ float
 2373 00dc B968     		ldr	r1, [r7, #8]	@ float
 2374 00de 1846     		mov	r0, r3
 2375 00e0 FFF7FEFF 		bl	__aeabi_fmul
 2376 00e4 0346     		mov	r3, r0
 2377 00e6 4FF07E51 		mov	r1, #1065353216
 2378 00ea 1846     		mov	r0, r3
 2379 00ec FFF7FEFF 		bl	__aeabi_fcmpgt
 2380 00f0 0346     		mov	r3, r0
 2381 00f2 002B     		cmp	r3, #0
 2382 00f4 01D0     		beq	.L177
 2383              		.loc 1 473 0 discriminator 4
 2384 00f6 094B     		ldr	r3, .L178+4
 2385 00f8 08E0     		b	.L166
 2386              	.L177:
 2387              		.loc 1 473 0 discriminator 5
 2388 00fa 7B68     		ldr	r3, [r7, #4]
 2389 00fc 1B6D     		ldr	r3, [r3, #80]	@ float
 2390 00fe B968     		ldr	r1, [r7, #8]	@ float
 2391 0100 1846     		mov	r0, r3
 2392 0102 FFF7FEFF 		bl	__aeabi_fmul
ARM GAS  C:\Users\yoons\AppData\Local\Temp\cczguO9p.s 			page 53


 2393 0106 0346     		mov	r3, r0
 2394 0108 83F00043 		eor	r3, r3, #-2147483648
 2395              	.L166:
 2396              		.loc 1 473 0 discriminator 8
 2397 010c 3A68     		ldr	r2, [r7]
 2398 010e 5360     		str	r3, [r2, #4]	@ float
 474:app_state_auto.c **** }
 2399              		.loc 1 474 0 is_stmt 1 discriminator 8
 2400 0110 00BF     		nop
 2401 0112 1037     		adds	r7, r7, #16
 2402              		.cfi_def_cfa_offset 8
 2403 0114 BD46     		mov	sp, r7
 2404              		.cfi_def_cfa_register 13
 2405              		@ sp needed
 2406 0116 80BD     		pop	{r7, pc}
 2407              	.L179:
 2408              		.align	2
 2409              	.L178:
 2410 0118 CDCCCC3D 		.word	1036831949
 2411 011c 000080BF 		.word	-1082130432
 2412              		.cfi_endproc
 2413              	.LFE86:
 2414              		.size	build_auto_tracking, .-build_auto_tracking
 2415              		.section	.rodata
 2416 02da 0000     		.align	2
 2417              	.LC17:
 2418 02dc 0D0A5B41 		.ascii	"\015\012[AUTO_LOSS] centroid lost, holding. Waiting"
 2418      55544F5F 
 2418      4C4F5353 
 2418      5D206365 
 2418      6E74726F 
 2419 0309 20666F72 		.ascii	" for centroid return or user input.\015\012> \000"
 2419      2063656E 
 2419      74726F69 
 2419      64207265 
 2419      7475726E 
 2420              		.section	.text.entry_auto_loss,"ax",%progbits
 2421              		.align	2
 2422              		.global	entry_auto_loss
 2423              		.thumb
 2424              		.thumb_func
 2425              		.type	entry_auto_loss, %function
 2426              	entry_auto_loss:
 2427              	.LFB87:
 475:app_state_auto.c **** 
 476:app_state_auto.c **** // %==========================================================================%
 477:app_state_auto.c **** // %                              AUTO_LOSS                                   %
 478:app_state_auto.c **** // %==========================================================================%
 479:app_state_auto.c **** void entry_auto_loss(app_ctx_t *ctx)
 480:app_state_auto.c **** {
 2428              		.loc 1 480 0
 2429              		.cfi_startproc
 2430              		@ args = 0, pretend = 0, frame = 8
 2431              		@ frame_needed = 1, uses_anonymous_args = 0
 2432 0000 80B5     		push	{r7, lr}
 2433              		.cfi_def_cfa_offset 8
 2434              		.cfi_offset 7, -8
ARM GAS  C:\Users\yoons\AppData\Local\Temp\cczguO9p.s 			page 54


 2435              		.cfi_offset 14, -4
 2436 0002 82B0     		sub	sp, sp, #8
 2437              		.cfi_def_cfa_offset 16
 2438 0004 00AF     		add	r7, sp, #0
 2439              		.cfi_def_cfa_register 7
 2440 0006 7860     		str	r0, [r7, #4]
 481:app_state_auto.c ****     // TODO: Loss should hold and wait. If packets re-commence go back to tracking,
 482:app_state_auto.c ****     // TODO: Let user trigger spiral search, GPS re-acq, or exit to STBY later.
 483:app_state_auto.c ****     (void)ctx;
 484:app_state_auto.c ****     UART_DEBUG_PutString("\r\n[AUTO_LOSS] centroid lost, holding. "
 2441              		.loc 1 484 0
 2442 0008 0348     		ldr	r0, .L181
 2443 000a FFF7FEFF 		bl	dbg_put
 485:app_state_auto.c ****                          "Waiting for centroid return or user input.\r\n> ");
 486:app_state_auto.c **** }
 2444              		.loc 1 486 0
 2445 000e 00BF     		nop
 2446 0010 0837     		adds	r7, r7, #8
 2447              		.cfi_def_cfa_offset 8
 2448 0012 BD46     		mov	sp, r7
 2449              		.cfi_def_cfa_register 13
 2450              		@ sp needed
 2451 0014 80BD     		pop	{r7, pc}
 2452              	.L182:
 2453 0016 00BF     		.align	2
 2454              	.L181:
 2455 0018 DC020000 		.word	.LC17
 2456              		.cfi_endproc
 2457              	.LFE87:
 2458              		.size	entry_auto_loss, .-entry_auto_loss
 2459              		.section	.text.key_auto_loss,"ax",%progbits
 2460              		.align	2
 2461              		.global	key_auto_loss
 2462              		.thumb
 2463              		.thumb_func
 2464              		.type	key_auto_loss, %function
 2465              	key_auto_loss:
 2466              	.LFB88:
 487:app_state_auto.c **** 
 488:app_state_auto.c **** uint8_t key_auto_loss(app_ctx_t *ctx, char k)
 489:app_state_auto.c **** {
 2467              		.loc 1 489 0
 2468              		.cfi_startproc
 2469              		@ args = 0, pretend = 0, frame = 8
 2470              		@ frame_needed = 1, uses_anonymous_args = 0
 2471 0000 80B5     		push	{r7, lr}
 2472              		.cfi_def_cfa_offset 8
 2473              		.cfi_offset 7, -8
 2474              		.cfi_offset 14, -4
 2475 0002 82B0     		sub	sp, sp, #8
 2476              		.cfi_def_cfa_offset 16
 2477 0004 00AF     		add	r7, sp, #0
 2478              		.cfi_def_cfa_register 7
 2479 0006 7860     		str	r0, [r7, #4]
 2480 0008 0B46     		mov	r3, r1
 2481 000a FB70     		strb	r3, [r7, #3]
 490:app_state_auto.c ****     if (handle_nudge_key(ctx, k)) return 1;
ARM GAS  C:\Users\yoons\AppData\Local\Temp\cczguO9p.s 			page 55


 2482              		.loc 1 490 0
 2483 000c FB78     		ldrb	r3, [r7, #3]	@ zero_extendqisi2
 2484 000e 1946     		mov	r1, r3
 2485 0010 7868     		ldr	r0, [r7, #4]
 2486 0012 FFF7FEFF 		bl	handle_nudge_key
 2487 0016 0346     		mov	r3, r0
 2488 0018 002B     		cmp	r3, #0
 2489 001a 01D0     		beq	.L184
 2490              		.loc 1 490 0 is_stmt 0 discriminator 1
 2491 001c 0123     		movs	r3, #1
 2492 001e 09E0     		b	.L185
 2493              	.L184:
 491:app_state_auto.c ****     switch (k) {  // Keep stationary, spiral search if requested.
 2494              		.loc 1 491 0 is_stmt 1
 2495 0020 FB78     		ldrb	r3, [r7, #3]	@ zero_extendqisi2
 2496 0022 332B     		cmp	r3, #51
 2497 0024 05D1     		bne	.L188
 492:app_state_auto.c ****         case '3': app_transition(ctx, AUTO_ACQ_SPIRAL); return 1;
 2498              		.loc 1 492 0
 2499 0026 0B21     		movs	r1, #11
 2500 0028 7868     		ldr	r0, [r7, #4]
 2501 002a FFF7FEFF 		bl	app_transition
 2502 002e 0123     		movs	r3, #1
 2503 0030 00E0     		b	.L185
 2504              	.L188:
 493:app_state_auto.c ****         default:  return 0;
 2505              		.loc 1 493 0
 2506 0032 0023     		movs	r3, #0
 2507              	.L185:
 494:app_state_auto.c ****     }
 495:app_state_auto.c **** }
 2508              		.loc 1 495 0
 2509 0034 1846     		mov	r0, r3
 2510 0036 0837     		adds	r7, r7, #8
 2511              		.cfi_def_cfa_offset 8
 2512 0038 BD46     		mov	sp, r7
 2513              		.cfi_def_cfa_register 13
 2514              		@ sp needed
 2515 003a 80BD     		pop	{r7, pc}
 2516              		.cfi_endproc
 2517              	.LFE88:
 2518              		.size	key_auto_loss, .-key_auto_loss
 2519              		.section	.rodata
 2520 0331 000000   		.align	2
 2521              	.LC18:
 2522 0334 0D0A5B41 		.ascii	"\015\012[AUTO_NO_LOCK] acquisition failed  1=hold  "
 2522      55544F5F 
 2522      4E4F5F4C 
 2522      4F434B5D 
 2522      20616371 
 2523 0361 333D7265 		.ascii	"3=retry\015\012> \000"
 2523      7472790D 
 2523      0A3E2000 
 2524              		.section	.text.entry_auto_no_lock,"ax",%progbits
 2525              		.align	2
 2526              		.global	entry_auto_no_lock
 2527              		.thumb
ARM GAS  C:\Users\yoons\AppData\Local\Temp\cczguO9p.s 			page 56


 2528              		.thumb_func
 2529              		.type	entry_auto_no_lock, %function
 2530              	entry_auto_no_lock:
 2531              	.LFB89:
 496:app_state_auto.c **** 
 497:app_state_auto.c **** // %==========================================================================%
 498:app_state_auto.c **** // %                             AUTO_NO_LOCK                                 %
 499:app_state_auto.c **** // %==========================================================================%
 500:app_state_auto.c **** void entry_auto_no_lock(app_ctx_t *ctx)
 501:app_state_auto.c **** {
 2532              		.loc 1 501 0
 2533              		.cfi_startproc
 2534              		@ args = 0, pretend = 0, frame = 8
 2535              		@ frame_needed = 1, uses_anonymous_args = 0
 2536 0000 80B5     		push	{r7, lr}
 2537              		.cfi_def_cfa_offset 8
 2538              		.cfi_offset 7, -8
 2539              		.cfi_offset 14, -4
 2540 0002 82B0     		sub	sp, sp, #8
 2541              		.cfi_def_cfa_offset 16
 2542 0004 00AF     		add	r7, sp, #0
 2543              		.cfi_def_cfa_register 7
 2544 0006 7860     		str	r0, [r7, #4]
 502:app_state_auto.c ****     (void)ctx;
 503:app_state_auto.c ****     UART_DEBUG_PutString("\r\n[AUTO_NO_LOCK] acquisition failed  1=hold  3=retry\r\n> ");
 2545              		.loc 1 503 0
 2546 0008 0348     		ldr	r0, .L190
 2547 000a FFF7FEFF 		bl	dbg_put
 504:app_state_auto.c **** }
 2548              		.loc 1 504 0
 2549 000e 00BF     		nop
 2550 0010 0837     		adds	r7, r7, #8
 2551              		.cfi_def_cfa_offset 8
 2552 0012 BD46     		mov	sp, r7
 2553              		.cfi_def_cfa_register 13
 2554              		@ sp needed
 2555 0014 80BD     		pop	{r7, pc}
 2556              	.L191:
 2557 0016 00BF     		.align	2
 2558              	.L190:
 2559 0018 34030000 		.word	.LC18
 2560              		.cfi_endproc
 2561              	.LFE89:
 2562              		.size	entry_auto_no_lock, .-entry_auto_no_lock
 2563              		.section	.text.key_auto_no_lock,"ax",%progbits
 2564              		.align	2
 2565              		.global	key_auto_no_lock
 2566              		.thumb
 2567              		.thumb_func
 2568              		.type	key_auto_no_lock, %function
 2569              	key_auto_no_lock:
 2570              	.LFB90:
 505:app_state_auto.c **** 
 506:app_state_auto.c **** uint8_t key_auto_no_lock(app_ctx_t *ctx, char k)
 507:app_state_auto.c **** {
 2571              		.loc 1 507 0
 2572              		.cfi_startproc
ARM GAS  C:\Users\yoons\AppData\Local\Temp\cczguO9p.s 			page 57


 2573              		@ args = 0, pretend = 0, frame = 8
 2574              		@ frame_needed = 1, uses_anonymous_args = 0
 2575 0000 80B5     		push	{r7, lr}
 2576              		.cfi_def_cfa_offset 8
 2577              		.cfi_offset 7, -8
 2578              		.cfi_offset 14, -4
 2579 0002 82B0     		sub	sp, sp, #8
 2580              		.cfi_def_cfa_offset 16
 2581 0004 00AF     		add	r7, sp, #0
 2582              		.cfi_def_cfa_register 7
 2583 0006 7860     		str	r0, [r7, #4]
 2584 0008 0B46     		mov	r3, r1
 2585 000a FB70     		strb	r3, [r7, #3]
 508:app_state_auto.c ****     if (handle_nudge_key(ctx, k)) return 1;
 2586              		.loc 1 508 0
 2587 000c FB78     		ldrb	r3, [r7, #3]	@ zero_extendqisi2
 2588 000e 1946     		mov	r1, r3
 2589 0010 7868     		ldr	r0, [r7, #4]
 2590 0012 FFF7FEFF 		bl	handle_nudge_key
 2591 0016 0346     		mov	r3, r0
 2592 0018 002B     		cmp	r3, #0
 2593 001a 01D0     		beq	.L193
 2594              		.loc 1 508 0 is_stmt 0 discriminator 1
 2595 001c 0123     		movs	r3, #1
 2596 001e 09E0     		b	.L194
 2597              	.L193:
 509:app_state_auto.c ****     switch (k) {
 2598              		.loc 1 509 0 is_stmt 1
 2599 0020 FB78     		ldrb	r3, [r7, #3]	@ zero_extendqisi2
 2600 0022 332B     		cmp	r3, #51
 2601 0024 05D1     		bne	.L197
 510:app_state_auto.c ****         case '3': app_transition(ctx, AUTO_ACQ_SPIRAL); return 1;
 2602              		.loc 1 510 0
 2603 0026 0B21     		movs	r1, #11
 2604 0028 7868     		ldr	r0, [r7, #4]
 2605 002a FFF7FEFF 		bl	app_transition
 2606 002e 0123     		movs	r3, #1
 2607 0030 00E0     		b	.L194
 2608              	.L197:
 511:app_state_auto.c ****         default:  return 0;
 2609              		.loc 1 511 0
 2610 0032 0023     		movs	r3, #0
 2611              	.L194:
 512:app_state_auto.c ****     }
 513:app_state_auto.c **** }
 2612              		.loc 1 513 0
 2613 0034 1846     		mov	r0, r3
 2614 0036 0837     		adds	r7, r7, #8
 2615              		.cfi_def_cfa_offset 8
 2616 0038 BD46     		mov	sp, r7
 2617              		.cfi_def_cfa_register 13
 2618              		@ sp needed
 2619 003a 80BD     		pop	{r7, pc}
 2620              		.cfi_endproc
 2621              	.LFE90:
 2622              		.size	key_auto_no_lock, .-key_auto_no_lock
 2623              		.bss
ARM GAS  C:\Users\yoons\AppData\Local\Temp\cczguO9p.s 			page 58


 2624              		.align	2
 2625              	last_pt_ms.8177:
 2626 0000 00000000 		.space	4
 2627              		.section	.rodata
 2628 036d 000000   		.align	2
 2629              	.LC19:
 2630 0370 4300     		.ascii	"C\000"
 2631 0372 0000     		.align	2
 2632              	.LC20:
 2633 0374 4600     		.ascii	"F\000"
 2634              		.data
 2635              		.align	2
 2636              		.type	tag.8179, %object
 2637              		.size	tag.8179, 8
 2638              	tag.8179:
 2639 0000 70030000 		.word	.LC19
 2640 0004 74030000 		.word	.LC20
 2641              		.text
 2642              	.Letext0:
 2643              		.file 2 "c:\\program files (x86)\\cypress\\psoc creator\\4.4\\psoc creator\\import\\gnu\\arm\\5.4.
 2644              		.file 3 "c:\\program files (x86)\\cypress\\psoc creator\\4.4\\psoc creator\\import\\gnu\\arm\\5.4.
 2645              		.file 4 "..\\..\\..\\HamFlyAPI\\src/hamfly_core_control.h"
 2646              		.file 5 "..\\..\\..\\HamFlyAPI\\src/hamfly_core_hal.h"
 2647              		.file 6 "..\\..\\..\\HamFlyAPI\\src/hamfly_core_telemetry.h"
 2648              		.file 7 "..\\..\\..\\HamFlyAPI\\src/hamfly_comm_rb.h"
 2649              		.file 8 "..\\..\\..\\HamFlyAPI\\src/hamfly_core_gimbal.h"
 2650              		.file 9 "app_ctx.h"
 2651              		.file 10 "sbc_comms.h"
 2652              		.file 11 "Generated_Source\\PSoC5/core_cm3.h"
 2653              		.section	.debug_info,"",%progbits
 2654              	.Ldebug_info0:
 2655 0000 8A120000 		.4byte	0x128a
 2656 0004 0400     		.2byte	0x4
 2657 0006 00000000 		.4byte	.Ldebug_abbrev0
 2658 000a 04       		.byte	0x4
 2659 000b 01       		.uleb128 0x1
 2660 000c 27060000 		.4byte	.LASF261
 2661 0010 0C       		.byte	0xc
 2662 0011 C7070000 		.4byte	.LASF262
 2663 0015 8F0B0000 		.4byte	.LASF263
 2664 0019 60000000 		.4byte	.Ldebug_ranges0+0x60
 2665 001d 00000000 		.4byte	0
 2666 0021 00000000 		.4byte	.Ldebug_line0
 2667 0025 02       		.uleb128 0x2
 2668 0026 01       		.byte	0x1
 2669 0027 06       		.byte	0x6
 2670 0028 96020000 		.4byte	.LASF0
 2671 002c 03       		.uleb128 0x3
 2672 002d 85010000 		.4byte	.LASF2
 2673 0031 02       		.byte	0x2
 2674 0032 1D       		.byte	0x1d
 2675 0033 37000000 		.4byte	0x37
 2676 0037 02       		.uleb128 0x2
 2677 0038 01       		.byte	0x1
 2678 0039 08       		.byte	0x8
 2679 003a E1020000 		.4byte	.LASF1
 2680 003e 03       		.uleb128 0x3
ARM GAS  C:\Users\yoons\AppData\Local\Temp\cczguO9p.s 			page 59


 2681 003f 580A0000 		.4byte	.LASF3
 2682 0043 02       		.byte	0x2
 2683 0044 29       		.byte	0x29
 2684 0045 49000000 		.4byte	0x49
 2685 0049 02       		.uleb128 0x2
 2686 004a 02       		.byte	0x2
 2687 004b 05       		.byte	0x5
 2688 004c 3D0B0000 		.4byte	.LASF4
 2689 0050 03       		.uleb128 0x3
 2690 0051 9B030000 		.4byte	.LASF5
 2691 0055 02       		.byte	0x2
 2692 0056 2B       		.byte	0x2b
 2693 0057 5B000000 		.4byte	0x5b
 2694 005b 02       		.uleb128 0x2
 2695 005c 02       		.byte	0x2
 2696 005d 07       		.byte	0x7
 2697 005e BD0C0000 		.4byte	.LASF6
 2698 0062 03       		.uleb128 0x3
 2699 0063 060D0000 		.4byte	.LASF7
 2700 0067 02       		.byte	0x2
 2701 0068 3F       		.byte	0x3f
 2702 0069 6D000000 		.4byte	0x6d
 2703 006d 02       		.uleb128 0x2
 2704 006e 04       		.byte	0x4
 2705 006f 05       		.byte	0x5
 2706 0070 CD010000 		.4byte	.LASF8
 2707 0074 03       		.uleb128 0x3
 2708 0075 D9060000 		.4byte	.LASF9
 2709 0079 02       		.byte	0x2
 2710 007a 41       		.byte	0x41
 2711 007b 7F000000 		.4byte	0x7f
 2712 007f 02       		.uleb128 0x2
 2713 0080 04       		.byte	0x4
 2714 0081 07       		.byte	0x7
 2715 0082 5B050000 		.4byte	.LASF10
 2716 0086 02       		.uleb128 0x2
 2717 0087 08       		.byte	0x8
 2718 0088 05       		.byte	0x5
 2719 0089 F3060000 		.4byte	.LASF11
 2720 008d 02       		.uleb128 0x2
 2721 008e 08       		.byte	0x8
 2722 008f 07       		.byte	0x7
 2723 0090 5F090000 		.4byte	.LASF12
 2724 0094 04       		.uleb128 0x4
 2725 0095 04       		.byte	0x4
 2726 0096 05       		.byte	0x5
 2727 0097 696E7400 		.ascii	"int\000"
 2728 009b 02       		.uleb128 0x2
 2729 009c 04       		.byte	0x4
 2730 009d 07       		.byte	0x7
 2731 009e E4070000 		.4byte	.LASF13
 2732 00a2 03       		.uleb128 0x3
 2733 00a3 A2020000 		.4byte	.LASF14
 2734 00a7 03       		.byte	0x3
 2735 00a8 18       		.byte	0x18
 2736 00a9 2C000000 		.4byte	0x2c
 2737 00ad 03       		.uleb128 0x3
ARM GAS  C:\Users\yoons\AppData\Local\Temp\cczguO9p.s 			page 60


 2738 00ae 4C0B0000 		.4byte	.LASF15
 2739 00b2 03       		.byte	0x3
 2740 00b3 20       		.byte	0x20
 2741 00b4 3E000000 		.4byte	0x3e
 2742 00b8 03       		.uleb128 0x3
 2743 00b9 B2090000 		.4byte	.LASF16
 2744 00bd 03       		.byte	0x3
 2745 00be 24       		.byte	0x24
 2746 00bf 50000000 		.4byte	0x50
 2747 00c3 03       		.uleb128 0x3
 2748 00c4 95000000 		.4byte	.LASF17
 2749 00c8 03       		.byte	0x3
 2750 00c9 2C       		.byte	0x2c
 2751 00ca 62000000 		.4byte	0x62
 2752 00ce 03       		.uleb128 0x3
 2753 00cf 7E0C0000 		.4byte	.LASF18
 2754 00d3 03       		.byte	0x3
 2755 00d4 30       		.byte	0x30
 2756 00d5 74000000 		.4byte	0x74
 2757 00d9 02       		.uleb128 0x2
 2758 00da 04       		.byte	0x4
 2759 00db 04       		.byte	0x4
 2760 00dc C1070000 		.4byte	.LASF19
 2761 00e0 02       		.uleb128 0x2
 2762 00e1 08       		.byte	0x8
 2763 00e2 04       		.byte	0x4
 2764 00e3 67070000 		.4byte	.LASF20
 2765 00e7 02       		.uleb128 0x2
 2766 00e8 01       		.byte	0x1
 2767 00e9 08       		.byte	0x8
 2768 00ea 5B030000 		.4byte	.LASF21
 2769 00ee 02       		.uleb128 0x2
 2770 00ef 08       		.byte	0x8
 2771 00f0 04       		.byte	0x4
 2772 00f1 BE080000 		.4byte	.LASF22
 2773 00f5 02       		.uleb128 0x2
 2774 00f6 04       		.byte	0x4
 2775 00f7 07       		.byte	0x7
 2776 00f8 3C000000 		.4byte	.LASF23
 2777 00fc 05       		.uleb128 0x5
 2778 00fd 04       		.byte	0x4
 2779 00fe 06       		.uleb128 0x6
 2780 00ff 04       		.byte	0x4
 2781 0100 04010000 		.4byte	0x104
 2782 0104 07       		.uleb128 0x7
 2783 0105 E7000000 		.4byte	0xe7
 2784 0109 08       		.uleb128 0x8
 2785 010a CE000000 		.4byte	0xce
 2786 010e 08       		.uleb128 0x8
 2787 010f A2000000 		.4byte	0xa2
 2788 0113 08       		.uleb128 0x8
 2789 0114 B8000000 		.4byte	0xb8
 2790 0118 09       		.uleb128 0x9
 2791 0119 01       		.byte	0x1
 2792 011a 37000000 		.4byte	0x37
 2793 011e 04       		.byte	0x4
 2794 011f 1E       		.byte	0x1e
ARM GAS  C:\Users\yoons\AppData\Local\Temp\cczguO9p.s 			page 61


 2795 0120 3D010000 		.4byte	0x13d
 2796 0124 0A       		.uleb128 0xa
 2797 0125 820B0000 		.4byte	.LASF24
 2798 0129 00       		.byte	0
 2799 012a 0A       		.uleb128 0xa
 2800 012b 34030000 		.4byte	.LASF25
 2801 012f 01       		.byte	0x1
 2802 0130 0A       		.uleb128 0xa
 2803 0131 A7080000 		.4byte	.LASF26
 2804 0135 02       		.byte	0x2
 2805 0136 0A       		.uleb128 0xa
 2806 0137 76090000 		.4byte	.LASF27
 2807 013b 03       		.byte	0x3
 2808 013c 00       		.byte	0
 2809 013d 03       		.uleb128 0x3
 2810 013e 01070000 		.4byte	.LASF28
 2811 0142 04       		.byte	0x4
 2812 0143 2A       		.byte	0x2a
 2813 0144 18010000 		.4byte	0x118
 2814 0148 0B       		.uleb128 0xb
 2815 0149 14       		.byte	0x14
 2816 014a 04       		.byte	0x4
 2817 014b 2E       		.byte	0x2e
 2818 014c B1010000 		.4byte	0x1b1
 2819 0150 0C       		.uleb128 0xc
 2820 0151 70616E00 		.ascii	"pan\000"
 2821 0155 04       		.byte	0x4
 2822 0156 2F       		.byte	0x2f
 2823 0157 D9000000 		.4byte	0xd9
 2824 015b 00       		.byte	0
 2825 015c 0D       		.uleb128 0xd
 2826 015d 470A0000 		.4byte	.LASF29
 2827 0161 04       		.byte	0x4
 2828 0162 30       		.byte	0x30
 2829 0163 D9000000 		.4byte	0xd9
 2830 0167 04       		.byte	0x4
 2831 0168 0D       		.uleb128 0xd
 2832 0169 D00C0000 		.4byte	.LASF30
 2833 016d 04       		.byte	0x4
 2834 016e 31       		.byte	0x31
 2835 016f D9000000 		.4byte	0xd9
 2836 0173 08       		.byte	0x8
 2837 0174 0D       		.uleb128 0xd
 2838 0175 35090000 		.4byte	.LASF31
 2839 0179 04       		.byte	0x4
 2840 017a 32       		.byte	0x32
 2841 017b 3D010000 		.4byte	0x13d
 2842 017f 0C       		.byte	0xc
 2843 0180 0D       		.uleb128 0xd
 2844 0181 F10A0000 		.4byte	.LASF32
 2845 0185 04       		.byte	0x4
 2846 0186 33       		.byte	0x33
 2847 0187 3D010000 		.4byte	0x13d
 2848 018b 0D       		.byte	0xd
 2849 018c 0D       		.uleb128 0xd
 2850 018d 3C080000 		.4byte	.LASF33
 2851 0191 04       		.byte	0x4
ARM GAS  C:\Users\yoons\AppData\Local\Temp\cczguO9p.s 			page 62


 2852 0192 34       		.byte	0x34
 2853 0193 3D010000 		.4byte	0x13d
 2854 0197 0E       		.byte	0xe
 2855 0198 0D       		.uleb128 0xd
 2856 0199 4C070000 		.4byte	.LASF34
 2857 019d 04       		.byte	0x4
 2858 019e 35       		.byte	0x35
 2859 019f A2000000 		.4byte	0xa2
 2860 01a3 0F       		.byte	0xf
 2861 01a4 0D       		.uleb128 0xd
 2862 01a5 100C0000 		.4byte	.LASF35
 2863 01a9 04       		.byte	0x4
 2864 01aa 36       		.byte	0x36
 2865 01ab A2000000 		.4byte	0xa2
 2866 01af 10       		.byte	0x10
 2867 01b0 00       		.byte	0
 2868 01b1 03       		.uleb128 0x3
 2869 01b2 E8000000 		.4byte	.LASF36
 2870 01b6 04       		.byte	0x4
 2871 01b7 37       		.byte	0x37
 2872 01b8 48010000 		.4byte	0x148
 2873 01bc 0B       		.uleb128 0xb
 2874 01bd 0C       		.byte	0xc
 2875 01be 05       		.byte	0x5
 2876 01bf 24       		.byte	0x24
 2877 01c0 E9010000 		.4byte	0x1e9
 2878 01c4 0C       		.uleb128 0xc
 2879 01c5 63747800 		.ascii	"ctx\000"
 2880 01c9 05       		.byte	0x5
 2881 01ca 25       		.byte	0x25
 2882 01cb FC000000 		.4byte	0xfc
 2883 01cf 00       		.byte	0
 2884 01d0 0D       		.uleb128 0xd
 2885 01d1 D0050000 		.4byte	.LASF37
 2886 01d5 05       		.byte	0x5
 2887 01d6 26       		.byte	0x26
 2888 01d7 F9010000 		.4byte	0x1f9
 2889 01db 04       		.byte	0x4
 2890 01dc 0D       		.uleb128 0xd
 2891 01dd A80C0000 		.4byte	.LASF38
 2892 01e1 05       		.byte	0x5
 2893 01e2 27       		.byte	0x27
 2894 01e3 0E020000 		.4byte	0x20e
 2895 01e7 08       		.byte	0x8
 2896 01e8 00       		.byte	0
 2897 01e9 0E       		.uleb128 0xe
 2898 01ea F9010000 		.4byte	0x1f9
 2899 01ee 0F       		.uleb128 0xf
 2900 01ef FC000000 		.4byte	0xfc
 2901 01f3 0F       		.uleb128 0xf
 2902 01f4 A2000000 		.4byte	0xa2
 2903 01f8 00       		.byte	0
 2904 01f9 06       		.uleb128 0x6
 2905 01fa 04       		.byte	0x4
 2906 01fb E9010000 		.4byte	0x1e9
 2907 01ff 10       		.uleb128 0x10
 2908 0200 CE000000 		.4byte	0xce
ARM GAS  C:\Users\yoons\AppData\Local\Temp\cczguO9p.s 			page 63


 2909 0204 0E020000 		.4byte	0x20e
 2910 0208 0F       		.uleb128 0xf
 2911 0209 FC000000 		.4byte	0xfc
 2912 020d 00       		.byte	0
 2913 020e 06       		.uleb128 0x6
 2914 020f 04       		.byte	0x4
 2915 0210 FF010000 		.4byte	0x1ff
 2916 0214 03       		.uleb128 0x3
 2917 0215 07090000 		.4byte	.LASF39
 2918 0219 05       		.byte	0x5
 2919 021a 28       		.byte	0x28
 2920 021b BC010000 		.4byte	0x1bc
 2921 021f 0B       		.uleb128 0xb
 2922 0220 EC       		.byte	0xec
 2923 0221 06       		.byte	0x6
 2924 0222 1F       		.byte	0x1f
 2925 0223 88050000 		.4byte	0x588
 2926 0227 0D       		.uleb128 0xd
 2927 0228 FF0B0000 		.4byte	.LASF40
 2928 022c 06       		.byte	0x6
 2929 022d 21       		.byte	0x21
 2930 022e 88050000 		.4byte	0x588
 2931 0232 00       		.byte	0
 2932 0233 0D       		.uleb128 0xd
 2933 0234 E4060000 		.4byte	.LASF41
 2934 0238 06       		.byte	0x6
 2935 0239 22       		.byte	0x22
 2936 023a D9000000 		.4byte	0xd9
 2937 023e 04       		.byte	0x4
 2938 023f 0D       		.uleb128 0xd
 2939 0240 F6030000 		.4byte	.LASF42
 2940 0244 06       		.byte	0x6
 2941 0245 23       		.byte	0x23
 2942 0246 D9000000 		.4byte	0xd9
 2943 024a 08       		.byte	0x8
 2944 024b 0D       		.uleb128 0xd
 2945 024c 9E010000 		.4byte	.LASF43
 2946 0250 06       		.byte	0x6
 2947 0251 24       		.byte	0x24
 2948 0252 D9000000 		.4byte	0xd9
 2949 0256 0C       		.byte	0xc
 2950 0257 0D       		.uleb128 0xd
 2951 0258 73010000 		.4byte	.LASF44
 2952 025c 06       		.byte	0x6
 2953 025d 25       		.byte	0x25
 2954 025e D9000000 		.4byte	0xd9
 2955 0262 10       		.byte	0x10
 2956 0263 0D       		.uleb128 0xd
 2957 0264 7C010000 		.4byte	.LASF45
 2958 0268 06       		.byte	0x6
 2959 0269 26       		.byte	0x26
 2960 026a D9000000 		.4byte	0xd9
 2961 026e 14       		.byte	0x14
 2962 026f 0D       		.uleb128 0xd
 2963 0270 37020000 		.4byte	.LASF46
 2964 0274 06       		.byte	0x6
 2965 0275 27       		.byte	0x27
ARM GAS  C:\Users\yoons\AppData\Local\Temp\cczguO9p.s 			page 64


 2966 0276 D9000000 		.4byte	0xd9
 2967 027a 18       		.byte	0x18
 2968 027b 0D       		.uleb128 0xd
 2969 027c 10000000 		.4byte	.LASF47
 2970 0280 06       		.byte	0x6
 2971 0281 28       		.byte	0x28
 2972 0282 A2000000 		.4byte	0xa2
 2973 0286 1C       		.byte	0x1c
 2974 0287 0D       		.uleb128 0xd
 2975 0288 1F000000 		.4byte	.LASF48
 2976 028c 06       		.byte	0x6
 2977 028d 29       		.byte	0x29
 2978 028e A2000000 		.4byte	0xa2
 2979 0292 1D       		.byte	0x1d
 2980 0293 0D       		.uleb128 0xd
 2981 0294 1C010000 		.4byte	.LASF49
 2982 0298 06       		.byte	0x6
 2983 0299 2C       		.byte	0x2c
 2984 029a 88050000 		.4byte	0x588
 2985 029e 1E       		.byte	0x1e
 2986 029f 0D       		.uleb128 0xd
 2987 02a0 670B0000 		.4byte	.LASF50
 2988 02a4 06       		.byte	0x6
 2989 02a5 2E       		.byte	0x2e
 2990 02a6 88050000 		.4byte	0x588
 2991 02aa 1F       		.byte	0x1f
 2992 02ab 0D       		.uleb128 0xd
 2993 02ac C1010000 		.4byte	.LASF51
 2994 02b0 06       		.byte	0x6
 2995 02b1 31       		.byte	0x31
 2996 02b2 D9000000 		.4byte	0xd9
 2997 02b6 20       		.byte	0x20
 2998 02b7 0D       		.uleb128 0xd
 2999 02b8 A60D0000 		.4byte	.LASF52
 3000 02bc 06       		.byte	0x6
 3001 02bd 32       		.byte	0x32
 3002 02be D9000000 		.4byte	0xd9
 3003 02c2 24       		.byte	0x24
 3004 02c3 0D       		.uleb128 0xd
 3005 02c4 7C020000 		.4byte	.LASF53
 3006 02c8 06       		.byte	0x6
 3007 02c9 33       		.byte	0x33
 3008 02ca D9000000 		.4byte	0xd9
 3009 02ce 28       		.byte	0x28
 3010 02cf 0D       		.uleb128 0xd
 3011 02d0 40040000 		.4byte	.LASF54
 3012 02d4 06       		.byte	0x6
 3013 02d5 34       		.byte	0x34
 3014 02d6 D9000000 		.4byte	0xd9
 3015 02da 2C       		.byte	0x2c
 3016 02db 0D       		.uleb128 0xd
 3017 02dc 3C070000 		.4byte	.LASF55
 3018 02e0 06       		.byte	0x6
 3019 02e1 36       		.byte	0x36
 3020 02e2 D9000000 		.4byte	0xd9
 3021 02e6 30       		.byte	0x30
 3022 02e7 0D       		.uleb128 0xd
ARM GAS  C:\Users\yoons\AppData\Local\Temp\cczguO9p.s 			page 65


 3023 02e8 6D050000 		.4byte	.LASF56
 3024 02ec 06       		.byte	0x6
 3025 02ed 37       		.byte	0x37
 3026 02ee D9000000 		.4byte	0xd9
 3027 02f2 34       		.byte	0x34
 3028 02f3 0D       		.uleb128 0xd
 3029 02f4 71040000 		.4byte	.LASF57
 3030 02f8 06       		.byte	0x6
 3031 02f9 38       		.byte	0x38
 3032 02fa D9000000 		.4byte	0xd9
 3033 02fe 38       		.byte	0x38
 3034 02ff 0D       		.uleb128 0xd
 3035 0300 36050000 		.4byte	.LASF58
 3036 0304 06       		.byte	0x6
 3037 0305 39       		.byte	0x39
 3038 0306 D9000000 		.4byte	0xd9
 3039 030a 3C       		.byte	0x3c
 3040 030b 0D       		.uleb128 0xd
 3041 030c C4050000 		.4byte	.LASF59
 3042 0310 06       		.byte	0x6
 3043 0311 3B       		.byte	0x3b
 3044 0312 C3000000 		.4byte	0xc3
 3045 0316 40       		.byte	0x40
 3046 0317 0D       		.uleb128 0xd
 3047 0318 9C0C0000 		.4byte	.LASF60
 3048 031c 06       		.byte	0x6
 3049 031d 3C       		.byte	0x3c
 3050 031e C3000000 		.4byte	0xc3
 3051 0322 44       		.byte	0x44
 3052 0323 0D       		.uleb128 0xd
 3053 0324 59080000 		.4byte	.LASF61
 3054 0328 06       		.byte	0x6
 3055 0329 41       		.byte	0x41
 3056 032a C3000000 		.4byte	0xc3
 3057 032e 48       		.byte	0x48
 3058 032f 0D       		.uleb128 0xd
 3059 0330 7C040000 		.4byte	.LASF62
 3060 0334 06       		.byte	0x6
 3061 0335 42       		.byte	0x42
 3062 0336 AD000000 		.4byte	0xad
 3063 033a 4C       		.byte	0x4c
 3064 033b 0D       		.uleb128 0xd
 3065 033c 4C0A0000 		.4byte	.LASF63
 3066 0340 06       		.byte	0x6
 3067 0341 44       		.byte	0x44
 3068 0342 AD000000 		.4byte	0xad
 3069 0346 4E       		.byte	0x4e
 3070 0347 0D       		.uleb128 0xd
 3071 0348 0F010000 		.4byte	.LASF64
 3072 034c 06       		.byte	0x6
 3073 034d 45       		.byte	0x45
 3074 034e B8000000 		.4byte	0xb8
 3075 0352 50       		.byte	0x50
 3076 0353 0D       		.uleb128 0xd
 3077 0354 E1010000 		.4byte	.LASF65
 3078 0358 06       		.byte	0x6
 3079 0359 46       		.byte	0x46
ARM GAS  C:\Users\yoons\AppData\Local\Temp\cczguO9p.s 			page 66


 3080 035a B8000000 		.4byte	0xb8
 3081 035e 52       		.byte	0x52
 3082 035f 0D       		.uleb128 0xd
 3083 0360 CA080000 		.4byte	.LASF66
 3084 0364 06       		.byte	0x6
 3085 0365 47       		.byte	0x47
 3086 0366 B8000000 		.4byte	0xb8
 3087 036a 54       		.byte	0x54
 3088 036b 0D       		.uleb128 0xd
 3089 036c 050C0000 		.4byte	.LASF67
 3090 0370 06       		.byte	0x6
 3091 0371 4A       		.byte	0x4a
 3092 0372 88050000 		.4byte	0x588
 3093 0376 56       		.byte	0x56
 3094 0377 0D       		.uleb128 0xd
 3095 0378 660D0000 		.4byte	.LASF68
 3096 037c 06       		.byte	0x6
 3097 037d 4E       		.byte	0x4e
 3098 037e D9000000 		.4byte	0xd9
 3099 0382 58       		.byte	0x58
 3100 0383 0D       		.uleb128 0xd
 3101 0384 F3090000 		.4byte	.LASF69
 3102 0388 06       		.byte	0x6
 3103 0389 52       		.byte	0x52
 3104 038a D9000000 		.4byte	0xd9
 3105 038e 5C       		.byte	0x5c
 3106 038f 0D       		.uleb128 0xd
 3107 0390 BE040000 		.4byte	.LASF70
 3108 0394 06       		.byte	0x6
 3109 0395 57       		.byte	0x57
 3110 0396 88050000 		.4byte	0x588
 3111 039a 60       		.byte	0x60
 3112 039b 0D       		.uleb128 0xd
 3113 039c 60030000 		.4byte	.LASF71
 3114 03a0 06       		.byte	0x6
 3115 03a1 58       		.byte	0x58
 3116 03a2 CE000000 		.4byte	0xce
 3117 03a6 64       		.byte	0x64
 3118 03a7 0D       		.uleb128 0xd
 3119 03a8 BA000000 		.4byte	.LASF72
 3120 03ac 06       		.byte	0x6
 3121 03ad 59       		.byte	0x59
 3122 03ae D9000000 		.4byte	0xd9
 3123 03b2 68       		.byte	0x68
 3124 03b3 0D       		.uleb128 0xd
 3125 03b4 86080000 		.4byte	.LASF73
 3126 03b8 06       		.byte	0x6
 3127 03b9 5A       		.byte	0x5a
 3128 03ba D9000000 		.4byte	0xd9
 3129 03be 6C       		.byte	0x6c
 3130 03bf 0D       		.uleb128 0xd
 3131 03c0 71030000 		.4byte	.LASF74
 3132 03c4 06       		.byte	0x6
 3133 03c5 5B       		.byte	0x5b
 3134 03c6 D9000000 		.4byte	0xd9
 3135 03ca 70       		.byte	0x70
 3136 03cb 0D       		.uleb128 0xd
ARM GAS  C:\Users\yoons\AppData\Local\Temp\cczguO9p.s 			page 67


 3137 03cc 14060000 		.4byte	.LASF75
 3138 03d0 06       		.byte	0x6
 3139 03d1 5F       		.byte	0x5f
 3140 03d2 D9000000 		.4byte	0xd9
 3141 03d6 74       		.byte	0x74
 3142 03d7 0D       		.uleb128 0xd
 3143 03d8 1B040000 		.4byte	.LASF76
 3144 03dc 06       		.byte	0x6
 3145 03dd 60       		.byte	0x60
 3146 03de D9000000 		.4byte	0xd9
 3147 03e2 78       		.byte	0x78
 3148 03e3 0D       		.uleb128 0xd
 3149 03e4 F5080000 		.4byte	.LASF77
 3150 03e8 06       		.byte	0x6
 3151 03e9 61       		.byte	0x61
 3152 03ea D9000000 		.4byte	0xd9
 3153 03ee 7C       		.byte	0x7c
 3154 03ef 0D       		.uleb128 0xd
 3155 03f0 24090000 		.4byte	.LASF78
 3156 03f4 06       		.byte	0x6
 3157 03f5 65       		.byte	0x65
 3158 03f6 D9000000 		.4byte	0xd9
 3159 03fa 80       		.byte	0x80
 3160 03fb 0D       		.uleb128 0xd
 3161 03fc 17070000 		.4byte	.LASF79
 3162 0400 06       		.byte	0x6
 3163 0401 66       		.byte	0x66
 3164 0402 D9000000 		.4byte	0xd9
 3165 0406 84       		.byte	0x84
 3166 0407 0D       		.uleb128 0xd
 3167 0408 E6050000 		.4byte	.LASF80
 3168 040c 06       		.byte	0x6
 3169 040d 67       		.byte	0x67
 3170 040e D9000000 		.4byte	0xd9
 3171 0412 88       		.byte	0x88
 3172 0413 0D       		.uleb128 0xd
 3173 0414 E5090000 		.4byte	.LASF81
 3174 0418 06       		.byte	0x6
 3175 0419 6A       		.byte	0x6a
 3176 041a 88050000 		.4byte	0x588
 3177 041e 8C       		.byte	0x8c
 3178 041f 0D       		.uleb128 0xd
 3179 0420 340A0000 		.4byte	.LASF82
 3180 0424 06       		.byte	0x6
 3181 0425 6E       		.byte	0x6e
 3182 0426 88050000 		.4byte	0x588
 3183 042a 8D       		.byte	0x8d
 3184 042b 0D       		.uleb128 0xd
 3185 042c 0E040000 		.4byte	.LASF83
 3186 0430 06       		.byte	0x6
 3187 0431 6F       		.byte	0x6f
 3188 0432 88050000 		.4byte	0x588
 3189 0436 8E       		.byte	0x8e
 3190 0437 0D       		.uleb128 0xd
 3191 0438 7E030000 		.4byte	.LASF84
 3192 043c 06       		.byte	0x6
 3193 043d 70       		.byte	0x70
ARM GAS  C:\Users\yoons\AppData\Local\Temp\cczguO9p.s 			page 68


 3194 043e 88050000 		.4byte	0x588
 3195 0442 8F       		.byte	0x8f
 3196 0443 0D       		.uleb128 0xd
 3197 0444 F9000000 		.4byte	.LASF85
 3198 0448 06       		.byte	0x6
 3199 0449 71       		.byte	0x71
 3200 044a 88050000 		.4byte	0x588
 3201 044e 90       		.byte	0x90
 3202 044f 0D       		.uleb128 0xd
 3203 0450 8F010000 		.4byte	.LASF86
 3204 0454 06       		.byte	0x6
 3205 0455 72       		.byte	0x72
 3206 0456 D9000000 		.4byte	0xd9
 3207 045a 94       		.byte	0x94
 3208 045b 0D       		.uleb128 0xd
 3209 045c AD040000 		.4byte	.LASF87
 3210 0460 06       		.byte	0x6
 3211 0461 73       		.byte	0x73
 3212 0462 A2000000 		.4byte	0xa2
 3213 0466 98       		.byte	0x98
 3214 0467 0D       		.uleb128 0xd
 3215 0468 40020000 		.4byte	.LASF88
 3216 046c 06       		.byte	0x6
 3217 046d 74       		.byte	0x74
 3218 046e D9000000 		.4byte	0xd9
 3219 0472 9C       		.byte	0x9c
 3220 0473 0D       		.uleb128 0xd
 3221 0474 100D0000 		.4byte	.LASF89
 3222 0478 06       		.byte	0x6
 3223 0479 75       		.byte	0x75
 3224 047a A2000000 		.4byte	0xa2
 3225 047e A0       		.byte	0xa0
 3226 047f 0D       		.uleb128 0xd
 3227 0480 8F090000 		.4byte	.LASF90
 3228 0484 06       		.byte	0x6
 3229 0485 76       		.byte	0x76
 3230 0486 AD000000 		.4byte	0xad
 3231 048a A2       		.byte	0xa2
 3232 048b 0D       		.uleb128 0xd
 3233 048c 52040000 		.4byte	.LASF91
 3234 0490 06       		.byte	0x6
 3235 0491 77       		.byte	0x77
 3236 0492 AD000000 		.4byte	0xad
 3237 0496 A4       		.byte	0xa4
 3238 0497 0D       		.uleb128 0xd
 3239 0498 78050000 		.4byte	.LASF92
 3240 049c 06       		.byte	0x6
 3241 049d 78       		.byte	0x78
 3242 049e D9000000 		.4byte	0xd9
 3243 04a2 A8       		.byte	0xa8
 3244 04a3 0D       		.uleb128 0xd
 3245 04a4 7C070000 		.4byte	.LASF93
 3246 04a8 06       		.byte	0x6
 3247 04a9 79       		.byte	0x79
 3248 04aa AD000000 		.4byte	0xad
 3249 04ae AC       		.byte	0xac
 3250 04af 0D       		.uleb128 0xd
ARM GAS  C:\Users\yoons\AppData\Local\Temp\cczguO9p.s 			page 69


 3251 04b0 770A0000 		.4byte	.LASF94
 3252 04b4 06       		.byte	0x6
 3253 04b5 7A       		.byte	0x7a
 3254 04b6 AD000000 		.4byte	0xad
 3255 04ba AE       		.byte	0xae
 3256 04bb 0D       		.uleb128 0xd
 3257 04bc F6050000 		.4byte	.LASF95
 3258 04c0 06       		.byte	0x6
 3259 04c1 7B       		.byte	0x7b
 3260 04c2 AD000000 		.4byte	0xad
 3261 04c6 B0       		.byte	0xb0
 3262 04c7 0D       		.uleb128 0xd
 3263 04c8 53010000 		.4byte	.LASF96
 3264 04cc 06       		.byte	0x6
 3265 04cd 7C       		.byte	0x7c
 3266 04ce D9000000 		.4byte	0xd9
 3267 04d2 B4       		.byte	0xb4
 3268 04d3 0D       		.uleb128 0xd
 3269 04d4 1E020000 		.4byte	.LASF97
 3270 04d8 06       		.byte	0x6
 3271 04d9 7D       		.byte	0x7d
 3272 04da AD000000 		.4byte	0xad
 3273 04de B8       		.byte	0xb8
 3274 04df 0D       		.uleb128 0xd
 3275 04e0 C3030000 		.4byte	.LASF98
 3276 04e4 06       		.byte	0x6
 3277 04e5 80       		.byte	0x80
 3278 04e6 88050000 		.4byte	0x588
 3279 04ea BA       		.byte	0xba
 3280 04eb 0D       		.uleb128 0xd
 3281 04ec 74080000 		.4byte	.LASF99
 3282 04f0 06       		.byte	0x6
 3283 04f1 81       		.byte	0x81
 3284 04f2 D9000000 		.4byte	0xd9
 3285 04f6 BC       		.byte	0xbc
 3286 04f7 0D       		.uleb128 0xd
 3287 04f8 7A080000 		.4byte	.LASF100
 3288 04fc 06       		.byte	0x6
 3289 04fd 82       		.byte	0x82
 3290 04fe D9000000 		.4byte	0xd9
 3291 0502 C0       		.byte	0xc0
 3292 0503 0D       		.uleb128 0xd
 3293 0504 80080000 		.4byte	.LASF101
 3294 0508 06       		.byte	0x6
 3295 0509 83       		.byte	0x83
 3296 050a D9000000 		.4byte	0xd9
 3297 050e C4       		.byte	0xc4
 3298 050f 0D       		.uleb128 0xd
 3299 0510 A6030000 		.4byte	.LASF102
 3300 0514 06       		.byte	0x6
 3301 0515 84       		.byte	0x84
 3302 0516 D9000000 		.4byte	0xd9
 3303 051a C8       		.byte	0xc8
 3304 051b 0D       		.uleb128 0xd
 3305 051c B40C0000 		.4byte	.LASF103
 3306 0520 06       		.byte	0x6
 3307 0521 85       		.byte	0x85
ARM GAS  C:\Users\yoons\AppData\Local\Temp\cczguO9p.s 			page 70


 3308 0522 D9000000 		.4byte	0xd9
 3309 0526 CC       		.byte	0xcc
 3310 0527 0D       		.uleb128 0xd
 3311 0528 0D050000 		.4byte	.LASF104
 3312 052c 06       		.byte	0x6
 3313 052d 86       		.byte	0x86
 3314 052e D9000000 		.4byte	0xd9
 3315 0532 D0       		.byte	0xd0
 3316 0533 0D       		.uleb128 0xd
 3317 0534 17050000 		.4byte	.LASF105
 3318 0538 06       		.byte	0x6
 3319 0539 87       		.byte	0x87
 3320 053a D9000000 		.4byte	0xd9
 3321 053e D4       		.byte	0xd4
 3322 053f 0D       		.uleb128 0xd
 3323 0540 21050000 		.4byte	.LASF106
 3324 0544 06       		.byte	0x6
 3325 0545 88       		.byte	0x88
 3326 0546 D9000000 		.4byte	0xd9
 3327 054a D8       		.byte	0xd8
 3328 054b 0D       		.uleb128 0xd
 3329 054c 720B0000 		.4byte	.LASF107
 3330 0550 06       		.byte	0x6
 3331 0551 89       		.byte	0x89
 3332 0552 D9000000 		.4byte	0xd9
 3333 0556 DC       		.byte	0xdc
 3334 0557 0D       		.uleb128 0xd
 3335 0558 2E000000 		.4byte	.LASF108
 3336 055c 06       		.byte	0x6
 3337 055d 94       		.byte	0x94
 3338 055e 88050000 		.4byte	0x588
 3339 0562 E0       		.byte	0xe0
 3340 0563 0D       		.uleb128 0xd
 3341 0564 440D0000 		.4byte	.LASF109
 3342 0568 06       		.byte	0x6
 3343 0569 95       		.byte	0x95
 3344 056a 88050000 		.4byte	0x588
 3345 056e E1       		.byte	0xe1
 3346 056f 0D       		.uleb128 0xd
 3347 0570 AA050000 		.4byte	.LASF110
 3348 0574 06       		.byte	0x6
 3349 0575 96       		.byte	0x96
 3350 0576 D9000000 		.4byte	0xd9
 3351 057a E4       		.byte	0xe4
 3352 057b 0D       		.uleb128 0xd
 3353 057c 4A050000 		.4byte	.LASF111
 3354 0580 06       		.byte	0x6
 3355 0581 97       		.byte	0x97
 3356 0582 AD000000 		.4byte	0xad
 3357 0586 E8       		.byte	0xe8
 3358 0587 00       		.byte	0
 3359 0588 02       		.uleb128 0x2
 3360 0589 01       		.byte	0x1
 3361 058a 02       		.byte	0x2
 3362 058b 2E030000 		.4byte	.LASF112
 3363 058f 03       		.uleb128 0x3
 3364 0590 97050000 		.4byte	.LASF113
ARM GAS  C:\Users\yoons\AppData\Local\Temp\cczguO9p.s 			page 71


 3365 0594 06       		.byte	0x6
 3366 0595 99       		.byte	0x99
 3367 0596 1F020000 		.4byte	0x21f
 3368 059a 11       		.uleb128 0x11
 3369 059b 0601     		.2byte	0x106
 3370 059d 07       		.byte	0x7
 3371 059e 22       		.byte	0x22
 3372 059f D7050000 		.4byte	0x5d7
 3373 05a3 0C       		.uleb128 0xc
 3374 05a4 62756600 		.ascii	"buf\000"
 3375 05a8 07       		.byte	0x7
 3376 05a9 23       		.byte	0x23
 3377 05aa E7050000 		.4byte	0x5e7
 3378 05ae 00       		.byte	0
 3379 05af 12       		.uleb128 0x12
 3380 05b0 5D020000 		.4byte	.LASF114
 3381 05b4 07       		.byte	0x7
 3382 05b5 24       		.byte	0x24
 3383 05b6 13010000 		.4byte	0x113
 3384 05ba 0001     		.2byte	0x100
 3385 05bc 12       		.uleb128 0x12
 3386 05bd 45000000 		.4byte	.LASF115
 3387 05c1 07       		.byte	0x7
 3388 05c2 25       		.byte	0x25
 3389 05c3 13010000 		.4byte	0x113
 3390 05c7 0201     		.2byte	0x102
 3391 05c9 12       		.uleb128 0x12
 3392 05ca A40A0000 		.4byte	.LASF116
 3393 05ce 07       		.byte	0x7
 3394 05cf 26       		.byte	0x26
 3395 05d0 13010000 		.4byte	0x113
 3396 05d4 0401     		.2byte	0x104
 3397 05d6 00       		.byte	0
 3398 05d7 13       		.uleb128 0x13
 3399 05d8 0E010000 		.4byte	0x10e
 3400 05dc E7050000 		.4byte	0x5e7
 3401 05e0 14       		.uleb128 0x14
 3402 05e1 F5000000 		.4byte	0xf5
 3403 05e5 FF       		.byte	0xff
 3404 05e6 00       		.byte	0
 3405 05e7 08       		.uleb128 0x8
 3406 05e8 D7050000 		.4byte	0x5d7
 3407 05ec 03       		.uleb128 0x3
 3408 05ed D5020000 		.4byte	.LASF117
 3409 05f1 07       		.byte	0x7
 3410 05f2 27       		.byte	0x27
 3411 05f3 9A050000 		.4byte	0x59a
 3412 05f7 0B       		.uleb128 0xb
 3413 05f8 18       		.byte	0x18
 3414 05f9 08       		.byte	0x8
 3415 05fa 2F       		.byte	0x2f
 3416 05fb 54060000 		.4byte	0x654
 3417 05ff 0D       		.uleb128 0xd
 3418 0600 430C0000 		.4byte	.LASF118
 3419 0604 08       		.byte	0x8
 3420 0605 30       		.byte	0x30
 3421 0606 CE000000 		.4byte	0xce
ARM GAS  C:\Users\yoons\AppData\Local\Temp\cczguO9p.s 			page 72


 3422 060a 00       		.byte	0
 3423 060b 0D       		.uleb128 0xd
 3424 060c AC010000 		.4byte	.LASF119
 3425 0610 08       		.byte	0x8
 3426 0611 31       		.byte	0x31
 3427 0612 CE000000 		.4byte	0xce
 3428 0616 04       		.byte	0x4
 3429 0617 0D       		.uleb128 0xd
 3430 0618 FC020000 		.4byte	.LASF120
 3431 061c 08       		.byte	0x8
 3432 061d 32       		.byte	0x32
 3433 061e CE000000 		.4byte	0xce
 3434 0622 08       		.byte	0x8
 3435 0623 0D       		.uleb128 0xd
 3436 0624 B8070000 		.4byte	.LASF121
 3437 0628 08       		.byte	0x8
 3438 0629 33       		.byte	0x33
 3439 062a CE000000 		.4byte	0xce
 3440 062e 0C       		.byte	0xc
 3441 062f 0D       		.uleb128 0xd
 3442 0630 61040000 		.4byte	.LASF122
 3443 0634 08       		.byte	0x8
 3444 0635 34       		.byte	0x34
 3445 0636 CE000000 		.4byte	0xce
 3446 063a 10       		.byte	0x10
 3447 063b 0D       		.uleb128 0xd
 3448 063c B5010000 		.4byte	.LASF123
 3449 0640 08       		.byte	0x8
 3450 0641 35       		.byte	0x35
 3451 0642 B8000000 		.4byte	0xb8
 3452 0646 14       		.byte	0x14
 3453 0647 0D       		.uleb128 0xd
 3454 0648 88040000 		.4byte	.LASF124
 3455 064c 08       		.byte	0x8
 3456 064d 36       		.byte	0x36
 3457 064e A2000000 		.4byte	0xa2
 3458 0652 16       		.byte	0x16
 3459 0653 00       		.byte	0
 3460 0654 03       		.uleb128 0x3
 3461 0655 2C040000 		.4byte	.LASF125
 3462 0659 08       		.byte	0x8
 3463 065a 37       		.byte	0x37
 3464 065b F7050000 		.4byte	0x5f7
 3465 065f 11       		.uleb128 0x11
 3466 0660 8003     		.2byte	0x380
 3467 0662 08       		.byte	0x8
 3468 0663 3E       		.byte	0x3e
 3469 0664 1C070000 		.4byte	0x71c
 3470 0668 0C       		.uleb128 0xc
 3471 0669 68616C00 		.ascii	"hal\000"
 3472 066d 08       		.byte	0x8
 3473 066e 3F       		.byte	0x3f
 3474 066f 14020000 		.4byte	0x214
 3475 0673 00       		.byte	0
 3476 0674 0C       		.uleb128 0xc
 3477 0675 63746C00 		.ascii	"ctl\000"
 3478 0679 08       		.byte	0x8
ARM GAS  C:\Users\yoons\AppData\Local\Temp\cczguO9p.s 			page 73


 3479 067a 40       		.byte	0x40
 3480 067b B1010000 		.4byte	0x1b1
 3481 067f 0C       		.byte	0xc
 3482 0680 0D       		.uleb128 0xd
 3483 0681 D7080000 		.4byte	.LASF126
 3484 0685 08       		.byte	0x8
 3485 0686 41       		.byte	0x41
 3486 0687 8F050000 		.4byte	0x58f
 3487 068b 20       		.byte	0x20
 3488 068c 12       		.uleb128 0x12
 3489 068d F40B0000 		.4byte	.LASF127
 3490 0691 08       		.byte	0x8
 3491 0692 42       		.byte	0x42
 3492 0693 54060000 		.4byte	0x654
 3493 0697 0C01     		.2byte	0x10c
 3494 0699 12       		.uleb128 0x12
 3495 069a C7060000 		.4byte	.LASF128
 3496 069e 08       		.byte	0x8
 3497 069f 43       		.byte	0x43
 3498 06a0 EC050000 		.4byte	0x5ec
 3499 06a4 2401     		.2byte	0x124
 3500 06a6 12       		.uleb128 0x12
 3501 06a7 31020000 		.4byte	.LASF129
 3502 06ab 08       		.byte	0x8
 3503 06ac 44       		.byte	0x44
 3504 06ad EC050000 		.4byte	0x5ec
 3505 06b1 2A02     		.2byte	0x22a
 3506 06b3 12       		.uleb128 0x12
 3507 06b4 F9040000 		.4byte	.LASF130
 3508 06b8 08       		.byte	0x8
 3509 06b9 48       		.byte	0x48
 3510 06ba A2000000 		.4byte	0xa2
 3511 06be 3003     		.2byte	0x330
 3512 06c0 12       		.uleb128 0x12
 3513 06c1 870C0000 		.4byte	.LASF131
 3514 06c5 08       		.byte	0x8
 3515 06c6 4C       		.byte	0x4c
 3516 06c7 B8000000 		.4byte	0xb8
 3517 06cb 3203     		.2byte	0x332
 3518 06cd 12       		.uleb128 0x12
 3519 06ce 70000000 		.4byte	.LASF132
 3520 06d2 08       		.byte	0x8
 3521 06d3 4D       		.byte	0x4d
 3522 06d4 CE000000 		.4byte	0xce
 3523 06d8 3403     		.2byte	0x334
 3524 06da 12       		.uleb128 0x12
 3525 06db C8000000 		.4byte	.LASF133
 3526 06df 08       		.byte	0x8
 3527 06e0 4E       		.byte	0x4e
 3528 06e1 88050000 		.4byte	0x588
 3529 06e5 3803     		.2byte	0x338
 3530 06e7 12       		.uleb128 0x12
 3531 06e8 97040000 		.4byte	.LASF134
 3532 06ec 08       		.byte	0x8
 3533 06ed 4F       		.byte	0x4f
 3534 06ee B8000000 		.4byte	0xb8
 3535 06f2 3A03     		.2byte	0x33a
ARM GAS  C:\Users\yoons\AppData\Local\Temp\cczguO9p.s 			page 74


 3536 06f4 12       		.uleb128 0x12
 3537 06f5 620A0000 		.4byte	.LASF135
 3538 06f9 08       		.byte	0x8
 3539 06fa 50       		.byte	0x50
 3540 06fb B8000000 		.4byte	0xb8
 3541 06ff 3C03     		.2byte	0x33c
 3542 0701 12       		.uleb128 0x12
 3543 0702 0E020000 		.4byte	.LASF136
 3544 0706 08       		.byte	0x8
 3545 0707 51       		.byte	0x51
 3546 0708 1C070000 		.4byte	0x71c
 3547 070c 3E03     		.2byte	0x33e
 3548 070e 12       		.uleb128 0x12
 3549 070f 53070000 		.4byte	.LASF137
 3550 0713 08       		.byte	0x8
 3551 0714 54       		.byte	0x54
 3552 0715 A2000000 		.4byte	0xa2
 3553 0719 7E03     		.2byte	0x37e
 3554 071b 00       		.byte	0
 3555 071c 13       		.uleb128 0x13
 3556 071d A2000000 		.4byte	0xa2
 3557 0721 2C070000 		.4byte	0x72c
 3558 0725 14       		.uleb128 0x14
 3559 0726 F5000000 		.4byte	0xf5
 3560 072a 3F       		.byte	0x3f
 3561 072b 00       		.byte	0
 3562 072c 03       		.uleb128 0x3
 3563 072d 00000000 		.4byte	.LASF138
 3564 0731 08       		.byte	0x8
 3565 0732 56       		.byte	0x56
 3566 0733 5F060000 		.4byte	0x65f
 3567 0737 09       		.uleb128 0x9
 3568 0738 01       		.byte	0x1
 3569 0739 37000000 		.4byte	0x37
 3570 073d 09       		.byte	0x9
 3571 073e 33       		.byte	0x33
 3572 073f B0070000 		.4byte	0x7b0
 3573 0743 0A       		.uleb128 0xa
 3574 0744 90000000 		.4byte	.LASF139
 3575 0748 00       		.byte	0
 3576 0749 0A       		.uleb128 0xa
 3577 074a C40D0000 		.4byte	.LASF140
 3578 074e 01       		.byte	0x1
 3579 074f 0A       		.uleb128 0xa
 3580 0750 F0080000 		.4byte	.LASF141
 3581 0754 02       		.byte	0x2
 3582 0755 0A       		.uleb128 0xa
 3583 0756 470B0000 		.4byte	.LASF142
 3584 075a 03       		.byte	0x3
 3585 075b 0A       		.uleb128 0xa
 3586 075c BE050000 		.4byte	.LASF143
 3587 0760 04       		.byte	0x4
 3588 0761 0A       		.uleb128 0xa
 3589 0762 31080000 		.4byte	.LASF144
 3590 0766 05       		.byte	0x5
 3591 0767 0A       		.uleb128 0xa
 3592 0768 1A030000 		.4byte	.LASF145
ARM GAS  C:\Users\yoons\AppData\Local\Temp\cczguO9p.s 			page 75


 3593 076c 06       		.byte	0x6
 3594 076d 0A       		.uleb128 0xa
 3595 076e A4090000 		.4byte	.LASF146
 3596 0772 07       		.byte	0x7
 3597 0773 0A       		.uleb128 0xa
 3598 0774 57000000 		.4byte	.LASF147
 3599 0778 08       		.byte	0x8
 3600 0779 0A       		.uleb128 0xa
 3601 077a DC0D0000 		.4byte	.LASF148
 3602 077e 09       		.byte	0x9
 3603 077f 0A       		.uleb128 0xa
 3604 0780 EE010000 		.4byte	.LASF149
 3605 0784 0A       		.byte	0xa
 3606 0785 0A       		.uleb128 0xa
 3607 0786 14090000 		.4byte	.LASF150
 3608 078a 0B       		.byte	0xb
 3609 078b 0A       		.uleb128 0xa
 3610 078c 38010000 		.4byte	.LASF151
 3611 0790 0C       		.byte	0xc
 3612 0791 0A       		.uleb128 0xa
 3613 0792 24030000 		.4byte	.LASF152
 3614 0796 0D       		.byte	0xd
 3615 0797 0A       		.uleb128 0xa
 3616 0798 EF020000 		.4byte	.LASF153
 3617 079c 0E       		.byte	0xe
 3618 079d 0A       		.uleb128 0xa
 3619 079e 150C0000 		.4byte	.LASF154
 3620 07a2 0F       		.byte	0xf
 3621 07a3 0A       		.uleb128 0xa
 3622 07a4 9B0D0000 		.4byte	.LASF155
 3623 07a8 10       		.byte	0x10
 3624 07a9 0A       		.uleb128 0xa
 3625 07aa CD060000 		.4byte	.LASF156
 3626 07ae 11       		.byte	0x11
 3627 07af 00       		.byte	0
 3628 07b0 03       		.uleb128 0x3
 3629 07b1 D50C0000 		.4byte	.LASF157
 3630 07b5 09       		.byte	0x9
 3631 07b6 45       		.byte	0x45
 3632 07b7 37070000 		.4byte	0x737
 3633 07bb 09       		.uleb128 0x9
 3634 07bc 01       		.byte	0x1
 3635 07bd 37000000 		.4byte	0x37
 3636 07c1 09       		.byte	0x9
 3637 07c2 4D       		.byte	0x4d
 3638 07c3 E0070000 		.4byte	0x7e0
 3639 07c7 0A       		.uleb128 0xa
 3640 07c8 F0040000 		.4byte	.LASF158
 3641 07cc 00       		.byte	0
 3642 07cd 0A       		.uleb128 0xa
 3643 07ce 62020000 		.4byte	.LASF159
 3644 07d2 01       		.byte	0x1
 3645 07d3 0A       		.uleb128 0xa
 3646 07d4 46010000 		.4byte	.LASF160
 3647 07d8 02       		.byte	0x2
 3648 07d9 0A       		.uleb128 0xa
 3649 07da CA090000 		.4byte	.LASF161
ARM GAS  C:\Users\yoons\AppData\Local\Temp\cczguO9p.s 			page 76


 3650 07de 03       		.byte	0x3
 3651 07df 00       		.byte	0
 3652 07e0 03       		.uleb128 0x3
 3653 07e1 B0000000 		.4byte	.LASF162
 3654 07e5 09       		.byte	0x9
 3655 07e6 52       		.byte	0x52
 3656 07e7 BB070000 		.4byte	0x7bb
 3657 07eb 0B       		.uleb128 0xb
 3658 07ec 90       		.byte	0x90
 3659 07ed 09       		.byte	0x9
 3660 07ee 55       		.byte	0x55
 3661 07ef EC090000 		.4byte	0x9ec
 3662 07f3 0D       		.uleb128 0xd
 3663 07f4 CE020000 		.4byte	.LASF163
 3664 07f8 09       		.byte	0x9
 3665 07f9 57       		.byte	0x57
 3666 07fa EC090000 		.4byte	0x9ec
 3667 07fe 00       		.byte	0
 3668 07ff 0D       		.uleb128 0xd
 3669 0800 09010000 		.4byte	.LASF164
 3670 0804 09       		.byte	0x9
 3671 0805 5A       		.byte	0x5a
 3672 0806 B0070000 		.4byte	0x7b0
 3673 080a 04       		.byte	0x4
 3674 080b 0D       		.uleb128 0xd
 3675 080c B1020000 		.4byte	.LASF165
 3676 0810 09       		.byte	0x9
 3677 0811 5B       		.byte	0x5b
 3678 0812 B0070000 		.4byte	0x7b0
 3679 0816 05       		.byte	0x5
 3680 0817 0D       		.uleb128 0xd
 3681 0818 AA0A0000 		.4byte	.LASF166
 3682 081c 09       		.byte	0x9
 3683 081d 5D       		.byte	0x5d
 3684 081e A2000000 		.4byte	0xa2
 3685 0822 06       		.byte	0x6
 3686 0823 0D       		.uleb128 0xd
 3687 0824 62010000 		.4byte	.LASF167
 3688 0828 09       		.byte	0x9
 3689 0829 5E       		.byte	0x5e
 3690 082a A2000000 		.4byte	0xa2
 3691 082e 07       		.byte	0x7
 3692 082f 0D       		.uleb128 0xd
 3693 0830 BB020000 		.4byte	.LASF168
 3694 0834 09       		.byte	0x9
 3695 0835 60       		.byte	0x60
 3696 0836 CE000000 		.4byte	0xce
 3697 083a 08       		.byte	0x8
 3698 083b 0D       		.uleb128 0xd
 3699 083c 710D0000 		.4byte	.LASF169
 3700 0840 09       		.byte	0x9
 3701 0841 62       		.byte	0x62
 3702 0842 CE000000 		.4byte	0xce
 3703 0846 0C       		.byte	0xc
 3704 0847 0D       		.uleb128 0xd
 3705 0848 42050000 		.4byte	.LASF170
 3706 084c 09       		.byte	0x9
ARM GAS  C:\Users\yoons\AppData\Local\Temp\cczguO9p.s 			page 77


 3707 084d 65       		.byte	0x65
 3708 084e E0070000 		.4byte	0x7e0
 3709 0852 10       		.byte	0x10
 3710 0853 0D       		.uleb128 0xd
 3711 0854 BB090000 		.4byte	.LASF171
 3712 0858 09       		.byte	0x9
 3713 0859 66       		.byte	0x66
 3714 085a FE000000 		.4byte	0xfe
 3715 085e 14       		.byte	0x14
 3716 085f 0D       		.uleb128 0xd
 3717 0860 6E070000 		.4byte	.LASF172
 3718 0864 09       		.byte	0x9
 3719 0865 67       		.byte	0x67
 3720 0866 A2000000 		.4byte	0xa2
 3721 086a 18       		.byte	0x18
 3722 086b 0D       		.uleb128 0xd
 3723 086c 200D0000 		.4byte	.LASF173
 3724 0870 09       		.byte	0x9
 3725 0871 6E       		.byte	0x6e
 3726 0872 D9000000 		.4byte	0xd9
 3727 0876 1C       		.byte	0x1c
 3728 0877 0D       		.uleb128 0xd
 3729 0878 120B0000 		.4byte	.LASF174
 3730 087c 09       		.byte	0x9
 3731 087d 6F       		.byte	0x6f
 3732 087e D9000000 		.4byte	0xd9
 3733 0882 20       		.byte	0x20
 3734 0883 0D       		.uleb128 0xd
 3735 0884 4C090000 		.4byte	.LASF175
 3736 0888 09       		.byte	0x9
 3737 0889 74       		.byte	0x74
 3738 088a C3000000 		.4byte	0xc3
 3739 088e 24       		.byte	0x24
 3740 088f 0D       		.uleb128 0xd
 3741 0890 540B0000 		.4byte	.LASF176
 3742 0894 09       		.byte	0x9
 3743 0895 75       		.byte	0x75
 3744 0896 C3000000 		.4byte	0xc3
 3745 089a 28       		.byte	0x28
 3746 089b 0D       		.uleb128 0xd
 3747 089c D6000000 		.4byte	.LASF177
 3748 08a0 09       		.byte	0x9
 3749 08a1 76       		.byte	0x76
 3750 08a2 C3000000 		.4byte	0xc3
 3751 08a6 2C       		.byte	0x2c
 3752 08a7 0D       		.uleb128 0xd
 3753 08a8 B4030000 		.4byte	.LASF178
 3754 08ac 09       		.byte	0x9
 3755 08ad 77       		.byte	0x77
 3756 08ae A2000000 		.4byte	0xa2
 3757 08b2 30       		.byte	0x30
 3758 08b3 0D       		.uleb128 0xd
 3759 08b4 61000000 		.4byte	.LASF179
 3760 08b8 09       		.byte	0x9
 3761 08b9 78       		.byte	0x78
 3762 08ba A2000000 		.4byte	0xa2
 3763 08be 31       		.byte	0x31
ARM GAS  C:\Users\yoons\AppData\Local\Temp\cczguO9p.s 			page 78


 3764 08bf 0D       		.uleb128 0xd
 3765 08c0 6B020000 		.4byte	.LASF180
 3766 08c4 09       		.byte	0x9
 3767 08c5 7B       		.byte	0x7b
 3768 08c6 C3000000 		.4byte	0xc3
 3769 08ca 34       		.byte	0x34
 3770 08cb 0D       		.uleb128 0xd
 3771 08cc 6D0C0000 		.4byte	.LASF181
 3772 08d0 09       		.byte	0x9
 3773 08d1 7C       		.byte	0x7c
 3774 08d2 C3000000 		.4byte	0xc3
 3775 08d6 38       		.byte	0x38
 3776 08d7 0D       		.uleb128 0xd
 3777 08d8 86020000 		.4byte	.LASF182
 3778 08dc 09       		.byte	0x9
 3779 08dd 7D       		.byte	0x7d
 3780 08de C3000000 		.4byte	0xc3
 3781 08e2 3C       		.byte	0x3c
 3782 08e3 0D       		.uleb128 0xd
 3783 08e4 310B0000 		.4byte	.LASF183
 3784 08e8 09       		.byte	0x9
 3785 08e9 80       		.byte	0x80
 3786 08ea A2000000 		.4byte	0xa2
 3787 08ee 40       		.byte	0x40
 3788 08ef 0D       		.uleb128 0xd
 3789 08f0 DB030000 		.4byte	.LASF184
 3790 08f4 09       		.byte	0x9
 3791 08f5 81       		.byte	0x81
 3792 08f6 D9000000 		.4byte	0xd9
 3793 08fa 44       		.byte	0x44
 3794 08fb 0D       		.uleb128 0xd
 3795 08fc DF0A0000 		.4byte	.LASF185
 3796 0900 09       		.byte	0x9
 3797 0901 82       		.byte	0x82
 3798 0902 D9000000 		.4byte	0xd9
 3799 0906 48       		.byte	0x48
 3800 0907 0D       		.uleb128 0xd
 3801 0908 9D000000 		.4byte	.LASF186
 3802 090c 09       		.byte	0x9
 3803 090d 83       		.byte	0x83
 3804 090e CE000000 		.4byte	0xce
 3805 0912 4C       		.byte	0x4c
 3806 0913 0D       		.uleb128 0xd
 3807 0914 090B0000 		.4byte	.LASF187
 3808 0918 09       		.byte	0x9
 3809 0919 86       		.byte	0x86
 3810 091a D9000000 		.4byte	0xd9
 3811 091e 50       		.byte	0x50
 3812 091f 0D       		.uleb128 0xd
 3813 0920 4F020000 		.4byte	.LASF188
 3814 0924 09       		.byte	0x9
 3815 0925 88       		.byte	0x88
 3816 0926 AD000000 		.4byte	0xad
 3817 092a 54       		.byte	0x54
 3818 092b 0D       		.uleb128 0xd
 3819 092c FB0A0000 		.4byte	.LASF189
 3820 0930 09       		.byte	0x9
ARM GAS  C:\Users\yoons\AppData\Local\Temp\cczguO9p.s 			page 79


 3821 0931 89       		.byte	0x89
 3822 0932 AD000000 		.4byte	0xad
 3823 0936 56       		.byte	0x56
 3824 0937 0D       		.uleb128 0xd
 3825 0938 220B0000 		.4byte	.LASF190
 3826 093c 09       		.byte	0x9
 3827 093d 8D       		.byte	0x8d
 3828 093e D9000000 		.4byte	0xd9
 3829 0942 58       		.byte	0x58
 3830 0943 0D       		.uleb128 0xd
 3831 0944 C8040000 		.4byte	.LASF191
 3832 0948 09       		.byte	0x9
 3833 0949 8E       		.byte	0x8e
 3834 094a D9000000 		.4byte	0xd9
 3835 094e 5C       		.byte	0x5c
 3836 094f 0D       		.uleb128 0xd
 3837 0950 D6010000 		.4byte	.LASF192
 3838 0954 09       		.byte	0x9
 3839 0955 8F       		.byte	0x8f
 3840 0956 A2000000 		.4byte	0xa2
 3841 095a 60       		.byte	0x60
 3842 095b 0D       		.uleb128 0xd
 3843 095c 2B050000 		.4byte	.LASF193
 3844 0960 09       		.byte	0x9
 3845 0961 92       		.byte	0x92
 3846 0962 CE000000 		.4byte	0xce
 3847 0966 64       		.byte	0x64
 3848 0967 0D       		.uleb128 0xd
 3849 0968 360C0000 		.4byte	.LASF194
 3850 096c 09       		.byte	0x9
 3851 096d 93       		.byte	0x93
 3852 096e CE000000 		.4byte	0xce
 3853 0972 68       		.byte	0x68
 3854 0973 0D       		.uleb128 0xd
 3855 0974 570D0000 		.4byte	.LASF195
 3856 0978 09       		.byte	0x9
 3857 0979 94       		.byte	0x94
 3858 097a CE000000 		.4byte	0xce
 3859 097e 6C       		.byte	0x6c
 3860 097f 0D       		.uleb128 0xd
 3861 0980 150A0000 		.4byte	.LASF196
 3862 0984 09       		.byte	0x9
 3863 0985 95       		.byte	0x95
 3864 0986 A2000000 		.4byte	0xa2
 3865 098a 70       		.byte	0x70
 3866 098b 0D       		.uleb128 0xd
 3867 098c D10D0000 		.4byte	.LASF197
 3868 0990 09       		.byte	0x9
 3869 0991 98       		.byte	0x98
 3870 0992 A2000000 		.4byte	0xa2
 3871 0996 71       		.byte	0x71
 3872 0997 0D       		.uleb128 0xd
 3873 0998 E1080000 		.4byte	.LASF198
 3874 099c 09       		.byte	0x9
 3875 099d 99       		.byte	0x99
 3876 099e CE000000 		.4byte	0xce
 3877 09a2 74       		.byte	0x74
ARM GAS  C:\Users\yoons\AppData\Local\Temp\cczguO9p.s 			page 80


 3878 09a3 0D       		.uleb128 0xd
 3879 09a4 07030000 		.4byte	.LASF199
 3880 09a8 09       		.byte	0x9
 3881 09a9 9A       		.byte	0x9a
 3882 09aa D9000000 		.4byte	0xd9
 3883 09ae 78       		.byte	0x78
 3884 09af 0D       		.uleb128 0xd
 3885 09b0 870D0000 		.4byte	.LASF200
 3886 09b4 09       		.byte	0x9
 3887 09b5 9B       		.byte	0x9b
 3888 09b6 D9000000 		.4byte	0xd9
 3889 09ba 7C       		.byte	0x7c
 3890 09bb 0D       		.uleb128 0xd
 3891 09bc DA050000 		.4byte	.LASF201
 3892 09c0 09       		.byte	0x9
 3893 09c1 9C       		.byte	0x9c
 3894 09c2 D9000000 		.4byte	0xd9
 3895 09c6 80       		.byte	0x80
 3896 09c7 0D       		.uleb128 0xd
 3897 09c8 4E0C0000 		.4byte	.LASF202
 3898 09cc 09       		.byte	0x9
 3899 09cd 9D       		.byte	0x9d
 3900 09ce D9000000 		.4byte	0xd9
 3901 09d2 84       		.byte	0x84
 3902 09d3 0D       		.uleb128 0xd
 3903 09d4 B20D0000 		.4byte	.LASF203
 3904 09d8 09       		.byte	0x9
 3905 09d9 9E       		.byte	0x9e
 3906 09da A2000000 		.4byte	0xa2
 3907 09de 88       		.byte	0x88
 3908 09df 0D       		.uleb128 0xd
 3909 09e0 2F0D0000 		.4byte	.LASF204
 3910 09e4 09       		.byte	0x9
 3911 09e5 9F       		.byte	0x9f
 3912 09e6 CE000000 		.4byte	0xce
 3913 09ea 8C       		.byte	0x8c
 3914 09eb 00       		.byte	0
 3915 09ec 06       		.uleb128 0x6
 3916 09ed 04       		.byte	0x4
 3917 09ee 2C070000 		.4byte	0x72c
 3918 09f2 03       		.uleb128 0x3
 3919 09f3 40030000 		.4byte	.LASF205
 3920 09f7 09       		.byte	0x9
 3921 09f8 A1       		.byte	0xa1
 3922 09f9 EB070000 		.4byte	0x7eb
 3923 09fd 0B       		.uleb128 0xb
 3924 09fe 0C       		.byte	0xc
 3925 09ff 0A       		.byte	0xa
 3926 0a00 38       		.byte	0x38
 3927 0a01 400A0000 		.4byte	0xa40
 3928 0a05 0D       		.uleb128 0xd
 3929 0a06 9A0A0000 		.4byte	.LASF206
 3930 0a0a 0A       		.byte	0xa
 3931 0a0b 39       		.byte	0x39
 3932 0a0c CE000000 		.4byte	0xce
 3933 0a10 00       		.byte	0
 3934 0a11 0C       		.uleb128 0xc
ARM GAS  C:\Users\yoons\AppData\Local\Temp\cczguO9p.s 			page 81


 3935 0a12 637800   		.ascii	"cx\000"
 3936 0a15 0A       		.byte	0xa
 3937 0a16 3A       		.byte	0x3a
 3938 0a17 AD000000 		.4byte	0xad
 3939 0a1b 04       		.byte	0x4
 3940 0a1c 0C       		.uleb128 0xc
 3941 0a1d 637900   		.ascii	"cy\000"
 3942 0a20 0A       		.byte	0xa
 3943 0a21 3A       		.byte	0x3a
 3944 0a22 AD000000 		.4byte	0xad
 3945 0a26 06       		.byte	0x6
 3946 0a27 0D       		.uleb128 0xd
 3947 0a28 F10D0000 		.4byte	.LASF207
 3948 0a2c 0A       		.byte	0xa
 3949 0a2d 3B       		.byte	0x3b
 3950 0a2e B8000000 		.4byte	0xb8
 3951 0a32 08       		.byte	0x8
 3952 0a33 0D       		.uleb128 0xd
 3953 0a34 91050000 		.4byte	.LASF208
 3954 0a38 0A       		.byte	0xa
 3955 0a39 3B       		.byte	0x3b
 3956 0a3a B8000000 		.4byte	0xb8
 3957 0a3e 0A       		.byte	0xa
 3958 0a3f 00       		.byte	0
 3959 0a40 03       		.uleb128 0x3
 3960 0a41 0D080000 		.4byte	.LASF209
 3961 0a45 0A       		.byte	0xa
 3962 0a46 3C       		.byte	0x3c
 3963 0a47 FD090000 		.4byte	0x9fd
 3964 0a4b 15       		.uleb128 0x15
 3965 0a4c 26010000 		.4byte	.LASF210
 3966 0a50 01       		.byte	0x1
 3967 0a51 28       		.byte	0x28
 3968 0a52 A2000000 		.4byte	0xa2
 3969 0a56 00000000 		.4byte	.LFB64
 3970 0a5a 22000000 		.4byte	.LFE64-.LFB64
 3971 0a5e 01       		.uleb128 0x1
 3972 0a5f 9C       		.byte	0x9c
 3973 0a60 8B0A0000 		.4byte	0xa8b
 3974 0a64 16       		.uleb128 0x16
 3975 0a65 63747800 		.ascii	"ctx\000"
 3976 0a69 01       		.byte	0x1
 3977 0a6a 28       		.byte	0x28
 3978 0a6b 8B0A0000 		.4byte	0xa8b
 3979 0a6f 02       		.uleb128 0x2
 3980 0a70 91       		.byte	0x91
 3981 0a71 6C       		.sleb128 -20
 3982 0a72 17       		.uleb128 0x17
 3983 0a73 7000     		.ascii	"p\000"
 3984 0a75 01       		.byte	0x1
 3985 0a76 2B       		.byte	0x2b
 3986 0a77 D9000000 		.4byte	0xd9
 3987 0a7b 02       		.uleb128 0x2
 3988 0a7c 91       		.byte	0x91
 3989 0a7d 74       		.sleb128 -12
 3990 0a7e 17       		.uleb128 0x17
 3991 0a7f 7400     		.ascii	"t\000"
ARM GAS  C:\Users\yoons\AppData\Local\Temp\cczguO9p.s 			page 82


 3992 0a81 01       		.byte	0x1
 3993 0a82 2B       		.byte	0x2b
 3994 0a83 D9000000 		.4byte	0xd9
 3995 0a87 02       		.uleb128 0x2
 3996 0a88 91       		.byte	0x91
 3997 0a89 70       		.sleb128 -16
 3998 0a8a 00       		.byte	0
 3999 0a8b 06       		.uleb128 0x6
 4000 0a8c 04       		.byte	0x4
 4001 0a8d 910A0000 		.4byte	0xa91
 4002 0a91 07       		.uleb128 0x7
 4003 0a92 F2090000 		.4byte	0x9f2
 4004 0a96 18       		.uleb128 0x18
 4005 0a97 D8040000 		.4byte	.LASF211
 4006 0a9b 01       		.byte	0x1
 4007 0a9c 2F       		.byte	0x2f
 4008 0a9d A2000000 		.4byte	0xa2
 4009 0aa1 00000000 		.4byte	.LFB65
 4010 0aa5 18000000 		.4byte	.LFE65-.LFB65
 4011 0aa9 01       		.uleb128 0x1
 4012 0aaa 9C       		.byte	0x9c
 4013 0aab BE0A0000 		.4byte	0xabe
 4014 0aaf 16       		.uleb128 0x16
 4015 0ab0 63747800 		.ascii	"ctx\000"
 4016 0ab4 01       		.byte	0x1
 4017 0ab5 2F       		.byte	0x2f
 4018 0ab6 8B0A0000 		.4byte	0xa8b
 4019 0aba 02       		.uleb128 0x2
 4020 0abb 91       		.byte	0x91
 4021 0abc 74       		.sleb128 -12
 4022 0abd 00       		.byte	0
 4023 0abe 18       		.uleb128 0x18
 4024 0abf FB010000 		.4byte	.LASF212
 4025 0ac3 01       		.byte	0x1
 4026 0ac4 35       		.byte	0x35
 4027 0ac5 A2000000 		.4byte	0xa2
 4028 0ac9 00000000 		.4byte	.LFB66
 4029 0acd 18000000 		.4byte	.LFE66-.LFB66
 4030 0ad1 01       		.uleb128 0x1
 4031 0ad2 9C       		.byte	0x9c
 4032 0ad3 E60A0000 		.4byte	0xae6
 4033 0ad7 16       		.uleb128 0x16
 4034 0ad8 63747800 		.ascii	"ctx\000"
 4035 0adc 01       		.byte	0x1
 4036 0add 35       		.byte	0x35
 4037 0ade 8B0A0000 		.4byte	0xa8b
 4038 0ae2 02       		.uleb128 0x2
 4039 0ae3 91       		.byte	0x91
 4040 0ae4 74       		.sleb128 -12
 4041 0ae5 00       		.byte	0
 4042 0ae6 19       		.uleb128 0x19
 4043 0ae7 3E090000 		.4byte	.LASF219
 4044 0aeb 01       		.byte	0x1
 4045 0aec 43       		.byte	0x43
 4046 0aed 00000000 		.4byte	.LFB67
 4047 0af1 3C030000 		.4byte	.LFE67-.LFB67
 4048 0af5 01       		.uleb128 0x1
ARM GAS  C:\Users\yoons\AppData\Local\Temp\cczguO9p.s 			page 83


 4049 0af6 9C       		.byte	0x9c
 4050 0af7 240C0000 		.4byte	0xc24
 4051 0afb 16       		.uleb128 0x16
 4052 0afc 63747800 		.ascii	"ctx\000"
 4053 0b00 01       		.byte	0x1
 4054 0b01 43       		.byte	0x43
 4055 0b02 240C0000 		.4byte	0xc24
 4056 0b06 03       		.uleb128 0x3
 4057 0b07 91       		.byte	0x91
 4058 0b08 A47E     		.sleb128 -220
 4059 0b0a 1A       		.uleb128 0x1a
 4060 0b0b 00000000 		.4byte	.Ldebug_ranges0+0
 4061 0b0f 6A0B0000 		.4byte	0xb6a
 4062 0b13 1B       		.uleb128 0x1b
 4063 0b14 06040000 		.4byte	.LASF213
 4064 0b18 01       		.byte	0x1
 4065 0b19 47       		.byte	0x47
 4066 0b1a CE000000 		.4byte	0xce
 4067 0b1e 02       		.uleb128 0x2
 4068 0b1f 91       		.byte	0x91
 4069 0b20 60       		.sleb128 -32
 4070 0b21 1C       		.uleb128 0x1c
 4071 0b22 32000000 		.4byte	.LBB3
 4072 0b26 AA000000 		.4byte	.LBE3-.LBB3
 4073 0b2a 17       		.uleb128 0x17
 4074 0b2b 7000     		.ascii	"p\000"
 4075 0b2d 01       		.byte	0x1
 4076 0b2e 49       		.byte	0x49
 4077 0b2f D9000000 		.4byte	0xd9
 4078 0b33 02       		.uleb128 0x2
 4079 0b34 91       		.byte	0x91
 4080 0b35 54       		.sleb128 -44
 4081 0b36 17       		.uleb128 0x17
 4082 0b37 7400     		.ascii	"t\000"
 4083 0b39 01       		.byte	0x1
 4084 0b3a 49       		.byte	0x49
 4085 0b3b D9000000 		.4byte	0xd9
 4086 0b3f 02       		.uleb128 0x2
 4087 0b40 91       		.byte	0x91
 4088 0b41 50       		.sleb128 -48
 4089 0b42 1B       		.uleb128 0x1b
 4090 0b43 940C0000 		.4byte	.LASF214
 4091 0b47 01       		.byte	0x1
 4092 0b48 4A       		.byte	0x4a
 4093 0b49 A2000000 		.4byte	0xa2
 4094 0b4d 02       		.uleb128 0x2
 4095 0b4e 91       		.byte	0x91
 4096 0b4f 67       		.sleb128 -25
 4097 0b50 1C       		.uleb128 0x1c
 4098 0b51 B8000000 		.4byte	.LBB4
 4099 0b55 24000000 		.4byte	.LBE4-.LBB4
 4100 0b59 1B       		.uleb128 0x1b
 4101 0b5a 9F0A0000 		.4byte	.LASF215
 4102 0b5e 01       		.byte	0x1
 4103 0b5f 50       		.byte	0x50
 4104 0b60 B0070000 		.4byte	0x7b0
 4105 0b64 02       		.uleb128 0x2
ARM GAS  C:\Users\yoons\AppData\Local\Temp\cczguO9p.s 			page 84


 4106 0b65 91       		.byte	0x91
 4107 0b66 5F       		.sleb128 -33
 4108 0b67 00       		.byte	0
 4109 0b68 00       		.byte	0
 4110 0b69 00       		.byte	0
 4111 0b6a 1A       		.uleb128 0x1a
 4112 0b6b 18000000 		.4byte	.Ldebug_ranges0+0x18
 4113 0b6f 800B0000 		.4byte	0xb80
 4114 0b73 17       		.uleb128 0x17
 4115 0b74 6300     		.ascii	"c\000"
 4116 0b76 01       		.byte	0x1
 4117 0b77 59       		.byte	0x59
 4118 0b78 400A0000 		.4byte	0xa40
 4119 0b7c 02       		.uleb128 0x2
 4120 0b7d 91       		.byte	0x91
 4121 0b7e 44       		.sleb128 -60
 4122 0b7f 00       		.byte	0
 4123 0b80 1D       		.uleb128 0x1d
 4124 0b81 54010000 		.4byte	.LBB6
 4125 0b85 32000000 		.4byte	.LBE6-.LBB6
 4126 0b89 9F0B0000 		.4byte	0xb9f
 4127 0b8d 1B       		.uleb128 0x1b
 4128 0b8e E60D0000 		.4byte	.LASF216
 4129 0b92 01       		.byte	0x1
 4130 0b93 6E       		.byte	0x6e
 4131 0b94 CE000000 		.4byte	0xce
 4132 0b98 05       		.uleb128 0x5
 4133 0b99 03       		.byte	0x3
 4134 0b9a 00000000 		.4byte	last_pt_ms.8177
 4135 0b9e 00       		.byte	0
 4136 0b9f 1A       		.uleb128 0x1a
 4137 0ba0 30000000 		.4byte	.Ldebug_ranges0+0x30
 4138 0ba4 100C0000 		.4byte	0xc10
 4139 0ba8 1B       		.uleb128 0x1b
 4140 0ba9 9C080000 		.4byte	.LASF217
 4141 0bad 01       		.byte	0x1
 4142 0bae 79       		.byte	0x79
 4143 0baf A2000000 		.4byte	0xa2
 4144 0bb3 02       		.uleb128 0x2
 4145 0bb4 91       		.byte	0x91
 4146 0bb5 5E       		.sleb128 -34
 4147 0bb6 17       		.uleb128 0x17
 4148 0bb7 74616700 		.ascii	"tag\000"
 4149 0bbb 01       		.byte	0x1
 4150 0bbc 7A       		.byte	0x7a
 4151 0bbd 2A0C0000 		.4byte	0xc2a
 4152 0bc1 05       		.uleb128 0x5
 4153 0bc2 03       		.byte	0x3
 4154 0bc3 00000000 		.4byte	tag.8179
 4155 0bc7 1B       		.uleb128 0x1b
 4156 0bc8 C80A0000 		.4byte	.LASF218
 4157 0bcc 01       		.byte	0x1
 4158 0bcd 90       		.byte	0x90
 4159 0bce CE000000 		.4byte	0xce
 4160 0bd2 02       		.uleb128 0x2
 4161 0bd3 91       		.byte	0x91
 4162 0bd4 58       		.sleb128 -40
ARM GAS  C:\Users\yoons\AppData\Local\Temp\cczguO9p.s 			page 85


 4163 0bd5 1C       		.uleb128 0x1c
 4164 0bd6 94010000 		.4byte	.LBB8
 4165 0bda B8000000 		.4byte	.LBE8-.LBB8
 4166 0bde 17       		.uleb128 0x17
 4167 0bdf 7300     		.ascii	"s\000"
 4168 0be1 01       		.byte	0x1
 4169 0be2 7B       		.byte	0x7b
 4170 0be3 A2000000 		.4byte	0xa2
 4171 0be7 02       		.uleb128 0x2
 4172 0be8 91       		.byte	0x91
 4173 0be9 66       		.sleb128 -26
 4174 0bea 1C       		.uleb128 0x1c
 4175 0beb 9C010000 		.4byte	.LBB9
 4176 0bef 9E000000 		.4byte	.LBE9-.LBB9
 4177 0bf3 17       		.uleb128 0x17
 4178 0bf4 6300     		.ascii	"c\000"
 4179 0bf6 01       		.byte	0x1
 4180 0bf7 7C       		.byte	0x7c
 4181 0bf8 400A0000 		.4byte	0xa40
 4182 0bfc 03       		.uleb128 0x3
 4183 0bfd 91       		.byte	0x91
 4184 0bfe B87F     		.sleb128 -72
 4185 0c00 17       		.uleb128 0x17
 4186 0c01 6200     		.ascii	"b\000"
 4187 0c03 01       		.byte	0x1
 4188 0c04 84       		.byte	0x84
 4189 0c05 3A0C0000 		.4byte	0xc3a
 4190 0c09 03       		.uleb128 0x3
 4191 0c0a 91       		.byte	0x91
 4192 0c0b AC7E     		.sleb128 -212
 4193 0c0d 00       		.byte	0
 4194 0c0e 00       		.byte	0
 4195 0c0f 00       		.byte	0
 4196 0c10 1E       		.uleb128 0x1e
 4197 0c11 48000000 		.4byte	.Ldebug_ranges0+0x48
 4198 0c15 17       		.uleb128 0x17
 4199 0c16 6300     		.ascii	"c\000"
 4200 0c18 01       		.byte	0x1
 4201 0c19 9C       		.byte	0x9c
 4202 0c1a 400A0000 		.4byte	0xa40
 4203 0c1e 03       		.uleb128 0x3
 4204 0c1f 91       		.byte	0x91
 4205 0c20 AC7F     		.sleb128 -84
 4206 0c22 00       		.byte	0
 4207 0c23 00       		.byte	0
 4208 0c24 06       		.uleb128 0x6
 4209 0c25 04       		.byte	0x4
 4210 0c26 F2090000 		.4byte	0x9f2
 4211 0c2a 13       		.uleb128 0x13
 4212 0c2b FE000000 		.4byte	0xfe
 4213 0c2f 3A0C0000 		.4byte	0xc3a
 4214 0c33 14       		.uleb128 0x14
 4215 0c34 F5000000 		.4byte	0xf5
 4216 0c38 01       		.byte	0x1
 4217 0c39 00       		.byte	0
 4218 0c3a 13       		.uleb128 0x13
 4219 0c3b E7000000 		.4byte	0xe7
ARM GAS  C:\Users\yoons\AppData\Local\Temp\cczguO9p.s 			page 86


 4220 0c3f 4A0C0000 		.4byte	0xc4a
 4221 0c43 14       		.uleb128 0x14
 4222 0c44 F5000000 		.4byte	0xf5
 4223 0c48 7F       		.byte	0x7f
 4224 0c49 00       		.byte	0
 4225 0c4a 19       		.uleb128 0x19
 4226 0c4b 8A0A0000 		.4byte	.LASF220
 4227 0c4f 01       		.byte	0x1
 4228 0c50 B6       		.byte	0xb6
 4229 0c51 00000000 		.4byte	.LFB68
 4230 0c55 9C000000 		.4byte	.LFE68-.LFB68
 4231 0c59 01       		.uleb128 0x1
 4232 0c5a 9C       		.byte	0x9c
 4233 0c5b 8A0C0000 		.4byte	0xc8a
 4234 0c5f 16       		.uleb128 0x16
 4235 0c60 63747800 		.ascii	"ctx\000"
 4236 0c64 01       		.byte	0x1
 4237 0c65 B6       		.byte	0xb6
 4238 0c66 240C0000 		.4byte	0xc24
 4239 0c6a 02       		.uleb128 0x2
 4240 0c6b 91       		.byte	0x91
 4241 0c6c 6C       		.sleb128 -20
 4242 0c6d 17       		.uleb128 0x17
 4243 0c6e 70616E00 		.ascii	"pan\000"
 4244 0c72 01       		.byte	0x1
 4245 0c73 C1       		.byte	0xc1
 4246 0c74 D9000000 		.4byte	0xd9
 4247 0c78 02       		.uleb128 0x2
 4248 0c79 91       		.byte	0x91
 4249 0c7a 74       		.sleb128 -12
 4250 0c7b 1B       		.uleb128 0x1b
 4251 0c7c 470A0000 		.4byte	.LASF29
 4252 0c80 01       		.byte	0x1
 4253 0c81 C1       		.byte	0xc1
 4254 0c82 D9000000 		.4byte	0xd9
 4255 0c86 02       		.uleb128 0x2
 4256 0c87 91       		.byte	0x91
 4257 0c88 70       		.sleb128 -16
 4258 0c89 00       		.byte	0
 4259 0c8a 19       		.uleb128 0x19
 4260 0c8b 65080000 		.4byte	.LASF221
 4261 0c8f 01       		.byte	0x1
 4262 0c90 CF       		.byte	0xcf
 4263 0c91 00000000 		.4byte	.LFB69
 4264 0c95 24000000 		.4byte	.LFE69-.LFB69
 4265 0c99 01       		.uleb128 0x1
 4266 0c9a 9C       		.byte	0x9c
 4267 0c9b AE0C0000 		.4byte	0xcae
 4268 0c9f 16       		.uleb128 0x16
 4269 0ca0 63747800 		.ascii	"ctx\000"
 4270 0ca4 01       		.byte	0x1
 4271 0ca5 CF       		.byte	0xcf
 4272 0ca6 240C0000 		.4byte	0xc24
 4273 0caa 02       		.uleb128 0x2
 4274 0cab 91       		.byte	0x91
 4275 0cac 74       		.sleb128 -12
 4276 0cad 00       		.byte	0
ARM GAS  C:\Users\yoons\AppData\Local\Temp\cczguO9p.s 			page 87


 4277 0cae 15       		.uleb128 0x15
 4278 0caf CD030000 		.4byte	.LASF222
 4279 0cb3 01       		.byte	0x1
 4280 0cb4 D9       		.byte	0xd9
 4281 0cb5 A2000000 		.4byte	0xa2
 4282 0cb9 00000000 		.4byte	.LFB70
 4283 0cbd 28000000 		.4byte	.LFE70-.LFB70
 4284 0cc1 01       		.uleb128 0x1
 4285 0cc2 9C       		.byte	0x9c
 4286 0cc3 E20C0000 		.4byte	0xce2
 4287 0cc7 16       		.uleb128 0x16
 4288 0cc8 63747800 		.ascii	"ctx\000"
 4289 0ccc 01       		.byte	0x1
 4290 0ccd D9       		.byte	0xd9
 4291 0cce 240C0000 		.4byte	0xc24
 4292 0cd2 02       		.uleb128 0x2
 4293 0cd3 91       		.byte	0x91
 4294 0cd4 74       		.sleb128 -12
 4295 0cd5 16       		.uleb128 0x16
 4296 0cd6 6B00     		.ascii	"k\000"
 4297 0cd8 01       		.byte	0x1
 4298 0cd9 D9       		.byte	0xd9
 4299 0cda E7000000 		.4byte	0xe7
 4300 0cde 02       		.uleb128 0x2
 4301 0cdf 91       		.byte	0x91
 4302 0ce0 73       		.sleb128 -13
 4303 0ce1 00       		.byte	0
 4304 0ce2 19       		.uleb128 0x19
 4305 0ce3 DD0C0000 		.4byte	.LASF223
 4306 0ce7 01       		.byte	0x1
 4307 0ce8 E2       		.byte	0xe2
 4308 0ce9 00000000 		.4byte	.LFB71
 4309 0ced 74000000 		.4byte	.LFE71-.LFB71
 4310 0cf1 01       		.uleb128 0x1
 4311 0cf2 9C       		.byte	0x9c
 4312 0cf3 140D0000 		.4byte	0xd14
 4313 0cf7 16       		.uleb128 0x16
 4314 0cf8 63747800 		.ascii	"ctx\000"
 4315 0cfc 01       		.byte	0x1
 4316 0cfd E2       		.byte	0xe2
 4317 0cfe 8B0A0000 		.4byte	0xa8b
 4318 0d02 02       		.uleb128 0x2
 4319 0d03 91       		.byte	0x91
 4320 0d04 74       		.sleb128 -12
 4321 0d05 16       		.uleb128 0x16
 4322 0d06 6F757400 		.ascii	"out\000"
 4323 0d0a 01       		.byte	0x1
 4324 0d0b E2       		.byte	0xe2
 4325 0d0c 140D0000 		.4byte	0xd14
 4326 0d10 02       		.uleb128 0x2
 4327 0d11 91       		.byte	0x91
 4328 0d12 70       		.sleb128 -16
 4329 0d13 00       		.byte	0
 4330 0d14 06       		.uleb128 0x6
 4331 0d15 04       		.byte	0x4
 4332 0d16 B1010000 		.4byte	0x1b1
 4333 0d1a 19       		.uleb128 0x19
ARM GAS  C:\Users\yoons\AppData\Local\Temp\cczguO9p.s 			page 88


 4334 0d1b CF0A0000 		.4byte	.LASF224
 4335 0d1f 01       		.byte	0x1
 4336 0d20 F1       		.byte	0xf1
 4337 0d21 00000000 		.4byte	.LFB72
 4338 0d25 28000000 		.4byte	.LFE72-.LFB72
 4339 0d29 01       		.uleb128 0x1
 4340 0d2a 9C       		.byte	0x9c
 4341 0d2b 3E0D0000 		.4byte	0xd3e
 4342 0d2f 16       		.uleb128 0x16
 4343 0d30 63747800 		.ascii	"ctx\000"
 4344 0d34 01       		.byte	0x1
 4345 0d35 F1       		.byte	0xf1
 4346 0d36 240C0000 		.4byte	0xc24
 4347 0d3a 02       		.uleb128 0x2
 4348 0d3b 91       		.byte	0x91
 4349 0d3c 74       		.sleb128 -12
 4350 0d3d 00       		.byte	0
 4351 0d3e 15       		.uleb128 0x15
 4352 0d3f 8D030000 		.4byte	.LASF225
 4353 0d43 01       		.byte	0x1
 4354 0d44 F8       		.byte	0xf8
 4355 0d45 A2000000 		.4byte	0xa2
 4356 0d49 00000000 		.4byte	.LFB73
 4357 0d4d 2A000000 		.4byte	.LFE73-.LFB73
 4358 0d51 01       		.uleb128 0x1
 4359 0d52 9C       		.byte	0x9c
 4360 0d53 720D0000 		.4byte	0xd72
 4361 0d57 16       		.uleb128 0x16
 4362 0d58 63747800 		.ascii	"ctx\000"
 4363 0d5c 01       		.byte	0x1
 4364 0d5d F8       		.byte	0xf8
 4365 0d5e 240C0000 		.4byte	0xc24
 4366 0d62 02       		.uleb128 0x2
 4367 0d63 91       		.byte	0x91
 4368 0d64 74       		.sleb128 -12
 4369 0d65 16       		.uleb128 0x16
 4370 0d66 6B00     		.ascii	"k\000"
 4371 0d68 01       		.byte	0x1
 4372 0d69 F8       		.byte	0xf8
 4373 0d6a E7000000 		.4byte	0xe7
 4374 0d6e 02       		.uleb128 0x2
 4375 0d6f 91       		.byte	0x91
 4376 0d70 73       		.sleb128 -13
 4377 0d71 00       		.byte	0
 4378 0d72 1F       		.uleb128 0x1f
 4379 0d73 8D070000 		.4byte	.LASF230
 4380 0d77 01       		.byte	0x1
 4381 0d78 1201     		.2byte	0x112
 4382 0d7a D9000000 		.4byte	0xd9
 4383 0d7e 00000000 		.4byte	.LFB74
 4384 0d82 F8000000 		.4byte	.LFE74-.LFB74
 4385 0d86 01       		.uleb128 0x1
 4386 0d87 9C       		.byte	0x9c
 4387 0d88 1D0E0000 		.4byte	0xe1d
 4388 0d8c 20       		.uleb128 0x20
 4389 0d8d 03050000 		.4byte	.LASF226
 4390 0d91 01       		.byte	0x1
ARM GAS  C:\Users\yoons\AppData\Local\Temp\cczguO9p.s 			page 89


 4391 0d92 1201     		.2byte	0x112
 4392 0d94 D9000000 		.4byte	0xd9
 4393 0d98 02       		.uleb128 0x2
 4394 0d99 91       		.byte	0x91
 4395 0d9a 54       		.sleb128 -44
 4396 0d9b 20       		.uleb128 0x20
 4397 0d9c 92080000 		.4byte	.LASF227
 4398 0da0 01       		.byte	0x1
 4399 0da1 1201     		.2byte	0x112
 4400 0da3 D9000000 		.4byte	0xd9
 4401 0da7 02       		.uleb128 0x2
 4402 0da8 91       		.byte	0x91
 4403 0da9 50       		.sleb128 -48
 4404 0daa 20       		.uleb128 0x20
 4405 0dab 08050000 		.4byte	.LASF228
 4406 0daf 01       		.byte	0x1
 4407 0db0 1201     		.2byte	0x112
 4408 0db2 D9000000 		.4byte	0xd9
 4409 0db6 02       		.uleb128 0x2
 4410 0db7 91       		.byte	0x91
 4411 0db8 4C       		.sleb128 -52
 4412 0db9 20       		.uleb128 0x20
 4413 0dba 97080000 		.4byte	.LASF229
 4414 0dbe 01       		.byte	0x1
 4415 0dbf 1201     		.2byte	0x112
 4416 0dc1 D9000000 		.4byte	0xd9
 4417 0dc5 02       		.uleb128 0x2
 4418 0dc6 91       		.byte	0x91
 4419 0dc7 48       		.sleb128 -56
 4420 0dc8 21       		.uleb128 0x21
 4421 0dc9 6C613100 		.ascii	"la1\000"
 4422 0dcd 01       		.byte	0x1
 4423 0dce 1501     		.2byte	0x115
 4424 0dd0 D9000000 		.4byte	0xd9
 4425 0dd4 02       		.uleb128 0x2
 4426 0dd5 91       		.byte	0x91
 4427 0dd6 68       		.sleb128 -24
 4428 0dd7 21       		.uleb128 0x21
 4429 0dd8 6C613200 		.ascii	"la2\000"
 4430 0ddc 01       		.byte	0x1
 4431 0ddd 1501     		.2byte	0x115
 4432 0ddf D9000000 		.4byte	0xd9
 4433 0de3 02       		.uleb128 0x2
 4434 0de4 91       		.byte	0x91
 4435 0de5 64       		.sleb128 -28
 4436 0de6 21       		.uleb128 0x21
 4437 0de7 646C6F00 		.ascii	"dlo\000"
 4438 0deb 01       		.byte	0x1
 4439 0dec 1601     		.2byte	0x116
 4440 0dee D9000000 		.4byte	0xd9
 4441 0df2 02       		.uleb128 0x2
 4442 0df3 91       		.byte	0x91
 4443 0df4 60       		.sleb128 -32
 4444 0df5 21       		.uleb128 0x21
 4445 0df6 7800     		.ascii	"x\000"
 4446 0df8 01       		.byte	0x1
 4447 0df9 1701     		.2byte	0x117
ARM GAS  C:\Users\yoons\AppData\Local\Temp\cczguO9p.s 			page 90


 4448 0dfb D9000000 		.4byte	0xd9
 4449 0dff 02       		.uleb128 0x2
 4450 0e00 91       		.byte	0x91
 4451 0e01 5C       		.sleb128 -36
 4452 0e02 21       		.uleb128 0x21
 4453 0e03 7900     		.ascii	"y\000"
 4454 0e05 01       		.byte	0x1
 4455 0e06 1801     		.2byte	0x118
 4456 0e08 D9000000 		.4byte	0xd9
 4457 0e0c 02       		.uleb128 0x2
 4458 0e0d 91       		.byte	0x91
 4459 0e0e 58       		.sleb128 -40
 4460 0e0f 21       		.uleb128 0x21
 4461 0e10 6200     		.ascii	"b\000"
 4462 0e12 01       		.byte	0x1
 4463 0e13 1901     		.2byte	0x119
 4464 0e15 D9000000 		.4byte	0xd9
 4465 0e19 02       		.uleb128 0x2
 4466 0e1a 91       		.byte	0x91
 4467 0e1b 6C       		.sleb128 -20
 4468 0e1c 00       		.byte	0
 4469 0e1d 1F       		.uleb128 0x1f
 4470 0e1e 4A000000 		.4byte	.LASF231
 4471 0e22 01       		.byte	0x1
 4472 0e23 1D01     		.2byte	0x11d
 4473 0e25 D9000000 		.4byte	0xd9
 4474 0e29 00000000 		.4byte	.LFB75
 4475 0e2d 5C010000 		.4byte	.LFE75-.LFB75
 4476 0e31 01       		.uleb128 0x1
 4477 0e32 9C       		.byte	0x9c
 4478 0e33 EA0E0000 		.4byte	0xeea
 4479 0e37 20       		.uleb128 0x20
 4480 0e38 03050000 		.4byte	.LASF226
 4481 0e3c 01       		.byte	0x1
 4482 0e3d 1D01     		.2byte	0x11d
 4483 0e3f D9000000 		.4byte	0xd9
 4484 0e43 02       		.uleb128 0x2
 4485 0e44 91       		.byte	0x91
 4486 0e45 54       		.sleb128 -44
 4487 0e46 20       		.uleb128 0x20
 4488 0e47 92080000 		.4byte	.LASF227
 4489 0e4b 01       		.byte	0x1
 4490 0e4c 1D01     		.2byte	0x11d
 4491 0e4e D9000000 		.4byte	0xd9
 4492 0e52 02       		.uleb128 0x2
 4493 0e53 91       		.byte	0x91
 4494 0e54 50       		.sleb128 -48
 4495 0e55 20       		.uleb128 0x20
 4496 0e56 C3090000 		.4byte	.LASF232
 4497 0e5a 01       		.byte	0x1
 4498 0e5b 1D01     		.2byte	0x11d
 4499 0e5d D9000000 		.4byte	0xd9
 4500 0e61 02       		.uleb128 0x2
 4501 0e62 91       		.byte	0x91
 4502 0e63 4C       		.sleb128 -52
 4503 0e64 20       		.uleb128 0x20
 4504 0e65 08050000 		.4byte	.LASF228
ARM GAS  C:\Users\yoons\AppData\Local\Temp\cczguO9p.s 			page 91


 4505 0e69 01       		.byte	0x1
 4506 0e6a 1E01     		.2byte	0x11e
 4507 0e6c D9000000 		.4byte	0xd9
 4508 0e70 02       		.uleb128 0x2
 4509 0e71 91       		.byte	0x91
 4510 0e72 48       		.sleb128 -56
 4511 0e73 20       		.uleb128 0x20
 4512 0e74 97080000 		.4byte	.LASF229
 4513 0e78 01       		.byte	0x1
 4514 0e79 1E01     		.2byte	0x11e
 4515 0e7b D9000000 		.4byte	0xd9
 4516 0e7f 02       		.uleb128 0x2
 4517 0e80 91       		.byte	0x91
 4518 0e81 00       		.sleb128 0
 4519 0e82 20       		.uleb128 0x20
 4520 0e83 AA020000 		.4byte	.LASF233
 4521 0e87 01       		.byte	0x1
 4522 0e88 1E01     		.2byte	0x11e
 4523 0e8a D9000000 		.4byte	0xd9
 4524 0e8e 02       		.uleb128 0x2
 4525 0e8f 91       		.byte	0x91
 4526 0e90 04       		.sleb128 4
 4527 0e91 21       		.uleb128 0x21
 4528 0e92 6C613100 		.ascii	"la1\000"
 4529 0e96 01       		.byte	0x1
 4530 0e97 2101     		.2byte	0x121
 4531 0e99 D9000000 		.4byte	0xd9
 4532 0e9d 02       		.uleb128 0x2
 4533 0e9e 91       		.byte	0x91
 4534 0e9f 68       		.sleb128 -24
 4535 0ea0 21       		.uleb128 0x21
 4536 0ea1 6C613200 		.ascii	"la2\000"
 4537 0ea5 01       		.byte	0x1
 4538 0ea6 2101     		.2byte	0x121
 4539 0ea8 D9000000 		.4byte	0xd9
 4540 0eac 02       		.uleb128 0x2
 4541 0ead 91       		.byte	0x91
 4542 0eae 64       		.sleb128 -28
 4543 0eaf 21       		.uleb128 0x21
 4544 0eb0 646C6F00 		.ascii	"dlo\000"
 4545 0eb4 01       		.byte	0x1
 4546 0eb5 2201     		.2byte	0x122
 4547 0eb7 D9000000 		.4byte	0xd9
 4548 0ebb 02       		.uleb128 0x2
 4549 0ebc 91       		.byte	0x91
 4550 0ebd 60       		.sleb128 -32
 4551 0ebe 21       		.uleb128 0x21
 4552 0ebf 646C6100 		.ascii	"dla\000"
 4553 0ec3 01       		.byte	0x1
 4554 0ec4 2301     		.2byte	0x123
 4555 0ec6 D9000000 		.4byte	0xd9
 4556 0eca 02       		.uleb128 0x2
 4557 0ecb 91       		.byte	0x91
 4558 0ecc 5C       		.sleb128 -36
 4559 0ecd 21       		.uleb128 0x21
 4560 0ece 6100     		.ascii	"a\000"
 4561 0ed0 01       		.byte	0x1
ARM GAS  C:\Users\yoons\AppData\Local\Temp\cczguO9p.s 			page 92


 4562 0ed1 2401     		.2byte	0x124
 4563 0ed3 D9000000 		.4byte	0xd9
 4564 0ed7 02       		.uleb128 0x2
 4565 0ed8 91       		.byte	0x91
 4566 0ed9 58       		.sleb128 -40
 4567 0eda 22       		.uleb128 0x22
 4568 0edb B7080000 		.4byte	.LASF234
 4569 0edf 01       		.byte	0x1
 4570 0ee0 2601     		.2byte	0x126
 4571 0ee2 D9000000 		.4byte	0xd9
 4572 0ee6 02       		.uleb128 0x2
 4573 0ee7 91       		.byte	0x91
 4574 0ee8 6C       		.sleb128 -20
 4575 0ee9 00       		.byte	0
 4576 0eea 23       		.uleb128 0x23
 4577 0eeb FE070000 		.4byte	.LASF235
 4578 0eef 01       		.byte	0x1
 4579 0ef0 2C01     		.2byte	0x12c
 4580 0ef2 00000000 		.4byte	.LFB76
 4581 0ef6 3A000000 		.4byte	.LFE76-.LFB76
 4582 0efa 01       		.uleb128 0x1
 4583 0efb 9C       		.byte	0x9c
 4584 0efc 100F0000 		.4byte	0xf10
 4585 0f00 24       		.uleb128 0x24
 4586 0f01 63747800 		.ascii	"ctx\000"
 4587 0f05 01       		.byte	0x1
 4588 0f06 2C01     		.2byte	0x12c
 4589 0f08 240C0000 		.4byte	0xc24
 4590 0f0c 02       		.uleb128 0x2
 4591 0f0d 91       		.byte	0x91
 4592 0f0e 74       		.sleb128 -12
 4593 0f0f 00       		.byte	0
 4594 0f10 25       		.uleb128 0x25
 4595 0f11 ED0C0000 		.4byte	.LASF236
 4596 0f15 01       		.byte	0x1
 4597 0f16 3A01     		.2byte	0x13a
 4598 0f18 00000000 		.4byte	.LFB77
 4599 0f1c E8000000 		.4byte	.LFE77-.LFB77
 4600 0f20 01       		.uleb128 0x1
 4601 0f21 9C       		.byte	0x9c
 4602 0f22 730F0000 		.4byte	0xf73
 4603 0f26 24       		.uleb128 0x24
 4604 0f27 63747800 		.ascii	"ctx\000"
 4605 0f2b 01       		.byte	0x1
 4606 0f2c 3A01     		.2byte	0x13a
 4607 0f2e 240C0000 		.4byte	0xc24
 4608 0f32 03       		.uleb128 0x3
 4609 0f33 91       		.byte	0x91
 4610 0f34 FC7D     		.sleb128 -260
 4611 0f36 21       		.uleb128 0x21
 4612 0f37 737400   		.ascii	"st\000"
 4613 0f3a 01       		.byte	0x1
 4614 0f3b 3E01     		.2byte	0x13e
 4615 0f3d 8F050000 		.4byte	0x58f
 4616 0f41 03       		.uleb128 0x3
 4617 0f42 91       		.byte	0x91
 4618 0f43 807E     		.sleb128 -256
ARM GAS  C:\Users\yoons\AppData\Local\Temp\cczguO9p.s 			page 93


 4619 0f45 22       		.uleb128 0x22
 4620 0f46 BF0D0000 		.4byte	.LASF237
 4621 0f4a 01       		.byte	0x1
 4622 0f4b 4201     		.2byte	0x142
 4623 0f4d D9000000 		.4byte	0xd9
 4624 0f51 02       		.uleb128 0x2
 4625 0f52 91       		.byte	0x91
 4626 0f53 74       		.sleb128 -12
 4627 0f54 22       		.uleb128 0x22
 4628 0f55 8C050000 		.4byte	.LASF238
 4629 0f59 01       		.byte	0x1
 4630 0f5a 4301     		.2byte	0x143
 4631 0f5c D9000000 		.4byte	0xd9
 4632 0f60 02       		.uleb128 0x2
 4633 0f61 91       		.byte	0x91
 4634 0f62 70       		.sleb128 -16
 4635 0f63 22       		.uleb128 0x22
 4636 0f64 A7010000 		.4byte	.LASF239
 4637 0f68 01       		.byte	0x1
 4638 0f69 4401     		.2byte	0x144
 4639 0f6b D9000000 		.4byte	0xd9
 4640 0f6f 02       		.uleb128 0x2
 4641 0f70 91       		.byte	0x91
 4642 0f71 6C       		.sleb128 -20
 4643 0f72 00       		.byte	0
 4644 0f73 25       		.uleb128 0x25
 4645 0f74 4A030000 		.4byte	.LASF240
 4646 0f78 01       		.byte	0x1
 4647 0f79 5101     		.2byte	0x151
 4648 0f7b 00000000 		.4byte	.LFB78
 4649 0f7f C8010000 		.4byte	.LFE78-.LFB78
 4650 0f83 01       		.uleb128 0x1
 4651 0f84 9C       		.byte	0x9c
 4652 0f85 29100000 		.4byte	0x1029
 4653 0f89 24       		.uleb128 0x24
 4654 0f8a 63747800 		.ascii	"ctx\000"
 4655 0f8e 01       		.byte	0x1
 4656 0f8f 5101     		.2byte	0x151
 4657 0f91 240C0000 		.4byte	0xc24
 4658 0f95 02       		.uleb128 0x2
 4659 0f96 91       		.byte	0x91
 4660 0f97 4C       		.sleb128 -52
 4661 0f98 21       		.uleb128 0x21
 4662 0f99 6E6F7700 		.ascii	"now\000"
 4663 0f9d 01       		.byte	0x1
 4664 0f9e 5401     		.2byte	0x154
 4665 0fa0 CE000000 		.4byte	0xce
 4666 0fa4 02       		.uleb128 0x2
 4667 0fa5 91       		.byte	0x91
 4668 0fa6 68       		.sleb128 -24
 4669 0fa7 21       		.uleb128 0x21
 4670 0fa8 70616E00 		.ascii	"pan\000"
 4671 0fac 01       		.byte	0x1
 4672 0fad 5801     		.2byte	0x158
 4673 0faf D9000000 		.4byte	0xd9
 4674 0fb3 02       		.uleb128 0x2
 4675 0fb4 91       		.byte	0x91
ARM GAS  C:\Users\yoons\AppData\Local\Temp\cczguO9p.s 			page 94


 4676 0fb5 54       		.sleb128 -44
 4677 0fb6 22       		.uleb128 0x22
 4678 0fb7 470A0000 		.4byte	.LASF29
 4679 0fbb 01       		.byte	0x1
 4680 0fbc 5801     		.2byte	0x158
 4681 0fbe D9000000 		.4byte	0xd9
 4682 0fc2 02       		.uleb128 0x2
 4683 0fc3 91       		.byte	0x91
 4684 0fc4 50       		.sleb128 -48
 4685 0fc5 22       		.uleb128 0x22
 4686 0fc6 0A060000 		.4byte	.LASF241
 4687 0fca 01       		.byte	0x1
 4688 0fcb 5D01     		.2byte	0x15d
 4689 0fcd D9000000 		.4byte	0xd9
 4690 0fd1 02       		.uleb128 0x2
 4691 0fd2 91       		.byte	0x91
 4692 0fd3 6C       		.sleb128 -20
 4693 0fd4 22       		.uleb128 0x22
 4694 0fd5 D8070000 		.4byte	.LASF242
 4695 0fd9 01       		.byte	0x1
 4696 0fda 6B01     		.2byte	0x16b
 4697 0fdc D9000000 		.4byte	0xd9
 4698 0fe0 02       		.uleb128 0x2
 4699 0fe1 91       		.byte	0x91
 4700 0fe2 60       		.sleb128 -32
 4701 0fe3 22       		.uleb128 0x22
 4702 0fe4 F1070000 		.4byte	.LASF243
 4703 0fe8 01       		.byte	0x1
 4704 0fe9 6C01     		.2byte	0x16c
 4705 0feb D9000000 		.4byte	0xd9
 4706 0fef 02       		.uleb128 0x2
 4707 0ff0 91       		.byte	0x91
 4708 0ff1 5C       		.sleb128 -36
 4709 0ff2 22       		.uleb128 0x22
 4710 0ff3 940C0000 		.4byte	.LASF214
 4711 0ff7 01       		.byte	0x1
 4712 0ff8 6D01     		.2byte	0x16d
 4713 0ffa A2000000 		.4byte	0xa2
 4714 0ffe 02       		.uleb128 0x2
 4715 0fff 91       		.byte	0x91
 4716 1000 5B       		.sleb128 -37
 4717 1001 22       		.uleb128 0x22
 4718 1002 010D0000 		.4byte	.LASF244
 4719 1006 01       		.byte	0x1
 4720 1007 6F01     		.2byte	0x16f
 4721 1009 A2000000 		.4byte	0xa2
 4722 100d 02       		.uleb128 0x2
 4723 100e 91       		.byte	0x91
 4724 100f 5A       		.sleb128 -38
 4725 1010 1C       		.uleb128 0x1c
 4726 1011 40000000 		.4byte	.LBB15
 4727 1015 6A000000 		.4byte	.LBE15-.LBB15
 4728 1019 21       		.uleb128 0x21
 4729 101a 647400   		.ascii	"dt\000"
 4730 101d 01       		.byte	0x1
 4731 101e 5F01     		.2byte	0x15f
 4732 1020 D9000000 		.4byte	0xd9
ARM GAS  C:\Users\yoons\AppData\Local\Temp\cczguO9p.s 			page 95


 4733 1024 02       		.uleb128 0x2
 4734 1025 91       		.byte	0x91
 4735 1026 64       		.sleb128 -28
 4736 1027 00       		.byte	0
 4737 1028 00       		.byte	0
 4738 1029 26       		.uleb128 0x26
 4739 102a 46080000 		.4byte	.LASF245
 4740 102e 01       		.byte	0x1
 4741 102f 8001     		.2byte	0x180
 4742 1031 00000000 		.4byte	.LFB79
 4743 1035 48000000 		.4byte	.LFE79-.LFB79
 4744 1039 01       		.uleb128 0x1
 4745 103a 9C       		.byte	0x9c
 4746 103b 4F100000 		.4byte	0x104f
 4747 103f 24       		.uleb128 0x24
 4748 1040 63747800 		.ascii	"ctx\000"
 4749 1044 01       		.byte	0x1
 4750 1045 8001     		.2byte	0x180
 4751 1047 240C0000 		.4byte	0xc24
 4752 104b 02       		.uleb128 0x2
 4753 104c 91       		.byte	0x91
 4754 104d 74       		.sleb128 -12
 4755 104e 00       		.byte	0
 4756 104f 26       		.uleb128 0x26
 4757 1050 5B0C0000 		.4byte	.LASF246
 4758 1054 01       		.byte	0x1
 4759 1055 9101     		.2byte	0x191
 4760 1057 00000000 		.4byte	.LFB80
 4761 105b 38000000 		.4byte	.LFE80-.LFB80
 4762 105f 01       		.uleb128 0x1
 4763 1060 9C       		.byte	0x9c
 4764 1061 75100000 		.4byte	0x1075
 4765 1065 24       		.uleb128 0x24
 4766 1066 63747800 		.ascii	"ctx\000"
 4767 106a 01       		.byte	0x1
 4768 106b 9101     		.2byte	0x191
 4769 106d 240C0000 		.4byte	0xc24
 4770 1071 02       		.uleb128 0x2
 4771 1072 91       		.byte	0x91
 4772 1073 74       		.sleb128 -12
 4773 1074 00       		.byte	0
 4774 1075 27       		.uleb128 0x27
 4775 1076 D4090000 		.4byte	.LASF247
 4776 107a 01       		.byte	0x1
 4777 107b 9D01     		.2byte	0x19d
 4778 107d A2000000 		.4byte	0xa2
 4779 1081 00000000 		.4byte	.LFB81
 4780 1085 28000000 		.4byte	.LFE81-.LFB81
 4781 1089 01       		.uleb128 0x1
 4782 108a 9C       		.byte	0x9c
 4783 108b AC100000 		.4byte	0x10ac
 4784 108f 24       		.uleb128 0x24
 4785 1090 63747800 		.ascii	"ctx\000"
 4786 1094 01       		.byte	0x1
 4787 1095 9D01     		.2byte	0x19d
 4788 1097 240C0000 		.4byte	0xc24
 4789 109b 02       		.uleb128 0x2
ARM GAS  C:\Users\yoons\AppData\Local\Temp\cczguO9p.s 			page 96


 4790 109c 91       		.byte	0x91
 4791 109d 74       		.sleb128 -12
 4792 109e 24       		.uleb128 0x24
 4793 109f 6B00     		.ascii	"k\000"
 4794 10a1 01       		.byte	0x1
 4795 10a2 9D01     		.2byte	0x19d
 4796 10a4 E7000000 		.4byte	0xe7
 4797 10a8 02       		.uleb128 0x2
 4798 10a9 91       		.byte	0x91
 4799 10aa 73       		.sleb128 -13
 4800 10ab 00       		.byte	0
 4801 10ac 26       		.uleb128 0x26
 4802 10ad 210A0000 		.4byte	.LASF248
 4803 10b1 01       		.byte	0x1
 4804 10b2 A501     		.2byte	0x1a5
 4805 10b4 00000000 		.4byte	.LFB82
 4806 10b8 A8000000 		.4byte	.LFE82-.LFB82
 4807 10bc 01       		.uleb128 0x1
 4808 10bd 9C       		.byte	0x9c
 4809 10be E1100000 		.4byte	0x10e1
 4810 10c2 24       		.uleb128 0x24
 4811 10c3 63747800 		.ascii	"ctx\000"
 4812 10c7 01       		.byte	0x1
 4813 10c8 A501     		.2byte	0x1a5
 4814 10ca 8B0A0000 		.4byte	0xa8b
 4815 10ce 02       		.uleb128 0x2
 4816 10cf 91       		.byte	0x91
 4817 10d0 74       		.sleb128 -12
 4818 10d1 24       		.uleb128 0x24
 4819 10d2 6F757400 		.ascii	"out\000"
 4820 10d6 01       		.byte	0x1
 4821 10d7 A501     		.2byte	0x1a5
 4822 10d9 140D0000 		.4byte	0xd14
 4823 10dd 02       		.uleb128 0x2
 4824 10de 91       		.byte	0x91
 4825 10df 70       		.sleb128 -16
 4826 10e0 00       		.byte	0
 4827 10e1 26       		.uleb128 0x26
 4828 10e2 FF090000 		.4byte	.LASF249
 4829 10e6 01       		.byte	0x1
 4830 10e7 B301     		.2byte	0x1b3
 4831 10e9 00000000 		.4byte	.LFB83
 4832 10ed 1C000000 		.4byte	.LFE83-.LFB83
 4833 10f1 01       		.uleb128 0x1
 4834 10f2 9C       		.byte	0x9c
 4835 10f3 07110000 		.4byte	0x1107
 4836 10f7 24       		.uleb128 0x24
 4837 10f8 63747800 		.ascii	"ctx\000"
 4838 10fc 01       		.byte	0x1
 4839 10fd B301     		.2byte	0x1b3
 4840 10ff 240C0000 		.4byte	0xc24
 4841 1103 02       		.uleb128 0x2
 4842 1104 91       		.byte	0x91
 4843 1105 74       		.sleb128 -12
 4844 1106 00       		.byte	0
 4845 1107 26       		.uleb128 0x26
 4846 1108 220C0000 		.4byte	.LASF250
ARM GAS  C:\Users\yoons\AppData\Local\Temp\cczguO9p.s 			page 97


 4847 110c 01       		.byte	0x1
 4848 110d BD01     		.2byte	0x1bd
 4849 110f 00000000 		.4byte	.LFB84
 4850 1113 2C000000 		.4byte	.LFE84-.LFB84
 4851 1117 01       		.uleb128 0x1
 4852 1118 9C       		.byte	0x9c
 4853 1119 2D110000 		.4byte	0x112d
 4854 111d 24       		.uleb128 0x24
 4855 111e 63747800 		.ascii	"ctx\000"
 4856 1122 01       		.byte	0x1
 4857 1123 BD01     		.2byte	0x1bd
 4858 1125 240C0000 		.4byte	0xc24
 4859 1129 02       		.uleb128 0x2
 4860 112a 91       		.byte	0x91
 4861 112b 74       		.sleb128 -12
 4862 112c 00       		.byte	0
 4863 112d 27       		.uleb128 0x27
 4864 112e B5060000 		.4byte	.LASF251
 4865 1132 01       		.byte	0x1
 4866 1133 C501     		.2byte	0x1c5
 4867 1135 A2000000 		.4byte	0xa2
 4868 1139 00000000 		.4byte	.LFB85
 4869 113d 28000000 		.4byte	.LFE85-.LFB85
 4870 1141 01       		.uleb128 0x1
 4871 1142 9C       		.byte	0x9c
 4872 1143 64110000 		.4byte	0x1164
 4873 1147 24       		.uleb128 0x24
 4874 1148 63747800 		.ascii	"ctx\000"
 4875 114c 01       		.byte	0x1
 4876 114d C501     		.2byte	0x1c5
 4877 114f 240C0000 		.4byte	0xc24
 4878 1153 02       		.uleb128 0x2
 4879 1154 91       		.byte	0x91
 4880 1155 74       		.sleb128 -12
 4881 1156 24       		.uleb128 0x24
 4882 1157 6B00     		.ascii	"k\000"
 4883 1159 01       		.byte	0x1
 4884 115a C501     		.2byte	0x1c5
 4885 115c E7000000 		.4byte	0xe7
 4886 1160 02       		.uleb128 0x2
 4887 1161 91       		.byte	0x91
 4888 1162 73       		.sleb128 -13
 4889 1163 00       		.byte	0
 4890 1164 26       		.uleb128 0x26
 4891 1165 B40A0000 		.4byte	.LASF252
 4892 1169 01       		.byte	0x1
 4893 116a CE01     		.2byte	0x1ce
 4894 116c 00000000 		.4byte	.LFB86
 4895 1170 20010000 		.4byte	.LFE86-.LFB86
 4896 1174 01       		.uleb128 0x1
 4897 1175 9C       		.byte	0x9c
 4898 1176 B7110000 		.4byte	0x11b7
 4899 117a 24       		.uleb128 0x24
 4900 117b 63747800 		.ascii	"ctx\000"
 4901 117f 01       		.byte	0x1
 4902 1180 CE01     		.2byte	0x1ce
 4903 1182 8B0A0000 		.4byte	0xa8b
ARM GAS  C:\Users\yoons\AppData\Local\Temp\cczguO9p.s 			page 98


 4904 1186 02       		.uleb128 0x2
 4905 1187 91       		.byte	0x91
 4906 1188 6C       		.sleb128 -20
 4907 1189 24       		.uleb128 0x24
 4908 118a 6F757400 		.ascii	"out\000"
 4909 118e 01       		.byte	0x1
 4910 118f CE01     		.2byte	0x1ce
 4911 1191 140D0000 		.4byte	0xd14
 4912 1195 02       		.uleb128 0x2
 4913 1196 91       		.byte	0x91
 4914 1197 68       		.sleb128 -24
 4915 1198 22       		.uleb128 0x22
 4916 1199 E8040000 		.4byte	.LASF253
 4917 119d 01       		.byte	0x1
 4918 119e D501     		.2byte	0x1d5
 4919 11a0 D9000000 		.4byte	0xd9
 4920 11a4 02       		.uleb128 0x2
 4921 11a5 91       		.byte	0x91
 4922 11a6 74       		.sleb128 -12
 4923 11a7 22       		.uleb128 0x22
 4924 11a8 C90D0000 		.4byte	.LASF254
 4925 11ac 01       		.byte	0x1
 4926 11ad D601     		.2byte	0x1d6
 4927 11af D9000000 		.4byte	0xd9
 4928 11b3 02       		.uleb128 0x2
 4929 11b4 91       		.byte	0x91
 4930 11b5 70       		.sleb128 -16
 4931 11b6 00       		.byte	0
 4932 11b7 26       		.uleb128 0x26
 4933 11b8 80000000 		.4byte	.LASF255
 4934 11bc 01       		.byte	0x1
 4935 11bd DF01     		.2byte	0x1df
 4936 11bf 00000000 		.4byte	.LFB87
 4937 11c3 1C000000 		.4byte	.LFE87-.LFB87
 4938 11c7 01       		.uleb128 0x1
 4939 11c8 9C       		.byte	0x9c
 4940 11c9 DD110000 		.4byte	0x11dd
 4941 11cd 24       		.uleb128 0x24
 4942 11ce 63747800 		.ascii	"ctx\000"
 4943 11d2 01       		.byte	0x1
 4944 11d3 DF01     		.2byte	0x1df
 4945 11d5 240C0000 		.4byte	0xc24
 4946 11d9 02       		.uleb128 0x2
 4947 11da 91       		.byte	0x91
 4948 11db 74       		.sleb128 -12
 4949 11dc 00       		.byte	0
 4950 11dd 27       		.uleb128 0x27
 4951 11de AA070000 		.4byte	.LASF256
 4952 11e2 01       		.byte	0x1
 4953 11e3 E801     		.2byte	0x1e8
 4954 11e5 A2000000 		.4byte	0xa2
 4955 11e9 00000000 		.4byte	.LFB88
 4956 11ed 3C000000 		.4byte	.LFE88-.LFB88
 4957 11f1 01       		.uleb128 0x1
 4958 11f2 9C       		.byte	0x9c
 4959 11f3 14120000 		.4byte	0x1214
 4960 11f7 24       		.uleb128 0x24
ARM GAS  C:\Users\yoons\AppData\Local\Temp\cczguO9p.s 			page 99


 4961 11f8 63747800 		.ascii	"ctx\000"
 4962 11fc 01       		.byte	0x1
 4963 11fd E801     		.2byte	0x1e8
 4964 11ff 240C0000 		.4byte	0xc24
 4965 1203 02       		.uleb128 0x2
 4966 1204 91       		.byte	0x91
 4967 1205 74       		.sleb128 -12
 4968 1206 24       		.uleb128 0x24
 4969 1207 6B00     		.ascii	"k\000"
 4970 1209 01       		.byte	0x1
 4971 120a E801     		.2byte	0x1e8
 4972 120c E7000000 		.4byte	0xe7
 4973 1210 02       		.uleb128 0x2
 4974 1211 91       		.byte	0x91
 4975 1212 73       		.sleb128 -13
 4976 1213 00       		.byte	0
 4977 1214 26       		.uleb128 0x26
 4978 1215 29070000 		.4byte	.LASF257
 4979 1219 01       		.byte	0x1
 4980 121a F401     		.2byte	0x1f4
 4981 121c 00000000 		.4byte	.LFB89
 4982 1220 1C000000 		.4byte	.LFE89-.LFB89
 4983 1224 01       		.uleb128 0x1
 4984 1225 9C       		.byte	0x9c
 4985 1226 3A120000 		.4byte	0x123a
 4986 122a 24       		.uleb128 0x24
 4987 122b 63747800 		.ascii	"ctx\000"
 4988 122f 01       		.byte	0x1
 4989 1230 F401     		.2byte	0x1f4
 4990 1232 240C0000 		.4byte	0xc24
 4991 1236 02       		.uleb128 0x2
 4992 1237 91       		.byte	0x91
 4993 1238 74       		.sleb128 -12
 4994 1239 00       		.byte	0
 4995 123a 27       		.uleb128 0x27
 4996 123b 20080000 		.4byte	.LASF258
 4997 123f 01       		.byte	0x1
 4998 1240 FA01     		.2byte	0x1fa
 4999 1242 A2000000 		.4byte	0xa2
 5000 1246 00000000 		.4byte	.LFB90
 5001 124a 3C000000 		.4byte	.LFE90-.LFB90
 5002 124e 01       		.uleb128 0x1
 5003 124f 9C       		.byte	0x9c
 5004 1250 71120000 		.4byte	0x1271
 5005 1254 24       		.uleb128 0x24
 5006 1255 63747800 		.ascii	"ctx\000"
 5007 1259 01       		.byte	0x1
 5008 125a FA01     		.2byte	0x1fa
 5009 125c 240C0000 		.4byte	0xc24
 5010 1260 02       		.uleb128 0x2
 5011 1261 91       		.byte	0x91
 5012 1262 74       		.sleb128 -12
 5013 1263 24       		.uleb128 0x24
 5014 1264 6B00     		.ascii	"k\000"
 5015 1266 01       		.byte	0x1
 5016 1267 FA01     		.2byte	0x1fa
 5017 1269 E7000000 		.4byte	0xe7
ARM GAS  C:\Users\yoons\AppData\Local\Temp\cczguO9p.s 			page 100


 5018 126d 02       		.uleb128 0x2
 5019 126e 91       		.byte	0x91
 5020 126f 73       		.sleb128 -13
 5021 1270 00       		.byte	0
 5022 1271 28       		.uleb128 0x28
 5023 1272 9D070000 		.4byte	.LASF259
 5024 1276 0B       		.byte	0xb
 5025 1277 1207     		.2byte	0x712
 5026 1279 7D120000 		.4byte	0x127d
 5027 127d 08       		.uleb128 0x8
 5028 127e C3000000 		.4byte	0xc3
 5029 1282 29       		.uleb128 0x29
 5030 1283 EC030000 		.4byte	.LASF260
 5031 1287 01       		.byte	0x1
 5032 1288 1C       		.byte	0x1c
 5033 1289 09010000 		.4byte	0x109
 5034 128d 00       		.byte	0
 5035              		.section	.debug_abbrev,"",%progbits
 5036              	.Ldebug_abbrev0:
 5037 0000 01       		.uleb128 0x1
 5038 0001 11       		.uleb128 0x11
 5039 0002 01       		.byte	0x1
 5040 0003 25       		.uleb128 0x25
 5041 0004 0E       		.uleb128 0xe
 5042 0005 13       		.uleb128 0x13
 5043 0006 0B       		.uleb128 0xb
 5044 0007 03       		.uleb128 0x3
 5045 0008 0E       		.uleb128 0xe
 5046 0009 1B       		.uleb128 0x1b
 5047 000a 0E       		.uleb128 0xe
 5048 000b 55       		.uleb128 0x55
 5049 000c 17       		.uleb128 0x17
 5050 000d 11       		.uleb128 0x11
 5051 000e 01       		.uleb128 0x1
 5052 000f 10       		.uleb128 0x10
 5053 0010 17       		.uleb128 0x17
 5054 0011 00       		.byte	0
 5055 0012 00       		.byte	0
 5056 0013 02       		.uleb128 0x2
 5057 0014 24       		.uleb128 0x24
 5058 0015 00       		.byte	0
 5059 0016 0B       		.uleb128 0xb
 5060 0017 0B       		.uleb128 0xb
 5061 0018 3E       		.uleb128 0x3e
 5062 0019 0B       		.uleb128 0xb
 5063 001a 03       		.uleb128 0x3
 5064 001b 0E       		.uleb128 0xe
 5065 001c 00       		.byte	0
 5066 001d 00       		.byte	0
 5067 001e 03       		.uleb128 0x3
 5068 001f 16       		.uleb128 0x16
 5069 0020 00       		.byte	0
 5070 0021 03       		.uleb128 0x3
 5071 0022 0E       		.uleb128 0xe
 5072 0023 3A       		.uleb128 0x3a
 5073 0024 0B       		.uleb128 0xb
 5074 0025 3B       		.uleb128 0x3b
ARM GAS  C:\Users\yoons\AppData\Local\Temp\cczguO9p.s 			page 101


 5075 0026 0B       		.uleb128 0xb
 5076 0027 49       		.uleb128 0x49
 5077 0028 13       		.uleb128 0x13
 5078 0029 00       		.byte	0
 5079 002a 00       		.byte	0
 5080 002b 04       		.uleb128 0x4
 5081 002c 24       		.uleb128 0x24
 5082 002d 00       		.byte	0
 5083 002e 0B       		.uleb128 0xb
 5084 002f 0B       		.uleb128 0xb
 5085 0030 3E       		.uleb128 0x3e
 5086 0031 0B       		.uleb128 0xb
 5087 0032 03       		.uleb128 0x3
 5088 0033 08       		.uleb128 0x8
 5089 0034 00       		.byte	0
 5090 0035 00       		.byte	0
 5091 0036 05       		.uleb128 0x5
 5092 0037 0F       		.uleb128 0xf
 5093 0038 00       		.byte	0
 5094 0039 0B       		.uleb128 0xb
 5095 003a 0B       		.uleb128 0xb
 5096 003b 00       		.byte	0
 5097 003c 00       		.byte	0
 5098 003d 06       		.uleb128 0x6
 5099 003e 0F       		.uleb128 0xf
 5100 003f 00       		.byte	0
 5101 0040 0B       		.uleb128 0xb
 5102 0041 0B       		.uleb128 0xb
 5103 0042 49       		.uleb128 0x49
 5104 0043 13       		.uleb128 0x13
 5105 0044 00       		.byte	0
 5106 0045 00       		.byte	0
 5107 0046 07       		.uleb128 0x7
 5108 0047 26       		.uleb128 0x26
 5109 0048 00       		.byte	0
 5110 0049 49       		.uleb128 0x49
 5111 004a 13       		.uleb128 0x13
 5112 004b 00       		.byte	0
 5113 004c 00       		.byte	0
 5114 004d 08       		.uleb128 0x8
 5115 004e 35       		.uleb128 0x35
 5116 004f 00       		.byte	0
 5117 0050 49       		.uleb128 0x49
 5118 0051 13       		.uleb128 0x13
 5119 0052 00       		.byte	0
 5120 0053 00       		.byte	0
 5121 0054 09       		.uleb128 0x9
 5122 0055 04       		.uleb128 0x4
 5123 0056 01       		.byte	0x1
 5124 0057 0B       		.uleb128 0xb
 5125 0058 0B       		.uleb128 0xb
 5126 0059 49       		.uleb128 0x49
 5127 005a 13       		.uleb128 0x13
 5128 005b 3A       		.uleb128 0x3a
 5129 005c 0B       		.uleb128 0xb
 5130 005d 3B       		.uleb128 0x3b
 5131 005e 0B       		.uleb128 0xb
ARM GAS  C:\Users\yoons\AppData\Local\Temp\cczguO9p.s 			page 102


 5132 005f 01       		.uleb128 0x1
 5133 0060 13       		.uleb128 0x13
 5134 0061 00       		.byte	0
 5135 0062 00       		.byte	0
 5136 0063 0A       		.uleb128 0xa
 5137 0064 28       		.uleb128 0x28
 5138 0065 00       		.byte	0
 5139 0066 03       		.uleb128 0x3
 5140 0067 0E       		.uleb128 0xe
 5141 0068 1C       		.uleb128 0x1c
 5142 0069 0B       		.uleb128 0xb
 5143 006a 00       		.byte	0
 5144 006b 00       		.byte	0
 5145 006c 0B       		.uleb128 0xb
 5146 006d 13       		.uleb128 0x13
 5147 006e 01       		.byte	0x1
 5148 006f 0B       		.uleb128 0xb
 5149 0070 0B       		.uleb128 0xb
 5150 0071 3A       		.uleb128 0x3a
 5151 0072 0B       		.uleb128 0xb
 5152 0073 3B       		.uleb128 0x3b
 5153 0074 0B       		.uleb128 0xb
 5154 0075 01       		.uleb128 0x1
 5155 0076 13       		.uleb128 0x13
 5156 0077 00       		.byte	0
 5157 0078 00       		.byte	0
 5158 0079 0C       		.uleb128 0xc
 5159 007a 0D       		.uleb128 0xd
 5160 007b 00       		.byte	0
 5161 007c 03       		.uleb128 0x3
 5162 007d 08       		.uleb128 0x8
 5163 007e 3A       		.uleb128 0x3a
 5164 007f 0B       		.uleb128 0xb
 5165 0080 3B       		.uleb128 0x3b
 5166 0081 0B       		.uleb128 0xb
 5167 0082 49       		.uleb128 0x49
 5168 0083 13       		.uleb128 0x13
 5169 0084 38       		.uleb128 0x38
 5170 0085 0B       		.uleb128 0xb
 5171 0086 00       		.byte	0
 5172 0087 00       		.byte	0
 5173 0088 0D       		.uleb128 0xd
 5174 0089 0D       		.uleb128 0xd
 5175 008a 00       		.byte	0
 5176 008b 03       		.uleb128 0x3
 5177 008c 0E       		.uleb128 0xe
 5178 008d 3A       		.uleb128 0x3a
 5179 008e 0B       		.uleb128 0xb
 5180 008f 3B       		.uleb128 0x3b
 5181 0090 0B       		.uleb128 0xb
 5182 0091 49       		.uleb128 0x49
 5183 0092 13       		.uleb128 0x13
 5184 0093 38       		.uleb128 0x38
 5185 0094 0B       		.uleb128 0xb
 5186 0095 00       		.byte	0
 5187 0096 00       		.byte	0
 5188 0097 0E       		.uleb128 0xe
ARM GAS  C:\Users\yoons\AppData\Local\Temp\cczguO9p.s 			page 103


 5189 0098 15       		.uleb128 0x15
 5190 0099 01       		.byte	0x1
 5191 009a 27       		.uleb128 0x27
 5192 009b 19       		.uleb128 0x19
 5193 009c 01       		.uleb128 0x1
 5194 009d 13       		.uleb128 0x13
 5195 009e 00       		.byte	0
 5196 009f 00       		.byte	0
 5197 00a0 0F       		.uleb128 0xf
 5198 00a1 05       		.uleb128 0x5
 5199 00a2 00       		.byte	0
 5200 00a3 49       		.uleb128 0x49
 5201 00a4 13       		.uleb128 0x13
 5202 00a5 00       		.byte	0
 5203 00a6 00       		.byte	0
 5204 00a7 10       		.uleb128 0x10
 5205 00a8 15       		.uleb128 0x15
 5206 00a9 01       		.byte	0x1
 5207 00aa 27       		.uleb128 0x27
 5208 00ab 19       		.uleb128 0x19
 5209 00ac 49       		.uleb128 0x49
 5210 00ad 13       		.uleb128 0x13
 5211 00ae 01       		.uleb128 0x1
 5212 00af 13       		.uleb128 0x13
 5213 00b0 00       		.byte	0
 5214 00b1 00       		.byte	0
 5215 00b2 11       		.uleb128 0x11
 5216 00b3 13       		.uleb128 0x13
 5217 00b4 01       		.byte	0x1
 5218 00b5 0B       		.uleb128 0xb
 5219 00b6 05       		.uleb128 0x5
 5220 00b7 3A       		.uleb128 0x3a
 5221 00b8 0B       		.uleb128 0xb
 5222 00b9 3B       		.uleb128 0x3b
 5223 00ba 0B       		.uleb128 0xb
 5224 00bb 01       		.uleb128 0x1
 5225 00bc 13       		.uleb128 0x13
 5226 00bd 00       		.byte	0
 5227 00be 00       		.byte	0
 5228 00bf 12       		.uleb128 0x12
 5229 00c0 0D       		.uleb128 0xd
 5230 00c1 00       		.byte	0
 5231 00c2 03       		.uleb128 0x3
 5232 00c3 0E       		.uleb128 0xe
 5233 00c4 3A       		.uleb128 0x3a
 5234 00c5 0B       		.uleb128 0xb
 5235 00c6 3B       		.uleb128 0x3b
 5236 00c7 0B       		.uleb128 0xb
 5237 00c8 49       		.uleb128 0x49
 5238 00c9 13       		.uleb128 0x13
 5239 00ca 38       		.uleb128 0x38
 5240 00cb 05       		.uleb128 0x5
 5241 00cc 00       		.byte	0
 5242 00cd 00       		.byte	0
 5243 00ce 13       		.uleb128 0x13
 5244 00cf 01       		.uleb128 0x1
 5245 00d0 01       		.byte	0x1
ARM GAS  C:\Users\yoons\AppData\Local\Temp\cczguO9p.s 			page 104


 5246 00d1 49       		.uleb128 0x49
 5247 00d2 13       		.uleb128 0x13
 5248 00d3 01       		.uleb128 0x1
 5249 00d4 13       		.uleb128 0x13
 5250 00d5 00       		.byte	0
 5251 00d6 00       		.byte	0
 5252 00d7 14       		.uleb128 0x14
 5253 00d8 21       		.uleb128 0x21
 5254 00d9 00       		.byte	0
 5255 00da 49       		.uleb128 0x49
 5256 00db 13       		.uleb128 0x13
 5257 00dc 2F       		.uleb128 0x2f
 5258 00dd 0B       		.uleb128 0xb
 5259 00de 00       		.byte	0
 5260 00df 00       		.byte	0
 5261 00e0 15       		.uleb128 0x15
 5262 00e1 2E       		.uleb128 0x2e
 5263 00e2 01       		.byte	0x1
 5264 00e3 3F       		.uleb128 0x3f
 5265 00e4 19       		.uleb128 0x19
 5266 00e5 03       		.uleb128 0x3
 5267 00e6 0E       		.uleb128 0xe
 5268 00e7 3A       		.uleb128 0x3a
 5269 00e8 0B       		.uleb128 0xb
 5270 00e9 3B       		.uleb128 0x3b
 5271 00ea 0B       		.uleb128 0xb
 5272 00eb 27       		.uleb128 0x27
 5273 00ec 19       		.uleb128 0x19
 5274 00ed 49       		.uleb128 0x49
 5275 00ee 13       		.uleb128 0x13
 5276 00ef 11       		.uleb128 0x11
 5277 00f0 01       		.uleb128 0x1
 5278 00f1 12       		.uleb128 0x12
 5279 00f2 06       		.uleb128 0x6
 5280 00f3 40       		.uleb128 0x40
 5281 00f4 18       		.uleb128 0x18
 5282 00f5 9642     		.uleb128 0x2116
 5283 00f7 19       		.uleb128 0x19
 5284 00f8 01       		.uleb128 0x1
 5285 00f9 13       		.uleb128 0x13
 5286 00fa 00       		.byte	0
 5287 00fb 00       		.byte	0
 5288 00fc 16       		.uleb128 0x16
 5289 00fd 05       		.uleb128 0x5
 5290 00fe 00       		.byte	0
 5291 00ff 03       		.uleb128 0x3
 5292 0100 08       		.uleb128 0x8
 5293 0101 3A       		.uleb128 0x3a
 5294 0102 0B       		.uleb128 0xb
 5295 0103 3B       		.uleb128 0x3b
 5296 0104 0B       		.uleb128 0xb
 5297 0105 49       		.uleb128 0x49
 5298 0106 13       		.uleb128 0x13
 5299 0107 02       		.uleb128 0x2
 5300 0108 18       		.uleb128 0x18
 5301 0109 00       		.byte	0
 5302 010a 00       		.byte	0
ARM GAS  C:\Users\yoons\AppData\Local\Temp\cczguO9p.s 			page 105


 5303 010b 17       		.uleb128 0x17
 5304 010c 34       		.uleb128 0x34
 5305 010d 00       		.byte	0
 5306 010e 03       		.uleb128 0x3
 5307 010f 08       		.uleb128 0x8
 5308 0110 3A       		.uleb128 0x3a
 5309 0111 0B       		.uleb128 0xb
 5310 0112 3B       		.uleb128 0x3b
 5311 0113 0B       		.uleb128 0xb
 5312 0114 49       		.uleb128 0x49
 5313 0115 13       		.uleb128 0x13
 5314 0116 02       		.uleb128 0x2
 5315 0117 18       		.uleb128 0x18
 5316 0118 00       		.byte	0
 5317 0119 00       		.byte	0
 5318 011a 18       		.uleb128 0x18
 5319 011b 2E       		.uleb128 0x2e
 5320 011c 01       		.byte	0x1
 5321 011d 3F       		.uleb128 0x3f
 5322 011e 19       		.uleb128 0x19
 5323 011f 03       		.uleb128 0x3
 5324 0120 0E       		.uleb128 0xe
 5325 0121 3A       		.uleb128 0x3a
 5326 0122 0B       		.uleb128 0xb
 5327 0123 3B       		.uleb128 0x3b
 5328 0124 0B       		.uleb128 0xb
 5329 0125 27       		.uleb128 0x27
 5330 0126 19       		.uleb128 0x19
 5331 0127 49       		.uleb128 0x49
 5332 0128 13       		.uleb128 0x13
 5333 0129 11       		.uleb128 0x11
 5334 012a 01       		.uleb128 0x1
 5335 012b 12       		.uleb128 0x12
 5336 012c 06       		.uleb128 0x6
 5337 012d 40       		.uleb128 0x40
 5338 012e 18       		.uleb128 0x18
 5339 012f 9742     		.uleb128 0x2117
 5340 0131 19       		.uleb128 0x19
 5341 0132 01       		.uleb128 0x1
 5342 0133 13       		.uleb128 0x13
 5343 0134 00       		.byte	0
 5344 0135 00       		.byte	0
 5345 0136 19       		.uleb128 0x19
 5346 0137 2E       		.uleb128 0x2e
 5347 0138 01       		.byte	0x1
 5348 0139 3F       		.uleb128 0x3f
 5349 013a 19       		.uleb128 0x19
 5350 013b 03       		.uleb128 0x3
 5351 013c 0E       		.uleb128 0xe
 5352 013d 3A       		.uleb128 0x3a
 5353 013e 0B       		.uleb128 0xb
 5354 013f 3B       		.uleb128 0x3b
 5355 0140 0B       		.uleb128 0xb
 5356 0141 27       		.uleb128 0x27
 5357 0142 19       		.uleb128 0x19
 5358 0143 11       		.uleb128 0x11
 5359 0144 01       		.uleb128 0x1
ARM GAS  C:\Users\yoons\AppData\Local\Temp\cczguO9p.s 			page 106


 5360 0145 12       		.uleb128 0x12
 5361 0146 06       		.uleb128 0x6
 5362 0147 40       		.uleb128 0x40
 5363 0148 18       		.uleb128 0x18
 5364 0149 9642     		.uleb128 0x2116
 5365 014b 19       		.uleb128 0x19
 5366 014c 01       		.uleb128 0x1
 5367 014d 13       		.uleb128 0x13
 5368 014e 00       		.byte	0
 5369 014f 00       		.byte	0
 5370 0150 1A       		.uleb128 0x1a
 5371 0151 0B       		.uleb128 0xb
 5372 0152 01       		.byte	0x1
 5373 0153 55       		.uleb128 0x55
 5374 0154 17       		.uleb128 0x17
 5375 0155 01       		.uleb128 0x1
 5376 0156 13       		.uleb128 0x13
 5377 0157 00       		.byte	0
 5378 0158 00       		.byte	0
 5379 0159 1B       		.uleb128 0x1b
 5380 015a 34       		.uleb128 0x34
 5381 015b 00       		.byte	0
 5382 015c 03       		.uleb128 0x3
 5383 015d 0E       		.uleb128 0xe
 5384 015e 3A       		.uleb128 0x3a
 5385 015f 0B       		.uleb128 0xb
 5386 0160 3B       		.uleb128 0x3b
 5387 0161 0B       		.uleb128 0xb
 5388 0162 49       		.uleb128 0x49
 5389 0163 13       		.uleb128 0x13
 5390 0164 02       		.uleb128 0x2
 5391 0165 18       		.uleb128 0x18
 5392 0166 00       		.byte	0
 5393 0167 00       		.byte	0
 5394 0168 1C       		.uleb128 0x1c
 5395 0169 0B       		.uleb128 0xb
 5396 016a 01       		.byte	0x1
 5397 016b 11       		.uleb128 0x11
 5398 016c 01       		.uleb128 0x1
 5399 016d 12       		.uleb128 0x12
 5400 016e 06       		.uleb128 0x6
 5401 016f 00       		.byte	0
 5402 0170 00       		.byte	0
 5403 0171 1D       		.uleb128 0x1d
 5404 0172 0B       		.uleb128 0xb
 5405 0173 01       		.byte	0x1
 5406 0174 11       		.uleb128 0x11
 5407 0175 01       		.uleb128 0x1
 5408 0176 12       		.uleb128 0x12
 5409 0177 06       		.uleb128 0x6
 5410 0178 01       		.uleb128 0x1
 5411 0179 13       		.uleb128 0x13
 5412 017a 00       		.byte	0
 5413 017b 00       		.byte	0
 5414 017c 1E       		.uleb128 0x1e
 5415 017d 0B       		.uleb128 0xb
 5416 017e 01       		.byte	0x1
ARM GAS  C:\Users\yoons\AppData\Local\Temp\cczguO9p.s 			page 107


 5417 017f 55       		.uleb128 0x55
 5418 0180 17       		.uleb128 0x17
 5419 0181 00       		.byte	0
 5420 0182 00       		.byte	0
 5421 0183 1F       		.uleb128 0x1f
 5422 0184 2E       		.uleb128 0x2e
 5423 0185 01       		.byte	0x1
 5424 0186 03       		.uleb128 0x3
 5425 0187 0E       		.uleb128 0xe
 5426 0188 3A       		.uleb128 0x3a
 5427 0189 0B       		.uleb128 0xb
 5428 018a 3B       		.uleb128 0x3b
 5429 018b 05       		.uleb128 0x5
 5430 018c 27       		.uleb128 0x27
 5431 018d 19       		.uleb128 0x19
 5432 018e 49       		.uleb128 0x49
 5433 018f 13       		.uleb128 0x13
 5434 0190 11       		.uleb128 0x11
 5435 0191 01       		.uleb128 0x1
 5436 0192 12       		.uleb128 0x12
 5437 0193 06       		.uleb128 0x6
 5438 0194 40       		.uleb128 0x40
 5439 0195 18       		.uleb128 0x18
 5440 0196 9642     		.uleb128 0x2116
 5441 0198 19       		.uleb128 0x19
 5442 0199 01       		.uleb128 0x1
 5443 019a 13       		.uleb128 0x13
 5444 019b 00       		.byte	0
 5445 019c 00       		.byte	0
 5446 019d 20       		.uleb128 0x20
 5447 019e 05       		.uleb128 0x5
 5448 019f 00       		.byte	0
 5449 01a0 03       		.uleb128 0x3
 5450 01a1 0E       		.uleb128 0xe
 5451 01a2 3A       		.uleb128 0x3a
 5452 01a3 0B       		.uleb128 0xb
 5453 01a4 3B       		.uleb128 0x3b
 5454 01a5 05       		.uleb128 0x5
 5455 01a6 49       		.uleb128 0x49
 5456 01a7 13       		.uleb128 0x13
 5457 01a8 02       		.uleb128 0x2
 5458 01a9 18       		.uleb128 0x18
 5459 01aa 00       		.byte	0
 5460 01ab 00       		.byte	0
 5461 01ac 21       		.uleb128 0x21
 5462 01ad 34       		.uleb128 0x34
 5463 01ae 00       		.byte	0
 5464 01af 03       		.uleb128 0x3
 5465 01b0 08       		.uleb128 0x8
 5466 01b1 3A       		.uleb128 0x3a
 5467 01b2 0B       		.uleb128 0xb
 5468 01b3 3B       		.uleb128 0x3b
 5469 01b4 05       		.uleb128 0x5
 5470 01b5 49       		.uleb128 0x49
 5471 01b6 13       		.uleb128 0x13
 5472 01b7 02       		.uleb128 0x2
 5473 01b8 18       		.uleb128 0x18
ARM GAS  C:\Users\yoons\AppData\Local\Temp\cczguO9p.s 			page 108


 5474 01b9 00       		.byte	0
 5475 01ba 00       		.byte	0
 5476 01bb 22       		.uleb128 0x22
 5477 01bc 34       		.uleb128 0x34
 5478 01bd 00       		.byte	0
 5479 01be 03       		.uleb128 0x3
 5480 01bf 0E       		.uleb128 0xe
 5481 01c0 3A       		.uleb128 0x3a
 5482 01c1 0B       		.uleb128 0xb
 5483 01c2 3B       		.uleb128 0x3b
 5484 01c3 05       		.uleb128 0x5
 5485 01c4 49       		.uleb128 0x49
 5486 01c5 13       		.uleb128 0x13
 5487 01c6 02       		.uleb128 0x2
 5488 01c7 18       		.uleb128 0x18
 5489 01c8 00       		.byte	0
 5490 01c9 00       		.byte	0
 5491 01ca 23       		.uleb128 0x23
 5492 01cb 2E       		.uleb128 0x2e
 5493 01cc 01       		.byte	0x1
 5494 01cd 03       		.uleb128 0x3
 5495 01ce 0E       		.uleb128 0xe
 5496 01cf 3A       		.uleb128 0x3a
 5497 01d0 0B       		.uleb128 0xb
 5498 01d1 3B       		.uleb128 0x3b
 5499 01d2 05       		.uleb128 0x5
 5500 01d3 27       		.uleb128 0x27
 5501 01d4 19       		.uleb128 0x19
 5502 01d5 11       		.uleb128 0x11
 5503 01d6 01       		.uleb128 0x1
 5504 01d7 12       		.uleb128 0x12
 5505 01d8 06       		.uleb128 0x6
 5506 01d9 40       		.uleb128 0x40
 5507 01da 18       		.uleb128 0x18
 5508 01db 9742     		.uleb128 0x2117
 5509 01dd 19       		.uleb128 0x19
 5510 01de 01       		.uleb128 0x1
 5511 01df 13       		.uleb128 0x13
 5512 01e0 00       		.byte	0
 5513 01e1 00       		.byte	0
 5514 01e2 24       		.uleb128 0x24
 5515 01e3 05       		.uleb128 0x5
 5516 01e4 00       		.byte	0
 5517 01e5 03       		.uleb128 0x3
 5518 01e6 08       		.uleb128 0x8
 5519 01e7 3A       		.uleb128 0x3a
 5520 01e8 0B       		.uleb128 0xb
 5521 01e9 3B       		.uleb128 0x3b
 5522 01ea 05       		.uleb128 0x5
 5523 01eb 49       		.uleb128 0x49
 5524 01ec 13       		.uleb128 0x13
 5525 01ed 02       		.uleb128 0x2
 5526 01ee 18       		.uleb128 0x18
 5527 01ef 00       		.byte	0
 5528 01f0 00       		.byte	0
 5529 01f1 25       		.uleb128 0x25
 5530 01f2 2E       		.uleb128 0x2e
ARM GAS  C:\Users\yoons\AppData\Local\Temp\cczguO9p.s 			page 109


 5531 01f3 01       		.byte	0x1
 5532 01f4 03       		.uleb128 0x3
 5533 01f5 0E       		.uleb128 0xe
 5534 01f6 3A       		.uleb128 0x3a
 5535 01f7 0B       		.uleb128 0xb
 5536 01f8 3B       		.uleb128 0x3b
 5537 01f9 05       		.uleb128 0x5
 5538 01fa 27       		.uleb128 0x27
 5539 01fb 19       		.uleb128 0x19
 5540 01fc 11       		.uleb128 0x11
 5541 01fd 01       		.uleb128 0x1
 5542 01fe 12       		.uleb128 0x12
 5543 01ff 06       		.uleb128 0x6
 5544 0200 40       		.uleb128 0x40
 5545 0201 18       		.uleb128 0x18
 5546 0202 9642     		.uleb128 0x2116
 5547 0204 19       		.uleb128 0x19
 5548 0205 01       		.uleb128 0x1
 5549 0206 13       		.uleb128 0x13
 5550 0207 00       		.byte	0
 5551 0208 00       		.byte	0
 5552 0209 26       		.uleb128 0x26
 5553 020a 2E       		.uleb128 0x2e
 5554 020b 01       		.byte	0x1
 5555 020c 3F       		.uleb128 0x3f
 5556 020d 19       		.uleb128 0x19
 5557 020e 03       		.uleb128 0x3
 5558 020f 0E       		.uleb128 0xe
 5559 0210 3A       		.uleb128 0x3a
 5560 0211 0B       		.uleb128 0xb
 5561 0212 3B       		.uleb128 0x3b
 5562 0213 05       		.uleb128 0x5
 5563 0214 27       		.uleb128 0x27
 5564 0215 19       		.uleb128 0x19
 5565 0216 11       		.uleb128 0x11
 5566 0217 01       		.uleb128 0x1
 5567 0218 12       		.uleb128 0x12
 5568 0219 06       		.uleb128 0x6
 5569 021a 40       		.uleb128 0x40
 5570 021b 18       		.uleb128 0x18
 5571 021c 9642     		.uleb128 0x2116
 5572 021e 19       		.uleb128 0x19
 5573 021f 01       		.uleb128 0x1
 5574 0220 13       		.uleb128 0x13
 5575 0221 00       		.byte	0
 5576 0222 00       		.byte	0
 5577 0223 27       		.uleb128 0x27
 5578 0224 2E       		.uleb128 0x2e
 5579 0225 01       		.byte	0x1
 5580 0226 3F       		.uleb128 0x3f
 5581 0227 19       		.uleb128 0x19
 5582 0228 03       		.uleb128 0x3
 5583 0229 0E       		.uleb128 0xe
 5584 022a 3A       		.uleb128 0x3a
 5585 022b 0B       		.uleb128 0xb
 5586 022c 3B       		.uleb128 0x3b
 5587 022d 05       		.uleb128 0x5
ARM GAS  C:\Users\yoons\AppData\Local\Temp\cczguO9p.s 			page 110


 5588 022e 27       		.uleb128 0x27
 5589 022f 19       		.uleb128 0x19
 5590 0230 49       		.uleb128 0x49
 5591 0231 13       		.uleb128 0x13
 5592 0232 11       		.uleb128 0x11
 5593 0233 01       		.uleb128 0x1
 5594 0234 12       		.uleb128 0x12
 5595 0235 06       		.uleb128 0x6
 5596 0236 40       		.uleb128 0x40
 5597 0237 18       		.uleb128 0x18
 5598 0238 9642     		.uleb128 0x2116
 5599 023a 19       		.uleb128 0x19
 5600 023b 01       		.uleb128 0x1
 5601 023c 13       		.uleb128 0x13
 5602 023d 00       		.byte	0
 5603 023e 00       		.byte	0
 5604 023f 28       		.uleb128 0x28
 5605 0240 34       		.uleb128 0x34
 5606 0241 00       		.byte	0
 5607 0242 03       		.uleb128 0x3
 5608 0243 0E       		.uleb128 0xe
 5609 0244 3A       		.uleb128 0x3a
 5610 0245 0B       		.uleb128 0xb
 5611 0246 3B       		.uleb128 0x3b
 5612 0247 05       		.uleb128 0x5
 5613 0248 49       		.uleb128 0x49
 5614 0249 13       		.uleb128 0x13
 5615 024a 3F       		.uleb128 0x3f
 5616 024b 19       		.uleb128 0x19
 5617 024c 3C       		.uleb128 0x3c
 5618 024d 19       		.uleb128 0x19
 5619 024e 00       		.byte	0
 5620 024f 00       		.byte	0
 5621 0250 29       		.uleb128 0x29
 5622 0251 34       		.uleb128 0x34
 5623 0252 00       		.byte	0
 5624 0253 03       		.uleb128 0x3
 5625 0254 0E       		.uleb128 0xe
 5626 0255 3A       		.uleb128 0x3a
 5627 0256 0B       		.uleb128 0xb
 5628 0257 3B       		.uleb128 0x3b
 5629 0258 0B       		.uleb128 0xb
 5630 0259 49       		.uleb128 0x49
 5631 025a 13       		.uleb128 0x13
 5632 025b 3F       		.uleb128 0x3f
 5633 025c 19       		.uleb128 0x19
 5634 025d 3C       		.uleb128 0x3c
 5635 025e 19       		.uleb128 0x19
 5636 025f 00       		.byte	0
 5637 0260 00       		.byte	0
 5638 0261 00       		.byte	0
 5639              		.section	.debug_aranges,"",%progbits
 5640 0000 EC000000 		.4byte	0xec
 5641 0004 0200     		.2byte	0x2
 5642 0006 00000000 		.4byte	.Ldebug_info0
 5643 000a 04       		.byte	0x4
 5644 000b 00       		.byte	0
ARM GAS  C:\Users\yoons\AppData\Local\Temp\cczguO9p.s 			page 111


 5645 000c 0000     		.2byte	0
 5646 000e 0000     		.2byte	0
 5647 0010 00000000 		.4byte	.LFB64
 5648 0014 22000000 		.4byte	.LFE64-.LFB64
 5649 0018 00000000 		.4byte	.LFB65
 5650 001c 18000000 		.4byte	.LFE65-.LFB65
 5651 0020 00000000 		.4byte	.LFB66
 5652 0024 18000000 		.4byte	.LFE66-.LFB66
 5653 0028 00000000 		.4byte	.LFB67
 5654 002c 3C030000 		.4byte	.LFE67-.LFB67
 5655 0030 00000000 		.4byte	.LFB68
 5656 0034 9C000000 		.4byte	.LFE68-.LFB68
 5657 0038 00000000 		.4byte	.LFB69
 5658 003c 24000000 		.4byte	.LFE69-.LFB69
 5659 0040 00000000 		.4byte	.LFB70
 5660 0044 28000000 		.4byte	.LFE70-.LFB70
 5661 0048 00000000 		.4byte	.LFB71
 5662 004c 74000000 		.4byte	.LFE71-.LFB71
 5663 0050 00000000 		.4byte	.LFB72
 5664 0054 28000000 		.4byte	.LFE72-.LFB72
 5665 0058 00000000 		.4byte	.LFB73
 5666 005c 2A000000 		.4byte	.LFE73-.LFB73
 5667 0060 00000000 		.4byte	.LFB74
 5668 0064 F8000000 		.4byte	.LFE74-.LFB74
 5669 0068 00000000 		.4byte	.LFB75
 5670 006c 5C010000 		.4byte	.LFE75-.LFB75
 5671 0070 00000000 		.4byte	.LFB76
 5672 0074 3A000000 		.4byte	.LFE76-.LFB76
 5673 0078 00000000 		.4byte	.LFB77
 5674 007c E8000000 		.4byte	.LFE77-.LFB77
 5675 0080 00000000 		.4byte	.LFB78
 5676 0084 C8010000 		.4byte	.LFE78-.LFB78
 5677 0088 00000000 		.4byte	.LFB79
 5678 008c 48000000 		.4byte	.LFE79-.LFB79
 5679 0090 00000000 		.4byte	.LFB80
 5680 0094 38000000 		.4byte	.LFE80-.LFB80
 5681 0098 00000000 		.4byte	.LFB81
 5682 009c 28000000 		.4byte	.LFE81-.LFB81
 5683 00a0 00000000 		.4byte	.LFB82
 5684 00a4 A8000000 		.4byte	.LFE82-.LFB82
 5685 00a8 00000000 		.4byte	.LFB83
 5686 00ac 1C000000 		.4byte	.LFE83-.LFB83
 5687 00b0 00000000 		.4byte	.LFB84
 5688 00b4 2C000000 		.4byte	.LFE84-.LFB84
 5689 00b8 00000000 		.4byte	.LFB85
 5690 00bc 28000000 		.4byte	.LFE85-.LFB85
 5691 00c0 00000000 		.4byte	.LFB86
 5692 00c4 20010000 		.4byte	.LFE86-.LFB86
 5693 00c8 00000000 		.4byte	.LFB87
 5694 00cc 1C000000 		.4byte	.LFE87-.LFB87
 5695 00d0 00000000 		.4byte	.LFB88
 5696 00d4 3C000000 		.4byte	.LFE88-.LFB88
 5697 00d8 00000000 		.4byte	.LFB89
 5698 00dc 1C000000 		.4byte	.LFE89-.LFB89
 5699 00e0 00000000 		.4byte	.LFB90
 5700 00e4 3C000000 		.4byte	.LFE90-.LFB90
 5701 00e8 00000000 		.4byte	0
ARM GAS  C:\Users\yoons\AppData\Local\Temp\cczguO9p.s 			page 112


 5702 00ec 00000000 		.4byte	0
 5703              		.section	.debug_ranges,"",%progbits
 5704              	.Ldebug_ranges0:
 5705 0000 1A000000 		.4byte	.LBB2
 5706 0004 DE000000 		.4byte	.LBE2
 5707 0008 F8020000 		.4byte	.LBB11
 5708 000c FC020000 		.4byte	.LBE11
 5709 0010 00000000 		.4byte	0
 5710 0014 00000000 		.4byte	0
 5711 0018 E6000000 		.4byte	.LBB5
 5712 001c 4C010000 		.4byte	.LBE5
 5713 0020 FC020000 		.4byte	.LBB12
 5714 0024 00030000 		.4byte	.LBE12
 5715 0028 00000000 		.4byte	0
 5716 002c 00000000 		.4byte	0
 5717 0030 8E010000 		.4byte	.LBB7
 5718 0034 8C020000 		.4byte	.LBE7
 5719 0038 00030000 		.4byte	.LBB13
 5720 003c 04030000 		.4byte	.LBE13
 5721 0040 00000000 		.4byte	0
 5722 0044 00000000 		.4byte	0
 5723 0048 94020000 		.4byte	.LBB10
 5724 004c CC020000 		.4byte	.LBE10
 5725 0050 04030000 		.4byte	.LBB14
 5726 0054 08030000 		.4byte	.LBE14
 5727 0058 00000000 		.4byte	0
 5728 005c 00000000 		.4byte	0
 5729 0060 00000000 		.4byte	.LFB64
 5730 0064 22000000 		.4byte	.LFE64
 5731 0068 00000000 		.4byte	.LFB65
 5732 006c 18000000 		.4byte	.LFE65
 5733 0070 00000000 		.4byte	.LFB66
 5734 0074 18000000 		.4byte	.LFE66
 5735 0078 00000000 		.4byte	.LFB67
 5736 007c 3C030000 		.4byte	.LFE67
 5737 0080 00000000 		.4byte	.LFB68
 5738 0084 9C000000 		.4byte	.LFE68
 5739 0088 00000000 		.4byte	.LFB69
 5740 008c 24000000 		.4byte	.LFE69
 5741 0090 00000000 		.4byte	.LFB70
 5742 0094 28000000 		.4byte	.LFE70
 5743 0098 00000000 		.4byte	.LFB71
 5744 009c 74000000 		.4byte	.LFE71
 5745 00a0 00000000 		.4byte	.LFB72
 5746 00a4 28000000 		.4byte	.LFE72
 5747 00a8 00000000 		.4byte	.LFB73
 5748 00ac 2A000000 		.4byte	.LFE73
 5749 00b0 00000000 		.4byte	.LFB74
 5750 00b4 F8000000 		.4byte	.LFE74
 5751 00b8 00000000 		.4byte	.LFB75
 5752 00bc 5C010000 		.4byte	.LFE75
 5753 00c0 00000000 		.4byte	.LFB76
 5754 00c4 3A000000 		.4byte	.LFE76
 5755 00c8 00000000 		.4byte	.LFB77
 5756 00cc E8000000 		.4byte	.LFE77
 5757 00d0 00000000 		.4byte	.LFB78
 5758 00d4 C8010000 		.4byte	.LFE78
ARM GAS  C:\Users\yoons\AppData\Local\Temp\cczguO9p.s 			page 113


 5759 00d8 00000000 		.4byte	.LFB79
 5760 00dc 48000000 		.4byte	.LFE79
 5761 00e0 00000000 		.4byte	.LFB80
 5762 00e4 38000000 		.4byte	.LFE80
 5763 00e8 00000000 		.4byte	.LFB81
 5764 00ec 28000000 		.4byte	.LFE81
 5765 00f0 00000000 		.4byte	.LFB82
 5766 00f4 A8000000 		.4byte	.LFE82
 5767 00f8 00000000 		.4byte	.LFB83
 5768 00fc 1C000000 		.4byte	.LFE83
 5769 0100 00000000 		.4byte	.LFB84
 5770 0104 2C000000 		.4byte	.LFE84
 5771 0108 00000000 		.4byte	.LFB85
 5772 010c 28000000 		.4byte	.LFE85
 5773 0110 00000000 		.4byte	.LFB86
 5774 0114 20010000 		.4byte	.LFE86
 5775 0118 00000000 		.4byte	.LFB87
 5776 011c 1C000000 		.4byte	.LFE87
 5777 0120 00000000 		.4byte	.LFB88
 5778 0124 3C000000 		.4byte	.LFE88
 5779 0128 00000000 		.4byte	.LFB89
 5780 012c 1C000000 		.4byte	.LFE89
 5781 0130 00000000 		.4byte	.LFB90
 5782 0134 3C000000 		.4byte	.LFE90
 5783 0138 00000000 		.4byte	0
 5784 013c 00000000 		.4byte	0
 5785              		.section	.debug_line,"",%progbits
 5786              	.Ldebug_line0:
 5787 0000 08060000 		.section	.debug_str,"MS",%progbits,1
 5787      0200F101 
 5787      00000201 
 5787      FB0E0D00 
 5787      01010101 
 5788              	.LASF138:
 5789 0000 68616D66 		.ascii	"hamfly_gimbal_t\000"
 5789      6C795F67 
 5789      696D6261 
 5789      6C5F7400 
 5790              	.LASF47:
 5791 0010 67696D62 		.ascii	"gimbal_status1\000"
 5791      616C5F73 
 5791      74617475 
 5791      733100
 5792              	.LASF48:
 5793 001f 67696D62 		.ascii	"gimbal_status2\000"
 5793      616C5F73 
 5793      74617475 
 5793      733200
 5794              	.LASF108:
 5795 002e 73797365 		.ascii	"sysecho_valid\000"
 5795      63686F5F 
 5795      76616C69 
 5795      6400
 5796              	.LASF23:
 5797 003c 73697A65 		.ascii	"sizetype\000"
 5797      74797065 
 5797      00
ARM GAS  C:\Users\yoons\AppData\Local\Temp\cczguO9p.s 			page 114


 5798              	.LASF115:
 5799 0045 7461696C 		.ascii	"tail\000"
 5799      00
 5800              	.LASF231:
 5801 004a 6770735F 		.ascii	"gps_elev_deg\000"
 5801      656C6576 
 5801      5F646567 
 5801      00
 5802              	.LASF147:
 5803 0057 4155544F 		.ascii	"AUTO_HOME\000"
 5803      5F484F4D 
 5803      4500
 5804              	.LASF179:
 5805 0061 6770735F 		.ascii	"gps_new_target\000"
 5805      6E65775F 
 5805      74617267 
 5805      657400
 5806              	.LASF132:
 5807 0070 70656E64 		.ascii	"pending_sent_ms\000"
 5807      696E675F 
 5807      73656E74 
 5807      5F6D7300 
 5808              	.LASF255:
 5809 0080 656E7472 		.ascii	"entry_auto_loss\000"
 5809      795F6175 
 5809      746F5F6C 
 5809      6F737300 
 5810              	.LASF139:
 5811 0090 524F4F54 		.ascii	"ROOT\000"
 5811      00
 5812              	.LASF17:
 5813 0095 696E7433 		.ascii	"int32_t\000"
 5813      325F7400 
 5814              	.LASF186:
 5815 009d 6770735F 		.ascii	"gps_last_sample_ms\000"
 5815      6C617374 
 5815      5F73616D 
 5815      706C655F 
 5815      6D7300
 5816              	.LASF162:
 5817 00b0 6572725F 		.ascii	"err_sev_t\000"
 5817      7365765F 
 5817      7400
 5818              	.LASF72:
 5819 00ba 6174745F 		.ascii	"att_pitch_deg\000"
 5819      70697463 
 5819      685F6465 
 5819      6700
 5820              	.LASF133:
 5821 00c8 70656E64 		.ascii	"pending_ready\000"
 5821      696E675F 
 5821      72656164 
 5821      7900
 5822              	.LASF177:
 5823 00d6 6770735F 		.ascii	"gps_target_alt_mm\000"
 5823      74617267 
 5823      65745F61 
ARM GAS  C:\Users\yoons\AppData\Local\Temp\cczguO9p.s 			page 115


 5823      6C745F6D 
 5823      6D00
 5824              	.LASF36:
 5825 00e8 68616D66 		.ascii	"hamfly_control_t\000"
 5825      6C795F63 
 5825      6F6E7472 
 5825      6F6C5F74 
 5825      00
 5826              	.LASF85:
 5827 00f9 666C6167 		.ascii	"flag_gps_locked\000"
 5827      5F677073 
 5827      5F6C6F63 
 5827      6B656400 
 5828              	.LASF164:
 5829 0109 73746174 		.ascii	"state\000"
 5829      6500
 5830              	.LASF64:
 5831 010f 6770735F 		.ascii	"gps_raw_hacc\000"
 5831      7261775F 
 5831      68616363 
 5831      00
 5832              	.LASF49:
 5833 011c 6770735F 		.ascii	"gps_valid\000"
 5833      76616C69 
 5833      6400
 5834              	.LASF210:
 5835 0126 67756172 		.ascii	"guard_auto_parent\000"
 5835      645F6175 
 5835      746F5F70 
 5835      6172656E 
 5835      7400
 5836              	.LASF151:
 5837 0138 4155544F 		.ascii	"AUTO_TRACKING\000"
 5837      5F545241 
 5837      434B494E 
 5837      4700
 5838              	.LASF160:
 5839 0146 5345565F 		.ascii	"SEV_SOFTWARE\000"
 5839      534F4654 
 5839      57415245 
 5839      00
 5840              	.LASF96:
 5841 0153 73797373 		.ascii	"sysstat_batt_a\000"
 5841      7461745F 
 5841      62617474 
 5841      5F6100
 5842              	.LASF167:
 5843 0162 686F6D65 		.ascii	"home_return_stby\000"
 5843      5F726574 
 5843      75726E5F 
 5843      73746279 
 5843      00
 5844              	.LASF44:
 5845 0173 67696D62 		.ascii	"gimbal_i\000"
 5845      616C5F69 
 5845      00
 5846              	.LASF45:
ARM GAS  C:\Users\yoons\AppData\Local\Temp\cczguO9p.s 			page 116


 5847 017c 67696D62 		.ascii	"gimbal_j\000"
 5847      616C5F6A 
 5847      00
 5848              	.LASF2:
 5849 0185 5F5F7569 		.ascii	"__uint8_t\000"
 5849      6E74385F 
 5849      7400
 5850              	.LASF86:
 5851 018f 73797373 		.ascii	"sysstat_batt_v\000"
 5851      7461745F 
 5851      62617474 
 5851      5F7600
 5852              	.LASF43:
 5853 019e 67696D62 		.ascii	"gimbal_r\000"
 5853      616C5F72 
 5853      00
 5854              	.LASF239:
 5855 01a7 74616C74 		.ascii	"talt\000"
 5855      00
 5856              	.LASF119:
 5857 01ac 74785F62 		.ascii	"tx_bytes\000"
 5857      79746573 
 5857      00
 5858              	.LASF123:
 5859 01b5 72786275 		.ascii	"rxbuf_drops\000"
 5859      665F6472 
 5859      6F707300 
 5860              	.LASF51:
 5861 01c1 6770735F 		.ascii	"gps_lat_deg\000"
 5861      6C61745F 
 5861      64656700 
 5862              	.LASF8:
 5863 01cd 6C6F6E67 		.ascii	"long int\000"
 5863      20696E74 
 5863      00
 5864              	.LASF192:
 5865 01d6 6F726967 		.ascii	"origin_set\000"
 5865      696E5F73 
 5865      657400
 5866              	.LASF65:
 5867 01e1 6770735F 		.ascii	"gps_raw_vacc\000"
 5867      7261775F 
 5867      76616363 
 5867      00
 5868              	.LASF149:
 5869 01ee 4155544F 		.ascii	"AUTO_ACQ_GPS\000"
 5869      5F414351 
 5869      5F475053 
 5869      00
 5870              	.LASF212:
 5871 01fb 67756172 		.ascii	"guard_auto_acq_gps\000"
 5871      645F6175 
 5871      746F5F61 
 5871      63715F67 
 5871      707300
 5872              	.LASF136:
 5873 020e 70656E64 		.ascii	"pending_payload\000"
ARM GAS  C:\Users\yoons\AppData\Local\Temp\cczguO9p.s 			page 117


 5873      696E675F 
 5873      7061796C 
 5873      6F616400 
 5874              	.LASF97:
 5875 021e 73797373 		.ascii	"sysstat_charge_mah\000"
 5875      7461745F 
 5875      63686172 
 5875      67655F6D 
 5875      616800
 5876              	.LASF129:
 5877 0231 74786275 		.ascii	"txbuf\000"
 5877      6600
 5878              	.LASF46:
 5879 0237 67696D62 		.ascii	"gimbal_k\000"
 5879      616C5F6B 
 5879      00
 5880              	.LASF88:
 5881 0240 73797373 		.ascii	"sysstat_temp_c\000"
 5881      7461745F 
 5881      74656D70 
 5881      5F6300
 5882              	.LASF188:
 5883 024f 74726163 		.ascii	"track_cx_last\000"
 5883      6B5F6378 
 5883      5F6C6173 
 5883      7400
 5884              	.LASF114:
 5885 025d 68656164 		.ascii	"head\000"
 5885      00
 5886              	.LASF159:
 5887 0262 5345565F 		.ascii	"SEV_WARN\000"
 5887      5741524E 
 5887      00
 5888              	.LASF180:
 5889 026b 6770735F 		.ascii	"gps_work_lat_raw\000"
 5889      776F726B 
 5889      5F6C6174 
 5889      5F726177 
 5889      00
 5890              	.LASF53:
 5891 027c 6770735F 		.ascii	"gps_alt_m\000"
 5891      616C745F 
 5891      6D00
 5892              	.LASF182:
 5893 0286 6770735F 		.ascii	"gps_work_alt_mm\000"
 5893      776F726B 
 5893      5F616C74 
 5893      5F6D6D00 
 5894              	.LASF0:
 5895 0296 7369676E 		.ascii	"signed char\000"
 5895      65642063 
 5895      68617200 
 5896              	.LASF14:
 5897 02a2 75696E74 		.ascii	"uint8_t\000"
 5897      385F7400 
 5898              	.LASF233:
 5899 02aa 616C7432 		.ascii	"alt2_m\000"
ARM GAS  C:\Users\yoons\AppData\Local\Temp\cczguO9p.s 			page 118


 5899      5F6D00
 5900              	.LASF165:
 5901 02b1 70726576 		.ascii	"prev_leaf\000"
 5901      5F6C6561 
 5901      6600
 5902              	.LASF168:
 5903 02bb 6175746F 		.ascii	"auto_hold_entry_ms\000"
 5903      5F686F6C 
 5903      645F656E 
 5903      7472795F 
 5903      6D7300
 5904              	.LASF163:
 5905 02ce 67696D62 		.ascii	"gimbal\000"
 5905      616C00
 5906              	.LASF117:
 5907 02d5 68616D66 		.ascii	"hamfly_rb_t\000"
 5907      6C795F72 
 5907      625F7400 
 5908              	.LASF1:
 5909 02e1 756E7369 		.ascii	"unsigned char\000"
 5909      676E6564 
 5909      20636861 
 5909      7200
 5910              	.LASF153:
 5911 02ef 4155544F 		.ascii	"AUTO_NO_LOCK\000"
 5911      5F4E4F5F 
 5911      4C4F434B 
 5911      00
 5912              	.LASF120:
 5913 02fc 72785F70 		.ascii	"rx_packets\000"
 5913      61636B65 
 5913      747300
 5914              	.LASF199:
 5915 0307 6E756467 		.ascii	"nudge_base_pan_deg\000"
 5915      655F6261 
 5915      73655F70 
 5915      616E5F64 
 5915      656700
 5916              	.LASF145:
 5917 031a 53544259 		.ascii	"STBY_HOLD\000"
 5917      5F484F4C 
 5917      4400
 5918              	.LASF152:
 5919 0324 4155544F 		.ascii	"AUTO_LOSS\000"
 5919      5F4C4F53 
 5919      5300
 5920              	.LASF112:
 5921 032e 5F426F6F 		.ascii	"_Bool\000"
 5921      6C00
 5922              	.LASF25:
 5923 0334 48414D46 		.ascii	"HAMFLY_RATE\000"
 5923      4C595F52 
 5923      41544500 
 5924              	.LASF205:
 5925 0340 6170705F 		.ascii	"app_ctx_t\000"
 5925      6374785F 
 5925      7400
ARM GAS  C:\Users\yoons\AppData\Local\Temp\cczguO9p.s 			page 119


 5926              	.LASF240:
 5927 034a 6770735F 		.ascii	"gps_check_settle\000"
 5927      63686563 
 5927      6B5F7365 
 5927      74746C65 
 5927      00
 5928              	.LASF21:
 5929 035b 63686172 		.ascii	"char\000"
 5929      00
 5930              	.LASF71:
 5931 0360 6174745F 		.ascii	"att_timestamp_ms\000"
 5931      74696D65 
 5931      7374616D 
 5931      705F6D73 
 5931      00
 5932              	.LASF74:
 5933 0371 6174745F 		.ascii	"att_roll_deg\000"
 5933      726F6C6C 
 5933      5F646567 
 5933      00
 5934              	.LASF84:
 5935 037e 666C6167 		.ascii	"flag_radio_los\000"
 5935      5F726164 
 5935      696F5F6C 
 5935      6F7300
 5936              	.LASF225:
 5937 038d 6B65795F 		.ascii	"key_auto_hold\000"
 5937      6175746F 
 5937      5F686F6C 
 5937      6400
 5938              	.LASF5:
 5939 039b 5F5F7569 		.ascii	"__uint16_t\000"
 5939      6E743136 
 5939      5F7400
 5940              	.LASF102:
 5941 03a6 6D61675F 		.ascii	"mag_magnitude\000"
 5941      6D61676E 
 5941      69747564 
 5941      6500
 5942              	.LASF178:
 5943 03b4 6770735F 		.ascii	"gps_target_set\000"
 5943      74617267 
 5943      65745F73 
 5943      657400
 5944              	.LASF98:
 5945 03c3 6D61675F 		.ascii	"mag_valid\000"
 5945      76616C69 
 5945      6400
 5946              	.LASF222:
 5947 03cd 6B65795F 		.ascii	"key_auto_home\000"
 5947      6175746F 
 5947      5F686F6D 
 5947      6500
 5948              	.LASF184:
 5949 03db 6770735F 		.ascii	"gps_last_pan_deg\000"
 5949      6C617374 
 5949      5F70616E 
ARM GAS  C:\Users\yoons\AppData\Local\Temp\cczguO9p.s 			page 120


 5949      5F646567 
 5949      00
 5950              	.LASF260:
 5951 03ec 675F7469 		.ascii	"g_tick_ms\000"
 5951      636B5F6D 
 5951      7300
 5952              	.LASF42:
 5953 03f6 62617474 		.ascii	"battery_right_v\000"
 5953      6572795F 
 5953      72696768 
 5953      745F7600 
 5954              	.LASF213:
 5955 0406 656C6170 		.ascii	"elapsed\000"
 5955      73656400 
 5956              	.LASF83:
 5957 040e 666C6167 		.ascii	"flag_gps_los\000"
 5957      5F677073 
 5957      5F6C6F73 
 5957      00
 5958              	.LASF76:
 5959 041b 6174745F 		.ascii	"att_yaw_rate_dps\000"
 5959      7961775F 
 5959      72617465 
 5959      5F647073 
 5959      00
 5960              	.LASF125:
 5961 042c 68616D66 		.ascii	"hamfly_statistics_t\000"
 5961      6C795F73 
 5961      74617469 
 5961      73746963 
 5961      735F7400 
 5962              	.LASF54:
 5963 0440 6770735F 		.ascii	"gps_ground_spd_ms\000"
 5963      67726F75 
 5963      6E645F73 
 5963      70645F6D 
 5963      7300
 5964              	.LASF91:
 5965 0452 73797373 		.ascii	"sysstat_time_s\000"
 5965      7461745F 
 5965      74696D65 
 5965      5F7300
 5966              	.LASF122:
 5967 0461 72785F62 		.ascii	"rx_bad_checksum\000"
 5967      61645F63 
 5967      6865636B 
 5967      73756D00 
 5968              	.LASF57:
 5969 0471 6770735F 		.ascii	"gps_vacc_m\000"
 5969      76616363 
 5969      5F6D00
 5970              	.LASF62:
 5971 047c 6770735F 		.ascii	"gps_raw_spd\000"
 5971      7261775F 
 5971      73706400 
 5972              	.LASF124:
 5973 0488 75617274 		.ascii	"uart_err_flags\000"
ARM GAS  C:\Users\yoons\AppData\Local\Temp\cczguO9p.s 			page 121


 5973      5F657272 
 5973      5F666C61 
 5973      677300
 5974              	.LASF134:
 5975 0497 70656E64 		.ascii	"pending_response_attr\000"
 5975      696E675F 
 5975      72657370 
 5975      6F6E7365 
 5975      5F617474 
 5976              	.LASF87:
 5977 04ad 73797373 		.ascii	"sysstat_gps_sats\000"
 5977      7461745F 
 5977      6770735F 
 5977      73617473 
 5977      00
 5978              	.LASF70:
 5979 04be 6174745F 		.ascii	"att_valid\000"
 5979      76616C69 
 5979      6400
 5980              	.LASF191:
 5981 04c8 6F726967 		.ascii	"origin_tilt_deg\000"
 5981      696E5F74 
 5981      696C745F 
 5981      64656700 
 5982              	.LASF211:
 5983 04d8 67756172 		.ascii	"guard_auto_home\000"
 5983      645F6175 
 5983      746F5F68 
 5983      6F6D6500 
 5984              	.LASF253:
 5985 04e8 63785F6D 		.ascii	"cx_mrad\000"
 5985      72616400 
 5986              	.LASF158:
 5987 04f0 5345565F 		.ascii	"SEV_USER\000"
 5987      55534552 
 5987      00
 5988              	.LASF130:
 5989 04f9 67696D62 		.ascii	"gimbal_id\000"
 5989      616C5F69 
 5989      6400
 5990              	.LASF226:
 5991 0503 6C617431 		.ascii	"lat1\000"
 5991      00
 5992              	.LASF228:
 5993 0508 6C617432 		.ascii	"lat2\000"
 5993      00
 5994              	.LASF104:
 5995 050d 6D61675F 		.ascii	"mag_off_x\000"
 5995      6F66665F 
 5995      7800
 5996              	.LASF105:
 5997 0517 6D61675F 		.ascii	"mag_off_y\000"
 5997      6F66665F 
 5997      7900
 5998              	.LASF106:
 5999 0521 6D61675F 		.ascii	"mag_off_z\000"
 5999      6F66665F 
ARM GAS  C:\Users\yoons\AppData\Local\Temp\cczguO9p.s 			page 122


 5999      7A00
 6000              	.LASF193:
 6001 052b 6C617374 		.ascii	"last_tx_ms\000"
 6001      5F74785F 
 6001      6D7300
 6002              	.LASF58:
 6003 0536 6770735F 		.ascii	"gps_sacc_ms\000"
 6003      73616363 
 6003      5F6D7300 
 6004              	.LASF170:
 6005 0542 6572725F 		.ascii	"err_sev\000"
 6005      73657600 
 6006              	.LASF111:
 6007 054a 73797365 		.ascii	"sysecho_imu_rate\000"
 6007      63686F5F 
 6007      696D755F 
 6007      72617465 
 6007      00
 6008              	.LASF10:
 6009 055b 6C6F6E67 		.ascii	"long unsigned int\000"
 6009      20756E73 
 6009      69676E65 
 6009      6420696E 
 6009      7400
 6010              	.LASF56:
 6011 056d 6770735F 		.ascii	"gps_hacc_m\000"
 6011      68616363 
 6011      5F6D00
 6012              	.LASF92:
 6013 0578 73797373 		.ascii	"sysstat_pressure_mb\000"
 6013      7461745F 
 6013      70726573 
 6013      73757265 
 6013      5F6D6200 
 6014              	.LASF238:
 6015 058c 746C6F6E 		.ascii	"tlon\000"
 6015      00
 6016              	.LASF208:
 6017 0591 63796572 		.ascii	"cyerr\000"
 6017      7200
 6018              	.LASF113:
 6019 0597 68616D66 		.ascii	"hamfly_telemetry_t\000"
 6019      6C795F74 
 6019      656C656D 
 6019      65747279 
 6019      5F7400
 6020              	.LASF110:
 6021 05aa 73797365 		.ascii	"sysecho_pressure_mb\000"
 6021      63686F5F 
 6021      70726573 
 6021      73757265 
 6021      5F6D6200 
 6022              	.LASF143:
 6023 05be 4552524F 		.ascii	"ERROR\000"
 6023      5200
 6024              	.LASF59:
 6025 05c4 6770735F 		.ascii	"gps_raw_lat\000"
ARM GAS  C:\Users\yoons\AppData\Local\Temp\cczguO9p.s 			page 123


 6025      7261775F 
 6025      6C617400 
 6026              	.LASF37:
 6027 05d0 75617274 		.ascii	"uart_putc\000"
 6027      5F707574 
 6027      6300
 6028              	.LASF201:
 6029 05da 7467745F 		.ascii	"tgt_pan_deg\000"
 6029      70616E5F 
 6029      64656700 
 6030              	.LASF80:
 6031 05e6 6174745F 		.ascii	"att_yaw_err_deg\000"
 6031      7961775F 
 6031      6572725F 
 6031      64656700 
 6032              	.LASF95:
 6033 05f6 73797373 		.ascii	"sysstat_imu_latency\000"
 6033      7461745F 
 6033      696D755F 
 6033      6C617465 
 6033      6E637900 
 6034              	.LASF241:
 6035 060a 73706565 		.ascii	"speed_dps\000"
 6035      645F6470 
 6035      7300
 6036              	.LASF75:
 6037 0614 6174745F 		.ascii	"att_pitch_rate_dps\000"
 6037      70697463 
 6037      685F7261 
 6037      74655F64 
 6037      707300
 6038              	.LASF261:
 6039 0627 474E5520 		.ascii	"GNU C11 5.4.1 20160609 (release) [ARM/embedded-5-br"
 6039      43313120 
 6039      352E342E 
 6039      31203230 
 6039      31363036 
 6040 065a 616E6368 		.ascii	"anch revision 237715] -mcpu=cortex-m3 -mthumb -g -O"
 6040      20726576 
 6040      6973696F 
 6040      6E203233 
 6040      37373135 
 6041 068d 30202D66 		.ascii	"0 -ffunction-sections -ffat-lto-objects\000"
 6041      66756E63 
 6041      74696F6E 
 6041      2D736563 
 6041      74696F6E 
 6042              	.LASF251:
 6043 06b5 6B65795F 		.ascii	"key_auto_tracking\000"
 6043      6175746F 
 6043      5F747261 
 6043      636B696E 
 6043      6700
 6044              	.LASF128:
 6045 06c7 72786275 		.ascii	"rxbuf\000"
 6045      6600
 6046              	.LASF156:
ARM GAS  C:\Users\yoons\AppData\Local\Temp\cczguO9p.s 			page 124


 6047 06cd 53544154 		.ascii	"STATE_COUNT\000"
 6047      455F434F 
 6047      554E5400 
 6048              	.LASF9:
 6049 06d9 5F5F7569 		.ascii	"__uint32_t\000"
 6049      6E743332 
 6049      5F7400
 6050              	.LASF41:
 6051 06e4 62617474 		.ascii	"battery_left_v\000"
 6051      6572795F 
 6051      6C656674 
 6051      5F7600
 6052              	.LASF11:
 6053 06f3 6C6F6E67 		.ascii	"long long int\000"
 6053      206C6F6E 
 6053      6720696E 
 6053      7400
 6054              	.LASF28:
 6055 0701 68616D66 		.ascii	"hamfly_control_mode_t\000"
 6055      6C795F63 
 6055      6F6E7472 
 6055      6F6C5F6D 
 6055      6F64655F 
 6056              	.LASF79:
 6057 0717 6174745F 		.ascii	"att_pitch_err_deg\000"
 6057      70697463 
 6057      685F6572 
 6057      725F6465 
 6057      6700
 6058              	.LASF257:
 6059 0729 656E7472 		.ascii	"entry_auto_no_lock\000"
 6059      795F6175 
 6059      746F5F6E 
 6059      6F5F6C6F 
 6059      636B00
 6060              	.LASF55:
 6061 073c 6770735F 		.ascii	"gps_heading_deg\000"
 6061      68656164 
 6061      696E675F 
 6061      64656700 
 6062              	.LASF34:
 6063 074c 656E6162 		.ascii	"enable\000"
 6063      6C6500
 6064              	.LASF137:
 6065 0753 70656E64 		.ascii	"pending_payload_len\000"
 6065      696E675F 
 6065      7061796C 
 6065      6F61645F 
 6065      6C656E00 
 6066              	.LASF20:
 6067 0767 646F7562 		.ascii	"double\000"
 6067      6C6500
 6068              	.LASF172:
 6069 076e 66617461 		.ascii	"fatal_latched\000"
 6069      6C5F6C61 
 6069      74636865 
 6069      6400
ARM GAS  C:\Users\yoons\AppData\Local\Temp\cczguO9p.s 			page 125


 6070              	.LASF93:
 6071 077c 73797373 		.ascii	"sysstat_imu_rate\000"
 6071      7461745F 
 6071      696D755F 
 6071      72617465 
 6071      00
 6072              	.LASF230:
 6073 078d 6770735F 		.ascii	"gps_bearing_deg\000"
 6073      62656172 
 6073      696E675F 
 6073      64656700 
 6074              	.LASF259:
 6075 079d 49544D5F 		.ascii	"ITM_RxBuffer\000"
 6075      52784275 
 6075      66666572 
 6075      00
 6076              	.LASF256:
 6077 07aa 6B65795F 		.ascii	"key_auto_loss\000"
 6077      6175746F 
 6077      5F6C6F73 
 6077      7300
 6078              	.LASF121:
 6079 07b8 72785F62 		.ascii	"rx_bytes\000"
 6079      79746573 
 6079      00
 6080              	.LASF19:
 6081 07c1 666C6F61 		.ascii	"float\000"
 6081      7400
 6082              	.LASF262:
 6083 07c7 6170705F 		.ascii	"app_state_auto.c\000"
 6083      73746174 
 6083      655F6175 
 6083      746F2E63 
 6083      00
 6084              	.LASF242:
 6085 07d8 636D645F 		.ascii	"cmd_pan_deg\000"
 6085      70616E5F 
 6085      64656700 
 6086              	.LASF13:
 6087 07e4 756E7369 		.ascii	"unsigned int\000"
 6087      676E6564 
 6087      20696E74 
 6087      00
 6088              	.LASF243:
 6089 07f1 636D645F 		.ascii	"cmd_tilt_deg\000"
 6089      74696C74 
 6089      5F646567 
 6089      00
 6090              	.LASF235:
 6091 07fe 6770735F 		.ascii	"gps_start_slew\000"
 6091      73746172 
 6091      745F736C 
 6091      657700
 6092              	.LASF209:
 6093 080d 7061796C 		.ascii	"payload_centroid_t\000"
 6093      6F61645F 
 6093      63656E74 
ARM GAS  C:\Users\yoons\AppData\Local\Temp\cczguO9p.s 			page 126


 6093      726F6964 
 6093      5F7400
 6094              	.LASF258:
 6095 0820 6B65795F 		.ascii	"key_auto_no_lock\000"
 6095      6175746F 
 6095      5F6E6F5F 
 6095      6C6F636B 
 6095      00
 6096              	.LASF144:
 6097 0831 53544259 		.ascii	"STBY_DEFER\000"
 6097      5F444546 
 6097      455200
 6098              	.LASF33:
 6099 083c 726F6C6C 		.ascii	"roll_mode\000"
 6099      5F6D6F64 
 6099      6500
 6100              	.LASF245:
 6101 0846 656E7472 		.ascii	"entry_auto_acq_gps\000"
 6101      795F6175 
 6101      746F5F61 
 6101      63715F67 
 6101      707300
 6102              	.LASF61:
 6103 0859 6770735F 		.ascii	"gps_raw_alt\000"
 6103      7261775F 
 6103      616C7400 
 6104              	.LASF221:
 6105 0865 65786974 		.ascii	"exit_auto_home\000"
 6105      5F617574 
 6105      6F5F686F 
 6105      6D6500
 6106              	.LASF99:
 6107 0874 6D61675F 		.ascii	"mag_x\000"
 6107      7800
 6108              	.LASF100:
 6109 087a 6D61675F 		.ascii	"mag_y\000"
 6109      7900
 6110              	.LASF101:
 6111 0880 6D61675F 		.ascii	"mag_z\000"
 6111      7A00
 6112              	.LASF73:
 6113 0886 6174745F 		.ascii	"att_yaw_deg\000"
 6113      7961775F 
 6113      64656700 
 6114              	.LASF227:
 6115 0892 6C6F6E31 		.ascii	"lon1\000"
 6115      00
 6116              	.LASF229:
 6117 0897 6C6F6E32 		.ascii	"lon2\000"
 6117      00
 6118              	.LASF217:
 6119 089c 676F745F 		.ascii	"got_coarse\000"
 6119      636F6172 
 6119      736500
 6120              	.LASF26:
 6121 08a7 48414D46 		.ascii	"HAMFLY_ABSOLUTE\000"
 6121      4C595F41 
ARM GAS  C:\Users\yoons\AppData\Local\Temp\cczguO9p.s 			page 127


 6121      42534F4C 
 6121      55544500 
 6122              	.LASF234:
 6123 08b7 64697374 		.ascii	"dist_m\000"
 6123      5F6D00
 6124              	.LASF22:
 6125 08be 6C6F6E67 		.ascii	"long double\000"
 6125      20646F75 
 6125      626C6500 
 6126              	.LASF66:
 6127 08ca 6770735F 		.ascii	"gps_raw_sacc\000"
 6127      7261775F 
 6127      73616363 
 6127      00
 6128              	.LASF126:
 6129 08d7 74656C65 		.ascii	"telemetry\000"
 6129      6D657472 
 6129      7900
 6130              	.LASF198:
 6131 08e1 6E756467 		.ascii	"nudge_start_ms\000"
 6131      655F7374 
 6131      6172745F 
 6131      6D7300
 6132              	.LASF141:
 6133 08f0 4D414E55 		.ascii	"MANU\000"
 6133      00
 6134              	.LASF77:
 6135 08f5 6174745F 		.ascii	"att_roll_rate_dps\000"
 6135      726F6C6C 
 6135      5F726174 
 6135      655F6470 
 6135      7300
 6136              	.LASF39:
 6137 0907 68616D66 		.ascii	"hamfly_hal_t\000"
 6137      6C795F68 
 6137      616C5F74 
 6137      00
 6138              	.LASF150:
 6139 0914 4155544F 		.ascii	"AUTO_ACQ_SPIRAL\000"
 6139      5F414351 
 6139      5F535049 
 6139      52414C00 
 6140              	.LASF78:
 6141 0924 6174745F 		.ascii	"att_roll_err_deg\000"
 6141      726F6C6C 
 6141      5F657272 
 6141      5F646567 
 6141      00
 6142              	.LASF31:
 6143 0935 70616E5F 		.ascii	"pan_mode\000"
 6143      6D6F6465 
 6143      00
 6144              	.LASF219:
 6145 093e 6170705F 		.ascii	"app_auto_tick\000"
 6145      6175746F 
 6145      5F746963 
 6145      6B00
ARM GAS  C:\Users\yoons\AppData\Local\Temp\cczguO9p.s 			page 128


 6146              	.LASF175:
 6147 094c 6770735F 		.ascii	"gps_target_lat_raw\000"
 6147      74617267 
 6147      65745F6C 
 6147      61745F72 
 6147      617700
 6148              	.LASF12:
 6149 095f 6C6F6E67 		.ascii	"long long unsigned int\000"
 6149      206C6F6E 
 6149      6720756E 
 6149      7369676E 
 6149      65642069 
 6150              	.LASF27:
 6151 0976 48414D46 		.ascii	"HAMFLY_ABSOLUTE_MAJESTIC\000"
 6151      4C595F41 
 6151      42534F4C 
 6151      5554455F 
 6151      4D414A45 
 6152              	.LASF90:
 6153 098f 73797373 		.ascii	"sysstat_status_flags\000"
 6153      7461745F 
 6153      73746174 
 6153      75735F66 
 6153      6C616773 
 6154              	.LASF146:
 6155 09a4 4D414E55 		.ascii	"MANU_JOYSTICK\000"
 6155      5F4A4F59 
 6155      53544943 
 6155      4B00
 6156              	.LASF16:
 6157 09b2 75696E74 		.ascii	"uint16_t\000"
 6157      31365F74 
 6157      00
 6158              	.LASF171:
 6159 09bb 6572725F 		.ascii	"err_msg\000"
 6159      6D736700 
 6160              	.LASF232:
 6161 09c3 616C7431 		.ascii	"alt1_m\000"
 6161      5F6D00
 6162              	.LASF161:
 6163 09ca 5345565F 		.ascii	"SEV_FATAL\000"
 6163      46415441 
 6163      4C00
 6164              	.LASF247:
 6165 09d4 6B65795F 		.ascii	"key_auto_acq_gps\000"
 6165      6175746F 
 6165      5F616371 
 6165      5F677073 
 6165      00
 6166              	.LASF81:
 6167 09e5 73797373 		.ascii	"sysstat_valid\000"
 6167      7461745F 
 6167      76616C69 
 6167      6400
 6168              	.LASF69:
 6169 09f3 6261726F 		.ascii	"baro_roc_ms\000"
 6169      5F726F63 
ARM GAS  C:\Users\yoons\AppData\Local\Temp\cczguO9p.s 			page 129


 6169      5F6D7300 
 6170              	.LASF249:
 6171 09ff 656E7472 		.ascii	"entry_auto_acq_spiral\000"
 6171      795F6175 
 6171      746F5F61 
 6171      63715F73 
 6171      70697261 
 6172              	.LASF196:
 6173 0a15 64696167 		.ascii	"diag_active\000"
 6173      5F616374 
 6173      69766500 
 6174              	.LASF248:
 6175 0a21 6275696C 		.ascii	"build_auto_acq_gps\000"
 6175      645F6175 
 6175      746F5F61 
 6175      63715F67 
 6175      707300
 6176              	.LASF82:
 6177 0a34 666C6167 		.ascii	"flag_compass_error\000"
 6177      5F636F6D 
 6177      70617373 
 6177      5F657272 
 6177      6F7200
 6178              	.LASF29:
 6179 0a47 74696C74 		.ascii	"tilt\000"
 6179      00
 6180              	.LASF63:
 6181 0a4c 6770735F 		.ascii	"gps_raw_hdg\000"
 6181      7261775F 
 6181      68646700 
 6182              	.LASF3:
 6183 0a58 5F5F696E 		.ascii	"__int16_t\000"
 6183      7431365F 
 6183      7400
 6184              	.LASF135:
 6185 0a62 70656E64 		.ascii	"pending_response_len\000"
 6185      696E675F 
 6185      72657370 
 6185      6F6E7365 
 6185      5F6C656E 
 6186              	.LASF94:
 6187 0a77 73797373 		.ascii	"sysstat_cam_status\000"
 6187      7461745F 
 6187      63616D5F 
 6187      73746174 
 6187      757300
 6188              	.LASF220:
 6189 0a8a 656E7472 		.ascii	"entry_auto_home\000"
 6189      795F6175 
 6189      746F5F68 
 6189      6F6D6500 
 6190              	.LASF206:
 6191 0a9a 745F6D73 		.ascii	"t_ms\000"
 6191      00
 6192              	.LASF215:
 6193 0a9f 64657374 		.ascii	"dest\000"
 6193      00
ARM GAS  C:\Users\yoons\AppData\Local\Temp\cczguO9p.s 			page 130


 6194              	.LASF116:
 6195 0aa4 64726F70 		.ascii	"drops\000"
 6195      7300
 6196              	.LASF166:
 6197 0aaa 6175746F 		.ascii	"auto_flow\000"
 6197      5F666C6F 
 6197      7700
 6198              	.LASF252:
 6199 0ab4 6275696C 		.ascii	"build_auto_tracking\000"
 6199      645F6175 
 6199      746F5F74 
 6199      7261636B 
 6199      696E6700 
 6200              	.LASF218:
 6201 0ac8 6C617374 		.ascii	"last_c\000"
 6201      5F6300
 6202              	.LASF224:
 6203 0acf 656E7472 		.ascii	"entry_auto_hold\000"
 6203      795F6175 
 6203      746F5F68 
 6203      6F6C6400 
 6204              	.LASF185:
 6205 0adf 6770735F 		.ascii	"gps_last_tilt_deg\000"
 6205      6C617374 
 6205      5F74696C 
 6205      745F6465 
 6205      6700
 6206              	.LASF32:
 6207 0af1 74696C74 		.ascii	"tilt_mode\000"
 6207      5F6D6F64 
 6207      6500
 6208              	.LASF189:
 6209 0afb 74726163 		.ascii	"track_cy_last\000"
 6209      6B5F6379 
 6209      5F6C6173 
 6209      7400
 6210              	.LASF187:
 6211 0b09 74726163 		.ascii	"track_kp\000"
 6211      6B5F6B70 
 6211      00
 6212              	.LASF174:
 6213 0b12 6162735F 		.ascii	"abs_tilt_target\000"
 6213      74696C74 
 6213      5F746172 
 6213      67657400 
 6214              	.LASF190:
 6215 0b22 6F726967 		.ascii	"origin_pan_deg\000"
 6215      696E5F70 
 6215      616E5F64 
 6215      656700
 6216              	.LASF183:
 6217 0b31 6770735F 		.ascii	"gps_settled\000"
 6217      73657474 
 6217      6C656400 
 6218              	.LASF4:
 6219 0b3d 73686F72 		.ascii	"short int\000"
 6219      7420696E 
ARM GAS  C:\Users\yoons\AppData\Local\Temp\cczguO9p.s 			page 131


 6219      7400
 6220              	.LASF142:
 6221 0b47 4155544F 		.ascii	"AUTO\000"
 6221      00
 6222              	.LASF15:
 6223 0b4c 696E7431 		.ascii	"int16_t\000"
 6223      365F7400 
 6224              	.LASF176:
 6225 0b54 6770735F 		.ascii	"gps_target_lon_raw\000"
 6225      74617267 
 6225      65745F6C 
 6225      6F6E5F72 
 6225      617700
 6226              	.LASF50:
 6227 0b67 6770735F 		.ascii	"gps_locked\000"
 6227      6C6F636B 
 6227      656400
 6228              	.LASF107:
 6229 0b72 6D61675F 		.ascii	"mag_declination\000"
 6229      6465636C 
 6229      696E6174 
 6229      696F6E00 
 6230              	.LASF24:
 6231 0b82 48414D46 		.ascii	"HAMFLY_DEFER\000"
 6231      4C595F44 
 6231      45464552 
 6231      00
 6232              	.LASF263:
 6233 0b8f 433A5C55 		.ascii	"C:\\Users\\yoons\\Documents\\wprkspace-hamish\\PSoC"
 6233      73657273 
 6233      5C796F6F 
 6233      6E735C44 
 6233      6F63756D 
 6234 0bbd 2D50726F 		.ascii	"-Programs\\test_projects\\Proj08_DemoTxIntegration."
 6234      6772616D 
 6234      735C7465 
 6234      73745F70 
 6234      726F6A65 
 6235 0bee 63796473 		.ascii	"cydsn\000"
 6235      6E00
 6236              	.LASF127:
 6237 0bf4 73746174 		.ascii	"statistics\000"
 6237      69737469 
 6237      637300
 6238              	.LASF40:
 6239 0bff 76616C69 		.ascii	"valid\000"
 6239      6400
 6240              	.LASF67:
 6241 0c05 6261726F 		.ascii	"baro_valid\000"
 6241      5F76616C 
 6241      696400
 6242              	.LASF35:
 6243 0c10 6B696C6C 		.ascii	"kill\000"
 6243      00
 6244              	.LASF154:
 6245 0c15 4552524F 		.ascii	"ERROR_ACTIVE\000"
 6245      525F4143 
ARM GAS  C:\Users\yoons\AppData\Local\Temp\cczguO9p.s 			page 132


 6245      54495645 
 6245      00
 6246              	.LASF250:
 6247 0c22 656E7472 		.ascii	"entry_auto_tracking\000"
 6247      795F6175 
 6247      746F5F74 
 6247      7261636B 
 6247      696E6700 
 6248              	.LASF194:
 6249 0c36 6C617374 		.ascii	"last_diag_ms\000"
 6249      5F646961 
 6249      675F6D73 
 6249      00
 6250              	.LASF118:
 6251 0c43 74785F70 		.ascii	"tx_packets\000"
 6251      61636B65 
 6251      747300
 6252              	.LASF202:
 6253 0c4e 7467745F 		.ascii	"tgt_tilt_deg\000"
 6253      74696C74 
 6253      5F646567 
 6253      00
 6254              	.LASF246:
 6255 0c5b 65786974 		.ascii	"exit_auto_acq_gps\000"
 6255      5F617574 
 6255      6F5F6163 
 6255      715F6770 
 6255      7300
 6256              	.LASF181:
 6257 0c6d 6770735F 		.ascii	"gps_work_lon_raw\000"
 6257      776F726B 
 6257      5F6C6F6E 
 6257      5F726177 
 6257      00
 6258              	.LASF18:
 6259 0c7e 75696E74 		.ascii	"uint32_t\000"
 6259      33325F74 
 6259      00
 6260              	.LASF131:
 6261 0c87 70656E64 		.ascii	"pending_attr\000"
 6261      696E675F 
 6261      61747472 
 6261      00
 6262              	.LASF214:
 6263 0c94 61727269 		.ascii	"arrived\000"
 6263      76656400 
 6264              	.LASF60:
 6265 0c9c 6770735F 		.ascii	"gps_raw_lon\000"
 6265      7261775F 
 6265      6C6F6E00 
 6266              	.LASF38:
 6267 0ca8 6765745F 		.ascii	"get_tick_ms\000"
 6267      7469636B 
 6267      5F6D7300 
 6268              	.LASF103:
 6269 0cb4 6D61675F 		.ascii	"mag_freq\000"
 6269      66726571 
ARM GAS  C:\Users\yoons\AppData\Local\Temp\cczguO9p.s 			page 133


 6269      00
 6270              	.LASF6:
 6271 0cbd 73686F72 		.ascii	"short unsigned int\000"
 6271      7420756E 
 6271      7369676E 
 6271      65642069 
 6271      6E7400
 6272              	.LASF30:
 6273 0cd0 726F6C6C 		.ascii	"roll\000"
 6273      00
 6274              	.LASF157:
 6275 0cd5 73746174 		.ascii	"state_t\000"
 6275      655F7400 
 6276              	.LASF223:
 6277 0cdd 6275696C 		.ascii	"build_auto_home\000"
 6277      645F6175 
 6277      746F5F68 
 6277      6F6D6500 
 6278              	.LASF236:
 6279 0ced 6770735F 		.ascii	"gps_update_pointing\000"
 6279      75706461 
 6279      74655F70 
 6279      6F696E74 
 6279      696E6700 
 6280              	.LASF244:
 6281 0d01 736C6F77 		.ascii	"slow\000"
 6281      00
 6282              	.LASF7:
 6283 0d06 5F5F696E 		.ascii	"__int32_t\000"
 6283      7433325F 
 6283      7400
 6284              	.LASF89:
 6285 0d10 73797373 		.ascii	"sysstat_cpu_pct\000"
 6285      7461745F 
 6285      6370755F 
 6285      70637400 
 6286              	.LASF173:
 6287 0d20 6162735F 		.ascii	"abs_pan_target\000"
 6287      70616E5F 
 6287      74617267 
 6287      657400
 6288              	.LASF204:
 6289 0d2f 6E756467 		.ascii	"nudge_burst_start_ms\000"
 6289      655F6275 
 6289      7273745F 
 6289      73746172 
 6289      745F6D73 
 6290              	.LASF109:
 6291 0d44 73797365 		.ascii	"sysecho_gps_locked\000"
 6291      63686F5F 
 6291      6770735F 
 6291      6C6F636B 
 6291      656400
 6292              	.LASF195:
 6293 0d57 73746174 		.ascii	"state_entry_ms\000"
 6293      655F656E 
 6293      7472795F 
ARM GAS  C:\Users\yoons\AppData\Local\Temp\cczguO9p.s 			page 134


 6293      6D7300
 6294              	.LASF68:
 6295 0d66 6261726F 		.ascii	"baro_alt_m\000"
 6295      5F616C74 
 6295      5F6D00
 6296              	.LASF169:
 6297 0d71 74656C65 		.ascii	"telem_stable_since_ms\000"
 6297      6D5F7374 
 6297      61626C65 
 6297      5F73696E 
 6297      63655F6D 
 6298              	.LASF200:
 6299 0d87 6E756467 		.ascii	"nudge_base_tilt_deg\000"
 6299      655F6261 
 6299      73655F74 
 6299      696C745F 
 6299      64656700 
 6300              	.LASF155:
 6301 0d9b 4552524F 		.ascii	"ERROR_KILL\000"
 6301      525F4B49 
 6301      4C4C00
 6302              	.LASF52:
 6303 0da6 6770735F 		.ascii	"gps_lon_deg\000"
 6303      6C6F6E5F 
 6303      64656700 
 6304              	.LASF203:
 6305 0db2 6E756467 		.ascii	"nudge_active\000"
 6305      655F6163 
 6305      74697665 
 6305      00
 6306              	.LASF237:
 6307 0dbf 746C6174 		.ascii	"tlat\000"
 6307      00
 6308              	.LASF140:
 6309 0dc4 53544259 		.ascii	"STBY\000"
 6309      00
 6310              	.LASF254:
 6311 0dc9 63795F6D 		.ascii	"cy_mrad\000"
 6311      72616400 
 6312              	.LASF197:
 6313 0dd1 6E756467 		.ascii	"nudge_hold\000"
 6313      655F686F 
 6313      6C6400
 6314              	.LASF148:
 6315 0ddc 4155544F 		.ascii	"AUTO_HOLD\000"
 6315      5F484F4C 
 6315      4400
 6316              	.LASF216:
 6317 0de6 6C617374 		.ascii	"last_pt_ms\000"
 6317      5F70745F 
 6317      6D7300
 6318              	.LASF207:
 6319 0df1 63786572 		.ascii	"cxerr\000"
 6319      7200
 6320              		.ident	"GCC: (GNU Tools for ARM Embedded Processors) 5.4.1 20160609 (release) [ARM/embedded-5-bran
