ARM GAS  C:\Users\yoons\AppData\Local\Temp\ccpZOz8V.s 			page 1


   1              		.syntax unified
   2              		.cpu cortex-m3
   3              		.fpu softvfp
   4              		.eabi_attribute 20, 1
   5              		.eabi_attribute 21, 1
   6              		.eabi_attribute 23, 3
   7              		.eabi_attribute 24, 1
   8              		.eabi_attribute 25, 1
   9              		.eabi_attribute 26, 1
  10              		.eabi_attribute 30, 6
  11              		.eabi_attribute 34, 1
  12              		.eabi_attribute 18, 4
  13              		.thumb
  14              		.syntax unified
  15              		.file	"app_state_auto.c"
  16              		.text
  17              	.Ltext0:
  18              		.cfi_sections	.debug_frame
  19              		.section	.text.guard_auto_parent,"ax",%progbits
  20              		.align	2
  21              		.global	guard_auto_parent
  22              		.thumb
  23              		.thumb_func
  24              		.type	guard_auto_parent, %function
  25              	guard_auto_parent:
  26              	.LFB64:
  27              		.file 1 "app_state_auto.c"
   1:app_state_auto.c **** /* ========================================
   2:app_state_auto.c ****  *
   3:app_state_auto.c ****  * Copyright Hamish Johnson, 2026
   4:app_state_auto.c ****  * All Rights Reserved
   5:app_state_auto.c ****  * UNPUBLISHED, LICENSED SOFTWARE.
   6:app_state_auto.c ****  *
   7:app_state_auto.c ****  * CONFIDENTIAL AND PROPRIETARY INFORMATION
   8:app_state_auto.c ****  * WHICH IS THE PROPERTY OF 
   9:app_state_auto.c ****  * Quantum Internet Systems Lab (QISL),
  10:app_state_auto.c ****  * Department of Physics, SFU, Canada.
  11:app_state_auto.c ****  *
  12:app_state_auto.c ****  * Author: Hamish Johnson (2026)
  13:app_state_auto.c ****  *
  14:app_state_auto.c ****  * ========================================
  15:app_state_auto.c ****  *
  16:app_state_auto.c ****  * Parent AUTO - For all tracking states.
  17:app_state_auto.c **** */
  18:app_state_auto.c **** 
  19:app_state_auto.c **** #include "app_state_auto.h"
  20:app_state_auto.c **** #include "app_statemachine.h"  // app_transitions and app_raise_error
  21:app_state_auto.c **** #include "hamfly.h"            // telemetry helpers and gimble mode enums
  22:app_state_auto.c **** #include "sbc_comms.h"         // centroid stream getters + counters
  23:app_state_auto.c **** #include "utils.h"             // Euler angles calc
  24:app_state_auto.c **** #include <project.h>           // UART_DEBUG_PutString
  25:app_state_auto.c **** #include <math.h>              // sinf cosf atan2f sqrtf fabsf
  26:app_state_auto.c **** #include <stdio.h>             // snprintf
  27:app_state_auto.c **** 
  28:app_state_auto.c **** extern volatile uint32_t g_tick_ms;
  29:app_state_auto.c **** 
  30:app_state_auto.c **** // GPS Pointing Math %========================================================%
ARM GAS  C:\Users\yoons\AppData\Local\Temp\ccpZOz8V.s 			page 2


  31:app_state_auto.c **** // Forward declare here, defined below.
  32:app_state_auto.c **** static float gps_bearing_deg (float lat1, float lon1, float lat2, float lon2);
  33:app_state_auto.c **** static float gps_elev_deg    (float lat1, float lon1, float alt1_m,
  34:app_state_auto.c ****                               float lat2, float lon2, float alt2_m);
  35:app_state_auto.c **** static void  gps_start_slew     (app_ctx_t *ctx);
  36:app_state_auto.c **** static void  gps_update_pointing(app_ctx_t *ctx);
  37:app_state_auto.c **** static void  gps_check_settle   (app_ctx_t *ctx);
  38:app_state_auto.c **** static void  tracking_pid_step  (app_ctx_t *ctx);
  39:app_state_auto.c **** 
  40:app_state_auto.c **** // State On-Entry Guards %====================================================%
  41:app_state_auto.c **** uint8_t guard_auto_parent(const app_ctx_t *ctx)
  42:app_state_auto.c **** {
  28              		.loc 1 42 0
  29              		.cfi_startproc
  30              		@ args = 0, pretend = 0, frame = 16
  31              		@ frame_needed = 1, uses_anonymous_args = 0
  32 0000 80B5     		push	{r7, lr}
  33              		.cfi_def_cfa_offset 8
  34              		.cfi_offset 7, -8
  35              		.cfi_offset 14, -4
  36 0002 84B0     		sub	sp, sp, #16
  37              		.cfi_def_cfa_offset 24
  38 0004 00AF     		add	r7, sp, #0
  39              		.cfi_def_cfa_register 7
  40 0006 7860     		str	r0, [r7, #4]
  43:app_state_auto.c ****     // All AUTO states require live telemetry.
  44:app_state_auto.c ****     float p, t;
  45:app_state_auto.c ****     return gimbal_pan_tilt_deg(ctx, &p, &t);
  41              		.loc 1 45 0
  42 0008 07F10802 		add	r2, r7, #8
  43 000c 07F10C03 		add	r3, r7, #12
  44 0010 1946     		mov	r1, r3
  45 0012 7868     		ldr	r0, [r7, #4]
  46 0014 FFF7FEFF 		bl	gimbal_pan_tilt_deg
  47 0018 0346     		mov	r3, r0
  46:app_state_auto.c **** }
  48              		.loc 1 46 0
  49 001a 1846     		mov	r0, r3
  50 001c 1037     		adds	r7, r7, #16
  51              		.cfi_def_cfa_offset 8
  52 001e BD46     		mov	sp, r7
  53              		.cfi_def_cfa_register 13
  54              		@ sp needed
  55 0020 80BD     		pop	{r7, pc}
  56              		.cfi_endproc
  57              	.LFE64:
  58              		.size	guard_auto_parent, .-guard_auto_parent
  59 0022 00BF     		.section	.text.guard_auto_home,"ax",%progbits
  60              		.align	2
  61              		.global	guard_auto_home
  62              		.thumb
  63              		.thumb_func
  64              		.type	guard_auto_home, %function
  65              	guard_auto_home:
  66              	.LFB65:
  47:app_state_auto.c **** 
  48:app_state_auto.c **** uint8_t guard_auto_home(const app_ctx_t *ctx)
ARM GAS  C:\Users\yoons\AppData\Local\Temp\ccpZOz8V.s 			page 3


  49:app_state_auto.c **** {
  67              		.loc 1 49 0
  68              		.cfi_startproc
  69              		@ args = 0, pretend = 0, frame = 8
  70              		@ frame_needed = 1, uses_anonymous_args = 0
  71              		@ link register save eliminated.
  72 0000 80B4     		push	{r7}
  73              		.cfi_def_cfa_offset 4
  74              		.cfi_offset 7, -4
  75 0002 83B0     		sub	sp, sp, #12
  76              		.cfi_def_cfa_offset 16
  77 0004 00AF     		add	r7, sp, #0
  78              		.cfi_def_cfa_register 7
  79 0006 7860     		str	r0, [r7, #4]
  50:app_state_auto.c ****     // A home origin must be set.
  51:app_state_auto.c ****     return ctx->origin_set;
  80              		.loc 1 51 0
  81 0008 7B68     		ldr	r3, [r7, #4]
  82 000a 93F88830 		ldrb	r3, [r3, #136]	@ zero_extendqisi2
  52:app_state_auto.c **** }
  83              		.loc 1 52 0
  84 000e 1846     		mov	r0, r3
  85 0010 0C37     		adds	r7, r7, #12
  86              		.cfi_def_cfa_offset 4
  87 0012 BD46     		mov	sp, r7
  88              		.cfi_def_cfa_register 13
  89              		@ sp needed
  90 0014 80BC     		pop	{r7}
  91              		.cfi_restore 7
  92              		.cfi_def_cfa_offset 0
  93 0016 7047     		bx	lr
  94              		.cfi_endproc
  95              	.LFE65:
  96              		.size	guard_auto_home, .-guard_auto_home
  97              		.section	.text.guard_auto_acq_gps,"ax",%progbits
  98              		.align	2
  99              		.global	guard_auto_acq_gps
 100              		.thumb
 101              		.thumb_func
 102              		.type	guard_auto_acq_gps, %function
 103              	guard_auto_acq_gps:
 104              	.LFB66:
  53:app_state_auto.c **** 
  54:app_state_auto.c **** uint8_t guard_auto_acq_gps(const app_ctx_t *ctx)
  55:app_state_auto.c **** {
 105              		.loc 1 55 0
 106              		.cfi_startproc
 107              		@ args = 0, pretend = 0, frame = 8
 108              		@ frame_needed = 1, uses_anonymous_args = 0
 109              		@ link register save eliminated.
 110 0000 80B4     		push	{r7}
 111              		.cfi_def_cfa_offset 4
 112              		.cfi_offset 7, -4
 113 0002 83B0     		sub	sp, sp, #12
 114              		.cfi_def_cfa_offset 16
 115 0004 00AF     		add	r7, sp, #0
 116              		.cfi_def_cfa_register 7
ARM GAS  C:\Users\yoons\AppData\Local\Temp\ccpZOz8V.s 			page 4


 117 0006 7860     		str	r0, [r7, #4]
  56:app_state_auto.c ****     // A target GPS coordinate must be set.
  57:app_state_auto.c ****     return ctx->gps_target_set;
 118              		.loc 1 57 0
 119 0008 7B68     		ldr	r3, [r7, #4]
 120 000a 93F83030 		ldrb	r3, [r3, #48]	@ zero_extendqisi2
  58:app_state_auto.c **** }
 121              		.loc 1 58 0
 122 000e 1846     		mov	r0, r3
 123 0010 0C37     		adds	r7, r7, #12
 124              		.cfi_def_cfa_offset 4
 125 0012 BD46     		mov	sp, r7
 126              		.cfi_def_cfa_register 13
 127              		@ sp needed
 128 0014 80BC     		pop	{r7}
 129              		.cfi_restore 7
 130              		.cfi_def_cfa_offset 0
 131 0016 7047     		bx	lr
 132              		.cfi_endproc
 133              	.LFE66:
 134              		.size	guard_auto_acq_gps, .-guard_auto_acq_gps
 135              		.global	__aeabi_fsub
 136              		.global	__aeabi_fcmplt
 137              		.section	.rodata
 138              		.align	2
 139              	.LC0:
 140 0000 5B415554 		.ascii	"[AUTO_HOME] arrived\015\012\000"
 140      4F5F484F 
 140      4D455D20 
 140      61727269 
 140      7665640D 
 141 0016 0000     		.align	2
 142              	.LC1:
 143 0018 5B415554 		.ascii	"[AUTO_HOLD] centroid -> AUTO_TRACKING\015\012\000"
 143      4F5F484F 
 143      4C445D20 
 143      63656E74 
 143      726F6964 
 144              		.align	2
 145              	.LC2:
 146 0040 5B415554 		.ascii	"[AUTO_HOLD] timeout -> AUTO_ACQ_SPIRAL\015\012\000"
 146      4F5F484F 
 146      4C445D20 
 146      74696D65 
 146      6F757420 
 147              		.global	__aeabi_ui2f
 148              		.global	__aeabi_fmul
 149              		.global	__aeabi_i2f
 150              		.global	__aeabi_fdiv
 151 0069 000000   		.align	2
 152              	.LC3:
 153 006c 5B534243 		.ascii	"[SBC:%s] cx=%d cy=%d dt=%u rx=%lu crcErr=%u uartErr"
 153      3A25735D 
 153      2063783D 
 153      25642063 
 153      793D2564 
 154 009f 3D25750D 		.ascii	"=%u\015\012\000"
ARM GAS  C:\Users\yoons\AppData\Local\Temp\ccpZOz8V.s 			page 5


 154      0A00
 155 00a5 000000   		.align	2
 156              	.LC4:
 157 00a8 5B415554 		.ascii	"[AUTO_TRACKING] centroid lost -> AUTO_LOSS\015\012\000"
 157      4F5F5452 
 157      41434B49 
 157      4E475D20 
 157      63656E74 
 158 00d5 000000   		.align	2
 159              	.LC5:
 160 00d8 5B415554 		.ascii	"[AUTO_LOSS] centroid returned -> AUTO_TRACKING\015\012"
 160      4F5F4C4F 
 160      53535D20 
 160      63656E74 
 160      726F6964 
 161 0108 00       		.ascii	"\000"
 162 0109 000000   		.align	2
 163              	.LC6:
 164 010c 5B415554 		.ascii	"[AUTO_NO_LOCK] auto -> AUTO_ACQ_GPS\015\012\000"
 164      4F5F4E4F 
 164      5F4C4F43 
 164      4B5D2061 
 164      75746F20 
 165              		.section	.text.app_auto_tick,"ax",%progbits
 166              		.align	2
 167              		.global	app_auto_tick
 168              		.thumb
 169              		.thumb_func
 170              		.type	app_auto_tick, %function
 171              	app_auto_tick:
 172              	.LFB67:
  59:app_state_auto.c **** 
  60:app_state_auto.c **** // %==========================================================================%
  61:app_state_auto.c **** // %                          AUTO Tick Handling                              %
  62:app_state_auto.c **** // %==========================================================================%
  63:app_state_auto.c **** // Handles the multi-tick actions of sub-modes such as:
  64:app_state_auto.c **** //  - HOME: Reached within tolerance and steady.
  65:app_state_auto.c **** //  - ACQ_GPS: Recheck for new coordinate at 1Hz, settle.
  66:app_state_auto.c **** //  - TRACKING: Pull freshest centroid, print.
  67:app_state_auto.c **** 
  68:app_state_auto.c **** void app_auto_tick(app_ctx_t *ctx)
  69:app_state_auto.c **** {
 173              		.loc 1 69 0
 174              		.cfi_startproc
 175              		@ args = 0, pretend = 0, frame = 208
 176              		@ frame_needed = 1, uses_anonymous_args = 0
 177 0000 F0B5     		push	{r4, r5, r6, r7, lr}
 178              		.cfi_def_cfa_offset 20
 179              		.cfi_offset 4, -20
 180              		.cfi_offset 5, -16
 181              		.cfi_offset 6, -12
 182              		.cfi_offset 7, -8
 183              		.cfi_offset 14, -4
 184 0002 BBB0     		sub	sp, sp, #236
 185              		.cfi_def_cfa_offset 256
 186 0004 06AF     		add	r7, sp, #24
 187              		.cfi_def_cfa 7, 232
ARM GAS  C:\Users\yoons\AppData\Local\Temp\ccpZOz8V.s 			page 6


 188 0006 F860     		str	r0, [r7, #12]
  70:app_state_auto.c ****     // AUTO_HOME
  71:app_state_auto.c ****     if (ctx->state == AUTO_HOME && ctx->nudge_hold) {
 189              		.loc 1 71 0
 190 0008 FB68     		ldr	r3, [r7, #12]
 191 000a 1B79     		ldrb	r3, [r3, #4]	@ zero_extendqisi2
 192 000c 082B     		cmp	r3, #8
 193 000e 67D1     		bne	.L8
 194              		.loc 1 71 0 is_stmt 0 discriminator 1
 195 0010 FB68     		ldr	r3, [r7, #12]
 196 0012 93F89930 		ldrb	r3, [r3, #153]	@ zero_extendqisi2
 197 0016 002B     		cmp	r3, #0
 198 0018 62D0     		beq	.L8
 199              	.LBB2:
  72:app_state_auto.c ****         uint32_t elapsed = g_tick_ms - ctx->nudge_start_ms;
 200              		.loc 1 72 0 is_stmt 1
 201 001a 614B     		ldr	r3, .L46
 202 001c 1A68     		ldr	r2, [r3]
 203 001e FB68     		ldr	r3, [r7, #12]
 204 0020 D3F89C30 		ldr	r3, [r3, #156]
 205 0024 D31A     		subs	r3, r2, r3
 206 0026 C7F8C830 		str	r3, [r7, #200]
  73:app_state_auto.c ****         if (elapsed >= NUDGE_MIN_DWELL_MS) {
 207              		.loc 1 73 0
 208 002a D7F8C830 		ldr	r3, [r7, #200]
 209 002e 952B     		cmp	r3, #149
 210 0030 40F2E281 		bls	.L40
 211              	.LBB3:
  74:app_state_auto.c ****             float p, t;
  75:app_state_auto.c ****             uint8_t arrived = 0u;
 212              		.loc 1 75 0
 213 0034 0023     		movs	r3, #0
 214 0036 87F8CF30 		strb	r3, [r7, #207]
  76:app_state_auto.c ****             if (gimbal_pan_tilt_deg(ctx, &p, &t))
 215              		.loc 1 76 0
 216 003a 07F1B402 		add	r2, r7, #180
 217 003e 07F1B803 		add	r3, r7, #184
 218 0042 1946     		mov	r1, r3
 219 0044 F868     		ldr	r0, [r7, #12]
 220 0046 FFF7FEFF 		bl	gimbal_pan_tilt_deg
 221 004a 0346     		mov	r3, r0
 222 004c 002B     		cmp	r3, #0
 223 004e 2AD0     		beq	.L10
  77:app_state_auto.c ****                 arrived = (fabsf(p - ctx->tgt_pan_deg)  < NUDGE_SETTLE_DEG) &&
 224              		.loc 1 77 0
 225 0050 D7F8B820 		ldr	r2, [r7, #184]	@ float
 226 0054 FB68     		ldr	r3, [r7, #12]
 227 0056 D3F8BC30 		ldr	r3, [r3, #188]	@ float
 228 005a 1946     		mov	r1, r3
 229 005c 1046     		mov	r0, r2
 230 005e FFF7FEFF 		bl	__aeabi_fsub
 231 0062 0346     		mov	r3, r0
 232 0064 23F00043 		bic	r3, r3, #-2147483648
 233 0068 4E49     		ldr	r1, .L46+4
 234 006a 1846     		mov	r0, r3
 235 006c FFF7FEFF 		bl	__aeabi_fcmplt
 236 0070 0346     		mov	r3, r0
ARM GAS  C:\Users\yoons\AppData\Local\Temp\ccpZOz8V.s 			page 7


 237 0072 002B     		cmp	r3, #0
 238 0074 14D0     		beq	.L11
  78:app_state_auto.c ****                           (fabsf(t - ctx->tgt_tilt_deg) < NUDGE_SETTLE_DEG);
 239              		.loc 1 78 0 discriminator 1
 240 0076 D7F8B420 		ldr	r2, [r7, #180]	@ float
 241 007a FB68     		ldr	r3, [r7, #12]
 242 007c D3F8C030 		ldr	r3, [r3, #192]	@ float
 243 0080 1946     		mov	r1, r3
 244 0082 1046     		mov	r0, r2
 245 0084 FFF7FEFF 		bl	__aeabi_fsub
 246 0088 0346     		mov	r3, r0
 247 008a 23F00043 		bic	r3, r3, #-2147483648
  77:app_state_auto.c ****                 arrived = (fabsf(p - ctx->tgt_pan_deg)  < NUDGE_SETTLE_DEG) &&
 248              		.loc 1 77 0 discriminator 1
 249 008e 4549     		ldr	r1, .L46+4
 250 0090 1846     		mov	r0, r3
 251 0092 FFF7FEFF 		bl	__aeabi_fcmplt
 252 0096 0346     		mov	r3, r0
 253 0098 002B     		cmp	r3, #0
 254 009a 01D0     		beq	.L11
  77:app_state_auto.c ****                 arrived = (fabsf(p - ctx->tgt_pan_deg)  < NUDGE_SETTLE_DEG) &&
 255              		.loc 1 77 0 is_stmt 0 discriminator 3
 256 009c 0123     		movs	r3, #1
 257 009e 00E0     		b	.L14
 258              	.L11:
  77:app_state_auto.c ****                 arrived = (fabsf(p - ctx->tgt_pan_deg)  < NUDGE_SETTLE_DEG) &&
 259              		.loc 1 77 0 discriminator 4
 260 00a0 0023     		movs	r3, #0
 261              	.L14:
  77:app_state_auto.c ****                 arrived = (fabsf(p - ctx->tgt_pan_deg)  < NUDGE_SETTLE_DEG) &&
 262              		.loc 1 77 0 discriminator 6
 263 00a2 87F8CF30 		strb	r3, [r7, #207]
 264              	.L10:
  79:app_state_auto.c ****             if (arrived || elapsed >= NUDGE_TIMEOUT_MS) {
 265              		.loc 1 79 0 is_stmt 1
 266 00a6 97F8CF30 		ldrb	r3, [r7, #207]	@ zero_extendqisi2
 267 00aa 002B     		cmp	r3, #0
 268 00ac 05D1     		bne	.L15
 269              		.loc 1 79 0 is_stmt 0 discriminator 1
 270 00ae D7F8C830 		ldr	r3, [r7, #200]
 271 00b2 B3F5FA6F 		cmp	r3, #2000
 272 00b6 C0F09F81 		bcc	.L40
 273              	.L15:
 274              	.LBB4:
  80:app_state_auto.c ****                 UART_DEBUG_PutString("[AUTO_HOME] arrived\r\n");
 275              		.loc 1 80 0 is_stmt 1
 276 00ba 3B48     		ldr	r0, .L46+8
 277 00bc FFF7FEFF 		bl	dbg_put
  81:app_state_auto.c ****                 state_t dest = ctx->home_return_stby ? STBY_HOLD : AUTO_HOLD;
 278              		.loc 1 81 0
 279 00c0 FB68     		ldr	r3, [r7, #12]
 280 00c2 DB79     		ldrb	r3, [r3, #7]	@ zero_extendqisi2
 281 00c4 002B     		cmp	r3, #0
 282 00c6 01D0     		beq	.L17
 283              		.loc 1 81 0 is_stmt 0 discriminator 1
 284 00c8 0623     		movs	r3, #6
 285 00ca 00E0     		b	.L18
ARM GAS  C:\Users\yoons\AppData\Local\Temp\ccpZOz8V.s 			page 8


 286              	.L17:
 287              		.loc 1 81 0 discriminator 2
 288 00cc 0923     		movs	r3, #9
 289              	.L18:
 290              		.loc 1 81 0 discriminator 4
 291 00ce 87F8C730 		strb	r3, [r7, #199]
  82:app_state_auto.c ****                 app_transition(ctx, dest);  // -> STBY_HOLD or AUTO_HOLD
 292              		.loc 1 82 0 is_stmt 1 discriminator 4
 293 00d2 97F8C730 		ldrb	r3, [r7, #199]	@ zero_extendqisi2
 294 00d6 1946     		mov	r1, r3
 295 00d8 F868     		ldr	r0, [r7, #12]
 296 00da FFF7FEFF 		bl	app_transition
 297              	.LBE4:
 298              	.LBE3:
  83:app_state_auto.c ****             }
  84:app_state_auto.c ****         }
  85:app_state_auto.c ****         return;
 299              		.loc 1 85 0 discriminator 4
 300 00de 8BE1     		b	.L40
 301              	.L8:
 302              	.LBE2:
  86:app_state_auto.c ****     }
  87:app_state_auto.c ****     
  88:app_state_auto.c ****     // AUTO_HOLD: watch for centroids and wait for timout to spiral search
  89:app_state_auto.c ****     if (ctx->state == AUTO_HOLD) {
 303              		.loc 1 89 0
 304 00e0 FB68     		ldr	r3, [r7, #12]
 305 00e2 1B79     		ldrb	r3, [r3, #4]	@ zero_extendqisi2
 306 00e4 092B     		cmp	r3, #9
 307 00e6 32D1     		bne	.L20
 308              	.LBB5:
  90:app_state_auto.c ****         payload_centroid_t c;
  91:app_state_auto.c ****         if (sbc_get_centroid(STREAM_COARSE, &c)) {
 309              		.loc 1 91 0
 310 00e8 07F1A803 		add	r3, r7, #168
 311 00ec 1946     		mov	r1, r3
 312 00ee 0020     		movs	r0, #0
 313 00f0 FFF7FEFF 		bl	sbc_get_centroid
 314 00f4 0346     		mov	r3, r0
 315 00f6 002B     		cmp	r3, #0
 316 00f8 11D0     		beq	.L21
  92:app_state_auto.c ****             ctx->track_cx_last = c.cx;
 317              		.loc 1 92 0
 318 00fa B7F9AC20 		ldrsh	r2, [r7, #172]
 319 00fe FB68     		ldr	r3, [r7, #12]
 320 0100 A3F87C20 		strh	r2, [r3, #124]	@ movhi
  93:app_state_auto.c ****             ctx->track_cy_last = c.cy;
 321              		.loc 1 93 0
 322 0104 B7F9AE20 		ldrsh	r2, [r7, #174]
 323 0108 FB68     		ldr	r3, [r7, #12]
 324 010a A3F87E20 		strh	r2, [r3, #126]	@ movhi
  94:app_state_auto.c ****             UART_DEBUG_PutString("[AUTO_HOLD] centroid -> AUTO_TRACKING\r\n");
 325              		.loc 1 94 0
 326 010e 2748     		ldr	r0, .L46+12
 327 0110 FFF7FEFF 		bl	dbg_put
  95:app_state_auto.c ****             app_transition(ctx, AUTO_TRACKING);
 328              		.loc 1 95 0
ARM GAS  C:\Users\yoons\AppData\Local\Temp\ccpZOz8V.s 			page 9


 329 0114 0C21     		movs	r1, #12
 330 0116 F868     		ldr	r0, [r7, #12]
 331 0118 FFF7FEFF 		bl	app_transition
  96:app_state_auto.c ****             return;
 332              		.loc 1 96 0
 333 011c 75E1     		b	.L7
 334              	.L21:
  97:app_state_auto.c ****         }
  98:app_state_auto.c ****         if (ctx->auto_flow &&
 335              		.loc 1 98 0
 336 011e FB68     		ldr	r3, [r7, #12]
 337 0120 9B79     		ldrb	r3, [r3, #6]	@ zero_extendqisi2
 338 0122 002B     		cmp	r3, #0
 339 0124 00F06A81 		beq	.L41
  99:app_state_auto.c ****             (g_tick_ms - ctx->auto_hold_entry_ms) >= AUTO_HOLD_TO_SPIRAL_MS) {
 340              		.loc 1 99 0 discriminator 1
 341 0128 1D4B     		ldr	r3, .L46
 342 012a 1A68     		ldr	r2, [r3]
 343 012c FB68     		ldr	r3, [r7, #12]
 344 012e 9B68     		ldr	r3, [r3, #8]
 345 0130 D31A     		subs	r3, r2, r3
  98:app_state_auto.c ****             (g_tick_ms - ctx->auto_hold_entry_ms) >= AUTO_HOLD_TO_SPIRAL_MS) {
 346              		.loc 1 98 0 discriminator 1
 347 0132 42F20F72 		movw	r2, #9999
 348 0136 9342     		cmp	r3, r2
 349 0138 40F26081 		bls	.L41
 100:app_state_auto.c ****             UART_DEBUG_PutString("[AUTO_HOLD] timeout -> AUTO_ACQ_SPIRAL\r\n");
 350              		.loc 1 100 0
 351 013c 1C48     		ldr	r0, .L46+16
 352 013e FFF7FEFF 		bl	dbg_put
 101:app_state_auto.c ****             app_transition(ctx, AUTO_ACQ_SPIRAL);
 353              		.loc 1 101 0
 354 0142 0B21     		movs	r1, #11
 355 0144 F868     		ldr	r0, [r7, #12]
 356 0146 FFF7FEFF 		bl	app_transition
 102:app_state_auto.c ****         }
 103:app_state_auto.c ****         return;
 357              		.loc 1 103 0
 358 014a 00BF     		nop
 359 014c 56E1     		b	.L41
 360              	.L20:
 361              	.LBE5:
 104:app_state_auto.c ****     }
 105:app_state_auto.c ****     
 106:app_state_auto.c ****     // AUTO_ACQ_GPS
 107:app_state_auto.c ****     // TODO: GPS should go to the set coordinate and settle and stay there,
 108:app_state_auto.c ****     // waiting for centroid packets to arrive for N seconds (0 means wait forever).
 109:app_state_auto.c ****     // If no lock in N seconds, spiral, if lock go to tracking.
 110:app_state_auto.c ****     if (ctx->state == AUTO_ACQ_GPS) {
 362              		.loc 1 110 0
 363 014e FB68     		ldr	r3, [r7, #12]
 364 0150 1B79     		ldrb	r3, [r3, #4]	@ zero_extendqisi2
 365 0152 0A2B     		cmp	r3, #10
 366 0154 18D1     		bne	.L24
 367              	.LBB6:
 111:app_state_auto.c ****         static uint32_t last_pt_ms = 0u;
 112:app_state_auto.c ****         if (g_tick_ms - last_pt_ms >= DIAG_PERIOD_MS) {
ARM GAS  C:\Users\yoons\AppData\Local\Temp\ccpZOz8V.s 			page 10


 368              		.loc 1 112 0
 369 0156 124B     		ldr	r3, .L46
 370 0158 1A68     		ldr	r2, [r3]
 371 015a 164B     		ldr	r3, .L46+20
 372 015c 1B68     		ldr	r3, [r3]
 373 015e D31A     		subs	r3, r2, r3
 374 0160 41F28732 		movw	r2, #4999
 375 0164 9342     		cmp	r3, r2
 376 0166 0BD9     		bls	.L25
 113:app_state_auto.c ****             last_pt_ms = g_tick_ms;
 377              		.loc 1 113 0
 378 0168 0D4B     		ldr	r3, .L46
 379 016a 1B68     		ldr	r3, [r3]
 380 016c 114A     		ldr	r2, .L46+20
 381 016e 1360     		str	r3, [r2]
 114:app_state_auto.c ****             if (ctx->gps_target_set) gps_update_pointing(ctx);
 382              		.loc 1 114 0
 383 0170 FB68     		ldr	r3, [r7, #12]
 384 0172 93F83030 		ldrb	r3, [r3, #48]	@ zero_extendqisi2
 385 0176 002B     		cmp	r3, #0
 386 0178 02D0     		beq	.L25
 387              		.loc 1 114 0 is_stmt 0 discriminator 1
 388 017a F868     		ldr	r0, [r7, #12]
 389 017c FFF7FEFF 		bl	gps_update_pointing
 390              	.L25:
 115:app_state_auto.c ****         }
 116:app_state_auto.c ****         gps_check_settle(ctx);   // self-throttled to GPS_SETTLE_PERIOD_MS
 391              		.loc 1 116 0 is_stmt 1
 392 0180 F868     		ldr	r0, [r7, #12]
 393 0182 FFF7FEFF 		bl	gps_check_settle
 117:app_state_auto.c ****         return;
 394              		.loc 1 117 0
 395 0186 40E1     		b	.L7
 396              	.L24:
 397              	.LBE6:
 118:app_state_auto.c ****     }
 119:app_state_auto.c **** 
 120:app_state_auto.c ****     // AUTO_TRACKING
 121:app_state_auto.c ****     if (ctx->state == AUTO_TRACKING) {
 398              		.loc 1 121 0
 399 0188 FB68     		ldr	r3, [r7, #12]
 400 018a 1B79     		ldrb	r3, [r3, #4]	@ zero_extendqisi2
 401 018c 0C2B     		cmp	r3, #12
 402 018e 40F0FD80 		bne	.L26
 403              	.LBB7:
 122:app_state_auto.c ****         uint8_t got_coarse = 0u;
 404              		.loc 1 122 0
 405 0192 0023     		movs	r3, #0
 406 0194 87F8C630 		strb	r3, [r7, #198]
 407              	.LBB8:
 123:app_state_auto.c ****         static const char *tag[STREAM_COUNTS] = { "C", "F" };
 124:app_state_auto.c ****         for (uint8_t s = 0u; s < STREAM_COUNTS; s++) {
 408              		.loc 1 124 0
 409 0198 0023     		movs	r3, #0
 410 019a 87F8CE30 		strb	r3, [r7, #206]
 411 019e CFE0     		b	.L27
 412              	.L47:
ARM GAS  C:\Users\yoons\AppData\Local\Temp\ccpZOz8V.s 			page 11


 413              		.align	2
 414              	.L46:
 415 01a0 00000000 		.word	g_tick_ms
 416 01a4 CDCC4C3D 		.word	1028443341
 417 01a8 00000000 		.word	.LC0
 418 01ac 18000000 		.word	.LC1
 419 01b0 40000000 		.word	.LC2
 420 01b4 00000000 		.word	last_pt_ms.8227
 421              	.L33:
 422              	.LBB9:
 125:app_state_auto.c ****             payload_centroid_t c;
 126:app_state_auto.c ****             if (!sbc_get_centroid(s, &c)) continue; // No centroids
 423              		.loc 1 126 0
 424 01b8 07F19C02 		add	r2, r7, #156
 425 01bc 97F8CE30 		ldrb	r3, [r7, #206]	@ zero_extendqisi2
 426 01c0 1146     		mov	r1, r2
 427 01c2 1846     		mov	r0, r3
 428 01c4 FFF7FEFF 		bl	sbc_get_centroid
 429 01c8 0346     		mov	r3, r0
 430 01ca 002B     		cmp	r3, #0
 431 01cc 00F0B280 		beq	.L42
 127:app_state_auto.c ****             if (s == STREAM_COARSE) {               // Read corase centroid
 432              		.loc 1 127 0
 433 01d0 97F8CE30 		ldrb	r3, [r7, #206]	@ zero_extendqisi2
 434 01d4 002B     		cmp	r3, #0
 435 01d6 7BD1     		bne	.L30
 436              	.LBB10:
 128:app_state_auto.c ****                 // Save previous TODO: Why not use cx0 and cy0?
 129:app_state_auto.c ****                 int16_t cx_prev = ctx->track_cx_last;
 437              		.loc 1 129 0
 438 01d8 FB68     		ldr	r3, [r7, #12]
 439 01da B3F87C30 		ldrh	r3, [r3, #124]	@ movhi
 440 01de A7F8C430 		strh	r3, [r7, #196]	@ movhi
 130:app_state_auto.c ****                 int16_t cy_prev = ctx->track_cy_last;
 441              		.loc 1 130 0
 442 01e2 FB68     		ldr	r3, [r7, #12]
 443 01e4 B3F87E30 		ldrh	r3, [r3, #126]	@ movhi
 444 01e8 A7F8C230 		strh	r3, [r7, #194]	@ movhi
 131:app_state_auto.c **** 
 132:app_state_auto.c ****                 ctx->track_cx_last  = c.cx;
 445              		.loc 1 132 0
 446 01ec B7F9A020 		ldrsh	r2, [r7, #160]
 447 01f0 FB68     		ldr	r3, [r7, #12]
 448 01f2 A3F87C20 		strh	r2, [r3, #124]	@ movhi
 133:app_state_auto.c ****                 ctx->track_cy_last  = c.cy;
 449              		.loc 1 133 0
 450 01f6 B7F9A220 		ldrsh	r2, [r7, #162]
 451 01fa FB68     		ldr	r3, [r7, #12]
 452 01fc A3F87E20 		strh	r2, [r3, #126]	@ movhi
 134:app_state_auto.c ****                 got_coarse = 1u;
 453              		.loc 1 134 0
 454 0200 0123     		movs	r3, #1
 455 0202 87F8C630 		strb	r3, [r7, #198]
 135:app_state_auto.c **** 
 136:app_state_auto.c ****                 // Compute time-domain differentials
 137:app_state_auto.c ****                 uint16_t dt_ms = sbc_last_centroid_dt_ms(STREAM_COARSE);
 456              		.loc 1 137 0
ARM GAS  C:\Users\yoons\AppData\Local\Temp\ccpZOz8V.s 			page 12


 457 0206 0020     		movs	r0, #0
 458 0208 FFF7FEFF 		bl	sbc_last_centroid_dt_ms
 459 020c 0346     		mov	r3, r0
 460 020e A7F8CC30 		strh	r3, [r7, #204]	@ movhi
 138:app_state_auto.c ****                 if (dt_ms == 0u || dt_ms > 1000u) dt_ms = 33u;  // sane fallback
 461              		.loc 1 138 0
 462 0212 B7F8CC30 		ldrh	r3, [r7, #204]
 463 0216 002B     		cmp	r3, #0
 464 0218 04D0     		beq	.L31
 465              		.loc 1 138 0 is_stmt 0 discriminator 2
 466 021a B7F8CC30 		ldrh	r3, [r7, #204]
 467 021e B3F57A7F 		cmp	r3, #1000
 468 0222 02D9     		bls	.L32
 469              	.L31:
 470              		.loc 1 138 0 discriminator 3
 471 0224 2123     		movs	r3, #33
 472 0226 A7F8CC30 		strh	r3, [r7, #204]	@ movhi
 473              	.L32:
 139:app_state_auto.c ****                 ctx->track_dt      = (float)dt_ms * 0.001f;
 474              		.loc 1 139 0 is_stmt 1
 475 022a B7F8CC30 		ldrh	r3, [r7, #204]
 476 022e 1846     		mov	r0, r3
 477 0230 FFF7FEFF 		bl	__aeabi_ui2f
 478 0234 0346     		mov	r3, r0
 479 0236 7649     		ldr	r1, .L48
 480 0238 1846     		mov	r0, r3
 481 023a FFF7FEFF 		bl	__aeabi_fmul
 482 023e 0346     		mov	r3, r0
 483 0240 1A46     		mov	r2, r3
 484 0242 FB68     		ldr	r3, [r7, #12]
 485 0244 9A67     		str	r2, [r3, #120]	@ float
 140:app_state_auto.c ****                 ctx->track_de_pan  = ((float)c.cx - (float)cx_prev) * 0.01f / ctx->track_dt;
 486              		.loc 1 140 0
 487 0246 B7F9A030 		ldrsh	r3, [r7, #160]
 488 024a 1846     		mov	r0, r3
 489 024c FFF7FEFF 		bl	__aeabi_i2f
 490 0250 0446     		mov	r4, r0
 491 0252 B7F9C430 		ldrsh	r3, [r7, #196]
 492 0256 1846     		mov	r0, r3
 493 0258 FFF7FEFF 		bl	__aeabi_i2f
 494 025c 0346     		mov	r3, r0
 495 025e 1946     		mov	r1, r3
 496 0260 2046     		mov	r0, r4
 497 0262 FFF7FEFF 		bl	__aeabi_fsub
 498 0266 0346     		mov	r3, r0
 499 0268 6A49     		ldr	r1, .L48+4
 500 026a 1846     		mov	r0, r3
 501 026c FFF7FEFF 		bl	__aeabi_fmul
 502 0270 0346     		mov	r3, r0
 503 0272 1A46     		mov	r2, r3
 504 0274 FB68     		ldr	r3, [r7, #12]
 505 0276 9B6F     		ldr	r3, [r3, #120]	@ float
 506 0278 1946     		mov	r1, r3
 507 027a 1046     		mov	r0, r2
 508 027c FFF7FEFF 		bl	__aeabi_fdiv
 509 0280 0346     		mov	r3, r0
 510 0282 1A46     		mov	r2, r3
ARM GAS  C:\Users\yoons\AppData\Local\Temp\ccpZOz8V.s 			page 13


 511 0284 FB68     		ldr	r3, [r7, #12]
 512 0286 1A67     		str	r2, [r3, #112]	@ float
 141:app_state_auto.c ****                 ctx->track_de_tilt = ((float)c.cy - (float)cy_prev) * 0.01f / ctx->track_dt;
 513              		.loc 1 141 0
 514 0288 B7F9A230 		ldrsh	r3, [r7, #162]
 515 028c 1846     		mov	r0, r3
 516 028e FFF7FEFF 		bl	__aeabi_i2f
 517 0292 0446     		mov	r4, r0
 518 0294 B7F9C230 		ldrsh	r3, [r7, #194]
 519 0298 1846     		mov	r0, r3
 520 029a FFF7FEFF 		bl	__aeabi_i2f
 521 029e 0346     		mov	r3, r0
 522 02a0 1946     		mov	r1, r3
 523 02a2 2046     		mov	r0, r4
 524 02a4 FFF7FEFF 		bl	__aeabi_fsub
 525 02a8 0346     		mov	r3, r0
 526 02aa 5A49     		ldr	r1, .L48+4
 527 02ac 1846     		mov	r0, r3
 528 02ae FFF7FEFF 		bl	__aeabi_fmul
 529 02b2 0346     		mov	r3, r0
 530 02b4 1A46     		mov	r2, r3
 531 02b6 FB68     		ldr	r3, [r7, #12]
 532 02b8 9B6F     		ldr	r3, [r3, #120]	@ float
 533 02ba 1946     		mov	r1, r3
 534 02bc 1046     		mov	r0, r2
 535 02be FFF7FEFF 		bl	__aeabi_fdiv
 536 02c2 0346     		mov	r3, r0
 537 02c4 1A46     		mov	r2, r3
 538 02c6 FB68     		ldr	r3, [r7, #12]
 539 02c8 5A67     		str	r2, [r3, #116]	@ float
 142:app_state_auto.c **** 
 143:app_state_auto.c ****                 // Hand off to the controller.
 144:app_state_auto.c ****                 tracking_pid_step(ctx);
 540              		.loc 1 144 0
 541 02ca F868     		ldr	r0, [r7, #12]
 542 02cc FFF7FEFF 		bl	tracking_pid_step
 543              	.L30:
 544              	.LBE10:
 145:app_state_auto.c ****                 
 146:app_state_auto.c ****             }
 147:app_state_auto.c ****             // Serial debug
 148:app_state_auto.c ****             char b[128];
 149:app_state_auto.c ****             snprintf(b, sizeof b,
 545              		.loc 1 149 0
 546 02d0 97F8CE30 		ldrb	r3, [r7, #206]	@ zero_extendqisi2
 547 02d4 504A     		ldr	r2, .L48+8
 548 02d6 52F82340 		ldr	r4, [r2, r3, lsl #2]
 150:app_state_auto.c ****                      "[SBC:%s] cx=%d cy=%d dt=%u rx=%lu crcErr=%u uartErr=%u\r\n",
 151:app_state_auto.c ****                      tag[s], c.cx, c.cy,
 549              		.loc 1 151 0
 550 02da B7F9A030 		ldrsh	r3, [r7, #160]
 149:app_state_auto.c ****                      "[SBC:%s] cx=%d cy=%d dt=%u rx=%lu crcErr=%u uartErr=%u\r\n",
 551              		.loc 1 149 0
 552 02de 1D46     		mov	r5, r3
 553              		.loc 1 151 0
 554 02e0 B7F9A230 		ldrsh	r3, [r7, #162]
 149:app_state_auto.c ****                      "[SBC:%s] cx=%d cy=%d dt=%u rx=%lu crcErr=%u uartErr=%u\r\n",
ARM GAS  C:\Users\yoons\AppData\Local\Temp\ccpZOz8V.s 			page 14


 555              		.loc 1 149 0
 556 02e4 1E46     		mov	r6, r3
 152:app_state_auto.c ****                      sbc_last_centroid_dt_ms(s),
 557              		.loc 1 152 0
 558 02e6 97F8CE30 		ldrb	r3, [r7, #206]	@ zero_extendqisi2
 559 02ea 1846     		mov	r0, r3
 560 02ec FFF7FEFF 		bl	sbc_last_centroid_dt_ms
 561 02f0 0346     		mov	r3, r0
 149:app_state_auto.c ****                      "[SBC:%s] cx=%d cy=%d dt=%u rx=%lu crcErr=%u uartErr=%u\r\n",
 562              		.loc 1 149 0
 563 02f2 BB60     		str	r3, [r7, #8]
 153:app_state_auto.c ****                      (unsigned long)sbc_rx_pkt_count(),
 564              		.loc 1 153 0
 565 02f4 FFF7FEFF 		bl	sbc_rx_pkt_count
 566 02f8 7860     		str	r0, [r7, #4]
 154:app_state_auto.c ****                      sbc_crc_errors(), sbc_uart_errors());
 567              		.loc 1 154 0
 568 02fa FFF7FEFF 		bl	sbc_crc_errors
 569 02fe 0346     		mov	r3, r0
 149:app_state_auto.c ****                      "[SBC:%s] cx=%d cy=%d dt=%u rx=%lu crcErr=%u uartErr=%u\r\n",
 570              		.loc 1 149 0
 571 0300 3B60     		str	r3, [r7]
 572              		.loc 1 154 0
 573 0302 FFF7FEFF 		bl	sbc_uart_errors
 574 0306 0346     		mov	r3, r0
 149:app_state_auto.c ****                      "[SBC:%s] cx=%d cy=%d dt=%u rx=%lu crcErr=%u uartErr=%u\r\n",
 575              		.loc 1 149 0
 576 0308 07F11000 		add	r0, r7, #16
 577 030c 0593     		str	r3, [sp, #20]
 578 030e 3A68     		ldr	r2, [r7]
 579 0310 0492     		str	r2, [sp, #16]
 580 0312 7A68     		ldr	r2, [r7, #4]
 581 0314 0392     		str	r2, [sp, #12]
 582 0316 BB68     		ldr	r3, [r7, #8]
 583 0318 0293     		str	r3, [sp, #8]
 584 031a 0196     		str	r6, [sp, #4]
 585 031c 0095     		str	r5, [sp]
 586 031e 2346     		mov	r3, r4
 587 0320 3E4A     		ldr	r2, .L48+12
 588 0322 8021     		movs	r1, #128
 589 0324 FFF7FEFF 		bl	snprintf
 155:app_state_auto.c ****             UART_DEBUG_PutString(b);
 590              		.loc 1 155 0
 591 0328 07F11003 		add	r3, r7, #16
 592 032c 1846     		mov	r0, r3
 593 032e FFF7FEFF 		bl	dbg_put
 594 0332 00E0     		b	.L29
 595              	.L42:
 126:app_state_auto.c ****             if (s == STREAM_COARSE) {               // Read corase centroid
 596              		.loc 1 126 0
 597 0334 00BF     		nop
 598              	.L29:
 599              	.LBE9:
 124:app_state_auto.c ****             payload_centroid_t c;
 600              		.loc 1 124 0 discriminator 2
 601 0336 97F8CE30 		ldrb	r3, [r7, #206]	@ zero_extendqisi2
 602 033a 0133     		adds	r3, r3, #1
ARM GAS  C:\Users\yoons\AppData\Local\Temp\ccpZOz8V.s 			page 15


 603 033c 87F8CE30 		strb	r3, [r7, #206]
 604              	.L27:
 124:app_state_auto.c ****             payload_centroid_t c;
 605              		.loc 1 124 0 is_stmt 0 discriminator 1
 606 0340 97F8CE30 		ldrb	r3, [r7, #206]	@ zero_extendqisi2
 607 0344 012B     		cmp	r3, #1
 608 0346 7FF637AF 		bls	.L33
 609              	.LBE8:
 156:app_state_auto.c ****         }
 157:app_state_auto.c ****         (void)got_coarse;
 158:app_state_auto.c **** 
 159:app_state_auto.c ****         // Loss check: no coarse centroid for TRACKING_LOSS_TIMEOUT_MS -> AUTO_LOSS
 160:app_state_auto.c ****         uint32_t last_c = sbc_last_rx_ms(STREAM_COARSE);
 610              		.loc 1 160 0 is_stmt 1
 611 034a 0020     		movs	r0, #0
 612 034c FFF7FEFF 		bl	sbc_last_rx_ms
 613 0350 C7F8BC00 		str	r0, [r7, #188]
 161:app_state_auto.c ****         if (last_c != 0u &&                  // == No packets ever
 614              		.loc 1 161 0
 615 0354 D7F8BC30 		ldr	r3, [r7, #188]
 616 0358 002B     		cmp	r3, #0
 617 035a 51D0     		beq	.L43
 162:app_state_auto.c ****             last_c > ctx->state_entry_ms &&  // == At least one centroidand loss.
 618              		.loc 1 162 0 discriminator 1
 619 035c FB68     		ldr	r3, [r7, #12]
 620 035e D3F89420 		ldr	r2, [r3, #148]
 161:app_state_auto.c ****         if (last_c != 0u &&                  // == No packets ever
 621              		.loc 1 161 0 discriminator 1
 622 0362 D7F8BC30 		ldr	r3, [r7, #188]
 623 0366 9A42     		cmp	r2, r3
 624 0368 4AD2     		bcs	.L43
 163:app_state_auto.c ****             (g_tick_ms - last_c) >= TRACKING_LOSS_TIMEOUT_MS) {
 625              		.loc 1 163 0
 626 036a 2D4B     		ldr	r3, .L48+16
 627 036c 1A68     		ldr	r2, [r3]
 628 036e D7F8BC30 		ldr	r3, [r7, #188]
 629 0372 D31A     		subs	r3, r2, r3
 162:app_state_auto.c ****             last_c > ctx->state_entry_ms &&  // == At least one centroidand loss.
 630              		.loc 1 162 0
 631 0374 41F28732 		movw	r2, #4999
 632 0378 9342     		cmp	r3, r2
 633 037a 41D9     		bls	.L43
 164:app_state_auto.c ****             UART_DEBUG_PutString("[AUTO_TRACKING] centroid lost -> AUTO_LOSS\r\n");
 634              		.loc 1 164 0
 635 037c 2948     		ldr	r0, .L48+20
 636 037e FFF7FEFF 		bl	dbg_put
 165:app_state_auto.c ****             app_transition(ctx, AUTO_LOSS);
 637              		.loc 1 165 0
 638 0382 0D21     		movs	r1, #13
 639 0384 F868     		ldr	r0, [r7, #12]
 640 0386 FFF7FEFF 		bl	app_transition
 166:app_state_auto.c ****         }
 167:app_state_auto.c ****         return;
 641              		.loc 1 167 0
 642 038a 39E0     		b	.L43
 643              	.L26:
 644              	.LBE7:
ARM GAS  C:\Users\yoons\AppData\Local\Temp\ccpZOz8V.s 			page 16


 168:app_state_auto.c ****     }
 169:app_state_auto.c ****     
 170:app_state_auto.c ****     // AUTO_LOSS: hold and watch for centroids returning
 171:app_state_auto.c ****     if (ctx->state == AUTO_LOSS) {
 645              		.loc 1 171 0
 646 038c FB68     		ldr	r3, [r7, #12]
 647 038e 1B79     		ldrb	r3, [r3, #4]	@ zero_extendqisi2
 648 0390 0D2B     		cmp	r3, #13
 649 0392 1BD1     		bne	.L35
 650              	.LBB11:
 172:app_state_auto.c ****         payload_centroid_t c;
 173:app_state_auto.c ****         if (sbc_get_centroid(STREAM_COARSE, &c)) {
 651              		.loc 1 173 0
 652 0394 07F19003 		add	r3, r7, #144
 653 0398 1946     		mov	r1, r3
 654 039a 0020     		movs	r0, #0
 655 039c FFF7FEFF 		bl	sbc_get_centroid
 656 03a0 0346     		mov	r3, r0
 657 03a2 002B     		cmp	r3, #0
 658 03a4 2ED0     		beq	.L44
 174:app_state_auto.c ****             ctx->track_cx_last = c.cx;
 659              		.loc 1 174 0
 660 03a6 B7F99420 		ldrsh	r2, [r7, #148]
 661 03aa FB68     		ldr	r3, [r7, #12]
 662 03ac A3F87C20 		strh	r2, [r3, #124]	@ movhi
 175:app_state_auto.c ****             ctx->track_cy_last = c.cy;
 663              		.loc 1 175 0
 664 03b0 B7F99620 		ldrsh	r2, [r7, #150]
 665 03b4 FB68     		ldr	r3, [r7, #12]
 666 03b6 A3F87E20 		strh	r2, [r3, #126]	@ movhi
 176:app_state_auto.c ****             UART_DEBUG_PutString("[AUTO_LOSS] centroid returned -> AUTO_TRACKING\r\n");
 667              		.loc 1 176 0
 668 03ba 1B48     		ldr	r0, .L48+24
 669 03bc FFF7FEFF 		bl	dbg_put
 177:app_state_auto.c ****             app_transition(ctx, AUTO_TRACKING);
 670              		.loc 1 177 0
 671 03c0 0C21     		movs	r1, #12
 672 03c2 F868     		ldr	r0, [r7, #12]
 673 03c4 FFF7FEFF 		bl	app_transition
 178:app_state_auto.c ****         }
 179:app_state_auto.c ****         return;
 674              		.loc 1 179 0
 675 03c8 00BF     		nop
 676 03ca 1BE0     		b	.L44
 677              	.L35:
 678              	.LBE11:
 180:app_state_auto.c ****     }
 181:app_state_auto.c ****     
 182:app_state_auto.c ****     // AUTO_NO_LOCK: auto flow re-slews; manual flow waits for user.
 183:app_state_auto.c ****     // TODO: WHat if no GPS set? We should go to AUTO_HOLD rather than GPS maybe
 184:app_state_auto.c ****     if (ctx->state == AUTO_NO_LOCK) {
 679              		.loc 1 184 0
 680 03cc FB68     		ldr	r3, [r7, #12]
 681 03ce 1B79     		ldrb	r3, [r3, #4]	@ zero_extendqisi2
 682 03d0 0E2B     		cmp	r3, #14
 683 03d2 1AD1     		bne	.L7
 185:app_state_auto.c ****         if (ctx->auto_flow && ctx->gps_target_set) {
ARM GAS  C:\Users\yoons\AppData\Local\Temp\ccpZOz8V.s 			page 17


 684              		.loc 1 185 0
 685 03d4 FB68     		ldr	r3, [r7, #12]
 686 03d6 9B79     		ldrb	r3, [r3, #6]	@ zero_extendqisi2
 687 03d8 002B     		cmp	r3, #0
 688 03da 15D0     		beq	.L45
 689              		.loc 1 185 0 is_stmt 0 discriminator 1
 690 03dc FB68     		ldr	r3, [r7, #12]
 691 03de 93F83030 		ldrb	r3, [r3, #48]	@ zero_extendqisi2
 692 03e2 002B     		cmp	r3, #0
 693 03e4 10D0     		beq	.L45
 186:app_state_auto.c ****             UART_DEBUG_PutString("[AUTO_NO_LOCK] auto -> AUTO_ACQ_GPS\r\n");
 694              		.loc 1 186 0 is_stmt 1
 695 03e6 1148     		ldr	r0, .L48+28
 696 03e8 FFF7FEFF 		bl	dbg_put
 187:app_state_auto.c ****             app_transition(ctx, AUTO_ACQ_GPS);
 697              		.loc 1 187 0
 698 03ec 0A21     		movs	r1, #10
 699 03ee F868     		ldr	r0, [r7, #12]
 700 03f0 FFF7FEFF 		bl	app_transition
 188:app_state_auto.c ****         }
 189:app_state_auto.c ****         return;
 701              		.loc 1 189 0
 702 03f4 00BF     		nop
 703 03f6 07E0     		b	.L45
 704              	.L40:
 705              	.LBB12:
  85:app_state_auto.c ****     }
 706              		.loc 1 85 0
 707 03f8 00BF     		nop
 708 03fa 06E0     		b	.L7
 709              	.L41:
 710              	.LBE12:
 711              	.LBB13:
 103:app_state_auto.c ****     }
 712              		.loc 1 103 0
 713 03fc 00BF     		nop
 714 03fe 04E0     		b	.L7
 715              	.L43:
 716              	.LBE13:
 717              	.LBB14:
 167:app_state_auto.c ****     }
 718              		.loc 1 167 0
 719 0400 00BF     		nop
 720 0402 02E0     		b	.L7
 721              	.L44:
 722              	.LBE14:
 723              	.LBB15:
 179:app_state_auto.c ****     }
 724              		.loc 1 179 0
 725 0404 00BF     		nop
 726 0406 00E0     		b	.L7
 727              	.L45:
 728              	.LBE15:
 729              		.loc 1 189 0
 730 0408 00BF     		nop
 731              	.L7:
 190:app_state_auto.c ****     }
ARM GAS  C:\Users\yoons\AppData\Local\Temp\ccpZOz8V.s 			page 18


 191:app_state_auto.c ****     
 192:app_state_auto.c **** }
 732              		.loc 1 192 0
 733 040a D437     		adds	r7, r7, #212
 734              		.cfi_def_cfa_offset 20
 735 040c BD46     		mov	sp, r7
 736              		.cfi_def_cfa_register 13
 737              		@ sp needed
 738 040e F0BD     		pop	{r4, r5, r6, r7, pc}
 739              	.L49:
 740              		.align	2
 741              	.L48:
 742 0410 6F12833A 		.word	981668463
 743 0414 0AD7233C 		.word	1008981770
 744 0418 00000000 		.word	tag.8229
 745 041c 6C000000 		.word	.LC3
 746 0420 00000000 		.word	g_tick_ms
 747 0424 A8000000 		.word	.LC4
 748 0428 D8000000 		.word	.LC5
 749 042c 0C010000 		.word	.LC6
 750              		.cfi_endproc
 751              	.LFE67:
 752              		.size	app_auto_tick, .-app_auto_tick
 753              		.section	.rodata
 754 0132 0000     		.align	2
 755              	.LC7:
 756 0134 0D0A5B41 		.ascii	"\015\012[AUTO_HOME] slewing to origin  e=exit\015\012"
 756      55544F5F 
 756      484F4D45 
 756      5D20736C 
 756      6577696E 
 757 015d 3E2000   		.ascii	"> \000"
 758              		.align	2
 759              	.LC8:
 760 0160 6E6F206F 		.ascii	"no origin set (press '[' first)\000"
 760      72696769 
 760      6E207365 
 760      74202870 
 760      72657373 
 761              		.align	2
 762              	.LC9:
 763 0180 6E6F2074 		.ascii	"no telemetry (home aborted)\000"
 763      656C656D 
 763      65747279 
 763      2028686F 
 763      6D652061 
 764              		.section	.text.entry_auto_home,"ax",%progbits
 765              		.align	2
 766              		.global	entry_auto_home
 767              		.thumb
 768              		.thumb_func
 769              		.type	entry_auto_home, %function
 770              	entry_auto_home:
 771              	.LFB68:
 193:app_state_auto.c **** 
 194:app_state_auto.c **** 
 195:app_state_auto.c **** // %==========================================================================%
ARM GAS  C:\Users\yoons\AppData\Local\Temp\ccpZOz8V.s 			page 19


 196:app_state_auto.c **** // %                              AUTO_HOME                                   %
 197:app_state_auto.c **** // %==========================================================================%
 198:app_state_auto.c **** void entry_auto_home(app_ctx_t *ctx)
 199:app_state_auto.c **** {
 772              		.loc 1 199 0
 773              		.cfi_startproc
 774              		@ args = 0, pretend = 0, frame = 16
 775              		@ frame_needed = 1, uses_anonymous_args = 0
 776 0000 80B5     		push	{r7, lr}
 777              		.cfi_def_cfa_offset 8
 778              		.cfi_offset 7, -8
 779              		.cfi_offset 14, -4
 780 0002 84B0     		sub	sp, sp, #16
 781              		.cfi_def_cfa_offset 24
 782 0004 00AF     		add	r7, sp, #0
 783              		.cfi_def_cfa_register 7
 784 0006 7860     		str	r0, [r7, #4]
 200:app_state_auto.c ****     UART_DEBUG_PutString("\r\n[AUTO_HOME] slewing to origin  e=exit\r\n> ");
 785              		.loc 1 200 0
 786 0008 2348     		ldr	r0, .L55
 787 000a FFF7FEFF 		bl	dbg_put
 201:app_state_auto.c ****     // TODO: Cross verify if this is handled by entry validator.
 202:app_state_auto.c ****     // Error check: Do we have a software origin set?
 203:app_state_auto.c ****     if (!ctx->origin_set) {
 788              		.loc 1 203 0
 789 000e 7B68     		ldr	r3, [r7, #4]
 790 0010 93F88830 		ldrb	r3, [r3, #136]	@ zero_extendqisi2
 791 0014 002B     		cmp	r3, #0
 792 0016 09D1     		bne	.L51
 204:app_state_auto.c ****         app_raise_error(ctx, SEV_USER, "no origin set (press '[' first)");
 793              		.loc 1 204 0
 794 0018 204A     		ldr	r2, .L55+4
 795 001a 0021     		movs	r1, #0
 796 001c 7868     		ldr	r0, [r7, #4]
 797 001e FFF7FEFF 		bl	app_raise_error
 205:app_state_auto.c ****         app_transition(ctx, STBY_HOLD);
 798              		.loc 1 205 0
 799 0022 0621     		movs	r1, #6
 800 0024 7868     		ldr	r0, [r7, #4]
 801 0026 FFF7FEFF 		bl	app_transition
 206:app_state_auto.c ****         return;
 802              		.loc 1 206 0
 803 002a 31E0     		b	.L50
 804              	.L51:
 207:app_state_auto.c ****     }
 208:app_state_auto.c ****     // Error check: Do we have attitude telemetry from gimbal?
 209:app_state_auto.c ****     float pan, tilt;
 210:app_state_auto.c ****     if (!gimbal_pan_tilt_deg(ctx, &pan, &tilt)) {
 805              		.loc 1 210 0
 806 002c 07F10802 		add	r2, r7, #8
 807 0030 07F10C03 		add	r3, r7, #12
 808 0034 1946     		mov	r1, r3
 809 0036 7868     		ldr	r0, [r7, #4]
 810 0038 FFF7FEFF 		bl	gimbal_pan_tilt_deg
 811 003c 0346     		mov	r3, r0
 812 003e 002B     		cmp	r3, #0
 813 0040 09D1     		bne	.L53
ARM GAS  C:\Users\yoons\AppData\Local\Temp\ccpZOz8V.s 			page 20


 211:app_state_auto.c ****         app_raise_error(ctx, SEV_USER, "no telemetry (home aborted)");
 814              		.loc 1 211 0
 815 0042 174A     		ldr	r2, .L55+8
 816 0044 0021     		movs	r1, #0
 817 0046 7868     		ldr	r0, [r7, #4]
 818 0048 FFF7FEFF 		bl	app_raise_error
 212:app_state_auto.c ****         app_transition(ctx, STBY_HOLD);
 819              		.loc 1 212 0
 820 004c 0621     		movs	r1, #6
 821 004e 7868     		ldr	r0, [r7, #4]
 822 0050 FFF7FEFF 		bl	app_transition
 213:app_state_auto.c ****         return;
 823              		.loc 1 213 0
 824 0054 1CE0     		b	.L50
 825              	.L53:
 214:app_state_auto.c ****     }
 215:app_state_auto.c ****     ctx->nudge_base_pan_deg  = pan;  // Init nudge reference
 826              		.loc 1 215 0
 827 0056 FA68     		ldr	r2, [r7, #12]	@ float
 828 0058 7B68     		ldr	r3, [r7, #4]
 829 005a C3F8A020 		str	r2, [r3, #160]	@ float
 216:app_state_auto.c ****     ctx->nudge_base_tilt_deg = tilt;
 830              		.loc 1 216 0
 831 005e BA68     		ldr	r2, [r7, #8]	@ float
 832 0060 7B68     		ldr	r3, [r7, #4]
 833 0062 C3F8A420 		str	r2, [r3, #164]	@ float
 217:app_state_auto.c ****     ctx->tgt_pan_deg         = ctx->origin_pan_deg;  // TODO: Do we actualy use these??
 834              		.loc 1 217 0
 835 0066 7B68     		ldr	r3, [r7, #4]
 836 0068 D3F88020 		ldr	r2, [r3, #128]	@ float
 837 006c 7B68     		ldr	r3, [r7, #4]
 838 006e C3F8BC20 		str	r2, [r3, #188]	@ float
 218:app_state_auto.c ****     ctx->tgt_tilt_deg        = ctx->origin_tilt_deg;
 839              		.loc 1 218 0
 840 0072 7B68     		ldr	r3, [r7, #4]
 841 0074 D3F88420 		ldr	r2, [r3, #132]	@ float
 842 0078 7B68     		ldr	r3, [r7, #4]
 843 007a C3F8C020 		str	r2, [r3, #192]	@ float
 219:app_state_auto.c ****     ctx->nudge_hold          = 1u;  // Why are we triggering a nudge?
 844              		.loc 1 219 0
 845 007e 7B68     		ldr	r3, [r7, #4]
 846 0080 0122     		movs	r2, #1
 847 0082 83F89920 		strb	r2, [r3, #153]
 220:app_state_auto.c ****     ctx->nudge_start_ms      = g_tick_ms;
 848              		.loc 1 220 0
 849 0086 074B     		ldr	r3, .L55+12
 850 0088 1A68     		ldr	r2, [r3]
 851 008a 7B68     		ldr	r3, [r7, #4]
 852 008c C3F89C20 		str	r2, [r3, #156]
 853              	.L50:
 221:app_state_auto.c **** }
 854              		.loc 1 221 0
 855 0090 1037     		adds	r7, r7, #16
 856              		.cfi_def_cfa_offset 8
 857 0092 BD46     		mov	sp, r7
 858              		.cfi_def_cfa_register 13
 859              		@ sp needed
ARM GAS  C:\Users\yoons\AppData\Local\Temp\ccpZOz8V.s 			page 21


 860 0094 80BD     		pop	{r7, pc}
 861              	.L56:
 862 0096 00BF     		.align	2
 863              	.L55:
 864 0098 34010000 		.word	.LC7
 865 009c 60010000 		.word	.LC8
 866 00a0 80010000 		.word	.LC9
 867 00a4 00000000 		.word	g_tick_ms
 868              		.cfi_endproc
 869              	.LFE68:
 870              		.size	entry_auto_home, .-entry_auto_home
 871              		.section	.text.exit_auto_home,"ax",%progbits
 872              		.align	2
 873              		.global	exit_auto_home
 874              		.thumb
 875              		.thumb_func
 876              		.type	exit_auto_home, %function
 877              	exit_auto_home:
 878              	.LFB69:
 222:app_state_auto.c **** 
 223:app_state_auto.c **** void exit_auto_home(app_ctx_t *ctx)
 224:app_state_auto.c **** {
 879              		.loc 1 224 0
 880              		.cfi_startproc
 881              		@ args = 0, pretend = 0, frame = 8
 882              		@ frame_needed = 1, uses_anonymous_args = 0
 883 0000 80B5     		push	{r7, lr}
 884              		.cfi_def_cfa_offset 8
 885              		.cfi_offset 7, -8
 886              		.cfi_offset 14, -4
 887 0002 82B0     		sub	sp, sp, #8
 888              		.cfi_def_cfa_offset 16
 889 0004 00AF     		add	r7, sp, #0
 890              		.cfi_def_cfa_register 7
 891 0006 7860     		str	r0, [r7, #4]
 225:app_state_auto.c ****     // Clear any nudge hold
 226:app_state_auto.c ****     ctx->nudge_hold = 0u;
 892              		.loc 1 226 0
 893 0008 7B68     		ldr	r3, [r7, #4]
 894 000a 0022     		movs	r2, #0
 895 000c 83F89920 		strb	r2, [r3, #153]
 227:app_state_auto.c ****     // Flush centroid after slew.
 228:app_state_auto.c ****     sbc_discard_centroid(STREAM_COARSE);
 896              		.loc 1 228 0
 897 0010 0020     		movs	r0, #0
 898 0012 FFF7FEFF 		bl	sbc_discard_centroid
 229:app_state_auto.c ****     // Reset return stby flag to default
 230:app_state_auto.c ****     ctx->home_return_stby = 0u;
 899              		.loc 1 230 0
 900 0016 7B68     		ldr	r3, [r7, #4]
 901 0018 0022     		movs	r2, #0
 902 001a DA71     		strb	r2, [r3, #7]
 231:app_state_auto.c **** }
 903              		.loc 1 231 0
 904 001c 00BF     		nop
 905 001e 0837     		adds	r7, r7, #8
 906              		.cfi_def_cfa_offset 8
ARM GAS  C:\Users\yoons\AppData\Local\Temp\ccpZOz8V.s 			page 22


 907 0020 BD46     		mov	sp, r7
 908              		.cfi_def_cfa_register 13
 909              		@ sp needed
 910 0022 80BD     		pop	{r7, pc}
 911              		.cfi_endproc
 912              	.LFE69:
 913              		.size	exit_auto_home, .-exit_auto_home
 914              		.section	.text.key_auto_home,"ax",%progbits
 915              		.align	2
 916              		.global	key_auto_home
 917              		.thumb
 918              		.thumb_func
 919              		.type	key_auto_home, %function
 920              	key_auto_home:
 921              	.LFB70:
 232:app_state_auto.c **** 
 233:app_state_auto.c **** uint8_t key_auto_home(app_ctx_t *ctx, char k)
 234:app_state_auto.c **** {
 922              		.loc 1 234 0
 923              		.cfi_startproc
 924              		@ args = 0, pretend = 0, frame = 8
 925              		@ frame_needed = 1, uses_anonymous_args = 0
 926 0000 80B5     		push	{r7, lr}
 927              		.cfi_def_cfa_offset 8
 928              		.cfi_offset 7, -8
 929              		.cfi_offset 14, -4
 930 0002 82B0     		sub	sp, sp, #8
 931              		.cfi_def_cfa_offset 16
 932 0004 00AF     		add	r7, sp, #0
 933              		.cfi_def_cfa_register 7
 934 0006 7860     		str	r0, [r7, #4]
 935 0008 0B46     		mov	r3, r1
 936 000a FB70     		strb	r3, [r7, #3]
 235:app_state_auto.c ****     // Exit home with e
 236:app_state_auto.c ****     switch (k) {
 937              		.loc 1 236 0
 938 000c FB78     		ldrb	r3, [r7, #3]	@ zero_extendqisi2
 939 000e 652B     		cmp	r3, #101
 940 0010 05D1     		bne	.L62
 237:app_state_auto.c ****         case 'e': app_transition(ctx, STBY_HOLD); return 1;
 941              		.loc 1 237 0
 942 0012 0621     		movs	r1, #6
 943 0014 7868     		ldr	r0, [r7, #4]
 944 0016 FFF7FEFF 		bl	app_transition
 945 001a 0123     		movs	r3, #1
 946 001c 00E0     		b	.L61
 947              	.L62:
 238:app_state_auto.c ****         default:  return 0;
 948              		.loc 1 238 0
 949 001e 0023     		movs	r3, #0
 950              	.L61:
 239:app_state_auto.c ****     }
 240:app_state_auto.c **** }
 951              		.loc 1 240 0
 952 0020 1846     		mov	r0, r3
 953 0022 0837     		adds	r7, r7, #8
 954              		.cfi_def_cfa_offset 8
ARM GAS  C:\Users\yoons\AppData\Local\Temp\ccpZOz8V.s 			page 23


 955 0024 BD46     		mov	sp, r7
 956              		.cfi_def_cfa_register 13
 957              		@ sp needed
 958 0026 80BD     		pop	{r7, pc}
 959              		.cfi_endproc
 960              	.LFE70:
 961              		.size	key_auto_home, .-key_auto_home
 962              		.section	.text.build_auto_home,"ax",%progbits
 963              		.align	2
 964              		.global	build_auto_home
 965              		.thumb
 966              		.thumb_func
 967              		.type	build_auto_home, %function
 968              	build_auto_home:
 969              	.LFB71:
 241:app_state_auto.c **** 
 242:app_state_auto.c **** void build_auto_home(const app_ctx_t *ctx, hamfly_control_t *out)
 243:app_state_auto.c **** {
 970              		.loc 1 243 0
 971              		.cfi_startproc
 972              		@ args = 0, pretend = 0, frame = 8
 973              		@ frame_needed = 1, uses_anonymous_args = 0
 974 0000 80B5     		push	{r7, lr}
 975              		.cfi_def_cfa_offset 8
 976              		.cfi_offset 7, -8
 977              		.cfi_offset 14, -4
 978 0002 82B0     		sub	sp, sp, #8
 979              		.cfi_def_cfa_offset 16
 980 0004 00AF     		add	r7, sp, #0
 981              		.cfi_def_cfa_register 7
 982 0006 7860     		str	r0, [r7, #4]
 983 0008 3960     		str	r1, [r7]
 244:app_state_auto.c ****     // Use absolute mode to point to saftware origin.
 245:app_state_auto.c ****     // Software origin defaults to gimbal origin.
 246:app_state_auto.c ****     out->kill      = 0u;
 984              		.loc 1 246 0
 985 000a 3B68     		ldr	r3, [r7]
 986 000c 0022     		movs	r2, #0
 987 000e 1A74     		strb	r2, [r3, #16]
 247:app_state_auto.c ****     out->roll_mode = HAMFLY_DEFER;
 988              		.loc 1 247 0
 989 0010 3B68     		ldr	r3, [r7]
 990 0012 0022     		movs	r2, #0
 991 0014 9A73     		strb	r2, [r3, #14]
 248:app_state_auto.c ****     out->roll      = 0.0f;
 992              		.loc 1 248 0
 993 0016 3B68     		ldr	r3, [r7]
 994 0018 4FF00002 		mov	r2, #0
 995 001c 9A60     		str	r2, [r3, #8]	@ float
 249:app_state_auto.c ****     out->pan_mode  = out->tilt_mode = HAMFLY_ABSOLUTE;
 996              		.loc 1 249 0
 997 001e 3B68     		ldr	r3, [r7]
 998 0020 0222     		movs	r2, #2
 999 0022 5A73     		strb	r2, [r3, #13]
 1000 0024 3B68     		ldr	r3, [r7]
 1001 0026 5A7B     		ldrb	r2, [r3, #13]	@ zero_extendqisi2
 1002 0028 3B68     		ldr	r3, [r7]
ARM GAS  C:\Users\yoons\AppData\Local\Temp\ccpZOz8V.s 			page 24


 1003 002a 1A73     		strb	r2, [r3, #12]
 250:app_state_auto.c ****     out->pan  = DEG_TO_UNIT(ctx->tgt_pan_deg - ctx->nudge_base_pan_deg);
 1004              		.loc 1 250 0
 1005 002c 7B68     		ldr	r3, [r7, #4]
 1006 002e D3F8BC20 		ldr	r2, [r3, #188]	@ float
 1007 0032 7B68     		ldr	r3, [r7, #4]
 1008 0034 D3F8A030 		ldr	r3, [r3, #160]	@ float
 1009 0038 1946     		mov	r1, r3
 1010 003a 1046     		mov	r0, r2
 1011 003c FFF7FEFF 		bl	__aeabi_fsub
 1012 0040 0346     		mov	r3, r0
 1013 0042 0B49     		ldr	r1, .L64
 1014 0044 1846     		mov	r0, r3
 1015 0046 FFF7FEFF 		bl	__aeabi_fdiv
 1016 004a 0346     		mov	r3, r0
 1017 004c 1A46     		mov	r2, r3
 1018 004e 3B68     		ldr	r3, [r7]
 1019 0050 1A60     		str	r2, [r3]	@ float
 251:app_state_auto.c ****     out->tilt = DEG_TO_UNIT(ctx->tgt_tilt_deg);
 1020              		.loc 1 251 0
 1021 0052 7B68     		ldr	r3, [r7, #4]
 1022 0054 D3F8C030 		ldr	r3, [r3, #192]	@ float
 1023 0058 0549     		ldr	r1, .L64
 1024 005a 1846     		mov	r0, r3
 1025 005c FFF7FEFF 		bl	__aeabi_fdiv
 1026 0060 0346     		mov	r3, r0
 1027 0062 1A46     		mov	r2, r3
 1028 0064 3B68     		ldr	r3, [r7]
 1029 0066 5A60     		str	r2, [r3, #4]	@ float
 252:app_state_auto.c **** }
 1030              		.loc 1 252 0
 1031 0068 00BF     		nop
 1032 006a 0837     		adds	r7, r7, #8
 1033              		.cfi_def_cfa_offset 8
 1034 006c BD46     		mov	sp, r7
 1035              		.cfi_def_cfa_register 13
 1036              		@ sp needed
 1037 006e 80BD     		pop	{r7, pc}
 1038              	.L65:
 1039              		.align	2
 1040              	.L64:
 1041 0070 00003443 		.word	1127481344
 1042              		.cfi_endproc
 1043              	.LFE71:
 1044              		.size	build_auto_home, .-build_auto_home
 1045              		.section	.rodata
 1046              		.align	2
 1047              	.LC10:
 1048 019c 0D0A5B41 		.ascii	"\015\012[AUTO_HOLD] holding, watching for centroids"
 1048      55544F5F 
 1048      484F4C44 
 1048      5D20686F 
 1048      6C64696E 
 1049 01c9 0D0A3E20 		.ascii	"\015\012> \000"
 1049      00
 1050              		.section	.text.entry_auto_hold,"ax",%progbits
 1051              		.align	2
ARM GAS  C:\Users\yoons\AppData\Local\Temp\ccpZOz8V.s 			page 25


 1052              		.global	entry_auto_hold
 1053              		.thumb
 1054              		.thumb_func
 1055              		.type	entry_auto_hold, %function
 1056              	entry_auto_hold:
 1057              	.LFB72:
 253:app_state_auto.c **** 
 254:app_state_auto.c **** // %==========================================================================%
 255:app_state_auto.c **** // %                              AUTO_HOLD                                   %
 256:app_state_auto.c **** // %==========================================================================%
 257:app_state_auto.c **** void entry_auto_hold(app_ctx_t *ctx)
 258:app_state_auto.c **** {
 1058              		.loc 1 258 0
 1059              		.cfi_startproc
 1060              		@ args = 0, pretend = 0, frame = 8
 1061              		@ frame_needed = 1, uses_anonymous_args = 0
 1062 0000 80B5     		push	{r7, lr}
 1063              		.cfi_def_cfa_offset 8
 1064              		.cfi_offset 7, -8
 1065              		.cfi_offset 14, -4
 1066 0002 82B0     		sub	sp, sp, #8
 1067              		.cfi_def_cfa_offset 16
 1068 0004 00AF     		add	r7, sp, #0
 1069              		.cfi_def_cfa_register 7
 1070 0006 7860     		str	r0, [r7, #4]
 259:app_state_auto.c ****     // Start timer for how long we are in hold
 260:app_state_auto.c ****     ctx->auto_hold_entry_ms = g_tick_ms;
 1071              		.loc 1 260 0
 1072 0008 054B     		ldr	r3, .L67
 1073 000a 1A68     		ldr	r2, [r3]
 1074 000c 7B68     		ldr	r3, [r7, #4]
 1075 000e 9A60     		str	r2, [r3, #8]
 261:app_state_auto.c ****     UART_DEBUG_PutString("\r\n[AUTO_HOLD] holding, watching for centroids\r\n> ");
 1076              		.loc 1 261 0
 1077 0010 0448     		ldr	r0, .L67+4
 1078 0012 FFF7FEFF 		bl	dbg_put
 262:app_state_auto.c **** }
 1079              		.loc 1 262 0
 1080 0016 00BF     		nop
 1081 0018 0837     		adds	r7, r7, #8
 1082              		.cfi_def_cfa_offset 8
 1083 001a BD46     		mov	sp, r7
 1084              		.cfi_def_cfa_register 13
 1085              		@ sp needed
 1086 001c 80BD     		pop	{r7, pc}
 1087              	.L68:
 1088 001e 00BF     		.align	2
 1089              	.L67:
 1090 0020 00000000 		.word	g_tick_ms
 1091 0024 9C010000 		.word	.LC10
 1092              		.cfi_endproc
 1093              	.LFE72:
 1094              		.size	entry_auto_hold, .-entry_auto_hold
 1095              		.section	.text.key_auto_hold,"ax",%progbits
 1096              		.align	2
 1097              		.global	key_auto_hold
 1098              		.thumb
ARM GAS  C:\Users\yoons\AppData\Local\Temp\ccpZOz8V.s 			page 26


 1099              		.thumb_func
 1100              		.type	key_auto_hold, %function
 1101              	key_auto_hold:
 1102              	.LFB73:
 263:app_state_auto.c **** 
 264:app_state_auto.c **** uint8_t key_auto_hold(app_ctx_t *ctx, char k)
 265:app_state_auto.c **** {
 1103              		.loc 1 265 0
 1104              		.cfi_startproc
 1105              		@ args = 0, pretend = 0, frame = 8
 1106              		@ frame_needed = 1, uses_anonymous_args = 0
 1107 0000 80B5     		push	{r7, lr}
 1108              		.cfi_def_cfa_offset 8
 1109              		.cfi_offset 7, -8
 1110              		.cfi_offset 14, -4
 1111 0002 82B0     		sub	sp, sp, #8
 1112              		.cfi_def_cfa_offset 16
 1113 0004 00AF     		add	r7, sp, #0
 1114              		.cfi_def_cfa_register 7
 1115 0006 7860     		str	r0, [r7, #4]
 1116 0008 0B46     		mov	r3, r1
 1117 000a FB70     		strb	r3, [r7, #3]
 266:app_state_auto.c ****     // Check if we are handling a nudge first
 267:app_state_auto.c ****     if (handle_nudge_key(ctx, k)) return 1;
 1118              		.loc 1 267 0
 1119 000c FB78     		ldrb	r3, [r7, #3]	@ zero_extendqisi2
 1120 000e 1946     		mov	r1, r3
 1121 0010 7868     		ldr	r0, [r7, #4]
 1122 0012 FFF7FEFF 		bl	handle_nudge_key
 1123 0016 0346     		mov	r3, r0
 1124 0018 002B     		cmp	r3, #0
 1125 001a 01D0     		beq	.L70
 1126              		.loc 1 267 0 is_stmt 0 discriminator 1
 1127 001c 0123     		movs	r3, #1
 1128 001e 00E0     		b	.L71
 1129              	.L70:
 268:app_state_auto.c ****     // Serial debug can exit
 269:app_state_auto.c ****     switch (k) {
 270:app_state_auto.c ****         default:  return 0;
 1130              		.loc 1 270 0 is_stmt 1
 1131 0020 0023     		movs	r3, #0
 1132              	.L71:
 271:app_state_auto.c ****     }
 272:app_state_auto.c **** }
 1133              		.loc 1 272 0
 1134 0022 1846     		mov	r0, r3
 1135 0024 0837     		adds	r7, r7, #8
 1136              		.cfi_def_cfa_offset 8
 1137 0026 BD46     		mov	sp, r7
 1138              		.cfi_def_cfa_register 13
 1139              		@ sp needed
 1140 0028 80BD     		pop	{r7, pc}
 1141              		.cfi_endproc
 1142              	.LFE73:
 1143              		.size	key_auto_hold, .-key_auto_hold
 1144              		.global	__aeabi_fadd
 1145 002a 00BF     		.section	.text.gps_bearing_deg,"ax",%progbits
ARM GAS  C:\Users\yoons\AppData\Local\Temp\ccpZOz8V.s 			page 27


 1146              		.align	2
 1147              		.thumb
 1148              		.thumb_func
 1149              		.type	gps_bearing_deg, %function
 1150              	gps_bearing_deg:
 1151              	.LFB74:
 273:app_state_auto.c **** 
 274:app_state_auto.c **** // %==========================================================================%
 275:app_state_auto.c **** // %                        AUTO_ACQ_GPS + GPS math                           %
 276:app_state_auto.c **** // %==========================================================================%
 277:app_state_auto.c **** // Note: Keep in mind PSoC 5 LP has no FPU! This means we should avoid
 278:app_state_auto.c **** // floating-point arithmatic as much as possible. But this is not a speed 
 279:app_state_auto.c **** // concern yet so we will keep simulated floating point.
 280:app_state_auto.c **** 
 281:app_state_auto.c **** // TODO: The GPS math stub doesnt need to live here. HamflyAPI should introduce
 282:app_state_auto.c **** // a point at coordinate like function which takes in a target coordinate, and
 283:app_state_auto.c **** // uses its gps reading (if available) to point at another coordinate in user
 284:app_state_auto.c **** // selectable abs or majestic mode. THis would offload the bulk here to the API
 285:app_state_auto.c **** // at the expense of being blind to FP or intiger math.
 286:app_state_auto.c **** 
 287:app_state_auto.c **** // TODO: Currently we use bearing/elevation geometry, but we should move to
 288:app_state_auto.c **** // ECEF Vector math, however we first need to validate IMU data from the gimble
 289:app_state_auto.c **** // or get an external IMU.
 290:app_state_auto.c **** static float gps_bearing_deg(float lat1, float lon1, float lat2, float lon2)
 291:app_state_auto.c **** {
 1152              		.loc 1 291 0
 1153              		.cfi_startproc
 1154              		@ args = 0, pretend = 0, frame = 40
 1155              		@ frame_needed = 1, uses_anonymous_args = 0
 1156 0000 B0B5     		push	{r4, r5, r7, lr}
 1157              		.cfi_def_cfa_offset 16
 1158              		.cfi_offset 4, -16
 1159              		.cfi_offset 5, -12
 1160              		.cfi_offset 7, -8
 1161              		.cfi_offset 14, -4
 1162 0002 8AB0     		sub	sp, sp, #40
 1163              		.cfi_def_cfa_offset 56
 1164 0004 00AF     		add	r7, sp, #0
 1165              		.cfi_def_cfa_register 7
 1166 0006 F860     		str	r0, [r7, #12]	@ float
 1167 0008 B960     		str	r1, [r7, #8]	@ float
 1168 000a 7A60     		str	r2, [r7, #4]	@ float
 1169 000c 3B60     		str	r3, [r7]	@ float
 292:app_state_auto.c ****     // Calculates bearing between two points in degrees.
 293:app_state_auto.c ****     float la1 = lat1 * DEG_TO_RAD, la2 = lat2 * DEG_TO_RAD;
 1170              		.loc 1 293 0
 1171 000e 3749     		ldr	r1, .L77
 1172 0010 F868     		ldr	r0, [r7, #12]	@ float
 1173 0012 FFF7FEFF 		bl	__aeabi_fmul
 1174 0016 0346     		mov	r3, r0
 1175 0018 3B62     		str	r3, [r7, #32]	@ float
 1176 001a 3449     		ldr	r1, .L77
 1177 001c 7868     		ldr	r0, [r7, #4]	@ float
 1178 001e FFF7FEFF 		bl	__aeabi_fmul
 1179 0022 0346     		mov	r3, r0
 1180 0024 FB61     		str	r3, [r7, #28]	@ float
 294:app_state_auto.c ****     float dlo = (lon2 - lon1) * DEG_TO_RAD;
ARM GAS  C:\Users\yoons\AppData\Local\Temp\ccpZOz8V.s 			page 28


 1181              		.loc 1 294 0
 1182 0026 B968     		ldr	r1, [r7, #8]	@ float
 1183 0028 3868     		ldr	r0, [r7]	@ float
 1184 002a FFF7FEFF 		bl	__aeabi_fsub
 1185 002e 0346     		mov	r3, r0
 1186 0030 2E49     		ldr	r1, .L77
 1187 0032 1846     		mov	r0, r3
 1188 0034 FFF7FEFF 		bl	__aeabi_fmul
 1189 0038 0346     		mov	r3, r0
 1190 003a BB61     		str	r3, [r7, #24]	@ float
 295:app_state_auto.c ****     float x   = sinf(dlo) * cosf(la2);
 1191              		.loc 1 295 0
 1192 003c B869     		ldr	r0, [r7, #24]	@ float
 1193 003e FFF7FEFF 		bl	sinf
 1194 0042 0446     		mov	r4, r0
 1195 0044 F869     		ldr	r0, [r7, #28]	@ float
 1196 0046 FFF7FEFF 		bl	cosf
 1197 004a 0346     		mov	r3, r0
 1198 004c 1946     		mov	r1, r3
 1199 004e 2046     		mov	r0, r4
 1200 0050 FFF7FEFF 		bl	__aeabi_fmul
 1201 0054 0346     		mov	r3, r0
 1202 0056 7B61     		str	r3, [r7, #20]	@ float
 296:app_state_auto.c ****     float y   = cosf(la1) * sinf(la2) - sinf(la1) * cosf(la2) * cosf(dlo);
 1203              		.loc 1 296 0
 1204 0058 386A     		ldr	r0, [r7, #32]	@ float
 1205 005a FFF7FEFF 		bl	cosf
 1206 005e 0446     		mov	r4, r0
 1207 0060 F869     		ldr	r0, [r7, #28]	@ float
 1208 0062 FFF7FEFF 		bl	sinf
 1209 0066 0346     		mov	r3, r0
 1210 0068 1946     		mov	r1, r3
 1211 006a 2046     		mov	r0, r4
 1212 006c FFF7FEFF 		bl	__aeabi_fmul
 1213 0070 0346     		mov	r3, r0
 1214 0072 1C46     		mov	r4, r3
 1215 0074 386A     		ldr	r0, [r7, #32]	@ float
 1216 0076 FFF7FEFF 		bl	sinf
 1217 007a 0546     		mov	r5, r0
 1218 007c F869     		ldr	r0, [r7, #28]	@ float
 1219 007e FFF7FEFF 		bl	cosf
 1220 0082 0346     		mov	r3, r0
 1221 0084 1946     		mov	r1, r3
 1222 0086 2846     		mov	r0, r5
 1223 0088 FFF7FEFF 		bl	__aeabi_fmul
 1224 008c 0346     		mov	r3, r0
 1225 008e 1D46     		mov	r5, r3
 1226 0090 B869     		ldr	r0, [r7, #24]	@ float
 1227 0092 FFF7FEFF 		bl	cosf
 1228 0096 0346     		mov	r3, r0
 1229 0098 1946     		mov	r1, r3
 1230 009a 2846     		mov	r0, r5
 1231 009c FFF7FEFF 		bl	__aeabi_fmul
 1232 00a0 0346     		mov	r3, r0
 1233 00a2 1946     		mov	r1, r3
 1234 00a4 2046     		mov	r0, r4
 1235 00a6 FFF7FEFF 		bl	__aeabi_fsub
ARM GAS  C:\Users\yoons\AppData\Local\Temp\ccpZOz8V.s 			page 29


 1236 00aa 0346     		mov	r3, r0
 1237 00ac 3B61     		str	r3, [r7, #16]	@ float
 297:app_state_auto.c ****     float b   = atan2f(x, y) * RAD_TO_DEG;
 1238              		.loc 1 297 0
 1239 00ae 3969     		ldr	r1, [r7, #16]	@ float
 1240 00b0 7869     		ldr	r0, [r7, #20]	@ float
 1241 00b2 FFF7FEFF 		bl	atan2f
 1242 00b6 0346     		mov	r3, r0
 1243 00b8 0D49     		ldr	r1, .L77+4
 1244 00ba 1846     		mov	r0, r3
 1245 00bc FFF7FEFF 		bl	__aeabi_fmul
 1246 00c0 0346     		mov	r3, r0
 1247 00c2 7B62     		str	r3, [r7, #36]	@ float
 298:app_state_auto.c ****     if (b < 0.0f) b += 360.0f;
 1248              		.loc 1 298 0
 1249 00c4 4FF00001 		mov	r1, #0
 1250 00c8 786A     		ldr	r0, [r7, #36]	@ float
 1251 00ca FFF7FEFF 		bl	__aeabi_fcmplt
 1252 00ce 0346     		mov	r3, r0
 1253 00d0 002B     		cmp	r3, #0
 1254 00d2 05D0     		beq	.L73
 1255              		.loc 1 298 0 is_stmt 0 discriminator 1
 1256 00d4 0749     		ldr	r1, .L77+8
 1257 00d6 786A     		ldr	r0, [r7, #36]	@ float
 1258 00d8 FFF7FEFF 		bl	__aeabi_fadd
 1259 00dc 0346     		mov	r3, r0
 1260 00de 7B62     		str	r3, [r7, #36]	@ float
 1261              	.L73:
 299:app_state_auto.c ****     return b;  // 0 = North, clockwise
 1262              		.loc 1 299 0 is_stmt 1
 1263 00e0 7B6A     		ldr	r3, [r7, #36]	@ float
 300:app_state_auto.c **** }
 1264              		.loc 1 300 0
 1265 00e2 1846     		mov	r0, r3
 1266 00e4 2837     		adds	r7, r7, #40
 1267              		.cfi_def_cfa_offset 16
 1268 00e6 BD46     		mov	sp, r7
 1269              		.cfi_def_cfa_register 13
 1270              		@ sp needed
 1271 00e8 B0BD     		pop	{r4, r5, r7, pc}
 1272              	.L78:
 1273 00ea 00BF     		.align	2
 1274              	.L77:
 1275 00ec 98F98E3C 		.word	1016002968
 1276 00f0 E62E6542 		.word	1113927398
 1277 00f4 0000B443 		.word	1135869952
 1278              		.cfi_endproc
 1279              	.LFE74:
 1280              		.size	gps_bearing_deg, .-gps_bearing_deg
 1281              		.section	.text.gps_elev_deg,"ax",%progbits
 1282              		.align	2
 1283              		.thumb
 1284              		.thumb_func
 1285              		.type	gps_elev_deg, %function
 1286              	gps_elev_deg:
 1287              	.LFB75:
 301:app_state_auto.c **** static float gps_elev_deg(float lat1, float lon1, float alt1_m,
ARM GAS  C:\Users\yoons\AppData\Local\Temp\ccpZOz8V.s 			page 30


 302:app_state_auto.c ****                           float lat2, float lon2, float alt2_m)
 303:app_state_auto.c **** {
 1288              		.loc 1 303 0
 1289              		.cfi_startproc
 1290              		@ args = 8, pretend = 0, frame = 40
 1291              		@ frame_needed = 1, uses_anonymous_args = 0
 1292 0000 B0B5     		push	{r4, r5, r7, lr}
 1293              		.cfi_def_cfa_offset 16
 1294              		.cfi_offset 4, -16
 1295              		.cfi_offset 5, -12
 1296              		.cfi_offset 7, -8
 1297              		.cfi_offset 14, -4
 1298 0002 8AB0     		sub	sp, sp, #40
 1299              		.cfi_def_cfa_offset 56
 1300 0004 00AF     		add	r7, sp, #0
 1301              		.cfi_def_cfa_register 7
 1302 0006 F860     		str	r0, [r7, #12]	@ float
 1303 0008 B960     		str	r1, [r7, #8]	@ float
 1304 000a 7A60     		str	r2, [r7, #4]	@ float
 1305 000c 3B60     		str	r3, [r7]	@ float
 304:app_state_auto.c ****     // COmputes elevation angle between two points in degrees.
 305:app_state_auto.c ****     float la1 = lat1 * DEG_TO_RAD, la2 = lat2 * DEG_TO_RAD;
 1306              		.loc 1 305 0
 1307 000e 5049     		ldr	r1, .L84
 1308 0010 F868     		ldr	r0, [r7, #12]	@ float
 1309 0012 FFF7FEFF 		bl	__aeabi_fmul
 1310 0016 0346     		mov	r3, r0
 1311 0018 3B62     		str	r3, [r7, #32]	@ float
 1312 001a 4D49     		ldr	r1, .L84
 1313 001c 3868     		ldr	r0, [r7]	@ float
 1314 001e FFF7FEFF 		bl	__aeabi_fmul
 1315 0022 0346     		mov	r3, r0
 1316 0024 FB61     		str	r3, [r7, #28]	@ float
 306:app_state_auto.c ****     float dlo = (lon2 - lon1) * DEG_TO_RAD;
 1317              		.loc 1 306 0
 1318 0026 B968     		ldr	r1, [r7, #8]	@ float
 1319 0028 B86B     		ldr	r0, [r7, #56]	@ float
 1320 002a FFF7FEFF 		bl	__aeabi_fsub
 1321 002e 0346     		mov	r3, r0
 1322 0030 4749     		ldr	r1, .L84
 1323 0032 1846     		mov	r0, r3
 1324 0034 FFF7FEFF 		bl	__aeabi_fmul
 1325 0038 0346     		mov	r3, r0
 1326 003a BB61     		str	r3, [r7, #24]	@ float
 307:app_state_auto.c ****     float dla = la2 - la1;
 1327              		.loc 1 307 0
 1328 003c 396A     		ldr	r1, [r7, #32]	@ float
 1329 003e F869     		ldr	r0, [r7, #28]	@ float
 1330 0040 FFF7FEFF 		bl	__aeabi_fsub
 1331 0044 0346     		mov	r3, r0
 1332 0046 7B61     		str	r3, [r7, #20]	@ float
 308:app_state_auto.c ****     float a   = sinf(dla * 0.5f) * sinf(dla * 0.5f)
 1333              		.loc 1 308 0
 1334 0048 4FF07C51 		mov	r1, #1056964608
 1335 004c 7869     		ldr	r0, [r7, #20]	@ float
 1336 004e FFF7FEFF 		bl	__aeabi_fmul
 1337 0052 0346     		mov	r3, r0
ARM GAS  C:\Users\yoons\AppData\Local\Temp\ccpZOz8V.s 			page 31


 1338 0054 1846     		mov	r0, r3
 1339 0056 FFF7FEFF 		bl	sinf
 1340 005a 0446     		mov	r4, r0
 1341 005c 4FF07C51 		mov	r1, #1056964608
 1342 0060 7869     		ldr	r0, [r7, #20]	@ float
 1343 0062 FFF7FEFF 		bl	__aeabi_fmul
 1344 0066 0346     		mov	r3, r0
 1345 0068 1846     		mov	r0, r3
 1346 006a FFF7FEFF 		bl	sinf
 1347 006e 0346     		mov	r3, r0
 1348 0070 1946     		mov	r1, r3
 1349 0072 2046     		mov	r0, r4
 1350 0074 FFF7FEFF 		bl	__aeabi_fmul
 1351 0078 0346     		mov	r3, r0
 1352 007a 1C46     		mov	r4, r3
 309:app_state_auto.c ****               + cosf(la1) * cosf(la2) * sinf(dlo * 0.5f) * sinf(dlo * 0.5f);
 1353              		.loc 1 309 0
 1354 007c 386A     		ldr	r0, [r7, #32]	@ float
 1355 007e FFF7FEFF 		bl	cosf
 1356 0082 0546     		mov	r5, r0
 1357 0084 F869     		ldr	r0, [r7, #28]	@ float
 1358 0086 FFF7FEFF 		bl	cosf
 1359 008a 0346     		mov	r3, r0
 1360 008c 1946     		mov	r1, r3
 1361 008e 2846     		mov	r0, r5
 1362 0090 FFF7FEFF 		bl	__aeabi_fmul
 1363 0094 0346     		mov	r3, r0
 1364 0096 1D46     		mov	r5, r3
 1365 0098 4FF07C51 		mov	r1, #1056964608
 1366 009c B869     		ldr	r0, [r7, #24]	@ float
 1367 009e FFF7FEFF 		bl	__aeabi_fmul
 1368 00a2 0346     		mov	r3, r0
 1369 00a4 1846     		mov	r0, r3
 1370 00a6 FFF7FEFF 		bl	sinf
 1371 00aa 0346     		mov	r3, r0
 1372 00ac 1946     		mov	r1, r3
 1373 00ae 2846     		mov	r0, r5
 1374 00b0 FFF7FEFF 		bl	__aeabi_fmul
 1375 00b4 0346     		mov	r3, r0
 1376 00b6 1D46     		mov	r5, r3
 1377 00b8 4FF07C51 		mov	r1, #1056964608
 1378 00bc B869     		ldr	r0, [r7, #24]	@ float
 1379 00be FFF7FEFF 		bl	__aeabi_fmul
 1380 00c2 0346     		mov	r3, r0
 1381 00c4 1846     		mov	r0, r3
 1382 00c6 FFF7FEFF 		bl	sinf
 1383 00ca 0346     		mov	r3, r0
 1384 00cc 1946     		mov	r1, r3
 1385 00ce 2846     		mov	r0, r5
 1386 00d0 FFF7FEFF 		bl	__aeabi_fmul
 1387 00d4 0346     		mov	r3, r0
 308:app_state_auto.c ****     float a   = sinf(dla * 0.5f) * sinf(dla * 0.5f)
 1388              		.loc 1 308 0
 1389 00d6 1946     		mov	r1, r3
 1390 00d8 2046     		mov	r0, r4
 1391 00da FFF7FEFF 		bl	__aeabi_fadd
 1392 00de 0346     		mov	r3, r0
ARM GAS  C:\Users\yoons\AppData\Local\Temp\ccpZOz8V.s 			page 32


 1393 00e0 3B61     		str	r3, [r7, #16]	@ float
 310:app_state_auto.c ****     float dist_m = 2.0f * GPS_EARTH_R_M * atan2f(sqrtf(a), sqrtf(1.0f - a));
 1394              		.loc 1 310 0
 1395 00e2 3869     		ldr	r0, [r7, #16]	@ float
 1396 00e4 FFF7FEFF 		bl	sqrtf
 1397 00e8 0446     		mov	r4, r0
 1398 00ea 3969     		ldr	r1, [r7, #16]	@ float
 1399 00ec 4FF07E50 		mov	r0, #1065353216
 1400 00f0 FFF7FEFF 		bl	__aeabi_fsub
 1401 00f4 0346     		mov	r3, r0
 1402 00f6 1846     		mov	r0, r3
 1403 00f8 FFF7FEFF 		bl	sqrtf
 1404 00fc 0346     		mov	r3, r0
 1405 00fe 1946     		mov	r1, r3
 1406 0100 2046     		mov	r0, r4
 1407 0102 FFF7FEFF 		bl	atan2f
 1408 0106 0346     		mov	r3, r0
 1409 0108 1249     		ldr	r1, .L84+4
 1410 010a 1846     		mov	r0, r3
 1411 010c FFF7FEFF 		bl	__aeabi_fmul
 1412 0110 0346     		mov	r3, r0
 1413 0112 7B62     		str	r3, [r7, #36]	@ float
 311:app_state_auto.c ****     if (dist_m < 1.0f) dist_m = 1.0f;  // guard div/0 at zero range
 1414              		.loc 1 311 0
 1415 0114 4FF07E51 		mov	r1, #1065353216
 1416 0118 786A     		ldr	r0, [r7, #36]	@ float
 1417 011a FFF7FEFF 		bl	__aeabi_fcmplt
 1418 011e 0346     		mov	r3, r0
 1419 0120 002B     		cmp	r3, #0
 1420 0122 02D0     		beq	.L80
 1421              		.loc 1 311 0 is_stmt 0 discriminator 1
 1422 0124 4FF07E53 		mov	r3, #1065353216
 1423 0128 7B62     		str	r3, [r7, #36]	@ float
 1424              	.L80:
 312:app_state_auto.c ****     return atan2f(alt2_m - alt1_m, dist_m) * RAD_TO_DEG;
 1425              		.loc 1 312 0 is_stmt 1
 1426 012a 7968     		ldr	r1, [r7, #4]	@ float
 1427 012c F86B     		ldr	r0, [r7, #60]	@ float
 1428 012e FFF7FEFF 		bl	__aeabi_fsub
 1429 0132 0346     		mov	r3, r0
 1430 0134 796A     		ldr	r1, [r7, #36]	@ float
 1431 0136 1846     		mov	r0, r3
 1432 0138 FFF7FEFF 		bl	atan2f
 1433 013c 0346     		mov	r3, r0
 1434 013e 0649     		ldr	r1, .L84+8
 1435 0140 1846     		mov	r0, r3
 1436 0142 FFF7FEFF 		bl	__aeabi_fmul
 1437 0146 0346     		mov	r3, r0
 313:app_state_auto.c **** }
 1438              		.loc 1 313 0
 1439 0148 1846     		mov	r0, r3
 1440 014a 2837     		adds	r7, r7, #40
 1441              		.cfi_def_cfa_offset 16
 1442 014c BD46     		mov	sp, r7
 1443              		.cfi_def_cfa_register 13
 1444              		@ sp needed
 1445 014e B0BD     		pop	{r4, r5, r7, pc}
ARM GAS  C:\Users\yoons\AppData\Local\Temp\ccpZOz8V.s 			page 33


 1446              	.L85:
 1447              		.align	2
 1448              	.L84:
 1449 0150 98F98E3C 		.word	1016002968
 1450 0154 706D424B 		.word	1262644592
 1451 0158 E62E6542 		.word	1113927398
 1452              		.cfi_endproc
 1453              	.LFE75:
 1454              		.size	gps_elev_deg, .-gps_elev_deg
 1455              		.section	.text.gps_start_slew,"ax",%progbits
 1456              		.align	2
 1457              		.thumb
 1458              		.thumb_func
 1459              		.type	gps_start_slew, %function
 1460              	gps_start_slew:
 1461              	.LFB76:
 314:app_state_auto.c **** 
 315:app_state_auto.c **** // Copy the active target into the working copy and reset the slew.
 316:app_state_auto.c **** static void gps_start_slew(app_ctx_t *ctx)
 317:app_state_auto.c **** {
 1462              		.loc 1 317 0
 1463              		.cfi_startproc
 1464              		@ args = 0, pretend = 0, frame = 8
 1465              		@ frame_needed = 1, uses_anonymous_args = 0
 1466              		@ link register save eliminated.
 1467 0000 80B4     		push	{r7}
 1468              		.cfi_def_cfa_offset 4
 1469              		.cfi_offset 7, -4
 1470 0002 83B0     		sub	sp, sp, #12
 1471              		.cfi_def_cfa_offset 16
 1472 0004 00AF     		add	r7, sp, #0
 1473              		.cfi_def_cfa_register 7
 1474 0006 7860     		str	r0, [r7, #4]
 318:app_state_auto.c ****     ctx->gps_work_lat_raw = ctx->gps_target_lat_raw;
 1475              		.loc 1 318 0
 1476 0008 7B68     		ldr	r3, [r7, #4]
 1477 000a 5A6A     		ldr	r2, [r3, #36]
 1478 000c 7B68     		ldr	r3, [r7, #4]
 1479 000e 5A63     		str	r2, [r3, #52]
 319:app_state_auto.c ****     ctx->gps_work_lon_raw = ctx->gps_target_lon_raw;
 1480              		.loc 1 319 0
 1481 0010 7B68     		ldr	r3, [r7, #4]
 1482 0012 9A6A     		ldr	r2, [r3, #40]
 1483 0014 7B68     		ldr	r3, [r7, #4]
 1484 0016 9A63     		str	r2, [r3, #56]
 320:app_state_auto.c ****     ctx->gps_work_alt_mm  = ctx->gps_target_alt_mm;
 1485              		.loc 1 320 0
 1486 0018 7B68     		ldr	r3, [r7, #4]
 1487 001a DA6A     		ldr	r2, [r3, #44]
 1488 001c 7B68     		ldr	r3, [r7, #4]
 1489 001e DA63     		str	r2, [r3, #60]
 321:app_state_auto.c ****     // Clear flags to say: We are not settled and we have a new target.
 322:app_state_auto.c ****     ctx->gps_settled      = 0u;
 1490              		.loc 1 322 0
 1491 0020 7B68     		ldr	r3, [r7, #4]
 1492 0022 0022     		movs	r2, #0
 1493 0024 83F84020 		strb	r2, [r3, #64]
ARM GAS  C:\Users\yoons\AppData\Local\Temp\ccpZOz8V.s 			page 34


 323:app_state_auto.c ****     ctx->gps_new_target   = 0u;
 1494              		.loc 1 323 0
 1495 0028 7B68     		ldr	r3, [r7, #4]
 1496 002a 0022     		movs	r2, #0
 1497 002c 83F83120 		strb	r2, [r3, #49]
 324:app_state_auto.c **** }
 1498              		.loc 1 324 0
 1499 0030 00BF     		nop
 1500 0032 0C37     		adds	r7, r7, #12
 1501              		.cfi_def_cfa_offset 4
 1502 0034 BD46     		mov	sp, r7
 1503              		.cfi_def_cfa_register 13
 1504              		@ sp needed
 1505 0036 80BC     		pop	{r7}
 1506              		.cfi_restore 7
 1507              		.cfi_def_cfa_offset 0
 1508 0038 7047     		bx	lr
 1509              		.cfi_endproc
 1510              	.LFE76:
 1511              		.size	gps_start_slew, .-gps_start_slew
 1512 003a 00BF     		.section	.text.gps_update_pointing,"ax",%progbits
 1513              		.align	2
 1514              		.thumb
 1515              		.thumb_func
 1516              		.type	gps_update_pointing, %function
 1517              	gps_update_pointing:
 1518              	.LFB77:
 325:app_state_auto.c **** 
 326:app_state_auto.c **** // Recompute abs_pan/tilt setpoints from the working copy + live gimbal GPS.
 327:app_state_auto.c **** // Overkill for now, but handles the gimble moving, this updates the target in
 328:app_state_auto.c **** // case previous computed absolute move is out of date. Important to have now
 329:app_state_auto.c **** // in case GPS quality degrades or improves during slew.
 330:app_state_auto.c **** static void gps_update_pointing(app_ctx_t *ctx)
 331:app_state_auto.c **** {
 1519              		.loc 1 331 0
 1520              		.cfi_startproc
 1521              		@ args = 0, pretend = 0, frame = 256
 1522              		@ frame_needed = 1, uses_anonymous_args = 0
 1523 0000 80B5     		push	{r7, lr}
 1524              		.cfi_def_cfa_offset 8
 1525              		.cfi_offset 7, -8
 1526              		.cfi_offset 14, -4
 1527 0002 C2B0     		sub	sp, sp, #264
 1528              		.cfi_def_cfa_offset 272
 1529 0004 02AF     		add	r7, sp, #8
 1530              		.cfi_def_cfa 7, 264
 1531 0006 7860     		str	r0, [r7, #4]
 332:app_state_auto.c ****     // TODO: Only give update if moved by 1 degree or more
 333:app_state_auto.c ****     // Get attitude and position
 334:app_state_auto.c ****     hamfly_telemetry_t st;
 335:app_state_auto.c ****     hamfly_get_telemetry(ctx->gimbal, &st);
 1532              		.loc 1 335 0
 1533 0008 7B68     		ldr	r3, [r7, #4]
 1534 000a 1B68     		ldr	r3, [r3]
 1535 000c 07F10802 		add	r2, r7, #8
 1536 0010 1146     		mov	r1, r2
 1537 0012 1846     		mov	r0, r3
ARM GAS  C:\Users\yoons\AppData\Local\Temp\ccpZOz8V.s 			page 35


 1538 0014 FFF7FEFF 		bl	hamfly_get_telemetry
 336:app_state_auto.c ****     if (!st.gps_valid) return;
 1539              		.loc 1 336 0
 1540 0018 97F82630 		ldrb	r3, [r7, #38]	@ zero_extendqisi2
 1541 001c 83F00103 		eor	r3, r3, #1
 1542 0020 DBB2     		uxtb	r3, r3
 1543 0022 002B     		cmp	r3, #0
 1544 0024 54D1     		bne	.L90
 337:app_state_auto.c ****     // Load working target
 338:app_state_auto.c ****     float tlat = (float)ctx->gps_work_lat_raw * 1e-7f;
 1545              		.loc 1 338 0
 1546 0026 7B68     		ldr	r3, [r7, #4]
 1547 0028 5B6B     		ldr	r3, [r3, #52]
 1548 002a 1846     		mov	r0, r3
 1549 002c FFF7FEFF 		bl	__aeabi_i2f
 1550 0030 0346     		mov	r3, r0
 1551 0032 2A49     		ldr	r1, .L91
 1552 0034 1846     		mov	r0, r3
 1553 0036 FFF7FEFF 		bl	__aeabi_fmul
 1554 003a 0346     		mov	r3, r0
 1555 003c C7F8FC30 		str	r3, [r7, #252]	@ float
 339:app_state_auto.c ****     float tlon = (float)ctx->gps_work_lon_raw * 1e-7f;
 1556              		.loc 1 339 0
 1557 0040 7B68     		ldr	r3, [r7, #4]
 1558 0042 9B6B     		ldr	r3, [r3, #56]
 1559 0044 1846     		mov	r0, r3
 1560 0046 FFF7FEFF 		bl	__aeabi_i2f
 1561 004a 0346     		mov	r3, r0
 1562 004c 2349     		ldr	r1, .L91
 1563 004e 1846     		mov	r0, r3
 1564 0050 FFF7FEFF 		bl	__aeabi_fmul
 1565 0054 0346     		mov	r3, r0
 1566 0056 C7F8F830 		str	r3, [r7, #248]	@ float
 340:app_state_auto.c ****     float talt = (float)ctx->gps_work_alt_mm  * 0.001f;
 1567              		.loc 1 340 0
 1568 005a 7B68     		ldr	r3, [r7, #4]
 1569 005c DB6B     		ldr	r3, [r3, #60]
 1570 005e 1846     		mov	r0, r3
 1571 0060 FFF7FEFF 		bl	__aeabi_i2f
 1572 0064 0346     		mov	r3, r0
 1573 0066 1E49     		ldr	r1, .L91+4
 1574 0068 1846     		mov	r0, r3
 1575 006a FFF7FEFF 		bl	__aeabi_fmul
 1576 006e 0346     		mov	r3, r0
 1577 0070 C7F8F430 		str	r3, [r7, #244]	@ float
 341:app_state_auto.c ****     // Update target
 342:app_state_auto.c ****     ctx->abs_pan_target  = DEG_TO_UNIT(
 1578              		.loc 1 342 0
 1579 0074 B86A     		ldr	r0, [r7, #40]	@ float
 1580 0076 F96A     		ldr	r1, [r7, #44]	@ float
 1581 0078 D7F8F830 		ldr	r3, [r7, #248]	@ float
 1582 007c D7F8FC20 		ldr	r2, [r7, #252]	@ float
 1583 0080 FFF7FEFF 		bl	gps_bearing_deg
 1584 0084 0246     		mov	r2, r0
 1585 0086 BB6B     		ldr	r3, [r7, #56]	@ float
 1586 0088 1946     		mov	r1, r3
 1587 008a 1046     		mov	r0, r2
ARM GAS  C:\Users\yoons\AppData\Local\Temp\ccpZOz8V.s 			page 36


 1588 008c FFF7FEFF 		bl	__aeabi_fsub
 1589 0090 0346     		mov	r3, r0
 1590 0092 1449     		ldr	r1, .L91+8
 1591 0094 1846     		mov	r0, r3
 1592 0096 FFF7FEFF 		bl	__aeabi_fdiv
 1593 009a 0346     		mov	r3, r0
 1594 009c 1A46     		mov	r2, r3
 1595 009e 7B68     		ldr	r3, [r7, #4]
 1596 00a0 DA61     		str	r2, [r3, #28]	@ float
 343:app_state_auto.c ****         gps_bearing_deg(  st.gps_lat_deg, st.gps_lon_deg, tlat, tlon)
 344:app_state_auto.c ****                         - st.gps_heading_deg);
 345:app_state_auto.c ****     ctx->abs_tilt_target = DEG_TO_UNIT(
 1597              		.loc 1 345 0
 1598 00a2 B86A     		ldr	r0, [r7, #40]	@ float
 1599 00a4 F96A     		ldr	r1, [r7, #44]	@ float
 1600 00a6 3A6B     		ldr	r2, [r7, #48]	@ float
 1601 00a8 D7F8F430 		ldr	r3, [r7, #244]	@ float
 1602 00ac 0193     		str	r3, [sp, #4]	@ float
 1603 00ae D7F8F830 		ldr	r3, [r7, #248]	@ float
 1604 00b2 0093     		str	r3, [sp]	@ float
 1605 00b4 D7F8FC30 		ldr	r3, [r7, #252]	@ float
 1606 00b8 FFF7FEFF 		bl	gps_elev_deg
 1607 00bc 0346     		mov	r3, r0
 1608 00be 0949     		ldr	r1, .L91+8
 1609 00c0 1846     		mov	r0, r3
 1610 00c2 FFF7FEFF 		bl	__aeabi_fdiv
 1611 00c6 0346     		mov	r3, r0
 1612 00c8 1A46     		mov	r2, r3
 1613 00ca 7B68     		ldr	r3, [r7, #4]
 1614 00cc 1A62     		str	r2, [r3, #32]	@ float
 1615 00ce 00E0     		b	.L87
 1616              	.L90:
 336:app_state_auto.c ****     // Load working target
 1617              		.loc 1 336 0
 1618 00d0 00BF     		nop
 1619              	.L87:
 346:app_state_auto.c ****         gps_elev_deg(st.gps_lat_deg, st.gps_lon_deg, st.gps_alt_m, 
 347:app_state_auto.c ****                      tlat, tlon, talt));
 348:app_state_auto.c **** }
 1620              		.loc 1 348 0
 1621 00d2 07F58077 		add	r7, r7, #256
 1622              		.cfi_def_cfa_offset 8
 1623 00d6 BD46     		mov	sp, r7
 1624              		.cfi_def_cfa_register 13
 1625              		@ sp needed
 1626 00d8 80BD     		pop	{r7, pc}
 1627              	.L92:
 1628 00da 00BF     		.align	2
 1629              	.L91:
 1630 00dc 95BFD633 		.word	869711765
 1631 00e0 6F12833A 		.word	981668463
 1632 00e4 00003443 		.word	1127481344
 1633              		.cfi_endproc
 1634              	.LFE77:
 1635              		.size	gps_update_pointing, .-gps_update_pointing
 1636              		.global	__aeabi_fcmpgt
 1637              		.section	.rodata
ARM GAS  C:\Users\yoons\AppData\Local\Temp\ccpZOz8V.s 			page 37


 1638 01ce 0000     		.align	2
 1639              	.LC11:
 1640 01d0 5B415554 		.ascii	"[AUTO_ACQ_GPS] new target -> re-slew\015\012\000"
 1640      4F5F4143 
 1640      515F4750 
 1640      535D206E 
 1640      65772074 
 1641 01f7 00       		.align	2
 1642              	.LC12:
 1643 01f8 5B415554 		.ascii	"[AUTO_ACQ_GPS] settled -> AUTO_HOLD\015\012\000"
 1643      4F5F4143 
 1643      515F4750 
 1643      535D2073 
 1643      6574746C 
 1644              		.section	.text.gps_check_settle,"ax",%progbits
 1645              		.align	2
 1646              		.thumb
 1647              		.thumb_func
 1648              		.type	gps_check_settle, %function
 1649              	gps_check_settle:
 1650              	.LFB78:
 349:app_state_auto.c **** 
 350:app_state_auto.c **** // Take finite difference of attitude to tell when arrived at destination.
 351:app_state_auto.c **** // Checks for new target GPS coordinate while in progress, which triggers a 
 352:app_state_auto.c **** // restart of AUTO_ACQ_GPS.
 353:app_state_auto.c **** static void gps_check_settle(app_ctx_t *ctx)
 354:app_state_auto.c **** {
 1651              		.loc 1 354 0
 1652              		.cfi_startproc
 1653              		@ args = 0, pretend = 0, frame = 40
 1654              		@ frame_needed = 1, uses_anonymous_args = 0
 1655 0000 90B5     		push	{r4, r7, lr}
 1656              		.cfi_def_cfa_offset 12
 1657              		.cfi_offset 4, -12
 1658              		.cfi_offset 7, -8
 1659              		.cfi_offset 14, -4
 1660 0002 8BB0     		sub	sp, sp, #44
 1661              		.cfi_def_cfa_offset 56
 1662 0004 00AF     		add	r7, sp, #0
 1663              		.cfi_def_cfa_register 7
 1664 0006 7860     		str	r0, [r7, #4]
 355:app_state_auto.c ****     // Too fast? Dont judge.
 356:app_state_auto.c ****     uint32_t now = g_tick_ms;
 1665              		.loc 1 356 0
 1666 0008 694B     		ldr	r3, .L113
 1667 000a 1B68     		ldr	r3, [r3]
 1668 000c 3B62     		str	r3, [r7, #32]
 357:app_state_auto.c ****     if (now - ctx->gps_last_sample_ms < GPS_SETTLE_PERIOD_MS) return;
 1669              		.loc 1 357 0
 1670 000e 7B68     		ldr	r3, [r7, #4]
 1671 0010 DB6C     		ldr	r3, [r3, #76]
 1672 0012 3A6A     		ldr	r2, [r7, #32]
 1673 0014 D31A     		subs	r3, r2, r3
 1674 0016 312B     		cmp	r3, #49
 1675 0018 40F2C380 		bls	.L111
 358:app_state_auto.c **** 
 359:app_state_auto.c ****     // no telemetry -> can't judge
ARM GAS  C:\Users\yoons\AppData\Local\Temp\ccpZOz8V.s 			page 38


 360:app_state_auto.c ****     float pan, tilt;
 361:app_state_auto.c ****     if (!gimbal_pan_tilt_deg(ctx, &pan, &tilt))
 1676              		.loc 1 361 0
 1677 001c 07F10802 		add	r2, r7, #8
 1678 0020 07F10C03 		add	r3, r7, #12
 1679 0024 1946     		mov	r1, r3
 1680 0026 7868     		ldr	r0, [r7, #4]
 1681 0028 FFF7FEFF 		bl	gimbal_pan_tilt_deg
 1682 002c 0346     		mov	r3, r0
 1683 002e 002B     		cmp	r3, #0
 1684 0030 00F0B980 		beq	.L112
 362:app_state_auto.c ****     {
 363:app_state_auto.c ****         return;
 364:app_state_auto.c ****     }
 365:app_state_auto.c ****     float speed_dps = 1.0e9f;   // assume moving until we have a valid dt
 1685              		.loc 1 365 0
 1686 0034 5F4B     		ldr	r3, .L113+4
 1687 0036 7B62     		str	r3, [r7, #36]	@ float
 366:app_state_auto.c ****     if (ctx->gps_last_sample_ms != 0u) {
 1688              		.loc 1 366 0
 1689 0038 7B68     		ldr	r3, [r7, #4]
 1690 003a DB6C     		ldr	r3, [r3, #76]
 1691 003c 002B     		cmp	r3, #0
 1692 003e 34D0     		beq	.L97
 1693              	.LBB16:
 367:app_state_auto.c ****         float dt = (float)(now - ctx->gps_last_sample_ms) * 0.001f;
 1694              		.loc 1 367 0
 1695 0040 7B68     		ldr	r3, [r7, #4]
 1696 0042 DB6C     		ldr	r3, [r3, #76]
 1697 0044 3A6A     		ldr	r2, [r7, #32]
 1698 0046 D31A     		subs	r3, r2, r3
 1699 0048 1846     		mov	r0, r3
 1700 004a FFF7FEFF 		bl	__aeabi_ui2f
 1701 004e 0346     		mov	r3, r0
 1702 0050 5949     		ldr	r1, .L113+8
 1703 0052 1846     		mov	r0, r3
 1704 0054 FFF7FEFF 		bl	__aeabi_fmul
 1705 0058 0346     		mov	r3, r0
 1706 005a FB61     		str	r3, [r7, #28]	@ float
 368:app_state_auto.c ****         if (dt > 0.0f)
 1707              		.loc 1 368 0
 1708 005c 4FF00001 		mov	r1, #0
 1709 0060 F869     		ldr	r0, [r7, #28]	@ float
 1710 0062 FFF7FEFF 		bl	__aeabi_fcmpgt
 1711 0066 0346     		mov	r3, r0
 1712 0068 002B     		cmp	r3, #0
 1713 006a 1ED0     		beq	.L97
 369:app_state_auto.c ****             speed_dps = (fabsf(pan  - ctx->gps_last_pan_deg) +
 1714              		.loc 1 369 0
 1715 006c FA68     		ldr	r2, [r7, #12]	@ float
 1716 006e 7B68     		ldr	r3, [r7, #4]
 1717 0070 5B6C     		ldr	r3, [r3, #68]	@ float
 1718 0072 1946     		mov	r1, r3
 1719 0074 1046     		mov	r0, r2
 1720 0076 FFF7FEFF 		bl	__aeabi_fsub
 1721 007a 0346     		mov	r3, r0
 1722 007c 23F00044 		bic	r4, r3, #-2147483648
ARM GAS  C:\Users\yoons\AppData\Local\Temp\ccpZOz8V.s 			page 39


 370:app_state_auto.c ****                          fabsf(tilt - ctx->gps_last_tilt_deg)) / dt;
 1723              		.loc 1 370 0
 1724 0080 BA68     		ldr	r2, [r7, #8]	@ float
 1725 0082 7B68     		ldr	r3, [r7, #4]
 1726 0084 9B6C     		ldr	r3, [r3, #72]	@ float
 1727 0086 1946     		mov	r1, r3
 1728 0088 1046     		mov	r0, r2
 1729 008a FFF7FEFF 		bl	__aeabi_fsub
 1730 008e 0346     		mov	r3, r0
 1731 0090 23F00043 		bic	r3, r3, #-2147483648
 369:app_state_auto.c ****             speed_dps = (fabsf(pan  - ctx->gps_last_pan_deg) +
 1732              		.loc 1 369 0
 1733 0094 1946     		mov	r1, r3
 1734 0096 2046     		mov	r0, r4
 1735 0098 FFF7FEFF 		bl	__aeabi_fadd
 1736 009c 0346     		mov	r3, r0
 1737 009e F969     		ldr	r1, [r7, #28]	@ float
 1738 00a0 1846     		mov	r0, r3
 1739 00a2 FFF7FEFF 		bl	__aeabi_fdiv
 1740 00a6 0346     		mov	r3, r0
 1741 00a8 7B62     		str	r3, [r7, #36]	@ float
 1742              	.L97:
 1743              	.LBE16:
 371:app_state_auto.c ****     }
 372:app_state_auto.c ****     ctx->gps_last_pan_deg   = pan;
 1744              		.loc 1 372 0
 1745 00aa FA68     		ldr	r2, [r7, #12]	@ float
 1746 00ac 7B68     		ldr	r3, [r7, #4]
 1747 00ae 5A64     		str	r2, [r3, #68]	@ float
 373:app_state_auto.c ****     ctx->gps_last_tilt_deg  = tilt;
 1748              		.loc 1 373 0
 1749 00b0 BA68     		ldr	r2, [r7, #8]	@ float
 1750 00b2 7B68     		ldr	r3, [r7, #4]
 1751 00b4 9A64     		str	r2, [r3, #72]	@ float
 374:app_state_auto.c ****     ctx->gps_last_sample_ms = now;
 1752              		.loc 1 374 0
 1753 00b6 7B68     		ldr	r3, [r7, #4]
 1754 00b8 3A6A     		ldr	r2, [r7, #32]
 1755 00ba DA64     		str	r2, [r3, #76]
 375:app_state_auto.c **** 
 376:app_state_auto.c ****     /* Frame assumption: measured euler pan/tilt share the gimbal's ABSOLUTE
 377:app_state_auto.c ****        command reference. Validate on hardware; if frames differ, the low-speed
 378:app_state_auto.c ****        gate still gives a usable settle proxy. */
 379:app_state_auto.c ****     float cmd_pan_deg  = UNIT_TO_DEG(ctx->abs_pan_target);
 1756              		.loc 1 379 0
 1757 00bc 7B68     		ldr	r3, [r7, #4]
 1758 00be DB69     		ldr	r3, [r3, #28]	@ float
 1759 00c0 3E49     		ldr	r1, .L113+12
 1760 00c2 1846     		mov	r0, r3
 1761 00c4 FFF7FEFF 		bl	__aeabi_fmul
 1762 00c8 0346     		mov	r3, r0
 1763 00ca BB61     		str	r3, [r7, #24]	@ float
 380:app_state_auto.c ****     float cmd_tilt_deg = UNIT_TO_DEG(ctx->abs_tilt_target);
 1764              		.loc 1 380 0
 1765 00cc 7B68     		ldr	r3, [r7, #4]
 1766 00ce 1B6A     		ldr	r3, [r3, #32]	@ float
 1767 00d0 3A49     		ldr	r1, .L113+12
ARM GAS  C:\Users\yoons\AppData\Local\Temp\ccpZOz8V.s 			page 40


 1768 00d2 1846     		mov	r0, r3
 1769 00d4 FFF7FEFF 		bl	__aeabi_fmul
 1770 00d8 0346     		mov	r3, r0
 1771 00da 7B61     		str	r3, [r7, #20]	@ float
 381:app_state_auto.c ****     uint8_t arrived = (fabsf(pan  - cmd_pan_deg)  < GPS_POINT_SETTLE_DEG) &&
 1772              		.loc 1 381 0
 1773 00dc FB68     		ldr	r3, [r7, #12]	@ float
 1774 00de B969     		ldr	r1, [r7, #24]	@ float
 1775 00e0 1846     		mov	r0, r3
 1776 00e2 FFF7FEFF 		bl	__aeabi_fsub
 1777 00e6 0346     		mov	r3, r0
 1778 00e8 23F00043 		bic	r3, r3, #-2147483648
 1779 00ec 4FF07C51 		mov	r1, #1056964608
 1780 00f0 1846     		mov	r0, r3
 1781 00f2 FFF7FEFF 		bl	__aeabi_fcmplt
 1782 00f6 0346     		mov	r3, r0
 1783 00f8 002B     		cmp	r3, #0
 1784 00fa 11D0     		beq	.L99
 382:app_state_auto.c ****                       (fabsf(tilt - cmd_tilt_deg) < GPS_POINT_SETTLE_DEG);
 1785              		.loc 1 382 0 discriminator 1
 1786 00fc BB68     		ldr	r3, [r7, #8]	@ float
 1787 00fe 7969     		ldr	r1, [r7, #20]	@ float
 1788 0100 1846     		mov	r0, r3
 1789 0102 FFF7FEFF 		bl	__aeabi_fsub
 1790 0106 0346     		mov	r3, r0
 1791 0108 23F00043 		bic	r3, r3, #-2147483648
 381:app_state_auto.c ****     uint8_t arrived = (fabsf(pan  - cmd_pan_deg)  < GPS_POINT_SETTLE_DEG) &&
 1792              		.loc 1 381 0 discriminator 1
 1793 010c 4FF07C51 		mov	r1, #1056964608
 1794 0110 1846     		mov	r0, r3
 1795 0112 FFF7FEFF 		bl	__aeabi_fcmplt
 1796 0116 0346     		mov	r3, r0
 1797 0118 002B     		cmp	r3, #0
 1798 011a 01D0     		beq	.L99
 381:app_state_auto.c ****     uint8_t arrived = (fabsf(pan  - cmd_pan_deg)  < GPS_POINT_SETTLE_DEG) &&
 1799              		.loc 1 381 0 is_stmt 0 discriminator 3
 1800 011c 0123     		movs	r3, #1
 1801 011e 00E0     		b	.L102
 1802              	.L99:
 381:app_state_auto.c ****     uint8_t arrived = (fabsf(pan  - cmd_pan_deg)  < GPS_POINT_SETTLE_DEG) &&
 1803              		.loc 1 381 0 discriminator 4
 1804 0120 0023     		movs	r3, #0
 1805              	.L102:
 381:app_state_auto.c ****     uint8_t arrived = (fabsf(pan  - cmd_pan_deg)  < GPS_POINT_SETTLE_DEG) &&
 1806              		.loc 1 381 0 discriminator 6
 1807 0122 FB74     		strb	r3, [r7, #19]
 383:app_state_auto.c ****     uint8_t slow    = (speed_dps < GPS_RATE_SETTLE_DPS);
 1808              		.loc 1 383 0 is_stmt 1 discriminator 6
 1809 0124 0123     		movs	r3, #1
 1810 0126 1C46     		mov	r4, r3
 1811 0128 4FF07E51 		mov	r1, #1065353216
 1812 012c 786A     		ldr	r0, [r7, #36]	@ float
 1813 012e FFF7FEFF 		bl	__aeabi_fcmplt
 1814 0132 0346     		mov	r3, r0
 1815 0134 002B     		cmp	r3, #0
 1816 0136 01D1     		bne	.L103
 1817 0138 0023     		movs	r3, #0
ARM GAS  C:\Users\yoons\AppData\Local\Temp\ccpZOz8V.s 			page 41


 1818 013a 1C46     		mov	r4, r3
 1819              	.L103:
 1820 013c E3B2     		uxtb	r3, r4
 1821 013e BB74     		strb	r3, [r7, #18]
 384:app_state_auto.c ****     
 385:app_state_auto.c ****     // Catch new target flag
 386:app_state_auto.c ****     if (ctx->gps_new_target && (ctx->gps_settled || (arrived && slow))) {
 1822              		.loc 1 386 0 discriminator 6
 1823 0140 7B68     		ldr	r3, [r7, #4]
 1824 0142 93F83130 		ldrb	r3, [r3, #49]	@ zero_extendqisi2
 1825 0146 002B     		cmp	r3, #0
 1826 0148 14D0     		beq	.L104
 1827              		.loc 1 386 0 is_stmt 0 discriminator 1
 1828 014a 7B68     		ldr	r3, [r7, #4]
 1829 014c 93F84030 		ldrb	r3, [r3, #64]	@ zero_extendqisi2
 1830 0150 002B     		cmp	r3, #0
 1831 0152 05D1     		bne	.L105
 1832              		.loc 1 386 0 discriminator 2
 1833 0154 FB7C     		ldrb	r3, [r7, #19]	@ zero_extendqisi2
 1834 0156 002B     		cmp	r3, #0
 1835 0158 0CD0     		beq	.L104
 1836              		.loc 1 386 0 discriminator 3
 1837 015a BB7C     		ldrb	r3, [r7, #18]	@ zero_extendqisi2
 1838 015c 002B     		cmp	r3, #0
 1839 015e 09D0     		beq	.L104
 1840              	.L105:
 387:app_state_auto.c ****         UART_DEBUG_PutString("[AUTO_ACQ_GPS] new target -> re-slew\r\n");
 1841              		.loc 1 387 0 is_stmt 1
 1842 0160 1748     		ldr	r0, .L113+16
 1843 0162 FFF7FEFF 		bl	dbg_put
 388:app_state_auto.c ****         gps_start_slew(ctx);  // copies target->work, clears flag + settled
 1844              		.loc 1 388 0
 1845 0166 7868     		ldr	r0, [r7, #4]
 1846 0168 FFF7FEFF 		bl	gps_start_slew
 389:app_state_auto.c ****         gps_update_pointing(ctx);
 1847              		.loc 1 389 0
 1848 016c 7868     		ldr	r0, [r7, #4]
 1849 016e FFF7FEFF 		bl	gps_update_pointing
 390:app_state_auto.c ****         return;
 1850              		.loc 1 390 0
 1851 0172 19E0     		b	.L93
 1852              	.L104:
 391:app_state_auto.c ****     }
 392:app_state_auto.c ****     // Exit condition for valid finishing of GPS slew.
 393:app_state_auto.c ****     if (!ctx->gps_settled && arrived && slow) {
 1853              		.loc 1 393 0
 1854 0174 7B68     		ldr	r3, [r7, #4]
 1855 0176 93F84030 		ldrb	r3, [r3, #64]	@ zero_extendqisi2
 1856 017a 002B     		cmp	r3, #0
 1857 017c 14D1     		bne	.L93
 1858              		.loc 1 393 0 is_stmt 0 discriminator 1
 1859 017e FB7C     		ldrb	r3, [r7, #19]	@ zero_extendqisi2
 1860 0180 002B     		cmp	r3, #0
 1861 0182 11D0     		beq	.L93
 1862              		.loc 1 393 0 discriminator 2
 1863 0184 BB7C     		ldrb	r3, [r7, #18]	@ zero_extendqisi2
 1864 0186 002B     		cmp	r3, #0
ARM GAS  C:\Users\yoons\AppData\Local\Temp\ccpZOz8V.s 			page 42


 1865 0188 0ED0     		beq	.L93
 394:app_state_auto.c ****         ctx->gps_settled = 1u;
 1866              		.loc 1 394 0 is_stmt 1
 1867 018a 7B68     		ldr	r3, [r7, #4]
 1868 018c 0122     		movs	r2, #1
 1869 018e 83F84020 		strb	r2, [r3, #64]
 395:app_state_auto.c ****         UART_DEBUG_PutString("[AUTO_ACQ_GPS] settled -> AUTO_HOLD\r\n");
 1870              		.loc 1 395 0
 1871 0192 0C48     		ldr	r0, .L113+20
 1872 0194 FFF7FEFF 		bl	dbg_put
 396:app_state_auto.c ****         app_transition(ctx, AUTO_HOLD);
 1873              		.loc 1 396 0
 1874 0198 0921     		movs	r1, #9
 1875 019a 7868     		ldr	r0, [r7, #4]
 1876 019c FFF7FEFF 		bl	app_transition
 1877 01a0 02E0     		b	.L93
 1878              	.L111:
 357:app_state_auto.c **** 
 1879              		.loc 1 357 0
 1880 01a2 00BF     		nop
 1881 01a4 00E0     		b	.L93
 1882              	.L112:
 363:app_state_auto.c ****     }
 1883              		.loc 1 363 0
 1884 01a6 00BF     		nop
 1885              	.L93:
 397:app_state_auto.c ****     }
 398:app_state_auto.c **** }
 1886              		.loc 1 398 0
 1887 01a8 2C37     		adds	r7, r7, #44
 1888              		.cfi_def_cfa_offset 12
 1889 01aa BD46     		mov	sp, r7
 1890              		.cfi_def_cfa_register 13
 1891              		@ sp needed
 1892 01ac 90BD     		pop	{r4, r7, pc}
 1893              	.L114:
 1894 01ae 00BF     		.align	2
 1895              	.L113:
 1896 01b0 00000000 		.word	g_tick_ms
 1897 01b4 286B6E4E 		.word	1315859240
 1898 01b8 6F12833A 		.word	981668463
 1899 01bc 00003443 		.word	1127481344
 1900 01c0 D0010000 		.word	.LC11
 1901 01c4 F8010000 		.word	.LC12
 1902              		.cfi_endproc
 1903              	.LFE78:
 1904              		.size	gps_check_settle, .-gps_check_settle
 1905              		.section	.rodata
 1906 021e 0000     		.align	2
 1907              	.LC13:
 1908 0220 0D0A5B41 		.ascii	"\015\012[AUTO_ACQ_GPS] no GPS target -> STBY_HOLD\015"
 1908      55544F5F 
 1908      4143515F 
 1908      4750535D 
 1908      206E6F20 
 1909 024c 0A00     		.ascii	"\012\000"
 1910 024e 0000     		.align	2
ARM GAS  C:\Users\yoons\AppData\Local\Temp\ccpZOz8V.s 			page 43


 1911              	.LC14:
 1912 0250 0D0A5B41 		.ascii	"\015\012[AUTO_ACQ_GPS] open-loop GPS pointing  e=ex"
 1912      55544F5F 
 1912      4143515F 
 1912      4750535D 
 1912      206F7065 
 1913 027d 69740D0A 		.ascii	"it\015\012> \000"
 1913      3E2000
 1914              		.section	.text.entry_auto_acq_gps,"ax",%progbits
 1915              		.align	2
 1916              		.global	entry_auto_acq_gps
 1917              		.thumb
 1918              		.thumb_func
 1919              		.type	entry_auto_acq_gps, %function
 1920              	entry_auto_acq_gps:
 1921              	.LFB79:
 399:app_state_auto.c **** 
 400:app_state_auto.c **** void entry_auto_acq_gps(app_ctx_t *ctx)
 401:app_state_auto.c **** {
 1922              		.loc 1 401 0
 1923              		.cfi_startproc
 1924              		@ args = 0, pretend = 0, frame = 8
 1925              		@ frame_needed = 1, uses_anonymous_args = 0
 1926 0000 80B5     		push	{r7, lr}
 1927              		.cfi_def_cfa_offset 8
 1928              		.cfi_offset 7, -8
 1929              		.cfi_offset 14, -4
 1930 0002 82B0     		sub	sp, sp, #8
 1931              		.cfi_def_cfa_offset 16
 1932 0004 00AF     		add	r7, sp, #0
 1933              		.cfi_def_cfa_register 7
 1934 0006 7860     		str	r0, [r7, #4]
 402:app_state_auto.c ****     // Check for GPS target. TODO: Is this hanlded seperately now?
 403:app_state_auto.c ****     if (!ctx->gps_target_set) {
 1935              		.loc 1 403 0
 1936 0008 7B68     		ldr	r3, [r7, #4]
 1937 000a 93F83030 		ldrb	r3, [r3, #48]	@ zero_extendqisi2
 1938 000e 002B     		cmp	r3, #0
 1939 0010 07D1     		bne	.L116
 404:app_state_auto.c ****         UART_DEBUG_PutString("\r\n[AUTO_ACQ_GPS] no GPS target -> STBY_HOLD\r\n");
 1940              		.loc 1 404 0
 1941 0012 0B48     		ldr	r0, .L118
 1942 0014 FFF7FEFF 		bl	dbg_put
 405:app_state_auto.c ****         app_transition(ctx, STBY_HOLD);
 1943              		.loc 1 405 0
 1944 0018 0621     		movs	r1, #6
 1945 001a 7868     		ldr	r0, [r7, #4]
 1946 001c FFF7FEFF 		bl	app_transition
 406:app_state_auto.c ****         return;
 1947              		.loc 1 406 0
 1948 0020 0BE0     		b	.L115
 1949              	.L116:
 407:app_state_auto.c ****     }
 408:app_state_auto.c ****     UART_DEBUG_PutString("\r\n[AUTO_ACQ_GPS] open-loop GPS pointing  e=exit\r\n> ");
 1950              		.loc 1 408 0
 1951 0022 0848     		ldr	r0, .L118+4
 1952 0024 FFF7FEFF 		bl	dbg_put
ARM GAS  C:\Users\yoons\AppData\Local\Temp\ccpZOz8V.s 			page 44


 409:app_state_auto.c ****     // Set start flag.
 410:app_state_auto.c ****     ctx->gps_last_sample_ms = 0u;
 1953              		.loc 1 410 0
 1954 0028 7B68     		ldr	r3, [r7, #4]
 1955 002a 0022     		movs	r2, #0
 1956 002c DA64     		str	r2, [r3, #76]
 411:app_state_auto.c ****     // Trigger flags that we are starting slew.
 412:app_state_auto.c ****     gps_start_slew(ctx);        // snap target -> work, start fresh
 1957              		.loc 1 412 0
 1958 002e 7868     		ldr	r0, [r7, #4]
 1959 0030 FFF7FEFF 		bl	gps_start_slew
 413:app_state_auto.c ****     // Get and use bearing for pointing math.
 414:app_state_auto.c ****     gps_update_pointing(ctx);   // initial bearing
 1960              		.loc 1 414 0
 1961 0034 7868     		ldr	r0, [r7, #4]
 1962 0036 FFF7FEFF 		bl	gps_update_pointing
 1963              	.L115:
 415:app_state_auto.c **** }
 1964              		.loc 1 415 0
 1965 003a 0837     		adds	r7, r7, #8
 1966              		.cfi_def_cfa_offset 8
 1967 003c BD46     		mov	sp, r7
 1968              		.cfi_def_cfa_register 13
 1969              		@ sp needed
 1970 003e 80BD     		pop	{r7, pc}
 1971              	.L119:
 1972              		.align	2
 1973              	.L118:
 1974 0040 20020000 		.word	.LC13
 1975 0044 50020000 		.word	.LC14
 1976              		.cfi_endproc
 1977              	.LFE79:
 1978              		.size	entry_auto_acq_gps, .-entry_auto_acq_gps
 1979              		.section	.text.exit_auto_acq_gps,"ax",%progbits
 1980              		.align	2
 1981              		.global	exit_auto_acq_gps
 1982              		.thumb
 1983              		.thumb_func
 1984              		.type	exit_auto_acq_gps, %function
 1985              	exit_auto_acq_gps:
 1986              	.LFB80:
 416:app_state_auto.c **** 
 417:app_state_auto.c **** void exit_auto_acq_gps(app_ctx_t *ctx)
 418:app_state_auto.c **** {
 1987              		.loc 1 418 0
 1988              		.cfi_startproc
 1989              		@ args = 0, pretend = 0, frame = 8
 1990              		@ frame_needed = 1, uses_anonymous_args = 0
 1991 0000 80B5     		push	{r7, lr}
 1992              		.cfi_def_cfa_offset 8
 1993              		.cfi_offset 7, -8
 1994              		.cfi_offset 14, -4
 1995 0002 82B0     		sub	sp, sp, #8
 1996              		.cfi_def_cfa_offset 16
 1997 0004 00AF     		add	r7, sp, #0
 1998              		.cfi_def_cfa_register 7
 1999 0006 7860     		str	r0, [r7, #4]
ARM GAS  C:\Users\yoons\AppData\Local\Temp\ccpZOz8V.s 			page 45


 419:app_state_auto.c ****     // Flush centroid stream to avoid bounce on exit
 420:app_state_auto.c ****     sbc_discard_centroid(STREAM_COARSE);
 2000              		.loc 1 420 0
 2001 0008 0020     		movs	r0, #0
 2002 000a FFF7FEFF 		bl	sbc_discard_centroid
 421:app_state_auto.c ****     
 422:app_state_auto.c ****     // Set pointing direction as the new origin
 423:app_state_auto.c ****     if (ctx->gps_settled) set_origin(ctx, 1u);
 2003              		.loc 1 423 0
 2004 000e 7B68     		ldr	r3, [r7, #4]
 2005 0010 93F84030 		ldrb	r3, [r3, #64]	@ zero_extendqisi2
 2006 0014 002B     		cmp	r3, #0
 2007 0016 03D0     		beq	.L121
 2008              		.loc 1 423 0 is_stmt 0 discriminator 1
 2009 0018 0121     		movs	r1, #1
 2010 001a 7868     		ldr	r0, [r7, #4]
 2011 001c FFF7FEFF 		bl	set_origin
 2012              	.L121:
 424:app_state_auto.c ****     
 425:app_state_auto.c ****     // Reset target variables
 426:app_state_auto.c ****     ctx->abs_pan_target = ctx->abs_tilt_target = 0.0f;
 2013              		.loc 1 426 0 is_stmt 1
 2014 0020 7B68     		ldr	r3, [r7, #4]
 2015 0022 4FF00002 		mov	r2, #0
 2016 0026 1A62     		str	r2, [r3, #32]	@ float
 2017 0028 7B68     		ldr	r3, [r7, #4]
 2018 002a 1A6A     		ldr	r2, [r3, #32]	@ float
 2019 002c 7B68     		ldr	r3, [r7, #4]
 2020 002e DA61     		str	r2, [r3, #28]	@ float
 427:app_state_auto.c **** }
 2021              		.loc 1 427 0
 2022 0030 00BF     		nop
 2023 0032 0837     		adds	r7, r7, #8
 2024              		.cfi_def_cfa_offset 8
 2025 0034 BD46     		mov	sp, r7
 2026              		.cfi_def_cfa_register 13
 2027              		@ sp needed
 2028 0036 80BD     		pop	{r7, pc}
 2029              		.cfi_endproc
 2030              	.LFE80:
 2031              		.size	exit_auto_acq_gps, .-exit_auto_acq_gps
 2032              		.section	.text.key_auto_acq_gps,"ax",%progbits
 2033              		.align	2
 2034              		.global	key_auto_acq_gps
 2035              		.thumb
 2036              		.thumb_func
 2037              		.type	key_auto_acq_gps, %function
 2038              	key_auto_acq_gps:
 2039              	.LFB81:
 428:app_state_auto.c **** 
 429:app_state_auto.c **** uint8_t key_auto_acq_gps(app_ctx_t *ctx, char k)
 430:app_state_auto.c **** {
 2040              		.loc 1 430 0
 2041              		.cfi_startproc
 2042              		@ args = 0, pretend = 0, frame = 8
 2043              		@ frame_needed = 1, uses_anonymous_args = 0
 2044 0000 80B5     		push	{r7, lr}
ARM GAS  C:\Users\yoons\AppData\Local\Temp\ccpZOz8V.s 			page 46


 2045              		.cfi_def_cfa_offset 8
 2046              		.cfi_offset 7, -8
 2047              		.cfi_offset 14, -4
 2048 0002 82B0     		sub	sp, sp, #8
 2049              		.cfi_def_cfa_offset 16
 2050 0004 00AF     		add	r7, sp, #0
 2051              		.cfi_def_cfa_register 7
 2052 0006 7860     		str	r0, [r7, #4]
 2053 0008 0B46     		mov	r3, r1
 2054 000a FB70     		strb	r3, [r7, #3]
 431:app_state_auto.c ****     switch (k) {
 2055              		.loc 1 431 0
 2056 000c FB78     		ldrb	r3, [r7, #3]	@ zero_extendqisi2
 2057 000e 652B     		cmp	r3, #101
 2058 0010 05D1     		bne	.L126
 432:app_state_auto.c ****         case 'e': app_transition(ctx, STBY_HOLD); return 1;
 2059              		.loc 1 432 0
 2060 0012 0621     		movs	r1, #6
 2061 0014 7868     		ldr	r0, [r7, #4]
 2062 0016 FFF7FEFF 		bl	app_transition
 2063 001a 0123     		movs	r3, #1
 2064 001c 00E0     		b	.L125
 2065              	.L126:
 433:app_state_auto.c ****         default:  return 0;
 2066              		.loc 1 433 0
 2067 001e 0023     		movs	r3, #0
 2068              	.L125:
 434:app_state_auto.c ****     }
 435:app_state_auto.c **** }
 2069              		.loc 1 435 0
 2070 0020 1846     		mov	r0, r3
 2071 0022 0837     		adds	r7, r7, #8
 2072              		.cfi_def_cfa_offset 8
 2073 0024 BD46     		mov	sp, r7
 2074              		.cfi_def_cfa_register 13
 2075              		@ sp needed
 2076 0026 80BD     		pop	{r7, pc}
 2077              		.cfi_endproc
 2078              	.LFE81:
 2079              		.size	key_auto_acq_gps, .-key_auto_acq_gps
 2080              		.section	.text.build_auto_acq_gps,"ax",%progbits
 2081              		.align	2
 2082              		.global	build_auto_acq_gps
 2083              		.thumb
 2084              		.thumb_func
 2085              		.type	build_auto_acq_gps, %function
 2086              	build_auto_acq_gps:
 2087              	.LFB82:
 436:app_state_auto.c **** 
 437:app_state_auto.c **** void build_auto_acq_gps(const app_ctx_t *ctx, hamfly_control_t *out)
 438:app_state_auto.c **** {
 2088              		.loc 1 438 0
 2089              		.cfi_startproc
 2090              		@ args = 0, pretend = 0, frame = 8
 2091              		@ frame_needed = 1, uses_anonymous_args = 0
 2092 0000 80B5     		push	{r7, lr}
 2093              		.cfi_def_cfa_offset 8
ARM GAS  C:\Users\yoons\AppData\Local\Temp\ccpZOz8V.s 			page 47


 2094              		.cfi_offset 7, -8
 2095              		.cfi_offset 14, -4
 2096 0002 82B0     		sub	sp, sp, #8
 2097              		.cfi_def_cfa_offset 16
 2098 0004 00AF     		add	r7, sp, #0
 2099              		.cfi_def_cfa_register 7
 2100 0006 7860     		str	r0, [r7, #4]
 2101 0008 3960     		str	r1, [r7]
 439:app_state_auto.c ****     out->kill      = 0u;
 2102              		.loc 1 439 0
 2103 000a 3B68     		ldr	r3, [r7]
 2104 000c 0022     		movs	r2, #0
 2105 000e 1A74     		strb	r2, [r3, #16]
 440:app_state_auto.c ****     out->roll_mode = HAMFLY_DEFER;
 2106              		.loc 1 440 0
 2107 0010 3B68     		ldr	r3, [r7]
 2108 0012 0022     		movs	r2, #0
 2109 0014 9A73     		strb	r2, [r3, #14]
 441:app_state_auto.c ****     out->roll      = 0.0f;
 2110              		.loc 1 441 0
 2111 0016 3B68     		ldr	r3, [r7]
 2112 0018 4FF00002 		mov	r2, #0
 2113 001c 9A60     		str	r2, [r3, #8]	@ float
 442:app_state_auto.c ****     out->pan_mode  = out->tilt_mode = HAMFLY_ABSOLUTE;  // TODO: Majestic? Needs testing of pointin
 2114              		.loc 1 442 0
 2115 001e 3B68     		ldr	r3, [r7]
 2116 0020 0222     		movs	r2, #2
 2117 0022 5A73     		strb	r2, [r3, #13]
 2118 0024 3B68     		ldr	r3, [r7]
 2119 0026 5A7B     		ldrb	r2, [r3, #13]	@ zero_extendqisi2
 2120 0028 3B68     		ldr	r3, [r7]
 2121 002a 1A73     		strb	r2, [r3, #12]
 443:app_state_auto.c ****     out->pan  = CLAMP(ctx->abs_pan_target,  -1.0f, 1.0f);
 2122              		.loc 1 443 0
 2123 002c 7B68     		ldr	r3, [r7, #4]
 2124 002e DB69     		ldr	r3, [r3, #28]	@ float
 2125 0030 1C49     		ldr	r1, .L148
 2126 0032 1846     		mov	r0, r3
 2127 0034 FFF7FEFF 		bl	__aeabi_fcmplt
 2128 0038 0346     		mov	r3, r0
 2129 003a 002B     		cmp	r3, #0
 2130 003c 01D0     		beq	.L144
 2131              		.loc 1 443 0 is_stmt 0 discriminator 1
 2132 003e 194B     		ldr	r3, .L148
 2133 0040 0EE0     		b	.L130
 2134              	.L144:
 2135              		.loc 1 443 0 discriminator 2
 2136 0042 7B68     		ldr	r3, [r7, #4]
 2137 0044 DB69     		ldr	r3, [r3, #28]	@ float
 2138 0046 4FF07E51 		mov	r1, #1065353216
 2139 004a 1846     		mov	r0, r3
 2140 004c FFF7FEFF 		bl	__aeabi_fcmpgt
 2141 0050 0346     		mov	r3, r0
 2142 0052 002B     		cmp	r3, #0
 2143 0054 02D0     		beq	.L145
 2144              		.loc 1 443 0 discriminator 4
 2145 0056 4FF07E53 		mov	r3, #1065353216
ARM GAS  C:\Users\yoons\AppData\Local\Temp\ccpZOz8V.s 			page 48


 2146 005a 01E0     		b	.L130
 2147              	.L145:
 2148              		.loc 1 443 0 discriminator 5
 2149 005c 7B68     		ldr	r3, [r7, #4]
 2150 005e DB69     		ldr	r3, [r3, #28]	@ float
 2151              	.L130:
 2152              		.loc 1 443 0 discriminator 8
 2153 0060 3A68     		ldr	r2, [r7]
 2154 0062 1360     		str	r3, [r2]	@ float
 444:app_state_auto.c ****     out->tilt = CLAMP(ctx->abs_tilt_target, -1.0f, 1.0f);
 2155              		.loc 1 444 0 is_stmt 1 discriminator 8
 2156 0064 7B68     		ldr	r3, [r7, #4]
 2157 0066 1B6A     		ldr	r3, [r3, #32]	@ float
 2158 0068 0E49     		ldr	r1, .L148
 2159 006a 1846     		mov	r0, r3
 2160 006c FFF7FEFF 		bl	__aeabi_fcmplt
 2161 0070 0346     		mov	r3, r0
 2162 0072 002B     		cmp	r3, #0
 2163 0074 01D0     		beq	.L146
 2164              		.loc 1 444 0 is_stmt 0 discriminator 1
 2165 0076 0B4B     		ldr	r3, .L148
 2166 0078 0EE0     		b	.L136
 2167              	.L146:
 2168              		.loc 1 444 0 discriminator 2
 2169 007a 7B68     		ldr	r3, [r7, #4]
 2170 007c 1B6A     		ldr	r3, [r3, #32]	@ float
 2171 007e 4FF07E51 		mov	r1, #1065353216
 2172 0082 1846     		mov	r0, r3
 2173 0084 FFF7FEFF 		bl	__aeabi_fcmpgt
 2174 0088 0346     		mov	r3, r0
 2175 008a 002B     		cmp	r3, #0
 2176 008c 02D0     		beq	.L147
 2177              		.loc 1 444 0 discriminator 4
 2178 008e 4FF07E53 		mov	r3, #1065353216
 2179 0092 01E0     		b	.L136
 2180              	.L147:
 2181              		.loc 1 444 0 discriminator 5
 2182 0094 7B68     		ldr	r3, [r7, #4]
 2183 0096 1B6A     		ldr	r3, [r3, #32]	@ float
 2184              	.L136:
 2185              		.loc 1 444 0 discriminator 8
 2186 0098 3A68     		ldr	r2, [r7]
 2187 009a 5360     		str	r3, [r2, #4]	@ float
 445:app_state_auto.c **** }
 2188              		.loc 1 445 0 is_stmt 1 discriminator 8
 2189 009c 00BF     		nop
 2190 009e 0837     		adds	r7, r7, #8
 2191              		.cfi_def_cfa_offset 8
 2192 00a0 BD46     		mov	sp, r7
 2193              		.cfi_def_cfa_register 13
 2194              		@ sp needed
 2195 00a2 80BD     		pop	{r7, pc}
 2196              	.L149:
 2197              		.align	2
 2198              	.L148:
 2199 00a4 000080BF 		.word	-1082130432
 2200              		.cfi_endproc
ARM GAS  C:\Users\yoons\AppData\Local\Temp\ccpZOz8V.s 			page 49


 2201              	.LFE82:
 2202              		.size	build_auto_acq_gps, .-build_auto_acq_gps
 2203              		.section	.rodata
 2204              		.align	2
 2205              	.LC15:
 2206 0284 0D0A5B41 		.ascii	"\015\012[AUTO_ACQ_SPIRAL] placeholder (NI).\015\012"
 2206      55544F5F 
 2206      4143515F 
 2206      53504952 
 2206      414C5D20 
 2207 02ab 3E2000   		.ascii	"> \000"
 2208              		.section	.text.entry_auto_acq_spiral,"ax",%progbits
 2209              		.align	2
 2210              		.global	entry_auto_acq_spiral
 2211              		.thumb
 2212              		.thumb_func
 2213              		.type	entry_auto_acq_spiral, %function
 2214              	entry_auto_acq_spiral:
 2215              	.LFB83:
 446:app_state_auto.c **** 
 447:app_state_auto.c **** 
 448:app_state_auto.c **** // %==========================================================================%
 449:app_state_auto.c **** // %                           AUTO_ACQ_SPIRAL                                %
 450:app_state_auto.c **** // %==========================================================================%
 451:app_state_auto.c **** void entry_auto_acq_spiral(app_ctx_t *ctx)
 452:app_state_auto.c **** {
 2216              		.loc 1 452 0
 2217              		.cfi_startproc
 2218              		@ args = 0, pretend = 0, frame = 8
 2219              		@ frame_needed = 1, uses_anonymous_args = 0
 2220 0000 80B5     		push	{r7, lr}
 2221              		.cfi_def_cfa_offset 8
 2222              		.cfi_offset 7, -8
 2223              		.cfi_offset 14, -4
 2224 0002 82B0     		sub	sp, sp, #8
 2225              		.cfi_def_cfa_offset 16
 2226 0004 00AF     		add	r7, sp, #0
 2227              		.cfi_def_cfa_register 7
 2228 0006 7860     		str	r0, [r7, #4]
 453:app_state_auto.c ****     // Not implemented.
 454:app_state_auto.c ****     (void)ctx;
 455:app_state_auto.c ****     UART_DEBUG_PutString("\r\n[AUTO_ACQ_SPIRAL] placeholder (NI).\r\n> ");
 2229              		.loc 1 455 0
 2230 0008 0348     		ldr	r0, .L151
 2231 000a FFF7FEFF 		bl	dbg_put
 456:app_state_auto.c **** }
 2232              		.loc 1 456 0
 2233 000e 00BF     		nop
 2234 0010 0837     		adds	r7, r7, #8
 2235              		.cfi_def_cfa_offset 8
 2236 0012 BD46     		mov	sp, r7
 2237              		.cfi_def_cfa_register 13
 2238              		@ sp needed
 2239 0014 80BD     		pop	{r7, pc}
 2240              	.L152:
 2241 0016 00BF     		.align	2
 2242              	.L151:
ARM GAS  C:\Users\yoons\AppData\Local\Temp\ccpZOz8V.s 			page 50


 2243 0018 84020000 		.word	.LC15
 2244              		.cfi_endproc
 2245              	.LFE83:
 2246              		.size	entry_auto_acq_spiral, .-entry_auto_acq_spiral
 2247              		.section	.rodata
 2248 02ae 0000     		.align	2
 2249              	.LC16:
 2250 02b0 0D0A5B41 		.ascii	"\015\012[AUTO_TRACKING] closed-loop  e=exit\015\012"
 2250      55544F5F 
 2250      54524143 
 2250      4B494E47 
 2250      5D20636C 
 2251 02d7 3E2000   		.ascii	"> \000"
 2252              		.section	.text.entry_auto_tracking,"ax",%progbits
 2253              		.align	2
 2254              		.global	entry_auto_tracking
 2255              		.thumb
 2256              		.thumb_func
 2257              		.type	entry_auto_tracking, %function
 2258              	entry_auto_tracking:
 2259              	.LFB84:
 457:app_state_auto.c **** 
 458:app_state_auto.c **** // %==========================================================================%
 459:app_state_auto.c **** // %                            AUTO_TRACKING                                 %
 460:app_state_auto.c **** // %==========================================================================%
 461:app_state_auto.c **** void entry_auto_tracking(app_ctx_t *ctx)
 462:app_state_auto.c **** {
 2260              		.loc 1 462 0
 2261              		.cfi_startproc
 2262              		@ args = 0, pretend = 0, frame = 8
 2263              		@ frame_needed = 1, uses_anonymous_args = 0
 2264 0000 80B5     		push	{r7, lr}
 2265              		.cfi_def_cfa_offset 8
 2266              		.cfi_offset 7, -8
 2267              		.cfi_offset 14, -4
 2268 0002 82B0     		sub	sp, sp, #8
 2269              		.cfi_def_cfa_offset 16
 2270 0004 00AF     		add	r7, sp, #0
 2271              		.cfi_def_cfa_register 7
 2272 0006 7860     		str	r0, [r7, #4]
 463:app_state_auto.c ****     // Clear any old values for clean handover.
 464:app_state_auto.c ****     ctx->track_cx_last = 0;  // Clear last centroid value
 2273              		.loc 1 464 0
 2274 0008 7B68     		ldr	r3, [r7, #4]
 2275 000a 0022     		movs	r2, #0
 2276 000c A3F87C20 		strh	r2, [r3, #124]	@ movhi
 465:app_state_auto.c ****     ctx->track_cy_last = 0;
 2277              		.loc 1 465 0
 2278 0010 7B68     		ldr	r3, [r7, #4]
 2279 0012 0022     		movs	r2, #0
 2280 0014 A3F87E20 		strh	r2, [r3, #126]	@ movhi
 466:app_state_auto.c ****     ctx->track_i_pan    = 0.0f;  // Reset integrator
 2281              		.loc 1 466 0
 2282 0018 7B68     		ldr	r3, [r7, #4]
 2283 001a 4FF00002 		mov	r2, #0
 2284 001e 1A66     		str	r2, [r3, #96]	@ float
 467:app_state_auto.c ****     ctx->track_i_tilt   = 0.0f;
ARM GAS  C:\Users\yoons\AppData\Local\Temp\ccpZOz8V.s 			page 51


 2285              		.loc 1 467 0
 2286 0020 7B68     		ldr	r3, [r7, #4]
 2287 0022 4FF00002 		mov	r2, #0
 2288 0026 5A66     		str	r2, [r3, #100]	@ float
 468:app_state_auto.c ****     ctx->track_pan_cmd  = 0.0f;
 2289              		.loc 1 468 0
 2290 0028 7B68     		ldr	r3, [r7, #4]
 2291 002a 4FF00002 		mov	r2, #0
 2292 002e 9A66     		str	r2, [r3, #104]	@ float
 469:app_state_auto.c ****     ctx->track_tilt_cmd = 0.0f;
 2293              		.loc 1 469 0
 2294 0030 7B68     		ldr	r3, [r7, #4]
 2295 0032 4FF00002 		mov	r2, #0
 2296 0036 DA66     		str	r2, [r3, #108]	@ float
 470:app_state_auto.c ****     ctx->track_de_pan   = 0.0f;
 2297              		.loc 1 470 0
 2298 0038 7B68     		ldr	r3, [r7, #4]
 2299 003a 4FF00002 		mov	r2, #0
 2300 003e 1A67     		str	r2, [r3, #112]	@ float
 471:app_state_auto.c ****     ctx->track_de_tilt  = 0.0f;
 2301              		.loc 1 471 0
 2302 0040 7B68     		ldr	r3, [r7, #4]
 2303 0042 4FF00002 		mov	r2, #0
 2304 0046 5A67     		str	r2, [r3, #116]	@ float
 472:app_state_auto.c ****     ctx->track_dt       = 0.0f;
 2305              		.loc 1 472 0
 2306 0048 7B68     		ldr	r3, [r7, #4]
 2307 004a 4FF00002 		mov	r2, #0
 2308 004e 9A67     		str	r2, [r3, #120]	@ float
 473:app_state_auto.c ****     UART_DEBUG_PutString("\r\n[AUTO_TRACKING] closed-loop  e=exit\r\n> ");
 2309              		.loc 1 473 0
 2310 0050 0348     		ldr	r0, .L154
 2311 0052 FFF7FEFF 		bl	dbg_put
 474:app_state_auto.c **** }
 2312              		.loc 1 474 0
 2313 0056 00BF     		nop
 2314 0058 0837     		adds	r7, r7, #8
 2315              		.cfi_def_cfa_offset 8
 2316 005a BD46     		mov	sp, r7
 2317              		.cfi_def_cfa_register 13
 2318              		@ sp needed
 2319 005c 80BD     		pop	{r7, pc}
 2320              	.L155:
 2321 005e 00BF     		.align	2
 2322              	.L154:
 2323 0060 B0020000 		.word	.LC16
 2324              		.cfi_endproc
 2325              	.LFE84:
 2326              		.size	entry_auto_tracking, .-entry_auto_tracking
 2327              		.section	.text.key_auto_tracking,"ax",%progbits
 2328              		.align	2
 2329              		.global	key_auto_tracking
 2330              		.thumb
 2331              		.thumb_func
 2332              		.type	key_auto_tracking, %function
 2333              	key_auto_tracking:
 2334              	.LFB85:
ARM GAS  C:\Users\yoons\AppData\Local\Temp\ccpZOz8V.s 			page 52


 475:app_state_auto.c **** 
 476:app_state_auto.c **** uint8_t key_auto_tracking(app_ctx_t *ctx, char k)
 477:app_state_auto.c **** {
 2335              		.loc 1 477 0
 2336              		.cfi_startproc
 2337              		@ args = 0, pretend = 0, frame = 8
 2338              		@ frame_needed = 1, uses_anonymous_args = 0
 2339 0000 80B5     		push	{r7, lr}
 2340              		.cfi_def_cfa_offset 8
 2341              		.cfi_offset 7, -8
 2342              		.cfi_offset 14, -4
 2343 0002 82B0     		sub	sp, sp, #8
 2344              		.cfi_def_cfa_offset 16
 2345 0004 00AF     		add	r7, sp, #0
 2346              		.cfi_def_cfa_register 7
 2347 0006 7860     		str	r0, [r7, #4]
 2348 0008 0B46     		mov	r3, r1
 2349 000a FB70     		strb	r3, [r7, #3]
 478:app_state_auto.c ****     // TEMP: Debug exit to hold with e over serial.
 479:app_state_auto.c ****     switch (k) {
 2350              		.loc 1 479 0
 2351 000c FB78     		ldrb	r3, [r7, #3]	@ zero_extendqisi2
 2352 000e 652B     		cmp	r3, #101
 2353 0010 05D1     		bne	.L160
 480:app_state_auto.c ****         case 'e': app_transition(ctx, STBY_HOLD); return 1;
 2354              		.loc 1 480 0
 2355 0012 0621     		movs	r1, #6
 2356 0014 7868     		ldr	r0, [r7, #4]
 2357 0016 FFF7FEFF 		bl	app_transition
 2358 001a 0123     		movs	r3, #1
 2359 001c 00E0     		b	.L159
 2360              	.L160:
 481:app_state_auto.c ****         default:  return 0;
 2361              		.loc 1 481 0
 2362 001e 0023     		movs	r3, #0
 2363              	.L159:
 482:app_state_auto.c ****     }
 483:app_state_auto.c **** }
 2364              		.loc 1 483 0
 2365 0020 1846     		mov	r0, r3
 2366 0022 0837     		adds	r7, r7, #8
 2367              		.cfi_def_cfa_offset 8
 2368 0024 BD46     		mov	sp, r7
 2369              		.cfi_def_cfa_register 13
 2370              		@ sp needed
 2371 0026 80BD     		pop	{r7, pc}
 2372              		.cfi_endproc
 2373              	.LFE85:
 2374              		.size	key_auto_tracking, .-key_auto_tracking
 2375              		.section	.text.tracking_pid_step,"ax",%progbits
 2376              		.align	2
 2377              		.thumb
 2378              		.thumb_func
 2379              		.type	tracking_pid_step, %function
 2380              	tracking_pid_step:
 2381              	.LFB86:
 484:app_state_auto.c **** 
ARM GAS  C:\Users\yoons\AppData\Local\Temp\ccpZOz8V.s 			page 53


 485:app_state_auto.c **** // Time domai nfree PID control.
 486:app_state_auto.c **** static void tracking_pid_step(app_ctx_t *ctx)
 487:app_state_auto.c **** {
 2382              		.loc 1 487 0
 2383              		.cfi_startproc
 2384              		@ args = 0, pretend = 0, frame = 56
 2385              		@ frame_needed = 1, uses_anonymous_args = 0
 2386 0000 90B5     		push	{r4, r7, lr}
 2387              		.cfi_def_cfa_offset 12
 2388              		.cfi_offset 4, -12
 2389              		.cfi_offset 7, -8
 2390              		.cfi_offset 14, -4
 2391 0002 8FB0     		sub	sp, sp, #60
 2392              		.cfi_def_cfa_offset 72
 2393 0004 00AF     		add	r7, sp, #0
 2394              		.cfi_def_cfa_register 7
 2395 0006 7860     		str	r0, [r7, #4]
 488:app_state_auto.c ****     float dt     = ctx->track_dt;
 2396              		.loc 1 488 0
 2397 0008 7B68     		ldr	r3, [r7, #4]
 2398 000a 9B6F     		ldr	r3, [r3, #120]	@ float
 2399 000c 7B63     		str	r3, [r7, #52]	@ float
 489:app_state_auto.c ****     float e_pan  = (float)ctx->track_cx_last * 0.01f;   // in mrad
 2400              		.loc 1 489 0
 2401 000e 7B68     		ldr	r3, [r7, #4]
 2402 0010 B3F97C30 		ldrsh	r3, [r3, #124]
 2403 0014 1846     		mov	r0, r3
 2404 0016 FFF7FEFF 		bl	__aeabi_i2f
 2405 001a 0346     		mov	r3, r0
 2406 001c 7A49     		ldr	r1, .L215
 2407 001e 1846     		mov	r0, r3
 2408 0020 FFF7FEFF 		bl	__aeabi_fmul
 2409 0024 0346     		mov	r3, r0
 2410 0026 3B63     		str	r3, [r7, #48]	@ float
 490:app_state_auto.c ****     float e_tilt = (float)ctx->track_cy_last * 0.01f;   // 0.001 mrad LSB
 2411              		.loc 1 490 0
 2412 0028 7B68     		ldr	r3, [r7, #4]
 2413 002a B3F97E30 		ldrsh	r3, [r3, #126]
 2414 002e 1846     		mov	r0, r3
 2415 0030 FFF7FEFF 		bl	__aeabi_i2f
 2416 0034 0346     		mov	r3, r0
 2417 0036 7449     		ldr	r1, .L215
 2418 0038 1846     		mov	r0, r3
 2419 003a FFF7FEFF 		bl	__aeabi_fmul
 2420 003e 0346     		mov	r3, r0
 2421 0040 FB62     		str	r3, [r7, #44]	@ float
 491:app_state_auto.c ****     float de_p   = ctx->track_de_pan;
 2422              		.loc 1 491 0
 2423 0042 7B68     		ldr	r3, [r7, #4]
 2424 0044 1B6F     		ldr	r3, [r3, #112]	@ float
 2425 0046 BB62     		str	r3, [r7, #40]	@ float
 492:app_state_auto.c ****     float de_t   = ctx->track_de_tilt;
 2426              		.loc 1 492 0
 2427 0048 7B68     		ldr	r3, [r7, #4]
 2428 004a 5B6F     		ldr	r3, [r3, #116]	@ float
 2429 004c 7B62     		str	r3, [r7, #36]	@ float
 493:app_state_auto.c **** 
ARM GAS  C:\Users\yoons\AppData\Local\Temp\ccpZOz8V.s 			page 54


 494:app_state_auto.c ****     // Un-clamped omega for the anti-windup test.
 495:app_state_auto.c ****     float omega_pan_raw  = ctx->track_kp * e_pan
 2430              		.loc 1 495 0
 2431 004e 7B68     		ldr	r3, [r7, #4]
 2432 0050 1B6D     		ldr	r3, [r3, #80]	@ float
 2433 0052 396B     		ldr	r1, [r7, #48]	@ float
 2434 0054 1846     		mov	r0, r3
 2435 0056 FFF7FEFF 		bl	__aeabi_fmul
 2436 005a 0346     		mov	r3, r0
 2437 005c 1C46     		mov	r4, r3
 496:app_state_auto.c ****                          + ctx->track_ki * ctx->track_i_pan
 2438              		.loc 1 496 0
 2439 005e 7B68     		ldr	r3, [r7, #4]
 2440 0060 5A6D     		ldr	r2, [r3, #84]	@ float
 2441 0062 7B68     		ldr	r3, [r7, #4]
 2442 0064 1B6E     		ldr	r3, [r3, #96]	@ float
 2443 0066 1946     		mov	r1, r3
 2444 0068 1046     		mov	r0, r2
 2445 006a FFF7FEFF 		bl	__aeabi_fmul
 2446 006e 0346     		mov	r3, r0
 2447 0070 1946     		mov	r1, r3
 2448 0072 2046     		mov	r0, r4
 2449 0074 FFF7FEFF 		bl	__aeabi_fadd
 2450 0078 0346     		mov	r3, r0
 2451 007a 1C46     		mov	r4, r3
 497:app_state_auto.c ****                          + ctx->track_kd * de_p;
 2452              		.loc 1 497 0
 2453 007c 7B68     		ldr	r3, [r7, #4]
 2454 007e 9B6D     		ldr	r3, [r3, #88]	@ float
 2455 0080 B96A     		ldr	r1, [r7, #40]	@ float
 2456 0082 1846     		mov	r0, r3
 2457 0084 FFF7FEFF 		bl	__aeabi_fmul
 2458 0088 0346     		mov	r3, r0
 495:app_state_auto.c ****                          + ctx->track_ki * ctx->track_i_pan
 2459              		.loc 1 495 0
 2460 008a 1946     		mov	r1, r3
 2461 008c 2046     		mov	r0, r4
 2462 008e FFF7FEFF 		bl	__aeabi_fadd
 2463 0092 0346     		mov	r3, r0
 2464 0094 3B62     		str	r3, [r7, #32]	@ float
 498:app_state_auto.c ****     float omega_tilt_raw = ctx->track_kp * e_tilt
 2465              		.loc 1 498 0
 2466 0096 7B68     		ldr	r3, [r7, #4]
 2467 0098 1B6D     		ldr	r3, [r3, #80]	@ float
 2468 009a F96A     		ldr	r1, [r7, #44]	@ float
 2469 009c 1846     		mov	r0, r3
 2470 009e FFF7FEFF 		bl	__aeabi_fmul
 2471 00a2 0346     		mov	r3, r0
 2472 00a4 1C46     		mov	r4, r3
 499:app_state_auto.c ****                          + ctx->track_ki * ctx->track_i_tilt
 2473              		.loc 1 499 0
 2474 00a6 7B68     		ldr	r3, [r7, #4]
 2475 00a8 5A6D     		ldr	r2, [r3, #84]	@ float
 2476 00aa 7B68     		ldr	r3, [r7, #4]
 2477 00ac 5B6E     		ldr	r3, [r3, #100]	@ float
 2478 00ae 1946     		mov	r1, r3
 2479 00b0 1046     		mov	r0, r2
ARM GAS  C:\Users\yoons\AppData\Local\Temp\ccpZOz8V.s 			page 55


 2480 00b2 FFF7FEFF 		bl	__aeabi_fmul
 2481 00b6 0346     		mov	r3, r0
 2482 00b8 1946     		mov	r1, r3
 2483 00ba 2046     		mov	r0, r4
 2484 00bc FFF7FEFF 		bl	__aeabi_fadd
 2485 00c0 0346     		mov	r3, r0
 2486 00c2 1C46     		mov	r4, r3
 500:app_state_auto.c ****                          + ctx->track_kd * de_t;
 2487              		.loc 1 500 0
 2488 00c4 7B68     		ldr	r3, [r7, #4]
 2489 00c6 9B6D     		ldr	r3, [r3, #88]	@ float
 2490 00c8 796A     		ldr	r1, [r7, #36]	@ float
 2491 00ca 1846     		mov	r0, r3
 2492 00cc FFF7FEFF 		bl	__aeabi_fmul
 2493 00d0 0346     		mov	r3, r0
 498:app_state_auto.c ****     float omega_tilt_raw = ctx->track_kp * e_tilt
 2494              		.loc 1 498 0
 2495 00d2 1946     		mov	r1, r3
 2496 00d4 2046     		mov	r0, r4
 2497 00d6 FFF7FEFF 		bl	__aeabi_fadd
 2498 00da 0346     		mov	r3, r0
 2499 00dc FB61     		str	r3, [r7, #28]	@ float
 501:app_state_auto.c **** 
 502:app_state_auto.c ****     // Anti-windup integrator limit with two conditions:
 503:app_state_auto.c ****     // A) Saturation gate -> Only wind up when output we are not saturated.
 504:app_state_auto.c ****     // B) Acquisition gate -> Only wind up when err sufficiently low
 505:app_state_auto.c ****     float rmax = ctx->track_rate_max;
 2500              		.loc 1 505 0
 2501 00de 7B68     		ldr	r3, [r7, #4]
 2502 00e0 DB6D     		ldr	r3, [r3, #92]	@ float
 2503 00e2 BB61     		str	r3, [r7, #24]	@ float
 506:app_state_auto.c ****     if (fabsf(omega_pan_raw)  < rmax && fabsf(e_pan)  < TRACK_I_GATE_MRAD)
 2504              		.loc 1 506 0
 2505 00e4 3B6A     		ldr	r3, [r7, #32]
 2506 00e6 23F00043 		bic	r3, r3, #-2147483648
 2507 00ea B969     		ldr	r1, [r7, #24]	@ float
 2508 00ec 1846     		mov	r0, r3
 2509 00ee FFF7FEFF 		bl	__aeabi_fcmplt
 2510 00f2 0346     		mov	r3, r0
 2511 00f4 002B     		cmp	r3, #0
 2512 00f6 18D0     		beq	.L162
 2513              		.loc 1 506 0 is_stmt 0 discriminator 1
 2514 00f8 3B6B     		ldr	r3, [r7, #48]
 2515 00fa 23F00043 		bic	r3, r3, #-2147483648
 2516 00fe 4349     		ldr	r1, .L215+4
 2517 0100 1846     		mov	r0, r3
 2518 0102 FFF7FEFF 		bl	__aeabi_fcmplt
 2519 0106 0346     		mov	r3, r0
 2520 0108 002B     		cmp	r3, #0
 2521 010a 0ED0     		beq	.L162
 507:app_state_auto.c ****         ctx->track_i_pan  += e_pan  * dt;
 2522              		.loc 1 507 0 is_stmt 1
 2523 010c 7B68     		ldr	r3, [r7, #4]
 2524 010e 1C6E     		ldr	r4, [r3, #96]	@ float
 2525 0110 796B     		ldr	r1, [r7, #52]	@ float
 2526 0112 386B     		ldr	r0, [r7, #48]	@ float
 2527 0114 FFF7FEFF 		bl	__aeabi_fmul
ARM GAS  C:\Users\yoons\AppData\Local\Temp\ccpZOz8V.s 			page 56


 2528 0118 0346     		mov	r3, r0
 2529 011a 1946     		mov	r1, r3
 2530 011c 2046     		mov	r0, r4
 2531 011e FFF7FEFF 		bl	__aeabi_fadd
 2532 0122 0346     		mov	r3, r0
 2533 0124 1A46     		mov	r2, r3
 2534 0126 7B68     		ldr	r3, [r7, #4]
 2535 0128 1A66     		str	r2, [r3, #96]	@ float
 2536              	.L162:
 508:app_state_auto.c ****     if (fabsf(omega_tilt_raw) < rmax && fabsf(e_tilt) < TRACK_I_GATE_MRAD)
 2537              		.loc 1 508 0
 2538 012a FB69     		ldr	r3, [r7, #28]
 2539 012c 23F00043 		bic	r3, r3, #-2147483648
 2540 0130 B969     		ldr	r1, [r7, #24]	@ float
 2541 0132 1846     		mov	r0, r3
 2542 0134 FFF7FEFF 		bl	__aeabi_fcmplt
 2543 0138 0346     		mov	r3, r0
 2544 013a 002B     		cmp	r3, #0
 2545 013c 18D0     		beq	.L165
 2546              		.loc 1 508 0 is_stmt 0 discriminator 1
 2547 013e FB6A     		ldr	r3, [r7, #44]
 2548 0140 23F00043 		bic	r3, r3, #-2147483648
 2549 0144 3149     		ldr	r1, .L215+4
 2550 0146 1846     		mov	r0, r3
 2551 0148 FFF7FEFF 		bl	__aeabi_fcmplt
 2552 014c 0346     		mov	r3, r0
 2553 014e 002B     		cmp	r3, #0
 2554 0150 0ED0     		beq	.L165
 509:app_state_auto.c ****         ctx->track_i_tilt += e_tilt * dt;
 2555              		.loc 1 509 0 is_stmt 1
 2556 0152 7B68     		ldr	r3, [r7, #4]
 2557 0154 5C6E     		ldr	r4, [r3, #100]	@ float
 2558 0156 796B     		ldr	r1, [r7, #52]	@ float
 2559 0158 F86A     		ldr	r0, [r7, #44]	@ float
 2560 015a FFF7FEFF 		bl	__aeabi_fmul
 2561 015e 0346     		mov	r3, r0
 2562 0160 1946     		mov	r1, r3
 2563 0162 2046     		mov	r0, r4
 2564 0164 FFF7FEFF 		bl	__aeabi_fadd
 2565 0168 0346     		mov	r3, r0
 2566 016a 1A46     		mov	r2, r3
 2567 016c 7B68     		ldr	r3, [r7, #4]
 2568 016e 5A66     		str	r2, [r3, #100]	@ float
 2569              	.L165:
 510:app_state_auto.c ****     // Bounded integrator: the I term alone can never saturate the output.
 511:app_state_auto.c ****     if (ctx->track_ki > 1e-9f) {
 2570              		.loc 1 511 0
 2571 0170 7B68     		ldr	r3, [r7, #4]
 2572 0172 5B6D     		ldr	r3, [r3, #84]	@ float
 2573 0174 2649     		ldr	r1, .L215+8
 2574 0176 1846     		mov	r0, r3
 2575 0178 FFF7FEFF 		bl	__aeabi_fcmpgt
 2576 017c 0346     		mov	r3, r0
 2577 017e 002B     		cmp	r3, #0
 2578 0180 4CD0     		beq	.L168
 2579              	.LBB17:
 512:app_state_auto.c ****         // Ensures Ki * track_i_xxx <= rmax.
ARM GAS  C:\Users\yoons\AppData\Local\Temp\ccpZOz8V.s 			page 57


 513:app_state_auto.c ****         float i_max = rmax / ctx->track_ki;
 2580              		.loc 1 513 0
 2581 0182 7B68     		ldr	r3, [r7, #4]
 2582 0184 5B6D     		ldr	r3, [r3, #84]	@ float
 2583 0186 1946     		mov	r1, r3
 2584 0188 B869     		ldr	r0, [r7, #24]	@ float
 2585 018a FFF7FEFF 		bl	__aeabi_fdiv
 2586 018e 0346     		mov	r3, r0
 2587 0190 7B61     		str	r3, [r7, #20]	@ float
 514:app_state_auto.c ****         ctx->track_i_pan  = CLAMP(ctx->track_i_pan,  -i_max, i_max);
 2588              		.loc 1 514 0
 2589 0192 7B68     		ldr	r3, [r7, #4]
 2590 0194 1A6E     		ldr	r2, [r3, #96]	@ float
 2591 0196 7B69     		ldr	r3, [r7, #20]
 2592 0198 83F00043 		eor	r3, r3, #-2147483648
 2593 019c 1946     		mov	r1, r3
 2594 019e 1046     		mov	r0, r2
 2595 01a0 FFF7FEFF 		bl	__aeabi_fcmplt
 2596 01a4 0346     		mov	r3, r0
 2597 01a6 002B     		cmp	r3, #0
 2598 01a8 03D0     		beq	.L207
 2599              		.loc 1 514 0 is_stmt 0 discriminator 1
 2600 01aa 7B69     		ldr	r3, [r7, #20]
 2601 01ac 83F00043 		eor	r3, r3, #-2147483648
 2602 01b0 0CE0     		b	.L172
 2603              	.L207:
 2604              		.loc 1 514 0 discriminator 2
 2605 01b2 7B68     		ldr	r3, [r7, #4]
 2606 01b4 1B6E     		ldr	r3, [r3, #96]	@ float
 2607 01b6 7969     		ldr	r1, [r7, #20]	@ float
 2608 01b8 1846     		mov	r0, r3
 2609 01ba FFF7FEFF 		bl	__aeabi_fcmpgt
 2610 01be 0346     		mov	r3, r0
 2611 01c0 002B     		cmp	r3, #0
 2612 01c2 01D0     		beq	.L208
 2613              		.loc 1 514 0 discriminator 4
 2614 01c4 7B69     		ldr	r3, [r7, #20]	@ float
 2615 01c6 01E0     		b	.L172
 2616              	.L208:
 2617              		.loc 1 514 0 discriminator 5
 2618 01c8 7B68     		ldr	r3, [r7, #4]
 2619 01ca 1B6E     		ldr	r3, [r3, #96]	@ float
 2620              	.L172:
 2621              		.loc 1 514 0 discriminator 8
 2622 01cc 7A68     		ldr	r2, [r7, #4]
 2623 01ce 1366     		str	r3, [r2, #96]	@ float
 515:app_state_auto.c ****         ctx->track_i_tilt = CLAMP(ctx->track_i_tilt, -i_max, i_max);
 2624              		.loc 1 515 0 is_stmt 1 discriminator 8
 2625 01d0 7B68     		ldr	r3, [r7, #4]
 2626 01d2 5A6E     		ldr	r2, [r3, #100]	@ float
 2627 01d4 7B69     		ldr	r3, [r7, #20]
 2628 01d6 83F00043 		eor	r3, r3, #-2147483648
 2629 01da 1946     		mov	r1, r3
 2630 01dc 1046     		mov	r0, r2
 2631 01de FFF7FEFF 		bl	__aeabi_fcmplt
 2632 01e2 0346     		mov	r3, r0
 2633 01e4 002B     		cmp	r3, #0
ARM GAS  C:\Users\yoons\AppData\Local\Temp\ccpZOz8V.s 			page 58


 2634 01e6 03D0     		beq	.L209
 2635              		.loc 1 515 0 is_stmt 0 discriminator 1
 2636 01e8 7B69     		ldr	r3, [r7, #20]
 2637 01ea 83F00043 		eor	r3, r3, #-2147483648
 2638 01ee 13E0     		b	.L178
 2639              	.L209:
 2640              		.loc 1 515 0 discriminator 2
 2641 01f0 7B68     		ldr	r3, [r7, #4]
 2642 01f2 5B6E     		ldr	r3, [r3, #100]	@ float
 2643 01f4 7969     		ldr	r1, [r7, #20]	@ float
 2644 01f6 1846     		mov	r0, r3
 2645 01f8 FFF7FEFF 		bl	__aeabi_fcmpgt
 2646 01fc 0346     		mov	r3, r0
 2647 01fe 002B     		cmp	r3, #0
 2648 0200 08D0     		beq	.L210
 2649              		.loc 1 515 0 discriminator 4
 2650 0202 7B69     		ldr	r3, [r7, #20]	@ float
 2651 0204 08E0     		b	.L178
 2652              	.L216:
 2653 0206 00BF     		.align	2
 2654              	.L215:
 2655 0208 0AD7233C 		.word	1008981770
 2656 020c 00002040 		.word	1075838976
 2657 0210 5F708930 		.word	814313567
 2658              	.L210:
 2659              		.loc 1 515 0 discriminator 5
 2660 0214 7B68     		ldr	r3, [r7, #4]
 2661 0216 5B6E     		ldr	r3, [r3, #100]	@ float
 2662              	.L178:
 2663              		.loc 1 515 0 discriminator 8
 2664 0218 7A68     		ldr	r2, [r7, #4]
 2665 021a 5366     		str	r3, [r2, #100]	@ float
 2666              	.L168:
 2667              	.LBE17:
 516:app_state_auto.c ****     }
 517:app_state_auto.c ****     
 518:app_state_auto.c ****     // Final omega with possibly-updated I, then clamp.
 519:app_state_auto.c ****     float omega_pan  = ctx->track_kp * e_pan
 2668              		.loc 1 519 0 is_stmt 1
 2669 021c 7B68     		ldr	r3, [r7, #4]
 2670 021e 1B6D     		ldr	r3, [r3, #80]	@ float
 2671 0220 396B     		ldr	r1, [r7, #48]	@ float
 2672 0222 1846     		mov	r0, r3
 2673 0224 FFF7FEFF 		bl	__aeabi_fmul
 2674 0228 0346     		mov	r3, r0
 2675 022a 1C46     		mov	r4, r3
 520:app_state_auto.c ****                      + ctx->track_ki * ctx->track_i_pan
 2676              		.loc 1 520 0
 2677 022c 7B68     		ldr	r3, [r7, #4]
 2678 022e 5A6D     		ldr	r2, [r3, #84]	@ float
 2679 0230 7B68     		ldr	r3, [r7, #4]
 2680 0232 1B6E     		ldr	r3, [r3, #96]	@ float
 2681 0234 1946     		mov	r1, r3
 2682 0236 1046     		mov	r0, r2
 2683 0238 FFF7FEFF 		bl	__aeabi_fmul
 2684 023c 0346     		mov	r3, r0
 2685 023e 1946     		mov	r1, r3
ARM GAS  C:\Users\yoons\AppData\Local\Temp\ccpZOz8V.s 			page 59


 2686 0240 2046     		mov	r0, r4
 2687 0242 FFF7FEFF 		bl	__aeabi_fadd
 2688 0246 0346     		mov	r3, r0
 2689 0248 1C46     		mov	r4, r3
 521:app_state_auto.c ****                      + ctx->track_kd * de_p;
 2690              		.loc 1 521 0
 2691 024a 7B68     		ldr	r3, [r7, #4]
 2692 024c 9B6D     		ldr	r3, [r3, #88]	@ float
 2693 024e B96A     		ldr	r1, [r7, #40]	@ float
 2694 0250 1846     		mov	r0, r3
 2695 0252 FFF7FEFF 		bl	__aeabi_fmul
 2696 0256 0346     		mov	r3, r0
 519:app_state_auto.c ****                      + ctx->track_ki * ctx->track_i_pan
 2697              		.loc 1 519 0
 2698 0258 1946     		mov	r1, r3
 2699 025a 2046     		mov	r0, r4
 2700 025c FFF7FEFF 		bl	__aeabi_fadd
 2701 0260 0346     		mov	r3, r0
 2702 0262 3B61     		str	r3, [r7, #16]	@ float
 522:app_state_auto.c ****     float omega_tilt = ctx->track_kp * e_tilt
 2703              		.loc 1 522 0
 2704 0264 7B68     		ldr	r3, [r7, #4]
 2705 0266 1B6D     		ldr	r3, [r3, #80]	@ float
 2706 0268 F96A     		ldr	r1, [r7, #44]	@ float
 2707 026a 1846     		mov	r0, r3
 2708 026c FFF7FEFF 		bl	__aeabi_fmul
 2709 0270 0346     		mov	r3, r0
 2710 0272 1C46     		mov	r4, r3
 523:app_state_auto.c ****                      + ctx->track_ki * ctx->track_i_tilt
 2711              		.loc 1 523 0
 2712 0274 7B68     		ldr	r3, [r7, #4]
 2713 0276 5A6D     		ldr	r2, [r3, #84]	@ float
 2714 0278 7B68     		ldr	r3, [r7, #4]
 2715 027a 5B6E     		ldr	r3, [r3, #100]	@ float
 2716 027c 1946     		mov	r1, r3
 2717 027e 1046     		mov	r0, r2
 2718 0280 FFF7FEFF 		bl	__aeabi_fmul
 2719 0284 0346     		mov	r3, r0
 2720 0286 1946     		mov	r1, r3
 2721 0288 2046     		mov	r0, r4
 2722 028a FFF7FEFF 		bl	__aeabi_fadd
 2723 028e 0346     		mov	r3, r0
 2724 0290 1C46     		mov	r4, r3
 524:app_state_auto.c ****                      + ctx->track_kd * de_t;
 2725              		.loc 1 524 0
 2726 0292 7B68     		ldr	r3, [r7, #4]
 2727 0294 9B6D     		ldr	r3, [r3, #88]	@ float
 2728 0296 796A     		ldr	r1, [r7, #36]	@ float
 2729 0298 1846     		mov	r0, r3
 2730 029a FFF7FEFF 		bl	__aeabi_fmul
 2731 029e 0346     		mov	r3, r0
 522:app_state_auto.c ****     float omega_tilt = ctx->track_kp * e_tilt
 2732              		.loc 1 522 0
 2733 02a0 1946     		mov	r1, r3
 2734 02a2 2046     		mov	r0, r4
 2735 02a4 FFF7FEFF 		bl	__aeabi_fadd
 2736 02a8 0346     		mov	r3, r0
ARM GAS  C:\Users\yoons\AppData\Local\Temp\ccpZOz8V.s 			page 60


 2737 02aa FB60     		str	r3, [r7, #12]	@ float
 525:app_state_auto.c **** 
 526:app_state_auto.c ****     // Avoid rocket ship takeoff.
 527:app_state_auto.c ****     ctx->track_pan_cmd  =  CLAMP(omega_pan,  -rmax, rmax);
 2738              		.loc 1 527 0
 2739 02ac BB69     		ldr	r3, [r7, #24]
 2740 02ae 83F00043 		eor	r3, r3, #-2147483648
 2741 02b2 3969     		ldr	r1, [r7, #16]	@ float
 2742 02b4 1846     		mov	r0, r3
 2743 02b6 FFF7FEFF 		bl	__aeabi_fcmpgt
 2744 02ba 0346     		mov	r3, r0
 2745 02bc 002B     		cmp	r3, #0
 2746 02be 03D0     		beq	.L211
 2747              		.loc 1 527 0 is_stmt 0 discriminator 1
 2748 02c0 BB69     		ldr	r3, [r7, #24]
 2749 02c2 83F00043 		eor	r3, r3, #-2147483648
 2750 02c6 09E0     		b	.L184
 2751              	.L211:
 2752              		.loc 1 527 0 discriminator 2
 2753 02c8 B969     		ldr	r1, [r7, #24]	@ float
 2754 02ca 3869     		ldr	r0, [r7, #16]	@ float
 2755 02cc FFF7FEFF 		bl	__aeabi_fcmpgt
 2756 02d0 0346     		mov	r3, r0
 2757 02d2 002B     		cmp	r3, #0
 2758 02d4 01D0     		beq	.L212
 2759              		.loc 1 527 0 discriminator 4
 2760 02d6 BB69     		ldr	r3, [r7, #24]	@ float
 2761 02d8 00E0     		b	.L184
 2762              	.L212:
 2763              		.loc 1 527 0 discriminator 5
 2764 02da 3B69     		ldr	r3, [r7, #16]	@ float
 2765              	.L184:
 2766              		.loc 1 527 0 discriminator 8
 2767 02dc 7A68     		ldr	r2, [r7, #4]
 2768 02de 9366     		str	r3, [r2, #104]	@ float
 528:app_state_auto.c ****     ctx->track_tilt_cmd = -CLAMP(omega_tilt, -rmax, rmax);   // +cy = up
 2769              		.loc 1 528 0 is_stmt 1 discriminator 8
 2770 02e0 BB69     		ldr	r3, [r7, #24]
 2771 02e2 83F00043 		eor	r3, r3, #-2147483648
 2772 02e6 F968     		ldr	r1, [r7, #12]	@ float
 2773 02e8 1846     		mov	r0, r3
 2774 02ea FFF7FEFF 		bl	__aeabi_fcmpgt
 2775 02ee 0346     		mov	r3, r0
 2776 02f0 002B     		cmp	r3, #0
 2777 02f2 01D0     		beq	.L213
 2778              		.loc 1 528 0 is_stmt 0 discriminator 1
 2779 02f4 BB69     		ldr	r3, [r7, #24]	@ float
 2780 02f6 0DE0     		b	.L190
 2781              	.L213:
 2782              		.loc 1 528 0 discriminator 2
 2783 02f8 B969     		ldr	r1, [r7, #24]	@ float
 2784 02fa F868     		ldr	r0, [r7, #12]	@ float
 2785 02fc FFF7FEFF 		bl	__aeabi_fcmpgt
 2786 0300 0346     		mov	r3, r0
 2787 0302 002B     		cmp	r3, #0
 2788 0304 03D0     		beq	.L214
 2789              		.loc 1 528 0 discriminator 4
ARM GAS  C:\Users\yoons\AppData\Local\Temp\ccpZOz8V.s 			page 61


 2790 0306 BB69     		ldr	r3, [r7, #24]
 2791 0308 83F00043 		eor	r3, r3, #-2147483648
 2792 030c 02E0     		b	.L190
 2793              	.L214:
 2794              		.loc 1 528 0 discriminator 5
 2795 030e FB68     		ldr	r3, [r7, #12]
 2796 0310 83F00043 		eor	r3, r3, #-2147483648
 2797              	.L190:
 2798              		.loc 1 528 0 discriminator 8
 2799 0314 7A68     		ldr	r2, [r7, #4]
 2800 0316 D366     		str	r3, [r2, #108]	@ float
 529:app_state_auto.c **** }
 2801              		.loc 1 529 0 is_stmt 1 discriminator 8
 2802 0318 00BF     		nop
 2803 031a 3C37     		adds	r7, r7, #60
 2804              		.cfi_def_cfa_offset 12
 2805 031c BD46     		mov	sp, r7
 2806              		.cfi_def_cfa_register 13
 2807              		@ sp needed
 2808 031e 90BD     		pop	{r4, r7, pc}
 2809              		.cfi_endproc
 2810              	.LFE86:
 2811              		.size	tracking_pid_step, .-tracking_pid_step
 2812              		.section	.text.build_auto_tracking,"ax",%progbits
 2813              		.align	2
 2814              		.global	build_auto_tracking
 2815              		.thumb
 2816              		.thumb_func
 2817              		.type	build_auto_tracking, %function
 2818              	build_auto_tracking:
 2819              	.LFB87:
 530:app_state_auto.c **** 
 531:app_state_auto.c **** void build_auto_tracking(const app_ctx_t *ctx, hamfly_control_t *out)
 532:app_state_auto.c **** {
 2820              		.loc 1 532 0
 2821              		.cfi_startproc
 2822              		@ args = 0, pretend = 0, frame = 8
 2823              		@ frame_needed = 1, uses_anonymous_args = 0
 2824              		@ link register save eliminated.
 2825 0000 80B4     		push	{r7}
 2826              		.cfi_def_cfa_offset 4
 2827              		.cfi_offset 7, -4
 2828 0002 83B0     		sub	sp, sp, #12
 2829              		.cfi_def_cfa_offset 16
 2830 0004 00AF     		add	r7, sp, #0
 2831              		.cfi_def_cfa_register 7
 2832 0006 7860     		str	r0, [r7, #4]
 2833 0008 3960     		str	r1, [r7]
 533:app_state_auto.c ****     // PID is computed inside app_auto_tick on each centroid; publish only.
 534:app_state_auto.c ****     out->kill      = 0u;
 2834              		.loc 1 534 0
 2835 000a 3B68     		ldr	r3, [r7]
 2836 000c 0022     		movs	r2, #0
 2837 000e 1A74     		strb	r2, [r3, #16]
 535:app_state_auto.c ****     out->roll_mode = HAMFLY_DEFER;
 2838              		.loc 1 535 0
 2839 0010 3B68     		ldr	r3, [r7]
ARM GAS  C:\Users\yoons\AppData\Local\Temp\ccpZOz8V.s 			page 62


 2840 0012 0022     		movs	r2, #0
 2841 0014 9A73     		strb	r2, [r3, #14]
 536:app_state_auto.c ****     out->roll      = 0.0f;
 2842              		.loc 1 536 0
 2843 0016 3B68     		ldr	r3, [r7]
 2844 0018 4FF00002 		mov	r2, #0
 2845 001c 9A60     		str	r2, [r3, #8]	@ float
 537:app_state_auto.c ****     out->pan_mode  = out->tilt_mode = HAMFLY_RATE;
 2846              		.loc 1 537 0
 2847 001e 3B68     		ldr	r3, [r7]
 2848 0020 0122     		movs	r2, #1
 2849 0022 5A73     		strb	r2, [r3, #13]
 2850 0024 3B68     		ldr	r3, [r7]
 2851 0026 5A7B     		ldrb	r2, [r3, #13]	@ zero_extendqisi2
 2852 0028 3B68     		ldr	r3, [r7]
 2853 002a 1A73     		strb	r2, [r3, #12]
 538:app_state_auto.c ****     out->pan       = ctx->track_pan_cmd;
 2854              		.loc 1 538 0
 2855 002c 7B68     		ldr	r3, [r7, #4]
 2856 002e 9A6E     		ldr	r2, [r3, #104]	@ float
 2857 0030 3B68     		ldr	r3, [r7]
 2858 0032 1A60     		str	r2, [r3]	@ float
 539:app_state_auto.c ****     out->tilt      = ctx->track_tilt_cmd;
 2859              		.loc 1 539 0
 2860 0034 7B68     		ldr	r3, [r7, #4]
 2861 0036 DA6E     		ldr	r2, [r3, #108]	@ float
 2862 0038 3B68     		ldr	r3, [r7]
 2863 003a 5A60     		str	r2, [r3, #4]	@ float
 540:app_state_auto.c **** }
 2864              		.loc 1 540 0
 2865 003c 00BF     		nop
 2866 003e 0C37     		adds	r7, r7, #12
 2867              		.cfi_def_cfa_offset 4
 2868 0040 BD46     		mov	sp, r7
 2869              		.cfi_def_cfa_register 13
 2870              		@ sp needed
 2871 0042 80BC     		pop	{r7}
 2872              		.cfi_restore 7
 2873              		.cfi_def_cfa_offset 0
 2874 0044 7047     		bx	lr
 2875              		.cfi_endproc
 2876              	.LFE87:
 2877              		.size	build_auto_tracking, .-build_auto_tracking
 2878 0046 00BF     		.section	.rodata
 2879 02da 0000     		.align	2
 2880              	.LC17:
 2881 02dc 0D0A5B41 		.ascii	"\015\012[AUTO_LOSS] centroid lost, holding. Waiting"
 2881      55544F5F 
 2881      4C4F5353 
 2881      5D206365 
 2881      6E74726F 
 2882 0309 20666F72 		.ascii	" for centroid return or user input.\015\012> \000"
 2882      2063656E 
 2882      74726F69 
 2882      64207265 
 2882      7475726E 
 2883              		.section	.text.entry_auto_loss,"ax",%progbits
ARM GAS  C:\Users\yoons\AppData\Local\Temp\ccpZOz8V.s 			page 63


 2884              		.align	2
 2885              		.global	entry_auto_loss
 2886              		.thumb
 2887              		.thumb_func
 2888              		.type	entry_auto_loss, %function
 2889              	entry_auto_loss:
 2890              	.LFB88:
 541:app_state_auto.c **** 
 542:app_state_auto.c **** // %==========================================================================%
 543:app_state_auto.c **** // %                              AUTO_LOSS                                   %
 544:app_state_auto.c **** // %==========================================================================%
 545:app_state_auto.c **** void entry_auto_loss(app_ctx_t *ctx)
 546:app_state_auto.c **** {
 2891              		.loc 1 546 0
 2892              		.cfi_startproc
 2893              		@ args = 0, pretend = 0, frame = 8
 2894              		@ frame_needed = 1, uses_anonymous_args = 0
 2895 0000 80B5     		push	{r7, lr}
 2896              		.cfi_def_cfa_offset 8
 2897              		.cfi_offset 7, -8
 2898              		.cfi_offset 14, -4
 2899 0002 82B0     		sub	sp, sp, #8
 2900              		.cfi_def_cfa_offset 16
 2901 0004 00AF     		add	r7, sp, #0
 2902              		.cfi_def_cfa_register 7
 2903 0006 7860     		str	r0, [r7, #4]
 547:app_state_auto.c ****     // TODO: Loss should hold and wait. If packets re-commence go back to tracking,
 548:app_state_auto.c ****     // TODO: Let user trigger spiral search, GPS re-acq, or exit to  tracking_pid_stepSTBY later.
 549:app_state_auto.c ****     (void)ctx;
 550:app_state_auto.c ****     UART_DEBUG_PutString("\r\n[AUTO_LOSS] centroid lost, holding. "
 2904              		.loc 1 550 0
 2905 0008 0348     		ldr	r0, .L219
 2906 000a FFF7FEFF 		bl	dbg_put
 551:app_state_auto.c ****                          "Waiting for centroid return or user input.\r\n> ");
 552:app_state_auto.c **** }
 2907              		.loc 1 552 0
 2908 000e 00BF     		nop
 2909 0010 0837     		adds	r7, r7, #8
 2910              		.cfi_def_cfa_offset 8
 2911 0012 BD46     		mov	sp, r7
 2912              		.cfi_def_cfa_register 13
 2913              		@ sp needed
 2914 0014 80BD     		pop	{r7, pc}
 2915              	.L220:
 2916 0016 00BF     		.align	2
 2917              	.L219:
 2918 0018 DC020000 		.word	.LC17
 2919              		.cfi_endproc
 2920              	.LFE88:
 2921              		.size	entry_auto_loss, .-entry_auto_loss
 2922              		.section	.text.key_auto_loss,"ax",%progbits
 2923              		.align	2
 2924              		.global	key_auto_loss
 2925              		.thumb
 2926              		.thumb_func
 2927              		.type	key_auto_loss, %function
 2928              	key_auto_loss:
ARM GAS  C:\Users\yoons\AppData\Local\Temp\ccpZOz8V.s 			page 64


 2929              	.LFB89:
 553:app_state_auto.c **** 
 554:app_state_auto.c **** uint8_t key_auto_loss(app_ctx_t *ctx, char k)
 555:app_state_auto.c **** {
 2930              		.loc 1 555 0
 2931              		.cfi_startproc
 2932              		@ args = 0, pretend = 0, frame = 8
 2933              		@ frame_needed = 1, uses_anonymous_args = 0
 2934 0000 80B5     		push	{r7, lr}
 2935              		.cfi_def_cfa_offset 8
 2936              		.cfi_offset 7, -8
 2937              		.cfi_offset 14, -4
 2938 0002 82B0     		sub	sp, sp, #8
 2939              		.cfi_def_cfa_offset 16
 2940 0004 00AF     		add	r7, sp, #0
 2941              		.cfi_def_cfa_register 7
 2942 0006 7860     		str	r0, [r7, #4]
 2943 0008 0B46     		mov	r3, r1
 2944 000a FB70     		strb	r3, [r7, #3]
 556:app_state_auto.c ****     if (handle_nudge_key(ctx, k)) return 1;
 2945              		.loc 1 556 0
 2946 000c FB78     		ldrb	r3, [r7, #3]	@ zero_extendqisi2
 2947 000e 1946     		mov	r1, r3
 2948 0010 7868     		ldr	r0, [r7, #4]
 2949 0012 FFF7FEFF 		bl	handle_nudge_key
 2950 0016 0346     		mov	r3, r0
 2951 0018 002B     		cmp	r3, #0
 2952 001a 01D0     		beq	.L222
 2953              		.loc 1 556 0 is_stmt 0 discriminator 1
 2954 001c 0123     		movs	r3, #1
 2955 001e 09E0     		b	.L223
 2956              	.L222:
 557:app_state_auto.c ****     switch (k) {  // Keep stationary, spiral search if requested.
 2957              		.loc 1 557 0 is_stmt 1
 2958 0020 FB78     		ldrb	r3, [r7, #3]	@ zero_extendqisi2
 2959 0022 332B     		cmp	r3, #51
 2960 0024 05D1     		bne	.L226
 558:app_state_auto.c ****         case '3': app_transition(ctx, AUTO_ACQ_SPIRAL); return 1;
 2961              		.loc 1 558 0
 2962 0026 0B21     		movs	r1, #11
 2963 0028 7868     		ldr	r0, [r7, #4]
 2964 002a FFF7FEFF 		bl	app_transition
 2965 002e 0123     		movs	r3, #1
 2966 0030 00E0     		b	.L223
 2967              	.L226:
 559:app_state_auto.c ****         default:  return 0;
 2968              		.loc 1 559 0
 2969 0032 0023     		movs	r3, #0
 2970              	.L223:
 560:app_state_auto.c ****     }
 561:app_state_auto.c **** }
 2971              		.loc 1 561 0
 2972 0034 1846     		mov	r0, r3
 2973 0036 0837     		adds	r7, r7, #8
 2974              		.cfi_def_cfa_offset 8
 2975 0038 BD46     		mov	sp, r7
 2976              		.cfi_def_cfa_register 13
ARM GAS  C:\Users\yoons\AppData\Local\Temp\ccpZOz8V.s 			page 65


 2977              		@ sp needed
 2978 003a 80BD     		pop	{r7, pc}
 2979              		.cfi_endproc
 2980              	.LFE89:
 2981              		.size	key_auto_loss, .-key_auto_loss
 2982              		.section	.rodata
 2983 0331 000000   		.align	2
 2984              	.LC18:
 2985 0334 0D0A5B41 		.ascii	"\015\012[AUTO_NO_LOCK] acquisition failed  1=hold  "
 2985      55544F5F 
 2985      4E4F5F4C 
 2985      4F434B5D 
 2985      20616371 
 2986 0361 333D7265 		.ascii	"3=retry\015\012> \000"
 2986      7472790D 
 2986      0A3E2000 
 2987              		.section	.text.entry_auto_no_lock,"ax",%progbits
 2988              		.align	2
 2989              		.global	entry_auto_no_lock
 2990              		.thumb
 2991              		.thumb_func
 2992              		.type	entry_auto_no_lock, %function
 2993              	entry_auto_no_lock:
 2994              	.LFB90:
 562:app_state_auto.c **** 
 563:app_state_auto.c **** // %==========================================================================%
 564:app_state_auto.c **** // %                             AUTO_NO_LOCK                                 %
 565:app_state_auto.c **** // %==========================================================================%
 566:app_state_auto.c **** void entry_auto_no_lock(app_ctx_t *ctx)
 567:app_state_auto.c **** {
 2995              		.loc 1 567 0
 2996              		.cfi_startproc
 2997              		@ args = 0, pretend = 0, frame = 8
 2998              		@ frame_needed = 1, uses_anonymous_args = 0
 2999 0000 80B5     		push	{r7, lr}
 3000              		.cfi_def_cfa_offset 8
 3001              		.cfi_offset 7, -8
 3002              		.cfi_offset 14, -4
 3003 0002 82B0     		sub	sp, sp, #8
 3004              		.cfi_def_cfa_offset 16
 3005 0004 00AF     		add	r7, sp, #0
 3006              		.cfi_def_cfa_register 7
 3007 0006 7860     		str	r0, [r7, #4]
 568:app_state_auto.c ****     (void)ctx;
 569:app_state_auto.c ****     UART_DEBUG_PutString("\r\n[AUTO_NO_LOCK] acquisition failed  1=hold  3=retry\r\n> ");
 3008              		.loc 1 569 0
 3009 0008 0348     		ldr	r0, .L228
 3010 000a FFF7FEFF 		bl	dbg_put
 570:app_state_auto.c **** }
 3011              		.loc 1 570 0
 3012 000e 00BF     		nop
 3013 0010 0837     		adds	r7, r7, #8
 3014              		.cfi_def_cfa_offset 8
 3015 0012 BD46     		mov	sp, r7
 3016              		.cfi_def_cfa_register 13
 3017              		@ sp needed
 3018 0014 80BD     		pop	{r7, pc}
ARM GAS  C:\Users\yoons\AppData\Local\Temp\ccpZOz8V.s 			page 66


 3019              	.L229:
 3020 0016 00BF     		.align	2
 3021              	.L228:
 3022 0018 34030000 		.word	.LC18
 3023              		.cfi_endproc
 3024              	.LFE90:
 3025              		.size	entry_auto_no_lock, .-entry_auto_no_lock
 3026              		.section	.text.key_auto_no_lock,"ax",%progbits
 3027              		.align	2
 3028              		.global	key_auto_no_lock
 3029              		.thumb
 3030              		.thumb_func
 3031              		.type	key_auto_no_lock, %function
 3032              	key_auto_no_lock:
 3033              	.LFB91:
 571:app_state_auto.c **** 
 572:app_state_auto.c **** uint8_t key_auto_no_lock(app_ctx_t *ctx, char k)
 573:app_state_auto.c **** {
 3034              		.loc 1 573 0
 3035              		.cfi_startproc
 3036              		@ args = 0, pretend = 0, frame = 8
 3037              		@ frame_needed = 1, uses_anonymous_args = 0
 3038 0000 80B5     		push	{r7, lr}
 3039              		.cfi_def_cfa_offset 8
 3040              		.cfi_offset 7, -8
 3041              		.cfi_offset 14, -4
 3042 0002 82B0     		sub	sp, sp, #8
 3043              		.cfi_def_cfa_offset 16
 3044 0004 00AF     		add	r7, sp, #0
 3045              		.cfi_def_cfa_register 7
 3046 0006 7860     		str	r0, [r7, #4]
 3047 0008 0B46     		mov	r3, r1
 3048 000a FB70     		strb	r3, [r7, #3]
 574:app_state_auto.c ****     if (handle_nudge_key(ctx, k)) return 1;
 3049              		.loc 1 574 0
 3050 000c FB78     		ldrb	r3, [r7, #3]	@ zero_extendqisi2
 3051 000e 1946     		mov	r1, r3
 3052 0010 7868     		ldr	r0, [r7, #4]
 3053 0012 FFF7FEFF 		bl	handle_nudge_key
 3054 0016 0346     		mov	r3, r0
 3055 0018 002B     		cmp	r3, #0
 3056 001a 01D0     		beq	.L231
 3057              		.loc 1 574 0 is_stmt 0 discriminator 1
 3058 001c 0123     		movs	r3, #1
 3059 001e 09E0     		b	.L232
 3060              	.L231:
 575:app_state_auto.c ****     switch (k) {
 3061              		.loc 1 575 0 is_stmt 1
 3062 0020 FB78     		ldrb	r3, [r7, #3]	@ zero_extendqisi2
 3063 0022 332B     		cmp	r3, #51
 3064 0024 05D1     		bne	.L235
 576:app_state_auto.c ****         case '3': app_transition(ctx, AUTO_ACQ_SPIRAL); return 1;
 3065              		.loc 1 576 0
 3066 0026 0B21     		movs	r1, #11
 3067 0028 7868     		ldr	r0, [r7, #4]
 3068 002a FFF7FEFF 		bl	app_transition
 3069 002e 0123     		movs	r3, #1
ARM GAS  C:\Users\yoons\AppData\Local\Temp\ccpZOz8V.s 			page 67


 3070 0030 00E0     		b	.L232
 3071              	.L235:
 577:app_state_auto.c ****         default:  return 0;
 3072              		.loc 1 577 0
 3073 0032 0023     		movs	r3, #0
 3074              	.L232:
 578:app_state_auto.c ****     }
 579:app_state_auto.c **** }
 3075              		.loc 1 579 0
 3076 0034 1846     		mov	r0, r3
 3077 0036 0837     		adds	r7, r7, #8
 3078              		.cfi_def_cfa_offset 8
 3079 0038 BD46     		mov	sp, r7
 3080              		.cfi_def_cfa_register 13
 3081              		@ sp needed
 3082 003a 80BD     		pop	{r7, pc}
 3083              		.cfi_endproc
 3084              	.LFE91:
 3085              		.size	key_auto_no_lock, .-key_auto_no_lock
 3086              		.bss
 3087              		.align	2
 3088              	last_pt_ms.8227:
 3089 0000 00000000 		.space	4
 3090              		.section	.rodata
 3091 036d 000000   		.align	2
 3092              	.LC19:
 3093 0370 4300     		.ascii	"C\000"
 3094 0372 0000     		.align	2
 3095              	.LC20:
 3096 0374 4600     		.ascii	"F\000"
 3097              		.data
 3098              		.align	2
 3099              		.type	tag.8229, %object
 3100              		.size	tag.8229, 8
 3101              	tag.8229:
 3102 0000 70030000 		.word	.LC19
 3103 0004 74030000 		.word	.LC20
 3104              		.text
 3105              	.Letext0:
 3106              		.file 2 "c:\\program files (x86)\\cypress\\psoc creator\\4.4\\psoc creator\\import\\gnu\\arm\\5.4.
 3107              		.file 3 "c:\\program files (x86)\\cypress\\psoc creator\\4.4\\psoc creator\\import\\gnu\\arm\\5.4.
 3108              		.file 4 "..\\..\\..\\HamFlyAPI\\src/hamfly_core_control.h"
 3109              		.file 5 "..\\..\\..\\HamFlyAPI\\src/hamfly_core_hal.h"
 3110              		.file 6 "..\\..\\..\\HamFlyAPI\\src/hamfly_core_telemetry.h"
 3111              		.file 7 "..\\..\\..\\HamFlyAPI\\src/hamfly_comm_rb.h"
 3112              		.file 8 "..\\..\\..\\HamFlyAPI\\src/hamfly_core_gimbal.h"
 3113              		.file 9 "app_ctx.h"
 3114              		.file 10 "sbc_comms.h"
 3115              		.file 11 "Generated_Source\\PSoC5/core_cm3.h"