ARM GAS  C:\Users\yoons\AppData\Local\Temp\ccDOhwQE.s 			page 1


   1              		.syntax unified
   2              		.cpu cortex-m3
   3              		.fpu softvfp
   4              		.eabi_attribute 20, 1
   5              		.eabi_attribute 21, 1
   6              		.eabi_attribute 23, 3
   7              		.eabi_attribute 24, 1
   8              		.eabi_attribute 25, 1
   9              		.eabi_attribute 26, 1
  10              		.eabi_attribute 30, 6
  11              		.eabi_attribute 34, 1
  12              		.eabi_attribute 18, 4
  13              		.thumb
  14              		.syntax unified
  15              		.file	"app_ctx.c"
  16              		.text
  17              	.Ltext0:
  18              		.cfi_sections	.debug_frame
  19              		.section	.text.app_ctx_init,"ax",%progbits
  20              		.align	2
  21              		.global	app_ctx_init
  22              		.thumb
  23              		.thumb_func
  24              		.type	app_ctx_init, %function
  25              	app_ctx_init:
  26              	.LFB63:
  27              		.file 1 "app_ctx.c"
   1:app_ctx.c     **** /* ========================================
   2:app_ctx.c     ****  *
   3:app_ctx.c     ****  * Copyright Hamish Johnson, 2026
   4:app_ctx.c     ****  * All Rights Reserved
   5:app_ctx.c     ****  * UNPUBLISHED, LICENSED SOFTWARE.
   6:app_ctx.c     ****  *
   7:app_ctx.c     ****  * CONFIDENTIAL AND PROPRIETARY INFORMATION
   8:app_ctx.c     ****  * WHICH IS THE PROPERTY OF 
   9:app_ctx.c     ****  * Quantum Internet Systems Lab (QISL),
  10:app_ctx.c     ****  * Department of Physics, SFU, Canada.
  11:app_ctx.c     ****  *
  12:app_ctx.c     ****  * Author: Hamish Johnson (2026)
  13:app_ctx.c     ****  *
  14:app_ctx.c     ****  * ========================================
  15:app_ctx.c     ****  *
  16:app_ctx.c     ****  * Struct init for state machine chared context.
  17:app_ctx.c     **** */
  18:app_ctx.c     **** 
  19:app_ctx.c     **** #include "app_ctx.h"
  20:app_ctx.c     **** #include <string.h>
  21:app_ctx.c     **** 
  22:app_ctx.c     **** void app_ctx_init(app_ctx_t *ctx)
  23:app_ctx.c     **** {
  28              		.loc 1 23 0
  29              		.cfi_startproc
  30              		@ args = 0, pretend = 0, frame = 8
  31              		@ frame_needed = 1, uses_anonymous_args = 0
  32 0000 80B5     		push	{r7, lr}
  33              		.cfi_def_cfa_offset 8
  34              		.cfi_offset 7, -8
ARM GAS  C:\Users\yoons\AppData\Local\Temp\ccDOhwQE.s 			page 2


  35              		.cfi_offset 14, -4
  36 0002 82B0     		sub	sp, sp, #8
  37              		.cfi_def_cfa_offset 16
  38 0004 00AF     		add	r7, sp, #0
  39              		.cfi_def_cfa_register 7
  40 0006 7860     		str	r0, [r7, #4]
  24:app_ctx.c     ****     memset(ctx, 0, sizeof *ctx);
  41              		.loc 1 24 0
  42 0008 B822     		movs	r2, #184
  43 000a 0021     		movs	r1, #0
  44 000c 7868     		ldr	r0, [r7, #4]
  45 000e FFF7FEFF 		bl	memset
  25:app_ctx.c     ****     ctx->diag_active   = 1u;
  46              		.loc 1 25 0
  47 0012 7B68     		ldr	r3, [r7, #4]
  48 0014 0122     		movs	r2, #1
  49 0016 83F89820 		strb	r2, [r3, #152]
  26:app_ctx.c     ****     // State context
  27:app_ctx.c     ****     ctx->state         = STBY_DEFER;  // boot to defer
  50              		.loc 1 27 0
  51 001a 7B68     		ldr	r3, [r7, #4]
  52 001c 0522     		movs	r2, #5
  53 001e 1A71     		strb	r2, [r3, #4]
  28:app_ctx.c     ****     ctx->prev_leaf     = STBY_DEFER;  // boot to defer
  54              		.loc 1 28 0
  55 0020 7B68     		ldr	r3, [r7, #4]
  56 0022 0522     		movs	r2, #5
  57 0024 5A71     		strb	r2, [r3, #5]
  29:app_ctx.c     ****     // Orientation context
  30:app_ctx.c     ****     ctx->hold_mode = HAMFLY_RATE;
  58              		.loc 1 30 0
  59 0026 7B68     		ldr	r3, [r7, #4]
  60 0028 0122     		movs	r2, #1
  61 002a 5A76     		strb	r2, [r3, #25]
  31:app_ctx.c     ****     ctx->origin_set      = 1u;  // Origin initialy 0,0.
  62              		.loc 1 31 0
  63 002c 7B68     		ldr	r3, [r7, #4]
  64 002e 0122     		movs	r2, #1
  65 0030 83F88820 		strb	r2, [r3, #136]
  32:app_ctx.c     ****     ctx->gps_target_set  = 0u;  // TODO: Refactor shared app_ctx and debloat gps params.
  66              		.loc 1 32 0
  67 0034 7B68     		ldr	r3, [r7, #4]
  68 0036 0022     		movs	r2, #0
  69 0038 83F83020 		strb	r2, [r3, #48]
  33:app_ctx.c     ****     ctx->gps_new_target  = 0u;
  70              		.loc 1 33 0
  71 003c 7B68     		ldr	r3, [r7, #4]
  72 003e 0022     		movs	r2, #0
  73 0040 83F83120 		strb	r2, [r3, #49]
  34:app_ctx.c     ****     ctx->gps_settled     = 0u;
  74              		.loc 1 34 0
  75 0044 7B68     		ldr	r3, [r7, #4]
  76 0046 0022     		movs	r2, #0
  77 0048 83F84020 		strb	r2, [r3, #64]
  35:app_ctx.c     ****     // Tracking context
  36:app_ctx.c     ****     ctx->track_kp        = TRACK_KP_DEFAULT;
  78              		.loc 1 36 0
ARM GAS  C:\Users\yoons\AppData\Local\Temp\ccDOhwQE.s 			page 3


  79 004c 7B68     		ldr	r3, [r7, #4]
  80 004e 1A4A     		ldr	r2, .L2
  81 0050 1A65     		str	r2, [r3, #80]	@ float
  37:app_ctx.c     ****     ctx->track_ki        = TRACK_KI_DEFAULT;
  82              		.loc 1 37 0
  83 0052 7B68     		ldr	r3, [r7, #4]
  84 0054 4FF00002 		mov	r2, #0
  85 0058 5A65     		str	r2, [r3, #84]	@ float
  38:app_ctx.c     ****     ctx->track_kd        = TRACK_KD_DEFAULT;
  86              		.loc 1 38 0
  87 005a 7B68     		ldr	r3, [r7, #4]
  88 005c 4FF00002 		mov	r2, #0
  89 0060 9A65     		str	r2, [r3, #88]	@ float
  39:app_ctx.c     ****     ctx->track_rate_max  = TRACK_RATE_MAX_DEFAULT;
  90              		.loc 1 39 0
  91 0062 7B68     		ldr	r3, [r7, #4]
  92 0064 154A     		ldr	r2, .L2+4
  93 0066 DA65     		str	r2, [r3, #92]	@ float
  40:app_ctx.c     ****     ctx->track_i_pan     = 0.0f;
  94              		.loc 1 40 0
  95 0068 7B68     		ldr	r3, [r7, #4]
  96 006a 4FF00002 		mov	r2, #0
  97 006e 1A66     		str	r2, [r3, #96]	@ float
  41:app_ctx.c     ****     ctx->track_i_tilt    = 0.0f;
  98              		.loc 1 41 0
  99 0070 7B68     		ldr	r3, [r7, #4]
 100 0072 4FF00002 		mov	r2, #0
 101 0076 5A66     		str	r2, [r3, #100]	@ float
  42:app_ctx.c     ****     ctx->track_cx_last   = 0;
 102              		.loc 1 42 0
 103 0078 7B68     		ldr	r3, [r7, #4]
 104 007a 0022     		movs	r2, #0
 105 007c A3F87C20 		strh	r2, [r3, #124]	@ movhi
  43:app_ctx.c     ****     ctx->track_cy_last   = 0;
 106              		.loc 1 43 0
 107 0080 7B68     		ldr	r3, [r7, #4]
 108 0082 0022     		movs	r2, #0
 109 0084 A3F87E20 		strh	r2, [r3, #126]	@ movhi
  44:app_ctx.c     ****     ctx->track_pan_cmd   = 0.0f;
 110              		.loc 1 44 0
 111 0088 7B68     		ldr	r3, [r7, #4]
 112 008a 4FF00002 		mov	r2, #0
 113 008e 9A66     		str	r2, [r3, #104]	@ float
  45:app_ctx.c     ****     ctx->track_tilt_cmd  = 0.0f;
 114              		.loc 1 45 0
 115 0090 7B68     		ldr	r3, [r7, #4]
 116 0092 4FF00002 		mov	r2, #0
 117 0096 DA66     		str	r2, [r3, #108]	@ float
  46:app_ctx.c     ****     ctx->track_de_pan    = 0.0f;
 118              		.loc 1 46 0
 119 0098 7B68     		ldr	r3, [r7, #4]
 120 009a 4FF00002 		mov	r2, #0
 121 009e 1A67     		str	r2, [r3, #112]	@ float
  47:app_ctx.c     ****     ctx->track_de_tilt   = 0.0f;
 122              		.loc 1 47 0
 123 00a0 7B68     		ldr	r3, [r7, #4]
 124 00a2 4FF00002 		mov	r2, #0
ARM GAS  C:\Users\yoons\AppData\Local\Temp\ccDOhwQE.s 			page 4


 125 00a6 5A67     		str	r2, [r3, #116]	@ float
  48:app_ctx.c     ****     ctx->track_dt        = 0.0f;
 126              		.loc 1 48 0
 127 00a8 7B68     		ldr	r3, [r7, #4]
 128 00aa 4FF00002 		mov	r2, #0
 129 00ae 9A67     		str	r2, [r3, #120]	@ float
  49:app_ctx.c     **** }
 130              		.loc 1 49 0
 131 00b0 00BF     		nop
 132 00b2 0837     		adds	r7, r7, #8
 133              		.cfi_def_cfa_offset 8
 134 00b4 BD46     		mov	sp, r7
 135              		.cfi_def_cfa_register 13
 136              		@ sp needed
 137 00b6 80BD     		pop	{r7, pc}
 138              	.L3:
 139              		.align	2
 140              	.L2:
 141 00b8 6F12833A 		.word	981668463
 142 00bc CDCC4C3E 		.word	1045220557
 143              		.cfi_endproc
 144              	.LFE63:
 145              		.size	app_ctx_init, .-app_ctx_init
 146              		.text
 147              	.Letext0:
 148              		.file 2 "c:\\program files (x86)\\cypress\\psoc creator\\4.4\\psoc creator\\import\\gnu\\arm\\5.4.
 149              		.file 3 "c:\\program files (x86)\\cypress\\psoc creator\\4.4\\psoc creator\\import\\gnu\\arm\\5.4.
 150              		.file 4 "..\\..\\..\\HamFlyAPI\\src/hamfly_core_control.h"
 151              		.file 5 "..\\..\\..\\HamFlyAPI\\src/hamfly_core_hal.h"
 152              		.file 6 "..\\..\\..\\HamFlyAPI\\src/hamfly_core_telemetry.h"
 153              		.file 7 "..\\..\\..\\HamFlyAPI\\src/hamfly_comm_rb.h"
 154              		.file 8 "..\\..\\..\\HamFlyAPI\\src/hamfly_core_gimbal.h"
 155              		.file 9 "app_ctx.h"
 156              		.file 10 "Generated_Source\\PSoC5/core_cm3.h"