ARM GAS  C:\Users\yoons\AppData\Local\Temp\ccX6MFS4.s 			page 1


   1              		.syntax unified
   2              		.cpu cortex-m3
   3              		.fpu softvfp
   4              		.eabi_attribute 20, 1
   5              		.eabi_attribute 21, 1
   6              		.eabi_attribute 23, 3
   7              		.eabi_attribute 24, 1
   8              		.eabi_attribute 25, 1
   9              		.eabi_attribute 26, 1
  10              		.eabi_attribute 30, 6
  11              		.eabi_attribute 34, 1
  12              		.eabi_attribute 18, 4
  13              		.thumb
  14              		.syntax unified
  15              		.file	"app_state_manu.c"
  16              		.text
  17              	.Ltext0:
  18              		.cfi_sections	.debug_frame
  19              		.section	.text.guard_manu_joystick,"ax",%progbits
  20              		.align	2
  21              		.global	guard_manu_joystick
  22              		.thumb
  23              		.thumb_func
  24              		.type	guard_manu_joystick, %function
  25              	guard_manu_joystick:
  26              	.LFB63:
  27              		.file 1 "app_state_manu.c"
   1:app_state_manu.c **** /* ========================================
   2:app_state_manu.c ****  *
   3:app_state_manu.c ****  * Copyright Hamish Johnson, 2026
   4:app_state_manu.c ****  * All Rights Reserved
   5:app_state_manu.c ****  * UNPUBLISHED, LICENSED SOFTWARE.
   6:app_state_manu.c ****  *
   7:app_state_manu.c ****  * CONFIDENTIAL AND PROPRIETARY INFORMATION
   8:app_state_manu.c ****  * WHICH IS THE PROPERTY OF 
   9:app_state_manu.c ****  * Quantum Internet Systems Lab (QISL),
  10:app_state_manu.c ****  * Department of Physics, SFU, Canada.
  11:app_state_manu.c ****  *
  12:app_state_manu.c ****  * Author: Hamish Johnson (2026)
  13:app_state_manu.c ****  *
  14:app_state_manu.c ****  * ========================================
  15:app_state_manu.c ****  *
  16:app_state_manu.c ****  * Parent MANU - For all manual states.
  17:app_state_manu.c **** */
  18:app_state_manu.c **** 
  19:app_state_manu.c **** #include "app_state_manu.h"
  20:app_state_manu.c **** #include "app_statemachine.h"   // app_transition, app_raise_error
  21:app_state_manu.c **** #include "utils.h"              // Euler angles calc and nudge def
  22:app_state_manu.c **** #include <project.h>            // For UART
  23:app_state_manu.c **** #include <math.h>               // fabsf
  24:app_state_manu.c **** 
  25:app_state_manu.c **** extern volatile uint32_t g_tick_ms;
  26:app_state_manu.c **** 
  27:app_state_manu.c **** // MANU_JOYSTICK %============================================================%
  28:app_state_manu.c **** // Entry Guard: Must be in a stationary hold.
  29:app_state_manu.c **** uint8_t guard_manu_joystick(const app_ctx_t *ctx)
  30:app_state_manu.c **** {
ARM GAS  C:\Users\yoons\AppData\Local\Temp\ccX6MFS4.s 			page 2


  28              		.loc 1 30 0
  29              		.cfi_startproc
  30              		@ args = 0, pretend = 0, frame = 8
  31              		@ frame_needed = 1, uses_anonymous_args = 0
  32              		@ link register save eliminated.
  33 0000 80B4     		push	{r7}
  34              		.cfi_def_cfa_offset 4
  35              		.cfi_offset 7, -4
  36 0002 83B0     		sub	sp, sp, #12
  37              		.cfi_def_cfa_offset 16
  38 0004 00AF     		add	r7, sp, #0
  39              		.cfi_def_cfa_register 7
  40 0006 7860     		str	r0, [r7, #4]
  31:app_state_manu.c ****     return (ctx->state == STBY_HOLD);
  41              		.loc 1 31 0
  42 0008 7B68     		ldr	r3, [r7, #4]
  43 000a 1B79     		ldrb	r3, [r3, #4]	@ zero_extendqisi2
  44 000c 062B     		cmp	r3, #6
  45 000e 0CBF     		ite	eq
  46 0010 0123     		moveq	r3, #1
  47 0012 0023     		movne	r3, #0
  48 0014 DBB2     		uxtb	r3, r3
  32:app_state_manu.c **** }
  49              		.loc 1 32 0
  50 0016 1846     		mov	r0, r3
  51 0018 0C37     		adds	r7, r7, #12
  52              		.cfi_def_cfa_offset 4
  53 001a BD46     		mov	sp, r7
  54              		.cfi_def_cfa_register 13
  55              		@ sp needed
  56 001c 80BC     		pop	{r7}
  57              		.cfi_restore 7
  58              		.cfi_def_cfa_offset 0
  59 001e 7047     		bx	lr
  60              		.cfi_endproc
  61              	.LFE63:
  62              		.size	guard_manu_joystick, .-guard_manu_joystick
  63              		.section	.rodata
  64              		.align	2
  65              	.LC0:
  66 0000 0D0A5B4D 		.ascii	"\015\012[MANU] hold: v=vel0 b=abs m=majestic  nudge"
  66      414E555D 
  66      20686F6C 
  66      643A2076 
  66      3D76656C 
  67 002d 3A206E75 		.ascii	": numpad/ijkl/wasd  e=exit\015\012> \000"
  67      6D706164 
  67      2F696A6B 
  67      6C2F7761 
  67      73642020 
  68              		.section	.text.entry_manu_joystick,"ax",%progbits
  69              		.align	2
  70              		.global	entry_manu_joystick
  71              		.thumb
  72              		.thumb_func
  73              		.type	entry_manu_joystick, %function
  74              	entry_manu_joystick:
ARM GAS  C:\Users\yoons\AppData\Local\Temp\ccX6MFS4.s 			page 3


  75              	.LFB64:
  33:app_state_manu.c **** 
  34:app_state_manu.c **** // On Enter: Enable joystick, print message.
  35:app_state_manu.c **** void entry_manu_joystick(app_ctx_t *ctx)
  36:app_state_manu.c **** {
  76              		.loc 1 36 0
  77              		.cfi_startproc
  78              		@ args = 0, pretend = 0, frame = 8
  79              		@ frame_needed = 1, uses_anonymous_args = 0
  80 0000 80B5     		push	{r7, lr}
  81              		.cfi_def_cfa_offset 8
  82              		.cfi_offset 7, -8
  83              		.cfi_offset 14, -4
  84 0002 82B0     		sub	sp, sp, #8
  85              		.cfi_def_cfa_offset 16
  86 0004 00AF     		add	r7, sp, #0
  87              		.cfi_def_cfa_register 7
  88 0006 7860     		str	r0, [r7, #4]
  37:app_state_manu.c ****     ctx->hold_mode = HAMFLY_RATE;
  89              		.loc 1 37 0
  90 0008 7B68     		ldr	r3, [r7, #4]
  91 000a 0122     		movs	r2, #1
  92 000c 5A76     		strb	r2, [r3, #25]
  38:app_state_manu.c ****     UART_DEBUG_PutString("\r\n[MANU] hold: v=vel0 b=abs m=majestic"
  93              		.loc 1 38 0
  94 000e 0348     		ldr	r0, .L4
  95 0010 FFF7FEFF 		bl	dbg_put
  39:app_state_manu.c ****                         "  nudge: numpad/ijkl/wasd  e=exit\r\n> ");
  40:app_state_manu.c **** }
  96              		.loc 1 40 0
  97 0014 00BF     		nop
  98 0016 0837     		adds	r7, r7, #8
  99              		.cfi_def_cfa_offset 8
 100 0018 BD46     		mov	sp, r7
 101              		.cfi_def_cfa_register 13
 102              		@ sp needed
 103 001a 80BD     		pop	{r7, pc}
 104              	.L5:
 105              		.align	2
 106              	.L4:
 107 001c 00000000 		.word	.LC0
 108              		.cfi_endproc
 109              	.LFE64:
 110              		.size	entry_manu_joystick, .-entry_manu_joystick
 111              		.section	.text.exit_manu_joystick,"ax",%progbits
 112              		.align	2
 113              		.global	exit_manu_joystick
 114              		.thumb
 115              		.thumb_func
 116              		.type	exit_manu_joystick, %function
 117              	exit_manu_joystick:
 118              	.LFB65:
  41:app_state_manu.c **** // On Exit: clear any nudge in progress.
  42:app_state_manu.c **** void exit_manu_joystick(app_ctx_t *ctx)
  43:app_state_manu.c **** {
 119              		.loc 1 43 0
 120              		.cfi_startproc
ARM GAS  C:\Users\yoons\AppData\Local\Temp\ccX6MFS4.s 			page 4


 121              		@ args = 0, pretend = 0, frame = 8
 122              		@ frame_needed = 1, uses_anonymous_args = 0
 123              		@ link register save eliminated.
 124 0000 80B4     		push	{r7}
 125              		.cfi_def_cfa_offset 4
 126              		.cfi_offset 7, -4
 127 0002 83B0     		sub	sp, sp, #12
 128              		.cfi_def_cfa_offset 16
 129 0004 00AF     		add	r7, sp, #0
 130              		.cfi_def_cfa_register 7
 131 0006 7860     		str	r0, [r7, #4]
  44:app_state_manu.c ****     ctx->nudge_hold = 0u;
 132              		.loc 1 44 0
 133 0008 7B68     		ldr	r3, [r7, #4]
 134 000a 0022     		movs	r2, #0
 135 000c 83F87120 		strb	r2, [r3, #113]
  45:app_state_manu.c **** }
 136              		.loc 1 45 0
 137 0010 00BF     		nop
 138 0012 0C37     		adds	r7, r7, #12
 139              		.cfi_def_cfa_offset 4
 140 0014 BD46     		mov	sp, r7
 141              		.cfi_def_cfa_register 13
 142              		@ sp needed
 143 0016 80BC     		pop	{r7}
 144              		.cfi_restore 7
 145              		.cfi_def_cfa_offset 0
 146 0018 7047     		bx	lr
 147              		.cfi_endproc
 148              	.LFE65:
 149              		.size	exit_manu_joystick, .-exit_manu_joystick
 150              		.global	__aeabi_fsub
 151              		.global	__aeabi_fdiv
 152 001a 00BF     		.section	.text.build_manu_joystick,"ax",%progbits
 153              		.align	2
 154              		.global	build_manu_joystick
 155              		.thumb
 156              		.thumb_func
 157              		.type	build_manu_joystick, %function
 158              	build_manu_joystick:
 159              	.LFB66:
  46:app_state_manu.c **** 
  47:app_state_manu.c **** // Build packet from joystick inputs (or nudge absolute target).
  48:app_state_manu.c **** void build_manu_joystick(const app_ctx_t *ctx, hamfly_control_t *out)
  49:app_state_manu.c **** {
 160              		.loc 1 49 0
 161              		.cfi_startproc
 162              		@ args = 0, pretend = 0, frame = 8
 163              		@ frame_needed = 1, uses_anonymous_args = 0
 164 0000 80B5     		push	{r7, lr}
 165              		.cfi_def_cfa_offset 8
 166              		.cfi_offset 7, -8
 167              		.cfi_offset 14, -4
 168 0002 82B0     		sub	sp, sp, #8
 169              		.cfi_def_cfa_offset 16
 170 0004 00AF     		add	r7, sp, #0
 171              		.cfi_def_cfa_register 7
ARM GAS  C:\Users\yoons\AppData\Local\Temp\ccX6MFS4.s 			page 5


 172 0006 7860     		str	r0, [r7, #4]
 173 0008 3960     		str	r1, [r7]
  50:app_state_manu.c ****     out->roll_mode = HAMFLY_DEFER;
 174              		.loc 1 50 0
 175 000a 3B68     		ldr	r3, [r7]
 176 000c 0022     		movs	r2, #0
 177 000e 9A73     		strb	r2, [r3, #14]
  51:app_state_manu.c ****     out->roll      = 0.0f;
 178              		.loc 1 51 0
 179 0010 3B68     		ldr	r3, [r7]
 180 0012 4FF00002 		mov	r2, #0
 181 0016 9A60     		str	r2, [r3, #8]	@ float
  52:app_state_manu.c ****     out->kill      = 0u;
 182              		.loc 1 52 0
 183 0018 3B68     		ldr	r3, [r7]
 184 001a 0022     		movs	r2, #0
 185 001c 1A74     		strb	r2, [r3, #16]
  53:app_state_manu.c ****     if (ctx->nudge_hold) {
 186              		.loc 1 53 0
 187 001e 7B68     		ldr	r3, [r7, #4]
 188 0020 93F87130 		ldrb	r3, [r3, #113]	@ zero_extendqisi2
 189 0024 002B     		cmp	r3, #0
 190 0026 24D0     		beq	.L8
  54:app_state_manu.c ****         // In nudge: pan is relative. TODO: Document why.
  55:app_state_manu.c ****         out->pan_mode = out->tilt_mode = HAMFLY_ABSOLUTE;
 191              		.loc 1 55 0
 192 0028 3B68     		ldr	r3, [r7]
 193 002a 0222     		movs	r2, #2
 194 002c 5A73     		strb	r2, [r3, #13]
 195 002e 3B68     		ldr	r3, [r7]
 196 0030 5A7B     		ldrb	r2, [r3, #13]	@ zero_extendqisi2
 197 0032 3B68     		ldr	r3, [r7]
 198 0034 1A73     		strb	r2, [r3, #12]
  56:app_state_manu.c ****         out->pan  = DEG_TO_UNIT(ctx->tgt_pan_deg - ctx->nudge_base_pan_deg);
 199              		.loc 1 56 0
 200 0036 7B68     		ldr	r3, [r7, #4]
 201 0038 D3F88020 		ldr	r2, [r3, #128]	@ float
 202 003c 7B68     		ldr	r3, [r7, #4]
 203 003e 9B6F     		ldr	r3, [r3, #120]	@ float
 204 0040 1946     		mov	r1, r3
 205 0042 1046     		mov	r0, r2
 206 0044 FFF7FEFF 		bl	__aeabi_fsub
 207 0048 0346     		mov	r3, r0
 208 004a 2849     		ldr	r1, .L11
 209 004c 1846     		mov	r0, r3
 210 004e FFF7FEFF 		bl	__aeabi_fdiv
 211 0052 0346     		mov	r3, r0
 212 0054 1A46     		mov	r2, r3
 213 0056 3B68     		ldr	r3, [r7]
 214 0058 1A60     		str	r2, [r3]	@ float
  57:app_state_manu.c ****         out->tilt = DEG_TO_UNIT(ctx->tgt_tilt_deg);
 215              		.loc 1 57 0
 216 005a 7B68     		ldr	r3, [r7, #4]
 217 005c D3F88430 		ldr	r3, [r3, #132]	@ float
 218 0060 2249     		ldr	r1, .L11
 219 0062 1846     		mov	r0, r3
 220 0064 FFF7FEFF 		bl	__aeabi_fdiv
ARM GAS  C:\Users\yoons\AppData\Local\Temp\ccX6MFS4.s 			page 6


 221 0068 0346     		mov	r3, r0
 222 006a 1A46     		mov	r2, r3
 223 006c 3B68     		ldr	r3, [r7]
 224 006e 5A60     		str	r2, [r3, #4]	@ float
  58:app_state_manu.c ****         return;
 225              		.loc 1 58 0
 226 0070 38E0     		b	.L7
 227              	.L8:
  59:app_state_manu.c ****     }
  60:app_state_manu.c ****     
  61:app_state_manu.c ****     if (ctx->hold_mode == HAMFLY_RATE) {   // vel-zero "stay put"
 228              		.loc 1 61 0
 229 0072 7B68     		ldr	r3, [r7, #4]
 230 0074 5B7E     		ldrb	r3, [r3, #25]	@ zero_extendqisi2
 231 0076 012B     		cmp	r3, #1
 232 0078 0FD1     		bne	.L10
  62:app_state_manu.c ****         out->pan_mode = out->tilt_mode = HAMFLY_RATE;
 233              		.loc 1 62 0
 234 007a 3B68     		ldr	r3, [r7]
 235 007c 0122     		movs	r2, #1
 236 007e 5A73     		strb	r2, [r3, #13]
 237 0080 3B68     		ldr	r3, [r7]
 238 0082 5A7B     		ldrb	r2, [r3, #13]	@ zero_extendqisi2
 239 0084 3B68     		ldr	r3, [r7]
 240 0086 1A73     		strb	r2, [r3, #12]
  63:app_state_manu.c ****         out->pan  = 0.0f;  // Joysticks removed so hold and let user nudge.
 241              		.loc 1 63 0
 242 0088 3B68     		ldr	r3, [r7]
 243 008a 4FF00002 		mov	r2, #0
 244 008e 1A60     		str	r2, [r3]	@ float
  64:app_state_manu.c ****         out->tilt = 0.0f;
 245              		.loc 1 64 0
 246 0090 3B68     		ldr	r3, [r7]
 247 0092 4FF00002 		mov	r2, #0
 248 0096 5A60     		str	r2, [r3, #4]	@ float
 249 0098 24E0     		b	.L7
 250              	.L10:
  65:app_state_manu.c ****     } else { // ABSOLUTE TODO: Add Majestic
  66:app_state_manu.c ****         out->pan_mode = out->tilt_mode = ctx->hold_mode;
 251              		.loc 1 66 0
 252 009a 7B68     		ldr	r3, [r7, #4]
 253 009c 5A7E     		ldrb	r2, [r3, #25]	@ zero_extendqisi2
 254 009e 3B68     		ldr	r3, [r7]
 255 00a0 5A73     		strb	r2, [r3, #13]
 256 00a2 3B68     		ldr	r3, [r7]
 257 00a4 5A7B     		ldrb	r2, [r3, #13]	@ zero_extendqisi2
 258 00a6 3B68     		ldr	r3, [r7]
 259 00a8 1A73     		strb	r2, [r3, #12]
  67:app_state_manu.c ****         out->pan  = DEG_TO_UNIT(ctx->tgt_pan_deg - ctx->nudge_base_pan_deg);
 260              		.loc 1 67 0
 261 00aa 7B68     		ldr	r3, [r7, #4]
 262 00ac D3F88020 		ldr	r2, [r3, #128]	@ float
 263 00b0 7B68     		ldr	r3, [r7, #4]
 264 00b2 9B6F     		ldr	r3, [r3, #120]	@ float
 265 00b4 1946     		mov	r1, r3
 266 00b6 1046     		mov	r0, r2
 267 00b8 FFF7FEFF 		bl	__aeabi_fsub
ARM GAS  C:\Users\yoons\AppData\Local\Temp\ccX6MFS4.s 			page 7


 268 00bc 0346     		mov	r3, r0
 269 00be 0B49     		ldr	r1, .L11
 270 00c0 1846     		mov	r0, r3
 271 00c2 FFF7FEFF 		bl	__aeabi_fdiv
 272 00c6 0346     		mov	r3, r0
 273 00c8 1A46     		mov	r2, r3
 274 00ca 3B68     		ldr	r3, [r7]
 275 00cc 1A60     		str	r2, [r3]	@ float
  68:app_state_manu.c ****         out->tilt = DEG_TO_UNIT(ctx->tgt_tilt_deg);
 276              		.loc 1 68 0
 277 00ce 7B68     		ldr	r3, [r7, #4]
 278 00d0 D3F88430 		ldr	r3, [r3, #132]	@ float
 279 00d4 0549     		ldr	r1, .L11
 280 00d6 1846     		mov	r0, r3
 281 00d8 FFF7FEFF 		bl	__aeabi_fdiv
 282 00dc 0346     		mov	r3, r0
 283 00de 1A46     		mov	r2, r3
 284 00e0 3B68     		ldr	r3, [r7]
 285 00e2 5A60     		str	r2, [r3, #4]	@ float
 286              	.L7:
  69:app_state_manu.c ****     }
  70:app_state_manu.c **** }
 287              		.loc 1 70 0
 288 00e4 0837     		adds	r7, r7, #8
 289              		.cfi_def_cfa_offset 8
 290 00e6 BD46     		mov	sp, r7
 291              		.cfi_def_cfa_register 13
 292              		@ sp needed
 293 00e8 80BD     		pop	{r7, pc}
 294              	.L12:
 295 00ea 00BF     		.align	2
 296              	.L11:
 297 00ec 00003443 		.word	1127481344
 298              		.cfi_endproc
 299              	.LFE66:
 300              		.size	build_manu_joystick, .-build_manu_joystick
 301              		.section	.rodata
 302              		.align	2
 303              	.LC1:
 304 004c 6E6F2074 		.ascii	"no telemetry - hold unchanged\000"
 304      656C656D 
 304      65747279 
 304      202D2068 
 304      6F6C6420 
 305 006a 0000     		.align	2
 306              	.LC2:
 307 006c 0D0A5B48 		.ascii	"\015\012[HOLD] absolute\015\012\000"
 307      4F4C445D 
 307      20616273 
 307      6F6C7574 
 307      650D0A00 
 308              		.align	2
 309              	.LC3:
 310 0080 0D0A5B48 		.ascii	"\015\012[HOLD] majestic\015\012\000"
 310      4F4C445D 
 310      206D616A 
 310      65737469 
ARM GAS  C:\Users\yoons\AppData\Local\Temp\ccX6MFS4.s 			page 8


 310      630D0A00 
 311              		.align	2
 312              	.LC4:
 313 0094 0D0A5B48 		.ascii	"\015\012[HOLD] vel-zero\015\012\000"
 313      4F4C445D 
 313      2076656C 
 313      2D7A6572 
 313      6F0D0A00 
 314              		.section	.text.manu_set_hold,"ax",%progbits
 315              		.align	2
 316              		.thumb
 317              		.thumb_func
 318              		.type	manu_set_hold, %function
 319              	manu_set_hold:
 320              	.LFB67:
  71:app_state_manu.c **** 
  72:app_state_manu.c **** // helper to set hold mode and capture current position as nudge base if switching to absolute.
  73:app_state_manu.c **** static void manu_set_hold(app_ctx_t *ctx, hamfly_control_mode_t mode)
  74:app_state_manu.c **** {
 321              		.loc 1 74 0
 322              		.cfi_startproc
 323              		@ args = 0, pretend = 0, frame = 16
 324              		@ frame_needed = 1, uses_anonymous_args = 0
 325 0000 80B5     		push	{r7, lr}
 326              		.cfi_def_cfa_offset 8
 327              		.cfi_offset 7, -8
 328              		.cfi_offset 14, -4
 329 0002 84B0     		sub	sp, sp, #16
 330              		.cfi_def_cfa_offset 24
 331 0004 00AF     		add	r7, sp, #0
 332              		.cfi_def_cfa_register 7
 333 0006 7860     		str	r0, [r7, #4]
 334 0008 0B46     		mov	r3, r1
 335 000a FB70     		strb	r3, [r7, #3]
  75:app_state_manu.c ****     if (mode != HAMFLY_RATE) {
 336              		.loc 1 75 0
 337 000c FB78     		ldrb	r3, [r7, #3]	@ zero_extendqisi2
 338 000e 012B     		cmp	r3, #1
 339 0010 1ED0     		beq	.L14
 340              	.LBB2:
  76:app_state_manu.c ****         float p, t;
  77:app_state_manu.c ****         if (!gimbal_pan_tilt_deg(ctx, &p, &t)) {
 341              		.loc 1 77 0
 342 0012 07F10802 		add	r2, r7, #8
 343 0016 07F10C03 		add	r3, r7, #12
 344 001a 1946     		mov	r1, r3
 345 001c 7868     		ldr	r0, [r7, #4]
 346 001e FFF7FEFF 		bl	gimbal_pan_tilt_deg
 347 0022 0346     		mov	r3, r0
 348 0024 002B     		cmp	r3, #0
 349 0026 05D1     		bne	.L15
  78:app_state_manu.c ****             app_raise_error(ctx, SEV_USER, "no telemetry - hold unchanged");
 350              		.loc 1 78 0
 351 0028 134A     		ldr	r2, .L21
 352 002a 0021     		movs	r1, #0
 353 002c 7868     		ldr	r0, [r7, #4]
 354 002e FFF7FEFF 		bl	app_raise_error
ARM GAS  C:\Users\yoons\AppData\Local\Temp\ccX6MFS4.s 			page 9


 355 0032 1EE0     		b	.L13
 356              	.L15:
  79:app_state_manu.c ****             return;
  80:app_state_manu.c ****         }
  81:app_state_manu.c ****         ctx->nudge_base_pan_deg  = p;  ctx->tgt_pan_deg  = p;
 357              		.loc 1 81 0
 358 0034 FA68     		ldr	r2, [r7, #12]	@ float
 359 0036 7B68     		ldr	r3, [r7, #4]
 360 0038 9A67     		str	r2, [r3, #120]	@ float
 361 003a FA68     		ldr	r2, [r7, #12]	@ float
 362 003c 7B68     		ldr	r3, [r7, #4]
 363 003e C3F88020 		str	r2, [r3, #128]	@ float
  82:app_state_manu.c ****         ctx->nudge_base_tilt_deg = t;  ctx->tgt_tilt_deg = t;
 364              		.loc 1 82 0
 365 0042 BA68     		ldr	r2, [r7, #8]	@ float
 366 0044 7B68     		ldr	r3, [r7, #4]
 367 0046 DA67     		str	r2, [r3, #124]	@ float
 368 0048 BA68     		ldr	r2, [r7, #8]	@ float
 369 004a 7B68     		ldr	r3, [r7, #4]
 370 004c C3F88420 		str	r2, [r3, #132]	@ float
 371              	.L14:
 372              	.LBE2:
  83:app_state_manu.c ****     }
  84:app_state_manu.c ****     ctx->hold_mode = mode;
 373              		.loc 1 84 0
 374 0050 7B68     		ldr	r3, [r7, #4]
 375 0052 FA78     		ldrb	r2, [r7, #3]
 376 0054 5A76     		strb	r2, [r3, #25]
  85:app_state_manu.c ****     UART_DEBUG_PutString(
 377              		.loc 1 85 0
 378 0056 FB78     		ldrb	r3, [r7, #3]	@ zero_extendqisi2
 379 0058 012B     		cmp	r3, #1
 380 005a 06D0     		beq	.L17
 381              		.loc 1 85 0 is_stmt 0 discriminator 1
 382 005c FB78     		ldrb	r3, [r7, #3]	@ zero_extendqisi2
 383 005e 022B     		cmp	r3, #2
 384 0060 01D1     		bne	.L18
 385              		.loc 1 85 0 discriminator 3
 386 0062 064B     		ldr	r3, .L21+4
 387 0064 02E0     		b	.L20
 388              	.L18:
 389              		.loc 1 85 0 discriminator 4
 390 0066 064B     		ldr	r3, .L21+8
 391 0068 00E0     		b	.L20
 392              	.L17:
 393              		.loc 1 85 0 discriminator 2
 394 006a 064B     		ldr	r3, .L21+12
 395              	.L20:
 396              		.loc 1 85 0 discriminator 8
 397 006c 1846     		mov	r0, r3
 398 006e FFF7FEFF 		bl	dbg_put
 399              	.L13:
  86:app_state_manu.c ****         (mode == HAMFLY_RATE)     ? "\r\n[HOLD] vel-zero\r\n" :
  87:app_state_manu.c ****         (mode == HAMFLY_ABSOLUTE) ? "\r\n[HOLD] absolute\r\n" :
  88:app_state_manu.c ****                                     "\r\n[HOLD] majestic\r\n");
  89:app_state_manu.c **** }
 400              		.loc 1 89 0 is_stmt 1
ARM GAS  C:\Users\yoons\AppData\Local\Temp\ccX6MFS4.s 			page 10


 401 0072 1037     		adds	r7, r7, #16
 402              		.cfi_def_cfa_offset 8
 403 0074 BD46     		mov	sp, r7
 404              		.cfi_def_cfa_register 13
 405              		@ sp needed
 406 0076 80BD     		pop	{r7, pc}
 407              	.L22:
 408              		.align	2
 409              	.L21:
 410 0078 4C000000 		.word	.LC1
 411 007c 6C000000 		.word	.LC2
 412 0080 80000000 		.word	.LC3
 413 0084 94000000 		.word	.LC4
 414              		.cfi_endproc
 415              	.LFE67:
 416              		.size	manu_set_hold, .-manu_set_hold
 417              		.section	.text.key_manu_joystick,"ax",%progbits
 418              		.align	2
 419              		.global	key_manu_joystick
 420              		.thumb
 421              		.thumb_func
 422              		.type	key_manu_joystick, %function
 423              	key_manu_joystick:
 424              	.LFB68:
  90:app_state_manu.c **** 
  91:app_state_manu.c **** 
  92:app_state_manu.c **** uint8_t key_manu_joystick(app_ctx_t *ctx, char k)
  93:app_state_manu.c **** {
 425              		.loc 1 93 0
 426              		.cfi_startproc
 427              		@ args = 0, pretend = 0, frame = 8
 428              		@ frame_needed = 1, uses_anonymous_args = 0
 429 0000 80B5     		push	{r7, lr}
 430              		.cfi_def_cfa_offset 8
 431              		.cfi_offset 7, -8
 432              		.cfi_offset 14, -4
 433 0002 82B0     		sub	sp, sp, #8
 434              		.cfi_def_cfa_offset 16
 435 0004 00AF     		add	r7, sp, #0
 436              		.cfi_def_cfa_register 7
 437 0006 7860     		str	r0, [r7, #4]
 438 0008 0B46     		mov	r3, r1
 439 000a FB70     		strb	r3, [r7, #3]
  94:app_state_manu.c ****     if (handle_nudge_key(ctx, k)) return 1;
 440              		.loc 1 94 0
 441 000c FB78     		ldrb	r3, [r7, #3]	@ zero_extendqisi2
 442 000e 1946     		mov	r1, r3
 443 0010 7868     		ldr	r0, [r7, #4]
 444 0012 FFF7FEFF 		bl	handle_nudge_key
 445 0016 0346     		mov	r3, r0
 446 0018 002B     		cmp	r3, #0
 447 001a 01D0     		beq	.L24
 448              		.loc 1 94 0 is_stmt 0 discriminator 1
 449 001c 0123     		movs	r3, #1
 450 001e CAE0     		b	.L25
 451              	.L24:
  95:app_state_manu.c ****     switch (k) {
ARM GAS  C:\Users\yoons\AppData\Local\Temp\ccX6MFS4.s 			page 11


 452              		.loc 1 95 0 is_stmt 1
 453 0020 FB78     		ldrb	r3, [r7, #3]	@ zero_extendqisi2
 454 0022 323B     		subs	r3, r3, #50
 455 0024 442B     		cmp	r3, #68
 456 0026 00F2C580 		bhi	.L26
 457 002a 01A2     		adr	r2, .L28
 458 002c 52F823F0 		ldr	pc, [r2, r3, lsl #2]
 459              		.p2align 2
 460              	.L28:
 461 0030 55010000 		.word	.L27+1
 462 0034 B5010000 		.word	.L26+1
 463 0038 65010000 		.word	.L29+1
 464 003c B5010000 		.word	.L26+1
 465 0040 75010000 		.word	.L30+1
 466 0044 B5010000 		.word	.L26+1
 467 0048 45010000 		.word	.L31+1
 468 004c B5010000 		.word	.L26+1
 469 0050 B5010000 		.word	.L26+1
 470 0054 B5010000 		.word	.L26+1
 471 0058 B5010000 		.word	.L26+1
 472 005c B5010000 		.word	.L26+1
 473 0060 B5010000 		.word	.L26+1
 474 0064 B5010000 		.word	.L26+1
 475 0068 B5010000 		.word	.L26+1
 476 006c B5010000 		.word	.L26+1
 477 0070 B5010000 		.word	.L26+1
 478 0074 B5010000 		.word	.L26+1
 479 0078 B5010000 		.word	.L26+1
 480 007c B5010000 		.word	.L26+1
 481 0080 B5010000 		.word	.L26+1
 482 0084 B5010000 		.word	.L26+1
 483 0088 B5010000 		.word	.L26+1
 484 008c B5010000 		.word	.L26+1
 485 0090 B5010000 		.word	.L26+1
 486 0094 B5010000 		.word	.L26+1
 487 0098 B5010000 		.word	.L26+1
 488 009c B5010000 		.word	.L26+1
 489 00a0 B5010000 		.word	.L26+1
 490 00a4 B5010000 		.word	.L26+1
 491 00a8 B5010000 		.word	.L26+1
 492 00ac B5010000 		.word	.L26+1
 493 00b0 B5010000 		.word	.L26+1
 494 00b4 B5010000 		.word	.L26+1
 495 00b8 B5010000 		.word	.L26+1
 496 00bc B5010000 		.word	.L26+1
 497 00c0 B5010000 		.word	.L26+1
 498 00c4 B5010000 		.word	.L26+1
 499 00c8 B5010000 		.word	.L26+1
 500 00cc B5010000 		.word	.L26+1
 501 00d0 B5010000 		.word	.L26+1
 502 00d4 B5010000 		.word	.L26+1
 503 00d8 B5010000 		.word	.L26+1
 504 00dc B5010000 		.word	.L26+1
 505 00e0 B5010000 		.word	.L26+1
 506 00e4 B5010000 		.word	.L26+1
 507 00e8 B5010000 		.word	.L26+1
 508 00ec B5010000 		.word	.L26+1
ARM GAS  C:\Users\yoons\AppData\Local\Temp\ccX6MFS4.s 			page 12


 509 00f0 91010000 		.word	.L32+1
 510 00f4 B5010000 		.word	.L26+1
 511 00f8 B5010000 		.word	.L26+1
 512 00fc A9010000 		.word	.L33+1
 513 0100 B5010000 		.word	.L26+1
 514 0104 B5010000 		.word	.L26+1
 515 0108 B5010000 		.word	.L26+1
 516 010c B5010000 		.word	.L26+1
 517 0110 B5010000 		.word	.L26+1
 518 0114 B5010000 		.word	.L26+1
 519 0118 B5010000 		.word	.L26+1
 520 011c 9D010000 		.word	.L34+1
 521 0120 B5010000 		.word	.L26+1
 522 0124 B5010000 		.word	.L26+1
 523 0128 B5010000 		.word	.L26+1
 524 012c B5010000 		.word	.L26+1
 525 0130 B5010000 		.word	.L26+1
 526 0134 B5010000 		.word	.L26+1
 527 0138 B5010000 		.word	.L26+1
 528 013c B5010000 		.word	.L26+1
 529 0140 85010000 		.word	.L35+1
 530              		.p2align 1
 531              	.L31:
  96:app_state_manu.c ****         // Numpad for loswest possible abs increment
  97:app_state_manu.c ****         case '8': nudge_apply(ctx, 0,    +NUDGE_LSB_DEG);  return 1;  // Numpad
 532              		.loc 1 97 0
 533 0144 1E4A     		ldr	r2, .L36
 534 0146 4FF00001 		mov	r1, #0
 535 014a 7868     		ldr	r0, [r7, #4]
 536 014c FFF7FEFF 		bl	nudge_apply
 537 0150 0123     		movs	r3, #1
 538 0152 30E0     		b	.L25
 539              	.L27:
  98:app_state_manu.c ****         case '2': nudge_apply(ctx, 0,    -NUDGE_LSB_DEG);  return 1;  // Numpad
 540              		.loc 1 98 0
 541 0154 1B4A     		ldr	r2, .L36+4
 542 0156 4FF00001 		mov	r1, #0
 543 015a 7868     		ldr	r0, [r7, #4]
 544 015c FFF7FEFF 		bl	nudge_apply
 545 0160 0123     		movs	r3, #1
 546 0162 28E0     		b	.L25
 547              	.L29:
  99:app_state_manu.c ****         case '4': nudge_apply(ctx, -NUDGE_LSB_DEG,    0);  return 1;  // Numpad
 548              		.loc 1 99 0
 549 0164 4FF00002 		mov	r2, #0
 550 0168 1649     		ldr	r1, .L36+4
 551 016a 7868     		ldr	r0, [r7, #4]
 552 016c FFF7FEFF 		bl	nudge_apply
 553 0170 0123     		movs	r3, #1
 554 0172 20E0     		b	.L25
 555              	.L30:
 100:app_state_manu.c ****         case '6': nudge_apply(ctx, +NUDGE_LSB_DEG,    0);  return 1;  // Numpad
 556              		.loc 1 100 0
 557 0174 4FF00002 		mov	r2, #0
 558 0178 1149     		ldr	r1, .L36
 559 017a 7868     		ldr	r0, [r7, #4]
 560 017c FFF7FEFF 		bl	nudge_apply
ARM GAS  C:\Users\yoons\AppData\Local\Temp\ccX6MFS4.s 			page 13


 561 0180 0123     		movs	r3, #1
 562 0182 18E0     		b	.L25
 563              	.L35:
 101:app_state_manu.c ****         case 'v': manu_set_hold(ctx, HAMFLY_RATE);     return 1;
 564              		.loc 1 101 0
 565 0184 0121     		movs	r1, #1
 566 0186 7868     		ldr	r0, [r7, #4]
 567 0188 FFF7FEFF 		bl	manu_set_hold
 568 018c 0123     		movs	r3, #1
 569 018e 12E0     		b	.L25
 570              	.L32:
 102:app_state_manu.c ****         case 'b': manu_set_hold(ctx, HAMFLY_ABSOLUTE); return 1;
 571              		.loc 1 102 0
 572 0190 0221     		movs	r1, #2
 573 0192 7868     		ldr	r0, [r7, #4]
 574 0194 FFF7FEFF 		bl	manu_set_hold
 575 0198 0123     		movs	r3, #1
 576 019a 0CE0     		b	.L25
 577              	.L34:
 103:app_state_manu.c ****         case 'm': manu_set_hold(ctx, HAMFLY_ABSOLUTE_MAJESTIC); return 1;
 578              		.loc 1 103 0
 579 019c 0321     		movs	r1, #3
 580 019e 7868     		ldr	r0, [r7, #4]
 581 01a0 FFF7FEFF 		bl	manu_set_hold
 582 01a4 0123     		movs	r3, #1
 583 01a6 06E0     		b	.L25
 584              	.L33:
 104:app_state_manu.c ****         case 'e': app_transition(ctx, STBY_HOLD);            return 1;  // Exit
 585              		.loc 1 104 0
 586 01a8 0621     		movs	r1, #6
 587 01aa 7868     		ldr	r0, [r7, #4]
 588 01ac FFF7FEFF 		bl	app_transition
 589 01b0 0123     		movs	r3, #1
 590 01b2 00E0     		b	.L25
 591              	.L26:
 105:app_state_manu.c ****         default:  return 0;
 592              		.loc 1 105 0
 593 01b4 0023     		movs	r3, #0
 594              	.L25:
 106:app_state_manu.c ****     }
 107:app_state_manu.c **** }
 595              		.loc 1 107 0
 596 01b6 1846     		mov	r0, r3
 597 01b8 0837     		adds	r7, r7, #8
 598              		.cfi_def_cfa_offset 8
 599 01ba BD46     		mov	sp, r7
 600              		.cfi_def_cfa_register 13
 601              		@ sp needed
 602 01bc 80BD     		pop	{r7, pc}
 603              	.L37:
 604 01be 00BF     		.align	2
 605              	.L36:
 606 01c0 6801B43B 		.word	1001652584
 607 01c4 6801B4BB 		.word	-1145831064
 608              		.cfi_endproc
 609              	.LFE68:
 610              		.size	key_manu_joystick, .-key_manu_joystick
ARM GAS  C:\Users\yoons\AppData\Local\Temp\ccX6MFS4.s 			page 14


 611              		.global	__aeabi_fcmplt
 612              		.section	.text.app_manual_tick,"ax",%progbits
 613              		.align	2
 614              		.global	app_manual_tick
 615              		.thumb
 616              		.thumb_func
 617              		.type	app_manual_tick, %function
 618              	app_manual_tick:
 619              	.LFB69:
 108:app_state_manu.c **** 
 109:app_state_manu.c **** // Auto releases nudge flag once stationary.
 110:app_state_manu.c **** void app_manual_tick(app_ctx_t *ctx)
 111:app_state_manu.c **** {
 620              		.loc 1 111 0
 621              		.cfi_startproc
 622              		@ args = 0, pretend = 0, frame = 24
 623              		@ frame_needed = 1, uses_anonymous_args = 0
 624 0000 80B5     		push	{r7, lr}
 625              		.cfi_def_cfa_offset 8
 626              		.cfi_offset 7, -8
 627              		.cfi_offset 14, -4
 628 0002 86B0     		sub	sp, sp, #24
 629              		.cfi_def_cfa_offset 32
 630 0004 00AF     		add	r7, sp, #0
 631              		.cfi_def_cfa_register 7
 632 0006 7860     		str	r0, [r7, #4]
 112:app_state_manu.c ****     if (!ctx->nudge_hold) return;
 633              		.loc 1 112 0
 634 0008 7B68     		ldr	r3, [r7, #4]
 635 000a 93F87130 		ldrb	r3, [r3, #113]	@ zero_extendqisi2
 636 000e 002B     		cmp	r3, #0
 637 0010 49D0     		beq	.L52
 113:app_state_manu.c ****     uint32_t elapsed = g_tick_ms - ctx->nudge_start_ms;
 638              		.loc 1 113 0
 639 0012 284B     		ldr	r3, .L54
 640 0014 1A68     		ldr	r2, [r3]
 641 0016 7B68     		ldr	r3, [r7, #4]
 642 0018 5B6F     		ldr	r3, [r3, #116]
 643 001a D31A     		subs	r3, r2, r3
 644 001c 3B61     		str	r3, [r7, #16]
 114:app_state_manu.c ****     if (elapsed < NUDGE_MIN_DWELL_MS) return;  // Wait for the nudge to land
 645              		.loc 1 114 0
 646 001e 3B69     		ldr	r3, [r7, #16]
 647 0020 952B     		cmp	r3, #149
 648 0022 42D9     		bls	.L53
 115:app_state_manu.c **** 
 116:app_state_manu.c ****     float p, t;
 117:app_state_manu.c ****     uint8_t arrived = 0u;
 649              		.loc 1 117 0
 650 0024 0023     		movs	r3, #0
 651 0026 FB75     		strb	r3, [r7, #23]
 118:app_state_manu.c ****     if (gimbal_pan_tilt_deg(ctx, &p, &t))
 652              		.loc 1 118 0
 653 0028 07F10802 		add	r2, r7, #8
 654 002c 07F10C03 		add	r3, r7, #12
 655 0030 1946     		mov	r1, r3
 656 0032 7868     		ldr	r0, [r7, #4]
ARM GAS  C:\Users\yoons\AppData\Local\Temp\ccX6MFS4.s 			page 15


 657 0034 FFF7FEFF 		bl	gimbal_pan_tilt_deg
 658 0038 0346     		mov	r3, r0
 659 003a 002B     		cmp	r3, #0
 660 003c 27D0     		beq	.L42
 119:app_state_manu.c ****         arrived = (fabsf(p - ctx->tgt_pan_deg)  < NUDGE_SETTLE_DEG) &&
 661              		.loc 1 119 0
 662 003e FA68     		ldr	r2, [r7, #12]	@ float
 663 0040 7B68     		ldr	r3, [r7, #4]
 664 0042 D3F88030 		ldr	r3, [r3, #128]	@ float
 665 0046 1946     		mov	r1, r3
 666 0048 1046     		mov	r0, r2
 667 004a FFF7FEFF 		bl	__aeabi_fsub
 668 004e 0346     		mov	r3, r0
 669 0050 23F00043 		bic	r3, r3, #-2147483648
 670 0054 1849     		ldr	r1, .L54+4
 671 0056 1846     		mov	r0, r3
 672 0058 FFF7FEFF 		bl	__aeabi_fcmplt
 673 005c 0346     		mov	r3, r0
 674 005e 002B     		cmp	r3, #0
 675 0060 13D0     		beq	.L43
 120:app_state_manu.c ****                   (fabsf(t - ctx->tgt_tilt_deg) < NUDGE_SETTLE_DEG);
 676              		.loc 1 120 0 discriminator 1
 677 0062 BA68     		ldr	r2, [r7, #8]	@ float
 678 0064 7B68     		ldr	r3, [r7, #4]
 679 0066 D3F88430 		ldr	r3, [r3, #132]	@ float
 680 006a 1946     		mov	r1, r3
 681 006c 1046     		mov	r0, r2
 682 006e FFF7FEFF 		bl	__aeabi_fsub
 683 0072 0346     		mov	r3, r0
 684 0074 23F00043 		bic	r3, r3, #-2147483648
 119:app_state_manu.c ****         arrived = (fabsf(p - ctx->tgt_pan_deg)  < NUDGE_SETTLE_DEG) &&
 685              		.loc 1 119 0 discriminator 1
 686 0078 0F49     		ldr	r1, .L54+4
 687 007a 1846     		mov	r0, r3
 688 007c FFF7FEFF 		bl	__aeabi_fcmplt
 689 0080 0346     		mov	r3, r0
 690 0082 002B     		cmp	r3, #0
 691 0084 01D0     		beq	.L43
 119:app_state_manu.c ****         arrived = (fabsf(p - ctx->tgt_pan_deg)  < NUDGE_SETTLE_DEG) &&
 692              		.loc 1 119 0 is_stmt 0 discriminator 3
 693 0086 0123     		movs	r3, #1
 694 0088 00E0     		b	.L46
 695              	.L43:
 119:app_state_manu.c ****         arrived = (fabsf(p - ctx->tgt_pan_deg)  < NUDGE_SETTLE_DEG) &&
 696              		.loc 1 119 0 discriminator 4
 697 008a 0023     		movs	r3, #0
 698              	.L46:
 119:app_state_manu.c ****         arrived = (fabsf(p - ctx->tgt_pan_deg)  < NUDGE_SETTLE_DEG) &&
 699              		.loc 1 119 0 discriminator 6
 700 008c FB75     		strb	r3, [r7, #23]
 701              	.L42:
 121:app_state_manu.c ****     if (arrived || elapsed >= NUDGE_TIMEOUT_MS)
 702              		.loc 1 121 0 is_stmt 1
 703 008e FB7D     		ldrb	r3, [r7, #23]	@ zero_extendqisi2
 704 0090 002B     		cmp	r3, #0
 705 0092 03D1     		bne	.L47
 706              		.loc 1 121 0 is_stmt 0 discriminator 1
ARM GAS  C:\Users\yoons\AppData\Local\Temp\ccX6MFS4.s 			page 16


 707 0094 3B69     		ldr	r3, [r7, #16]
 708 0096 B3F5FA6F 		cmp	r3, #2000
 709 009a 07D3     		bcc	.L38
 710              	.L47:
 122:app_state_manu.c ****         ctx->nudge_hold = 0u;  // Hold from here
 711              		.loc 1 122 0 is_stmt 1
 712 009c 7B68     		ldr	r3, [r7, #4]
 713 009e 0022     		movs	r2, #0
 714 00a0 83F87120 		strb	r2, [r3, #113]
 715 00a4 02E0     		b	.L38
 716              	.L52:
 112:app_state_manu.c ****     uint32_t elapsed = g_tick_ms - ctx->nudge_start_ms;
 717              		.loc 1 112 0
 718 00a6 00BF     		nop
 719 00a8 00E0     		b	.L38
 720              	.L53:
 114:app_state_manu.c **** 
 721              		.loc 1 114 0
 722 00aa 00BF     		nop
 723              	.L38:
 123:app_state_manu.c **** }
 724              		.loc 1 123 0
 725 00ac 1837     		adds	r7, r7, #24
 726              		.cfi_def_cfa_offset 8
 727 00ae BD46     		mov	sp, r7
 728              		.cfi_def_cfa_register 13
 729              		@ sp needed
 730 00b0 80BD     		pop	{r7, pc}
 731              	.L55:
 732 00b2 00BF     		.align	2
 733              	.L54:
 734 00b4 00000000 		.word	g_tick_ms
 735 00b8 CDCC4C3D 		.word	1028443341
 736              		.cfi_endproc
 737              	.LFE69:
 738              		.size	app_manual_tick, .-app_manual_tick
 739              		.text
 740              	.Letext0:
 741              		.file 2 "c:\\program files (x86)\\cypress\\psoc creator\\4.4\\psoc creator\\import\\gnu\\arm\\5.4.
 742              		.file 3 "c:\\program files (x86)\\cypress\\psoc creator\\4.4\\psoc creator\\import\\gnu\\arm\\5.4.
 743              		.file 4 "..\\..\\..\\HamFlyAPI\\src/hamfly_core_control.h"
 744              		.file 5 "..\\..\\..\\HamFlyAPI\\src/hamfly_core_hal.h"
 745              		.file 6 "..\\..\\..\\HamFlyAPI\\src/hamfly_core_telemetry.h"
 746              		.file 7 "..\\..\\..\\HamFlyAPI\\src/hamfly_comm_rb.h"
 747              		.file 8 "..\\..\\..\\HamFlyAPI\\src/hamfly_core_gimbal.h"
 748              		.file 9 "app_ctx.h"
 749              		.file 10 "Generated_Source\\PSoC5/core_cm3.h"