ARM GAS  C:\Users\yoons\AppData\Local\Temp\ccrF5rAx.s 			page 1


   1              		.syntax unified
   2              		.cpu cortex-m3
   3              		.fpu softvfp
   4              		.eabi_attribute 20, 1
   5              		.eabi_attribute 21, 1
   6              		.eabi_attribute 23, 3
   7              		.eabi_attribute 24, 1
   8              		.eabi_attribute 25, 1
   9              		.eabi_attribute 26, 1
  10              		.eabi_attribute 30, 6
  11              		.eabi_attribute 34, 1
  12              		.eabi_attribute 18, 4
  13              		.thumb
  14              		.syntax unified
  15              		.file	"psoc_eeprom.c"
  16              		.text
  17              	.Ltext0:
  18              		.cfi_sections	.debug_frame
  19              		.section	.text.slot_id_to_row,"ax",%progbits
  20              		.align	2
  21              		.thumb
  22              		.thumb_func
  23              		.type	slot_id_to_row, %function
  24              	slot_id_to_row:
  25              	.LFB63:
  26              		.file 1 "psoc_eeprom.c"
   1:psoc_eeprom.c **** /* ========================================
   2:psoc_eeprom.c ****  *
   3:psoc_eeprom.c ****  * Copyright Hamish Johnson, 2026
   4:psoc_eeprom.c ****  * All Rights Reserved
   5:psoc_eeprom.c ****  * UNPUBLISHED, LICENSED SOFTWARE.
   6:psoc_eeprom.c ****  *
   7:psoc_eeprom.c ****  * CONFIDENTIAL AND PROPRIETARY INFORMATION
   8:psoc_eeprom.c ****  * WHICH IS THE PROPERTY OF
   9:psoc_eeprom.c ****  * Quantum Internet Systems Lab (QISL),
  10:psoc_eeprom.c ****  * Department of Physics, SFU, Canada.
  11:psoc_eeprom.c ****  *
  12:psoc_eeprom.c ****  * Author: Hamish Johnson (2026)
  13:psoc_eeprom.c ****  *
  14:psoc_eeprom.c ****  * ========================================
  15:psoc_eeprom.c ****  *
  16:psoc_eeprom.c ****  * Generic EEPROM slot store implementation for PSoC 5LP.
  17:psoc_eeprom.c ****  * Uses EEPROM_CONFIG component API:
  18:psoc_eeprom.c ****  *   EEPROM_CONFIG_Start()
  19:psoc_eeprom.c ****  *   EEPROM_CONFIG_UpdateTemperature()
  20:psoc_eeprom.c ****  *   EEPROM_CONFIG_Write(const uint8 *rowData, uint8 rowNumber)
  21:psoc_eeprom.c ****  *   EEPROM_CONFIG_WriteByte(uint8 dataByte, uint16 address)
  22:psoc_eeprom.c ****  * Reading is direct via (uint8 *)(CYDEV_EE_BASE + byte_offset).
  23:psoc_eeprom.c ****  */
  24:psoc_eeprom.c **** 
  25:psoc_eeprom.c **** #include "psoc_eeprom.h"
  26:psoc_eeprom.c **** #include <string.h>
  27:psoc_eeprom.c **** 
  28:psoc_eeprom.c **** /* ============================================================
  29:psoc_eeprom.c ****  * slot_id_to_row
  30:psoc_eeprom.c ****  * Maps a slot ID to its fixed EEPROM row number.
  31:psoc_eeprom.c ****  * Returns 0xFF if the slot ID is unknown.
ARM GAS  C:\Users\yoons\AppData\Local\Temp\ccrF5rAx.s 			page 2


  32:psoc_eeprom.c ****  * Add a case here whenever a new slot is defined in the header.
  33:psoc_eeprom.c ****  * ============================================================ */
  34:psoc_eeprom.c **** static uint8 slot_id_to_row(uint8 slot_id)
  35:psoc_eeprom.c **** {
  27              		.loc 1 35 0
  28              		.cfi_startproc
  29              		@ args = 0, pretend = 0, frame = 8
  30              		@ frame_needed = 1, uses_anonymous_args = 0
  31              		@ link register save eliminated.
  32 0000 80B4     		push	{r7}
  33              		.cfi_def_cfa_offset 4
  34              		.cfi_offset 7, -4
  35 0002 83B0     		sub	sp, sp, #12
  36              		.cfi_def_cfa_offset 16
  37 0004 00AF     		add	r7, sp, #0
  38              		.cfi_def_cfa_register 7
  39 0006 0346     		mov	r3, r0
  40 0008 FB71     		strb	r3, [r7, #7]
  36:psoc_eeprom.c ****     switch (slot_id) {
  41              		.loc 1 36 0
  42 000a FB79     		ldrb	r3, [r7, #7]	@ zero_extendqisi2
  43 000c 012B     		cmp	r3, #1
  44 000e 02D0     		beq	.L3
  45 0010 022B     		cmp	r3, #2
  46 0012 02D0     		beq	.L4
  47 0014 03E0     		b	.L6
  48              	.L3:
  37:psoc_eeprom.c ****         case PSOC_EEPROM_SLOT_JOY_CAL:   return PSOC_EEPROM_ROW_JOY_CAL;
  49              		.loc 1 37 0
  50 0016 0023     		movs	r3, #0
  51 0018 02E0     		b	.L5
  52              	.L4:
  38:psoc_eeprom.c ****         case PSOC_EEPROM_SLOT_JOY_SENSE: return PSOC_EEPROM_ROW_JOY_SENSE;
  53              		.loc 1 38 0
  54 001a 0123     		movs	r3, #1
  55 001c 00E0     		b	.L5
  56              	.L6:
  39:psoc_eeprom.c ****         /* Add cases here for new slots. */
  40:psoc_eeprom.c ****         default: return 0xFFu;
  57              		.loc 1 40 0
  58 001e FF23     		movs	r3, #255
  59              	.L5:
  41:psoc_eeprom.c ****     }
  42:psoc_eeprom.c **** }
  60              		.loc 1 42 0
  61 0020 1846     		mov	r0, r3
  62 0022 0C37     		adds	r7, r7, #12
  63              		.cfi_def_cfa_offset 4
  64 0024 BD46     		mov	sp, r7
  65              		.cfi_def_cfa_register 13
  66              		@ sp needed
  67 0026 80BC     		pop	{r7}
  68              		.cfi_restore 7
  69              		.cfi_def_cfa_offset 0
  70 0028 7047     		bx	lr
  71              		.cfi_endproc
  72              	.LFE63:
ARM GAS  C:\Users\yoons\AppData\Local\Temp\ccrF5rAx.s 			page 3


  73              		.size	slot_id_to_row, .-slot_id_to_row
  74 002a 00BF     		.section	.text.read_row_byte,"ax",%progbits
  75              		.align	2
  76              		.thumb
  77              		.thumb_func
  78              		.type	read_row_byte, %function
  79              	read_row_byte:
  80              	.LFB64:
  43:psoc_eeprom.c **** 
  44:psoc_eeprom.c **** /* ============================================================
  45:psoc_eeprom.c ****  * read_row_byte
  46:psoc_eeprom.c ****  * Read one byte from EEPROM by row + byte offset within the row.
  47:psoc_eeprom.c ****  * ============================================================ */
  48:psoc_eeprom.c **** static uint8 read_row_byte(uint8 row, uint8 byte_offset)
  49:psoc_eeprom.c **** {
  81              		.loc 1 49 0
  82              		.cfi_startproc
  83              		@ args = 0, pretend = 0, frame = 16
  84              		@ frame_needed = 1, uses_anonymous_args = 0
  85              		@ link register save eliminated.
  86 0000 80B4     		push	{r7}
  87              		.cfi_def_cfa_offset 4
  88              		.cfi_offset 7, -4
  89 0002 85B0     		sub	sp, sp, #20
  90              		.cfi_def_cfa_offset 24
  91 0004 00AF     		add	r7, sp, #0
  92              		.cfi_def_cfa_register 7
  93 0006 0346     		mov	r3, r0
  94 0008 0A46     		mov	r2, r1
  95 000a FB71     		strb	r3, [r7, #7]
  96 000c 1346     		mov	r3, r2
  97 000e BB71     		strb	r3, [r7, #6]
  50:psoc_eeprom.c ****     uint16 abs_addr = (uint16)((uint16)row * PSOC_EEPROM_ROW_SIZE
  98              		.loc 1 50 0
  99 0010 FB79     		ldrb	r3, [r7, #7]	@ zero_extendqisi2
 100 0012 9BB2     		uxth	r3, r3
 101 0014 1B01     		lsls	r3, r3, #4
 102 0016 9AB2     		uxth	r2, r3
 103 0018 BB79     		ldrb	r3, [r7, #6]	@ zero_extendqisi2
 104 001a 9BB2     		uxth	r3, r3
 105 001c 1344     		add	r3, r3, r2
 106 001e FB81     		strh	r3, [r7, #14]	@ movhi
  51:psoc_eeprom.c ****                                + byte_offset);
  52:psoc_eeprom.c ****     return *(volatile uint8 *)(CYDEV_EE_BASE + abs_addr);
 107              		.loc 1 52 0
 108 0020 FB89     		ldrh	r3, [r7, #14]
 109 0022 03F18043 		add	r3, r3, #1073741824
 110 0026 03F50043 		add	r3, r3, #32768
 111 002a 1B78     		ldrb	r3, [r3]
 112 002c DBB2     		uxtb	r3, r3
  53:psoc_eeprom.c **** }
 113              		.loc 1 53 0
 114 002e 1846     		mov	r0, r3
 115 0030 1437     		adds	r7, r7, #20
 116              		.cfi_def_cfa_offset 4
 117 0032 BD46     		mov	sp, r7
 118              		.cfi_def_cfa_register 13
ARM GAS  C:\Users\yoons\AppData\Local\Temp\ccrF5rAx.s 			page 4


 119              		@ sp needed
 120 0034 80BC     		pop	{r7}
 121              		.cfi_restore 7
 122              		.cfi_def_cfa_offset 0
 123 0036 7047     		bx	lr
 124              		.cfi_endproc
 125              	.LFE64:
 126              		.size	read_row_byte, .-read_row_byte
 127              		.section	.text.read_row_data,"ax",%progbits
 128              		.align	2
 129              		.thumb
 130              		.thumb_func
 131              		.type	read_row_data, %function
 132              	read_row_data:
 133              	.LFB65:
  54:psoc_eeprom.c **** 
  55:psoc_eeprom.c **** /* ============================================================
  56:psoc_eeprom.c ****  * read_row_data
  57:psoc_eeprom.c ****  * Copy len bytes of data from an EEPROM row starting at
  58:psoc_eeprom.c ****  * PSOC_EEPROM_ROW_DATA offset into dst.
  59:psoc_eeprom.c ****  * ============================================================ */
  60:psoc_eeprom.c **** static void read_row_data(uint8 row, void *dst, uint8 len)
  61:psoc_eeprom.c **** {
 134              		.loc 1 61 0
 135              		.cfi_startproc
 136              		@ args = 0, pretend = 0, frame = 16
 137              		@ frame_needed = 1, uses_anonymous_args = 0
 138 0000 80B5     		push	{r7, lr}
 139              		.cfi_def_cfa_offset 8
 140              		.cfi_offset 7, -8
 141              		.cfi_offset 14, -4
 142 0002 84B0     		sub	sp, sp, #16
 143              		.cfi_def_cfa_offset 24
 144 0004 00AF     		add	r7, sp, #0
 145              		.cfi_def_cfa_register 7
 146 0006 0346     		mov	r3, r0
 147 0008 3960     		str	r1, [r7]
 148 000a FB71     		strb	r3, [r7, #7]
 149 000c 1346     		mov	r3, r2
 150 000e BB71     		strb	r3, [r7, #6]
  62:psoc_eeprom.c ****     uint16 abs_addr = (uint16)((uint16)row * PSOC_EEPROM_ROW_SIZE
 151              		.loc 1 62 0
 152 0010 FB79     		ldrb	r3, [r7, #7]	@ zero_extendqisi2
 153 0012 9BB2     		uxth	r3, r3
 154 0014 1B01     		lsls	r3, r3, #4
 155 0016 9BB2     		uxth	r3, r3
 156 0018 0233     		adds	r3, r3, #2
 157 001a FB81     		strh	r3, [r7, #14]	@ movhi
  63:psoc_eeprom.c ****                                + PSOC_EEPROM_ROW_DATA);
  64:psoc_eeprom.c ****     memcpy(dst, (const void *)(CYDEV_EE_BASE + abs_addr), len);
 158              		.loc 1 64 0
 159 001c FB89     		ldrh	r3, [r7, #14]
 160 001e 03F18043 		add	r3, r3, #1073741824
 161 0022 03F50043 		add	r3, r3, #32768
 162 0026 1946     		mov	r1, r3
 163 0028 BB79     		ldrb	r3, [r7, #6]	@ zero_extendqisi2
 164 002a 1A46     		mov	r2, r3
ARM GAS  C:\Users\yoons\AppData\Local\Temp\ccrF5rAx.s 			page 5


 165 002c 3868     		ldr	r0, [r7]
 166 002e FFF7FEFF 		bl	memcpy
  65:psoc_eeprom.c **** }
 167              		.loc 1 65 0
 168 0032 00BF     		nop
 169 0034 1037     		adds	r7, r7, #16
 170              		.cfi_def_cfa_offset 8
 171 0036 BD46     		mov	sp, r7
 172              		.cfi_def_cfa_register 13
 173              		@ sp needed
 174 0038 80BD     		pop	{r7, pc}
 175              		.cfi_endproc
 176              	.LFE65:
 177              		.size	read_row_data, .-read_row_data
 178 003a 00BF     		.section	.text.psoc_eeprom_init,"ax",%progbits
 179              		.align	2
 180              		.global	psoc_eeprom_init
 181              		.thumb
 182              		.thumb_func
 183              		.type	psoc_eeprom_init, %function
 184              	psoc_eeprom_init:
 185              	.LFB66:
  66:psoc_eeprom.c **** 
  67:psoc_eeprom.c **** /* ============================================================
  68:psoc_eeprom.c ****  * psoc_eeprom_init
  69:psoc_eeprom.c ****  * ============================================================ */
  70:psoc_eeprom.c **** void psoc_eeprom_init(void)
  71:psoc_eeprom.c **** {
 186              		.loc 1 71 0
 187              		.cfi_startproc
 188              		@ args = 0, pretend = 0, frame = 0
 189              		@ frame_needed = 1, uses_anonymous_args = 0
 190 0000 80B5     		push	{r7, lr}
 191              		.cfi_def_cfa_offset 8
 192              		.cfi_offset 7, -8
 193              		.cfi_offset 14, -4
 194 0002 00AF     		add	r7, sp, #0
 195              		.cfi_def_cfa_register 7
  72:psoc_eeprom.c ****     EEPROM_CONFIG_Start();
 196              		.loc 1 72 0
 197 0004 FFF7FEFF 		bl	EEPROM_CONFIG_Start
  73:psoc_eeprom.c **** }
 198              		.loc 1 73 0
 199 0008 00BF     		nop
 200 000a 80BD     		pop	{r7, pc}
 201              		.cfi_endproc
 202              	.LFE66:
 203              		.size	psoc_eeprom_init, .-psoc_eeprom_init
 204              		.section	.text.psoc_eeprom_write,"ax",%progbits
 205              		.align	2
 206              		.global	psoc_eeprom_write
 207              		.thumb
 208              		.thumb_func
 209              		.type	psoc_eeprom_write, %function
 210              	psoc_eeprom_write:
 211              	.LFB67:
  74:psoc_eeprom.c **** 
ARM GAS  C:\Users\yoons\AppData\Local\Temp\ccrF5rAx.s 			page 6


  75:psoc_eeprom.c **** /* ============================================================
  76:psoc_eeprom.c ****  * psoc_eeprom_write
  77:psoc_eeprom.c ****  * Builds a 16-byte row buffer and writes it to EEPROM.
  78:psoc_eeprom.c ****  * ============================================================ */
  79:psoc_eeprom.c **** uint8 psoc_eeprom_write(uint8 slot_id, const void *data, uint8 len)
  80:psoc_eeprom.c **** {
 212              		.loc 1 80 0
 213              		.cfi_startproc
 214              		@ args = 0, pretend = 0, frame = 32
 215              		@ frame_needed = 1, uses_anonymous_args = 0
 216 0000 80B5     		push	{r7, lr}
 217              		.cfi_def_cfa_offset 8
 218              		.cfi_offset 7, -8
 219              		.cfi_offset 14, -4
 220 0002 88B0     		sub	sp, sp, #32
 221              		.cfi_def_cfa_offset 40
 222 0004 00AF     		add	r7, sp, #0
 223              		.cfi_def_cfa_register 7
 224 0006 0346     		mov	r3, r0
 225 0008 3960     		str	r1, [r7]
 226 000a FB71     		strb	r3, [r7, #7]
 227 000c 1346     		mov	r3, r2
 228 000e BB71     		strb	r3, [r7, #6]
  81:psoc_eeprom.c ****     if (!data) return 0u;
 229              		.loc 1 81 0
 230 0010 3B68     		ldr	r3, [r7]
 231 0012 002B     		cmp	r3, #0
 232 0014 01D1     		bne	.L12
 233              		.loc 1 81 0 is_stmt 0 discriminator 1
 234 0016 0023     		movs	r3, #0
 235 0018 35E0     		b	.L19
 236              	.L12:
  82:psoc_eeprom.c ****     if (len == 0u || len > PSOC_EEPROM_ROW_DATA_SIZE) return 0u;
 237              		.loc 1 82 0 is_stmt 1
 238 001a BB79     		ldrb	r3, [r7, #6]	@ zero_extendqisi2
 239 001c 002B     		cmp	r3, #0
 240 001e 02D0     		beq	.L14
 241              		.loc 1 82 0 is_stmt 0 discriminator 2
 242 0020 BB79     		ldrb	r3, [r7, #6]	@ zero_extendqisi2
 243 0022 0E2B     		cmp	r3, #14
 244 0024 01D9     		bls	.L15
 245              	.L14:
 246              		.loc 1 82 0 discriminator 3
 247 0026 0023     		movs	r3, #0
 248 0028 2DE0     		b	.L19
 249              	.L15:
  83:psoc_eeprom.c **** 
  84:psoc_eeprom.c ****     uint8 row = slot_id_to_row(slot_id);
 250              		.loc 1 84 0 is_stmt 1
 251 002a FB79     		ldrb	r3, [r7, #7]	@ zero_extendqisi2
 252 002c 1846     		mov	r0, r3
 253 002e FFF7FEFF 		bl	slot_id_to_row
 254 0032 0346     		mov	r3, r0
 255 0034 FB77     		strb	r3, [r7, #31]
  85:psoc_eeprom.c ****     if (row == 0xFFu) return 0u;
 256              		.loc 1 85 0
 257 0036 FB7F     		ldrb	r3, [r7, #31]	@ zero_extendqisi2
ARM GAS  C:\Users\yoons\AppData\Local\Temp\ccrF5rAx.s 			page 7


 258 0038 FF2B     		cmp	r3, #255
 259 003a 01D1     		bne	.L16
 260              		.loc 1 85 0 is_stmt 0 discriminator 1
 261 003c 0023     		movs	r3, #0
 262 003e 22E0     		b	.L19
 263              	.L16:
  86:psoc_eeprom.c **** 
  87:psoc_eeprom.c ****     /* Build a full 16-byte row. Zero-pad unused data bytes. */
  88:psoc_eeprom.c ****     uint8 row_buf[PSOC_EEPROM_ROW_SIZE];
  89:psoc_eeprom.c ****     memset(row_buf, 0, sizeof(row_buf));
 264              		.loc 1 89 0 is_stmt 1
 265 0040 07F10803 		add	r3, r7, #8
 266 0044 1022     		movs	r2, #16
 267 0046 0021     		movs	r1, #0
 268 0048 1846     		mov	r0, r3
 269 004a FFF7FEFF 		bl	memset
  90:psoc_eeprom.c ****     row_buf[PSOC_EEPROM_ROW_MAGIC_LO] = PSOC_EEPROM_MAGIC_LO;
 270              		.loc 1 90 0
 271 004e A523     		movs	r3, #165
 272 0050 3B72     		strb	r3, [r7, #8]
  91:psoc_eeprom.c ****     row_buf[PSOC_EEPROM_ROW_LEN]      = len;
 273              		.loc 1 91 0
 274 0052 BB79     		ldrb	r3, [r7, #6]
 275 0054 7B72     		strb	r3, [r7, #9]
  92:psoc_eeprom.c ****     memcpy(&row_buf[PSOC_EEPROM_ROW_DATA], data, len);
 276              		.loc 1 92 0
 277 0056 BA79     		ldrb	r2, [r7, #6]	@ zero_extendqisi2
 278 0058 07F10803 		add	r3, r7, #8
 279 005c 0233     		adds	r3, r3, #2
 280 005e 3968     		ldr	r1, [r7]
 281 0060 1846     		mov	r0, r3
 282 0062 FFF7FEFF 		bl	memcpy
  93:psoc_eeprom.c **** 
  94:psoc_eeprom.c ****     /* Update temperature before write as per datasheet. */
  95:psoc_eeprom.c ****     EEPROM_CONFIG_UpdateTemperature();
 283              		.loc 1 95 0
 284 0066 FFF7FEFF 		bl	EEPROM_CONFIG_UpdateTemperature
  96:psoc_eeprom.c **** 
  97:psoc_eeprom.c ****     /* Write the full row. EEPROM_CONFIG_Write takes row number. */
  98:psoc_eeprom.c ****     cystatus r = EEPROM_CONFIG_Write(row_buf, row);
 285              		.loc 1 98 0
 286 006a FA7F     		ldrb	r2, [r7, #31]	@ zero_extendqisi2
 287 006c 07F10803 		add	r3, r7, #8
 288 0070 1146     		mov	r1, r2
 289 0072 1846     		mov	r0, r3
 290 0074 FFF7FEFF 		bl	EEPROM_CONFIG_Write
 291 0078 B861     		str	r0, [r7, #24]
  99:psoc_eeprom.c ****     return (r == CYRET_SUCCESS) ? 1u : 0u;
 292              		.loc 1 99 0
 293 007a BB69     		ldr	r3, [r7, #24]
 294 007c 002B     		cmp	r3, #0
 295 007e 01D1     		bne	.L17
 296              		.loc 1 99 0 is_stmt 0 discriminator 1
 297 0080 0123     		movs	r3, #1
 298 0082 00E0     		b	.L19
 299              	.L17:
 300              		.loc 1 99 0 discriminator 2
ARM GAS  C:\Users\yoons\AppData\Local\Temp\ccrF5rAx.s 			page 8


 301 0084 0023     		movs	r3, #0
 302              	.L19:
 100:psoc_eeprom.c **** }
 303              		.loc 1 100 0 is_stmt 1 discriminator 1
 304 0086 1846     		mov	r0, r3
 305 0088 2037     		adds	r7, r7, #32
 306              		.cfi_def_cfa_offset 8
 307 008a BD46     		mov	sp, r7
 308              		.cfi_def_cfa_register 13
 309              		@ sp needed
 310 008c 80BD     		pop	{r7, pc}
 311              		.cfi_endproc
 312              	.LFE67:
 313              		.size	psoc_eeprom_write, .-psoc_eeprom_write
 314 008e 00BF     		.section	.text.psoc_eeprom_read,"ax",%progbits
 315              		.align	2
 316              		.global	psoc_eeprom_read
 317              		.thumb
 318              		.thumb_func
 319              		.type	psoc_eeprom_read, %function
 320              	psoc_eeprom_read:
 321              	.LFB68:
 101:psoc_eeprom.c **** 
 102:psoc_eeprom.c **** /* ============================================================
 103:psoc_eeprom.c ****  * psoc_eeprom_read
 104:psoc_eeprom.c ****  * ============================================================ */
 105:psoc_eeprom.c **** uint8 psoc_eeprom_read(uint8 slot_id, void *out, uint8 len)
 106:psoc_eeprom.c **** {
 322              		.loc 1 106 0
 323              		.cfi_startproc
 324              		@ args = 0, pretend = 0, frame = 16
 325              		@ frame_needed = 1, uses_anonymous_args = 0
 326 0000 80B5     		push	{r7, lr}
 327              		.cfi_def_cfa_offset 8
 328              		.cfi_offset 7, -8
 329              		.cfi_offset 14, -4
 330 0002 84B0     		sub	sp, sp, #16
 331              		.cfi_def_cfa_offset 24
 332 0004 00AF     		add	r7, sp, #0
 333              		.cfi_def_cfa_register 7
 334 0006 0346     		mov	r3, r0
 335 0008 3960     		str	r1, [r7]
 336 000a FB71     		strb	r3, [r7, #7]
 337 000c 1346     		mov	r3, r2
 338 000e BB71     		strb	r3, [r7, #6]
 107:psoc_eeprom.c ****     if (!out || len == 0u) return 0u;
 339              		.loc 1 107 0
 340 0010 3B68     		ldr	r3, [r7]
 341 0012 002B     		cmp	r3, #0
 342 0014 02D0     		beq	.L21
 343              		.loc 1 107 0 is_stmt 0 discriminator 2
 344 0016 BB79     		ldrb	r3, [r7, #6]	@ zero_extendqisi2
 345 0018 002B     		cmp	r3, #0
 346 001a 01D1     		bne	.L22
 347              	.L21:
 348              		.loc 1 107 0 discriminator 3
 349 001c 0023     		movs	r3, #0
ARM GAS  C:\Users\yoons\AppData\Local\Temp\ccrF5rAx.s 			page 9


 350 001e 28E0     		b	.L23
 351              	.L22:
 108:psoc_eeprom.c **** 
 109:psoc_eeprom.c ****     uint8 row = slot_id_to_row(slot_id);
 352              		.loc 1 109 0 is_stmt 1
 353 0020 FB79     		ldrb	r3, [r7, #7]	@ zero_extendqisi2
 354 0022 1846     		mov	r0, r3
 355 0024 FFF7FEFF 		bl	slot_id_to_row
 356 0028 0346     		mov	r3, r0
 357 002a FB73     		strb	r3, [r7, #15]
 110:psoc_eeprom.c ****     if (row == 0xFFu) return 0u;
 358              		.loc 1 110 0
 359 002c FB7B     		ldrb	r3, [r7, #15]	@ zero_extendqisi2
 360 002e FF2B     		cmp	r3, #255
 361 0030 01D1     		bne	.L24
 362              		.loc 1 110 0 is_stmt 0 discriminator 1
 363 0032 0023     		movs	r3, #0
 364 0034 1DE0     		b	.L23
 365              	.L24:
 111:psoc_eeprom.c **** 
 112:psoc_eeprom.c ****     /* Check magic bytes. */
 113:psoc_eeprom.c ****     if (read_row_byte(row, PSOC_EEPROM_ROW_MAGIC_LO) != PSOC_EEPROM_MAGIC_LO)
 366              		.loc 1 113 0 is_stmt 1
 367 0036 FB7B     		ldrb	r3, [r7, #15]	@ zero_extendqisi2
 368 0038 0021     		movs	r1, #0
 369 003a 1846     		mov	r0, r3
 370 003c FFF7FEFF 		bl	read_row_byte
 371 0040 0346     		mov	r3, r0
 372 0042 A52B     		cmp	r3, #165
 373 0044 01D0     		beq	.L25
 114:psoc_eeprom.c ****         return 0u;
 374              		.loc 1 114 0
 375 0046 0023     		movs	r3, #0
 376 0048 13E0     		b	.L23
 377              	.L25:
 115:psoc_eeprom.c **** 
 116:psoc_eeprom.c ****     /* Check stored length matches requested length. */
 117:psoc_eeprom.c ****     uint8 stored_len = read_row_byte(row, PSOC_EEPROM_ROW_LEN);
 378              		.loc 1 117 0
 379 004a FB7B     		ldrb	r3, [r7, #15]	@ zero_extendqisi2
 380 004c 0121     		movs	r1, #1
 381 004e 1846     		mov	r0, r3
 382 0050 FFF7FEFF 		bl	read_row_byte
 383 0054 0346     		mov	r3, r0
 384 0056 BB73     		strb	r3, [r7, #14]
 118:psoc_eeprom.c ****     if (stored_len != len) return 0u;
 385              		.loc 1 118 0
 386 0058 BA7B     		ldrb	r2, [r7, #14]	@ zero_extendqisi2
 387 005a BB79     		ldrb	r3, [r7, #6]	@ zero_extendqisi2
 388 005c 9A42     		cmp	r2, r3
 389 005e 01D0     		beq	.L26
 390              		.loc 1 118 0 is_stmt 0 discriminator 1
 391 0060 0023     		movs	r3, #0
 392 0062 06E0     		b	.L23
 393              	.L26:
 119:psoc_eeprom.c **** 
 120:psoc_eeprom.c ****     /* Copy data out. */
ARM GAS  C:\Users\yoons\AppData\Local\Temp\ccrF5rAx.s 			page 10


 121:psoc_eeprom.c ****     read_row_data(row, out, len);
 394              		.loc 1 121 0 is_stmt 1
 395 0064 BA79     		ldrb	r2, [r7, #6]	@ zero_extendqisi2
 396 0066 FB7B     		ldrb	r3, [r7, #15]	@ zero_extendqisi2
 397 0068 3968     		ldr	r1, [r7]
 398 006a 1846     		mov	r0, r3
 399 006c FFF7FEFF 		bl	read_row_data
 122:psoc_eeprom.c ****     return 1u;
 400              		.loc 1 122 0
 401 0070 0123     		movs	r3, #1
 402              	.L23:
 123:psoc_eeprom.c **** }
 403              		.loc 1 123 0
 404 0072 1846     		mov	r0, r3
 405 0074 1037     		adds	r7, r7, #16
 406              		.cfi_def_cfa_offset 8
 407 0076 BD46     		mov	sp, r7
 408              		.cfi_def_cfa_register 13
 409              		@ sp needed
 410 0078 80BD     		pop	{r7, pc}
 411              		.cfi_endproc
 412              	.LFE68:
 413              		.size	psoc_eeprom_read, .-psoc_eeprom_read
 414 007a 00BF     		.section	.text.psoc_eeprom_erase_slot,"ax",%progbits
 415              		.align	2
 416              		.global	psoc_eeprom_erase_slot
 417              		.thumb
 418              		.thumb_func
 419              		.type	psoc_eeprom_erase_slot, %function
 420              	psoc_eeprom_erase_slot:
 421              	.LFB69:
 124:psoc_eeprom.c **** 
 125:psoc_eeprom.c **** /* ============================================================
 126:psoc_eeprom.c ****  * psoc_eeprom_erase_slot
 127:psoc_eeprom.c ****  * Overwrites the slot's row with zeros, invalidating the magic.
 128:psoc_eeprom.c ****  * ============================================================ */
 129:psoc_eeprom.c **** void psoc_eeprom_erase_slot(uint8 slot_id)
 130:psoc_eeprom.c **** {
 422              		.loc 1 130 0
 423              		.cfi_startproc
 424              		@ args = 0, pretend = 0, frame = 32
 425              		@ frame_needed = 1, uses_anonymous_args = 0
 426 0000 80B5     		push	{r7, lr}
 427              		.cfi_def_cfa_offset 8
 428              		.cfi_offset 7, -8
 429              		.cfi_offset 14, -4
 430 0002 88B0     		sub	sp, sp, #32
 431              		.cfi_def_cfa_offset 40
 432 0004 00AF     		add	r7, sp, #0
 433              		.cfi_def_cfa_register 7
 434 0006 0346     		mov	r3, r0
 435 0008 FB71     		strb	r3, [r7, #7]
 131:psoc_eeprom.c ****     uint8 row = slot_id_to_row(slot_id);
 436              		.loc 1 131 0
 437 000a FB79     		ldrb	r3, [r7, #7]	@ zero_extendqisi2
 438 000c 1846     		mov	r0, r3
 439 000e FFF7FEFF 		bl	slot_id_to_row
ARM GAS  C:\Users\yoons\AppData\Local\Temp\ccrF5rAx.s 			page 11


 440 0012 0346     		mov	r3, r0
 441 0014 FB77     		strb	r3, [r7, #31]
 132:psoc_eeprom.c ****     if (row == 0xFFu) return;
 442              		.loc 1 132 0
 443 0016 FB7F     		ldrb	r3, [r7, #31]	@ zero_extendqisi2
 444 0018 FF2B     		cmp	r3, #255
 445 001a 10D0     		beq	.L30
 133:psoc_eeprom.c **** 
 134:psoc_eeprom.c ****     uint8 zeros[PSOC_EEPROM_ROW_SIZE];
 135:psoc_eeprom.c ****     memset(zeros, 0, sizeof(zeros));
 446              		.loc 1 135 0
 447 001c 07F10C03 		add	r3, r7, #12
 448 0020 1022     		movs	r2, #16
 449 0022 0021     		movs	r1, #0
 450 0024 1846     		mov	r0, r3
 451 0026 FFF7FEFF 		bl	memset
 136:psoc_eeprom.c ****     EEPROM_CONFIG_UpdateTemperature();
 452              		.loc 1 136 0
 453 002a FFF7FEFF 		bl	EEPROM_CONFIG_UpdateTemperature
 137:psoc_eeprom.c ****     (void)EEPROM_CONFIG_Write(zeros, row);
 454              		.loc 1 137 0
 455 002e FA7F     		ldrb	r2, [r7, #31]	@ zero_extendqisi2
 456 0030 07F10C03 		add	r3, r7, #12
 457 0034 1146     		mov	r1, r2
 458 0036 1846     		mov	r0, r3
 459 0038 FFF7FEFF 		bl	EEPROM_CONFIG_Write
 460 003c 00E0     		b	.L27
 461              	.L30:
 132:psoc_eeprom.c **** 
 462              		.loc 1 132 0
 463 003e 00BF     		nop
 464              	.L27:
 138:psoc_eeprom.c **** }
 465              		.loc 1 138 0
 466 0040 2037     		adds	r7, r7, #32
 467              		.cfi_def_cfa_offset 8
 468 0042 BD46     		mov	sp, r7
 469              		.cfi_def_cfa_register 13
 470              		@ sp needed
 471 0044 80BD     		pop	{r7, pc}
 472              		.cfi_endproc
 473              	.LFE69:
 474              		.size	psoc_eeprom_erase_slot, .-psoc_eeprom_erase_slot
 475 0046 00BF     		.section	.text.psoc_eeprom_erase_all,"ax",%progbits
 476              		.align	2
 477              		.global	psoc_eeprom_erase_all
 478              		.thumb
 479              		.thumb_func
 480              		.type	psoc_eeprom_erase_all, %function
 481              	psoc_eeprom_erase_all:
 482              	.LFB70:
 139:psoc_eeprom.c **** 
 140:psoc_eeprom.c **** /* ============================================================
 141:psoc_eeprom.c ****  * psoc_eeprom_erase_all
 142:psoc_eeprom.c ****  * Erases all known slots.
 143:psoc_eeprom.c ****  * ============================================================ */
 144:psoc_eeprom.c **** void psoc_eeprom_erase_all(void)
ARM GAS  C:\Users\yoons\AppData\Local\Temp\ccrF5rAx.s 			page 12


 145:psoc_eeprom.c **** {
 483              		.loc 1 145 0
 484              		.cfi_startproc
 485              		@ args = 0, pretend = 0, frame = 0
 486              		@ frame_needed = 1, uses_anonymous_args = 0
 487 0000 80B5     		push	{r7, lr}
 488              		.cfi_def_cfa_offset 8
 489              		.cfi_offset 7, -8
 490              		.cfi_offset 14, -4
 491 0002 00AF     		add	r7, sp, #0
 492              		.cfi_def_cfa_register 7
 146:psoc_eeprom.c ****     psoc_eeprom_erase_slot(PSOC_EEPROM_SLOT_JOY_CAL);
 493              		.loc 1 146 0
 494 0004 0120     		movs	r0, #1
 495 0006 FFF7FEFF 		bl	psoc_eeprom_erase_slot
 147:psoc_eeprom.c ****     psoc_eeprom_erase_slot(PSOC_EEPROM_SLOT_JOY_SENSE);
 496              		.loc 1 147 0
 497 000a 0220     		movs	r0, #2
 498 000c FFF7FEFF 		bl	psoc_eeprom_erase_slot
 148:psoc_eeprom.c ****     /* Add erase calls here for new slots. */
 149:psoc_eeprom.c **** }
 499              		.loc 1 149 0
 500 0010 00BF     		nop
 501 0012 80BD     		pop	{r7, pc}
 502              		.cfi_endproc
 503              	.LFE70:
 504              		.size	psoc_eeprom_erase_all, .-psoc_eeprom_erase_all
 505              		.text
 506              	.Letext0:
 507              		.file 2 "c:\\program files (x86)\\cypress\\psoc creator\\4.4\\psoc creator\\import\\gnu\\arm\\5.4.
 508              		.file 3 "c:\\program files (x86)\\cypress\\psoc creator\\4.4\\psoc creator\\import\\gnu\\arm\\5.4.
 509              		.file 4 "Generated_Source\\PSoC5/cytypes.h"
 510              		.file 5 "Generated_Source\\PSoC5/core_cm3.h"