ARM GAS  C:\Users\yoons\AppData\Local\Temp\ccPh1RWf.s 			page 1


   1              		.syntax unified
   2              		.cpu cortex-m3
   3              		.fpu softvfp
   4              		.eabi_attribute 20, 1
   5              		.eabi_attribute 21, 1
   6              		.eabi_attribute 23, 3
   7              		.eabi_attribute 24, 1
   8              		.eabi_attribute 25, 1
   9              		.eabi_attribute 26, 1
  10              		.eabi_attribute 30, 6
  11              		.eabi_attribute 34, 1
  12              		.eabi_attribute 18, 4
  13              		.thumb
  14              		.syntax unified
  15              		.file	"sbc_comms.c"
  16              		.text
  17              	.Ltext0:
  18              		.cfi_sections	.debug_frame
  19              		.section	.rodata
  20              		.align	2
  21              		.type	crc8_table, %object
  22              		.size	crc8_table, 256
  23              	crc8_table:
  24 0000 00       		.byte	0
  25 0001 07       		.byte	7
  26 0002 0E       		.byte	14
  27 0003 09       		.byte	9
  28 0004 1C       		.byte	28
  29 0005 1B       		.byte	27
  30 0006 12       		.byte	18
  31 0007 15       		.byte	21
  32 0008 38       		.byte	56
  33 0009 3F       		.byte	63
  34 000a 36       		.byte	54
  35 000b 31       		.byte	49
  36 000c 24       		.byte	36
  37 000d 23       		.byte	35
  38 000e 2A       		.byte	42
  39 000f 2D       		.byte	45
  40 0010 70       		.byte	112
  41 0011 77       		.byte	119
  42 0012 7E       		.byte	126
  43 0013 79       		.byte	121
  44 0014 6C       		.byte	108
  45 0015 6B       		.byte	107
  46 0016 62       		.byte	98
  47 0017 65       		.byte	101
  48 0018 48       		.byte	72
  49 0019 4F       		.byte	79
  50 001a 46       		.byte	70
  51 001b 41       		.byte	65
  52 001c 54       		.byte	84
  53 001d 53       		.byte	83
  54 001e 5A       		.byte	90
  55 001f 5D       		.byte	93
  56 0020 E0       		.byte	-32
  57 0021 E7       		.byte	-25
ARM GAS  C:\Users\yoons\AppData\Local\Temp\ccPh1RWf.s 			page 2


  58 0022 EE       		.byte	-18
  59 0023 E9       		.byte	-23
  60 0024 FC       		.byte	-4
  61 0025 FB       		.byte	-5
  62 0026 F2       		.byte	-14
  63 0027 F5       		.byte	-11
  64 0028 D8       		.byte	-40
  65 0029 DF       		.byte	-33
  66 002a D6       		.byte	-42
  67 002b D1       		.byte	-47
  68 002c C4       		.byte	-60
  69 002d C3       		.byte	-61
  70 002e CA       		.byte	-54
  71 002f CD       		.byte	-51
  72 0030 90       		.byte	-112
  73 0031 97       		.byte	-105
  74 0032 9E       		.byte	-98
  75 0033 99       		.byte	-103
  76 0034 8C       		.byte	-116
  77 0035 8B       		.byte	-117
  78 0036 82       		.byte	-126
  79 0037 85       		.byte	-123
  80 0038 A8       		.byte	-88
  81 0039 AF       		.byte	-81
  82 003a A6       		.byte	-90
  83 003b A1       		.byte	-95
  84 003c B4       		.byte	-76
  85 003d B3       		.byte	-77
  86 003e BA       		.byte	-70
  87 003f BD       		.byte	-67
  88 0040 C7       		.byte	-57
  89 0041 C0       		.byte	-64
  90 0042 C9       		.byte	-55
  91 0043 CE       		.byte	-50
  92 0044 DB       		.byte	-37
  93 0045 DC       		.byte	-36
  94 0046 D5       		.byte	-43
  95 0047 D2       		.byte	-46
  96 0048 FF       		.byte	-1
  97 0049 F8       		.byte	-8
  98 004a F1       		.byte	-15
  99 004b F6       		.byte	-10
 100 004c E3       		.byte	-29
 101 004d E4       		.byte	-28
 102 004e ED       		.byte	-19
 103 004f EA       		.byte	-22
 104 0050 B7       		.byte	-73
 105 0051 B0       		.byte	-80
 106 0052 B9       		.byte	-71
 107 0053 BE       		.byte	-66
 108 0054 AB       		.byte	-85
 109 0055 AC       		.byte	-84
 110 0056 A5       		.byte	-91
 111 0057 A2       		.byte	-94
 112 0058 8F       		.byte	-113
 113 0059 88       		.byte	-120
 114 005a 81       		.byte	-127
ARM GAS  C:\Users\yoons\AppData\Local\Temp\ccPh1RWf.s 			page 3


 115 005b 86       		.byte	-122
 116 005c 93       		.byte	-109
 117 005d 94       		.byte	-108
 118 005e 9D       		.byte	-99
 119 005f 9A       		.byte	-102
 120 0060 27       		.byte	39
 121 0061 20       		.byte	32
 122 0062 29       		.byte	41
 123 0063 2E       		.byte	46
 124 0064 3B       		.byte	59
 125 0065 3C       		.byte	60
 126 0066 35       		.byte	53
 127 0067 32       		.byte	50
 128 0068 1F       		.byte	31
 129 0069 18       		.byte	24
 130 006a 11       		.byte	17
 131 006b 16       		.byte	22
 132 006c 03       		.byte	3
 133 006d 04       		.byte	4
 134 006e 0D       		.byte	13
 135 006f 0A       		.byte	10
 136 0070 57       		.byte	87
 137 0071 50       		.byte	80
 138 0072 59       		.byte	89
 139 0073 5E       		.byte	94
 140 0074 4B       		.byte	75
 141 0075 4C       		.byte	76
 142 0076 45       		.byte	69
 143 0077 42       		.byte	66
 144 0078 6F       		.byte	111
 145 0079 68       		.byte	104
 146 007a 61       		.byte	97
 147 007b 66       		.byte	102
 148 007c 73       		.byte	115
 149 007d 74       		.byte	116
 150 007e 7D       		.byte	125
 151 007f 7A       		.byte	122
 152 0080 89       		.byte	-119
 153 0081 8E       		.byte	-114
 154 0082 87       		.byte	-121
 155 0083 80       		.byte	-128
 156 0084 95       		.byte	-107
 157 0085 92       		.byte	-110
 158 0086 9B       		.byte	-101
 159 0087 9C       		.byte	-100
 160 0088 B1       		.byte	-79
 161 0089 B6       		.byte	-74
 162 008a BF       		.byte	-65
 163 008b B8       		.byte	-72
 164 008c AD       		.byte	-83
 165 008d AA       		.byte	-86
 166 008e A3       		.byte	-93
 167 008f A4       		.byte	-92
 168 0090 F9       		.byte	-7
 169 0091 FE       		.byte	-2
 170 0092 F7       		.byte	-9
 171 0093 F0       		.byte	-16
ARM GAS  C:\Users\yoons\AppData\Local\Temp\ccPh1RWf.s 			page 4


 172 0094 E5       		.byte	-27
 173 0095 E2       		.byte	-30
 174 0096 EB       		.byte	-21
 175 0097 EC       		.byte	-20
 176 0098 C1       		.byte	-63
 177 0099 C6       		.byte	-58
 178 009a CF       		.byte	-49
 179 009b C8       		.byte	-56
 180 009c DD       		.byte	-35
 181 009d DA       		.byte	-38
 182 009e D3       		.byte	-45
 183 009f D4       		.byte	-44
 184 00a0 69       		.byte	105
 185 00a1 6E       		.byte	110
 186 00a2 67       		.byte	103
 187 00a3 60       		.byte	96
 188 00a4 75       		.byte	117
 189 00a5 72       		.byte	114
 190 00a6 7B       		.byte	123
 191 00a7 7C       		.byte	124
 192 00a8 51       		.byte	81
 193 00a9 56       		.byte	86
 194 00aa 5F       		.byte	95
 195 00ab 58       		.byte	88
 196 00ac 4D       		.byte	77
 197 00ad 4A       		.byte	74
 198 00ae 43       		.byte	67
 199 00af 44       		.byte	68
 200 00b0 19       		.byte	25
 201 00b1 1E       		.byte	30
 202 00b2 17       		.byte	23
 203 00b3 10       		.byte	16
 204 00b4 05       		.byte	5
 205 00b5 02       		.byte	2
 206 00b6 0B       		.byte	11
 207 00b7 0C       		.byte	12
 208 00b8 21       		.byte	33
 209 00b9 26       		.byte	38
 210 00ba 2F       		.byte	47
 211 00bb 28       		.byte	40
 212 00bc 3D       		.byte	61
 213 00bd 3A       		.byte	58
 214 00be 33       		.byte	51
 215 00bf 34       		.byte	52
 216 00c0 4E       		.byte	78
 217 00c1 49       		.byte	73
 218 00c2 40       		.byte	64
 219 00c3 47       		.byte	71
 220 00c4 52       		.byte	82
 221 00c5 55       		.byte	85
 222 00c6 5C       		.byte	92
 223 00c7 5B       		.byte	91
 224 00c8 76       		.byte	118
 225 00c9 71       		.byte	113
 226 00ca 78       		.byte	120
 227 00cb 7F       		.byte	127
 228 00cc 6A       		.byte	106
ARM GAS  C:\Users\yoons\AppData\Local\Temp\ccPh1RWf.s 			page 5


 229 00cd 6D       		.byte	109
 230 00ce 64       		.byte	100
 231 00cf 63       		.byte	99
 232 00d0 3E       		.byte	62
 233 00d1 39       		.byte	57
 234 00d2 30       		.byte	48
 235 00d3 37       		.byte	55
 236 00d4 22       		.byte	34
 237 00d5 25       		.byte	37
 238 00d6 2C       		.byte	44
 239 00d7 2B       		.byte	43
 240 00d8 06       		.byte	6
 241 00d9 01       		.byte	1
 242 00da 08       		.byte	8
 243 00db 0F       		.byte	15
 244 00dc 1A       		.byte	26
 245 00dd 1D       		.byte	29
 246 00de 14       		.byte	20
 247 00df 13       		.byte	19
 248 00e0 AE       		.byte	-82
 249 00e1 A9       		.byte	-87
 250 00e2 A0       		.byte	-96
 251 00e3 A7       		.byte	-89
 252 00e4 B2       		.byte	-78
 253 00e5 B5       		.byte	-75
 254 00e6 BC       		.byte	-68
 255 00e7 BB       		.byte	-69
 256 00e8 96       		.byte	-106
 257 00e9 91       		.byte	-111
 258 00ea 98       		.byte	-104
 259 00eb 9F       		.byte	-97
 260 00ec 8A       		.byte	-118
 261 00ed 8D       		.byte	-115
 262 00ee 84       		.byte	-124
 263 00ef 83       		.byte	-125
 264 00f0 DE       		.byte	-34
 265 00f1 D9       		.byte	-39
 266 00f2 D0       		.byte	-48
 267 00f3 D7       		.byte	-41
 268 00f4 C2       		.byte	-62
 269 00f5 C5       		.byte	-59
 270 00f6 CC       		.byte	-52
 271 00f7 CB       		.byte	-53
 272 00f8 E6       		.byte	-26
 273 00f9 E1       		.byte	-31
 274 00fa E8       		.byte	-24
 275 00fb EF       		.byte	-17
 276 00fc FA       		.byte	-6
 277 00fd FD       		.byte	-3
 278 00fe F4       		.byte	-12
 279 00ff F3       		.byte	-13
 280              		.bss
 281              	sbc_rx_state:
 282 0000 00       		.space	1
 283              	s_type:
 284 0001 00       		.space	1
 285              	s_len:
ARM GAS  C:\Users\yoons\AppData\Local\Temp\ccPh1RWf.s 			page 6


 286 0002 00       		.space	1
 287              	s_idx:
 288 0003 00       		.space	1
 289              		.align	2
 290              	s_buf:
 291 0004 00000000 		.space	64
 291      00000000 
 291      00000000 
 291      00000000 
 291      00000000 
 292              		.align	2
 293              	s_centroid:
 294 0044 00000000 		.space	24
 294      00000000 
 294      00000000 
 294      00000000 
 294      00000000 
 295              	s_fresh_bits:
 296 005c 00       		.space	1
 297 005d 000000   		.align	2
 298              	s_last_rx_ms:
 299 0060 00000000 		.space	8
 299      00000000 
 300              		.align	2
 301              	s_last_centroid_dt_ms:
 302 0068 00000000 		.space	4
 303              		.align	1
 304              	s_crc_err:
 305 006c 0000     		.space	2
 306              		.align	1
 307              	s_uart_err:
 308 006e 0000     		.space	2
 309              		.align	1
 310              	s_unknown_magic:
 311 0070 0000     		.space	2
 312 0072 0000     		.align	2
 313              	s_rx_pkt_count:
 314 0074 00000000 		.space	4
 315              		.align	2
 316              	s_state_req:
 317 0078 00       		.space	1
 318              	s_state_req_fresh:
 319 0079 00       		.space	1
 320 007a 0000     		.align	2
 321              	s_gps_target:
 322 007c 00000000 		.space	12
 322      00000000 
 322      00000000 
 323              	s_gps_target_fresh:
 324 0088 00       		.space	1
 325 0089 000000   		.align	2
 326              	s_nudge:
 327 008c 00000000 		.space	4
 328              	s_nudge_fresh:
 329 0090 00       		.space	1
 330 0091 000000   		.align	2
 331              	s_param:
ARM GAS  C:\Users\yoons\AppData\Local\Temp\ccPh1RWf.s 			page 7


 332 0094 00000000 		.space	8
 332      00000000 
 333              	s_param_fresh:
 334 009c 00       		.space	1
 335              	s_set_origin_fresh:
 336 009d 00       		.space	1
 337 009e 0000     		.align	2
 338              	s_param_get:
 339 00a0 00       		.space	1
 340              	s_param_get_fresh:
 341 00a1 00       		.space	1
 342              	s_fatal_clear_fresh:
 343 00a2 00       		.space	1
 344              		.section	.text.sbc_init,"ax",%progbits
 345              		.align	2
 346              		.global	sbc_init
 347              		.thumb
 348              		.thumb_func
 349              		.type	sbc_init, %function
 350              	sbc_init:
 351              	.LFB63:
 352              		.file 1 "sbc_comms.c"
   1:sbc_comms.c   **** /* ========================================
   2:sbc_comms.c   ****  *
   3:sbc_comms.c   ****  * Copyright Hamish Johnson, 2026
   4:sbc_comms.c   ****  * All Rights Reserved
   5:sbc_comms.c   ****  * UNPUBLISHED, LICENSED SOFTWARE.
   6:sbc_comms.c   ****  *
   7:sbc_comms.c   ****  * CONFIDENTIAL AND PROPRIETARY INFORMATION
   8:sbc_comms.c   ****  * WHICH IS THE PROPERTY OF 
   9:sbc_comms.c   ****  * Quantum Internet Systems Lab (QISL),
  10:sbc_comms.c   ****  * Department of Physics, SFU, Canada.
  11:sbc_comms.c   ****  *
  12:sbc_comms.c   ****  * Author: Hamish Johnson (2026)
  13:sbc_comms.c   ****  *
  14:sbc_comms.c   ****  * ========================================
  15:sbc_comms.c   ****  *
  16:sbc_comms.c   ****  * This code is for inter-device communications with a Raspberry Pi over UART.
  17:sbc_comms.c   **** */
  18:sbc_comms.c   **** 
  19:sbc_comms.c   **** #include "sbc_comms.h"
  20:sbc_comms.c   **** #include "debug_pins.h"
  21:sbc_comms.c   **** #include <string.h>
  22:sbc_comms.c   **** #include <project.h>
  23:sbc_comms.c   **** 
  24:sbc_comms.c   **** extern volatile uint32_t g_tick_ms;  // PSoC ms timer
  25:sbc_comms.c   **** 
  26:sbc_comms.c   **** // Copied for Pi software codebase
  27:sbc_comms.c   **** // We use a Cyclic Redundancy Check (CRC).
  28:sbc_comms.c   **** // The CRC takes the whole message as one binary number, divides it by 0x07
  29:sbc_comms.c   **** // using XOR operations to be left with the remainder. A table is used instead
  30:sbc_comms.c   **** // of computing each of the possible bit-wise division operations.
  31:sbc_comms.c   **** static const uint8_t crc8_table[256] = {
  32:sbc_comms.c   ****     0x00,0x07,0x0E,0x09,0x1C,0x1B,0x12,0x15,
  33:sbc_comms.c   ****     0x38,0x3F,0x36,0x31,0x24,0x23,0x2A,0x2D,
  34:sbc_comms.c   ****     0x70,0x77,0x7E,0x79,0x6C,0x6B,0x62,0x65,
  35:sbc_comms.c   ****     0x48,0x4F,0x46,0x41,0x54,0x53,0x5A,0x5D,
ARM GAS  C:\Users\yoons\AppData\Local\Temp\ccPh1RWf.s 			page 8


  36:sbc_comms.c   ****     0xE0,0xE7,0xEE,0xE9,0xFC,0xFB,0xF2,0xF5,
  37:sbc_comms.c   ****     0xD8,0xDF,0xD6,0xD1,0xC4,0xC3,0xCA,0xCD,
  38:sbc_comms.c   ****     0x90,0x97,0x9E,0x99,0x8C,0x8B,0x82,0x85,
  39:sbc_comms.c   ****     0xA8,0xAF,0xA6,0xA1,0xB4,0xB3,0xBA,0xBD,
  40:sbc_comms.c   ****     0xC7,0xC0,0xC9,0xCE,0xDB,0xDC,0xD5,0xD2,
  41:sbc_comms.c   ****     0xFF,0xF8,0xF1,0xF6,0xE3,0xE4,0xED,0xEA,
  42:sbc_comms.c   ****     0xB7,0xB0,0xB9,0xBE,0xAB,0xAC,0xA5,0xA2,
  43:sbc_comms.c   ****     0x8F,0x88,0x81,0x86,0x93,0x94,0x9D,0x9A,
  44:sbc_comms.c   ****     0x27,0x20,0x29,0x2E,0x3B,0x3C,0x35,0x32,
  45:sbc_comms.c   ****     0x1F,0x18,0x11,0x16,0x03,0x04,0x0D,0x0A,
  46:sbc_comms.c   ****     0x57,0x50,0x59,0x5E,0x4B,0x4C,0x45,0x42,
  47:sbc_comms.c   ****     0x6F,0x68,0x61,0x66,0x73,0x74,0x7D,0x7A,
  48:sbc_comms.c   ****     0x89,0x8E,0x87,0x80,0x95,0x92,0x9B,0x9C,
  49:sbc_comms.c   ****     0xB1,0xB6,0xBF,0xB8,0xAD,0xAA,0xA3,0xA4,
  50:sbc_comms.c   ****     0xF9,0xFE,0xF7,0xF0,0xE5,0xE2,0xEB,0xEC,
  51:sbc_comms.c   ****     0xC1,0xC6,0xCF,0xC8,0xDD,0xDA,0xD3,0xD4,
  52:sbc_comms.c   ****     0x69,0x6E,0x67,0x60,0x75,0x72,0x7B,0x7C,
  53:sbc_comms.c   ****     0x51,0x56,0x5F,0x58,0x4D,0x4A,0x43,0x44,
  54:sbc_comms.c   ****     0x19,0x1E,0x17,0x10,0x05,0x02,0x0B,0x0C,
  55:sbc_comms.c   ****     0x21,0x26,0x2F,0x28,0x3D,0x3A,0x33,0x34,
  56:sbc_comms.c   ****     0x4E,0x49,0x40,0x47,0x52,0x55,0x5C,0x5B,
  57:sbc_comms.c   ****     0x76,0x71,0x78,0x7F,0x6A,0x6D,0x64,0x63,
  58:sbc_comms.c   ****     0x3E,0x39,0x30,0x37,0x22,0x25,0x2C,0x2B,
  59:sbc_comms.c   ****     0x06,0x01,0x08,0x0F,0x1A,0x1D,0x14,0x13,
  60:sbc_comms.c   ****     0xAE,0xA9,0xA0,0xA7,0xB2,0xB5,0xBC,0xBB,
  61:sbc_comms.c   ****     0x96,0x91,0x98,0x9F,0x8A,0x8D,0x84,0x83,
  62:sbc_comms.c   ****     0xDE,0xD9,0xD0,0xD7,0xC2,0xC5,0xCC,0xCB,
  63:sbc_comms.c   ****     0xE6,0xE1,0xE8,0xEF,0xFA,0xFD,0xF4,0xF3,
  64:sbc_comms.c   **** };
  65:sbc_comms.c   **** 
  66:sbc_comms.c   **** #define SBC_CENTROID_LEN  12u   // uint32 t_ms + 2*int16 + 2*uint16
  67:sbc_comms.c   **** #define SBC_RX_MAX        64u
  68:sbc_comms.c   **** 
  69:sbc_comms.c   **** // Packet parser section enum, initialized to magic byte
  70:sbc_comms.c   **** // Expects: [MAGIC] [TYPE] [LEN] ... [PAYLOAD] ... [CRC]
  71:sbc_comms.c   **** static enum { S_MAGIC, S_TYPE, S_LEN, S_PAYLOAD, S_CRC } sbc_rx_state = S_MAGIC;
  72:sbc_comms.c   **** 
  73:sbc_comms.c   **** // Variables that packets are loaded into plus flag for "newer" write.
  74:sbc_comms.c   **** static uint8_t              s_type;  // Type loaded into here
  75:sbc_comms.c   **** static uint8_t              s_len;   // Length loaded into here
  76:sbc_comms.c   **** static uint8_t              s_idx;
  77:sbc_comms.c   **** static uint8_t              s_buf[SBC_RX_MAX];  // Payload parsed into here!
  78:sbc_comms.c   **** // Per centroid stream
  79:sbc_comms.c   **** static payload_centroid_t   s_centroid[STREAM_COUNTS];  // Payload per centroid
  80:sbc_comms.c   **** static volatile uint8_t     s_fresh_bits;  // bit 0 for coarse and bit 1 for fine
  81:sbc_comms.c   **** static uint32_t             s_last_rx_ms[STREAM_COUNTS];
  82:sbc_comms.c   **** static uint16_t             s_last_centroid_dt_ms[STREAM_COUNTS];
  83:sbc_comms.c   **** // Global telemetry for communications.
  84:sbc_comms.c   **** static uint16_t s_crc_err             = 0u;  // inter-device communications.
  85:sbc_comms.c   **** static uint16_t s_uart_err            = 0u;
  86:sbc_comms.c   **** static uint16_t s_unknown_magic       = 0u;
  87:sbc_comms.c   **** static uint32_t s_rx_pkt_count        = 0u;
  88:sbc_comms.c   **** // SBC -> PSoC State Requests
  89:sbc_comms.c   **** static payload_state_req_t  s_state_req;
  90:sbc_comms.c   **** static volatile uint8_t     s_state_req_fresh   = 0u;
  91:sbc_comms.c   **** // SBC -> PSoC GPS Target Sets
  92:sbc_comms.c   **** static payload_gps_target_t s_gps_target;
ARM GAS  C:\Users\yoons\AppData\Local\Temp\ccPh1RWf.s 			page 9


  93:sbc_comms.c   **** static volatile uint8_t     s_gps_target_fresh  = 0u;
  94:sbc_comms.c   **** // SBC -> PSoC Relative Nudge
  95:sbc_comms.c   **** static payload_nudge_t      s_nudge;
  96:sbc_comms.c   **** static volatile uint8_t     s_nudge_fresh       = 0u;
  97:sbc_comms.c   **** // SBC -> PSoC Parameter Set (kp, etc.)
  98:sbc_comms.c   **** static payload_param_t      s_param;
  99:sbc_comms.c   **** static volatile uint8_t     s_param_fresh       = 0u;
 100:sbc_comms.c   **** // SBC -> PSoC Software-origin capture request (zero-length payload)
 101:sbc_comms.c   **** static volatile uint8_t     s_set_origin_fresh  = 0u;
 102:sbc_comms.c   **** // TODO: Document the below three.
 103:sbc_comms.c   **** static payload_param_get_t s_param_get;
 104:sbc_comms.c   **** static volatile uint8_t s_param_get_fresh       = 0u;
 105:sbc_comms.c   **** static volatile uint8_t s_fatal_clear_fresh     = 0u;
 106:sbc_comms.c   **** 
 107:sbc_comms.c   **** void sbc_init(void)
 108:sbc_comms.c   **** {
 353              		.loc 1 108 0
 354              		.cfi_startproc
 355              		@ args = 0, pretend = 0, frame = 8
 356              		@ frame_needed = 1, uses_anonymous_args = 0
 357              		@ link register save eliminated.
 358 0000 80B4     		push	{r7}
 359              		.cfi_def_cfa_offset 4
 360              		.cfi_offset 7, -4
 361 0002 83B0     		sub	sp, sp, #12
 362              		.cfi_def_cfa_offset 16
 363 0004 00AF     		add	r7, sp, #0
 364              		.cfi_def_cfa_register 7
 109:sbc_comms.c   ****     // Initialize parameters for SBC communications.
 110:sbc_comms.c   ****     sbc_rx_state    = S_MAGIC;
 365              		.loc 1 110 0
 366 0006 214B     		ldr	r3, .L4
 367 0008 0022     		movs	r2, #0
 368 000a 1A70     		strb	r2, [r3]
 111:sbc_comms.c   ****     s_idx          = 0u;
 369              		.loc 1 111 0
 370 000c 204B     		ldr	r3, .L4+4
 371 000e 0022     		movs	r2, #0
 372 0010 1A70     		strb	r2, [r3]
 112:sbc_comms.c   ****     s_fresh_bits   = 0u;
 373              		.loc 1 112 0
 374 0012 204B     		ldr	r3, .L4+8
 375 0014 0022     		movs	r2, #0
 376 0016 1A70     		strb	r2, [r3]
 113:sbc_comms.c   ****     s_crc_err      = 0u;
 377              		.loc 1 113 0
 378 0018 1F4B     		ldr	r3, .L4+12
 379 001a 0022     		movs	r2, #0
 380 001c 1A80     		strh	r2, [r3]	@ movhi
 114:sbc_comms.c   ****     s_uart_err     = 0u;
 381              		.loc 1 114 0
 382 001e 1F4B     		ldr	r3, .L4+16
 383 0020 0022     		movs	r2, #0
 384 0022 1A80     		strh	r2, [r3]	@ movhi
 115:sbc_comms.c   ****     s_unknown_magic = 0u;
 385              		.loc 1 115 0
 386 0024 1E4B     		ldr	r3, .L4+20
ARM GAS  C:\Users\yoons\AppData\Local\Temp\ccPh1RWf.s 			page 10


 387 0026 0022     		movs	r2, #0
 388 0028 1A80     		strh	r2, [r3]	@ movhi
 116:sbc_comms.c   ****     s_rx_pkt_count = 0u;
 389              		.loc 1 116 0
 390 002a 1E4B     		ldr	r3, .L4+24
 391 002c 0022     		movs	r2, #0
 392 002e 1A60     		str	r2, [r3]
 393              	.LBB2:
 117:sbc_comms.c   ****     // Init each of the N centroid streams
 118:sbc_comms.c   ****     for (uint8_t i = 0u; i < STREAM_COUNTS; i++) {
 394              		.loc 1 118 0
 395 0030 0023     		movs	r3, #0
 396 0032 FB71     		strb	r3, [r7, #7]
 397 0034 0CE0     		b	.L2
 398              	.L3:
 119:sbc_comms.c   ****         s_last_rx_ms[i]          = 0u;
 399              		.loc 1 119 0 discriminator 3
 400 0036 FB79     		ldrb	r3, [r7, #7]	@ zero_extendqisi2
 401 0038 1B4A     		ldr	r2, .L4+28
 402 003a 0021     		movs	r1, #0
 403 003c 42F82310 		str	r1, [r2, r3, lsl #2]
 120:sbc_comms.c   ****         s_last_centroid_dt_ms[i] = 0u;
 404              		.loc 1 120 0 discriminator 3
 405 0040 FB79     		ldrb	r3, [r7, #7]	@ zero_extendqisi2
 406 0042 1A4A     		ldr	r2, .L4+32
 407 0044 0021     		movs	r1, #0
 408 0046 22F81310 		strh	r1, [r2, r3, lsl #1]	@ movhi
 118:sbc_comms.c   ****         s_last_rx_ms[i]          = 0u;
 409              		.loc 1 118 0 discriminator 3
 410 004a FB79     		ldrb	r3, [r7, #7]	@ zero_extendqisi2
 411 004c 0133     		adds	r3, r3, #1
 412 004e FB71     		strb	r3, [r7, #7]
 413              	.L2:
 118:sbc_comms.c   ****         s_last_rx_ms[i]          = 0u;
 414              		.loc 1 118 0 is_stmt 0 discriminator 1
 415 0050 FB79     		ldrb	r3, [r7, #7]	@ zero_extendqisi2
 416 0052 012B     		cmp	r3, #1
 417 0054 EFD9     		bls	.L3
 418              	.LBE2:
 121:sbc_comms.c   ****     }
 122:sbc_comms.c   ****     // Init SBC Setters and getters
 123:sbc_comms.c   ****     s_state_req_fresh  = 0u;
 419              		.loc 1 123 0 is_stmt 1
 420 0056 164B     		ldr	r3, .L4+36
 421 0058 0022     		movs	r2, #0
 422 005a 1A70     		strb	r2, [r3]
 124:sbc_comms.c   ****     s_gps_target_fresh = 0u;
 423              		.loc 1 124 0
 424 005c 154B     		ldr	r3, .L4+40
 425 005e 0022     		movs	r2, #0
 426 0060 1A70     		strb	r2, [r3]
 125:sbc_comms.c   ****     s_nudge_fresh      = 0u;
 427              		.loc 1 125 0
 428 0062 154B     		ldr	r3, .L4+44
 429 0064 0022     		movs	r2, #0
 430 0066 1A70     		strb	r2, [r3]
 126:sbc_comms.c   ****     s_param_fresh      = 0u;
ARM GAS  C:\Users\yoons\AppData\Local\Temp\ccPh1RWf.s 			page 11


 431              		.loc 1 126 0
 432 0068 144B     		ldr	r3, .L4+48
 433 006a 0022     		movs	r2, #0
 434 006c 1A70     		strb	r2, [r3]
 127:sbc_comms.c   ****     s_set_origin_fresh = 0u;
 435              		.loc 1 127 0
 436 006e 144B     		ldr	r3, .L4+52
 437 0070 0022     		movs	r2, #0
 438 0072 1A70     		strb	r2, [r3]
 128:sbc_comms.c   ****     s_param_get_fresh   = 0u;
 439              		.loc 1 128 0
 440 0074 134B     		ldr	r3, .L4+56
 441 0076 0022     		movs	r2, #0
 442 0078 1A70     		strb	r2, [r3]
 129:sbc_comms.c   ****     s_fatal_clear_fresh = 0u;
 443              		.loc 1 129 0
 444 007a 134B     		ldr	r3, .L4+60
 445 007c 0022     		movs	r2, #0
 446 007e 1A70     		strb	r2, [r3]
 130:sbc_comms.c   **** }
 447              		.loc 1 130 0
 448 0080 00BF     		nop
 449 0082 0C37     		adds	r7, r7, #12
 450              		.cfi_def_cfa_offset 4
 451 0084 BD46     		mov	sp, r7
 452              		.cfi_def_cfa_register 13
 453              		@ sp needed
 454 0086 80BC     		pop	{r7}
 455              		.cfi_restore 7
 456              		.cfi_def_cfa_offset 0
 457 0088 7047     		bx	lr
 458              	.L5:
 459 008a 00BF     		.align	2
 460              	.L4:
 461 008c 00000000 		.word	sbc_rx_state
 462 0090 03000000 		.word	s_idx
 463 0094 5C000000 		.word	s_fresh_bits
 464 0098 6C000000 		.word	s_crc_err
 465 009c 6E000000 		.word	s_uart_err
 466 00a0 70000000 		.word	s_unknown_magic
 467 00a4 74000000 		.word	s_rx_pkt_count
 468 00a8 60000000 		.word	s_last_rx_ms
 469 00ac 68000000 		.word	s_last_centroid_dt_ms
 470 00b0 79000000 		.word	s_state_req_fresh
 471 00b4 88000000 		.word	s_gps_target_fresh
 472 00b8 90000000 		.word	s_nudge_fresh
 473 00bc 9C000000 		.word	s_param_fresh
 474 00c0 9D000000 		.word	s_set_origin_fresh
 475 00c4 A1000000 		.word	s_param_get_fresh
 476 00c8 A2000000 		.word	s_fatal_clear_fresh
 477              		.cfi_endproc
 478              	.LFE63:
 479              		.size	sbc_init, .-sbc_init
 480              		.section	.text.decode_centroid,"ax",%progbits
 481              		.align	2
 482              		.thumb
 483              		.thumb_func
ARM GAS  C:\Users\yoons\AppData\Local\Temp\ccPh1RWf.s 			page 12


 484              		.type	decode_centroid, %function
 485              	decode_centroid:
 486              	.LFB64:
 131:sbc_comms.c   **** 
 132:sbc_comms.c   **** static void decode_centroid(uint8_t stream, const uint8_t *p)
 133:sbc_comms.c   **** {
 487              		.loc 1 133 0
 488              		.cfi_startproc
 489              		@ args = 0, pretend = 0, frame = 16
 490              		@ frame_needed = 1, uses_anonymous_args = 0
 491 0000 80B5     		push	{r7, lr}
 492              		.cfi_def_cfa_offset 8
 493              		.cfi_offset 7, -8
 494              		.cfi_offset 14, -4
 495 0002 84B0     		sub	sp, sp, #16
 496              		.cfi_def_cfa_offset 24
 497 0004 00AF     		add	r7, sp, #0
 498              		.cfi_def_cfa_register 7
 499 0006 0346     		mov	r3, r0
 500 0008 3960     		str	r1, [r7]
 501 000a FB71     		strb	r3, [r7, #7]
 134:sbc_comms.c   ****     // Store time since last centroid arrived.
 135:sbc_comms.c   ****     uint32_t now = g_tick_ms;
 502              		.loc 1 135 0
 503 000c 3C4B     		ldr	r3, .L10
 504 000e 1B68     		ldr	r3, [r3]
 505 0010 FB60     		str	r3, [r7, #12]
 136:sbc_comms.c   ****     if (s_last_rx_ms[stream] != 0u) {
 506              		.loc 1 136 0
 507 0012 FB79     		ldrb	r3, [r7, #7]	@ zero_extendqisi2
 508 0014 3B4A     		ldr	r2, .L10+4
 509 0016 52F82330 		ldr	r3, [r2, r3, lsl #2]
 510 001a 002B     		cmp	r3, #0
 511 001c 13D0     		beq	.L7
 512              	.LBB3:
 137:sbc_comms.c   ****         uint32_t dt = now - s_last_rx_ms[stream];
 513              		.loc 1 137 0
 514 001e FB79     		ldrb	r3, [r7, #7]	@ zero_extendqisi2
 515 0020 384A     		ldr	r2, .L10+4
 516 0022 52F82330 		ldr	r3, [r2, r3, lsl #2]
 517 0026 FA68     		ldr	r2, [r7, #12]
 518 0028 D31A     		subs	r3, r2, r3
 519 002a BB60     		str	r3, [r7, #8]
 138:sbc_comms.c   ****         s_last_centroid_dt_ms[stream] = (dt > 0xFFFFu)  // Clamp to uint16
 520              		.loc 1 138 0
 521 002c FB79     		ldrb	r3, [r7, #7]	@ zero_extendqisi2
 522 002e BA68     		ldr	r2, [r7, #8]
 523 0030 B2F5803F 		cmp	r2, #65536
 524 0034 02D2     		bcs	.L8
 525              		.loc 1 138 0 is_stmt 0 discriminator 1
 526 0036 BA68     		ldr	r2, [r7, #8]
 527 0038 92B2     		uxth	r2, r2
 528 003a 01E0     		b	.L9
 529              	.L8:
 530              		.loc 1 138 0 discriminator 2
 531 003c 4FF6FF72 		movw	r2, #65535
 532              	.L9:
ARM GAS  C:\Users\yoons\AppData\Local\Temp\ccPh1RWf.s 			page 13


 533              		.loc 1 138 0 discriminator 4
 534 0040 3149     		ldr	r1, .L10+8
 535 0042 21F81320 		strh	r2, [r1, r3, lsl #1]	@ movhi
 536              	.L7:
 537              	.LBE3:
 139:sbc_comms.c   ****                                       ? 0xFFFFu         // Max to 65 seconds
 140:sbc_comms.c   ****                                       : (uint16_t)dt;   // Cast down
 141:sbc_comms.c   ****     }
 142:sbc_comms.c   ****     // COpy into array of centroid structs
 143:sbc_comms.c   ****     memcpy(&s_centroid[stream].t_ms,  p +  0, 4);
 538              		.loc 1 143 0 is_stmt 1
 539 0046 FA79     		ldrb	r2, [r7, #7]	@ zero_extendqisi2
 540 0048 1346     		mov	r3, r2
 541 004a 5B00     		lsls	r3, r3, #1
 542 004c 1344     		add	r3, r3, r2
 543 004e 9B00     		lsls	r3, r3, #2
 544 0050 2E4A     		ldr	r2, .L10+12
 545 0052 1344     		add	r3, r3, r2
 546 0054 0422     		movs	r2, #4
 547 0056 3968     		ldr	r1, [r7]
 548 0058 1846     		mov	r0, r3
 549 005a FFF7FEFF 		bl	memcpy
 144:sbc_comms.c   ****     memcpy(&s_centroid[stream].cx,    p +  4, 2);
 550              		.loc 1 144 0
 551 005e FA79     		ldrb	r2, [r7, #7]	@ zero_extendqisi2
 552 0060 1346     		mov	r3, r2
 553 0062 5B00     		lsls	r3, r3, #1
 554 0064 1344     		add	r3, r3, r2
 555 0066 9B00     		lsls	r3, r3, #2
 556 0068 284A     		ldr	r2, .L10+12
 557 006a 1344     		add	r3, r3, r2
 558 006c 181D     		adds	r0, r3, #4
 559 006e 3B68     		ldr	r3, [r7]
 560 0070 0433     		adds	r3, r3, #4
 561 0072 0222     		movs	r2, #2
 562 0074 1946     		mov	r1, r3
 563 0076 FFF7FEFF 		bl	memcpy
 145:sbc_comms.c   ****     memcpy(&s_centroid[stream].cy,    p +  6, 2);
 564              		.loc 1 145 0
 565 007a FA79     		ldrb	r2, [r7, #7]	@ zero_extendqisi2
 566 007c 1346     		mov	r3, r2
 567 007e 5B00     		lsls	r3, r3, #1
 568 0080 1344     		add	r3, r3, r2
 569 0082 9B00     		lsls	r3, r3, #2
 570 0084 214A     		ldr	r2, .L10+12
 571 0086 1344     		add	r3, r3, r2
 572 0088 981D     		adds	r0, r3, #6
 573 008a 3B68     		ldr	r3, [r7]
 574 008c 0633     		adds	r3, r3, #6
 575 008e 0222     		movs	r2, #2
 576 0090 1946     		mov	r1, r3
 577 0092 FFF7FEFF 		bl	memcpy
 146:sbc_comms.c   ****     memcpy(&s_centroid[stream].cxerr, p +  8, 2);
 578              		.loc 1 146 0
 579 0096 FA79     		ldrb	r2, [r7, #7]	@ zero_extendqisi2
 580 0098 1346     		mov	r3, r2
 581 009a 5B00     		lsls	r3, r3, #1
ARM GAS  C:\Users\yoons\AppData\Local\Temp\ccPh1RWf.s 			page 14


 582 009c 1344     		add	r3, r3, r2
 583 009e 9B00     		lsls	r3, r3, #2
 584 00a0 0833     		adds	r3, r3, #8
 585 00a2 1A4A     		ldr	r2, .L10+12
 586 00a4 9818     		adds	r0, r3, r2
 587 00a6 3B68     		ldr	r3, [r7]
 588 00a8 0833     		adds	r3, r3, #8
 589 00aa 0222     		movs	r2, #2
 590 00ac 1946     		mov	r1, r3
 591 00ae FFF7FEFF 		bl	memcpy
 147:sbc_comms.c   ****     memcpy(&s_centroid[stream].cyerr, p + 10, 2);
 592              		.loc 1 147 0
 593 00b2 FA79     		ldrb	r2, [r7, #7]	@ zero_extendqisi2
 594 00b4 1346     		mov	r3, r2
 595 00b6 5B00     		lsls	r3, r3, #1
 596 00b8 1344     		add	r3, r3, r2
 597 00ba 9B00     		lsls	r3, r3, #2
 598 00bc 0833     		adds	r3, r3, #8
 599 00be 134A     		ldr	r2, .L10+12
 600 00c0 1344     		add	r3, r3, r2
 601 00c2 981C     		adds	r0, r3, #2
 602 00c4 3B68     		ldr	r3, [r7]
 603 00c6 0A33     		adds	r3, r3, #10
 604 00c8 0222     		movs	r2, #2
 605 00ca 1946     		mov	r1, r3
 606 00cc FFF7FEFF 		bl	memcpy
 148:sbc_comms.c   ****     // Pip freshness into the streams byte
 149:sbc_comms.c   ****     s_fresh_bits |= (uint8_t)(1u << stream);
 607              		.loc 1 149 0
 608 00d0 FB79     		ldrb	r3, [r7, #7]	@ zero_extendqisi2
 609 00d2 0122     		movs	r2, #1
 610 00d4 02FA03F3 		lsl	r3, r2, r3
 611 00d8 5AB2     		sxtb	r2, r3
 612 00da 0D4B     		ldr	r3, .L10+16
 613 00dc 1B78     		ldrb	r3, [r3]
 614 00de DBB2     		uxtb	r3, r3
 615 00e0 5BB2     		sxtb	r3, r3
 616 00e2 1343     		orrs	r3, r3, r2
 617 00e4 5BB2     		sxtb	r3, r3
 618 00e6 DAB2     		uxtb	r2, r3
 619 00e8 094B     		ldr	r3, .L10+16
 620 00ea 1A70     		strb	r2, [r3]
 150:sbc_comms.c   ****     s_last_rx_ms[stream] = now;  // Update last heard from
 621              		.loc 1 150 0
 622 00ec FB79     		ldrb	r3, [r7, #7]	@ zero_extendqisi2
 623 00ee 0549     		ldr	r1, .L10+4
 624 00f0 FA68     		ldr	r2, [r7, #12]
 625 00f2 41F82320 		str	r2, [r1, r3, lsl #2]
 151:sbc_comms.c   **** }
 626              		.loc 1 151 0
 627 00f6 00BF     		nop
 628 00f8 1037     		adds	r7, r7, #16
 629              		.cfi_def_cfa_offset 8
 630 00fa BD46     		mov	sp, r7
 631              		.cfi_def_cfa_register 13
 632              		@ sp needed
 633 00fc 80BD     		pop	{r7, pc}
ARM GAS  C:\Users\yoons\AppData\Local\Temp\ccPh1RWf.s 			page 15


 634              	.L11:
 635 00fe 00BF     		.align	2
 636              	.L10:
 637 0100 00000000 		.word	g_tick_ms
 638 0104 60000000 		.word	s_last_rx_ms
 639 0108 68000000 		.word	s_last_centroid_dt_ms
 640 010c 44000000 		.word	s_centroid
 641 0110 5C000000 		.word	s_fresh_bits
 642              		.cfi_endproc
 643              	.LFE64:
 644              		.size	decode_centroid, .-decode_centroid
 645              		.section	.text.sbc_on_rx_byte,"ax",%progbits
 646              		.align	2
 647              		.global	sbc_on_rx_byte
 648              		.thumb
 649              		.thumb_func
 650              		.type	sbc_on_rx_byte, %function
 651              	sbc_on_rx_byte:
 652              	.LFB65:
 152:sbc_comms.c   **** 
 153:sbc_comms.c   **** // Incoming byte parser!
 154:sbc_comms.c   **** // Parses each part of the packet structure,
 155:sbc_comms.c   **** // then calls the apropriate decoder!
 156:sbc_comms.c   **** void sbc_on_rx_byte(uint8_t b)
 157:sbc_comms.c   **** {
 653              		.loc 1 157 0
 654              		.cfi_startproc
 655              		@ args = 0, pretend = 0, frame = 16
 656              		@ frame_needed = 1, uses_anonymous_args = 0
 657 0000 80B5     		push	{r7, lr}
 658              		.cfi_def_cfa_offset 8
 659              		.cfi_offset 7, -8
 660              		.cfi_offset 14, -4
 661 0002 84B0     		sub	sp, sp, #16
 662              		.cfi_def_cfa_offset 24
 663 0004 00AF     		add	r7, sp, #0
 664              		.cfi_def_cfa_register 7
 665 0006 0346     		mov	r3, r0
 666 0008 FB71     		strb	r3, [r7, #7]
 158:sbc_comms.c   ****     // Parse incoming bytes according to expected packet structure.
 159:sbc_comms.c   ****     switch (sbc_rx_state) {
 667              		.loc 1 159 0
 668 000a A94B     		ldr	r3, .L63
 669 000c 1B78     		ldrb	r3, [r3]	@ zero_extendqisi2
 670 000e 042B     		cmp	r3, #4
 671 0010 00F24981 		bhi	.L51
 672 0014 01A2     		adr	r2, .L15
 673 0016 52F823F0 		ldr	pc, [r2, r3, lsl #2]
 674 001a 00BF     		.p2align 2
 675              	.L15:
 676 001c 31000000 		.word	.L14+1
 677 0020 4D000000 		.word	.L16+1
 678 0024 5B000000 		.word	.L17+1
 679 0028 8F000000 		.word	.L18+1
 680 002c B9000000 		.word	.L19+1
 681              		.p2align 1
 682              	.L14:
ARM GAS  C:\Users\yoons\AppData\Local\Temp\ccPh1RWf.s 			page 16


 160:sbc_comms.c   ****         case S_MAGIC:
 161:sbc_comms.c   ****             if (b == SBC_MAGIC){
 683              		.loc 1 161 0
 684 0030 FB79     		ldrb	r3, [r7, #7]	@ zero_extendqisi2
 685 0032 AB2B     		cmp	r3, #171
 686 0034 03D1     		bne	.L20
 162:sbc_comms.c   ****                 sbc_rx_state = S_TYPE;  // Move to type parsing
 687              		.loc 1 162 0
 688 0036 9E4B     		ldr	r3, .L63
 689 0038 0122     		movs	r2, #1
 690 003a 1A70     		strb	r2, [r3]
 163:sbc_comms.c   ****             } else {
 164:sbc_comms.c   ****                 s_unknown_magic++;  // Measure of noise
 165:sbc_comms.c   ****             }
 166:sbc_comms.c   ****             break;
 691              		.loc 1 166 0
 692 003c 33E1     		b	.L13
 693              	.L20:
 164:sbc_comms.c   ****             }
 694              		.loc 1 164 0
 695 003e 9D4B     		ldr	r3, .L63+4
 696 0040 1B88     		ldrh	r3, [r3]
 697 0042 0133     		adds	r3, r3, #1
 698 0044 9AB2     		uxth	r2, r3
 699 0046 9B4B     		ldr	r3, .L63+4
 700 0048 1A80     		strh	r2, [r3]	@ movhi
 701              		.loc 1 166 0
 702 004a 2CE1     		b	.L13
 703              	.L16:
 167:sbc_comms.c   ****         case S_TYPE:
 168:sbc_comms.c   ****             s_type = b;  // Save bye as type
 704              		.loc 1 168 0
 705 004c 9A4A     		ldr	r2, .L63+8
 706 004e FB79     		ldrb	r3, [r7, #7]
 707 0050 1370     		strb	r3, [r2]
 169:sbc_comms.c   ****             sbc_rx_state = S_LEN;  // Move to length parsing
 708              		.loc 1 169 0
 709 0052 974B     		ldr	r3, .L63
 710 0054 0222     		movs	r2, #2
 711 0056 1A70     		strb	r2, [r3]
 170:sbc_comms.c   ****             break;
 712              		.loc 1 170 0
 713 0058 25E1     		b	.L13
 714              	.L17:
 171:sbc_comms.c   ****         case S_LEN:
 172:sbc_comms.c   ****             s_len = b;
 715              		.loc 1 172 0
 716 005a 984A     		ldr	r2, .L63+12
 717 005c FB79     		ldrb	r3, [r7, #7]
 718 005e 1370     		strb	r3, [r2]
 173:sbc_comms.c   ****             if (s_len > SBC_RX_MAX) {
 719              		.loc 1 173 0
 720 0060 964B     		ldr	r3, .L63+12
 721 0062 1B78     		ldrb	r3, [r3]	@ zero_extendqisi2
 722 0064 402B     		cmp	r3, #64
 723 0066 03D9     		bls	.L22
 174:sbc_comms.c   ****                 sbc_rx_state = S_MAGIC;  // Bad len -> resync
ARM GAS  C:\Users\yoons\AppData\Local\Temp\ccPh1RWf.s 			page 17


 724              		.loc 1 174 0
 725 0068 914B     		ldr	r3, .L63
 726 006a 0022     		movs	r2, #0
 727 006c 1A70     		strb	r2, [r3]
 175:sbc_comms.c   ****             } else if (s_len == 0u) {
 176:sbc_comms.c   ****                 sbc_rx_state = S_CRC;    // 0-byte payload legal
 177:sbc_comms.c   ****             } else {
 178:sbc_comms.c   ****                 s_idx = 0u;               // Reset to start of payload
 179:sbc_comms.c   ****                 sbc_rx_state = S_PAYLOAD;  // Move to payload parsing
 180:sbc_comms.c   ****             }
 181:sbc_comms.c   ****             break;
 728              		.loc 1 181 0
 729 006e 1AE1     		b	.L13
 730              	.L22:
 175:sbc_comms.c   ****             } else if (s_len == 0u) {
 731              		.loc 1 175 0
 732 0070 924B     		ldr	r3, .L63+12
 733 0072 1B78     		ldrb	r3, [r3]	@ zero_extendqisi2
 734 0074 002B     		cmp	r3, #0
 735 0076 03D1     		bne	.L24
 176:sbc_comms.c   ****             } else {
 736              		.loc 1 176 0
 737 0078 8D4B     		ldr	r3, .L63
 738 007a 0422     		movs	r2, #4
 739 007c 1A70     		strb	r2, [r3]
 740              		.loc 1 181 0
 741 007e 12E1     		b	.L13
 742              	.L24:
 178:sbc_comms.c   ****                 sbc_rx_state = S_PAYLOAD;  // Move to payload parsing
 743              		.loc 1 178 0
 744 0080 8F4B     		ldr	r3, .L63+16
 745 0082 0022     		movs	r2, #0
 746 0084 1A70     		strb	r2, [r3]
 179:sbc_comms.c   ****             }
 747              		.loc 1 179 0
 748 0086 8A4B     		ldr	r3, .L63
 749 0088 0322     		movs	r2, #3
 750 008a 1A70     		strb	r2, [r3]
 751              		.loc 1 181 0
 752 008c 0BE1     		b	.L13
 753              	.L18:
 182:sbc_comms.c   ****         case S_PAYLOAD:
 183:sbc_comms.c   ****             s_buf[s_idx++] = b;  // Load bytes into buffer
 754              		.loc 1 183 0
 755 008e 8C4B     		ldr	r3, .L63+16
 756 0090 1B78     		ldrb	r3, [r3]	@ zero_extendqisi2
 757 0092 5A1C     		adds	r2, r3, #1
 758 0094 D1B2     		uxtb	r1, r2
 759 0096 8A4A     		ldr	r2, .L63+16
 760 0098 1170     		strb	r1, [r2]
 761 009a 1946     		mov	r1, r3
 762 009c 894A     		ldr	r2, .L63+20
 763 009e FB79     		ldrb	r3, [r7, #7]
 764 00a0 5354     		strb	r3, [r2, r1]
 184:sbc_comms.c   ****             if (s_idx >= s_len){
 765              		.loc 1 184 0
 766 00a2 874B     		ldr	r3, .L63+16
ARM GAS  C:\Users\yoons\AppData\Local\Temp\ccPh1RWf.s 			page 18


 767 00a4 1A78     		ldrb	r2, [r3]	@ zero_extendqisi2
 768 00a6 854B     		ldr	r3, .L63+12
 769 00a8 1B78     		ldrb	r3, [r3]	@ zero_extendqisi2
 770 00aa 9A42     		cmp	r2, r3
 771 00ac C0F0FA80 		bcc	.L52
 185:sbc_comms.c   ****                 sbc_rx_state = S_CRC;  // Move to CRC when reached tot length
 772              		.loc 1 185 0
 773 00b0 7F4B     		ldr	r3, .L63
 774 00b2 0422     		movs	r2, #4
 775 00b4 1A70     		strb	r2, [r3]
 186:sbc_comms.c   ****             }
 187:sbc_comms.c   ****             break;
 776              		.loc 1 187 0
 777 00b6 F5E0     		b	.L52
 778              	.L19:
 779              	.LBB4:
 188:sbc_comms.c   ****         case S_CRC: {
 189:sbc_comms.c   ****             // CRC over TYPE + LEN + PAYLOAD
 190:sbc_comms.c   ****             // byte-wise XOR then CRC lookup.
 191:sbc_comms.c   ****             uint8_t calc = crc8_table[s_type];  // On type
 780              		.loc 1 191 0
 781 00b8 7F4B     		ldr	r3, .L63+8
 782 00ba 1B78     		ldrb	r3, [r3]	@ zero_extendqisi2
 783 00bc 1A46     		mov	r2, r3
 784 00be 824B     		ldr	r3, .L63+24
 785 00c0 9B5C     		ldrb	r3, [r3, r2]
 786 00c2 FB73     		strb	r3, [r7, #15]
 192:sbc_comms.c   ****             calc = crc8_table[calc ^ s_len];    // On length
 787              		.loc 1 192 0
 788 00c4 7D4B     		ldr	r3, .L63+12
 789 00c6 1A78     		ldrb	r2, [r3]	@ zero_extendqisi2
 790 00c8 FB7B     		ldrb	r3, [r7, #15]
 791 00ca 5340     		eors	r3, r3, r2
 792 00cc DBB2     		uxtb	r3, r3
 793 00ce 1A46     		mov	r2, r3
 794 00d0 7D4B     		ldr	r3, .L63+24
 795 00d2 9B5C     		ldrb	r3, [r3, r2]
 796 00d4 FB73     		strb	r3, [r7, #15]
 797              	.LBB5:
 193:sbc_comms.c   ****             for (uint8_t i = 0u; i < s_len; i++)// Over payload
 798              		.loc 1 193 0
 799 00d6 0023     		movs	r3, #0
 800 00d8 BB73     		strb	r3, [r7, #14]
 801 00da 0CE0     		b	.L26
 802              	.L27:
 194:sbc_comms.c   ****                 calc = crc8_table[calc ^ s_buf[i]];
 803              		.loc 1 194 0 discriminator 3
 804 00dc BB7B     		ldrb	r3, [r7, #14]	@ zero_extendqisi2
 805 00de 794A     		ldr	r2, .L63+20
 806 00e0 D25C     		ldrb	r2, [r2, r3]	@ zero_extendqisi2
 807 00e2 FB7B     		ldrb	r3, [r7, #15]
 808 00e4 5340     		eors	r3, r3, r2
 809 00e6 DBB2     		uxtb	r3, r3
 810 00e8 1A46     		mov	r2, r3
 811 00ea 774B     		ldr	r3, .L63+24
 812 00ec 9B5C     		ldrb	r3, [r3, r2]
 813 00ee FB73     		strb	r3, [r7, #15]
ARM GAS  C:\Users\yoons\AppData\Local\Temp\ccPh1RWf.s 			page 19


 193:sbc_comms.c   ****             for (uint8_t i = 0u; i < s_len; i++)// Over payload
 814              		.loc 1 193 0 discriminator 3
 815 00f0 BB7B     		ldrb	r3, [r7, #14]	@ zero_extendqisi2
 816 00f2 0133     		adds	r3, r3, #1
 817 00f4 BB73     		strb	r3, [r7, #14]
 818              	.L26:
 193:sbc_comms.c   ****             for (uint8_t i = 0u; i < s_len; i++)// Over payload
 819              		.loc 1 193 0 is_stmt 0 discriminator 1
 820 00f6 714B     		ldr	r3, .L63+12
 821 00f8 1B78     		ldrb	r3, [r3]	@ zero_extendqisi2
 822 00fa BA7B     		ldrb	r2, [r7, #14]	@ zero_extendqisi2
 823 00fc 9A42     		cmp	r2, r3
 824 00fe EDD3     		bcc	.L27
 825              	.LBE5:
 195:sbc_comms.c   **** 
 196:sbc_comms.c   ****             // Verify checksum, if good then decode!
 197:sbc_comms.c   ****             if (calc == b) {
 826              		.loc 1 197 0 is_stmt 1
 827 0100 FA7B     		ldrb	r2, [r7, #15]	@ zero_extendqisi2
 828 0102 FB79     		ldrb	r3, [r7, #7]	@ zero_extendqisi2
 829 0104 9A42     		cmp	r2, r3
 830 0106 40F0AF80 		bne	.L28
 198:sbc_comms.c   ****                 s_rx_pkt_count++;
 831              		.loc 1 198 0
 832 010a 704B     		ldr	r3, .L63+28
 833 010c 1B68     		ldr	r3, [r3]
 834 010e 0133     		adds	r3, r3, #1
 835 0110 6E4A     		ldr	r2, .L63+28
 836 0112 1360     		str	r3, [r2]
 199:sbc_comms.c   ****                 // Process payload bytes according to type.
 200:sbc_comms.c   ****                 // Add as we accumulate more things to Rx.
 201:sbc_comms.c   ****                 switch (s_type) {
 837              		.loc 1 201 0
 838 0114 684B     		ldr	r3, .L63+8
 839 0116 1B78     		ldrb	r3, [r3]	@ zero_extendqisi2
 840 0118 013B     		subs	r3, r3, #1
 841 011a 142B     		cmp	r3, #20
 842 011c 00F2AB80 		bhi	.L53
 843 0120 01A2     		adr	r2, .L31
 844 0122 52F823F0 		ldr	pc, [r2, r3, lsl #2]
 845 0126 00BF     		.p2align 2
 846              	.L31:
 847 0128 7D010000 		.word	.L30+1
 848 012c 8F010000 		.word	.L32+1
 849 0130 77020000 		.word	.L53+1
 850 0134 77020000 		.word	.L53+1
 851 0138 77020000 		.word	.L53+1
 852 013c 77020000 		.word	.L53+1
 853 0140 77020000 		.word	.L53+1
 854 0144 77020000 		.word	.L53+1
 855 0148 77020000 		.word	.L53+1
 856 014c 77020000 		.word	.L53+1
 857 0150 77020000 		.word	.L53+1
 858 0154 77020000 		.word	.L53+1
 859 0158 77020000 		.word	.L53+1
 860 015c 77020000 		.word	.L53+1
 861 0160 B9010000 		.word	.L33+1
ARM GAS  C:\Users\yoons\AppData\Local\Temp\ccPh1RWf.s 			page 20


 862 0164 A1010000 		.word	.L34+1
 863 0168 E9010000 		.word	.L35+1
 864 016c 0D020000 		.word	.L36+1
 865 0170 31020000 		.word	.L37+1
 866 0174 41020000 		.word	.L38+1
 867 0178 59020000 		.word	.L39+1
 868              		.p2align 1
 869              	.L30:
 202:sbc_comms.c   ****                     case PKT_CENTROID_C:
 203:sbc_comms.c   ****                         if (s_len == SBC_CENTROID_LEN){
 870              		.loc 1 203 0
 871 017c 4F4B     		ldr	r3, .L63+12
 872 017e 1B78     		ldrb	r3, [r3]	@ zero_extendqisi2
 873 0180 0C2B     		cmp	r3, #12
 874 0182 7AD1     		bne	.L54
 204:sbc_comms.c   ****                             decode_centroid(STREAM_COARSE, s_buf);
 875              		.loc 1 204 0
 876 0184 4F49     		ldr	r1, .L63+20
 877 0186 0020     		movs	r0, #0
 878 0188 FFF7FEFF 		bl	decode_centroid
 205:sbc_comms.c   ****                         }
 206:sbc_comms.c   ****                         break;
 879              		.loc 1 206 0
 880 018c 75E0     		b	.L54
 881              	.L32:
 207:sbc_comms.c   ****                     case PKT_CENTROID_F:
 208:sbc_comms.c   ****                         if (s_len == SBC_CENTROID_LEN){
 882              		.loc 1 208 0
 883 018e 4B4B     		ldr	r3, .L63+12
 884 0190 1B78     		ldrb	r3, [r3]	@ zero_extendqisi2
 885 0192 0C2B     		cmp	r3, #12
 886 0194 73D1     		bne	.L55
 209:sbc_comms.c   ****                             decode_centroid(STREAM_FINE,   s_buf);
 887              		.loc 1 209 0
 888 0196 4B49     		ldr	r1, .L63+20
 889 0198 0120     		movs	r0, #1
 890 019a FFF7FEFF 		bl	decode_centroid
 210:sbc_comms.c   ****                         }
 211:sbc_comms.c   ****                         break;
 891              		.loc 1 211 0
 892 019e 6EE0     		b	.L55
 893              	.L34:
 212:sbc_comms.c   ****                     case PKT_STATE_REQ:
 213:sbc_comms.c   ****                         if (s_len == SBC_STATE_REQ_LEN) {
 894              		.loc 1 213 0
 895 01a0 464B     		ldr	r3, .L63+12
 896 01a2 1B78     		ldrb	r3, [r3]	@ zero_extendqisi2
 897 01a4 012B     		cmp	r3, #1
 898 01a6 6CD1     		bne	.L56
 214:sbc_comms.c   ****                             s_state_req.requested_state = s_buf[0];
 899              		.loc 1 214 0
 900 01a8 464B     		ldr	r3, .L63+20
 901 01aa 1A78     		ldrb	r2, [r3]	@ zero_extendqisi2
 902 01ac 484B     		ldr	r3, .L63+32
 903 01ae 1A70     		strb	r2, [r3]
 215:sbc_comms.c   ****                             s_state_req_fresh = 1u;
 904              		.loc 1 215 0
ARM GAS  C:\Users\yoons\AppData\Local\Temp\ccPh1RWf.s 			page 21


 905 01b0 484B     		ldr	r3, .L63+36
 906 01b2 0122     		movs	r2, #1
 907 01b4 1A70     		strb	r2, [r3]
 216:sbc_comms.c   ****                         }
 217:sbc_comms.c   ****                         break;
 908              		.loc 1 217 0
 909 01b6 64E0     		b	.L56
 910              	.L33:
 218:sbc_comms.c   ****                     case PKT_GPS_TARGET:
 219:sbc_comms.c   ****                         if (s_len == SBC_GPS_TARGET_LEN) {
 911              		.loc 1 219 0
 912 01b8 404B     		ldr	r3, .L63+12
 913 01ba 1B78     		ldrb	r3, [r3]	@ zero_extendqisi2
 914 01bc 0C2B     		cmp	r3, #12
 915 01be 62D1     		bne	.L57
 220:sbc_comms.c   ****                             memcpy(&s_gps_target.lat_raw, s_buf + 0, 4);
 916              		.loc 1 220 0
 917 01c0 404B     		ldr	r3, .L63+20
 918 01c2 1B68     		ldr	r3, [r3]
 919 01c4 444A     		ldr	r2, .L63+40
 920 01c6 1360     		str	r3, [r2]
 221:sbc_comms.c   ****                             memcpy(&s_gps_target.lon_raw, s_buf + 4, 4);
 921              		.loc 1 221 0
 922 01c8 444B     		ldr	r3, .L63+44
 923 01ca 0422     		movs	r2, #4
 924 01cc 1946     		mov	r1, r3
 925 01ce 4448     		ldr	r0, .L63+48
 926 01d0 FFF7FEFF 		bl	memcpy
 222:sbc_comms.c   ****                             memcpy(&s_gps_target.alt_mm,  s_buf + 8, 4);
 927              		.loc 1 222 0
 928 01d4 434B     		ldr	r3, .L63+52
 929 01d6 0422     		movs	r2, #4
 930 01d8 1946     		mov	r1, r3
 931 01da 4348     		ldr	r0, .L63+56
 932 01dc FFF7FEFF 		bl	memcpy
 223:sbc_comms.c   ****                             s_gps_target_fresh = 1u;
 933              		.loc 1 223 0
 934 01e0 424B     		ldr	r3, .L63+60
 935 01e2 0122     		movs	r2, #1
 936 01e4 1A70     		strb	r2, [r3]
 224:sbc_comms.c   ****                         }
 225:sbc_comms.c   ****                         break;
 937              		.loc 1 225 0
 938 01e6 4EE0     		b	.L57
 939              	.L35:
 226:sbc_comms.c   ****                     case PKT_NUDGE:
 227:sbc_comms.c   ****                         if (s_len == SBC_NUDGE_LEN) {
 940              		.loc 1 227 0
 941 01e8 344B     		ldr	r3, .L63+12
 942 01ea 1B78     		ldrb	r3, [r3]	@ zero_extendqisi2
 943 01ec 042B     		cmp	r3, #4
 944 01ee 4CD1     		bne	.L58
 228:sbc_comms.c   ****                             memcpy(&s_nudge.dpan_cdeg,  s_buf + 0, 2);
 945              		.loc 1 228 0
 946 01f0 344B     		ldr	r3, .L63+20
 947 01f2 1A88     		ldrh	r2, [r3]
 948 01f4 3E4B     		ldr	r3, .L63+64
ARM GAS  C:\Users\yoons\AppData\Local\Temp\ccPh1RWf.s 			page 22


 949 01f6 1A80     		strh	r2, [r3]	@ movhi
 229:sbc_comms.c   ****                             memcpy(&s_nudge.dtilt_cdeg, s_buf + 2, 2);
 950              		.loc 1 229 0
 951 01f8 3E4B     		ldr	r3, .L63+68
 952 01fa 0222     		movs	r2, #2
 953 01fc 1946     		mov	r1, r3
 954 01fe 3E48     		ldr	r0, .L63+72
 955 0200 FFF7FEFF 		bl	memcpy
 230:sbc_comms.c   ****                             s_nudge_fresh = 1u;
 956              		.loc 1 230 0
 957 0204 3D4B     		ldr	r3, .L63+76
 958 0206 0122     		movs	r2, #1
 959 0208 1A70     		strb	r2, [r3]
 231:sbc_comms.c   ****                         }
 232:sbc_comms.c   ****                         break;
 960              		.loc 1 232 0
 961 020a 3EE0     		b	.L58
 962              	.L36:
 233:sbc_comms.c   ****                     case PKT_PARAM_SET:
 234:sbc_comms.c   ****                         if (s_len == SBC_PARAM_LEN) {
 963              		.loc 1 234 0
 964 020c 2B4B     		ldr	r3, .L63+12
 965 020e 1B78     		ldrb	r3, [r3]	@ zero_extendqisi2
 966 0210 052B     		cmp	r3, #5
 967 0212 3CD1     		bne	.L59
 235:sbc_comms.c   ****                             s_param.id = s_buf[0];
 968              		.loc 1 235 0
 969 0214 2B4B     		ldr	r3, .L63+20
 970 0216 1A78     		ldrb	r2, [r3]	@ zero_extendqisi2
 971 0218 394B     		ldr	r3, .L63+80
 972 021a 1A70     		strb	r2, [r3]
 236:sbc_comms.c   ****                             memcpy(&s_param.value, s_buf + 1, 4);
 973              		.loc 1 236 0
 974 021c 394B     		ldr	r3, .L63+84
 975 021e 0422     		movs	r2, #4
 976 0220 1946     		mov	r1, r3
 977 0222 3948     		ldr	r0, .L63+88
 978 0224 FFF7FEFF 		bl	memcpy
 237:sbc_comms.c   ****                             s_param_fresh = 1u;
 979              		.loc 1 237 0
 980 0228 384B     		ldr	r3, .L63+92
 981 022a 0122     		movs	r2, #1
 982 022c 1A70     		strb	r2, [r3]
 238:sbc_comms.c   ****                         }
 239:sbc_comms.c   ****                         break;
 983              		.loc 1 239 0
 984 022e 2EE0     		b	.L59
 985              	.L37:
 240:sbc_comms.c   ****                     case PKT_SET_ORIGIN:
 241:sbc_comms.c   ****                         if (s_len == SBC_SET_ORIGIN_LEN) {
 986              		.loc 1 241 0
 987 0230 224B     		ldr	r3, .L63+12
 988 0232 1B78     		ldrb	r3, [r3]	@ zero_extendqisi2
 989 0234 002B     		cmp	r3, #0
 990 0236 2CD1     		bne	.L60
 242:sbc_comms.c   ****                             s_set_origin_fresh = 1u;
 991              		.loc 1 242 0
ARM GAS  C:\Users\yoons\AppData\Local\Temp\ccPh1RWf.s 			page 23


 992 0238 354B     		ldr	r3, .L63+96
 993 023a 0122     		movs	r2, #1
 994 023c 1A70     		strb	r2, [r3]
 243:sbc_comms.c   ****                         }
 244:sbc_comms.c   ****                         break;
 995              		.loc 1 244 0
 996 023e 28E0     		b	.L60
 997              	.L38:
 245:sbc_comms.c   ****                     case PKT_PARAM_GET:
 246:sbc_comms.c   ****                         if (s_len == SBC_PARAM_GET_LEN) {
 998              		.loc 1 246 0
 999 0240 1E4B     		ldr	r3, .L63+12
 1000 0242 1B78     		ldrb	r3, [r3]	@ zero_extendqisi2
 1001 0244 012B     		cmp	r3, #1
 1002 0246 26D1     		bne	.L61
 247:sbc_comms.c   ****                             s_param_get.id = s_buf[0];
 1003              		.loc 1 247 0
 1004 0248 1E4B     		ldr	r3, .L63+20
 1005 024a 1A78     		ldrb	r2, [r3]	@ zero_extendqisi2
 1006 024c 314B     		ldr	r3, .L63+100
 1007 024e 1A70     		strb	r2, [r3]
 248:sbc_comms.c   ****                             s_param_get_fresh = 1u;
 1008              		.loc 1 248 0
 1009 0250 314B     		ldr	r3, .L63+104
 1010 0252 0122     		movs	r2, #1
 1011 0254 1A70     		strb	r2, [r3]
 249:sbc_comms.c   ****                         }
 250:sbc_comms.c   ****                         break;
 1012              		.loc 1 250 0
 1013 0256 1EE0     		b	.L61
 1014              	.L39:
 251:sbc_comms.c   ****                     case PKT_FATAL_CLEAR:
 252:sbc_comms.c   ****                         if (s_len == SBC_FATAL_CLEAR_LEN) {
 1015              		.loc 1 252 0
 1016 0258 184B     		ldr	r3, .L63+12
 1017 025a 1B78     		ldrb	r3, [r3]	@ zero_extendqisi2
 1018 025c 002B     		cmp	r3, #0
 1019 025e 1CD1     		bne	.L62
 253:sbc_comms.c   ****                             s_fatal_clear_fresh = 1u;
 1020              		.loc 1 253 0
 1021 0260 2E4B     		ldr	r3, .L63+108
 1022 0262 0122     		movs	r2, #1
 1023 0264 1A70     		strb	r2, [r3]
 254:sbc_comms.c   ****                         }
 255:sbc_comms.c   ****                         break;
 1024              		.loc 1 255 0
 1025 0266 18E0     		b	.L62
 1026              	.L28:
 256:sbc_comms.c   ****                     default:
 257:sbc_comms.c   ****                         break;
 258:sbc_comms.c   ****                 }
 259:sbc_comms.c   ****             } else {
 260:sbc_comms.c   ****                 s_crc_err++;
 1027              		.loc 1 260 0
 1028 0268 2D4B     		ldr	r3, .L63+112
 1029 026a 1B88     		ldrh	r3, [r3]
 1030 026c 0133     		adds	r3, r3, #1
ARM GAS  C:\Users\yoons\AppData\Local\Temp\ccPh1RWf.s 			page 24


 1031 026e 9AB2     		uxth	r2, r3
 1032 0270 2B4B     		ldr	r3, .L63+112
 1033 0272 1A80     		strh	r2, [r3]	@ movhi
 1034 0274 12E0     		b	.L50
 1035              	.L53:
 257:sbc_comms.c   ****                 }
 1036              		.loc 1 257 0
 1037 0276 00BF     		nop
 1038 0278 10E0     		b	.L50
 1039              	.L54:
 206:sbc_comms.c   ****                     case PKT_CENTROID_F:
 1040              		.loc 1 206 0
 1041 027a 00BF     		nop
 1042 027c 0EE0     		b	.L50
 1043              	.L55:
 211:sbc_comms.c   ****                     case PKT_STATE_REQ:
 1044              		.loc 1 211 0
 1045 027e 00BF     		nop
 1046 0280 0CE0     		b	.L50
 1047              	.L56:
 217:sbc_comms.c   ****                     case PKT_GPS_TARGET:
 1048              		.loc 1 217 0
 1049 0282 00BF     		nop
 1050 0284 0AE0     		b	.L50
 1051              	.L57:
 225:sbc_comms.c   ****                     case PKT_NUDGE:
 1052              		.loc 1 225 0
 1053 0286 00BF     		nop
 1054 0288 08E0     		b	.L50
 1055              	.L58:
 232:sbc_comms.c   ****                     case PKT_PARAM_SET:
 1056              		.loc 1 232 0
 1057 028a 00BF     		nop
 1058 028c 06E0     		b	.L50
 1059              	.L59:
 239:sbc_comms.c   ****                     case PKT_SET_ORIGIN:
 1060              		.loc 1 239 0
 1061 028e 00BF     		nop
 1062 0290 04E0     		b	.L50
 1063              	.L60:
 244:sbc_comms.c   ****                     case PKT_PARAM_GET:
 1064              		.loc 1 244 0
 1065 0292 00BF     		nop
 1066 0294 02E0     		b	.L50
 1067              	.L61:
 250:sbc_comms.c   ****                     case PKT_FATAL_CLEAR:
 1068              		.loc 1 250 0
 1069 0296 00BF     		nop
 1070 0298 00E0     		b	.L50
 1071              	.L62:
 255:sbc_comms.c   ****                     default:
 1072              		.loc 1 255 0
 1073 029a 00BF     		nop
 1074              	.L50:
 261:sbc_comms.c   ****             }
 262:sbc_comms.c   ****             sbc_rx_state = S_MAGIC;
 1075              		.loc 1 262 0
ARM GAS  C:\Users\yoons\AppData\Local\Temp\ccPh1RWf.s 			page 25


 1076 029c 044B     		ldr	r3, .L63
 1077 029e 0022     		movs	r2, #0
 1078 02a0 1A70     		strb	r2, [r3]
 263:sbc_comms.c   ****             break;
 1079              		.loc 1 263 0
 1080 02a2 00E0     		b	.L13
 1081              	.L52:
 1082              	.LBE4:
 187:sbc_comms.c   ****         case S_CRC: {
 1083              		.loc 1 187 0
 1084 02a4 00BF     		nop
 1085              	.L13:
 1086              	.L51:
 264:sbc_comms.c   ****         }
 265:sbc_comms.c   ****     }
 266:sbc_comms.c   **** }
 1087              		.loc 1 266 0
 1088 02a6 00BF     		nop
 1089 02a8 1037     		adds	r7, r7, #16
 1090              		.cfi_def_cfa_offset 8
 1091 02aa BD46     		mov	sp, r7
 1092              		.cfi_def_cfa_register 13
 1093              		@ sp needed
 1094 02ac 80BD     		pop	{r7, pc}
 1095              	.L64:
 1096 02ae 00BF     		.align	2
 1097              	.L63:
 1098 02b0 00000000 		.word	sbc_rx_state
 1099 02b4 70000000 		.word	s_unknown_magic
 1100 02b8 01000000 		.word	s_type
 1101 02bc 02000000 		.word	s_len
 1102 02c0 03000000 		.word	s_idx
 1103 02c4 04000000 		.word	s_buf
 1104 02c8 00000000 		.word	crc8_table
 1105 02cc 74000000 		.word	s_rx_pkt_count
 1106 02d0 78000000 		.word	s_state_req
 1107 02d4 79000000 		.word	s_state_req_fresh
 1108 02d8 7C000000 		.word	s_gps_target
 1109 02dc 08000000 		.word	s_buf+4
 1110 02e0 80000000 		.word	s_gps_target+4
 1111 02e4 0C000000 		.word	s_buf+8
 1112 02e8 84000000 		.word	s_gps_target+8
 1113 02ec 88000000 		.word	s_gps_target_fresh
 1114 02f0 8C000000 		.word	s_nudge
 1115 02f4 06000000 		.word	s_buf+2
 1116 02f8 8E000000 		.word	s_nudge+2
 1117 02fc 90000000 		.word	s_nudge_fresh
 1118 0300 94000000 		.word	s_param
 1119 0304 05000000 		.word	s_buf+1
 1120 0308 98000000 		.word	s_param+4
 1121 030c 9C000000 		.word	s_param_fresh
 1122 0310 9D000000 		.word	s_set_origin_fresh
 1123 0314 A0000000 		.word	s_param_get
 1124 0318 A1000000 		.word	s_param_get_fresh
 1125 031c A2000000 		.word	s_fatal_clear_fresh
 1126 0320 6C000000 		.word	s_crc_err
 1127              		.cfi_endproc
ARM GAS  C:\Users\yoons\AppData\Local\Temp\ccPh1RWf.s 			page 26


 1128              	.LFE65:
 1129              		.size	sbc_on_rx_byte, .-sbc_on_rx_byte
 1130              		.section	.text.sbc_on_uart_err_flags,"ax",%progbits
 1131              		.align	2
 1132              		.global	sbc_on_uart_err_flags
 1133              		.thumb
 1134              		.thumb_func
 1135              		.type	sbc_on_uart_err_flags, %function
 1136              	sbc_on_uart_err_flags:
 1137              	.LFB66:
 267:sbc_comms.c   **** 
 268:sbc_comms.c   **** void sbc_on_uart_err_flags(uint8_t flags)
 269:sbc_comms.c   **** {
 1138              		.loc 1 269 0
 1139              		.cfi_startproc
 1140              		@ args = 0, pretend = 0, frame = 8
 1141              		@ frame_needed = 1, uses_anonymous_args = 0
 1142              		@ link register save eliminated.
 1143 0000 80B4     		push	{r7}
 1144              		.cfi_def_cfa_offset 4
 1145              		.cfi_offset 7, -4
 1146 0002 83B0     		sub	sp, sp, #12
 1147              		.cfi_def_cfa_offset 16
 1148 0004 00AF     		add	r7, sp, #0
 1149              		.cfi_def_cfa_register 7
 1150 0006 0346     		mov	r3, r0
 1151 0008 FB71     		strb	r3, [r7, #7]
 270:sbc_comms.c   ****     // If UART errors, accumulate counter and reset to magic (next frame)
 271:sbc_comms.c   ****     (void)flags;
 272:sbc_comms.c   ****     s_uart_err++;
 1152              		.loc 1 272 0
 1153 000a 074B     		ldr	r3, .L66
 1154 000c 1B88     		ldrh	r3, [r3]
 1155 000e 0133     		adds	r3, r3, #1
 1156 0010 9AB2     		uxth	r2, r3
 1157 0012 054B     		ldr	r3, .L66
 1158 0014 1A80     		strh	r2, [r3]	@ movhi
 273:sbc_comms.c   ****     sbc_rx_state = S_MAGIC;
 1159              		.loc 1 273 0
 1160 0016 054B     		ldr	r3, .L66+4
 1161 0018 0022     		movs	r2, #0
 1162 001a 1A70     		strb	r2, [r3]
 274:sbc_comms.c   **** }
 1163              		.loc 1 274 0
 1164 001c 00BF     		nop
 1165 001e 0C37     		adds	r7, r7, #12
 1166              		.cfi_def_cfa_offset 4
 1167 0020 BD46     		mov	sp, r7
 1168              		.cfi_def_cfa_register 13
 1169              		@ sp needed
 1170 0022 80BC     		pop	{r7}
 1171              		.cfi_restore 7
 1172              		.cfi_def_cfa_offset 0
 1173 0024 7047     		bx	lr
 1174              	.L67:
 1175 0026 00BF     		.align	2
 1176              	.L66:
ARM GAS  C:\Users\yoons\AppData\Local\Temp\ccPh1RWf.s 			page 27


 1177 0028 6E000000 		.word	s_uart_err
 1178 002c 00000000 		.word	sbc_rx_state
 1179              		.cfi_endproc
 1180              	.LFE66:
 1181              		.size	sbc_on_uart_err_flags, .-sbc_on_uart_err_flags
 1182              		.section	.text.sbc_get_centroid,"ax",%progbits
 1183              		.align	2
 1184              		.global	sbc_get_centroid
 1185              		.thumb
 1186              		.thumb_func
 1187              		.type	sbc_get_centroid, %function
 1188              	sbc_get_centroid:
 1189              	.LFB67:
 275:sbc_comms.c   **** 
 276:sbc_comms.c   **** uint8_t sbc_get_centroid(uint8_t stream, payload_centroid_t *out)
 277:sbc_comms.c   **** {
 1190              		.loc 1 277 0
 1191              		.cfi_startproc
 1192              		@ args = 0, pretend = 0, frame = 16
 1193              		@ frame_needed = 1, uses_anonymous_args = 0
 1194 0000 80B5     		push	{r7, lr}
 1195              		.cfi_def_cfa_offset 8
 1196              		.cfi_offset 7, -8
 1197              		.cfi_offset 14, -4
 1198 0002 84B0     		sub	sp, sp, #16
 1199              		.cfi_def_cfa_offset 24
 1200 0004 00AF     		add	r7, sp, #0
 1201              		.cfi_def_cfa_register 7
 1202 0006 0346     		mov	r3, r0
 1203 0008 3960     		str	r1, [r7]
 1204 000a FB71     		strb	r3, [r7, #7]
 278:sbc_comms.c   ****     // Getter function for the rest of our codebase to use
 279:sbc_comms.c   ****     // Runs as atomic so it cannot be interrupted. If it were interrupted we
 280:sbc_comms.c   ****     // could start copying out the centroid, then rx a new centroid, and
 281:sbc_comms.c   ****     // continue reading out from the new centroid data.
 282:sbc_comms.c   ****     // This would corrupt the data, or at least confuse our control loop.
 283:sbc_comms.c   ****     if (stream >= STREAM_COUNTS) return 0u;
 1205              		.loc 1 283 0
 1206 000c FB79     		ldrb	r3, [r7, #7]	@ zero_extendqisi2
 1207 000e 012B     		cmp	r3, #1
 1208 0010 01D9     		bls	.L69
 1209              		.loc 1 283 0 is_stmt 0 discriminator 1
 1210 0012 0023     		movs	r3, #0
 1211 0014 3BE0     		b	.L70
 1212              	.L69:
 284:sbc_comms.c   ****     uint8_t bit = (uint8_t)(1u << stream);
 1213              		.loc 1 284 0 is_stmt 1
 1214 0016 FB79     		ldrb	r3, [r7, #7]	@ zero_extendqisi2
 1215 0018 0122     		movs	r2, #1
 1216 001a 02FA03F3 		lsl	r3, r2, r3
 1217 001e BB73     		strb	r3, [r7, #14]
 285:sbc_comms.c   ****     uint8_t got = 0u;
 1218              		.loc 1 285 0
 1219 0020 0023     		movs	r3, #0
 1220 0022 FB73     		strb	r3, [r7, #15]
 286:sbc_comms.c   ****     uint8_t ist = CyEnterCriticalSection();// Disables interruprs
 1221              		.loc 1 286 0
ARM GAS  C:\Users\yoons\AppData\Local\Temp\ccPh1RWf.s 			page 28


 1222 0024 FFF7FEFF 		bl	CyEnterCriticalSection
 1223 0028 0346     		mov	r3, r0
 1224 002a 7B73     		strb	r3, [r7, #13]
 287:sbc_comms.c   ****     if (s_fresh_bits & bit) {
 1225              		.loc 1 287 0
 1226 002c 1A4B     		ldr	r3, .L72
 1227 002e 1B78     		ldrb	r3, [r3]
 1228 0030 DAB2     		uxtb	r2, r3
 1229 0032 BB7B     		ldrb	r3, [r7, #14]
 1230 0034 1340     		ands	r3, r3, r2
 1231 0036 DBB2     		uxtb	r3, r3
 1232 0038 002B     		cmp	r3, #0
 1233 003a 23D0     		beq	.L71
 288:sbc_comms.c   ****         *out = s_centroid[stream];  // Copy out the centroid
 1234              		.loc 1 288 0
 1235 003c FA79     		ldrb	r2, [r7, #7]	@ zero_extendqisi2
 1236 003e 3868     		ldr	r0, [r7]
 1237 0040 1649     		ldr	r1, .L72+4
 1238 0042 1346     		mov	r3, r2
 1239 0044 5B00     		lsls	r3, r3, #1
 1240 0046 1344     		add	r3, r3, r2
 1241 0048 9B00     		lsls	r3, r3, #2
 1242 004a CA18     		adds	r2, r1, r3
 1243 004c 0346     		mov	r3, r0
 1244 004e 07CA     		ldmia	r2, {r0, r1, r2}
 1245 0050 83E80700 		stmia	r3, {r0, r1, r2}
 289:sbc_comms.c   ****         s_fresh_bits &= (uint8_t)~bit;  // Set stale (already grabbed)
 1246              		.loc 1 289 0
 1247 0054 BB7B     		ldrb	r3, [r7, #14]
 1248 0056 DB43     		mvns	r3, r3
 1249 0058 DAB2     		uxtb	r2, r3
 1250 005a 0F4B     		ldr	r3, .L72
 1251 005c 1B78     		ldrb	r3, [r3]
 1252 005e DBB2     		uxtb	r3, r3
 1253 0060 1340     		ands	r3, r3, r2
 1254 0062 DAB2     		uxtb	r2, r3
 1255 0064 0C4B     		ldr	r3, .L72
 1256 0066 1A70     		strb	r2, [r3]
 290:sbc_comms.c   ****         got = 1u;  // Say we got em.
 1257              		.loc 1 290 0
 1258 0068 0123     		movs	r3, #1
 1259 006a FB73     		strb	r3, [r7, #15]
 291:sbc_comms.c   ****         if (stream == STREAM_COARSE) DPIN_CENTROID();
 1260              		.loc 1 291 0
 1261 006c FB79     		ldrb	r3, [r7, #7]	@ zero_extendqisi2
 1262 006e 002B     		cmp	r3, #0
 1263 0070 08D1     		bne	.L71
 1264              		.loc 1 291 0 is_stmt 0 discriminator 1
 1265 0072 FFF7FEFF 		bl	Pin_Debug_CoarseCentroid_Read
 1266 0076 0346     		mov	r3, r0
 1267 0078 83F00103 		eor	r3, r3, #1
 1268 007c DBB2     		uxtb	r3, r3
 1269 007e 1846     		mov	r0, r3
 1270 0080 FFF7FEFF 		bl	Pin_Debug_CoarseCentroid_Write
 1271              	.L71:
 292:sbc_comms.c   ****     }
 293:sbc_comms.c   ****     CyExitCriticalSection(ist);  // Re-enables interruprs;
ARM GAS  C:\Users\yoons\AppData\Local\Temp\ccPh1RWf.s 			page 29


 1272              		.loc 1 293 0 is_stmt 1
 1273 0084 7B7B     		ldrb	r3, [r7, #13]	@ zero_extendqisi2
 1274 0086 1846     		mov	r0, r3
 1275 0088 FFF7FEFF 		bl	CyExitCriticalSection
 294:sbc_comms.c   ****     // Toggle relevant debug pin
 295:sbc_comms.c   ****     return got;  // Caller is told they got a new centroid!
 1276              		.loc 1 295 0
 1277 008c FB7B     		ldrb	r3, [r7, #15]	@ zero_extendqisi2
 1278              	.L70:
 296:sbc_comms.c   **** }
 1279              		.loc 1 296 0
 1280 008e 1846     		mov	r0, r3
 1281 0090 1037     		adds	r7, r7, #16
 1282              		.cfi_def_cfa_offset 8
 1283 0092 BD46     		mov	sp, r7
 1284              		.cfi_def_cfa_register 13
 1285              		@ sp needed
 1286 0094 80BD     		pop	{r7, pc}
 1287              	.L73:
 1288 0096 00BF     		.align	2
 1289              	.L72:
 1290 0098 5C000000 		.word	s_fresh_bits
 1291 009c 44000000 		.word	s_centroid
 1292              		.cfi_endproc
 1293              	.LFE67:
 1294              		.size	sbc_get_centroid, .-sbc_get_centroid
 1295              		.section	.text.sbc_discard_centroid,"ax",%progbits
 1296              		.align	2
 1297              		.global	sbc_discard_centroid
 1298              		.thumb
 1299              		.thumb_func
 1300              		.type	sbc_discard_centroid, %function
 1301              	sbc_discard_centroid:
 1302              	.LFB68:
 297:sbc_comms.c   **** 
 298:sbc_comms.c   **** void sbc_discard_centroid(uint8_t stream)
 299:sbc_comms.c   **** {
 1303              		.loc 1 299 0
 1304              		.cfi_startproc
 1305              		@ args = 0, pretend = 0, frame = 16
 1306              		@ frame_needed = 1, uses_anonymous_args = 0
 1307 0000 80B5     		push	{r7, lr}
 1308              		.cfi_def_cfa_offset 8
 1309              		.cfi_offset 7, -8
 1310              		.cfi_offset 14, -4
 1311 0002 84B0     		sub	sp, sp, #16
 1312              		.cfi_def_cfa_offset 24
 1313 0004 00AF     		add	r7, sp, #0
 1314              		.cfi_def_cfa_register 7
 1315 0006 0346     		mov	r3, r0
 1316 0008 FB71     		strb	r3, [r7, #7]
 300:sbc_comms.c   ****     // Discard centroid packets during slew process to avoid jumoy snaps on exit.
 301:sbc_comms.c   ****     if (stream >= STREAM_COUNTS) return;  // No centroids
 1317              		.loc 1 301 0
 1318 000a FB79     		ldrb	r3, [r7, #7]	@ zero_extendqisi2
 1319 000c 012B     		cmp	r3, #1
 1320 000e 17D8     		bhi	.L77
ARM GAS  C:\Users\yoons\AppData\Local\Temp\ccPh1RWf.s 			page 30


 302:sbc_comms.c   ****     uint8_t bit = (uint8_t)(1u << stream);
 1321              		.loc 1 302 0
 1322 0010 FB79     		ldrb	r3, [r7, #7]	@ zero_extendqisi2
 1323 0012 0122     		movs	r2, #1
 1324 0014 02FA03F3 		lsl	r3, r2, r3
 1325 0018 FB73     		strb	r3, [r7, #15]
 303:sbc_comms.c   ****     uint8_t ist = CyEnterCriticalSection();  // Atomic clear
 1326              		.loc 1 303 0
 1327 001a FFF7FEFF 		bl	CyEnterCriticalSection
 1328 001e 0346     		mov	r3, r0
 1329 0020 BB73     		strb	r3, [r7, #14]
 304:sbc_comms.c   ****     s_fresh_bits &= (uint8_t)~bit;
 1330              		.loc 1 304 0
 1331 0022 FB7B     		ldrb	r3, [r7, #15]
 1332 0024 DB43     		mvns	r3, r3
 1333 0026 DAB2     		uxtb	r2, r3
 1334 0028 074B     		ldr	r3, .L78
 1335 002a 1B78     		ldrb	r3, [r3]
 1336 002c DBB2     		uxtb	r3, r3
 1337 002e 1340     		ands	r3, r3, r2
 1338 0030 DAB2     		uxtb	r2, r3
 1339 0032 054B     		ldr	r3, .L78
 1340 0034 1A70     		strb	r2, [r3]
 305:sbc_comms.c   ****     CyExitCriticalSection(ist);
 1341              		.loc 1 305 0
 1342 0036 BB7B     		ldrb	r3, [r7, #14]	@ zero_extendqisi2
 1343 0038 1846     		mov	r0, r3
 1344 003a FFF7FEFF 		bl	CyExitCriticalSection
 1345 003e 00E0     		b	.L74
 1346              	.L77:
 301:sbc_comms.c   ****     uint8_t bit = (uint8_t)(1u << stream);
 1347              		.loc 1 301 0
 1348 0040 00BF     		nop
 1349              	.L74:
 306:sbc_comms.c   **** }
 1350              		.loc 1 306 0
 1351 0042 1037     		adds	r7, r7, #16
 1352              		.cfi_def_cfa_offset 8
 1353 0044 BD46     		mov	sp, r7
 1354              		.cfi_def_cfa_register 13
 1355              		@ sp needed
 1356 0046 80BD     		pop	{r7, pc}
 1357              	.L79:
 1358              		.align	2
 1359              	.L78:
 1360 0048 5C000000 		.word	s_fresh_bits
 1361              		.cfi_endproc
 1362              	.LFE68:
 1363              		.size	sbc_discard_centroid, .-sbc_discard_centroid
 1364              		.section	.text.sbc_unknown_magic,"ax",%progbits
 1365              		.align	2
 1366              		.global	sbc_unknown_magic
 1367              		.thumb
 1368              		.thumb_func
 1369              		.type	sbc_unknown_magic, %function
 1370              	sbc_unknown_magic:
 1371              	.LFB69:
ARM GAS  C:\Users\yoons\AppData\Local\Temp\ccPh1RWf.s 			page 31


 307:sbc_comms.c   **** 
 308:sbc_comms.c   **** uint16_t sbc_unknown_magic(void)
 309:sbc_comms.c   **** {
 1372              		.loc 1 309 0
 1373              		.cfi_startproc
 1374              		@ args = 0, pretend = 0, frame = 0
 1375              		@ frame_needed = 1, uses_anonymous_args = 0
 1376              		@ link register save eliminated.
 1377 0000 80B4     		push	{r7}
 1378              		.cfi_def_cfa_offset 4
 1379              		.cfi_offset 7, -4
 1380 0002 00AF     		add	r7, sp, #0
 1381              		.cfi_def_cfa_register 7
 310:sbc_comms.c   ****     // When magic byte unknown
 311:sbc_comms.c   ****     return s_unknown_magic;
 1382              		.loc 1 311 0
 1383 0004 024B     		ldr	r3, .L82
 1384 0006 1B88     		ldrh	r3, [r3]
 312:sbc_comms.c   **** }
 1385              		.loc 1 312 0
 1386 0008 1846     		mov	r0, r3
 1387 000a BD46     		mov	sp, r7
 1388              		.cfi_def_cfa_register 13
 1389              		@ sp needed
 1390 000c 80BC     		pop	{r7}
 1391              		.cfi_restore 7
 1392              		.cfi_def_cfa_offset 0
 1393 000e 7047     		bx	lr
 1394              	.L83:
 1395              		.align	2
 1396              	.L82:
 1397 0010 70000000 		.word	s_unknown_magic
 1398              		.cfi_endproc
 1399              	.LFE69:
 1400              		.size	sbc_unknown_magic, .-sbc_unknown_magic
 1401              		.section	.text.sbc_rx_pkt_count,"ax",%progbits
 1402              		.align	2
 1403              		.global	sbc_rx_pkt_count
 1404              		.thumb
 1405              		.thumb_func
 1406              		.type	sbc_rx_pkt_count, %function
 1407              	sbc_rx_pkt_count:
 1408              	.LFB70:
 313:sbc_comms.c   **** 
 314:sbc_comms.c   **** uint32_t sbc_rx_pkt_count(void)
 315:sbc_comms.c   **** {
 1409              		.loc 1 315 0
 1410              		.cfi_startproc
 1411              		@ args = 0, pretend = 0, frame = 0
 1412              		@ frame_needed = 1, uses_anonymous_args = 0
 1413              		@ link register save eliminated.
 1414 0000 80B4     		push	{r7}
 1415              		.cfi_def_cfa_offset 4
 1416              		.cfi_offset 7, -4
 1417 0002 00AF     		add	r7, sp, #0
 1418              		.cfi_def_cfa_register 7
 316:sbc_comms.c   ****     // Received packet count getter
ARM GAS  C:\Users\yoons\AppData\Local\Temp\ccPh1RWf.s 			page 32


 317:sbc_comms.c   ****     return s_rx_pkt_count;
 1419              		.loc 1 317 0
 1420 0004 024B     		ldr	r3, .L86
 1421 0006 1B68     		ldr	r3, [r3]
 318:sbc_comms.c   **** }
 1422              		.loc 1 318 0
 1423 0008 1846     		mov	r0, r3
 1424 000a BD46     		mov	sp, r7
 1425              		.cfi_def_cfa_register 13
 1426              		@ sp needed
 1427 000c 80BC     		pop	{r7}
 1428              		.cfi_restore 7
 1429              		.cfi_def_cfa_offset 0
 1430 000e 7047     		bx	lr
 1431              	.L87:
 1432              		.align	2
 1433              	.L86:
 1434 0010 74000000 		.word	s_rx_pkt_count
 1435              		.cfi_endproc
 1436              	.LFE70:
 1437              		.size	sbc_rx_pkt_count, .-sbc_rx_pkt_count
 1438              		.section	.text.sbc_last_centroid_dt_ms,"ax",%progbits
 1439              		.align	2
 1440              		.global	sbc_last_centroid_dt_ms
 1441              		.thumb
 1442              		.thumb_func
 1443              		.type	sbc_last_centroid_dt_ms, %function
 1444              	sbc_last_centroid_dt_ms:
 1445              	.LFB71:
 319:sbc_comms.c   **** uint16_t sbc_last_centroid_dt_ms(uint8_t stream)
 320:sbc_comms.c   **** {
 1446              		.loc 1 320 0
 1447              		.cfi_startproc
 1448              		@ args = 0, pretend = 0, frame = 8
 1449              		@ frame_needed = 1, uses_anonymous_args = 0
 1450              		@ link register save eliminated.
 1451 0000 80B4     		push	{r7}
 1452              		.cfi_def_cfa_offset 4
 1453              		.cfi_offset 7, -4
 1454 0002 83B0     		sub	sp, sp, #12
 1455              		.cfi_def_cfa_offset 16
 1456 0004 00AF     		add	r7, sp, #0
 1457              		.cfi_def_cfa_register 7
 1458 0006 0346     		mov	r3, r0
 1459 0008 FB71     		strb	r3, [r7, #7]
 321:sbc_comms.c   ****     // Time between last centroid pair getter
 322:sbc_comms.c   ****     return (stream < STREAM_COUNTS) ? s_last_centroid_dt_ms[stream] : 0u;
 1460              		.loc 1 322 0
 1461 000a FB79     		ldrb	r3, [r7, #7]	@ zero_extendqisi2
 1462 000c 012B     		cmp	r3, #1
 1463 000e 04D8     		bhi	.L89
 1464              		.loc 1 322 0 is_stmt 0 discriminator 1
 1465 0010 FB79     		ldrb	r3, [r7, #7]	@ zero_extendqisi2
 1466 0012 054A     		ldr	r2, .L92
 1467 0014 32F81330 		ldrh	r3, [r2, r3, lsl #1]
 1468 0018 00E0     		b	.L90
 1469              	.L89:
ARM GAS  C:\Users\yoons\AppData\Local\Temp\ccPh1RWf.s 			page 33


 1470              		.loc 1 322 0 discriminator 2
 1471 001a 0023     		movs	r3, #0
 1472              	.L90:
 323:sbc_comms.c   **** }
 1473              		.loc 1 323 0 is_stmt 1 discriminator 4
 1474 001c 1846     		mov	r0, r3
 1475 001e 0C37     		adds	r7, r7, #12
 1476              		.cfi_def_cfa_offset 4
 1477 0020 BD46     		mov	sp, r7
 1478              		.cfi_def_cfa_register 13
 1479              		@ sp needed
 1480 0022 80BC     		pop	{r7}
 1481              		.cfi_restore 7
 1482              		.cfi_def_cfa_offset 0
 1483 0024 7047     		bx	lr
 1484              	.L93:
 1485 0026 00BF     		.align	2
 1486              	.L92:
 1487 0028 68000000 		.word	s_last_centroid_dt_ms
 1488              		.cfi_endproc
 1489              	.LFE71:
 1490              		.size	sbc_last_centroid_dt_ms, .-sbc_last_centroid_dt_ms
 1491              		.section	.text.sbc_last_rx_ms,"ax",%progbits
 1492              		.align	2
 1493              		.global	sbc_last_rx_ms
 1494              		.thumb
 1495              		.thumb_func
 1496              		.type	sbc_last_rx_ms, %function
 1497              	sbc_last_rx_ms:
 1498              	.LFB72:
 324:sbc_comms.c   **** 
 325:sbc_comms.c   **** uint32_t sbc_last_rx_ms(uint8_t stream)
 326:sbc_comms.c   **** {
 1499              		.loc 1 326 0
 1500              		.cfi_startproc
 1501              		@ args = 0, pretend = 0, frame = 8
 1502              		@ frame_needed = 1, uses_anonymous_args = 0
 1503              		@ link register save eliminated.
 1504 0000 80B4     		push	{r7}
 1505              		.cfi_def_cfa_offset 4
 1506              		.cfi_offset 7, -4
 1507 0002 83B0     		sub	sp, sp, #12
 1508              		.cfi_def_cfa_offset 16
 1509 0004 00AF     		add	r7, sp, #0
 1510              		.cfi_def_cfa_register 7
 1511 0006 0346     		mov	r3, r0
 1512 0008 FB71     		strb	r3, [r7, #7]
 327:sbc_comms.c   ****     // Time of last received packet getter
 328:sbc_comms.c   ****     return (stream < STREAM_COUNTS) ? s_last_rx_ms[stream] : 0u;
 1513              		.loc 1 328 0
 1514 000a FB79     		ldrb	r3, [r7, #7]	@ zero_extendqisi2
 1515 000c 012B     		cmp	r3, #1
 1516 000e 04D8     		bhi	.L95
 1517              		.loc 1 328 0 is_stmt 0 discriminator 1
 1518 0010 FB79     		ldrb	r3, [r7, #7]	@ zero_extendqisi2
 1519 0012 054A     		ldr	r2, .L98
 1520 0014 52F82330 		ldr	r3, [r2, r3, lsl #2]
ARM GAS  C:\Users\yoons\AppData\Local\Temp\ccPh1RWf.s 			page 34


 1521 0018 00E0     		b	.L97
 1522              	.L95:
 1523              		.loc 1 328 0 discriminator 2
 1524 001a 0023     		movs	r3, #0
 1525              	.L97:
 329:sbc_comms.c   **** }
 1526              		.loc 1 329 0 is_stmt 1 discriminator 5
 1527 001c 1846     		mov	r0, r3
 1528 001e 0C37     		adds	r7, r7, #12
 1529              		.cfi_def_cfa_offset 4
 1530 0020 BD46     		mov	sp, r7
 1531              		.cfi_def_cfa_register 13
 1532              		@ sp needed
 1533 0022 80BC     		pop	{r7}
 1534              		.cfi_restore 7
 1535              		.cfi_def_cfa_offset 0
 1536 0024 7047     		bx	lr
 1537              	.L99:
 1538 0026 00BF     		.align	2
 1539              	.L98:
 1540 0028 60000000 		.word	s_last_rx_ms
 1541              		.cfi_endproc
 1542              	.LFE72:
 1543              		.size	sbc_last_rx_ms, .-sbc_last_rx_ms
 1544              		.section	.text.sbc_crc_errors,"ax",%progbits
 1545              		.align	2
 1546              		.global	sbc_crc_errors
 1547              		.thumb
 1548              		.thumb_func
 1549              		.type	sbc_crc_errors, %function
 1550              	sbc_crc_errors:
 1551              	.LFB73:
 330:sbc_comms.c   **** uint16_t sbc_crc_errors(void)
 331:sbc_comms.c   **** {
 1552              		.loc 1 331 0
 1553              		.cfi_startproc
 1554              		@ args = 0, pretend = 0, frame = 0
 1555              		@ frame_needed = 1, uses_anonymous_args = 0
 1556              		@ link register save eliminated.
 1557 0000 80B4     		push	{r7}
 1558              		.cfi_def_cfa_offset 4
 1559              		.cfi_offset 7, -4
 1560 0002 00AF     		add	r7, sp, #0
 1561              		.cfi_def_cfa_register 7
 332:sbc_comms.c   ****     // CRC error getter
 333:sbc_comms.c   ****     return s_crc_err;
 1562              		.loc 1 333 0
 1563 0004 024B     		ldr	r3, .L102
 1564 0006 1B88     		ldrh	r3, [r3]
 334:sbc_comms.c   **** }
 1565              		.loc 1 334 0
 1566 0008 1846     		mov	r0, r3
 1567 000a BD46     		mov	sp, r7
 1568              		.cfi_def_cfa_register 13
 1569              		@ sp needed
 1570 000c 80BC     		pop	{r7}
 1571              		.cfi_restore 7
ARM GAS  C:\Users\yoons\AppData\Local\Temp\ccPh1RWf.s 			page 35


 1572              		.cfi_def_cfa_offset 0
 1573 000e 7047     		bx	lr
 1574              	.L103:
 1575              		.align	2
 1576              	.L102:
 1577 0010 6C000000 		.word	s_crc_err
 1578              		.cfi_endproc
 1579              	.LFE73:
 1580              		.size	sbc_crc_errors, .-sbc_crc_errors
 1581              		.section	.text.sbc_uart_errors,"ax",%progbits
 1582              		.align	2
 1583              		.global	sbc_uart_errors
 1584              		.thumb
 1585              		.thumb_func
 1586              		.type	sbc_uart_errors, %function
 1587              	sbc_uart_errors:
 1588              	.LFB74:
 335:sbc_comms.c   **** uint16_t sbc_uart_errors(void)
 336:sbc_comms.c   **** {
 1589              		.loc 1 336 0
 1590              		.cfi_startproc
 1591              		@ args = 0, pretend = 0, frame = 0
 1592              		@ frame_needed = 1, uses_anonymous_args = 0
 1593              		@ link register save eliminated.
 1594 0000 80B4     		push	{r7}
 1595              		.cfi_def_cfa_offset 4
 1596              		.cfi_offset 7, -4
 1597 0002 00AF     		add	r7, sp, #0
 1598              		.cfi_def_cfa_register 7
 337:sbc_comms.c   ****     // UART error getter
 338:sbc_comms.c   ****     return s_uart_err;
 1599              		.loc 1 338 0
 1600 0004 024B     		ldr	r3, .L106
 1601 0006 1B88     		ldrh	r3, [r3]
 339:sbc_comms.c   **** }
 1602              		.loc 1 339 0
 1603 0008 1846     		mov	r0, r3
 1604 000a BD46     		mov	sp, r7
 1605              		.cfi_def_cfa_register 13
 1606              		@ sp needed
 1607 000c 80BC     		pop	{r7}
 1608              		.cfi_restore 7
 1609              		.cfi_def_cfa_offset 0
 1610 000e 7047     		bx	lr
 1611              	.L107:
 1612              		.align	2
 1613              	.L106:
 1614 0010 6E000000 		.word	s_uart_err
 1615              		.cfi_endproc
 1616              	.LFE74:
 1617              		.size	sbc_uart_errors, .-sbc_uart_errors
 1618              		.section	.text.sbc_send_frame,"ax",%progbits
 1619              		.align	2
 1620              		.global	sbc_send_frame
 1621              		.thumb
 1622              		.thumb_func
 1623              		.type	sbc_send_frame, %function
ARM GAS  C:\Users\yoons\AppData\Local\Temp\ccPh1RWf.s 			page 36


 1624              	sbc_send_frame:
 1625              	.LFB75:
 340:sbc_comms.c   **** 
 341:sbc_comms.c   **** void sbc_send_frame(uint8_t type, const uint8_t *payload, uint8_t len)
 342:sbc_comms.c   **** {
 1626              		.loc 1 342 0
 1627              		.cfi_startproc
 1628              		@ args = 0, pretend = 0, frame = 16
 1629              		@ frame_needed = 1, uses_anonymous_args = 0
 1630 0000 80B5     		push	{r7, lr}
 1631              		.cfi_def_cfa_offset 8
 1632              		.cfi_offset 7, -8
 1633              		.cfi_offset 14, -4
 1634 0002 84B0     		sub	sp, sp, #16
 1635              		.cfi_def_cfa_offset 24
 1636 0004 00AF     		add	r7, sp, #0
 1637              		.cfi_def_cfa_register 7
 1638 0006 0346     		mov	r3, r0
 1639 0008 3960     		str	r1, [r7]
 1640 000a FB71     		strb	r3, [r7, #7]
 1641 000c 1346     		mov	r3, r2
 1642 000e BB71     		strb	r3, [r7, #6]
 343:sbc_comms.c   ****     // Encoder to send a frame to the Pi
 344:sbc_comms.c   ****     UART_SBC_PutChar(SBC_MAGIC);  // Magic byte
 1643              		.loc 1 344 0
 1644 0010 AB20     		movs	r0, #171
 1645 0012 FFF7FEFF 		bl	UART_SBC_PutChar
 345:sbc_comms.c   ****     UART_SBC_PutChar(type);      // Type byte
 1646              		.loc 1 345 0
 1647 0016 FB79     		ldrb	r3, [r7, #7]	@ zero_extendqisi2
 1648 0018 1846     		mov	r0, r3
 1649 001a FFF7FEFF 		bl	UART_SBC_PutChar
 346:sbc_comms.c   ****     UART_SBC_PutChar(len);       // Length byte
 1650              		.loc 1 346 0
 1651 001e BB79     		ldrb	r3, [r7, #6]	@ zero_extendqisi2
 1652 0020 1846     		mov	r0, r3
 1653 0022 FFF7FEFF 		bl	UART_SBC_PutChar
 347:sbc_comms.c   ****     uint8_t crc = crc8_table[type];
 1654              		.loc 1 347 0
 1655 0026 FB79     		ldrb	r3, [r7, #7]	@ zero_extendqisi2
 1656 0028 174A     		ldr	r2, .L111
 1657 002a D35C     		ldrb	r3, [r2, r3]
 1658 002c FB73     		strb	r3, [r7, #15]
 348:sbc_comms.c   ****     crc = crc8_table[crc ^ len];// Start CRC
 1659              		.loc 1 348 0
 1660 002e FA7B     		ldrb	r2, [r7, #15]
 1661 0030 BB79     		ldrb	r3, [r7, #6]
 1662 0032 5340     		eors	r3, r3, r2
 1663 0034 DBB2     		uxtb	r3, r3
 1664 0036 1A46     		mov	r2, r3
 1665 0038 134B     		ldr	r3, .L111
 1666 003a 9B5C     		ldrb	r3, [r3, r2]
 1667 003c FB73     		strb	r3, [r7, #15]
 1668              	.LBB6:
 349:sbc_comms.c   ****     for (uint8_t i = 0u; i < len; i++) {
 1669              		.loc 1 349 0
 1670 003e 0023     		movs	r3, #0
ARM GAS  C:\Users\yoons\AppData\Local\Temp\ccPh1RWf.s 			page 37


 1671 0040 BB73     		strb	r3, [r7, #14]
 1672 0042 14E0     		b	.L109
 1673              	.L110:
 350:sbc_comms.c   ****         UART_SBC_PutChar(payload[i]);  // Put payload and compute CRC
 1674              		.loc 1 350 0 discriminator 3
 1675 0044 BB7B     		ldrb	r3, [r7, #14]	@ zero_extendqisi2
 1676 0046 3A68     		ldr	r2, [r7]
 1677 0048 1344     		add	r3, r3, r2
 1678 004a 1B78     		ldrb	r3, [r3]	@ zero_extendqisi2
 1679 004c 1846     		mov	r0, r3
 1680 004e FFF7FEFF 		bl	UART_SBC_PutChar
 351:sbc_comms.c   ****         crc = crc8_table[crc ^ payload[i]];
 1681              		.loc 1 351 0 discriminator 3
 1682 0052 BB7B     		ldrb	r3, [r7, #14]	@ zero_extendqisi2
 1683 0054 3A68     		ldr	r2, [r7]
 1684 0056 1344     		add	r3, r3, r2
 1685 0058 1A78     		ldrb	r2, [r3]	@ zero_extendqisi2
 1686 005a FB7B     		ldrb	r3, [r7, #15]
 1687 005c 5340     		eors	r3, r3, r2
 1688 005e DBB2     		uxtb	r3, r3
 1689 0060 1A46     		mov	r2, r3
 1690 0062 094B     		ldr	r3, .L111
 1691 0064 9B5C     		ldrb	r3, [r3, r2]
 1692 0066 FB73     		strb	r3, [r7, #15]
 349:sbc_comms.c   ****     for (uint8_t i = 0u; i < len; i++) {
 1693              		.loc 1 349 0 discriminator 3
 1694 0068 BB7B     		ldrb	r3, [r7, #14]	@ zero_extendqisi2
 1695 006a 0133     		adds	r3, r3, #1
 1696 006c BB73     		strb	r3, [r7, #14]
 1697              	.L109:
 349:sbc_comms.c   ****     for (uint8_t i = 0u; i < len; i++) {
 1698              		.loc 1 349 0 is_stmt 0 discriminator 1
 1699 006e BA7B     		ldrb	r2, [r7, #14]	@ zero_extendqisi2
 1700 0070 BB79     		ldrb	r3, [r7, #6]	@ zero_extendqisi2
 1701 0072 9A42     		cmp	r2, r3
 1702 0074 E6D3     		bcc	.L110
 1703              	.LBE6:
 352:sbc_comms.c   ****     }
 353:sbc_comms.c   ****     UART_SBC_PutChar(crc);       // Put calculates CRC
 1704              		.loc 1 353 0 is_stmt 1
 1705 0076 FB7B     		ldrb	r3, [r7, #15]	@ zero_extendqisi2
 1706 0078 1846     		mov	r0, r3
 1707 007a FFF7FEFF 		bl	UART_SBC_PutChar
 354:sbc_comms.c   **** }
 1708              		.loc 1 354 0
 1709 007e 00BF     		nop
 1710 0080 1037     		adds	r7, r7, #16
 1711              		.cfi_def_cfa_offset 8
 1712 0082 BD46     		mov	sp, r7
 1713              		.cfi_def_cfa_register 13
 1714              		@ sp needed
 1715 0084 80BD     		pop	{r7, pc}
 1716              	.L112:
 1717 0086 00BF     		.align	2
 1718              	.L111:
 1719 0088 00000000 		.word	crc8_table
 1720              		.cfi_endproc
ARM GAS  C:\Users\yoons\AppData\Local\Temp\ccPh1RWf.s 			page 38


 1721              	.LFE75:
 1722              		.size	sbc_send_frame, .-sbc_send_frame
 1723              		.section	.text.sbc_get_state_req,"ax",%progbits
 1724              		.align	2
 1725              		.global	sbc_get_state_req
 1726              		.thumb
 1727              		.thumb_func
 1728              		.type	sbc_get_state_req, %function
 1729              	sbc_get_state_req:
 1730              	.LFB76:
 355:sbc_comms.c   **** 
 356:sbc_comms.c   **** uint8_t sbc_get_state_req(payload_state_req_t *out)
 357:sbc_comms.c   **** {
 1731              		.loc 1 357 0
 1732              		.cfi_startproc
 1733              		@ args = 0, pretend = 0, frame = 16
 1734              		@ frame_needed = 1, uses_anonymous_args = 0
 1735 0000 80B5     		push	{r7, lr}
 1736              		.cfi_def_cfa_offset 8
 1737              		.cfi_offset 7, -8
 1738              		.cfi_offset 14, -4
 1739 0002 84B0     		sub	sp, sp, #16
 1740              		.cfi_def_cfa_offset 24
 1741 0004 00AF     		add	r7, sp, #0
 1742              		.cfi_def_cfa_register 7
 1743 0006 7860     		str	r0, [r7, #4]
 358:sbc_comms.c   ****     uint8_t got = 0u;
 1744              		.loc 1 358 0
 1745 0008 0023     		movs	r3, #0
 1746 000a FB73     		strb	r3, [r7, #15]
 359:sbc_comms.c   ****     uint8_t ist = CyEnterCriticalSection();
 1747              		.loc 1 359 0
 1748 000c FFF7FEFF 		bl	CyEnterCriticalSection
 1749 0010 0346     		mov	r3, r0
 1750 0012 BB73     		strb	r3, [r7, #14]
 360:sbc_comms.c   ****     if (s_state_req_fresh) {
 1751              		.loc 1 360 0
 1752 0014 0B4B     		ldr	r3, .L116
 1753 0016 1B78     		ldrb	r3, [r3]
 1754 0018 DBB2     		uxtb	r3, r3
 1755 001a 002B     		cmp	r3, #0
 1756 001c 08D0     		beq	.L114
 361:sbc_comms.c   ****         *out = s_state_req;
 1757              		.loc 1 361 0
 1758 001e 7B68     		ldr	r3, [r7, #4]
 1759 0020 094A     		ldr	r2, .L116+4
 1760 0022 1278     		ldrb	r2, [r2]
 1761 0024 1A70     		strb	r2, [r3]
 362:sbc_comms.c   ****         s_state_req_fresh = 0u;
 1762              		.loc 1 362 0
 1763 0026 074B     		ldr	r3, .L116
 1764 0028 0022     		movs	r2, #0
 1765 002a 1A70     		strb	r2, [r3]
 363:sbc_comms.c   ****         got = 1u;
 1766              		.loc 1 363 0
 1767 002c 0123     		movs	r3, #1
 1768 002e FB73     		strb	r3, [r7, #15]
ARM GAS  C:\Users\yoons\AppData\Local\Temp\ccPh1RWf.s 			page 39


 1769              	.L114:
 364:sbc_comms.c   ****     }
 365:sbc_comms.c   ****     CyExitCriticalSection(ist);
 1770              		.loc 1 365 0
 1771 0030 BB7B     		ldrb	r3, [r7, #14]	@ zero_extendqisi2
 1772 0032 1846     		mov	r0, r3
 1773 0034 FFF7FEFF 		bl	CyExitCriticalSection
 366:sbc_comms.c   ****     return got;
 1774              		.loc 1 366 0
 1775 0038 FB7B     		ldrb	r3, [r7, #15]	@ zero_extendqisi2
 367:sbc_comms.c   **** }
 1776              		.loc 1 367 0
 1777 003a 1846     		mov	r0, r3
 1778 003c 1037     		adds	r7, r7, #16
 1779              		.cfi_def_cfa_offset 8
 1780 003e BD46     		mov	sp, r7
 1781              		.cfi_def_cfa_register 13
 1782              		@ sp needed
 1783 0040 80BD     		pop	{r7, pc}
 1784              	.L117:
 1785 0042 00BF     		.align	2
 1786              	.L116:
 1787 0044 79000000 		.word	s_state_req_fresh
 1788 0048 78000000 		.word	s_state_req
 1789              		.cfi_endproc
 1790              	.LFE76:
 1791              		.size	sbc_get_state_req, .-sbc_get_state_req
 1792              		.section	.text.sbc_get_gps_target,"ax",%progbits
 1793              		.align	2
 1794              		.global	sbc_get_gps_target
 1795              		.thumb
 1796              		.thumb_func
 1797              		.type	sbc_get_gps_target, %function
 1798              	sbc_get_gps_target:
 1799              	.LFB77:
 368:sbc_comms.c   **** 
 369:sbc_comms.c   **** uint8_t sbc_get_gps_target(payload_gps_target_t *out)
 370:sbc_comms.c   **** {
 1800              		.loc 1 370 0
 1801              		.cfi_startproc
 1802              		@ args = 0, pretend = 0, frame = 16
 1803              		@ frame_needed = 1, uses_anonymous_args = 0
 1804 0000 80B5     		push	{r7, lr}
 1805              		.cfi_def_cfa_offset 8
 1806              		.cfi_offset 7, -8
 1807              		.cfi_offset 14, -4
 1808 0002 84B0     		sub	sp, sp, #16
 1809              		.cfi_def_cfa_offset 24
 1810 0004 00AF     		add	r7, sp, #0
 1811              		.cfi_def_cfa_register 7
 1812 0006 7860     		str	r0, [r7, #4]
 371:sbc_comms.c   ****     uint8_t got = 0u;
 1813              		.loc 1 371 0
 1814 0008 0023     		movs	r3, #0
 1815 000a FB73     		strb	r3, [r7, #15]
 372:sbc_comms.c   ****     uint8_t ist = CyEnterCriticalSection();
 1816              		.loc 1 372 0
ARM GAS  C:\Users\yoons\AppData\Local\Temp\ccPh1RWf.s 			page 40


 1817 000c FFF7FEFF 		bl	CyEnterCriticalSection
 1818 0010 0346     		mov	r3, r0
 1819 0012 BB73     		strb	r3, [r7, #14]
 373:sbc_comms.c   ****     if (s_gps_target_fresh) {
 1820              		.loc 1 373 0
 1821 0014 0B4B     		ldr	r3, .L121
 1822 0016 1B78     		ldrb	r3, [r3]
 1823 0018 DBB2     		uxtb	r3, r3
 1824 001a 002B     		cmp	r3, #0
 1825 001c 09D0     		beq	.L119
 374:sbc_comms.c   ****         *out = s_gps_target;
 1826              		.loc 1 374 0
 1827 001e 7B68     		ldr	r3, [r7, #4]
 1828 0020 094A     		ldr	r2, .L121+4
 1829 0022 07CA     		ldmia	r2, {r0, r1, r2}
 1830 0024 83E80700 		stmia	r3, {r0, r1, r2}
 375:sbc_comms.c   ****         s_gps_target_fresh = 0u;
 1831              		.loc 1 375 0
 1832 0028 064B     		ldr	r3, .L121
 1833 002a 0022     		movs	r2, #0
 1834 002c 1A70     		strb	r2, [r3]
 376:sbc_comms.c   ****         got = 1u;
 1835              		.loc 1 376 0
 1836 002e 0123     		movs	r3, #1
 1837 0030 FB73     		strb	r3, [r7, #15]
 1838              	.L119:
 377:sbc_comms.c   ****     }
 378:sbc_comms.c   ****     CyExitCriticalSection(ist);
 1839              		.loc 1 378 0
 1840 0032 BB7B     		ldrb	r3, [r7, #14]	@ zero_extendqisi2
 1841 0034 1846     		mov	r0, r3
 1842 0036 FFF7FEFF 		bl	CyExitCriticalSection
 379:sbc_comms.c   ****     return got;
 1843              		.loc 1 379 0
 1844 003a FB7B     		ldrb	r3, [r7, #15]	@ zero_extendqisi2
 380:sbc_comms.c   **** }
 1845              		.loc 1 380 0
 1846 003c 1846     		mov	r0, r3
 1847 003e 1037     		adds	r7, r7, #16
 1848              		.cfi_def_cfa_offset 8
 1849 0040 BD46     		mov	sp, r7
 1850              		.cfi_def_cfa_register 13
 1851              		@ sp needed
 1852 0042 80BD     		pop	{r7, pc}
 1853              	.L122:
 1854              		.align	2
 1855              	.L121:
 1856 0044 88000000 		.word	s_gps_target_fresh
 1857 0048 7C000000 		.word	s_gps_target
 1858              		.cfi_endproc
 1859              	.LFE77:
 1860              		.size	sbc_get_gps_target, .-sbc_get_gps_target
 1861              		.section	.text.sbc_get_nudge,"ax",%progbits
 1862              		.align	2
 1863              		.global	sbc_get_nudge
 1864              		.thumb
 1865              		.thumb_func
ARM GAS  C:\Users\yoons\AppData\Local\Temp\ccPh1RWf.s 			page 41


 1866              		.type	sbc_get_nudge, %function
 1867              	sbc_get_nudge:
 1868              	.LFB78:
 381:sbc_comms.c   **** 
 382:sbc_comms.c   **** uint8_t sbc_get_nudge(payload_nudge_t *out)
 383:sbc_comms.c   **** {
 1869              		.loc 1 383 0
 1870              		.cfi_startproc
 1871              		@ args = 0, pretend = 0, frame = 16
 1872              		@ frame_needed = 1, uses_anonymous_args = 0
 1873 0000 80B5     		push	{r7, lr}
 1874              		.cfi_def_cfa_offset 8
 1875              		.cfi_offset 7, -8
 1876              		.cfi_offset 14, -4
 1877 0002 84B0     		sub	sp, sp, #16
 1878              		.cfi_def_cfa_offset 24
 1879 0004 00AF     		add	r7, sp, #0
 1880              		.cfi_def_cfa_register 7
 1881 0006 7860     		str	r0, [r7, #4]
 384:sbc_comms.c   ****     uint8_t got = 0u;
 1882              		.loc 1 384 0
 1883 0008 0023     		movs	r3, #0
 1884 000a FB73     		strb	r3, [r7, #15]
 385:sbc_comms.c   ****     uint8_t ist = CyEnterCriticalSection();
 1885              		.loc 1 385 0
 1886 000c FFF7FEFF 		bl	CyEnterCriticalSection
 1887 0010 0346     		mov	r3, r0
 1888 0012 BB73     		strb	r3, [r7, #14]
 386:sbc_comms.c   ****     if (s_nudge_fresh) {
 1889              		.loc 1 386 0
 1890 0014 0B4B     		ldr	r3, .L126
 1891 0016 1B78     		ldrb	r3, [r3]
 1892 0018 DBB2     		uxtb	r3, r3
 1893 001a 002B     		cmp	r3, #0
 1894 001c 08D0     		beq	.L124
 387:sbc_comms.c   ****         *out = s_nudge;
 1895              		.loc 1 387 0
 1896 001e 7B68     		ldr	r3, [r7, #4]
 1897 0020 094A     		ldr	r2, .L126+4
 1898 0022 1068     		ldr	r0, [r2]	@ unaligned
 1899 0024 1860     		str	r0, [r3]	@ unaligned
 388:sbc_comms.c   ****         s_nudge_fresh = 0u;
 1900              		.loc 1 388 0
 1901 0026 074B     		ldr	r3, .L126
 1902 0028 0022     		movs	r2, #0
 1903 002a 1A70     		strb	r2, [r3]
 389:sbc_comms.c   ****         got = 1u;
 1904              		.loc 1 389 0
 1905 002c 0123     		movs	r3, #1
 1906 002e FB73     		strb	r3, [r7, #15]
 1907              	.L124:
 390:sbc_comms.c   ****     }
 391:sbc_comms.c   ****     CyExitCriticalSection(ist);
 1908              		.loc 1 391 0
 1909 0030 BB7B     		ldrb	r3, [r7, #14]	@ zero_extendqisi2
 1910 0032 1846     		mov	r0, r3
 1911 0034 FFF7FEFF 		bl	CyExitCriticalSection
ARM GAS  C:\Users\yoons\AppData\Local\Temp\ccPh1RWf.s 			page 42


 392:sbc_comms.c   ****     return got;
 1912              		.loc 1 392 0
 1913 0038 FB7B     		ldrb	r3, [r7, #15]	@ zero_extendqisi2
 393:sbc_comms.c   **** }
 1914              		.loc 1 393 0
 1915 003a 1846     		mov	r0, r3
 1916 003c 1037     		adds	r7, r7, #16
 1917              		.cfi_def_cfa_offset 8
 1918 003e BD46     		mov	sp, r7
 1919              		.cfi_def_cfa_register 13
 1920              		@ sp needed
 1921 0040 80BD     		pop	{r7, pc}
 1922              	.L127:
 1923 0042 00BF     		.align	2
 1924              	.L126:
 1925 0044 90000000 		.word	s_nudge_fresh
 1926 0048 8C000000 		.word	s_nudge
 1927              		.cfi_endproc
 1928              	.LFE78:
 1929              		.size	sbc_get_nudge, .-sbc_get_nudge
 1930              		.section	.text.sbc_get_param,"ax",%progbits
 1931              		.align	2
 1932              		.global	sbc_get_param
 1933              		.thumb
 1934              		.thumb_func
 1935              		.type	sbc_get_param, %function
 1936              	sbc_get_param:
 1937              	.LFB79:
 394:sbc_comms.c   **** 
 395:sbc_comms.c   **** uint8_t sbc_get_param(payload_param_t *out)
 396:sbc_comms.c   **** {
 1938              		.loc 1 396 0
 1939              		.cfi_startproc
 1940              		@ args = 0, pretend = 0, frame = 16
 1941              		@ frame_needed = 1, uses_anonymous_args = 0
 1942 0000 80B5     		push	{r7, lr}
 1943              		.cfi_def_cfa_offset 8
 1944              		.cfi_offset 7, -8
 1945              		.cfi_offset 14, -4
 1946 0002 84B0     		sub	sp, sp, #16
 1947              		.cfi_def_cfa_offset 24
 1948 0004 00AF     		add	r7, sp, #0
 1949              		.cfi_def_cfa_register 7
 1950 0006 7860     		str	r0, [r7, #4]
 397:sbc_comms.c   ****     uint8_t got = 0u;
 1951              		.loc 1 397 0
 1952 0008 0023     		movs	r3, #0
 1953 000a FB73     		strb	r3, [r7, #15]
 398:sbc_comms.c   ****     uint8_t ist = CyEnterCriticalSection();
 1954              		.loc 1 398 0
 1955 000c FFF7FEFF 		bl	CyEnterCriticalSection
 1956 0010 0346     		mov	r3, r0
 1957 0012 BB73     		strb	r3, [r7, #14]
 399:sbc_comms.c   ****     if (s_param_fresh) {
 1958              		.loc 1 399 0
 1959 0014 0C4B     		ldr	r3, .L131
 1960 0016 1B78     		ldrb	r3, [r3]
ARM GAS  C:\Users\yoons\AppData\Local\Temp\ccPh1RWf.s 			page 43


 1961 0018 DBB2     		uxtb	r3, r3
 1962 001a 002B     		cmp	r3, #0
 1963 001c 0AD0     		beq	.L129
 400:sbc_comms.c   ****         *out = s_param;
 1964              		.loc 1 400 0
 1965 001e 7B68     		ldr	r3, [r7, #4]
 1966 0020 0A4A     		ldr	r2, .L131+4
 1967 0022 92E80300 		ldmia	r2, {r0, r1}
 1968 0026 83E80300 		stmia	r3, {r0, r1}
 401:sbc_comms.c   ****         s_param_fresh = 0u;
 1969              		.loc 1 401 0
 1970 002a 074B     		ldr	r3, .L131
 1971 002c 0022     		movs	r2, #0
 1972 002e 1A70     		strb	r2, [r3]
 402:sbc_comms.c   ****         got = 1u;
 1973              		.loc 1 402 0
 1974 0030 0123     		movs	r3, #1
 1975 0032 FB73     		strb	r3, [r7, #15]
 1976              	.L129:
 403:sbc_comms.c   ****     }
 404:sbc_comms.c   ****     CyExitCriticalSection(ist);
 1977              		.loc 1 404 0
 1978 0034 BB7B     		ldrb	r3, [r7, #14]	@ zero_extendqisi2
 1979 0036 1846     		mov	r0, r3
 1980 0038 FFF7FEFF 		bl	CyExitCriticalSection
 405:sbc_comms.c   ****     return got;
 1981              		.loc 1 405 0
 1982 003c FB7B     		ldrb	r3, [r7, #15]	@ zero_extendqisi2
 406:sbc_comms.c   **** }
 1983              		.loc 1 406 0
 1984 003e 1846     		mov	r0, r3
 1985 0040 1037     		adds	r7, r7, #16
 1986              		.cfi_def_cfa_offset 8
 1987 0042 BD46     		mov	sp, r7
 1988              		.cfi_def_cfa_register 13
 1989              		@ sp needed
 1990 0044 80BD     		pop	{r7, pc}
 1991              	.L132:
 1992 0046 00BF     		.align	2
 1993              	.L131:
 1994 0048 9C000000 		.word	s_param_fresh
 1995 004c 94000000 		.word	s_param
 1996              		.cfi_endproc
 1997              	.LFE79:
 1998              		.size	sbc_get_param, .-sbc_get_param
 1999              		.section	.text.sbc_get_param_read,"ax",%progbits
 2000              		.align	2
 2001              		.global	sbc_get_param_read
 2002              		.thumb
 2003              		.thumb_func
 2004              		.type	sbc_get_param_read, %function
 2005              	sbc_get_param_read:
 2006              	.LFB80:
 407:sbc_comms.c   **** 
 408:sbc_comms.c   **** uint8_t sbc_get_param_read(payload_param_get_t *out)
 409:sbc_comms.c   **** {
 2007              		.loc 1 409 0
ARM GAS  C:\Users\yoons\AppData\Local\Temp\ccPh1RWf.s 			page 44


 2008              		.cfi_startproc
 2009              		@ args = 0, pretend = 0, frame = 16
 2010              		@ frame_needed = 1, uses_anonymous_args = 0
 2011 0000 80B5     		push	{r7, lr}
 2012              		.cfi_def_cfa_offset 8
 2013              		.cfi_offset 7, -8
 2014              		.cfi_offset 14, -4
 2015 0002 84B0     		sub	sp, sp, #16
 2016              		.cfi_def_cfa_offset 24
 2017 0004 00AF     		add	r7, sp, #0
 2018              		.cfi_def_cfa_register 7
 2019 0006 7860     		str	r0, [r7, #4]
 410:sbc_comms.c   ****     uint8_t got = 0u;
 2020              		.loc 1 410 0
 2021 0008 0023     		movs	r3, #0
 2022 000a FB73     		strb	r3, [r7, #15]
 411:sbc_comms.c   ****     uint8_t ist = CyEnterCriticalSection();
 2023              		.loc 1 411 0
 2024 000c FFF7FEFF 		bl	CyEnterCriticalSection
 2025 0010 0346     		mov	r3, r0
 2026 0012 BB73     		strb	r3, [r7, #14]
 412:sbc_comms.c   ****     if (s_param_get_fresh) {
 2027              		.loc 1 412 0
 2028 0014 0B4B     		ldr	r3, .L136
 2029 0016 1B78     		ldrb	r3, [r3]
 2030 0018 DBB2     		uxtb	r3, r3
 2031 001a 002B     		cmp	r3, #0
 2032 001c 08D0     		beq	.L134
 413:sbc_comms.c   ****         *out = s_param_get;
 2033              		.loc 1 413 0
 2034 001e 7B68     		ldr	r3, [r7, #4]
 2035 0020 094A     		ldr	r2, .L136+4
 2036 0022 1278     		ldrb	r2, [r2]
 2037 0024 1A70     		strb	r2, [r3]
 414:sbc_comms.c   ****         s_param_get_fresh = 0u;
 2038              		.loc 1 414 0
 2039 0026 074B     		ldr	r3, .L136
 2040 0028 0022     		movs	r2, #0
 2041 002a 1A70     		strb	r2, [r3]
 415:sbc_comms.c   ****         got = 1u;
 2042              		.loc 1 415 0
 2043 002c 0123     		movs	r3, #1
 2044 002e FB73     		strb	r3, [r7, #15]
 2045              	.L134:
 416:sbc_comms.c   ****     }
 417:sbc_comms.c   ****     CyExitCriticalSection(ist);
 2046              		.loc 1 417 0
 2047 0030 BB7B     		ldrb	r3, [r7, #14]	@ zero_extendqisi2
 2048 0032 1846     		mov	r0, r3
 2049 0034 FFF7FEFF 		bl	CyExitCriticalSection
 418:sbc_comms.c   ****     return got;
 2050              		.loc 1 418 0
 2051 0038 FB7B     		ldrb	r3, [r7, #15]	@ zero_extendqisi2
 419:sbc_comms.c   **** }
 2052              		.loc 1 419 0
 2053 003a 1846     		mov	r0, r3
 2054 003c 1037     		adds	r7, r7, #16
ARM GAS  C:\Users\yoons\AppData\Local\Temp\ccPh1RWf.s 			page 45


 2055              		.cfi_def_cfa_offset 8
 2056 003e BD46     		mov	sp, r7
 2057              		.cfi_def_cfa_register 13
 2058              		@ sp needed
 2059 0040 80BD     		pop	{r7, pc}
 2060              	.L137:
 2061 0042 00BF     		.align	2
 2062              	.L136:
 2063 0044 A1000000 		.word	s_param_get_fresh
 2064 0048 A0000000 		.word	s_param_get
 2065              		.cfi_endproc
 2066              	.LFE80:
 2067              		.size	sbc_get_param_read, .-sbc_get_param_read
 2068              		.section	.text.sbc_get_fatal_clear,"ax",%progbits
 2069              		.align	2
 2070              		.global	sbc_get_fatal_clear
 2071              		.thumb
 2072              		.thumb_func
 2073              		.type	sbc_get_fatal_clear, %function
 2074              	sbc_get_fatal_clear:
 2075              	.LFB81:
 420:sbc_comms.c   **** 
 421:sbc_comms.c   **** uint8_t sbc_get_fatal_clear(void)
 422:sbc_comms.c   **** {
 2076              		.loc 1 422 0
 2077              		.cfi_startproc
 2078              		@ args = 0, pretend = 0, frame = 8
 2079              		@ frame_needed = 1, uses_anonymous_args = 0
 2080 0000 80B5     		push	{r7, lr}
 2081              		.cfi_def_cfa_offset 8
 2082              		.cfi_offset 7, -8
 2083              		.cfi_offset 14, -4
 2084 0002 82B0     		sub	sp, sp, #8
 2085              		.cfi_def_cfa_offset 16
 2086 0004 00AF     		add	r7, sp, #0
 2087              		.cfi_def_cfa_register 7
 423:sbc_comms.c   ****     uint8_t got = 0u;
 2088              		.loc 1 423 0
 2089 0006 0023     		movs	r3, #0
 2090 0008 FB71     		strb	r3, [r7, #7]
 424:sbc_comms.c   ****     uint8_t ist = CyEnterCriticalSection();
 2091              		.loc 1 424 0
 2092 000a FFF7FEFF 		bl	CyEnterCriticalSection
 2093 000e 0346     		mov	r3, r0
 2094 0010 BB71     		strb	r3, [r7, #6]
 425:sbc_comms.c   ****     if (s_fatal_clear_fresh)
 2095              		.loc 1 425 0
 2096 0012 094B     		ldr	r3, .L141
 2097 0014 1B78     		ldrb	r3, [r3]
 2098 0016 DBB2     		uxtb	r3, r3
 2099 0018 002B     		cmp	r3, #0
 2100 001a 04D0     		beq	.L139
 426:sbc_comms.c   ****     {
 427:sbc_comms.c   ****         s_fatal_clear_fresh = 0u;
 2101              		.loc 1 427 0
 2102 001c 064B     		ldr	r3, .L141
 2103 001e 0022     		movs	r2, #0
ARM GAS  C:\Users\yoons\AppData\Local\Temp\ccPh1RWf.s 			page 46


 2104 0020 1A70     		strb	r2, [r3]
 428:sbc_comms.c   ****         got = 1u;
 2105              		.loc 1 428 0
 2106 0022 0123     		movs	r3, #1
 2107 0024 FB71     		strb	r3, [r7, #7]
 2108              	.L139:
 429:sbc_comms.c   ****     }
 430:sbc_comms.c   ****     CyExitCriticalSection(ist);
 2109              		.loc 1 430 0
 2110 0026 BB79     		ldrb	r3, [r7, #6]	@ zero_extendqisi2
 2111 0028 1846     		mov	r0, r3
 2112 002a FFF7FEFF 		bl	CyExitCriticalSection
 431:sbc_comms.c   ****     return got;
 2113              		.loc 1 431 0
 2114 002e FB79     		ldrb	r3, [r7, #7]	@ zero_extendqisi2
 432:sbc_comms.c   **** }
 2115              		.loc 1 432 0
 2116 0030 1846     		mov	r0, r3
 2117 0032 0837     		adds	r7, r7, #8
 2118              		.cfi_def_cfa_offset 8
 2119 0034 BD46     		mov	sp, r7
 2120              		.cfi_def_cfa_register 13
 2121              		@ sp needed
 2122 0036 80BD     		pop	{r7, pc}
 2123              	.L142:
 2124              		.align	2
 2125              	.L141:
 2126 0038 A2000000 		.word	s_fatal_clear_fresh
 2127              		.cfi_endproc
 2128              	.LFE81:
 2129              		.size	sbc_get_fatal_clear, .-sbc_get_fatal_clear
 2130              		.section	.text.sbc_send_cmd_ack,"ax",%progbits
 2131              		.align	2
 2132              		.global	sbc_send_cmd_ack
 2133              		.thumb
 2134              		.thumb_func
 2135              		.type	sbc_send_cmd_ack, %function
 2136              	sbc_send_cmd_ack:
 2137              	.LFB82:
 433:sbc_comms.c   **** 
 434:sbc_comms.c   **** void sbc_send_cmd_ack(uint8_t cmd_type, uint8_t result)
 435:sbc_comms.c   **** {
 2138              		.loc 1 435 0
 2139              		.cfi_startproc
 2140              		@ args = 0, pretend = 0, frame = 16
 2141              		@ frame_needed = 1, uses_anonymous_args = 0
 2142 0000 80B5     		push	{r7, lr}
 2143              		.cfi_def_cfa_offset 8
 2144              		.cfi_offset 7, -8
 2145              		.cfi_offset 14, -4
 2146 0002 84B0     		sub	sp, sp, #16
 2147              		.cfi_def_cfa_offset 24
 2148 0004 00AF     		add	r7, sp, #0
 2149              		.cfi_def_cfa_register 7
 2150 0006 0346     		mov	r3, r0
 2151 0008 0A46     		mov	r2, r1
 2152 000a FB71     		strb	r3, [r7, #7]
ARM GAS  C:\Users\yoons\AppData\Local\Temp\ccPh1RWf.s 			page 47


 2153 000c 1346     		mov	r3, r2
 2154 000e BB71     		strb	r3, [r7, #6]
 436:sbc_comms.c   ****     uint8_t payload[2] = { cmd_type, result };
 2155              		.loc 1 436 0
 2156 0010 FB79     		ldrb	r3, [r7, #7]
 2157 0012 3B73     		strb	r3, [r7, #12]
 2158 0014 BB79     		ldrb	r3, [r7, #6]
 2159 0016 7B73     		strb	r3, [r7, #13]
 437:sbc_comms.c   ****     sbc_send_frame(PKT_CMD_ACK, payload, sizeof payload);
 2160              		.loc 1 437 0
 2161 0018 07F10C03 		add	r3, r7, #12
 2162 001c 0222     		movs	r2, #2
 2163 001e 1946     		mov	r1, r3
 2164 0020 3120     		movs	r0, #49
 2165 0022 FFF7FEFF 		bl	sbc_send_frame
 438:sbc_comms.c   **** }
 2166              		.loc 1 438 0
 2167 0026 00BF     		nop
 2168 0028 1037     		adds	r7, r7, #16
 2169              		.cfi_def_cfa_offset 8
 2170 002a BD46     		mov	sp, r7
 2171              		.cfi_def_cfa_register 13
 2172              		@ sp needed
 2173 002c 80BD     		pop	{r7, pc}
 2174              		.cfi_endproc
 2175              	.LFE82:
 2176              		.size	sbc_send_cmd_ack, .-sbc_send_cmd_ack
 2177 002e 00BF     		.section	.text.sbc_send_param_value,"ax",%progbits
 2178              		.align	2
 2179              		.global	sbc_send_param_value
 2180              		.thumb
 2181              		.thumb_func
 2182              		.type	sbc_send_param_value, %function
 2183              	sbc_send_param_value:
 2184              	.LFB83:
 439:sbc_comms.c   **** 
 440:sbc_comms.c   **** void sbc_send_param_value(uint8_t id, float value)
 441:sbc_comms.c   **** {
 2185              		.loc 1 441 0
 2186              		.cfi_startproc
 2187              		@ args = 0, pretend = 0, frame = 16
 2188              		@ frame_needed = 1, uses_anonymous_args = 0
 2189 0000 80B5     		push	{r7, lr}
 2190              		.cfi_def_cfa_offset 8
 2191              		.cfi_offset 7, -8
 2192              		.cfi_offset 14, -4
 2193 0002 84B0     		sub	sp, sp, #16
 2194              		.cfi_def_cfa_offset 24
 2195 0004 00AF     		add	r7, sp, #0
 2196              		.cfi_def_cfa_register 7
 2197 0006 0346     		mov	r3, r0
 2198 0008 3960     		str	r1, [r7]	@ float
 2199 000a FB71     		strb	r3, [r7, #7]
 442:sbc_comms.c   ****     uint8_t payload[5];
 443:sbc_comms.c   ****     payload[0] = id;
 2200              		.loc 1 443 0
 2201 000c FB79     		ldrb	r3, [r7, #7]
ARM GAS  C:\Users\yoons\AppData\Local\Temp\ccPh1RWf.s 			page 48


 2202 000e 3B72     		strb	r3, [r7, #8]
 444:sbc_comms.c   ****     memcpy(payload + 1, &value, 4);
 2203              		.loc 1 444 0
 2204 0010 07F10803 		add	r3, r7, #8
 2205 0014 0133     		adds	r3, r3, #1
 2206 0016 3946     		mov	r1, r7
 2207 0018 0422     		movs	r2, #4
 2208 001a 1846     		mov	r0, r3
 2209 001c FFF7FEFF 		bl	memcpy
 445:sbc_comms.c   ****     sbc_send_frame(PKT_PARAM_VALUE, payload, sizeof payload);
 2210              		.loc 1 445 0
 2211 0020 07F10803 		add	r3, r7, #8
 2212 0024 0522     		movs	r2, #5
 2213 0026 1946     		mov	r1, r3
 2214 0028 3420     		movs	r0, #52
 2215 002a FFF7FEFF 		bl	sbc_send_frame
 446:sbc_comms.c   **** }
 2216              		.loc 1 446 0
 2217 002e 00BF     		nop
 2218 0030 1037     		adds	r7, r7, #16
 2219              		.cfi_def_cfa_offset 8
 2220 0032 BD46     		mov	sp, r7
 2221              		.cfi_def_cfa_register 13
 2222              		@ sp needed
 2223 0034 80BD     		pop	{r7, pc}
 2224              		.cfi_endproc
 2225              	.LFE83:
 2226              		.size	sbc_send_param_value, .-sbc_send_param_value
 2227 0036 00BF     		.section	.text.sbc_get_set_origin,"ax",%progbits
 2228              		.align	2
 2229              		.global	sbc_get_set_origin
 2230              		.thumb
 2231              		.thumb_func
 2232              		.type	sbc_get_set_origin, %function
 2233              	sbc_get_set_origin:
 2234              	.LFB84:
 447:sbc_comms.c   **** 
 448:sbc_comms.c   **** uint8_t sbc_get_set_origin(void)
 449:sbc_comms.c   **** {
 2235              		.loc 1 449 0
 2236              		.cfi_startproc
 2237              		@ args = 0, pretend = 0, frame = 8
 2238              		@ frame_needed = 1, uses_anonymous_args = 0
 2239 0000 80B5     		push	{r7, lr}
 2240              		.cfi_def_cfa_offset 8
 2241              		.cfi_offset 7, -8
 2242              		.cfi_offset 14, -4
 2243 0002 82B0     		sub	sp, sp, #8
 2244              		.cfi_def_cfa_offset 16
 2245 0004 00AF     		add	r7, sp, #0
 2246              		.cfi_def_cfa_register 7
 450:sbc_comms.c   ****     uint8_t got = 0u;
 2247              		.loc 1 450 0
 2248 0006 0023     		movs	r3, #0
 2249 0008 FB71     		strb	r3, [r7, #7]
 451:sbc_comms.c   ****     uint8_t ist = CyEnterCriticalSection();
 2250              		.loc 1 451 0
ARM GAS  C:\Users\yoons\AppData\Local\Temp\ccPh1RWf.s 			page 49


 2251 000a FFF7FEFF 		bl	CyEnterCriticalSection
 2252 000e 0346     		mov	r3, r0
 2253 0010 BB71     		strb	r3, [r7, #6]
 452:sbc_comms.c   ****     if (s_set_origin_fresh) {
 2254              		.loc 1 452 0
 2255 0012 094B     		ldr	r3, .L148
 2256 0014 1B78     		ldrb	r3, [r3]
 2257 0016 DBB2     		uxtb	r3, r3
 2258 0018 002B     		cmp	r3, #0
 2259 001a 04D0     		beq	.L146
 453:sbc_comms.c   ****         s_set_origin_fresh = 0u;
 2260              		.loc 1 453 0
 2261 001c 064B     		ldr	r3, .L148
 2262 001e 0022     		movs	r2, #0
 2263 0020 1A70     		strb	r2, [r3]
 454:sbc_comms.c   ****         got = 1u;
 2264              		.loc 1 454 0
 2265 0022 0123     		movs	r3, #1
 2266 0024 FB71     		strb	r3, [r7, #7]
 2267              	.L146:
 455:sbc_comms.c   ****     }
 456:sbc_comms.c   ****     CyExitCriticalSection(ist);
 2268              		.loc 1 456 0
 2269 0026 BB79     		ldrb	r3, [r7, #6]	@ zero_extendqisi2
 2270 0028 1846     		mov	r0, r3
 2271 002a FFF7FEFF 		bl	CyExitCriticalSection
 457:sbc_comms.c   ****     return got;
 2272              		.loc 1 457 0
 2273 002e FB79     		ldrb	r3, [r7, #7]	@ zero_extendqisi2
 458:sbc_comms.c   **** }
 2274              		.loc 1 458 0
 2275 0030 1846     		mov	r0, r3
 2276 0032 0837     		adds	r7, r7, #8
 2277              		.cfi_def_cfa_offset 8
 2278 0034 BD46     		mov	sp, r7
 2279              		.cfi_def_cfa_register 13
 2280              		@ sp needed
 2281 0036 80BD     		pop	{r7, pc}
 2282              	.L149:
 2283              		.align	2
 2284              	.L148:
 2285 0038 9D000000 		.word	s_set_origin_fresh
 2286              		.cfi_endproc
 2287              	.LFE84:
 2288              		.size	sbc_get_set_origin, .-sbc_get_set_origin
 2289              		.section	.text.sbc_send_state_ack,"ax",%progbits
 2290              		.align	2
 2291              		.global	sbc_send_state_ack
 2292              		.thumb
 2293              		.thumb_func
 2294              		.type	sbc_send_state_ack, %function
 2295              	sbc_send_state_ack:
 2296              	.LFB85:
 459:sbc_comms.c   **** 
 460:sbc_comms.c   **** void sbc_send_state_ack(uint8_t actual_state, uint8_t result)
 461:sbc_comms.c   **** {
 2297              		.loc 1 461 0
ARM GAS  C:\Users\yoons\AppData\Local\Temp\ccPh1RWf.s 			page 50


 2298              		.cfi_startproc
 2299              		@ args = 0, pretend = 0, frame = 16
 2300              		@ frame_needed = 1, uses_anonymous_args = 0
 2301 0000 80B5     		push	{r7, lr}
 2302              		.cfi_def_cfa_offset 8
 2303              		.cfi_offset 7, -8
 2304              		.cfi_offset 14, -4
 2305 0002 84B0     		sub	sp, sp, #16
 2306              		.cfi_def_cfa_offset 24
 2307 0004 00AF     		add	r7, sp, #0
 2308              		.cfi_def_cfa_register 7
 2309 0006 0346     		mov	r3, r0
 2310 0008 0A46     		mov	r2, r1
 2311 000a FB71     		strb	r3, [r7, #7]
 2312 000c 1346     		mov	r3, r2
 2313 000e BB71     		strb	r3, [r7, #6]
 462:sbc_comms.c   ****     uint8_t payload[2] = { actual_state, result };
 2314              		.loc 1 462 0
 2315 0010 FB79     		ldrb	r3, [r7, #7]
 2316 0012 3B73     		strb	r3, [r7, #12]
 2317 0014 BB79     		ldrb	r3, [r7, #6]
 2318 0016 7B73     		strb	r3, [r7, #13]
 463:sbc_comms.c   ****     sbc_send_frame(PKT_STATE_ACK, payload, sizeof payload);
 2319              		.loc 1 463 0
 2320 0018 07F10C03 		add	r3, r7, #12
 2321 001c 0222     		movs	r2, #2
 2322 001e 1946     		mov	r1, r3
 2323 0020 3020     		movs	r0, #48
 2324 0022 FFF7FEFF 		bl	sbc_send_frame
 464:sbc_comms.c   **** }
 2325              		.loc 1 464 0
 2326 0026 00BF     		nop
 2327 0028 1037     		adds	r7, r7, #16
 2328              		.cfi_def_cfa_offset 8
 2329 002a BD46     		mov	sp, r7
 2330              		.cfi_def_cfa_register 13
 2331              		@ sp needed
 2332 002c 80BD     		pop	{r7, pc}
 2333              		.cfi_endproc
 2334              	.LFE85:
 2335              		.size	sbc_send_state_ack, .-sbc_send_state_ack
 2336 002e 00BF     		.text
 2337              	.Letext0:
 2338              		.file 2 "c:\\program files (x86)\\cypress\\psoc creator\\4.4\\psoc creator\\import\\gnu\\arm\\5.4.
 2339              		.file 3 "c:\\program files (x86)\\cypress\\psoc creator\\4.4\\psoc creator\\import\\gnu\\arm\\5.4.
 2340              		.file 4 "sbc_comms.h"
 2341              		.file 5 "Generated_Source\\PSoC5/core_cm3.h"