ARM GAS  C:\Users\yoons\AppData\Local\Temp\ccGfsb44.s 			page 1


   1              		.syntax unified
   2              		.cpu cortex-m3
   3              		.fpu softvfp
   4              		.eabi_attribute 20, 1
   5              		.eabi_attribute 21, 1
   6              		.eabi_attribute 23, 3
   7              		.eabi_attribute 24, 1
   8              		.eabi_attribute 25, 1
   9              		.eabi_attribute 26, 1
  10              		.eabi_attribute 30, 6
  11              		.eabi_attribute 34, 1
  12              		.eabi_attribute 18, 4
  13              		.thumb
  14              		.syntax unified
  15              		.file	"utils.c"
  16              		.text
  17              	.Ltext0:
  18              		.cfi_sections	.debug_frame
  19              		.section	.text.gimbal_pan_tilt_deg,"ax",%progbits
  20              		.align	2
  21              		.global	gimbal_pan_tilt_deg
  22              		.thumb
  23              		.thumb_func
  24              		.type	gimbal_pan_tilt_deg, %function
  25              	gimbal_pan_tilt_deg:
  26              	.LFB64:
  27              		.file 1 "utils.c"
   1:utils.c       **** /* ========================================
   2:utils.c       ****  *
   3:utils.c       ****  * Copyright Hamish Johnson, 2026
   4:utils.c       ****  * All Rights Reserved
   5:utils.c       ****  * UNPUBLISHED, LICENSED SOFTWARE.
   6:utils.c       ****  *
   7:utils.c       ****  * CONFIDENTIAL AND PROPRIETARY INFORMATION
   8:utils.c       ****  * WHICH IS THE PROPERTY OF 
   9:utils.c       ****  * Quantum Internet Systems Lab (QISL),
  10:utils.c       ****  * Department of Physics, SFU, Canada.
  11:utils.c       ****  *
  12:utils.c       ****  * Author: Hamish Johnson (2026)
  13:utils.c       ****  *
  14:utils.c       ****  * ========================================
  15:utils.c       ****  *
  16:utils.c       ****  * Shared utility functions.
  17:utils.c       **** */
  18:utils.c       **** 
  19:utils.c       **** #include "utils.h"
  20:utils.c       **** #include "hamfly.h"
  21:utils.c       **** #include "app_statemachine.h"  // Raise error helper
  22:utils.c       **** //#include "debug_pins.h"  // Uncoment if we add pin macros here
  23:utils.c       **** #include <project.h>  // Pustring to UART_DEBUG
  24:utils.c       **** #include <stdio.h>
  25:utils.c       **** #include <string.h>
  26:utils.c       **** 
  27:utils.c       **** extern volatile uint32_t g_tick_ms;
  28:utils.c       **** 
  29:utils.c       **** uint8_t gimbal_pan_tilt_deg(const app_ctx_t *ctx, float *pan_deg, float *tilt_deg)
  30:utils.c       **** {
ARM GAS  C:\Users\yoons\AppData\Local\Temp\ccGfsb44.s 			page 2


  28              		.loc 1 30 0
  29              		.cfi_startproc
  30              		@ args = 0, pretend = 0, frame = 256
  31              		@ frame_needed = 1, uses_anonymous_args = 0
  32 0000 80B5     		push	{r7, lr}
  33              		.cfi_def_cfa_offset 8
  34              		.cfi_offset 7, -8
  35              		.cfi_offset 14, -4
  36 0002 C0B0     		sub	sp, sp, #256
  37              		.cfi_def_cfa_offset 264
  38 0004 00AF     		add	r7, sp, #0
  39              		.cfi_def_cfa_register 7
  40 0006 F860     		str	r0, [r7, #12]
  41 0008 B960     		str	r1, [r7, #8]
  42 000a 7A60     		str	r2, [r7, #4]
  31:utils.c       ****     if (!ctx->gimbal) return 0u;
  43              		.loc 1 31 0
  44 000c FB68     		ldr	r3, [r7, #12]
  45 000e 1B68     		ldr	r3, [r3]
  46 0010 002B     		cmp	r3, #0
  47 0012 01D1     		bne	.L2
  48              		.loc 1 31 0 is_stmt 0 discriminator 1
  49 0014 0023     		movs	r3, #0
  50 0016 18E0     		b	.L5
  51              	.L2:
  32:utils.c       ****     hamfly_telemetry_t st;
  33:utils.c       ****     hamfly_get_telemetry(ctx->gimbal, &st);
  52              		.loc 1 33 0 is_stmt 1
  53 0018 FB68     		ldr	r3, [r7, #12]
  54 001a 1B68     		ldr	r3, [r3]
  55 001c 07F11402 		add	r2, r7, #20
  56 0020 1146     		mov	r1, r2
  57 0022 1846     		mov	r0, r3
  58 0024 FFF7FEFF 		bl	hamfly_get_telemetry
  34:utils.c       ****     if (!st.valid) return 0u;
  59              		.loc 1 34 0
  60 0028 3B7D     		ldrb	r3, [r7, #20]	@ zero_extendqisi2
  61 002a 83F00103 		eor	r3, r3, #1
  62 002e DBB2     		uxtb	r3, r3
  63 0030 002B     		cmp	r3, #0
  64 0032 01D0     		beq	.L4
  65              		.loc 1 34 0 is_stmt 0 discriminator 1
  66 0034 0023     		movs	r3, #0
  67 0036 08E0     		b	.L5
  68              	.L4:
  35:utils.c       ****     float roll_deg;
  36:utils.c       ****     return hamfly_telemetry_to_euler(&st, pan_deg, tilt_deg, &roll_deg);
  69              		.loc 1 36 0 is_stmt 1
  70 0038 07F11003 		add	r3, r7, #16
  71 003c 07F11400 		add	r0, r7, #20
  72 0040 7A68     		ldr	r2, [r7, #4]
  73 0042 B968     		ldr	r1, [r7, #8]
  74 0044 FFF7FEFF 		bl	hamfly_telemetry_to_euler
  75 0048 0346     		mov	r3, r0
  76              	.L5:
  37:utils.c       **** }
  77              		.loc 1 37 0 discriminator 1
ARM GAS  C:\Users\yoons\AppData\Local\Temp\ccGfsb44.s 			page 3


  78 004a 1846     		mov	r0, r3
  79 004c 07F58077 		add	r7, r7, #256
  80              		.cfi_def_cfa_offset 8
  81 0050 BD46     		mov	sp, r7
  82              		.cfi_def_cfa_register 13
  83              		@ sp needed
  84 0052 80BD     		pop	{r7, pc}
  85              		.cfi_endproc
  86              	.LFE64:
  87              		.size	gimbal_pan_tilt_deg, .-gimbal_pan_tilt_deg
  88              		.section	.rodata
  89              		.align	2
  90              	.LC0:
  91 0000 6E6F2074 		.ascii	"no telemetry (nudge ignored).\000"
  91      656C656D 
  91      65747279 
  91      20286E75 
  91      64676520 
  92              		.global	__aeabi_f2d
  93 001e 0000     		.align	2
  94              	.LC1:
  95 0020 5B4E5544 		.ascii	"[NUDGE] seed p=%.2f t=%.2f\015\012\000"
  95      47455D20 
  95      73656564 
  95      20703D25 
  95      2E326620 
  96 003d 000000   		.align	2
  97              	.LC2:
  98 0040 4E756467 		.ascii	"Nudging!\015\012\000"
  98      696E6721 
  98      0D0A00
  99              		.global	__aeabi_fadd
 100              		.global	__aeabi_fsub
 101              		.global	__aeabi_fcmplt
 102              		.global	__aeabi_fcmpgt
 103              		.section	.text.nudge_apply,"ax",%progbits
 104              		.align	2
 105              		.global	nudge_apply
 106              		.thumb
 107              		.thumb_func
 108              		.type	nudge_apply, %function
 109              	nudge_apply:
 110              	.LFB65:
  38:utils.c       **** 
  39:utils.c       **** // Nudge 1: Absolute from MANU Leaf
  40:utils.c       **** void nudge_apply(app_ctx_t *ctx, float dpan_deg, float dtilt_deg)
  41:utils.c       **** {
 111              		.loc 1 41 0
 112              		.cfi_startproc
 113              		@ args = 0, pretend = 0, frame = 88
 114              		@ frame_needed = 1, uses_anonymous_args = 0
 115 0000 F0B5     		push	{r4, r5, r6, r7, lr}
 116              		.cfi_def_cfa_offset 20
 117              		.cfi_offset 4, -20
 118              		.cfi_offset 5, -16
 119              		.cfi_offset 6, -12
 120              		.cfi_offset 7, -8
ARM GAS  C:\Users\yoons\AppData\Local\Temp\ccGfsb44.s 			page 4


 121              		.cfi_offset 14, -4
 122 0002 99B0     		sub	sp, sp, #100
 123              		.cfi_def_cfa_offset 120
 124 0004 02AF     		add	r7, sp, #8
 125              		.cfi_def_cfa 7, 112
 126 0006 F860     		str	r0, [r7, #12]
 127 0008 B960     		str	r1, [r7, #8]	@ float
 128 000a 7A60     		str	r2, [r7, #4]	@ float
  42:utils.c       ****     if (!ctx->nudge_hold) {
 129              		.loc 1 42 0
 130 000c FB68     		ldr	r3, [r7, #12]
 131 000e 93F89930 		ldrb	r3, [r3, #153]	@ zero_extendqisi2
 132 0012 002B     		cmp	r3, #0
 133 0014 41D1     		bne	.L7
 134              	.LBB2:
  43:utils.c       ****         float p, t;
  44:utils.c       ****         // Ensure connected
  45:utils.c       ****         if (!gimbal_pan_tilt_deg(ctx, &p, &t)) {
 135              		.loc 1 45 0
 136 0016 07F15002 		add	r2, r7, #80
 137 001a 07F15403 		add	r3, r7, #84
 138 001e 1946     		mov	r1, r3
 139 0020 F868     		ldr	r0, [r7, #12]
 140 0022 FFF7FEFF 		bl	gimbal_pan_tilt_deg
 141 0026 0346     		mov	r3, r0
 142 0028 002B     		cmp	r3, #0
 143 002a 05D1     		bne	.L8
  46:utils.c       ****             app_raise_error(ctx, SEV_USER, "no telemetry (nudge ignored).");
 144              		.loc 1 46 0
 145 002c 6F4A     		ldr	r2, .L30
 146 002e 0021     		movs	r1, #0
 147 0030 F868     		ldr	r0, [r7, #12]
 148 0032 FFF7FEFF 		bl	app_raise_error
 149 0036 D5E0     		b	.L6
 150              	.L8:
  47:utils.c       ****             return;
  48:utils.c       ****         }
  49:utils.c       ****         char dbg[64];
  50:utils.c       ****         sprintf(dbg, "[NUDGE] seed p=%.2f t=%.2f\r\n", p, t);
 151              		.loc 1 50 0
 152 0038 7B6D     		ldr	r3, [r7, #84]	@ float
 153 003a 1846     		mov	r0, r3
 154 003c FFF7FEFF 		bl	__aeabi_f2d
 155 0040 0546     		mov	r5, r0
 156 0042 0E46     		mov	r6, r1
 157 0044 3B6D     		ldr	r3, [r7, #80]	@ float
 158 0046 1846     		mov	r0, r3
 159 0048 FFF7FEFF 		bl	__aeabi_f2d
 160 004c 0346     		mov	r3, r0
 161 004e 0C46     		mov	r4, r1
 162 0050 07F11000 		add	r0, r7, #16
 163 0054 CDE90034 		strd	r3, [sp]
 164 0058 2A46     		mov	r2, r5
 165 005a 3346     		mov	r3, r6
 166 005c 6449     		ldr	r1, .L30+4
 167 005e FFF7FEFF 		bl	sprintf
  51:utils.c       ****         UART_DEBUG_PutString(dbg);
ARM GAS  C:\Users\yoons\AppData\Local\Temp\ccGfsb44.s 			page 5


 168              		.loc 1 51 0
 169 0062 07F11003 		add	r3, r7, #16
 170 0066 1846     		mov	r0, r3
 171 0068 FFF7FEFF 		bl	dbg_put
  52:utils.c       ****         UART_DEBUG_PutString("Nudging!\r\n");
 172              		.loc 1 52 0
 173 006c 6148     		ldr	r0, .L30+8
 174 006e FFF7FEFF 		bl	dbg_put
  53:utils.c       ****         // Save base and movement
  54:utils.c       ****         ctx->nudge_base_pan_deg  = p;
 175              		.loc 1 54 0
 176 0072 7A6D     		ldr	r2, [r7, #84]	@ float
 177 0074 FB68     		ldr	r3, [r7, #12]
 178 0076 C3F8A020 		str	r2, [r3, #160]	@ float
  55:utils.c       ****         ctx->nudge_base_tilt_deg = t;
 179              		.loc 1 55 0
 180 007a 3A6D     		ldr	r2, [r7, #80]	@ float
 181 007c FB68     		ldr	r3, [r7, #12]
 182 007e C3F8A420 		str	r2, [r3, #164]	@ float
  56:utils.c       ****         ctx->tgt_pan_deg  = p;
 183              		.loc 1 56 0
 184 0082 7A6D     		ldr	r2, [r7, #84]	@ float
 185 0084 FB68     		ldr	r3, [r7, #12]
 186 0086 C3F8A820 		str	r2, [r3, #168]	@ float
  57:utils.c       ****         ctx->tgt_tilt_deg = t;
 187              		.loc 1 57 0
 188 008a 3A6D     		ldr	r2, [r7, #80]	@ float
 189 008c FB68     		ldr	r3, [r7, #12]
 190 008e C3F8AC20 		str	r2, [r3, #172]	@ float
  58:utils.c       ****         ctx->nudge_hold = 1u;
 191              		.loc 1 58 0
 192 0092 FB68     		ldr	r3, [r7, #12]
 193 0094 0122     		movs	r2, #1
 194 0096 83F89920 		strb	r2, [r3, #153]
 195              	.L7:
 196              	.LBE2:
  59:utils.c       ****     }
  60:utils.c       ****     // Set targets after clamping to software limits
  61:utils.c       ****     ctx->tgt_pan_deg  = CLAMP(ctx->tgt_pan_deg  + dpan_deg,
 197              		.loc 1 61 0
 198 009a FB68     		ldr	r3, [r7, #12]
 199 009c D3F8A830 		ldr	r3, [r3, #168]	@ float
 200 00a0 B968     		ldr	r1, [r7, #8]	@ float
 201 00a2 1846     		mov	r0, r3
 202 00a4 FFF7FEFF 		bl	__aeabi_fadd
 203 00a8 0346     		mov	r3, r0
 204 00aa 1C46     		mov	r4, r3
 205 00ac FB68     		ldr	r3, [r7, #12]
 206 00ae D3F88030 		ldr	r3, [r3, #128]	@ float
 207 00b2 5149     		ldr	r1, .L30+12
 208 00b4 1846     		mov	r0, r3
 209 00b6 FFF7FEFF 		bl	__aeabi_fsub
 210 00ba 0346     		mov	r3, r0
 211 00bc 1946     		mov	r1, r3
 212 00be 2046     		mov	r0, r4
 213 00c0 FFF7FEFF 		bl	__aeabi_fcmplt
 214 00c4 0346     		mov	r3, r0
ARM GAS  C:\Users\yoons\AppData\Local\Temp\ccGfsb44.s 			page 6


 215 00c6 002B     		cmp	r3, #0
 216 00c8 09D0     		beq	.L26
 217              		.loc 1 61 0 is_stmt 0 discriminator 1
 218 00ca FB68     		ldr	r3, [r7, #12]
 219 00cc D3F88030 		ldr	r3, [r3, #128]	@ float
 220 00d0 4949     		ldr	r1, .L30+12
 221 00d2 1846     		mov	r0, r3
 222 00d4 FFF7FEFF 		bl	__aeabi_fsub
 223 00d8 0346     		mov	r3, r0
 224 00da 1A46     		mov	r2, r3
 225 00dc 2AE0     		b	.L12
 226              	.L26:
 227              		.loc 1 61 0 discriminator 2
 228 00de FB68     		ldr	r3, [r7, #12]
 229 00e0 D3F8A830 		ldr	r3, [r3, #168]	@ float
 230 00e4 B968     		ldr	r1, [r7, #8]	@ float
 231 00e6 1846     		mov	r0, r3
 232 00e8 FFF7FEFF 		bl	__aeabi_fadd
 233 00ec 0346     		mov	r3, r0
 234 00ee 1C46     		mov	r4, r3
 235 00f0 FB68     		ldr	r3, [r7, #12]
 236 00f2 D3F88030 		ldr	r3, [r3, #128]	@ float
 237 00f6 4049     		ldr	r1, .L30+12
 238 00f8 1846     		mov	r0, r3
 239 00fa FFF7FEFF 		bl	__aeabi_fadd
 240 00fe 0346     		mov	r3, r0
 241 0100 1946     		mov	r1, r3
 242 0102 2046     		mov	r0, r4
 243 0104 FFF7FEFF 		bl	__aeabi_fcmpgt
 244 0108 0346     		mov	r3, r0
 245 010a 002B     		cmp	r3, #0
 246 010c 09D0     		beq	.L27
 247              		.loc 1 61 0 discriminator 4
 248 010e FB68     		ldr	r3, [r7, #12]
 249 0110 D3F88030 		ldr	r3, [r3, #128]	@ float
 250 0114 3849     		ldr	r1, .L30+12
 251 0116 1846     		mov	r0, r3
 252 0118 FFF7FEFF 		bl	__aeabi_fadd
 253 011c 0346     		mov	r3, r0
 254 011e 1A46     		mov	r2, r3
 255 0120 08E0     		b	.L12
 256              	.L27:
 257              		.loc 1 61 0 discriminator 5
 258 0122 FB68     		ldr	r3, [r7, #12]
 259 0124 D3F8A830 		ldr	r3, [r3, #168]	@ float
 260 0128 B968     		ldr	r1, [r7, #8]	@ float
 261 012a 1846     		mov	r0, r3
 262 012c FFF7FEFF 		bl	__aeabi_fadd
 263 0130 0346     		mov	r3, r0
 264 0132 1A46     		mov	r2, r3
 265              	.L12:
 266              		.loc 1 61 0 discriminator 8
 267 0134 FB68     		ldr	r3, [r7, #12]
 268 0136 C3F8A820 		str	r2, [r3, #168]	@ float
  62:utils.c       ****                               ctx->origin_pan_deg + LIMIT_PAN_MIN_DEG,
  63:utils.c       ****                               ctx->origin_pan_deg + LIMIT_PAN_MAX_DEG);
  64:utils.c       ****     ctx->tgt_tilt_deg = CLAMP(ctx->tgt_tilt_deg + dtilt_deg,
ARM GAS  C:\Users\yoons\AppData\Local\Temp\ccGfsb44.s 			page 7


 269              		.loc 1 64 0 is_stmt 1 discriminator 8
 270 013a FB68     		ldr	r3, [r7, #12]
 271 013c D3F8AC30 		ldr	r3, [r3, #172]	@ float
 272 0140 7968     		ldr	r1, [r7, #4]	@ float
 273 0142 1846     		mov	r0, r3
 274 0144 FFF7FEFF 		bl	__aeabi_fadd
 275 0148 0346     		mov	r3, r0
 276 014a 1C46     		mov	r4, r3
 277 014c FB68     		ldr	r3, [r7, #12]
 278 014e D3F88430 		ldr	r3, [r3, #132]	@ float
 279 0152 2A49     		ldr	r1, .L30+16
 280 0154 1846     		mov	r0, r3
 281 0156 FFF7FEFF 		bl	__aeabi_fsub
 282 015a 0346     		mov	r3, r0
 283 015c 1946     		mov	r1, r3
 284 015e 2046     		mov	r0, r4
 285 0160 FFF7FEFF 		bl	__aeabi_fcmplt
 286 0164 0346     		mov	r3, r0
 287 0166 002B     		cmp	r3, #0
 288 0168 09D0     		beq	.L28
 289              		.loc 1 64 0 is_stmt 0 discriminator 1
 290 016a FB68     		ldr	r3, [r7, #12]
 291 016c D3F88430 		ldr	r3, [r3, #132]	@ float
 292 0170 2249     		ldr	r1, .L30+16
 293 0172 1846     		mov	r0, r3
 294 0174 FFF7FEFF 		bl	__aeabi_fsub
 295 0178 0346     		mov	r3, r0
 296 017a 1A46     		mov	r2, r3
 297 017c 2AE0     		b	.L18
 298              	.L28:
 299              		.loc 1 64 0 discriminator 2
 300 017e FB68     		ldr	r3, [r7, #12]
 301 0180 D3F8AC30 		ldr	r3, [r3, #172]	@ float
 302 0184 7968     		ldr	r1, [r7, #4]	@ float
 303 0186 1846     		mov	r0, r3
 304 0188 FFF7FEFF 		bl	__aeabi_fadd
 305 018c 0346     		mov	r3, r0
 306 018e 1C46     		mov	r4, r3
 307 0190 FB68     		ldr	r3, [r7, #12]
 308 0192 D3F88430 		ldr	r3, [r3, #132]	@ float
 309 0196 1949     		ldr	r1, .L30+16
 310 0198 1846     		mov	r0, r3
 311 019a FFF7FEFF 		bl	__aeabi_fadd
 312 019e 0346     		mov	r3, r0
 313 01a0 1946     		mov	r1, r3
 314 01a2 2046     		mov	r0, r4
 315 01a4 FFF7FEFF 		bl	__aeabi_fcmpgt
 316 01a8 0346     		mov	r3, r0
 317 01aa 002B     		cmp	r3, #0
 318 01ac 09D0     		beq	.L29
 319              		.loc 1 64 0 discriminator 4
 320 01ae FB68     		ldr	r3, [r7, #12]
 321 01b0 D3F88430 		ldr	r3, [r3, #132]	@ float
 322 01b4 1149     		ldr	r1, .L30+16
 323 01b6 1846     		mov	r0, r3
 324 01b8 FFF7FEFF 		bl	__aeabi_fadd
 325 01bc 0346     		mov	r3, r0
ARM GAS  C:\Users\yoons\AppData\Local\Temp\ccGfsb44.s 			page 8


 326 01be 1A46     		mov	r2, r3
 327 01c0 08E0     		b	.L18
 328              	.L29:
 329              		.loc 1 64 0 discriminator 5
 330 01c2 FB68     		ldr	r3, [r7, #12]
 331 01c4 D3F8AC30 		ldr	r3, [r3, #172]	@ float
 332 01c8 7968     		ldr	r1, [r7, #4]	@ float
 333 01ca 1846     		mov	r0, r3
 334 01cc FFF7FEFF 		bl	__aeabi_fadd
 335 01d0 0346     		mov	r3, r0
 336 01d2 1A46     		mov	r2, r3
 337              	.L18:
 338              		.loc 1 64 0 discriminator 8
 339 01d4 FB68     		ldr	r3, [r7, #12]
 340 01d6 C3F8AC20 		str	r2, [r3, #172]	@ float
  65:utils.c       ****                               ctx->origin_tilt_deg + LIMIT_TILT_MIN_DEG,
  66:utils.c       ****                               ctx->origin_tilt_deg + LIMIT_TILT_MAX_DEG);
  67:utils.c       ****     ctx->nudge_start_ms = g_tick_ms;
 341              		.loc 1 67 0 is_stmt 1 discriminator 8
 342 01da 094B     		ldr	r3, .L30+20
 343 01dc 1A68     		ldr	r2, [r3]
 344 01de FB68     		ldr	r3, [r7, #12]
 345 01e0 C3F89C20 		str	r2, [r3, #156]
 346              	.L6:
  68:utils.c       **** }
 347              		.loc 1 68 0
 348 01e4 5C37     		adds	r7, r7, #92
 349              		.cfi_def_cfa_offset 20
 350 01e6 BD46     		mov	sp, r7
 351              		.cfi_def_cfa_register 13
 352              		@ sp needed
 353 01e8 F0BD     		pop	{r4, r5, r6, r7, pc}
 354              	.L31:
 355 01ea 00BF     		.align	2
 356              	.L30:
 357 01ec 00000000 		.word	.LC0
 358 01f0 20000000 		.word	.LC1
 359 01f4 40000000 		.word	.LC2
 360 01f8 0000F041 		.word	1106247680
 361 01fc 0000A041 		.word	1101004800
 362 0200 00000000 		.word	g_tick_ms
 363              		.cfi_endproc
 364              	.LFE65:
 365              		.size	nudge_apply, .-nudge_apply
 366              		.section	.text.nudge_overlay_apply,"ax",%progbits
 367              		.align	2
 368              		.global	nudge_overlay_apply
 369              		.thumb
 370              		.thumb_func
 371              		.type	nudge_overlay_apply, %function
 372              	nudge_overlay_apply:
 373              	.LFB66:
  69:utils.c       **** 
  70:utils.c       **** // NUDGE 2: Velocity from any state
  71:utils.c       **** // TODO: Is this a abs or a vel nudge?
  72:utils.c       **** // Is it safe and respectful to enter from any state?
  73:utils.c       **** void nudge_overlay_apply(app_ctx_t *ctx, float dpan_deg, float dtilt_deg)
ARM GAS  C:\Users\yoons\AppData\Local\Temp\ccGfsb44.s 			page 9


  74:utils.c       **** {
 374              		.loc 1 74 0
 375              		.cfi_startproc
 376              		@ args = 0, pretend = 0, frame = 16
 377              		@ frame_needed = 1, uses_anonymous_args = 0
 378 0000 80B5     		push	{r7, lr}
 379              		.cfi_def_cfa_offset 8
 380              		.cfi_offset 7, -8
 381              		.cfi_offset 14, -4
 382 0002 84B0     		sub	sp, sp, #16
 383              		.cfi_def_cfa_offset 24
 384 0004 00AF     		add	r7, sp, #0
 385              		.cfi_def_cfa_register 7
 386 0006 F860     		str	r0, [r7, #12]
 387 0008 B960     		str	r1, [r7, #8]	@ float
 388 000a 7A60     		str	r2, [r7, #4]	@ float
  75:utils.c       ****     // Set rate targets for the burst, clamp to limits.
  76:utils.c       ****     ctx->tgt_pan_deg  = CLAMP(dpan_deg, LIMIT_PAN_MIN_DEG,  LIMIT_PAN_MAX_DEG);
 389              		.loc 1 76 0
 390 000c 1C49     		ldr	r1, .L53
 391 000e B868     		ldr	r0, [r7, #8]	@ float
 392 0010 FFF7FEFF 		bl	__aeabi_fcmplt
 393 0014 0346     		mov	r3, r0
 394 0016 002B     		cmp	r3, #0
 395 0018 01D0     		beq	.L49
 396              		.loc 1 76 0 is_stmt 0 discriminator 1
 397 001a 194B     		ldr	r3, .L53
 398 001c 09E0     		b	.L35
 399              	.L49:
 400              		.loc 1 76 0 discriminator 2
 401 001e 1949     		ldr	r1, .L53+4
 402 0020 B868     		ldr	r0, [r7, #8]	@ float
 403 0022 FFF7FEFF 		bl	__aeabi_fcmpgt
 404 0026 0346     		mov	r3, r0
 405 0028 002B     		cmp	r3, #0
 406 002a 01D0     		beq	.L50
 407              		.loc 1 76 0 discriminator 4
 408 002c 154B     		ldr	r3, .L53+4
 409 002e 00E0     		b	.L35
 410              	.L50:
 411              		.loc 1 76 0 discriminator 5
 412 0030 BB68     		ldr	r3, [r7, #8]	@ float
 413              	.L35:
 414              		.loc 1 76 0 discriminator 8
 415 0032 FA68     		ldr	r2, [r7, #12]
 416 0034 C2F8A830 		str	r3, [r2, #168]	@ float
  77:utils.c       ****     ctx->tgt_tilt_deg = CLAMP(dtilt_deg, LIMIT_TILT_MIN_DEG, LIMIT_TILT_MAX_DEG);
 417              		.loc 1 77 0 is_stmt 1 discriminator 8
 418 0038 1349     		ldr	r1, .L53+8
 419 003a 7868     		ldr	r0, [r7, #4]	@ float
 420 003c FFF7FEFF 		bl	__aeabi_fcmplt
 421 0040 0346     		mov	r3, r0
 422 0042 002B     		cmp	r3, #0
 423 0044 01D0     		beq	.L51
 424              		.loc 1 77 0 is_stmt 0 discriminator 1
 425 0046 104B     		ldr	r3, .L53+8
 426 0048 09E0     		b	.L41
ARM GAS  C:\Users\yoons\AppData\Local\Temp\ccGfsb44.s 			page 10


 427              	.L51:
 428              		.loc 1 77 0 discriminator 2
 429 004a 1049     		ldr	r1, .L53+12
 430 004c 7868     		ldr	r0, [r7, #4]	@ float
 431 004e FFF7FEFF 		bl	__aeabi_fcmpgt
 432 0052 0346     		mov	r3, r0
 433 0054 002B     		cmp	r3, #0
 434 0056 01D0     		beq	.L52
 435              		.loc 1 77 0 discriminator 4
 436 0058 0C4B     		ldr	r3, .L53+12
 437 005a 00E0     		b	.L41
 438              	.L52:
 439              		.loc 1 77 0 discriminator 5
 440 005c 7B68     		ldr	r3, [r7, #4]	@ float
 441              	.L41:
 442              		.loc 1 77 0 discriminator 8
 443 005e FA68     		ldr	r2, [r7, #12]
 444 0060 C2F8AC30 		str	r3, [r2, #172]	@ float
  78:utils.c       ****     ctx->nudge_active          = 1u;
 445              		.loc 1 78 0 is_stmt 1 discriminator 8
 446 0064 FB68     		ldr	r3, [r7, #12]
 447 0066 0122     		movs	r2, #1
 448 0068 83F8B020 		strb	r2, [r3, #176]
  79:utils.c       ****     ctx->nudge_burst_start_ms  = g_tick_ms;
 449              		.loc 1 79 0 discriminator 8
 450 006c 084B     		ldr	r3, .L53+16
 451 006e 1A68     		ldr	r2, [r3]
 452 0070 FB68     		ldr	r3, [r7, #12]
 453 0072 C3F8B420 		str	r2, [r3, #180]
  80:utils.c       **** }
 454              		.loc 1 80 0 discriminator 8
 455 0076 00BF     		nop
 456 0078 1037     		adds	r7, r7, #16
 457              		.cfi_def_cfa_offset 8
 458 007a BD46     		mov	sp, r7
 459              		.cfi_def_cfa_register 13
 460              		@ sp needed
 461 007c 80BD     		pop	{r7, pc}
 462              	.L54:
 463 007e 00BF     		.align	2
 464              	.L53:
 465 0080 0000F0C1 		.word	-1041235968
 466 0084 0000F041 		.word	1106247680
 467 0088 0000A0C1 		.word	-1046478848
 468 008c 0000A041 		.word	1101004800
 469 0090 00000000 		.word	g_tick_ms
 470              		.cfi_endproc
 471              	.LFE66:
 472              		.size	nudge_overlay_apply, .-nudge_overlay_apply
 473              		.section	.text.handle_nudge_key,"ax",%progbits
 474              		.align	2
 475              		.global	handle_nudge_key
 476              		.thumb
 477              		.thumb_func
 478              		.type	handle_nudge_key, %function
 479              	handle_nudge_key:
 480              	.LFB67:
ARM GAS  C:\Users\yoons\AppData\Local\Temp\ccGfsb44.s 			page 11


  81:utils.c       **** 
  82:utils.c       **** uint8_t handle_nudge_key(app_ctx_t *ctx, char k)
  83:utils.c       **** {
 481              		.loc 1 83 0
 482              		.cfi_startproc
 483              		@ args = 0, pretend = 0, frame = 8
 484              		@ frame_needed = 1, uses_anonymous_args = 0
 485 0000 80B5     		push	{r7, lr}
 486              		.cfi_def_cfa_offset 8
 487              		.cfi_offset 7, -8
 488              		.cfi_offset 14, -4
 489 0002 82B0     		sub	sp, sp, #8
 490              		.cfi_def_cfa_offset 16
 491 0004 00AF     		add	r7, sp, #0
 492              		.cfi_def_cfa_register 7
 493 0006 7860     		str	r0, [r7, #4]
 494 0008 0B46     		mov	r3, r1
 495 000a FB70     		strb	r3, [r7, #3]
  84:utils.c       ****     switch (k) {
 496              		.loc 1 84 0
 497 000c FB78     		ldrb	r3, [r7, #3]	@ zero_extendqisi2
 498 000e 613B     		subs	r3, r3, #97
 499 0010 162B     		cmp	r3, #22
 500 0012 77D8     		bhi	.L56
 501 0014 01A2     		adr	r2, .L58
 502 0016 52F823F0 		ldr	pc, [r2, r3, lsl #2]
 503 001a 00BF     		.p2align 2
 504              	.L58:
 505 001c E3000000 		.word	.L57+1
 506 0020 05010000 		.word	.L56+1
 507 0024 05010000 		.word	.L56+1
 508 0028 F3000000 		.word	.L59+1
 509 002c 05010000 		.word	.L56+1
 510 0030 05010000 		.word	.L56+1
 511 0034 05010000 		.word	.L56+1
 512 0038 05010000 		.word	.L56+1
 513 003c 79000000 		.word	.L60+1
 514 0040 9D000000 		.word	.L61+1
 515 0044 8B000000 		.word	.L62+1
 516 0048 AF000000 		.word	.L63+1
 517 004c 05010000 		.word	.L56+1
 518 0050 05010000 		.word	.L56+1
 519 0054 05010000 		.word	.L56+1
 520 0058 05010000 		.word	.L56+1
 521 005c 05010000 		.word	.L56+1
 522 0060 05010000 		.word	.L56+1
 523 0064 D3000000 		.word	.L64+1
 524 0068 05010000 		.word	.L56+1
 525 006c 05010000 		.word	.L56+1
 526 0070 05010000 		.word	.L56+1
 527 0074 C1000000 		.word	.L65+1
 528              		.p2align 1
 529              	.L60:
  85:utils.c       ****         case 'i': nudge_apply(ctx,  0,               +NUDGE_FINE_DEG);   return 1;
 530              		.loc 1 85 0
 531 0078 4FF07C52 		mov	r2, #1056964608
 532 007c 4FF00001 		mov	r1, #0
ARM GAS  C:\Users\yoons\AppData\Local\Temp\ccGfsb44.s 			page 12


 533 0080 7868     		ldr	r0, [r7, #4]
 534 0082 FFF7FEFF 		bl	nudge_apply
 535 0086 0123     		movs	r3, #1
 536 0088 3DE0     		b	.L66
 537              	.L62:
  86:utils.c       ****         case 'k': nudge_apply(ctx,  0,               -NUDGE_FINE_DEG);   return 1;
 538              		.loc 1 86 0
 539 008a 4FF03F42 		mov	r2, #-1090519040
 540 008e 4FF00001 		mov	r1, #0
 541 0092 7868     		ldr	r0, [r7, #4]
 542 0094 FFF7FEFF 		bl	nudge_apply
 543 0098 0123     		movs	r3, #1
 544 009a 34E0     		b	.L66
 545              	.L61:
  87:utils.c       ****         case 'j': nudge_apply(ctx, -NUDGE_FINE_DEG,   0);                return 1;
 546              		.loc 1 87 0
 547 009c 4FF00002 		mov	r2, #0
 548 00a0 4FF03F41 		mov	r1, #-1090519040
 549 00a4 7868     		ldr	r0, [r7, #4]
 550 00a6 FFF7FEFF 		bl	nudge_apply
 551 00aa 0123     		movs	r3, #1
 552 00ac 2BE0     		b	.L66
 553              	.L63:
  88:utils.c       ****         case 'l': nudge_apply(ctx, +NUDGE_FINE_DEG,   0);                return 1;
 554              		.loc 1 88 0
 555 00ae 4FF00002 		mov	r2, #0
 556 00b2 4FF07C51 		mov	r1, #1056964608
 557 00b6 7868     		ldr	r0, [r7, #4]
 558 00b8 FFF7FEFF 		bl	nudge_apply
 559 00bc 0123     		movs	r3, #1
 560 00be 22E0     		b	.L66
 561              	.L65:
  89:utils.c       ****         case 'w': nudge_apply(ctx,  0,               +NUDGE_COARSE_DEG); return 1;
 562              		.loc 1 89 0
 563 00c0 4FF07E52 		mov	r2, #1065353216
 564 00c4 4FF00001 		mov	r1, #0
 565 00c8 7868     		ldr	r0, [r7, #4]
 566 00ca FFF7FEFF 		bl	nudge_apply
 567 00ce 0123     		movs	r3, #1
 568 00d0 19E0     		b	.L66
 569              	.L64:
  90:utils.c       ****         case 's': nudge_apply(ctx,  0,               -NUDGE_COARSE_DEG); return 1;
 570              		.loc 1 90 0
 571 00d2 0F4A     		ldr	r2, .L67
 572 00d4 4FF00001 		mov	r1, #0
 573 00d8 7868     		ldr	r0, [r7, #4]
 574 00da FFF7FEFF 		bl	nudge_apply
 575 00de 0123     		movs	r3, #1
 576 00e0 11E0     		b	.L66
 577              	.L57:
  91:utils.c       ****         case 'a': nudge_apply(ctx, -NUDGE_COARSE_DEG, 0);                return 1;
 578              		.loc 1 91 0
 579 00e2 4FF00002 		mov	r2, #0
 580 00e6 0A49     		ldr	r1, .L67
 581 00e8 7868     		ldr	r0, [r7, #4]
 582 00ea FFF7FEFF 		bl	nudge_apply
 583 00ee 0123     		movs	r3, #1
ARM GAS  C:\Users\yoons\AppData\Local\Temp\ccGfsb44.s 			page 13


 584 00f0 09E0     		b	.L66
 585              	.L59:
  92:utils.c       ****         case 'd': nudge_apply(ctx, +NUDGE_COARSE_DEG, 0);                return 1;
 586              		.loc 1 92 0
 587 00f2 4FF00002 		mov	r2, #0
 588 00f6 4FF07E51 		mov	r1, #1065353216
 589 00fa 7868     		ldr	r0, [r7, #4]
 590 00fc FFF7FEFF 		bl	nudge_apply
 591 0100 0123     		movs	r3, #1
 592 0102 00E0     		b	.L66
 593              	.L56:
  93:utils.c       ****         default:  return 0;
 594              		.loc 1 93 0
 595 0104 0023     		movs	r3, #0
 596              	.L66:
  94:utils.c       ****     }
  95:utils.c       **** }
 597              		.loc 1 95 0
 598 0106 1846     		mov	r0, r3
 599 0108 0837     		adds	r7, r7, #8
 600              		.cfi_def_cfa_offset 8
 601 010a BD46     		mov	sp, r7
 602              		.cfi_def_cfa_register 13
 603              		@ sp needed
 604 010c 80BD     		pop	{r7, pc}
 605              	.L68:
 606 010e 00BF     		.align	2
 607              	.L67:
 608 0110 000080BF 		.word	-1082130432
 609              		.cfi_endproc
 610              	.LFE67:
 611              		.size	handle_nudge_key, .-handle_nudge_key
 612              		.text
 613              	.Letext0:
 614              		.file 2 "c:\\program files (x86)\\cypress\\psoc creator\\4.4\\psoc creator\\import\\gnu\\arm\\5.4.
 615              		.file 3 "c:\\program files (x86)\\cypress\\psoc creator\\4.4\\psoc creator\\import\\gnu\\arm\\5.4.
 616              		.file 4 "..\\..\\..\\HamFlyAPI\\src/hamfly_core_control.h"
 617              		.file 5 "..\\..\\..\\HamFlyAPI\\src/hamfly_core_hal.h"
 618              		.file 6 "..\\..\\..\\HamFlyAPI\\src/hamfly_core_telemetry.h"
 619              		.file 7 "..\\..\\..\\HamFlyAPI\\src/hamfly_comm_rb.h"
 620              		.file 8 "..\\..\\..\\HamFlyAPI\\src/hamfly_core_gimbal.h"
 621              		.file 9 "app_ctx.h"
 622              		.file 10 "Generated_Source\\PSoC5/core_cm3.h"