ARM GAS  C:\Users\JENNEW~1\AppData\Local\Temp\ccQ5uJSg.s 			page 1


   1              		.syntax unified
   2              		.cpu cortex-m3
   3              		.fpu softvfp
   4              		.eabi_attribute 20, 1
   5              		.eabi_attribute 21, 1
   6              		.eabi_attribute 23, 3
   7              		.eabi_attribute 24, 1
   8              		.eabi_attribute 25, 1
   9              		.eabi_attribute 26, 1
  10              		.eabi_attribute 30, 6
  11              		.eabi_attribute 34, 1
  12              		.eabi_attribute 18, 4
  13              		.thumb
  14              		.syntax unified
  15              		.file	"hamfly_qx_protocol.c"
  16              		.text
  17              	.Ltext0:
  18              		.cfi_sections	.debug_frame
  19              		.comm	QX_Servers,8,4
  20              		.comm	QX_Clients,8,4
  21              		.comm	QX_CommsPorts,140,4
  22              		.global	QX_BuildHeader_Legacy
  23              		.bss
  24              		.align	2
  25              		.type	QX_BuildHeader_Legacy, %object
  26              		.size	QX_BuildHeader_Legacy, 4
  27              	QX_BuildHeader_Legacy:
  28 0000 00000000 		.space	4
  29              		.global	QX_ParseHeader_Legacy
  30              		.align	2
  31              		.type	QX_ParseHeader_Legacy, %object
  32              		.size	QX_ParseHeader_Legacy, 4
  33              	QX_ParseHeader_Legacy:
  34 0004 00000000 		.space	4
  35              		.comm	msgPtr,4,4
  36              		.comm	rw,1,1
  37              	rw_orig:
  38 0008 00       		.space	1
  39              		.section	.text.QX_Parser_SetMsgPtr,"ax",%progbits
  40              		.align	2
  41              		.global	QX_Parser_SetMsgPtr
  42              		.thumb
  43              		.thumb_func
  44              		.type	QX_Parser_SetMsgPtr, %function
  45              	QX_Parser_SetMsgPtr:
  46              	.LFB0:
  47              		.file 1 "..\\..\\..\\HamFlyAPI\\src\\hamfly_qx_protocol.c"
   1:..\..\..\HamFlyAPI\src/hamfly_qx_protocol.c **** /* SPDX-License-Identifier: Apache-2.0
   2:..\..\..\HamFlyAPI\src/hamfly_qx_protocol.c ****  *
   3:..\..\..\HamFlyAPI\src/hamfly_qx_protocol.c ****  * Copyright 2026 Quantum Information Systems Lab, SFU Physics
   4:..\..\..\HamFlyAPI\src/hamfly_qx_protocol.c ****  *
   5:..\..\..\HamFlyAPI\src/hamfly_qx_protocol.c ****  * Based on the Freefly QX Protocol (Copyright 2017 Freefly Systems),
   6:..\..\..\HamFlyAPI\src/hamfly_qx_protocol.c ****  * originally licensed under the Apache License, Version 2.0.
   7:..\..\..\HamFlyAPI\src/hamfly_qx_protocol.c ****  *
   8:..\..\..\HamFlyAPI\src/hamfly_qx_protocol.c ****  * Licensed under the Apache License, Version 2.0 (the "License");
   9:..\..\..\HamFlyAPI\src/hamfly_qx_protocol.c ****  * you may not use this file except in compliance with the License.
  10:..\..\..\HamFlyAPI\src/hamfly_qx_protocol.c ****  * You may obtain a copy of the License at
ARM GAS  C:\Users\JENNEW~1\AppData\Local\Temp\ccQ5uJSg.s 			page 2


  11:..\..\..\HamFlyAPI\src/hamfly_qx_protocol.c ****  *
  12:..\..\..\HamFlyAPI\src/hamfly_qx_protocol.c ****  *     http://www.apache.org/licenses/LICENSE-2.0
  13:..\..\..\HamFlyAPI\src/hamfly_qx_protocol.c ****  *
  14:..\..\..\HamFlyAPI\src/hamfly_qx_protocol.c ****  * Unless required by applicable law or agreed to in writing, software
  15:..\..\..\HamFlyAPI\src/hamfly_qx_protocol.c ****  * distributed under the License is distributed on an "AS IS" BASIS,
  16:..\..\..\HamFlyAPI\src/hamfly_qx_protocol.c ****  * WITHOUT WARRANTIES OR CONDITIONS OF ANY KIND, either express or
  17:..\..\..\HamFlyAPI\src/hamfly_qx_protocol.c ****  * implied. See the License for the specific language governing
  18:..\..\..\HamFlyAPI\src/hamfly_qx_protocol.c ****  * permissions and limitations under the License.
  19:..\..\..\HamFlyAPI\src/hamfly_qx_protocol.c ****  * 
  20:..\..\..\HamFlyAPI\src/hamfly_qx_protocol.c ****  * ============================================================================
  21:..\..\..\HamFlyAPI\src/hamfly_qx_protocol.c ****  * Directly copied from the FreeflyAPI QX protocol.c/h, refactored with Claude
  22:..\..\..\HamFlyAPI\src/hamfly_qx_protocol.c ****  * Haiku into two files for posterity: hamfly_qx_protocol and hamfly_qx_app.
  23:..\..\..\HamFlyAPI\src/hamfly_qx_protocol.c ****  *
  24:..\..\..\HamFlyAPI\src/hamfly_qx_protocol.c ****  * Edits:
  25:..\..\..\HamFlyAPI\src/hamfly_qx_protocol.c ****  *  - Updated includes to consolidated files.
  26:..\..\..\HamFlyAPI\src/hamfly_qx_protocol.c ****  */
  27:..\..\..\HamFlyAPI\src/hamfly_qx_protocol.c **** 
  28:..\..\..\HamFlyAPI\src/hamfly_qx_protocol.c **** #include "hamfly_qx_protocol.h"
  29:..\..\..\HamFlyAPI\src/hamfly_qx_protocol.c **** #include <stdlib.h>
  30:..\..\..\HamFlyAPI\src/hamfly_qx_protocol.c **** #include <stdint.h>
  31:..\..\..\HamFlyAPI\src/hamfly_qx_protocol.c **** #include <string.h>
  32:..\..\..\HamFlyAPI\src/hamfly_qx_protocol.c **** #include <math.h>
  33:..\..\..\HamFlyAPI\src/hamfly_qx_protocol.c **** 
  34:..\..\..\HamFlyAPI\src/hamfly_qx_protocol.c **** /* ============================================================
  35:..\..\..\HamFlyAPI\src/hamfly_qx_protocol.c ****  * Globals
  36:..\..\..\HamFlyAPI\src/hamfly_qx_protocol.c ****  * ============================================================ */
  37:..\..\..\HamFlyAPI\src/hamfly_qx_protocol.c **** QX_Server_t    QX_Servers[QX_NUM_SRV];
  38:..\..\..\HamFlyAPI\src/hamfly_qx_protocol.c **** QX_Client_t    QX_Clients[QX_NUM_CLI];
  39:..\..\..\HamFlyAPI\src/hamfly_qx_protocol.c **** QX_CommsPort_t QX_CommsPorts[QX_NUM_OF_PORTS];
  40:..\..\..\HamFlyAPI\src/hamfly_qx_protocol.c **** 
  41:..\..\..\HamFlyAPI\src/hamfly_qx_protocol.c **** void (*QX_BuildHeader_Legacy)(QX_Msg_t *Msg_p) = NULL;
  42:..\..\..\HamFlyAPI\src/hamfly_qx_protocol.c **** void (*QX_ParseHeader_Legacy)(QX_Msg_t *Msg_p) = NULL;
  43:..\..\..\HamFlyAPI\src/hamfly_qx_protocol.c **** 
  44:..\..\..\HamFlyAPI\src/hamfly_qx_protocol.c **** /* QX_Parsing_Functions globals */
  45:..\..\..\HamFlyAPI\src/hamfly_qx_protocol.c **** volatile uint8_t *msgPtr;
  46:..\..\..\HamFlyAPI\src/hamfly_qx_protocol.c **** QB_Parser_Dir_e   rw;
  47:..\..\..\HamFlyAPI\src/hamfly_qx_protocol.c **** static QB_Parser_Dir_e rw_orig;
  48:..\..\..\HamFlyAPI\src/hamfly_qx_protocol.c **** 
  49:..\..\..\HamFlyAPI\src/hamfly_qx_protocol.c **** /* ============================================================
  50:..\..\..\HamFlyAPI\src/hamfly_qx_protocol.c ****  * Private prototypes
  51:..\..\..\HamFlyAPI\src/hamfly_qx_protocol.c ****  * ============================================================ */
  52:..\..\..\HamFlyAPI\src/hamfly_qx_protocol.c **** static QX_Stat_e QX_InitMsg          (QX_Msg_t *Msg_p);
  53:..\..\..\HamFlyAPI\src/hamfly_qx_protocol.c **** static QX_Stat_e QX_RxMsg            (QX_Msg_t *RxMsg_p);
  54:..\..\..\HamFlyAPI\src/hamfly_qx_protocol.c **** static QX_Stat_e QX_TxMsg_Setup      (QX_Msg_t *TxMsg_p);
  55:..\..\..\HamFlyAPI\src/hamfly_qx_protocol.c **** static QX_Stat_e QX_TxMsg_Finish     (QX_Msg_t *TxMsg_p);
  56:..\..\..\HamFlyAPI\src/hamfly_qx_protocol.c **** static void      QX_Srv_Rx_Read      (QX_Msg_t *RxMsg_p);
  57:..\..\..\HamFlyAPI\src/hamfly_qx_protocol.c **** static void      QX_Srv_Rx_Write     (QX_Msg_t *RxMsg_p);
  58:..\..\..\HamFlyAPI\src/hamfly_qx_protocol.c **** static void      QX_Cli_Rx_CurVal    (QX_Msg_t *RxMsg_p);
  59:..\..\..\HamFlyAPI\src/hamfly_qx_protocol.c **** static void      QX_BuildHeader      (QX_Msg_t *Msg_p);
  60:..\..\..\HamFlyAPI\src/hamfly_qx_protocol.c **** static void      QX_ParseHeader      (QX_Msg_t *Msg_p);
  61:..\..\..\HamFlyAPI\src/hamfly_qx_protocol.c **** static void      QX_AddExtdValToBuf  (uint8_t **p, uint32_t Val);
  62:..\..\..\HamFlyAPI\src/hamfly_qx_protocol.c **** static uint32_t  QX_GetExtdValFromBuf(uint8_t **p);
  63:..\..\..\HamFlyAPI\src/hamfly_qx_protocol.c **** static uint8_t   QX_Calc8bChecksum   (uint8_t *buf_p, uint32_t len);
  64:..\..\..\HamFlyAPI\src/hamfly_qx_protocol.c **** static uint32_t  QX_compute_crc32    (uint8_t data);
  65:..\..\..\HamFlyAPI\src/hamfly_qx_protocol.c **** 
  66:..\..\..\HamFlyAPI\src/hamfly_qx_protocol.c **** /* ============================================================
  67:..\..\..\HamFlyAPI\src/hamfly_qx_protocol.c ****  * Internal parser macros (QX_Parsing_Functions private)
ARM GAS  C:\Users\JENNEW~1\AppData\Local\Temp\ccQ5uJSg.s 			page 3


  68:..\..\..\HamFlyAPI\src/hamfly_qx_protocol.c ****  * ============================================================ */
  69:..\..\..\HamFlyAPI\src/hamfly_qx_protocol.c **** #define BITFIELD_MASK_1  0x01
  70:..\..\..\HamFlyAPI\src/hamfly_qx_protocol.c **** #define BITFIELD_MASK_2  0x03
  71:..\..\..\HamFlyAPI\src/hamfly_qx_protocol.c **** #define BITFIELD_MASK_3  0x07
  72:..\..\..\HamFlyAPI\src/hamfly_qx_protocol.c **** #define BITFIELD_MASK_4  0x0F
  73:..\..\..\HamFlyAPI\src/hamfly_qx_protocol.c **** #define BITFIELD_MASK_5  0x1F
  74:..\..\..\HamFlyAPI\src/hamfly_qx_protocol.c **** #define BITFIELD_MASK_6  0x3F
  75:..\..\..\HamFlyAPI\src/hamfly_qx_protocol.c **** #define BITFIELD_MASK_7  0x7F
  76:..\..\..\HamFlyAPI\src/hamfly_qx_protocol.c **** #define BITFIELD_MASK_8  0xFF
  77:..\..\..\HamFlyAPI\src/hamfly_qx_protocol.c **** 
  78:..\..\..\HamFlyAPI\src/hamfly_qx_protocol.c **** #define ADDSL(v)   { *msgPtr++ = (uint8_t)((v) >> 24); *msgPtr++ = (uint8_t)((v) >> 16); *msgPtr++ 
  79:..\..\..\HamFlyAPI\src/hamfly_qx_protocol.c **** #define ADDSS(v)   { *msgPtr++ = (uint8_t)((v) >> 8); *msgPtr++ = (uint8_t)(v); }
  80:..\..\..\HamFlyAPI\src/hamfly_qx_protocol.c **** #define ADDUS(v)   { *msgPtr++ = (uint8_t)((v) >> 8); *msgPtr++ = (uint8_t)(v); }
  81:..\..\..\HamFlyAPI\src/hamfly_qx_protocol.c **** #define ADDCHAR(v) { *msgPtr++ = (uint8_t)(v); }
  82:..\..\..\HamFlyAPI\src/hamfly_qx_protocol.c **** 
  83:..\..\..\HamFlyAPI\src/hamfly_qx_protocol.c **** #define GETUC  ((uint8_t)*msgPtr++)
  84:..\..\..\HamFlyAPI\src/hamfly_qx_protocol.c **** #define GETSC  ((int8_t)*msgPtr++)
  85:..\..\..\HamFlyAPI\src/hamfly_qx_protocol.c **** #define GETSS  ((int16_t)((*msgPtr) << 8) | (int16_t)((*(msgPtr + 1)))); msgPtr += 2;
  86:..\..\..\HamFlyAPI\src/hamfly_qx_protocol.c **** #define GETUS  ((uint16_t)((*msgPtr) << 8) | (uint16_t)((*(msgPtr + 1)))); msgPtr += 2;
  87:..\..\..\HamFlyAPI\src/hamfly_qx_protocol.c **** #define GETSL  ((int32_t)((*msgPtr) << 24) | (int32_t)((*(msgPtr+1)) << 16) | (int32_t)((*(msgPtr+2
  88:..\..\..\HamFlyAPI\src/hamfly_qx_protocol.c **** 
  89:..\..\..\HamFlyAPI\src/hamfly_qx_protocol.c **** /* ============================================================
  90:..\..\..\HamFlyAPI\src/hamfly_qx_protocol.c ****  * QX_Parsing_Functions implementations (verbatim)
  91:..\..\..\HamFlyAPI\src/hamfly_qx_protocol.c ****  * ============================================================ */
  92:..\..\..\HamFlyAPI\src/hamfly_qx_protocol.c **** 
  93:..\..\..\HamFlyAPI\src/hamfly_qx_protocol.c **** void QX_Parser_SetMsgPtr(uint8_t *p)         { msgPtr = p; }
  48              		.loc 1 93 0
  49              		.cfi_startproc
  50              		@ args = 0, pretend = 0, frame = 8
  51              		@ frame_needed = 1, uses_anonymous_args = 0
  52              		@ link register save eliminated.
  53 0000 80B4     		push	{r7}
  54              		.cfi_def_cfa_offset 4
  55              		.cfi_offset 7, -4
  56 0002 83B0     		sub	sp, sp, #12
  57              		.cfi_def_cfa_offset 16
  58 0004 00AF     		add	r7, sp, #0
  59              		.cfi_def_cfa_register 7
  60 0006 7860     		str	r0, [r7, #4]
  61              		.loc 1 93 0
  62 0008 034A     		ldr	r2, .L2
  63 000a 7B68     		ldr	r3, [r7, #4]
  64 000c 1360     		str	r3, [r2]
  65 000e 00BF     		nop
  66 0010 0C37     		adds	r7, r7, #12
  67              		.cfi_def_cfa_offset 4
  68 0012 BD46     		mov	sp, r7
  69              		.cfi_def_cfa_register 13
  70              		@ sp needed
  71 0014 80BC     		pop	{r7}
  72              		.cfi_restore 7
  73              		.cfi_def_cfa_offset 0
  74 0016 7047     		bx	lr
  75              	.L3:
  76              		.align	2
  77              	.L2:
  78 0018 00000000 		.word	msgPtr
ARM GAS  C:\Users\JENNEW~1\AppData\Local\Temp\ccQ5uJSg.s 			page 4


  79              		.cfi_endproc
  80              	.LFE0:
  81              		.size	QX_Parser_SetMsgPtr, .-QX_Parser_SetMsgPtr
  82              		.section	.text.QX_Parser_AdvMsgPtr,"ax",%progbits
  83              		.align	2
  84              		.global	QX_Parser_AdvMsgPtr
  85              		.thumb
  86              		.thumb_func
  87              		.type	QX_Parser_AdvMsgPtr, %function
  88              	QX_Parser_AdvMsgPtr:
  89              	.LFB1:
  94:..\..\..\HamFlyAPI\src/hamfly_qx_protocol.c **** void QX_Parser_AdvMsgPtr(void)               { msgPtr++; }
  90              		.loc 1 94 0
  91              		.cfi_startproc
  92              		@ args = 0, pretend = 0, frame = 0
  93              		@ frame_needed = 1, uses_anonymous_args = 0
  94              		@ link register save eliminated.
  95 0000 80B4     		push	{r7}
  96              		.cfi_def_cfa_offset 4
  97              		.cfi_offset 7, -4
  98 0002 00AF     		add	r7, sp, #0
  99              		.cfi_def_cfa_register 7
 100              		.loc 1 94 0
 101 0004 044B     		ldr	r3, .L5
 102 0006 1B68     		ldr	r3, [r3]
 103 0008 0133     		adds	r3, r3, #1
 104 000a 034A     		ldr	r2, .L5
 105 000c 1360     		str	r3, [r2]
 106 000e 00BF     		nop
 107 0010 BD46     		mov	sp, r7
 108              		.cfi_def_cfa_register 13
 109              		@ sp needed
 110 0012 80BC     		pop	{r7}
 111              		.cfi_restore 7
 112              		.cfi_def_cfa_offset 0
 113 0014 7047     		bx	lr
 114              	.L6:
 115 0016 00BF     		.align	2
 116              	.L5:
 117 0018 00000000 		.word	msgPtr
 118              		.cfi_endproc
 119              	.LFE1:
 120              		.size	QX_Parser_AdvMsgPtr, .-QX_Parser_AdvMsgPtr
 121              		.section	.text.QX_Parser_GetMsgPtr,"ax",%progbits
 122              		.align	2
 123              		.global	QX_Parser_GetMsgPtr
 124              		.thumb
 125              		.thumb_func
 126              		.type	QX_Parser_GetMsgPtr, %function
 127              	QX_Parser_GetMsgPtr:
 128              	.LFB2:
  95:..\..\..\HamFlyAPI\src/hamfly_qx_protocol.c **** volatile uint8_t *QX_Parser_GetMsgPtr(void)  { return msgPtr; }
 129              		.loc 1 95 0
 130              		.cfi_startproc
 131              		@ args = 0, pretend = 0, frame = 0
 132              		@ frame_needed = 1, uses_anonymous_args = 0
 133              		@ link register save eliminated.
ARM GAS  C:\Users\JENNEW~1\AppData\Local\Temp\ccQ5uJSg.s 			page 5


 134 0000 80B4     		push	{r7}
 135              		.cfi_def_cfa_offset 4
 136              		.cfi_offset 7, -4
 137 0002 00AF     		add	r7, sp, #0
 138              		.cfi_def_cfa_register 7
 139              		.loc 1 95 0
 140 0004 024B     		ldr	r3, .L9
 141 0006 1B68     		ldr	r3, [r3]
 142 0008 1846     		mov	r0, r3
 143 000a BD46     		mov	sp, r7
 144              		.cfi_def_cfa_register 13
 145              		@ sp needed
 146 000c 80BC     		pop	{r7}
 147              		.cfi_restore 7
 148              		.cfi_def_cfa_offset 0
 149 000e 7047     		bx	lr
 150              	.L10:
 151              		.align	2
 152              	.L9:
 153 0010 00000000 		.word	msgPtr
 154              		.cfi_endproc
 155              	.LFE2:
 156              		.size	QX_Parser_GetMsgPtr, .-QX_Parser_GetMsgPtr
 157              		.section	.text.QX_Parser_SetDir_Read,"ax",%progbits
 158              		.align	2
 159              		.global	QX_Parser_SetDir_Read
 160              		.thumb
 161              		.thumb_func
 162              		.type	QX_Parser_SetDir_Read, %function
 163              	QX_Parser_SetDir_Read:
 164              	.LFB3:
  96:..\..\..\HamFlyAPI\src/hamfly_qx_protocol.c **** void QX_Parser_SetDir_Read(void)             { rw = QB_Parser_Dir_Read; }
 165              		.loc 1 96 0
 166              		.cfi_startproc
 167              		@ args = 0, pretend = 0, frame = 0
 168              		@ frame_needed = 1, uses_anonymous_args = 0
 169              		@ link register save eliminated.
 170 0000 80B4     		push	{r7}
 171              		.cfi_def_cfa_offset 4
 172              		.cfi_offset 7, -4
 173 0002 00AF     		add	r7, sp, #0
 174              		.cfi_def_cfa_register 7
 175              		.loc 1 96 0
 176 0004 034B     		ldr	r3, .L12
 177 0006 0022     		movs	r2, #0
 178 0008 1A70     		strb	r2, [r3]
 179 000a 00BF     		nop
 180 000c BD46     		mov	sp, r7
 181              		.cfi_def_cfa_register 13
 182              		@ sp needed
 183 000e 80BC     		pop	{r7}
 184              		.cfi_restore 7
 185              		.cfi_def_cfa_offset 0
 186 0010 7047     		bx	lr
 187              	.L13:
 188 0012 00BF     		.align	2
 189              	.L12:
ARM GAS  C:\Users\JENNEW~1\AppData\Local\Temp\ccQ5uJSg.s 			page 6


 190 0014 00000000 		.word	rw
 191              		.cfi_endproc
 192              	.LFE3:
 193              		.size	QX_Parser_SetDir_Read, .-QX_Parser_SetDir_Read
 194              		.section	.text.QX_Parser_SetDir_WriteRel,"ax",%progbits
 195              		.align	2
 196              		.global	QX_Parser_SetDir_WriteRel
 197              		.thumb
 198              		.thumb_func
 199              		.type	QX_Parser_SetDir_WriteRel, %function
 200              	QX_Parser_SetDir_WriteRel:
 201              	.LFB4:
  97:..\..\..\HamFlyAPI\src/hamfly_qx_protocol.c **** void QX_Parser_SetDir_WriteRel(void)         { rw = QB_Parser_Dir_WriteDel; }
 202              		.loc 1 97 0
 203              		.cfi_startproc
 204              		@ args = 0, pretend = 0, frame = 0
 205              		@ frame_needed = 1, uses_anonymous_args = 0
 206              		@ link register save eliminated.
 207 0000 80B4     		push	{r7}
 208              		.cfi_def_cfa_offset 4
 209              		.cfi_offset 7, -4
 210 0002 00AF     		add	r7, sp, #0
 211              		.cfi_def_cfa_register 7
 212              		.loc 1 97 0
 213 0004 034B     		ldr	r3, .L15
 214 0006 0122     		movs	r2, #1
 215 0008 1A70     		strb	r2, [r3]
 216 000a 00BF     		nop
 217 000c BD46     		mov	sp, r7
 218              		.cfi_def_cfa_register 13
 219              		@ sp needed
 220 000e 80BC     		pop	{r7}
 221              		.cfi_restore 7
 222              		.cfi_def_cfa_offset 0
 223 0010 7047     		bx	lr
 224              	.L16:
 225 0012 00BF     		.align	2
 226              	.L15:
 227 0014 00000000 		.word	rw
 228              		.cfi_endproc
 229              	.LFE4:
 230              		.size	QX_Parser_SetDir_WriteRel, .-QX_Parser_SetDir_WriteRel
 231              		.section	.text.QX_Parser_SetDir_WriteAbs,"ax",%progbits
 232              		.align	2
 233              		.global	QX_Parser_SetDir_WriteAbs
 234              		.thumb
 235              		.thumb_func
 236              		.type	QX_Parser_SetDir_WriteAbs, %function
 237              	QX_Parser_SetDir_WriteAbs:
 238              	.LFB5:
  98:..\..\..\HamFlyAPI\src/hamfly_qx_protocol.c **** void QX_Parser_SetDir_WriteAbs(void)         { rw = QB_Parser_Dir_WriteAbs; }
 239              		.loc 1 98 0
 240              		.cfi_startproc
 241              		@ args = 0, pretend = 0, frame = 0
 242              		@ frame_needed = 1, uses_anonymous_args = 0
 243              		@ link register save eliminated.
 244 0000 80B4     		push	{r7}
ARM GAS  C:\Users\JENNEW~1\AppData\Local\Temp\ccQ5uJSg.s 			page 7


 245              		.cfi_def_cfa_offset 4
 246              		.cfi_offset 7, -4
 247 0002 00AF     		add	r7, sp, #0
 248              		.cfi_def_cfa_register 7
 249              		.loc 1 98 0
 250 0004 034B     		ldr	r3, .L18
 251 0006 0222     		movs	r2, #2
 252 0008 1A70     		strb	r2, [r3]
 253 000a 00BF     		nop
 254 000c BD46     		mov	sp, r7
 255              		.cfi_def_cfa_register 13
 256              		@ sp needed
 257 000e 80BC     		pop	{r7}
 258              		.cfi_restore 7
 259              		.cfi_def_cfa_offset 0
 260 0010 7047     		bx	lr
 261              	.L19:
 262 0012 00BF     		.align	2
 263              	.L18:
 264 0014 00000000 		.word	rw
 265              		.cfi_endproc
 266              	.LFE5:
 267              		.size	QX_Parser_SetDir_WriteAbs, .-QX_Parser_SetDir_WriteAbs
 268              		.section	.text.QX_Parser_GetDir,"ax",%progbits
 269              		.align	2
 270              		.global	QX_Parser_GetDir
 271              		.thumb
 272              		.thumb_func
 273              		.type	QX_Parser_GetDir, %function
 274              	QX_Parser_GetDir:
 275              	.LFB6:
  99:..\..\..\HamFlyAPI\src/hamfly_qx_protocol.c **** QB_Parser_Dir_e QX_Parser_GetDir(void)       { return rw; }
 276              		.loc 1 99 0
 277              		.cfi_startproc
 278              		@ args = 0, pretend = 0, frame = 0
 279              		@ frame_needed = 1, uses_anonymous_args = 0
 280              		@ link register save eliminated.
 281 0000 80B4     		push	{r7}
 282              		.cfi_def_cfa_offset 4
 283              		.cfi_offset 7, -4
 284 0002 00AF     		add	r7, sp, #0
 285              		.cfi_def_cfa_register 7
 286              		.loc 1 99 0
 287 0004 024B     		ldr	r3, .L22
 288 0006 1B78     		ldrb	r3, [r3]	@ zero_extendqisi2
 289 0008 1846     		mov	r0, r3
 290 000a BD46     		mov	sp, r7
 291              		.cfi_def_cfa_register 13
 292              		@ sp needed
 293 000c 80BC     		pop	{r7}
 294              		.cfi_restore 7
 295              		.cfi_def_cfa_offset 0
 296 000e 7047     		bx	lr
 297              	.L23:
 298              		.align	2
 299              	.L22:
 300 0010 00000000 		.word	rw
ARM GAS  C:\Users\JENNEW~1\AppData\Local\Temp\ccQ5uJSg.s 			page 8


 301              		.cfi_endproc
 302              	.LFE6:
 303              		.size	QX_Parser_GetDir, .-QX_Parser_GetDir
 304              		.section	.text.QX_Parser_Dir_ForceWriteAbs_Set,"ax",%progbits
 305              		.align	2
 306              		.global	QX_Parser_Dir_ForceWriteAbs_Set
 307              		.thumb
 308              		.thumb_func
 309              		.type	QX_Parser_Dir_ForceWriteAbs_Set, %function
 310              	QX_Parser_Dir_ForceWriteAbs_Set:
 311              	.LFB7:
 100:..\..\..\HamFlyAPI\src/hamfly_qx_protocol.c **** 
 101:..\..\..\HamFlyAPI\src/hamfly_qx_protocol.c **** void QX_Parser_Dir_ForceWriteAbs_Set(void) {
 312              		.loc 1 101 0
 313              		.cfi_startproc
 314              		@ args = 0, pretend = 0, frame = 0
 315              		@ frame_needed = 1, uses_anonymous_args = 0
 316              		@ link register save eliminated.
 317 0000 80B4     		push	{r7}
 318              		.cfi_def_cfa_offset 4
 319              		.cfi_offset 7, -4
 320 0002 00AF     		add	r7, sp, #0
 321              		.cfi_def_cfa_register 7
 102:..\..\..\HamFlyAPI\src/hamfly_qx_protocol.c ****     rw_orig = rw;
 322              		.loc 1 102 0
 323 0004 074B     		ldr	r3, .L27
 324 0006 1A78     		ldrb	r2, [r3]	@ zero_extendqisi2
 325 0008 074B     		ldr	r3, .L27+4
 326 000a 1A70     		strb	r2, [r3]
 103:..\..\..\HamFlyAPI\src/hamfly_qx_protocol.c ****     if (rw == QB_Parser_Dir_WriteDel) rw = QB_Parser_Dir_WriteAbs;
 327              		.loc 1 103 0
 328 000c 054B     		ldr	r3, .L27
 329 000e 1B78     		ldrb	r3, [r3]	@ zero_extendqisi2
 330 0010 012B     		cmp	r3, #1
 331 0012 02D1     		bne	.L26
 332              		.loc 1 103 0 is_stmt 0 discriminator 1
 333 0014 034B     		ldr	r3, .L27
 334 0016 0222     		movs	r2, #2
 335 0018 1A70     		strb	r2, [r3]
 336              	.L26:
 104:..\..\..\HamFlyAPI\src/hamfly_qx_protocol.c **** }
 337              		.loc 1 104 0 is_stmt 1
 338 001a 00BF     		nop
 339 001c BD46     		mov	sp, r7
 340              		.cfi_def_cfa_register 13
 341              		@ sp needed
 342 001e 80BC     		pop	{r7}
 343              		.cfi_restore 7
 344              		.cfi_def_cfa_offset 0
 345 0020 7047     		bx	lr
 346              	.L28:
 347 0022 00BF     		.align	2
 348              	.L27:
 349 0024 00000000 		.word	rw
 350 0028 08000000 		.word	rw_orig
 351              		.cfi_endproc
 352              	.LFE7:
ARM GAS  C:\Users\JENNEW~1\AppData\Local\Temp\ccQ5uJSg.s 			page 9


 353              		.size	QX_Parser_Dir_ForceWriteAbs_Set, .-QX_Parser_Dir_ForceWriteAbs_Set
 354              		.section	.text.QX_Parser_Dir_ForceWriteAbs_Reset,"ax",%progbits
 355              		.align	2
 356              		.global	QX_Parser_Dir_ForceWriteAbs_Reset
 357              		.thumb
 358              		.thumb_func
 359              		.type	QX_Parser_Dir_ForceWriteAbs_Reset, %function
 360              	QX_Parser_Dir_ForceWriteAbs_Reset:
 361              	.LFB8:
 105:..\..\..\HamFlyAPI\src/hamfly_qx_protocol.c **** void QX_Parser_Dir_ForceWriteAbs_Reset(void) { rw = rw_orig; }
 362              		.loc 1 105 0
 363              		.cfi_startproc
 364              		@ args = 0, pretend = 0, frame = 0
 365              		@ frame_needed = 1, uses_anonymous_args = 0
 366              		@ link register save eliminated.
 367 0000 80B4     		push	{r7}
 368              		.cfi_def_cfa_offset 4
 369              		.cfi_offset 7, -4
 370 0002 00AF     		add	r7, sp, #0
 371              		.cfi_def_cfa_register 7
 372              		.loc 1 105 0
 373 0004 034B     		ldr	r3, .L30
 374 0006 1A78     		ldrb	r2, [r3]	@ zero_extendqisi2
 375 0008 034B     		ldr	r3, .L30+4
 376 000a 1A70     		strb	r2, [r3]
 377 000c 00BF     		nop
 378 000e BD46     		mov	sp, r7
 379              		.cfi_def_cfa_register 13
 380              		@ sp needed
 381 0010 80BC     		pop	{r7}
 382              		.cfi_restore 7
 383              		.cfi_def_cfa_offset 0
 384 0012 7047     		bx	lr
 385              	.L31:
 386              		.align	2
 387              	.L30:
 388 0014 08000000 		.word	rw_orig
 389 0018 00000000 		.word	rw
 390              		.cfi_endproc
 391              	.LFE8:
 392              		.size	QX_Parser_Dir_ForceWriteAbs_Reset, .-QX_Parser_Dir_ForceWriteAbs_Reset
 393              		.global	__aeabi_fmul
 394              		.global	__aeabi_fcmpgt
 395              		.global	__aeabi_fcmplt
 396              		.global	__aeabi_i2f
 397              		.global	__aeabi_fadd
 398              		.global	__aeabi_f2iz
 399              		.section	.text.AddFloatAsSignedLong,"ax",%progbits
 400              		.align	2
 401              		.global	AddFloatAsSignedLong
 402              		.thumb
 403              		.thumb_func
 404              		.type	AddFloatAsSignedLong, %function
 405              	AddFloatAsSignedLong:
 406              	.LFB9:
 106:..\..\..\HamFlyAPI\src/hamfly_qx_protocol.c **** 
 107:..\..\..\HamFlyAPI\src/hamfly_qx_protocol.c **** void AddFloatAsSignedLong(float *v, uint32_t n, float scaleto) {
ARM GAS  C:\Users\JENNEW~1\AppData\Local\Temp\ccQ5uJSg.s 			page 10


 407              		.loc 1 107 0
 408              		.cfi_startproc
 409              		@ args = 0, pretend = 0, frame = 24
 410              		@ frame_needed = 1, uses_anonymous_args = 0
 411 0000 F0B5     		push	{r4, r5, r6, r7, lr}
 412              		.cfi_def_cfa_offset 20
 413              		.cfi_offset 4, -20
 414              		.cfi_offset 5, -16
 415              		.cfi_offset 6, -12
 416              		.cfi_offset 7, -8
 417              		.cfi_offset 14, -4
 418 0002 87B0     		sub	sp, sp, #28
 419              		.cfi_def_cfa_offset 48
 420 0004 00AF     		add	r7, sp, #0
 421              		.cfi_def_cfa_register 7
 422 0006 F860     		str	r0, [r7, #12]
 423 0008 B960     		str	r1, [r7, #8]
 424 000a 7A60     		str	r2, [r7, #4]	@ float
 108:..\..\..\HamFlyAPI\src/hamfly_qx_protocol.c ****     while (n--) { int32_t value = (int32_t)(((*v)*scaleto) + 0.5f*((0<*v)-(*v<0))); ADDSL(value); v
 425              		.loc 1 108 0
 426 000c 61E0     		b	.L33
 427              	.L36:
 428              	.LBB2:
 429              		.loc 1 108 0 is_stmt 0 discriminator 2
 430 000e FB68     		ldr	r3, [r7, #12]
 431 0010 1B68     		ldr	r3, [r3]	@ float
 432 0012 7968     		ldr	r1, [r7, #4]	@ float
 433 0014 1846     		mov	r0, r3
 434 0016 FFF7FEFF 		bl	__aeabi_fmul
 435 001a 0346     		mov	r3, r0
 436 001c 1E46     		mov	r6, r3
 437 001e FB68     		ldr	r3, [r7, #12]
 438 0020 1B68     		ldr	r3, [r3]	@ float
 439 0022 0122     		movs	r2, #1
 440 0024 1446     		mov	r4, r2
 441 0026 4FF00001 		mov	r1, #0
 442 002a 1846     		mov	r0, r3
 443 002c FFF7FEFF 		bl	__aeabi_fcmpgt
 444 0030 0346     		mov	r3, r0
 445 0032 002B     		cmp	r3, #0
 446 0034 01D1     		bne	.L34
 447 0036 0023     		movs	r3, #0
 448 0038 1C46     		mov	r4, r3
 449              	.L34:
 450 003a E3B2     		uxtb	r3, r4
 451 003c 1C46     		mov	r4, r3
 452 003e FB68     		ldr	r3, [r7, #12]
 453 0040 1B68     		ldr	r3, [r3]	@ float
 454 0042 0122     		movs	r2, #1
 455 0044 1546     		mov	r5, r2
 456 0046 4FF00001 		mov	r1, #0
 457 004a 1846     		mov	r0, r3
 458 004c FFF7FEFF 		bl	__aeabi_fcmplt
 459 0050 0346     		mov	r3, r0
 460 0052 002B     		cmp	r3, #0
 461 0054 01D1     		bne	.L35
 462 0056 0023     		movs	r3, #0
ARM GAS  C:\Users\JENNEW~1\AppData\Local\Temp\ccQ5uJSg.s 			page 11


 463 0058 1D46     		mov	r5, r3
 464              	.L35:
 465 005a EBB2     		uxtb	r3, r5
 466 005c E31A     		subs	r3, r4, r3
 467 005e 1846     		mov	r0, r3
 468 0060 FFF7FEFF 		bl	__aeabi_i2f
 469 0064 0346     		mov	r3, r0
 470 0066 4FF07C51 		mov	r1, #1056964608
 471 006a 1846     		mov	r0, r3
 472 006c FFF7FEFF 		bl	__aeabi_fmul
 473 0070 0346     		mov	r3, r0
 474 0072 1946     		mov	r1, r3
 475 0074 3046     		mov	r0, r6
 476 0076 FFF7FEFF 		bl	__aeabi_fadd
 477 007a 0346     		mov	r3, r0
 478 007c 1846     		mov	r0, r3
 479 007e FFF7FEFF 		bl	__aeabi_f2iz
 480 0082 0346     		mov	r3, r0
 481 0084 7B61     		str	r3, [r7, #20]
 482 0086 174B     		ldr	r3, .L37
 483 0088 1B68     		ldr	r3, [r3]
 484 008a 5A1C     		adds	r2, r3, #1
 485 008c 1549     		ldr	r1, .L37
 486 008e 0A60     		str	r2, [r1]
 487 0090 7A69     		ldr	r2, [r7, #20]
 488 0092 1216     		asrs	r2, r2, #24
 489 0094 D2B2     		uxtb	r2, r2
 490 0096 1A70     		strb	r2, [r3]
 491 0098 124B     		ldr	r3, .L37
 492 009a 1B68     		ldr	r3, [r3]
 493 009c 5A1C     		adds	r2, r3, #1
 494 009e 1149     		ldr	r1, .L37
 495 00a0 0A60     		str	r2, [r1]
 496 00a2 7A69     		ldr	r2, [r7, #20]
 497 00a4 1214     		asrs	r2, r2, #16
 498 00a6 D2B2     		uxtb	r2, r2
 499 00a8 1A70     		strb	r2, [r3]
 500 00aa 0E4B     		ldr	r3, .L37
 501 00ac 1B68     		ldr	r3, [r3]
 502 00ae 5A1C     		adds	r2, r3, #1
 503 00b0 0C49     		ldr	r1, .L37
 504 00b2 0A60     		str	r2, [r1]
 505 00b4 7A69     		ldr	r2, [r7, #20]
 506 00b6 1212     		asrs	r2, r2, #8
 507 00b8 D2B2     		uxtb	r2, r2
 508 00ba 1A70     		strb	r2, [r3]
 509 00bc 094B     		ldr	r3, .L37
 510 00be 1B68     		ldr	r3, [r3]
 511 00c0 5A1C     		adds	r2, r3, #1
 512 00c2 0849     		ldr	r1, .L37
 513 00c4 0A60     		str	r2, [r1]
 514 00c6 7A69     		ldr	r2, [r7, #20]
 515 00c8 D2B2     		uxtb	r2, r2
 516 00ca 1A70     		strb	r2, [r3]
 517 00cc FB68     		ldr	r3, [r7, #12]
 518 00ce 0433     		adds	r3, r3, #4
 519 00d0 FB60     		str	r3, [r7, #12]
ARM GAS  C:\Users\JENNEW~1\AppData\Local\Temp\ccQ5uJSg.s 			page 12


 520              	.L33:
 521              	.LBE2:
 522              		.loc 1 108 0 discriminator 1
 523 00d2 BB68     		ldr	r3, [r7, #8]
 524 00d4 5A1E     		subs	r2, r3, #1
 525 00d6 BA60     		str	r2, [r7, #8]
 526 00d8 002B     		cmp	r3, #0
 527 00da 98D1     		bne	.L36
 109:..\..\..\HamFlyAPI\src/hamfly_qx_protocol.c **** }
 528              		.loc 1 109 0 is_stmt 1
 529 00dc 00BF     		nop
 530 00de 1C37     		adds	r7, r7, #28
 531              		.cfi_def_cfa_offset 20
 532 00e0 BD46     		mov	sp, r7
 533              		.cfi_def_cfa_register 13
 534              		@ sp needed
 535 00e2 F0BD     		pop	{r4, r5, r6, r7, pc}
 536              	.L38:
 537              		.align	2
 538              	.L37:
 539 00e4 00000000 		.word	msgPtr
 540              		.cfi_endproc
 541              	.LFE9:
 542              		.size	AddFloatAsSignedLong, .-AddFloatAsSignedLong
 543              		.section	.text.AddFloatAsSignedShort,"ax",%progbits
 544              		.align	2
 545              		.global	AddFloatAsSignedShort
 546              		.thumb
 547              		.thumb_func
 548              		.type	AddFloatAsSignedShort, %function
 549              	AddFloatAsSignedShort:
 550              	.LFB10:
 110:..\..\..\HamFlyAPI\src/hamfly_qx_protocol.c **** void AddFloatAsSignedShort(float *v, uint32_t n, float scaleto) {
 551              		.loc 1 110 0
 552              		.cfi_startproc
 553              		@ args = 0, pretend = 0, frame = 24
 554              		@ frame_needed = 1, uses_anonymous_args = 0
 555 0000 F0B5     		push	{r4, r5, r6, r7, lr}
 556              		.cfi_def_cfa_offset 20
 557              		.cfi_offset 4, -20
 558              		.cfi_offset 5, -16
 559              		.cfi_offset 6, -12
 560              		.cfi_offset 7, -8
 561              		.cfi_offset 14, -4
 562 0002 87B0     		sub	sp, sp, #28
 563              		.cfi_def_cfa_offset 48
 564 0004 00AF     		add	r7, sp, #0
 565              		.cfi_def_cfa_register 7
 566 0006 F860     		str	r0, [r7, #12]
 567 0008 B960     		str	r1, [r7, #8]
 568 000a 7A60     		str	r2, [r7, #4]	@ float
 111:..\..\..\HamFlyAPI\src/hamfly_qx_protocol.c ****     while (n--) { int16_t value = (int16_t)(((*v)*scaleto) + 0.5f*((0<*v)-(*v<0))); ADDSS(value); v
 569              		.loc 1 111 0
 570 000c 51E0     		b	.L40
 571              	.L43:
 572              	.LBB3:
 573              		.loc 1 111 0 is_stmt 0 discriminator 2
ARM GAS  C:\Users\JENNEW~1\AppData\Local\Temp\ccQ5uJSg.s 			page 13


 574 000e FB68     		ldr	r3, [r7, #12]
 575 0010 1B68     		ldr	r3, [r3]	@ float
 576 0012 7968     		ldr	r1, [r7, #4]	@ float
 577 0014 1846     		mov	r0, r3
 578 0016 FFF7FEFF 		bl	__aeabi_fmul
 579 001a 0346     		mov	r3, r0
 580 001c 1E46     		mov	r6, r3
 581 001e FB68     		ldr	r3, [r7, #12]
 582 0020 1B68     		ldr	r3, [r3]	@ float
 583 0022 0122     		movs	r2, #1
 584 0024 1446     		mov	r4, r2
 585 0026 4FF00001 		mov	r1, #0
 586 002a 1846     		mov	r0, r3
 587 002c FFF7FEFF 		bl	__aeabi_fcmpgt
 588 0030 0346     		mov	r3, r0
 589 0032 002B     		cmp	r3, #0
 590 0034 01D1     		bne	.L41
 591 0036 0023     		movs	r3, #0
 592 0038 1C46     		mov	r4, r3
 593              	.L41:
 594 003a E3B2     		uxtb	r3, r4
 595 003c 1C46     		mov	r4, r3
 596 003e FB68     		ldr	r3, [r7, #12]
 597 0040 1B68     		ldr	r3, [r3]	@ float
 598 0042 0122     		movs	r2, #1
 599 0044 1546     		mov	r5, r2
 600 0046 4FF00001 		mov	r1, #0
 601 004a 1846     		mov	r0, r3
 602 004c FFF7FEFF 		bl	__aeabi_fcmplt
 603 0050 0346     		mov	r3, r0
 604 0052 002B     		cmp	r3, #0
 605 0054 01D1     		bne	.L42
 606 0056 0023     		movs	r3, #0
 607 0058 1D46     		mov	r5, r3
 608              	.L42:
 609 005a EBB2     		uxtb	r3, r5
 610 005c E31A     		subs	r3, r4, r3
 611 005e 1846     		mov	r0, r3
 612 0060 FFF7FEFF 		bl	__aeabi_i2f
 613 0064 0346     		mov	r3, r0
 614 0066 4FF07C51 		mov	r1, #1056964608
 615 006a 1846     		mov	r0, r3
 616 006c FFF7FEFF 		bl	__aeabi_fmul
 617 0070 0346     		mov	r3, r0
 618 0072 1946     		mov	r1, r3
 619 0074 3046     		mov	r0, r6
 620 0076 FFF7FEFF 		bl	__aeabi_fadd
 621 007a 0346     		mov	r3, r0
 622 007c 1846     		mov	r0, r3
 623 007e FFF7FEFF 		bl	__aeabi_f2iz
 624 0082 0346     		mov	r3, r0
 625 0084 FB82     		strh	r3, [r7, #22]	@ movhi
 626 0086 0F4B     		ldr	r3, .L44
 627 0088 1B68     		ldr	r3, [r3]
 628 008a 5A1C     		adds	r2, r3, #1
 629 008c 0D49     		ldr	r1, .L44
 630 008e 0A60     		str	r2, [r1]
ARM GAS  C:\Users\JENNEW~1\AppData\Local\Temp\ccQ5uJSg.s 			page 14


 631 0090 B7F91620 		ldrsh	r2, [r7, #22]
 632 0094 1212     		asrs	r2, r2, #8
 633 0096 12B2     		sxth	r2, r2
 634 0098 D2B2     		uxtb	r2, r2
 635 009a 1A70     		strb	r2, [r3]
 636 009c 094B     		ldr	r3, .L44
 637 009e 1B68     		ldr	r3, [r3]
 638 00a0 5A1C     		adds	r2, r3, #1
 639 00a2 0849     		ldr	r1, .L44
 640 00a4 0A60     		str	r2, [r1]
 641 00a6 FA8A     		ldrh	r2, [r7, #22]	@ movhi
 642 00a8 D2B2     		uxtb	r2, r2
 643 00aa 1A70     		strb	r2, [r3]
 644 00ac FB68     		ldr	r3, [r7, #12]
 645 00ae 0433     		adds	r3, r3, #4
 646 00b0 FB60     		str	r3, [r7, #12]
 647              	.L40:
 648              	.LBE3:
 649              		.loc 1 111 0 discriminator 1
 650 00b2 BB68     		ldr	r3, [r7, #8]
 651 00b4 5A1E     		subs	r2, r3, #1
 652 00b6 BA60     		str	r2, [r7, #8]
 653 00b8 002B     		cmp	r3, #0
 654 00ba A8D1     		bne	.L43
 112:..\..\..\HamFlyAPI\src/hamfly_qx_protocol.c **** }
 655              		.loc 1 112 0 is_stmt 1
 656 00bc 00BF     		nop
 657 00be 1C37     		adds	r7, r7, #28
 658              		.cfi_def_cfa_offset 20
 659 00c0 BD46     		mov	sp, r7
 660              		.cfi_def_cfa_register 13
 661              		@ sp needed
 662 00c2 F0BD     		pop	{r4, r5, r6, r7, pc}
 663              	.L45:
 664              		.align	2
 665              	.L44:
 666 00c4 00000000 		.word	msgPtr
 667              		.cfi_endproc
 668              	.LFE10:
 669              		.size	AddFloatAsSignedShort, .-AddFloatAsSignedShort
 670              		.section	.text.AddFloatAsSignedChar,"ax",%progbits
 671              		.align	2
 672              		.global	AddFloatAsSignedChar
 673              		.thumb
 674              		.thumb_func
 675              		.type	AddFloatAsSignedChar, %function
 676              	AddFloatAsSignedChar:
 677              	.LFB11:
 113:..\..\..\HamFlyAPI\src/hamfly_qx_protocol.c **** void AddFloatAsSignedChar(float *v, uint32_t n, float scaleto) {
 678              		.loc 1 113 0
 679              		.cfi_startproc
 680              		@ args = 0, pretend = 0, frame = 24
 681              		@ frame_needed = 1, uses_anonymous_args = 0
 682 0000 F0B5     		push	{r4, r5, r6, r7, lr}
 683              		.cfi_def_cfa_offset 20
 684              		.cfi_offset 4, -20
 685              		.cfi_offset 5, -16
ARM GAS  C:\Users\JENNEW~1\AppData\Local\Temp\ccQ5uJSg.s 			page 15


 686              		.cfi_offset 6, -12
 687              		.cfi_offset 7, -8
 688              		.cfi_offset 14, -4
 689 0002 87B0     		sub	sp, sp, #28
 690              		.cfi_def_cfa_offset 48
 691 0004 00AF     		add	r7, sp, #0
 692              		.cfi_def_cfa_register 7
 693 0006 F860     		str	r0, [r7, #12]
 694 0008 B960     		str	r1, [r7, #8]
 695 000a 7A60     		str	r2, [r7, #4]	@ float
 114:..\..\..\HamFlyAPI\src/hamfly_qx_protocol.c ****     while (n--) { int8_t value = (int8_t)(((*v)*scaleto) + 0.5f*((0<*v)-(*v<0))); ADDCHAR(value); v
 696              		.loc 1 114 0
 697 000c 45E0     		b	.L47
 698              	.L50:
 699              	.LBB4:
 700              		.loc 1 114 0 is_stmt 0 discriminator 2
 701 000e FB68     		ldr	r3, [r7, #12]
 702 0010 1B68     		ldr	r3, [r3]	@ float
 703 0012 7968     		ldr	r1, [r7, #4]	@ float
 704 0014 1846     		mov	r0, r3
 705 0016 FFF7FEFF 		bl	__aeabi_fmul
 706 001a 0346     		mov	r3, r0
 707 001c 1E46     		mov	r6, r3
 708 001e FB68     		ldr	r3, [r7, #12]
 709 0020 1B68     		ldr	r3, [r3]	@ float
 710 0022 0122     		movs	r2, #1
 711 0024 1446     		mov	r4, r2
 712 0026 4FF00001 		mov	r1, #0
 713 002a 1846     		mov	r0, r3
 714 002c FFF7FEFF 		bl	__aeabi_fcmpgt
 715 0030 0346     		mov	r3, r0
 716 0032 002B     		cmp	r3, #0
 717 0034 01D1     		bne	.L48
 718 0036 0023     		movs	r3, #0
 719 0038 1C46     		mov	r4, r3
 720              	.L48:
 721 003a E3B2     		uxtb	r3, r4
 722 003c 1C46     		mov	r4, r3
 723 003e FB68     		ldr	r3, [r7, #12]
 724 0040 1B68     		ldr	r3, [r3]	@ float
 725 0042 0122     		movs	r2, #1
 726 0044 1546     		mov	r5, r2
 727 0046 4FF00001 		mov	r1, #0
 728 004a 1846     		mov	r0, r3
 729 004c FFF7FEFF 		bl	__aeabi_fcmplt
 730 0050 0346     		mov	r3, r0
 731 0052 002B     		cmp	r3, #0
 732 0054 01D1     		bne	.L49
 733 0056 0023     		movs	r3, #0
 734 0058 1D46     		mov	r5, r3
 735              	.L49:
 736 005a EBB2     		uxtb	r3, r5
 737 005c E31A     		subs	r3, r4, r3
 738 005e 1846     		mov	r0, r3
 739 0060 FFF7FEFF 		bl	__aeabi_i2f
 740 0064 0346     		mov	r3, r0
 741 0066 4FF07C51 		mov	r1, #1056964608
ARM GAS  C:\Users\JENNEW~1\AppData\Local\Temp\ccQ5uJSg.s 			page 16


 742 006a 1846     		mov	r0, r3
 743 006c FFF7FEFF 		bl	__aeabi_fmul
 744 0070 0346     		mov	r3, r0
 745 0072 1946     		mov	r1, r3
 746 0074 3046     		mov	r0, r6
 747 0076 FFF7FEFF 		bl	__aeabi_fadd
 748 007a 0346     		mov	r3, r0
 749 007c 1846     		mov	r0, r3
 750 007e FFF7FEFF 		bl	__aeabi_f2iz
 751 0082 0346     		mov	r3, r0
 752 0084 FB75     		strb	r3, [r7, #23]
 753 0086 094B     		ldr	r3, .L51
 754 0088 1B68     		ldr	r3, [r3]
 755 008a 5A1C     		adds	r2, r3, #1
 756 008c 0749     		ldr	r1, .L51
 757 008e 0A60     		str	r2, [r1]
 758 0090 FA7D     		ldrb	r2, [r7, #23]	@ zero_extendqisi2
 759 0092 1A70     		strb	r2, [r3]
 760 0094 FB68     		ldr	r3, [r7, #12]
 761 0096 0433     		adds	r3, r3, #4
 762 0098 FB60     		str	r3, [r7, #12]
 763              	.L47:
 764              	.LBE4:
 765              		.loc 1 114 0 discriminator 1
 766 009a BB68     		ldr	r3, [r7, #8]
 767 009c 5A1E     		subs	r2, r3, #1
 768 009e BA60     		str	r2, [r7, #8]
 769 00a0 002B     		cmp	r3, #0
 770 00a2 B4D1     		bne	.L50
 115:..\..\..\HamFlyAPI\src/hamfly_qx_protocol.c **** }
 771              		.loc 1 115 0 is_stmt 1
 772 00a4 00BF     		nop
 773 00a6 1C37     		adds	r7, r7, #28
 774              		.cfi_def_cfa_offset 20
 775 00a8 BD46     		mov	sp, r7
 776              		.cfi_def_cfa_register 13
 777              		@ sp needed
 778 00aa F0BD     		pop	{r4, r5, r6, r7, pc}
 779              	.L52:
 780              		.align	2
 781              	.L51:
 782 00ac 00000000 		.word	msgPtr
 783              		.cfi_endproc
 784              	.LFE11:
 785              		.size	AddFloatAsSignedChar, .-AddFloatAsSignedChar
 786              		.global	__aeabi_f2uiz
 787              		.section	.text.AddFloatAsUnsignedChar,"ax",%progbits
 788              		.align	2
 789              		.global	AddFloatAsUnsignedChar
 790              		.thumb
 791              		.thumb_func
 792              		.type	AddFloatAsUnsignedChar, %function
 793              	AddFloatAsUnsignedChar:
 794              	.LFB12:
 116:..\..\..\HamFlyAPI\src/hamfly_qx_protocol.c **** void AddFloatAsUnsignedChar(float *v, uint32_t n, float scaleto) {
 795              		.loc 1 116 0
 796              		.cfi_startproc
ARM GAS  C:\Users\JENNEW~1\AppData\Local\Temp\ccQ5uJSg.s 			page 17


 797              		@ args = 0, pretend = 0, frame = 24
 798              		@ frame_needed = 1, uses_anonymous_args = 0
 799 0000 F0B5     		push	{r4, r5, r6, r7, lr}
 800              		.cfi_def_cfa_offset 20
 801              		.cfi_offset 4, -20
 802              		.cfi_offset 5, -16
 803              		.cfi_offset 6, -12
 804              		.cfi_offset 7, -8
 805              		.cfi_offset 14, -4
 806 0002 87B0     		sub	sp, sp, #28
 807              		.cfi_def_cfa_offset 48
 808 0004 00AF     		add	r7, sp, #0
 809              		.cfi_def_cfa_register 7
 810 0006 F860     		str	r0, [r7, #12]
 811 0008 B960     		str	r1, [r7, #8]
 812 000a 7A60     		str	r2, [r7, #4]	@ float
 117:..\..\..\HamFlyAPI\src/hamfly_qx_protocol.c ****     while (n--) { uint8_t value = (uint8_t)(((*v)*scaleto) + 0.5f*((0<*v)-(*v<0))); ADDCHAR(value);
 813              		.loc 1 117 0
 814 000c 45E0     		b	.L54
 815              	.L57:
 816              	.LBB5:
 817              		.loc 1 117 0 is_stmt 0 discriminator 2
 818 000e FB68     		ldr	r3, [r7, #12]
 819 0010 1B68     		ldr	r3, [r3]	@ float
 820 0012 7968     		ldr	r1, [r7, #4]	@ float
 821 0014 1846     		mov	r0, r3
 822 0016 FFF7FEFF 		bl	__aeabi_fmul
 823 001a 0346     		mov	r3, r0
 824 001c 1E46     		mov	r6, r3
 825 001e FB68     		ldr	r3, [r7, #12]
 826 0020 1B68     		ldr	r3, [r3]	@ float
 827 0022 0122     		movs	r2, #1
 828 0024 1446     		mov	r4, r2
 829 0026 4FF00001 		mov	r1, #0
 830 002a 1846     		mov	r0, r3
 831 002c FFF7FEFF 		bl	__aeabi_fcmpgt
 832 0030 0346     		mov	r3, r0
 833 0032 002B     		cmp	r3, #0
 834 0034 01D1     		bne	.L55
 835 0036 0023     		movs	r3, #0
 836 0038 1C46     		mov	r4, r3
 837              	.L55:
 838 003a E3B2     		uxtb	r3, r4
 839 003c 1C46     		mov	r4, r3
 840 003e FB68     		ldr	r3, [r7, #12]
 841 0040 1B68     		ldr	r3, [r3]	@ float
 842 0042 0122     		movs	r2, #1
 843 0044 1546     		mov	r5, r2
 844 0046 4FF00001 		mov	r1, #0
 845 004a 1846     		mov	r0, r3
 846 004c FFF7FEFF 		bl	__aeabi_fcmplt
 847 0050 0346     		mov	r3, r0
 848 0052 002B     		cmp	r3, #0
 849 0054 01D1     		bne	.L56
 850 0056 0023     		movs	r3, #0
 851 0058 1D46     		mov	r5, r3
 852              	.L56:
ARM GAS  C:\Users\JENNEW~1\AppData\Local\Temp\ccQ5uJSg.s 			page 18


 853 005a EBB2     		uxtb	r3, r5
 854 005c E31A     		subs	r3, r4, r3
 855 005e 1846     		mov	r0, r3
 856 0060 FFF7FEFF 		bl	__aeabi_i2f
 857 0064 0346     		mov	r3, r0
 858 0066 4FF07C51 		mov	r1, #1056964608
 859 006a 1846     		mov	r0, r3
 860 006c FFF7FEFF 		bl	__aeabi_fmul
 861 0070 0346     		mov	r3, r0
 862 0072 1946     		mov	r1, r3
 863 0074 3046     		mov	r0, r6
 864 0076 FFF7FEFF 		bl	__aeabi_fadd
 865 007a 0346     		mov	r3, r0
 866 007c 1846     		mov	r0, r3
 867 007e FFF7FEFF 		bl	__aeabi_f2uiz
 868 0082 0346     		mov	r3, r0
 869 0084 FB75     		strb	r3, [r7, #23]
 870 0086 094B     		ldr	r3, .L58
 871 0088 1B68     		ldr	r3, [r3]
 872 008a 5A1C     		adds	r2, r3, #1
 873 008c 0749     		ldr	r1, .L58
 874 008e 0A60     		str	r2, [r1]
 875 0090 FA7D     		ldrb	r2, [r7, #23]
 876 0092 1A70     		strb	r2, [r3]
 877 0094 FB68     		ldr	r3, [r7, #12]
 878 0096 0433     		adds	r3, r3, #4
 879 0098 FB60     		str	r3, [r7, #12]
 880              	.L54:
 881              	.LBE5:
 882              		.loc 1 117 0 discriminator 1
 883 009a BB68     		ldr	r3, [r7, #8]
 884 009c 5A1E     		subs	r2, r3, #1
 885 009e BA60     		str	r2, [r7, #8]
 886 00a0 002B     		cmp	r3, #0
 887 00a2 B4D1     		bne	.L57
 118:..\..\..\HamFlyAPI\src/hamfly_qx_protocol.c **** }
 888              		.loc 1 118 0 is_stmt 1
 889 00a4 00BF     		nop
 890 00a6 1C37     		adds	r7, r7, #28
 891              		.cfi_def_cfa_offset 20
 892 00a8 BD46     		mov	sp, r7
 893              		.cfi_def_cfa_register 13
 894              		@ sp needed
 895 00aa F0BD     		pop	{r4, r5, r6, r7, pc}
 896              	.L59:
 897              		.align	2
 898              	.L58:
 899 00ac 00000000 		.word	msgPtr
 900              		.cfi_endproc
 901              	.LFE12:
 902              		.size	AddFloatAsUnsignedChar, .-AddFloatAsUnsignedChar
 903              		.section	.text.AddFloatAsUnsignedShort,"ax",%progbits
 904              		.align	2
 905              		.global	AddFloatAsUnsignedShort
 906              		.thumb
 907              		.thumb_func
 908              		.type	AddFloatAsUnsignedShort, %function
ARM GAS  C:\Users\JENNEW~1\AppData\Local\Temp\ccQ5uJSg.s 			page 19


 909              	AddFloatAsUnsignedShort:
 910              	.LFB13:
 119:..\..\..\HamFlyAPI\src/hamfly_qx_protocol.c **** void AddFloatAsUnsignedShort(float *v, uint32_t n, float scaleto) {
 911              		.loc 1 119 0
 912              		.cfi_startproc
 913              		@ args = 0, pretend = 0, frame = 24
 914              		@ frame_needed = 1, uses_anonymous_args = 0
 915 0000 F0B5     		push	{r4, r5, r6, r7, lr}
 916              		.cfi_def_cfa_offset 20
 917              		.cfi_offset 4, -20
 918              		.cfi_offset 5, -16
 919              		.cfi_offset 6, -12
 920              		.cfi_offset 7, -8
 921              		.cfi_offset 14, -4
 922 0002 87B0     		sub	sp, sp, #28
 923              		.cfi_def_cfa_offset 48
 924 0004 00AF     		add	r7, sp, #0
 925              		.cfi_def_cfa_register 7
 926 0006 F860     		str	r0, [r7, #12]
 927 0008 B960     		str	r1, [r7, #8]
 928 000a 7A60     		str	r2, [r7, #4]	@ float
 120:..\..\..\HamFlyAPI\src/hamfly_qx_protocol.c ****     while (n--) { uint16_t value = (uint16_t)(((*v)*scaleto) + 0.5f*((0<*v)-(*v<0))); ADDUS(value);
 929              		.loc 1 120 0
 930 000c 50E0     		b	.L61
 931              	.L64:
 932              	.LBB6:
 933              		.loc 1 120 0 is_stmt 0 discriminator 2
 934 000e FB68     		ldr	r3, [r7, #12]
 935 0010 1B68     		ldr	r3, [r3]	@ float
 936 0012 7968     		ldr	r1, [r7, #4]	@ float
 937 0014 1846     		mov	r0, r3
 938 0016 FFF7FEFF 		bl	__aeabi_fmul
 939 001a 0346     		mov	r3, r0
 940 001c 1E46     		mov	r6, r3
 941 001e FB68     		ldr	r3, [r7, #12]
 942 0020 1B68     		ldr	r3, [r3]	@ float
 943 0022 0122     		movs	r2, #1
 944 0024 1446     		mov	r4, r2
 945 0026 4FF00001 		mov	r1, #0
 946 002a 1846     		mov	r0, r3
 947 002c FFF7FEFF 		bl	__aeabi_fcmpgt
 948 0030 0346     		mov	r3, r0
 949 0032 002B     		cmp	r3, #0
 950 0034 01D1     		bne	.L62
 951 0036 0023     		movs	r3, #0
 952 0038 1C46     		mov	r4, r3
 953              	.L62:
 954 003a E3B2     		uxtb	r3, r4
 955 003c 1C46     		mov	r4, r3
 956 003e FB68     		ldr	r3, [r7, #12]
 957 0040 1B68     		ldr	r3, [r3]	@ float
 958 0042 0122     		movs	r2, #1
 959 0044 1546     		mov	r5, r2
 960 0046 4FF00001 		mov	r1, #0
 961 004a 1846     		mov	r0, r3
 962 004c FFF7FEFF 		bl	__aeabi_fcmplt
 963 0050 0346     		mov	r3, r0
ARM GAS  C:\Users\JENNEW~1\AppData\Local\Temp\ccQ5uJSg.s 			page 20


 964 0052 002B     		cmp	r3, #0
 965 0054 01D1     		bne	.L63
 966 0056 0023     		movs	r3, #0
 967 0058 1D46     		mov	r5, r3
 968              	.L63:
 969 005a EBB2     		uxtb	r3, r5
 970 005c E31A     		subs	r3, r4, r3
 971 005e 1846     		mov	r0, r3
 972 0060 FFF7FEFF 		bl	__aeabi_i2f
 973 0064 0346     		mov	r3, r0
 974 0066 4FF07C51 		mov	r1, #1056964608
 975 006a 1846     		mov	r0, r3
 976 006c FFF7FEFF 		bl	__aeabi_fmul
 977 0070 0346     		mov	r3, r0
 978 0072 1946     		mov	r1, r3
 979 0074 3046     		mov	r0, r6
 980 0076 FFF7FEFF 		bl	__aeabi_fadd
 981 007a 0346     		mov	r3, r0
 982 007c 1846     		mov	r0, r3
 983 007e FFF7FEFF 		bl	__aeabi_f2uiz
 984 0082 0346     		mov	r3, r0
 985 0084 FB82     		strh	r3, [r7, #22]	@ movhi
 986 0086 0F4B     		ldr	r3, .L65
 987 0088 1B68     		ldr	r3, [r3]
 988 008a 5A1C     		adds	r2, r3, #1
 989 008c 0D49     		ldr	r1, .L65
 990 008e 0A60     		str	r2, [r1]
 991 0090 FA8A     		ldrh	r2, [r7, #22]
 992 0092 120A     		lsrs	r2, r2, #8
 993 0094 92B2     		uxth	r2, r2
 994 0096 D2B2     		uxtb	r2, r2
 995 0098 1A70     		strb	r2, [r3]
 996 009a 0A4B     		ldr	r3, .L65
 997 009c 1B68     		ldr	r3, [r3]
 998 009e 5A1C     		adds	r2, r3, #1
 999 00a0 0849     		ldr	r1, .L65
 1000 00a2 0A60     		str	r2, [r1]
 1001 00a4 FA8A     		ldrh	r2, [r7, #22]	@ movhi
 1002 00a6 D2B2     		uxtb	r2, r2
 1003 00a8 1A70     		strb	r2, [r3]
 1004 00aa FB68     		ldr	r3, [r7, #12]
 1005 00ac 0433     		adds	r3, r3, #4
 1006 00ae FB60     		str	r3, [r7, #12]
 1007              	.L61:
 1008              	.LBE6:
 1009              		.loc 1 120 0 discriminator 1
 1010 00b0 BB68     		ldr	r3, [r7, #8]
 1011 00b2 5A1E     		subs	r2, r3, #1
 1012 00b4 BA60     		str	r2, [r7, #8]
 1013 00b6 002B     		cmp	r3, #0
 1014 00b8 A9D1     		bne	.L64
 121:..\..\..\HamFlyAPI\src/hamfly_qx_protocol.c **** }
 1015              		.loc 1 121 0 is_stmt 1
 1016 00ba 00BF     		nop
 1017 00bc 1C37     		adds	r7, r7, #28
 1018              		.cfi_def_cfa_offset 20
 1019 00be BD46     		mov	sp, r7
ARM GAS  C:\Users\JENNEW~1\AppData\Local\Temp\ccQ5uJSg.s 			page 21


 1020              		.cfi_def_cfa_register 13
 1021              		@ sp needed
 1022 00c0 F0BD     		pop	{r4, r5, r6, r7, pc}
 1023              	.L66:
 1024 00c2 00BF     		.align	2
 1025              	.L65:
 1026 00c4 00000000 		.word	msgPtr
 1027              		.cfi_endproc
 1028              	.LFE13:
 1029              		.size	AddFloatAsUnsignedShort, .-AddFloatAsUnsignedShort
 1030              		.global	__aeabi_fcmpun
 1031              		.section	.text.GetFloatAsSignedLong,"ax",%progbits
 1032              		.align	2
 1033              		.global	GetFloatAsSignedLong
 1034              		.thumb
 1035              		.thumb_func
 1036              		.type	GetFloatAsSignedLong, %function
 1037              	GetFloatAsSignedLong:
 1038              	.LFB14:
 122:..\..\..\HamFlyAPI\src/hamfly_qx_protocol.c **** 
 123:..\..\..\HamFlyAPI\src/hamfly_qx_protocol.c **** void GetFloatAsSignedLong(float *v, uint32_t n, float max, float min, float scalefrom) {
 1039              		.loc 1 123 0
 1040              		.cfi_startproc
 1041              		@ args = 4, pretend = 0, frame = 24
 1042              		@ frame_needed = 1, uses_anonymous_args = 0
 1043 0000 80B5     		push	{r7, lr}
 1044              		.cfi_def_cfa_offset 8
 1045              		.cfi_offset 7, -8
 1046              		.cfi_offset 14, -4
 1047 0002 86B0     		sub	sp, sp, #24
 1048              		.cfi_def_cfa_offset 32
 1049 0004 00AF     		add	r7, sp, #0
 1050              		.cfi_def_cfa_register 7
 1051 0006 F860     		str	r0, [r7, #12]
 1052 0008 B960     		str	r1, [r7, #8]
 1053 000a 7A60     		str	r2, [r7, #4]	@ float
 1054 000c 3B60     		str	r3, [r7]	@ float
 124:..\..\..\HamFlyAPI\src/hamfly_qx_protocol.c ****     if (rw == QB_Parser_Dir_WriteDel) {
 1055              		.loc 1 124 0
 1056 000e 624B     		ldr	r3, .L93
 1057 0010 1B78     		ldrb	r3, [r3]	@ zero_extendqisi2
 1058 0012 012B     		cmp	r3, #1
 1059 0014 40F0B680 		bne	.L78
 125:..\..\..\HamFlyAPI\src/hamfly_qx_protocol.c ****         while (n--) { float r = (float)GETSL; r *= scalefrom; *v += r;
 1060              		.loc 1 125 0
 1061 0018 5AE0     		b	.L69
 1062              	.L76:
 1063              	.LBB7:
 1064              		.loc 1 125 0 is_stmt 0 discriminator 1
 1065 001a 604B     		ldr	r3, .L93+4
 1066 001c 1B68     		ldr	r3, [r3]
 1067 001e 1B78     		ldrb	r3, [r3]
 1068 0020 DBB2     		uxtb	r3, r3
 1069 0022 1A06     		lsls	r2, r3, #24
 1070 0024 5D4B     		ldr	r3, .L93+4
 1071 0026 1B68     		ldr	r3, [r3]
 1072 0028 0133     		adds	r3, r3, #1
ARM GAS  C:\Users\JENNEW~1\AppData\Local\Temp\ccQ5uJSg.s 			page 22


 1073 002a 1B78     		ldrb	r3, [r3]
 1074 002c DBB2     		uxtb	r3, r3
 1075 002e 1B04     		lsls	r3, r3, #16
 1076 0030 1A43     		orrs	r2, r2, r3
 1077 0032 5A4B     		ldr	r3, .L93+4
 1078 0034 1B68     		ldr	r3, [r3]
 1079 0036 0233     		adds	r3, r3, #2
 1080 0038 1B78     		ldrb	r3, [r3]
 1081 003a DBB2     		uxtb	r3, r3
 1082 003c 1B02     		lsls	r3, r3, #8
 1083 003e 1343     		orrs	r3, r3, r2
 1084 0040 564A     		ldr	r2, .L93+4
 1085 0042 1268     		ldr	r2, [r2]
 1086 0044 0332     		adds	r2, r2, #3
 1087 0046 1278     		ldrb	r2, [r2]
 1088 0048 D2B2     		uxtb	r2, r2
 1089 004a 1343     		orrs	r3, r3, r2
 1090 004c 1846     		mov	r0, r3
 1091 004e FFF7FEFF 		bl	__aeabi_i2f
 1092 0052 0346     		mov	r3, r0
 1093 0054 7B61     		str	r3, [r7, #20]	@ float
 1094 0056 514B     		ldr	r3, .L93+4
 1095 0058 1B68     		ldr	r3, [r3]
 1096 005a 0433     		adds	r3, r3, #4
 1097 005c 4F4A     		ldr	r2, .L93+4
 1098 005e 1360     		str	r3, [r2]
 1099 0060 396A     		ldr	r1, [r7, #32]	@ float
 1100 0062 7869     		ldr	r0, [r7, #20]	@ float
 1101 0064 FFF7FEFF 		bl	__aeabi_fmul
 1102 0068 0346     		mov	r3, r0
 1103 006a 7B61     		str	r3, [r7, #20]	@ float
 1104 006c FB68     		ldr	r3, [r7, #12]
 1105 006e 1B68     		ldr	r3, [r3]	@ float
 1106 0070 7969     		ldr	r1, [r7, #20]	@ float
 1107 0072 1846     		mov	r0, r3
 1108 0074 FFF7FEFF 		bl	__aeabi_fadd
 1109 0078 0346     		mov	r3, r0
 1110 007a 1A46     		mov	r2, r3
 1111 007c FB68     		ldr	r3, [r7, #12]
 1112 007e 1A60     		str	r2, [r3]	@ float
 126:..\..\..\HamFlyAPI\src/hamfly_qx_protocol.c ****             if (max<*v)*v=max; if (*v<min)*v=min; if (isnan(*v))*v=0.0f; v++; }
 1113              		.loc 1 126 0 is_stmt 1 discriminator 1
 1114 0080 FB68     		ldr	r3, [r7, #12]
 1115 0082 1B68     		ldr	r3, [r3]	@ float
 1116 0084 7968     		ldr	r1, [r7, #4]	@ float
 1117 0086 1846     		mov	r0, r3
 1118 0088 FFF7FEFF 		bl	__aeabi_fcmpgt
 1119 008c 0346     		mov	r3, r0
 1120 008e 002B     		cmp	r3, #0
 1121 0090 02D0     		beq	.L70
 1122 0092 FB68     		ldr	r3, [r7, #12]
 1123 0094 7A68     		ldr	r2, [r7, #4]	@ float
 1124 0096 1A60     		str	r2, [r3]	@ float
 1125              	.L70:
 1126              		.loc 1 126 0 is_stmt 0 discriminator 3
 1127 0098 FB68     		ldr	r3, [r7, #12]
 1128 009a 1B68     		ldr	r3, [r3]	@ float
ARM GAS  C:\Users\JENNEW~1\AppData\Local\Temp\ccQ5uJSg.s 			page 23


 1129 009c 3968     		ldr	r1, [r7]	@ float
 1130 009e 1846     		mov	r0, r3
 1131 00a0 FFF7FEFF 		bl	__aeabi_fcmplt
 1132 00a4 0346     		mov	r3, r0
 1133 00a6 002B     		cmp	r3, #0
 1134 00a8 02D0     		beq	.L72
 1135              		.loc 1 126 0 discriminator 4
 1136 00aa FB68     		ldr	r3, [r7, #12]
 1137 00ac 3A68     		ldr	r2, [r7]	@ float
 1138 00ae 1A60     		str	r2, [r3]	@ float
 1139              	.L72:
 1140              		.loc 1 126 0 discriminator 6
 1141 00b0 FB68     		ldr	r3, [r7, #12]
 1142 00b2 1B68     		ldr	r3, [r3]	@ float
 1143 00b4 1946     		mov	r1, r3
 1144 00b6 1846     		mov	r0, r3
 1145 00b8 FFF7FEFF 		bl	__aeabi_fcmpun
 1146 00bc 0346     		mov	r3, r0
 1147 00be 002B     		cmp	r3, #0
 1148 00c0 03D0     		beq	.L74
 1149              		.loc 1 126 0 discriminator 7
 1150 00c2 FB68     		ldr	r3, [r7, #12]
 1151 00c4 4FF00002 		mov	r2, #0
 1152 00c8 1A60     		str	r2, [r3]	@ float
 1153              	.L74:
 1154              		.loc 1 126 0 discriminator 9
 1155 00ca FB68     		ldr	r3, [r7, #12]
 1156 00cc 0433     		adds	r3, r3, #4
 1157 00ce FB60     		str	r3, [r7, #12]
 1158              	.L69:
 1159              	.LBE7:
 125:..\..\..\HamFlyAPI\src/hamfly_qx_protocol.c ****         while (n--) { float r = (float)GETSL; r *= scalefrom; *v += r;
 1160              		.loc 1 125 0 is_stmt 1
 1161 00d0 BB68     		ldr	r3, [r7, #8]
 1162 00d2 5A1E     		subs	r2, r3, #1
 1163 00d4 BA60     		str	r2, [r7, #8]
 1164 00d6 002B     		cmp	r3, #0
 1165 00d8 9FD1     		bne	.L76
 127:..\..\..\HamFlyAPI\src/hamfly_qx_protocol.c ****     } else {
 128:..\..\..\HamFlyAPI\src/hamfly_qx_protocol.c ****         while (n--) { float r = (float)GETSL; r *= scalefrom; *v = r;
 129:..\..\..\HamFlyAPI\src/hamfly_qx_protocol.c ****             if (max<*v)*v=max; if (*v<min)*v=min; if (isnan(*v))*v=0.0f; v++; }
 130:..\..\..\HamFlyAPI\src/hamfly_qx_protocol.c ****     }
 131:..\..\..\HamFlyAPI\src/hamfly_qx_protocol.c **** }
 1166              		.loc 1 131 0
 1167 00da 58E0     		b	.L92
 1168              	.L85:
 1169              	.LBB8:
 128:..\..\..\HamFlyAPI\src/hamfly_qx_protocol.c ****             if (max<*v)*v=max; if (*v<min)*v=min; if (isnan(*v))*v=0.0f; v++; }
 1170              		.loc 1 128 0 discriminator 1
 1171 00dc 2F4B     		ldr	r3, .L93+4
 1172 00de 1B68     		ldr	r3, [r3]
 1173 00e0 1B78     		ldrb	r3, [r3]
 1174 00e2 DBB2     		uxtb	r3, r3
 1175 00e4 1A06     		lsls	r2, r3, #24
 1176 00e6 2D4B     		ldr	r3, .L93+4
 1177 00e8 1B68     		ldr	r3, [r3]
 1178 00ea 0133     		adds	r3, r3, #1
ARM GAS  C:\Users\JENNEW~1\AppData\Local\Temp\ccQ5uJSg.s 			page 24


 1179 00ec 1B78     		ldrb	r3, [r3]
 1180 00ee DBB2     		uxtb	r3, r3
 1181 00f0 1B04     		lsls	r3, r3, #16
 1182 00f2 1A43     		orrs	r2, r2, r3
 1183 00f4 294B     		ldr	r3, .L93+4
 1184 00f6 1B68     		ldr	r3, [r3]
 1185 00f8 0233     		adds	r3, r3, #2
 1186 00fa 1B78     		ldrb	r3, [r3]
 1187 00fc DBB2     		uxtb	r3, r3
 1188 00fe 1B02     		lsls	r3, r3, #8
 1189 0100 1343     		orrs	r3, r3, r2
 1190 0102 264A     		ldr	r2, .L93+4
 1191 0104 1268     		ldr	r2, [r2]
 1192 0106 0332     		adds	r2, r2, #3
 1193 0108 1278     		ldrb	r2, [r2]
 1194 010a D2B2     		uxtb	r2, r2
 1195 010c 1343     		orrs	r3, r3, r2
 1196 010e 1846     		mov	r0, r3
 1197 0110 FFF7FEFF 		bl	__aeabi_i2f
 1198 0114 0346     		mov	r3, r0
 1199 0116 3B61     		str	r3, [r7, #16]	@ float
 1200 0118 204B     		ldr	r3, .L93+4
 1201 011a 1B68     		ldr	r3, [r3]
 1202 011c 0433     		adds	r3, r3, #4
 1203 011e 1F4A     		ldr	r2, .L93+4
 1204 0120 1360     		str	r3, [r2]
 1205 0122 396A     		ldr	r1, [r7, #32]	@ float
 1206 0124 3869     		ldr	r0, [r7, #16]	@ float
 1207 0126 FFF7FEFF 		bl	__aeabi_fmul
 1208 012a 0346     		mov	r3, r0
 1209 012c 3B61     		str	r3, [r7, #16]	@ float
 1210 012e FB68     		ldr	r3, [r7, #12]
 1211 0130 3A69     		ldr	r2, [r7, #16]	@ float
 1212 0132 1A60     		str	r2, [r3]	@ float
 129:..\..\..\HamFlyAPI\src/hamfly_qx_protocol.c ****     }
 1213              		.loc 1 129 0 discriminator 1
 1214 0134 FB68     		ldr	r3, [r7, #12]
 1215 0136 1B68     		ldr	r3, [r3]	@ float
 1216 0138 7968     		ldr	r1, [r7, #4]	@ float
 1217 013a 1846     		mov	r0, r3
 1218 013c FFF7FEFF 		bl	__aeabi_fcmpgt
 1219 0140 0346     		mov	r3, r0
 1220 0142 002B     		cmp	r3, #0
 1221 0144 02D0     		beq	.L79
 1222 0146 FB68     		ldr	r3, [r7, #12]
 1223 0148 7A68     		ldr	r2, [r7, #4]	@ float
 1224 014a 1A60     		str	r2, [r3]	@ float
 1225              	.L79:
 129:..\..\..\HamFlyAPI\src/hamfly_qx_protocol.c ****     }
 1226              		.loc 1 129 0 is_stmt 0 discriminator 3
 1227 014c FB68     		ldr	r3, [r7, #12]
 1228 014e 1B68     		ldr	r3, [r3]	@ float
 1229 0150 3968     		ldr	r1, [r7]	@ float
 1230 0152 1846     		mov	r0, r3
 1231 0154 FFF7FEFF 		bl	__aeabi_fcmplt
 1232 0158 0346     		mov	r3, r0
 1233 015a 002B     		cmp	r3, #0
ARM GAS  C:\Users\JENNEW~1\AppData\Local\Temp\ccQ5uJSg.s 			page 25


 1234 015c 02D0     		beq	.L81
 129:..\..\..\HamFlyAPI\src/hamfly_qx_protocol.c ****     }
 1235              		.loc 1 129 0 discriminator 4
 1236 015e FB68     		ldr	r3, [r7, #12]
 1237 0160 3A68     		ldr	r2, [r7]	@ float
 1238 0162 1A60     		str	r2, [r3]	@ float
 1239              	.L81:
 129:..\..\..\HamFlyAPI\src/hamfly_qx_protocol.c ****     }
 1240              		.loc 1 129 0 discriminator 6
 1241 0164 FB68     		ldr	r3, [r7, #12]
 1242 0166 1B68     		ldr	r3, [r3]	@ float
 1243 0168 1946     		mov	r1, r3
 1244 016a 1846     		mov	r0, r3
 1245 016c FFF7FEFF 		bl	__aeabi_fcmpun
 1246 0170 0346     		mov	r3, r0
 1247 0172 002B     		cmp	r3, #0
 1248 0174 03D0     		beq	.L83
 129:..\..\..\HamFlyAPI\src/hamfly_qx_protocol.c ****     }
 1249              		.loc 1 129 0 discriminator 7
 1250 0176 FB68     		ldr	r3, [r7, #12]
 1251 0178 4FF00002 		mov	r2, #0
 1252 017c 1A60     		str	r2, [r3]	@ float
 1253              	.L83:
 129:..\..\..\HamFlyAPI\src/hamfly_qx_protocol.c ****     }
 1254              		.loc 1 129 0 discriminator 9
 1255 017e FB68     		ldr	r3, [r7, #12]
 1256 0180 0433     		adds	r3, r3, #4
 1257 0182 FB60     		str	r3, [r7, #12]
 1258              	.L78:
 1259              	.LBE8:
 128:..\..\..\HamFlyAPI\src/hamfly_qx_protocol.c ****             if (max<*v)*v=max; if (*v<min)*v=min; if (isnan(*v))*v=0.0f; v++; }
 1260              		.loc 1 128 0 is_stmt 1
 1261 0184 BB68     		ldr	r3, [r7, #8]
 1262 0186 5A1E     		subs	r2, r3, #1
 1263 0188 BA60     		str	r2, [r7, #8]
 1264 018a 002B     		cmp	r3, #0
 1265 018c A6D1     		bne	.L85
 1266              	.L92:
 1267              		.loc 1 131 0
 1268 018e 00BF     		nop
 1269 0190 1837     		adds	r7, r7, #24
 1270              		.cfi_def_cfa_offset 8
 1271 0192 BD46     		mov	sp, r7
 1272              		.cfi_def_cfa_register 13
 1273              		@ sp needed
 1274 0194 80BD     		pop	{r7, pc}
 1275              	.L94:
 1276 0196 00BF     		.align	2
 1277              	.L93:
 1278 0198 00000000 		.word	rw
 1279 019c 00000000 		.word	msgPtr
 1280              		.cfi_endproc
 1281              	.LFE14:
 1282              		.size	GetFloatAsSignedLong, .-GetFloatAsSignedLong
 1283              		.section	.text.GetFloatAsSignedShort,"ax",%progbits
 1284              		.align	2
 1285              		.global	GetFloatAsSignedShort
ARM GAS  C:\Users\JENNEW~1\AppData\Local\Temp\ccQ5uJSg.s 			page 26


 1286              		.thumb
 1287              		.thumb_func
 1288              		.type	GetFloatAsSignedShort, %function
 1289              	GetFloatAsSignedShort:
 1290              	.LFB15:
 132:..\..\..\HamFlyAPI\src/hamfly_qx_protocol.c **** void GetFloatAsSignedShort(float *v, uint32_t n, float max, float min, float scalefrom) {
 1291              		.loc 1 132 0
 1292              		.cfi_startproc
 1293              		@ args = 4, pretend = 0, frame = 24
 1294              		@ frame_needed = 1, uses_anonymous_args = 0
 1295 0000 80B5     		push	{r7, lr}
 1296              		.cfi_def_cfa_offset 8
 1297              		.cfi_offset 7, -8
 1298              		.cfi_offset 14, -4
 1299 0002 86B0     		sub	sp, sp, #24
 1300              		.cfi_def_cfa_offset 32
 1301 0004 00AF     		add	r7, sp, #0
 1302              		.cfi_def_cfa_register 7
 1303 0006 F860     		str	r0, [r7, #12]
 1304 0008 B960     		str	r1, [r7, #8]
 1305 000a 7A60     		str	r2, [r7, #4]	@ float
 1306 000c 3B60     		str	r3, [r7]	@ float
 133:..\..\..\HamFlyAPI\src/hamfly_qx_protocol.c ****     if (rw == QB_Parser_Dir_WriteDel) {
 1307              		.loc 1 133 0
 1308 000e 564B     		ldr	r3, .L121
 1309 0010 1B78     		ldrb	r3, [r3]	@ zero_extendqisi2
 1310 0012 012B     		cmp	r3, #1
 1311 0014 40F09E80 		bne	.L106
 134:..\..\..\HamFlyAPI\src/hamfly_qx_protocol.c ****         while (n--) { float r = (float)GETSS; r *= scalefrom; *v += r;
 1312              		.loc 1 134 0
 1313 0018 4EE0     		b	.L97
 1314              	.L104:
 1315              	.LBB9:
 1316              		.loc 1 134 0 is_stmt 0 discriminator 1
 1317 001a 544B     		ldr	r3, .L121+4
 1318 001c 1B68     		ldr	r3, [r3]
 1319 001e 1B78     		ldrb	r3, [r3]
 1320 0020 DBB2     		uxtb	r3, r3
 1321 0022 1B02     		lsls	r3, r3, #8
 1322 0024 1BB2     		sxth	r3, r3
 1323 0026 1A46     		mov	r2, r3
 1324 0028 504B     		ldr	r3, .L121+4
 1325 002a 1B68     		ldr	r3, [r3]
 1326 002c 0133     		adds	r3, r3, #1
 1327 002e 1B78     		ldrb	r3, [r3]
 1328 0030 DBB2     		uxtb	r3, r3
 1329 0032 1343     		orrs	r3, r3, r2
 1330 0034 1846     		mov	r0, r3
 1331 0036 FFF7FEFF 		bl	__aeabi_i2f
 1332 003a 0346     		mov	r3, r0
 1333 003c 7B61     		str	r3, [r7, #20]	@ float
 1334 003e 4B4B     		ldr	r3, .L121+4
 1335 0040 1B68     		ldr	r3, [r3]
 1336 0042 0233     		adds	r3, r3, #2
 1337 0044 494A     		ldr	r2, .L121+4
 1338 0046 1360     		str	r3, [r2]
 1339 0048 396A     		ldr	r1, [r7, #32]	@ float
ARM GAS  C:\Users\JENNEW~1\AppData\Local\Temp\ccQ5uJSg.s 			page 27


 1340 004a 7869     		ldr	r0, [r7, #20]	@ float
 1341 004c FFF7FEFF 		bl	__aeabi_fmul
 1342 0050 0346     		mov	r3, r0
 1343 0052 7B61     		str	r3, [r7, #20]	@ float
 1344 0054 FB68     		ldr	r3, [r7, #12]
 1345 0056 1B68     		ldr	r3, [r3]	@ float
 1346 0058 7969     		ldr	r1, [r7, #20]	@ float
 1347 005a 1846     		mov	r0, r3
 1348 005c FFF7FEFF 		bl	__aeabi_fadd
 1349 0060 0346     		mov	r3, r0
 1350 0062 1A46     		mov	r2, r3
 1351 0064 FB68     		ldr	r3, [r7, #12]
 1352 0066 1A60     		str	r2, [r3]	@ float
 135:..\..\..\HamFlyAPI\src/hamfly_qx_protocol.c ****             if (max<*v)*v=max; if (*v<min)*v=min; if (isnan(*v))*v=0.0f; v++; }
 1353              		.loc 1 135 0 is_stmt 1 discriminator 1
 1354 0068 FB68     		ldr	r3, [r7, #12]
 1355 006a 1B68     		ldr	r3, [r3]	@ float
 1356 006c 7968     		ldr	r1, [r7, #4]	@ float
 1357 006e 1846     		mov	r0, r3
 1358 0070 FFF7FEFF 		bl	__aeabi_fcmpgt
 1359 0074 0346     		mov	r3, r0
 1360 0076 002B     		cmp	r3, #0
 1361 0078 02D0     		beq	.L98
 1362 007a FB68     		ldr	r3, [r7, #12]
 1363 007c 7A68     		ldr	r2, [r7, #4]	@ float
 1364 007e 1A60     		str	r2, [r3]	@ float
 1365              	.L98:
 1366              		.loc 1 135 0 is_stmt 0 discriminator 3
 1367 0080 FB68     		ldr	r3, [r7, #12]
 1368 0082 1B68     		ldr	r3, [r3]	@ float
 1369 0084 3968     		ldr	r1, [r7]	@ float
 1370 0086 1846     		mov	r0, r3
 1371 0088 FFF7FEFF 		bl	__aeabi_fcmplt
 1372 008c 0346     		mov	r3, r0
 1373 008e 002B     		cmp	r3, #0
 1374 0090 02D0     		beq	.L100
 1375              		.loc 1 135 0 discriminator 4
 1376 0092 FB68     		ldr	r3, [r7, #12]
 1377 0094 3A68     		ldr	r2, [r7]	@ float
 1378 0096 1A60     		str	r2, [r3]	@ float
 1379              	.L100:
 1380              		.loc 1 135 0 discriminator 6
 1381 0098 FB68     		ldr	r3, [r7, #12]
 1382 009a 1B68     		ldr	r3, [r3]	@ float
 1383 009c 1946     		mov	r1, r3
 1384 009e 1846     		mov	r0, r3
 1385 00a0 FFF7FEFF 		bl	__aeabi_fcmpun
 1386 00a4 0346     		mov	r3, r0
 1387 00a6 002B     		cmp	r3, #0
 1388 00a8 03D0     		beq	.L102
 1389              		.loc 1 135 0 discriminator 7
 1390 00aa FB68     		ldr	r3, [r7, #12]
 1391 00ac 4FF00002 		mov	r2, #0
 1392 00b0 1A60     		str	r2, [r3]	@ float
 1393              	.L102:
 1394              		.loc 1 135 0 discriminator 9
 1395 00b2 FB68     		ldr	r3, [r7, #12]
ARM GAS  C:\Users\JENNEW~1\AppData\Local\Temp\ccQ5uJSg.s 			page 28


 1396 00b4 0433     		adds	r3, r3, #4
 1397 00b6 FB60     		str	r3, [r7, #12]
 1398              	.L97:
 1399              	.LBE9:
 134:..\..\..\HamFlyAPI\src/hamfly_qx_protocol.c ****         while (n--) { float r = (float)GETSS; r *= scalefrom; *v += r;
 1400              		.loc 1 134 0 is_stmt 1
 1401 00b8 BB68     		ldr	r3, [r7, #8]
 1402 00ba 5A1E     		subs	r2, r3, #1
 1403 00bc BA60     		str	r2, [r7, #8]
 1404 00be 002B     		cmp	r3, #0
 1405 00c0 ABD1     		bne	.L104
 136:..\..\..\HamFlyAPI\src/hamfly_qx_protocol.c ****     } else {
 137:..\..\..\HamFlyAPI\src/hamfly_qx_protocol.c ****         while (n--) { float r = (float)GETSS; r *= scalefrom; *v = r;
 138:..\..\..\HamFlyAPI\src/hamfly_qx_protocol.c ****             if (max<*v)*v=max; if (*v<min)*v=min; if (isnan(*v))*v=0.0f; v++; }
 139:..\..\..\HamFlyAPI\src/hamfly_qx_protocol.c ****     }
 140:..\..\..\HamFlyAPI\src/hamfly_qx_protocol.c **** }
 1406              		.loc 1 140 0
 1407 00c2 4CE0     		b	.L120
 1408              	.L113:
 1409              	.LBB10:
 137:..\..\..\HamFlyAPI\src/hamfly_qx_protocol.c ****             if (max<*v)*v=max; if (*v<min)*v=min; if (isnan(*v))*v=0.0f; v++; }
 1410              		.loc 1 137 0 discriminator 1
 1411 00c4 294B     		ldr	r3, .L121+4
 1412 00c6 1B68     		ldr	r3, [r3]
 1413 00c8 1B78     		ldrb	r3, [r3]
 1414 00ca DBB2     		uxtb	r3, r3
 1415 00cc 1B02     		lsls	r3, r3, #8
 1416 00ce 1BB2     		sxth	r3, r3
 1417 00d0 1A46     		mov	r2, r3
 1418 00d2 264B     		ldr	r3, .L121+4
 1419 00d4 1B68     		ldr	r3, [r3]
 1420 00d6 0133     		adds	r3, r3, #1
 1421 00d8 1B78     		ldrb	r3, [r3]
 1422 00da DBB2     		uxtb	r3, r3
 1423 00dc 1343     		orrs	r3, r3, r2
 1424 00de 1846     		mov	r0, r3
 1425 00e0 FFF7FEFF 		bl	__aeabi_i2f
 1426 00e4 0346     		mov	r3, r0
 1427 00e6 3B61     		str	r3, [r7, #16]	@ float
 1428 00e8 204B     		ldr	r3, .L121+4
 1429 00ea 1B68     		ldr	r3, [r3]
 1430 00ec 0233     		adds	r3, r3, #2
 1431 00ee 1F4A     		ldr	r2, .L121+4
 1432 00f0 1360     		str	r3, [r2]
 1433 00f2 396A     		ldr	r1, [r7, #32]	@ float
 1434 00f4 3869     		ldr	r0, [r7, #16]	@ float
 1435 00f6 FFF7FEFF 		bl	__aeabi_fmul
 1436 00fa 0346     		mov	r3, r0
 1437 00fc 3B61     		str	r3, [r7, #16]	@ float
 1438 00fe FB68     		ldr	r3, [r7, #12]
 1439 0100 3A69     		ldr	r2, [r7, #16]	@ float
 1440 0102 1A60     		str	r2, [r3]	@ float
 138:..\..\..\HamFlyAPI\src/hamfly_qx_protocol.c ****     }
 1441              		.loc 1 138 0 discriminator 1
 1442 0104 FB68     		ldr	r3, [r7, #12]
 1443 0106 1B68     		ldr	r3, [r3]	@ float
 1444 0108 7968     		ldr	r1, [r7, #4]	@ float
ARM GAS  C:\Users\JENNEW~1\AppData\Local\Temp\ccQ5uJSg.s 			page 29


 1445 010a 1846     		mov	r0, r3
 1446 010c FFF7FEFF 		bl	__aeabi_fcmpgt
 1447 0110 0346     		mov	r3, r0
 1448 0112 002B     		cmp	r3, #0
 1449 0114 02D0     		beq	.L107
 1450 0116 FB68     		ldr	r3, [r7, #12]
 1451 0118 7A68     		ldr	r2, [r7, #4]	@ float
 1452 011a 1A60     		str	r2, [r3]	@ float
 1453              	.L107:
 138:..\..\..\HamFlyAPI\src/hamfly_qx_protocol.c ****     }
 1454              		.loc 1 138 0 is_stmt 0 discriminator 3
 1455 011c FB68     		ldr	r3, [r7, #12]
 1456 011e 1B68     		ldr	r3, [r3]	@ float
 1457 0120 3968     		ldr	r1, [r7]	@ float
 1458 0122 1846     		mov	r0, r3
 1459 0124 FFF7FEFF 		bl	__aeabi_fcmplt
 1460 0128 0346     		mov	r3, r0
 1461 012a 002B     		cmp	r3, #0
 1462 012c 02D0     		beq	.L109
 138:..\..\..\HamFlyAPI\src/hamfly_qx_protocol.c ****     }
 1463              		.loc 1 138 0 discriminator 4
 1464 012e FB68     		ldr	r3, [r7, #12]
 1465 0130 3A68     		ldr	r2, [r7]	@ float
 1466 0132 1A60     		str	r2, [r3]	@ float
 1467              	.L109:
 138:..\..\..\HamFlyAPI\src/hamfly_qx_protocol.c ****     }
 1468              		.loc 1 138 0 discriminator 6
 1469 0134 FB68     		ldr	r3, [r7, #12]
 1470 0136 1B68     		ldr	r3, [r3]	@ float
 1471 0138 1946     		mov	r1, r3
 1472 013a 1846     		mov	r0, r3
 1473 013c FFF7FEFF 		bl	__aeabi_fcmpun
 1474 0140 0346     		mov	r3, r0
 1475 0142 002B     		cmp	r3, #0
 1476 0144 03D0     		beq	.L111
 138:..\..\..\HamFlyAPI\src/hamfly_qx_protocol.c ****     }
 1477              		.loc 1 138 0 discriminator 7
 1478 0146 FB68     		ldr	r3, [r7, #12]
 1479 0148 4FF00002 		mov	r2, #0
 1480 014c 1A60     		str	r2, [r3]	@ float
 1481              	.L111:
 138:..\..\..\HamFlyAPI\src/hamfly_qx_protocol.c ****     }
 1482              		.loc 1 138 0 discriminator 9
 1483 014e FB68     		ldr	r3, [r7, #12]
 1484 0150 0433     		adds	r3, r3, #4
 1485 0152 FB60     		str	r3, [r7, #12]
 1486              	.L106:
 1487              	.LBE10:
 137:..\..\..\HamFlyAPI\src/hamfly_qx_protocol.c ****             if (max<*v)*v=max; if (*v<min)*v=min; if (isnan(*v))*v=0.0f; v++; }
 1488              		.loc 1 137 0 is_stmt 1
 1489 0154 BB68     		ldr	r3, [r7, #8]
 1490 0156 5A1E     		subs	r2, r3, #1
 1491 0158 BA60     		str	r2, [r7, #8]
 1492 015a 002B     		cmp	r3, #0
 1493 015c B2D1     		bne	.L113
 1494              	.L120:
 1495              		.loc 1 140 0
ARM GAS  C:\Users\JENNEW~1\AppData\Local\Temp\ccQ5uJSg.s 			page 30


 1496 015e 00BF     		nop
 1497 0160 1837     		adds	r7, r7, #24
 1498              		.cfi_def_cfa_offset 8
 1499 0162 BD46     		mov	sp, r7
 1500              		.cfi_def_cfa_register 13
 1501              		@ sp needed
 1502 0164 80BD     		pop	{r7, pc}
 1503              	.L122:
 1504 0166 00BF     		.align	2
 1505              	.L121:
 1506 0168 00000000 		.word	rw
 1507 016c 00000000 		.word	msgPtr
 1508              		.cfi_endproc
 1509              	.LFE15:
 1510              		.size	GetFloatAsSignedShort, .-GetFloatAsSignedShort
 1511              		.section	.text.GetFloatAsSignedChar,"ax",%progbits
 1512              		.align	2
 1513              		.global	GetFloatAsSignedChar
 1514              		.thumb
 1515              		.thumb_func
 1516              		.type	GetFloatAsSignedChar, %function
 1517              	GetFloatAsSignedChar:
 1518              	.LFB16:
 141:..\..\..\HamFlyAPI\src/hamfly_qx_protocol.c **** void GetFloatAsSignedChar(float *v, uint32_t n, float max, float min, float scalefrom) {
 1519              		.loc 1 141 0
 1520              		.cfi_startproc
 1521              		@ args = 4, pretend = 0, frame = 24
 1522              		@ frame_needed = 1, uses_anonymous_args = 0
 1523 0000 80B5     		push	{r7, lr}
 1524              		.cfi_def_cfa_offset 8
 1525              		.cfi_offset 7, -8
 1526              		.cfi_offset 14, -4
 1527 0002 86B0     		sub	sp, sp, #24
 1528              		.cfi_def_cfa_offset 32
 1529 0004 00AF     		add	r7, sp, #0
 1530              		.cfi_def_cfa_register 7
 1531 0006 F860     		str	r0, [r7, #12]
 1532 0008 B960     		str	r1, [r7, #8]
 1533 000a 7A60     		str	r2, [r7, #4]	@ float
 1534 000c 3B60     		str	r3, [r7]	@ float
 142:..\..\..\HamFlyAPI\src/hamfly_qx_protocol.c ****     if (rw == QB_Parser_Dir_WriteDel) {
 1535              		.loc 1 142 0
 1536 000e 4C4B     		ldr	r3, .L149
 1537 0010 1B78     		ldrb	r3, [r3]	@ zero_extendqisi2
 1538 0012 012B     		cmp	r3, #1
 1539 0014 40F08A80 		bne	.L134
 143:..\..\..\HamFlyAPI\src/hamfly_qx_protocol.c ****         while (n--) { float r = (float)GETSC; r *= scalefrom; *v += r;
 1540              		.loc 1 143 0
 1541 0018 44E0     		b	.L125
 1542              	.L132:
 1543              	.LBB11:
 1544              		.loc 1 143 0 is_stmt 0 discriminator 1
 1545 001a 4A4B     		ldr	r3, .L149+4
 1546 001c 1B68     		ldr	r3, [r3]
 1547 001e 5A1C     		adds	r2, r3, #1
 1548 0020 4849     		ldr	r1, .L149+4
 1549 0022 0A60     		str	r2, [r1]
ARM GAS  C:\Users\JENNEW~1\AppData\Local\Temp\ccQ5uJSg.s 			page 31


 1550 0024 1B78     		ldrb	r3, [r3]
 1551 0026 DBB2     		uxtb	r3, r3
 1552 0028 5BB2     		sxtb	r3, r3
 1553 002a 1846     		mov	r0, r3
 1554 002c FFF7FEFF 		bl	__aeabi_i2f
 1555 0030 0346     		mov	r3, r0
 1556 0032 7B61     		str	r3, [r7, #20]	@ float
 1557 0034 396A     		ldr	r1, [r7, #32]	@ float
 1558 0036 7869     		ldr	r0, [r7, #20]	@ float
 1559 0038 FFF7FEFF 		bl	__aeabi_fmul
 1560 003c 0346     		mov	r3, r0
 1561 003e 7B61     		str	r3, [r7, #20]	@ float
 1562 0040 FB68     		ldr	r3, [r7, #12]
 1563 0042 1B68     		ldr	r3, [r3]	@ float
 1564 0044 7969     		ldr	r1, [r7, #20]	@ float
 1565 0046 1846     		mov	r0, r3
 1566 0048 FFF7FEFF 		bl	__aeabi_fadd
 1567 004c 0346     		mov	r3, r0
 1568 004e 1A46     		mov	r2, r3
 1569 0050 FB68     		ldr	r3, [r7, #12]
 1570 0052 1A60     		str	r2, [r3]	@ float
 144:..\..\..\HamFlyAPI\src/hamfly_qx_protocol.c ****             if (max<*v)*v=max; if (*v<min)*v=min; if (isnan(*v))*v=0.0f; v++; }
 1571              		.loc 1 144 0 is_stmt 1 discriminator 1
 1572 0054 FB68     		ldr	r3, [r7, #12]
 1573 0056 1B68     		ldr	r3, [r3]	@ float
 1574 0058 7968     		ldr	r1, [r7, #4]	@ float
 1575 005a 1846     		mov	r0, r3
 1576 005c FFF7FEFF 		bl	__aeabi_fcmpgt
 1577 0060 0346     		mov	r3, r0
 1578 0062 002B     		cmp	r3, #0
 1579 0064 02D0     		beq	.L126
 1580 0066 FB68     		ldr	r3, [r7, #12]
 1581 0068 7A68     		ldr	r2, [r7, #4]	@ float
 1582 006a 1A60     		str	r2, [r3]	@ float
 1583              	.L126:
 1584              		.loc 1 144 0 is_stmt 0 discriminator 3
 1585 006c FB68     		ldr	r3, [r7, #12]
 1586 006e 1B68     		ldr	r3, [r3]	@ float
 1587 0070 3968     		ldr	r1, [r7]	@ float
 1588 0072 1846     		mov	r0, r3
 1589 0074 FFF7FEFF 		bl	__aeabi_fcmplt
 1590 0078 0346     		mov	r3, r0
 1591 007a 002B     		cmp	r3, #0
 1592 007c 02D0     		beq	.L128
 1593              		.loc 1 144 0 discriminator 4
 1594 007e FB68     		ldr	r3, [r7, #12]
 1595 0080 3A68     		ldr	r2, [r7]	@ float
 1596 0082 1A60     		str	r2, [r3]	@ float
 1597              	.L128:
 1598              		.loc 1 144 0 discriminator 6
 1599 0084 FB68     		ldr	r3, [r7, #12]
 1600 0086 1B68     		ldr	r3, [r3]	@ float
 1601 0088 1946     		mov	r1, r3
 1602 008a 1846     		mov	r0, r3
 1603 008c FFF7FEFF 		bl	__aeabi_fcmpun
 1604 0090 0346     		mov	r3, r0
 1605 0092 002B     		cmp	r3, #0
ARM GAS  C:\Users\JENNEW~1\AppData\Local\Temp\ccQ5uJSg.s 			page 32


 1606 0094 03D0     		beq	.L130
 1607              		.loc 1 144 0 discriminator 7
 1608 0096 FB68     		ldr	r3, [r7, #12]
 1609 0098 4FF00002 		mov	r2, #0
 1610 009c 1A60     		str	r2, [r3]	@ float
 1611              	.L130:
 1612              		.loc 1 144 0 discriminator 9
 1613 009e FB68     		ldr	r3, [r7, #12]
 1614 00a0 0433     		adds	r3, r3, #4
 1615 00a2 FB60     		str	r3, [r7, #12]
 1616              	.L125:
 1617              	.LBE11:
 143:..\..\..\HamFlyAPI\src/hamfly_qx_protocol.c ****         while (n--) { float r = (float)GETSC; r *= scalefrom; *v += r;
 1618              		.loc 1 143 0 is_stmt 1
 1619 00a4 BB68     		ldr	r3, [r7, #8]
 1620 00a6 5A1E     		subs	r2, r3, #1
 1621 00a8 BA60     		str	r2, [r7, #8]
 1622 00aa 002B     		cmp	r3, #0
 1623 00ac B5D1     		bne	.L132
 145:..\..\..\HamFlyAPI\src/hamfly_qx_protocol.c ****     } else {
 146:..\..\..\HamFlyAPI\src/hamfly_qx_protocol.c ****         while (n--) { float r = (float)GETSC; r *= scalefrom; *v = r;
 147:..\..\..\HamFlyAPI\src/hamfly_qx_protocol.c ****             if (max<*v)*v=max; if (*v<min)*v=min; if (isnan(*v))*v=0.0f; v++; }
 148:..\..\..\HamFlyAPI\src/hamfly_qx_protocol.c ****     }
 149:..\..\..\HamFlyAPI\src/hamfly_qx_protocol.c **** }
 1624              		.loc 1 149 0
 1625 00ae 42E0     		b	.L148
 1626              	.L141:
 1627              	.LBB12:
 146:..\..\..\HamFlyAPI\src/hamfly_qx_protocol.c ****             if (max<*v)*v=max; if (*v<min)*v=min; if (isnan(*v))*v=0.0f; v++; }
 1628              		.loc 1 146 0 discriminator 1
 1629 00b0 244B     		ldr	r3, .L149+4
 1630 00b2 1B68     		ldr	r3, [r3]
 1631 00b4 5A1C     		adds	r2, r3, #1
 1632 00b6 2349     		ldr	r1, .L149+4
 1633 00b8 0A60     		str	r2, [r1]
 1634 00ba 1B78     		ldrb	r3, [r3]
 1635 00bc DBB2     		uxtb	r3, r3
 1636 00be 5BB2     		sxtb	r3, r3
 1637 00c0 1846     		mov	r0, r3
 1638 00c2 FFF7FEFF 		bl	__aeabi_i2f
 1639 00c6 0346     		mov	r3, r0
 1640 00c8 3B61     		str	r3, [r7, #16]	@ float
 1641 00ca 396A     		ldr	r1, [r7, #32]	@ float
 1642 00cc 3869     		ldr	r0, [r7, #16]	@ float
 1643 00ce FFF7FEFF 		bl	__aeabi_fmul
 1644 00d2 0346     		mov	r3, r0
 1645 00d4 3B61     		str	r3, [r7, #16]	@ float
 1646 00d6 FB68     		ldr	r3, [r7, #12]
 1647 00d8 3A69     		ldr	r2, [r7, #16]	@ float
 1648 00da 1A60     		str	r2, [r3]	@ float
 147:..\..\..\HamFlyAPI\src/hamfly_qx_protocol.c ****     }
 1649              		.loc 1 147 0 discriminator 1
 1650 00dc FB68     		ldr	r3, [r7, #12]
 1651 00de 1B68     		ldr	r3, [r3]	@ float
 1652 00e0 7968     		ldr	r1, [r7, #4]	@ float
 1653 00e2 1846     		mov	r0, r3
 1654 00e4 FFF7FEFF 		bl	__aeabi_fcmpgt
ARM GAS  C:\Users\JENNEW~1\AppData\Local\Temp\ccQ5uJSg.s 			page 33


 1655 00e8 0346     		mov	r3, r0
 1656 00ea 002B     		cmp	r3, #0
 1657 00ec 02D0     		beq	.L135
 1658 00ee FB68     		ldr	r3, [r7, #12]
 1659 00f0 7A68     		ldr	r2, [r7, #4]	@ float
 1660 00f2 1A60     		str	r2, [r3]	@ float
 1661              	.L135:
 147:..\..\..\HamFlyAPI\src/hamfly_qx_protocol.c ****     }
 1662              		.loc 1 147 0 is_stmt 0 discriminator 3
 1663 00f4 FB68     		ldr	r3, [r7, #12]
 1664 00f6 1B68     		ldr	r3, [r3]	@ float
 1665 00f8 3968     		ldr	r1, [r7]	@ float
 1666 00fa 1846     		mov	r0, r3
 1667 00fc FFF7FEFF 		bl	__aeabi_fcmplt
 1668 0100 0346     		mov	r3, r0
 1669 0102 002B     		cmp	r3, #0
 1670 0104 02D0     		beq	.L137
 147:..\..\..\HamFlyAPI\src/hamfly_qx_protocol.c ****     }
 1671              		.loc 1 147 0 discriminator 4
 1672 0106 FB68     		ldr	r3, [r7, #12]
 1673 0108 3A68     		ldr	r2, [r7]	@ float
 1674 010a 1A60     		str	r2, [r3]	@ float
 1675              	.L137:
 147:..\..\..\HamFlyAPI\src/hamfly_qx_protocol.c ****     }
 1676              		.loc 1 147 0 discriminator 6
 1677 010c FB68     		ldr	r3, [r7, #12]
 1678 010e 1B68     		ldr	r3, [r3]	@ float
 1679 0110 1946     		mov	r1, r3
 1680 0112 1846     		mov	r0, r3
 1681 0114 FFF7FEFF 		bl	__aeabi_fcmpun
 1682 0118 0346     		mov	r3, r0
 1683 011a 002B     		cmp	r3, #0
 1684 011c 03D0     		beq	.L139
 147:..\..\..\HamFlyAPI\src/hamfly_qx_protocol.c ****     }
 1685              		.loc 1 147 0 discriminator 7
 1686 011e FB68     		ldr	r3, [r7, #12]
 1687 0120 4FF00002 		mov	r2, #0
 1688 0124 1A60     		str	r2, [r3]	@ float
 1689              	.L139:
 147:..\..\..\HamFlyAPI\src/hamfly_qx_protocol.c ****     }
 1690              		.loc 1 147 0 discriminator 9
 1691 0126 FB68     		ldr	r3, [r7, #12]
 1692 0128 0433     		adds	r3, r3, #4
 1693 012a FB60     		str	r3, [r7, #12]
 1694              	.L134:
 1695              	.LBE12:
 146:..\..\..\HamFlyAPI\src/hamfly_qx_protocol.c ****             if (max<*v)*v=max; if (*v<min)*v=min; if (isnan(*v))*v=0.0f; v++; }
 1696              		.loc 1 146 0 is_stmt 1
 1697 012c BB68     		ldr	r3, [r7, #8]
 1698 012e 5A1E     		subs	r2, r3, #1
 1699 0130 BA60     		str	r2, [r7, #8]
 1700 0132 002B     		cmp	r3, #0
 1701 0134 BCD1     		bne	.L141
 1702              	.L148:
 1703              		.loc 1 149 0
 1704 0136 00BF     		nop
 1705 0138 1837     		adds	r7, r7, #24
ARM GAS  C:\Users\JENNEW~1\AppData\Local\Temp\ccQ5uJSg.s 			page 34


 1706              		.cfi_def_cfa_offset 8
 1707 013a BD46     		mov	sp, r7
 1708              		.cfi_def_cfa_register 13
 1709              		@ sp needed
 1710 013c 80BD     		pop	{r7, pc}
 1711              	.L150:
 1712 013e 00BF     		.align	2
 1713              	.L149:
 1714 0140 00000000 		.word	rw
 1715 0144 00000000 		.word	msgPtr
 1716              		.cfi_endproc
 1717              	.LFE16:
 1718              		.size	GetFloatAsSignedChar, .-GetFloatAsSignedChar
 1719              		.global	__aeabi_ui2f
 1720              		.section	.text.GetFloatAsUnsignedChar,"ax",%progbits
 1721              		.align	2
 1722              		.global	GetFloatAsUnsignedChar
 1723              		.thumb
 1724              		.thumb_func
 1725              		.type	GetFloatAsUnsignedChar, %function
 1726              	GetFloatAsUnsignedChar:
 1727              	.LFB17:
 150:..\..\..\HamFlyAPI\src/hamfly_qx_protocol.c **** void GetFloatAsUnsignedChar(float *v, uint32_t n, float max, float min, float scalefrom) {
 1728              		.loc 1 150 0
 1729              		.cfi_startproc
 1730              		@ args = 4, pretend = 0, frame = 24
 1731              		@ frame_needed = 1, uses_anonymous_args = 0
 1732 0000 80B5     		push	{r7, lr}
 1733              		.cfi_def_cfa_offset 8
 1734              		.cfi_offset 7, -8
 1735              		.cfi_offset 14, -4
 1736 0002 86B0     		sub	sp, sp, #24
 1737              		.cfi_def_cfa_offset 32
 1738 0004 00AF     		add	r7, sp, #0
 1739              		.cfi_def_cfa_register 7
 1740 0006 F860     		str	r0, [r7, #12]
 1741 0008 B960     		str	r1, [r7, #8]
 1742 000a 7A60     		str	r2, [r7, #4]	@ float
 1743 000c 3B60     		str	r3, [r7]	@ float
 151:..\..\..\HamFlyAPI\src/hamfly_qx_protocol.c ****     if (rw == QB_Parser_Dir_WriteDel) {
 1744              		.loc 1 151 0
 1745 000e 4B4B     		ldr	r3, .L177
 1746 0010 1B78     		ldrb	r3, [r3]	@ zero_extendqisi2
 1747 0012 012B     		cmp	r3, #1
 1748 0014 40F08980 		bne	.L162
 152:..\..\..\HamFlyAPI\src/hamfly_qx_protocol.c ****         while (n--) { float r = (float)GETSC; r *= scalefrom; *v += r;
 1749              		.loc 1 152 0
 1750 0018 44E0     		b	.L153
 1751              	.L160:
 1752              	.LBB13:
 1753              		.loc 1 152 0 is_stmt 0 discriminator 1
 1754 001a 494B     		ldr	r3, .L177+4
 1755 001c 1B68     		ldr	r3, [r3]
 1756 001e 5A1C     		adds	r2, r3, #1
 1757 0020 4749     		ldr	r1, .L177+4
 1758 0022 0A60     		str	r2, [r1]
 1759 0024 1B78     		ldrb	r3, [r3]
ARM GAS  C:\Users\JENNEW~1\AppData\Local\Temp\ccQ5uJSg.s 			page 35


 1760 0026 DBB2     		uxtb	r3, r3
 1761 0028 5BB2     		sxtb	r3, r3
 1762 002a 1846     		mov	r0, r3
 1763 002c FFF7FEFF 		bl	__aeabi_i2f
 1764 0030 0346     		mov	r3, r0
 1765 0032 7B61     		str	r3, [r7, #20]	@ float
 1766 0034 396A     		ldr	r1, [r7, #32]	@ float
 1767 0036 7869     		ldr	r0, [r7, #20]	@ float
 1768 0038 FFF7FEFF 		bl	__aeabi_fmul
 1769 003c 0346     		mov	r3, r0
 1770 003e 7B61     		str	r3, [r7, #20]	@ float
 1771 0040 FB68     		ldr	r3, [r7, #12]
 1772 0042 1B68     		ldr	r3, [r3]	@ float
 1773 0044 7969     		ldr	r1, [r7, #20]	@ float
 1774 0046 1846     		mov	r0, r3
 1775 0048 FFF7FEFF 		bl	__aeabi_fadd
 1776 004c 0346     		mov	r3, r0
 1777 004e 1A46     		mov	r2, r3
 1778 0050 FB68     		ldr	r3, [r7, #12]
 1779 0052 1A60     		str	r2, [r3]	@ float
 153:..\..\..\HamFlyAPI\src/hamfly_qx_protocol.c ****             if (max<*v)*v=max; if (*v<min)*v=min; if (isnan(*v))*v=0.0f; v++; }
 1780              		.loc 1 153 0 is_stmt 1 discriminator 1
 1781 0054 FB68     		ldr	r3, [r7, #12]
 1782 0056 1B68     		ldr	r3, [r3]	@ float
 1783 0058 7968     		ldr	r1, [r7, #4]	@ float
 1784 005a 1846     		mov	r0, r3
 1785 005c FFF7FEFF 		bl	__aeabi_fcmpgt
 1786 0060 0346     		mov	r3, r0
 1787 0062 002B     		cmp	r3, #0
 1788 0064 02D0     		beq	.L154
 1789 0066 FB68     		ldr	r3, [r7, #12]
 1790 0068 7A68     		ldr	r2, [r7, #4]	@ float
 1791 006a 1A60     		str	r2, [r3]	@ float
 1792              	.L154:
 1793              		.loc 1 153 0 is_stmt 0 discriminator 3
 1794 006c FB68     		ldr	r3, [r7, #12]
 1795 006e 1B68     		ldr	r3, [r3]	@ float
 1796 0070 3968     		ldr	r1, [r7]	@ float
 1797 0072 1846     		mov	r0, r3
 1798 0074 FFF7FEFF 		bl	__aeabi_fcmplt
 1799 0078 0346     		mov	r3, r0
 1800 007a 002B     		cmp	r3, #0
 1801 007c 02D0     		beq	.L156
 1802              		.loc 1 153 0 discriminator 4
 1803 007e FB68     		ldr	r3, [r7, #12]
 1804 0080 3A68     		ldr	r2, [r7]	@ float
 1805 0082 1A60     		str	r2, [r3]	@ float
 1806              	.L156:
 1807              		.loc 1 153 0 discriminator 6
 1808 0084 FB68     		ldr	r3, [r7, #12]
 1809 0086 1B68     		ldr	r3, [r3]	@ float
 1810 0088 1946     		mov	r1, r3
 1811 008a 1846     		mov	r0, r3
 1812 008c FFF7FEFF 		bl	__aeabi_fcmpun
 1813 0090 0346     		mov	r3, r0
 1814 0092 002B     		cmp	r3, #0
 1815 0094 03D0     		beq	.L158
ARM GAS  C:\Users\JENNEW~1\AppData\Local\Temp\ccQ5uJSg.s 			page 36


 1816              		.loc 1 153 0 discriminator 7
 1817 0096 FB68     		ldr	r3, [r7, #12]
 1818 0098 4FF00002 		mov	r2, #0
 1819 009c 1A60     		str	r2, [r3]	@ float
 1820              	.L158:
 1821              		.loc 1 153 0 discriminator 9
 1822 009e FB68     		ldr	r3, [r7, #12]
 1823 00a0 0433     		adds	r3, r3, #4
 1824 00a2 FB60     		str	r3, [r7, #12]
 1825              	.L153:
 1826              	.LBE13:
 152:..\..\..\HamFlyAPI\src/hamfly_qx_protocol.c ****         while (n--) { float r = (float)GETSC; r *= scalefrom; *v += r;
 1827              		.loc 1 152 0 is_stmt 1
 1828 00a4 BB68     		ldr	r3, [r7, #8]
 1829 00a6 5A1E     		subs	r2, r3, #1
 1830 00a8 BA60     		str	r2, [r7, #8]
 1831 00aa 002B     		cmp	r3, #0
 1832 00ac B5D1     		bne	.L160
 154:..\..\..\HamFlyAPI\src/hamfly_qx_protocol.c ****     } else {
 155:..\..\..\HamFlyAPI\src/hamfly_qx_protocol.c ****         while (n--) { float r = (float)GETUC; r *= scalefrom; *v = r;
 156:..\..\..\HamFlyAPI\src/hamfly_qx_protocol.c ****             if (max<*v)*v=max; if (*v<min)*v=min; if (isnan(*v))*v=0.0f; v++; }
 157:..\..\..\HamFlyAPI\src/hamfly_qx_protocol.c ****     }
 158:..\..\..\HamFlyAPI\src/hamfly_qx_protocol.c **** }
 1833              		.loc 1 158 0
 1834 00ae 41E0     		b	.L176
 1835              	.L169:
 1836              	.LBB14:
 155:..\..\..\HamFlyAPI\src/hamfly_qx_protocol.c ****             if (max<*v)*v=max; if (*v<min)*v=min; if (isnan(*v))*v=0.0f; v++; }
 1837              		.loc 1 155 0 discriminator 1
 1838 00b0 234B     		ldr	r3, .L177+4
 1839 00b2 1B68     		ldr	r3, [r3]
 1840 00b4 5A1C     		adds	r2, r3, #1
 1841 00b6 2249     		ldr	r1, .L177+4
 1842 00b8 0A60     		str	r2, [r1]
 1843 00ba 1B78     		ldrb	r3, [r3]
 1844 00bc DBB2     		uxtb	r3, r3
 1845 00be 1846     		mov	r0, r3
 1846 00c0 FFF7FEFF 		bl	__aeabi_ui2f
 1847 00c4 0346     		mov	r3, r0
 1848 00c6 3B61     		str	r3, [r7, #16]	@ float
 1849 00c8 396A     		ldr	r1, [r7, #32]	@ float
 1850 00ca 3869     		ldr	r0, [r7, #16]	@ float
 1851 00cc FFF7FEFF 		bl	__aeabi_fmul
 1852 00d0 0346     		mov	r3, r0
 1853 00d2 3B61     		str	r3, [r7, #16]	@ float
 1854 00d4 FB68     		ldr	r3, [r7, #12]
 1855 00d6 3A69     		ldr	r2, [r7, #16]	@ float
 1856 00d8 1A60     		str	r2, [r3]	@ float
 156:..\..\..\HamFlyAPI\src/hamfly_qx_protocol.c ****     }
 1857              		.loc 1 156 0 discriminator 1
 1858 00da FB68     		ldr	r3, [r7, #12]
 1859 00dc 1B68     		ldr	r3, [r3]	@ float
 1860 00de 7968     		ldr	r1, [r7, #4]	@ float
 1861 00e0 1846     		mov	r0, r3
 1862 00e2 FFF7FEFF 		bl	__aeabi_fcmpgt
 1863 00e6 0346     		mov	r3, r0
 1864 00e8 002B     		cmp	r3, #0
ARM GAS  C:\Users\JENNEW~1\AppData\Local\Temp\ccQ5uJSg.s 			page 37


 1865 00ea 02D0     		beq	.L163
 1866 00ec FB68     		ldr	r3, [r7, #12]
 1867 00ee 7A68     		ldr	r2, [r7, #4]	@ float
 1868 00f0 1A60     		str	r2, [r3]	@ float
 1869              	.L163:
 156:..\..\..\HamFlyAPI\src/hamfly_qx_protocol.c ****     }
 1870              		.loc 1 156 0 is_stmt 0 discriminator 3
 1871 00f2 FB68     		ldr	r3, [r7, #12]
 1872 00f4 1B68     		ldr	r3, [r3]	@ float
 1873 00f6 3968     		ldr	r1, [r7]	@ float
 1874 00f8 1846     		mov	r0, r3
 1875 00fa FFF7FEFF 		bl	__aeabi_fcmplt
 1876 00fe 0346     		mov	r3, r0
 1877 0100 002B     		cmp	r3, #0
 1878 0102 02D0     		beq	.L165
 156:..\..\..\HamFlyAPI\src/hamfly_qx_protocol.c ****     }
 1879              		.loc 1 156 0 discriminator 4
 1880 0104 FB68     		ldr	r3, [r7, #12]
 1881 0106 3A68     		ldr	r2, [r7]	@ float
 1882 0108 1A60     		str	r2, [r3]	@ float
 1883              	.L165:
 156:..\..\..\HamFlyAPI\src/hamfly_qx_protocol.c ****     }
 1884              		.loc 1 156 0 discriminator 6
 1885 010a FB68     		ldr	r3, [r7, #12]
 1886 010c 1B68     		ldr	r3, [r3]	@ float
 1887 010e 1946     		mov	r1, r3
 1888 0110 1846     		mov	r0, r3
 1889 0112 FFF7FEFF 		bl	__aeabi_fcmpun
 1890 0116 0346     		mov	r3, r0
 1891 0118 002B     		cmp	r3, #0
 1892 011a 03D0     		beq	.L167
 156:..\..\..\HamFlyAPI\src/hamfly_qx_protocol.c ****     }
 1893              		.loc 1 156 0 discriminator 7
 1894 011c FB68     		ldr	r3, [r7, #12]
 1895 011e 4FF00002 		mov	r2, #0
 1896 0122 1A60     		str	r2, [r3]	@ float
 1897              	.L167:
 156:..\..\..\HamFlyAPI\src/hamfly_qx_protocol.c ****     }
 1898              		.loc 1 156 0 discriminator 9
 1899 0124 FB68     		ldr	r3, [r7, #12]
 1900 0126 0433     		adds	r3, r3, #4
 1901 0128 FB60     		str	r3, [r7, #12]
 1902              	.L162:
 1903              	.LBE14:
 155:..\..\..\HamFlyAPI\src/hamfly_qx_protocol.c ****             if (max<*v)*v=max; if (*v<min)*v=min; if (isnan(*v))*v=0.0f; v++; }
 1904              		.loc 1 155 0 is_stmt 1
 1905 012a BB68     		ldr	r3, [r7, #8]
 1906 012c 5A1E     		subs	r2, r3, #1
 1907 012e BA60     		str	r2, [r7, #8]
 1908 0130 002B     		cmp	r3, #0
 1909 0132 BDD1     		bne	.L169
 1910              	.L176:
 1911              		.loc 1 158 0
 1912 0134 00BF     		nop
 1913 0136 1837     		adds	r7, r7, #24
 1914              		.cfi_def_cfa_offset 8
 1915 0138 BD46     		mov	sp, r7
ARM GAS  C:\Users\JENNEW~1\AppData\Local\Temp\ccQ5uJSg.s 			page 38


 1916              		.cfi_def_cfa_register 13
 1917              		@ sp needed
 1918 013a 80BD     		pop	{r7, pc}
 1919              	.L178:
 1920              		.align	2
 1921              	.L177:
 1922 013c 00000000 		.word	rw
 1923 0140 00000000 		.word	msgPtr
 1924              		.cfi_endproc
 1925              	.LFE17:
 1926              		.size	GetFloatAsUnsignedChar, .-GetFloatAsUnsignedChar
 1927              		.section	.text.GetFloatAsUnsignedShort,"ax",%progbits
 1928              		.align	2
 1929              		.global	GetFloatAsUnsignedShort
 1930              		.thumb
 1931              		.thumb_func
 1932              		.type	GetFloatAsUnsignedShort, %function
 1933              	GetFloatAsUnsignedShort:
 1934              	.LFB18:
 159:..\..\..\HamFlyAPI\src/hamfly_qx_protocol.c **** void GetFloatAsUnsignedShort(float *v, uint32_t n, float max, float min, float scalefrom) {
 1935              		.loc 1 159 0
 1936              		.cfi_startproc
 1937              		@ args = 4, pretend = 0, frame = 24
 1938              		@ frame_needed = 1, uses_anonymous_args = 0
 1939 0000 80B5     		push	{r7, lr}
 1940              		.cfi_def_cfa_offset 8
 1941              		.cfi_offset 7, -8
 1942              		.cfi_offset 14, -4
 1943 0002 86B0     		sub	sp, sp, #24
 1944              		.cfi_def_cfa_offset 32
 1945 0004 00AF     		add	r7, sp, #0
 1946              		.cfi_def_cfa_register 7
 1947 0006 F860     		str	r0, [r7, #12]
 1948 0008 B960     		str	r1, [r7, #8]
 1949 000a 7A60     		str	r2, [r7, #4]	@ float
 1950 000c 3B60     		str	r3, [r7]	@ float
 160:..\..\..\HamFlyAPI\src/hamfly_qx_protocol.c ****     if (rw == QB_Parser_Dir_WriteDel) {
 1951              		.loc 1 160 0
 1952 000e 574B     		ldr	r3, .L205
 1953 0010 1B78     		ldrb	r3, [r3]	@ zero_extendqisi2
 1954 0012 012B     		cmp	r3, #1
 1955 0014 40F0A080 		bne	.L190
 161:..\..\..\HamFlyAPI\src/hamfly_qx_protocol.c ****         while (n--) { float r = (float)GETUS; r *= scalefrom; *v += r;
 1956              		.loc 1 161 0
 1957 0018 4FE0     		b	.L181
 1958              	.L188:
 1959              	.LBB15:
 1960              		.loc 1 161 0 is_stmt 0 discriminator 1
 1961 001a 554B     		ldr	r3, .L205+4
 1962 001c 1B68     		ldr	r3, [r3]
 1963 001e 1B78     		ldrb	r3, [r3]
 1964 0020 DBB2     		uxtb	r3, r3
 1965 0022 9BB2     		uxth	r3, r3
 1966 0024 1B02     		lsls	r3, r3, #8
 1967 0026 9BB2     		uxth	r3, r3
 1968 0028 1A46     		mov	r2, r3
 1969 002a 514B     		ldr	r3, .L205+4
ARM GAS  C:\Users\JENNEW~1\AppData\Local\Temp\ccQ5uJSg.s 			page 39


 1970 002c 1B68     		ldr	r3, [r3]
 1971 002e 0133     		adds	r3, r3, #1
 1972 0030 1B78     		ldrb	r3, [r3]
 1973 0032 DBB2     		uxtb	r3, r3
 1974 0034 1343     		orrs	r3, r3, r2
 1975 0036 1846     		mov	r0, r3
 1976 0038 FFF7FEFF 		bl	__aeabi_i2f
 1977 003c 0346     		mov	r3, r0
 1978 003e 7B61     		str	r3, [r7, #20]	@ float
 1979 0040 4B4B     		ldr	r3, .L205+4
 1980 0042 1B68     		ldr	r3, [r3]
 1981 0044 0233     		adds	r3, r3, #2
 1982 0046 4A4A     		ldr	r2, .L205+4
 1983 0048 1360     		str	r3, [r2]
 1984 004a 396A     		ldr	r1, [r7, #32]	@ float
 1985 004c 7869     		ldr	r0, [r7, #20]	@ float
 1986 004e FFF7FEFF 		bl	__aeabi_fmul
 1987 0052 0346     		mov	r3, r0
 1988 0054 7B61     		str	r3, [r7, #20]	@ float
 1989 0056 FB68     		ldr	r3, [r7, #12]
 1990 0058 1B68     		ldr	r3, [r3]	@ float
 1991 005a 7969     		ldr	r1, [r7, #20]	@ float
 1992 005c 1846     		mov	r0, r3
 1993 005e FFF7FEFF 		bl	__aeabi_fadd
 1994 0062 0346     		mov	r3, r0
 1995 0064 1A46     		mov	r2, r3
 1996 0066 FB68     		ldr	r3, [r7, #12]
 1997 0068 1A60     		str	r2, [r3]	@ float
 162:..\..\..\HamFlyAPI\src/hamfly_qx_protocol.c ****             if (max<*v)*v=max; if (*v<min)*v=min; if (isnan(*v))*v=0.0f; v++; }
 1998              		.loc 1 162 0 is_stmt 1 discriminator 1
 1999 006a FB68     		ldr	r3, [r7, #12]
 2000 006c 1B68     		ldr	r3, [r3]	@ float
 2001 006e 7968     		ldr	r1, [r7, #4]	@ float
 2002 0070 1846     		mov	r0, r3
 2003 0072 FFF7FEFF 		bl	__aeabi_fcmpgt
 2004 0076 0346     		mov	r3, r0
 2005 0078 002B     		cmp	r3, #0
 2006 007a 02D0     		beq	.L182
 2007 007c FB68     		ldr	r3, [r7, #12]
 2008 007e 7A68     		ldr	r2, [r7, #4]	@ float
 2009 0080 1A60     		str	r2, [r3]	@ float
 2010              	.L182:
 2011              		.loc 1 162 0 is_stmt 0 discriminator 3
 2012 0082 FB68     		ldr	r3, [r7, #12]
 2013 0084 1B68     		ldr	r3, [r3]	@ float
 2014 0086 3968     		ldr	r1, [r7]	@ float
 2015 0088 1846     		mov	r0, r3
 2016 008a FFF7FEFF 		bl	__aeabi_fcmplt
 2017 008e 0346     		mov	r3, r0
 2018 0090 002B     		cmp	r3, #0
 2019 0092 02D0     		beq	.L184
 2020              		.loc 1 162 0 discriminator 4
 2021 0094 FB68     		ldr	r3, [r7, #12]
 2022 0096 3A68     		ldr	r2, [r7]	@ float
 2023 0098 1A60     		str	r2, [r3]	@ float
 2024              	.L184:
 2025              		.loc 1 162 0 discriminator 6
ARM GAS  C:\Users\JENNEW~1\AppData\Local\Temp\ccQ5uJSg.s 			page 40


 2026 009a FB68     		ldr	r3, [r7, #12]
 2027 009c 1B68     		ldr	r3, [r3]	@ float
 2028 009e 1946     		mov	r1, r3
 2029 00a0 1846     		mov	r0, r3
 2030 00a2 FFF7FEFF 		bl	__aeabi_fcmpun
 2031 00a6 0346     		mov	r3, r0
 2032 00a8 002B     		cmp	r3, #0
 2033 00aa 03D0     		beq	.L186
 2034              		.loc 1 162 0 discriminator 7
 2035 00ac FB68     		ldr	r3, [r7, #12]
 2036 00ae 4FF00002 		mov	r2, #0
 2037 00b2 1A60     		str	r2, [r3]	@ float
 2038              	.L186:
 2039              		.loc 1 162 0 discriminator 9
 2040 00b4 FB68     		ldr	r3, [r7, #12]
 2041 00b6 0433     		adds	r3, r3, #4
 2042 00b8 FB60     		str	r3, [r7, #12]
 2043              	.L181:
 2044              	.LBE15:
 161:..\..\..\HamFlyAPI\src/hamfly_qx_protocol.c ****         while (n--) { float r = (float)GETUS; r *= scalefrom; *v += r;
 2045              		.loc 1 161 0 is_stmt 1
 2046 00ba BB68     		ldr	r3, [r7, #8]
 2047 00bc 5A1E     		subs	r2, r3, #1
 2048 00be BA60     		str	r2, [r7, #8]
 2049 00c0 002B     		cmp	r3, #0
 2050 00c2 AAD1     		bne	.L188
 163:..\..\..\HamFlyAPI\src/hamfly_qx_protocol.c ****     } else {
 164:..\..\..\HamFlyAPI\src/hamfly_qx_protocol.c ****         while (n--) { float r = (float)GETUS; r *= scalefrom; *v = r;
 165:..\..\..\HamFlyAPI\src/hamfly_qx_protocol.c ****             if (max<*v)*v=max; if (*v<min)*v=min; if (isnan(*v))*v=0.0f; v++; }
 166:..\..\..\HamFlyAPI\src/hamfly_qx_protocol.c ****     }
 167:..\..\..\HamFlyAPI\src/hamfly_qx_protocol.c **** }
 2051              		.loc 1 167 0
 2052 00c4 4DE0     		b	.L204
 2053              	.L197:
 2054              	.LBB16:
 164:..\..\..\HamFlyAPI\src/hamfly_qx_protocol.c ****             if (max<*v)*v=max; if (*v<min)*v=min; if (isnan(*v))*v=0.0f; v++; }
 2055              		.loc 1 164 0 discriminator 1
 2056 00c6 2A4B     		ldr	r3, .L205+4
 2057 00c8 1B68     		ldr	r3, [r3]
 2058 00ca 1B78     		ldrb	r3, [r3]
 2059 00cc DBB2     		uxtb	r3, r3
 2060 00ce 9BB2     		uxth	r3, r3
 2061 00d0 1B02     		lsls	r3, r3, #8
 2062 00d2 9BB2     		uxth	r3, r3
 2063 00d4 1A46     		mov	r2, r3
 2064 00d6 264B     		ldr	r3, .L205+4
 2065 00d8 1B68     		ldr	r3, [r3]
 2066 00da 0133     		adds	r3, r3, #1
 2067 00dc 1B78     		ldrb	r3, [r3]
 2068 00de DBB2     		uxtb	r3, r3
 2069 00e0 1343     		orrs	r3, r3, r2
 2070 00e2 1846     		mov	r0, r3
 2071 00e4 FFF7FEFF 		bl	__aeabi_i2f
 2072 00e8 0346     		mov	r3, r0
 2073 00ea 3B61     		str	r3, [r7, #16]	@ float
 2074 00ec 204B     		ldr	r3, .L205+4
 2075 00ee 1B68     		ldr	r3, [r3]
ARM GAS  C:\Users\JENNEW~1\AppData\Local\Temp\ccQ5uJSg.s 			page 41


 2076 00f0 0233     		adds	r3, r3, #2
 2077 00f2 1F4A     		ldr	r2, .L205+4
 2078 00f4 1360     		str	r3, [r2]
 2079 00f6 396A     		ldr	r1, [r7, #32]	@ float
 2080 00f8 3869     		ldr	r0, [r7, #16]	@ float
 2081 00fa FFF7FEFF 		bl	__aeabi_fmul
 2082 00fe 0346     		mov	r3, r0
 2083 0100 3B61     		str	r3, [r7, #16]	@ float
 2084 0102 FB68     		ldr	r3, [r7, #12]
 2085 0104 3A69     		ldr	r2, [r7, #16]	@ float
 2086 0106 1A60     		str	r2, [r3]	@ float
 165:..\..\..\HamFlyAPI\src/hamfly_qx_protocol.c ****     }
 2087              		.loc 1 165 0 discriminator 1
 2088 0108 FB68     		ldr	r3, [r7, #12]
 2089 010a 1B68     		ldr	r3, [r3]	@ float
 2090 010c 7968     		ldr	r1, [r7, #4]	@ float
 2091 010e 1846     		mov	r0, r3
 2092 0110 FFF7FEFF 		bl	__aeabi_fcmpgt
 2093 0114 0346     		mov	r3, r0
 2094 0116 002B     		cmp	r3, #0
 2095 0118 02D0     		beq	.L191
 2096 011a FB68     		ldr	r3, [r7, #12]
 2097 011c 7A68     		ldr	r2, [r7, #4]	@ float
 2098 011e 1A60     		str	r2, [r3]	@ float
 2099              	.L191:
 165:..\..\..\HamFlyAPI\src/hamfly_qx_protocol.c ****     }
 2100              		.loc 1 165 0 is_stmt 0 discriminator 3
 2101 0120 FB68     		ldr	r3, [r7, #12]
 2102 0122 1B68     		ldr	r3, [r3]	@ float
 2103 0124 3968     		ldr	r1, [r7]	@ float
 2104 0126 1846     		mov	r0, r3
 2105 0128 FFF7FEFF 		bl	__aeabi_fcmplt
 2106 012c 0346     		mov	r3, r0
 2107 012e 002B     		cmp	r3, #0
 2108 0130 02D0     		beq	.L193
 165:..\..\..\HamFlyAPI\src/hamfly_qx_protocol.c ****     }
 2109              		.loc 1 165 0 discriminator 4
 2110 0132 FB68     		ldr	r3, [r7, #12]
 2111 0134 3A68     		ldr	r2, [r7]	@ float
 2112 0136 1A60     		str	r2, [r3]	@ float
 2113              	.L193:
 165:..\..\..\HamFlyAPI\src/hamfly_qx_protocol.c ****     }
 2114              		.loc 1 165 0 discriminator 6
 2115 0138 FB68     		ldr	r3, [r7, #12]
 2116 013a 1B68     		ldr	r3, [r3]	@ float
 2117 013c 1946     		mov	r1, r3
 2118 013e 1846     		mov	r0, r3
 2119 0140 FFF7FEFF 		bl	__aeabi_fcmpun
 2120 0144 0346     		mov	r3, r0
 2121 0146 002B     		cmp	r3, #0
 2122 0148 03D0     		beq	.L195
 165:..\..\..\HamFlyAPI\src/hamfly_qx_protocol.c ****     }
 2123              		.loc 1 165 0 discriminator 7
 2124 014a FB68     		ldr	r3, [r7, #12]
 2125 014c 4FF00002 		mov	r2, #0
 2126 0150 1A60     		str	r2, [r3]	@ float
 2127              	.L195:
ARM GAS  C:\Users\JENNEW~1\AppData\Local\Temp\ccQ5uJSg.s 			page 42


 165:..\..\..\HamFlyAPI\src/hamfly_qx_protocol.c ****     }
 2128              		.loc 1 165 0 discriminator 9
 2129 0152 FB68     		ldr	r3, [r7, #12]
 2130 0154 0433     		adds	r3, r3, #4
 2131 0156 FB60     		str	r3, [r7, #12]
 2132              	.L190:
 2133              	.LBE16:
 164:..\..\..\HamFlyAPI\src/hamfly_qx_protocol.c ****             if (max<*v)*v=max; if (*v<min)*v=min; if (isnan(*v))*v=0.0f; v++; }
 2134              		.loc 1 164 0 is_stmt 1
 2135 0158 BB68     		ldr	r3, [r7, #8]
 2136 015a 5A1E     		subs	r2, r3, #1
 2137 015c BA60     		str	r2, [r7, #8]
 2138 015e 002B     		cmp	r3, #0
 2139 0160 B1D1     		bne	.L197
 2140              	.L204:
 2141              		.loc 1 167 0
 2142 0162 00BF     		nop
 2143 0164 1837     		adds	r7, r7, #24
 2144              		.cfi_def_cfa_offset 8
 2145 0166 BD46     		mov	sp, r7
 2146              		.cfi_def_cfa_register 13
 2147              		@ sp needed
 2148 0168 80BD     		pop	{r7, pc}
 2149              	.L206:
 2150 016a 00BF     		.align	2
 2151              	.L205:
 2152 016c 00000000 		.word	rw
 2153 0170 00000000 		.word	msgPtr
 2154              		.cfi_endproc
 2155              	.LFE18:
 2156              		.size	GetFloatAsUnsignedShort, .-GetFloatAsUnsignedShort
 2157              		.section	.text.AddSignedLongAsSignedLong,"ax",%progbits
 2158              		.align	2
 2159              		.global	AddSignedLongAsSignedLong
 2160              		.thumb
 2161              		.thumb_func
 2162              		.type	AddSignedLongAsSignedLong, %function
 2163              	AddSignedLongAsSignedLong:
 2164              	.LFB19:
 168:..\..\..\HamFlyAPI\src/hamfly_qx_protocol.c **** 
 169:..\..\..\HamFlyAPI\src/hamfly_qx_protocol.c **** void AddSignedLongAsSignedLong(int32_t *v, uint32_t n) {
 2165              		.loc 1 169 0
 2166              		.cfi_startproc
 2167              		@ args = 0, pretend = 0, frame = 16
 2168              		@ frame_needed = 1, uses_anonymous_args = 0
 2169              		@ link register save eliminated.
 2170 0000 80B4     		push	{r7}
 2171              		.cfi_def_cfa_offset 4
 2172              		.cfi_offset 7, -4
 2173 0002 85B0     		sub	sp, sp, #20
 2174              		.cfi_def_cfa_offset 24
 2175 0004 00AF     		add	r7, sp, #0
 2176              		.cfi_def_cfa_register 7
 2177 0006 7860     		str	r0, [r7, #4]
 2178 0008 3960     		str	r1, [r7]
 170:..\..\..\HamFlyAPI\src/hamfly_qx_protocol.c ****     while (n--) { int32_t val = *v; ADDSL(val); v++; }
 2179              		.loc 1 170 0
ARM GAS  C:\Users\JENNEW~1\AppData\Local\Temp\ccQ5uJSg.s 			page 43


 2180 000a 28E0     		b	.L208
 2181              	.L209:
 2182              	.LBB17:
 2183              		.loc 1 170 0 is_stmt 0 discriminator 2
 2184 000c 7B68     		ldr	r3, [r7, #4]
 2185 000e 1B68     		ldr	r3, [r3]
 2186 0010 FB60     		str	r3, [r7, #12]
 2187 0012 184B     		ldr	r3, .L210
 2188 0014 1B68     		ldr	r3, [r3]
 2189 0016 5A1C     		adds	r2, r3, #1
 2190 0018 1649     		ldr	r1, .L210
 2191 001a 0A60     		str	r2, [r1]
 2192 001c FA68     		ldr	r2, [r7, #12]
 2193 001e 1216     		asrs	r2, r2, #24
 2194 0020 D2B2     		uxtb	r2, r2
 2195 0022 1A70     		strb	r2, [r3]
 2196 0024 134B     		ldr	r3, .L210
 2197 0026 1B68     		ldr	r3, [r3]
 2198 0028 5A1C     		adds	r2, r3, #1
 2199 002a 1249     		ldr	r1, .L210
 2200 002c 0A60     		str	r2, [r1]
 2201 002e FA68     		ldr	r2, [r7, #12]
 2202 0030 1214     		asrs	r2, r2, #16
 2203 0032 D2B2     		uxtb	r2, r2
 2204 0034 1A70     		strb	r2, [r3]
 2205 0036 0F4B     		ldr	r3, .L210
 2206 0038 1B68     		ldr	r3, [r3]
 2207 003a 5A1C     		adds	r2, r3, #1
 2208 003c 0D49     		ldr	r1, .L210
 2209 003e 0A60     		str	r2, [r1]
 2210 0040 FA68     		ldr	r2, [r7, #12]
 2211 0042 1212     		asrs	r2, r2, #8
 2212 0044 D2B2     		uxtb	r2, r2
 2213 0046 1A70     		strb	r2, [r3]
 2214 0048 0A4B     		ldr	r3, .L210
 2215 004a 1B68     		ldr	r3, [r3]
 2216 004c 5A1C     		adds	r2, r3, #1
 2217 004e 0949     		ldr	r1, .L210
 2218 0050 0A60     		str	r2, [r1]
 2219 0052 FA68     		ldr	r2, [r7, #12]
 2220 0054 D2B2     		uxtb	r2, r2
 2221 0056 1A70     		strb	r2, [r3]
 2222 0058 7B68     		ldr	r3, [r7, #4]
 2223 005a 0433     		adds	r3, r3, #4
 2224 005c 7B60     		str	r3, [r7, #4]
 2225              	.L208:
 2226              	.LBE17:
 2227              		.loc 1 170 0 discriminator 1
 2228 005e 3B68     		ldr	r3, [r7]
 2229 0060 5A1E     		subs	r2, r3, #1
 2230 0062 3A60     		str	r2, [r7]
 2231 0064 002B     		cmp	r3, #0
 2232 0066 D1D1     		bne	.L209
 171:..\..\..\HamFlyAPI\src/hamfly_qx_protocol.c **** }
 2233              		.loc 1 171 0 is_stmt 1
 2234 0068 00BF     		nop
 2235 006a 1437     		adds	r7, r7, #20
ARM GAS  C:\Users\JENNEW~1\AppData\Local\Temp\ccQ5uJSg.s 			page 44


 2236              		.cfi_def_cfa_offset 4
 2237 006c BD46     		mov	sp, r7
 2238              		.cfi_def_cfa_register 13
 2239              		@ sp needed
 2240 006e 80BC     		pop	{r7}
 2241              		.cfi_restore 7
 2242              		.cfi_def_cfa_offset 0
 2243 0070 7047     		bx	lr
 2244              	.L211:
 2245 0072 00BF     		.align	2
 2246              	.L210:
 2247 0074 00000000 		.word	msgPtr
 2248              		.cfi_endproc
 2249              	.LFE19:
 2250              		.size	AddSignedLongAsSignedLong, .-AddSignedLongAsSignedLong
 2251              		.section	.text.AddSignedLongAsSignedShort,"ax",%progbits
 2252              		.align	2
 2253              		.global	AddSignedLongAsSignedShort
 2254              		.thumb
 2255              		.thumb_func
 2256              		.type	AddSignedLongAsSignedShort, %function
 2257              	AddSignedLongAsSignedShort:
 2258              	.LFB20:
 172:..\..\..\HamFlyAPI\src/hamfly_qx_protocol.c **** void AddSignedLongAsSignedShort(int32_t *v, uint32_t n) {
 2259              		.loc 1 172 0
 2260              		.cfi_startproc
 2261              		@ args = 0, pretend = 0, frame = 16
 2262              		@ frame_needed = 1, uses_anonymous_args = 0
 2263              		@ link register save eliminated.
 2264 0000 80B4     		push	{r7}
 2265              		.cfi_def_cfa_offset 4
 2266              		.cfi_offset 7, -4
 2267 0002 85B0     		sub	sp, sp, #20
 2268              		.cfi_def_cfa_offset 24
 2269 0004 00AF     		add	r7, sp, #0
 2270              		.cfi_def_cfa_register 7
 2271 0006 7860     		str	r0, [r7, #4]
 2272 0008 3960     		str	r1, [r7]
 173:..\..\..\HamFlyAPI\src/hamfly_qx_protocol.c ****     while (n--) { int16_t val = (int16_t)*v; ADDSS(val); v++; }
 2273              		.loc 1 173 0
 2274 000a 18E0     		b	.L213
 2275              	.L214:
 2276              	.LBB18:
 2277              		.loc 1 173 0 is_stmt 0 discriminator 2
 2278 000c 7B68     		ldr	r3, [r7, #4]
 2279 000e 1B68     		ldr	r3, [r3]
 2280 0010 FB81     		strh	r3, [r7, #14]	@ movhi
 2281 0012 104B     		ldr	r3, .L215
 2282 0014 1B68     		ldr	r3, [r3]
 2283 0016 5A1C     		adds	r2, r3, #1
 2284 0018 0E49     		ldr	r1, .L215
 2285 001a 0A60     		str	r2, [r1]
 2286 001c B7F90E20 		ldrsh	r2, [r7, #14]
 2287 0020 1212     		asrs	r2, r2, #8
 2288 0022 12B2     		sxth	r2, r2
 2289 0024 D2B2     		uxtb	r2, r2
 2290 0026 1A70     		strb	r2, [r3]
ARM GAS  C:\Users\JENNEW~1\AppData\Local\Temp\ccQ5uJSg.s 			page 45


 2291 0028 0A4B     		ldr	r3, .L215
 2292 002a 1B68     		ldr	r3, [r3]
 2293 002c 5A1C     		adds	r2, r3, #1
 2294 002e 0949     		ldr	r1, .L215
 2295 0030 0A60     		str	r2, [r1]
 2296 0032 FA89     		ldrh	r2, [r7, #14]	@ movhi
 2297 0034 D2B2     		uxtb	r2, r2
 2298 0036 1A70     		strb	r2, [r3]
 2299 0038 7B68     		ldr	r3, [r7, #4]
 2300 003a 0433     		adds	r3, r3, #4
 2301 003c 7B60     		str	r3, [r7, #4]
 2302              	.L213:
 2303              	.LBE18:
 2304              		.loc 1 173 0 discriminator 1
 2305 003e 3B68     		ldr	r3, [r7]
 2306 0040 5A1E     		subs	r2, r3, #1
 2307 0042 3A60     		str	r2, [r7]
 2308 0044 002B     		cmp	r3, #0
 2309 0046 E1D1     		bne	.L214
 174:..\..\..\HamFlyAPI\src/hamfly_qx_protocol.c **** }
 2310              		.loc 1 174 0 is_stmt 1
 2311 0048 00BF     		nop
 2312 004a 1437     		adds	r7, r7, #20
 2313              		.cfi_def_cfa_offset 4
 2314 004c BD46     		mov	sp, r7
 2315              		.cfi_def_cfa_register 13
 2316              		@ sp needed
 2317 004e 80BC     		pop	{r7}
 2318              		.cfi_restore 7
 2319              		.cfi_def_cfa_offset 0
 2320 0050 7047     		bx	lr
 2321              	.L216:
 2322 0052 00BF     		.align	2
 2323              	.L215:
 2324 0054 00000000 		.word	msgPtr
 2325              		.cfi_endproc
 2326              	.LFE20:
 2327              		.size	AddSignedLongAsSignedShort, .-AddSignedLongAsSignedShort
 2328              		.section	.text.AddSignedLongAsSignedChar,"ax",%progbits
 2329              		.align	2
 2330              		.global	AddSignedLongAsSignedChar
 2331              		.thumb
 2332              		.thumb_func
 2333              		.type	AddSignedLongAsSignedChar, %function
 2334              	AddSignedLongAsSignedChar:
 2335              	.LFB21:
 175:..\..\..\HamFlyAPI\src/hamfly_qx_protocol.c **** void AddSignedLongAsSignedChar(int32_t *v, uint32_t n) {
 2336              		.loc 1 175 0
 2337              		.cfi_startproc
 2338              		@ args = 0, pretend = 0, frame = 16
 2339              		@ frame_needed = 1, uses_anonymous_args = 0
 2340              		@ link register save eliminated.
 2341 0000 80B4     		push	{r7}
 2342              		.cfi_def_cfa_offset 4
 2343              		.cfi_offset 7, -4
 2344 0002 85B0     		sub	sp, sp, #20
 2345              		.cfi_def_cfa_offset 24
ARM GAS  C:\Users\JENNEW~1\AppData\Local\Temp\ccQ5uJSg.s 			page 46


 2346 0004 00AF     		add	r7, sp, #0
 2347              		.cfi_def_cfa_register 7
 2348 0006 7860     		str	r0, [r7, #4]
 2349 0008 3960     		str	r1, [r7]
 176:..\..\..\HamFlyAPI\src/hamfly_qx_protocol.c ****     while (n--) { int8_t val = (int8_t)*v; ADDCHAR(val); v++; }
 2350              		.loc 1 176 0
 2351 000a 0CE0     		b	.L218
 2352              	.L219:
 2353              	.LBB19:
 2354              		.loc 1 176 0 is_stmt 0 discriminator 2
 2355 000c 7B68     		ldr	r3, [r7, #4]
 2356 000e 1B68     		ldr	r3, [r3]
 2357 0010 FB73     		strb	r3, [r7, #15]
 2358 0012 0A4B     		ldr	r3, .L220
 2359 0014 1B68     		ldr	r3, [r3]
 2360 0016 5A1C     		adds	r2, r3, #1
 2361 0018 0849     		ldr	r1, .L220
 2362 001a 0A60     		str	r2, [r1]
 2363 001c FA7B     		ldrb	r2, [r7, #15]	@ zero_extendqisi2
 2364 001e 1A70     		strb	r2, [r3]
 2365 0020 7B68     		ldr	r3, [r7, #4]
 2366 0022 0433     		adds	r3, r3, #4
 2367 0024 7B60     		str	r3, [r7, #4]
 2368              	.L218:
 2369              	.LBE19:
 2370              		.loc 1 176 0 discriminator 1
 2371 0026 3B68     		ldr	r3, [r7]
 2372 0028 5A1E     		subs	r2, r3, #1
 2373 002a 3A60     		str	r2, [r7]
 2374 002c 002B     		cmp	r3, #0
 2375 002e EDD1     		bne	.L219
 177:..\..\..\HamFlyAPI\src/hamfly_qx_protocol.c **** }
 2376              		.loc 1 177 0 is_stmt 1
 2377 0030 00BF     		nop
 2378 0032 1437     		adds	r7, r7, #20
 2379              		.cfi_def_cfa_offset 4
 2380 0034 BD46     		mov	sp, r7
 2381              		.cfi_def_cfa_register 13
 2382              		@ sp needed
 2383 0036 80BC     		pop	{r7}
 2384              		.cfi_restore 7
 2385              		.cfi_def_cfa_offset 0
 2386 0038 7047     		bx	lr
 2387              	.L221:
 2388 003a 00BF     		.align	2
 2389              	.L220:
 2390 003c 00000000 		.word	msgPtr
 2391              		.cfi_endproc
 2392              	.LFE21:
 2393              		.size	AddSignedLongAsSignedChar, .-AddSignedLongAsSignedChar
 2394              		.section	.text.AddSignedLongAsUnsignedChar,"ax",%progbits
 2395              		.align	2
 2396              		.global	AddSignedLongAsUnsignedChar
 2397              		.thumb
 2398              		.thumb_func
 2399              		.type	AddSignedLongAsUnsignedChar, %function
 2400              	AddSignedLongAsUnsignedChar:
ARM GAS  C:\Users\JENNEW~1\AppData\Local\Temp\ccQ5uJSg.s 			page 47


 2401              	.LFB22:
 178:..\..\..\HamFlyAPI\src/hamfly_qx_protocol.c **** void AddSignedLongAsUnsignedChar(int32_t *v, uint32_t n) {
 2402              		.loc 1 178 0
 2403              		.cfi_startproc
 2404              		@ args = 0, pretend = 0, frame = 16
 2405              		@ frame_needed = 1, uses_anonymous_args = 0
 2406              		@ link register save eliminated.
 2407 0000 80B4     		push	{r7}
 2408              		.cfi_def_cfa_offset 4
 2409              		.cfi_offset 7, -4
 2410 0002 85B0     		sub	sp, sp, #20
 2411              		.cfi_def_cfa_offset 24
 2412 0004 00AF     		add	r7, sp, #0
 2413              		.cfi_def_cfa_register 7
 2414 0006 7860     		str	r0, [r7, #4]
 2415 0008 3960     		str	r1, [r7]
 179:..\..\..\HamFlyAPI\src/hamfly_qx_protocol.c ****     while (n--) { uint8_t val = (uint8_t)*v; ADDCHAR(val); v++; }
 2416              		.loc 1 179 0
 2417 000a 0CE0     		b	.L223
 2418              	.L224:
 2419              	.LBB20:
 2420              		.loc 1 179 0 is_stmt 0 discriminator 2
 2421 000c 7B68     		ldr	r3, [r7, #4]
 2422 000e 1B68     		ldr	r3, [r3]
 2423 0010 FB73     		strb	r3, [r7, #15]
 2424 0012 0A4B     		ldr	r3, .L225
 2425 0014 1B68     		ldr	r3, [r3]
 2426 0016 5A1C     		adds	r2, r3, #1
 2427 0018 0849     		ldr	r1, .L225
 2428 001a 0A60     		str	r2, [r1]
 2429 001c FA7B     		ldrb	r2, [r7, #15]
 2430 001e 1A70     		strb	r2, [r3]
 2431 0020 7B68     		ldr	r3, [r7, #4]
 2432 0022 0433     		adds	r3, r3, #4
 2433 0024 7B60     		str	r3, [r7, #4]
 2434              	.L223:
 2435              	.LBE20:
 2436              		.loc 1 179 0 discriminator 1
 2437 0026 3B68     		ldr	r3, [r7]
 2438 0028 5A1E     		subs	r2, r3, #1
 2439 002a 3A60     		str	r2, [r7]
 2440 002c 002B     		cmp	r3, #0
 2441 002e EDD1     		bne	.L224
 180:..\..\..\HamFlyAPI\src/hamfly_qx_protocol.c **** }
 2442              		.loc 1 180 0 is_stmt 1
 2443 0030 00BF     		nop
 2444 0032 1437     		adds	r7, r7, #20
 2445              		.cfi_def_cfa_offset 4
 2446 0034 BD46     		mov	sp, r7
 2447              		.cfi_def_cfa_register 13
 2448              		@ sp needed
 2449 0036 80BC     		pop	{r7}
 2450              		.cfi_restore 7
 2451              		.cfi_def_cfa_offset 0
 2452 0038 7047     		bx	lr
 2453              	.L226:
 2454 003a 00BF     		.align	2
ARM GAS  C:\Users\JENNEW~1\AppData\Local\Temp\ccQ5uJSg.s 			page 48


 2455              	.L225:
 2456 003c 00000000 		.word	msgPtr
 2457              		.cfi_endproc
 2458              	.LFE22:
 2459              		.size	AddSignedLongAsUnsignedChar, .-AddSignedLongAsUnsignedChar
 2460              		.section	.text.GetSignedLongAsSignedLong,"ax",%progbits
 2461              		.align	2
 2462              		.global	GetSignedLongAsSignedLong
 2463              		.thumb
 2464              		.thumb_func
 2465              		.type	GetSignedLongAsSignedLong, %function
 2466              	GetSignedLongAsSignedLong:
 2467              	.LFB23:
 181:..\..\..\HamFlyAPI\src/hamfly_qx_protocol.c **** void GetSignedLongAsSignedLong(int32_t *v, uint32_t n, int32_t max, int32_t min) {
 2468              		.loc 1 181 0
 2469              		.cfi_startproc
 2470              		@ args = 0, pretend = 0, frame = 24
 2471              		@ frame_needed = 1, uses_anonymous_args = 0
 2472              		@ link register save eliminated.
 2473 0000 80B4     		push	{r7}
 2474              		.cfi_def_cfa_offset 4
 2475              		.cfi_offset 7, -4
 2476 0002 87B0     		sub	sp, sp, #28
 2477              		.cfi_def_cfa_offset 32
 2478 0004 00AF     		add	r7, sp, #0
 2479              		.cfi_def_cfa_register 7
 2480 0006 F860     		str	r0, [r7, #12]
 2481 0008 B960     		str	r1, [r7, #8]
 2482 000a 7A60     		str	r2, [r7, #4]
 2483 000c 3B60     		str	r3, [r7]
 182:..\..\..\HamFlyAPI\src/hamfly_qx_protocol.c ****     if (rw == QB_Parser_Dir_WriteDel) {
 2484              		.loc 1 182 0
 2485 000e 414B     		ldr	r3, .L239
 2486 0010 1B78     		ldrb	r3, [r3]	@ zero_extendqisi2
 2487 0012 012B     		cmp	r3, #1
 2488 0014 73D1     		bne	.L234
 183:..\..\..\HamFlyAPI\src/hamfly_qx_protocol.c ****         while (n--) { int32_t r = GETSL; *v += r; if (max<*v)*v=max; if (*v<min)*v=min; v++; }
 2489              		.loc 1 183 0
 2490 0016 37E0     		b	.L229
 2491              	.L232:
 2492              	.LBB21:
 2493              		.loc 1 183 0 is_stmt 0 discriminator 8
 2494 0018 3F4B     		ldr	r3, .L239+4
 2495 001a 1B68     		ldr	r3, [r3]
 2496 001c 1B78     		ldrb	r3, [r3]
 2497 001e DBB2     		uxtb	r3, r3
 2498 0020 1A06     		lsls	r2, r3, #24
 2499 0022 3D4B     		ldr	r3, .L239+4
 2500 0024 1B68     		ldr	r3, [r3]
 2501 0026 0133     		adds	r3, r3, #1
 2502 0028 1B78     		ldrb	r3, [r3]
 2503 002a DBB2     		uxtb	r3, r3
 2504 002c 1B04     		lsls	r3, r3, #16
 2505 002e 1A43     		orrs	r2, r2, r3
 2506 0030 394B     		ldr	r3, .L239+4
 2507 0032 1B68     		ldr	r3, [r3]
 2508 0034 0233     		adds	r3, r3, #2
ARM GAS  C:\Users\JENNEW~1\AppData\Local\Temp\ccQ5uJSg.s 			page 49


 2509 0036 1B78     		ldrb	r3, [r3]
 2510 0038 DBB2     		uxtb	r3, r3
 2511 003a 1B02     		lsls	r3, r3, #8
 2512 003c 1343     		orrs	r3, r3, r2
 2513 003e 364A     		ldr	r2, .L239+4
 2514 0040 1268     		ldr	r2, [r2]
 2515 0042 0332     		adds	r2, r2, #3
 2516 0044 1278     		ldrb	r2, [r2]
 2517 0046 D2B2     		uxtb	r2, r2
 2518 0048 1343     		orrs	r3, r3, r2
 2519 004a 7B61     		str	r3, [r7, #20]
 2520 004c 324B     		ldr	r3, .L239+4
 2521 004e 1B68     		ldr	r3, [r3]
 2522 0050 0433     		adds	r3, r3, #4
 2523 0052 314A     		ldr	r2, .L239+4
 2524 0054 1360     		str	r3, [r2]
 2525 0056 FB68     		ldr	r3, [r7, #12]
 2526 0058 1A68     		ldr	r2, [r3]
 2527 005a 7B69     		ldr	r3, [r7, #20]
 2528 005c 1A44     		add	r2, r2, r3
 2529 005e FB68     		ldr	r3, [r7, #12]
 2530 0060 1A60     		str	r2, [r3]
 2531 0062 FB68     		ldr	r3, [r7, #12]
 2532 0064 1A68     		ldr	r2, [r3]
 2533 0066 7B68     		ldr	r3, [r7, #4]
 2534 0068 9A42     		cmp	r2, r3
 2535 006a 02DD     		ble	.L230
 2536              		.loc 1 183 0 discriminator 1
 2537 006c FB68     		ldr	r3, [r7, #12]
 2538 006e 7A68     		ldr	r2, [r7, #4]
 2539 0070 1A60     		str	r2, [r3]
 2540              	.L230:
 2541              		.loc 1 183 0 discriminator 3
 2542 0072 FB68     		ldr	r3, [r7, #12]
 2543 0074 1A68     		ldr	r2, [r3]
 2544 0076 3B68     		ldr	r3, [r7]
 2545 0078 9A42     		cmp	r2, r3
 2546 007a 02DA     		bge	.L231
 2547              		.loc 1 183 0 discriminator 4
 2548 007c FB68     		ldr	r3, [r7, #12]
 2549 007e 3A68     		ldr	r2, [r7]
 2550 0080 1A60     		str	r2, [r3]
 2551              	.L231:
 2552              		.loc 1 183 0 discriminator 6
 2553 0082 FB68     		ldr	r3, [r7, #12]
 2554 0084 0433     		adds	r3, r3, #4
 2555 0086 FB60     		str	r3, [r7, #12]
 2556              	.L229:
 2557              	.LBE21:
 2558              		.loc 1 183 0 discriminator 7
 2559 0088 BB68     		ldr	r3, [r7, #8]
 2560 008a 5A1E     		subs	r2, r3, #1
 2561 008c BA60     		str	r2, [r7, #8]
 2562 008e 002B     		cmp	r3, #0
 2563 0090 C2D1     		bne	.L232
 184:..\..\..\HamFlyAPI\src/hamfly_qx_protocol.c ****     } else {
 185:..\..\..\HamFlyAPI\src/hamfly_qx_protocol.c ****         while (n--) { int32_t r = GETSL; *v  = r; if (max<*v)*v=max; if (*v<min)*v=min; v++; }
ARM GAS  C:\Users\JENNEW~1\AppData\Local\Temp\ccQ5uJSg.s 			page 50


 186:..\..\..\HamFlyAPI\src/hamfly_qx_protocol.c ****     }
 187:..\..\..\HamFlyAPI\src/hamfly_qx_protocol.c **** }
 2564              		.loc 1 187 0 is_stmt 1
 2565 0092 39E0     		b	.L238
 2566              	.L237:
 2567              	.LBB22:
 185:..\..\..\HamFlyAPI\src/hamfly_qx_protocol.c ****     }
 2568              		.loc 1 185 0 discriminator 8
 2569 0094 204B     		ldr	r3, .L239+4
 2570 0096 1B68     		ldr	r3, [r3]
 2571 0098 1B78     		ldrb	r3, [r3]
 2572 009a DBB2     		uxtb	r3, r3
 2573 009c 1A06     		lsls	r2, r3, #24
 2574 009e 1E4B     		ldr	r3, .L239+4
 2575 00a0 1B68     		ldr	r3, [r3]
 2576 00a2 0133     		adds	r3, r3, #1
 2577 00a4 1B78     		ldrb	r3, [r3]
 2578 00a6 DBB2     		uxtb	r3, r3
 2579 00a8 1B04     		lsls	r3, r3, #16
 2580 00aa 1A43     		orrs	r2, r2, r3
 2581 00ac 1A4B     		ldr	r3, .L239+4
 2582 00ae 1B68     		ldr	r3, [r3]
 2583 00b0 0233     		adds	r3, r3, #2
 2584 00b2 1B78     		ldrb	r3, [r3]
 2585 00b4 DBB2     		uxtb	r3, r3
 2586 00b6 1B02     		lsls	r3, r3, #8
 2587 00b8 1343     		orrs	r3, r3, r2
 2588 00ba 174A     		ldr	r2, .L239+4
 2589 00bc 1268     		ldr	r2, [r2]
 2590 00be 0332     		adds	r2, r2, #3
 2591 00c0 1278     		ldrb	r2, [r2]
 2592 00c2 D2B2     		uxtb	r2, r2
 2593 00c4 1343     		orrs	r3, r3, r2
 2594 00c6 3B61     		str	r3, [r7, #16]
 2595 00c8 134B     		ldr	r3, .L239+4
 2596 00ca 1B68     		ldr	r3, [r3]
 2597 00cc 0433     		adds	r3, r3, #4
 2598 00ce 124A     		ldr	r2, .L239+4
 2599 00d0 1360     		str	r3, [r2]
 2600 00d2 FB68     		ldr	r3, [r7, #12]
 2601 00d4 3A69     		ldr	r2, [r7, #16]
 2602 00d6 1A60     		str	r2, [r3]
 2603 00d8 FB68     		ldr	r3, [r7, #12]
 2604 00da 1A68     		ldr	r2, [r3]
 2605 00dc 7B68     		ldr	r3, [r7, #4]
 2606 00de 9A42     		cmp	r2, r3
 2607 00e0 02DD     		ble	.L235
 185:..\..\..\HamFlyAPI\src/hamfly_qx_protocol.c ****     }
 2608              		.loc 1 185 0 is_stmt 0 discriminator 1
 2609 00e2 FB68     		ldr	r3, [r7, #12]
 2610 00e4 7A68     		ldr	r2, [r7, #4]
 2611 00e6 1A60     		str	r2, [r3]
 2612              	.L235:
 185:..\..\..\HamFlyAPI\src/hamfly_qx_protocol.c ****     }
 2613              		.loc 1 185 0 discriminator 3
 2614 00e8 FB68     		ldr	r3, [r7, #12]
 2615 00ea 1A68     		ldr	r2, [r3]
ARM GAS  C:\Users\JENNEW~1\AppData\Local\Temp\ccQ5uJSg.s 			page 51


 2616 00ec 3B68     		ldr	r3, [r7]
 2617 00ee 9A42     		cmp	r2, r3
 2618 00f0 02DA     		bge	.L236
 185:..\..\..\HamFlyAPI\src/hamfly_qx_protocol.c ****     }
 2619              		.loc 1 185 0 discriminator 4
 2620 00f2 FB68     		ldr	r3, [r7, #12]
 2621 00f4 3A68     		ldr	r2, [r7]
 2622 00f6 1A60     		str	r2, [r3]
 2623              	.L236:
 185:..\..\..\HamFlyAPI\src/hamfly_qx_protocol.c ****     }
 2624              		.loc 1 185 0 discriminator 6
 2625 00f8 FB68     		ldr	r3, [r7, #12]
 2626 00fa 0433     		adds	r3, r3, #4
 2627 00fc FB60     		str	r3, [r7, #12]
 2628              	.L234:
 2629              	.LBE22:
 185:..\..\..\HamFlyAPI\src/hamfly_qx_protocol.c ****     }
 2630              		.loc 1 185 0 discriminator 7
 2631 00fe BB68     		ldr	r3, [r7, #8]
 2632 0100 5A1E     		subs	r2, r3, #1
 2633 0102 BA60     		str	r2, [r7, #8]
 2634 0104 002B     		cmp	r3, #0
 2635 0106 C5D1     		bne	.L237
 2636              	.L238:
 2637              		.loc 1 187 0 is_stmt 1
 2638 0108 00BF     		nop
 2639 010a 1C37     		adds	r7, r7, #28
 2640              		.cfi_def_cfa_offset 4
 2641 010c BD46     		mov	sp, r7
 2642              		.cfi_def_cfa_register 13
 2643              		@ sp needed
 2644 010e 80BC     		pop	{r7}
 2645              		.cfi_restore 7
 2646              		.cfi_def_cfa_offset 0
 2647 0110 7047     		bx	lr
 2648              	.L240:
 2649 0112 00BF     		.align	2
 2650              	.L239:
 2651 0114 00000000 		.word	rw
 2652 0118 00000000 		.word	msgPtr
 2653              		.cfi_endproc
 2654              	.LFE23:
 2655              		.size	GetSignedLongAsSignedLong, .-GetSignedLongAsSignedLong
 2656              		.section	.text.GetSignedLongAsSignedShort,"ax",%progbits
 2657              		.align	2
 2658              		.global	GetSignedLongAsSignedShort
 2659              		.thumb
 2660              		.thumb_func
 2661              		.type	GetSignedLongAsSignedShort, %function
 2662              	GetSignedLongAsSignedShort:
 2663              	.LFB24:
 188:..\..\..\HamFlyAPI\src/hamfly_qx_protocol.c **** void GetSignedLongAsSignedShort(int32_t *v, uint32_t n, int32_t max, int32_t min) {
 2664              		.loc 1 188 0
 2665              		.cfi_startproc
 2666              		@ args = 0, pretend = 0, frame = 24
 2667              		@ frame_needed = 1, uses_anonymous_args = 0
 2668              		@ link register save eliminated.
ARM GAS  C:\Users\JENNEW~1\AppData\Local\Temp\ccQ5uJSg.s 			page 52


 2669 0000 80B4     		push	{r7}
 2670              		.cfi_def_cfa_offset 4
 2671              		.cfi_offset 7, -4
 2672 0002 87B0     		sub	sp, sp, #28
 2673              		.cfi_def_cfa_offset 32
 2674 0004 00AF     		add	r7, sp, #0
 2675              		.cfi_def_cfa_register 7
 2676 0006 F860     		str	r0, [r7, #12]
 2677 0008 B960     		str	r1, [r7, #8]
 2678 000a 7A60     		str	r2, [r7, #4]
 2679 000c 3B60     		str	r3, [r7]
 189:..\..\..\HamFlyAPI\src/hamfly_qx_protocol.c ****     if (rw == QB_Parser_Dir_WriteDel) {
 2680              		.loc 1 189 0
 2681 000e 364B     		ldr	r3, .L253
 2682 0010 1B78     		ldrb	r3, [r3]	@ zero_extendqisi2
 2683 0012 012B     		cmp	r3, #1
 2684 0014 5DD1     		bne	.L248
 190:..\..\..\HamFlyAPI\src/hamfly_qx_protocol.c ****         while (n--) { int32_t r = (int32_t)(int16_t)GETSS; *v += r; if (max<*v)*v=max; if (*v<min)*
 2685              		.loc 1 190 0
 2686 0016 2CE0     		b	.L243
 2687              	.L246:
 2688              	.LBB23:
 2689              		.loc 1 190 0 is_stmt 0 discriminator 8
 2690 0018 344B     		ldr	r3, .L253+4
 2691 001a 1B68     		ldr	r3, [r3]
 2692 001c 1B78     		ldrb	r3, [r3]
 2693 001e DBB2     		uxtb	r3, r3
 2694 0020 1B02     		lsls	r3, r3, #8
 2695 0022 1AB2     		sxth	r2, r3
 2696 0024 314B     		ldr	r3, .L253+4
 2697 0026 1B68     		ldr	r3, [r3]
 2698 0028 0133     		adds	r3, r3, #1
 2699 002a 1B78     		ldrb	r3, [r3]
 2700 002c DBB2     		uxtb	r3, r3
 2701 002e 1BB2     		sxth	r3, r3
 2702 0030 1343     		orrs	r3, r3, r2
 2703 0032 1BB2     		sxth	r3, r3
 2704 0034 7B61     		str	r3, [r7, #20]
 2705 0036 2D4B     		ldr	r3, .L253+4
 2706 0038 1B68     		ldr	r3, [r3]
 2707 003a 0233     		adds	r3, r3, #2
 2708 003c 2B4A     		ldr	r2, .L253+4
 2709 003e 1360     		str	r3, [r2]
 2710 0040 FB68     		ldr	r3, [r7, #12]
 2711 0042 1A68     		ldr	r2, [r3]
 2712 0044 7B69     		ldr	r3, [r7, #20]
 2713 0046 1A44     		add	r2, r2, r3
 2714 0048 FB68     		ldr	r3, [r7, #12]
 2715 004a 1A60     		str	r2, [r3]
 2716 004c FB68     		ldr	r3, [r7, #12]
 2717 004e 1A68     		ldr	r2, [r3]
 2718 0050 7B68     		ldr	r3, [r7, #4]
 2719 0052 9A42     		cmp	r2, r3
 2720 0054 02DD     		ble	.L244
 2721              		.loc 1 190 0 discriminator 1
 2722 0056 FB68     		ldr	r3, [r7, #12]
 2723 0058 7A68     		ldr	r2, [r7, #4]
ARM GAS  C:\Users\JENNEW~1\AppData\Local\Temp\ccQ5uJSg.s 			page 53


 2724 005a 1A60     		str	r2, [r3]
 2725              	.L244:
 2726              		.loc 1 190 0 discriminator 3
 2727 005c FB68     		ldr	r3, [r7, #12]
 2728 005e 1A68     		ldr	r2, [r3]
 2729 0060 3B68     		ldr	r3, [r7]
 2730 0062 9A42     		cmp	r2, r3
 2731 0064 02DA     		bge	.L245
 2732              		.loc 1 190 0 discriminator 4
 2733 0066 FB68     		ldr	r3, [r7, #12]
 2734 0068 3A68     		ldr	r2, [r7]
 2735 006a 1A60     		str	r2, [r3]
 2736              	.L245:
 2737              		.loc 1 190 0 discriminator 6
 2738 006c FB68     		ldr	r3, [r7, #12]
 2739 006e 0433     		adds	r3, r3, #4
 2740 0070 FB60     		str	r3, [r7, #12]
 2741              	.L243:
 2742              	.LBE23:
 2743              		.loc 1 190 0 discriminator 7
 2744 0072 BB68     		ldr	r3, [r7, #8]
 2745 0074 5A1E     		subs	r2, r3, #1
 2746 0076 BA60     		str	r2, [r7, #8]
 2747 0078 002B     		cmp	r3, #0
 2748 007a CDD1     		bne	.L246
 191:..\..\..\HamFlyAPI\src/hamfly_qx_protocol.c ****     } else {
 192:..\..\..\HamFlyAPI\src/hamfly_qx_protocol.c ****         while (n--) { int32_t r = (int32_t)(int16_t)GETSS; *v  = r; if (max<*v)*v=max; if (*v<min)*
 193:..\..\..\HamFlyAPI\src/hamfly_qx_protocol.c ****     }
 194:..\..\..\HamFlyAPI\src/hamfly_qx_protocol.c **** }
 2749              		.loc 1 194 0 is_stmt 1
 2750 007c 2EE0     		b	.L252
 2751              	.L251:
 2752              	.LBB24:
 192:..\..\..\HamFlyAPI\src/hamfly_qx_protocol.c ****     }
 2753              		.loc 1 192 0 discriminator 8
 2754 007e 1B4B     		ldr	r3, .L253+4
 2755 0080 1B68     		ldr	r3, [r3]
 2756 0082 1B78     		ldrb	r3, [r3]
 2757 0084 DBB2     		uxtb	r3, r3
 2758 0086 1B02     		lsls	r3, r3, #8
 2759 0088 1AB2     		sxth	r2, r3
 2760 008a 184B     		ldr	r3, .L253+4
 2761 008c 1B68     		ldr	r3, [r3]
 2762 008e 0133     		adds	r3, r3, #1
 2763 0090 1B78     		ldrb	r3, [r3]
 2764 0092 DBB2     		uxtb	r3, r3
 2765 0094 1BB2     		sxth	r3, r3
 2766 0096 1343     		orrs	r3, r3, r2
 2767 0098 1BB2     		sxth	r3, r3
 2768 009a 3B61     		str	r3, [r7, #16]
 2769 009c 134B     		ldr	r3, .L253+4
 2770 009e 1B68     		ldr	r3, [r3]
 2771 00a0 0233     		adds	r3, r3, #2
 2772 00a2 124A     		ldr	r2, .L253+4
 2773 00a4 1360     		str	r3, [r2]
 2774 00a6 FB68     		ldr	r3, [r7, #12]
 2775 00a8 3A69     		ldr	r2, [r7, #16]
ARM GAS  C:\Users\JENNEW~1\AppData\Local\Temp\ccQ5uJSg.s 			page 54


 2776 00aa 1A60     		str	r2, [r3]
 2777 00ac FB68     		ldr	r3, [r7, #12]
 2778 00ae 1A68     		ldr	r2, [r3]
 2779 00b0 7B68     		ldr	r3, [r7, #4]
 2780 00b2 9A42     		cmp	r2, r3
 2781 00b4 02DD     		ble	.L249
 192:..\..\..\HamFlyAPI\src/hamfly_qx_protocol.c ****     }
 2782              		.loc 1 192 0 is_stmt 0 discriminator 1
 2783 00b6 FB68     		ldr	r3, [r7, #12]
 2784 00b8 7A68     		ldr	r2, [r7, #4]
 2785 00ba 1A60     		str	r2, [r3]
 2786              	.L249:
 192:..\..\..\HamFlyAPI\src/hamfly_qx_protocol.c ****     }
 2787              		.loc 1 192 0 discriminator 3
 2788 00bc FB68     		ldr	r3, [r7, #12]
 2789 00be 1A68     		ldr	r2, [r3]
 2790 00c0 3B68     		ldr	r3, [r7]
 2791 00c2 9A42     		cmp	r2, r3
 2792 00c4 02DA     		bge	.L250
 192:..\..\..\HamFlyAPI\src/hamfly_qx_protocol.c ****     }
 2793              		.loc 1 192 0 discriminator 4
 2794 00c6 FB68     		ldr	r3, [r7, #12]
 2795 00c8 3A68     		ldr	r2, [r7]
 2796 00ca 1A60     		str	r2, [r3]
 2797              	.L250:
 192:..\..\..\HamFlyAPI\src/hamfly_qx_protocol.c ****     }
 2798              		.loc 1 192 0 discriminator 6
 2799 00cc FB68     		ldr	r3, [r7, #12]
 2800 00ce 0433     		adds	r3, r3, #4
 2801 00d0 FB60     		str	r3, [r7, #12]
 2802              	.L248:
 2803              	.LBE24:
 192:..\..\..\HamFlyAPI\src/hamfly_qx_protocol.c ****     }
 2804              		.loc 1 192 0 discriminator 7
 2805 00d2 BB68     		ldr	r3, [r7, #8]
 2806 00d4 5A1E     		subs	r2, r3, #1
 2807 00d6 BA60     		str	r2, [r7, #8]
 2808 00d8 002B     		cmp	r3, #0
 2809 00da D0D1     		bne	.L251
 2810              	.L252:
 2811              		.loc 1 194 0 is_stmt 1
 2812 00dc 00BF     		nop
 2813 00de 1C37     		adds	r7, r7, #28
 2814              		.cfi_def_cfa_offset 4
 2815 00e0 BD46     		mov	sp, r7
 2816              		.cfi_def_cfa_register 13
 2817              		@ sp needed
 2818 00e2 80BC     		pop	{r7}
 2819              		.cfi_restore 7
 2820              		.cfi_def_cfa_offset 0
 2821 00e4 7047     		bx	lr
 2822              	.L254:
 2823 00e6 00BF     		.align	2
 2824              	.L253:
 2825 00e8 00000000 		.word	rw
 2826 00ec 00000000 		.word	msgPtr
 2827              		.cfi_endproc
ARM GAS  C:\Users\JENNEW~1\AppData\Local\Temp\ccQ5uJSg.s 			page 55


 2828              	.LFE24:
 2829              		.size	GetSignedLongAsSignedShort, .-GetSignedLongAsSignedShort
 2830              		.section	.text.GetSignedLongAsSignedChar,"ax",%progbits
 2831              		.align	2
 2832              		.global	GetSignedLongAsSignedChar
 2833              		.thumb
 2834              		.thumb_func
 2835              		.type	GetSignedLongAsSignedChar, %function
 2836              	GetSignedLongAsSignedChar:
 2837              	.LFB25:
 195:..\..\..\HamFlyAPI\src/hamfly_qx_protocol.c **** void GetSignedLongAsSignedChar(int32_t *v, uint32_t n, int32_t max, int32_t min) {
 2838              		.loc 1 195 0
 2839              		.cfi_startproc
 2840              		@ args = 0, pretend = 0, frame = 24
 2841              		@ frame_needed = 1, uses_anonymous_args = 0
 2842              		@ link register save eliminated.
 2843 0000 80B4     		push	{r7}
 2844              		.cfi_def_cfa_offset 4
 2845              		.cfi_offset 7, -4
 2846 0002 87B0     		sub	sp, sp, #28
 2847              		.cfi_def_cfa_offset 32
 2848 0004 00AF     		add	r7, sp, #0
 2849              		.cfi_def_cfa_register 7
 2850 0006 F860     		str	r0, [r7, #12]
 2851 0008 B960     		str	r1, [r7, #8]
 2852 000a 7A60     		str	r2, [r7, #4]
 2853 000c 3B60     		str	r3, [r7]
 196:..\..\..\HamFlyAPI\src/hamfly_qx_protocol.c ****     if (rw == QB_Parser_Dir_WriteDel) {
 2854              		.loc 1 196 0
 2855 000e 2B4B     		ldr	r3, .L267
 2856 0010 1B78     		ldrb	r3, [r3]	@ zero_extendqisi2
 2857 0012 012B     		cmp	r3, #1
 2858 0014 47D1     		bne	.L262
 197:..\..\..\HamFlyAPI\src/hamfly_qx_protocol.c ****         while (n--) { int32_t r = (int32_t)GETSC; *v += r; if (max<*v)*v=max; if (*v<min)*v=min; v+
 2859              		.loc 1 197 0
 2860 0016 21E0     		b	.L257
 2861              	.L260:
 2862              	.LBB25:
 2863              		.loc 1 197 0 is_stmt 0 discriminator 8
 2864 0018 294B     		ldr	r3, .L267+4
 2865 001a 1B68     		ldr	r3, [r3]
 2866 001c 5A1C     		adds	r2, r3, #1
 2867 001e 2849     		ldr	r1, .L267+4
 2868 0020 0A60     		str	r2, [r1]
 2869 0022 1B78     		ldrb	r3, [r3]
 2870 0024 DBB2     		uxtb	r3, r3
 2871 0026 5BB2     		sxtb	r3, r3
 2872 0028 7B61     		str	r3, [r7, #20]
 2873 002a FB68     		ldr	r3, [r7, #12]
 2874 002c 1A68     		ldr	r2, [r3]
 2875 002e 7B69     		ldr	r3, [r7, #20]
 2876 0030 1A44     		add	r2, r2, r3
 2877 0032 FB68     		ldr	r3, [r7, #12]
 2878 0034 1A60     		str	r2, [r3]
 2879 0036 FB68     		ldr	r3, [r7, #12]
 2880 0038 1A68     		ldr	r2, [r3]
 2881 003a 7B68     		ldr	r3, [r7, #4]
ARM GAS  C:\Users\JENNEW~1\AppData\Local\Temp\ccQ5uJSg.s 			page 56


 2882 003c 9A42     		cmp	r2, r3
 2883 003e 02DD     		ble	.L258
 2884              		.loc 1 197 0 discriminator 1
 2885 0040 FB68     		ldr	r3, [r7, #12]
 2886 0042 7A68     		ldr	r2, [r7, #4]
 2887 0044 1A60     		str	r2, [r3]
 2888              	.L258:
 2889              		.loc 1 197 0 discriminator 3
 2890 0046 FB68     		ldr	r3, [r7, #12]
 2891 0048 1A68     		ldr	r2, [r3]
 2892 004a 3B68     		ldr	r3, [r7]
 2893 004c 9A42     		cmp	r2, r3
 2894 004e 02DA     		bge	.L259
 2895              		.loc 1 197 0 discriminator 4
 2896 0050 FB68     		ldr	r3, [r7, #12]
 2897 0052 3A68     		ldr	r2, [r7]
 2898 0054 1A60     		str	r2, [r3]
 2899              	.L259:
 2900              		.loc 1 197 0 discriminator 6
 2901 0056 FB68     		ldr	r3, [r7, #12]
 2902 0058 0433     		adds	r3, r3, #4
 2903 005a FB60     		str	r3, [r7, #12]
 2904              	.L257:
 2905              	.LBE25:
 2906              		.loc 1 197 0 discriminator 7
 2907 005c BB68     		ldr	r3, [r7, #8]
 2908 005e 5A1E     		subs	r2, r3, #1
 2909 0060 BA60     		str	r2, [r7, #8]
 2910 0062 002B     		cmp	r3, #0
 2911 0064 D8D1     		bne	.L260
 198:..\..\..\HamFlyAPI\src/hamfly_qx_protocol.c ****     } else {
 199:..\..\..\HamFlyAPI\src/hamfly_qx_protocol.c ****         while (n--) { int32_t r = (int32_t)GETSC; *v  = r; if (max<*v)*v=max; if (*v<min)*v=min; v+
 200:..\..\..\HamFlyAPI\src/hamfly_qx_protocol.c ****     }
 201:..\..\..\HamFlyAPI\src/hamfly_qx_protocol.c **** }
 2912              		.loc 1 201 0 is_stmt 1
 2913 0066 23E0     		b	.L266
 2914              	.L265:
 2915              	.LBB26:
 199:..\..\..\HamFlyAPI\src/hamfly_qx_protocol.c ****     }
 2916              		.loc 1 199 0 discriminator 8
 2917 0068 154B     		ldr	r3, .L267+4
 2918 006a 1B68     		ldr	r3, [r3]
 2919 006c 5A1C     		adds	r2, r3, #1
 2920 006e 1449     		ldr	r1, .L267+4
 2921 0070 0A60     		str	r2, [r1]
 2922 0072 1B78     		ldrb	r3, [r3]
 2923 0074 DBB2     		uxtb	r3, r3
 2924 0076 5BB2     		sxtb	r3, r3
 2925 0078 3B61     		str	r3, [r7, #16]
 2926 007a FB68     		ldr	r3, [r7, #12]
 2927 007c 3A69     		ldr	r2, [r7, #16]
 2928 007e 1A60     		str	r2, [r3]
 2929 0080 FB68     		ldr	r3, [r7, #12]
 2930 0082 1A68     		ldr	r2, [r3]
 2931 0084 7B68     		ldr	r3, [r7, #4]
 2932 0086 9A42     		cmp	r2, r3
 2933 0088 02DD     		ble	.L263
ARM GAS  C:\Users\JENNEW~1\AppData\Local\Temp\ccQ5uJSg.s 			page 57


 199:..\..\..\HamFlyAPI\src/hamfly_qx_protocol.c ****     }
 2934              		.loc 1 199 0 is_stmt 0 discriminator 1
 2935 008a FB68     		ldr	r3, [r7, #12]
 2936 008c 7A68     		ldr	r2, [r7, #4]
 2937 008e 1A60     		str	r2, [r3]
 2938              	.L263:
 199:..\..\..\HamFlyAPI\src/hamfly_qx_protocol.c ****     }
 2939              		.loc 1 199 0 discriminator 3
 2940 0090 FB68     		ldr	r3, [r7, #12]
 2941 0092 1A68     		ldr	r2, [r3]
 2942 0094 3B68     		ldr	r3, [r7]
 2943 0096 9A42     		cmp	r2, r3
 2944 0098 02DA     		bge	.L264
 199:..\..\..\HamFlyAPI\src/hamfly_qx_protocol.c ****     }
 2945              		.loc 1 199 0 discriminator 4
 2946 009a FB68     		ldr	r3, [r7, #12]
 2947 009c 3A68     		ldr	r2, [r7]
 2948 009e 1A60     		str	r2, [r3]
 2949              	.L264:
 199:..\..\..\HamFlyAPI\src/hamfly_qx_protocol.c ****     }
 2950              		.loc 1 199 0 discriminator 6
 2951 00a0 FB68     		ldr	r3, [r7, #12]
 2952 00a2 0433     		adds	r3, r3, #4
 2953 00a4 FB60     		str	r3, [r7, #12]
 2954              	.L262:
 2955              	.LBE26:
 199:..\..\..\HamFlyAPI\src/hamfly_qx_protocol.c ****     }
 2956              		.loc 1 199 0 discriminator 7
 2957 00a6 BB68     		ldr	r3, [r7, #8]
 2958 00a8 5A1E     		subs	r2, r3, #1
 2959 00aa BA60     		str	r2, [r7, #8]
 2960 00ac 002B     		cmp	r3, #0
 2961 00ae DBD1     		bne	.L265
 2962              	.L266:
 2963              		.loc 1 201 0 is_stmt 1
 2964 00b0 00BF     		nop
 2965 00b2 1C37     		adds	r7, r7, #28
 2966              		.cfi_def_cfa_offset 4
 2967 00b4 BD46     		mov	sp, r7
 2968              		.cfi_def_cfa_register 13
 2969              		@ sp needed
 2970 00b6 80BC     		pop	{r7}
 2971              		.cfi_restore 7
 2972              		.cfi_def_cfa_offset 0
 2973 00b8 7047     		bx	lr
 2974              	.L268:
 2975 00ba 00BF     		.align	2
 2976              	.L267:
 2977 00bc 00000000 		.word	rw
 2978 00c0 00000000 		.word	msgPtr
 2979              		.cfi_endproc
 2980              	.LFE25:
 2981              		.size	GetSignedLongAsSignedChar, .-GetSignedLongAsSignedChar
 2982              		.section	.text.GetSignedLongAsUnsignedChar,"ax",%progbits
 2983              		.align	2
 2984              		.global	GetSignedLongAsUnsignedChar
 2985              		.thumb
ARM GAS  C:\Users\JENNEW~1\AppData\Local\Temp\ccQ5uJSg.s 			page 58


 2986              		.thumb_func
 2987              		.type	GetSignedLongAsUnsignedChar, %function
 2988              	GetSignedLongAsUnsignedChar:
 2989              	.LFB26:
 202:..\..\..\HamFlyAPI\src/hamfly_qx_protocol.c **** void GetSignedLongAsUnsignedChar(int32_t *v, uint32_t n, int32_t max, int32_t min) {
 2990              		.loc 1 202 0
 2991              		.cfi_startproc
 2992              		@ args = 0, pretend = 0, frame = 24
 2993              		@ frame_needed = 1, uses_anonymous_args = 0
 2994              		@ link register save eliminated.
 2995 0000 80B4     		push	{r7}
 2996              		.cfi_def_cfa_offset 4
 2997              		.cfi_offset 7, -4
 2998 0002 87B0     		sub	sp, sp, #28
 2999              		.cfi_def_cfa_offset 32
 3000 0004 00AF     		add	r7, sp, #0
 3001              		.cfi_def_cfa_register 7
 3002 0006 F860     		str	r0, [r7, #12]
 3003 0008 B960     		str	r1, [r7, #8]
 3004 000a 7A60     		str	r2, [r7, #4]
 3005 000c 3B60     		str	r3, [r7]
 203:..\..\..\HamFlyAPI\src/hamfly_qx_protocol.c ****     if (rw == QB_Parser_Dir_WriteDel) {
 3006              		.loc 1 203 0
 3007 000e 2A4B     		ldr	r3, .L281
 3008 0010 1B78     		ldrb	r3, [r3]	@ zero_extendqisi2
 3009 0012 012B     		cmp	r3, #1
 3010 0014 46D1     		bne	.L276
 204:..\..\..\HamFlyAPI\src/hamfly_qx_protocol.c ****         while (n--) { int32_t r = (int32_t)GETSC; *v += r; if (max<*v)*v=max; if (*v<min)*v=min; v+
 3011              		.loc 1 204 0
 3012 0016 21E0     		b	.L271
 3013              	.L274:
 3014              	.LBB27:
 3015              		.loc 1 204 0 is_stmt 0 discriminator 8
 3016 0018 284B     		ldr	r3, .L281+4
 3017 001a 1B68     		ldr	r3, [r3]
 3018 001c 5A1C     		adds	r2, r3, #1
 3019 001e 2749     		ldr	r1, .L281+4
 3020 0020 0A60     		str	r2, [r1]
 3021 0022 1B78     		ldrb	r3, [r3]
 3022 0024 DBB2     		uxtb	r3, r3
 3023 0026 5BB2     		sxtb	r3, r3
 3024 0028 7B61     		str	r3, [r7, #20]
 3025 002a FB68     		ldr	r3, [r7, #12]
 3026 002c 1A68     		ldr	r2, [r3]
 3027 002e 7B69     		ldr	r3, [r7, #20]
 3028 0030 1A44     		add	r2, r2, r3
 3029 0032 FB68     		ldr	r3, [r7, #12]
 3030 0034 1A60     		str	r2, [r3]
 3031 0036 FB68     		ldr	r3, [r7, #12]
 3032 0038 1A68     		ldr	r2, [r3]
 3033 003a 7B68     		ldr	r3, [r7, #4]
 3034 003c 9A42     		cmp	r2, r3
 3035 003e 02DD     		ble	.L272
 3036              		.loc 1 204 0 discriminator 1
 3037 0040 FB68     		ldr	r3, [r7, #12]
 3038 0042 7A68     		ldr	r2, [r7, #4]
 3039 0044 1A60     		str	r2, [r3]
ARM GAS  C:\Users\JENNEW~1\AppData\Local\Temp\ccQ5uJSg.s 			page 59


 3040              	.L272:
 3041              		.loc 1 204 0 discriminator 3
 3042 0046 FB68     		ldr	r3, [r7, #12]
 3043 0048 1A68     		ldr	r2, [r3]
 3044 004a 3B68     		ldr	r3, [r7]
 3045 004c 9A42     		cmp	r2, r3
 3046 004e 02DA     		bge	.L273
 3047              		.loc 1 204 0 discriminator 4
 3048 0050 FB68     		ldr	r3, [r7, #12]
 3049 0052 3A68     		ldr	r2, [r7]
 3050 0054 1A60     		str	r2, [r3]
 3051              	.L273:
 3052              		.loc 1 204 0 discriminator 6
 3053 0056 FB68     		ldr	r3, [r7, #12]
 3054 0058 0433     		adds	r3, r3, #4
 3055 005a FB60     		str	r3, [r7, #12]
 3056              	.L271:
 3057              	.LBE27:
 3058              		.loc 1 204 0 discriminator 7
 3059 005c BB68     		ldr	r3, [r7, #8]
 3060 005e 5A1E     		subs	r2, r3, #1
 3061 0060 BA60     		str	r2, [r7, #8]
 3062 0062 002B     		cmp	r3, #0
 3063 0064 D8D1     		bne	.L274
 205:..\..\..\HamFlyAPI\src/hamfly_qx_protocol.c ****     } else {
 206:..\..\..\HamFlyAPI\src/hamfly_qx_protocol.c ****         while (n--) { int32_t r = (int32_t)GETUC; *v  = r; if (max<*v)*v=max; if (*v<min)*v=min; v+
 207:..\..\..\HamFlyAPI\src/hamfly_qx_protocol.c ****     }
 208:..\..\..\HamFlyAPI\src/hamfly_qx_protocol.c **** }
 3064              		.loc 1 208 0 is_stmt 1
 3065 0066 22E0     		b	.L280
 3066              	.L279:
 3067              	.LBB28:
 206:..\..\..\HamFlyAPI\src/hamfly_qx_protocol.c ****     }
 3068              		.loc 1 206 0 discriminator 8
 3069 0068 144B     		ldr	r3, .L281+4
 3070 006a 1B68     		ldr	r3, [r3]
 3071 006c 5A1C     		adds	r2, r3, #1
 3072 006e 1349     		ldr	r1, .L281+4
 3073 0070 0A60     		str	r2, [r1]
 3074 0072 1B78     		ldrb	r3, [r3]
 3075 0074 DBB2     		uxtb	r3, r3
 3076 0076 3B61     		str	r3, [r7, #16]
 3077 0078 FB68     		ldr	r3, [r7, #12]
 3078 007a 3A69     		ldr	r2, [r7, #16]
 3079 007c 1A60     		str	r2, [r3]
 3080 007e FB68     		ldr	r3, [r7, #12]
 3081 0080 1A68     		ldr	r2, [r3]
 3082 0082 7B68     		ldr	r3, [r7, #4]
 3083 0084 9A42     		cmp	r2, r3
 3084 0086 02DD     		ble	.L277
 206:..\..\..\HamFlyAPI\src/hamfly_qx_protocol.c ****     }
 3085              		.loc 1 206 0 is_stmt 0 discriminator 1
 3086 0088 FB68     		ldr	r3, [r7, #12]
 3087 008a 7A68     		ldr	r2, [r7, #4]
 3088 008c 1A60     		str	r2, [r3]
 3089              	.L277:
 206:..\..\..\HamFlyAPI\src/hamfly_qx_protocol.c ****     }
ARM GAS  C:\Users\JENNEW~1\AppData\Local\Temp\ccQ5uJSg.s 			page 60


 3090              		.loc 1 206 0 discriminator 3
 3091 008e FB68     		ldr	r3, [r7, #12]
 3092 0090 1A68     		ldr	r2, [r3]
 3093 0092 3B68     		ldr	r3, [r7]
 3094 0094 9A42     		cmp	r2, r3
 3095 0096 02DA     		bge	.L278
 206:..\..\..\HamFlyAPI\src/hamfly_qx_protocol.c ****     }
 3096              		.loc 1 206 0 discriminator 4
 3097 0098 FB68     		ldr	r3, [r7, #12]
 3098 009a 3A68     		ldr	r2, [r7]
 3099 009c 1A60     		str	r2, [r3]
 3100              	.L278:
 206:..\..\..\HamFlyAPI\src/hamfly_qx_protocol.c ****     }
 3101              		.loc 1 206 0 discriminator 6
 3102 009e FB68     		ldr	r3, [r7, #12]
 3103 00a0 0433     		adds	r3, r3, #4
 3104 00a2 FB60     		str	r3, [r7, #12]
 3105              	.L276:
 3106              	.LBE28:
 206:..\..\..\HamFlyAPI\src/hamfly_qx_protocol.c ****     }
 3107              		.loc 1 206 0 discriminator 7
 3108 00a4 BB68     		ldr	r3, [r7, #8]
 3109 00a6 5A1E     		subs	r2, r3, #1
 3110 00a8 BA60     		str	r2, [r7, #8]
 3111 00aa 002B     		cmp	r3, #0
 3112 00ac DCD1     		bne	.L279
 3113              	.L280:
 3114              		.loc 1 208 0 is_stmt 1
 3115 00ae 00BF     		nop
 3116 00b0 1C37     		adds	r7, r7, #28
 3117              		.cfi_def_cfa_offset 4
 3118 00b2 BD46     		mov	sp, r7
 3119              		.cfi_def_cfa_register 13
 3120              		@ sp needed
 3121 00b4 80BC     		pop	{r7}
 3122              		.cfi_restore 7
 3123              		.cfi_def_cfa_offset 0
 3124 00b6 7047     		bx	lr
 3125              	.L282:
 3126              		.align	2
 3127              	.L281:
 3128 00b8 00000000 		.word	rw
 3129 00bc 00000000 		.word	msgPtr
 3130              		.cfi_endproc
 3131              	.LFE26:
 3132              		.size	GetSignedLongAsUnsignedChar, .-GetSignedLongAsUnsignedChar
 3133              		.section	.text.AddSignedShortAsSignedShort,"ax",%progbits
 3134              		.align	2
 3135              		.global	AddSignedShortAsSignedShort
 3136              		.thumb
 3137              		.thumb_func
 3138              		.type	AddSignedShortAsSignedShort, %function
 3139              	AddSignedShortAsSignedShort:
 3140              	.LFB27:
 209:..\..\..\HamFlyAPI\src/hamfly_qx_protocol.c **** 
 210:..\..\..\HamFlyAPI\src/hamfly_qx_protocol.c **** void AddSignedShortAsSignedShort(int16_t *v, uint32_t n) {
 3141              		.loc 1 210 0
ARM GAS  C:\Users\JENNEW~1\AppData\Local\Temp\ccQ5uJSg.s 			page 61


 3142              		.cfi_startproc
 3143              		@ args = 0, pretend = 0, frame = 16
 3144              		@ frame_needed = 1, uses_anonymous_args = 0
 3145              		@ link register save eliminated.
 3146 0000 80B4     		push	{r7}
 3147              		.cfi_def_cfa_offset 4
 3148              		.cfi_offset 7, -4
 3149 0002 85B0     		sub	sp, sp, #20
 3150              		.cfi_def_cfa_offset 24
 3151 0004 00AF     		add	r7, sp, #0
 3152              		.cfi_def_cfa_register 7
 3153 0006 7860     		str	r0, [r7, #4]
 3154 0008 3960     		str	r1, [r7]
 211:..\..\..\HamFlyAPI\src/hamfly_qx_protocol.c ****     while (n--) { int16_t val = *v; ADDSS(val); v++; }
 3155              		.loc 1 211 0
 3156 000a 18E0     		b	.L284
 3157              	.L285:
 3158              	.LBB29:
 3159              		.loc 1 211 0 is_stmt 0 discriminator 2
 3160 000c 7B68     		ldr	r3, [r7, #4]
 3161 000e 1B88     		ldrh	r3, [r3]	@ movhi
 3162 0010 FB81     		strh	r3, [r7, #14]	@ movhi
 3163 0012 104B     		ldr	r3, .L286
 3164 0014 1B68     		ldr	r3, [r3]
 3165 0016 5A1C     		adds	r2, r3, #1
 3166 0018 0E49     		ldr	r1, .L286
 3167 001a 0A60     		str	r2, [r1]
 3168 001c B7F90E20 		ldrsh	r2, [r7, #14]
 3169 0020 1212     		asrs	r2, r2, #8
 3170 0022 12B2     		sxth	r2, r2
 3171 0024 D2B2     		uxtb	r2, r2
 3172 0026 1A70     		strb	r2, [r3]
 3173 0028 0A4B     		ldr	r3, .L286
 3174 002a 1B68     		ldr	r3, [r3]
 3175 002c 5A1C     		adds	r2, r3, #1
 3176 002e 0949     		ldr	r1, .L286
 3177 0030 0A60     		str	r2, [r1]
 3178 0032 FA89     		ldrh	r2, [r7, #14]	@ movhi
 3179 0034 D2B2     		uxtb	r2, r2
 3180 0036 1A70     		strb	r2, [r3]
 3181 0038 7B68     		ldr	r3, [r7, #4]
 3182 003a 0233     		adds	r3, r3, #2
 3183 003c 7B60     		str	r3, [r7, #4]
 3184              	.L284:
 3185              	.LBE29:
 3186              		.loc 1 211 0 discriminator 1
 3187 003e 3B68     		ldr	r3, [r7]
 3188 0040 5A1E     		subs	r2, r3, #1
 3189 0042 3A60     		str	r2, [r7]
 3190 0044 002B     		cmp	r3, #0
 3191 0046 E1D1     		bne	.L285
 212:..\..\..\HamFlyAPI\src/hamfly_qx_protocol.c **** }
 3192              		.loc 1 212 0 is_stmt 1
 3193 0048 00BF     		nop
 3194 004a 1437     		adds	r7, r7, #20
 3195              		.cfi_def_cfa_offset 4
 3196 004c BD46     		mov	sp, r7
ARM GAS  C:\Users\JENNEW~1\AppData\Local\Temp\ccQ5uJSg.s 			page 62


 3197              		.cfi_def_cfa_register 13
 3198              		@ sp needed
 3199 004e 80BC     		pop	{r7}
 3200              		.cfi_restore 7
 3201              		.cfi_def_cfa_offset 0
 3202 0050 7047     		bx	lr
 3203              	.L287:
 3204 0052 00BF     		.align	2
 3205              	.L286:
 3206 0054 00000000 		.word	msgPtr
 3207              		.cfi_endproc
 3208              	.LFE27:
 3209              		.size	AddSignedShortAsSignedShort, .-AddSignedShortAsSignedShort
 3210              		.section	.text.AddSignedShortAsSignedChar,"ax",%progbits
 3211              		.align	2
 3212              		.global	AddSignedShortAsSignedChar
 3213              		.thumb
 3214              		.thumb_func
 3215              		.type	AddSignedShortAsSignedChar, %function
 3216              	AddSignedShortAsSignedChar:
 3217              	.LFB28:
 213:..\..\..\HamFlyAPI\src/hamfly_qx_protocol.c **** void AddSignedShortAsSignedChar(int16_t *v, uint32_t n) {
 3218              		.loc 1 213 0
 3219              		.cfi_startproc
 3220              		@ args = 0, pretend = 0, frame = 16
 3221              		@ frame_needed = 1, uses_anonymous_args = 0
 3222              		@ link register save eliminated.
 3223 0000 80B4     		push	{r7}
 3224              		.cfi_def_cfa_offset 4
 3225              		.cfi_offset 7, -4
 3226 0002 85B0     		sub	sp, sp, #20
 3227              		.cfi_def_cfa_offset 24
 3228 0004 00AF     		add	r7, sp, #0
 3229              		.cfi_def_cfa_register 7
 3230 0006 7860     		str	r0, [r7, #4]
 3231 0008 3960     		str	r1, [r7]
 214:..\..\..\HamFlyAPI\src/hamfly_qx_protocol.c ****     while (n--) { int8_t val = (int8_t)*v; ADDCHAR(val); v++; }
 3232              		.loc 1 214 0
 3233 000a 0DE0     		b	.L289
 3234              	.L290:
 3235              	.LBB30:
 3236              		.loc 1 214 0 is_stmt 0 discriminator 2
 3237 000c 7B68     		ldr	r3, [r7, #4]
 3238 000e B3F90030 		ldrsh	r3, [r3]
 3239 0012 FB73     		strb	r3, [r7, #15]
 3240 0014 094B     		ldr	r3, .L291
 3241 0016 1B68     		ldr	r3, [r3]
 3242 0018 5A1C     		adds	r2, r3, #1
 3243 001a 0849     		ldr	r1, .L291
 3244 001c 0A60     		str	r2, [r1]
 3245 001e FA7B     		ldrb	r2, [r7, #15]	@ zero_extendqisi2
 3246 0020 1A70     		strb	r2, [r3]
 3247 0022 7B68     		ldr	r3, [r7, #4]
 3248 0024 0233     		adds	r3, r3, #2
 3249 0026 7B60     		str	r3, [r7, #4]
 3250              	.L289:
 3251              	.LBE30:
ARM GAS  C:\Users\JENNEW~1\AppData\Local\Temp\ccQ5uJSg.s 			page 63


 3252              		.loc 1 214 0 discriminator 1
 3253 0028 3B68     		ldr	r3, [r7]
 3254 002a 5A1E     		subs	r2, r3, #1
 3255 002c 3A60     		str	r2, [r7]
 3256 002e 002B     		cmp	r3, #0
 3257 0030 ECD1     		bne	.L290
 215:..\..\..\HamFlyAPI\src/hamfly_qx_protocol.c **** }
 3258              		.loc 1 215 0 is_stmt 1
 3259 0032 00BF     		nop
 3260 0034 1437     		adds	r7, r7, #20
 3261              		.cfi_def_cfa_offset 4
 3262 0036 BD46     		mov	sp, r7
 3263              		.cfi_def_cfa_register 13
 3264              		@ sp needed
 3265 0038 80BC     		pop	{r7}
 3266              		.cfi_restore 7
 3267              		.cfi_def_cfa_offset 0
 3268 003a 7047     		bx	lr
 3269              	.L292:
 3270              		.align	2
 3271              	.L291:
 3272 003c 00000000 		.word	msgPtr
 3273              		.cfi_endproc
 3274              	.LFE28:
 3275              		.size	AddSignedShortAsSignedChar, .-AddSignedShortAsSignedChar
 3276              		.section	.text.AddSignedShortAsUnsignedChar,"ax",%progbits
 3277              		.align	2
 3278              		.global	AddSignedShortAsUnsignedChar
 3279              		.thumb
 3280              		.thumb_func
 3281              		.type	AddSignedShortAsUnsignedChar, %function
 3282              	AddSignedShortAsUnsignedChar:
 3283              	.LFB29:
 216:..\..\..\HamFlyAPI\src/hamfly_qx_protocol.c **** void AddSignedShortAsUnsignedChar(int16_t *v, uint32_t n) {
 3284              		.loc 1 216 0
 3285              		.cfi_startproc
 3286              		@ args = 0, pretend = 0, frame = 16
 3287              		@ frame_needed = 1, uses_anonymous_args = 0
 3288              		@ link register save eliminated.
 3289 0000 80B4     		push	{r7}
 3290              		.cfi_def_cfa_offset 4
 3291              		.cfi_offset 7, -4
 3292 0002 85B0     		sub	sp, sp, #20
 3293              		.cfi_def_cfa_offset 24
 3294 0004 00AF     		add	r7, sp, #0
 3295              		.cfi_def_cfa_register 7
 3296 0006 7860     		str	r0, [r7, #4]
 3297 0008 3960     		str	r1, [r7]
 217:..\..\..\HamFlyAPI\src/hamfly_qx_protocol.c ****     while (n--) { uint8_t val = (uint8_t)*v; ADDCHAR(val); v++; }
 3298              		.loc 1 217 0
 3299 000a 0DE0     		b	.L294
 3300              	.L295:
 3301              	.LBB31:
 3302              		.loc 1 217 0 is_stmt 0 discriminator 2
 3303 000c 7B68     		ldr	r3, [r7, #4]
 3304 000e B3F90030 		ldrsh	r3, [r3]
 3305 0012 FB73     		strb	r3, [r7, #15]
ARM GAS  C:\Users\JENNEW~1\AppData\Local\Temp\ccQ5uJSg.s 			page 64


 3306 0014 094B     		ldr	r3, .L296
 3307 0016 1B68     		ldr	r3, [r3]
 3308 0018 5A1C     		adds	r2, r3, #1
 3309 001a 0849     		ldr	r1, .L296
 3310 001c 0A60     		str	r2, [r1]
 3311 001e FA7B     		ldrb	r2, [r7, #15]
 3312 0020 1A70     		strb	r2, [r3]
 3313 0022 7B68     		ldr	r3, [r7, #4]
 3314 0024 0233     		adds	r3, r3, #2
 3315 0026 7B60     		str	r3, [r7, #4]
 3316              	.L294:
 3317              	.LBE31:
 3318              		.loc 1 217 0 discriminator 1
 3319 0028 3B68     		ldr	r3, [r7]
 3320 002a 5A1E     		subs	r2, r3, #1
 3321 002c 3A60     		str	r2, [r7]
 3322 002e 002B     		cmp	r3, #0
 3323 0030 ECD1     		bne	.L295
 218:..\..\..\HamFlyAPI\src/hamfly_qx_protocol.c **** }
 3324              		.loc 1 218 0 is_stmt 1
 3325 0032 00BF     		nop
 3326 0034 1437     		adds	r7, r7, #20
 3327              		.cfi_def_cfa_offset 4
 3328 0036 BD46     		mov	sp, r7
 3329              		.cfi_def_cfa_register 13
 3330              		@ sp needed
 3331 0038 80BC     		pop	{r7}
 3332              		.cfi_restore 7
 3333              		.cfi_def_cfa_offset 0
 3334 003a 7047     		bx	lr
 3335              	.L297:
 3336              		.align	2
 3337              	.L296:
 3338 003c 00000000 		.word	msgPtr
 3339              		.cfi_endproc
 3340              	.LFE29:
 3341              		.size	AddSignedShortAsUnsignedChar, .-AddSignedShortAsUnsignedChar
 3342              		.section	.text.GetSignedShortAsSignedShort,"ax",%progbits
 3343              		.align	2
 3344              		.global	GetSignedShortAsSignedShort
 3345              		.thumb
 3346              		.thumb_func
 3347              		.type	GetSignedShortAsSignedShort, %function
 3348              	GetSignedShortAsSignedShort:
 3349              	.LFB30:
 219:..\..\..\HamFlyAPI\src/hamfly_qx_protocol.c **** void GetSignedShortAsSignedShort(int16_t *v, uint32_t n, float max, float min) {
 3350              		.loc 1 219 0
 3351              		.cfi_startproc
 3352              		@ args = 0, pretend = 0, frame = 24
 3353              		@ frame_needed = 1, uses_anonymous_args = 0
 3354 0000 80B5     		push	{r7, lr}
 3355              		.cfi_def_cfa_offset 8
 3356              		.cfi_offset 7, -8
 3357              		.cfi_offset 14, -4
 3358 0002 86B0     		sub	sp, sp, #24
 3359              		.cfi_def_cfa_offset 32
 3360 0004 00AF     		add	r7, sp, #0
ARM GAS  C:\Users\JENNEW~1\AppData\Local\Temp\ccQ5uJSg.s 			page 65


 3361              		.cfi_def_cfa_register 7
 3362 0006 F860     		str	r0, [r7, #12]
 3363 0008 B960     		str	r1, [r7, #8]
 3364 000a 7A60     		str	r2, [r7, #4]	@ float
 3365 000c 3B60     		str	r3, [r7]	@ float
 220:..\..\..\HamFlyAPI\src/hamfly_qx_protocol.c ****     if (rw == QB_Parser_Dir_WriteDel) {
 3366              		.loc 1 220 0
 3367 000e 514B     		ldr	r3, .L318
 3368 0010 1B78     		ldrb	r3, [r3]	@ zero_extendqisi2
 3369 0012 012B     		cmp	r3, #1
 3370 0014 40F09480 		bne	.L307
 221:..\..\..\HamFlyAPI\src/hamfly_qx_protocol.c ****         while (n--) { int16_t r = GETSS; *v += r; if (max<*v)*v=(int16_t)max; if (*v<min)*v=(int16_
 3371              		.loc 1 221 0
 3372 0018 49E0     		b	.L300
 3373              	.L305:
 3374              	.LBB32:
 3375              		.loc 1 221 0 is_stmt 0 discriminator 8
 3376 001a 4F4B     		ldr	r3, .L318+4
 3377 001c 1B68     		ldr	r3, [r3]
 3378 001e 1B78     		ldrb	r3, [r3]
 3379 0020 DBB2     		uxtb	r3, r3
 3380 0022 1B02     		lsls	r3, r3, #8
 3381 0024 1AB2     		sxth	r2, r3
 3382 0026 4C4B     		ldr	r3, .L318+4
 3383 0028 1B68     		ldr	r3, [r3]
 3384 002a 0133     		adds	r3, r3, #1
 3385 002c 1B78     		ldrb	r3, [r3]
 3386 002e DBB2     		uxtb	r3, r3
 3387 0030 1BB2     		sxth	r3, r3
 3388 0032 1343     		orrs	r3, r3, r2
 3389 0034 FB82     		strh	r3, [r7, #22]	@ movhi
 3390 0036 484B     		ldr	r3, .L318+4
 3391 0038 1B68     		ldr	r3, [r3]
 3392 003a 0233     		adds	r3, r3, #2
 3393 003c 464A     		ldr	r2, .L318+4
 3394 003e 1360     		str	r3, [r2]
 3395 0040 FB68     		ldr	r3, [r7, #12]
 3396 0042 B3F90030 		ldrsh	r3, [r3]
 3397 0046 9AB2     		uxth	r2, r3
 3398 0048 FB8A     		ldrh	r3, [r7, #22]
 3399 004a 1344     		add	r3, r3, r2
 3400 004c 9BB2     		uxth	r3, r3
 3401 004e 1AB2     		sxth	r2, r3
 3402 0050 FB68     		ldr	r3, [r7, #12]
 3403 0052 1A80     		strh	r2, [r3]	@ movhi
 3404 0054 FB68     		ldr	r3, [r7, #12]
 3405 0056 B3F90030 		ldrsh	r3, [r3]
 3406 005a 1846     		mov	r0, r3
 3407 005c FFF7FEFF 		bl	__aeabi_i2f
 3408 0060 0346     		mov	r3, r0
 3409 0062 7968     		ldr	r1, [r7, #4]	@ float
 3410 0064 1846     		mov	r0, r3
 3411 0066 FFF7FEFF 		bl	__aeabi_fcmpgt
 3412 006a 0346     		mov	r3, r0
 3413 006c 002B     		cmp	r3, #0
 3414 006e 06D0     		beq	.L301
 3415              		.loc 1 221 0 discriminator 1
ARM GAS  C:\Users\JENNEW~1\AppData\Local\Temp\ccQ5uJSg.s 			page 66


 3416 0070 7868     		ldr	r0, [r7, #4]	@ float
 3417 0072 FFF7FEFF 		bl	__aeabi_f2iz
 3418 0076 0346     		mov	r3, r0
 3419 0078 1AB2     		sxth	r2, r3
 3420 007a FB68     		ldr	r3, [r7, #12]
 3421 007c 1A80     		strh	r2, [r3]	@ movhi
 3422              	.L301:
 3423              		.loc 1 221 0 discriminator 3
 3424 007e FB68     		ldr	r3, [r7, #12]
 3425 0080 B3F90030 		ldrsh	r3, [r3]
 3426 0084 1846     		mov	r0, r3
 3427 0086 FFF7FEFF 		bl	__aeabi_i2f
 3428 008a 0346     		mov	r3, r0
 3429 008c 3968     		ldr	r1, [r7]	@ float
 3430 008e 1846     		mov	r0, r3
 3431 0090 FFF7FEFF 		bl	__aeabi_fcmplt
 3432 0094 0346     		mov	r3, r0
 3433 0096 002B     		cmp	r3, #0
 3434 0098 06D0     		beq	.L303
 3435              		.loc 1 221 0 discriminator 4
 3436 009a 3868     		ldr	r0, [r7]	@ float
 3437 009c FFF7FEFF 		bl	__aeabi_f2iz
 3438 00a0 0346     		mov	r3, r0
 3439 00a2 1AB2     		sxth	r2, r3
 3440 00a4 FB68     		ldr	r3, [r7, #12]
 3441 00a6 1A80     		strh	r2, [r3]	@ movhi
 3442              	.L303:
 3443              		.loc 1 221 0 discriminator 6
 3444 00a8 FB68     		ldr	r3, [r7, #12]
 3445 00aa 0233     		adds	r3, r3, #2
 3446 00ac FB60     		str	r3, [r7, #12]
 3447              	.L300:
 3448              	.LBE32:
 3449              		.loc 1 221 0 discriminator 7
 3450 00ae BB68     		ldr	r3, [r7, #8]
 3451 00b0 5A1E     		subs	r2, r3, #1
 3452 00b2 BA60     		str	r2, [r7, #8]
 3453 00b4 002B     		cmp	r3, #0
 3454 00b6 B0D1     		bne	.L305
 222:..\..\..\HamFlyAPI\src/hamfly_qx_protocol.c ****     } else {
 223:..\..\..\HamFlyAPI\src/hamfly_qx_protocol.c ****         while (n--) { int16_t r = GETSS; *v  = r; if (max<*v)*v=(int16_t)max; if (*v<min)*v=(int16_
 224:..\..\..\HamFlyAPI\src/hamfly_qx_protocol.c ****     }
 225:..\..\..\HamFlyAPI\src/hamfly_qx_protocol.c **** }
 3455              		.loc 1 225 0 is_stmt 1
 3456 00b8 47E0     		b	.L317
 3457              	.L312:
 3458              	.LBB33:
 223:..\..\..\HamFlyAPI\src/hamfly_qx_protocol.c ****     }
 3459              		.loc 1 223 0 discriminator 8
 3460 00ba 274B     		ldr	r3, .L318+4
 3461 00bc 1B68     		ldr	r3, [r3]
 3462 00be 1B78     		ldrb	r3, [r3]
 3463 00c0 DBB2     		uxtb	r3, r3
 3464 00c2 1B02     		lsls	r3, r3, #8
 3465 00c4 1AB2     		sxth	r2, r3
 3466 00c6 244B     		ldr	r3, .L318+4
 3467 00c8 1B68     		ldr	r3, [r3]
ARM GAS  C:\Users\JENNEW~1\AppData\Local\Temp\ccQ5uJSg.s 			page 67


 3468 00ca 0133     		adds	r3, r3, #1
 3469 00cc 1B78     		ldrb	r3, [r3]
 3470 00ce DBB2     		uxtb	r3, r3
 3471 00d0 1BB2     		sxth	r3, r3
 3472 00d2 1343     		orrs	r3, r3, r2
 3473 00d4 BB82     		strh	r3, [r7, #20]	@ movhi
 3474 00d6 204B     		ldr	r3, .L318+4
 3475 00d8 1B68     		ldr	r3, [r3]
 3476 00da 0233     		adds	r3, r3, #2
 3477 00dc 1E4A     		ldr	r2, .L318+4
 3478 00de 1360     		str	r3, [r2]
 3479 00e0 FB68     		ldr	r3, [r7, #12]
 3480 00e2 BA8A     		ldrh	r2, [r7, #20]	@ movhi
 3481 00e4 1A80     		strh	r2, [r3]	@ movhi
 3482 00e6 FB68     		ldr	r3, [r7, #12]
 3483 00e8 B3F90030 		ldrsh	r3, [r3]
 3484 00ec 1846     		mov	r0, r3
 3485 00ee FFF7FEFF 		bl	__aeabi_i2f
 3486 00f2 0346     		mov	r3, r0
 3487 00f4 7968     		ldr	r1, [r7, #4]	@ float
 3488 00f6 1846     		mov	r0, r3
 3489 00f8 FFF7FEFF 		bl	__aeabi_fcmpgt
 3490 00fc 0346     		mov	r3, r0
 3491 00fe 002B     		cmp	r3, #0
 3492 0100 06D0     		beq	.L308
 223:..\..\..\HamFlyAPI\src/hamfly_qx_protocol.c ****     }
 3493              		.loc 1 223 0 is_stmt 0 discriminator 1
 3494 0102 7868     		ldr	r0, [r7, #4]	@ float
 3495 0104 FFF7FEFF 		bl	__aeabi_f2iz
 3496 0108 0346     		mov	r3, r0
 3497 010a 1AB2     		sxth	r2, r3
 3498 010c FB68     		ldr	r3, [r7, #12]
 3499 010e 1A80     		strh	r2, [r3]	@ movhi
 3500              	.L308:
 223:..\..\..\HamFlyAPI\src/hamfly_qx_protocol.c ****     }
 3501              		.loc 1 223 0 discriminator 3
 3502 0110 FB68     		ldr	r3, [r7, #12]
 3503 0112 B3F90030 		ldrsh	r3, [r3]
 3504 0116 1846     		mov	r0, r3
 3505 0118 FFF7FEFF 		bl	__aeabi_i2f
 3506 011c 0346     		mov	r3, r0
 3507 011e 3968     		ldr	r1, [r7]	@ float
 3508 0120 1846     		mov	r0, r3
 3509 0122 FFF7FEFF 		bl	__aeabi_fcmplt
 3510 0126 0346     		mov	r3, r0
 3511 0128 002B     		cmp	r3, #0
 3512 012a 06D0     		beq	.L310
 223:..\..\..\HamFlyAPI\src/hamfly_qx_protocol.c ****     }
 3513              		.loc 1 223 0 discriminator 4
 3514 012c 3868     		ldr	r0, [r7]	@ float
 3515 012e FFF7FEFF 		bl	__aeabi_f2iz
 3516 0132 0346     		mov	r3, r0
 3517 0134 1AB2     		sxth	r2, r3
 3518 0136 FB68     		ldr	r3, [r7, #12]
 3519 0138 1A80     		strh	r2, [r3]	@ movhi
 3520              	.L310:
 223:..\..\..\HamFlyAPI\src/hamfly_qx_protocol.c ****     }
ARM GAS  C:\Users\JENNEW~1\AppData\Local\Temp\ccQ5uJSg.s 			page 68


 3521              		.loc 1 223 0 discriminator 6
 3522 013a FB68     		ldr	r3, [r7, #12]
 3523 013c 0233     		adds	r3, r3, #2
 3524 013e FB60     		str	r3, [r7, #12]
 3525              	.L307:
 3526              	.LBE33:
 223:..\..\..\HamFlyAPI\src/hamfly_qx_protocol.c ****     }
 3527              		.loc 1 223 0 discriminator 7
 3528 0140 BB68     		ldr	r3, [r7, #8]
 3529 0142 5A1E     		subs	r2, r3, #1
 3530 0144 BA60     		str	r2, [r7, #8]
 3531 0146 002B     		cmp	r3, #0
 3532 0148 B7D1     		bne	.L312
 3533              	.L317:
 3534              		.loc 1 225 0 is_stmt 1
 3535 014a 00BF     		nop
 3536 014c 1837     		adds	r7, r7, #24
 3537              		.cfi_def_cfa_offset 8
 3538 014e BD46     		mov	sp, r7
 3539              		.cfi_def_cfa_register 13
 3540              		@ sp needed
 3541 0150 80BD     		pop	{r7, pc}
 3542              	.L319:
 3543 0152 00BF     		.align	2
 3544              	.L318:
 3545 0154 00000000 		.word	rw
 3546 0158 00000000 		.word	msgPtr
 3547              		.cfi_endproc
 3548              	.LFE30:
 3549              		.size	GetSignedShortAsSignedShort, .-GetSignedShortAsSignedShort
 3550              		.section	.text.GetSignedShortAsSignedChar,"ax",%progbits
 3551              		.align	2
 3552              		.global	GetSignedShortAsSignedChar
 3553              		.thumb
 3554              		.thumb_func
 3555              		.type	GetSignedShortAsSignedChar, %function
 3556              	GetSignedShortAsSignedChar:
 3557              	.LFB31:
 226:..\..\..\HamFlyAPI\src/hamfly_qx_protocol.c **** void GetSignedShortAsSignedChar(int16_t *v, uint32_t n, float max, float min) {
 3558              		.loc 1 226 0
 3559              		.cfi_startproc
 3560              		@ args = 0, pretend = 0, frame = 24
 3561              		@ frame_needed = 1, uses_anonymous_args = 0
 3562 0000 80B5     		push	{r7, lr}
 3563              		.cfi_def_cfa_offset 8
 3564              		.cfi_offset 7, -8
 3565              		.cfi_offset 14, -4
 3566 0002 86B0     		sub	sp, sp, #24
 3567              		.cfi_def_cfa_offset 32
 3568 0004 00AF     		add	r7, sp, #0
 3569              		.cfi_def_cfa_register 7
 3570 0006 F860     		str	r0, [r7, #12]
 3571 0008 B960     		str	r1, [r7, #8]
 3572 000a 7A60     		str	r2, [r7, #4]	@ float
 3573 000c 3B60     		str	r3, [r7]	@ float
 227:..\..\..\HamFlyAPI\src/hamfly_qx_protocol.c ****     if (rw == QB_Parser_Dir_WriteDel) {
 3574              		.loc 1 227 0
ARM GAS  C:\Users\JENNEW~1\AppData\Local\Temp\ccQ5uJSg.s 			page 69


 3575 000e 464B     		ldr	r3, .L340
 3576 0010 1B78     		ldrb	r3, [r3]	@ zero_extendqisi2
 3577 0012 012B     		cmp	r3, #1
 3578 0014 7FD1     		bne	.L329
 228:..\..\..\HamFlyAPI\src/hamfly_qx_protocol.c ****         while (n--) { int16_t r = (int16_t)GETSC; *v += r; if (max<*v)*v=(int16_t)max; if (*v<min)*
 3579              		.loc 1 228 0
 3580 0016 3FE0     		b	.L322
 3581              	.L327:
 3582              	.LBB34:
 3583              		.loc 1 228 0 is_stmt 0 discriminator 8
 3584 0018 444B     		ldr	r3, .L340+4
 3585 001a 1B68     		ldr	r3, [r3]
 3586 001c 5A1C     		adds	r2, r3, #1
 3587 001e 4349     		ldr	r1, .L340+4
 3588 0020 0A60     		str	r2, [r1]
 3589 0022 1B78     		ldrb	r3, [r3]
 3590 0024 DBB2     		uxtb	r3, r3
 3591 0026 5BB2     		sxtb	r3, r3
 3592 0028 FB82     		strh	r3, [r7, #22]	@ movhi
 3593 002a FB68     		ldr	r3, [r7, #12]
 3594 002c B3F90030 		ldrsh	r3, [r3]
 3595 0030 9AB2     		uxth	r2, r3
 3596 0032 FB8A     		ldrh	r3, [r7, #22]
 3597 0034 1344     		add	r3, r3, r2
 3598 0036 9BB2     		uxth	r3, r3
 3599 0038 1AB2     		sxth	r2, r3
 3600 003a FB68     		ldr	r3, [r7, #12]
 3601 003c 1A80     		strh	r2, [r3]	@ movhi
 3602 003e FB68     		ldr	r3, [r7, #12]
 3603 0040 B3F90030 		ldrsh	r3, [r3]
 3604 0044 1846     		mov	r0, r3
 3605 0046 FFF7FEFF 		bl	__aeabi_i2f
 3606 004a 0346     		mov	r3, r0
 3607 004c 7968     		ldr	r1, [r7, #4]	@ float
 3608 004e 1846     		mov	r0, r3
 3609 0050 FFF7FEFF 		bl	__aeabi_fcmpgt
 3610 0054 0346     		mov	r3, r0
 3611 0056 002B     		cmp	r3, #0
 3612 0058 06D0     		beq	.L323
 3613              		.loc 1 228 0 discriminator 1
 3614 005a 7868     		ldr	r0, [r7, #4]	@ float
 3615 005c FFF7FEFF 		bl	__aeabi_f2iz
 3616 0060 0346     		mov	r3, r0
 3617 0062 1AB2     		sxth	r2, r3
 3618 0064 FB68     		ldr	r3, [r7, #12]
 3619 0066 1A80     		strh	r2, [r3]	@ movhi
 3620              	.L323:
 3621              		.loc 1 228 0 discriminator 3
 3622 0068 FB68     		ldr	r3, [r7, #12]
 3623 006a B3F90030 		ldrsh	r3, [r3]
 3624 006e 1846     		mov	r0, r3
 3625 0070 FFF7FEFF 		bl	__aeabi_i2f
 3626 0074 0346     		mov	r3, r0
 3627 0076 3968     		ldr	r1, [r7]	@ float
 3628 0078 1846     		mov	r0, r3
 3629 007a FFF7FEFF 		bl	__aeabi_fcmplt
 3630 007e 0346     		mov	r3, r0
ARM GAS  C:\Users\JENNEW~1\AppData\Local\Temp\ccQ5uJSg.s 			page 70


 3631 0080 002B     		cmp	r3, #0
 3632 0082 06D0     		beq	.L325
 3633              		.loc 1 228 0 discriminator 4
 3634 0084 3868     		ldr	r0, [r7]	@ float
 3635 0086 FFF7FEFF 		bl	__aeabi_f2iz
 3636 008a 0346     		mov	r3, r0
 3637 008c 1AB2     		sxth	r2, r3
 3638 008e FB68     		ldr	r3, [r7, #12]
 3639 0090 1A80     		strh	r2, [r3]	@ movhi
 3640              	.L325:
 3641              		.loc 1 228 0 discriminator 6
 3642 0092 FB68     		ldr	r3, [r7, #12]
 3643 0094 0233     		adds	r3, r3, #2
 3644 0096 FB60     		str	r3, [r7, #12]
 3645              	.L322:
 3646              	.LBE34:
 3647              		.loc 1 228 0 discriminator 7
 3648 0098 BB68     		ldr	r3, [r7, #8]
 3649 009a 5A1E     		subs	r2, r3, #1
 3650 009c BA60     		str	r2, [r7, #8]
 3651 009e 002B     		cmp	r3, #0
 3652 00a0 BAD1     		bne	.L327
 229:..\..\..\HamFlyAPI\src/hamfly_qx_protocol.c ****     } else {
 230:..\..\..\HamFlyAPI\src/hamfly_qx_protocol.c ****         while (n--) { int16_t r = (int16_t)GETSC; *v  = r; if (max<*v)*v=(int16_t)max; if (*v<min)*
 231:..\..\..\HamFlyAPI\src/hamfly_qx_protocol.c ****     }
 232:..\..\..\HamFlyAPI\src/hamfly_qx_protocol.c **** }
 3653              		.loc 1 232 0 is_stmt 1
 3654 00a2 3DE0     		b	.L339
 3655              	.L334:
 3656              	.LBB35:
 230:..\..\..\HamFlyAPI\src/hamfly_qx_protocol.c ****     }
 3657              		.loc 1 230 0 discriminator 8
 3658 00a4 214B     		ldr	r3, .L340+4
 3659 00a6 1B68     		ldr	r3, [r3]
 3660 00a8 5A1C     		adds	r2, r3, #1
 3661 00aa 2049     		ldr	r1, .L340+4
 3662 00ac 0A60     		str	r2, [r1]
 3663 00ae 1B78     		ldrb	r3, [r3]
 3664 00b0 DBB2     		uxtb	r3, r3
 3665 00b2 5BB2     		sxtb	r3, r3
 3666 00b4 BB82     		strh	r3, [r7, #20]	@ movhi
 3667 00b6 FB68     		ldr	r3, [r7, #12]
 3668 00b8 BA8A     		ldrh	r2, [r7, #20]	@ movhi
 3669 00ba 1A80     		strh	r2, [r3]	@ movhi
 3670 00bc FB68     		ldr	r3, [r7, #12]
 3671 00be B3F90030 		ldrsh	r3, [r3]
 3672 00c2 1846     		mov	r0, r3
 3673 00c4 FFF7FEFF 		bl	__aeabi_i2f
 3674 00c8 0346     		mov	r3, r0
 3675 00ca 7968     		ldr	r1, [r7, #4]	@ float
 3676 00cc 1846     		mov	r0, r3
 3677 00ce FFF7FEFF 		bl	__aeabi_fcmpgt
 3678 00d2 0346     		mov	r3, r0
 3679 00d4 002B     		cmp	r3, #0
 3680 00d6 06D0     		beq	.L330
 230:..\..\..\HamFlyAPI\src/hamfly_qx_protocol.c ****     }
 3681              		.loc 1 230 0 is_stmt 0 discriminator 1
ARM GAS  C:\Users\JENNEW~1\AppData\Local\Temp\ccQ5uJSg.s 			page 71


 3682 00d8 7868     		ldr	r0, [r7, #4]	@ float
 3683 00da FFF7FEFF 		bl	__aeabi_f2iz
 3684 00de 0346     		mov	r3, r0
 3685 00e0 1AB2     		sxth	r2, r3
 3686 00e2 FB68     		ldr	r3, [r7, #12]
 3687 00e4 1A80     		strh	r2, [r3]	@ movhi
 3688              	.L330:
 230:..\..\..\HamFlyAPI\src/hamfly_qx_protocol.c ****     }
 3689              		.loc 1 230 0 discriminator 3
 3690 00e6 FB68     		ldr	r3, [r7, #12]
 3691 00e8 B3F90030 		ldrsh	r3, [r3]
 3692 00ec 1846     		mov	r0, r3
 3693 00ee FFF7FEFF 		bl	__aeabi_i2f
 3694 00f2 0346     		mov	r3, r0
 3695 00f4 3968     		ldr	r1, [r7]	@ float
 3696 00f6 1846     		mov	r0, r3
 3697 00f8 FFF7FEFF 		bl	__aeabi_fcmplt
 3698 00fc 0346     		mov	r3, r0
 3699 00fe 002B     		cmp	r3, #0
 3700 0100 06D0     		beq	.L332
 230:..\..\..\HamFlyAPI\src/hamfly_qx_protocol.c ****     }
 3701              		.loc 1 230 0 discriminator 4
 3702 0102 3868     		ldr	r0, [r7]	@ float
 3703 0104 FFF7FEFF 		bl	__aeabi_f2iz
 3704 0108 0346     		mov	r3, r0
 3705 010a 1AB2     		sxth	r2, r3
 3706 010c FB68     		ldr	r3, [r7, #12]
 3707 010e 1A80     		strh	r2, [r3]	@ movhi
 3708              	.L332:
 230:..\..\..\HamFlyAPI\src/hamfly_qx_protocol.c ****     }
 3709              		.loc 1 230 0 discriminator 6
 3710 0110 FB68     		ldr	r3, [r7, #12]
 3711 0112 0233     		adds	r3, r3, #2
 3712 0114 FB60     		str	r3, [r7, #12]
 3713              	.L329:
 3714              	.LBE35:
 230:..\..\..\HamFlyAPI\src/hamfly_qx_protocol.c ****     }
 3715              		.loc 1 230 0 discriminator 7
 3716 0116 BB68     		ldr	r3, [r7, #8]
 3717 0118 5A1E     		subs	r2, r3, #1
 3718 011a BA60     		str	r2, [r7, #8]
 3719 011c 002B     		cmp	r3, #0
 3720 011e C1D1     		bne	.L334
 3721              	.L339:
 3722              		.loc 1 232 0 is_stmt 1
 3723 0120 00BF     		nop
 3724 0122 1837     		adds	r7, r7, #24
 3725              		.cfi_def_cfa_offset 8
 3726 0124 BD46     		mov	sp, r7
 3727              		.cfi_def_cfa_register 13
 3728              		@ sp needed
 3729 0126 80BD     		pop	{r7, pc}
 3730              	.L341:
 3731              		.align	2
 3732              	.L340:
 3733 0128 00000000 		.word	rw
 3734 012c 00000000 		.word	msgPtr
ARM GAS  C:\Users\JENNEW~1\AppData\Local\Temp\ccQ5uJSg.s 			page 72


 3735              		.cfi_endproc
 3736              	.LFE31:
 3737              		.size	GetSignedShortAsSignedChar, .-GetSignedShortAsSignedChar
 3738              		.section	.text.GetSignedShortAsUnsignedChar,"ax",%progbits
 3739              		.align	2
 3740              		.global	GetSignedShortAsUnsignedChar
 3741              		.thumb
 3742              		.thumb_func
 3743              		.type	GetSignedShortAsUnsignedChar, %function
 3744              	GetSignedShortAsUnsignedChar:
 3745              	.LFB32:
 233:..\..\..\HamFlyAPI\src/hamfly_qx_protocol.c **** void GetSignedShortAsUnsignedChar(int16_t *v, uint32_t n, int16_t max, int16_t min) {
 3746              		.loc 1 233 0
 3747              		.cfi_startproc
 3748              		@ args = 0, pretend = 0, frame = 24
 3749              		@ frame_needed = 1, uses_anonymous_args = 0
 3750              		@ link register save eliminated.
 3751 0000 80B4     		push	{r7}
 3752              		.cfi_def_cfa_offset 4
 3753              		.cfi_offset 7, -4
 3754 0002 87B0     		sub	sp, sp, #28
 3755              		.cfi_def_cfa_offset 32
 3756 0004 00AF     		add	r7, sp, #0
 3757              		.cfi_def_cfa_register 7
 3758 0006 F860     		str	r0, [r7, #12]
 3759 0008 B960     		str	r1, [r7, #8]
 3760 000a 1146     		mov	r1, r2
 3761 000c 1A46     		mov	r2, r3
 3762 000e 0B46     		mov	r3, r1	@ movhi
 3763 0010 FB80     		strh	r3, [r7, #6]	@ movhi
 3764 0012 1346     		mov	r3, r2	@ movhi
 3765 0014 BB80     		strh	r3, [r7, #4]	@ movhi
 234:..\..\..\HamFlyAPI\src/hamfly_qx_protocol.c ****     if (rw == QB_Parser_Dir_WriteDel) {
 3766              		.loc 1 234 0
 3767 0016 304B     		ldr	r3, .L354
 3768 0018 1B78     		ldrb	r3, [r3]	@ zero_extendqisi2
 3769 001a 012B     		cmp	r3, #1
 3770 001c 52D1     		bne	.L349
 235:..\..\..\HamFlyAPI\src/hamfly_qx_protocol.c ****         while (n--) { int16_t r = (int16_t)GETSC; *v += r; if (max<*v)*v=max; if (*v<min)*v=min; v+
 3771              		.loc 1 235 0
 3772 001e 29E0     		b	.L344
 3773              	.L347:
 3774              	.LBB36:
 3775              		.loc 1 235 0 is_stmt 0 discriminator 8
 3776 0020 2E4B     		ldr	r3, .L354+4
 3777 0022 1B68     		ldr	r3, [r3]
 3778 0024 5A1C     		adds	r2, r3, #1
 3779 0026 2D49     		ldr	r1, .L354+4
 3780 0028 0A60     		str	r2, [r1]
 3781 002a 1B78     		ldrb	r3, [r3]
 3782 002c DBB2     		uxtb	r3, r3
 3783 002e 5BB2     		sxtb	r3, r3
 3784 0030 FB82     		strh	r3, [r7, #22]	@ movhi
 3785 0032 FB68     		ldr	r3, [r7, #12]
 3786 0034 B3F90030 		ldrsh	r3, [r3]
 3787 0038 9AB2     		uxth	r2, r3
 3788 003a FB8A     		ldrh	r3, [r7, #22]
ARM GAS  C:\Users\JENNEW~1\AppData\Local\Temp\ccQ5uJSg.s 			page 73


 3789 003c 1344     		add	r3, r3, r2
 3790 003e 9BB2     		uxth	r3, r3
 3791 0040 1AB2     		sxth	r2, r3
 3792 0042 FB68     		ldr	r3, [r7, #12]
 3793 0044 1A80     		strh	r2, [r3]	@ movhi
 3794 0046 FB68     		ldr	r3, [r7, #12]
 3795 0048 B3F90030 		ldrsh	r3, [r3]
 3796 004c B7F90620 		ldrsh	r2, [r7, #6]
 3797 0050 9A42     		cmp	r2, r3
 3798 0052 02DA     		bge	.L345
 3799              		.loc 1 235 0 discriminator 1
 3800 0054 FB68     		ldr	r3, [r7, #12]
 3801 0056 FA88     		ldrh	r2, [r7, #6]	@ movhi
 3802 0058 1A80     		strh	r2, [r3]	@ movhi
 3803              	.L345:
 3804              		.loc 1 235 0 discriminator 3
 3805 005a FB68     		ldr	r3, [r7, #12]
 3806 005c B3F90030 		ldrsh	r3, [r3]
 3807 0060 B7F90420 		ldrsh	r2, [r7, #4]
 3808 0064 9A42     		cmp	r2, r3
 3809 0066 02DD     		ble	.L346
 3810              		.loc 1 235 0 discriminator 4
 3811 0068 FB68     		ldr	r3, [r7, #12]
 3812 006a BA88     		ldrh	r2, [r7, #4]	@ movhi
 3813 006c 1A80     		strh	r2, [r3]	@ movhi
 3814              	.L346:
 3815              		.loc 1 235 0 discriminator 6
 3816 006e FB68     		ldr	r3, [r7, #12]
 3817 0070 0233     		adds	r3, r3, #2
 3818 0072 FB60     		str	r3, [r7, #12]
 3819              	.L344:
 3820              	.LBE36:
 3821              		.loc 1 235 0 discriminator 7
 3822 0074 BB68     		ldr	r3, [r7, #8]
 3823 0076 5A1E     		subs	r2, r3, #1
 3824 0078 BA60     		str	r2, [r7, #8]
 3825 007a 002B     		cmp	r3, #0
 3826 007c D0D1     		bne	.L347
 236:..\..\..\HamFlyAPI\src/hamfly_qx_protocol.c ****     } else {
 237:..\..\..\HamFlyAPI\src/hamfly_qx_protocol.c ****         while (n--) { int16_t r = (int16_t)GETUC; *v  = r; if (max<*v)*v=max; if (*v<min)*v=min; v+
 238:..\..\..\HamFlyAPI\src/hamfly_qx_protocol.c ****     }
 239:..\..\..\HamFlyAPI\src/hamfly_qx_protocol.c **** }
 3827              		.loc 1 239 0 is_stmt 1
 3828 007e 26E0     		b	.L353
 3829              	.L352:
 3830              	.LBB37:
 237:..\..\..\HamFlyAPI\src/hamfly_qx_protocol.c ****     }
 3831              		.loc 1 237 0 discriminator 8
 3832 0080 164B     		ldr	r3, .L354+4
 3833 0082 1B68     		ldr	r3, [r3]
 3834 0084 5A1C     		adds	r2, r3, #1
 3835 0086 1549     		ldr	r1, .L354+4
 3836 0088 0A60     		str	r2, [r1]
 3837 008a 1B78     		ldrb	r3, [r3]
 3838 008c DBB2     		uxtb	r3, r3
 3839 008e BB82     		strh	r3, [r7, #20]	@ movhi
 3840 0090 FB68     		ldr	r3, [r7, #12]
ARM GAS  C:\Users\JENNEW~1\AppData\Local\Temp\ccQ5uJSg.s 			page 74


 3841 0092 BA8A     		ldrh	r2, [r7, #20]	@ movhi
 3842 0094 1A80     		strh	r2, [r3]	@ movhi
 3843 0096 FB68     		ldr	r3, [r7, #12]
 3844 0098 B3F90030 		ldrsh	r3, [r3]
 3845 009c B7F90620 		ldrsh	r2, [r7, #6]
 3846 00a0 9A42     		cmp	r2, r3
 3847 00a2 02DA     		bge	.L350
 237:..\..\..\HamFlyAPI\src/hamfly_qx_protocol.c ****     }
 3848              		.loc 1 237 0 is_stmt 0 discriminator 1
 3849 00a4 FB68     		ldr	r3, [r7, #12]
 3850 00a6 FA88     		ldrh	r2, [r7, #6]	@ movhi
 3851 00a8 1A80     		strh	r2, [r3]	@ movhi
 3852              	.L350:
 237:..\..\..\HamFlyAPI\src/hamfly_qx_protocol.c ****     }
 3853              		.loc 1 237 0 discriminator 3
 3854 00aa FB68     		ldr	r3, [r7, #12]
 3855 00ac B3F90030 		ldrsh	r3, [r3]
 3856 00b0 B7F90420 		ldrsh	r2, [r7, #4]
 3857 00b4 9A42     		cmp	r2, r3
 3858 00b6 02DD     		ble	.L351
 237:..\..\..\HamFlyAPI\src/hamfly_qx_protocol.c ****     }
 3859              		.loc 1 237 0 discriminator 4
 3860 00b8 FB68     		ldr	r3, [r7, #12]
 3861 00ba BA88     		ldrh	r2, [r7, #4]	@ movhi
 3862 00bc 1A80     		strh	r2, [r3]	@ movhi
 3863              	.L351:
 237:..\..\..\HamFlyAPI\src/hamfly_qx_protocol.c ****     }
 3864              		.loc 1 237 0 discriminator 6
 3865 00be FB68     		ldr	r3, [r7, #12]
 3866 00c0 0233     		adds	r3, r3, #2
 3867 00c2 FB60     		str	r3, [r7, #12]
 3868              	.L349:
 3869              	.LBE37:
 237:..\..\..\HamFlyAPI\src/hamfly_qx_protocol.c ****     }
 3870              		.loc 1 237 0 discriminator 7
 3871 00c4 BB68     		ldr	r3, [r7, #8]
 3872 00c6 5A1E     		subs	r2, r3, #1
 3873 00c8 BA60     		str	r2, [r7, #8]
 3874 00ca 002B     		cmp	r3, #0
 3875 00cc D8D1     		bne	.L352
 3876              	.L353:
 3877              		.loc 1 239 0 is_stmt 1
 3878 00ce 00BF     		nop
 3879 00d0 1C37     		adds	r7, r7, #28
 3880              		.cfi_def_cfa_offset 4
 3881 00d2 BD46     		mov	sp, r7
 3882              		.cfi_def_cfa_register 13
 3883              		@ sp needed
 3884 00d4 80BC     		pop	{r7}
 3885              		.cfi_restore 7
 3886              		.cfi_def_cfa_offset 0
 3887 00d6 7047     		bx	lr
 3888              	.L355:
 3889              		.align	2
 3890              	.L354:
 3891 00d8 00000000 		.word	rw
 3892 00dc 00000000 		.word	msgPtr
ARM GAS  C:\Users\JENNEW~1\AppData\Local\Temp\ccQ5uJSg.s 			page 75


 3893              		.cfi_endproc
 3894              	.LFE32:
 3895              		.size	GetSignedShortAsUnsignedChar, .-GetSignedShortAsUnsignedChar
 3896              		.section	.text.AddSignedCharAsSignedChar,"ax",%progbits
 3897              		.align	2
 3898              		.global	AddSignedCharAsSignedChar
 3899              		.thumb
 3900              		.thumb_func
 3901              		.type	AddSignedCharAsSignedChar, %function
 3902              	AddSignedCharAsSignedChar:
 3903              	.LFB33:
 240:..\..\..\HamFlyAPI\src/hamfly_qx_protocol.c **** 
 241:..\..\..\HamFlyAPI\src/hamfly_qx_protocol.c **** void AddSignedCharAsSignedChar(int8_t *v, uint32_t n) {
 3904              		.loc 1 241 0
 3905              		.cfi_startproc
 3906              		@ args = 0, pretend = 0, frame = 8
 3907              		@ frame_needed = 1, uses_anonymous_args = 0
 3908              		@ link register save eliminated.
 3909 0000 80B4     		push	{r7}
 3910              		.cfi_def_cfa_offset 4
 3911              		.cfi_offset 7, -4
 3912 0002 83B0     		sub	sp, sp, #12
 3913              		.cfi_def_cfa_offset 16
 3914 0004 00AF     		add	r7, sp, #0
 3915              		.cfi_def_cfa_register 7
 3916 0006 7860     		str	r0, [r7, #4]
 3917 0008 3960     		str	r1, [r7]
 242:..\..\..\HamFlyAPI\src/hamfly_qx_protocol.c ****     while (n--) { ADDCHAR(*v); v++; }
 3918              		.loc 1 242 0
 3919 000a 0CE0     		b	.L357
 3920              	.L358:
 3921              		.loc 1 242 0 is_stmt 0 discriminator 2
 3922 000c 0B4B     		ldr	r3, .L359
 3923 000e 1B68     		ldr	r3, [r3]
 3924 0010 5A1C     		adds	r2, r3, #1
 3925 0012 0A49     		ldr	r1, .L359
 3926 0014 0A60     		str	r2, [r1]
 3927 0016 7A68     		ldr	r2, [r7, #4]
 3928 0018 92F90020 		ldrsb	r2, [r2]
 3929 001c D2B2     		uxtb	r2, r2
 3930 001e 1A70     		strb	r2, [r3]
 3931 0020 7B68     		ldr	r3, [r7, #4]
 3932 0022 0133     		adds	r3, r3, #1
 3933 0024 7B60     		str	r3, [r7, #4]
 3934              	.L357:
 3935              		.loc 1 242 0 discriminator 1
 3936 0026 3B68     		ldr	r3, [r7]
 3937 0028 5A1E     		subs	r2, r3, #1
 3938 002a 3A60     		str	r2, [r7]
 3939 002c 002B     		cmp	r3, #0
 3940 002e EDD1     		bne	.L358
 243:..\..\..\HamFlyAPI\src/hamfly_qx_protocol.c **** }
 3941              		.loc 1 243 0 is_stmt 1
 3942 0030 00BF     		nop
 3943 0032 0C37     		adds	r7, r7, #12
 3944              		.cfi_def_cfa_offset 4
 3945 0034 BD46     		mov	sp, r7
ARM GAS  C:\Users\JENNEW~1\AppData\Local\Temp\ccQ5uJSg.s 			page 76


 3946              		.cfi_def_cfa_register 13
 3947              		@ sp needed
 3948 0036 80BC     		pop	{r7}
 3949              		.cfi_restore 7
 3950              		.cfi_def_cfa_offset 0
 3951 0038 7047     		bx	lr
 3952              	.L360:
 3953 003a 00BF     		.align	2
 3954              	.L359:
 3955 003c 00000000 		.word	msgPtr
 3956              		.cfi_endproc
 3957              	.LFE33:
 3958              		.size	AddSignedCharAsSignedChar, .-AddSignedCharAsSignedChar
 3959              		.section	.text.GetSignedCharAsSignedChar,"ax",%progbits
 3960              		.align	2
 3961              		.global	GetSignedCharAsSignedChar
 3962              		.thumb
 3963              		.thumb_func
 3964              		.type	GetSignedCharAsSignedChar, %function
 3965              	GetSignedCharAsSignedChar:
 3966              	.LFB34:
 244:..\..\..\HamFlyAPI\src/hamfly_qx_protocol.c **** void GetSignedCharAsSignedChar(int8_t *v, uint32_t n, int8_t max, int8_t min) {
 3967              		.loc 1 244 0
 3968              		.cfi_startproc
 3969              		@ args = 0, pretend = 0, frame = 24
 3970              		@ frame_needed = 1, uses_anonymous_args = 0
 3971              		@ link register save eliminated.
 3972 0000 80B4     		push	{r7}
 3973              		.cfi_def_cfa_offset 4
 3974              		.cfi_offset 7, -4
 3975 0002 87B0     		sub	sp, sp, #28
 3976              		.cfi_def_cfa_offset 32
 3977 0004 00AF     		add	r7, sp, #0
 3978              		.cfi_def_cfa_register 7
 3979 0006 F860     		str	r0, [r7, #12]
 3980 0008 B960     		str	r1, [r7, #8]
 3981 000a 1146     		mov	r1, r2
 3982 000c 1A46     		mov	r2, r3
 3983 000e 0B46     		mov	r3, r1
 3984 0010 FB71     		strb	r3, [r7, #7]
 3985 0012 1346     		mov	r3, r2
 3986 0014 BB71     		strb	r3, [r7, #6]
 245:..\..\..\HamFlyAPI\src/hamfly_qx_protocol.c ****     if (rw == QB_Parser_Dir_WriteDel) {
 3987              		.loc 1 245 0
 3988 0016 2F4B     		ldr	r3, .L373
 3989 0018 1B78     		ldrb	r3, [r3]	@ zero_extendqisi2
 3990 001a 012B     		cmp	r3, #1
 3991 001c 50D1     		bne	.L368
 246:..\..\..\HamFlyAPI\src/hamfly_qx_protocol.c ****         while (n--) { int8_t r = GETSC; int32_t t = *v; t += r;
 3992              		.loc 1 246 0
 3993 001e 27E0     		b	.L363
 3994              	.L366:
 3995              	.LBB38:
 3996              		.loc 1 246 0 is_stmt 0 discriminator 1
 3997 0020 2D4B     		ldr	r3, .L373+4
 3998 0022 1B68     		ldr	r3, [r3]
 3999 0024 5A1C     		adds	r2, r3, #1
ARM GAS  C:\Users\JENNEW~1\AppData\Local\Temp\ccQ5uJSg.s 			page 77


 4000 0026 2C49     		ldr	r1, .L373+4
 4001 0028 0A60     		str	r2, [r1]
 4002 002a 1B78     		ldrb	r3, [r3]
 4003 002c DBB2     		uxtb	r3, r3
 4004 002e FB74     		strb	r3, [r7, #19]
 4005 0030 FB68     		ldr	r3, [r7, #12]
 4006 0032 93F90030 		ldrsb	r3, [r3]
 4007 0036 7B61     		str	r3, [r7, #20]
 4008 0038 97F91330 		ldrsb	r3, [r7, #19]
 4009 003c 7A69     		ldr	r2, [r7, #20]
 4010 003e 1344     		add	r3, r3, r2
 4011 0040 7B61     		str	r3, [r7, #20]
 247:..\..\..\HamFlyAPI\src/hamfly_qx_protocol.c ****             if (max<t) t=max; if (t<min) t=min; *v = (int8_t)t; v++; }
 4012              		.loc 1 247 0 is_stmt 1 discriminator 1
 4013 0042 97F90720 		ldrsb	r2, [r7, #7]
 4014 0046 7B69     		ldr	r3, [r7, #20]
 4015 0048 9A42     		cmp	r2, r3
 4016 004a 02DA     		bge	.L364
 4017 004c 97F90730 		ldrsb	r3, [r7, #7]
 4018 0050 7B61     		str	r3, [r7, #20]
 4019              	.L364:
 4020              		.loc 1 247 0 is_stmt 0 discriminator 3
 4021 0052 97F90620 		ldrsb	r2, [r7, #6]
 4022 0056 7B69     		ldr	r3, [r7, #20]
 4023 0058 9A42     		cmp	r2, r3
 4024 005a 02DD     		ble	.L365
 4025              		.loc 1 247 0 discriminator 4
 4026 005c 97F90630 		ldrsb	r3, [r7, #6]
 4027 0060 7B61     		str	r3, [r7, #20]
 4028              	.L365:
 4029              		.loc 1 247 0 discriminator 6
 4030 0062 7B69     		ldr	r3, [r7, #20]
 4031 0064 5AB2     		sxtb	r2, r3
 4032 0066 FB68     		ldr	r3, [r7, #12]
 4033 0068 1A70     		strb	r2, [r3]
 4034 006a FB68     		ldr	r3, [r7, #12]
 4035 006c 0133     		adds	r3, r3, #1
 4036 006e FB60     		str	r3, [r7, #12]
 4037              	.L363:
 4038              	.LBE38:
 246:..\..\..\HamFlyAPI\src/hamfly_qx_protocol.c ****         while (n--) { int8_t r = GETSC; int32_t t = *v; t += r;
 4039              		.loc 1 246 0 is_stmt 1
 4040 0070 BB68     		ldr	r3, [r7, #8]
 4041 0072 5A1E     		subs	r2, r3, #1
 4042 0074 BA60     		str	r2, [r7, #8]
 4043 0076 002B     		cmp	r3, #0
 4044 0078 D2D1     		bne	.L366
 248:..\..\..\HamFlyAPI\src/hamfly_qx_protocol.c ****     } else {
 249:..\..\..\HamFlyAPI\src/hamfly_qx_protocol.c ****         while (n--) { int8_t r = GETSC; *v = r;
 250:..\..\..\HamFlyAPI\src/hamfly_qx_protocol.c ****             if (max<*v)*v=max; if (*v<min)*v=min; v++; }
 251:..\..\..\HamFlyAPI\src/hamfly_qx_protocol.c ****     }
 252:..\..\..\HamFlyAPI\src/hamfly_qx_protocol.c **** }
 4045              		.loc 1 252 0
 4046 007a 26E0     		b	.L372
 4047              	.L371:
 4048              	.LBB39:
 249:..\..\..\HamFlyAPI\src/hamfly_qx_protocol.c ****             if (max<*v)*v=max; if (*v<min)*v=min; v++; }
ARM GAS  C:\Users\JENNEW~1\AppData\Local\Temp\ccQ5uJSg.s 			page 78


 4049              		.loc 1 249 0 discriminator 1
 4050 007c 164B     		ldr	r3, .L373+4
 4051 007e 1B68     		ldr	r3, [r3]
 4052 0080 5A1C     		adds	r2, r3, #1
 4053 0082 1549     		ldr	r1, .L373+4
 4054 0084 0A60     		str	r2, [r1]
 4055 0086 1B78     		ldrb	r3, [r3]
 4056 0088 DBB2     		uxtb	r3, r3
 4057 008a BB74     		strb	r3, [r7, #18]
 4058 008c FB68     		ldr	r3, [r7, #12]
 4059 008e BA7C     		ldrb	r2, [r7, #18]
 4060 0090 1A70     		strb	r2, [r3]
 250:..\..\..\HamFlyAPI\src/hamfly_qx_protocol.c ****     }
 4061              		.loc 1 250 0 discriminator 1
 4062 0092 FB68     		ldr	r3, [r7, #12]
 4063 0094 93F90030 		ldrsb	r3, [r3]
 4064 0098 97F90720 		ldrsb	r2, [r7, #7]
 4065 009c 9A42     		cmp	r2, r3
 4066 009e 02DA     		bge	.L369
 4067 00a0 FB68     		ldr	r3, [r7, #12]
 4068 00a2 FA79     		ldrb	r2, [r7, #7]
 4069 00a4 1A70     		strb	r2, [r3]
 4070              	.L369:
 250:..\..\..\HamFlyAPI\src/hamfly_qx_protocol.c ****     }
 4071              		.loc 1 250 0 is_stmt 0 discriminator 3
 4072 00a6 FB68     		ldr	r3, [r7, #12]
 4073 00a8 93F90030 		ldrsb	r3, [r3]
 4074 00ac 97F90620 		ldrsb	r2, [r7, #6]
 4075 00b0 9A42     		cmp	r2, r3
 4076 00b2 02DD     		ble	.L370
 250:..\..\..\HamFlyAPI\src/hamfly_qx_protocol.c ****     }
 4077              		.loc 1 250 0 discriminator 4
 4078 00b4 FB68     		ldr	r3, [r7, #12]
 4079 00b6 BA79     		ldrb	r2, [r7, #6]
 4080 00b8 1A70     		strb	r2, [r3]
 4081              	.L370:
 250:..\..\..\HamFlyAPI\src/hamfly_qx_protocol.c ****     }
 4082              		.loc 1 250 0 discriminator 6
 4083 00ba FB68     		ldr	r3, [r7, #12]
 4084 00bc 0133     		adds	r3, r3, #1
 4085 00be FB60     		str	r3, [r7, #12]
 4086              	.L368:
 4087              	.LBE39:
 249:..\..\..\HamFlyAPI\src/hamfly_qx_protocol.c ****             if (max<*v)*v=max; if (*v<min)*v=min; v++; }
 4088              		.loc 1 249 0 is_stmt 1
 4089 00c0 BB68     		ldr	r3, [r7, #8]
 4090 00c2 5A1E     		subs	r2, r3, #1
 4091 00c4 BA60     		str	r2, [r7, #8]
 4092 00c6 002B     		cmp	r3, #0
 4093 00c8 D8D1     		bne	.L371
 4094              	.L372:
 4095              		.loc 1 252 0
 4096 00ca 00BF     		nop
 4097 00cc 1C37     		adds	r7, r7, #28
 4098              		.cfi_def_cfa_offset 4
 4099 00ce BD46     		mov	sp, r7
 4100              		.cfi_def_cfa_register 13
ARM GAS  C:\Users\JENNEW~1\AppData\Local\Temp\ccQ5uJSg.s 			page 79


 4101              		@ sp needed
 4102 00d0 80BC     		pop	{r7}
 4103              		.cfi_restore 7
 4104              		.cfi_def_cfa_offset 0
 4105 00d2 7047     		bx	lr
 4106              	.L374:
 4107              		.align	2
 4108              	.L373:
 4109 00d4 00000000 		.word	rw
 4110 00d8 00000000 		.word	msgPtr
 4111              		.cfi_endproc
 4112              	.LFE34:
 4113              		.size	GetSignedCharAsSignedChar, .-GetSignedCharAsSignedChar
 4114              		.section	.text.AddUnsignedCharAsUnsignedChar,"ax",%progbits
 4115              		.align	2
 4116              		.global	AddUnsignedCharAsUnsignedChar
 4117              		.thumb
 4118              		.thumb_func
 4119              		.type	AddUnsignedCharAsUnsignedChar, %function
 4120              	AddUnsignedCharAsUnsignedChar:
 4121              	.LFB35:
 253:..\..\..\HamFlyAPI\src/hamfly_qx_protocol.c **** 
 254:..\..\..\HamFlyAPI\src/hamfly_qx_protocol.c **** void AddUnsignedCharAsUnsignedChar(uint8_t *v, uint32_t n) {
 4122              		.loc 1 254 0
 4123              		.cfi_startproc
 4124              		@ args = 0, pretend = 0, frame = 8
 4125              		@ frame_needed = 1, uses_anonymous_args = 0
 4126              		@ link register save eliminated.
 4127 0000 80B4     		push	{r7}
 4128              		.cfi_def_cfa_offset 4
 4129              		.cfi_offset 7, -4
 4130 0002 83B0     		sub	sp, sp, #12
 4131              		.cfi_def_cfa_offset 16
 4132 0004 00AF     		add	r7, sp, #0
 4133              		.cfi_def_cfa_register 7
 4134 0006 7860     		str	r0, [r7, #4]
 4135 0008 3960     		str	r1, [r7]
 255:..\..\..\HamFlyAPI\src/hamfly_qx_protocol.c ****     while (n--) { ADDCHAR(*v); v++; }
 4136              		.loc 1 255 0
 4137 000a 0AE0     		b	.L376
 4138              	.L377:
 4139              		.loc 1 255 0 is_stmt 0 discriminator 2
 4140 000c 0A4B     		ldr	r3, .L378
 4141 000e 1B68     		ldr	r3, [r3]
 4142 0010 5A1C     		adds	r2, r3, #1
 4143 0012 0949     		ldr	r1, .L378
 4144 0014 0A60     		str	r2, [r1]
 4145 0016 7A68     		ldr	r2, [r7, #4]
 4146 0018 1278     		ldrb	r2, [r2]	@ zero_extendqisi2
 4147 001a 1A70     		strb	r2, [r3]
 4148 001c 7B68     		ldr	r3, [r7, #4]
 4149 001e 0133     		adds	r3, r3, #1
 4150 0020 7B60     		str	r3, [r7, #4]
 4151              	.L376:
 4152              		.loc 1 255 0 discriminator 1
 4153 0022 3B68     		ldr	r3, [r7]
 4154 0024 5A1E     		subs	r2, r3, #1
ARM GAS  C:\Users\JENNEW~1\AppData\Local\Temp\ccQ5uJSg.s 			page 80


 4155 0026 3A60     		str	r2, [r7]
 4156 0028 002B     		cmp	r3, #0
 4157 002a EFD1     		bne	.L377
 256:..\..\..\HamFlyAPI\src/hamfly_qx_protocol.c **** }
 4158              		.loc 1 256 0 is_stmt 1
 4159 002c 00BF     		nop
 4160 002e 0C37     		adds	r7, r7, #12
 4161              		.cfi_def_cfa_offset 4
 4162 0030 BD46     		mov	sp, r7
 4163              		.cfi_def_cfa_register 13
 4164              		@ sp needed
 4165 0032 80BC     		pop	{r7}
 4166              		.cfi_restore 7
 4167              		.cfi_def_cfa_offset 0
 4168 0034 7047     		bx	lr
 4169              	.L379:
 4170 0036 00BF     		.align	2
 4171              	.L378:
 4172 0038 00000000 		.word	msgPtr
 4173              		.cfi_endproc
 4174              	.LFE35:
 4175              		.size	AddUnsignedCharAsUnsignedChar, .-AddUnsignedCharAsUnsignedChar
 4176              		.section	.text.GetUnsignedCharAsUnsignedChar,"ax",%progbits
 4177              		.align	2
 4178              		.global	GetUnsignedCharAsUnsignedChar
 4179              		.thumb
 4180              		.thumb_func
 4181              		.type	GetUnsignedCharAsUnsignedChar, %function
 4182              	GetUnsignedCharAsUnsignedChar:
 4183              	.LFB36:
 257:..\..\..\HamFlyAPI\src/hamfly_qx_protocol.c **** void GetUnsignedCharAsUnsignedChar(uint8_t *v, uint32_t n, uint8_t max, uint8_t min) {
 4184              		.loc 1 257 0
 4185              		.cfi_startproc
 4186              		@ args = 0, pretend = 0, frame = 24
 4187              		@ frame_needed = 1, uses_anonymous_args = 0
 4188              		@ link register save eliminated.
 4189 0000 80B4     		push	{r7}
 4190              		.cfi_def_cfa_offset 4
 4191              		.cfi_offset 7, -4
 4192 0002 87B0     		sub	sp, sp, #28
 4193              		.cfi_def_cfa_offset 32
 4194 0004 00AF     		add	r7, sp, #0
 4195              		.cfi_def_cfa_register 7
 4196 0006 F860     		str	r0, [r7, #12]
 4197 0008 B960     		str	r1, [r7, #8]
 4198 000a 1146     		mov	r1, r2
 4199 000c 1A46     		mov	r2, r3
 4200 000e 0B46     		mov	r3, r1
 4201 0010 FB71     		strb	r3, [r7, #7]
 4202 0012 1346     		mov	r3, r2
 4203 0014 BB71     		strb	r3, [r7, #6]
 258:..\..\..\HamFlyAPI\src/hamfly_qx_protocol.c ****     if (rw == QB_Parser_Dir_WriteDel) {
 4204              		.loc 1 258 0
 4205 0016 2A4B     		ldr	r3, .L392
 4206 0018 1B78     		ldrb	r3, [r3]	@ zero_extendqisi2
 4207 001a 012B     		cmp	r3, #1
 4208 001c 46D1     		bne	.L387
ARM GAS  C:\Users\JENNEW~1\AppData\Local\Temp\ccQ5uJSg.s 			page 81


 259:..\..\..\HamFlyAPI\src/hamfly_qx_protocol.c ****         while (n--) { int8_t r = GETSC; int32_t t = *v; t += r;
 4209              		.loc 1 259 0
 4210 001e 22E0     		b	.L382
 4211              	.L385:
 4212              	.LBB40:
 4213              		.loc 1 259 0 is_stmt 0 discriminator 1
 4214 0020 284B     		ldr	r3, .L392+4
 4215 0022 1B68     		ldr	r3, [r3]
 4216 0024 5A1C     		adds	r2, r3, #1
 4217 0026 2749     		ldr	r1, .L392+4
 4218 0028 0A60     		str	r2, [r1]
 4219 002a 1B78     		ldrb	r3, [r3]
 4220 002c DBB2     		uxtb	r3, r3
 4221 002e FB74     		strb	r3, [r7, #19]
 4222 0030 FB68     		ldr	r3, [r7, #12]
 4223 0032 1B78     		ldrb	r3, [r3]	@ zero_extendqisi2
 4224 0034 7B61     		str	r3, [r7, #20]
 4225 0036 97F91330 		ldrsb	r3, [r7, #19]
 4226 003a 7A69     		ldr	r2, [r7, #20]
 4227 003c 1344     		add	r3, r3, r2
 4228 003e 7B61     		str	r3, [r7, #20]
 260:..\..\..\HamFlyAPI\src/hamfly_qx_protocol.c ****             if (max<t) t=max; if (t<min) t=min; *v = (uint8_t)t; v++; }
 4229              		.loc 1 260 0 is_stmt 1 discriminator 1
 4230 0040 FA79     		ldrb	r2, [r7, #7]	@ zero_extendqisi2
 4231 0042 7B69     		ldr	r3, [r7, #20]
 4232 0044 9A42     		cmp	r2, r3
 4233 0046 01DA     		bge	.L383
 4234 0048 FB79     		ldrb	r3, [r7, #7]	@ zero_extendqisi2
 4235 004a 7B61     		str	r3, [r7, #20]
 4236              	.L383:
 4237              		.loc 1 260 0 is_stmt 0 discriminator 3
 4238 004c BA79     		ldrb	r2, [r7, #6]	@ zero_extendqisi2
 4239 004e 7B69     		ldr	r3, [r7, #20]
 4240 0050 9A42     		cmp	r2, r3
 4241 0052 01DD     		ble	.L384
 4242              		.loc 1 260 0 discriminator 4
 4243 0054 BB79     		ldrb	r3, [r7, #6]	@ zero_extendqisi2
 4244 0056 7B61     		str	r3, [r7, #20]
 4245              	.L384:
 4246              		.loc 1 260 0 discriminator 6
 4247 0058 7B69     		ldr	r3, [r7, #20]
 4248 005a DAB2     		uxtb	r2, r3
 4249 005c FB68     		ldr	r3, [r7, #12]
 4250 005e 1A70     		strb	r2, [r3]
 4251 0060 FB68     		ldr	r3, [r7, #12]
 4252 0062 0133     		adds	r3, r3, #1
 4253 0064 FB60     		str	r3, [r7, #12]
 4254              	.L382:
 4255              	.LBE40:
 259:..\..\..\HamFlyAPI\src/hamfly_qx_protocol.c ****         while (n--) { int8_t r = GETSC; int32_t t = *v; t += r;
 4256              		.loc 1 259 0 is_stmt 1
 4257 0066 BB68     		ldr	r3, [r7, #8]
 4258 0068 5A1E     		subs	r2, r3, #1
 4259 006a BA60     		str	r2, [r7, #8]
 4260 006c 002B     		cmp	r3, #0
 4261 006e D7D1     		bne	.L385
 261:..\..\..\HamFlyAPI\src/hamfly_qx_protocol.c ****     } else {
ARM GAS  C:\Users\JENNEW~1\AppData\Local\Temp\ccQ5uJSg.s 			page 82


 262:..\..\..\HamFlyAPI\src/hamfly_qx_protocol.c ****         while (n--) { uint8_t r = GETUC; *v = r;
 263:..\..\..\HamFlyAPI\src/hamfly_qx_protocol.c ****             if (max<*v)*v=max; if (*v<min)*v=min; v++; }
 264:..\..\..\HamFlyAPI\src/hamfly_qx_protocol.c ****     }
 265:..\..\..\HamFlyAPI\src/hamfly_qx_protocol.c **** }
 4262              		.loc 1 265 0
 4263 0070 21E0     		b	.L391
 4264              	.L390:
 4265              	.LBB41:
 262:..\..\..\HamFlyAPI\src/hamfly_qx_protocol.c ****             if (max<*v)*v=max; if (*v<min)*v=min; v++; }
 4266              		.loc 1 262 0 discriminator 1
 4267 0072 144B     		ldr	r3, .L392+4
 4268 0074 1B68     		ldr	r3, [r3]
 4269 0076 5A1C     		adds	r2, r3, #1
 4270 0078 1249     		ldr	r1, .L392+4
 4271 007a 0A60     		str	r2, [r1]
 4272 007c 1B78     		ldrb	r3, [r3]
 4273 007e BB74     		strb	r3, [r7, #18]
 4274 0080 FB68     		ldr	r3, [r7, #12]
 4275 0082 BA7C     		ldrb	r2, [r7, #18]
 4276 0084 1A70     		strb	r2, [r3]
 263:..\..\..\HamFlyAPI\src/hamfly_qx_protocol.c ****     }
 4277              		.loc 1 263 0 discriminator 1
 4278 0086 FB68     		ldr	r3, [r7, #12]
 4279 0088 1B78     		ldrb	r3, [r3]	@ zero_extendqisi2
 4280 008a FA79     		ldrb	r2, [r7, #7]	@ zero_extendqisi2
 4281 008c 9A42     		cmp	r2, r3
 4282 008e 02D2     		bcs	.L388
 4283 0090 FB68     		ldr	r3, [r7, #12]
 4284 0092 FA79     		ldrb	r2, [r7, #7]
 4285 0094 1A70     		strb	r2, [r3]
 4286              	.L388:
 263:..\..\..\HamFlyAPI\src/hamfly_qx_protocol.c ****     }
 4287              		.loc 1 263 0 is_stmt 0 discriminator 3
 4288 0096 FB68     		ldr	r3, [r7, #12]
 4289 0098 1B78     		ldrb	r3, [r3]	@ zero_extendqisi2
 4290 009a BA79     		ldrb	r2, [r7, #6]	@ zero_extendqisi2
 4291 009c 9A42     		cmp	r2, r3
 4292 009e 02D9     		bls	.L389
 263:..\..\..\HamFlyAPI\src/hamfly_qx_protocol.c ****     }
 4293              		.loc 1 263 0 discriminator 4
 4294 00a0 FB68     		ldr	r3, [r7, #12]
 4295 00a2 BA79     		ldrb	r2, [r7, #6]
 4296 00a4 1A70     		strb	r2, [r3]
 4297              	.L389:
 263:..\..\..\HamFlyAPI\src/hamfly_qx_protocol.c ****     }
 4298              		.loc 1 263 0 discriminator 6
 4299 00a6 FB68     		ldr	r3, [r7, #12]
 4300 00a8 0133     		adds	r3, r3, #1
 4301 00aa FB60     		str	r3, [r7, #12]
 4302              	.L387:
 4303              	.LBE41:
 262:..\..\..\HamFlyAPI\src/hamfly_qx_protocol.c ****             if (max<*v)*v=max; if (*v<min)*v=min; v++; }
 4304              		.loc 1 262 0 is_stmt 1
 4305 00ac BB68     		ldr	r3, [r7, #8]
 4306 00ae 5A1E     		subs	r2, r3, #1
 4307 00b0 BA60     		str	r2, [r7, #8]
 4308 00b2 002B     		cmp	r3, #0
ARM GAS  C:\Users\JENNEW~1\AppData\Local\Temp\ccQ5uJSg.s 			page 83


 4309 00b4 DDD1     		bne	.L390
 4310              	.L391:
 4311              		.loc 1 265 0
 4312 00b6 00BF     		nop
 4313 00b8 1C37     		adds	r7, r7, #28
 4314              		.cfi_def_cfa_offset 4
 4315 00ba BD46     		mov	sp, r7
 4316              		.cfi_def_cfa_register 13
 4317              		@ sp needed
 4318 00bc 80BC     		pop	{r7}
 4319              		.cfi_restore 7
 4320              		.cfi_def_cfa_offset 0
 4321 00be 7047     		bx	lr
 4322              	.L393:
 4323              		.align	2
 4324              	.L392:
 4325 00c0 00000000 		.word	rw
 4326 00c4 00000000 		.word	msgPtr
 4327              		.cfi_endproc
 4328              	.LFE36:
 4329              		.size	GetUnsignedCharAsUnsignedChar, .-GetUnsignedCharAsUnsignedChar
 4330              		.section	.text.AddUnsignedShortAsUnsignedShort,"ax",%progbits
 4331              		.align	2
 4332              		.global	AddUnsignedShortAsUnsignedShort
 4333              		.thumb
 4334              		.thumb_func
 4335              		.type	AddUnsignedShortAsUnsignedShort, %function
 4336              	AddUnsignedShortAsUnsignedShort:
 4337              	.LFB37:
 266:..\..\..\HamFlyAPI\src/hamfly_qx_protocol.c **** 
 267:..\..\..\HamFlyAPI\src/hamfly_qx_protocol.c **** void AddUnsignedShortAsUnsignedShort(uint16_t *v, uint32_t n) {
 4338              		.loc 1 267 0
 4339              		.cfi_startproc
 4340              		@ args = 0, pretend = 0, frame = 8
 4341              		@ frame_needed = 1, uses_anonymous_args = 0
 4342              		@ link register save eliminated.
 4343 0000 80B4     		push	{r7}
 4344              		.cfi_def_cfa_offset 4
 4345              		.cfi_offset 7, -4
 4346 0002 83B0     		sub	sp, sp, #12
 4347              		.cfi_def_cfa_offset 16
 4348 0004 00AF     		add	r7, sp, #0
 4349              		.cfi_def_cfa_register 7
 4350 0006 7860     		str	r0, [r7, #4]
 4351 0008 3960     		str	r1, [r7]
 268:..\..\..\HamFlyAPI\src/hamfly_qx_protocol.c ****     while (n--) { ADDUS(*v); v++; }
 4352              		.loc 1 268 0
 4353 000a 16E0     		b	.L395
 4354              	.L396:
 4355              		.loc 1 268 0 is_stmt 0 discriminator 2
 4356 000c 104B     		ldr	r3, .L397
 4357 000e 1B68     		ldr	r3, [r3]
 4358 0010 5A1C     		adds	r2, r3, #1
 4359 0012 0F49     		ldr	r1, .L397
 4360 0014 0A60     		str	r2, [r1]
 4361 0016 7A68     		ldr	r2, [r7, #4]
 4362 0018 1288     		ldrh	r2, [r2]
ARM GAS  C:\Users\JENNEW~1\AppData\Local\Temp\ccQ5uJSg.s 			page 84


 4363 001a 120A     		lsrs	r2, r2, #8
 4364 001c 92B2     		uxth	r2, r2
 4365 001e D2B2     		uxtb	r2, r2
 4366 0020 1A70     		strb	r2, [r3]
 4367 0022 0B4B     		ldr	r3, .L397
 4368 0024 1B68     		ldr	r3, [r3]
 4369 0026 5A1C     		adds	r2, r3, #1
 4370 0028 0949     		ldr	r1, .L397
 4371 002a 0A60     		str	r2, [r1]
 4372 002c 7A68     		ldr	r2, [r7, #4]
 4373 002e 1288     		ldrh	r2, [r2]
 4374 0030 D2B2     		uxtb	r2, r2
 4375 0032 1A70     		strb	r2, [r3]
 4376 0034 7B68     		ldr	r3, [r7, #4]
 4377 0036 0233     		adds	r3, r3, #2
 4378 0038 7B60     		str	r3, [r7, #4]
 4379              	.L395:
 4380              		.loc 1 268 0 discriminator 1
 4381 003a 3B68     		ldr	r3, [r7]
 4382 003c 5A1E     		subs	r2, r3, #1
 4383 003e 3A60     		str	r2, [r7]
 4384 0040 002B     		cmp	r3, #0
 4385 0042 E3D1     		bne	.L396
 269:..\..\..\HamFlyAPI\src/hamfly_qx_protocol.c **** }
 4386              		.loc 1 269 0 is_stmt 1
 4387 0044 00BF     		nop
 4388 0046 0C37     		adds	r7, r7, #12
 4389              		.cfi_def_cfa_offset 4
 4390 0048 BD46     		mov	sp, r7
 4391              		.cfi_def_cfa_register 13
 4392              		@ sp needed
 4393 004a 80BC     		pop	{r7}
 4394              		.cfi_restore 7
 4395              		.cfi_def_cfa_offset 0
 4396 004c 7047     		bx	lr
 4397              	.L398:
 4398 004e 00BF     		.align	2
 4399              	.L397:
 4400 0050 00000000 		.word	msgPtr
 4401              		.cfi_endproc
 4402              	.LFE37:
 4403              		.size	AddUnsignedShortAsUnsignedShort, .-AddUnsignedShortAsUnsignedShort
 4404              		.section	.text.GetUnsignedShortAsUnsignedShort,"ax",%progbits
 4405              		.align	2
 4406              		.global	GetUnsignedShortAsUnsignedShort
 4407              		.thumb
 4408              		.thumb_func
 4409              		.type	GetUnsignedShortAsUnsignedShort, %function
 4410              	GetUnsignedShortAsUnsignedShort:
 4411              	.LFB38:
 270:..\..\..\HamFlyAPI\src/hamfly_qx_protocol.c **** void GetUnsignedShortAsUnsignedShort(uint16_t *v, uint32_t n, uint16_t max, uint16_t min) {
 4412              		.loc 1 270 0
 4413              		.cfi_startproc
 4414              		@ args = 0, pretend = 0, frame = 24
 4415              		@ frame_needed = 1, uses_anonymous_args = 0
 4416              		@ link register save eliminated.
 4417 0000 80B4     		push	{r7}
ARM GAS  C:\Users\JENNEW~1\AppData\Local\Temp\ccQ5uJSg.s 			page 85


 4418              		.cfi_def_cfa_offset 4
 4419              		.cfi_offset 7, -4
 4420 0002 87B0     		sub	sp, sp, #28
 4421              		.cfi_def_cfa_offset 32
 4422 0004 00AF     		add	r7, sp, #0
 4423              		.cfi_def_cfa_register 7
 4424 0006 F860     		str	r0, [r7, #12]
 4425 0008 B960     		str	r1, [r7, #8]
 4426 000a 1146     		mov	r1, r2
 4427 000c 1A46     		mov	r2, r3
 4428 000e 0B46     		mov	r3, r1	@ movhi
 4429 0010 FB80     		strh	r3, [r7, #6]	@ movhi
 4430 0012 1346     		mov	r3, r2	@ movhi
 4431 0014 BB80     		strh	r3, [r7, #4]	@ movhi
 271:..\..\..\HamFlyAPI\src/hamfly_qx_protocol.c ****     if (rw == QB_Parser_Dir_WriteDel) {
 4432              		.loc 1 271 0
 4433 0016 364B     		ldr	r3, .L411
 4434 0018 1B78     		ldrb	r3, [r3]	@ zero_extendqisi2
 4435 001a 012B     		cmp	r3, #1
 4436 001c 5ED1     		bne	.L406
 272:..\..\..\HamFlyAPI\src/hamfly_qx_protocol.c ****         while (n--) { uint16_t r = GETUS; *v += r; if (max<*v)*v=max; if (*v<min)*v=min; v++; }
 4437              		.loc 1 272 0
 4438 001e 2DE0     		b	.L401
 4439              	.L404:
 4440              	.LBB42:
 4441              		.loc 1 272 0 is_stmt 0 discriminator 8
 4442 0020 344B     		ldr	r3, .L411+4
 4443 0022 1B68     		ldr	r3, [r3]
 4444 0024 1B78     		ldrb	r3, [r3]
 4445 0026 DBB2     		uxtb	r3, r3
 4446 0028 9BB2     		uxth	r3, r3
 4447 002a 1B02     		lsls	r3, r3, #8
 4448 002c 9AB2     		uxth	r2, r3
 4449 002e 314B     		ldr	r3, .L411+4
 4450 0030 1B68     		ldr	r3, [r3]
 4451 0032 0133     		adds	r3, r3, #1
 4452 0034 1B78     		ldrb	r3, [r3]
 4453 0036 DBB2     		uxtb	r3, r3
 4454 0038 9BB2     		uxth	r3, r3
 4455 003a 1343     		orrs	r3, r3, r2
 4456 003c FB82     		strh	r3, [r7, #22]	@ movhi
 4457 003e 2D4B     		ldr	r3, .L411+4
 4458 0040 1B68     		ldr	r3, [r3]
 4459 0042 0233     		adds	r3, r3, #2
 4460 0044 2B4A     		ldr	r2, .L411+4
 4461 0046 1360     		str	r3, [r2]
 4462 0048 FB68     		ldr	r3, [r7, #12]
 4463 004a 1A88     		ldrh	r2, [r3]
 4464 004c FB8A     		ldrh	r3, [r7, #22]	@ movhi
 4465 004e 1344     		add	r3, r3, r2
 4466 0050 9AB2     		uxth	r2, r3
 4467 0052 FB68     		ldr	r3, [r7, #12]
 4468 0054 1A80     		strh	r2, [r3]	@ movhi
 4469 0056 FB68     		ldr	r3, [r7, #12]
 4470 0058 1B88     		ldrh	r3, [r3]
 4471 005a FA88     		ldrh	r2, [r7, #6]
 4472 005c 9A42     		cmp	r2, r3
ARM GAS  C:\Users\JENNEW~1\AppData\Local\Temp\ccQ5uJSg.s 			page 86


 4473 005e 02D2     		bcs	.L402
 4474              		.loc 1 272 0 discriminator 1
 4475 0060 FB68     		ldr	r3, [r7, #12]
 4476 0062 FA88     		ldrh	r2, [r7, #6]	@ movhi
 4477 0064 1A80     		strh	r2, [r3]	@ movhi
 4478              	.L402:
 4479              		.loc 1 272 0 discriminator 3
 4480 0066 FB68     		ldr	r3, [r7, #12]
 4481 0068 1B88     		ldrh	r3, [r3]
 4482 006a BA88     		ldrh	r2, [r7, #4]
 4483 006c 9A42     		cmp	r2, r3
 4484 006e 02D9     		bls	.L403
 4485              		.loc 1 272 0 discriminator 4
 4486 0070 FB68     		ldr	r3, [r7, #12]
 4487 0072 BA88     		ldrh	r2, [r7, #4]	@ movhi
 4488 0074 1A80     		strh	r2, [r3]	@ movhi
 4489              	.L403:
 4490              		.loc 1 272 0 discriminator 6
 4491 0076 FB68     		ldr	r3, [r7, #12]
 4492 0078 0233     		adds	r3, r3, #2
 4493 007a FB60     		str	r3, [r7, #12]
 4494              	.L401:
 4495              	.LBE42:
 4496              		.loc 1 272 0 discriminator 7
 4497 007c BB68     		ldr	r3, [r7, #8]
 4498 007e 5A1E     		subs	r2, r3, #1
 4499 0080 BA60     		str	r2, [r7, #8]
 4500 0082 002B     		cmp	r3, #0
 4501 0084 CCD1     		bne	.L404
 273:..\..\..\HamFlyAPI\src/hamfly_qx_protocol.c ****     } else {
 274:..\..\..\HamFlyAPI\src/hamfly_qx_protocol.c ****         while (n--) { uint16_t r = GETUS; *v  = r; if (max<*v)*v=max; if (*v<min)*v=min; v++; }
 275:..\..\..\HamFlyAPI\src/hamfly_qx_protocol.c ****     }
 276:..\..\..\HamFlyAPI\src/hamfly_qx_protocol.c **** }
 4502              		.loc 1 276 0 is_stmt 1
 4503 0086 2EE0     		b	.L410
 4504              	.L409:
 4505              	.LBB43:
 274:..\..\..\HamFlyAPI\src/hamfly_qx_protocol.c ****     }
 4506              		.loc 1 274 0 discriminator 8
 4507 0088 1A4B     		ldr	r3, .L411+4
 4508 008a 1B68     		ldr	r3, [r3]
 4509 008c 1B78     		ldrb	r3, [r3]
 4510 008e DBB2     		uxtb	r3, r3
 4511 0090 9BB2     		uxth	r3, r3
 4512 0092 1B02     		lsls	r3, r3, #8
 4513 0094 9AB2     		uxth	r2, r3
 4514 0096 174B     		ldr	r3, .L411+4
 4515 0098 1B68     		ldr	r3, [r3]
 4516 009a 0133     		adds	r3, r3, #1
 4517 009c 1B78     		ldrb	r3, [r3]
 4518 009e DBB2     		uxtb	r3, r3
 4519 00a0 9BB2     		uxth	r3, r3
 4520 00a2 1343     		orrs	r3, r3, r2
 4521 00a4 BB82     		strh	r3, [r7, #20]	@ movhi
 4522 00a6 134B     		ldr	r3, .L411+4
 4523 00a8 1B68     		ldr	r3, [r3]
 4524 00aa 0233     		adds	r3, r3, #2
ARM GAS  C:\Users\JENNEW~1\AppData\Local\Temp\ccQ5uJSg.s 			page 87


 4525 00ac 114A     		ldr	r2, .L411+4
 4526 00ae 1360     		str	r3, [r2]
 4527 00b0 FB68     		ldr	r3, [r7, #12]
 4528 00b2 BA8A     		ldrh	r2, [r7, #20]	@ movhi
 4529 00b4 1A80     		strh	r2, [r3]	@ movhi
 4530 00b6 FB68     		ldr	r3, [r7, #12]
 4531 00b8 1B88     		ldrh	r3, [r3]
 4532 00ba FA88     		ldrh	r2, [r7, #6]
 4533 00bc 9A42     		cmp	r2, r3
 4534 00be 02D2     		bcs	.L407
 274:..\..\..\HamFlyAPI\src/hamfly_qx_protocol.c ****     }
 4535              		.loc 1 274 0 is_stmt 0 discriminator 1
 4536 00c0 FB68     		ldr	r3, [r7, #12]
 4537 00c2 FA88     		ldrh	r2, [r7, #6]	@ movhi
 4538 00c4 1A80     		strh	r2, [r3]	@ movhi
 4539              	.L407:
 274:..\..\..\HamFlyAPI\src/hamfly_qx_protocol.c ****     }
 4540              		.loc 1 274 0 discriminator 3
 4541 00c6 FB68     		ldr	r3, [r7, #12]
 4542 00c8 1B88     		ldrh	r3, [r3]
 4543 00ca BA88     		ldrh	r2, [r7, #4]
 4544 00cc 9A42     		cmp	r2, r3
 4545 00ce 02D9     		bls	.L408
 274:..\..\..\HamFlyAPI\src/hamfly_qx_protocol.c ****     }
 4546              		.loc 1 274 0 discriminator 4
 4547 00d0 FB68     		ldr	r3, [r7, #12]
 4548 00d2 BA88     		ldrh	r2, [r7, #4]	@ movhi
 4549 00d4 1A80     		strh	r2, [r3]	@ movhi
 4550              	.L408:
 274:..\..\..\HamFlyAPI\src/hamfly_qx_protocol.c ****     }
 4551              		.loc 1 274 0 discriminator 6
 4552 00d6 FB68     		ldr	r3, [r7, #12]
 4553 00d8 0233     		adds	r3, r3, #2
 4554 00da FB60     		str	r3, [r7, #12]
 4555              	.L406:
 4556              	.LBE43:
 274:..\..\..\HamFlyAPI\src/hamfly_qx_protocol.c ****     }
 4557              		.loc 1 274 0 discriminator 7
 4558 00dc BB68     		ldr	r3, [r7, #8]
 4559 00de 5A1E     		subs	r2, r3, #1
 4560 00e0 BA60     		str	r2, [r7, #8]
 4561 00e2 002B     		cmp	r3, #0
 4562 00e4 D0D1     		bne	.L409
 4563              	.L410:
 4564              		.loc 1 276 0 is_stmt 1
 4565 00e6 00BF     		nop
 4566 00e8 1C37     		adds	r7, r7, #28
 4567              		.cfi_def_cfa_offset 4
 4568 00ea BD46     		mov	sp, r7
 4569              		.cfi_def_cfa_register 13
 4570              		@ sp needed
 4571 00ec 80BC     		pop	{r7}
 4572              		.cfi_restore 7
 4573              		.cfi_def_cfa_offset 0
 4574 00ee 7047     		bx	lr
 4575              	.L412:
 4576              		.align	2
ARM GAS  C:\Users\JENNEW~1\AppData\Local\Temp\ccQ5uJSg.s 			page 88


 4577              	.L411:
 4578 00f0 00000000 		.word	rw
 4579 00f4 00000000 		.word	msgPtr
 4580              		.cfi_endproc
 4581              	.LFE38:
 4582              		.size	GetUnsignedShortAsUnsignedShort, .-GetUnsignedShortAsUnsignedShort
 4583              		.section	.text.AddBitsAsByte,"ax",%progbits
 4584              		.align	2
 4585              		.global	AddBitsAsByte
 4586              		.thumb
 4587              		.thumb_func
 4588              		.type	AddBitsAsByte, %function
 4589              	AddBitsAsByte:
 4590              	.LFB39:
 277:..\..\..\HamFlyAPI\src/hamfly_qx_protocol.c **** 
 278:..\..\..\HamFlyAPI\src/hamfly_qx_protocol.c **** void AddBitsAsByte(uint8_t *v, uint8_t start_bit, uint8_t n_bits) {
 4591              		.loc 1 278 0
 4592              		.cfi_startproc
 4593              		@ args = 0, pretend = 0, frame = 16
 4594              		@ frame_needed = 1, uses_anonymous_args = 0
 4595              		@ link register save eliminated.
 4596 0000 80B4     		push	{r7}
 4597              		.cfi_def_cfa_offset 4
 4598              		.cfi_offset 7, -4
 4599 0002 85B0     		sub	sp, sp, #20
 4600              		.cfi_def_cfa_offset 24
 4601 0004 00AF     		add	r7, sp, #0
 4602              		.cfi_def_cfa_register 7
 4603 0006 7860     		str	r0, [r7, #4]
 4604 0008 0B46     		mov	r3, r1
 4605 000a FB70     		strb	r3, [r7, #3]
 4606 000c 1346     		mov	r3, r2
 4607 000e BB70     		strb	r3, [r7, #2]
 279:..\..\..\HamFlyAPI\src/hamfly_qx_protocol.c ****     uint8_t temp = *msgPtr, mask = 0;
 4608              		.loc 1 279 0
 4609 0010 2D4B     		ldr	r3, .L426
 4610 0012 1B68     		ldr	r3, [r3]
 4611 0014 1B78     		ldrb	r3, [r3]
 4612 0016 BB73     		strb	r3, [r7, #14]
 4613 0018 0023     		movs	r3, #0
 4614 001a FB73     		strb	r3, [r7, #15]
 280:..\..\..\HamFlyAPI\src/hamfly_qx_protocol.c ****     switch (n_bits) {
 4615              		.loc 1 280 0
 4616 001c BB78     		ldrb	r3, [r7, #2]	@ zero_extendqisi2
 4617 001e 013B     		subs	r3, r3, #1
 4618 0020 072B     		cmp	r3, #7
 4619 0022 2BD8     		bhi	.L425
 4620 0024 01A2     		adr	r2, .L416
 4621 0026 52F823F0 		ldr	pc, [r2, r3, lsl #2]
 4622 002a 00BF     		.p2align 2
 4623              	.L416:
 4624 002c 4D000000 		.word	.L415+1
 4625 0030 53000000 		.word	.L417+1
 4626 0034 59000000 		.word	.L418+1
 4627 0038 5F000000 		.word	.L419+1
 4628 003c 65000000 		.word	.L420+1
 4629 0040 6B000000 		.word	.L421+1
ARM GAS  C:\Users\JENNEW~1\AppData\Local\Temp\ccQ5uJSg.s 			page 89


 4630 0044 71000000 		.word	.L422+1
 4631 0048 77000000 		.word	.L423+1
 4632              		.p2align 1
 4633              	.L415:
 281:..\..\..\HamFlyAPI\src/hamfly_qx_protocol.c ****         case 1: mask=BITFIELD_MASK_1; break; case 2: mask=BITFIELD_MASK_2; break;
 4634              		.loc 1 281 0
 4635 004c 0123     		movs	r3, #1
 4636 004e FB73     		strb	r3, [r7, #15]
 4637 0050 15E0     		b	.L424
 4638              	.L417:
 4639 0052 0323     		movs	r3, #3
 4640 0054 FB73     		strb	r3, [r7, #15]
 4641 0056 12E0     		b	.L424
 4642              	.L418:
 282:..\..\..\HamFlyAPI\src/hamfly_qx_protocol.c ****         case 3: mask=BITFIELD_MASK_3; break; case 4: mask=BITFIELD_MASK_4; break;
 4643              		.loc 1 282 0
 4644 0058 0723     		movs	r3, #7
 4645 005a FB73     		strb	r3, [r7, #15]
 4646 005c 0FE0     		b	.L424
 4647              	.L419:
 4648 005e 0F23     		movs	r3, #15
 4649 0060 FB73     		strb	r3, [r7, #15]
 4650 0062 0CE0     		b	.L424
 4651              	.L420:
 283:..\..\..\HamFlyAPI\src/hamfly_qx_protocol.c ****         case 5: mask=BITFIELD_MASK_5; break; case 6: mask=BITFIELD_MASK_6; break;
 4652              		.loc 1 283 0
 4653 0064 1F23     		movs	r3, #31
 4654 0066 FB73     		strb	r3, [r7, #15]
 4655 0068 09E0     		b	.L424
 4656              	.L421:
 4657 006a 3F23     		movs	r3, #63
 4658 006c FB73     		strb	r3, [r7, #15]
 4659 006e 06E0     		b	.L424
 4660              	.L422:
 284:..\..\..\HamFlyAPI\src/hamfly_qx_protocol.c ****         case 7: mask=BITFIELD_MASK_7; break; case 8: mask=BITFIELD_MASK_8; break;
 4661              		.loc 1 284 0
 4662 0070 7F23     		movs	r3, #127
 4663 0072 FB73     		strb	r3, [r7, #15]
 4664 0074 03E0     		b	.L424
 4665              	.L423:
 4666 0076 FF23     		movs	r3, #255
 4667 0078 FB73     		strb	r3, [r7, #15]
 4668 007a 00E0     		b	.L424
 4669              	.L425:
 285:..\..\..\HamFlyAPI\src/hamfly_qx_protocol.c ****         default: break;
 4670              		.loc 1 285 0
 4671 007c 00BF     		nop
 4672              	.L424:
 286:..\..\..\HamFlyAPI\src/hamfly_qx_protocol.c ****     }
 287:..\..\..\HamFlyAPI\src/hamfly_qx_protocol.c ****     temp &= ~(mask << start_bit);
 4673              		.loc 1 287 0
 4674 007e FA7B     		ldrb	r2, [r7, #15]	@ zero_extendqisi2
 4675 0080 FB78     		ldrb	r3, [r7, #3]	@ zero_extendqisi2
 4676 0082 02FA03F3 		lsl	r3, r2, r3
 4677 0086 5BB2     		sxtb	r3, r3
 4678 0088 DB43     		mvns	r3, r3
 4679 008a 5AB2     		sxtb	r2, r3
ARM GAS  C:\Users\JENNEW~1\AppData\Local\Temp\ccQ5uJSg.s 			page 90


 4680 008c 97F90E30 		ldrsb	r3, [r7, #14]
 4681 0090 1340     		ands	r3, r3, r2
 4682 0092 5BB2     		sxtb	r3, r3
 4683 0094 BB73     		strb	r3, [r7, #14]
 288:..\..\..\HamFlyAPI\src/hamfly_qx_protocol.c ****     temp |= ((*v & mask) << start_bit);
 4684              		.loc 1 288 0
 4685 0096 7B68     		ldr	r3, [r7, #4]
 4686 0098 1A78     		ldrb	r2, [r3]	@ zero_extendqisi2
 4687 009a FB7B     		ldrb	r3, [r7, #15]
 4688 009c 1340     		ands	r3, r3, r2
 4689 009e DBB2     		uxtb	r3, r3
 4690 00a0 1A46     		mov	r2, r3
 4691 00a2 FB78     		ldrb	r3, [r7, #3]	@ zero_extendqisi2
 4692 00a4 02FA03F3 		lsl	r3, r2, r3
 4693 00a8 5AB2     		sxtb	r2, r3
 4694 00aa 97F90E30 		ldrsb	r3, [r7, #14]
 4695 00ae 1343     		orrs	r3, r3, r2
 4696 00b0 5BB2     		sxtb	r3, r3
 4697 00b2 BB73     		strb	r3, [r7, #14]
 289:..\..\..\HamFlyAPI\src/hamfly_qx_protocol.c ****     *msgPtr = temp;
 4698              		.loc 1 289 0
 4699 00b4 044B     		ldr	r3, .L426
 4700 00b6 1B68     		ldr	r3, [r3]
 4701 00b8 BA7B     		ldrb	r2, [r7, #14]
 4702 00ba 1A70     		strb	r2, [r3]
 290:..\..\..\HamFlyAPI\src/hamfly_qx_protocol.c **** }
 4703              		.loc 1 290 0
 4704 00bc 00BF     		nop
 4705 00be 1437     		adds	r7, r7, #20
 4706              		.cfi_def_cfa_offset 4
 4707 00c0 BD46     		mov	sp, r7
 4708              		.cfi_def_cfa_register 13
 4709              		@ sp needed
 4710 00c2 80BC     		pop	{r7}
 4711              		.cfi_restore 7
 4712              		.cfi_def_cfa_offset 0
 4713 00c4 7047     		bx	lr
 4714              	.L427:
 4715 00c6 00BF     		.align	2
 4716              	.L426:
 4717 00c8 00000000 		.word	msgPtr
 4718              		.cfi_endproc
 4719              	.LFE39:
 4720              		.size	AddBitsAsByte, .-AddBitsAsByte
 4721              		.section	.text.GetBitsAsByte,"ax",%progbits
 4722              		.align	2
 4723              		.global	GetBitsAsByte
 4724              		.thumb
 4725              		.thumb_func
 4726              		.type	GetBitsAsByte, %function
 4727              	GetBitsAsByte:
 4728              	.LFB40:
 291:..\..\..\HamFlyAPI\src/hamfly_qx_protocol.c **** 
 292:..\..\..\HamFlyAPI\src/hamfly_qx_protocol.c **** void GetBitsAsByte(uint8_t *v, uint8_t start_bit, uint8_t n_bits) {
 4729              		.loc 1 292 0
 4730              		.cfi_startproc
 4731              		@ args = 0, pretend = 0, frame = 16
ARM GAS  C:\Users\JENNEW~1\AppData\Local\Temp\ccQ5uJSg.s 			page 91


 4732              		@ frame_needed = 1, uses_anonymous_args = 0
 4733              		@ link register save eliminated.
 4734 0000 80B4     		push	{r7}
 4735              		.cfi_def_cfa_offset 4
 4736              		.cfi_offset 7, -4
 4737 0002 85B0     		sub	sp, sp, #20
 4738              		.cfi_def_cfa_offset 24
 4739 0004 00AF     		add	r7, sp, #0
 4740              		.cfi_def_cfa_register 7
 4741 0006 7860     		str	r0, [r7, #4]
 4742 0008 0B46     		mov	r3, r1
 4743 000a FB70     		strb	r3, [r7, #3]
 4744 000c 1346     		mov	r3, r2
 4745 000e BB70     		strb	r3, [r7, #2]
 293:..\..\..\HamFlyAPI\src/hamfly_qx_protocol.c ****     uint8_t mask = 0;
 4746              		.loc 1 293 0
 4747 0010 0023     		movs	r3, #0
 4748 0012 FB73     		strb	r3, [r7, #15]
 294:..\..\..\HamFlyAPI\src/hamfly_qx_protocol.c ****     switch (n_bits) {
 4749              		.loc 1 294 0
 4750 0014 BB78     		ldrb	r3, [r7, #2]	@ zero_extendqisi2
 4751 0016 013B     		subs	r3, r3, #1
 4752 0018 072B     		cmp	r3, #7
 4753 001a 2BD8     		bhi	.L442
 4754 001c 01A2     		adr	r2, .L431
 4755 001e 52F823F0 		ldr	pc, [r2, r3, lsl #2]
 4756 0022 00BF     		.p2align 2
 4757              	.L431:
 4758 0024 45000000 		.word	.L430+1
 4759 0028 4B000000 		.word	.L432+1
 4760 002c 51000000 		.word	.L433+1
 4761 0030 57000000 		.word	.L434+1
 4762 0034 5D000000 		.word	.L435+1
 4763 0038 63000000 		.word	.L436+1
 4764 003c 69000000 		.word	.L437+1
 4765 0040 6F000000 		.word	.L438+1
 4766              		.p2align 1
 4767              	.L430:
 295:..\..\..\HamFlyAPI\src/hamfly_qx_protocol.c ****         case 1: mask=BITFIELD_MASK_1; break; case 2: mask=BITFIELD_MASK_2; break;
 4768              		.loc 1 295 0
 4769 0044 0123     		movs	r3, #1
 4770 0046 FB73     		strb	r3, [r7, #15]
 4771 0048 15E0     		b	.L439
 4772              	.L432:
 4773 004a 0323     		movs	r3, #3
 4774 004c FB73     		strb	r3, [r7, #15]
 4775 004e 12E0     		b	.L439
 4776              	.L433:
 296:..\..\..\HamFlyAPI\src/hamfly_qx_protocol.c ****         case 3: mask=BITFIELD_MASK_3; break; case 4: mask=BITFIELD_MASK_4; break;
 4777              		.loc 1 296 0
 4778 0050 0723     		movs	r3, #7
 4779 0052 FB73     		strb	r3, [r7, #15]
 4780 0054 0FE0     		b	.L439
 4781              	.L434:
 4782 0056 0F23     		movs	r3, #15
 4783 0058 FB73     		strb	r3, [r7, #15]
 4784 005a 0CE0     		b	.L439
ARM GAS  C:\Users\JENNEW~1\AppData\Local\Temp\ccQ5uJSg.s 			page 92


 4785              	.L435:
 297:..\..\..\HamFlyAPI\src/hamfly_qx_protocol.c ****         case 5: mask=BITFIELD_MASK_5; break; case 6: mask=BITFIELD_MASK_6; break;
 4786              		.loc 1 297 0
 4787 005c 1F23     		movs	r3, #31
 4788 005e FB73     		strb	r3, [r7, #15]
 4789 0060 09E0     		b	.L439
 4790              	.L436:
 4791 0062 3F23     		movs	r3, #63
 4792 0064 FB73     		strb	r3, [r7, #15]
 4793 0066 06E0     		b	.L439
 4794              	.L437:
 298:..\..\..\HamFlyAPI\src/hamfly_qx_protocol.c ****         case 7: mask=BITFIELD_MASK_7; break; case 8: mask=BITFIELD_MASK_8; break;
 4795              		.loc 1 298 0
 4796 0068 7F23     		movs	r3, #127
 4797 006a FB73     		strb	r3, [r7, #15]
 4798 006c 03E0     		b	.L439
 4799              	.L438:
 4800 006e FF23     		movs	r3, #255
 4801 0070 FB73     		strb	r3, [r7, #15]
 4802 0072 00E0     		b	.L439
 4803              	.L442:
 299:..\..\..\HamFlyAPI\src/hamfly_qx_protocol.c ****         default: break;
 4804              		.loc 1 299 0
 4805 0074 00BF     		nop
 4806              	.L439:
 300:..\..\..\HamFlyAPI\src/hamfly_qx_protocol.c ****     }
 301:..\..\..\HamFlyAPI\src/hamfly_qx_protocol.c ****     if (rw == QB_Parser_Dir_WriteDel) {
 4807              		.loc 1 301 0
 4808 0076 174B     		ldr	r3, .L444
 4809 0078 1B78     		ldrb	r3, [r3]	@ zero_extendqisi2
 4810 007a 012B     		cmp	r3, #1
 4811 007c 15D1     		bne	.L440
 4812              	.LBB44:
 302:..\..\..\HamFlyAPI\src/hamfly_qx_protocol.c ****         uint8_t xor_mask = (*msgPtr >> start_bit) & mask;
 4813              		.loc 1 302 0
 4814 007e 164B     		ldr	r3, .L444+4
 4815 0080 1B68     		ldr	r3, [r3]
 4816 0082 1B78     		ldrb	r3, [r3]
 4817 0084 DBB2     		uxtb	r3, r3
 4818 0086 1A46     		mov	r2, r3
 4819 0088 FB78     		ldrb	r3, [r7, #3]	@ zero_extendqisi2
 4820 008a 42FA03F3 		asr	r3, r2, r3
 4821 008e 5AB2     		sxtb	r2, r3
 4822 0090 97F90F30 		ldrsb	r3, [r7, #15]
 4823 0094 1340     		ands	r3, r3, r2
 4824 0096 5BB2     		sxtb	r3, r3
 4825 0098 BB73     		strb	r3, [r7, #14]
 303:..\..\..\HamFlyAPI\src/hamfly_qx_protocol.c ****         *v ^= xor_mask;
 4826              		.loc 1 303 0
 4827 009a 7B68     		ldr	r3, [r7, #4]
 4828 009c 1A78     		ldrb	r2, [r3]	@ zero_extendqisi2
 4829 009e BB7B     		ldrb	r3, [r7, #14]
 4830 00a0 5340     		eors	r3, r3, r2
 4831 00a2 DAB2     		uxtb	r2, r3
 4832 00a4 7B68     		ldr	r3, [r7, #4]
 4833 00a6 1A70     		strb	r2, [r3]
 4834              	.LBE44:
ARM GAS  C:\Users\JENNEW~1\AppData\Local\Temp\ccQ5uJSg.s 			page 93


 304:..\..\..\HamFlyAPI\src/hamfly_qx_protocol.c ****     } else {
 305:..\..\..\HamFlyAPI\src/hamfly_qx_protocol.c ****         *v = (*msgPtr >> start_bit) & mask;
 306:..\..\..\HamFlyAPI\src/hamfly_qx_protocol.c ****     }
 307:..\..\..\HamFlyAPI\src/hamfly_qx_protocol.c **** }
 4835              		.loc 1 307 0
 4836 00a8 0FE0     		b	.L443
 4837              	.L440:
 305:..\..\..\HamFlyAPI\src/hamfly_qx_protocol.c ****     }
 4838              		.loc 1 305 0
 4839 00aa 0B4B     		ldr	r3, .L444+4
 4840 00ac 1B68     		ldr	r3, [r3]
 4841 00ae 1B78     		ldrb	r3, [r3]
 4842 00b0 DBB2     		uxtb	r3, r3
 4843 00b2 1A46     		mov	r2, r3
 4844 00b4 FB78     		ldrb	r3, [r7, #3]	@ zero_extendqisi2
 4845 00b6 42FA03F3 		asr	r3, r2, r3
 4846 00ba 5AB2     		sxtb	r2, r3
 4847 00bc 97F90F30 		ldrsb	r3, [r7, #15]
 4848 00c0 1340     		ands	r3, r3, r2
 4849 00c2 5BB2     		sxtb	r3, r3
 4850 00c4 DAB2     		uxtb	r2, r3
 4851 00c6 7B68     		ldr	r3, [r7, #4]
 4852 00c8 1A70     		strb	r2, [r3]
 4853              	.L443:
 4854              		.loc 1 307 0
 4855 00ca 00BF     		nop
 4856 00cc 1437     		adds	r7, r7, #20
 4857              		.cfi_def_cfa_offset 4
 4858 00ce BD46     		mov	sp, r7
 4859              		.cfi_def_cfa_register 13
 4860              		@ sp needed
 4861 00d0 80BC     		pop	{r7}
 4862              		.cfi_restore 7
 4863              		.cfi_def_cfa_offset 0
 4864 00d2 7047     		bx	lr
 4865              	.L445:
 4866              		.align	2
 4867              	.L444:
 4868 00d4 00000000 		.word	rw
 4869 00d8 00000000 		.word	msgPtr
 4870              		.cfi_endproc
 4871              	.LFE40:
 4872              		.size	GetBitsAsByte, .-GetBitsAsByte
 4873              		.section	.text.QX_InitMsg,"ax",%progbits
 4874              		.align	2
 4875              		.thumb
 4876              		.thumb_func
 4877              		.type	QX_InitMsg, %function
 4878              	QX_InitMsg:
 4879              	.LFB41:
 308:..\..\..\HamFlyAPI\src/hamfly_qx_protocol.c **** 
 309:..\..\..\HamFlyAPI\src/hamfly_qx_protocol.c **** /* ============================================================
 310:..\..\..\HamFlyAPI\src/hamfly_qx_protocol.c ****  * QX_Protocol implementations (verbatim from QX_Protocol.c)
 311:..\..\..\HamFlyAPI\src/hamfly_qx_protocol.c ****  * ============================================================ */
 312:..\..\..\HamFlyAPI\src/hamfly_qx_protocol.c **** 
 313:..\..\..\HamFlyAPI\src/hamfly_qx_protocol.c **** static QX_Stat_e QX_InitMsg(QX_Msg_t *Msg_p)
 314:..\..\..\HamFlyAPI\src/hamfly_qx_protocol.c **** {
ARM GAS  C:\Users\JENNEW~1\AppData\Local\Temp\ccQ5uJSg.s 			page 94


 4880              		.loc 1 314 0
 4881              		.cfi_startproc
 4882              		@ args = 0, pretend = 0, frame = 8
 4883              		@ frame_needed = 1, uses_anonymous_args = 0
 4884 0000 80B5     		push	{r7, lr}
 4885              		.cfi_def_cfa_offset 8
 4886              		.cfi_offset 7, -8
 4887              		.cfi_offset 14, -4
 4888 0002 82B0     		sub	sp, sp, #8
 4889              		.cfi_def_cfa_offset 16
 4890 0004 00AF     		add	r7, sp, #0
 4891              		.cfi_def_cfa_register 7
 4892 0006 7860     		str	r0, [r7, #4]
 315:..\..\..\HamFlyAPI\src/hamfly_qx_protocol.c ****     memset(Msg_p, 0, sizeof(QX_Msg_t));
 4893              		.loc 1 315 0
 4894 0008 7422     		movs	r2, #116
 4895 000a 0021     		movs	r1, #0
 4896 000c 7868     		ldr	r0, [r7, #4]
 4897 000e FFF7FEFF 		bl	memset
 316:..\..\..\HamFlyAPI\src/hamfly_qx_protocol.c ****     Msg_p->BufPayloadStart_p = NULL;
 4898              		.loc 1 316 0
 4899 0012 7B68     		ldr	r3, [r7, #4]
 4900 0014 0022     		movs	r2, #0
 4901 0016 DA66     		str	r2, [r3, #108]
 317:..\..\..\HamFlyAPI\src/hamfly_qx_protocol.c ****     Msg_p->MsgBufAtt_p       = NULL;
 4902              		.loc 1 317 0
 4903 0018 7B68     		ldr	r3, [r7, #4]
 4904 001a 0022     		movs	r2, #0
 4905 001c 9A66     		str	r2, [r3, #104]
 318:..\..\..\HamFlyAPI\src/hamfly_qx_protocol.c ****     Msg_p->MsgBuf_p          = NULL;
 4906              		.loc 1 318 0
 4907 001e 7B68     		ldr	r3, [r7, #4]
 4908 0020 0022     		movs	r2, #0
 4909 0022 1A67     		str	r2, [r3, #112]
 319:..\..\..\HamFlyAPI\src/hamfly_qx_protocol.c ****     return QX_STAT_OK;
 4910              		.loc 1 319 0
 4911 0024 0023     		movs	r3, #0
 320:..\..\..\HamFlyAPI\src/hamfly_qx_protocol.c **** }
 4912              		.loc 1 320 0
 4913 0026 1846     		mov	r0, r3
 4914 0028 0837     		adds	r7, r7, #8
 4915              		.cfi_def_cfa_offset 8
 4916 002a BD46     		mov	sp, r7
 4917              		.cfi_def_cfa_register 13
 4918              		@ sp needed
 4919 002c 80BD     		pop	{r7, pc}
 4920              		.cfi_endproc
 4921              	.LFE41:
 4922              		.size	QX_InitMsg, .-QX_InitMsg
 4923 002e 00BF     		.section	.text.QX_RxMsg,"ax",%progbits
 4924              		.align	2
 4925              		.thumb
 4926              		.thumb_func
 4927              		.type	QX_RxMsg, %function
 4928              	QX_RxMsg:
 4929              	.LFB42:
 321:..\..\..\HamFlyAPI\src/hamfly_qx_protocol.c **** 
ARM GAS  C:\Users\JENNEW~1\AppData\Local\Temp\ccQ5uJSg.s 			page 95


 322:..\..\..\HamFlyAPI\src/hamfly_qx_protocol.c **** static QX_Stat_e QX_RxMsg(QX_Msg_t *RxMsg_p)
 323:..\..\..\HamFlyAPI\src/hamfly_qx_protocol.c **** {
 4930              		.loc 1 323 0
 4931              		.cfi_startproc
 4932              		@ args = 0, pretend = 0, frame = 16
 4933              		@ frame_needed = 1, uses_anonymous_args = 0
 4934 0000 80B5     		push	{r7, lr}
 4935              		.cfi_def_cfa_offset 8
 4936              		.cfi_offset 7, -8
 4937              		.cfi_offset 14, -4
 4938 0002 84B0     		sub	sp, sp, #16
 4939              		.cfi_def_cfa_offset 24
 4940 0004 00AF     		add	r7, sp, #0
 4941              		.cfi_def_cfa_register 7
 4942 0006 7860     		str	r0, [r7, #4]
 324:..\..\..\HamFlyAPI\src/hamfly_qx_protocol.c ****     RxMsg_p->MsgBuf_p      = &RxMsg_p->MsgBuf[0];
 4943              		.loc 1 324 0
 4944 0008 7B68     		ldr	r3, [r7, #4]
 4945 000a 03F11C02 		add	r2, r3, #28
 4946 000e 7B68     		ldr	r3, [r7, #4]
 4947 0010 1A67     		str	r2, [r3, #112]
 325:..\..\..\HamFlyAPI\src/hamfly_qx_protocol.c ****     RxMsg_p->MsgBufStart_p = &RxMsg_p->MsgBuf[0];
 4948              		.loc 1 325 0
 4949 0012 7B68     		ldr	r3, [r7, #4]
 4950 0014 03F11C02 		add	r2, r3, #28
 4951 0018 7B68     		ldr	r3, [r7, #4]
 4952 001a 5A66     		str	r2, [r3, #100]
 326:..\..\..\HamFlyAPI\src/hamfly_qx_protocol.c ****     RxMsg_p->AttNotHandled = 0;
 4953              		.loc 1 326 0
 4954 001c 7B68     		ldr	r3, [r7, #4]
 4955 001e 0022     		movs	r2, #0
 4956 0020 1A71     		strb	r2, [r3, #4]
 327:..\..\..\HamFlyAPI\src/hamfly_qx_protocol.c **** 
 328:..\..\..\HamFlyAPI\src/hamfly_qx_protocol.c ****     if (RxMsg_p->Legacy_Header) {
 4957              		.loc 1 328 0
 4958 0022 7B68     		ldr	r3, [r7, #4]
 4959 0024 5B79     		ldrb	r3, [r3, #5]	@ zero_extendqisi2
 4960 0026 002B     		cmp	r3, #0
 4961 0028 0AD0     		beq	.L449
 329:..\..\..\HamFlyAPI\src/hamfly_qx_protocol.c ****         if (QX_ParseHeader_Legacy != NULL) QX_ParseHeader_Legacy(RxMsg_p);
 4962              		.loc 1 329 0
 4963 002a 2F4B     		ldr	r3, .L461
 4964 002c 1B68     		ldr	r3, [r3]
 4965 002e 002B     		cmp	r3, #0
 4966 0030 04D0     		beq	.L450
 4967              		.loc 1 329 0 is_stmt 0 discriminator 1
 4968 0032 2D4B     		ldr	r3, .L461
 4969 0034 1B68     		ldr	r3, [r3]
 4970 0036 7868     		ldr	r0, [r7, #4]
 4971 0038 9847     		blx	r3
 4972 003a 04E0     		b	.L451
 4973              	.L450:
 330:..\..\..\HamFlyAPI\src/hamfly_qx_protocol.c ****         else return QX_STAT_ERROR;
 4974              		.loc 1 330 0 is_stmt 1
 4975 003c 0123     		movs	r3, #1
 4976 003e 4EE0     		b	.L452
 4977              	.L449:
ARM GAS  C:\Users\JENNEW~1\AppData\Local\Temp\ccQ5uJSg.s 			page 96


 331:..\..\..\HamFlyAPI\src/hamfly_qx_protocol.c ****     } else {
 332:..\..\..\HamFlyAPI\src/hamfly_qx_protocol.c ****         QX_ParseHeader(RxMsg_p);
 4978              		.loc 1 332 0
 4979 0040 7868     		ldr	r0, [r7, #4]
 4980 0042 FFF7FEFF 		bl	QX_ParseHeader
 4981              	.L451:
 333:..\..\..\HamFlyAPI\src/hamfly_qx_protocol.c ****     }
 334:..\..\..\HamFlyAPI\src/hamfly_qx_protocol.c **** 
 335:..\..\..\HamFlyAPI\src/hamfly_qx_protocol.c ****     RxMsg_p->BufPayloadStart_p = RxMsg_p->MsgBuf_p;
 4982              		.loc 1 335 0
 4983 0046 7B68     		ldr	r3, [r7, #4]
 4984 0048 1A6F     		ldr	r2, [r3, #112]
 4985 004a 7B68     		ldr	r3, [r7, #4]
 4986 004c DA66     		str	r2, [r3, #108]
 336:..\..\..\HamFlyAPI\src/hamfly_qx_protocol.c **** 
 337:..\..\..\HamFlyAPI\src/hamfly_qx_protocol.c ****     if (RxMsg_p->Header.AddCRC32) {
 4987              		.loc 1 337 0
 4988 004e 7B68     		ldr	r3, [r7, #4]
 4989 0050 9B7C     		ldrb	r3, [r3, #18]	@ zero_extendqisi2
 4990 0052 002B     		cmp	r3, #0
 4991 0054 22D0     		beq	.L453
 4992              	.LBB45:
 338:..\..\..\HamFlyAPI\src/hamfly_qx_protocol.c ****         uint32_t crc32_result = QX_accumulate_crc32(0xFFFFFFFF,
 339:..\..\..\HamFlyAPI\src/hamfly_qx_protocol.c ****             RxMsg_p->MsgBuf, RxMsg_p->MsgBuf_MsgLen - 5);
 4993              		.loc 1 339 0
 4994 0056 7B68     		ldr	r3, [r7, #4]
 4995 0058 03F11C01 		add	r1, r3, #28
 4996 005c 7B68     		ldr	r3, [r7, #4]
 4997 005e B3F86230 		ldrh	r3, [r3, #98]
 4998 0062 053B     		subs	r3, r3, #5
 338:..\..\..\HamFlyAPI\src/hamfly_qx_protocol.c ****         uint32_t crc32_result = QX_accumulate_crc32(0xFFFFFFFF,
 4999              		.loc 1 338 0
 5000 0064 1A46     		mov	r2, r3
 5001 0066 4FF0FF30 		mov	r0, #-1
 5002 006a FFF7FEFF 		bl	QX_accumulate_crc32
 5003 006e F860     		str	r0, [r7, #12]
 340:..\..\..\HamFlyAPI\src/hamfly_qx_protocol.c ****         uint32_t crc32_msg = 0;
 5004              		.loc 1 340 0
 5005 0070 0023     		movs	r3, #0
 5006 0072 BB60     		str	r3, [r7, #8]
 341:..\..\..\HamFlyAPI\src/hamfly_qx_protocol.c ****         memcpy(&crc32_msg, &RxMsg_p->MsgBuf[RxMsg_p->MsgBuf_MsgLen - 5], sizeof(crc32_msg));
 5007              		.loc 1 341 0
 5008 0074 7B68     		ldr	r3, [r7, #4]
 5009 0076 B3F86230 		ldrh	r3, [r3, #98]
 5010 007a 053B     		subs	r3, r3, #5
 5011 007c 1833     		adds	r3, r3, #24
 5012 007e 7A68     		ldr	r2, [r7, #4]
 5013 0080 1344     		add	r3, r3, r2
 5014 0082 191D     		adds	r1, r3, #4
 5015 0084 07F10803 		add	r3, r7, #8
 5016 0088 0422     		movs	r2, #4
 5017 008a 1846     		mov	r0, r3
 5018 008c FFF7FEFF 		bl	memcpy
 342:..\..\..\HamFlyAPI\src/hamfly_qx_protocol.c ****         if (crc32_result != crc32_msg) return QX_STAT_ERROR_RXMSG_CRC32_FAIL;
 5019              		.loc 1 342 0
 5020 0090 BB68     		ldr	r3, [r7, #8]
 5021 0092 FA68     		ldr	r2, [r7, #12]
ARM GAS  C:\Users\JENNEW~1\AppData\Local\Temp\ccQ5uJSg.s 			page 97


 5022 0094 9A42     		cmp	r2, r3
 5023 0096 01D0     		beq	.L453
 5024              		.loc 1 342 0 is_stmt 0 discriminator 1
 5025 0098 0723     		movs	r3, #7
 5026 009a 20E0     		b	.L452
 5027              	.L453:
 5028              	.LBE45:
 343:..\..\..\HamFlyAPI\src/hamfly_qx_protocol.c ****     }
 344:..\..\..\HamFlyAPI\src/hamfly_qx_protocol.c **** 
 345:..\..\..\HamFlyAPI\src/hamfly_qx_protocol.c ****     QX_FwdMsg_CB(RxMsg_p);
 5029              		.loc 1 345 0 is_stmt 1
 5030 009c 7868     		ldr	r0, [r7, #4]
 5031 009e FFF7FEFF 		bl	QX_FwdMsg_CB
 346:..\..\..\HamFlyAPI\src/hamfly_qx_protocol.c **** 
 347:..\..\..\HamFlyAPI\src/hamfly_qx_protocol.c ****     switch (RxMsg_p->Header.Type) {
 5032              		.loc 1 347 0
 5033 00a2 7B68     		ldr	r3, [r7, #4]
 5034 00a4 1B7C     		ldrb	r3, [r3, #16]	@ zero_extendqisi2
 5035 00a6 032B     		cmp	r3, #3
 5036 00a8 16D8     		bhi	.L455
 5037 00aa 01A2     		adr	r2, .L457
 5038 00ac 52F823F0 		ldr	pc, [r2, r3, lsl #2]
 5039              		.p2align 2
 5040              	.L457:
 5041 00b0 D1000000 		.word	.L456+1
 5042 00b4 C1000000 		.word	.L458+1
 5043 00b8 C9000000 		.word	.L459+1
 5044 00bc C9000000 		.word	.L459+1
 5045              		.p2align 1
 5046              	.L458:
 348:..\..\..\HamFlyAPI\src/hamfly_qx_protocol.c ****         case QX_MSG_TYPE_READ:      QX_Srv_Rx_Read(RxMsg_p);    break;
 5047              		.loc 1 348 0
 5048 00c0 7868     		ldr	r0, [r7, #4]
 5049 00c2 FFF7FEFF 		bl	QX_Srv_Rx_Read
 5050 00c6 09E0     		b	.L460
 5051              	.L459:
 349:..\..\..\HamFlyAPI\src/hamfly_qx_protocol.c ****         case QX_MSG_TYPE_WRITE_ABS:
 350:..\..\..\HamFlyAPI\src/hamfly_qx_protocol.c ****         case QX_MSG_TYPE_WRITE_REL: QX_Srv_Rx_Write(RxMsg_p);  break;
 5052              		.loc 1 350 0
 5053 00c8 7868     		ldr	r0, [r7, #4]
 5054 00ca FFF7FEFF 		bl	QX_Srv_Rx_Write
 5055 00ce 05E0     		b	.L460
 5056              	.L456:
 351:..\..\..\HamFlyAPI\src/hamfly_qx_protocol.c ****         case QX_MSG_TYPE_CURVAL:    QX_Cli_Rx_CurVal(RxMsg_p);  break;
 5057              		.loc 1 351 0
 5058 00d0 7868     		ldr	r0, [r7, #4]
 5059 00d2 FFF7FEFF 		bl	QX_Cli_Rx_CurVal
 5060 00d6 01E0     		b	.L460
 5061              	.L455:
 352:..\..\..\HamFlyAPI\src/hamfly_qx_protocol.c ****         default: return QX_STAT_ERROR_MSG_TYPE_NOT_SUPPORTED;
 5062              		.loc 1 352 0
 5063 00d8 0223     		movs	r3, #2
 5064 00da 00E0     		b	.L452
 5065              	.L460:
 353:..\..\..\HamFlyAPI\src/hamfly_qx_protocol.c ****     }
 354:..\..\..\HamFlyAPI\src/hamfly_qx_protocol.c ****     return QX_STAT_OK;
 5066              		.loc 1 354 0
ARM GAS  C:\Users\JENNEW~1\AppData\Local\Temp\ccQ5uJSg.s 			page 98


 5067 00dc 0023     		movs	r3, #0
 5068              	.L452:
 355:..\..\..\HamFlyAPI\src/hamfly_qx_protocol.c **** }
 5069              		.loc 1 355 0
 5070 00de 1846     		mov	r0, r3
 5071 00e0 1037     		adds	r7, r7, #16
 5072              		.cfi_def_cfa_offset 8
 5073 00e2 BD46     		mov	sp, r7
 5074              		.cfi_def_cfa_register 13
 5075              		@ sp needed
 5076 00e4 80BD     		pop	{r7, pc}
 5077              	.L462:
 5078 00e6 00BF     		.align	2
 5079              	.L461:
 5080 00e8 00000000 		.word	QX_ParseHeader_Legacy
 5081              		.cfi_endproc
 5082              	.LFE42:
 5083              		.size	QX_RxMsg, .-QX_RxMsg
 5084              		.section	.text.QX_Srv_Rx_Read,"ax",%progbits
 5085              		.align	2
 5086              		.thumb
 5087              		.thumb_func
 5088              		.type	QX_Srv_Rx_Read, %function
 5089              	QX_Srv_Rx_Read:
 5090              	.LFB43:
 356:..\..\..\HamFlyAPI\src/hamfly_qx_protocol.c **** 
 357:..\..\..\HamFlyAPI\src/hamfly_qx_protocol.c **** static void QX_Srv_Rx_Read(QX_Msg_t *RxMsg_p)
 358:..\..\..\HamFlyAPI\src/hamfly_qx_protocol.c **** {
 5091              		.loc 1 358 0
 5092              		.cfi_startproc
 5093              		@ args = 0, pretend = 0, frame = 24
 5094              		@ frame_needed = 1, uses_anonymous_args = 0
 5095 0000 B0B5     		push	{r4, r5, r7, lr}
 5096              		.cfi_def_cfa_offset 16
 5097              		.cfi_offset 4, -16
 5098              		.cfi_offset 5, -12
 5099              		.cfi_offset 7, -8
 5100              		.cfi_offset 14, -4
 5101 0002 88B0     		sub	sp, sp, #32
 5102              		.cfi_def_cfa_offset 48
 5103 0004 02AF     		add	r7, sp, #8
 5104              		.cfi_def_cfa 7, 40
 5105 0006 7860     		str	r0, [r7, #4]
 359:..\..\..\HamFlyAPI\src/hamfly_qx_protocol.c ****     int srv_i;
 360:..\..\..\HamFlyAPI\src/hamfly_qx_protocol.c ****     for (srv_i = 0; srv_i < QX_NUM_SRV; srv_i++) {
 5106              		.loc 1 360 0
 5107 0008 0023     		movs	r3, #0
 5108 000a 7B61     		str	r3, [r7, #20]
 5109 000c 36E0     		b	.L464
 5110              	.L467:
 361:..\..\..\HamFlyAPI\src/hamfly_qx_protocol.c ****         if ((RxMsg_p->Header.Target_Addr == QX_Servers[srv_i].Address) ||
 5111              		.loc 1 361 0
 5112 000e 7B68     		ldr	r3, [r7, #4]
 5113 0010 5A7E     		ldrb	r2, [r3, #25]	@ zero_extendqisi2
 5114 0012 1E49     		ldr	r1, .L468
 5115 0014 7B69     		ldr	r3, [r7, #20]
 5116 0016 11F83330 		ldrb	r3, [r1, r3, lsl #3]	@ zero_extendqisi2
ARM GAS  C:\Users\JENNEW~1\AppData\Local\Temp\ccQ5uJSg.s 			page 99


 5117 001a 9A42     		cmp	r2, r3
 5118 001c 03D0     		beq	.L465
 362:..\..\..\HamFlyAPI\src/hamfly_qx_protocol.c ****             (RxMsg_p->Header.Target_Addr == QX_DEV_ID_BROADCAST)) {
 5119              		.loc 1 362 0 discriminator 1
 5120 001e 7B68     		ldr	r3, [r7, #4]
 5121 0020 5B7E     		ldrb	r3, [r3, #25]	@ zero_extendqisi2
 361:..\..\..\HamFlyAPI\src/hamfly_qx_protocol.c ****         if ((RxMsg_p->Header.Target_Addr == QX_Servers[srv_i].Address) ||
 5122              		.loc 1 361 0 discriminator 1
 5123 0022 002B     		cmp	r3, #0
 5124 0024 27D1     		bne	.L466
 5125              	.L465:
 5126              	.LBB46:
 363:..\..\..\HamFlyAPI\src/hamfly_qx_protocol.c ****             QX_TxMsgOptions_t options;
 364:..\..\..\HamFlyAPI\src/hamfly_qx_protocol.c ****             QX_InitTxOptions(&options);
 5127              		.loc 1 364 0
 5128 0026 07F10C03 		add	r3, r7, #12
 5129 002a 1846     		mov	r0, r3
 5130 002c FFF7FEFF 		bl	QX_InitTxOptions
 365:..\..\..\HamFlyAPI\src/hamfly_qx_protocol.c ****             options.use_CRC32           = RxMsg_p->Header.AddCRC32;
 5131              		.loc 1 365 0
 5132 0030 7B68     		ldr	r3, [r7, #4]
 5133 0032 9B7C     		ldrb	r3, [r3, #18]	@ zero_extendqisi2
 5134 0034 7B73     		strb	r3, [r7, #13]
 366:..\..\..\HamFlyAPI\src/hamfly_qx_protocol.c ****             options.FF_Ext              = RxMsg_p->Header.FF_Ext;
 5135              		.loc 1 366 0
 5136 0036 7B68     		ldr	r3, [r7, #4]
 5137 0038 DB7C     		ldrb	r3, [r3, #19]	@ zero_extendqisi2
 5138 003a 3B73     		strb	r3, [r7, #12]
 367:..\..\..\HamFlyAPI\src/hamfly_qx_protocol.c ****             options.Remove_Addr_Fields  = RxMsg_p->Header.Remove_Addr_Fields;
 5139              		.loc 1 367 0
 5140 003c 7B68     		ldr	r3, [r7, #4]
 5141 003e 9B7D     		ldrb	r3, [r3, #22]	@ zero_extendqisi2
 5142 0040 BB73     		strb	r3, [r7, #14]
 368:..\..\..\HamFlyAPI\src/hamfly_qx_protocol.c ****             options.Remove_Req_Fields   = 1;
 5143              		.loc 1 368 0
 5144 0042 0123     		movs	r3, #1
 5145 0044 FB73     		strb	r3, [r7, #15]
 369:..\..\..\HamFlyAPI\src/hamfly_qx_protocol.c ****             options.Target_Addr         = RxMsg_p->Header.Source_Addr;
 5146              		.loc 1 369 0
 5147 0046 7B68     		ldr	r3, [r7, #4]
 5148 0048 1B7E     		ldrb	r3, [r3, #24]	@ zero_extendqisi2
 5149 004a 3B74     		strb	r3, [r7, #16]
 370:..\..\..\HamFlyAPI\src/hamfly_qx_protocol.c ****             QX_SendPacket_Srv_CurVal(&QX_Servers[srv_i],
 5150              		.loc 1 370 0
 5151 004c 7B69     		ldr	r3, [r7, #20]
 5152 004e DB00     		lsls	r3, r3, #3
 5153 0050 0E4A     		ldr	r2, .L468
 5154 0052 9818     		adds	r0, r3, r2
 5155 0054 7B68     		ldr	r3, [r7, #4]
 5156 0056 D968     		ldr	r1, [r3, #12]
 5157 0058 7B68     		ldr	r3, [r7, #4]
 5158 005a 9C79     		ldrb	r4, [r3, #6]	@ zero_extendqisi2
 5159 005c 6B46     		mov	r3, sp
 5160 005e 07F11002 		add	r2, r7, #16
 5161 0062 1268     		ldr	r2, [r2]
 5162 0064 1546     		mov	r5, r2	@ movhi
 5163 0066 1D80     		strh	r5, [r3]	@ movhi
ARM GAS  C:\Users\JENNEW~1\AppData\Local\Temp\ccQ5uJSg.s 			page 100


 5164 0068 0233     		adds	r3, r3, #2
 5165 006a 120C     		lsrs	r2, r2, #16
 5166 006c 1A70     		strb	r2, [r3]
 5167 006e FB68     		ldr	r3, [r7, #12]
 5168 0070 2246     		mov	r2, r4
 5169 0072 FFF7FEFF 		bl	QX_SendPacket_Srv_CurVal
 5170              	.L466:
 5171              	.LBE46:
 360:..\..\..\HamFlyAPI\src/hamfly_qx_protocol.c ****         if ((RxMsg_p->Header.Target_Addr == QX_Servers[srv_i].Address) ||
 5172              		.loc 1 360 0 discriminator 2
 5173 0076 7B69     		ldr	r3, [r7, #20]
 5174 0078 0133     		adds	r3, r3, #1
 5175 007a 7B61     		str	r3, [r7, #20]
 5176              	.L464:
 360:..\..\..\HamFlyAPI\src/hamfly_qx_protocol.c ****         if ((RxMsg_p->Header.Target_Addr == QX_Servers[srv_i].Address) ||
 5177              		.loc 1 360 0 is_stmt 0 discriminator 1
 5178 007c 7B69     		ldr	r3, [r7, #20]
 5179 007e 002B     		cmp	r3, #0
 5180 0080 C5DD     		ble	.L467
 371:..\..\..\HamFlyAPI\src/hamfly_qx_protocol.c ****                 RxMsg_p->Header.Attrib, RxMsg_p->CommPort, options);
 372:..\..\..\HamFlyAPI\src/hamfly_qx_protocol.c ****         }
 373:..\..\..\HamFlyAPI\src/hamfly_qx_protocol.c ****     }
 374:..\..\..\HamFlyAPI\src/hamfly_qx_protocol.c **** }
 5181              		.loc 1 374 0 is_stmt 1
 5182 0082 00BF     		nop
 5183 0084 1837     		adds	r7, r7, #24
 5184              		.cfi_def_cfa_offset 16
 5185 0086 BD46     		mov	sp, r7
 5186              		.cfi_def_cfa_register 13
 5187              		@ sp needed
 5188 0088 B0BD     		pop	{r4, r5, r7, pc}
 5189              	.L469:
