ARM GAS  C:\Users\JENNEW~1\AppData\Local\Temp\ccQ5uJSg.s 			page 1


   1              		.syntax unified
   2              		.cpu cortex-m3
   3              		.fpu softvfp
   4              		.eabi_attribute 20, 1
   5              		.eabi_attribute 21, 1
   6              		.eabi_attribute 23, 3
   7              		.eabi_attribute 24, 1
   8              		.eabi_attribute 25, 1
   9              		.eabi_attribute 26, 1
  10              		.eabi_attribute 30, 6
  11              		.eabi_attribute 34, 1
  12              		.eabi_attribute 18, 4
  13              		.thumb
  14              		.syntax unified
  15              		.file	"hamfly_qx_protocol.c"
  16              		.text
  17              	.Ltext0:
  18              		.cfi_sections	.debug_frame
  19              		.comm	QX_Servers,8,4
  20              		.comm	QX_Clients,8,4
  21              		.comm	QX_CommsPorts,140,4
  22              		.global	QX_BuildHeader_Legacy
  23              		.bss
  24              		.align	2
  25              		.type	QX_BuildHeader_Legacy, %object
  26              		.size	QX_BuildHeader_Legacy, 4
  27              	QX_BuildHeader_Legacy:
  28 0000 00000000 		.space	4
  29              		.global	QX_ParseHeader_Legacy
  30              		.align	2
  31              		.type	QX_ParseHeader_Legacy, %object
  32              		.size	QX_ParseHeader_Legacy, 4
  33              	QX_ParseHeader_Legacy:
  34 0004 00000000 		.space	4
  35              		.comm	msgPtr,4,4
  36              		.comm	rw,1,1
  37              	rw_orig:
  38 0008 00       		.space	1
  39              		.section	.text.QX_Parser_SetMsgPtr,"ax",%progbits
  40              		.align	2
  41              		.global	QX_Parser_SetMsgPtr
  42              		.thumb
  43              		.thumb_func
  44              		.type	QX_Parser_SetMsgPtr, %function
  45              	QX_Parser_SetMsgPtr:
  46              	.LFB0:
  47              		.file 1 "..\\..\\..\\HamFlyAPI\\src\\hamfly_qx_protocol.c"
   1:..\..\..\HamFlyAPI\src/hamfly_qx_protocol.c **** /* SPDX-License-Identifier: Apache-2.0
   2:..\..\..\HamFlyAPI\src/hamfly_qx_protocol.c ****  *
   3:..\..\..\HamFlyAPI\src/hamfly_qx_protocol.c ****  * Copyright 2026 Quantum Information Systems Lab, SFU Physics
   4:..\..\..\HamFlyAPI\src/hamfly_qx_protocol.c ****  *
   5:..\..\..\HamFlyAPI\src/hamfly_qx_protocol.c ****  * Based on the Freefly QX Protocol (Copyright 2017 Freefly Systems),
   6:..\..\..\HamFlyAPI\src/hamfly_qx_protocol.c ****  * originally licensed under the Apache License, Version 2.0.
   7:..\..\..\HamFlyAPI\src/hamfly_qx_protocol.c ****  *
   8:..\..\..\HamFlyAPI\src/hamfly_qx_protocol.c ****  * Licensed under the Apache License, Version 2.0 (the "License");
   9:..\..\..\HamFlyAPI\src/hamfly_qx_protocol.c ****  * you may not use this file except in compliance with the License.
  10:..\..\..\HamFlyAPI\src/hamfly_qx_protocol.c ****  * You may obtain a copy of the License at
ARM GAS  C:\Users\JENNEW~1\AppData\Local\Temp\ccQ5uJSg.s 			page 2


  11:..\..\..\HamFlyAPI\src/hamfly_qx_protocol.c ****  *
  12:..\..\..\HamFlyAPI\src/hamfly_qx_protocol.c ****  *     http://www.apache.org/licenses/LICENSE-2.0
  13:..\..\..\HamFlyAPI\src/hamfly_qx_protocol.c ****  *
  14:..\..\..\HamFlyAPI\src/hamfly_qx_protocol.c ****  * Unless required by applicable law or agreed to in writing, software
  15:..\..\..\HamFlyAPI\src/hamfly_qx_protocol.c ****  * distributed under the License is distributed on an "AS IS" BASIS,
  16:..\..\..\HamFlyAPI\src/hamfly_qx_protocol.c ****  * WITHOUT WARRANTIES OR CONDITIONS OF ANY KIND, either express or
  17:..\..\..\HamFlyAPI\src/hamfly_qx_protocol.c ****  * implied. See the License for the specific language governing
  18:..\..\..\HamFlyAPI\src/hamfly_qx_protocol.c ****  * permissions and limitations under the License.
  19:..\..\..\HamFlyAPI\src/hamfly_qx_protocol.c ****  * 
  20:..\..\..\HamFlyAPI\src/hamfly_qx_protocol.c ****  * ============================================================================
  21:..\..\..\HamFlyAPI\src/hamfly_qx_protocol.c ****  * Directly copied from the FreeflyAPI QX protocol.c/h, refactored with Claude
  22:..\..\..\HamFlyAPI\src/hamfly_qx_protocol.c ****  * Haiku into two files for posterity: hamfly_qx_protocol and hamfly_qx_app.
  23:..\..\..\HamFlyAPI\src/hamfly_qx_protocol.c ****  *
  24:..\..\..\HamFlyAPI\src/hamfly_qx_protocol.c ****  * Edits:
  25:..\..\..\HamFlyAPI\src/hamfly_qx_protocol.c ****  *  - Updated includes to consolidated files.
  26:..\..\..\HamFlyAPI\src/hamfly_qx_protocol.c ****  */
  27:..\..\..\HamFlyAPI\src/hamfly_qx_protocol.c **** 
  28:..\..\..\HamFlyAPI\src/hamfly_qx_protocol.c **** #include "hamfly_qx_protocol.h"
  29:..\..\..\HamFlyAPI\src/hamfly_qx_protocol.c **** #include <stdlib.h>
  30:..\..\..\HamFlyAPI\src/hamfly_qx_protocol.c **** #include <stdint.h>
  31:..\..\..\HamFlyAPI\src/hamfly_qx_protocol.c **** #include <string.h>
  32:..\..\..\HamFlyAPI\src/hamfly_qx_protocol.c **** #include <math.h>
  33:..\..\..\HamFlyAPI\src/hamfly_qx_protocol.c **** 
  34:..\..\..\HamFlyAPI\src/hamfly_qx_protocol.c **** /* ============================================================
  35:..\..\..\HamFlyAPI\src/hamfly_qx_protocol.c ****  * Globals
  36:..\..\..\HamFlyAPI\src/hamfly_qx_protocol.c ****  * ============================================================ */
  37:..\..\..\HamFlyAPI\src/hamfly_qx_protocol.c **** QX_Server_t    QX_Servers[QX_NUM_SRV];
  38:..\..\..\HamFlyAPI\src/hamfly_qx_protocol.c **** QX_Client_t    QX_Clients[QX_NUM_CLI];
  39:..\..\..\HamFlyAPI\src/hamfly_qx_protocol.c **** QX_CommsPort_t QX_CommsPorts[QX_NUM_OF_PORTS];
  40:..\..\..\HamFlyAPI\src/hamfly_qx_protocol.c **** 
  41:..\..\..\HamFlyAPI\src/hamfly_qx_protocol.c **** void (*QX_BuildHeader_Legacy)(QX_Msg_t *Msg_p) = NULL;
  42:..\..\..\HamFlyAPI\src/hamfly_qx_protocol.c **** void (*QX_ParseHeader_Legacy)(QX_Msg_t *Msg_p) = NULL;
  43:..\..\..\HamFlyAPI\src/hamfly_qx_protocol.c **** 
  44:..\..\..\HamFlyAPI\src/hamfly_qx_protocol.c **** /* QX_Parsing_Functions globals */
  45:..\..\..\HamFlyAPI\src/hamfly_qx_protocol.c **** volatile uint8_t *msgPtr;
  46:..\..\..\HamFlyAPI\src/hamfly_qx_protocol.c **** QB_Parser_Dir_e   rw;
  47:..\..\..\HamFlyAPI\src/hamfly_qx_protocol.c **** static QB_Parser_Dir_e rw_orig;
  48:..\..\..\HamFlyAPI\src/hamfly_qx_protocol.c **** 
  49:..\..\..\HamFlyAPI\src/hamfly_qx_protocol.c **** /* ============================================================
  50:..\..\..\HamFlyAPI\src/hamfly_qx_protocol.c ****  * Private prototypes
  51:..\..\..\HamFlyAPI\src/hamfly_qx_protocol.c ****  * ============================================================ */
  52:..\..\..\HamFlyAPI\src/hamfly_qx_protocol.c **** static QX_Stat_e QX_InitMsg          (QX_Msg_t *Msg_p);
  53:..\..\..\HamFlyAPI\src/hamfly_qx_protocol.c **** static QX_Stat_e QX_RxMsg            (QX_Msg_t *RxMsg_p);
  54:..\..\..\HamFlyAPI\src/hamfly_qx_protocol.c **** static QX_Stat_e QX_TxMsg_Setup      (QX_Msg_t *TxMsg_p);
  55:..\..\..\HamFlyAPI\src/hamfly_qx_protocol.c **** static QX_Stat_e QX_TxMsg_Finish     (QX_Msg_t *TxMsg_p);
  56:..\..\..\HamFlyAPI\src/hamfly_qx_protocol.c **** static void      QX_Srv_Rx_Read      (QX_Msg_t *RxMsg_p);
  57:..\..\..\HamFlyAPI\src/hamfly_qx_protocol.c **** static void      QX_Srv_Rx_Write     (QX_Msg_t *RxMsg_p);
  58:..\..\..\HamFlyAPI\src/hamfly_qx_protocol.c **** static void      QX_Cli_Rx_CurVal    (QX_Msg_t *RxMsg_p);
  59:..\..\..\HamFlyAPI\src/hamfly_qx_protocol.c **** static void      QX_BuildHeader      (QX_Msg_t *Msg_p);
  60:..\..\..\HamFlyAPI\src/hamfly_qx_protocol.c **** static void      QX_ParseHeader      (QX_Msg_t *Msg_p);
  61:..\..\..\HamFlyAPI\src/hamfly_qx_protocol.c **** static void      QX_AddExtdValToBuf  (uint8_t **p, uint32_t Val);
  62:..\..\..\HamFlyAPI\src/hamfly_qx_protocol.c **** static uint32_t  QX_GetExtdValFromBuf(uint8_t **p);
  63:..\..\..\HamFlyAPI\src/hamfly_qx_protocol.c **** static uint8_t   QX_Calc8bChecksum   (uint8_t *buf_p, uint32_t len);
  64:..\..\..\HamFlyAPI\src/hamfly_qx_protocol.c **** static uint32_t  QX_compute_crc32    (uint8_t data);
  65:..\..\..\HamFlyAPI\src/hamfly_qx_protocol.c **** 
  66:..\..\..\HamFlyAPI\src/hamfly_qx_protocol.c **** /* ============================================================
  67:..\..\..\HamFlyAPI\src/hamfly_qx_protocol.c ****  * Internal parser macros (QX_Parsing_Functions private)
ARM GAS  C:\Users\JENNEW~1\AppData\Local\Temp\ccQ5uJSg.s 			page 3


  68:..\..\..\HamFlyAPI\src/hamfly_qx_protocol.c ****  * ============================================================ */
  69:..\..\..\HamFlyAPI\src/hamfly_qx_protocol.c **** #define BITFIELD_MASK_1  0x01
  70:..\..\..\HamFlyAPI\src/hamfly_qx_protocol.c **** #define BITFIELD_MASK_2  0x03
  71:..\..\..\HamFlyAPI\src/hamfly_qx_protocol.c **** #define BITFIELD_MASK_3  0x07
  72:..\..\..\HamFlyAPI\src/hamfly_qx_protocol.c **** #define BITFIELD_MASK_4  0x0F
  73:..\..\..\HamFlyAPI\src/hamfly_qx_protocol.c **** #define BITFIELD_MASK_5  0x1F
  74:..\..\..\HamFlyAPI\src/hamfly_qx_protocol.c **** #define BITFIELD_MASK_6  0x3F
  75:..\..\..\HamFlyAPI\src/hamfly_qx_protocol.c **** #define BITFIELD_MASK_7  0x7F
  76:..\..\..\HamFlyAPI\src/hamfly_qx_protocol.c **** #define BITFIELD_MASK_8  0xFF
  77:..\..\..\HamFlyAPI\src/hamfly_qx_protocol.c **** 
  78:..\..\..\HamFlyAPI\src/hamfly_qx_protocol.c **** #define ADDSL(v)   { *msgPtr++ = (uint8_t)((v) >> 24); *msgPtr++ = (uint8_t)((v) >> 16); *msgPtr++ 
  79:..\..\..\HamFlyAPI\src/hamfly_qx_protocol.c **** #define ADDSS(v)   { *msgPtr++ = (uint8_t)((v) >> 8); *msgPtr++ = (uint8_t)(v); }
  80:..\..\..\HamFlyAPI\src/hamfly_qx_protocol.c **** #define ADDUS(v)   { *msgPtr++ = (uint8_t)((v) >> 8); *msgPtr++ = (uint8_t)(v); }
  81:..\..\..\HamFlyAPI\src/hamfly_qx_protocol.c **** #define ADDCHAR(v) { *msgPtr++ = (uint8_t)(v); }
  82:..\..\..\HamFlyAPI\src/hamfly_qx_protocol.c **** 
  83:..\..\..\HamFlyAPI\src/hamfly_qx_protocol.c **** #define GETUC  ((uint8_t)*msgPtr++)
  84:..\..\..\HamFlyAPI\src/hamfly_qx_protocol.c **** #define GETSC  ((int8_t)*msgPtr++)
  85:..\..\..\HamFlyAPI\src/hamfly_qx_protocol.c **** #define GETSS  ((int16_t)((*msgPtr) << 8) | (int16_t)((*(msgPtr + 1)))); msgPtr += 2;
  86:..\..\..\HamFlyAPI\src/hamfly_qx_protocol.c **** #define GETUS  ((uint16_t)((*msgPtr) << 8) | (uint16_t)((*(msgPtr + 1)))); msgPtr += 2;
  87:..\..\..\HamFlyAPI\src/hamfly_qx_protocol.c **** #define GETSL  ((int32_t)((*msgPtr) << 24) | (int32_t)((*(msgPtr+1)) << 16) | (int32_t)((*(msgPtr+2
  88:..\..\..\HamFlyAPI\src/hamfly_qx_protocol.c **** 
  89:..\..\..\HamFlyAPI\src/hamfly_qx_protocol.c **** /* ============================================================
  90:..\..\..\HamFlyAPI\src/hamfly_qx_protocol.c ****  * QX_Parsing_Functions implementations (verbatim)
  91:..\..\..\HamFlyAPI\src/hamfly_qx_protocol.c ****  * ============================================================ */
  92:..\..\..\HamFlyAPI\src/hamfly_qx_protocol.c **** 
  93:..\..\..\HamFlyAPI\src/hamfly_qx_protocol.c **** void QX_Parser_SetMsgPtr(uint8_t *p)         { msgPtr = p; }
  48              		.loc 1 93 0
  49              		.cfi_startproc
  50              		@ args = 0, pretend = 0, frame = 8
  51              		@ frame_needed = 1, uses_anonymous_args = 0
  52              		@ link register save eliminated.
  53 0000 80B4     		push	{r7}
  54              		.cfi_def_cfa_offset 4
  55              		.cfi_offset 7, -4
  56 0002 83B0     		sub	sp, sp, #12
  57              		.cfi_def_cfa_offset 16
  58 0004 00AF     		add	r7, sp, #0
  59              		.cfi_def_cfa_register 7
  60 0006 7860     		str	r0, [r7, #4]
  61              		.loc 1 93 0
  62 0008 034A     		ldr	r2, .L2
  63 000a 7B68     		ldr	r3, [r7, #4]
  64 000c 1360     		str	r3, [r2]
  65 000e 00BF     		nop
  66 0010 0C37     		adds	r7, r7, #12
  67              		.cfi_def_cfa_offset 4
  68 0012 BD46     		mov	sp, r7
  69              		.cfi_def_cfa_register 13
  70              		@ sp needed
  71 0014 80BC     		pop	{r7}
  72              		.cfi_restore 7
  73              		.cfi_def_cfa_offset 0
  74 0016 7047     		bx	lr
  75              	.L3:
  76              		.align	2
  77              	.L2:
  78 0018 00000000 		.word	msgPtr
ARM GAS  C:\Users\JENNEW~1\AppData\Local\Temp\ccQ5uJSg.s 			page 4


  79              		.cfi_endproc
  80              	.LFE0:
  81              		.size	QX_Parser_SetMsgPtr, .-QX_Parser_SetMsgPtr
  82              		.section	.text.QX_Parser_AdvMsgPtr,"ax",%progbits
  83              		.align	2
  84              		.global	QX_Parser_AdvMsgPtr
  85              		.thumb
  86              		.thumb_func
  87              		.type	QX_Parser_AdvMsgPtr, %function
  88              	QX_Parser_AdvMsgPtr:
  89              	.LFB1:
  94:..\..\..\HamFlyAPI\src/hamfly_qx_protocol.c **** void QX_Parser_AdvMsgPtr(void)               { msgPtr++; }
  90              		.loc 1 94 0
  91              		.cfi_startproc
  92              		@ args = 0, pretend = 0, frame = 0
  93              		@ frame_needed = 1, uses_anonymous_args = 0
  94              		@ link register save eliminated.
  95 0000 80B4     		push	{r7}
  96              		.cfi_def_cfa_offset 4
  97              		.cfi_offset 7, -4
  98 0002 00AF     		add	r7, sp, #0
  99              		.cfi_def_cfa_register 7
 100              		.loc 1 94 0
 101 0004 044B     		ldr	r3, .L5
 102 0006 1B68     		ldr	r3, [r3]
 103 0008 0133     		adds	r3, r3, #1
 104 000a 034A     		ldr	r2, .L5
 105 000c 1360     		str	r3, [r2]
 106 000e 00BF     		nop
 107 0010 BD46     		mov	sp, r7
 108              		.cfi_def_cfa_register 13
 109              		@ sp needed
 110 0012 80BC     		pop	{r7}
 111              		.cfi_restore 7
 112              		.cfi_def_cfa_offset 0
 113 0014 7047     		bx	lr
 114              	.L6:
 115 0016 00BF     		.align	2
 116              	.L5:
 117 0018 00000000 		.word	msgPtr
 118              		.cfi_endproc
 119              	.LFE1:
 120              		.size	QX_Parser_AdvMsgPtr, .-QX_Parser_AdvMsgPtr
 121              		.section	.text.QX_Parser_GetMsgPtr,"ax",%progbits
 122              		.align	2
 123              		.global	QX_Parser_GetMsgPtr
 124              		.thumb
 125              		.thumb_func
 126              		.type	QX_Parser_GetMsgPtr, %function
 127              	QX_Parser_GetMsgPtr:
 128              	.LFB2:
  95:..\..\..\HamFlyAPI\src/hamfly_qx_protocol.c **** volatile uint8_t *QX_Parser_GetMsgPtr(void)  { return msgPtr; }
 129              		.loc 1 95 0
 130              		.cfi_startproc
 131              		@ args = 0, pretend = 0, frame = 0
 132              		@ frame_needed = 1, uses_anonymous_args = 0
 133              		@ link register save eliminated.
ARM GAS  C:\Users\JENNEW~1\AppData\Local\Temp\ccQ5uJSg.s 			page 5


 134 0000 80B4     		push	{r7}
 135              		.cfi_def_cfa_offset 4
 136              		.cfi_offset 7, -4
 137 0002 00AF     		add	r7, sp, #0
 138              		.cfi_def_cfa_register 7
 139              		.loc 1 95 0
 140 0004 024B     		ldr	r3, .L9
 141 0006 1B68     		ldr	r3, [r3]
 142 0008 1846     		mov	r0, r3
 143 000a BD46     		mov	sp, r7
 144              		.cfi_def_cfa_register 13
 145              		@ sp needed
 146 000c 80BC     		pop	{r7}
 147              		.cfi_restore 7
 148              		.cfi_def_cfa_offset 0
 149 000e 7047     		bx	lr
 150              	.L10:
 151              		.align	2
 152              	.L9:
 153 0010 00000000 		.word	msgPtr
 154              		.cfi_endproc
 155              	.LFE2:
 156              		.size	QX_Parser_GetMsgPtr, .-QX_Parser_GetMsgPtr
 157              		.section	.text.QX_Parser_SetDir_Read,"ax",%progbits
 158              		.align	2
 159              		.global	QX_Parser_SetDir_Read
 160              		.thumb
 161              		.thumb_func
 162              		.type	QX_Parser_SetDir_Read, %function
 163              	QX_Parser_SetDir_Read:
 164              	.LFB3:
  96:..\..\..\HamFlyAPI\src/hamfly_qx_protocol.c **** void QX_Parser_SetDir_Read(void)             { rw = QB_Parser_Dir_Read; }
 165              		.loc 1 96 0
 166              		.cfi_startproc
 167              		@ args = 0, pretend = 0, frame = 0
 168              		@ frame_needed = 1, uses_anonymous_args = 0
 169              		@ link register save eliminated.
 170 0000 80B4     		push	{r7}
 171              		.cfi_def_cfa_offset 4
 172              		.cfi_offset 7, -4
 173 0002 00AF     		add	r7, sp, #0
 174              		.cfi_def_cfa_register 7
 175              		.loc 1 96 0
 176 0004 034B     		ldr	r3, .L12
 177 0006 0022     		movs	r2, #0
 178 0008 1A70     		strb	r2, [r3]
 179 000a 00BF     		nop
 180 000c BD46     		mov	sp, r7
 181              		.cfi_def_cfa_register 13
 182              		@ sp needed
 183 000e 80BC     		pop	{r7}
 184              		.cfi_restore 7
 185              		.cfi_def_cfa_offset 0
 186 0010 7047     		bx	lr
 187              	.L13:
 188 0012 00BF     		.align	2
 189              	.L12:
ARM GAS  C:\Users\JENNEW~1\AppData\Local\Temp\ccQ5uJSg.s 			page 6


 190 0014 00000000 		.word	rw
 191              		.cfi_endproc
 192              	.LFE3:
 193              		.size	QX_Parser_SetDir_Read, .-QX_Parser_SetDir_Read
 194              		.section	.text.QX_Parser_SetDir_WriteRel,"ax",%progbits
 195              		.align	2
 196              		.global	QX_Parser_SetDir_WriteRel
 197              		.thumb
 198              		.thumb_func
 199              		.type	QX_Parser_SetDir_WriteRel, %function
 200              	QX_Parser_SetDir_WriteRel:
 201              	.LFB4:
  97:..\..\..\HamFlyAPI\src/hamfly_qx_protocol.c **** void QX_Parser_SetDir_WriteRel(void)         { rw = QB_Parser_Dir_WriteDel; }
 202              		.loc 1 97 0
 203              		.cfi_startproc
 204              		@ args = 0, pretend = 0, frame = 0
 205              		@ frame_needed = 1, uses_anonymous_args = 0
 206              		@ link register save eliminated.
 207 0000 80B4     		push	{r7}
 208              		.cfi_def_cfa_offset 4
 209              		.cfi_offset 7, -4
 210 0002 00AF     		add	r7, sp, #0
 211              		.cfi_def_cfa_register 7
 212              		.loc 1 97 0
 213 0004 034B     		ldr	r3, .L15
 214 0006 0122     		movs	r2, #1
 215 0008 1A70     		strb	r2, [r3]
 216 000a 00BF     		nop
 217 000c BD46     		mov	sp, r7
 218              		.cfi_def_cfa_register 13
 219              		@ sp needed
 220 000e 80BC     		pop	{r7}
 221              		.cfi_restore 7
 222              		.cfi_def_cfa_offset 0
 223 0010 7047     		bx	lr
 224              	.L16:
 225 0012 00BF     		.align	2
 226              	.L15:
 227 0014 00000000 		.word	rw
 228              		.cfi_endproc
 229              	.LFE4:
 230              		.size	QX_Parser_SetDir_WriteRel, .-QX_Parser_SetDir_WriteRel
 231              		.section	.text.QX_Parser_SetDir_WriteAbs,"ax",%progbits
 232              		.align	2
 233              		.global	QX_Parser_SetDir_WriteAbs
 234              		.thumb
 235              		.thumb_func
 236              		.type	QX_Parser_SetDir_WriteAbs, %function
 237              	QX_Parser_SetDir_WriteAbs:
 238              	.LFB5:
  98:..\..\..\HamFlyAPI\src/hamfly_qx_protocol.c **** void QX_Parser_SetDir_WriteAbs(void)         { rw = QB_Parser_Dir_WriteAbs; }
 239              		.loc 1 98 0
 240              		.cfi_startproc
 241              		@ args = 0, pretend = 0, frame = 0
 242              		@ frame_needed = 1, uses_anonymous_args = 0
 243              		@ link register save eliminated.
 244 0000 80B4     		push	{r7}
ARM GAS  C:\Users\JENNEW~1\AppData\Local\Temp\ccQ5uJSg.s 			page 7


 245              		.cfi_def_cfa_offset 4
 246              		.cfi_offset 7, -4
 247 0002 00AF     		add	r7, sp, #0
 248              		.cfi_def_cfa_register 7
 249              		.loc 1 98 0
 250 0004 034B     		ldr	r3, .L18
 251 0006 0222     		movs	r2, #2
 252 0008 1A70     		strb	r2, [r3]
 253 000a 00BF     		nop
 254 000c BD46     		mov	sp, r7
 255              		.cfi_def_cfa_register 13
 256              		@ sp needed
 257 000e 80BC     		pop	{r7}
 258              		.cfi_restore 7
 259              		.cfi_def_cfa_offset 0
 260 0010 7047     		bx	lr
 261              	.L19:
 262 0012 00BF     		.align	2
 263              	.L18:
 264 0014 00000000 		.word	rw
 265              		.cfi_endproc
 266              	.LFE5:
 267              		.size	QX_Parser_SetDir_WriteAbs, .-QX_Parser_SetDir_WriteAbs
 268              		.section	.text.QX_Parser_GetDir,"ax",%progbits
 269              		.align	2
 270              		.global	QX_Parser_GetDir
 271              		.thumb
 272              		.thumb_func
 273              		.type	QX_Parser_GetDir, %function
 274              	QX_Parser_GetDir:
 275              	.LFB6:
  99:..\..\..\HamFlyAPI\src/hamfly_qx_protocol.c **** QB_Parser_Dir_e QX_Parser_GetDir(void)       { return rw; }
 276              		.loc 1 99 0
 277              		.cfi_startproc
 278              		@ args = 0, pretend = 0, frame = 0
 279              		@ frame_needed = 1, uses_anonymous_args = 0
 280              		@ link register save eliminated.
 281 0000 80B4     		push	{r7}
 282              		.cfi_def_cfa_offset 4
 283              		.cfi_offset 7, -4
 284 0002 00AF     		add	r7, sp, #0
 285              		.cfi_def_cfa_register 7
 286              		.loc 1 99 0
 287 0004 024B     		ldr	r3, .L22
 288 0006 1B78     		ldrb	r3, [r3]	@ zero_extendqisi2
 289 0008 1846     		mov	r0, r3
 290 000a BD46     		mov	sp, r7
 291              		.cfi_def_cfa_register 13
 292              		@ sp needed
 293 000c 80BC     		pop	{r7}
 294              		.cfi_restore 7
 295              		.cfi_def_cfa_offset 0
 296 000e 7047     		bx	lr
 297              	.L23:
 298              		.align	2
 299              	.L22:
 300 0010 00000000 		.word	rw
ARM GAS  C:\Users\JENNEW~1\AppData\Local\Temp\ccQ5uJSg.s 			page 8


 301              		.cfi_endproc
 302              	.LFE6:
 303              		.size	QX_Parser_GetDir, .-QX_Parser_GetDir
 304              		.section	.text.QX_Parser_Dir_ForceWriteAbs_Set,"ax",%progbits
 305              		.align	2
 306              		.global	QX_Parser_Dir_ForceWriteAbs_Set
 307              		.thumb
 308              		.thumb_func
 309              		.type	QX_Parser_Dir_ForceWriteAbs_Set, %function
 310              	QX_Parser_Dir_ForceWriteAbs_Set:
 311              	.LFB7:
 100:..\..\..\HamFlyAPI\src/hamfly_qx_protocol.c **** 
 101:..\..\..\HamFlyAPI\src/hamfly_qx_protocol.c **** void QX_Parser_Dir_ForceWriteAbs_Set(void) {
 312              		.loc 1 101 0
 313              		.cfi_startproc
 314              		@ args = 0, pretend = 0, frame = 0
 315              		@ frame_needed = 1, uses_anonymous_args = 0
 316              		@ link register save eliminated.
 317 0000 80B4     		push	{r7}
 318              		.cfi_def_cfa_offset 4
 319              		.cfi_offset 7, -4
 320 0002 00AF     		add	r7, sp, #0
 321              		.cfi_def_cfa_register 7
 102:..\..\..\HamFlyAPI\src/hamfly_qx_protocol.c ****     rw_orig = rw;
 322              		.loc 1 102 0
 323 0004 074B     		ldr	r3, .L27
 324 0006 1A78     		ldrb	r2, [r3]	@ zero_extendqisi2
 325 0008 074B     		ldr	r3, .L27+4
 326 000a 1A70     		strb	r2, [r3]
 103:..\..\..\HamFlyAPI\src/hamfly_qx_protocol.c ****     if (rw == QB_Parser_Dir_WriteDel) rw = QB_Parser_Dir_WriteAbs;
 327              		.loc 1 103 0
 328 000c 054B     		ldr	r3, .L27
 329 000e 1B78     		ldrb	r3, [r3]	@ zero_extendqisi2
 330 0010 012B     		cmp	r3, #1
 331 0012 02D1     		bne	.L26
 332              		.loc 1 103 0 is_stmt 0 discriminator 1
 333 0014 034B     		ldr	r3, .L27
 334 0016 0222     		movs	r2, #2
 335 0018 1A70     		strb	r2, [r3]
 336              	.L26:
 104:..\..\..\HamFlyAPI\src/hamfly_qx_protocol.c **** }
 337              		.loc 1 104 0 is_stmt 1
 338 001a 00BF     		nop
 339 001c BD46     		mov	sp, r7
 340              		.cfi_def_cfa_register 13
 341              		@ sp needed
 342 001e 80BC     		pop	{r7}
 343              		.cfi_restore 7
 344              		.cfi_def_cfa_offset 0
 345 0020 7047     		bx	lr
 346              	.L28:
 347 0022 00BF     		.align	2
 348              	.L27:
 349 0024 00000000 		.word	rw
 350 0028 08000000 		.word	rw_orig
 351              		.cfi_endproc
 352              	.LFE7:
ARM GAS  C:\Users\JENNEW~1\AppData\Local\Temp\ccQ5uJSg.s 			page 9


 353              		.size	QX_Parser_Dir_ForceWriteAbs_Set, .-QX_Parser_Dir_ForceWriteAbs_Set
 354              		.section	.text.QX_Parser_Dir_ForceWriteAbs_Reset,"ax",%progbits
 355              		.align	2
 356              		.global	QX_Parser_Dir_ForceWriteAbs_Reset
 357              		.thumb
 358              		.thumb_func
 359              		.type	QX_Parser_Dir_ForceWriteAbs_Reset, %function
 360              	QX_Parser_Dir_ForceWriteAbs_Reset:
 361              	.LFB8:
 105:..\..\..\HamFlyAPI\src/hamfly_qx_protocol.c **** void QX_Parser_Dir_ForceWriteAbs_Reset(void) { rw = rw_orig; }
 362              		.loc 1 105 0
 363              		.cfi_startproc
 364              		@ args = 0, pretend = 0, frame = 0
 365              		@ frame_needed = 1, uses_anonymous_args = 0
 366              		@ link register save eliminated.
 367 0000 80B4     		push	{r7}
 368              		.cfi_def_cfa_offset 4
 369              		.cfi_offset 7, -4
 370 0002 00AF     		add	r7, sp, #0
 371              		.cfi_def_cfa_register 7
 372              		.loc 1 105 0
 373 0004 034B     		ldr	r3, .L30
 374 0006 1A78     		ldrb	r2, [r3]	@ zero_extendqisi2
 375 0008 034B     		ldr	r3, .L30+4
 376 000a 1A70     		strb	r2, [r3]
 377 000c 00BF     		nop
 378 000e BD46     		mov	sp, r7
 379              		.cfi_def_cfa_register 13
 380              		@ sp needed
 381 0010 80BC     		pop	{r7}
 382              		.cfi_restore 7
 383              		.cfi_def_cfa_offset 0
 384 0012 7047     		bx	lr
 385              	.L31:
 386              		.align	2
 387              	.L30:
 388 0014 08000000 		.word	rw_orig
 389 0018 00000000 		.word	rw
 390              		.cfi_endproc
 391              	.LFE8:
 392              		.size	QX_Parser_Dir_ForceWriteAbs_Reset, .-QX_Parser_Dir_ForceWriteAbs_Reset
 393              		.global	__aeabi_fmul
 394              		.global	__aeabi_fcmpgt
 395              		.global	__aeabi_fcmplt
 396              		.global	__aeabi_i2f
 397              		.global	__aeabi_fadd
 398              		.global	__aeabi_f2iz
 399              		.section	.text.AddFloatAsSignedLong,"ax",%progbits
 400              		.align	2
 401              		.global	AddFloatAsSignedLong
 402              		.thumb
 403              		.thumb_func
 404              		.type	AddFloatAsSignedLong, %function
 405              	AddFloatAsSignedLong:
 406              	.LFB9:
 106:..\..\..\HamFlyAPI\src/hamfly_qx_protocol.c **** 
 107:..\..\..\HamFlyAPI\src/hamfly_qx_protocol.c **** void AddFloatAsSignedLong(float *v, uint32_t n, float scaleto) {
ARM GAS  C:\Users\JENNEW~1\AppData\Local\Temp\ccQ5uJSg.s 			page 10


 407              		.loc 1 107 0
 408              		.cfi_startproc
 409              		@ args = 0, pretend = 0, frame = 24
 410              		@ frame_needed = 1, uses_anonymous_args = 0
 411 0000 F0B5     		push	{r4, r5, r6, r7, lr}
 412              		.cfi_def_cfa_offset 20
 413              		.cfi_offset 4, -20
 414              		.cfi_offset 5, -16
 415              		.cfi_offset 6, -12
 416              		.cfi_offset 7, -8
 417              		.cfi_offset 14, -4
 418 0002 87B0     		sub	sp, sp, #28
 419              		.cfi_def_cfa_offset 48
 420 0004 00AF     		add	r7, sp, #0
 421              		.cfi_def_cfa_register 7
 422 0006 F860     		str	r0, [r7, #12]
 423 0008 B960     		str	r1, [r7, #8]
 424 000a 7A60     		str	r2, [r7, #4]	@ float
 108:..\..\..\HamFlyAPI\src/hamfly_qx_protocol.c ****     while (n--) { int32_t value = (int32_t)(((*v)*scaleto) + 0.5f*((0<*v)-(*v<0))); ADDSL(value); v
 425              		.loc 1 108 0
 426 000c 61E0     		b	.L33
 427              	.L36:
 428              	.LBB2:
 429              		.loc 1 108 0 is_stmt 0 discriminator 2
 430 000e FB68     		ldr	r3, [r7, #12]
 431 0010 1B68     		ldr	r3, [r3]	@ float
 432 0012 7968     		ldr	r1, [r7, #4]	@ float
 433 0014 1846     		mov	r0, r3
 434 0016 FFF7FEFF 		bl	__aeabi_fmul
 435 001a 0346     		mov	r3, r0
 436 001c 1E46     		mov	r6, r3
 437 001e FB68     		ldr	r3, [r7, #12]
 438 0020 1B68     		ldr	r3, [r3]	@ float
 439 0022 0122     		movs	r2, #1
 440 0024 1446     		mov	r4, r2
 441 0026 4FF00001 		mov	r1, #0
 442 002a 1846     		mov	r0, r3
 443 002c FFF7FEFF 		bl	__aeabi_fcmpgt
 444 0030 0346     		mov	r3, r0
 445 0032 002B     		cmp	r3, #0
 446 0034 01D1     		bne	.L34
 447 0036 0023     		movs	r3, #0
 448 0038 1C46     		mov	r4, r3
 449              	.L34:
 450 003a E3B2     		uxtb	r3, r4
 451 003c 1C46     		mov	r4, r3
 452 003e FB68     		ldr	r3, [r7, #12]
 453 0040 1B68     		ldr	r3, [r3]	@ float
 454 0042 0122     		movs	r2, #1
 455 0044 1546     		mov	r5, r2
 456 0046 4FF00001 		mov	r1, #0
 457 004a 1846     		mov	r0, r3
 458 004c FFF7FEFF 		bl	__aeabi_fcmplt
 459 0050 0346     		mov	r3, r0
 460 0052 002B     		cmp	r3, #0
 461 0054 01D1     		bne	.L35
 462 0056 0023     		movs	r3, #0
ARM GAS  C:\Users\JENNEW~1\AppData\Local\Temp\ccQ5uJSg.s 			page 11


 463 0058 1D46     		mov	r5, r3
 464              	.L35:
 465 005a EBB2     		uxtb	r3, r5
 466 005c E31A     		subs	r3, r4, r3
 467 005e 1846     		mov	r0, r3
 468 0060 FFF7FEFF 		bl	__aeabi_i2f
 469 0064 0346     		mov	r3, r0
 470 0066 4FF07C51 		mov	r1, #1056964608
 471 006a 1846     		mov	r0, r3
 472 006c FFF7FEFF 		bl	__aeabi_fmul
 473 0070 0346     		mov	r3, r0
 474 0072 1946     		mov	r1, r3
 475 0074 3046     		mov	r0, r6
 476 0076 FFF7FEFF 		bl	__aeabi_fadd
 477 007a 0346     		mov	r3, r0
 478 007c 1846     		mov	r0, r3
 479 007e FFF7FEFF 		bl	__aeabi_f2iz
 480 0082 0346     		mov	r3, r0
 481 0084 7B61     		str	r3, [r7, #20]
 482 0086 174B     		ldr	r3, .L37
 483 0088 1B68     		ldr	r3, [r3]
 484 008a 5A1C     		adds	r2, r3, #1
 485 008c 1549     		ldr	r1, .L37
 486 008e 0A60     		str	r2, [r1]
 487 0090 7A69     		ldr	r2, [r7, #20]
 488 0092 1216     		asrs	r2, r2, #24
 489 0094 D2B2     		uxtb	r2, r2
 490 0096 1A70     		strb	r2, [r3]
 491 0098 124B     		ldr	r3, .L37
 492 009a 1B68     		ldr	r3, [r3]
 493 009c 5A1C     		adds	r2, r3, #1
 494 009e 1149     		ldr	r1, .L37
 495 00a0 0A60     		str	r2, [r1]
 496 00a2 7A69     		ldr	r2, [r7, #20]
 497 00a4 1214     		asrs	r2, r2, #16
 498 00a6 D2B2     		uxtb	r2, r2
 499 00a8 1A70     		strb	r2, [r3]
 500 00aa 0E4B     		ldr	r3, .L37
 501 00ac 1B68     		ldr	r3, [r3]
 502 00ae 5A1C     		adds	r2, r3, #1
 503 00b0 0C49     		ldr	r1, .L37
 504 00b2 0A60     		str	r2, [r1]
 505 00b4 7A69     		ldr	r2, [r7, #20]
 506 00b6 1212     		asrs	r2, r2, #8
 507 00b8 D2B2     		uxtb	r2, r2
 508 00ba 1A70     		strb	r2, [r3]
 509 00bc 094B     		ldr	r3, .L37
 510 00be 1B68     		ldr	r3, [r3]
 511 00c0 5A1C     		adds	r2, r3, #1
 512 00c2 0849     		ldr	r1, .L37
 513 00c4 0A60     		str	r2, [r1]
 514 00c6 7A69     		ldr	r2, [r7, #20]
 515 00c8 D2B2     		uxtb	r2, r2
 516 00ca 1A70     		strb	r2, [r3]
 517 00cc FB68     		ldr	r3, [r7, #12]
 518 00ce 0433     		adds	r3, r3, #4
 519 00d0 FB60     		str	r3, [r7, #12]
ARM GAS  C:\Users\JENNEW~1\AppData\Local\Temp\ccQ5uJSg.s 			page 12


 520              	.L33:
 521              	.LBE2:
 522              		.loc 1 108 0 discriminator 1
 523 00d2 BB68     		ldr	r3, [r7, #8]
 524 00d4 5A1E     		subs	r2, r3, #1
 525 00d6 BA60     		str	r2, [r7, #8]
 526 00d8 002B     		cmp	r3, #0
 527 00da 98D1     		bne	.L36
 109:..\..\..\HamFlyAPI\src/hamfly_qx_protocol.c **** }
 528              		.loc 1 109 0 is_stmt 1
 529 00dc 00BF     		nop
 530 00de 1C37     		adds	r7, r7, #28
 531              		.cfi_def_cfa_offset 20
 532 00e0 BD46     		mov	sp, r7
 533              		.cfi_def_cfa_register 13
 534              		@ sp needed
 535 00e2 F0BD     		pop	{r4, r5, r6, r7, pc}
 536              	.L38:
 537              		.align	2
 538              	.L37:
 539 00e4 00000000 		.word	msgPtr
 540              		.cfi_endproc
 541              	.LFE9:
 542              		.size	AddFloatAsSignedLong, .-AddFloatAsSignedLong
 543              		.section	.text.AddFloatAsSignedShort,"ax",%progbits
 544              		.align	2
 545              		.global	AddFloatAsSignedShort
 546              		.thumb
 547              		.thumb_func
 548              		.type	AddFloatAsSignedShort, %function
 549              	AddFloatAsSignedShort:
 550              	.LFB10:
 110:..\..\..\HamFlyAPI\src/hamfly_qx_protocol.c **** void AddFloatAsSignedShort(float *v, uint32_t n, float scaleto) {
 551              		.loc 1 110 0
 552              		.cfi_startproc
 553              		@ args = 0, pretend = 0, frame = 24
 554              		@ frame_needed = 1, uses_anonymous_args = 0
 555 0000 F0B5     		push	{r4, r5, r6, r7, lr}
 556              		.cfi_def_cfa_offset 20
 557              		.cfi_offset 4, -20
 558              		.cfi_offset 5, -16
 559              		.cfi_offset 6, -12
 560              		.cfi_offset 7, -8
 561              		.cfi_offset 14, -4
 562 0002 87B0     		sub	sp, sp, #28
 563              		.cfi_def_cfa_offset 48
 564 0004 00AF     		add	r7, sp, #0
 565              		.cfi_def_cfa_register 7
 566 0006 F860     		str	r0, [r7, #12]
 567 0008 B960     		str	r1, [r7, #8]
 568 000a 7A60     		str	r2, [r7, #4]	@ float
 111:..\..\..\HamFlyAPI\src/hamfly_qx_protocol.c ****     while (n--) { int16_t value = (int16_t)(((*v)*scaleto) + 0.5f*((0<*v)-(*v<0))); ADDSS(value); v
 569              		.loc 1 111 0
 570 000c 51E0     		b	.L40
 571              	.L43:
 572              	.LBB3:
 573              		.loc 1 111 0 is_stmt 0 discriminator 2
ARM GAS  C:\Users\JENNEW~1\AppData\Local\Temp\ccQ5uJSg.s 			page 13


 574 000e FB68     		ldr	r3, [r7, #12]
 575 0010 1B68     		ldr	r3, [r3]	@ float
 576 0012 7968     		ldr	r1, [r7, #4]	@ float
 577 0014 1846     		mov	r0, r3
 578 0016 FFF7FEFF 		bl	__aeabi_fmul
 579 001a 0346     		mov	r3, r0
 580 001c 1E46     		mov	r6, r3
 581 001e FB68     		ldr	r3, [r7, #12]
 582 0020 1B68     		ldr	r3, [r3]	@ float
 583 0022 0122     		movs	r2, #1
 584 0024 1446     		mov	r4, r2
 585 0026 4FF00001 		mov	r1, #0
 586 002a 1846     		mov	r0, r3
 587 002c FFF7FEFF 		bl	__aeabi_fcmpgt
 588 0030 0346     		mov	r3, r0
 589 0032 002B     		cmp	r3, #0
 590 0034 01D1     		bne	.L41
 591 0036 0023     		movs	r3, #0
 592 0038 1C46     		mov	r4, r3
 593              	.L41:
 594 003a E3B2     		uxtb	r3, r4
 595 003c 1C46     		mov	r4, r3
 596 003e FB68     		ldr	r3, [r7, #12]
 597 0040 1B68     		ldr	r3, [r3]	@ float
 598 0042 0122     		movs	r2, #1
 599 0044 1546     		mov	r5, r2
 600 0046 4FF00001 		mov	r1, #0
 601 004a 1846     		mov	r0, r3
 602 004c FFF7FEFF 		bl	__aeabi_fcmplt
 603 0050 0346     		mov	r3, r0
 604 0052 002B     		cmp	r3, #0
 605 0054 01D1     		bne	.L42
 606 0056 0023     		movs	r3, #0
 607 0058 1D46     		mov	r5, r3
 608              	.L42:
 609 005a EBB2     		uxtb	r3, r5
 610 005c E31A     		subs	r3, r4, r3
 611 005e 1846     		mov	r0, r3
 612 0060 FFF7FEFF 		bl	__aeabi_i2f
 613 0064 0346     		mov	r3, r0
 614 0066 4FF07C51 		mov	r1, #1056964608
 615 006a 1846     		mov	r0, r3
 616 006c FFF7FEFF 		bl	__aeabi_fmul
 617 0070 0346     		mov	r3, r0
 618 0072 1946     		mov	r1, r3
 619 0074 3046     		mov	r0, r6
 620 0076 FFF7FEFF 		bl	__aeabi_fadd
 621 007a 0346     		mov	r3, r0
 622 007c 1846     		mov	r0, r3
 623 007e FFF7FEFF 		bl	__aeabi_f2iz
 624 0082 0346     		mov	r3, r0
 625 0084 FB82     		strh	r3, [r7, #22]	@ movhi
 626 0086 0F4B     		ldr	r3, .L44
 627 0088 1B68     		ldr	r3, [r3]
 628 008a 5A1C     		adds	r2, r3, #1
 629 008c 0D49     		ldr	r1, .L44
 630 008e 0A60     		str	r2, [r1]
ARM GAS  C:\Users\JENNEW~1\AppData\Local\Temp\ccQ5uJSg.s 			page 14


 631 0090 B7F91620 		ldrsh	r2, [r7, #22]
 632 0094 1212     		asrs	r2, r2, #8
 633 0096 12B2     		sxth	r2, r2
 634 0098 D2B2     		uxtb	r2, r2
 635 009a 1A70     		strb	r2, [r3]
 636 009c 094B     		ldr	r3, .L44
 637 009e 1B68     		ldr	r3, [r3]
 638 00a0 5A1C     		adds	r2, r3, #1
 639 00a2 0849     		ldr	r1, .L44
 640 00a4 0A60     		str	r2, [r1]
 641 00a6 FA8A     		ldrh	r2, [r7, #22]	@ movhi
 642 00a8 D2B2     		uxtb	r2, r2
 643 00aa 1A70     		strb	r2, [r3]
 644 00ac FB68     		ldr	r3, [r7, #12]
 645 00ae 0433     		adds	r3, r3, #4
 646 00b0 FB60     		str	r3, [r7, #12]
 647              	.L40:
 648              	.LBE3:
 649              		.loc 1 111 0 discriminator 1
 650 00b2 BB68     		ldr	r3, [r7, #8]
 651 00b4 5A1E     		subs	r2, r3, #1
 652 00b6 BA60     		str	r2, [r7, #8]
 653 00b8 002B     		cmp	r3, #0
 654 00ba A8D1     		bne	.L43
 112:..\..\..\HamFlyAPI\src/hamfly_qx_protocol.c **** }
 655              		.loc 1 112 0 is_stmt 1
 656 00bc 00BF     		nop
 657 00be 1C37     		adds	r7, r7, #28
 658              		.cfi_def_cfa_offset 20
 659 00c0 BD46     		mov	sp, r7
 660              		.cfi_def_cfa_register 13
 661              		@ sp needed
 662 00c2 F0BD     		pop	{r4, r5, r6, r7, pc}
 663              	.L45:
 664              		.align	2
 665              	.L44:
 666 00c4 00000000 		.word	msgPtr
 667              		.cfi_endproc
 668              	.LFE10:
 669              		.size	AddFloatAsSignedShort, .-AddFloatAsSignedShort
 670              		.section	.text.AddFloatAsSignedChar,"ax",%progbits
 671              		.align	2
 672              		.global	AddFloatAsSignedChar
 673              		.thumb
 674              		.thumb_func
 675              		.type	AddFloatAsSignedChar, %function
 676              	AddFloatAsSignedChar:
 677              	.LFB11:
 113:..\..\..\HamFlyAPI\src/hamfly_qx_protocol.c **** void AddFloatAsSignedChar(float *v, uint32_t n, float scaleto) {
 678              		.loc 1 113 0
 679              		.cfi_startproc
 680              		@ args = 0, pretend = 0, frame = 24
 681              		@ frame_needed = 1, uses_anonymous_args = 0
 682 0000 F0B5     		push	{r4, r5, r6, r7, lr}
 683              		.cfi_def_cfa_offset 20
 684              		.cfi_offset 4, -20
 685              		.cfi_offset 5, -16
ARM GAS  C:\Users\JENNEW~1\AppData\Local\Temp\ccQ5uJSg.s 			page 15


 686              		.cfi_offset 6, -12
 687              		.cfi_offset 7, -8
 688              		.cfi_offset 14, -4
 689 0002 87B0     		sub	sp, sp, #28
 690              		.cfi_def_cfa_offset 48
 691 0004 00AF     		add	r7, sp, #0
 692              		.cfi_def_cfa_register 7
 693 0006 F860     		str	r0, [r7, #12]
 694 0008 B960     		str	r1, [r7, #8]
 695 000a 7A60     		str	r2, [r7, #4]	@ float
 114:..\..\..\HamFlyAPI\src/hamfly_qx_protocol.c ****     while (n--) { int8_t value = (int8_t)(((*v)*scaleto) + 0.5f*((0<*v)-(*v<0))); ADDCHAR(value); v
 696              		.loc 1 114 0
 697 000c 45E0     		b	.L47
 698              	.L50:
 699              	.LBB4:
 700              		.loc 1 114 0 is_stmt 0 discriminator 2
 701 000e FB68     		ldr	r3, [r7, #12]
 702 0010 1B68     		ldr	r3, [r3]	@ float
 703 0012 7968     		ldr	r1, [r7, #4]	@ float
 704 0014 1846     		mov	r0, r3
 705 0016 FFF7FEFF 		bl	__aeabi_fmul
 706 001a 0346     		mov	r3, r0
 707 001c 1E46     		mov	r6, r3
 708 001e FB68     		ldr	r3, [r7, #12]
 709 0020 1B68     		ldr	r3, [r3]	@ float
 710 0022 0122     		movs	r2, #1
 711 0024 1446     		mov	r4, r2
 712 0026 4FF00001 		mov	r1, #0
 713 002a 1846     		mov	r0, r3
 714 002c FFF7FEFF 		bl	__aeabi_fcmpgt
 715 0030 0346     		mov	r3, r0
 716 0032 002B     		cmp	r3, #0
 717 0034 01D1     		bne	.L48
 718 0036 0023     		movs	r3, #0
 719 0038 1C46     		mov	r4, r3
 720              	.L48:
 721 003a E3B2     		uxtb	r3, r4
 722 003c 1C46     		mov	r4, r3
 723 003e FB68     		ldr	r3, [r7, #12]
 724 0040 1B68     		ldr	r3, [r3]	@ float
 725 0042 0122     		movs	r2, #1
 726 0044 1546     		mov	r5, r2
 727 0046 4FF00001 		mov	r1, #0
 728 004a 1846     		mov	r0, r3
 729 004c FFF7FEFF 		bl	__aeabi_fcmplt
 730 0050 0346     		mov	r3, r0
 731 0052 002B     		cmp	r3, #0
 732 0054 01D1     		bne	.L49
 733 0056 0023     		movs	r3, #0
 734 0058 1D46     		mov	r5, r3
 735              	.L49:
 736 005a EBB2     		uxtb	r3, r5
 737 005c E31A     		subs	r3, r4, r3
 738 005e 1846     		mov	r0, r3
 739 0060 FFF7FEFF 		bl	__aeabi_i2f
 740 0064 0346     		mov	r3, r0
 741 0066 4FF07C51 		mov	r1, #1056964608
ARM GAS  C:\Users\JENNEW~1\AppData\Local\Temp\ccQ5uJSg.s 			page 16


 742 006a 1846     		mov	r0, r3
 743 006c FFF7FEFF 		bl	__aeabi_fmul
 744 0070 0346     		mov	r3, r0
 745 0072 1946     		mov	r1, r3
 746 0074 3046     		mov	r0, r6
 747 0076 FFF7FEFF 		bl	__aeabi_fadd
 748 007a 0346     		mov	r3, r0
 749 007c 1846     		mov	r0, r3
 750 007e FFF7FEFF 		bl	__aeabi_f2iz
 751 0082 0346     		mov	r3, r0
 752 0084 FB75     		strb	r3, [r7, #23]
 753 0086 094B     		ldr	r3, .L51
 754 0088 1B68     		ldr	r3, [r3]
 755 008a 5A1C     		adds	r2, r3, #1
 756 008c 0749     		ldr	r1, .L51
 757 008e 0A60     		str	r2, [r1]
 758 0090 FA7D     		ldrb	r2, [r7, #23]	@ zero_extendqisi2
 759 0092 1A70     		strb	r2, [r3]
 760 0094 FB68     		ldr	r3, [r7, #12]
 761 0096 0433     		adds	r3, r3, #4
 762 0098 FB60     		str	r3, [r7, #12]
 763              	.L47:
 764              	.LBE4:
 765              		.loc 1 114 0 discriminator 1
 766 009a BB68     		ldr	r3, [r7, #8]
 767 009c 5A1E     		subs	r2, r3, #1
 768 009e BA60     		str	r2, [r7, #8]
 769 00a0 002B     		cmp	r3, #0
 770 00a2 B4D1     		bne	.L50
 115:..\..\..\HamFlyAPI\src/hamfly_qx_protocol.c **** }
 771              		.loc 1 115 0 is_stmt 1
 772 00a4 00BF     		nop
 773 00a6 1C37     		adds	r7, r7, #28
 774              		.cfi_def_cfa_offset 20
 775 00a8 BD46     		mov	sp, r7
 776              		.cfi_def_cfa_register 13
 777              		@ sp needed
 778 00aa F0BD     		pop	{r4, r5, r6, r7, pc}
 779              	.L52:
 780              		.align	2
 781              	.L51:
 782 00ac 00000000 		.word	msgPtr
 783              		.cfi_endproc
 784              	.LFE11:
 785              		.size	AddFloatAsSignedChar, .-AddFloatAsSignedChar
 786              		.global	__aeabi_f2uiz
 787              		.section	.text.AddFloatAsUnsignedChar,"ax",%progbits
 788              		.align	2
 789              		.global	AddFloatAsUnsignedChar
 790              		.thumb
 791              		.thumb_func
 792              		.type	AddFloatAsUnsignedChar, %function
 793              	AddFloatAsUnsignedChar:
 794              	.LFB12:
 116:..\..\..\HamFlyAPI\src/hamfly_qx_protocol.c **** void AddFloatAsUnsignedChar(float *v, uint32_t n, float scaleto) {
 795              		.loc 1 116 0
 796              		.cfi_startproc
ARM GAS  C:\Users\JENNEW~1\AppData\Local\Temp\ccQ5uJSg.s 			page 17


 797              		@ args = 0, pretend = 0, frame = 24
 798              		@ frame_needed = 1, uses_anonymous_args = 0
 799 0000 F0B5     		push	{r4, r5, r6, r7, lr}
 800              		.cfi_def_cfa_offset 20
 801              		.cfi_offset 4, -20
 802              		.cfi_offset 5, -16
 803              		.cfi_offset 6, -12
 804              		.cfi_offset 7, -8
 805              		.cfi_offset 14, -4
 806 0002 87B0     		sub	sp, sp, #28
 807              		.cfi_def_cfa_offset 48
 808 0004 00AF     		add	r7, sp, #0
 809              		.cfi_def_cfa_register 7
 810 0006 F860     		str	r0, [r7, #12]
 811 0008 B960     		str	r1, [r7, #8]
 812 000a 7A60     		str	r2, [r7, #4]	@ float
 117:..\..\..\HamFlyAPI\src/hamfly_qx_protocol.c ****     while (n--) { uint8_t value = (uint8_t)(((*v)*scaleto) + 0.5f*((0<*v)-(*v<0))); ADDCHAR(value);
 813              		.loc 1 117 0
 814 000c 45E0     		b	.L54
 815              	.L57:
 816              	.LBB5:
 817              		.loc 1 117 0 is_stmt 0 discriminator 2
 818 000e FB68     		ldr	r3, [r7, #12]
 819 0010 1B68     		ldr	r3, [r3]	@ float
 820 0012 7968     		ldr	r1, [r7, #4]	@ float
 821 0014 1846     		mov	r0, r3
 822 0016 FFF7FEFF 		bl	__aeabi_fmul
 823 001a 0346     		mov	r3, r0
 824 001c 1E46     		mov	r6, r3
 825 001e FB68     		ldr	r3, [r7, #12]
 826 0020 1B68     		ldr	r3, [r3]	@ float
 827 0022 0122     		movs	r2, #1
 828 0024 1446     		mov	r4, r2
 829 0026 4FF00001 		mov	r1, #0
 830 002a 1846     		mov	r0, r3
 831 002c FFF7FEFF 		bl	__aeabi_fcmpgt
 832 0030 0346     		mov	r3, r0
 833 0032 002B     		cmp	r3, #0
 834 0034 01D1     		bne	.L55
 835 0036 0023     		movs	r3, #0
 836 0038 1C46     		mov	r4, r3
 837              	.L55:
 838 003a E3B2     		uxtb	r3, r4
 839 003c 1C46     		mov	r4, r3
 840 003e FB68     		ldr	r3, [r7, #12]
 841 0040 1B68     		ldr	r3, [r3]	@ float
 842 0042 0122     		movs	r2, #1
 843 0044 1546     		mov	r5, r2
 844 0046 4FF00001 		mov	r1, #0
 845 004a 1846     		mov	r0, r3
 846 004c FFF7FEFF 		bl	__aeabi_fcmplt
 847 0050 0346     		mov	r3, r0
 848 0052 002B     		cmp	r3, #0
 849 0054 01D1     		bne	.L56
 850 0056 0023     		movs	r3, #0
 851 0058 1D46     		mov	r5, r3
 852              	.L56:
ARM GAS  C:\Users\JENNEW~1\AppData\Local\Temp\ccQ5uJSg.s 			page 18


 853 005a EBB2     		uxtb	r3, r5
 854 005c E31A     		subs	r3, r4, r3
 855 005e 1846     		mov	r0, r3
 856 0060 FFF7FEFF 		bl	__aeabi_i2f
 857 0064 0346     		mov	r3, r0
 858 0066 4FF07C51 		mov	r1, #1056964608
 859 006a 1846     		mov	r0, r3
 860 006c FFF7FEFF 		bl	__aeabi_fmul
 861 0070 0346     		mov	r3, r0
 862 0072 1946     		mov	r1, r3
 863 0074 3046     		mov	r0, r6
 864 0076 FFF7FEFF 		bl	__aeabi_fadd
 865 007a 0346     		mov	r3, r0
 866 007c 1846     		mov	r0, r3
 867 007e FFF7FEFF 		bl	__aeabi_f2uiz
 868 0082 0346     		mov	r3, r0
 869 0084 FB75     		strb	r3, [r7, #23]
 870 0086 094B     		ldr	r3, .L58
 871 0088 1B68     		ldr	r3, [r3]
 872 008a 5A1C     		adds	r2, r3, #1
 873 008c 0749     		ldr	r1, .L58
 874 008e 0A60     		str	r2, [r1]
 875 0090 FA7D     		ldrb	r2, [r7, #23]
 876 0092 1A70     		strb	r2, [r3]
 877 0094 FB68     		ldr	r3, [r7, #12]
 878 0096 0433     		adds	r3, r3, #4
 879 0098 FB60     		str	r3, [r7, #12]
 880              	.L54:
 881              	.LBE5:
 882              		.loc 1 117 0 discriminator 1
 883 009a BB68     		ldr	r3, [r7, #8]
 884 009c 5A1E     		subs	r2, r3, #1
 885 009e BA60     		str	r2, [r7, #8]
 886 00a0 002B     		cmp	r3, #0
 887 00a2 B4D1     		bne	.L57
 118:..\..\..\HamFlyAPI\src/hamfly_qx_protocol.c **** }
 888              		.loc 1 118 0 is_stmt 1
 889 00a4 00BF     		nop
 890 00a6 1C37     		adds	r7, r7, #28
 891              		.cfi_def_cfa_offset 20
 892 00a8 BD46     		mov	sp, r7
 893              		.cfi_def_cfa_register 13
 894              		@ sp needed
 895 00aa F0BD     		pop	{r4, r5, r6, r7, pc}
 896              	.L59:
 897              		.align	2
 898              	.L58:
 899 00ac 00000000 		.word	msgPtr
 900              		.cfi_endproc
 901              	.LFE12:
 902              		.size	AddFloatAsUnsignedChar, .-AddFloatAsUnsignedChar
 903              		.section	.text.AddFloatAsUnsignedShort,"ax",%progbits
 904              		.align	2
 905              		.global	AddFloatAsUnsignedShort
 906              		.thumb
 907              		.thumb_func
 908              		.type	AddFloatAsUnsignedShort, %function
ARM GAS  C:\Users\JENNEW~1\AppData\Local\Temp\ccQ5uJSg.s 			page 19


 909              	AddFloatAsUnsignedShort:
 910              	.LFB13:
 119:..\..\..\HamFlyAPI\src/hamfly_qx_protocol.c **** void AddFloatAsUnsignedShort(float *v, uint32_t n, float scaleto) {
 911              		.loc 1 119 0
 912              		.cfi_startproc
 913              		@ args = 0, pretend = 0, frame = 24
 914              		@ frame_needed = 1, uses_anonymous_args = 0
 915 0000 F0B5     		push	{r4, r5, r6, r7, lr}
 916              		.cfi_def_cfa_offset 20
 917              		.cfi_offset 4, -20
 918              		.cfi_offset 5, -16
 919              		.cfi_offset 6, -12
 920              		.cfi_offset 7, -8
 921              		.cfi_offset 14, -4
 922 0002 87B0     		sub	sp, sp, #28
 923              		.cfi_def_cfa_offset 48
 924 0004 00AF     		add	r7, sp, #0
 925              		.cfi_def_cfa_register 7
 926 0006 F860     		str	r0, [r7, #12]
 927 0008 B960     		str	r1, [r7, #8]
 928 000a 7A60     		str	r2, [r7, #4]	@ float
 120:..\..\..\HamFlyAPI\src/hamfly_qx_protocol.c ****     while (n--) { uint16_t value = (uint16_t)(((*v)*scaleto) + 0.5f*((0<*v)-(*v<0))); ADDUS(value);
 929              		.loc 1 120 0
 930 000c 50E0     		b	.L61
 931              	.L64:
 932              	.LBB6:
 933              		.loc 1 120 0 is_stmt 0 discriminator 2
 934 000e FB68     		ldr	r3, [r7, #12]
 935 0010 1B68     		ldr	r3, [r3]	@ float
 936 0012 7968     		ldr	r1, [r7, #4]	@ float
 937 0014 1846     		mov	r0, r3
 938 0016 FFF7FEFF 		bl	__aeabi_fmul
 939 001a 0346     		mov	r3, r0
 940 001c 1E46     		mov	r6, r3
 941 001e FB68     		ldr	r3, [r7, #12]
 942 0020 1B68     		ldr	r3, [r3]	@ float
 943 0022 0122     		movs	r2, #1
 944 0024 1446     		mov	r4, r2
 945 0026 4FF00001 		mov	r1, #0
 946 002a 1846     		mov	r0, r3
 947 002c FFF7FEFF 		bl	__aeabi_fcmpgt
 948 0030 0346     		mov	r3, r0
 949 0032 002B     		cmp	r3, #0
 950 0034 01D1     		bne	.L62
 951 0036 0023     		movs	r3, #0
 952 0038 1C46     		mov	r4, r3
 953              	.L62:
 954 003a E3B2     		uxtb	r3, r4
 955 003c 1C46     		mov	r4, r3
 956 003e FB68     		ldr	r3, [r7, #12]
 957 0040 1B68     		ldr	r3, [r3]	@ float
 958 0042 0122     		movs	r2, #1
 959 0044 1546     		mov	r5, r2
 960 0046 4FF00001 		mov	r1, #0
 961 004a 1846     		mov	r0, r3
 962 004c FFF7FEFF 		bl	__aeabi_fcmplt
 963 0050 0346     		mov	r3, r0
ARM GAS  C:\Users\JENNEW~1\AppData\Local\Temp\ccQ5uJSg.s 			page 20


 964 0052 002B     		cmp	r3, #0
 965 0054 01D1     		bne	.L63
 966 0056 0023     		movs	r3, #0
 967 0058 1D46     		mov	r5, r3
 968              	.L63:
 969 005a EBB2     		uxtb	r3, r5
 970 005c E31A     		subs	r3, r4, r3
 971 005e 1846     		mov	r0, r3
 972 0060 FFF7FEFF 		bl	__aeabi_i2f
 973 0064 0346     		mov	r3, r0
 974 0066 4FF07C51 		mov	r1, #1056964608
 975 006a 1846     		mov	r0, r3
 976 006c FFF7FEFF 		bl	__aeabi_fmul
 977 0070 0346     		mov	r3, r0
 978 0072 1946     		mov	r1, r3
 979 0074 3046     		mov	r0, r6
 980 0076 FFF7FEFF 		bl	__aeabi_fadd
 981 007a 0346     		mov	r3, r0
 982 007c 1846     		mov	r0, r3
 983 007e FFF7FEFF 		bl	__aeabi_f2uiz
 984 0082 0346     		mov	r3, r0
 985 0084 FB82     		strh	r3, [r7, #22]	@ movhi
 986 0086 0F4B     		ldr	r3, .L65
 987 0088 1B68     		ldr	r3, [r3]
 988 008a 5A1C     		adds	r2, r3, #1
 989 008c 0D49     		ldr	r1, .L65
 990 008e 0A60     		str	r2, [r1]
 991 0090 FA8A     		ldrh	r2, [r7, #22]
 992 0092 120A     		lsrs	r2, r2, #8
 993 0094 92B2     		uxth	r2, r2
 994 0096 D2B2     		uxtb	r2, r2
 995 0098 1A70     		strb	r2, [r3]
 996 009a 0A4B     		ldr	r3, .L65
 997 009c 1B68     		ldr	r3, [r3]
 998 009e 5A1C     		adds	r2, r3, #1
 999 00a0 0849     		ldr	r1, .L65
 1000 00a2 0A60     		str	r2, [r1]
 1001 00a4 FA8A     		ldrh	r2, [r7, #22]	@ movhi
 1002 00a6 D2B2     		uxtb	r2, r2
 1003 00a8 1A70     		strb	r2, [r3]
 1004 00aa FB68     		ldr	r3, [r7, #12]
 1005 00ac 0433     		adds	r3, r3, #4
 1006 00ae FB60     		str	r3, [r7, #12]
 1007              	.L61:
 1008              	.LBE6:
 1009              		.loc 1 120 0 discriminator 1
 1010 00b0 BB68     		ldr	r3, [r7, #8]
 1011 00b2 5A1E     		subs	r2, r3, #1
 1012 00b4 BA60     		str	r2, [r7, #8]
 1013 00b6 002B     		cmp	r3, #0
 1014 00b8 A9D1     		bne	.L64
 121:..\..\..\HamFlyAPI\src/hamfly_qx_protocol.c **** }
 1015              		.loc 1 121 0 is_stmt 1
 1016 00ba 00BF     		nop
 1017 00bc 1C37     		adds	r7, r7, #28
 1018              		.cfi_def_cfa_offset 20
 1019 00be BD46     		mov	sp, r7
ARM GAS  C:\Users\JENNEW~1\AppData\Local\Temp\ccQ5uJSg.s 			page 21


 1020              		.cfi_def_cfa_register 13
 1021              		@ sp needed
 1022 00c0 F0BD     		pop	{r4, r5, r6, r7, pc}
 1023              	.L66:
 1024 00c2 00BF     		.align	2
 1025              	.L65:
 1026 00c4 00000000 		.word	msgPtr
 1027              		.cfi_endproc
 1028              	.LFE13:
 1029              		.size	AddFloatAsUnsignedShort, .-AddFloatAsUnsignedShort
 1030              		.global	__aeabi_fcmpun
 1031              		.section	.text.GetFloatAsSignedLong,"ax",%progbits
 1032              		.align	2
 1033              		.global	GetFloatAsSignedLong
 1034              		.thumb
 1035              		.thumb_func
 1036              		.type	GetFloatAsSignedLong, %function
 1037              	GetFloatAsSignedLong:
 1038              	.LFB14:
 122:..\..\..\HamFlyAPI\src/hamfly_qx_protocol.c **** 
 123:..\..\..\HamFlyAPI\src/hamfly_qx_protocol.c **** void GetFloatAsSignedLong(float *v, uint32_t n, float max, float min, float scalefrom) {
 1039              		.loc 1 123 0
 1040              		.cfi_startproc
 1041              		@ args = 4, pretend = 0, frame = 24
 1042              		@ frame_needed = 1, uses_anonymous_args = 0
 1043 0000 80B5     		push	{r7, lr}
 1044              		.cfi_def_cfa_offset 8
 1045              		.cfi_offset 7, -8
 1046              		.cfi_offset 14, -4
 1047 0002 86B0     		sub	sp, sp, #24
 1048              		.cfi_def_cfa_offset 32
 1049 0004 00AF     		add	r7, sp, #0
 1050              		.cfi_def_cfa_register 7
 1051 0006 F860     		str	r0, [r7, #12]
 1052 0008 B960     		str	r1, [r7, #8]
 1053 000a 7A60     		str	r2, [r7, #4]	@ float
 1054 000c 3B60     		str	r3, [r7]	@ float
 124:..\..\..\HamFlyAPI\src/hamfly_qx_protocol.c ****     if (rw == QB_Parser_Dir_WriteDel) {
 1055              		.loc 1 124 0
 1056 000e 624B     		ldr	r3, .L93
 1057 0010 1B78     		ldrb	r3, [r3]	@ zero_extendqisi2
 1058 0012 012B     		cmp	r3, #1
 1059 0014 40F0B680 		bne	.L78
 125:..\..\..\HamFlyAPI\src/hamfly_qx_protocol.c ****         while (n--) { float r = (float)GETSL; r *= scalefrom; *v += r;
 1060              		.loc 1 125 0
 1061 0018 5AE0     		b	.L69
 1062              	.L76:
 1063              	.LBB7:
 1064              		.loc 1 125 0 is_stmt 0 discriminator 1
 1065 001a 604B     		ldr	r3, .L93+4
 1066 001c 1B68     		ldr	r3, [r3]
 1067 001e 1B78     		ldrb	r3, [r3]
 1068 0020 DBB2     		uxtb	r3, r3
 1069 0022 1A06     		lsls	r2, r3, #24
 1070 0024 5D4B     		ldr	r3, .L93+4
 1071 0026 1B68     		ldr	r3, [r3]
 1072 0028 0133     		adds	r3, r3, #1
ARM GAS  C:\Users\JENNEW~1\AppData\Local\Temp\ccQ5uJSg.s 			page 22


 1073 002a 1B78     		ldrb	r3, [r3]
 1074 002c DBB2     		uxtb	r3, r3
 1075 002e 1B04     		lsls	r3, r3, #16
 1076 0030 1A43     		orrs	r2, r2, r3
 1077 0032 5A4B     		ldr	r3, .L93+4
 1078 0034 1B68     		ldr	r3, [r3]
 1079 0036 0233     		adds	r3, r3, #2
 1080 0038 1B78     		ldrb	r3, [r3]
 1081 003a DBB2     		uxtb	r3, r3
 1082 003c 1B02     		lsls	r3, r3, #8
 1083 003e 1343     		orrs	r3, r3, r2
 1084 0040 564A     		ldr	r2, .L93+4
 1085 0042 1268     		ldr	r2, [r2]
 1086 0044 0332     		adds	r2, r2, #3
 1087 0046 1278     		ldrb	r2, [r2]
 1088 0048 D2B2     		uxtb	r2, r2
 1089 004a 1343     		orrs	r3, r3, r2
 1090 004c 1846     		mov	r0, r3
 1091 004e FFF7FEFF 		bl	__aeabi_i2f
 1092 0052 0346     		mov	r3, r0
 1093 0054 7B61     		str	r3, [r7, #20]	@ float
 1094 0056 514B     		ldr	r3, .L93+4
 1095 0058 1B68     		ldr	r3, [r3]
 1096 005a 0433     		adds	r3, r3, #4
 1097 005c 4F4A     		ldr	r2, .L93+4
 1098 005e 1360     		str	r3, [r2]
 1099 0060 396A     		ldr	r1, [r7, #32]	@ float
 1100 0062 7869     		ldr	r0, [r7, #20]	@ float
 1101 0064 FFF7FEFF 		bl	__aeabi_fmul
 1102 0068 0346     		mov	r3, r0
 1103 006a 7B61     		str	r3, [r7, #20]	@ float
 1104 006c FB68     		ldr	r3, [r7, #12]
 1105 006e 1B68     		ldr	r3, [r3]	@ float
 1106 0070 7969     		ldr	r1, [r7, #20]	@ float
 1107 0072 1846     		mov	r0, r3
 1108 0074 FFF7FEFF 		bl	__aeabi_fadd
 1109 0078 0346     		mov	r3, r0
 1110 007a 1A46     		mov	r2, r3
 1111 007c FB68     		ldr	r3, [r7, #12]
 1112 007e 1A60     		str	r2, [r3]	@ float
 126:..\..\..\HamFlyAPI\src/hamfly_qx_protocol.c ****             if (max<*v)*v=max; if (*v<min)*v=min; if (isnan(*v))*v=0.0f; v++; }
 1113              		.loc 1 126 0 is_stmt 1 discriminator 1
 1114 0080 FB68     		ldr	r3, [r7, #12]
 1115 0082 1B68     		ldr	r3, [r3]	@ float
 1116 0084 7968     		ldr	r1, [r7, #4]	@ float
 1117 0086 1846     		mov	r0, r3
 1118 0088 FFF7FEFF 		bl	__aeabi_fcmpgt
 1119 008c 0346     		mov	r3, r0
 1120 008e 002B     		cmp	r3, #0
 1121 0090 02D0     		beq	.L70
 1122 0092 FB68     		ldr	r3, [r7, #12]
 1123 0094 7A68     		ldr	r2, [r7, #4]	@ float
 1124 0096 1A60     		str	r2, [r3]	@ float
 1125              	.L70:
 1126              		.loc 1 126 0 is_stmt 0 discriminator 3
 1127 0098 FB68     		ldr	r3, [r7, #12]
 1128 009a 1B68     		ldr	r3, [r3]	@ float
ARM GAS  C:\Users\JENNEW~1\AppData\Local\Temp\ccQ5uJSg.s 			page 23


 1129 009c 3968     		ldr	r1, [r7]	@ float
 1130 009e 1846     		mov	r0, r3
 1131 00a0 FFF7FEFF 		bl	__aeabi_fcmplt
 1132 00a4 0346     		mov	r3, r0
 1133 00a6 002B     		cmp	r3, #0
 1134 00a8 02D0     		beq	.L72
 1135              		.loc 1 126 0 discriminator 4
 1136 00aa FB68     		ldr	r3, [r7, #12]
 1137 00ac 3A68     		ldr	r2, [r7]	@ float
 1138 00ae 1A60     		str	r2, [r3]	@ float
 1139              	.L72:
 1140              		.loc 1 126 0 discriminator 6
 1141 00b0 FB68     		ldr	r3, [r7, #12]
 1142 00b2 1B68     		ldr	r3, [r3]	@ float
 1143 00b4 1946     		mov	r1, r3
 1144 00b6 1846     		mov	r0, r3
 1145 00b8 FFF7FEFF 		bl	__aeabi_fcmpun
 1146 00bc 0346     		mov	r3, r0
 1147 00be 002B     		cmp	r3, #0
 1148 00c0 03D0     		beq	.L74
 1149              		.loc 1 126 0 discriminator 7
 1150 00c2 FB68     		ldr	r3, [r7, #12]
 1151 00c4 4FF00002 		mov	r2, #0
 1152 00c8 1A60     		str	r2, [r3]	@ float
 1153              	.L74:
 1154              		.loc 1 126 0 discriminator 9
 1155 00ca FB68     		ldr	r3, [r7, #12]
 1156 00cc 0433     		adds	r3, r3, #4
 1157 00ce FB60     		str	r3, [r7, #12]
 1158              	.L69:
 1159              	.LBE7:
 125:..\..\..\HamFlyAPI\src/hamfly_qx_protocol.c ****         while (n--) { float r = (float)GETSL; r *= scalefrom; *v += r;
 1160              		.loc 1 125 0 is_stmt 1
 1161 00d0 BB68     		ldr	r3, [r7, #8]
 1162 00d2 5A1E     		subs	r2, r3, #1
 1163 00d4 BA60     		str	r2, [r7, #8]
 1164 00d6 002B     		cmp	r3, #0
 1165 00d8 9FD1     		bne	.L76
 127:..\..\..\HamFlyAPI\src/hamfly_qx_protocol.c ****     } else {
 128:..\..\..\HamFlyAPI\src/hamfly_qx_protocol.c ****         while (n--) { float r = (float)GETSL; r *= scalefrom; *v = r;
 129:..\..\..\HamFlyAPI\src/hamfly_qx_protocol.c ****             if (max<*v)*v=max; if (*v<min)*v=min; if (isnan(*v))*v=0.0f; v++; }
 130:..\..\..\HamFlyAPI\src/hamfly_qx_protocol.c ****     }
 131:..\..\..\HamFlyAPI\src/hamfly_qx_protocol.c **** }
 1166              		.loc 1 131 0
 1167 00da 58E0     		b	.L92
 1168              	.L85:
 1169              	.LBB8:
 128:..\..\..\HamFlyAPI\src/hamfly_qx_protocol.c ****             if (max<*v)*v=max; if (*v<min)*v=min; if (isnan(*v))*v=0.0f; v++; }
 1170              		.loc 1 128 0 discriminator 1
 1171 00dc 2F4B     		ldr	r3, .L93+4
 1172 00de 1B68     		ldr	r3, [r3]
 1173 00e0 1B78     		ldrb	r3, [r3]
 1174 00e2 DBB2     		uxtb	r3, r3
 1175 00e4 1A06     		lsls	r2, r3, #24
 1176 00e6 2D4B     		ldr	r3, .L93+4
 1177 00e8 1B68     		ldr	r3, [r3]
 1178 00ea 0133     		adds	r3, r3, #1
ARM GAS  C:\Users\JENNEW~1\AppData\Local\Temp\ccQ5uJSg.s 			page 24


 1179 00ec 1B78     		ldrb	r3, [r3]
 1180 00ee DBB2     		uxtb	r3, r3
 1181 00f0 1B04     		lsls	r3, r3, #16
 1182 00f2 1A43     		orrs	r2, r2, r3
 1183 00f4 294B     		ldr	r3, .L93+4
 1184 00f6 1B68     		ldr	r3, [r3]
 1185 00f8 0233     		adds	r3, r3, #2
 1186 00fa 1B78     		ldrb	r3, [r3]
 1187 00fc DBB2     		uxtb	r3, r3
 1188 00fe 1B02     		lsls	r3, r3, #8
 1189 0100 1343     		orrs	r3, r3, r2
 1190 0102 264A     		ldr	r2, .L93+4
 1191 0104 1268     		ldr	r2, [r2]
 1192 0106 0332     		adds	r2, r2, #3
 1193 0108 1278     		ldrb	r2, [r2]
 1194 010a D2B2     		uxtb	r2, r2
 1195 010c 1343     		orrs	r3, r3, r2
 1196 010e 1846     		mov	r0, r3
 1197 0110 FFF7FEFF 		bl	__aeabi_i2f
 1198 0114 0346     		mov	r3, r0
 1199 0116 3B61     		str	r3, [r7, #16]	@ float
 1200 0118 204B     		ldr	r3, .L93+4
 1201 011a 1B68     		ldr	r3, [r3]
 1202 011c 0433     		adds	r3, r3, #4
 1203 011e 1F4A     		ldr	r2, .L93+4
 1204 0120 1360     		str	r3, [r2]
 1205 0122 396A     		ldr	r1, [r7, #32]	@ float
 1206 0124 3869     		ldr	r0, [r7, #16]	@ float
 1207 0126 FFF7FEFF 		bl	__aeabi_fmul
 1208 012a 0346     		mov	r3, r0
 1209 012c 3B61     		str	r3, [r7, #16]	@ float
 1210 012e FB68     		ldr	r3, [r7, #12]
 1211 0130 3A69     		ldr	r2, [r7, #16]	@ float
 1212 0132 1A60     		str	r2, [r3]	@ float
 129:..\..\..\HamFlyAPI\src/hamfly_qx_protocol.c ****     }
 1213              		.loc 1 129 0 discriminator 1
 1214 0134 FB68     		ldr	r3, [r7, #12]
 1215 0136 1B68     		ldr	r3, [r3]	@ float
 1216 0138 7968     		ldr	r1, [r7, #4]	@ float
 1217 013a 1846     		mov	r0, r3
 1218 013c FFF7FEFF 		bl	__aeabi_fcmpgt
 1219 0140 0346     		mov	r3, r0
 1220 0142 002B     		cmp	r3, #0
 1221 0144 02D0     		beq	.L79
 1222 0146 FB68     		ldr	r3, [r7, #12]
 1223 0148 7A68     		ldr	r2, [r7, #4]	@ float
 1224 014a 1A60     		str	r2, [r3]	@ float
 1225              	.L79:
 129:..\..\..\HamFlyAPI\src/hamfly_qx_protocol.c ****     }
 1226              		.loc 1 129 0 is_stmt 0 discriminator 3
 1227 014c FB68     		ldr	r3, [r7, #12]
 1228 014e 1B68     		ldr	r3, [r3]	@ float
 1229 0150 3968     		ldr	r1, [r7]	@ float
 1230 0152 1846     		mov	r0, r3
 1231 0154 FFF7FEFF 		bl	__aeabi_fcmplt
 1232 0158 0346     		mov	r3, r0
 1233 015a 002B     		cmp	r3, #0
ARM GAS  C:\Users\JENNEW~1\AppData\Local\Temp\ccQ5uJSg.s 			page 25


 1234 015c 02D0     		beq	.L81
 129:..\..\..\HamFlyAPI\src/hamfly_qx_protocol.c ****     }
 1235              		.loc 1 129 0 discriminator 4
 1236 015e FB68     		ldr	r3, [r7, #12]
 1237 0160 3A68     		ldr	r2, [r7]	@ float
 1238 0162 1A60     		str	r2, [r3]	@ float
 1239              	.L81:
 129:..\..\..\HamFlyAPI\src/hamfly_qx_protocol.c ****     }
 1240              		.loc 1 129 0 discriminator 6
 1241 0164 FB68     		ldr	r3, [r7, #12]
 1242 0166 1B68     		ldr	r3, [r3]	@ float
 1243 0168 1946     		mov	r1, r3
 1244 016a 1846     		mov	r0, r3
 1245 016c FFF7FEFF 		bl	__aeabi_fcmpun
 1246 0170 0346     		mov	r3, r0
 1247 0172 002B     		cmp	r3, #0
 1248 0174 03D0     		beq	.L83
 129:..\..\..\HamFlyAPI\src/hamfly_qx_protocol.c ****     }
 1249              		.loc 1 129 0 discriminator 7
 1250 0176 FB68     		ldr	r3, [r7, #12]
 1251 0178 4FF00002 		mov	r2, #0
 1252 017c 1A60     		str	r2, [r3]	@ float
 1253              	.L83:
 129:..\..\..\HamFlyAPI\src/hamfly_qx_protocol.c ****     }
 1254              		.loc 1 129 0 discriminator 9
 1255 017e FB68     		ldr	r3, [r7, #12]
 1256 0180 0433     		adds	r3, r3, #4
 1257 0182 FB60     		str	r3, [r7, #12]
 1258              	.L78:
 1259              	.LBE8:
 128:..\..\..\HamFlyAPI\src/hamfly_qx_protocol.c ****             if (max<*v)*v=max; if (*v<min)*v=min; if (isnan(*v))*v=0.0f; v++; }
 1260              		.loc 1 128 0 is_stmt 1
 1261 0184 BB68     		ldr	r3, [r7, #8]
 1262 0186 5A1E     		subs	r2, r3, #1
 1263 0188 BA60     		str	r2, [r7, #8]
 1264 018a 002B     		cmp	r3, #0
 1265 018c A6D1     		bne	.L85
 1266              	.L92:
 1267              		.loc 1 131 0
 1268 018e 00BF     		nop
 1269 0190 1837     		adds	r7, r7, #24
 1270              		.cfi_def_cfa_offset 8
 1271 0192 BD46     		mov	sp, r7
 1272              		.cfi_def_cfa_register 13
 1273              		@ sp needed
 1274 0194 80BD     		pop	{r7, pc}
 1275              	.L94:
 1276 0196 00BF     		.align	2
 1277              	.L93:
 1278 0198 00000000 		.word	rw
 1279 019c 00000000 		.word	msgPtr
 1280              		.cfi_endproc
 1281              	.LFE14:
 1282              		.size	GetFloatAsSignedLong, .-GetFloatAsSignedLong
 1283              		.section	.text.GetFloatAsSignedShort,"ax",%progbits
 1284              		.align	2
 1285              		.global	GetFloatAsSignedShort
ARM GAS  C:\Users\JENNEW~1\AppData\Local\Temp\ccQ5uJSg.s 			page 26


 1286              		.thumb
 1287              		.thumb_func
 1288              		.type	GetFloatAsSignedShort, %function
 1289              	GetFloatAsSignedShort:
 1290              	.LFB15:
 132:..\..\..\HamFlyAPI\src/hamfly_qx_protocol.c **** void GetFloatAsSignedShort(float *v, uint32_t n, float max, float min, float scalefrom) {
 1291              		.loc 1 132 0
 1292              		.cfi_startproc
 1293              		@ args = 4, pretend = 0, frame = 24
 1294              		@ frame_needed = 1, uses_anonymous_args = 0
 1295 0000 80B5     		push	{r7, lr}
 1296              		.cfi_def_cfa_offset 8
 1297              		.cfi_offset 7, -8
 1298              		.cfi_offset 14, -4
 1299 0002 86B0     		sub	sp, sp, #24
 1300              		.cfi_def_cfa_offset 32
 1301 0004 00AF     		add	r7, sp, #0
 1302              		.cfi_def_cfa_register 7
 1303 0006 F860     		str	r0, [r7, #12]
 1304 0008 B960     		str	r1, [r7, #8]
 1305 000a 7A60     		str	r2, [r7, #4]	@ float
 1306 000c 3B60     		str	r3, [r7]	@ float
 133:..\..\..\HamFlyAPI\src/hamfly_qx_protocol.c ****     if (rw == QB_Parser_Dir_WriteDel) {
 1307              		.loc 1 133 0
 1308 000e 564B     		ldr	r3, .L121
 1309 0010 1B78     		ldrb	r3, [r3]	@ zero_extendqisi2
 1310 0012 012B     		cmp	r3, #1
 1311 0014 40F09E80 		bne	.L106
 134:..\..\..\HamFlyAPI\src/hamfly_qx_protocol.c ****         while (n--) { float r = (float)GETSS; r *= scalefrom; *v += r;
 1312              		.loc 1 134 0
 1313 0018 4EE0     		b	.L97
 1314              	.L104:
 1315              	.LBB9:
 1316              		.loc 1 134 0 is_stmt 0 discriminator 1
 1317 001a 544B     		ldr	r3, .L121+4
 1318 001c 1B68     		ldr	r3, [r3]
 1319 001e 1B78     		ldrb	r3, [r3]
 1320 0020 DBB2     		uxtb	r3, r3
 1321 0022 1B02     		lsls	r3, r3, #8
 1322 0024 1BB2     		sxth	r3, r3
 1323 0026 1A46     		mov	r2, r3
 1324 0028 504B     		ldr	r3, .L121+4
 1325 002a 1B68     		ldr	r3, [r3]
 1326 002c 0133     		adds	r3, r3, #1
 1327 002e 1B78     		ldrb	r3, [r3]
 1328 0030 DBB2     		uxtb	r3, r3
 1329 0032 1343     		orrs	r3, r3, r2
 1330 0034 1846     		mov	r0, r3
 1331 0036 FFF7FEFF 		bl	__aeabi_i2f
 1332 003a 0346     		mov	r3, r0
 1333 003c 7B61     		str	r3, [r7, #20]	@ float
 1334 003e 4B4B     		ldr	r3, .L121+4
 1335 0040 1B68     		ldr	r3, [r3]
 1336 0042 0233     		adds	r3, r3, #2
 1337 0044 494A     		ldr	r2, .L121+4
 1338 0046 1360     		str	r3, [r2]
 1339 0048 396A     		ldr	r1, [r7, #32]	@ float
ARM GAS  C:\Users\JENNEW~1\AppData\Local\Temp\ccQ5uJSg.s 			page 27


 1340 004a 7869     		ldr	r0, [r7, #20]	@ float
 1341 004c FFF7FEFF 		bl	__aeabi_fmul
 1342 0050 0346     		mov	r3, r0
 1343 0052 7B61     		str	r3, [r7, #20]	@ float
 1344 0054 FB68     		ldr	r3, [r7, #12]
 1345 0056 1B68     		ldr	r3, [r3]	@ float
 1346 0058 7969     		ldr	r1, [r7, #20]	@ float
 1347 005a 1846     		mov	r0, r3
 1348 005c FFF7FEFF 		bl	__aeabi_fadd
 1349 0060 0346     		mov	r3, r0
 1350 0062 1A46     		mov	r2, r3
 1351 0064 FB68     		ldr	r3, [r7, #12]
 1352 0066 1A60     		str	r2, [r3]	@ float
 135:..\..\..\HamFlyAPI\src/hamfly_qx_protocol.c ****             if (max<*v)*v=max; if (*v<min)*v=min; if (isnan(*v))*v=0.0f; v++; }
 1353              		.loc 1 135 0 is_stmt 1 discriminator 1
 1354 0068 FB68     		ldr	r3, [r7, #12]
 1355 006a 1B68     		ldr	r3, [r3]	@ float
 1356 006c 7968     		ldr	r1, [r7, #4]	@ float
 1357 006e 1846     		mov	r0, r3
 1358 0070 FFF7FEFF 		bl	__aeabi_fcmpgt
 1359 0074 0346     		mov	r3, r0
 1360 0076 002B     		cmp	r3, #0
 1361 0078 02D0     		beq	.L98
 1362 007a FB68     		ldr	r3, [r7, #12]
 1363 007c 7A68     		ldr	r2, [r7, #4]	@ float
 1364 007e 1A60     		str	r2, [r3]	@ float
 1365              	.L98:
 1366              		.loc 1 135 0 is_stmt 0 discriminator 3
 1367 0080 FB68     		ldr	r3, [r7, #12]
 1368 0082 1B68     		ldr	r3, [r3]	@ float
 1369 0084 3968     		ldr	r1, [r7]	@ float
 1370 0086 1846     		mov	r0, r3
 1371 0088 FFF7FEFF 		bl	__aeabi_fcmplt
 1372 008c 0346     		mov	r3, r0
 1373 008e 002B     		cmp	r3, #0
 1374 0090 02D0     		beq	.L100
 1375              		.loc 1 135 0 discriminator 4
 1376 0092 FB68     		ldr	r3, [r7, #12]
 1377 0094 3A68     		ldr	r2, [r7]	@ float
 1378 0096 1A60     		str	r2, [r3]	@ float
 1379              	.L100:
 1380              		.loc 1 135 0 discriminator 6
 1381 0098 FB68     		ldr	r3, [r7, #12]
 1382 009a 1B68     		ldr	r3, [r3]	@ float
 1383 009c 1946     		mov	r1, r3
 1384 009e 1846     		mov	r0, r3
 1385 00a0 FFF7FEFF 		bl	__aeabi_fcmpun
 1386 00a4 0346     		mov	r3, r0
 1387 00a6 002B     		cmp	r3, #0
 1388 00a8 03D0     		beq	.L102
 1389              		.loc 1 135 0 discriminator 7
 1390 00aa FB68     		ldr	r3, [r7, #12]
 1391 00ac 4FF00002 		mov	r2, #0
 1392 00b0 1A60     		str	r2, [r3]	@ float
 1393              	.L102:
 1394              		.loc 1 135 0 discriminator 9
 1395 00b2 FB68     		ldr	r3, [r7, #12]
ARM GAS  C:\Users\JENNEW~1\AppData\Local\Temp\ccQ5uJSg.s 			page 28


 1396 00b4 0433     		adds	r3, r3, #4
 1397 00b6 FB60     		str	r3, [r7, #12]
 1398              	.L97:
 1399              	.LBE9:
 134:..\..\..\HamFlyAPI\src/hamfly_qx_protocol.c ****         while (n--) { float r = (float)GETSS; r *= scalefrom; *v += r;
 1400              		.loc 1 134 0 is_stmt 1
 1401 00b8 BB68     		ldr	r3, [r7, #8]
 1402 00ba 5A1E     		subs	r2, r3, #1
 1403 00bc BA60     		str	r2, [r7, #8]
 1404 00be 002B     		cmp	r3, #0
 1405 00c0 ABD1     		bne	.L104
 136:..\..\..\HamFlyAPI\src/hamfly_qx_protocol.c ****     } else {
 137:..\..\..\HamFlyAPI\src/hamfly_qx_protocol.c ****         while (n--) { float r = (float)GETSS; r *= scalefrom; *v = r;
 138:..\..\..\HamFlyAPI\src/hamfly_qx_protocol.c ****             if (max<*v)*v=max; if (*v<min)*v=min; if (isnan(*v))*v=0.0f; v++; }
 139:..\..\..\HamFlyAPI\src/hamfly_qx_protocol.c ****     }
 140:..\..\..\HamFlyAPI\src/hamfly_qx_protocol.c **** }
 1406              		.loc 1 140 0
 1407 00c2 4CE0     		b	.L120
 1408              	.L113:
 1409              	.LBB10:
 137:..\..\..\HamFlyAPI\src/hamfly_qx_protocol.c ****             if (max<*v)*v=max; if (*v<min)*v=min; if (isnan(*v))*v=0.0f; v++; }
 1410              		.loc 1 137 0 discriminator 1
 1411 00c4 294B     		ldr	r3, .L121+4
 1412 00c6 1B68     		ldr	r3, [r3]
 1413 00c8 1B78     		ldrb	r3, [r3]
 1414 00ca DBB2     		uxtb	r3, r3
 1415 00cc 1B02     		lsls	r3, r3, #8
 1416 00ce 1BB2     		sxth	r3, r3
 1417 00d0 1A46     		mov	r2, r3
 1418 00d2 264B     		ldr	r3, .L121+4
 1419 00d4 1B68     		ldr	r3, [r3]
 1420 00d6 0133     		adds	r3, r3, #1
 1421 00d8 1B78     		ldrb	r3, [r3]
 1422 00da DBB2     		uxtb	r3, r3
 1423 00dc 1343     		orrs	r3, r3, r2
 1424 00de 1846     		mov	r0, r3
 1425 00e0 FFF7FEFF 		bl	__aeabi_i2f
 1426 00e4 0346     		mov	r3, r0
 1427 00e6 3B61     		str	r3, [r7, #16]	@ float
 1428 00e8 204B     		ldr	r3, .L121+4
 1429 00ea 1B68     		ldr	r3, [r3]
 1430 00ec 0233     		adds	r3, r3, #2
 1431 00ee 1F4A     		ldr	r2, .L121+4
 1432 00f0 1360     		str	r3, [r2]
 1433 00f2 396A     		ldr	r1, [r7, #32]	@ float
 1434 00f4 3869     		ldr	r0, [r7, #16]	@ float
 1435 00f6 FFF7FEFF 		bl	__aeabi_fmul
 1436 00fa 0346     		mov	r3, r0
 1437 00fc 3B61     		str	r3, [r7, #16]	@ float
 1438 00fe FB68     		ldr	r3, [r7, #12]
 1439 0100 3A69     		ldr	r2, [r7, #16]	@ float
 1440 0102 1A60     		str	r2, [r3]	@ float
 138:..\..\..\HamFlyAPI\src/hamfly_qx_protocol.c ****     }
 1441              		.loc 1 138 0 discriminator 1
 1442 0104 FB68     		ldr	r3, [r7, #12]
 1443 0106 1B68     		ldr	r3, [r3]	@ float
 1444 0108 7968     		ldr	r1, [r7, #4]	@ float
ARM GAS  C:\Users\JENNEW~1\AppData\Local\Temp\ccQ5uJSg.s 			page 29


 1445 010a 1846     		mov	r0, r3
 1446 010c FFF7FEFF 		bl	__aeabi_fcmpgt
 1447 0110 0346     		mov	r3, r0
 1448 0112 002B     		cmp	r3, #0
 1449 0114 02D0     		beq	.L107
 1450 0116 FB68     		ldr	r3, [r7, #12]
 1451 0118 7A68     		ldr	r2, [r7, #4]	@ float
 1452 011a 1A60     		str	r2, [r3]	@ float
 1453              	.L107:
 138:..\..\..\HamFlyAPI\src/hamfly_qx_protocol.c ****     }
 1454              		.loc 1 138 0 is_stmt 0 discriminator 3
 1455 011c FB68     		ldr	r3, [r7, #12]
 1456 011e 1B68     		ldr	r3, [r3]	@ float
 1457 0120 3968     		ldr	r1, [r7]	@ float
 1458 0122 1846     		mov	r0, r3
 1459 0124 FFF7FEFF 		bl	__aeabi_fcmplt
 1460 0128 0346     		mov	r3, r0
 1461 012a 002B     		cmp	r3, #0
 1462 012c 02D0     		beq	.L109
 138:..\..\..\HamFlyAPI\src/hamfly_qx_protocol.c ****     }
 1463              		.loc 1 138 0 discriminator 4
 1464 012e FB68     		ldr	r3, [r7, #12]
 1465 0130 3A68     		ldr	r2, [r7]	@ float
 1466 0132 1A60     		str	r2, [r3]	@ float
 1467              	.L109:
 138:..\..\..\HamFlyAPI\src/hamfly_qx_protocol.c ****     }
 1468              		.loc 1 138 0 discriminator 6
 1469 0134 FB68     		ldr	r3, [r7, #12]
 1470 0136 1B68     		ldr	r3, [r3]	@ float
 1471 0138 1946     		mov	r1, r3
 1472 013a 1846     		mov	r0, r3
 1473 013c FFF7FEFF 		bl	__aeabi_fcmpun
 1474 0140 0346     		mov	r3, r0
 1475 0142 002B     		cmp	r3, #0
 1476 0144 03D0     		beq	.L111
 138:..\..\..\HamFlyAPI\src/hamfly_qx_protocol.c ****     }
 1477              		.loc 1 138 0 discriminator 7
 1478 0146 FB68     		ldr	r3, [r7, #12]
 1479 0148 4FF00002 		mov	r2, #0
 1480 014c 1A60     		str	r2, [r3]	@ float
 1481              	.L111:
 138:..\..\..\HamFlyAPI\src/hamfly_qx_protocol.c ****     }
 1482              		.loc 1 138 0 discriminator 9
 1483 014e FB68     		ldr	r3, [r7, #12]
 1484 0150 0433     		adds	r3, r3, #4
 1485 0152 FB60     		str	r3, [r7, #12]
 1486              	.L106:
 1487              	.LBE10:
 137:..\..\..\HamFlyAPI\src/hamfly_qx_protocol.c ****             if (max<*v)*v=max; if (*v<min)*v=min; if (isnan(*v))*v=0.0f; v++; }
 1488              		.loc 1 137 0 is_stmt 1
 1489 0154 BB68     		ldr	r3, [r7, #8]
 1490 0156 5A1E     		subs	r2, r3, #1
 1491 0158 BA60     		str	r2, [r7, #8]
 1492 015a 002B     		cmp	r3, #0
 1493 015c B2D1     		bne	.L113
 1494              	.L120:
 1495              		.loc 1 140 0
ARM GAS  C:\Users\JENNEW~1\AppData\Local\Temp\ccQ5uJSg.s 			page 30


 1496 015e 00BF     		nop
 1497 0160 1837     		adds	r7, r7, #24
 1498              		.cfi_def_cfa_offset 8
 1499 0162 BD46     		mov	sp, r7
 1500              		.cfi_def_cfa_register 13
 1501              		@ sp needed
 1502 0164 80BD     		pop	{r7, pc}
 1503              	.L122:
 1504 0166 00BF     		.align	2
 1505              	.L121:
 1506 0168 00000000 		.word	rw
 1507 016c 00000000 		.word	msgPtr
 1508              		.cfi_endproc
 1509              	.LFE15:
 1510              		.size	GetFloatAsSignedShort, .-GetFloatAsSignedShort
 1511              		.section	.text.GetFloatAsSignedChar,"ax",%progbits
 1512              		.align	2
 1513              		.global	GetFloatAsSignedChar
 1514              		.thumb
 1515              		.thumb_func
 1516              		.type	GetFloatAsSignedChar, %function
 1517              	GetFloatAsSignedChar:
 1518              	.LFB16:
 141:..\..\..\HamFlyAPI\src/hamfly_qx_protocol.c **** void GetFloatAsSignedChar(float *v, uint32_t n, float max, float min, float scalefrom) {
 1519              		.loc 1 141 0
 1520              		.cfi_startproc
 1521              		@ args = 4, pretend = 0, frame = 24
 1522              		@ frame_needed = 1, uses_anonymous_args = 0
 1523 0000 80B5     		push	{r7, lr}
 1524              		.cfi_def_cfa_offset 8
 1525              		.cfi_offset 7, -8
 1526              		.cfi_offset 14, -4
 1527 0002 86B0     		sub	sp, sp, #24
 1528              		.cfi_def_cfa_offset 32
 1529 0004 00AF     		add	r7, sp, #0
 1530              		.cfi_def_cfa_register 7
 1531 0006 F860     		str	r0, [r7, #12]
 1532 0008 B960     		str	r1, [r7, #8]
 1533 000a 7A60     		str	r2, [r7, #4]	@ float
 1534 000c 3B60     		str	r3, [r7]	@ float
 142:..\..\..\HamFlyAPI\src/hamfly_qx_protocol.c ****     if (rw == QB_Parser_Dir_WriteDel) {
 1535              		.loc 1 142 0
 1536 000e 4C4B     		ldr	r3, .L149
 1537 0010 1B78     		ldrb	r3, [r3]	@ zero_extendqisi2
 1538 0012 012B     		cmp	r3, #1
 1539 0014 40F08A80 		bne	.L134
 143:..\..\..\HamFlyAPI\src/hamfly_qx_protocol.c ****         while (n--) { float r = (float)GETSC; r *= scalefrom; *v += r;
 1540              		.loc 1 143 0
 1541 0018 44E0     		b	.L125
 1542              	.L132:
 1543              	.LBB11:
 1544              		.loc 1 143 0 is_stmt 0 discriminator 1
 1545 001a 4A4B     		ldr	r3, .L149+4
 1546 001c 1B68     		ldr	r3, [r3]
 1547 001e 5A1C     		adds	r2, r3, #1
 1548 0020 4849     		ldr	r1, .L149+4
 1549 0022 0A60     		str	r2, [r1]
ARM GAS  C:\Users\JENNEW~1\AppData\Local\Temp\ccQ5uJSg.s 			page 31


 1550 0024 1B78     		ldrb	r3, [r3]
 1551 0026 DBB2     		uxtb	r3, r3
 1552 0028 5BB2     		sxtb	r3, r3
 1553 002a 1846     		mov	r0, r3
 1554 002c FFF7FEFF 		bl	__aeabi_i2f
 1555 0030 0346     		mov	r3, r0
 1556 0032 7B61     		str	r3, [r7, #20]	@ float
 1557 0034 396A     		ldr	r1, [r7, #32]	@ float
 1558 0036 7869     		ldr	r0, [r7, #20]	@ float
 1559 0038 FFF7FEFF 		bl	__aeabi_fmul
 1560 003c 0346     		mov	r3, r0
 1561 003e 7B61     		str	r3, [r7, #20]	@ float
 1562 0040 FB68     		ldr	r3, [r7, #12]
 1563 0042 1B68     		ldr	r3, [r3]	@ float
 1564 0044 7969     		ldr	r1, [r7, #20]	@ float
 1565 0046 1846     		mov	r0, r3
 1566 0048 FFF7FEFF 		bl	__aeabi_fadd
 1567 004c 0346     		mov	r3, r0
 1568 004e 1A46     		mov	r2, r3
 1569 0050 FB68     		ldr	r3, [r7, #12]
 1570 0052 1A60     		str	r2, [r3]	@ float
 144:..\..\..\HamFlyAPI\src/hamfly_qx_protocol.c ****             if (max<*v)*v=max; if (*v<min)*v=min; if (isnan(*v))*v=0.0f; v++; }
 1571              		.loc 1 144 0 is_stmt 1 discriminator 1
 1572 0054 FB68     		ldr	r3, [r7, #12]
 1573 0056 1B68     		ldr	r3, [r3]	@ float
 1574 0058 7968     		ldr	r1, [r7, #4]	@ float
 1575 005a 1846     		mov	r0, r3
 1576 005c FFF7FEFF 		bl	__aeabi_fcmpgt
 1577 0060 0346     		mov	r3, r0
 1578 0062 002B     		cmp	r3, #0
 1579 0064 02D0     		beq	.L126
 1580 0066 FB68     		ldr	r3, [r7, #12]
 1581 0068 7A68     		ldr	r2, [r7, #4]	@ float
 1582 006a 1A60     		str	r2, [r3]	@ float
 1583              	.L126:
 1584              		.loc 1 144 0 is_stmt 0 discriminator 3
 1585 006c FB68     		ldr	r3, [r7, #12]
 1586 006e 1B68     		ldr	r3, [r3]	@ float
 1587 0070 3968     		ldr	r1, [r7]	@ float
 1588 0072 1846     		mov	r0, r3
 1589 0074 FFF7FEFF 		bl	__aeabi_fcmplt
 1590 0078 0346     		mov	r3, r0
 1591 007a 002B     		cmp	r3, #0
 1592 007c 02D0     		beq	.L128
 1593              		.loc 1 144 0 discriminator 4
 1594 007e FB68     		ldr	r3, [r7, #12]
 1595 0080 3A68     		ldr	r2, [r7]	@ float
 1596 0082 1A60     		str	r2, [r3]	@ float
 1597              	.L128:
 1598              		.loc 1 144 0 discriminator 6
 1599 0084 FB68     		ldr	r3, [r7, #12]
 1600 0086 1B68     		ldr	r3, [r3]	@ float
 1601 0088 1946     		mov	r1, r3
 1602 008a 1846     		mov	r0, r3
 1603 008c FFF7FEFF 		bl	__aeabi_fcmpun
 1604 0090 0346     		mov	r3, r0
 1605 0092 002B     		cmp	r3, #0
ARM GAS  C:\Users\JENNEW~1\AppData\Local\Temp\ccQ5uJSg.s 			page 32


 1606 0094 03D0     		beq	.L130
 1607              		.loc 1 144 0 discriminator 7
 1608 0096 FB68     		ldr	r3, [r7, #12]
 1609 0098 4FF00002 		mov	r2, #0
 1610 009c 1A60     		str	r2, [r3]	@ float
 1611              	.L130:
 1612              		.loc 1 144 0 discriminator 9
 1613 009e FB68     		ldr	r3, [r7, #12]
 1614 00a0 0433     		adds	r3, r3, #4
 1615 00a2 FB60     		str	r3, [r7, #12]
 1616              	.L125:
 1617              	.LBE11:
 143:..\..\..\HamFlyAPI\src/hamfly_qx_protocol.c ****         while (n--) { float r = (float)GETSC; r *= scalefrom; *v += r;
 1618              		.loc 1 143 0 is_stmt 1
 1619 00a4 BB68     		ldr	r3, [r7, #8]
 1620 00a6 5A1E     		subs	r2, r3, #1
 1621 00a8 BA60     		str	r2, [r7, #8]
 1622 00aa 002B     		cmp	r3, #0
 1623 00ac B5D1     		bne	.L132
 145:..\..\..\HamFlyAPI\src/hamfly_qx_protocol.c ****     } else {
 146:..\..\..\HamFlyAPI\src/hamfly_qx_protocol.c ****         while (n--) { float r = (float)GETSC; r *= scalefrom; *v = r;
 147:..\..\..\HamFlyAPI\src/hamfly_qx_protocol.c ****             if (max<*v)*v=max; if (*v<min)*v=min; if (isnan(*v))*v=0.0f; v++; }
 148:..\..\..\HamFlyAPI\src/hamfly_qx_protocol.c ****     }
 149:..\..\..\HamFlyAPI\src/hamfly_qx_protocol.c **** }
 1624              		.loc 1 149 0
 1625 00ae 42E0     		b	.L148
 1626              	.L141:
 1627              	.LBB12:
 146:..\..\..\HamFlyAPI\src/hamfly_qx_protocol.c ****             if (max<*v)*v=max; if (*v<min)*v=min; if (isnan(*v))*v=0.0f; v++; }
 1628              		.loc 1 146 0 discriminator 1
 1629 00b0 244B     		ldr	r3, .L149+4
 1630 00b2 1B68     		ldr	r3, [r3]
 1631 00b4 5A1C     		adds	r2, r3, #1
 1632 00b6 2349     		ldr	r1, .L149+4
 1633 00b8 0A60     		str	r2, [r1]
 1634 00ba 1B78     		ldrb	r3, [r3]
 1635 00bc DBB2     		uxtb	r3, r3
 1636 00be 5BB2     		sxtb	r3, r3
 1637 00c0 1846     		mov	r0, r3
 1638 00c2 FFF7FEFF 		bl	__aeabi_i2f
 1639 00c6 0346     		mov	r3, r0
 1640 00c8 3B61     		str	r3, [r7, #16]	@ float
 1641 00ca 396A     		ldr	r1, [r7, #32]	@ float
 1642 00cc 3869     		ldr	r0, [r7, #16]	@ float
 1643 00ce FFF7FEFF 		bl	__aeabi_fmul
 1644 00d2 0346     		mov	r3, r0
 1645 00d4 3B61     		str	r3, [r7, #16]	@ float
 1646 00d6 FB68     		ldr	r3, [r7, #12]
 1647 00d8 3A69     		ldr	r2, [r7, #16]	@ float
 1648 00da 1A60     		str	r2, [r3]	@ float
 147:..\..\..\HamFlyAPI\src/hamfly_qx_protocol.c ****     }
 1649              		.loc 1 147 0 discriminator 1
 1650 00dc FB68     		ldr	r3, [r7, #12]
 1651 00de 1B68     		ldr	r3, [r3]	@ float
 1652 00e0 7968     		ldr	r1, [r7, #4]	@ float
 1653 00e2 1846     		mov	r0, r3
 1654 00e4 FFF7FEFF 		bl	__aeabi_fcmpgt
ARM GAS  C:\Users\JENNEW~1\AppData\Local\Temp\ccQ5uJSg.s 			page 33


 1655 00e8 0346     		mov	r3, r0
 1656 00ea 002B     		cmp	r3, #0
 1657 00ec 02D0     		beq	.L135
 1658 00ee FB68     		ldr	r3, [r7, #12]
 1659 00f0 7A68     		ldr	r2, [r7, #4]	@ float
 1660 00f2 1A60     		str	r2, [r3]	@ float
 1661              	.L135:
 147:..\..\..\HamFlyAPI\src/hamfly_qx_protocol.c ****     }
 1662              		.loc 1 147 0 is_stmt 0 discriminator 3
 1663 00f4 FB68     		ldr	r3, [r7, #12]
 1664 00f6 1B68     		ldr	r3, [r3]	@ float
 1665 00f8 3968     		ldr	r1, [r7]	@ float
 1666 00fa 1846     		mov	r0, r3
 1667 00fc FFF7FEFF 		bl	__aeabi_fcmplt
 1668 0100 0346     		mov	r3, r0
 1669 0102 002B     		cmp	r3, #0
 1670 0104 02D0     		beq	.L137
 147:..\..\..\HamFlyAPI\src/hamfly_qx_protocol.c ****     }
 1671              		.loc 1 147 0 discriminator 4
 1672 0106 FB68     		ldr	r3, [r7, #12]
 1673 0108 3A68     		ldr	r2, [r7]	@ float
 1674 010a 1A60     		str	r2, [r3]	@ float
 1675              	.L137:
 147:..\..\..\HamFlyAPI\src/hamfly_qx_protocol.c ****     }
 1676              		.loc 1 147 0 discriminator 6
 1677 010c FB68     		ldr	r3, [r7, #12]
 1678 010e 1B68     		ldr	r3, [r3]	@ float
 1679 0110 1946     		mov	r1, r3
 1680 0112 1846     		mov	r0, r3
 1681 0114 FFF7FEFF 		bl	__aeabi_fcmpun
 1682 0118 0346     		mov	r3, r0
 1683 011a 002B     		cmp	r3, #0
 1684 011c 03D0     		beq	.L139
 147:..\..\..\HamFlyAPI\src/hamfly_qx_protocol.c ****     }
 1685              		.loc 1 147 0 discriminator 7
 1686 011e FB68     		ldr	r3, [r7, #12]
 1687 0120 4FF00002 		mov	r2, #0
 1688 0124 1A60     		str	r2, [r3]	@ float
 1689              	.L139:
 147:..\..\..\HamFlyAPI\src/hamfly_qx_protocol.c ****     }
 1690              		.loc 1 147 0 discriminator 9
 1691 0126 FB68     		ldr	r3, [r7, #12]
 1692 0128 0433     		adds	r3, r3, #4
 1693 012a FB60     		str	r3, [r7, #12]
 1694              	.L134:
 1695              	.LBE12:
 146:..\..\..\HamFlyAPI\src/hamfly_qx_protocol.c ****             if (max<*v)*v=max; if (*v<min)*v=min; if (isnan(*v))*v=0.0f; v++; }
 1696              		.loc 1 146 0 is_stmt 1
 1697 012c BB68     		ldr	r3, [r7, #8]
 1698 012e 5A1E     		subs	r2, r3, #1
 1699 0130 BA60     		str	r2, [r7, #8]
 1700 0132 002B     		cmp	r3, #0
 1701 0134 BCD1     		bne	.L141
 1702              	.L148:
 1703              		.loc 1 149 0
 1704 0136 00BF     		nop
 1705 0138 1837     		adds	r7, r7, #24
ARM GAS  C:\Users\JENNEW~1\AppData\Local\Temp\ccQ5uJSg.s 			page 34


 1706              		.cfi_def_cfa_offset 8
 1707 013a BD46     		mov	sp, r7
 1708              		.cfi_def_cfa_register 13
 1709              		@ sp needed
 1710 013c 80BD     		pop	{r7, pc}
 1711              	.L150:
 1712 013e 00BF     		.align	2
 1713              	.L149:
 1714 0140 00000000 		.word	rw
 1715 0144 00000000 		.word	msgPtr
 1716              		.cfi_endproc
 1717              	.LFE16:
 1718              		.size	GetFloatAsSignedChar, .-GetFloatAsSignedChar
 1719              		.global	__aeabi_ui2f
 1720              		.section	.text.GetFloatAsUnsignedChar,"ax",%progbits
 1721              		.align	2
 1722              		.global	GetFloatAsUnsignedChar
 1723              		.thumb
 1724              		.thumb_func
 1725              		.type	GetFloatAsUnsignedChar, %function
 1726              	GetFloatAsUnsignedChar:
 1727              	.LFB17:
 150:..\..\..\HamFlyAPI\src/hamfly_qx_protocol.c **** void GetFloatAsUnsignedChar(float *v, uint32_t n, float max, float min, float scalefrom) {
 1728              		.loc 1 150 0
 1729              		.cfi_startproc
 1730              		@ args = 4, pretend = 0, frame = 24
 1731              		@ frame_needed = 1, uses_anonymous_args = 0
 1732 0000 80B5     		push	{r7, lr}
 1733              		.cfi_def_cfa_offset 8
 1734              		.cfi_offset 7, -8
 1735              		.cfi_offset 14, -4
 1736 0002 86B0     		sub	sp, sp, #24
 1737              		.cfi_def_cfa_offset 32
 1738 0004 00AF     		add	r7, sp, #0
 1739              		.cfi_def_cfa_register 7
 1740 0006 F860     		str	r0, [r7, #12]
 1741 0008 B960     		str	r1, [r7, #8]
 1742 000a 7A60     		str	r2, [r7, #4]	@ float
 1743 000c 3B60     		str	r3, [r7]	@ float
 151:..\..\..\HamFlyAPI\src/hamfly_qx_protocol.c ****     if (rw == QB_Parser_Dir_WriteDel) {
 1744              		.loc 1 151 0
 1745 000e 4B4B     		ldr	r3, .L177
 1746 0010 1B78     		ldrb	r3, [r3]	@ zero_extendqisi2
 1747 0012 012B     		cmp	r3, #1
 1748 0014 40F08980 		bne	.L162
 152:..\..\..\HamFlyAPI\src/hamfly_qx_protocol.c ****         while (n--) { float r = (float)GETSC; r *= scalefrom; *v += r;
 1749              		.loc 1 152 0
 1750 0018 44E0     		b	.L153
 1751              	.L160:
 1752              	.LBB13:
 1753              		.loc 1 152 0 is_stmt 0 discriminator 1
 1754 001a 494B     		ldr	r3, .L177+4
 1755 001c 1B68     		ldr	r3, [r3]
 1756 001e 5A1C     		adds	r2, r3, #1
 1757 0020 4749     		ldr	r1, .L177+4
 1758 0022 0A60     		str	r2, [r1]
 1759 0024 1B78     		ldrb	r3, [r3]
ARM GAS  C:\Users\JENNEW~1\AppData\Local\Temp\ccQ5uJSg.s 			page 35


 1760 0026 DBB2     		uxtb	r3, r3
 1761 0028 5BB2     		sxtb	r3, r3
 1762 002a 1846     		mov	r0, r3
 1763 002c FFF7FEFF 		bl	__aeabi_i2f
 1764 0030 0346     		mov	r3, r0
 1765 0032 7B61     		str	r3, [r7, #20]	@ float
 1766 0034 396A     		ldr	r1, [r7, #32]	@ float
 1767 0036 7869     		ldr	r0, [r7, #20]	@ float
 1768 0038 FFF7FEFF 		bl	__aeabi_fmul
 1769 003c 0346     		mov	r3, r0
 1770 003e 7B61     		str	r3, [r7, #20]	@ float
 1771 0040 FB68     		ldr	r3, [r7, #12]
 1772 0042 1B68     		ldr	r3, [r3]	@ float
 1773 0044 7969     		ldr	r1, [r7, #20]	@ float
 1774 0046 1846     		mov	r0, r3
 1775 0048 FFF7FEFF 		bl	__aeabi_fadd
 1776 004c 0346     		mov	r3, r0
 1777 004e 1A46     		mov	r2, r3
 1778 0050 FB68     		ldr	r3, [r7, #12]
 1779 0052 1A60     		str	r2, [r3]	@ float
 153:..\..\..\HamFlyAPI\src/hamfly_qx_protocol.c ****             if (max<*v)*v=max; if (*v<min)*v=min; if (isnan(*v))*v=0.0f; v++; }
 1780              		.loc 1 153 0 is_stmt 1 discriminator 1
 1781 0054 FB68     		ldr	r3, [r7, #12]
 1782 0056 1B68     		ldr	r3, [r3]	@ float
 1783 0058 7968     		ldr	r1, [r7, #4]	@ float
 1784 005a 1846     		mov	r0, r3
 1785 005c FFF7FEFF 		bl	__aeabi_fcmpgt
 1786 0060 0346     		mov	r3, r0
 1787 0062 002B     		cmp	r3, #0
 1788 0064 02D0     		beq	.L154
 1789 0066 FB68     		ldr	r3, [r7, #12]
 1790 0068 7A68     		ldr	r2, [r7, #4]	@ float
 1791 006a 1A60     		str	r2, [r3]	@ float
 1792              	.L154:
 1793              		.loc 1 153 0 is_stmt 0 discriminator 3
 1794 006c FB68     		ldr	r3, [r7, #12]
 1795 006e 1B68     		ldr	r3, [r3]	@ float
 1796 0070 3968     		ldr	r1, [r7]	@ float
 1797 0072 1846     		mov	r0, r3
 1798 0074 FFF7FEFF 		bl	__aeabi_fcmplt
 1799 0078 0346     		mov	r3, r0
 1800 007a 002B     		cmp	r3, #0
 1801 007c 02D0     		beq	.L156
 1802              		.loc 1 153 0 discriminator 4
 1803 007e FB68     		ldr	r3, [r7, #12]
 1804 0080 3A68     		ldr	r2, [r7]	@ float
 1805 0082 1A60     		str	r2, [r3]	@ float
 1806              	.L156:
 1807              		.loc 1 153 0 discriminator 6
 1808 0084 FB68     		ldr	r3, [r7, #12]
 1809 0086 1B68     		ldr	r3, [r3]	@ float
 1810 0088 1946     		mov	r1, r3
 1811 008a 1846     		mov	r0, r3
 1812 008c FFF7FEFF 		bl	__aeabi_fcmpun
 1813 0090 0346     		mov	r3, r0
 1814 0092 002B     		cmp	r3, #0
 1815 0094 03D0     		beq	.L158
ARM GAS  C:\Users\JENNEW~1\AppData\Local\Temp\ccQ5uJSg.s 			page 36


 1816              		.loc 1 153 0 discriminator 7
 1817 0096 FB68     		ldr	r3, [r7, #12]
 1818 0098 4FF00002 		mov	r2, #0
 1819 009c 1A60     		str	r2, [r3]	@ float
 1820              	.L158:
 1821              		.loc 1 153 0 discriminator 9
 1822 009e FB68     		ldr	r3, [r7, #12]
 1823 00a0 0433     		adds	r3, r3, #4
 1824 00a2 FB60     		str	r3, [r7, #12]
 1825              	.L153:
 1826              	.LBE13:
 152:..\..\..\HamFlyAPI\src/hamfly_qx_protocol.c ****         while (n--) { float r = (float)GETSC; r *= scalefrom; *v += r;
 1827              		.loc 1 152 0 is_stmt 1
 1828 00a4 BB68     		ldr	r3, [r7, #8]
 1829 00a6 5A1E     		subs	r2, r3, #1
 1830 00a8 BA60     		str	r2, [r7, #8]
 1831 00aa 002B     		cmp	r3, #0
 1832 00ac B5D1     		bne	.L160
 154:..\..\..\HamFlyAPI\src/hamfly_qx_protocol.c ****     } else {
 155:..\..\..\HamFlyAPI\src/hamfly_qx_protocol.c ****         while (n--) { float r = (float)GETUC; r *= scalefrom; *v = r;
 156:..\..\..\HamFlyAPI\src/hamfly_qx_protocol.c ****             if (max<*v)*v=max; if (*v<min)*v=min; if (isnan(*v))*v=0.0f; v++; }
 157:..\..\..\HamFlyAPI\src/hamfly_qx_protocol.c ****     }
 158:..\..\..\HamFlyAPI\src/hamfly_qx_protocol.c **** }
 1833              		.loc 1 158 0
 1834 00ae 41E0     		b	.L176
 1835              	.L169:
 1836              	.LBB14:
 155:..\..\..\HamFlyAPI\src/hamfly_qx_protocol.c ****             if (max<*v)*v=max; if (*v<min)*v=min; if (isnan(*v))*v=0.0f; v++; }
 1837              		.loc 1 155 0 discriminator 1
 1838 00b0 234B     		ldr	r3, .L177+4
 1839 00b2 1B68     		ldr	r3, [r3]
 1840 00b4 5A1C     		adds	r2, r3, #1
 1841 00b6 2249     		ldr	r1, .L177+4
 1842 00b8 0A60     		str	r2, [r1]
 1843 00ba 1B78     		ldrb	r3, [r3]
 1844 00bc DBB2     		uxtb	r3, r3
 1845 00be 1846     		mov	r0, r3
 1846 00c0 FFF7FEFF 		bl	__aeabi_ui2f
 1847 00c4 0346     		mov	r3, r0
 1848 00c6 3B61     		str	r3, [r7, #16]	@ float
 1849 00c8 396A     		ldr	r1, [r7, #32]	@ float
 1850 00ca 3869     		ldr	r0, [r7, #16]	@ float
 1851 00cc FFF7FEFF 		bl	__aeabi_fmul
 1852 00d0 0346     		mov	r3, r0
 1853 00d2 3B61     		str	r3, [r7, #16]	@ float
 1854 00d4 FB68     		ldr	r3, [r7, #12]
 1855 00d6 3A69     		ldr	r2, [r7, #16]	@ float
 1856 00d8 1A60     		str	r2, [r3]	@ float
 156:..\..\..\HamFlyAPI\src/hamfly_qx_protocol.c ****     }
 1857              		.loc 1 156 0 discriminator 1
 1858 00da FB68     		ldr	r3, [r7, #12]
 1859 00dc 1B68     		ldr	r3, [r3]	@ float
 1860 00de 7968     		ldr	r1, [r7, #4]	@ float
 1861 00e0 1846     		mov	r0, r3
 1862 00e2 FFF7FEFF 		bl	__aeabi_fcmpgt
 1863 00e6 0346     		mov	r3, r0
 1864 00e8 002B     		cmp	r3, #0
ARM GAS  C:\Users\JENNEW~1\AppData\Local\Temp\ccQ5uJSg.s 			page 37


 1865 00ea 02D0     		beq	.L163
 1866 00ec FB68     		ldr	r3, [r7, #12]
 1867 00ee 7A68     		ldr	r2, [r7, #4]	@ float
 1868 00f0 1A60     		str	r2, [r3]	@ float
 1869              	.L163:
 156:..\..\..\HamFlyAPI\src/hamfly_qx_protocol.c ****     }
 1870              		.loc 1 156 0 is_stmt 0 discriminator 3
 1871 00f2 FB68     		ldr	r3, [r7, #12]
 1872 00f4 1B68     		ldr	r3, [r3]	@ float
 1873 00f6 3968     		ldr	r1, [r7]	@ float
 1874 00f8 1846     		mov	r0, r3
 1875 00fa FFF7FEFF 		bl	__aeabi_fcmplt
 1876 00fe 0346     		mov	r3, r0
 1877 0100 002B     		cmp	r3, #0
 1878 0102 02D0     		beq	.L165
 156:..\..\..\HamFlyAPI\src/hamfly_qx_protocol.c ****     }
 1879              		.loc 1 156 0 discriminator 4
 1880 0104 FB68     		ldr	r3, [r7, #12]
 1881 0106 3A68     		ldr	r2, [r7]	@ float
 1882 0108 1A60     		str	r2, [r3]	@ float
 1883              	.L165:
 156:..\..\..\HamFlyAPI\src/hamfly_qx_protocol.c ****     }
 1884              		.loc 1 156 0 discriminator 6
 1885 010a FB68     		ldr	r3, [r7, #12]
 1886 010c 1B68     		ldr	r3, [r3]	@ float
 1887 010e 1946     		mov	r1, r3
 1888 0110 1846     		mov	r0, r3
 1889 0112 FFF7FEFF 		bl	__aeabi_fcmpun
 1890 0116 0346     		mov	r3, r0
 1891 0118 002B     		cmp	r3, #0
 1892 011a 03D0     		beq	.L167
 156:..\..\..\HamFlyAPI\src/hamfly_qx_protocol.c ****     }
 1893              		.loc 1 156 0 discriminator 7
 1894 011c FB68     		ldr	r3, [r7, #12]
 1895 011e 4FF00002 		mov	r2, #0
 1896 0122 1A60     		str	r2, [r3]	@ float
 1897              	.L167:
 156:..\..\..\HamFlyAPI\src/hamfly_qx_protocol.c ****     }
 1898              		.loc 1 156 0 discriminator 9
 1899 0124 FB68     		ldr	r3, [r7, #12]
 1900 0126 0433     		adds	r3, r3, #4
 1901 0128 FB60     		str	r3, [r7, #12]
 1902              	.L162:
 1903              	.LBE14:
 155:..\..\..\HamFlyAPI\src/hamfly_qx_protocol.c ****             if (max<*v)*v=max; if (*v<min)*v=min; if (isnan(*v))*v=0.0f; v++; }
 1904              		.loc 1 155 0 is_stmt 1
 1905 012a BB68     		ldr	r3, [r7, #8]
 1906 012c 5A1E     		subs	r2, r3, #1
 1907 012e BA60     		str	r2, [r7, #8]
 1908 0130 002B     		cmp	r3, #0
 1909 0132 BDD1     		bne	.L169
 1910              	.L176:
 1911              		.loc 1 158 0
 1912 0134 00BF     		nop
 1913 0136 1837     		adds	r7, r7, #24
 1914              		.cfi_def_cfa_offset 8
 1915 0138 BD46     		mov	sp, r7
ARM GAS  C:\Users\JENNEW~1\AppData\Local\Temp\ccQ5uJSg.s 			page 38


 1916              		.cfi_def_cfa_register 13
 1917              		@ sp needed
 1918 013a 80BD     		pop	{r7, pc}
 1919              	.L178:
 1920              		.align	2
 1921              	.L177:
 1922 013c 00000000 		.word	rw
 1923 0140 00000000 		.word	msgPtr
 1924              		.cfi_endproc
 1925              	.LFE17:
 1926              		.size	GetFloatAsUnsignedChar, .-GetFloatAsUnsignedChar
 1927              		.section	.text.GetFloatAsUnsignedShort,"ax",%progbits
 1928              		.align	2
 1929              		.global	GetFloatAsUnsignedShort
 1930              		.thumb
 1931              		.thumb_func
 1932              		.type	GetFloatAsUnsignedShort, %function
 1933              	GetFloatAsUnsignedShort:
 1934              	.LFB18:
 159:..\..\..\HamFlyAPI\src/hamfly_qx_protocol.c **** void GetFloatAsUnsignedShort(float *v, uint32_t n, float max, float min, float scalefrom) {
 1935              		.loc 1 159 0
 1936              		.cfi_startproc
 1937              		@ args = 4, pretend = 0, frame = 24
 1938              		@ frame_needed = 1, uses_anonymous_args = 0
 1939 0000 80B5     		push	{r7, lr}
 1940              		.cfi_def_cfa_offset 8
 1941              		.cfi_offset 7, -8
 1942              		.cfi_offset 14, -4
 1943 0002 86B0     		sub	sp, sp, #24
 1944              		.cfi_def_cfa_offset 32
 1945 0004 00AF     		add	r7, sp, #0
 1946              		.cfi_def_cfa_register 7
 1947 0006 F860     		str	r0, [r7, #12]
 1948 0008 B960     		str	r1, [r7, #8]
 1949 000a 7A60     		str	r2, [r7, #4]	@ float
 1950 000c 3B60     		str	r3, [r7]	@ float
 160:..\..\..\HamFlyAPI\src/hamfly_qx_protocol.c ****     if (rw == QB_Parser_Dir_WriteDel) {
 1951              		.loc 1 160 0
 1952 000e 574B     		ldr	r3, .L205
 1953 0010 1B78     		ldrb	r3, [r3]	@ zero_extendqisi2
 1954 0012 012B     		cmp	r3, #1
 1955 0014 40F0A080 		bne	.L190
 161:..\..\..\HamFlyAPI\src/hamfly_qx_protocol.c ****         while (n--) { float r = (float)GETUS; r *= scalefrom; *v += r;
 1956              		.loc 1 161 0
 1957 0018 4FE0     		b	.L181
 1958              	.L188:
 1959              	.LBB15:
 1960              		.loc 1 161 0 is_stmt 0 discriminator 1
 1961 001a 554B     		ldr	r3, .L205+4
 1962 001c 1B68     		ldr	r3, [r3]
 1963 001e 1B78     		ldrb	r3, [r3]
 1964 0020 DBB2     		uxtb	r3, r3
 1965 0022 9BB2     		uxth	r3, r3
 1966 0024 1B02     		lsls	r3, r3, #8
 1967 0026 9BB2     		uxth	r3, r3
 1968 0028 1A46     		mov	r2, r3
 1969 002a 514B     		ldr	r3, .L205+4
ARM GAS  C:\Users\JENNEW~1\AppData\Local\Temp\ccQ5uJSg.s 			page 39


 1970 002c 1B68     		ldr	r3, [r3]
 1971 002e 0133     		adds	r3, r3, #1
 1972 0030 1B78     		ldrb	r3, [r3]
 1973 0032 DBB2     		uxtb	r3, r3
 1974 0034 1343     		orrs	r3, r3, r2
 1975 0036 1846     		mov	r0, r3
 1976 0038 FFF7FEFF 		bl	__aeabi_i2f
 1977 003c 0346     		mov	r3, r0
 1978 003e 7B61     		str	r3, [r7, #20]	@ float
 1979 0040 4B4B     		ldr	r3, .L205+4
 1980 0042 1B68     		ldr	r3, [r3]
 1981 0044 0233     		adds	r3, r3, #2
 1982 0046 4A4A     		ldr	r2, .L205+4
 1983 0048 1360     		str	r3, [r2]
 1984 004a 396A     		ldr	r1, [r7, #32]	@ float
 1985 004c 7869     		ldr	r0, [r7, #20]	@ float
 1986 004e FFF7FEFF 		bl	__aeabi_fmul
 1987 0052 0346     		mov	r3, r0
 1988 0054 7B61     		str	r3, [r7, #20]	@ float
 1989 0056 FB68     		ldr	r3, [r7, #12]
 1990 0058 1B68     		ldr	r3, [r3]	@ float
 1991 005a 7969     		ldr	r1, [r7, #20]	@ float
 1992 005c 1846     		mov	r0, r3
 1993 005e FFF7FEFF 		bl	__aeabi_fadd
 1994 0062 0346     		mov	r3, r0
 1995 0064 1A46     		mov	r2, r3
 1996 0066 FB68     		ldr	r3, [r7, #12]
 1997 0068 1A60     		str	r2, [r3]	@ float
 162:..\..\..\HamFlyAPI\src/hamfly_qx_protocol.c ****             if (max<*v)*v=max; if (*v<min)*v=min; if (isnan(*v))*v=0.0f; v++; }
 1998              		.loc 1 162 0 is_stmt 1 discriminator 1
 1999 006a FB68     		ldr	r3, [r7, #12]
 2000 006c 1B68     		ldr	r3, [r3]	@ float
 2001 006e 7968     		ldr	r1, [r7, #4]	@ float
 2002 0070 1846     		mov	r0, r3
 2003 0072 FFF7FEFF 		bl	__aeabi_fcmpgt
 2004 0076 0346     		mov	r3, r0
 2005 0078 002B     		cmp	r3, #0
 2006 007a 02D0     		beq	.L182
 2007 007c FB68     		ldr	r3, [r7, #12]
 2008 007e 7A68     		ldr	r2, [r7, #4]	@ float
 2009 0080 1A60     		str	r2, [r3]	@ float
 2010              	.L182:
 2011              		.loc 1 162 0 is_stmt 0 discriminator 3
 2012 0082 FB68     		ldr	r3, [r7, #12]
 2013 0084 1B68     		ldr	r3, [r3]	@ float
 2014 0086 3968     		ldr	r1, [r7]	@ float
 2015 0088 1846     		mov	r0, r3
 2016 008a FFF7FEFF 		bl	__aeabi_fcmplt
 2017 008e 0346     		mov	r3, r0
 2018 0090 002B     		cmp	r3, #0
 2019 0092 02D0     		beq	.L184
 2020              		.loc 1 162 0 discriminator 4
 2021 0094 FB68     		ldr	r3, [r7, #12]
 2022 0096 3A68     		ldr	r2, [r7]	@ float
 2023 0098 1A60     		str	r2, [r3]	@ float
 2024              	.L184:
 2025              		.loc 1 162 0 discriminator 6
ARM GAS  C:\Users\JENNEW~1\AppData\Local\Temp\ccQ5uJSg.s 			page 40


 2026 009a FB68     		ldr	r3, [r7, #12]
 2027 009c 1B68     		ldr	r3, [r3]	@ float
 2028 009e 1946     		mov	r1, r3
 2029 00a0 1846     		mov	r0, r3
 2030 00a2 FFF7FEFF 		bl	__aeabi_fcmpun
 2031 00a6 0346     		mov	r3, r0
 2032 00a8 002B     		cmp	r3, #0
 2033 00aa 03D0     		beq	.L186
 2034              		.loc 1 162 0 discriminator 7
 2035 00ac FB68     		ldr	r3, [r7, #12]
 2036 00ae 4FF00002 		mov	r2, #0
 2037 00b2 1A60     		str	r2, [r3]	@ float
 2038              	.L186:
 2039              		.loc 1 162 0 discriminator 9
 2040 00b4 FB68     		ldr	r3, [r7, #12]
 2041 00b6 0433     		adds	r3, r3, #4
 2042 00b8 FB60     		str	r3, [r7, #12]
 2043              	.L181:
 2044              	.LBE15:
 161:..\..\..\HamFlyAPI\src/hamfly_qx_protocol.c ****         while (n--) { float r = (float)GETUS; r *= scalefrom; *v += r;
 2045              		.loc 1 161 0 is_stmt 1
 2046 00ba BB68     		ldr	r3, [r7, #8]
 2047 00bc 5A1E     		subs	r2, r3, #1
 2048 00be BA60     		str	r2, [r7, #8]
 2049 00c0 002B     		cmp	r3, #0
 2050 00c2 AAD1     		bne	.L188
 163:..\..\..\HamFlyAPI\src/hamfly_qx_protocol.c ****     } else {
 164:..\..\..\HamFlyAPI\src/hamfly_qx_protocol.c ****         while (n--) { float r = (float)GETUS; r *= scalefrom; *v = r;
 165:..\..\..\HamFlyAPI\src/hamfly_qx_protocol.c ****             if (max<*v)*v=max; if (*v<min)*v=min; if (isnan(*v))*v=0.0f; v++; }
 166:..\..\..\HamFlyAPI\src/hamfly_qx_protocol.c ****     }
 167:..\..\..\HamFlyAPI\src/hamfly_qx_protocol.c **** }
 2051              		.loc 1 167 0
 2052 00c4 4DE0     		b	.L204
 2053              	.L197:
 2054              	.LBB16:
 164:..\..\..\HamFlyAPI\src/hamfly_qx_protocol.c ****             if (max<*v)*v=max; if (*v<min)*v=min; if (isnan(*v))*v=0.0f; v++; }
 2055              		.loc 1 164 0 discriminator 1
 2056 00c6 2A4B     		ldr	r3, .L205+4
 2057 00c8 1B68     		ldr	r3, [r3]
 2058 00ca 1B78     		ldrb	r3, [r3]
 2059 00cc DBB2     		uxtb	r3, r3
 2060 00ce 9BB2     		uxth	r3, r3
 2061 00d0 1B02     		lsls	r3, r3, #8
 2062 00d2 9BB2     		uxth	r3, r3
 2063 00d4 1A46     		mov	r2, r3
 2064 00d6 264B     		ldr	r3, .L205+4
 2065 00d8 1B68     		ldr	r3, [r3]
 2066 00da 0133     		adds	r3, r3, #1
 2067 00dc 1B78     		ldrb	r3, [r3]
 2068 00de DBB2     		uxtb	r3, r3
 2069 00e0 1343     		orrs	r3, r3, r2
 2070 00e2 1846     		mov	r0, r3
 2071 00e4 FFF7FEFF 		bl	__aeabi_i2f
 2072 00e8 0346     		mov	r3, r0
 2073 00ea 3B61     		str	r3, [r7, #16]	@ float
 2074 00ec 204B     		ldr	r3, .L205+4
 2075 00ee 1B68     		ldr	r3, [r3]
ARM GAS  C:\Users\JENNEW~1\AppData\Local\Temp\ccQ5uJSg.s 			page 41


 2076 00f0 0233     		adds	r3, r3, #2
 2077 00f2 1F4A     		ldr	r2, .L205+4
 2078 00f4 1360     		str	r3, [r2]
 2079 00f6 396A     		ldr	r1, [r7, #32]	@ float
 2080 00f8 3869     		ldr	r0, [r7, #16]	@ float
 2081 00fa FFF7FEFF 		bl	__aeabi_fmul
 2082 00fe 0346     		mov	r3, r0
 2083 0100 3B61     		str	r3, [r7, #16]	@ float
 2084 0102 FB68     		ldr	r3, [r7, #12]
 2085 0104 3A69     		ldr	r2, [r7, #16]	@ float
 2086 0106 1A60     		str	r2, [r3]	@ float
 165:..\..\..\HamFlyAPI\src/hamfly_qx_protocol.c ****     }
 2087              		.loc 1 165 0 discriminator 1
 2088 0108 FB68     		ldr	r3, [r7, #12]
 2089 010a 1B68     		ldr	r3, [r3]	@ float
 2090 010c 7968     		ldr	r1, [r7, #4]	@ float
 2091 010e 1846     		mov	r0, r3
 2092 0110 FFF7FEFF 		bl	__aeabi_fcmpgt
 2093 0114 0346     		mov	r3, r0
 2094 0116 002B     		cmp	r3, #0
 2095 0118 02D0     		beq	.L191
 2096 011a FB68     		ldr	r3, [r7, #12]
 2097 011c 7A68     		ldr	r2, [r7, #4]	@ float
 2098 011e 1A60     		str	r2, [r3]	@ float
 2099              	.L191:
 165:..\..\..\HamFlyAPI\src/hamfly_qx_protocol.c ****     }
 2100              		.loc 1 165 0 is_stmt 0 discriminator 3
 2101 0120 FB68     		ldr	r3, [r7, #12]
 2102 0122 1B68     		ldr	r3, [r3]	@ float
 2103 0124 3968     		ldr	r1, [r7]	@ float
 2104 0126 1846     		mov	r0, r3
 2105 0128 FFF7FEFF 		bl	__aeabi_fcmplt
 2106 012c 0346     		mov	r3, r0
 2107 012e 002B     		cmp	r3, #0
 2108 0130 02D0     		beq	.L193
 165:..\..\..\HamFlyAPI\src/hamfly_qx_protocol.c ****     }
 2109              		.loc 1 165 0 discriminator 4
 2110 0132 FB68     		ldr	r3, [r7, #12]
 2111 0134 3A68     		ldr	r2, [r7]	@ float
 2112 0136 1A60     		str	r2, [r3]	@ float
 2113              	.L193:
 165:..\..\..\HamFlyAPI\src/hamfly_qx_protocol.c ****     }
 2114              		.loc 1 165 0 discriminator 6
 2115 0138 FB68     		ldr	r3, [r7, #12]
 2116 013a 1B68     		ldr	r3, [r3]	@ float
 2117 013c 1946     		mov	r1, r3
 2118 013e 1846     		mov	r0, r3
 2119 0140 FFF7FEFF 		bl	__aeabi_fcmpun
 2120 0144 0346     		mov	r3, r0
 2121 0146 002B     		cmp	r3, #0
 2122 0148 03D0     		beq	.L195
 165:..\..\..\HamFlyAPI\src/hamfly_qx_protocol.c ****     }
 2123              		.loc 1 165 0 discriminator 7
 2124 014a FB68     		ldr	r3, [r7, #12]
 2125 014c 4FF00002 		mov	r2, #0
 2126 0150 1A60     		str	r2, [r3]	@ float
 2127              	.L195:
ARM GAS  C:\Users\JENNEW~1\AppData\Local\Temp\ccQ5uJSg.s 			page 42


 165:..\..\..\HamFlyAPI\src/hamfly_qx_protocol.c ****     }
 2128              		.loc 1 165 0 discriminator 9
 2129 0152 FB68     		ldr	r3, [r7, #12]
 2130 0154 0433     		adds	r3, r3, #4
 2131 0156 FB60     		str	r3, [r7, #12]
 2132              	.L190:
 2133              	.LBE16:
 164:..\..\..\HamFlyAPI\src/hamfly_qx_protocol.c ****             if (max<*v)*v=max; if (*v<min)*v=min; if (isnan(*v))*v=0.0f; v++; }
 2134              		.loc 1 164 0 is_stmt 1
 2135 0158 BB68     		ldr	r3, [r7, #8]
 2136 015a 5A1E     		subs	r2, r3, #1
 2137 015c BA60     		str	r2, [r7, #8]
 2138 015e 002B     		cmp	r3, #0
 2139 0160 B1D1     		bne	.L197
 2140              	.L204:
 2141              		.loc 1 167 0
 2142 0162 00BF     		nop
 2143 0164 1837     		adds	r7, r7, #24
 2144              		.cfi_def_cfa_offset 8
 2145 0166 BD46     		mov	sp, r7
 2146              		.cfi_def_cfa_register 13
 2147              		@ sp needed
 2148 0168 80BD     		pop	{r7, pc}
 2149              	.L206:
 2150 016a 00BF     		.align	2
 2151              	.L205:
 2152 016c 00000000 		.word	rw
 2153 0170 00000000 		.word	msgPtr
 2154              		.cfi_endproc
 2155              	.LFE18:
 2156              		.size	GetFloatAsUnsignedShort, .-GetFloatAsUnsignedShort
 2157              		.section	.text.AddSignedLongAsSignedLong,"ax",%progbits
 2158              		.align	2
 2159              		.global	AddSignedLongAsSignedLong
 2160              		.thumb
 2161              		.thumb_func
 2162              		.type	AddSignedLongAsSignedLong, %function
 2163              	AddSignedLongAsSignedLong:
 2164              	.LFB19:
 168:..\..\..\HamFlyAPI\src/hamfly_qx_protocol.c **** 
 169:..\..\..\HamFlyAPI\src/hamfly_qx_protocol.c **** void AddSignedLongAsSignedLong(int32_t *v, uint32_t n) {
 2165              		.loc 1 169 0
 2166              		.cfi_startproc
 2167              		@ args = 0, pretend = 0, frame = 16
 2168              		@ frame_needed = 1, uses_anonymous_args = 0
 2169              		@ link register save eliminated.
 2170 0000 80B4     		push	{r7}
 2171              		.cfi_def_cfa_offset 4
 2172              		.cfi_offset 7, -4
 2173 0002 85B0     		sub	sp, sp, #20
 2174              		.cfi_def_cfa_offset 24
 2175 0004 00AF     		add	r7, sp, #0
 2176              		.cfi_def_cfa_register 7
 2177 0006 7860     		str	r0, [r7, #4]
 2178 0008 3960     		str	r1, [r7]
 170:..\..\..\HamFlyAPI\src/hamfly_qx_protocol.c ****     while (n--) { int32_t val = *v; ADDSL(val); v++; }
 2179              		.loc 1 170 0
ARM GAS  C:\Users\JENNEW~1\AppData\Local\Temp\ccQ5uJSg.s 			page 43


 2180 000a 28E0     		b	.L208
 2181              	.L209:
 2182              	.LBB17:
 2183              		.loc 1 170 0 is_stmt 0 discriminator 2
 2184 000c 7B68     		ldr	r3, [r7, #4]
 2185 000e 1B68     		ldr	r3, [r3]
 2186 0010 FB60     		str	r3, [r7, #12]
 2187 0012 184B     		ldr	r3, .L210
 2188 0014 1B68     		ldr	r3, [r3]
 2189 0016 5A1C     		adds	r2, r3, #1
 2190 0018 1649     		ldr	r1, .L210
 2191 001a 0A60     		str	r2, [r1]
 2192 001c FA68     		ldr	r2, [r7, #12]
 2193 001e 1216     		asrs	r2, r2, #24
 2194 0020 D2B2     		uxtb	r2, r2
 2195 0022 1A70     		strb	r2, [r3]
 2196 0024 134B     		ldr	r3, .L210
 2197 0026 1B68     		ldr	r3, [r3]
 2198 0028 5A1C     		adds	r2, r3, #1
 2199 002a 1249     		ldr	r1, .L210
 2200 002c 0A60     		str	r2, [r1]
 2201 002e FA68     		ldr	r2, [r7, #12]
 2202 0030 1214     		asrs	r2, r2, #16
 2203 0032 D2B2     		uxtb	r2, r2
 2204 0034 1A70     		strb	r2, [r3]
 2205 0036 0F4B     		ldr	r3, .L210
 2206 0038 1B68     		ldr	r3, [r3]
 2207 003a 5A1C     		adds	r2, r3, #1
 2208 003c 0D49     		ldr	r1, .L210
 2209 003e 0A60     		str	r2, [r1]
 2210 0040 FA68     		ldr	r2, [r7, #12]
 2211 0042 1212     		asrs	r2, r2, #8
 2212 0044 D2B2     		uxtb	r2, r2
 2213 0046 1A70     		strb	r2, [r3]
 2214 0048 0A4B     		ldr	r3, .L210
 2215 004a 1B68     		ldr	r3, [r3]
 2216 004c 5A1C     		adds	r2, r3, #1
 2217 004e 0949     		ldr	r1, .L210
 2218 0050 0A60     		str	r2, [r1]
 2219 0052 FA68     		ldr	r2, [r7, #12]
 2220 0054 D2B2     		uxtb	r2, r2
 2221 0056 1A70     		strb	r2, [r3]
 2222 0058 7B68     		ldr	r3, [r7, #4]
 2223 005a 0433     		adds	r3, r3, #4
 2224 005c 7B60     		str	r3, [r7, #4]
 2225              	.L208:
 2226              	.LBE17:
 2227              		.loc 1 170 0 discriminator 1
 2228 005e 3B68     		ldr	r3, [r7]
 2229 0060 5A1E     		subs	r2, r3, #1
 2230 0062 3A60     		str	r2, [r7]
 2231 0064 002B     		cmp	r3, #0
 2232 0066 D1D1     		bne	.L209
 171:..\..\..\HamFlyAPI\src/hamfly_qx_protocol.c **** }
 2233              		.loc 1 171 0 is_stmt 1
 2234 0068 00BF     		nop
 2235 006a 1437     		adds	r7, r7, #20
ARM GAS  C:\Users\JENNEW~1\AppData\Local\Temp\ccQ5uJSg.s 			page 44


 2236              		.cfi_def_cfa_offset 4
 2237 006c BD46     		mov	sp, r7
 2238              		.cfi_def_cfa_register 13
 2239              		@ sp needed
 2240 006e 80BC     		pop	{r7}
 2241              		.cfi_restore 7
 2242              		.cfi_def_cfa_offset 0
 2243 0070 7047     		bx	lr
 2244              	.L211:
 2245 0072 00BF     		.align	2
 2246              	.L210:
 2247 0074 00000000 		.word	msgPtr
 2248              		.cfi_endproc
 2249              	.LFE19:
 2250              		.size	AddSignedLongAsSignedLong, .-AddSignedLongAsSignedLong
 2251              		.section	.text.AddSignedLongAsSignedShort,"ax",%progbits
 2252              		.align	2
 2253              		.global	AddSignedLongAsSignedShort
 2254              		.thumb
 2255              		.thumb_func
 2256              		.type	AddSignedLongAsSignedShort, %function
 2257              	AddSignedLongAsSignedShort:
 2258              	.LFB20:
 172:..\..\..\HamFlyAPI\src/hamfly_qx_protocol.c **** void AddSignedLongAsSignedShort(int32_t *v, uint32_t n) {
 2259              		.loc 1 172 0
 2260              		.cfi_startproc
 2261              		@ args = 0, pretend = 0, frame = 16
 2262              		@ frame_needed = 1, uses_anonymous_args = 0
 2263              		@ link register save eliminated.
 2264 0000 80B4     		push	{r7}
 2265              		.cfi_def_cfa_offset 4
 2266              		.cfi_offset 7, -4
 2267 0002 85B0     		sub	sp, sp, #20
 2268              		.cfi_def_cfa_offset 24
 2269 0004 00AF     		add	r7, sp, #0
 2270              		.cfi_def_cfa_register 7
 2271 0006 7860     		str	r0, [r7, #4]
 2272 0008 3960     		str	r1, [r7]
 173:..\..\..\HamFlyAPI\src/hamfly_qx_protocol.c ****     while (n--) { int16_t val = (int16_t)*v; ADDSS(val); v++; }
 2273              		.loc 1 173 0
 2274 000a 18E0     		b	.L213
 2275              	.L214:
 2276              	.LBB18:
 2277              		.loc 1 173 0 is_stmt 0 discriminator 2
 2278 000c 7B68     		ldr	r3, [r7, #4]
 2279 000e 1B68     		ldr	r3, [r3]
 2280 0010 FB81     		strh	r3, [r7, #14]	@ movhi
 2281 0012 104B     		ldr	r3, .L215
 2282 0014 1B68     		ldr	r3, [r3]
 2283 0016 5A1C     		adds	r2, r3, #1
 2284 0018 0E49     		ldr	r1, .L215
 2285 001a 0A60     		str	r2, [r1]
 2286 001c B7F90E20 		ldrsh	r2, [r7, #14]
 2287 0020 1212     		asrs	r2, r2, #8
 2288 0022 12B2     		sxth	r2, r2
 2289 0024 D2B2     		uxtb	r2, r2
 2290 0026 1A70     		strb	r2, [r3]
ARM GAS  C:\Users\JENNEW~1\AppData\Local\Temp\ccQ5uJSg.s 			page 45


 2291 0028 0A4B     		ldr	r3, .L215
 2292 002a 1B68     		ldr	r3, [r3]
 2293 002c 5A1C     		adds	r2, r3, #1
 2294 002e 0949     		ldr	r1, .L215
 2295 0030 0A60     		str	r2, [r1]
 2296 0032 FA89     		ldrh	r2, [r7, #14]	@ movhi
 2297 0034 D2B2     		uxtb	r2, r2
 2298 0036 1A70     		strb	r2, [r3]
 2299 0038 7B68     		ldr	r3, [r7, #4]
 2300 003a 0433     		adds	r3, r3, #4
 2301 003c 7B60     		str	r3, [r7, #4]
 2302              	.L213:
 2303              	.LBE18:
 2304              		.loc 1 173 0 discriminator 1
 2305 003e 3B68     		ldr	r3, [r7]
 2306 0040 5A1E     		subs	r2, r3, #1
 2307 0042 3A60     		str	r2, [r7]
 2308 0044 002B     		cmp	r3, #0
 2309 0046 E1D1     		bne	.L214
 174:..\..\..\HamFlyAPI\src/hamfly_qx_protocol.c **** }
 2310              		.loc 1 174 0 is_stmt 1
 2311 0048 00BF     		nop
 2312 004a 1437     		adds	r7, r7, #20
 2313              		.cfi_def_cfa_offset 4
 2314 004c BD46     		mov	sp, r7
 2315              		.cfi_def_cfa_register 13
 2316              		@ sp needed
 2317 004e 80BC     		pop	{r7}
 2318              		.cfi_restore 7
 2319              		.cfi_def_cfa_offset 0
 2320 0050 7047     		bx	lr
 2321              	.L216:
 2322 0052 00BF     		.align	2
 2323              	.L215:
 2324 0054 00000000 		.word	msgPtr
 2325              		.cfi_endproc
 2326              	.LFE20:
 2327              		.size	AddSignedLongAsSignedShort, .-AddSignedLongAsSignedShort
 2328              		.section	.text.AddSignedLongAsSignedChar,"ax",%progbits
 2329              		.align	2
 2330              		.global	AddSignedLongAsSignedChar
 2331              		.thumb
 2332              		.thumb_func
 2333              		.type	AddSignedLongAsSignedChar, %function
 2334              	AddSignedLongAsSignedChar:
 2335              	.LFB21:
 175:..\..\..\HamFlyAPI\src/hamfly_qx_protocol.c **** void AddSignedLongAsSignedChar(int32_t *v, uint32_t n) {
 2336              		.loc 1 175 0
 2337              		.cfi_startproc
 2338              		@ args = 0, pretend = 0, frame = 16
 2339              		@ frame_needed = 1, uses_anonymous_args = 0
 2340              		@ link register save eliminated.
 2341 0000 80B4     		push	{r7}
 2342              		.cfi_def_cfa_offset 4
 2343              		.cfi_offset 7, -4
 2344 0002 85B0     		sub	sp, sp, #20
 2345              		.cfi_def_cfa_offset 24
ARM GAS  C:\Users\JENNEW~1\AppData\Local\Temp\ccQ5uJSg.s 			page 46


 2346 0004 00AF     		add	r7, sp, #0
 2347              		.cfi_def_cfa_register 7
 2348 0006 7860     		str	r0, [r7, #4]
 2349 0008 3960     		str	r1, [r7]
 176:..\..\..\HamFlyAPI\src/hamfly_qx_protocol.c ****     while (n--) { int8_t val = (int8_t)*v; ADDCHAR(val); v++; }
 2350              		.loc 1 176 0
 2351 000a 0CE0     		b	.L218
 2352              	.L219:
 2353              	.LBB19:
 2354              		.loc 1 176 0 is_stmt 0 discriminator 2
 2355 000c 7B68     		ldr	r3, [r7, #4]
 2356 000e 1B68     		ldr	r3, [r3]
 2357 0010 FB73     		strb	r3, [r7, #15]
 2358 0012 0A4B     		ldr	r3, .L220
 2359 0014 1B68     		ldr	r3, [r3]
 2360 0016 5A1C     		adds	r2, r3, #1
 2361 0018 0849     		ldr	r1, .L220
 2362 001a 0A60     		str	r2, [r1]
 2363 001c FA7B     		ldrb	r2, [r7, #15]	@ zero_extendqisi2
 2364 001e 1A70     		strb	r2, [r3]
 2365 0020 7B68     		ldr	r3, [r7, #4]
 2366 0022 0433     		adds	r3, r3, #4
 2367 0024 7B60     		str	r3, [r7, #4]
 2368              	.L218:
 2369              	.LBE19:
 2370              		.loc 1 176 0 discriminator 1
 2371 0026 3B68     		ldr	r3, [r7]
 2372 0028 5A1E     		subs	r2, r3, #1
 2373 002a 3A60     		str	r2, [r7]
 2374 002c 002B     		cmp	r3, #0
 2375 002e EDD1     		bne	.L219
 177:..\..\..\HamFlyAPI\src/hamfly_qx_protocol.c **** }
 2376              		.loc 1 177 0 is_stmt 1
 2377 0030 00BF     		nop
 2378 0032 1437     		adds	r7, r7, #20
 2379              		.cfi_def_cfa_offset 4
 2380 0034 BD46     		mov	sp, r7
 2381              		.cfi_def_cfa_register 13
 2382              		@ sp needed
 2383 0036 80BC     		pop	{r7}
 2384              		.cfi_restore 7
 2385              		.cfi_def_cfa_offset 0
 2386 0038 7047     		bx	lr
 2387              	.L221:
 2388 003a 00BF     		.align	2
 2389              	.L220:
 2390 003c 00000000 		.word	msgPtr
 2391              		.cfi_endproc
 2392              	.LFE21:
 2393              		.size	AddSignedLongAsSignedChar, .-AddSignedLongAsSignedChar
 2394              		.section	.text.AddSignedLongAsUnsignedChar,"ax",%progbits
 2395              		.align	2
 2396              		.global	AddSignedLongAsUnsignedChar
 2397              		.thumb
 2398              		.thumb_func
 2399              		.type	AddSignedLongAsUnsignedChar, %function
 2400              	AddSignedLongAsUnsignedChar:
ARM GAS  C:\Users\JENNEW~1\AppData\Local\Temp\ccQ5uJSg.s 			page 47


 2401              	.LFB22:
 178:..\..\..\HamFlyAPI\src/hamfly_qx_protocol.c **** void AddSignedLongAsUnsignedChar(int32_t *v, uint32_t n) {
 2402              		.loc 1 178 0
 2403              		.cfi_startproc
 2404              		@ args = 0, pretend = 0, frame = 16
 2405              		@ frame_needed = 1, uses_anonymous_args = 0
 2406              		@ link register save eliminated.
 2407 0000 80B4     		push	{r7}
 2408              		.cfi_def_cfa_offset 4
 2409              		.cfi_offset 7, -4
 2410 0002 85B0     		sub	sp, sp, #20
 2411              		.cfi_def_cfa_offset 24
 2412 0004 00AF     		add	r7, sp, #0
 2413              		.cfi_def_cfa_register 7
 2414 0006 7860     		str	r0, [r7, #4]
 2415 0008 3960     		str	r1, [r7]
 179:..\..\..\HamFlyAPI\src/hamfly_qx_protocol.c ****     while (n--) { uint8_t val = (uint8_t)*v; ADDCHAR(val); v++; }
 2416              		.loc 1 179 0
 2417 000a 0CE0     		b	.L223
 2418              	.L224:
 2419              	.LBB20:
 2420              		.loc 1 179 0 is_stmt 0 discriminator 2
 2421 000c 7B68     		ldr	r3, [r7, #4]
 2422 000e 1B68     		ldr	r3, [r3]
 2423 0010 FB73     		strb	r3, [r7, #15]
 2424 0012 0A4B     		ldr	r3, .L225
 2425 0014 1B68     		ldr	r3, [r3]
 2426 0016 5A1C     		adds	r2, r3, #1
 2427 0018 0849     		ldr	r1, .L225
 2428 001a 0A60     		str	r2, [r1]
 2429 001c FA7B     		ldrb	r2, [r7, #15]
 2430 001e 1A70     		strb	r2, [r3]
 2431 0020 7B68     		ldr	r3, [r7, #4]
 2432 0022 0433     		adds	r3, r3, #4
 2433 0024 7B60     		str	r3, [r7, #4]
 2434              	.L223:
 2435              	.LBE20:
 2436              		.loc 1 179 0 discriminator 1
 2437 0026 3B68     		ldr	r3, [r7]
 2438 0028 5A1E     		subs	r2, r3, #1
 2439 002a 3A60     		str	r2, [r7]
 2440 002c 002B     		cmp	r3, #0
 2441 002e EDD1     		bne	.L224
 180:..\..\..\HamFlyAPI\src/hamfly_qx_protocol.c **** }
 2442              		.loc 1 180 0 is_stmt 1
 2443 0030 00BF     		nop
 2444 0032 1437     		adds	r7, r7, #20
 2445              		.cfi_def_cfa_offset 4
 2446 0034 BD46     		mov	sp, r7
 2447              		.cfi_def_cfa_register 13
 2448              		@ sp needed
 2449 0036 80BC     		pop	{r7}
 2450              		.cfi_restore 7
 2451              		.cfi_def_cfa_offset 0
 2452 0038 7047     		bx	lr
 2453              	.L226:
 2454 003a 00BF     		.align	2
ARM GAS  C:\Users\JENNEW~1\AppData\Local\Temp\ccQ5uJSg.s 			page 48


 2455              	.L225:
 2456 003c 00000000 		.word	msgPtr
 2457              		.cfi_endproc
 2458              	.LFE22:
 2459              		.size	AddSignedLongAsUnsignedChar, .-AddSignedLongAsUnsignedChar
 2460              		.section	.text.GetSignedLongAsSignedLong,"ax",%progbits
 2461              		.align	2
 2462              		.global	GetSignedLongAsSignedLong
 2463              		.thumb
 2464              		.thumb_func
 2465              		.type	GetSignedLongAsSignedLong, %function
 2466              	GetSignedLongAsSignedLong:
 2467              	.LFB23:
 181:..\..\..\HamFlyAPI\src/hamfly_qx_protocol.c **** void GetSignedLongAsSignedLong(int32_t *v, uint32_t n, int32_t max, int32_t min) {
 2468              		.loc 1 181 0
 2469              		.cfi_startproc
 2470              		@ args = 0, pretend = 0, frame = 24
 2471              		@ frame_needed = 1, uses_anonymous_args = 0
 2472              		@ link register save eliminated.
 2473 0000 80B4     		push	{r7}
 2474              		.cfi_def_cfa_offset 4
 2475              		.cfi_offset 7, -4
 2476 0002 87B0     		sub	sp, sp, #28
 2477              		.cfi_def_cfa_offset 32
 2478 0004 00AF     		add	r7, sp, #0
 2479              		.cfi_def_cfa_register 7
 2480 0006 F860     		str	r0, [r7, #12]
 2481 0008 B960     		str	r1, [r7, #8]
 2482 000a 7A60     		str	r2, [r7, #4]
 2483 000c 3B60     		str	r3, [r7]
 182:..\..\..\HamFlyAPI\src/hamfly_qx_protocol.c ****     if (rw == QB_Parser_Dir_WriteDel) {
 2484              		.loc 1 182 0
 2485 000e 414B     		ldr	r3, .L239
 2486 0010 1B78     		ldrb	r3, [r3]	@ zero_extendqisi2
 2487 0012 012B     		cmp	r3, #1
 2488 0014 73D1     		bne	.L234
 183:..\..\..\HamFlyAPI\src/hamfly_qx_protocol.c ****         while (n--) { int32_t r = GETSL; *v += r; if (max<*v)*v=max; if (*v<min)*v=min; v++; }
 2489              		.loc 1 183 0
 2490 0016 37E0     		b	.L229
 2491              	.L232:
 2492              	.LBB21:
 2493              		.loc 1 183 0 is_stmt 0 discriminator 8
 2494 0018 3F4B     		ldr	r3, .L239+4
 2495 001a 1B68     		ldr	r3, [r3]
 2496 001c 1B78     		ldrb	r3, [r3]
 2497 001e DBB2     		uxtb	r3, r3
 2498 0020 1A06     		lsls	r2, r3, #24
 2499 0022 3D4B     		ldr	r3, .L239+4
 2500 0024 1B68     		ldr	r3, [r3]
 2501 0026 0133     		adds	r3, r3, #1
 2502 0028 1B78     		ldrb	r3, [r3]
 2503 002a DBB2     		uxtb	r3, r3
 2504 002c 1B04     		lsls	r3, r3, #16
 2505 002e 1A43     		orrs	r2, r2, r3
 2506 0030 394B     		ldr	r3, .L239+4
 2507 0032 1B68     		ldr	r3, [r3]
 2508 0034 0233     		adds	r3, r3, #2
ARM GAS  C:\Users\JENNEW~1\AppData\Local\Temp\ccQ5uJSg.s 			page 49


 2509 0036 1B78     		ldrb	r3, [r3]
 2510 0038 DBB2     		uxtb	r3, r3
 2511 003a 1B02     		lsls	r3, r3, #8
 2512 003c 1343     		orrs	r3, r3, r2
 2513 003e 364A     		ldr	r2, .L239+4
 2514 0040 1268     		ldr	r2, [r2]
 2515 0042 0332     		adds	r2, r2, #3
 2516 0044 1278     		ldrb	r2, [r2]
 2517 0046 D2B2     		uxtb	r2, r2
 2518 0048 1343     		orrs	r3, r3, r2
 2519 004a 7B61     		str	r3, [r7, #20]
 2520 004c 324B     		ldr	r3, .L239+4
 2521 004e 1B68     		ldr	r3, [r3]
 2522 0050 0433     		adds	r3, r3, #4
 2523 0052 314A     		ldr	r2, .L239+4
 2524 0054 1360     		str	r3, [r2]
 2525 0056 FB68     		ldr	r3, [r7, #12]
 2526 0058 1A68     		ldr	r2, [r3]
 2527 005a 7B69     		ldr	r3, [r7, #20]
 2528 005c 1A44     		add	r2, r2, r3
 2529 005e FB68     		ldr	r3, [r7, #12]
 2530 0060 1A60     		str	r2, [r3]
 2531 0062 FB68     		ldr	r3, [r7, #12]
 2532 0064 1A68     		ldr	r2, [r3]
 2533 0066 7B68     		ldr	r3, [r7, #4]
 2534 0068 9A42     		cmp	r2, r3
 2535 006a 02DD     		ble	.L230
 2536              		.loc 1 183 0 discriminator 1
 2537 006c FB68     		ldr	r3, [r7, #12]
 2538 006e 7A68     		ldr	r2, [r7, #4]
 2539 0070 1A60     		str	r2, [r3]
 2540              	.L230:
 2541              		.loc 1 183 0 discriminator 3
 2542 0072 FB68     		ldr	r3, [r7, #12]
 2543 0074 1A68     		ldr	r2, [r3]
 2544 0076 3B68     		ldr	r3, [r7]
 2545 0078 9A42     		cmp	r2, r3
 2546 007a 02DA     		bge	.L231
 2547              		.loc 1 183 0 discriminator 4
 2548 007c FB68     		ldr	r3, [r7, #12]
 2549 007e 3A68     		ldr	r2, [r7]
 2550 0080 1A60     		str	r2, [r3]
 2551              	.L231:
 2552              		.loc 1 183 0 discriminator 6
 2553 0082 FB68     		ldr	r3, [r7, #12]
 2554 0084 0433     		adds	r3, r3, #4
 2555 0086 FB60     		str	r3, [r7, #12]
 2556              	.L229:
 2557              	.LBE21:
 2558              		.loc 1 183 0 discriminator 7
 2559 0088 BB68     		ldr	r3, [r7, #8]
 2560 008a 5A1E     		subs	r2, r3, #1
 2561 008c BA60     		str	r2, [r7, #8]
 2562 008e 002B     		cmp	r3, #0
 2563 0090 C2D1     		bne	.L232
 184:..\..\..\HamFlyAPI\src/hamfly_qx_protocol.c ****     } else {
 185:..\..\..\HamFlyAPI\src/hamfly_qx_protocol.c ****         while (n--) { int32_t r = GETSL; *v  = r; if (max<*v)*v=max; if (*v<min)*v=min; v++; }
ARM GAS  C:\Users\JENNEW~1\AppData\Local\Temp\ccQ5uJSg.s 			page 50


 186:..\..\..\HamFlyAPI\src/hamfly_qx_protocol.c ****     }
 187:..\..\..\HamFlyAPI\src/hamfly_qx_protocol.c **** }
 2564              		.loc 1 187 0 is_stmt 1
 2565 0092 39E0     		b	.L238
 2566              	.L237:
 2567              	.LBB22:
 185:..\..\..\HamFlyAPI\src/hamfly_qx_protocol.c ****     }
 2568              		.loc 1 185 0 discriminator 8
 2569 0094 204B     		ldr	r3, .L239+4
 2570 0096 1B68     		ldr	r3, [r3]
 2571 0098 1B78     		ldrb	r3, [r3]
 2572 009a DBB2     		uxtb	r3, r3
 2573 009c 1A06     		lsls	r2, r3, #24
 2574 009e 1E4B     		ldr	r3, .L239+4
 2575 00a0 1B68     		ldr	r3, [r3]
 2576 00a2 0133     		adds	r3, r3, #1
 2577 00a4 1B78     		ldrb	r3, [r3]
 2578 00a6 DBB2     		uxtb	r3, r3
 2579 00a8 1B04     		lsls	r3, r3, #16
 2580 00aa 1A43     		orrs	r2, r2, r3
 2581 00ac 1A4B     		ldr	r3, .L239+4
 2582 00ae 1B68     		ldr	r3, [r3]
 2583 00b0 0233     		adds	r3, r3, #2
 2584 00b2 1B78     		ldrb	r3, [r3]
 2585 00b4 DBB2     		uxtb	r3, r3
 2586 00b6 1B02     		lsls	r3, r3, #8
 2587 00b8 1343     		orrs	r3, r3, r2
 2588 00ba 174A     		ldr	r2, .L239+4
 2589 00bc 1268     		ldr	r2, [r2]
 2590 00be 0332     		adds	r2, r2, #3
 2591 00c0 1278     		ldrb	r2, [r2]
 2592 00c2 D2B2     		uxtb	r2, r2
 2593 00c4 1343     		orrs	r3, r3, r2
 2594 00c6 3B61     		str	r3, [r7, #16]
 2595 00c8 134B     		ldr	r3, .L239+4
 2596 00ca 1B68     		ldr	r3, [r3]
 2597 00cc 0433     		adds	r3, r3, #4
 2598 00ce 124A     		ldr	r2, .L239+4
 2599 00d0 1360     		str	r3, [r2]
 2600 00d2 FB68     		ldr	r3, [r7, #12]
 2601 00d4 3A69     		ldr	r2, [r7, #16]
 2602 00d6 1A60     		str	r2, [r3]
 2603 00d8 FB68     		ldr	r3, [r7, #12]
 2604 00da 1A68     		ldr	r2, [r3]
 2605 00dc 7B68     		ldr	r3, [r7, #4]
 2606 00de 9A42     		cmp	r2, r3
 2607 00e0 02DD     		ble	.L235
 185:..\..\..\HamFlyAPI\src/hamfly_qx_protocol.c ****     }
 2608              		.loc 1 185 0 is_stmt 0 discriminator 1
 2609 00e2 FB68     		ldr	r3, [r7, #12]
 2610 00e4 7A68     		ldr	r2, [r7, #4]
 2611 00e6 1A60     		str	r2, [r3]
 2612              	.L235:
 185:..\..\..\HamFlyAPI\src/hamfly_qx_protocol.c ****     }
 2613              		.loc 1 185 0 discriminator 3
 2614 00e8 FB68     		ldr	r3, [r7, #12]
 2615 00ea 1A68     		ldr	r2, [r3]
ARM GAS  C:\Users\JENNEW~1\AppData\Local\Temp\ccQ5uJSg.s 			page 51


 2616 00ec 3B68     		ldr	r3, [r7]
 2617 00ee 9A42     		cmp	r2, r3
 2618 00f0 02DA     		bge	.L236
 185:..\..\..\HamFlyAPI\src/hamfly_qx_protocol.c ****     }
 2619              		.loc 1 185 0 discriminator 4
 2620 00f2 FB68     		ldr	r3, [r7, #12]
 2621 00f4 3A68     		ldr	r2, [r7]
 2622 00f6 1A60     		str	r2, [r3]
 2623              	.L236:
 185:..\..\..\HamFlyAPI\src/hamfly_qx_protocol.c ****     }
 2624              		.loc 1 185 0 discriminator 6
 2625 00f8 FB68     		ldr	r3, [r7, #12]
 2626 00fa 0433     		adds	r3, r3, #4
 2627 00fc FB60     		str	r3, [r7, #12]
 2628              	.L234:
 2629              	.LBE22:
 185:..\..\..\HamFlyAPI\src/hamfly_qx_protocol.c ****     }
 2630              		.loc 1 185 0 discriminator 7
 2631 00fe BB68     		ldr	r3, [r7, #8]
 2632 0100 5A1E     		subs	r2, r3, #1
 2633 0102 BA60     		str	r2, [r7, #8]
 2634 0104 002B     		cmp	r3, #0
 2635 0106 C5D1     		bne	.L237
 2636              	.L238:
 2637              		.loc 1 187 0 is_stmt 1
 2638 0108 00BF     		nop
 2639 010a 1C37     		adds	r7, r7, #28
 2640              		.cfi_def_cfa_offset 4
 2641 010c BD46     		mov	sp, r7
 2642              		.cfi_def_cfa_register 13
 2643              		@ sp needed
 2644 010e 80BC     		pop	{r7}
 2645              		.cfi_restore 7
 2646              		.cfi_def_cfa_offset 0
 2647 0110 7047     		bx	lr
 2648              	.L240:
 2649 0112 00BF     		.align	2
 2650              	.L239:
 2651 0114 00000000 		.word	rw
 2652 0118 00000000 		.word	msgPtr
 2653              		.cfi_endproc
 2654              	.LFE23:
 2655              		.size	GetSignedLongAsSignedLong, .-GetSignedLongAsSignedLong
 2656              		.section	.text.GetSignedLongAsSignedShort,"ax",%progbits
 2657              		.align	2
 2658              		.global	GetSignedLongAsSignedShort
 2659              		.thumb
 2660              		.thumb_func
 2661              		.type	GetSignedLongAsSignedShort, %function
 2662              	GetSignedLongAsSignedShort:
 2663              	.LFB24:
 188:..\..\..\HamFlyAPI\src/hamfly_qx_protocol.c **** void GetSignedLongAsSignedShort(int32_t *v, uint32_t n, int32_t max, int32_t min) {
 2664              		.loc 1 188 0
 2665              		.cfi_startproc
 2666              		@ args = 0, pretend = 0, frame = 24
 2667              		@ frame_needed = 1, uses_anonymous_args = 0
 2668              		@ link register save eliminated.
ARM GAS  C:\Users\JENNEW~1\AppData\Local\Temp\ccQ5uJSg.s 			page 52


 2669 0000 80B4     		push	{r7}
 2670              		.cfi_def_cfa_offset 4
 2671              		.cfi_offset 7, -4
 2672 0002 87B0     		sub	sp, sp, #28
 2673              		.cfi_def_cfa_offset 32
 2674 0004 00AF     		add	r7, sp, #0
 2675              		.cfi_def_cfa_register 7
 2676 0006 F860     		str	r0, [r7, #12]
 2677 0008 B960     		str	r1, [r7, #8]
 2678 000a 7A60     		str	r2, [r7, #4]
 2679 000c 3B60     		str	r3, [r7]
 189:..\..\..\HamFlyAPI\src/hamfly_qx_protocol.c ****     if (rw == QB_Parser_Dir_WriteDel) {
 2680              		.loc 1 189 0
 2681 000e 364B     		ldr	r3, .L253
 2682 0010 1B78     		ldrb	r3, [r3]	@ zero_extendqisi2
 2683 0012 012B     		cmp	r3, #1
 2684 0014 5DD1     		bne	.L248
 190:..\..\..\HamFlyAPI\src/hamfly_qx_protocol.c ****         while (n--) { int32_t r = (int32_t)(int16_t)GETSS; *v += r; if (max<*v)*v=max; if (*v<min)*
 2685              		.loc 1 190 0
 2686 0016 2CE0     		b	.L243
 2687              	.L246:
 2688              	.LBB23:
 2689              		.loc 1 190 0 is_stmt 0 discriminator 8
 2690 0018 344B     		ldr	r3, .L253+4
 2691 001a 1B68     		ldr	r3, [r3]
 2692 001c 1B78     		ldrb	r3, [r3]
 2693 001e DBB2     		uxtb	r3, r3
 2694 0020 1B02     		lsls	r3, r3, #8
 2695 0022 1AB2     		sxth	r2, r3
 2696 0024 314B     		ldr	r3, .L253+4
 2697 0026 1B68     		ldr	r3, [r3]
 2698 0028 0133     		adds	r3, r3, #1
 2699 002a 1B78     		ldrb	r3, [r3]
 2700 002c DBB2     		uxtb	r3, r3
 2701 002e 1BB2     		sxth	r3, r3
 2702 0030 1343     		orrs	r3, r3, r2
 2703 0032 1BB2     		sxth	r3, r3
 2704 0034 7B61     		str	r3, [r7, #20]
 2705 0036 2D4B     		ldr	r3, .L253+4
 2706 0038 1B68     		ldr	r3, [r3]
 2707 003a 0233     		adds	r3, r3, #2
 2708 003c 2B4A     		ldr	r2, .L253+4
 2709 003e 1360     		str	r3, [r2]
 2710 0040 FB68     		ldr	r3, [r7, #12]
 2711 0042 1A68     		ldr	r2, [r3]
 2712 0044 7B69     		ldr	r3, [r7, #20]
 2713 0046 1A44     		add	r2, r2, r3
 2714 0048 FB68     		ldr	r3, [r7, #12]
 2715 004a 1A60     		str	r2, [r3]
 2716 004c FB68     		ldr	r3, [r7, #12]
 2717 004e 1A68     		ldr	r2, [r3]
 2718 0050 7B68     		ldr	r3, [r7, #4]
 2719 0052 9A42     		cmp	r2, r3
 2720 0054 02DD     		ble	.L244
 2721              		.loc 1 190 0 discriminator 1
 2722 0056 FB68     		ldr	r3, [r7, #12]
 2723 0058 7A68     		ldr	r2, [r7, #4]
ARM GAS  C:\Users\JENNEW~1\AppData\Local\Temp\ccQ5uJSg.s 			page 53


 2724 005a 1A60     		str	r2, [r3]
 2725              	.L244:
 2726              		.loc 1 190 0 discriminator 3
 2727 005c FB68     		ldr	r3, [r7, #12]
 2728 005e 1A68     		ldr	r2, [r3]
 2729 0060 3B68     		ldr	r3, [r7]
 2730 0062 9A42     		cmp	r2, r3
 2731 0064 02DA     		bge	.L245
 2732              		.loc 1 190 0 discriminator 4
 2733 0066 FB68     		ldr	r3, [r7, #12]
 2734 0068 3A68     		ldr	r2, [r7]
 2735 006a 1A60     		str	r2, [r3]
 2736              	.L245:
 2737              		.loc 1 190 0 discriminator 6
 2738 006c FB68     		ldr	r3, [r7, #12]
 2739 006e 0433     		adds	r3, r3, #4
 2740 0070 FB60     		str	r3, [r7, #12]
 2741              	.L243:
 2742              	.LBE23:
 2743              		.loc 1 190 0 discriminator 7
 2744 0072 BB68     		ldr	r3, [r7, #8]
 2745 0074 5A1E     		subs	r2, r3, #1
 2746 0076 BA60     		str	r2, [r7, #8]
 2747 0078 002B     		cmp	r3, #0
 2748 007a CDD1     		bne	.L246
 191:..\..\..\HamFlyAPI\src/hamfly_qx_protocol.c ****     } else {
 192:..\..\..\HamFlyAPI\src/hamfly_qx_protocol.c ****         while (n--) { int32_t r = (int32_t)(int16_t)GETSS; *v  = r; if (max<*v)*v=max; if (*v<min)*
 193:..\..\..\HamFlyAPI\src/hamfly_qx_protocol.c ****     }
 194:..\..\..\HamFlyAPI\src/hamfly_qx_protocol.c **** }
 2749              		.loc 1 194 0 is_stmt 1
 2750 007c 2EE0     		b	.L252
 2751              	.L251:
 2752              	.LBB24:
 192:..\..\..\HamFlyAPI\src/hamfly_qx_protocol.c ****     }
 2753              		.loc 1 192 0 discriminator 8
 2754 007e 1B4B     		ldr	r3, .L253+4
 2755 0080 1B68     		ldr	r3, [r3]
 2756 0082 1B78     		ldrb	r3, [r3]
 2757 0084 DBB2     		uxtb	r3, r3
 2758 0086 1B02     		lsls	r3, r3, #8
 2759 0088 1AB2     		sxth	r2, r3
 2760 008a 184B     		ldr	r3, .L253+4
 2761 008c 1B68     		ldr	r3, [r3]
 2762 008e 0133     		adds	r3, r3, #1
 2763 0090 1B78     		ldrb	r3, [r3]
 2764 0092 DBB2     		uxtb	r3, r3
 2765 0094 1BB2     		sxth	r3, r3
 2766 0096 1343     		orrs	r3, r3, r2
 2767 0098 1BB2     		sxth	r3, r3
 2768 009a 3B61     		str	r3, [r7, #16]
 2769 009c 134B     		ldr	r3, .L253+4
 2770 009e 1B68     		ldr	r3, [r3]
 2771 00a0 0233     		adds	r3, r3, #2
 2772 00a2 124A     		ldr	r2, .L253+4
 2773 00a4 1360     		str	r3, [r2]
 2774 00a6 FB68     		ldr	r3, [r7, #12]
 2775 00a8 3A69     		ldr	r2, [r7, #16]
ARM GAS  C:\Users\JENNEW~1\AppData\Local\Temp\ccQ5uJSg.s 			page 54


 2776 00aa 1A60     		str	r2, [r3]
 2777 00ac FB68     		ldr	r3, [r7, #12]
 2778 00ae 1A68     		ldr	r2, [r3]
 2779 00b0 7B68     		ldr	r3, [r7, #4]
 2780 00b2 9A42     		cmp	r2, r3
 2781 00b4 02DD     		ble	.L249
 192:..\..\..\HamFlyAPI\src/hamfly_qx_protocol.c ****     }
 2782              		.loc 1 192 0 is_stmt 0 discriminator 1
 2783 00b6 FB68     		ldr	r3, [r7, #12]
 2784 00b8 7A68     		ldr	r2, [r7, #4]
 2785 00ba 1A60     		str	r2, [r3]
 2786              	.L249:
 192:..\..\..\HamFlyAPI\src/hamfly_qx_protocol.c ****     }
 2787              		.loc 1 192 0 discriminator 3
 2788 00bc FB68     		ldr	r3, [r7, #12]
 2789 00be 1A68     		ldr	r2, [r3]
 2790 00c0 3B68     		ldr	r3, [r7]
 2791 00c2 9A42     		cmp	r2, r3
 2792 00c4 02DA     		bge	.L250
 192:..\..\..\HamFlyAPI\src/hamfly_qx_protocol.c ****     }
 2793              		.loc 1 192 0 discriminator 4
 2794 00c6 FB68     		ldr	r3, [r7, #12]
 2795 00c8 3A68     		ldr	r2, [r7]
 2796 00ca 1A60     		str	r2, [r3]
 2797              	.L250:
 192:..\..\..\HamFlyAPI\src/hamfly_qx_protocol.c ****     }
 2798              		.loc 1 192 0 discriminator 6
 2799 00cc FB68     		ldr	r3, [r7, #12]
 2800 00ce 0433     		adds	r3, r3, #4
 2801 00d0 FB60     		str	r3, [r7, #12]
 2802              	.L248:
 2803              	.LBE24:
 192:..\..\..\HamFlyAPI\src/hamfly_qx_protocol.c ****     }
 2804              		.loc 1 192 0 discriminator 7
 2805 00d2 BB68     		ldr	r3, [r7, #8]
 2806 00d4 5A1E     		subs	r2, r3, #1
 2807 00d6 BA60     		str	r2, [r7, #8]
 2808 00d8 002B     		cmp	r3, #0
 2809 00da D0D1     		bne	.L251
 2810              	.L252:
 2811              		.loc 1 194 0 is_stmt 1
 2812 00dc 00BF     		nop
 2813 00de 1C37     		adds	r7, r7, #28
 2814              		.cfi_def_cfa_offset 4
 2815 00e0 BD46     		mov	sp, r7
 2816              		.cfi_def_cfa_register 13
 2817              		@ sp needed
 2818 00e2 80BC     		pop	{r7}
 2819              		.cfi_restore 7
 2820              		.cfi_def_cfa_offset 0
 2821 00e4 7047     		bx	lr
 2822              	.L254:
 2823 00e6 00BF     		.align	2
 2824              	.L253:
 2825 00e8 00000000 		.word	rw
 2826 00ec 00000000 		.word	msgPtr
 2827              		.cfi_endproc
ARM GAS  C:\Users\JENNEW~1\AppData\Local\Temp\ccQ5uJSg.s 			page 55


 2828              	.LFE24:
 2829              		.size	GetSignedLongAsSignedShort, .-GetSignedLongAsSignedShort
 2830              		.section	.text.GetSignedLongAsSignedChar,"ax",%progbits
 2831              		.align	2
 2832              		.global	GetSignedLongAsSignedChar
 2833              		.thumb
 2834              		.thumb_func
 2835              		.type	GetSignedLongAsSignedChar, %function
 2836              	GetSignedLongAsSignedChar:
 2837              	.LFB25:
 195:..\..\..\HamFlyAPI\src/hamfly_qx_protocol.c **** void GetSignedLongAsSignedChar(int32_t *v, uint32_t n, int32_t max, int32_t min) {
 2838              		.loc 1 195 0
 2839              		.cfi_startproc
 2840              		@ args = 0, pretend = 0, frame = 24
 2841              		@ frame_needed = 1, uses_anonymous_args = 0
 2842              		@ link register save eliminated.
 2843 0000 80B4     		push	{r7}
 2844              		.cfi_def_cfa_offset 4
 2845              		.cfi_offset 7, -4
 2846 0002 87B0     		sub	sp, sp, #28
 2847              		.cfi_def_cfa_offset 32
 2848 0004 00AF     		add	r7, sp, #0
 2849              		.cfi_def_cfa_register 7
 2850 0006 F860     		str	r0, [r7, #12]
 2851 0008 B960     		str	r1, [r7, #8]
 2852 000a 7A60     		str	r2, [r7, #4]
 2853 000c 3B60     		str	r3, [r7]
 196:..\..\..\HamFlyAPI\src/hamfly_qx_protocol.c ****     if (rw == QB_Parser_Dir_WriteDel) {
 2854              		.loc 1 196 0
 2855 000e 2B4B     		ldr	r3, .L267
 2856 0010 1B78     		ldrb	r3, [r3]	@ zero_extendqisi2
 2857 0012 012B     		cmp	r3, #1
 2858 0014 47D1     		bne	.L262
 197:..\..\..\HamFlyAPI\src/hamfly_qx_protocol.c ****         while (n--) { int32_t r = (int32_t)GETSC; *v += r; if (max<*v)*v=max; if (*v<min)*v=min; v+
 2859              		.loc 1 197 0
 2860 0016 21E0     		b	.L257
 2861              	.L260:
 2862              	.LBB25:
 2863              		.loc 1 197 0 is_stmt 0 discriminator 8
 2864 0018 294B     		ldr	r3, .L267+4
 2865 001a 1B68     		ldr	r3, [r3]
 2866 001c 5A1C     		adds	r2, r3, #1
 2867 001e 2849     		ldr	r1, .L267+4
 2868 0020 0A60     		str	r2, [r1]
 2869 0022 1B78     		ldrb	r3, [r3]
 2870 0024 DBB2     		uxtb	r3, r3
 2871 0026 5BB2     		sxtb	r3, r3
 2872 0028 7B61     		str	r3, [r7, #20]
 2873 002a FB68     		ldr	r3, [r7, #12]
 2874 002c 1A68     		ldr	r2, [r3]
 2875 002e 7B69     		ldr	r3, [r7, #20]
 2876 0030 1A44     		add	r2, r2, r3
 2877 0032 FB68     		ldr	r3, [r7, #12]
 2878 0034 1A60     		str	r2, [r3]
 2879 0036 FB68     		ldr	r3, [r7, #12]
 2880 0038 1A68     		ldr	r2, [r3]
 2881 003a 7B68     		ldr	r3, [r7, #4]
ARM GAS  C:\Users\JENNEW~1\AppData\Local\Temp\ccQ5uJSg.s 			page 56


 2882 003c 9A42     		cmp	r2, r3
 2883 003e 02DD     		ble	.L258
 2884              		.loc 1 197 0 discriminator 1
 2885 0040 FB68     		ldr	r3, [r7, #12]
 2886 0042 7A68     		ldr	r2, [r7, #4]
 2887 0044 1A60     		str	r2, [r3]
 2888              	.L258:
 2889              		.loc 1 197 0 discriminator 3
 2890 0046 FB68     		ldr	r3, [r7, #12]
 2891 0048 1A68     		ldr	r2, [r3]
 2892 004a 3B68     		ldr	r3, [r7]
 2893 004c 9A42     		cmp	r2, r3
 2894 004e 02DA     		bge	.L259
 2895              		.loc 1 197 0 discriminator 4
 2896 0050 FB68     		ldr	r3, [r7, #12]
 2897 0052 3A68     		ldr	r2, [r7]
 2898 0054 1A60     		str	r2, [r3]
 2899              	.L259:
 2900              		.loc 1 197 0 discriminator 6
 2901 0056 FB68     		ldr	r3, [r7, #12]
 2902 0058 0433     		adds	r3, r3, #4
 2903 005a FB60     		str	r3, [r7, #12]
 2904              	.L257:
 2905              	.LBE25:
 2906              		.loc 1 197 0 discriminator 7
 2907 005c BB68     		ldr	r3, [r7, #8]
 2908 005e 5A1E     		subs	r2, r3, #1
 2909 0060 BA60     		str	r2, [r7, #8]
 2910 0062 002B     		cmp	r3, #0
 2911 0064 D8D1     		bne	.L260
 198:..\..\..\HamFlyAPI\src/hamfly_qx_protocol.c ****     } else {
 199:..\..\..\HamFlyAPI\src/hamfly_qx_protocol.c ****         while (n--) { int32_t r = (int32_t)GETSC; *v  = r; if (max<*v)*v=max; if (*v<min)*v=min; v+
 200:..\..\..\HamFlyAPI\src/hamfly_qx_protocol.c ****     }
 201:..\..\..\HamFlyAPI\src/hamfly_qx_protocol.c **** }
 2912              		.loc 1 201 0 is_stmt 1
 2913 0066 23E0     		b	.L266
 2914              	.L265:
 2915              	.LBB26:
 199:..\..\..\HamFlyAPI\src/hamfly_qx_protocol.c ****     }
 2916              		.loc 1 199 0 discriminator 8
 2917 0068 154B     		ldr	r3, .L267+4
 2918 006a 1B68     		ldr	r3, [r3]
 2919 006c 5A1C     		adds	r2, r3, #1
 2920 006e 1449     		ldr	r1, .L267+4
 2921 0070 0A60     		str	r2, [r1]
 2922 0072 1B78     		ldrb	r3, [r3]
 2923 0074 DBB2     		uxtb	r3, r3
 2924 0076 5BB2     		sxtb	r3, r3
 2925 0078 3B61     		str	r3, [r7, #16]
 2926 007a FB68     		ldr	r3, [r7, #12]
 2927 007c 3A69     		ldr	r2, [r7, #16]
 2928 007e 1A60     		str	r2, [r3]
 2929 0080 FB68     		ldr	r3, [r7, #12]
 2930 0082 1A68     		ldr	r2, [r3]
 2931 0084 7B68     		ldr	r3, [r7, #4]
 2932 0086 9A42     		cmp	r2, r3
 2933 0088 02DD     		ble	.L263
ARM GAS  C:\Users\JENNEW~1\AppData\Local\Temp\ccQ5uJSg.s 			page 57


 199:..\..\..\HamFlyAPI\src/hamfly_qx_protocol.c ****     }
 2934              		.loc 1 199 0 is_stmt 0 discriminator 1
 2935 008a FB68     		ldr	r3, [r7, #12]
 2936 008c 7A68     		ldr	r2, [r7, #4]
 2937 008e 1A60     		str	r2, [r3]
 2938              	.L263:
 199:..\..\..\HamFlyAPI\src/hamfly_qx_protocol.c ****     }
 2939              		.loc 1 199 0 discriminator 3
 2940 0090 FB68     		ldr	r3, [r7, #12]
 2941 0092 1A68     		ldr	r2, [r3]
 2942 0094 3B68     		ldr	r3, [r7]
 2943 0096 9A42     		cmp	r2, r3
 2944 0098 02DA     		bge	.L264
 199:..\..\..\HamFlyAPI\src/hamfly_qx_protocol.c ****     }
 2945              		.loc 1 199 0 discriminator 4
 2946 009a FB68     		ldr	r3, [r7, #12]
 2947 009c 3A68     		ldr	r2, [r7]
 2948 009e 1A60     		str	r2, [r3]
 2949              	.L264:
 199:..\..\..\HamFlyAPI\src/hamfly_qx_protocol.c ****     }
 2950              		.loc 1 199 0 discriminator 6
 2951 00a0 FB68     		ldr	r3, [r7, #12]
 2952 00a2 0433     		adds	r3, r3, #4
 2953 00a4 FB60     		str	r3, [r7, #12]
 2954              	.L262:
 2955              	.LBE26:
 199:..\..\..\HamFlyAPI\src/hamfly_qx_protocol.c ****     }
 2956              		.loc 1 199 0 discriminator 7
 2957 00a6 BB68     		ldr	r3, [r7, #8]
 2958 00a8 5A1E     		subs	r2, r3, #1
 2959 00aa BA60     		str	r2, [r7, #8]
 2960 00ac 002B     		cmp	r3, #0
 2961 00ae DBD1     		bne	.L265
 2962              	.L266:
 2963              		.loc 1 201 0 is_stmt 1
 2964 00b0 00BF     		nop
 2965 00b2 1C37     		adds	r7, r7, #28
 2966              		.cfi_def_cfa_offset 4
 2967 00b4 BD46     		mov	sp, r7
 2968              		.cfi_def_cfa_register 13
 2969              		@ sp needed
 2970 00b6 80BC     		pop	{r7}
 2971              		.cfi_restore 7
 2972              		.cfi_def_cfa_offset 0
 2973 00b8 7047     		bx	lr
 2974              	.L268:
 2975 00ba 00BF     		.align	2
 2976              	.L267:
 2977 00bc 00000000 		.word	rw
 2978 00c0 00000000 		.word	msgPtr
 2979              		.cfi_endproc
 2980              	.LFE25:
 2981              		.size	GetSignedLongAsSignedChar, .-GetSignedLongAsSignedChar
 2982              		.section	.text.GetSignedLongAsUnsignedChar,"ax",%progbits
 2983              		.align	2
 2984              		.global	GetSignedLongAsUnsignedChar
 2985              		.thumb
ARM GAS  C:\Users\JENNEW~1\AppData\Local\Temp\ccQ5uJSg.s 			page 58


 2986              		.thumb_func
 2987              		.type	GetSignedLongAsUnsignedChar, %function
 2988              	GetSignedLongAsUnsignedChar:
 2989              	.LFB26:
 202:..\..\..\HamFlyAPI\src/hamfly_qx_protocol.c **** void GetSignedLongAsUnsignedChar(int32_t *v, uint32_t n, int32_t max, int32_t min) {
 2990              		.loc 1 202 0
 2991              		.cfi_startproc
 2992              		@ args = 0, pretend = 0, frame = 24
 2993              		@ frame_needed = 1, uses_anonymous_args = 0
 2994              		@ link register save eliminated.
 2995 0000 80B4     		push	{r7}
 2996              		.cfi_def_cfa_offset 4
 2997              		.cfi_offset 7, -4
 2998 0002 87B0     		sub	sp, sp, #28
 2999              		.cfi_def_cfa_offset 32
 3000 0004 00AF     		add	r7, sp, #0
 3001              		.cfi_def_cfa_register 7
 3002 0006 F860     		str	r0, [r7, #12]
 3003 0008 B960     		str	r1, [r7, #8]
 3004 000a 7A60     		str	r2, [r7, #4]
 3005 000c 3B60     		str	r3, [r7]
 203:..\..\..\HamFlyAPI\src/hamfly_qx_protocol.c ****     if (rw == QB_Parser_Dir_WriteDel) {
 3006              		.loc 1 203 0
 3007 000e 2A4B     		ldr	r3, .L281
 3008 0010 1B78     		ldrb	r3, [r3]	@ zero_extendqisi2
 3009 0012 012B     		cmp	r3, #1
 3010 0014 46D1     		bne	.L276
 204:..\..\..\HamFlyAPI\src/hamfly_qx_protocol.c ****         while (n--) { int32_t r = (int32_t)GETSC; *v += r; if (max<*v)*v=max; if (*v<min)*v=min; v+
 3011              		.loc 1 204 0
 3012 0016 21E0     		b	.L271
 3013              	.L274:
 3014              	.LBB27:
 3015              		.loc 1 204 0 is_stmt 0 discriminator 8
 3016 0018 284B     		ldr	r3, .L281+4
 3017 001a 1B68     		ldr	r3, [r3]
 3018 001c 5A1C     		adds	r2, r3, #1
 3019 001e 2749     		ldr	r1, .L281+4
 3020 0020 0A60     		str	r2, [r1]
 3021 0022 1B78     		ldrb	r3, [r3]
 3022 0024 DBB2     		uxtb	r3, r3
 3023 0026 5BB2     		sxtb	r3, r3
 3024 0028 7B61     		str	r3, [r7, #20]
 3025 002a FB68     		ldr	r3, [r7, #12]
 3026 002c 1A68     		ldr	r2, [r3]
 3027 002e 7B69     		ldr	r3, [r7, #20]
 3028 0030 1A44     		add	r2, r2, r3
 3029 0032 FB68     		ldr	r3, [r7, #12]
 3030 0034 1A60     		str	r2, [r3]
 3031 0036 FB68     		ldr	r3, [r7, #12]
 3032 0038 1A68     		ldr	r2, [r3]
 3033 003a 7B68     		ldr	r3, [r7, #4]
 3034 003c 9A42     		cmp	r2, r3
 3035 003e 02DD     		ble	.L272
 3036              		.loc 1 204 0 discriminator 1
 3037 0040 FB68     		ldr	r3, [r7, #12]
 3038 0042 7A68     		ldr	r2, [r7, #4]
 3039 0044 1A60     		str	r2, [r3]
ARM GAS  C:\Users\JENNEW~1\AppData\Local\Temp\ccQ5uJSg.s 			page 59


 3040              	.L272:
 3041              		.loc 1 204 0 discriminator 3
 3042 0046 FB68     		ldr	r3, [r7, #12]
 3043 0048 1A68     		ldr	r2, [r3]
 3044 004a 3B68     		ldr	r3, [r7]
 3045 004c 9A42     		cmp	r2, r3
 3046 004e 02DA     		bge	.L273
 3047              		.loc 1 204 0 discriminator 4
 3048 0050 FB68     		ldr	r3, [r7, #12]
 3049 0052 3A68     		ldr	r2, [r7]
 3050 0054 1A60     		str	r2, [r3]
 3051              	.L273:
 3052              		.loc 1 204 0 discriminator 6
 3053 0056 FB68     		ldr	r3, [r7, #12]
 3054 0058 0433     		adds	r3, r3, #4
 3055 005a FB60     		str	r3, [r7, #12]
 3056              	.L271:
 3057              	.LBE27:
 3058              		.loc 1 204 0 discriminator 7
 3059 005c BB68     		ldr	r3, [r7, #8]
 3060 005e 5A1E     		subs	r2, r3, #1
 3061 0060 BA60     		str	r2, [r7, #8]
 3062 0062 002B     		cmp	r3, #0
 3063 0064 D8D1     		bne	.L274
 205:..\..\..\HamFlyAPI\src/hamfly_qx_protocol.c ****     } else {
 206:..\..\..\HamFlyAPI\src/hamfly_qx_protocol.c ****         while (n--) { int32_t r = (int32_t)GETUC; *v  = r; if (max<*v)*v=max; if (*v<min)*v=min; v+
 207:..\..\..\HamFlyAPI\src/hamfly_qx_protocol.c ****     }
 208:..\..\..\HamFlyAPI\src/hamfly_qx_protocol.c **** }
 3064              		.loc 1 208 0 is_stmt 1
 3065 0066 22E0     		b	.L280
 3066              	.L279:
 3067              	.LBB28:
 206:..\..\..\HamFlyAPI\src/hamfly_qx_protocol.c ****     }
 3068              		.loc 1 206 0 discriminator 8
 3069 0068 144B     		ldr	r3, .L281+4
 3070 006a 1B68     		ldr	r3, [r3]
 3071 006c 5A1C     		adds	r2, r3, #1
 3072 006e 1349     		ldr	r1, .L281+4
 3073 0070 0A60     		str	r2, [r1]
 3074 0072 1B78     		ldrb	r3, [r3]
 3075 0074 DBB2     		uxtb	r3, r3
 3076 0076 3B61     		str	r3, [r7, #16]
 3077 0078 FB68     		ldr	r3, [r7, #12]
 3078 007a 3A69     		ldr	r2, [r7, #16]
 3079 007c 1A60     		str	r2, [r3]
 3080 007e FB68     		ldr	r3, [r7, #12]
 3081 0080 1A68     		ldr	r2, [r3]
 3082 0082 7B68     		ldr	r3, [r7, #4]
 3083 0084 9A42     		cmp	r2, r3
 3084 0086 02DD     		ble	.L277
 206:..\..\..\HamFlyAPI\src/hamfly_qx_protocol.c ****     }
 3085              		.loc 1 206 0 is_stmt 0 discriminator 1
 3086 0088 FB68     		ldr	r3, [r7, #12]
 3087 008a 7A68     		ldr	r2, [r7, #4]
 3088 008c 1A60     		str	r2, [r3]
 3089              	.L277:
 206:..\..\..\HamFlyAPI\src/hamfly_qx_protocol.c ****     }
ARM GAS  C:\Users\JENNEW~1\AppData\Local\Temp\ccQ5uJSg.s 			page 60


 3090              		.loc 1 206 0 discriminator 3
 3091 008e FB68     		ldr	r3, [r7, #12]
 3092 0090 1A68     		ldr	r2, [r3]
 3093 0092 3B68     		ldr	r3, [r7]
 3094 0094 9A42     		cmp	r2, r3
 3095 0096 02DA     		bge	.L278
 206:..\..\..\HamFlyAPI\src/hamfly_qx_protocol.c ****     }
 3096              		.loc 1 206 0 discriminator 4
 3097 0098 FB68     		ldr	r3, [r7, #12]
 3098 009a 3A68     		ldr	r2, [r7]
 3099 009c 1A60     		str	r2, [r3]
 3100              	.L278:
 206:..\..\..\HamFlyAPI\src/hamfly_qx_protocol.c ****     }
 3101              		.loc 1 206 0 discriminator 6
 3102 009e FB68     		ldr	r3, [r7, #12]
 3103 00a0 0433     		adds	r3, r3, #4
 3104 00a2 FB60     		str	r3, [r7, #12]
 3105              	.L276:
 3106              	.LBE28:
 206:..\..\..\HamFlyAPI\src/hamfly_qx_protocol.c ****     }
 3107              		.loc 1 206 0 discriminator 7
 3108 00a4 BB68     		ldr	r3, [r7, #8]
 3109 00a6 5A1E     		subs	r2, r3, #1
 3110 00a8 BA60     		str	r2, [r7, #8]
 3111 00aa 002B     		cmp	r3, #0
 3112 00ac DCD1     		bne	.L279
 3113              	.L280:
 3114              		.loc 1 208 0 is_stmt 1
 3115 00ae 00BF     		nop
 3116 00b0 1C37     		adds	r7, r7, #28
 3117              		.cfi_def_cfa_offset 4
 3118 00b2 BD46     		mov	sp, r7
 3119              		.cfi_def_cfa_register 13
 3120              		@ sp needed
 3121 00b4 80BC     		pop	{r7}
 3122              		.cfi_restore 7
 3123              		.cfi_def_cfa_offset 0
 3124 00b6 7047     		bx	lr
 3125              	.L282:
 3126              		.align	2
 3127              	.L281:
 3128 00b8 00000000 		.word	rw
 3129 00bc 00000000 		.word	msgPtr
 3130              		.cfi_endproc
 3131              	.LFE26:
 3132              		.size	GetSignedLongAsUnsignedChar, .-GetSignedLongAsUnsignedChar
 3133              		.section	.text.AddSignedShortAsSignedShort,"ax",%progbits
 3134              		.align	2
 3135              		.global	AddSignedShortAsSignedShort
 3136              		.thumb
 3137              		.thumb_func
 3138              		.type	AddSignedShortAsSignedShort, %function
 3139              	AddSignedShortAsSignedShort:
 3140              	.LFB27:
 209:..\..\..\HamFlyAPI\src/hamfly_qx_protocol.c **** 
 210:..\..\..\HamFlyAPI\src/hamfly_qx_protocol.c **** void AddSignedShortAsSignedShort(int16_t *v, uint32_t n) {
 3141              		.loc 1 210 0
ARM GAS  C:\Users\JENNEW~1\AppData\Local\Temp\ccQ5uJSg.s 			page 61


 3142              		.cfi_startproc
 3143              		@ args = 0, pretend = 0, frame = 16
 3144              		@ frame_needed = 1, uses_anonymous_args = 0
 3145              		@ link register save eliminated.
 3146 0000 80B4     		push	{r7}
 3147              		.cfi_def_cfa_offset 4
 3148              		.cfi_offset 7, -4
 3149 0002 85B0     		sub	sp, sp, #20
 3150              		.cfi_def_cfa_offset 24
 3151 0004 00AF     		add	r7, sp, #0
 3152              		.cfi_def_cfa_register 7
 3153 0006 7860     		str	r0, [r7, #4]
 3154 0008 3960     		str	r1, [r7]
 211:..\..\..\HamFlyAPI\src/hamfly_qx_protocol.c ****     while (n--) { int16_t val = *v; ADDSS(val); v++; }
 3155              		.loc 1 211 0
 3156 000a 18E0     		b	.L284
 3157              	.L285:
 3158              	.LBB29:
 3159              		.loc 1 211 0 is_stmt 0 discriminator 2
 3160 000c 7B68     		ldr	r3, [r7, #4]
 3161 000e 1B88     		ldrh	r3, [r3]	@ movhi
 3162 0010 FB81     		strh	r3, [r7, #14]	@ movhi
 3163 0012 104B     		ldr	r3, .L286
 3164 0014 1B68     		ldr	r3, [r3]
 3165 0016 5A1C     		adds	r2, r3, #1
 3166 0018 0E49     		ldr	r1, .L286
 3167 001a 0A60     		str	r2, [r1]
 3168 001c B7F90E20 		ldrsh	r2, [r7, #14]
 3169 0020 1212     		asrs	r2, r2, #8
 3170 0022 12B2     		sxth	r2, r2
 3171 0024 D2B2     		uxtb	r2, r2
 3172 0026 1A70     		strb	r2, [r3]
 3173 0028 0A4B     		ldr	r3, .L286
 3174 002a 1B68     		ldr	r3, [r3]
 3175 002c 5A1C     		adds	r2, r3, #1
 3176 002e 0949     		ldr	r1, .L286
 3177 0030 0A60     		str	r2, [r1]
 3178 0032 FA89     		ldrh	r2, [r7, #14]	@ movhi
 3179 0034 D2B2     		uxtb	r2, r2
 3180 0036 1A70     		strb	r2, [r3]
 3181 0038 7B68     		ldr	r3, [r7, #4]
 3182 003a 0233     		adds	r3, r3, #2
 3183 003c 7B60     		str	r3, [r7, #4]
 3184              	.L284:
 3185              	.LBE29:
 3186              		.loc 1 211 0 discriminator 1
 3187 003e 3B68     		ldr	r3, [r7]
 3188 0040 5A1E     		subs	r2, r3, #1
 3189 0042 3A60     		str	r2, [r7]
 3190 0044 002B     		cmp	r3, #0
 3191 0046 E1D1     		bne	.L285
 212:..\..\..\HamFlyAPI\src/hamfly_qx_protocol.c **** }
 3192              		.loc 1 212 0 is_stmt 1
 3193 0048 00BF     		nop
 3194 004a 1437     		adds	r7, r7, #20
 3195              		.cfi_def_cfa_offset 4
 3196 004c BD46     		mov	sp, r7
ARM GAS  C:\Users\JENNEW~1\AppData\Local\Temp\ccQ5uJSg.s 			page 62


 3197              		.cfi_def_cfa_register 13
 3198              		@ sp needed
 3199 004e 80BC     		pop	{r7}
 3200              		.cfi_restore 7
 3201              		.cfi_def_cfa_offset 0
 3202 0050 7047     		bx	lr
 3203              	.L287:
 3204 0052 00BF     		.align	2
 3205              	.L286:
 3206 0054 00000000 		.word	msgPtr
 3207              		.cfi_endproc
 3208              	.LFE27:
 3209              		.size	AddSignedShortAsSignedShort, .-AddSignedShortAsSignedShort
 3210              		.section	.text.AddSignedShortAsSignedChar,"ax",%progbits
 3211              		.align	2
 3212              		.global	AddSignedShortAsSignedChar
 3213              		.thumb
 3214              		.thumb_func
 3215              		.type	AddSignedShortAsSignedChar, %function
 3216              	AddSignedShortAsSignedChar:
 3217              	.LFB28:
 213:..\..\..\HamFlyAPI\src/hamfly_qx_protocol.c **** void AddSignedShortAsSignedChar(int16_t *v, uint32_t n) {
 3218              		.loc 1 213 0
 3219              		.cfi_startproc
 3220              		@ args = 0, pretend = 0, frame = 16
 3221              		@ frame_needed = 1, uses_anonymous_args = 0
 3222              		@ link register save eliminated.
 3223 0000 80B4     		push	{r7}
 3224              		.cfi_def_cfa_offset 4
 3225              		.cfi_offset 7, -4
 3226 0002 85B0     		sub	sp, sp, #20
 3227              		.cfi_def_cfa_offset 24
 3228 0004 00AF     		add	r7, sp, #0
 3229              		.cfi_def_cfa_register 7
 3230 0006 7860     		str	r0, [r7, #4]
 3231 0008 3960     		str	r1, [r7]
 214:..\..\..\HamFlyAPI\src/hamfly_qx_protocol.c ****     while (n--) { int8_t val = (int8_t)*v; ADDCHAR(val); v++; }
 3232              		.loc 1 214 0
 3233 000a 0DE0     		b	.L289
 3234              	.L290:
 3235              	.LBB30:
 3236              		.loc 1 214 0 is_stmt 0 discriminator 2
 3237 000c 7B68     		ldr	r3, [r7, #4]
 3238 000e B3F90030 		ldrsh	r3, [r3]
 3239 0012 FB73     		strb	r3, [r7, #15]
 3240 0014 094B     		ldr	r3, .L291
 3241 0016 1B68     		ldr	r3, [r3]
 3242 0018 5A1C     		adds	r2, r3, #1
 3243 001a 0849     		ldr	r1, .L291
 3244 001c 0A60     		str	r2, [r1]
 3245 001e FA7B     		ldrb	r2, [r7, #15]	@ zero_extendqisi2
 3246 0020 1A70     		strb	r2, [r3]
 3247 0022 7B68     		ldr	r3, [r7, #4]
 3248 0024 0233     		adds	r3, r3, #2
 3249 0026 7B60     		str	r3, [r7, #4]
 3250              	.L289:
 3251              	.LBE30:
ARM GAS  C:\Users\JENNEW~1\AppData\Local\Temp\ccQ5uJSg.s 			page 63


 3252              		.loc 1 214 0 discriminator 1
 3253 0028 3B68     		ldr	r3, [r7]
 3254 002a 5A1E     		subs	r2, r3, #1
 3255 002c 3A60     		str	r2, [r7]
 3256 002e 002B     		cmp	r3, #0
 3257 0030 ECD1     		bne	.L290
 215:..\..\..\HamFlyAPI\src/hamfly_qx_protocol.c **** }
 3258              		.loc 1 215 0 is_stmt 1
 3259 0032 00BF     		nop
 3260 0034 1437     		adds	r7, r7, #20
 3261              		.cfi_def_cfa_offset 4
 3262 0036 BD46     		mov	sp, r7
 3263              		.cfi_def_cfa_register 13
 3264              		@ sp needed
 3265 0038 80BC     		pop	{r7}
 3266              		.cfi_restore 7
 3267              		.cfi_def_cfa_offset 0
 3268 003a 7047     		bx	lr
 3269              	.L292:
 3270              		.align	2
 3271              	.L291:
 3272 003c 00000000 		.word	msgPtr
 3273              		.cfi_endproc
 3274              	.LFE28:
 3275              		.size	AddSignedShortAsSignedChar, .-AddSignedShortAsSignedChar
 3276              		.section	.text.AddSignedShortAsUnsignedChar,"ax",%progbits
 3277              		.align	2
 3278              		.global	AddSignedShortAsUnsignedChar
 3279              		.thumb
 3280              		.thumb_func
 3281              		.type	AddSignedShortAsUnsignedChar, %function
 3282              	AddSignedShortAsUnsignedChar:
 3283              	.LFB29:
 216:..\..\..\HamFlyAPI\src/hamfly_qx_protocol.c **** void AddSignedShortAsUnsignedChar(int16_t *v, uint32_t n) {
 3284              		.loc 1 216 0
 3285              		.cfi_startproc
 3286              		@ args = 0, pretend = 0, frame = 16
 3287              		@ frame_needed = 1, uses_anonymous_args = 0
 3288              		@ link register save eliminated.
 3289 0000 80B4     		push	{r7}
 3290              		.cfi_def_cfa_offset 4
 3291              		.cfi_offset 7, -4
 3292 0002 85B0     		sub	sp, sp, #20
 3293              		.cfi_def_cfa_offset 24
 3294 0004 00AF     		add	r7, sp, #0
 3295              		.cfi_def_cfa_register 7
 3296 0006 7860     		str	r0, [r7, #4]
 3297 0008 3960     		str	r1, [r7]
 217:..\..\..\HamFlyAPI\src/hamfly_qx_protocol.c ****     while (n--) { uint8_t val = (uint8_t)*v; ADDCHAR(val); v++; }
 3298              		.loc 1 217 0
 3299 000a 0DE0     		b	.L294
 3300              	.L295:
 3301              	.LBB31:
 3302              		.loc 1 217 0 is_stmt 0 discriminator 2
 3303 000c 7B68     		ldr	r3, [r7, #4]
 3304 000e B3F90030 		ldrsh	r3, [r3]
 3305 0012 FB73     		strb	r3, [r7, #15]
ARM GAS  C:\Users\JENNEW~1\AppData\Local\Temp\ccQ5uJSg.s 			page 64


 3306 0014 094B     		ldr	r3, .L296
 3307 0016 1B68     		ldr	r3, [r3]
 3308 0018 5A1C     		adds	r2, r3, #1
 3309 001a 0849     		ldr	r1, .L296
 3310 001c 0A60     		str	r2, [r1]
 3311 001e FA7B     		ldrb	r2, [r7, #15]
 3312 0020 1A70     		strb	r2, [r3]
 3313 0022 7B68     		ldr	r3, [r7, #4]
 3314 0024 0233     		adds	r3, r3, #2
 3315 0026 7B60     		str	r3, [r7, #4]
 3316              	.L294:
 3317              	.LBE31:
 3318              		.loc 1 217 0 discriminator 1
 3319 0028 3B68     		ldr	r3, [r7]
 3320 002a 5A1E     		subs	r2, r3, #1
 3321 002c 3A60     		str	r2, [r7]
 3322 002e 002B     		cmp	r3, #0
 3323 0030 ECD1     		bne	.L295
 218:..\..\..\HamFlyAPI\src/hamfly_qx_protocol.c **** }
 3324              		.loc 1 218 0 is_stmt 1
 3325 0032 00BF     		nop
 3326 0034 1437     		adds	r7, r7, #20
 3327              		.cfi_def_cfa_offset 4
 3328 0036 BD46     		mov	sp, r7
 3329              		.cfi_def_cfa_register 13
 3330              		@ sp needed
 3331 0038 80BC     		pop	{r7}
 3332              		.cfi_restore 7
 3333              		.cfi_def_cfa_offset 0
 3334 003a 7047     		bx	lr
 3335              	.L297:
 3336              		.align	2
 3337              	.L296:
 3338 003c 00000000 		.word	msgPtr
 3339              		.cfi_endproc
 3340              	.LFE29:
 3341              		.size	AddSignedShortAsUnsignedChar, .-AddSignedShortAsUnsignedChar
 3342              		.section	.text.GetSignedShortAsSignedShort,"ax",%progbits
 3343              		.align	2
 3344              		.global	GetSignedShortAsSignedShort
 3345              		.thumb
 3346              		.thumb_func
 3347              		.type	GetSignedShortAsSignedShort, %function
 3348              	GetSignedShortAsSignedShort:
 3349              	.LFB30:
 219:..\..\..\HamFlyAPI\src/hamfly_qx_protocol.c **** void GetSignedShortAsSignedShort(int16_t *v, uint32_t n, float max, float min) {
 3350              		.loc 1 219 0
 3351              		.cfi_startproc
 3352              		@ args = 0, pretend = 0, frame = 24
 3353              		@ frame_needed = 1, uses_anonymous_args = 0
 3354 0000 80B5     		push	{r7, lr}
 3355              		.cfi_def_cfa_offset 8
 3356              		.cfi_offset 7, -8
 3357              		.cfi_offset 14, -4
 3358 0002 86B0     		sub	sp, sp, #24
 3359              		.cfi_def_cfa_offset 32
 3360 0004 00AF     		add	r7, sp, #0
ARM GAS  C:\Users\JENNEW~1\AppData\Local\Temp\ccQ5uJSg.s 			page 65


 3361              		.cfi_def_cfa_register 7
 3362 0006 F860     		str	r0, [r7, #12]
 3363 0008 B960     		str	r1, [r7, #8]
 3364 000a 7A60     		str	r2, [r7, #4]	@ float
 3365 000c 3B60     		str	r3, [r7]	@ float
 220:..\..\..\HamFlyAPI\src/hamfly_qx_protocol.c ****     if (rw == QB_Parser_Dir_WriteDel) {
 3366              		.loc 1 220 0
 3367 000e 514B     		ldr	r3, .L318
 3368 0010 1B78     		ldrb	r3, [r3]	@ zero_extendqisi2
 3369 0012 012B     		cmp	r3, #1
 3370 0014 40F09480 		bne	.L307
 221:..\..\..\HamFlyAPI\src/hamfly_qx_protocol.c ****         while (n--) { int16_t r = GETSS; *v += r; if (max<*v)*v=(int16_t)max; if (*v<min)*v=(int16_
 3371              		.loc 1 221 0
 3372 0018 49E0     		b	.L300
 3373              	.L305:
 3374              	.LBB32:
 3375              		.loc 1 221 0 is_stmt 0 discriminator 8
 3376 001a 4F4B     		ldr	r3, .L318+4
 3377 001c 1B68     		ldr	r3, [r3]
 3378 001e 1B78     		ldrb	r3, [r3]
 3379 0020 DBB2     		uxtb	r3, r3
 3380 0022 1B02     		lsls	r3, r3, #8
 3381 0024 1AB2     		sxth	r2, r3
 3382 0026 4C4B     		ldr	r3, .L318+4
 3383 0028 1B68     		ldr	r3, [r3]
 3384 002a 0133     		adds	r3, r3, #1
 3385 002c 1B78     		ldrb	r3, [r3]
 3386 002e DBB2     		uxtb	r3, r3
 3387 0030 1BB2     		sxth	r3, r3
 3388 0032 1343     		orrs	r3, r3, r2
 3389 0034 FB82     		strh	r3, [r7, #22]	@ movhi
 3390 0036 484B     		ldr	r3, .L318+4
 3391 0038 1B68     		ldr	r3, [r3]
 3392 003a 0233     		adds	r3, r3, #2
 3393 003c 464A     		ldr	r2, .L318+4
 3394 003e 1360     		str	r3, [r2]
 3395 0040 FB68     		ldr	r3, [r7, #12]
 3396 0042 B3F90030 		ldrsh	r3, [r3]
 3397 0046 9AB2     		uxth	r2, r3
 3398 0048 FB8A     		ldrh	r3, [r7, #22]
 3399 004a 1344     		add	r3, r3, r2
 3400 004c 9BB2     		uxth	r3, r3
 3401 004e 1AB2     		sxth	r2, r3
 3402 0050 FB68     		ldr	r3, [r7, #12]
 3403 0052 1A80     		strh	r2, [r3]	@ movhi
 3404 0054 FB68     		ldr	r3, [r7, #12]
 3405 0056 B3F90030 		ldrsh	r3, [r3]
 3406 005a 1846     		mov	r0, r3
 3407 005c FFF7FEFF 		bl	__aeabi_i2f
 3408 0060 0346     		mov	r3, r0
 3409 0062 7968     		ldr	r1, [r7, #4]	@ float
 3410 0064 1846     		mov	r0, r3
 3411 0066 FFF7FEFF 		bl	__aeabi_fcmpgt
 3412 006a 0346     		mov	r3, r0
 3413 006c 002B     		cmp	r3, #0
 3414 006e 06D0     		beq	.L301
 3415              		.loc 1 221 0 discriminator 1
ARM GAS  C:\Users\JENNEW~1\AppData\Local\Temp\ccQ5uJSg.s 			page 66


 3416 0070 7868     		ldr	r0, [r7, #4]	@ float
 3417 0072 FFF7FEFF 		bl	__aeabi_f2iz
 3418 0076 0346     		mov	r3, r0
 3419 0078 1AB2     		sxth	r2, r3
 3420 007a FB68     		ldr	r3, [r7, #12]
 3421 007c 1A80     		strh	r2, [r3]	@ movhi
 3422              	.L301:
 3423              		.loc 1 221 0 discriminator 3
 3424 007e FB68     		ldr	r3, [r7, #12]
 3425 0080 B3F90030 		ldrsh	r3, [r3]
 3426 0084 1846     		mov	r0, r3
 3427 0086 FFF7FEFF 		bl	__aeabi_i2f
 3428 008a 0346     		mov	r3, r0
 3429 008c 3968     		ldr	r1, [r7]	@ float
 3430 008e 1846     		mov	r0, r3
 3431 0090 FFF7FEFF 		bl	__aeabi_fcmplt
 3432 0094 0346     		mov	r3, r0
 3433 0096 002B     		cmp	r3, #0
 3434 0098 06D0     		beq	.L303
 3435              		.loc 1 221 0 discriminator 4
 3436 009a 3868     		ldr	r0, [r7]	@ float
 3437 009c FFF7FEFF 		bl	__aeabi_f2iz
 3438 00a0 0346     		mov	r3, r0
 3439 00a2 1AB2     		sxth	r2, r3
 3440 00a4 FB68     		ldr	r3, [r7, #12]
 3441 00a6 1A80     		strh	r2, [r3]	@ movhi
 3442              	.L303:
 3443              		.loc 1 221 0 discriminator 6
 3444 00a8 FB68     		ldr	r3, [r7, #12]
 3445 00aa 0233     		adds	r3, r3, #2
 3446 00ac FB60     		str	r3, [r7, #12]
 3447              	.L300:
 3448              	.LBE32:
 3449              		.loc 1 221 0 discriminator 7
 3450 00ae BB68     		ldr	r3, [r7, #8]
 3451 00b0 5A1E     		subs	r2, r3, #1
 3452 00b2 BA60     		str	r2, [r7, #8]
 3453 00b4 002B     		cmp	r3, #0
 3454 00b6 B0D1     		bne	.L305
 222:..\..\..\HamFlyAPI\src/hamfly_qx_protocol.c ****     } else {
 223:..\..\..\HamFlyAPI\src/hamfly_qx_protocol.c ****         while (n--) { int16_t r = GETSS; *v  = r; if (max<*v)*v=(int16_t)max; if (*v<min)*v=(int16_
 224:..\..\..\HamFlyAPI\src/hamfly_qx_protocol.c ****     }
 225:..\..\..\HamFlyAPI\src/hamfly_qx_protocol.c **** }
 3455              		.loc 1 225 0 is_stmt 1
 3456 00b8 47E0     		b	.L317
 3457              	.L312:
 3458              	.LBB33:
 223:..\..\..\HamFlyAPI\src/hamfly_qx_protocol.c ****     }
 3459              		.loc 1 223 0 discriminator 8
 3460 00ba 274B     		ldr	r3, .L318+4
 3461 00bc 1B68     		ldr	r3, [r3]
 3462 00be 1B78     		ldrb	r3, [r3]
 3463 00c0 DBB2     		uxtb	r3, r3
 3464 00c2 1B02     		lsls	r3, r3, #8
 3465 00c4 1AB2     		sxth	r2, r3
 3466 00c6 244B     		ldr	r3, .L318+4
 3467 00c8 1B68     		ldr	r3, [r3]
ARM GAS  C:\Users\JENNEW~1\AppData\Local\Temp\ccQ5uJSg.s 			page 67


 3468 00ca 0133     		adds	r3, r3, #1
 3469 00cc 1B78     		ldrb	r3, [r3]
 3470 00ce DBB2     		uxtb	r3, r3
 3471 00d0 1BB2     		sxth	r3, r3
 3472 00d2 1343     		orrs	r3, r3, r2
 3473 00d4 BB82     		strh	r3, [r7, #20]	@ movhi
 3474 00d6 204B     		ldr	r3, .L318+4
 3475 00d8 1B68     		ldr	r3, [r3]
 3476 00da 0233     		adds	r3, r3, #2
 3477 00dc 1E4A     		ldr	r2, .L318+4
 3478 00de 1360     		str	r3, [r2]
 3479 00e0 FB68     		ldr	r3, [r7, #12]
 3480 00e2 BA8A     		ldrh	r2, [r7, #20]	@ movhi
 3481 00e4 1A80     		strh	r2, [r3]	@ movhi
 3482 00e6 FB68     		ldr	r3, [r7, #12]
 3483 00e8 B3F90030 		ldrsh	r3, [r3]
 3484 00ec 1846     		mov	r0, r3
 3485 00ee FFF7FEFF 		bl	__aeabi_i2f
 3486 00f2 0346     		mov	r3, r0
 3487 00f4 7968     		ldr	r1, [r7, #4]	@ float
 3488 00f6 1846     		mov	r0, r3
 3489 00f8 FFF7FEFF 		bl	__aeabi_fcmpgt
 3490 00fc 0346     		mov	r3, r0
 3491 00fe 002B     		cmp	r3, #0
 3492 0100 06D0     		beq	.L308
 223:..\..\..\HamFlyAPI\src/hamfly_qx_protocol.c ****     }
 3493              		.loc 1 223 0 is_stmt 0 discriminator 1
 3494 0102 7868     		ldr	r0, [r7, #4]	@ float
 3495 0104 FFF7FEFF 		bl	__aeabi_f2iz
 3496 0108 0346     		mov	r3, r0
 3497 010a 1AB2     		sxth	r2, r3
 3498 010c FB68     		ldr	r3, [r7, #12]
 3499 010e 1A80     		strh	r2, [r3]	@ movhi
 3500              	.L308:
 223:..\..\..\HamFlyAPI\src/hamfly_qx_protocol.c ****     }
 3501              		.loc 1 223 0 discriminator 3
 3502 0110 FB68     		ldr	r3, [r7, #12]
 3503 0112 B3F90030 		ldrsh	r3, [r3]
 3504 0116 1846     		mov	r0, r3
 3505 0118 FFF7FEFF 		bl	__aeabi_i2f
 3506 011c 0346     		mov	r3, r0
 3507 011e 3968     		ldr	r1, [r7]	@ float
 3508 0120 1846     		mov	r0, r3
 3509 0122 FFF7FEFF 		bl	__aeabi_fcmplt
 3510 0126 0346     		mov	r3, r0
 3511 0128 002B     		cmp	r3, #0
 3512 012a 06D0     		beq	.L310
 223:..\..\..\HamFlyAPI\src/hamfly_qx_protocol.c ****     }
 3513              		.loc 1 223 0 discriminator 4
 3514 012c 3868     		ldr	r0, [r7]	@ float
 3515 012e FFF7FEFF 		bl	__aeabi_f2iz
 3516 0132 0346     		mov	r3, r0
 3517 0134 1AB2     		sxth	r2, r3
 3518 0136 FB68     		ldr	r3, [r7, #12]
 3519 0138 1A80     		strh	r2, [r3]	@ movhi
 3520              	.L310:
 223:..\..\..\HamFlyAPI\src/hamfly_qx_protocol.c ****     }
ARM GAS  C:\Users\JENNEW~1\AppData\Local\Temp\ccQ5uJSg.s 			page 68


 3521              		.loc 1 223 0 discriminator 6
 3522 013a FB68     		ldr	r3, [r7, #12]
 3523 013c 0233     		adds	r3, r3, #2
 3524 013e FB60     		str	r3, [r7, #12]
 3525              	.L307:
 3526              	.LBE33:
 223:..\..\..\HamFlyAPI\src/hamfly_qx_protocol.c ****     }
 3527              		.loc 1 223 0 discriminator 7
 3528 0140 BB68     		ldr	r3, [r7, #8]
 3529 0142 5A1E     		subs	r2, r3, #1
 3530 0144 BA60     		str	r2, [r7, #8]
 3531 0146 002B     		cmp	r3, #0
 3532 0148 B7D1     		bne	.L312
 3533              	.L317:
 3534              		.loc 1 225 0 is_stmt 1
 3535 014a 00BF     		nop
 3536 014c 1837     		adds	r7, r7, #24
 3537              		.cfi_def_cfa_offset 8
 3538 014e BD46     		mov	sp, r7
 3539              		.cfi_def_cfa_register 13
 3540              		@ sp needed
 3541 0150 80BD     		pop	{r7, pc}
 3542              	.L319:
 3543 0152 00BF     		.align	2
 3544              	.L318:
 3545 0154 00000000 		.word	rw
 3546 0158 00000000 		.word	msgPtr
 3547              		.cfi_endproc
 3548              	.LFE30:
 3549              		.size	GetSignedShortAsSignedShort, .-GetSignedShortAsSignedShort
 3550              		.section	.text.GetSignedShortAsSignedChar,"ax",%progbits
 3551              		.align	2
 3552              		.global	GetSignedShortAsSignedChar
 3553              		.thumb
 3554              		.thumb_func
 3555              		.type	GetSignedShortAsSignedChar, %function
 3556              	GetSignedShortAsSignedChar:
 3557              	.LFB31:
 226:..\..\..\HamFlyAPI\src/hamfly_qx_protocol.c **** void GetSignedShortAsSignedChar(int16_t *v, uint32_t n, float max, float min) {
 3558              		.loc 1 226 0
 3559              		.cfi_startproc
 3560              		@ args = 0, pretend = 0, frame = 24
 3561              		@ frame_needed = 1, uses_anonymous_args = 0
 3562 0000 80B5     		push	{r7, lr}
 3563              		.cfi_def_cfa_offset 8
 3564              		.cfi_offset 7, -8
 3565              		.cfi_offset 14, -4
 3566 0002 86B0     		sub	sp, sp, #24
 3567              		.cfi_def_cfa_offset 32
 3568 0004 00AF     		add	r7, sp, #0
 3569              		.cfi_def_cfa_register 7
 3570 0006 F860     		str	r0, [r7, #12]
 3571 0008 B960     		str	r1, [r7, #8]
 3572 000a 7A60     		str	r2, [r7, #4]	@ float
 3573 000c 3B60     		str	r3, [r7]	@ float
 227:..\..\..\HamFlyAPI\src/hamfly_qx_protocol.c ****     if (rw == QB_Parser_Dir_WriteDel) {
 3574              		.loc 1 227 0
ARM GAS  C:\Users\JENNEW~1\AppData\Local\Temp\ccQ5uJSg.s 			page 69


 3575 000e 464B     		ldr	r3, .L340
 3576 0010 1B78     		ldrb	r3, [r3]	@ zero_extendqisi2
 3577 0012 012B     		cmp	r3, #1
 3578 0014 7FD1     		bne	.L329
 228:..\..\..\HamFlyAPI\src/hamfly_qx_protocol.c ****         while (n--) { int16_t r = (int16_t)GETSC; *v += r; if (max<*v)*v=(int16_t)max; if (*v<min)*
 3579              		.loc 1 228 0
 3580 0016 3FE0     		b	.L322
 3581              	.L327:
 3582              	.LBB34:
 3583              		.loc 1 228 0 is_stmt 0 discriminator 8
 3584 0018 444B     		ldr	r3, .L340+4
 3585 001a 1B68     		ldr	r3, [r3]
 3586 001c 5A1C     		adds	r2, r3, #1
 3587 001e 4349     		ldr	r1, .L340+4
 3588 0020 0A60     		str	r2, [r1]
 3589 0022 1B78     		ldrb	r3, [r3]
 3590 0024 DBB2     		uxtb	r3, r3
 3591 0026 5BB2     		sxtb	r3, r3
 3592 0028 FB82     		strh	r3, [r7, #22]	@ movhi
 3593 002a FB68     		ldr	r3, [r7, #12]
 3594 002c B3F90030 		ldrsh	r3, [r3]
 3595 0030 9AB2     		uxth	r2, r3
 3596 0032 FB8A     		ldrh	r3, [r7, #22]
 3597 0034 1344     		add	r3, r3, r2
 3598 0036 9BB2     		uxth	r3, r3
 3599 0038 1AB2     		sxth	r2, r3
 3600 003a FB68     		ldr	r3, [r7, #12]
 3601 003c 1A80     		strh	r2, [r3]	@ movhi
 3602 003e FB68     		ldr	r3, [r7, #12]
 3603 0040 B3F90030 		ldrsh	r3, [r3]
 3604 0044 1846     		mov	r0, r3
 3605 0046 FFF7FEFF 		bl	__aeabi_i2f
 3606 004a 0346     		mov	r3, r0
 3607 004c 7968     		ldr	r1, [r7, #4]	@ float
 3608 004e 1846     		mov	r0, r3
 3609 0050 FFF7FEFF 		bl	__aeabi_fcmpgt
 3610 0054 0346     		mov	r3, r0
 3611 0056 002B     		cmp	r3, #0
 3612 0058 06D0     		beq	.L323
 3613              		.loc 1 228 0 discriminator 1
 3614 005a 7868     		ldr	r0, [r7, #4]	@ float
 3615 005c FFF7FEFF 		bl	__aeabi_f2iz
 3616 0060 0346     		mov	r3, r0
 3617 0062 1AB2     		sxth	r2, r3
 3618 0064 FB68     		ldr	r3, [r7, #12]
 3619 0066 1A80     		strh	r2, [r3]	@ movhi
 3620              	.L323:
 3621              		.loc 1 228 0 discriminator 3
 3622 0068 FB68     		ldr	r3, [r7, #12]
 3623 006a B3F90030 		ldrsh	r3, [r3]
 3624 006e 1846     		mov	r0, r3
 3625 0070 FFF7FEFF 		bl	__aeabi_i2f
 3626 0074 0346     		mov	r3, r0
 3627 0076 3968     		ldr	r1, [r7]	@ float
 3628 0078 1846     		mov	r0, r3
 3629 007a FFF7FEFF 		bl	__aeabi_fcmplt
 3630 007e 0346     		mov	r3, r0
ARM GAS  C:\Users\JENNEW~1\AppData\Local\Temp\ccQ5uJSg.s 			page 70


 3631 0080 002B     		cmp	r3, #0
 3632 0082 06D0     		beq	.L325
 3633              		.loc 1 228 0 discriminator 4
 3634 0084 3868     		ldr	r0, [r7]	@ float
 3635 0086 FFF7FEFF 		bl	__aeabi_f2iz
 3636 008a 0346     		mov	r3, r0
 3637 008c 1AB2     		sxth	r2, r3
 3638 008e FB68     		ldr	r3, [r7, #12]
 3639 0090 1A80     		strh	r2, [r3]	@ movhi
 3640              	.L325:
 3641              		.loc 1 228 0 discriminator 6
 3642 0092 FB68     		ldr	r3, [r7, #12]
 3643 0094 0233     		adds	r3, r3, #2
 3644 0096 FB60     		str	r3, [r7, #12]
 3645              	.L322:
 3646              	.LBE34:
 3647              		.loc 1 228 0 discriminator 7
 3648 0098 BB68     		ldr	r3, [r7, #8]
 3649 009a 5A1E     		subs	r2, r3, #1
 3650 009c BA60     		str	r2, [r7, #8]
 3651 009e 002B     		cmp	r3, #0
 3652 00a0 BAD1     		bne	.L327
 229:..\..\..\HamFlyAPI\src/hamfly_qx_protocol.c ****     } else {
 230:..\..\..\HamFlyAPI\src/hamfly_qx_protocol.c ****         while (n--) { int16_t r = (int16_t)GETSC; *v  = r; if (max<*v)*v=(int16_t)max; if (*v<min)*
 231:..\..\..\HamFlyAPI\src/hamfly_qx_protocol.c ****     }
 232:..\..\..\HamFlyAPI\src/hamfly_qx_protocol.c **** }
 3653              		.loc 1 232 0 is_stmt 1
 3654 00a2 3DE0     		b	.L339
 3655              	.L334:
 3656              	.LBB35:
 230:..\..\..\HamFlyAPI\src/hamfly_qx_protocol.c ****     }
 3657              		.loc 1 230 0 discriminator 8
 3658 00a4 214B     		ldr	r3, .L340+4
 3659 00a6 1B68     		ldr	r3, [r3]
 3660 00a8 5A1C     		adds	r2, r3, #1
 3661 00aa 2049     		ldr	r1, .L340+4
 3662 00ac 0A60     		str	r2, [r1]
 3663 00ae 1B78     		ldrb	r3, [r3]
 3664 00b0 DBB2     		uxtb	r3, r3
 3665 00b2 5BB2     		sxtb	r3, r3
 3666 00b4 BB82     		strh	r3, [r7, #20]	@ movhi
 3667 00b6 FB68     		ldr	r3, [r7, #12]
 3668 00b8 BA8A     		ldrh	r2, [r7, #20]	@ movhi
 3669 00ba 1A80     		strh	r2, [r3]	@ movhi
 3670 00bc FB68     		ldr	r3, [r7, #12]
 3671 00be B3F90030 		ldrsh	r3, [r3]
 3672 00c2 1846     		mov	r0, r3
 3673 00c4 FFF7FEFF 		bl	__aeabi_i2f
 3674 00c8 0346     		mov	r3, r0
 3675 00ca 7968     		ldr	r1, [r7, #4]	@ float
 3676 00cc 1846     		mov	r0, r3
 3677 00ce FFF7FEFF 		bl	__aeabi_fcmpgt
 3678 00d2 0346     		mov	r3, r0
 3679 00d4 002B     		cmp	r3, #0
 3680 00d6 06D0     		beq	.L330
 230:..\..\..\HamFlyAPI\src/hamfly_qx_protocol.c ****     }
 3681              		.loc 1 230 0 is_stmt 0 discriminator 1
ARM GAS  C:\Users\JENNEW~1\AppData\Local\Temp\ccQ5uJSg.s 			page 71


 3682 00d8 7868     		ldr	r0, [r7, #4]	@ float
 3683 00da FFF7FEFF 		bl	__aeabi_f2iz
 3684 00de 0346     		mov	r3, r0
 3685 00e0 1AB2     		sxth	r2, r3
 3686 00e2 FB68     		ldr	r3, [r7, #12]
 3687 00e4 1A80     		strh	r2, [r3]	@ movhi
 3688              	.L330:
 230:..\..\..\HamFlyAPI\src/hamfly_qx_protocol.c ****     }
 3689              		.loc 1 230 0 discriminator 3
 3690 00e6 FB68     		ldr	r3, [r7, #12]
 3691 00e8 B3F90030 		ldrsh	r3, [r3]
 3692 00ec 1846     		mov	r0, r3
 3693 00ee FFF7FEFF 		bl	__aeabi_i2f
 3694 00f2 0346     		mov	r3, r0
 3695 00f4 3968     		ldr	r1, [r7]	@ float
 3696 00f6 1846     		mov	r0, r3
 3697 00f8 FFF7FEFF 		bl	__aeabi_fcmplt
 3698 00fc 0346     		mov	r3, r0
 3699 00fe 002B     		cmp	r3, #0
 3700 0100 06D0     		beq	.L332
 230:..\..\..\HamFlyAPI\src/hamfly_qx_protocol.c ****     }
 3701              		.loc 1 230 0 discriminator 4
 3702 0102 3868     		ldr	r0, [r7]	@ float
 3703 0104 FFF7FEFF 		bl	__aeabi_f2iz
 3704 0108 0346     		mov	r3, r0
 3705 010a 1AB2     		sxth	r2, r3
 3706 010c FB68     		ldr	r3, [r7, #12]
 3707 010e 1A80     		strh	r2, [r3]	@ movhi
 3708              	.L332:
 230:..\..\..\HamFlyAPI\src/hamfly_qx_protocol.c ****     }
 3709              		.loc 1 230 0 discriminator 6
 3710 0110 FB68     		ldr	r3, [r7, #12]
 3711 0112 0233     		adds	r3, r3, #2
 3712 0114 FB60     		str	r3, [r7, #12]
 3713              	.L329:
 3714              	.LBE35:
 230:..\..\..\HamFlyAPI\src/hamfly_qx_protocol.c ****     }
 3715              		.loc 1 230 0 discriminator 7
 3716 0116 BB68     		ldr	r3, [r7, #8]
 3717 0118 5A1E     		subs	r2, r3, #1
 3718 011a BA60     		str	r2, [r7, #8]
 3719 011c 002B     		cmp	r3, #0
 3720 011e C1D1     		bne	.L334
 3721              	.L339:
 3722              		.loc 1 232 0 is_stmt 1
 3723 0120 00BF     		nop
 3724 0122 1837     		adds	r7, r7, #24
 3725              		.cfi_def_cfa_offset 8
 3726 0124 BD46     		mov	sp, r7
 3727              		.cfi_def_cfa_register 13
 3728              		@ sp needed
 3729 0126 80BD     		pop	{r7, pc}
 3730              	.L341:
 3731              		.align	2
 3732              	.L340:
 3733 0128 00000000 		.word	rw
 3734 012c 00000000 		.word	msgPtr
ARM GAS  C:\Users\JENNEW~1\AppData\Local\Temp\ccQ5uJSg.s 			page 72


 3735              		.cfi_endproc
 3736              	.LFE31:
 3737              		.size	GetSignedShortAsSignedChar, .-GetSignedShortAsSignedChar
 3738              		.section	.text.GetSignedShortAsUnsignedChar,"ax",%progbits
 3739              		.align	2
 3740              		.global	GetSignedShortAsUnsignedChar
 3741              		.thumb
 3742              		.thumb_func
 3743              		.type	GetSignedShortAsUnsignedChar, %function
 3744              	GetSignedShortAsUnsignedChar:
 3745              	.LFB32:
 233:..\..\..\HamFlyAPI\src/hamfly_qx_protocol.c **** void GetSignedShortAsUnsignedChar(int16_t *v, uint32_t n, int16_t max, int16_t min) {
 3746              		.loc 1 233 0
 3747              		.cfi_startproc
 3748              		@ args = 0, pretend = 0, frame = 24
 3749              		@ frame_needed = 1, uses_anonymous_args = 0
 3750              		@ link register save eliminated.
 3751 0000 80B4     		push	{r7}
 3752              		.cfi_def_cfa_offset 4
 3753              		.cfi_offset 7, -4
 3754 0002 87B0     		sub	sp, sp, #28
 3755              		.cfi_def_cfa_offset 32
 3756 0004 00AF     		add	r7, sp, #0
 3757              		.cfi_def_cfa_register 7
 3758 0006 F860     		str	r0, [r7, #12]
 3759 0008 B960     		str	r1, [r7, #8]
 3760 000a 1146     		mov	r1, r2
 3761 000c 1A46     		mov	r2, r3
 3762 000e 0B46     		mov	r3, r1	@ movhi
 3763 0010 FB80     		strh	r3, [r7, #6]	@ movhi
 3764 0012 1346     		mov	r3, r2	@ movhi
 3765 0014 BB80     		strh	r3, [r7, #4]	@ movhi
 234:..\..\..\HamFlyAPI\src/hamfly_qx_protocol.c ****     if (rw == QB_Parser_Dir_WriteDel) {
 3766              		.loc 1 234 0
 3767 0016 304B     		ldr	r3, .L354
 3768 0018 1B78     		ldrb	r3, [r3]	@ zero_extendqisi2
 3769 001a 012B     		cmp	r3, #1
 3770 001c 52D1     		bne	.L349
 235:..\..\..\HamFlyAPI\src/hamfly_qx_protocol.c ****         while (n--) { int16_t r = (int16_t)GETSC; *v += r; if (max<*v)*v=max; if (*v<min)*v=min; v+
 3771              		.loc 1 235 0
 3772 001e 29E0     		b	.L344
 3773              	.L347:
 3774              	.LBB36:
 3775              		.loc 1 235 0 is_stmt 0 discriminator 8
 3776 0020 2E4B     		ldr	r3, .L354+4
 3777 0022 1B68     		ldr	r3, [r3]
 3778 0024 5A1C     		adds	r2, r3, #1
 3779 0026 2D49     		ldr	r1, .L354+4
 3780 0028 0A60     		str	r2, [r1]
 3781 002a 1B78     		ldrb	r3, [r3]
 3782 002c DBB2     		uxtb	r3, r3
 3783 002e 5BB2     		sxtb	r3, r3
 3784 0030 FB82     		strh	r3, [r7, #22]	@ movhi
 3785 0032 FB68     		ldr	r3, [r7, #12]
 3786 0034 B3F90030 		ldrsh	r3, [r3]
 3787 0038 9AB2     		uxth	r2, r3
 3788 003a FB8A     		ldrh	r3, [r7, #22]
ARM GAS  C:\Users\JENNEW~1\AppData\Local\Temp\ccQ5uJSg.s 			page 73


 3789 003c 1344     		add	r3, r3, r2
 3790 003e 9BB2     		uxth	r3, r3
 3791 0040 1AB2     		sxth	r2, r3
 3792 0042 FB68     		ldr	r3, [r7, #12]
 3793 0044 1A80     		strh	r2, [r3]	@ movhi
 3794 0046 FB68     		ldr	r3, [r7, #12]
 3795 0048 B3F90030 		ldrsh	r3, [r3]
 3796 004c B7F90620 		ldrsh	r2, [r7, #6]
 3797 0050 9A42     		cmp	r2, r3
 3798 0052 02DA     		bge	.L345
 3799              		.loc 1 235 0 discriminator 1
 3800 0054 FB68     		ldr	r3, [r7, #12]
 3801 0056 FA88     		ldrh	r2, [r7, #6]	@ movhi
 3802 0058 1A80     		strh	r2, [r3]	@ movhi
 3803              	.L345:
 3804              		.loc 1 235 0 discriminator 3
 3805 005a FB68     		ldr	r3, [r7, #12]
 3806 005c B3F90030 		ldrsh	r3, [r3]
 3807 0060 B7F90420 		ldrsh	r2, [r7, #4]
 3808 0064 9A42     		cmp	r2, r3
 3809 0066 02DD     		ble	.L346
 3810              		.loc 1 235 0 discriminator 4
 3811 0068 FB68     		ldr	r3, [r7, #12]
 3812 006a BA88     		ldrh	r2, [r7, #4]	@ movhi
 3813 006c 1A80     		strh	r2, [r3]	@ movhi
 3814              	.L346:
 3815              		.loc 1 235 0 discriminator 6
 3816 006e FB68     		ldr	r3, [r7, #12]
 3817 0070 0233     		adds	r3, r3, #2
 3818 0072 FB60     		str	r3, [r7, #12]
 3819              	.L344:
 3820              	.LBE36:
 3821              		.loc 1 235 0 discriminator 7
 3822 0074 BB68     		ldr	r3, [r7, #8]
 3823 0076 5A1E     		subs	r2, r3, #1
 3824 0078 BA60     		str	r2, [r7, #8]
 3825 007a 002B     		cmp	r3, #0
 3826 007c D0D1     		bne	.L347
 236:..\..\..\HamFlyAPI\src/hamfly_qx_protocol.c ****     } else {
 237:..\..\..\HamFlyAPI\src/hamfly_qx_protocol.c ****         while (n--) { int16_t r = (int16_t)GETUC; *v  = r; if (max<*v)*v=max; if (*v<min)*v=min; v+
 238:..\..\..\HamFlyAPI\src/hamfly_qx_protocol.c ****     }
 239:..\..\..\HamFlyAPI\src/hamfly_qx_protocol.c **** }
 3827              		.loc 1 239 0 is_stmt 1
 3828 007e 26E0     		b	.L353
 3829              	.L352:
 3830              	.LBB37:
 237:..\..\..\HamFlyAPI\src/hamfly_qx_protocol.c ****     }
 3831              		.loc 1 237 0 discriminator 8
 3832 0080 164B     		ldr	r3, .L354+4
 3833 0082 1B68     		ldr	r3, [r3]
 3834 0084 5A1C     		adds	r2, r3, #1
 3835 0086 1549     		ldr	r1, .L354+4
 3836 0088 0A60     		str	r2, [r1]
 3837 008a 1B78     		ldrb	r3, [r3]
 3838 008c DBB2     		uxtb	r3, r3
 3839 008e BB82     		strh	r3, [r7, #20]	@ movhi
 3840 0090 FB68     		ldr	r3, [r7, #12]
ARM GAS  C:\Users\JENNEW~1\AppData\Local\Temp\ccQ5uJSg.s 			page 74


 3841 0092 BA8A     		ldrh	r2, [r7, #20]	@ movhi
 3842 0094 1A80     		strh	r2, [r3]	@ movhi
 3843 0096 FB68     		ldr	r3, [r7, #12]
 3844 0098 B3F90030 		ldrsh	r3, [r3]
 3845 009c B7F90620 		ldrsh	r2, [r7, #6]
 3846 00a0 9A42     		cmp	r2, r3
 3847 00a2 02DA     		bge	.L350
 237:..\..\..\HamFlyAPI\src/hamfly_qx_protocol.c ****     }
 3848              		.loc 1 237 0 is_stmt 0 discriminator 1
 3849 00a4 FB68     		ldr	r3, [r7, #12]
 3850 00a6 FA88     		ldrh	r2, [r7, #6]	@ movhi
 3851 00a8 1A80     		strh	r2, [r3]	@ movhi
 3852              	.L350:
 237:..\..\..\HamFlyAPI\src/hamfly_qx_protocol.c ****     }
 3853              		.loc 1 237 0 discriminator 3
 3854 00aa FB68     		ldr	r3, [r7, #12]
 3855 00ac B3F90030 		ldrsh	r3, [r3]
 3856 00b0 B7F90420 		ldrsh	r2, [r7, #4]
 3857 00b4 9A42     		cmp	r2, r3
 3858 00b6 02DD     		ble	.L351
 237:..\..\..\HamFlyAPI\src/hamfly_qx_protocol.c ****     }
 3859              		.loc 1 237 0 discriminator 4
 3860 00b8 FB68     		ldr	r3, [r7, #12]
 3861 00ba BA88     		ldrh	r2, [r7, #4]	@ movhi
 3862 00bc 1A80     		strh	r2, [r3]	@ movhi
 3863              	.L351:
 237:..\..\..\HamFlyAPI\src/hamfly_qx_protocol.c ****     }
 3864              		.loc 1 237 0 discriminator 6
 3865 00be FB68     		ldr	r3, [r7, #12]
 3866 00c0 0233     		adds	r3, r3, #2
 3867 00c2 FB60     		str	r3, [r7, #12]
 3868              	.L349:
 3869              	.LBE37:
 237:..\..\..\HamFlyAPI\src/hamfly_qx_protocol.c ****     }
 3870              		.loc 1 237 0 discriminator 7
 3871 00c4 BB68     		ldr	r3, [r7, #8]
 3872 00c6 5A1E     		subs	r2, r3, #1
 3873 00c8 BA60     		str	r2, [r7, #8]
 3874 00ca 002B     		cmp	r3, #0
 3875 00cc D8D1     		bne	.L352
 3876              	.L353:
 3877              		.loc 1 239 0 is_stmt 1
 3878 00ce 00BF     		nop
 3879 00d0 1C37     		adds	r7, r7, #28
 3880              		.cfi_def_cfa_offset 4
 3881 00d2 BD46     		mov	sp, r7
 3882              		.cfi_def_cfa_register 13
 3883              		@ sp needed
 3884 00d4 80BC     		pop	{r7}
 3885              		.cfi_restore 7
 3886              		.cfi_def_cfa_offset 0
 3887 00d6 7047     		bx	lr
 3888              	.L355:
 3889              		.align	2
 3890              	.L354:
 3891 00d8 00000000 		.word	rw
 3892 00dc 00000000 		.word	msgPtr
ARM GAS  C:\Users\JENNEW~1\AppData\Local\Temp\ccQ5uJSg.s 			page 75


 3893              		.cfi_endproc
 3894              	.LFE32:
 3895              		.size	GetSignedShortAsUnsignedChar, .-GetSignedShortAsUnsignedChar
 3896              		.section	.text.AddSignedCharAsSignedChar,"ax",%progbits
 3897              		.align	2
 3898              		.global	AddSignedCharAsSignedChar
 3899              		.thumb
 3900              		.thumb_func
 3901              		.type	AddSignedCharAsSignedChar, %function
 3902              	AddSignedCharAsSignedChar:
 3903              	.LFB33:
 240:..\..\..\HamFlyAPI\src/hamfly_qx_protocol.c **** 
 241:..\..\..\HamFlyAPI\src/hamfly_qx_protocol.c **** void AddSignedCharAsSignedChar(int8_t *v, uint32_t n) {
 3904              		.loc 1 241 0
 3905              		.cfi_startproc
 3906              		@ args = 0, pretend = 0, frame = 8
 3907              		@ frame_needed = 1, uses_anonymous_args = 0
 3908              		@ link register save eliminated.
 3909 0000 80B4     		push	{r7}
 3910              		.cfi_def_cfa_offset 4
 3911              		.cfi_offset 7, -4
 3912 0002 83B0     		sub	sp, sp, #12
 3913              		.cfi_def_cfa_offset 16
 3914 0004 00AF     		add	r7, sp, #0
 3915              		.cfi_def_cfa_register 7
 3916 0006 7860     		str	r0, [r7, #4]
 3917 0008 3960     		str	r1, [r7]
 242:..\..\..\HamFlyAPI\src/hamfly_qx_protocol.c ****     while (n--) { ADDCHAR(*v); v++; }
 3918              		.loc 1 242 0
 3919 000a 0CE0     		b	.L357
 3920              	.L358:
 3921              		.loc 1 242 0 is_stmt 0 discriminator 2
 3922 000c 0B4B     		ldr	r3, .L359
 3923 000e 1B68     		ldr	r3, [r3]
 3924 0010 5A1C     		adds	r2, r3, #1
 3925 0012 0A49     		ldr	r1, .L359
 3926 0014 0A60     		str	r2, [r1]
 3927 0016 7A68     		ldr	r2, [r7, #4]
 3928 0018 92F90020 		ldrsb	r2, [r2]
 3929 001c D2B2     		uxtb	r2, r2
 3930 001e 1A70     		strb	r2, [r3]
 3931 0020 7B68     		ldr	r3, [r7, #4]
 3932 0022 0133     		adds	r3, r3, #1
 3933 0024 7B60     		str	r3, [r7, #4]
 3934              	.L357:
 3935              		.loc 1 242 0 discriminator 1
 3936 0026 3B68     		ldr	r3, [r7]
 3937 0028 5A1E     		subs	r2, r3, #1
 3938 002a 3A60     		str	r2, [r7]
 3939 002c 002B     		cmp	r3, #0
 3940 002e EDD1     		bne	.L358
 243:..\..\..\HamFlyAPI\src/hamfly_qx_protocol.c **** }
 3941              		.loc 1 243 0 is_stmt 1
 3942 0030 00BF     		nop
 3943 0032 0C37     		adds	r7, r7, #12
 3944              		.cfi_def_cfa_offset 4
 3945 0034 BD46     		mov	sp, r7
ARM GAS  C:\Users\JENNEW~1\AppData\Local\Temp\ccQ5uJSg.s 			page 76


 3946              		.cfi_def_cfa_register 13
 3947              		@ sp needed
 3948 0036 80BC     		pop	{r7}
 3949              		.cfi_restore 7
 3950              		.cfi_def_cfa_offset 0
 3951 0038 7047     		bx	lr
 3952              	.L360:
 3953 003a 00BF     		.align	2
 3954              	.L359:
 3955 003c 00000000 		.word	msgPtr
 3956              		.cfi_endproc
 3957              	.LFE33:
 3958              		.size	AddSignedCharAsSignedChar, .-AddSignedCharAsSignedChar
 3959              		.section	.text.GetSignedCharAsSignedChar,"ax",%progbits
 3960              		.align	2
 3961              		.global	GetSignedCharAsSignedChar
 3962              		.thumb
 3963              		.thumb_func
 3964              		.type	GetSignedCharAsSignedChar, %function
 3965              	GetSignedCharAsSignedChar:
 3966              	.LFB34:
 244:..\..\..\HamFlyAPI\src/hamfly_qx_protocol.c **** void GetSignedCharAsSignedChar(int8_t *v, uint32_t n, int8_t max, int8_t min) {
 3967              		.loc 1 244 0
 3968              		.cfi_startproc
 3969              		@ args = 0, pretend = 0, frame = 24
 3970              		@ frame_needed = 1, uses_anonymous_args = 0
 3971              		@ link register save eliminated.
 3972 0000 80B4     		push	{r7}
 3973              		.cfi_def_cfa_offset 4
 3974              		.cfi_offset 7, -4
 3975 0002 87B0     		sub	sp, sp, #28
 3976              		.cfi_def_cfa_offset 32
 3977 0004 00AF     		add	r7, sp, #0
 3978              		.cfi_def_cfa_register 7
 3979 0006 F860     		str	r0, [r7, #12]
 3980 0008 B960     		str	r1, [r7, #8]
 3981 000a 1146     		mov	r1, r2
 3982 000c 1A46     		mov	r2, r3
 3983 000e 0B46     		mov	r3, r1
 3984 0010 FB71     		strb	r3, [r7, #7]
 3985 0012 1346     		mov	r3, r2
 3986 0014 BB71     		strb	r3, [r7, #6]
 245:..\..\..\HamFlyAPI\src/hamfly_qx_protocol.c ****     if (rw == QB_Parser_Dir_WriteDel) {
 3987              		.loc 1 245 0
 3988 0016 2F4B     		ldr	r3, .L373
 3989 0018 1B78     		ldrb	r3, [r3]	@ zero_extendqisi2
 3990 001a 012B     		cmp	r3, #1
 3991 001c 50D1     		bne	.L368
 246:..\..\..\HamFlyAPI\src/hamfly_qx_protocol.c ****         while (n--) { int8_t r = GETSC; int32_t t = *v; t += r;
 3992              		.loc 1 246 0
 3993 001e 27E0     		b	.L363
 3994              	.L366:
 3995              	.LBB38:
 3996              		.loc 1 246 0 is_stmt 0 discriminator 1
 3997 0020 2D4B     		ldr	r3, .L373+4
 3998 0022 1B68     		ldr	r3, [r3]
 3999 0024 5A1C     		adds	r2, r3, #1
ARM GAS  C:\Users\JENNEW~1\AppData\Local\Temp\ccQ5uJSg.s 			page 77


 4000 0026 2C49     		ldr	r1, .L373+4
 4001 0028 0A60     		str	r2, [r1]
 4002 002a 1B78     		ldrb	r3, [r3]
 4003 002c DBB2     		uxtb	r3, r3
 4004 002e FB74     		strb	r3, [r7, #19]
 4005 0030 FB68     		ldr	r3, [r7, #12]
 4006 0032 93F90030 		ldrsb	r3, [r3]
 4007 0036 7B61     		str	r3, [r7, #20]
 4008 0038 97F91330 		ldrsb	r3, [r7, #19]
 4009 003c 7A69     		ldr	r2, [r7, #20]
 4010 003e 1344     		add	r3, r3, r2
 4011 0040 7B61     		str	r3, [r7, #20]
 247:..\..\..\HamFlyAPI\src/hamfly_qx_protocol.c ****             if (max<t) t=max; if (t<min) t=min; *v = (int8_t)t; v++; }
 4012              		.loc 1 247 0 is_stmt 1 discriminator 1
 4013 0042 97F90720 		ldrsb	r2, [r7, #7]
 4014 0046 7B69     		ldr	r3, [r7, #20]
 4015 0048 9A42     		cmp	r2, r3
 4016 004a 02DA     		bge	.L364
 4017 004c 97F90730 		ldrsb	r3, [r7, #7]
 4018 0050 7B61     		str	r3, [r7, #20]
 4019              	.L364:
 4020              		.loc 1 247 0 is_stmt 0 discriminator 3
 4021 0052 97F90620 		ldrsb	r2, [r7, #6]
 4022 0056 7B69     		ldr	r3, [r7, #20]
 4023 0058 9A42     		cmp	r2, r3
 4024 005a 02DD     		ble	.L365
 4025              		.loc 1 247 0 discriminator 4
 4026 005c 97F90630 		ldrsb	r3, [r7, #6]
 4027 0060 7B61     		str	r3, [r7, #20]
 4028              	.L365:
 4029              		.loc 1 247 0 discriminator 6
 4030 0062 7B69     		ldr	r3, [r7, #20]
 4031 0064 5AB2     		sxtb	r2, r3
 4032 0066 FB68     		ldr	r3, [r7, #12]
 4033 0068 1A70     		strb	r2, [r3]
 4034 006a FB68     		ldr	r3, [r7, #12]
 4035 006c 0133     		adds	r3, r3, #1
 4036 006e FB60     		str	r3, [r7, #12]
 4037              	.L363:
 4038              	.LBE38:
 246:..\..\..\HamFlyAPI\src/hamfly_qx_protocol.c ****         while (n--) { int8_t r = GETSC; int32_t t = *v; t += r;
 4039              		.loc 1 246 0 is_stmt 1
 4040 0070 BB68     		ldr	r3, [r7, #8]
 4041 0072 5A1E     		subs	r2, r3, #1
 4042 0074 BA60     		str	r2, [r7, #8]
 4043 0076 002B     		cmp	r3, #0
 4044 0078 D2D1     		bne	.L366
 248:..\..\..\HamFlyAPI\src/hamfly_qx_protocol.c ****     } else {
 249:..\..\..\HamFlyAPI\src/hamfly_qx_protocol.c ****         while (n--) { int8_t r = GETSC; *v = r;
 250:..\..\..\HamFlyAPI\src/hamfly_qx_protocol.c ****             if (max<*v)*v=max; if (*v<min)*v=min; v++; }
 251:..\..\..\HamFlyAPI\src/hamfly_qx_protocol.c ****     }
 252:..\..\..\HamFlyAPI\src/hamfly_qx_protocol.c **** }
 4045              		.loc 1 252 0
 4046 007a 26E0     		b	.L372
 4047              	.L371:
 4048              	.LBB39:
 249:..\..\..\HamFlyAPI\src/hamfly_qx_protocol.c ****             if (max<*v)*v=max; if (*v<min)*v=min; v++; }
ARM GAS  C:\Users\JENNEW~1\AppData\Local\Temp\ccQ5uJSg.s 			page 78


 4049              		.loc 1 249 0 discriminator 1
 4050 007c 164B     		ldr	r3, .L373+4
 4051 007e 1B68     		ldr	r3, [r3]
 4052 0080 5A1C     		adds	r2, r3, #1
 4053 0082 1549     		ldr	r1, .L373+4
 4054 0084 0A60     		str	r2, [r1]
 4055 0086 1B78     		ldrb	r3, [r3]
 4056 0088 DBB2     		uxtb	r3, r3
 4057 008a BB74     		strb	r3, [r7, #18]
 4058 008c FB68     		ldr	r3, [r7, #12]
 4059 008e BA7C     		ldrb	r2, [r7, #18]
 4060 0090 1A70     		strb	r2, [r3]
 250:..\..\..\HamFlyAPI\src/hamfly_qx_protocol.c ****     }
 4061              		.loc 1 250 0 discriminator 1
 4062 0092 FB68     		ldr	r3, [r7, #12]
 4063 0094 93F90030 		ldrsb	r3, [r3]
 4064 0098 97F90720 		ldrsb	r2, [r7, #7]
 4065 009c 9A42     		cmp	r2, r3
 4066 009e 02DA     		bge	.L369
 4067 00a0 FB68     		ldr	r3, [r7, #12]
 4068 00a2 FA79     		ldrb	r2, [r7, #7]
 4069 00a4 1A70     		strb	r2, [r3]
 4070              	.L369:
 250:..\..\..\HamFlyAPI\src/hamfly_qx_protocol.c ****     }
 4071              		.loc 1 250 0 is_stmt 0 discriminator 3
 4072 00a6 FB68     		ldr	r3, [r7, #12]
 4073 00a8 93F90030 		ldrsb	r3, [r3]
 4074 00ac 97F90620 		ldrsb	r2, [r7, #6]
 4075 00b0 9A42     		cmp	r2, r3
 4076 00b2 02DD     		ble	.L370
 250:..\..\..\HamFlyAPI\src/hamfly_qx_protocol.c ****     }
 4077              		.loc 1 250 0 discriminator 4
 4078 00b4 FB68     		ldr	r3, [r7, #12]
 4079 00b6 BA79     		ldrb	r2, [r7, #6]
 4080 00b8 1A70     		strb	r2, [r3]
 4081              	.L370:
 250:..\..\..\HamFlyAPI\src/hamfly_qx_protocol.c ****     }
 4082              		.loc 1 250 0 discriminator 6
 4083 00ba FB68     		ldr	r3, [r7, #12]
 4084 00bc 0133     		adds	r3, r3, #1
 4085 00be FB60     		str	r3, [r7, #12]
 4086              	.L368:
 4087              	.LBE39:
 249:..\..\..\HamFlyAPI\src/hamfly_qx_protocol.c ****             if (max<*v)*v=max; if (*v<min)*v=min; v++; }
 4088              		.loc 1 249 0 is_stmt 1
 4089 00c0 BB68     		ldr	r3, [r7, #8]
 4090 00c2 5A1E     		subs	r2, r3, #1
 4091 00c4 BA60     		str	r2, [r7, #8]
 4092 00c6 002B     		cmp	r3, #0
 4093 00c8 D8D1     		bne	.L371
 4094              	.L372:
 4095              		.loc 1 252 0
 4096 00ca 00BF     		nop
 4097 00cc 1C37     		adds	r7, r7, #28
 4098              		.cfi_def_cfa_offset 4
 4099 00ce BD46     		mov	sp, r7
 4100              		.cfi_def_cfa_register 13
ARM GAS  C:\Users\JENNEW~1\AppData\Local\Temp\ccQ5uJSg.s 			page 79


 4101              		@ sp needed
 4102 00d0 80BC     		pop	{r7}
 4103              		.cfi_restore 7
 4104              		.cfi_def_cfa_offset 0
 4105 00d2 7047     		bx	lr
 4106              	.L374:
 4107              		.align	2
 4108              	.L373:
 4109 00d4 00000000 		.word	rw
 4110 00d8 00000000 		.word	msgPtr
 4111              		.cfi_endproc
 4112              	.LFE34:
 4113              		.size	GetSignedCharAsSignedChar, .-GetSignedCharAsSignedChar
 4114              		.section	.text.AddUnsignedCharAsUnsignedChar,"ax",%progbits
 4115              		.align	2
 4116              		.global	AddUnsignedCharAsUnsignedChar
 4117              		.thumb
 4118              		.thumb_func
 4119              		.type	AddUnsignedCharAsUnsignedChar, %function
 4120              	AddUnsignedCharAsUnsignedChar:
 4121              	.LFB35:
 253:..\..\..\HamFlyAPI\src/hamfly_qx_protocol.c **** 
 254:..\..\..\HamFlyAPI\src/hamfly_qx_protocol.c **** void AddUnsignedCharAsUnsignedChar(uint8_t *v, uint32_t n) {
 4122              		.loc 1 254 0
 4123              		.cfi_startproc
 4124              		@ args = 0, pretend = 0, frame = 8
 4125              		@ frame_needed = 1, uses_anonymous_args = 0
 4126              		@ link register save eliminated.
 4127 0000 80B4     		push	{r7}
 4128              		.cfi_def_cfa_offset 4
 4129              		.cfi_offset 7, -4
 4130 0002 83B0     		sub	sp, sp, #12
 4131              		.cfi_def_cfa_offset 16
 4132 0004 00AF     		add	r7, sp, #0
 4133              		.cfi_def_cfa_register 7
 4134 0006 7860     		str	r0, [r7, #4]
 4135 0008 3960     		str	r1, [r7]
 255:..\..\..\HamFlyAPI\src/hamfly_qx_protocol.c ****     while (n--) { ADDCHAR(*v); v++; }
 4136              		.loc 1 255 0
 4137 000a 0AE0     		b	.L376
 4138              	.L377:
 4139              		.loc 1 255 0 is_stmt 0 discriminator 2
 4140 000c 0A4B     		ldr	r3, .L378
 4141 000e 1B68     		ldr	r3, [r3]
 4142 0010 5A1C     		adds	r2, r3, #1
 4143 0012 0949     		ldr	r1, .L378
 4144 0014 0A60     		str	r2, [r1]
 4145 0016 7A68     		ldr	r2, [r7, #4]
 4146 0018 1278     		ldrb	r2, [r2]	@ zero_extendqisi2
 4147 001a 1A70     		strb	r2, [r3]
 4148 001c 7B68     		ldr	r3, [r7, #4]
 4149 001e 0133     		adds	r3, r3, #1
 4150 0020 7B60     		str	r3, [r7, #4]
 4151              	.L376:
 4152              		.loc 1 255 0 discriminator 1
 4153 0022 3B68     		ldr	r3, [r7]
 4154 0024 5A1E     		subs	r2, r3, #1
ARM GAS  C:\Users\JENNEW~1\AppData\Local\Temp\ccQ5uJSg.s 			page 80


 4155 0026 3A60     		str	r2, [r7]
 4156 0028 002B     		cmp	r3, #0
 4157 002a EFD1     		bne	.L377
 256:..\..\..\HamFlyAPI\src/hamfly_qx_protocol.c **** }
 4158              		.loc 1 256 0 is_stmt 1
 4159 002c 00BF     		nop
 4160 002e 0C37     		adds	r7, r7, #12
 4161              		.cfi_def_cfa_offset 4
 4162 0030 BD46     		mov	sp, r7
 4163              		.cfi_def_cfa_register 13
 4164              		@ sp needed
 4165 0032 80BC     		pop	{r7}
 4166              		.cfi_restore 7
 4167              		.cfi_def_cfa_offset 0
 4168 0034 7047     		bx	lr
 4169              	.L379:
 4170 0036 00BF     		.align	2
 4171              	.L378:
 4172 0038 00000000 		.word	msgPtr
 4173              		.cfi_endproc
 4174              	.LFE35:
 4175              		.size	AddUnsignedCharAsUnsignedChar, .-AddUnsignedCharAsUnsignedChar
 4176              		.section	.text.GetUnsignedCharAsUnsignedChar,"ax",%progbits
 4177              		.align	2
 4178              		.global	GetUnsignedCharAsUnsignedChar
 4179              		.thumb
 4180              		.thumb_func
 4181              		.type	GetUnsignedCharAsUnsignedChar, %function
 4182              	GetUnsignedCharAsUnsignedChar:
 4183              	.LFB36:
 257:..\..\..\HamFlyAPI\src/hamfly_qx_protocol.c **** void GetUnsignedCharAsUnsignedChar(uint8_t *v, uint32_t n, uint8_t max, uint8_t min) {
 4184              		.loc 1 257 0
 4185              		.cfi_startproc
 4186              		@ args = 0, pretend = 0, frame = 24
 4187              		@ frame_needed = 1, uses_anonymous_args = 0
 4188              		@ link register save eliminated.
 4189 0000 80B4     		push	{r7}
 4190              		.cfi_def_cfa_offset 4
 4191              		.cfi_offset 7, -4
 4192 0002 87B0     		sub	sp, sp, #28
 4193              		.cfi_def_cfa_offset 32
 4194 0004 00AF     		add	r7, sp, #0
 4195              		.cfi_def_cfa_register 7
 4196 0006 F860     		str	r0, [r7, #12]
 4197 0008 B960     		str	r1, [r7, #8]
 4198 000a 1146     		mov	r1, r2
 4199 000c 1A46     		mov	r2, r3
 4200 000e 0B46     		mov	r3, r1
 4201 0010 FB71     		strb	r3, [r7, #7]
 4202 0012 1346     		mov	r3, r2
 4203 0014 BB71     		strb	r3, [r7, #6]
 258:..\..\..\HamFlyAPI\src/hamfly_qx_protocol.c ****     if (rw == QB_Parser_Dir_WriteDel) {
 4204              		.loc 1 258 0
 4205 0016 2A4B     		ldr	r3, .L392
 4206 0018 1B78     		ldrb	r3, [r3]	@ zero_extendqisi2
 4207 001a 012B     		cmp	r3, #1
 4208 001c 46D1     		bne	.L387
ARM GAS  C:\Users\JENNEW~1\AppData\Local\Temp\ccQ5uJSg.s 			page 81


 259:..\..\..\HamFlyAPI\src/hamfly_qx_protocol.c ****         while (n--) { int8_t r = GETSC; int32_t t = *v; t += r;
 4209              		.loc 1 259 0
 4210 001e 22E0     		b	.L382
 4211              	.L385:
 4212              	.LBB40:
 4213              		.loc 1 259 0 is_stmt 0 discriminator 1
 4214 0020 284B     		ldr	r3, .L392+4
 4215 0022 1B68     		ldr	r3, [r3]
 4216 0024 5A1C     		adds	r2, r3, #1
 4217 0026 2749     		ldr	r1, .L392+4
 4218 0028 0A60     		str	r2, [r1]
 4219 002a 1B78     		ldrb	r3, [r3]
 4220 002c DBB2     		uxtb	r3, r3
 4221 002e FB74     		strb	r3, [r7, #19]
 4222 0030 FB68     		ldr	r3, [r7, #12]
 4223 0032 1B78     		ldrb	r3, [r3]	@ zero_extendqisi2
 4224 0034 7B61     		str	r3, [r7, #20]
 4225 0036 97F91330 		ldrsb	r3, [r7, #19]
 4226 003a 7A69     		ldr	r2, [r7, #20]
 4227 003c 1344     		add	r3, r3, r2
 4228 003e 7B61     		str	r3, [r7, #20]
 260:..\..\..\HamFlyAPI\src/hamfly_qx_protocol.c ****             if (max<t) t=max; if (t<min) t=min; *v = (uint8_t)t; v++; }
 4229              		.loc 1 260 0 is_stmt 1 discriminator 1
 4230 0040 FA79     		ldrb	r2, [r7, #7]	@ zero_extendqisi2
 4231 0042 7B69     		ldr	r3, [r7, #20]
 4232 0044 9A42     		cmp	r2, r3
 4233 0046 01DA     		bge	.L383
 4234 0048 FB79     		ldrb	r3, [r7, #7]	@ zero_extendqisi2
 4235 004a 7B61     		str	r3, [r7, #20]
 4236              	.L383:
 4237              		.loc 1 260 0 is_stmt 0 discriminator 3
 4238 004c BA79     		ldrb	r2, [r7, #6]	@ zero_extendqisi2
 4239 004e 7B69     		ldr	r3, [r7, #20]
 4240 0050 9A42     		cmp	r2, r3
 4241 0052 01DD     		ble	.L384
 4242              		.loc 1 260 0 discriminator 4
 4243 0054 BB79     		ldrb	r3, [r7, #6]	@ zero_extendqisi2
 4244 0056 7B61     		str	r3, [r7, #20]
 4245              	.L384:
 4246              		.loc 1 260 0 discriminator 6
 4247 0058 7B69     		ldr	r3, [r7, #20]
 4248 005a DAB2     		uxtb	r2, r3
 4249 005c FB68     		ldr	r3, [r7, #12]
 4250 005e 1A70     		strb	r2, [r3]
 4251 0060 FB68     		ldr	r3, [r7, #12]
 4252 0062 0133     		adds	r3, r3, #1
 4253 0064 FB60     		str	r3, [r7, #12]
 4254              	.L382:
 4255              	.LBE40:
 259:..\..\..\HamFlyAPI\src/hamfly_qx_protocol.c ****         while (n--) { int8_t r = GETSC; int32_t t = *v; t += r;
 4256              		.loc 1 259 0 is_stmt 1
 4257 0066 BB68     		ldr	r3, [r7, #8]
 4258 0068 5A1E     		subs	r2, r3, #1
 4259 006a BA60     		str	r2, [r7, #8]
 4260 006c 002B     		cmp	r3, #0
 4261 006e D7D1     		bne	.L385
 261:..\..\..\HamFlyAPI\src/hamfly_qx_protocol.c ****     } else {
ARM GAS  C:\Users\JENNEW~1\AppData\Local\Temp\ccQ5uJSg.s 			page 82


 262:..\..\..\HamFlyAPI\src/hamfly_qx_protocol.c ****         while (n--) { uint8_t r = GETUC; *v = r;
 263:..\..\..\HamFlyAPI\src/hamfly_qx_protocol.c ****             if (max<*v)*v=max; if (*v<min)*v=min; v++; }
 264:..\..\..\HamFlyAPI\src/hamfly_qx_protocol.c ****     }
 265:..\..\..\HamFlyAPI\src/hamfly_qx_protocol.c **** }
 4262              		.loc 1 265 0
 4263 0070 21E0     		b	.L391
 4264              	.L390:
 4265              	.LBB41:
 262:..\..\..\HamFlyAPI\src/hamfly_qx_protocol.c ****             if (max<*v)*v=max; if (*v<min)*v=min; v++; }
 4266              		.loc 1 262 0 discriminator 1
 4267 0072 144B     		ldr	r3, .L392+4
 4268 0074 1B68     		ldr	r3, [r3]
 4269 0076 5A1C     		adds	r2, r3, #1
 4270 0078 1249     		ldr	r1, .L392+4
 4271 007a 0A60     		str	r2, [r1]
 4272 007c 1B78     		ldrb	r3, [r3]
 4273 007e BB74     		strb	r3, [r7, #18]
 4274 0080 FB68     		ldr	r3, [r7, #12]
 4275 0082 BA7C     		ldrb	r2, [r7, #18]
 4276 0084 1A70     		strb	r2, [r3]
 263:..\..\..\HamFlyAPI\src/hamfly_qx_protocol.c ****     }
 4277              		.loc 1 263 0 discriminator 1
 4278 0086 FB68     		ldr	r3, [r7, #12]
 4279 0088 1B78     		ldrb	r3, [r3]	@ zero_extendqisi2
 4280 008a FA79     		ldrb	r2, [r7, #7]	@ zero_extendqisi2
 4281 008c 9A42     		cmp	r2, r3
 4282 008e 02D2     		bcs	.L388
 4283 0090 FB68     		ldr	r3, [r7, #12]
 4284 0092 FA79     		ldrb	r2, [r7, #7]
 4285 0094 1A70     		strb	r2, [r3]
 4286              	.L388:
 263:..\..\..\HamFlyAPI\src/hamfly_qx_protocol.c ****     }
 4287              		.loc 1 263 0 is_stmt 0 discriminator 3
 4288 0096 FB68     		ldr	r3, [r7, #12]
 4289 0098 1B78     		ldrb	r3, [r3]	@ zero_extendqisi2
 4290 009a BA79     		ldrb	r2, [r7, #6]	@ zero_extendqisi2
 4291 009c 9A42     		cmp	r2, r3
 4292 009e 02D9     		bls	.L389
 263:..\..\..\HamFlyAPI\src/hamfly_qx_protocol.c ****     }
 4293              		.loc 1 263 0 discriminator 4
 4294 00a0 FB68     		ldr	r3, [r7, #12]
 4295 00a2 BA79     		ldrb	r2, [r7, #6]
 4296 00a4 1A70     		strb	r2, [r3]
 4297              	.L389:
 263:..\..\..\HamFlyAPI\src/hamfly_qx_protocol.c ****     }
 4298              		.loc 1 263 0 discriminator 6
 4299 00a6 FB68     		ldr	r3, [r7, #12]
 4300 00a8 0133     		adds	r3, r3, #1
 4301 00aa FB60     		str	r3, [r7, #12]
 4302              	.L387:
 4303              	.LBE41:
 262:..\..\..\HamFlyAPI\src/hamfly_qx_protocol.c ****             if (max<*v)*v=max; if (*v<min)*v=min; v++; }
 4304              		.loc 1 262 0 is_stmt 1
 4305 00ac BB68     		ldr	r3, [r7, #8]
 4306 00ae 5A1E     		subs	r2, r3, #1
 4307 00b0 BA60     		str	r2, [r7, #8]
 4308 00b2 002B     		cmp	r3, #0
ARM GAS  C:\Users\JENNEW~1\AppData\Local\Temp\ccQ5uJSg.s 			page 83


 4309 00b4 DDD1     		bne	.L390
 4310              	.L391:
 4311              		.loc 1 265 0
 4312 00b6 00BF     		nop
 4313 00b8 1C37     		adds	r7, r7, #28
 4314              		.cfi_def_cfa_offset 4
 4315 00ba BD46     		mov	sp, r7
 4316              		.cfi_def_cfa_register 13
 4317              		@ sp needed
 4318 00bc 80BC     		pop	{r7}
 4319              		.cfi_restore 7
 4320              		.cfi_def_cfa_offset 0
 4321 00be 7047     		bx	lr
 4322              	.L393:
 4323              		.align	2
 4324              	.L392:
 4325 00c0 00000000 		.word	rw
 4326 00c4 00000000 		.word	msgPtr
 4327              		.cfi_endproc
 4328              	.LFE36:
 4329              		.size	GetUnsignedCharAsUnsignedChar, .-GetUnsignedCharAsUnsignedChar
 4330              		.section	.text.AddUnsignedShortAsUnsignedShort,"ax",%progbits
 4331              		.align	2
 4332              		.global	AddUnsignedShortAsUnsignedShort
 4333              		.thumb
 4334              		.thumb_func
 4335              		.type	AddUnsignedShortAsUnsignedShort, %function
 4336              	AddUnsignedShortAsUnsignedShort:
 4337              	.LFB37:
 266:..\..\..\HamFlyAPI\src/hamfly_qx_protocol.c **** 
 267:..\..\..\HamFlyAPI\src/hamfly_qx_protocol.c **** void AddUnsignedShortAsUnsignedShort(uint16_t *v, uint32_t n) {
 4338              		.loc 1 267 0
 4339              		.cfi_startproc
 4340              		@ args = 0, pretend = 0, frame = 8
 4341              		@ frame_needed = 1, uses_anonymous_args = 0
 4342              		@ link register save eliminated.
 4343 0000 80B4     		push	{r7}
 4344              		.cfi_def_cfa_offset 4
 4345              		.cfi_offset 7, -4
 4346 0002 83B0     		sub	sp, sp, #12
 4347              		.cfi_def_cfa_offset 16
 4348 0004 00AF     		add	r7, sp, #0
 4349              		.cfi_def_cfa_register 7
 4350 0006 7860     		str	r0, [r7, #4]
 4351 0008 3960     		str	r1, [r7]
 268:..\..\..\HamFlyAPI\src/hamfly_qx_protocol.c ****     while (n--) { ADDUS(*v); v++; }
 4352              		.loc 1 268 0
 4353 000a 16E0     		b	.L395
 4354              	.L396:
 4355              		.loc 1 268 0 is_stmt 0 discriminator 2
 4356 000c 104B     		ldr	r3, .L397
 4357 000e 1B68     		ldr	r3, [r3]
 4358 0010 5A1C     		adds	r2, r3, #1
 4359 0012 0F49     		ldr	r1, .L397
 4360 0014 0A60     		str	r2, [r1]
 4361 0016 7A68     		ldr	r2, [r7, #4]
 4362 0018 1288     		ldrh	r2, [r2]
ARM GAS  C:\Users\JENNEW~1\AppData\Local\Temp\ccQ5uJSg.s 			page 84


 4363 001a 120A     		lsrs	r2, r2, #8
 4364 001c 92B2     		uxth	r2, r2
 4365 001e D2B2     		uxtb	r2, r2
 4366 0020 1A70     		strb	r2, [r3]
 4367 0022 0B4B     		ldr	r3, .L397
 4368 0024 1B68     		ldr	r3, [r3]
 4369 0026 5A1C     		adds	r2, r3, #1
 4370 0028 0949     		ldr	r1, .L397
 4371 002a 0A60     		str	r2, [r1]
 4372 002c 7A68     		ldr	r2, [r7, #4]
 4373 002e 1288     		ldrh	r2, [r2]
 4374 0030 D2B2     		uxtb	r2, r2
 4375 0032 1A70     		strb	r2, [r3]
 4376 0034 7B68     		ldr	r3, [r7, #4]
 4377 0036 0233     		adds	r3, r3, #2
 4378 0038 7B60     		str	r3, [r7, #4]
 4379              	.L395:
 4380              		.loc 1 268 0 discriminator 1
 4381 003a 3B68     		ldr	r3, [r7]
 4382 003c 5A1E     		subs	r2, r3, #1
 4383 003e 3A60     		str	r2, [r7]
 4384 0040 002B     		cmp	r3, #0
 4385 0042 E3D1     		bne	.L396
 269:..\..\..\HamFlyAPI\src/hamfly_qx_protocol.c **** }
 4386              		.loc 1 269 0 is_stmt 1
 4387 0044 00BF     		nop
 4388 0046 0C37     		adds	r7, r7, #12
 4389              		.cfi_def_cfa_offset 4
 4390 0048 BD46     		mov	sp, r7
 4391              		.cfi_def_cfa_register 13
 4392              		@ sp needed
 4393 004a 80BC     		pop	{r7}
 4394              		.cfi_restore 7
 4395              		.cfi_def_cfa_offset 0
 4396 004c 7047     		bx	lr
 4397              	.L398:
 4398 004e 00BF     		.align	2
 4399              	.L397:
 4400 0050 00000000 		.word	msgPtr
 4401              		.cfi_endproc
 4402              	.LFE37:
 4403              		.size	AddUnsignedShortAsUnsignedShort, .-AddUnsignedShortAsUnsignedShort
 4404              		.section	.text.GetUnsignedShortAsUnsignedShort,"ax",%progbits
 4405              		.align	2
 4406              		.global	GetUnsignedShortAsUnsignedShort
 4407              		.thumb
 4408              		.thumb_func
 4409              		.type	GetUnsignedShortAsUnsignedShort, %function
 4410              	GetUnsignedShortAsUnsignedShort:
 4411              	.LFB38:
 270:..\..\..\HamFlyAPI\src/hamfly_qx_protocol.c **** void GetUnsignedShortAsUnsignedShort(uint16_t *v, uint32_t n, uint16_t max, uint16_t min) {
 4412              		.loc 1 270 0
 4413              		.cfi_startproc
 4414              		@ args = 0, pretend = 0, frame = 24
 4415              		@ frame_needed = 1, uses_anonymous_args = 0
 4416              		@ link register save eliminated.
 4417 0000 80B4     		push	{r7}
ARM GAS  C:\Users\JENNEW~1\AppData\Local\Temp\ccQ5uJSg.s 			page 85


 4418              		.cfi_def_cfa_offset 4
 4419              		.cfi_offset 7, -4
 4420 0002 87B0     		sub	sp, sp, #28
 4421              		.cfi_def_cfa_offset 32
 4422 0004 00AF     		add	r7, sp, #0
 4423              		.cfi_def_cfa_register 7
 4424 0006 F860     		str	r0, [r7, #12]
 4425 0008 B960     		str	r1, [r7, #8]
 4426 000a 1146     		mov	r1, r2
 4427 000c 1A46     		mov	r2, r3
 4428 000e 0B46     		mov	r3, r1	@ movhi
 4429 0010 FB80     		strh	r3, [r7, #6]	@ movhi
 4430 0012 1346     		mov	r3, r2	@ movhi
 4431 0014 BB80     		strh	r3, [r7, #4]	@ movhi
 271:..\..\..\HamFlyAPI\src/hamfly_qx_protocol.c ****     if (rw == QB_Parser_Dir_WriteDel) {
 4432              		.loc 1 271 0
 4433 0016 364B     		ldr	r3, .L411
 4434 0018 1B78     		ldrb	r3, [r3]	@ zero_extendqisi2
 4435 001a 012B     		cmp	r3, #1
 4436 001c 5ED1     		bne	.L406
 272:..\..\..\HamFlyAPI\src/hamfly_qx_protocol.c ****         while (n--) { uint16_t r = GETUS; *v += r; if (max<*v)*v=max; if (*v<min)*v=min; v++; }
 4437              		.loc 1 272 0
 4438 001e 2DE0     		b	.L401
 4439              	.L404:
 4440              	.LBB42:
 4441              		.loc 1 272 0 is_stmt 0 discriminator 8
 4442 0020 344B     		ldr	r3, .L411+4
 4443 0022 1B68     		ldr	r3, [r3]
 4444 0024 1B78     		ldrb	r3, [r3]
 4445 0026 DBB2     		uxtb	r3, r3
 4446 0028 9BB2     		uxth	r3, r3
 4447 002a 1B02     		lsls	r3, r3, #8
 4448 002c 9AB2     		uxth	r2, r3
 4449 002e 314B     		ldr	r3, .L411+4
 4450 0030 1B68     		ldr	r3, [r3]
 4451 0032 0133     		adds	r3, r3, #1
 4452 0034 1B78     		ldrb	r3, [r3]
 4453 0036 DBB2     		uxtb	r3, r3
 4454 0038 9BB2     		uxth	r3, r3
 4455 003a 1343     		orrs	r3, r3, r2
 4456 003c FB82     		strh	r3, [r7, #22]	@ movhi
 4457 003e 2D4B     		ldr	r3, .L411+4
 4458 0040 1B68     		ldr	r3, [r3]
 4459 0042 0233     		adds	r3, r3, #2
 4460 0044 2B4A     		ldr	r2, .L411+4
 4461 0046 1360     		str	r3, [r2]
 4462 0048 FB68     		ldr	r3, [r7, #12]
 4463 004a 1A88     		ldrh	r2, [r3]
 4464 004c FB8A     		ldrh	r3, [r7, #22]	@ movhi
 4465 004e 1344     		add	r3, r3, r2
 4466 0050 9AB2     		uxth	r2, r3
 4467 0052 FB68     		ldr	r3, [r7, #12]
 4468 0054 1A80     		strh	r2, [r3]	@ movhi
 4469 0056 FB68     		ldr	r3, [r7, #12]
 4470 0058 1B88     		ldrh	r3, [r3]
 4471 005a FA88     		ldrh	r2, [r7, #6]
 4472 005c 9A42     		cmp	r2, r3
ARM GAS  C:\Users\JENNEW~1\AppData\Local\Temp\ccQ5uJSg.s 			page 86


 4473 005e 02D2     		bcs	.L402
 4474              		.loc 1 272 0 discriminator 1
 4475 0060 FB68     		ldr	r3, [r7, #12]
 4476 0062 FA88     		ldrh	r2, [r7, #6]	@ movhi
 4477 0064 1A80     		strh	r2, [r3]	@ movhi
 4478              	.L402:
 4479              		.loc 1 272 0 discriminator 3
 4480 0066 FB68     		ldr	r3, [r7, #12]
 4481 0068 1B88     		ldrh	r3, [r3]
 4482 006a BA88     		ldrh	r2, [r7, #4]
 4483 006c 9A42     		cmp	r2, r3
 4484 006e 02D9     		bls	.L403
 4485              		.loc 1 272 0 discriminator 4
 4486 0070 FB68     		ldr	r3, [r7, #12]
 4487 0072 BA88     		ldrh	r2, [r7, #4]	@ movhi
 4488 0074 1A80     		strh	r2, [r3]	@ movhi
 4489              	.L403:
 4490              		.loc 1 272 0 discriminator 6
 4491 0076 FB68     		ldr	r3, [r7, #12]
 4492 0078 0233     		adds	r3, r3, #2
 4493 007a FB60     		str	r3, [r7, #12]
 4494              	.L401:
 4495              	.LBE42:
 4496              		.loc 1 272 0 discriminator 7
 4497 007c BB68     		ldr	r3, [r7, #8]
 4498 007e 5A1E     		subs	r2, r3, #1
 4499 0080 BA60     		str	r2, [r7, #8]
 4500 0082 002B     		cmp	r3, #0
 4501 0084 CCD1     		bne	.L404
 273:..\..\..\HamFlyAPI\src/hamfly_qx_protocol.c ****     } else {
 274:..\..\..\HamFlyAPI\src/hamfly_qx_protocol.c ****         while (n--) { uint16_t r = GETUS; *v  = r; if (max<*v)*v=max; if (*v<min)*v=min; v++; }
 275:..\..\..\HamFlyAPI\src/hamfly_qx_protocol.c ****     }
 276:..\..\..\HamFlyAPI\src/hamfly_qx_protocol.c **** }
 4502              		.loc 1 276 0 is_stmt 1
 4503 0086 2EE0     		b	.L410
 4504              	.L409:
 4505              	.LBB43:
 274:..\..\..\HamFlyAPI\src/hamfly_qx_protocol.c ****     }
 4506              		.loc 1 274 0 discriminator 8
 4507 0088 1A4B     		ldr	r3, .L411+4
 4508 008a 1B68     		ldr	r3, [r3]
 4509 008c 1B78     		ldrb	r3, [r3]
 4510 008e DBB2     		uxtb	r3, r3
 4511 0090 9BB2     		uxth	r3, r3
 4512 0092 1B02     		lsls	r3, r3, #8
 4513 0094 9AB2     		uxth	r2, r3
 4514 0096 174B     		ldr	r3, .L411+4
 4515 0098 1B68     		ldr	r3, [r3]
 4516 009a 0133     		adds	r3, r3, #1
 4517 009c 1B78     		ldrb	r3, [r3]
 4518 009e DBB2     		uxtb	r3, r3
 4519 00a0 9BB2     		uxth	r3, r3
 4520 00a2 1343     		orrs	r3, r3, r2
 4521 00a4 BB82     		strh	r3, [r7, #20]	@ movhi
 4522 00a6 134B     		ldr	r3, .L411+4
 4523 00a8 1B68     		ldr	r3, [r3]
 4524 00aa 0233     		adds	r3, r3, #2
ARM GAS  C:\Users\JENNEW~1\AppData\Local\Temp\ccQ5uJSg.s 			page 87


 4525 00ac 114A     		ldr	r2, .L411+4
 4526 00ae 1360     		str	r3, [r2]
 4527 00b0 FB68     		ldr	r3, [r7, #12]
 4528 00b2 BA8A     		ldrh	r2, [r7, #20]	@ movhi
 4529 00b4 1A80     		strh	r2, [r3]	@ movhi
 4530 00b6 FB68     		ldr	r3, [r7, #12]
 4531 00b8 1B88     		ldrh	r3, [r3]
 4532 00ba FA88     		ldrh	r2, [r7, #6]
 4533 00bc 9A42     		cmp	r2, r3
 4534 00be 02D2     		bcs	.L407
 274:..\..\..\HamFlyAPI\src/hamfly_qx_protocol.c ****     }
 4535              		.loc 1 274 0 is_stmt 0 discriminator 1
 4536 00c0 FB68     		ldr	r3, [r7, #12]
 4537 00c2 FA88     		ldrh	r2, [r7, #6]	@ movhi
 4538 00c4 1A80     		strh	r2, [r3]	@ movhi
 4539              	.L407:
 274:..\..\..\HamFlyAPI\src/hamfly_qx_protocol.c ****     }
 4540              		.loc 1 274 0 discriminator 3
 4541 00c6 FB68     		ldr	r3, [r7, #12]
 4542 00c8 1B88     		ldrh	r3, [r3]
 4543 00ca BA88     		ldrh	r2, [r7, #4]
 4544 00cc 9A42     		cmp	r2, r3
 4545 00ce 02D9     		bls	.L408
 274:..\..\..\HamFlyAPI\src/hamfly_qx_protocol.c ****     }
 4546              		.loc 1 274 0 discriminator 4
 4547 00d0 FB68     		ldr	r3, [r7, #12]
 4548 00d2 BA88     		ldrh	r2, [r7, #4]	@ movhi
 4549 00d4 1A80     		strh	r2, [r3]	@ movhi
 4550              	.L408:
 274:..\..\..\HamFlyAPI\src/hamfly_qx_protocol.c ****     }
 4551              		.loc 1 274 0 discriminator 6
 4552 00d6 FB68     		ldr	r3, [r7, #12]
 4553 00d8 0233     		adds	r3, r3, #2
 4554 00da FB60     		str	r3, [r7, #12]
 4555              	.L406:
 4556              	.LBE43:
 274:..\..\..\HamFlyAPI\src/hamfly_qx_protocol.c ****     }
 4557              		.loc 1 274 0 discriminator 7
 4558 00dc BB68     		ldr	r3, [r7, #8]
 4559 00de 5A1E     		subs	r2, r3, #1
 4560 00e0 BA60     		str	r2, [r7, #8]
 4561 00e2 002B     		cmp	r3, #0
 4562 00e4 D0D1     		bne	.L409
 4563              	.L410:
 4564              		.loc 1 276 0 is_stmt 1
 4565 00e6 00BF     		nop
 4566 00e8 1C37     		adds	r7, r7, #28
 4567              		.cfi_def_cfa_offset 4
 4568 00ea BD46     		mov	sp, r7
 4569              		.cfi_def_cfa_register 13
 4570              		@ sp needed
 4571 00ec 80BC     		pop	{r7}
 4572              		.cfi_restore 7
 4573              		.cfi_def_cfa_offset 0
 4574 00ee 7047     		bx	lr
 4575              	.L412:
 4576              		.align	2
ARM GAS  C:\Users\JENNEW~1\AppData\Local\Temp\ccQ5uJSg.s 			page 88


 4577              	.L411:
 4578 00f0 00000000 		.word	rw
 4579 00f4 00000000 		.word	msgPtr
 4580              		.cfi_endproc
 4581              	.LFE38:
 4582              		.size	GetUnsignedShortAsUnsignedShort, .-GetUnsignedShortAsUnsignedShort
 4583              		.section	.text.AddBitsAsByte,"ax",%progbits
 4584              		.align	2
 4585              		.global	AddBitsAsByte
 4586              		.thumb
 4587              		.thumb_func
 4588              		.type	AddBitsAsByte, %function
 4589              	AddBitsAsByte:
 4590              	.LFB39:
 277:..\..\..\HamFlyAPI\src/hamfly_qx_protocol.c **** 
 278:..\..\..\HamFlyAPI\src/hamfly_qx_protocol.c **** void AddBitsAsByte(uint8_t *v, uint8_t start_bit, uint8_t n_bits) {
 4591              		.loc 1 278 0
 4592              		.cfi_startproc
 4593              		@ args = 0, pretend = 0, frame = 16
 4594              		@ frame_needed = 1, uses_anonymous_args = 0
 4595              		@ link register save eliminated.
 4596 0000 80B4     		push	{r7}
 4597              		.cfi_def_cfa_offset 4
 4598              		.cfi_offset 7, -4
 4599 0002 85B0     		sub	sp, sp, #20
 4600              		.cfi_def_cfa_offset 24
 4601 0004 00AF     		add	r7, sp, #0
 4602              		.cfi_def_cfa_register 7
 4603 0006 7860     		str	r0, [r7, #4]
 4604 0008 0B46     		mov	r3, r1
 4605 000a FB70     		strb	r3, [r7, #3]
 4606 000c 1346     		mov	r3, r2
 4607 000e BB70     		strb	r3, [r7, #2]
 279:..\..\..\HamFlyAPI\src/hamfly_qx_protocol.c ****     uint8_t temp = *msgPtr, mask = 0;
 4608              		.loc 1 279 0
 4609 0010 2D4B     		ldr	r3, .L426
 4610 0012 1B68     		ldr	r3, [r3]
 4611 0014 1B78     		ldrb	r3, [r3]
 4612 0016 BB73     		strb	r3, [r7, #14]
 4613 0018 0023     		movs	r3, #0
 4614 001a FB73     		strb	r3, [r7, #15]
 280:..\..\..\HamFlyAPI\src/hamfly_qx_protocol.c ****     switch (n_bits) {
 4615              		.loc 1 280 0
 4616 001c BB78     		ldrb	r3, [r7, #2]	@ zero_extendqisi2
 4617 001e 013B     		subs	r3, r3, #1
 4618 0020 072B     		cmp	r3, #7
 4619 0022 2BD8     		bhi	.L425
 4620 0024 01A2     		adr	r2, .L416
 4621 0026 52F823F0 		ldr	pc, [r2, r3, lsl #2]
 4622 002a 00BF     		.p2align 2
 4623              	.L416:
 4624 002c 4D000000 		.word	.L415+1
 4625 0030 53000000 		.word	.L417+1
 4626 0034 59000000 		.word	.L418+1
 4627 0038 5F000000 		.word	.L419+1
 4628 003c 65000000 		.word	.L420+1
 4629 0040 6B000000 		.word	.L421+1
ARM GAS  C:\Users\JENNEW~1\AppData\Local\Temp\ccQ5uJSg.s 			page 89


 4630 0044 71000000 		.word	.L422+1
 4631 0048 77000000 		.word	.L423+1
 4632              		.p2align 1
 4633              	.L415:
 281:..\..\..\HamFlyAPI\src/hamfly_qx_protocol.c ****         case 1: mask=BITFIELD_MASK_1; break; case 2: mask=BITFIELD_MASK_2; break;
 4634              		.loc 1 281 0
 4635 004c 0123     		movs	r3, #1
 4636 004e FB73     		strb	r3, [r7, #15]
 4637 0050 15E0     		b	.L424
 4638              	.L417:
 4639 0052 0323     		movs	r3, #3
 4640 0054 FB73     		strb	r3, [r7, #15]
 4641 0056 12E0     		b	.L424
 4642              	.L418:
 282:..\..\..\HamFlyAPI\src/hamfly_qx_protocol.c ****         case 3: mask=BITFIELD_MASK_3; break; case 4: mask=BITFIELD_MASK_4; break;
 4643              		.loc 1 282 0
 4644 0058 0723     		movs	r3, #7
 4645 005a FB73     		strb	r3, [r7, #15]
 4646 005c 0FE0     		b	.L424
 4647              	.L419:
 4648 005e 0F23     		movs	r3, #15
 4649 0060 FB73     		strb	r3, [r7, #15]
 4650 0062 0CE0     		b	.L424
 4651              	.L420:
 283:..\..\..\HamFlyAPI\src/hamfly_qx_protocol.c ****         case 5: mask=BITFIELD_MASK_5; break; case 6: mask=BITFIELD_MASK_6; break;
 4652              		.loc 1 283 0
 4653 0064 1F23     		movs	r3, #31
 4654 0066 FB73     		strb	r3, [r7, #15]
 4655 0068 09E0     		b	.L424
 4656              	.L421:
 4657 006a 3F23     		movs	r3, #63
 4658 006c FB73     		strb	r3, [r7, #15]
 4659 006e 06E0     		b	.L424
 4660              	.L422:
 284:..\..\..\HamFlyAPI\src/hamfly_qx_protocol.c ****         case 7: mask=BITFIELD_MASK_7; break; case 8: mask=BITFIELD_MASK_8; break;
 4661              		.loc 1 284 0
 4662 0070 7F23     		movs	r3, #127
 4663 0072 FB73     		strb	r3, [r7, #15]
 4664 0074 03E0     		b	.L424
 4665              	.L423:
 4666 0076 FF23     		movs	r3, #255
 4667 0078 FB73     		strb	r3, [r7, #15]
 4668 007a 00E0     		b	.L424
 4669              	.L425:
 285:..\..\..\HamFlyAPI\src/hamfly_qx_protocol.c ****         default: break;
 4670              		.loc 1 285 0
 4671 007c 00BF     		nop
 4672              	.L424:
 286:..\..\..\HamFlyAPI\src/hamfly_qx_protocol.c ****     }
 287:..\..\..\HamFlyAPI\src/hamfly_qx_protocol.c ****     temp &= ~(mask << start_bit);
 4673              		.loc 1 287 0
 4674 007e FA7B     		ldrb	r2, [r7, #15]	@ zero_extendqisi2
 4675 0080 FB78     		ldrb	r3, [r7, #3]	@ zero_extendqisi2
 4676 0082 02FA03F3 		lsl	r3, r2, r3
 4677 0086 5BB2     		sxtb	r3, r3
 4678 0088 DB43     		mvns	r3, r3
 4679 008a 5AB2     		sxtb	r2, r3
ARM GAS  C:\Users\JENNEW~1\AppData\Local\Temp\ccQ5uJSg.s 			page 90


 4680 008c 97F90E30 		ldrsb	r3, [r7, #14]
 4681 0090 1340     		ands	r3, r3, r2
 4682 0092 5BB2     		sxtb	r3, r3
 4683 0094 BB73     		strb	r3, [r7, #14]
 288:..\..\..\HamFlyAPI\src/hamfly_qx_protocol.c ****     temp |= ((*v & mask) << start_bit);
 4684              		.loc 1 288 0
 4685 0096 7B68     		ldr	r3, [r7, #4]
 4686 0098 1A78     		ldrb	r2, [r3]	@ zero_extendqisi2
 4687 009a FB7B     		ldrb	r3, [r7, #15]
 4688 009c 1340     		ands	r3, r3, r2
 4689 009e DBB2     		uxtb	r3, r3
 4690 00a0 1A46     		mov	r2, r3
 4691 00a2 FB78     		ldrb	r3, [r7, #3]	@ zero_extendqisi2
 4692 00a4 02FA03F3 		lsl	r3, r2, r3
 4693 00a8 5AB2     		sxtb	r2, r3
 4694 00aa 97F90E30 		ldrsb	r3, [r7, #14]
 4695 00ae 1343     		orrs	r3, r3, r2
 4696 00b0 5BB2     		sxtb	r3, r3
 4697 00b2 BB73     		strb	r3, [r7, #14]
 289:..\..\..\HamFlyAPI\src/hamfly_qx_protocol.c ****     *msgPtr = temp;
 4698              		.loc 1 289 0
 4699 00b4 044B     		ldr	r3, .L426
 4700 00b6 1B68     		ldr	r3, [r3]
 4701 00b8 BA7B     		ldrb	r2, [r7, #14]
 4702 00ba 1A70     		strb	r2, [r3]
 290:..\..\..\HamFlyAPI\src/hamfly_qx_protocol.c **** }
 4703              		.loc 1 290 0
 4704 00bc 00BF     		nop
 4705 00be 1437     		adds	r7, r7, #20
 4706              		.cfi_def_cfa_offset 4
 4707 00c0 BD46     		mov	sp, r7
 4708              		.cfi_def_cfa_register 13
 4709              		@ sp needed
 4710 00c2 80BC     		pop	{r7}
 4711              		.cfi_restore 7
 4712              		.cfi_def_cfa_offset 0
 4713 00c4 7047     		bx	lr
 4714              	.L427:
 4715 00c6 00BF     		.align	2
 4716              	.L426:
 4717 00c8 00000000 		.word	msgPtr
 4718              		.cfi_endproc
 4719              	.LFE39:
 4720              		.size	AddBitsAsByte, .-AddBitsAsByte
 4721              		.section	.text.GetBitsAsByte,"ax",%progbits
 4722              		.align	2
 4723              		.global	GetBitsAsByte
 4724              		.thumb
 4725              		.thumb_func
 4726              		.type	GetBitsAsByte, %function
 4727              	GetBitsAsByte:
 4728              	.LFB40:
 291:..\..\..\HamFlyAPI\src/hamfly_qx_protocol.c **** 
 292:..\..\..\HamFlyAPI\src/hamfly_qx_protocol.c **** void GetBitsAsByte(uint8_t *v, uint8_t start_bit, uint8_t n_bits) {
 4729              		.loc 1 292 0
 4730              		.cfi_startproc
 4731              		@ args = 0, pretend = 0, frame = 16
ARM GAS  C:\Users\JENNEW~1\AppData\Local\Temp\ccQ5uJSg.s 			page 91


 4732              		@ frame_needed = 1, uses_anonymous_args = 0
 4733              		@ link register save eliminated.
 4734 0000 80B4     		push	{r7}
 4735              		.cfi_def_cfa_offset 4
 4736              		.cfi_offset 7, -4
 4737 0002 85B0     		sub	sp, sp, #20
 4738              		.cfi_def_cfa_offset 24
 4739 0004 00AF     		add	r7, sp, #0
 4740              		.cfi_def_cfa_register 7
 4741 0006 7860     		str	r0, [r7, #4]
 4742 0008 0B46     		mov	r3, r1
 4743 000a FB70     		strb	r3, [r7, #3]
 4744 000c 1346     		mov	r3, r2
 4745 000e BB70     		strb	r3, [r7, #2]
 293:..\..\..\HamFlyAPI\src/hamfly_qx_protocol.c ****     uint8_t mask = 0;
 4746              		.loc 1 293 0
 4747 0010 0023     		movs	r3, #0
 4748 0012 FB73     		strb	r3, [r7, #15]
 294:..\..\..\HamFlyAPI\src/hamfly_qx_protocol.c ****     switch (n_bits) {
 4749              		.loc 1 294 0
 4750 0014 BB78     		ldrb	r3, [r7, #2]	@ zero_extendqisi2
 4751 0016 013B     		subs	r3, r3, #1
 4752 0018 072B     		cmp	r3, #7
 4753 001a 2BD8     		bhi	.L442
 4754 001c 01A2     		adr	r2, .L431
 4755 001e 52F823F0 		ldr	pc, [r2, r3, lsl #2]
 4756 0022 00BF     		.p2align 2
 4757              	.L431:
 4758 0024 45000000 		.word	.L430+1
 4759 0028 4B000000 		.word	.L432+1
 4760 002c 51000000 		.word	.L433+1
 4761 0030 57000000 		.word	.L434+1
 4762 0034 5D000000 		.word	.L435+1
 4763 0038 63000000 		.word	.L436+1
 4764 003c 69000000 		.word	.L437+1
 4765 0040 6F000000 		.word	.L438+1
 4766              		.p2align 1
 4767              	.L430:
 295:..\..\..\HamFlyAPI\src/hamfly_qx_protocol.c ****         case 1: mask=BITFIELD_MASK_1; break; case 2: mask=BITFIELD_MASK_2; break;
 4768              		.loc 1 295 0
 4769 0044 0123     		movs	r3, #1
 4770 0046 FB73     		strb	r3, [r7, #15]
 4771 0048 15E0     		b	.L439
 4772              	.L432:
 4773 004a 0323     		movs	r3, #3
 4774 004c FB73     		strb	r3, [r7, #15]
 4775 004e 12E0     		b	.L439
 4776              	.L433:
 296:..\..\..\HamFlyAPI\src/hamfly_qx_protocol.c ****         case 3: mask=BITFIELD_MASK_3; break; case 4: mask=BITFIELD_MASK_4; break;
 4777              		.loc 1 296 0
 4778 0050 0723     		movs	r3, #7
 4779 0052 FB73     		strb	r3, [r7, #15]
 4780 0054 0FE0     		b	.L439
 4781              	.L434:
 4782 0056 0F23     		movs	r3, #15
 4783 0058 FB73     		strb	r3, [r7, #15]
 4784 005a 0CE0     		b	.L439
ARM GAS  C:\Users\JENNEW~1\AppData\Local\Temp\ccQ5uJSg.s 			page 92


 4785              	.L435:
 297:..\..\..\HamFlyAPI\src/hamfly_qx_protocol.c ****         case 5: mask=BITFIELD_MASK_5; break; case 6: mask=BITFIELD_MASK_6; break;
 4786              		.loc 1 297 0
 4787 005c 1F23     		movs	r3, #31
 4788 005e FB73     		strb	r3, [r7, #15]
 4789 0060 09E0     		b	.L439
 4790              	.L436:
 4791 0062 3F23     		movs	r3, #63
 4792 0064 FB73     		strb	r3, [r7, #15]
 4793 0066 06E0     		b	.L439
 4794              	.L437:
 298:..\..\..\HamFlyAPI\src/hamfly_qx_protocol.c ****         case 7: mask=BITFIELD_MASK_7; break; case 8: mask=BITFIELD_MASK_8; break;
 4795              		.loc 1 298 0
 4796 0068 7F23     		movs	r3, #127
 4797 006a FB73     		strb	r3, [r7, #15]
 4798 006c 03E0     		b	.L439
 4799              	.L438:
 4800 006e FF23     		movs	r3, #255
 4801 0070 FB73     		strb	r3, [r7, #15]
 4802 0072 00E0     		b	.L439
 4803              	.L442:
 299:..\..\..\HamFlyAPI\src/hamfly_qx_protocol.c ****         default: break;
 4804              		.loc 1 299 0
 4805 0074 00BF     		nop
 4806              	.L439:
 300:..\..\..\HamFlyAPI\src/hamfly_qx_protocol.c ****     }
 301:..\..\..\HamFlyAPI\src/hamfly_qx_protocol.c ****     if (rw == QB_Parser_Dir_WriteDel) {
 4807              		.loc 1 301 0
 4808 0076 174B     		ldr	r3, .L444
 4809 0078 1B78     		ldrb	r3, [r3]	@ zero_extendqisi2
 4810 007a 012B     		cmp	r3, #1
 4811 007c 15D1     		bne	.L440
 4812              	.LBB44:
 302:..\..\..\HamFlyAPI\src/hamfly_qx_protocol.c ****         uint8_t xor_mask = (*msgPtr >> start_bit) & mask;
 4813              		.loc 1 302 0
 4814 007e 164B     		ldr	r3, .L444+4
 4815 0080 1B68     		ldr	r3, [r3]
 4816 0082 1B78     		ldrb	r3, [r3]
 4817 0084 DBB2     		uxtb	r3, r3
 4818 0086 1A46     		mov	r2, r3
 4819 0088 FB78     		ldrb	r3, [r7, #3]	@ zero_extendqisi2
 4820 008a 42FA03F3 		asr	r3, r2, r3
 4821 008e 5AB2     		sxtb	r2, r3
 4822 0090 97F90F30 		ldrsb	r3, [r7, #15]
 4823 0094 1340     		ands	r3, r3, r2
 4824 0096 5BB2     		sxtb	r3, r3
 4825 0098 BB73     		strb	r3, [r7, #14]
 303:..\..\..\HamFlyAPI\src/hamfly_qx_protocol.c ****         *v ^= xor_mask;
 4826              		.loc 1 303 0
 4827 009a 7B68     		ldr	r3, [r7, #4]
 4828 009c 1A78     		ldrb	r2, [r3]	@ zero_extendqisi2
 4829 009e BB7B     		ldrb	r3, [r7, #14]
 4830 00a0 5340     		eors	r3, r3, r2
 4831 00a2 DAB2     		uxtb	r2, r3
 4832 00a4 7B68     		ldr	r3, [r7, #4]
 4833 00a6 1A70     		strb	r2, [r3]
 4834              	.LBE44:
ARM GAS  C:\Users\JENNEW~1\AppData\Local\Temp\ccQ5uJSg.s 			page 93


 304:..\..\..\HamFlyAPI\src/hamfly_qx_protocol.c ****     } else {
 305:..\..\..\HamFlyAPI\src/hamfly_qx_protocol.c ****         *v = (*msgPtr >> start_bit) & mask;
 306:..\..\..\HamFlyAPI\src/hamfly_qx_protocol.c ****     }
 307:..\..\..\HamFlyAPI\src/hamfly_qx_protocol.c **** }
 4835              		.loc 1 307 0
 4836 00a8 0FE0     		b	.L443
 4837              	.L440:
 305:..\..\..\HamFlyAPI\src/hamfly_qx_protocol.c ****     }
 4838              		.loc 1 305 0
 4839 00aa 0B4B     		ldr	r3, .L444+4
 4840 00ac 1B68     		ldr	r3, [r3]
 4841 00ae 1B78     		ldrb	r3, [r3]
 4842 00b0 DBB2     		uxtb	r3, r3
 4843 00b2 1A46     		mov	r2, r3
 4844 00b4 FB78     		ldrb	r3, [r7, #3]	@ zero_extendqisi2
 4845 00b6 42FA03F3 		asr	r3, r2, r3
 4846 00ba 5AB2     		sxtb	r2, r3
 4847 00bc 97F90F30 		ldrsb	r3, [r7, #15]
 4848 00c0 1340     		ands	r3, r3, r2
 4849 00c2 5BB2     		sxtb	r3, r3
 4850 00c4 DAB2     		uxtb	r2, r3
 4851 00c6 7B68     		ldr	r3, [r7, #4]
 4852 00c8 1A70     		strb	r2, [r3]
 4853              	.L443:
 4854              		.loc 1 307 0
 4855 00ca 00BF     		nop
 4856 00cc 1437     		adds	r7, r7, #20
 4857              		.cfi_def_cfa_offset 4
 4858 00ce BD46     		mov	sp, r7
 4859              		.cfi_def_cfa_register 13
 4860              		@ sp needed
 4861 00d0 80BC     		pop	{r7}
 4862              		.cfi_restore 7
 4863              		.cfi_def_cfa_offset 0
 4864 00d2 7047     		bx	lr
 4865              	.L445:
 4866              		.align	2
 4867              	.L444:
 4868 00d4 00000000 		.word	rw
 4869 00d8 00000000 		.word	msgPtr
 4870              		.cfi_endproc
 4871              	.LFE40:
 4872              		.size	GetBitsAsByte, .-GetBitsAsByte
 4873              		.section	.text.QX_InitMsg,"ax",%progbits
 4874              		.align	2
 4875              		.thumb
 4876              		.thumb_func
 4877              		.type	QX_InitMsg, %function
 4878              	QX_InitMsg:
 4879              	.LFB41:
 308:..\..\..\HamFlyAPI\src/hamfly_qx_protocol.c **** 
 309:..\..\..\HamFlyAPI\src/hamfly_qx_protocol.c **** /* ============================================================
 310:..\..\..\HamFlyAPI\src/hamfly_qx_protocol.c ****  * QX_Protocol implementations (verbatim from QX_Protocol.c)
 311:..\..\..\HamFlyAPI\src/hamfly_qx_protocol.c ****  * ============================================================ */
 312:..\..\..\HamFlyAPI\src/hamfly_qx_protocol.c **** 
 313:..\..\..\HamFlyAPI\src/hamfly_qx_protocol.c **** static QX_Stat_e QX_InitMsg(QX_Msg_t *Msg_p)
 314:..\..\..\HamFlyAPI\src/hamfly_qx_protocol.c **** {
ARM GAS  C:\Users\JENNEW~1\AppData\Local\Temp\ccQ5uJSg.s 			page 94


 4880              		.loc 1 314 0
 4881              		.cfi_startproc
 4882              		@ args = 0, pretend = 0, frame = 8
 4883              		@ frame_needed = 1, uses_anonymous_args = 0
 4884 0000 80B5     		push	{r7, lr}
 4885              		.cfi_def_cfa_offset 8
 4886              		.cfi_offset 7, -8
 4887              		.cfi_offset 14, -4
 4888 0002 82B0     		sub	sp, sp, #8
 4889              		.cfi_def_cfa_offset 16
 4890 0004 00AF     		add	r7, sp, #0
 4891              		.cfi_def_cfa_register 7
 4892 0006 7860     		str	r0, [r7, #4]
 315:..\..\..\HamFlyAPI\src/hamfly_qx_protocol.c ****     memset(Msg_p, 0, sizeof(QX_Msg_t));
 4893              		.loc 1 315 0
 4894 0008 7422     		movs	r2, #116
 4895 000a 0021     		movs	r1, #0
 4896 000c 7868     		ldr	r0, [r7, #4]
 4897 000e FFF7FEFF 		bl	memset
 316:..\..\..\HamFlyAPI\src/hamfly_qx_protocol.c ****     Msg_p->BufPayloadStart_p = NULL;
 4898              		.loc 1 316 0
 4899 0012 7B68     		ldr	r3, [r7, #4]
 4900 0014 0022     		movs	r2, #0
 4901 0016 DA66     		str	r2, [r3, #108]
 317:..\..\..\HamFlyAPI\src/hamfly_qx_protocol.c ****     Msg_p->MsgBufAtt_p       = NULL;
 4902              		.loc 1 317 0
 4903 0018 7B68     		ldr	r3, [r7, #4]
 4904 001a 0022     		movs	r2, #0
 4905 001c 9A66     		str	r2, [r3, #104]
 318:..\..\..\HamFlyAPI\src/hamfly_qx_protocol.c ****     Msg_p->MsgBuf_p          = NULL;
 4906              		.loc 1 318 0
 4907 001e 7B68     		ldr	r3, [r7, #4]
 4908 0020 0022     		movs	r2, #0
 4909 0022 1A67     		str	r2, [r3, #112]
 319:..\..\..\HamFlyAPI\src/hamfly_qx_protocol.c ****     return QX_STAT_OK;
 4910              		.loc 1 319 0
 4911 0024 0023     		movs	r3, #0
 320:..\..\..\HamFlyAPI\src/hamfly_qx_protocol.c **** }
 4912              		.loc 1 320 0
 4913 0026 1846     		mov	r0, r3
 4914 0028 0837     		adds	r7, r7, #8
 4915              		.cfi_def_cfa_offset 8
 4916 002a BD46     		mov	sp, r7
 4917              		.cfi_def_cfa_register 13
 4918              		@ sp needed
 4919 002c 80BD     		pop	{r7, pc}
 4920              		.cfi_endproc
 4921              	.LFE41:
 4922              		.size	QX_InitMsg, .-QX_InitMsg
 4923 002e 00BF     		.section	.text.QX_RxMsg,"ax",%progbits
 4924              		.align	2
 4925              		.thumb
 4926              		.thumb_func
 4927              		.type	QX_RxMsg, %function
 4928              	QX_RxMsg:
 4929              	.LFB42:
 321:..\..\..\HamFlyAPI\src/hamfly_qx_protocol.c **** 
ARM GAS  C:\Users\JENNEW~1\AppData\Local\Temp\ccQ5uJSg.s 			page 95


 322:..\..\..\HamFlyAPI\src/hamfly_qx_protocol.c **** static QX_Stat_e QX_RxMsg(QX_Msg_t *RxMsg_p)
 323:..\..\..\HamFlyAPI\src/hamfly_qx_protocol.c **** {
 4930              		.loc 1 323 0
 4931              		.cfi_startproc
 4932              		@ args = 0, pretend = 0, frame = 16
 4933              		@ frame_needed = 1, uses_anonymous_args = 0
 4934 0000 80B5     		push	{r7, lr}
 4935              		.cfi_def_cfa_offset 8
 4936              		.cfi_offset 7, -8
 4937              		.cfi_offset 14, -4
 4938 0002 84B0     		sub	sp, sp, #16
 4939              		.cfi_def_cfa_offset 24
 4940 0004 00AF     		add	r7, sp, #0
 4941              		.cfi_def_cfa_register 7
 4942 0006 7860     		str	r0, [r7, #4]
 324:..\..\..\HamFlyAPI\src/hamfly_qx_protocol.c ****     RxMsg_p->MsgBuf_p      = &RxMsg_p->MsgBuf[0];
 4943              		.loc 1 324 0
 4944 0008 7B68     		ldr	r3, [r7, #4]
 4945 000a 03F11C02 		add	r2, r3, #28
 4946 000e 7B68     		ldr	r3, [r7, #4]
 4947 0010 1A67     		str	r2, [r3, #112]
 325:..\..\..\HamFlyAPI\src/hamfly_qx_protocol.c ****     RxMsg_p->MsgBufStart_p = &RxMsg_p->MsgBuf[0];
 4948              		.loc 1 325 0
 4949 0012 7B68     		ldr	r3, [r7, #4]
 4950 0014 03F11C02 		add	r2, r3, #28
 4951 0018 7B68     		ldr	r3, [r7, #4]
 4952 001a 5A66     		str	r2, [r3, #100]
 326:..\..\..\HamFlyAPI\src/hamfly_qx_protocol.c ****     RxMsg_p->AttNotHandled = 0;
 4953              		.loc 1 326 0
 4954 001c 7B68     		ldr	r3, [r7, #4]
 4955 001e 0022     		movs	r2, #0
 4956 0020 1A71     		strb	r2, [r3, #4]
 327:..\..\..\HamFlyAPI\src/hamfly_qx_protocol.c **** 
 328:..\..\..\HamFlyAPI\src/hamfly_qx_protocol.c ****     if (RxMsg_p->Legacy_Header) {
 4957              		.loc 1 328 0
 4958 0022 7B68     		ldr	r3, [r7, #4]
 4959 0024 5B79     		ldrb	r3, [r3, #5]	@ zero_extendqisi2
 4960 0026 002B     		cmp	r3, #0
 4961 0028 0AD0     		beq	.L449
 329:..\..\..\HamFlyAPI\src/hamfly_qx_protocol.c ****         if (QX_ParseHeader_Legacy != NULL) QX_ParseHeader_Legacy(RxMsg_p);
 4962              		.loc 1 329 0
 4963 002a 2F4B     		ldr	r3, .L461
 4964 002c 1B68     		ldr	r3, [r3]
 4965 002e 002B     		cmp	r3, #0
 4966 0030 04D0     		beq	.L450
 4967              		.loc 1 329 0 is_stmt 0 discriminator 1
 4968 0032 2D4B     		ldr	r3, .L461
 4969 0034 1B68     		ldr	r3, [r3]
 4970 0036 7868     		ldr	r0, [r7, #4]
 4971 0038 9847     		blx	r3
 4972 003a 04E0     		b	.L451
 4973              	.L450:
 330:..\..\..\HamFlyAPI\src/hamfly_qx_protocol.c ****         else return QX_STAT_ERROR;
 4974              		.loc 1 330 0 is_stmt 1
 4975 003c 0123     		movs	r3, #1
 4976 003e 4EE0     		b	.L452
 4977              	.L449:
ARM GAS  C:\Users\JENNEW~1\AppData\Local\Temp\ccQ5uJSg.s 			page 96


 331:..\..\..\HamFlyAPI\src/hamfly_qx_protocol.c ****     } else {
 332:..\..\..\HamFlyAPI\src/hamfly_qx_protocol.c ****         QX_ParseHeader(RxMsg_p);
 4978              		.loc 1 332 0
 4979 0040 7868     		ldr	r0, [r7, #4]
 4980 0042 FFF7FEFF 		bl	QX_ParseHeader
 4981              	.L451:
 333:..\..\..\HamFlyAPI\src/hamfly_qx_protocol.c ****     }
 334:..\..\..\HamFlyAPI\src/hamfly_qx_protocol.c **** 
 335:..\..\..\HamFlyAPI\src/hamfly_qx_protocol.c ****     RxMsg_p->BufPayloadStart_p = RxMsg_p->MsgBuf_p;
 4982              		.loc 1 335 0
 4983 0046 7B68     		ldr	r3, [r7, #4]
 4984 0048 1A6F     		ldr	r2, [r3, #112]
 4985 004a 7B68     		ldr	r3, [r7, #4]
 4986 004c DA66     		str	r2, [r3, #108]
 336:..\..\..\HamFlyAPI\src/hamfly_qx_protocol.c **** 
 337:..\..\..\HamFlyAPI\src/hamfly_qx_protocol.c ****     if (RxMsg_p->Header.AddCRC32) {
 4987              		.loc 1 337 0
 4988 004e 7B68     		ldr	r3, [r7, #4]
 4989 0050 9B7C     		ldrb	r3, [r3, #18]	@ zero_extendqisi2
 4990 0052 002B     		cmp	r3, #0
 4991 0054 22D0     		beq	.L453
 4992              	.LBB45:
 338:..\..\..\HamFlyAPI\src/hamfly_qx_protocol.c ****         uint32_t crc32_result = QX_accumulate_crc32(0xFFFFFFFF,
 339:..\..\..\HamFlyAPI\src/hamfly_qx_protocol.c ****             RxMsg_p->MsgBuf, RxMsg_p->MsgBuf_MsgLen - 5);
 4993              		.loc 1 339 0
 4994 0056 7B68     		ldr	r3, [r7, #4]
 4995 0058 03F11C01 		add	r1, r3, #28
 4996 005c 7B68     		ldr	r3, [r7, #4]
 4997 005e B3F86230 		ldrh	r3, [r3, #98]
 4998 0062 053B     		subs	r3, r3, #5
 338:..\..\..\HamFlyAPI\src/hamfly_qx_protocol.c ****         uint32_t crc32_result = QX_accumulate_crc32(0xFFFFFFFF,
 4999              		.loc 1 338 0
 5000 0064 1A46     		mov	r2, r3
 5001 0066 4FF0FF30 		mov	r0, #-1
 5002 006a FFF7FEFF 		bl	QX_accumulate_crc32
 5003 006e F860     		str	r0, [r7, #12]
 340:..\..\..\HamFlyAPI\src/hamfly_qx_protocol.c ****         uint32_t crc32_msg = 0;
 5004              		.loc 1 340 0
 5005 0070 0023     		movs	r3, #0
 5006 0072 BB60     		str	r3, [r7, #8]
 341:..\..\..\HamFlyAPI\src/hamfly_qx_protocol.c ****         memcpy(&crc32_msg, &RxMsg_p->MsgBuf[RxMsg_p->MsgBuf_MsgLen - 5], sizeof(crc32_msg));
 5007              		.loc 1 341 0
 5008 0074 7B68     		ldr	r3, [r7, #4]
 5009 0076 B3F86230 		ldrh	r3, [r3, #98]
 5010 007a 053B     		subs	r3, r3, #5
 5011 007c 1833     		adds	r3, r3, #24
 5012 007e 7A68     		ldr	r2, [r7, #4]
 5013 0080 1344     		add	r3, r3, r2
 5014 0082 191D     		adds	r1, r3, #4
 5015 0084 07F10803 		add	r3, r7, #8
 5016 0088 0422     		movs	r2, #4
 5017 008a 1846     		mov	r0, r3
 5018 008c FFF7FEFF 		bl	memcpy
 342:..\..\..\HamFlyAPI\src/hamfly_qx_protocol.c ****         if (crc32_result != crc32_msg) return QX_STAT_ERROR_RXMSG_CRC32_FAIL;
 5019              		.loc 1 342 0
 5020 0090 BB68     		ldr	r3, [r7, #8]
 5021 0092 FA68     		ldr	r2, [r7, #12]
ARM GAS  C:\Users\JENNEW~1\AppData\Local\Temp\ccQ5uJSg.s 			page 97


 5022 0094 9A42     		cmp	r2, r3
 5023 0096 01D0     		beq	.L453
 5024              		.loc 1 342 0 is_stmt 0 discriminator 1
 5025 0098 0723     		movs	r3, #7
 5026 009a 20E0     		b	.L452
 5027              	.L453:
 5028              	.LBE45:
 343:..\..\..\HamFlyAPI\src/hamfly_qx_protocol.c ****     }
 344:..\..\..\HamFlyAPI\src/hamfly_qx_protocol.c **** 
 345:..\..\..\HamFlyAPI\src/hamfly_qx_protocol.c ****     QX_FwdMsg_CB(RxMsg_p);
 5029              		.loc 1 345 0 is_stmt 1
 5030 009c 7868     		ldr	r0, [r7, #4]
 5031 009e FFF7FEFF 		bl	QX_FwdMsg_CB
 346:..\..\..\HamFlyAPI\src/hamfly_qx_protocol.c **** 
 347:..\..\..\HamFlyAPI\src/hamfly_qx_protocol.c ****     switch (RxMsg_p->Header.Type) {
 5032              		.loc 1 347 0
 5033 00a2 7B68     		ldr	r3, [r7, #4]
 5034 00a4 1B7C     		ldrb	r3, [r3, #16]	@ zero_extendqisi2
 5035 00a6 032B     		cmp	r3, #3
 5036 00a8 16D8     		bhi	.L455
 5037 00aa 01A2     		adr	r2, .L457
 5038 00ac 52F823F0 		ldr	pc, [r2, r3, lsl #2]
 5039              		.p2align 2
 5040              	.L457:
 5041 00b0 D1000000 		.word	.L456+1
 5042 00b4 C1000000 		.word	.L458+1
 5043 00b8 C9000000 		.word	.L459+1
 5044 00bc C9000000 		.word	.L459+1
 5045              		.p2align 1
 5046              	.L458:
 348:..\..\..\HamFlyAPI\src/hamfly_qx_protocol.c ****         case QX_MSG_TYPE_READ:      QX_Srv_Rx_Read(RxMsg_p);    break;
 5047              		.loc 1 348 0
 5048 00c0 7868     		ldr	r0, [r7, #4]
 5049 00c2 FFF7FEFF 		bl	QX_Srv_Rx_Read
 5050 00c6 09E0     		b	.L460
 5051              	.L459:
 349:..\..\..\HamFlyAPI\src/hamfly_qx_protocol.c ****         case QX_MSG_TYPE_WRITE_ABS:
 350:..\..\..\HamFlyAPI\src/hamfly_qx_protocol.c ****         case QX_MSG_TYPE_WRITE_REL: QX_Srv_Rx_Write(RxMsg_p);  break;
 5052              		.loc 1 350 0
 5053 00c8 7868     		ldr	r0, [r7, #4]
 5054 00ca FFF7FEFF 		bl	QX_Srv_Rx_Write
 5055 00ce 05E0     		b	.L460
 5056              	.L456:
 351:..\..\..\HamFlyAPI\src/hamfly_qx_protocol.c ****         case QX_MSG_TYPE_CURVAL:    QX_Cli_Rx_CurVal(RxMsg_p);  break;
 5057              		.loc 1 351 0
 5058 00d0 7868     		ldr	r0, [r7, #4]
 5059 00d2 FFF7FEFF 		bl	QX_Cli_Rx_CurVal
 5060 00d6 01E0     		b	.L460
 5061              	.L455:
 352:..\..\..\HamFlyAPI\src/hamfly_qx_protocol.c ****         default: return QX_STAT_ERROR_MSG_TYPE_NOT_SUPPORTED;
 5062              		.loc 1 352 0
 5063 00d8 0223     		movs	r3, #2
 5064 00da 00E0     		b	.L452
 5065              	.L460:
 353:..\..\..\HamFlyAPI\src/hamfly_qx_protocol.c ****     }
 354:..\..\..\HamFlyAPI\src/hamfly_qx_protocol.c ****     return QX_STAT_OK;
 5066              		.loc 1 354 0
ARM GAS  C:\Users\JENNEW~1\AppData\Local\Temp\ccQ5uJSg.s 			page 98


 5067 00dc 0023     		movs	r3, #0
 5068              	.L452:
 355:..\..\..\HamFlyAPI\src/hamfly_qx_protocol.c **** }
 5069              		.loc 1 355 0
 5070 00de 1846     		mov	r0, r3
 5071 00e0 1037     		adds	r7, r7, #16
 5072              		.cfi_def_cfa_offset 8
 5073 00e2 BD46     		mov	sp, r7
 5074              		.cfi_def_cfa_register 13
 5075              		@ sp needed
 5076 00e4 80BD     		pop	{r7, pc}
 5077              	.L462:
 5078 00e6 00BF     		.align	2
 5079              	.L461:
 5080 00e8 00000000 		.word	QX_ParseHeader_Legacy
 5081              		.cfi_endproc
 5082              	.LFE42:
 5083              		.size	QX_RxMsg, .-QX_RxMsg
 5084              		.section	.text.QX_Srv_Rx_Read,"ax",%progbits
 5085              		.align	2
 5086              		.thumb
 5087              		.thumb_func
 5088              		.type	QX_Srv_Rx_Read, %function
 5089              	QX_Srv_Rx_Read:
 5090              	.LFB43:
 356:..\..\..\HamFlyAPI\src/hamfly_qx_protocol.c **** 
 357:..\..\..\HamFlyAPI\src/hamfly_qx_protocol.c **** static void QX_Srv_Rx_Read(QX_Msg_t *RxMsg_p)
 358:..\..\..\HamFlyAPI\src/hamfly_qx_protocol.c **** {
 5091              		.loc 1 358 0
 5092              		.cfi_startproc
 5093              		@ args = 0, pretend = 0, frame = 24
 5094              		@ frame_needed = 1, uses_anonymous_args = 0
 5095 0000 B0B5     		push	{r4, r5, r7, lr}
 5096              		.cfi_def_cfa_offset 16
 5097              		.cfi_offset 4, -16
 5098              		.cfi_offset 5, -12
 5099              		.cfi_offset 7, -8
 5100              		.cfi_offset 14, -4
 5101 0002 88B0     		sub	sp, sp, #32
 5102              		.cfi_def_cfa_offset 48
 5103 0004 02AF     		add	r7, sp, #8
 5104              		.cfi_def_cfa 7, 40
 5105 0006 7860     		str	r0, [r7, #4]
 359:..\..\..\HamFlyAPI\src/hamfly_qx_protocol.c ****     int srv_i;
 360:..\..\..\HamFlyAPI\src/hamfly_qx_protocol.c ****     for (srv_i = 0; srv_i < QX_NUM_SRV; srv_i++) {
 5106              		.loc 1 360 0
 5107 0008 0023     		movs	r3, #0
 5108 000a 7B61     		str	r3, [r7, #20]
 5109 000c 36E0     		b	.L464
 5110              	.L467:
 361:..\..\..\HamFlyAPI\src/hamfly_qx_protocol.c ****         if ((RxMsg_p->Header.Target_Addr == QX_Servers[srv_i].Address) ||
 5111              		.loc 1 361 0
 5112 000e 7B68     		ldr	r3, [r7, #4]
 5113 0010 5A7E     		ldrb	r2, [r3, #25]	@ zero_extendqisi2
 5114 0012 1E49     		ldr	r1, .L468
 5115 0014 7B69     		ldr	r3, [r7, #20]
 5116 0016 11F83330 		ldrb	r3, [r1, r3, lsl #3]	@ zero_extendqisi2
ARM GAS  C:\Users\JENNEW~1\AppData\Local\Temp\ccQ5uJSg.s 			page 99


 5117 001a 9A42     		cmp	r2, r3
 5118 001c 03D0     		beq	.L465
 362:..\..\..\HamFlyAPI\src/hamfly_qx_protocol.c ****             (RxMsg_p->Header.Target_Addr == QX_DEV_ID_BROADCAST)) {
 5119              		.loc 1 362 0 discriminator 1
 5120 001e 7B68     		ldr	r3, [r7, #4]
 5121 0020 5B7E     		ldrb	r3, [r3, #25]	@ zero_extendqisi2
 361:..\..\..\HamFlyAPI\src/hamfly_qx_protocol.c ****         if ((RxMsg_p->Header.Target_Addr == QX_Servers[srv_i].Address) ||
 5122              		.loc 1 361 0 discriminator 1
 5123 0022 002B     		cmp	r3, #0
 5124 0024 27D1     		bne	.L466
 5125              	.L465:
 5126              	.LBB46:
 363:..\..\..\HamFlyAPI\src/hamfly_qx_protocol.c ****             QX_TxMsgOptions_t options;
 364:..\..\..\HamFlyAPI\src/hamfly_qx_protocol.c ****             QX_InitTxOptions(&options);
 5127              		.loc 1 364 0
 5128 0026 07F10C03 		add	r3, r7, #12
 5129 002a 1846     		mov	r0, r3
 5130 002c FFF7FEFF 		bl	QX_InitTxOptions
 365:..\..\..\HamFlyAPI\src/hamfly_qx_protocol.c ****             options.use_CRC32           = RxMsg_p->Header.AddCRC32;
 5131              		.loc 1 365 0
 5132 0030 7B68     		ldr	r3, [r7, #4]
 5133 0032 9B7C     		ldrb	r3, [r3, #18]	@ zero_extendqisi2
 5134 0034 7B73     		strb	r3, [r7, #13]
 366:..\..\..\HamFlyAPI\src/hamfly_qx_protocol.c ****             options.FF_Ext              = RxMsg_p->Header.FF_Ext;
 5135              		.loc 1 366 0
 5136 0036 7B68     		ldr	r3, [r7, #4]
 5137 0038 DB7C     		ldrb	r3, [r3, #19]	@ zero_extendqisi2
 5138 003a 3B73     		strb	r3, [r7, #12]
 367:..\..\..\HamFlyAPI\src/hamfly_qx_protocol.c ****             options.Remove_Addr_Fields  = RxMsg_p->Header.Remove_Addr_Fields;
 5139              		.loc 1 367 0
 5140 003c 7B68     		ldr	r3, [r7, #4]
 5141 003e 9B7D     		ldrb	r3, [r3, #22]	@ zero_extendqisi2
 5142 0040 BB73     		strb	r3, [r7, #14]
 368:..\..\..\HamFlyAPI\src/hamfly_qx_protocol.c ****             options.Remove_Req_Fields   = 1;
 5143              		.loc 1 368 0
 5144 0042 0123     		movs	r3, #1
 5145 0044 FB73     		strb	r3, [r7, #15]
 369:..\..\..\HamFlyAPI\src/hamfly_qx_protocol.c ****             options.Target_Addr         = RxMsg_p->Header.Source_Addr;
 5146              		.loc 1 369 0
 5147 0046 7B68     		ldr	r3, [r7, #4]
 5148 0048 1B7E     		ldrb	r3, [r3, #24]	@ zero_extendqisi2
 5149 004a 3B74     		strb	r3, [r7, #16]
 370:..\..\..\HamFlyAPI\src/hamfly_qx_protocol.c ****             QX_SendPacket_Srv_CurVal(&QX_Servers[srv_i],
 5150              		.loc 1 370 0
 5151 004c 7B69     		ldr	r3, [r7, #20]
 5152 004e DB00     		lsls	r3, r3, #3
 5153 0050 0E4A     		ldr	r2, .L468
 5154 0052 9818     		adds	r0, r3, r2
 5155 0054 7B68     		ldr	r3, [r7, #4]
 5156 0056 D968     		ldr	r1, [r3, #12]
 5157 0058 7B68     		ldr	r3, [r7, #4]
 5158 005a 9C79     		ldrb	r4, [r3, #6]	@ zero_extendqisi2
 5159 005c 6B46     		mov	r3, sp
 5160 005e 07F11002 		add	r2, r7, #16
 5161 0062 1268     		ldr	r2, [r2]
 5162 0064 1546     		mov	r5, r2	@ movhi
 5163 0066 1D80     		strh	r5, [r3]	@ movhi
ARM GAS  C:\Users\JENNEW~1\AppData\Local\Temp\ccQ5uJSg.s 			page 100


 5164 0068 0233     		adds	r3, r3, #2
 5165 006a 120C     		lsrs	r2, r2, #16
 5166 006c 1A70     		strb	r2, [r3]
 5167 006e FB68     		ldr	r3, [r7, #12]
 5168 0070 2246     		mov	r2, r4
 5169 0072 FFF7FEFF 		bl	QX_SendPacket_Srv_CurVal
 5170              	.L466:
 5171              	.LBE46:
 360:..\..\..\HamFlyAPI\src/hamfly_qx_protocol.c ****         if ((RxMsg_p->Header.Target_Addr == QX_Servers[srv_i].Address) ||
 5172              		.loc 1 360 0 discriminator 2
 5173 0076 7B69     		ldr	r3, [r7, #20]
 5174 0078 0133     		adds	r3, r3, #1
 5175 007a 7B61     		str	r3, [r7, #20]
 5176              	.L464:
 360:..\..\..\HamFlyAPI\src/hamfly_qx_protocol.c ****         if ((RxMsg_p->Header.Target_Addr == QX_Servers[srv_i].Address) ||
 5177              		.loc 1 360 0 is_stmt 0 discriminator 1
 5178 007c 7B69     		ldr	r3, [r7, #20]
 5179 007e 002B     		cmp	r3, #0
 5180 0080 C5DD     		ble	.L467
 371:..\..\..\HamFlyAPI\src/hamfly_qx_protocol.c ****                 RxMsg_p->Header.Attrib, RxMsg_p->CommPort, options);
 372:..\..\..\HamFlyAPI\src/hamfly_qx_protocol.c ****         }
 373:..\..\..\HamFlyAPI\src/hamfly_qx_protocol.c ****     }
 374:..\..\..\HamFlyAPI\src/hamfly_qx_protocol.c **** }
 5181              		.loc 1 374 0 is_stmt 1
 5182 0082 00BF     		nop
 5183 0084 1837     		adds	r7, r7, #24
 5184              		.cfi_def_cfa_offset 16
 5185 0086 BD46     		mov	sp, r7
 5186              		.cfi_def_cfa_register 13
 5187              		@ sp needed
 5188 0088 B0BD     		pop	{r4, r5, r7, pc}
 5189              	.L469:
 5190 008a 00BF     		.align	2
 5191              	.L468:
 5192 008c 00000000 		.word	QX_Servers
 5193              		.cfi_endproc
 5194              	.LFE43:
 5195              		.size	QX_Srv_Rx_Read, .-QX_Srv_Rx_Read
 5196              		.section	.text.QX_Srv_Rx_Write,"ax",%progbits
 5197              		.align	2
 5198              		.thumb
 5199              		.thumb_func
 5200              		.type	QX_Srv_Rx_Write, %function
 5201              	QX_Srv_Rx_Write:
 5202              	.LFB44:
 375:..\..\..\HamFlyAPI\src/hamfly_qx_protocol.c **** 
 376:..\..\..\HamFlyAPI\src/hamfly_qx_protocol.c **** static void QX_Srv_Rx_Write(QX_Msg_t *RxMsg_p)
 377:..\..\..\HamFlyAPI\src/hamfly_qx_protocol.c **** {
 5203              		.loc 1 377 0
 5204              		.cfi_startproc
 5205              		@ args = 0, pretend = 0, frame = 24
 5206              		@ frame_needed = 1, uses_anonymous_args = 0
 5207 0000 B0B5     		push	{r4, r5, r7, lr}
 5208              		.cfi_def_cfa_offset 16
 5209              		.cfi_offset 4, -16
 5210              		.cfi_offset 5, -12
 5211              		.cfi_offset 7, -8
ARM GAS  C:\Users\JENNEW~1\AppData\Local\Temp\ccQ5uJSg.s 			page 101


 5212              		.cfi_offset 14, -4
 5213 0002 88B0     		sub	sp, sp, #32
 5214              		.cfi_def_cfa_offset 48
 5215 0004 02AF     		add	r7, sp, #8
 5216              		.cfi_def_cfa 7, 40
 5217 0006 7860     		str	r0, [r7, #4]
 378:..\..\..\HamFlyAPI\src/hamfly_qx_protocol.c ****     int srv_i;
 379:..\..\..\HamFlyAPI\src/hamfly_qx_protocol.c ****     if      (RxMsg_p->Header.Type == QX_MSG_TYPE_WRITE_REL) RxMsg_p->Parse_Type = QX_PARSE_TYPE_WRI
 5218              		.loc 1 379 0
 5219 0008 7B68     		ldr	r3, [r7, #4]
 5220 000a 1B7C     		ldrb	r3, [r3, #16]	@ zero_extendqisi2
 5221 000c 032B     		cmp	r3, #3
 5222 000e 03D1     		bne	.L471
 5223              		.loc 1 379 0 is_stmt 0 discriminator 1
 5224 0010 7B68     		ldr	r3, [r7, #4]
 5225 0012 0522     		movs	r2, #5
 5226 0014 1A70     		strb	r2, [r3]
 5227 0016 06E0     		b	.L472
 5228              	.L471:
 380:..\..\..\HamFlyAPI\src/hamfly_qx_protocol.c ****     else if (RxMsg_p->Header.Type == QX_MSG_TYPE_WRITE_ABS) RxMsg_p->Parse_Type = QX_PARSE_TYPE_WRI
 5229              		.loc 1 380 0 is_stmt 1
 5230 0018 7B68     		ldr	r3, [r7, #4]
 5231 001a 1B7C     		ldrb	r3, [r3, #16]	@ zero_extendqisi2
 5232 001c 022B     		cmp	r3, #2
 5233 001e 02D1     		bne	.L472
 5234              		.loc 1 380 0 is_stmt 0 discriminator 1
 5235 0020 7B68     		ldr	r3, [r7, #4]
 5236 0022 0322     		movs	r2, #3
 5237 0024 1A70     		strb	r2, [r3]
 5238              	.L472:
 381:..\..\..\HamFlyAPI\src/hamfly_qx_protocol.c **** 
 382:..\..\..\HamFlyAPI\src/hamfly_qx_protocol.c ****     for (srv_i = 0; srv_i < QX_NUM_SRV; srv_i++) {
 5239              		.loc 1 382 0 is_stmt 1
 5240 0026 0023     		movs	r3, #0
 5241 0028 7B61     		str	r3, [r7, #20]
 5242 002a 41E0     		b	.L473
 5243              	.L476:
 383:..\..\..\HamFlyAPI\src/hamfly_qx_protocol.c ****         if ((RxMsg_p->Header.Target_Addr == QX_Servers[srv_i].Address) ||
 5244              		.loc 1 383 0
 5245 002c 7B68     		ldr	r3, [r7, #4]
 5246 002e 5A7E     		ldrb	r2, [r3, #25]	@ zero_extendqisi2
 5247 0030 2349     		ldr	r1, .L477
 5248 0032 7B69     		ldr	r3, [r7, #20]
 5249 0034 11F83330 		ldrb	r3, [r1, r3, lsl #3]	@ zero_extendqisi2
 5250 0038 9A42     		cmp	r2, r3
 5251 003a 03D0     		beq	.L474
 384:..\..\..\HamFlyAPI\src/hamfly_qx_protocol.c ****             (RxMsg_p->Header.Target_Addr == QX_DEV_ID_BROADCAST)) {
 5252              		.loc 1 384 0 discriminator 1
 5253 003c 7B68     		ldr	r3, [r7, #4]
 5254 003e 5B7E     		ldrb	r3, [r3, #25]	@ zero_extendqisi2
 383:..\..\..\HamFlyAPI\src/hamfly_qx_protocol.c ****         if ((RxMsg_p->Header.Target_Addr == QX_Servers[srv_i].Address) ||
 5255              		.loc 1 383 0 discriminator 1
 5256 0040 002B     		cmp	r3, #0
 5257 0042 32D1     		bne	.L475
 5258              	.L474:
 385:..\..\..\HamFlyAPI\src/hamfly_qx_protocol.c ****             QX_Servers[srv_i].Parser_CB(RxMsg_p);
 5259              		.loc 1 385 0
ARM GAS  C:\Users\JENNEW~1\AppData\Local\Temp\ccQ5uJSg.s 			page 102


 5260 0044 1E4A     		ldr	r2, .L477
 5261 0046 7B69     		ldr	r3, [r7, #20]
 5262 0048 DB00     		lsls	r3, r3, #3
 5263 004a 1344     		add	r3, r3, r2
 5264 004c 5B68     		ldr	r3, [r3, #4]
 5265 004e 7868     		ldr	r0, [r7, #4]
 5266 0050 9847     		blx	r3
 386:..\..\..\HamFlyAPI\src/hamfly_qx_protocol.c ****             if (RxMsg_p->DisableStdResponse == 0) {
 5267              		.loc 1 386 0
 5268 0052 7B68     		ldr	r3, [r7, #4]
 5269 0054 5B78     		ldrb	r3, [r3, #1]	@ zero_extendqisi2
 5270 0056 002B     		cmp	r3, #0
 5271 0058 27D1     		bne	.L475
 5272              	.LBB47:
 387:..\..\..\HamFlyAPI\src/hamfly_qx_protocol.c ****                 QX_TxMsgOptions_t options;
 388:..\..\..\HamFlyAPI\src/hamfly_qx_protocol.c ****                 QX_InitTxOptions(&options);
 5273              		.loc 1 388 0
 5274 005a 07F10C03 		add	r3, r7, #12
 5275 005e 1846     		mov	r0, r3
 5276 0060 FFF7FEFF 		bl	QX_InitTxOptions
 389:..\..\..\HamFlyAPI\src/hamfly_qx_protocol.c ****                 options.use_CRC32          = RxMsg_p->Header.AddCRC32;
 5277              		.loc 1 389 0
 5278 0064 7B68     		ldr	r3, [r7, #4]
 5279 0066 9B7C     		ldrb	r3, [r3, #18]	@ zero_extendqisi2
 5280 0068 7B73     		strb	r3, [r7, #13]
 390:..\..\..\HamFlyAPI\src/hamfly_qx_protocol.c ****                 options.FF_Ext             = RxMsg_p->Header.FF_Ext;
 5281              		.loc 1 390 0
 5282 006a 7B68     		ldr	r3, [r7, #4]
 5283 006c DB7C     		ldrb	r3, [r3, #19]	@ zero_extendqisi2
 5284 006e 3B73     		strb	r3, [r7, #12]
 391:..\..\..\HamFlyAPI\src/hamfly_qx_protocol.c ****                 options.Remove_Addr_Fields = RxMsg_p->Header.Remove_Addr_Fields;
 5285              		.loc 1 391 0
 5286 0070 7B68     		ldr	r3, [r7, #4]
 5287 0072 9B7D     		ldrb	r3, [r3, #22]	@ zero_extendqisi2
 5288 0074 BB73     		strb	r3, [r7, #14]
 392:..\..\..\HamFlyAPI\src/hamfly_qx_protocol.c ****                 options.Remove_Req_Fields  = 1;
 5289              		.loc 1 392 0
 5290 0076 0123     		movs	r3, #1
 5291 0078 FB73     		strb	r3, [r7, #15]
 393:..\..\..\HamFlyAPI\src/hamfly_qx_protocol.c ****                 options.Target_Addr        = RxMsg_p->Header.Source_Addr;
 5292              		.loc 1 393 0
 5293 007a 7B68     		ldr	r3, [r7, #4]
 5294 007c 1B7E     		ldrb	r3, [r3, #24]	@ zero_extendqisi2
 5295 007e 3B74     		strb	r3, [r7, #16]
 394:..\..\..\HamFlyAPI\src/hamfly_qx_protocol.c ****                 QX_SendPacket_Srv_CurVal(&QX_Servers[srv_i],
 5296              		.loc 1 394 0
 5297 0080 7B69     		ldr	r3, [r7, #20]
 5298 0082 DB00     		lsls	r3, r3, #3
 5299 0084 0E4A     		ldr	r2, .L477
 5300 0086 9818     		adds	r0, r3, r2
 5301 0088 7B68     		ldr	r3, [r7, #4]
 5302 008a D968     		ldr	r1, [r3, #12]
 5303 008c 7B68     		ldr	r3, [r7, #4]
 5304 008e 9C79     		ldrb	r4, [r3, #6]	@ zero_extendqisi2
 5305 0090 6B46     		mov	r3, sp
 5306 0092 07F11002 		add	r2, r7, #16
 5307 0096 1268     		ldr	r2, [r2]
ARM GAS  C:\Users\JENNEW~1\AppData\Local\Temp\ccQ5uJSg.s 			page 103


 5308 0098 1546     		mov	r5, r2	@ movhi
 5309 009a 1D80     		strh	r5, [r3]	@ movhi
 5310 009c 0233     		adds	r3, r3, #2
 5311 009e 120C     		lsrs	r2, r2, #16
 5312 00a0 1A70     		strb	r2, [r3]
 5313 00a2 FB68     		ldr	r3, [r7, #12]
 5314 00a4 2246     		mov	r2, r4
 5315 00a6 FFF7FEFF 		bl	QX_SendPacket_Srv_CurVal
 5316              	.L475:
 5317              	.LBE47:
 382:..\..\..\HamFlyAPI\src/hamfly_qx_protocol.c ****         if ((RxMsg_p->Header.Target_Addr == QX_Servers[srv_i].Address) ||
 5318              		.loc 1 382 0 discriminator 2
 5319 00aa 7B69     		ldr	r3, [r7, #20]
 5320 00ac 0133     		adds	r3, r3, #1
 5321 00ae 7B61     		str	r3, [r7, #20]
 5322              	.L473:
 382:..\..\..\HamFlyAPI\src/hamfly_qx_protocol.c ****         if ((RxMsg_p->Header.Target_Addr == QX_Servers[srv_i].Address) ||
 5323              		.loc 1 382 0 is_stmt 0 discriminator 1
 5324 00b0 7B69     		ldr	r3, [r7, #20]
 5325 00b2 002B     		cmp	r3, #0
 5326 00b4 BADD     		ble	.L476
 395:..\..\..\HamFlyAPI\src/hamfly_qx_protocol.c ****                     RxMsg_p->Header.Attrib, RxMsg_p->CommPort, options);
 396:..\..\..\HamFlyAPI\src/hamfly_qx_protocol.c ****             }
 397:..\..\..\HamFlyAPI\src/hamfly_qx_protocol.c ****         }
 398:..\..\..\HamFlyAPI\src/hamfly_qx_protocol.c ****     }
 399:..\..\..\HamFlyAPI\src/hamfly_qx_protocol.c **** }
 5327              		.loc 1 399 0 is_stmt 1
 5328 00b6 00BF     		nop
 5329 00b8 1837     		adds	r7, r7, #24
 5330              		.cfi_def_cfa_offset 16
 5331 00ba BD46     		mov	sp, r7
 5332              		.cfi_def_cfa_register 13
 5333              		@ sp needed
 5334 00bc B0BD     		pop	{r4, r5, r7, pc}
 5335              	.L478:
 5336 00be 00BF     		.align	2
 5337              	.L477:
 5338 00c0 00000000 		.word	QX_Servers
 5339              		.cfi_endproc
 5340              	.LFE44:
 5341              		.size	QX_Srv_Rx_Write, .-QX_Srv_Rx_Write
 5342              		.section	.text.QX_Cli_Rx_CurVal,"ax",%progbits
 5343              		.align	2
 5344              		.thumb
 5345              		.thumb_func
 5346              		.type	QX_Cli_Rx_CurVal, %function
 5347              	QX_Cli_Rx_CurVal:
 5348              	.LFB45:
 400:..\..\..\HamFlyAPI\src/hamfly_qx_protocol.c **** 
 401:..\..\..\HamFlyAPI\src/hamfly_qx_protocol.c **** static void QX_Cli_Rx_CurVal(QX_Msg_t *RxMsg_p)
 402:..\..\..\HamFlyAPI\src/hamfly_qx_protocol.c **** {
 5349              		.loc 1 402 0
 5350              		.cfi_startproc
 5351              		@ args = 0, pretend = 0, frame = 16
 5352              		@ frame_needed = 1, uses_anonymous_args = 0
 5353 0000 80B5     		push	{r7, lr}
 5354              		.cfi_def_cfa_offset 8
ARM GAS  C:\Users\JENNEW~1\AppData\Local\Temp\ccQ5uJSg.s 			page 104


 5355              		.cfi_offset 7, -8
 5356              		.cfi_offset 14, -4
 5357 0002 84B0     		sub	sp, sp, #16
 5358              		.cfi_def_cfa_offset 24
 5359 0004 00AF     		add	r7, sp, #0
 5360              		.cfi_def_cfa_register 7
 5361 0006 7860     		str	r0, [r7, #4]
 403:..\..\..\HamFlyAPI\src/hamfly_qx_protocol.c ****     int cli_i;
 404:..\..\..\HamFlyAPI\src/hamfly_qx_protocol.c ****     RxMsg_p->Parse_Type = QX_PARSE_TYPE_CURVAL_RECV;
 5362              		.loc 1 404 0
 5363 0008 7B68     		ldr	r3, [r7, #4]
 5364 000a 0122     		movs	r2, #1
 5365 000c 1A70     		strb	r2, [r3]
 405:..\..\..\HamFlyAPI\src/hamfly_qx_protocol.c ****     for (cli_i = 0; cli_i < QX_NUM_CLI; cli_i++)
 5366              		.loc 1 405 0
 5367 000e 0023     		movs	r3, #0
 5368 0010 FB60     		str	r3, [r7, #12]
 5369 0012 09E0     		b	.L480
 5370              	.L481:
 406:..\..\..\HamFlyAPI\src/hamfly_qx_protocol.c ****         QX_Clients[cli_i].Parser_CB(RxMsg_p);
 5371              		.loc 1 406 0 discriminator 3
 5372 0014 084A     		ldr	r2, .L482
 5373 0016 FB68     		ldr	r3, [r7, #12]
 5374 0018 DB00     		lsls	r3, r3, #3
 5375 001a 1344     		add	r3, r3, r2
 5376 001c 5B68     		ldr	r3, [r3, #4]
 5377 001e 7868     		ldr	r0, [r7, #4]
 5378 0020 9847     		blx	r3
 405:..\..\..\HamFlyAPI\src/hamfly_qx_protocol.c ****     for (cli_i = 0; cli_i < QX_NUM_CLI; cli_i++)
 5379              		.loc 1 405 0 discriminator 3
 5380 0022 FB68     		ldr	r3, [r7, #12]
 5381 0024 0133     		adds	r3, r3, #1
 5382 0026 FB60     		str	r3, [r7, #12]
 5383              	.L480:
 405:..\..\..\HamFlyAPI\src/hamfly_qx_protocol.c ****     for (cli_i = 0; cli_i < QX_NUM_CLI; cli_i++)
 5384              		.loc 1 405 0 is_stmt 0 discriminator 1
 5385 0028 FB68     		ldr	r3, [r7, #12]
 5386 002a 002B     		cmp	r3, #0
 5387 002c F2DD     		ble	.L481
 407:..\..\..\HamFlyAPI\src/hamfly_qx_protocol.c **** }
 5388              		.loc 1 407 0 is_stmt 1
 5389 002e 00BF     		nop
 5390 0030 1037     		adds	r7, r7, #16
 5391              		.cfi_def_cfa_offset 8
 5392 0032 BD46     		mov	sp, r7
 5393              		.cfi_def_cfa_register 13
 5394              		@ sp needed
 5395 0034 80BD     		pop	{r7, pc}
 5396              	.L483:
 5397 0036 00BF     		.align	2
 5398              	.L482:
 5399 0038 00000000 		.word	QX_Clients
 5400              		.cfi_endproc
 5401              	.LFE45:
 5402              		.size	QX_Cli_Rx_CurVal, .-QX_Cli_Rx_CurVal
 5403              		.section	.text.QX_TxMsg_Setup,"ax",%progbits
 5404              		.align	2
ARM GAS  C:\Users\JENNEW~1\AppData\Local\Temp\ccQ5uJSg.s 			page 105


 5405              		.thumb
 5406              		.thumb_func
 5407              		.type	QX_TxMsg_Setup, %function
 5408              	QX_TxMsg_Setup:
 5409              	.LFB46:
 408:..\..\..\HamFlyAPI\src/hamfly_qx_protocol.c **** 
 409:..\..\..\HamFlyAPI\src/hamfly_qx_protocol.c **** static QX_Stat_e QX_TxMsg_Setup(QX_Msg_t *TxMsg_p)
 410:..\..\..\HamFlyAPI\src/hamfly_qx_protocol.c **** {
 5410              		.loc 1 410 0
 5411              		.cfi_startproc
 5412              		@ args = 0, pretend = 0, frame = 8
 5413              		@ frame_needed = 1, uses_anonymous_args = 0
 5414 0000 80B5     		push	{r7, lr}
 5415              		.cfi_def_cfa_offset 8
 5416              		.cfi_offset 7, -8
 5417              		.cfi_offset 14, -4
 5418 0002 82B0     		sub	sp, sp, #8
 5419              		.cfi_def_cfa_offset 16
 5420 0004 00AF     		add	r7, sp, #0
 5421              		.cfi_def_cfa_register 7
 5422 0006 7860     		str	r0, [r7, #4]
 411:..\..\..\HamFlyAPI\src/hamfly_qx_protocol.c ****     TxMsg_p->MsgBufAtt_p = &TxMsg_p->MsgBuf[4];
 5423              		.loc 1 411 0
 5424 0008 7B68     		ldr	r3, [r7, #4]
 5425 000a 03F12002 		add	r2, r3, #32
 5426 000e 7B68     		ldr	r3, [r7, #4]
 5427 0010 9A66     		str	r2, [r3, #104]
 412:..\..\..\HamFlyAPI\src/hamfly_qx_protocol.c ****     TxMsg_p->MsgBuf_p    = TxMsg_p->MsgBufAtt_p;
 5428              		.loc 1 412 0
 5429 0012 7B68     		ldr	r3, [r7, #4]
 5430 0014 9A6E     		ldr	r2, [r3, #104]
 5431 0016 7B68     		ldr	r3, [r7, #4]
 5432 0018 1A67     		str	r2, [r3, #112]
 413:..\..\..\HamFlyAPI\src/hamfly_qx_protocol.c ****     if (TxMsg_p->Legacy_Header) {
 5433              		.loc 1 413 0
 5434 001a 7B68     		ldr	r3, [r7, #4]
 5435 001c 5B79     		ldrb	r3, [r3, #5]	@ zero_extendqisi2
 5436 001e 002B     		cmp	r3, #0
 5437 0020 0AD0     		beq	.L485
 414:..\..\..\HamFlyAPI\src/hamfly_qx_protocol.c ****         if (QX_BuildHeader_Legacy != NULL) QX_BuildHeader_Legacy(TxMsg_p);
 5438              		.loc 1 414 0
 5439 0022 094B     		ldr	r3, .L489
 5440 0024 1B68     		ldr	r3, [r3]
 5441 0026 002B     		cmp	r3, #0
 5442 0028 04D0     		beq	.L486
 5443              		.loc 1 414 0 is_stmt 0 discriminator 1
 5444 002a 074B     		ldr	r3, .L489
 5445 002c 1B68     		ldr	r3, [r3]
 5446 002e 7868     		ldr	r0, [r7, #4]
 5447 0030 9847     		blx	r3
 5448 0032 04E0     		b	.L487
 5449              	.L486:
 415:..\..\..\HamFlyAPI\src/hamfly_qx_protocol.c ****         else return QX_STAT_ERROR;
 5450              		.loc 1 415 0 is_stmt 1
 5451 0034 0123     		movs	r3, #1
 5452 0036 03E0     		b	.L488
 5453              	.L485:
ARM GAS  C:\Users\JENNEW~1\AppData\Local\Temp\ccQ5uJSg.s 			page 106


 416:..\..\..\HamFlyAPI\src/hamfly_qx_protocol.c ****     } else {
 417:..\..\..\HamFlyAPI\src/hamfly_qx_protocol.c ****         QX_BuildHeader(TxMsg_p);
 5454              		.loc 1 417 0
 5455 0038 7868     		ldr	r0, [r7, #4]
 5456 003a FFF7FEFF 		bl	QX_BuildHeader
 5457              	.L487:
 418:..\..\..\HamFlyAPI\src/hamfly_qx_protocol.c ****     }
 419:..\..\..\HamFlyAPI\src/hamfly_qx_protocol.c ****     return QX_STAT_OK;
 5458              		.loc 1 419 0
 5459 003e 0023     		movs	r3, #0
 5460              	.L488:
 420:..\..\..\HamFlyAPI\src/hamfly_qx_protocol.c **** }
 5461              		.loc 1 420 0
 5462 0040 1846     		mov	r0, r3
 5463 0042 0837     		adds	r7, r7, #8
 5464              		.cfi_def_cfa_offset 8
 5465 0044 BD46     		mov	sp, r7
 5466              		.cfi_def_cfa_register 13
 5467              		@ sp needed
 5468 0046 80BD     		pop	{r7, pc}
 5469              	.L490:
 5470              		.align	2
 5471              	.L489:
 5472 0048 00000000 		.word	QX_BuildHeader_Legacy
 5473              		.cfi_endproc
 5474              	.LFE46:
 5475              		.size	QX_TxMsg_Setup, .-QX_TxMsg_Setup
 5476              		.section	.text.QX_TxMsg_Finish,"ax",%progbits
 5477              		.align	2
 5478              		.thumb
 5479              		.thumb_func
 5480              		.type	QX_TxMsg_Finish, %function
 5481              	QX_TxMsg_Finish:
 5482              	.LFB47:
 421:..\..\..\HamFlyAPI\src/hamfly_qx_protocol.c **** 
 422:..\..\..\HamFlyAPI\src/hamfly_qx_protocol.c **** static QX_Stat_e QX_TxMsg_Finish(QX_Msg_t *TxMsg_p)
 423:..\..\..\HamFlyAPI\src/hamfly_qx_protocol.c **** {
 5483              		.loc 1 423 0
 5484              		.cfi_startproc
 5485              		@ args = 0, pretend = 0, frame = 24
 5486              		@ frame_needed = 1, uses_anonymous_args = 0
 5487 0000 80B5     		push	{r7, lr}
 5488              		.cfi_def_cfa_offset 8
 5489              		.cfi_offset 7, -8
 5490              		.cfi_offset 14, -4
 5491 0002 86B0     		sub	sp, sp, #24
 5492              		.cfi_def_cfa_offset 32
 5493 0004 00AF     		add	r7, sp, #0
 5494              		.cfi_def_cfa_register 7
 5495 0006 7860     		str	r0, [r7, #4]
 424:..\..\..\HamFlyAPI\src/hamfly_qx_protocol.c ****     uint8_t QX_use2ByteLen = 0;
 5496              		.loc 1 424 0
 5497 0008 0023     		movs	r3, #0
 5498 000a FB75     		strb	r3, [r7, #23]
 425:..\..\..\HamFlyAPI\src/hamfly_qx_protocol.c ****     if (TxMsg_p->AttNotHandled == 1) return QX_STAT_ERROR_ATT_NOT_HANDLED;
 5499              		.loc 1 425 0
 5500 000c 7B68     		ldr	r3, [r7, #4]
ARM GAS  C:\Users\JENNEW~1\AppData\Local\Temp\ccQ5uJSg.s 			page 107


 5501 000e 1B79     		ldrb	r3, [r3, #4]	@ zero_extendqisi2
 5502 0010 012B     		cmp	r3, #1
 5503 0012 01D1     		bne	.L492
 5504              		.loc 1 425 0 is_stmt 0 discriminator 1
 5505 0014 0823     		movs	r3, #8
 5506 0016 DDE0     		b	.L493
 5507              	.L492:
 426:..\..\..\HamFlyAPI\src/hamfly_qx_protocol.c **** 
 427:..\..\..\HamFlyAPI\src/hamfly_qx_protocol.c ****     TxMsg_p->Header.MsgLength = (uint16_t)(TxMsg_p->MsgBuf_p - TxMsg_p->MsgBufAtt_p);
 5508              		.loc 1 427 0 is_stmt 1
 5509 0018 7B68     		ldr	r3, [r7, #4]
 5510 001a 1B6F     		ldr	r3, [r3, #112]
 5511 001c 1A46     		mov	r2, r3
 5512 001e 7B68     		ldr	r3, [r7, #4]
 5513 0020 9B6E     		ldr	r3, [r3, #104]
 5514 0022 D31A     		subs	r3, r2, r3
 5515 0024 9AB2     		uxth	r2, r3
 5516 0026 7B68     		ldr	r3, [r7, #4]
 5517 0028 1A81     		strh	r2, [r3, #8]	@ movhi
 428:..\..\..\HamFlyAPI\src/hamfly_qx_protocol.c **** 
 429:..\..\..\HamFlyAPI\src/hamfly_qx_protocol.c ****     if (TxMsg_p->Legacy_Header || (TxMsg_p->Header.MsgLength > 100)) {
 5518              		.loc 1 429 0
 5519 002a 7B68     		ldr	r3, [r7, #4]
 5520 002c 5B79     		ldrb	r3, [r3, #5]	@ zero_extendqisi2
 5521 002e 002B     		cmp	r3, #0
 5522 0030 03D1     		bne	.L494
 5523              		.loc 1 429 0 is_stmt 0 discriminator 1
 5524 0032 7B68     		ldr	r3, [r7, #4]
 5525 0034 1B89     		ldrh	r3, [r3, #8]
 5526 0036 642B     		cmp	r3, #100
 5527 0038 07D9     		bls	.L495
 5528              	.L494:
 430:..\..\..\HamFlyAPI\src/hamfly_qx_protocol.c ****         TxMsg_p->MsgBufStart_p = &TxMsg_p->MsgBuf[0];
 5529              		.loc 1 430 0 is_stmt 1
 5530 003a 7B68     		ldr	r3, [r7, #4]
 5531 003c 03F11C02 		add	r2, r3, #28
 5532 0040 7B68     		ldr	r3, [r7, #4]
 5533 0042 5A66     		str	r2, [r3, #100]
 431:..\..\..\HamFlyAPI\src/hamfly_qx_protocol.c ****         QX_use2ByteLen = 1;
 5534              		.loc 1 431 0
 5535 0044 0123     		movs	r3, #1
 5536 0046 FB75     		strb	r3, [r7, #23]
 5537 0048 04E0     		b	.L496
 5538              	.L495:
 432:..\..\..\HamFlyAPI\src/hamfly_qx_protocol.c ****     } else {
 433:..\..\..\HamFlyAPI\src/hamfly_qx_protocol.c ****         TxMsg_p->MsgBufStart_p = &TxMsg_p->MsgBuf[1];
 5539              		.loc 1 433 0
 5540 004a 7B68     		ldr	r3, [r7, #4]
 5541 004c 03F11D02 		add	r2, r3, #29
 5542 0050 7B68     		ldr	r3, [r7, #4]
 5543 0052 5A66     		str	r2, [r3, #100]
 5544              	.L496:
 434:..\..\..\HamFlyAPI\src/hamfly_qx_protocol.c ****     }
 435:..\..\..\HamFlyAPI\src/hamfly_qx_protocol.c **** 
 436:..\..\..\HamFlyAPI\src/hamfly_qx_protocol.c ****     TxMsg_p->MsgBuf_MsgLen = (uint16_t)(TxMsg_p->MsgBuf_p - TxMsg_p->MsgBufStart_p);
 5545              		.loc 1 436 0
 5546 0054 7B68     		ldr	r3, [r7, #4]
ARM GAS  C:\Users\JENNEW~1\AppData\Local\Temp\ccQ5uJSg.s 			page 108


 5547 0056 1B6F     		ldr	r3, [r3, #112]
 5548 0058 1A46     		mov	r2, r3
 5549 005a 7B68     		ldr	r3, [r7, #4]
 5550 005c 5B6E     		ldr	r3, [r3, #100]
 5551 005e D31A     		subs	r3, r2, r3
 5552 0060 9AB2     		uxth	r2, r3
 5553 0062 7B68     		ldr	r3, [r7, #4]
 5554 0064 A3F86220 		strh	r2, [r3, #98]	@ movhi
 437:..\..\..\HamFlyAPI\src/hamfly_qx_protocol.c **** 
 438:..\..\..\HamFlyAPI\src/hamfly_qx_protocol.c ****     if (TxMsg_p->Header.AddCRC32) {
 5555              		.loc 1 438 0
 5556 0068 7B68     		ldr	r3, [r7, #4]
 5557 006a 9B7C     		ldrb	r3, [r3, #18]	@ zero_extendqisi2
 5558 006c 002B     		cmp	r3, #0
 5559 006e 29D0     		beq	.L497
 5560              	.LBB48:
 439:..\..\..\HamFlyAPI\src/hamfly_qx_protocol.c ****         uint32_t bytes_to_add = 4 - ((TxMsg_p->MsgBuf_MsgLen) % 4);
 5561              		.loc 1 439 0
 5562 0070 7B68     		ldr	r3, [r7, #4]
 5563 0072 B3F86230 		ldrh	r3, [r3, #98]
 5564 0076 03F00303 		and	r3, r3, #3
 5565 007a C3F10403 		rsb	r3, r3, #4
 5566 007e 3B61     		str	r3, [r7, #16]
 440:..\..\..\HamFlyAPI\src/hamfly_qx_protocol.c ****         memset(TxMsg_p->MsgBuf_p, 0, bytes_to_add);
 5567              		.loc 1 440 0
 5568 0080 7B68     		ldr	r3, [r7, #4]
 5569 0082 1B6F     		ldr	r3, [r3, #112]
 5570 0084 3A69     		ldr	r2, [r7, #16]
 5571 0086 0021     		movs	r1, #0
 5572 0088 1846     		mov	r0, r3
 5573 008a FFF7FEFF 		bl	memset
 441:..\..\..\HamFlyAPI\src/hamfly_qx_protocol.c ****         TxMsg_p->MsgBuf_p      += bytes_to_add;
 5574              		.loc 1 441 0
 5575 008e 7B68     		ldr	r3, [r7, #4]
 5576 0090 1A6F     		ldr	r2, [r3, #112]
 5577 0092 3B69     		ldr	r3, [r7, #16]
 5578 0094 1A44     		add	r2, r2, r3
 5579 0096 7B68     		ldr	r3, [r7, #4]
 5580 0098 1A67     		str	r2, [r3, #112]
 442:..\..\..\HamFlyAPI\src/hamfly_qx_protocol.c ****         TxMsg_p->MsgBuf_MsgLen += (uint16_t)bytes_to_add;
 5581              		.loc 1 442 0
 5582 009a 7B68     		ldr	r3, [r7, #4]
 5583 009c B3F86220 		ldrh	r2, [r3, #98]
 5584 00a0 3B69     		ldr	r3, [r7, #16]
 5585 00a2 9BB2     		uxth	r3, r3
 5586 00a4 1344     		add	r3, r3, r2
 5587 00a6 9AB2     		uxth	r2, r3
 5588 00a8 7B68     		ldr	r3, [r7, #4]
 5589 00aa A3F86220 		strh	r2, [r3, #98]	@ movhi
 443:..\..\..\HamFlyAPI\src/hamfly_qx_protocol.c ****         TxMsg_p->Header.MsgLength = (uint16_t)(TxMsg_p->MsgBuf_p - TxMsg_p->MsgBufAtt_p) + 4;
 5590              		.loc 1 443 0
 5591 00ae 7B68     		ldr	r3, [r7, #4]
 5592 00b0 1B6F     		ldr	r3, [r3, #112]
 5593 00b2 1A46     		mov	r2, r3
 5594 00b4 7B68     		ldr	r3, [r7, #4]
 5595 00b6 9B6E     		ldr	r3, [r3, #104]
 5596 00b8 D31A     		subs	r3, r2, r3
ARM GAS  C:\Users\JENNEW~1\AppData\Local\Temp\ccQ5uJSg.s 			page 109


 5597 00ba 9BB2     		uxth	r3, r3
 5598 00bc 0433     		adds	r3, r3, #4
 5599 00be 9AB2     		uxth	r2, r3
 5600 00c0 7B68     		ldr	r3, [r7, #4]
 5601 00c2 1A81     		strh	r2, [r3, #8]	@ movhi
 5602              	.L497:
 5603              	.LBE48:
 444:..\..\..\HamFlyAPI\src/hamfly_qx_protocol.c ****     }
 445:..\..\..\HamFlyAPI\src/hamfly_qx_protocol.c **** 
 446:..\..\..\HamFlyAPI\src/hamfly_qx_protocol.c ****     if (TxMsg_p->Legacy_Header) {
 5604              		.loc 1 446 0
 5605 00c4 7B68     		ldr	r3, [r7, #4]
 5606 00c6 5B79     		ldrb	r3, [r3, #5]	@ zero_extendqisi2
 5607 00c8 002B     		cmp	r3, #0
 5608 00ca 12D0     		beq	.L498
 447:..\..\..\HamFlyAPI\src/hamfly_qx_protocol.c ****         TxMsg_p->MsgBuf[0] = 'Q';
 5609              		.loc 1 447 0
 5610 00cc 7B68     		ldr	r3, [r7, #4]
 5611 00ce 5122     		movs	r2, #81
 5612 00d0 1A77     		strb	r2, [r3, #28]
 448:..\..\..\HamFlyAPI\src/hamfly_qx_protocol.c ****         TxMsg_p->MsgBuf[1] = 'B';
 5613              		.loc 1 448 0
 5614 00d2 7B68     		ldr	r3, [r7, #4]
 5615 00d4 4222     		movs	r2, #66
 5616 00d6 5A77     		strb	r2, [r3, #29]
 449:..\..\..\HamFlyAPI\src/hamfly_qx_protocol.c ****         TxMsg_p->MsgBuf[2] = (TxMsg_p->Header.MsgLength >> 8) & 0xFF;
 5617              		.loc 1 449 0
 5618 00d8 7B68     		ldr	r3, [r7, #4]
 5619 00da 1B89     		ldrh	r3, [r3, #8]
 5620 00dc 1B0A     		lsrs	r3, r3, #8
 5621 00de 9BB2     		uxth	r3, r3
 5622 00e0 DAB2     		uxtb	r2, r3
 5623 00e2 7B68     		ldr	r3, [r7, #4]
 5624 00e4 9A77     		strb	r2, [r3, #30]
 450:..\..\..\HamFlyAPI\src/hamfly_qx_protocol.c ****         TxMsg_p->MsgBuf[3] =  TxMsg_p->Header.MsgLength & 0xFF;
 5625              		.loc 1 450 0
 5626 00e6 7B68     		ldr	r3, [r7, #4]
 5627 00e8 1B89     		ldrh	r3, [r3, #8]
 5628 00ea DAB2     		uxtb	r2, r3
 5629 00ec 7B68     		ldr	r3, [r7, #4]
 5630 00ee DA77     		strb	r2, [r3, #31]
 5631 00f0 2AE0     		b	.L499
 5632              	.L498:
 451:..\..\..\HamFlyAPI\src/hamfly_qx_protocol.c ****     } else {
 452:..\..\..\HamFlyAPI\src/hamfly_qx_protocol.c ****         if (QX_use2ByteLen) {
 5633              		.loc 1 452 0
 5634 00f2 FB7D     		ldrb	r3, [r7, #23]	@ zero_extendqisi2
 5635 00f4 002B     		cmp	r3, #0
 5636 00f6 19D0     		beq	.L500
 453:..\..\..\HamFlyAPI\src/hamfly_qx_protocol.c ****             TxMsg_p->MsgBuf[0] = 'Q';
 5637              		.loc 1 453 0
 5638 00f8 7B68     		ldr	r3, [r7, #4]
 5639 00fa 5122     		movs	r2, #81
 5640 00fc 1A77     		strb	r2, [r3, #28]
 454:..\..\..\HamFlyAPI\src/hamfly_qx_protocol.c ****             TxMsg_p->MsgBuf[1] = 'X';
 5641              		.loc 1 454 0
 5642 00fe 7B68     		ldr	r3, [r7, #4]
ARM GAS  C:\Users\JENNEW~1\AppData\Local\Temp\ccQ5uJSg.s 			page 110


 5643 0100 5822     		movs	r2, #88
 5644 0102 5A77     		strb	r2, [r3, #29]
 455:..\..\..\HamFlyAPI\src/hamfly_qx_protocol.c ****             TxMsg_p->MsgBuf[2] = (uint8_t)((TxMsg_p->Header.MsgLength & 0x7F) | 0x80);
 5645              		.loc 1 455 0
 5646 0104 7B68     		ldr	r3, [r7, #4]
 5647 0106 1B89     		ldrh	r3, [r3, #8]
 5648 0108 5BB2     		sxtb	r3, r3
 5649 010a 63F07F03 		orn	r3, r3, #127
 5650 010e 5BB2     		sxtb	r3, r3
 5651 0110 DAB2     		uxtb	r2, r3
 5652 0112 7B68     		ldr	r3, [r7, #4]
 5653 0114 9A77     		strb	r2, [r3, #30]
 456:..\..\..\HamFlyAPI\src/hamfly_qx_protocol.c ****             TxMsg_p->MsgBuf[3] = (uint8_t)((TxMsg_p->Header.MsgLength >> 7) & 0x7F);
 5654              		.loc 1 456 0
 5655 0116 7B68     		ldr	r3, [r7, #4]
 5656 0118 1B89     		ldrh	r3, [r3, #8]
 5657 011a DB09     		lsrs	r3, r3, #7
 5658 011c 9BB2     		uxth	r3, r3
 5659 011e DBB2     		uxtb	r3, r3
 5660 0120 03F07F03 		and	r3, r3, #127
 5661 0124 DAB2     		uxtb	r2, r3
 5662 0126 7B68     		ldr	r3, [r7, #4]
 5663 0128 DA77     		strb	r2, [r3, #31]
 5664 012a 0DE0     		b	.L499
 5665              	.L500:
 457:..\..\..\HamFlyAPI\src/hamfly_qx_protocol.c ****         } else {
 458:..\..\..\HamFlyAPI\src/hamfly_qx_protocol.c ****             TxMsg_p->MsgBuf[1] = 'Q';
 5666              		.loc 1 458 0
 5667 012c 7B68     		ldr	r3, [r7, #4]
 5668 012e 5122     		movs	r2, #81
 5669 0130 5A77     		strb	r2, [r3, #29]
 459:..\..\..\HamFlyAPI\src/hamfly_qx_protocol.c ****             TxMsg_p->MsgBuf[2] = 'X';
 5670              		.loc 1 459 0
 5671 0132 7B68     		ldr	r3, [r7, #4]
 5672 0134 5822     		movs	r2, #88
 5673 0136 9A77     		strb	r2, [r3, #30]
 460:..\..\..\HamFlyAPI\src/hamfly_qx_protocol.c ****             TxMsg_p->MsgBuf[3] = (uint8_t)(TxMsg_p->Header.MsgLength & 0x7F);
 5674              		.loc 1 460 0
 5675 0138 7B68     		ldr	r3, [r7, #4]
 5676 013a 1B89     		ldrh	r3, [r3, #8]
 5677 013c DBB2     		uxtb	r3, r3
 5678 013e 03F07F03 		and	r3, r3, #127
 5679 0142 DAB2     		uxtb	r2, r3
 5680 0144 7B68     		ldr	r3, [r7, #4]
 5681 0146 DA77     		strb	r2, [r3, #31]
 5682              	.L499:
 461:..\..\..\HamFlyAPI\src/hamfly_qx_protocol.c ****         }
 462:..\..\..\HamFlyAPI\src/hamfly_qx_protocol.c ****     }
 463:..\..\..\HamFlyAPI\src/hamfly_qx_protocol.c **** 
 464:..\..\..\HamFlyAPI\src/hamfly_qx_protocol.c ****     if (TxMsg_p->Header.AddCRC32) {
 5683              		.loc 1 464 0
 5684 0148 7B68     		ldr	r3, [r7, #4]
 5685 014a 9B7C     		ldrb	r3, [r3, #18]	@ zero_extendqisi2
 5686 014c 002B     		cmp	r3, #0
 5687 014e 22D0     		beq	.L501
 5688              	.LBB49:
 465:..\..\..\HamFlyAPI\src/hamfly_qx_protocol.c ****         uint32_t crc = QX_accumulate_crc32(0xFFFFFFFF,
ARM GAS  C:\Users\JENNEW~1\AppData\Local\Temp\ccQ5uJSg.s 			page 111


 466:..\..\..\HamFlyAPI\src/hamfly_qx_protocol.c ****             TxMsg_p->MsgBufStart_p, TxMsg_p->MsgBuf_MsgLen);
 5689              		.loc 1 466 0
 5690 0150 7B68     		ldr	r3, [r7, #4]
 5691 0152 596E     		ldr	r1, [r3, #100]
 5692 0154 7B68     		ldr	r3, [r7, #4]
 5693 0156 B3F86230 		ldrh	r3, [r3, #98]
 465:..\..\..\HamFlyAPI\src/hamfly_qx_protocol.c ****         uint32_t crc = QX_accumulate_crc32(0xFFFFFFFF,
 5694              		.loc 1 465 0
 5695 015a 1A46     		mov	r2, r3
 5696 015c 4FF0FF30 		mov	r0, #-1
 5697 0160 FFF7FEFF 		bl	QX_accumulate_crc32
 5698 0164 0346     		mov	r3, r0
 5699 0166 BB60     		str	r3, [r7, #8]
 467:..\..\..\HamFlyAPI\src/hamfly_qx_protocol.c ****         memcpy(TxMsg_p->MsgBuf_p, &crc, sizeof(crc));
 5700              		.loc 1 467 0
 5701 0168 7B68     		ldr	r3, [r7, #4]
 5702 016a 1B6F     		ldr	r3, [r3, #112]
 5703 016c 07F10801 		add	r1, r7, #8
 5704 0170 0422     		movs	r2, #4
 5705 0172 1846     		mov	r0, r3
 5706 0174 FFF7FEFF 		bl	memcpy
 468:..\..\..\HamFlyAPI\src/hamfly_qx_protocol.c ****         TxMsg_p->MsgBuf_p      += 4;
 5707              		.loc 1 468 0
 5708 0178 7B68     		ldr	r3, [r7, #4]
 5709 017a 1B6F     		ldr	r3, [r3, #112]
 5710 017c 1A1D     		adds	r2, r3, #4
 5711 017e 7B68     		ldr	r3, [r7, #4]
 5712 0180 1A67     		str	r2, [r3, #112]
 469:..\..\..\HamFlyAPI\src/hamfly_qx_protocol.c ****         TxMsg_p->MsgBuf_MsgLen  = (uint16_t)(TxMsg_p->MsgBuf_p - TxMsg_p->MsgBufStart_p);
 5713              		.loc 1 469 0
 5714 0182 7B68     		ldr	r3, [r7, #4]
 5715 0184 1B6F     		ldr	r3, [r3, #112]
 5716 0186 1A46     		mov	r2, r3
 5717 0188 7B68     		ldr	r3, [r7, #4]
 5718 018a 5B6E     		ldr	r3, [r3, #100]
 5719 018c D31A     		subs	r3, r2, r3
 5720 018e 9AB2     		uxth	r2, r3
 5721 0190 7B68     		ldr	r3, [r7, #4]
 5722 0192 A3F86220 		strh	r2, [r3, #98]	@ movhi
 5723              	.L501:
 5724              	.LBE49:
 470:..\..\..\HamFlyAPI\src/hamfly_qx_protocol.c ****     }
 471:..\..\..\HamFlyAPI\src/hamfly_qx_protocol.c **** 
 472:..\..\..\HamFlyAPI\src/hamfly_qx_protocol.c ****     uint8_t chksum = QX_Calc8bChecksum(TxMsg_p->MsgBufAtt_p, TxMsg_p->Header.MsgLength);
 5725              		.loc 1 472 0
 5726 0196 7B68     		ldr	r3, [r7, #4]
 5727 0198 9A6E     		ldr	r2, [r3, #104]
 5728 019a 7B68     		ldr	r3, [r7, #4]
 5729 019c 1B89     		ldrh	r3, [r3, #8]
 5730 019e 1946     		mov	r1, r3
 5731 01a0 1046     		mov	r0, r2
 5732 01a2 FFF7FEFF 		bl	QX_Calc8bChecksum
 5733 01a6 0346     		mov	r3, r0
 5734 01a8 FB73     		strb	r3, [r7, #15]
 473:..\..\..\HamFlyAPI\src/hamfly_qx_protocol.c ****     *TxMsg_p->MsgBuf_p++ = 0xFF - chksum;
 5735              		.loc 1 473 0
 5736 01aa 7B68     		ldr	r3, [r7, #4]
ARM GAS  C:\Users\JENNEW~1\AppData\Local\Temp\ccQ5uJSg.s 			page 112


 5737 01ac 1B6F     		ldr	r3, [r3, #112]
 5738 01ae 591C     		adds	r1, r3, #1
 5739 01b0 7A68     		ldr	r2, [r7, #4]
 5740 01b2 1167     		str	r1, [r2, #112]
 5741 01b4 FA7B     		ldrb	r2, [r7, #15]
 5742 01b6 D243     		mvns	r2, r2
 5743 01b8 D2B2     		uxtb	r2, r2
 5744 01ba 1A70     		strb	r2, [r3]
 474:..\..\..\HamFlyAPI\src/hamfly_qx_protocol.c ****     TxMsg_p->MsgBuf_MsgLen++;
 5745              		.loc 1 474 0
 5746 01bc 7B68     		ldr	r3, [r7, #4]
 5747 01be B3F86230 		ldrh	r3, [r3, #98]
 5748 01c2 0133     		adds	r3, r3, #1
 5749 01c4 9AB2     		uxth	r2, r3
 5750 01c6 7B68     		ldr	r3, [r7, #4]
 5751 01c8 A3F86220 		strh	r2, [r3, #98]	@ movhi
 475:..\..\..\HamFlyAPI\src/hamfly_qx_protocol.c **** 
 476:..\..\..\HamFlyAPI\src/hamfly_qx_protocol.c ****     QX_SendMsg2CommsPort_CB(TxMsg_p);
 5752              		.loc 1 476 0
 5753 01cc 7868     		ldr	r0, [r7, #4]
 5754 01ce FFF7FEFF 		bl	QX_SendMsg2CommsPort_CB
 477:..\..\..\HamFlyAPI\src/hamfly_qx_protocol.c ****     return QX_STAT_OK;
 5755              		.loc 1 477 0
 5756 01d2 0023     		movs	r3, #0
 5757              	.L493:
 478:..\..\..\HamFlyAPI\src/hamfly_qx_protocol.c **** }
 5758              		.loc 1 478 0
 5759 01d4 1846     		mov	r0, r3
 5760 01d6 1837     		adds	r7, r7, #24
 5761              		.cfi_def_cfa_offset 8
 5762 01d8 BD46     		mov	sp, r7
 5763              		.cfi_def_cfa_register 13
 5764              		@ sp needed
 5765 01da 80BD     		pop	{r7, pc}
 5766              		.cfi_endproc
 5767              	.LFE47:
 5768              		.size	QX_TxMsg_Finish, .-QX_TxMsg_Finish
 5769              		.section	.text.QX_BuildHeader,"ax",%progbits
 5770              		.align	2
 5771              		.thumb
 5772              		.thumb_func
 5773              		.type	QX_BuildHeader, %function
 5774              	QX_BuildHeader:
 5775              	.LFB48:
 479:..\..\..\HamFlyAPI\src/hamfly_qx_protocol.c **** 
 480:..\..\..\HamFlyAPI\src/hamfly_qx_protocol.c **** static void QX_BuildHeader(QX_Msg_t *Msg_p)
 481:..\..\..\HamFlyAPI\src/hamfly_qx_protocol.c **** {
 5776              		.loc 1 481 0
 5777              		.cfi_startproc
 5778              		@ args = 0, pretend = 0, frame = 16
 5779              		@ frame_needed = 1, uses_anonymous_args = 0
 5780 0000 80B5     		push	{r7, lr}
 5781              		.cfi_def_cfa_offset 8
 5782              		.cfi_offset 7, -8
 5783              		.cfi_offset 14, -4
 5784 0002 84B0     		sub	sp, sp, #16
 5785              		.cfi_def_cfa_offset 24
ARM GAS  C:\Users\JENNEW~1\AppData\Local\Temp\ccQ5uJSg.s 			page 113


 5786 0004 00AF     		add	r7, sp, #0
 5787              		.cfi_def_cfa_register 7
 5788 0006 7860     		str	r0, [r7, #4]
 482:..\..\..\HamFlyAPI\src/hamfly_qx_protocol.c ****     Msg_p->MsgBuf_p = Msg_p->MsgBufAtt_p;
 5789              		.loc 1 482 0
 5790 0008 7B68     		ldr	r3, [r7, #4]
 5791 000a 9A6E     		ldr	r2, [r3, #104]
 5792 000c 7B68     		ldr	r3, [r7, #4]
 5793 000e 1A67     		str	r2, [r3, #112]
 483:..\..\..\HamFlyAPI\src/hamfly_qx_protocol.c ****     QX_AddExtdValToBuf(&Msg_p->MsgBuf_p, Msg_p->Header.Attrib);
 5794              		.loc 1 483 0
 5795 0010 7B68     		ldr	r3, [r7, #4]
 5796 0012 03F17002 		add	r2, r3, #112
 5797 0016 7B68     		ldr	r3, [r7, #4]
 5798 0018 DB68     		ldr	r3, [r3, #12]
 5799 001a 1946     		mov	r1, r3
 5800 001c 1046     		mov	r0, r2
 5801 001e FFF7FEFF 		bl	QX_AddExtdValToBuf
 484:..\..\..\HamFlyAPI\src/hamfly_qx_protocol.c ****     Msg_p->Header.AddOptionByte1 = 0;
 5802              		.loc 1 484 0
 5803 0022 7B68     		ldr	r3, [r7, #4]
 5804 0024 0022     		movs	r2, #0
 5805 0026 5A74     		strb	r2, [r3, #17]
 485:..\..\..\HamFlyAPI\src/hamfly_qx_protocol.c ****     if (Msg_p->Header.AddCRC32) Msg_p->Header.AddOptionByte1 = 1;
 5806              		.loc 1 485 0
 5807 0028 7B68     		ldr	r3, [r7, #4]
 5808 002a 9B7C     		ldrb	r3, [r3, #18]	@ zero_extendqisi2
 5809 002c 002B     		cmp	r3, #0
 5810 002e 02D0     		beq	.L503
 5811              		.loc 1 485 0 is_stmt 0 discriminator 1
 5812 0030 7B68     		ldr	r3, [r7, #4]
 5813 0032 0122     		movs	r2, #1
 5814 0034 5A74     		strb	r2, [r3, #17]
 5815              	.L503:
 486:..\..\..\HamFlyAPI\src/hamfly_qx_protocol.c **** 
 487:..\..\..\HamFlyAPI\src/hamfly_qx_protocol.c ****     volatile uint8_t OptionByte = 0;
 5816              		.loc 1 487 0 is_stmt 1
 5817 0036 0023     		movs	r3, #0
 5818 0038 FB73     		strb	r3, [r7, #15]
 488:..\..\..\HamFlyAPI\src/hamfly_qx_protocol.c ****     OptionByte |= (Msg_p->Header.Type & 0xF);
 5819              		.loc 1 488 0
 5820 003a 7B68     		ldr	r3, [r7, #4]
 5821 003c 1B7C     		ldrb	r3, [r3, #16]	@ zero_extendqisi2
 5822 003e 5BB2     		sxtb	r3, r3
 5823 0040 03F00F03 		and	r3, r3, #15
 5824 0044 5AB2     		sxtb	r2, r3
 5825 0046 FB7B     		ldrb	r3, [r7, #15]
 5826 0048 DBB2     		uxtb	r3, r3
 5827 004a 5BB2     		sxtb	r3, r3
 5828 004c 1343     		orrs	r3, r3, r2
 5829 004e 5BB2     		sxtb	r3, r3
 5830 0050 DBB2     		uxtb	r3, r3
 5831 0052 FB73     		strb	r3, [r7, #15]
 489:..\..\..\HamFlyAPI\src/hamfly_qx_protocol.c ****     OptionByte |= (Msg_p->Header.FF_Ext            & 0x01) << 4;
 5832              		.loc 1 489 0
 5833 0054 7B68     		ldr	r3, [r7, #4]
 5834 0056 DB7C     		ldrb	r3, [r3, #19]	@ zero_extendqisi2
ARM GAS  C:\Users\JENNEW~1\AppData\Local\Temp\ccQ5uJSg.s 			page 114


 5835 0058 1B01     		lsls	r3, r3, #4
 5836 005a 5BB2     		sxtb	r3, r3
 5837 005c 03F01003 		and	r3, r3, #16
 5838 0060 5AB2     		sxtb	r2, r3
 5839 0062 FB7B     		ldrb	r3, [r7, #15]
 5840 0064 DBB2     		uxtb	r3, r3
 5841 0066 5BB2     		sxtb	r3, r3
 5842 0068 1343     		orrs	r3, r3, r2
 5843 006a 5BB2     		sxtb	r3, r3
 5844 006c DBB2     		uxtb	r3, r3
 5845 006e FB73     		strb	r3, [r7, #15]
 490:..\..\..\HamFlyAPI\src/hamfly_qx_protocol.c ****     OptionByte |= (Msg_p->Header.Remove_Req_Fields  & 0x01) << 5;
 5846              		.loc 1 490 0
 5847 0070 7B68     		ldr	r3, [r7, #4]
 5848 0072 DB7D     		ldrb	r3, [r3, #23]	@ zero_extendqisi2
 5849 0074 5B01     		lsls	r3, r3, #5
 5850 0076 5BB2     		sxtb	r3, r3
 5851 0078 03F02003 		and	r3, r3, #32
 5852 007c 5AB2     		sxtb	r2, r3
 5853 007e FB7B     		ldrb	r3, [r7, #15]
 5854 0080 DBB2     		uxtb	r3, r3
 5855 0082 5BB2     		sxtb	r3, r3
 5856 0084 1343     		orrs	r3, r3, r2
 5857 0086 5BB2     		sxtb	r3, r3
 5858 0088 DBB2     		uxtb	r3, r3
 5859 008a FB73     		strb	r3, [r7, #15]
 491:..\..\..\HamFlyAPI\src/hamfly_qx_protocol.c ****     OptionByte |= (Msg_p->Header.Remove_Addr_Fields & 0x01) << 6;
 5860              		.loc 1 491 0
 5861 008c 7B68     		ldr	r3, [r7, #4]
 5862 008e 9B7D     		ldrb	r3, [r3, #22]	@ zero_extendqisi2
 5863 0090 9B01     		lsls	r3, r3, #6
 5864 0092 5BB2     		sxtb	r3, r3
 5865 0094 03F04003 		and	r3, r3, #64
 5866 0098 5AB2     		sxtb	r2, r3
 5867 009a FB7B     		ldrb	r3, [r7, #15]
 5868 009c DBB2     		uxtb	r3, r3
 5869 009e 5BB2     		sxtb	r3, r3
 5870 00a0 1343     		orrs	r3, r3, r2
 5871 00a2 5BB2     		sxtb	r3, r3
 5872 00a4 DBB2     		uxtb	r3, r3
 5873 00a6 FB73     		strb	r3, [r7, #15]
 492:..\..\..\HamFlyAPI\src/hamfly_qx_protocol.c ****     OptionByte |= (Msg_p->Header.AddOptionByte1    & 0x01) << 7;
 5874              		.loc 1 492 0
 5875 00a8 7B68     		ldr	r3, [r7, #4]
 5876 00aa 5B7C     		ldrb	r3, [r3, #17]	@ zero_extendqisi2
 5877 00ac DB01     		lsls	r3, r3, #7
 5878 00ae 5AB2     		sxtb	r2, r3
 5879 00b0 FB7B     		ldrb	r3, [r7, #15]
 5880 00b2 DBB2     		uxtb	r3, r3
 5881 00b4 5BB2     		sxtb	r3, r3
 5882 00b6 1343     		orrs	r3, r3, r2
 5883 00b8 5BB2     		sxtb	r3, r3
 5884 00ba DBB2     		uxtb	r3, r3
 5885 00bc FB73     		strb	r3, [r7, #15]
 493:..\..\..\HamFlyAPI\src/hamfly_qx_protocol.c ****     *Msg_p->MsgBuf_p++ = OptionByte;
 5886              		.loc 1 493 0
 5887 00be 7B68     		ldr	r3, [r7, #4]
ARM GAS  C:\Users\JENNEW~1\AppData\Local\Temp\ccQ5uJSg.s 			page 115


 5888 00c0 1B6F     		ldr	r3, [r3, #112]
 5889 00c2 591C     		adds	r1, r3, #1
 5890 00c4 7A68     		ldr	r2, [r7, #4]
 5891 00c6 1167     		str	r1, [r2, #112]
 5892 00c8 FA7B     		ldrb	r2, [r7, #15]
 5893 00ca D2B2     		uxtb	r2, r2
 5894 00cc 1A70     		strb	r2, [r3]
 494:..\..\..\HamFlyAPI\src/hamfly_qx_protocol.c **** 
 495:..\..\..\HamFlyAPI\src/hamfly_qx_protocol.c ****     if (Msg_p->Header.AddOptionByte1) {
 5895              		.loc 1 495 0
 5896 00ce 7B68     		ldr	r3, [r7, #4]
 5897 00d0 5B7C     		ldrb	r3, [r3, #17]	@ zero_extendqisi2
 5898 00d2 002B     		cmp	r3, #0
 5899 00d4 16D0     		beq	.L504
 496:..\..\..\HamFlyAPI\src/hamfly_qx_protocol.c ****         OptionByte = 0;
 5900              		.loc 1 496 0
 5901 00d6 0023     		movs	r3, #0
 5902 00d8 FB73     		strb	r3, [r7, #15]
 497:..\..\..\HamFlyAPI\src/hamfly_qx_protocol.c ****         OptionByte |= (Msg_p->Header.AddCRC32 & 0x01) << 0;
 5903              		.loc 1 497 0
 5904 00da 7B68     		ldr	r3, [r7, #4]
 5905 00dc 9B7C     		ldrb	r3, [r3, #18]	@ zero_extendqisi2
 5906 00de 5BB2     		sxtb	r3, r3
 5907 00e0 03F00103 		and	r3, r3, #1
 5908 00e4 5AB2     		sxtb	r2, r3
 5909 00e6 FB7B     		ldrb	r3, [r7, #15]
 5910 00e8 DBB2     		uxtb	r3, r3
 5911 00ea 5BB2     		sxtb	r3, r3
 5912 00ec 1343     		orrs	r3, r3, r2
 5913 00ee 5BB2     		sxtb	r3, r3
 5914 00f0 DBB2     		uxtb	r3, r3
 5915 00f2 FB73     		strb	r3, [r7, #15]
 498:..\..\..\HamFlyAPI\src/hamfly_qx_protocol.c ****         *Msg_p->MsgBuf_p++ = OptionByte;
 5916              		.loc 1 498 0
 5917 00f4 7B68     		ldr	r3, [r7, #4]
 5918 00f6 1B6F     		ldr	r3, [r3, #112]
 5919 00f8 591C     		adds	r1, r3, #1
 5920 00fa 7A68     		ldr	r2, [r7, #4]
 5921 00fc 1167     		str	r1, [r2, #112]
 5922 00fe FA7B     		ldrb	r2, [r7, #15]
 5923 0100 D2B2     		uxtb	r2, r2
 5924 0102 1A70     		strb	r2, [r3]
 5925              	.L504:
 499:..\..\..\HamFlyAPI\src/hamfly_qx_protocol.c ****     }
 500:..\..\..\HamFlyAPI\src/hamfly_qx_protocol.c **** 
 501:..\..\..\HamFlyAPI\src/hamfly_qx_protocol.c ****     if (Msg_p->Header.Remove_Addr_Fields == 0) {
 5926              		.loc 1 501 0
 5927 0104 7B68     		ldr	r3, [r7, #4]
 5928 0106 9B7D     		ldrb	r3, [r3, #22]	@ zero_extendqisi2
 5929 0108 002B     		cmp	r3, #0
 5930 010a 12D1     		bne	.L505
 502:..\..\..\HamFlyAPI\src/hamfly_qx_protocol.c ****         QX_AddExtdValToBuf(&Msg_p->MsgBuf_p, Msg_p->Header.Source_Addr);
 5931              		.loc 1 502 0
 5932 010c 7B68     		ldr	r3, [r7, #4]
 5933 010e 03F17002 		add	r2, r3, #112
 5934 0112 7B68     		ldr	r3, [r7, #4]
 5935 0114 1B7E     		ldrb	r3, [r3, #24]	@ zero_extendqisi2
ARM GAS  C:\Users\JENNEW~1\AppData\Local\Temp\ccQ5uJSg.s 			page 116


 5936 0116 1946     		mov	r1, r3
 5937 0118 1046     		mov	r0, r2
 5938 011a FFF7FEFF 		bl	QX_AddExtdValToBuf
 503:..\..\..\HamFlyAPI\src/hamfly_qx_protocol.c ****         QX_AddExtdValToBuf(&Msg_p->MsgBuf_p, Msg_p->Header.Target_Addr);
 5939              		.loc 1 503 0
 5940 011e 7B68     		ldr	r3, [r7, #4]
 5941 0120 03F17002 		add	r2, r3, #112
 5942 0124 7B68     		ldr	r3, [r7, #4]
 5943 0126 5B7E     		ldrb	r3, [r3, #25]	@ zero_extendqisi2
 5944 0128 1946     		mov	r1, r3
 5945 012a 1046     		mov	r0, r2
 5946 012c FFF7FEFF 		bl	QX_AddExtdValToBuf
 5947 0130 05E0     		b	.L506
 5948              	.L505:
 504:..\..\..\HamFlyAPI\src/hamfly_qx_protocol.c ****     } else {
 505:..\..\..\HamFlyAPI\src/hamfly_qx_protocol.c ****         Msg_p->Header.Source_Addr = QX_DEV_ID_BROADCAST;
 5949              		.loc 1 505 0
 5950 0132 7B68     		ldr	r3, [r7, #4]
 5951 0134 0022     		movs	r2, #0
 5952 0136 1A76     		strb	r2, [r3, #24]
 506:..\..\..\HamFlyAPI\src/hamfly_qx_protocol.c ****         Msg_p->Header.Target_Addr = QX_DEV_ID_BROADCAST;
 5953              		.loc 1 506 0
 5954 0138 7B68     		ldr	r3, [r7, #4]
 5955 013a 0022     		movs	r2, #0
 5956 013c 5A76     		strb	r2, [r3, #25]
 5957              	.L506:
 507:..\..\..\HamFlyAPI\src/hamfly_qx_protocol.c ****     }
 508:..\..\..\HamFlyAPI\src/hamfly_qx_protocol.c **** 
 509:..\..\..\HamFlyAPI\src/hamfly_qx_protocol.c ****     if (Msg_p->Header.Remove_Req_Fields == 0) {
 5958              		.loc 1 509 0
 5959 013e 7B68     		ldr	r3, [r7, #4]
 5960 0140 DB7D     		ldrb	r3, [r3, #23]	@ zero_extendqisi2
 5961 0142 002B     		cmp	r3, #0
 5962 0144 12D1     		bne	.L507
 510:..\..\..\HamFlyAPI\src/hamfly_qx_protocol.c ****         QX_AddExtdValToBuf(&Msg_p->MsgBuf_p, Msg_p->Header.TransReq_Addr);
 5963              		.loc 1 510 0
 5964 0146 7B68     		ldr	r3, [r7, #4]
 5965 0148 03F17002 		add	r2, r3, #112
 5966 014c 7B68     		ldr	r3, [r7, #4]
 5967 014e 9B7E     		ldrb	r3, [r3, #26]	@ zero_extendqisi2
 5968 0150 1946     		mov	r1, r3
 5969 0152 1046     		mov	r0, r2
 5970 0154 FFF7FEFF 		bl	QX_AddExtdValToBuf
 511:..\..\..\HamFlyAPI\src/hamfly_qx_protocol.c ****         QX_AddExtdValToBuf(&Msg_p->MsgBuf_p, Msg_p->Header.RespReq_Addr);
 5971              		.loc 1 511 0
 5972 0158 7B68     		ldr	r3, [r7, #4]
 5973 015a 03F17002 		add	r2, r3, #112
 5974 015e 7B68     		ldr	r3, [r7, #4]
 5975 0160 DB7E     		ldrb	r3, [r3, #27]	@ zero_extendqisi2
 5976 0162 1946     		mov	r1, r3
 5977 0164 1046     		mov	r0, r2
 5978 0166 FFF7FEFF 		bl	QX_AddExtdValToBuf
 5979 016a 05E0     		b	.L508
 5980              	.L507:
 512:..\..\..\HamFlyAPI\src/hamfly_qx_protocol.c ****     } else {
 513:..\..\..\HamFlyAPI\src/hamfly_qx_protocol.c ****         Msg_p->Header.TransReq_Addr = QX_DEV_ID_BROADCAST;
 5981              		.loc 1 513 0
ARM GAS  C:\Users\JENNEW~1\AppData\Local\Temp\ccQ5uJSg.s 			page 117


 5982 016c 7B68     		ldr	r3, [r7, #4]
 5983 016e 0022     		movs	r2, #0
 5984 0170 9A76     		strb	r2, [r3, #26]
 514:..\..\..\HamFlyAPI\src/hamfly_qx_protocol.c ****         Msg_p->Header.RespReq_Addr  = QX_DEV_ID_BROADCAST;
 5985              		.loc 1 514 0
 5986 0172 7B68     		ldr	r3, [r7, #4]
 5987 0174 0022     		movs	r2, #0
 5988 0176 DA76     		strb	r2, [r3, #27]
 5989              	.L508:
 515:..\..\..\HamFlyAPI\src/hamfly_qx_protocol.c ****     }
 516:..\..\..\HamFlyAPI\src/hamfly_qx_protocol.c **** 
 517:..\..\..\HamFlyAPI\src/hamfly_qx_protocol.c ****     Msg_p->BufPayloadStart_p = Msg_p->MsgBuf_p;
 5990              		.loc 1 517 0
 5991 0178 7B68     		ldr	r3, [r7, #4]
 5992 017a 1A6F     		ldr	r2, [r3, #112]
 5993 017c 7B68     		ldr	r3, [r7, #4]
 5994 017e DA66     		str	r2, [r3, #108]
 518:..\..\..\HamFlyAPI\src/hamfly_qx_protocol.c **** }
 5995              		.loc 1 518 0
 5996 0180 00BF     		nop
 5997 0182 1037     		adds	r7, r7, #16
 5998              		.cfi_def_cfa_offset 8
 5999 0184 BD46     		mov	sp, r7
 6000              		.cfi_def_cfa_register 13
 6001              		@ sp needed
 6002 0186 80BD     		pop	{r7, pc}
 6003              		.cfi_endproc
 6004              	.LFE48:
 6005              		.size	QX_BuildHeader, .-QX_BuildHeader
 6006              		.section	.text.QX_ParseHeader,"ax",%progbits
 6007              		.align	2
 6008              		.thumb
 6009              		.thumb_func
 6010              		.type	QX_ParseHeader, %function
 6011              	QX_ParseHeader:
 6012              	.LFB49:
 519:..\..\..\HamFlyAPI\src/hamfly_qx_protocol.c **** 
 520:..\..\..\HamFlyAPI\src/hamfly_qx_protocol.c **** static void QX_ParseHeader(QX_Msg_t *Msg_p)
 521:..\..\..\HamFlyAPI\src/hamfly_qx_protocol.c **** {
 6013              		.loc 1 521 0
 6014              		.cfi_startproc
 6015              		@ args = 0, pretend = 0, frame = 16
 6016              		@ frame_needed = 1, uses_anonymous_args = 0
 6017 0000 80B5     		push	{r7, lr}
 6018              		.cfi_def_cfa_offset 8
 6019              		.cfi_offset 7, -8
 6020              		.cfi_offset 14, -4
 6021 0002 84B0     		sub	sp, sp, #16
 6022              		.cfi_def_cfa_offset 24
 6023 0004 00AF     		add	r7, sp, #0
 6024              		.cfi_def_cfa_register 7
 6025 0006 7860     		str	r0, [r7, #4]
 522:..\..\..\HamFlyAPI\src/hamfly_qx_protocol.c ****     volatile uint8_t OptionByte;
 523:..\..\..\HamFlyAPI\src/hamfly_qx_protocol.c ****     Msg_p->MsgBuf_p = Msg_p->MsgBufAtt_p;
 6026              		.loc 1 523 0
 6027 0008 7B68     		ldr	r3, [r7, #4]
 6028 000a 9A6E     		ldr	r2, [r3, #104]
ARM GAS  C:\Users\JENNEW~1\AppData\Local\Temp\ccQ5uJSg.s 			page 118


 6029 000c 7B68     		ldr	r3, [r7, #4]
 6030 000e 1A67     		str	r2, [r3, #112]
 524:..\..\..\HamFlyAPI\src/hamfly_qx_protocol.c **** 
 525:..\..\..\HamFlyAPI\src/hamfly_qx_protocol.c ****     Msg_p->Header.Attrib = QX_GetExtdValFromBuf(&Msg_p->MsgBuf_p);
 6031              		.loc 1 525 0
 6032 0010 7B68     		ldr	r3, [r7, #4]
 6033 0012 7033     		adds	r3, r3, #112
 6034 0014 1846     		mov	r0, r3
 6035 0016 FFF7FEFF 		bl	QX_GetExtdValFromBuf
 6036 001a 0246     		mov	r2, r0
 6037 001c 7B68     		ldr	r3, [r7, #4]
 6038 001e DA60     		str	r2, [r3, #12]
 526:..\..\..\HamFlyAPI\src/hamfly_qx_protocol.c **** 
 527:..\..\..\HamFlyAPI\src/hamfly_qx_protocol.c ****     OptionByte = *Msg_p->MsgBuf_p++;
 6039              		.loc 1 527 0
 6040 0020 7B68     		ldr	r3, [r7, #4]
 6041 0022 1B6F     		ldr	r3, [r3, #112]
 6042 0024 591C     		adds	r1, r3, #1
 6043 0026 7A68     		ldr	r2, [r7, #4]
 6044 0028 1167     		str	r1, [r2, #112]
 6045 002a 1B78     		ldrb	r3, [r3]	@ zero_extendqisi2
 6046 002c FB73     		strb	r3, [r7, #15]
 528:..\..\..\HamFlyAPI\src/hamfly_qx_protocol.c ****     Msg_p->Header.Type               = (QX_Msg_Type_e)(OptionByte & 0xF);
 6047              		.loc 1 528 0
 6048 002e FB7B     		ldrb	r3, [r7, #15]
 6049 0030 DBB2     		uxtb	r3, r3
 6050 0032 03F00F03 		and	r3, r3, #15
 6051 0036 DAB2     		uxtb	r2, r3
 6052 0038 7B68     		ldr	r3, [r7, #4]
 6053 003a 1A74     		strb	r2, [r3, #16]
 529:..\..\..\HamFlyAPI\src/hamfly_qx_protocol.c ****     Msg_p->Header.FF_Ext             = (OptionByte >> 4) & 0x1;
 6054              		.loc 1 529 0
 6055 003c FB7B     		ldrb	r3, [r7, #15]
 6056 003e DBB2     		uxtb	r3, r3
 6057 0040 1B09     		lsrs	r3, r3, #4
 6058 0042 DBB2     		uxtb	r3, r3
 6059 0044 03F00103 		and	r3, r3, #1
 6060 0048 DAB2     		uxtb	r2, r3
 6061 004a 7B68     		ldr	r3, [r7, #4]
 6062 004c DA74     		strb	r2, [r3, #19]
 530:..\..\..\HamFlyAPI\src/hamfly_qx_protocol.c ****     Msg_p->Header.Remove_Req_Fields  = (OptionByte >> 5) & 0x1;
 6063              		.loc 1 530 0
 6064 004e FB7B     		ldrb	r3, [r7, #15]
 6065 0050 DBB2     		uxtb	r3, r3
 6066 0052 5B09     		lsrs	r3, r3, #5
 6067 0054 DBB2     		uxtb	r3, r3
 6068 0056 03F00103 		and	r3, r3, #1
 6069 005a DAB2     		uxtb	r2, r3
 6070 005c 7B68     		ldr	r3, [r7, #4]
 6071 005e DA75     		strb	r2, [r3, #23]
 531:..\..\..\HamFlyAPI\src/hamfly_qx_protocol.c ****     Msg_p->Header.Remove_Addr_Fields = (OptionByte >> 6) & 0x1;
 6072              		.loc 1 531 0
 6073 0060 FB7B     		ldrb	r3, [r7, #15]
 6074 0062 DBB2     		uxtb	r3, r3
 6075 0064 9B09     		lsrs	r3, r3, #6
 6076 0066 DBB2     		uxtb	r3, r3
 6077 0068 03F00103 		and	r3, r3, #1
ARM GAS  C:\Users\JENNEW~1\AppData\Local\Temp\ccQ5uJSg.s 			page 119


 6078 006c DAB2     		uxtb	r2, r3
 6079 006e 7B68     		ldr	r3, [r7, #4]
 6080 0070 9A75     		strb	r2, [r3, #22]
 532:..\..\..\HamFlyAPI\src/hamfly_qx_protocol.c ****     Msg_p->Header.AddOptionByte1     = (OptionByte >> 7) & 0x1;
 6081              		.loc 1 532 0
 6082 0072 FB7B     		ldrb	r3, [r7, #15]
 6083 0074 DBB2     		uxtb	r3, r3
 6084 0076 DB09     		lsrs	r3, r3, #7
 6085 0078 DAB2     		uxtb	r2, r3
 6086 007a 7B68     		ldr	r3, [r7, #4]
 6087 007c 5A74     		strb	r2, [r3, #17]
 533:..\..\..\HamFlyAPI\src/hamfly_qx_protocol.c **** 
 534:..\..\..\HamFlyAPI\src/hamfly_qx_protocol.c ****     if (Msg_p->Header.AddOptionByte1) {
 6088              		.loc 1 534 0
 6089 007e 7B68     		ldr	r3, [r7, #4]
 6090 0080 5B7C     		ldrb	r3, [r3, #17]	@ zero_extendqisi2
 6091 0082 002B     		cmp	r3, #0
 6092 0084 0DD0     		beq	.L510
 535:..\..\..\HamFlyAPI\src/hamfly_qx_protocol.c ****         OptionByte = *Msg_p->MsgBuf_p++;
 6093              		.loc 1 535 0
 6094 0086 7B68     		ldr	r3, [r7, #4]
 6095 0088 1B6F     		ldr	r3, [r3, #112]
 6096 008a 591C     		adds	r1, r3, #1
 6097 008c 7A68     		ldr	r2, [r7, #4]
 6098 008e 1167     		str	r1, [r2, #112]
 6099 0090 1B78     		ldrb	r3, [r3]	@ zero_extendqisi2
 6100 0092 FB73     		strb	r3, [r7, #15]
 536:..\..\..\HamFlyAPI\src/hamfly_qx_protocol.c ****         Msg_p->Header.AddCRC32 = (OptionByte >> 0) & 0x1;
 6101              		.loc 1 536 0
 6102 0094 FB7B     		ldrb	r3, [r7, #15]
 6103 0096 DBB2     		uxtb	r3, r3
 6104 0098 03F00103 		and	r3, r3, #1
 6105 009c DAB2     		uxtb	r2, r3
 6106 009e 7B68     		ldr	r3, [r7, #4]
 6107 00a0 9A74     		strb	r2, [r3, #18]
 6108              	.L510:
 537:..\..\..\HamFlyAPI\src/hamfly_qx_protocol.c ****     }
 538:..\..\..\HamFlyAPI\src/hamfly_qx_protocol.c **** 
 539:..\..\..\HamFlyAPI\src/hamfly_qx_protocol.c ****     if (Msg_p->Header.Remove_Addr_Fields == 0) {
 6109              		.loc 1 539 0
 6110 00a2 7B68     		ldr	r3, [r7, #4]
 6111 00a4 9B7D     		ldrb	r3, [r3, #22]	@ zero_extendqisi2
 6112 00a6 002B     		cmp	r3, #0
 6113 00a8 11D1     		bne	.L511
 540:..\..\..\HamFlyAPI\src/hamfly_qx_protocol.c ****         Msg_p->Header.Source_Addr = (QX_DevId_e)(QX_GetExtdValFromBuf(&Msg_p->MsgBuf_p));
 6114              		.loc 1 540 0
 6115 00aa 7B68     		ldr	r3, [r7, #4]
 6116 00ac 7033     		adds	r3, r3, #112
 6117 00ae 1846     		mov	r0, r3
 6118 00b0 FFF7FEFF 		bl	QX_GetExtdValFromBuf
 6119 00b4 0346     		mov	r3, r0
 6120 00b6 DAB2     		uxtb	r2, r3
 6121 00b8 7B68     		ldr	r3, [r7, #4]
 6122 00ba 1A76     		strb	r2, [r3, #24]
 541:..\..\..\HamFlyAPI\src/hamfly_qx_protocol.c ****         Msg_p->Header.Target_Addr = (QX_DevId_e)(QX_GetExtdValFromBuf(&Msg_p->MsgBuf_p));
 6123              		.loc 1 541 0
 6124 00bc 7B68     		ldr	r3, [r7, #4]
ARM GAS  C:\Users\JENNEW~1\AppData\Local\Temp\ccQ5uJSg.s 			page 120


 6125 00be 7033     		adds	r3, r3, #112
 6126 00c0 1846     		mov	r0, r3
 6127 00c2 FFF7FEFF 		bl	QX_GetExtdValFromBuf
 6128 00c6 0346     		mov	r3, r0
 6129 00c8 DAB2     		uxtb	r2, r3
 6130 00ca 7B68     		ldr	r3, [r7, #4]
 6131 00cc 5A76     		strb	r2, [r3, #25]
 6132              	.L511:
 542:..\..\..\HamFlyAPI\src/hamfly_qx_protocol.c ****     }
 543:..\..\..\HamFlyAPI\src/hamfly_qx_protocol.c **** 
 544:..\..\..\HamFlyAPI\src/hamfly_qx_protocol.c ****     if (Msg_p->Header.Remove_Req_Fields == 0) {
 6133              		.loc 1 544 0
 6134 00ce 7B68     		ldr	r3, [r7, #4]
 6135 00d0 DB7D     		ldrb	r3, [r3, #23]	@ zero_extendqisi2
 6136 00d2 002B     		cmp	r3, #0
 6137 00d4 11D1     		bne	.L512
 545:..\..\..\HamFlyAPI\src/hamfly_qx_protocol.c ****         Msg_p->Header.TransReq_Addr = (QX_DevId_e)(QX_GetExtdValFromBuf(&Msg_p->MsgBuf_p));
 6138              		.loc 1 545 0
 6139 00d6 7B68     		ldr	r3, [r7, #4]
 6140 00d8 7033     		adds	r3, r3, #112
 6141 00da 1846     		mov	r0, r3
 6142 00dc FFF7FEFF 		bl	QX_GetExtdValFromBuf
 6143 00e0 0346     		mov	r3, r0
 6144 00e2 DAB2     		uxtb	r2, r3
 6145 00e4 7B68     		ldr	r3, [r7, #4]
 6146 00e6 9A76     		strb	r2, [r3, #26]
 546:..\..\..\HamFlyAPI\src/hamfly_qx_protocol.c ****         Msg_p->Header.RespReq_Addr  = (QX_DevId_e)(QX_GetExtdValFromBuf(&Msg_p->MsgBuf_p));
 6147              		.loc 1 546 0
 6148 00e8 7B68     		ldr	r3, [r7, #4]
 6149 00ea 7033     		adds	r3, r3, #112
 6150 00ec 1846     		mov	r0, r3
 6151 00ee FFF7FEFF 		bl	QX_GetExtdValFromBuf
 6152 00f2 0346     		mov	r3, r0
 6153 00f4 DAB2     		uxtb	r2, r3
 6154 00f6 7B68     		ldr	r3, [r7, #4]
 6155 00f8 DA76     		strb	r2, [r3, #27]
 6156              	.L512:
 547:..\..\..\HamFlyAPI\src/hamfly_qx_protocol.c ****     }
 548:..\..\..\HamFlyAPI\src/hamfly_qx_protocol.c **** 
 549:..\..\..\HamFlyAPI\src/hamfly_qx_protocol.c ****     if (Msg_p->Header.FF_Ext) Msg_p->MsgBuf_p += 2;
 6157              		.loc 1 549 0
 6158 00fa 7B68     		ldr	r3, [r7, #4]
 6159 00fc DB7C     		ldrb	r3, [r3, #19]	@ zero_extendqisi2
 6160 00fe 002B     		cmp	r3, #0
 6161 0100 04D0     		beq	.L514
 6162              		.loc 1 549 0 is_stmt 0 discriminator 1
 6163 0102 7B68     		ldr	r3, [r7, #4]
 6164 0104 1B6F     		ldr	r3, [r3, #112]
 6165 0106 9A1C     		adds	r2, r3, #2
 6166 0108 7B68     		ldr	r3, [r7, #4]
 6167 010a 1A67     		str	r2, [r3, #112]
 6168              	.L514:
 550:..\..\..\HamFlyAPI\src/hamfly_qx_protocol.c **** }
 6169              		.loc 1 550 0 is_stmt 1
 6170 010c 00BF     		nop
 6171 010e 1037     		adds	r7, r7, #16
 6172              		.cfi_def_cfa_offset 8
ARM GAS  C:\Users\JENNEW~1\AppData\Local\Temp\ccQ5uJSg.s 			page 121


 6173 0110 BD46     		mov	sp, r7
 6174              		.cfi_def_cfa_register 13
 6175              		@ sp needed
 6176 0112 80BD     		pop	{r7, pc}
 6177              		.cfi_endproc
 6178              	.LFE49:
 6179              		.size	QX_ParseHeader, .-QX_ParseHeader
 6180              		.section	.text.QX_Calc8bChecksum,"ax",%progbits
 6181              		.align	2
 6182              		.thumb
 6183              		.thumb_func
 6184              		.type	QX_Calc8bChecksum, %function
 6185              	QX_Calc8bChecksum:
 6186              	.LFB50:
 551:..\..\..\HamFlyAPI\src/hamfly_qx_protocol.c **** 
 552:..\..\..\HamFlyAPI\src/hamfly_qx_protocol.c **** static uint8_t QX_Calc8bChecksum(uint8_t *buf_p, uint32_t len)
 553:..\..\..\HamFlyAPI\src/hamfly_qx_protocol.c **** {
 6187              		.loc 1 553 0
 6188              		.cfi_startproc
 6189              		@ args = 0, pretend = 0, frame = 16
 6190              		@ frame_needed = 1, uses_anonymous_args = 0
 6191              		@ link register save eliminated.
 6192 0000 80B4     		push	{r7}
 6193              		.cfi_def_cfa_offset 4
 6194              		.cfi_offset 7, -4
 6195 0002 85B0     		sub	sp, sp, #20
 6196              		.cfi_def_cfa_offset 24
 6197 0004 00AF     		add	r7, sp, #0
 6198              		.cfi_def_cfa_register 7
 6199 0006 7860     		str	r0, [r7, #4]
 6200 0008 3960     		str	r1, [r7]
 554:..\..\..\HamFlyAPI\src/hamfly_qx_protocol.c ****     uint32_t j;
 555:..\..\..\HamFlyAPI\src/hamfly_qx_protocol.c ****     uint8_t checksum = 0;
 6201              		.loc 1 555 0
 6202 000a 0023     		movs	r3, #0
 6203 000c FB72     		strb	r3, [r7, #11]
 556:..\..\..\HamFlyAPI\src/hamfly_qx_protocol.c ****     for (j = 0; j < len; j++) checksum += *buf_p++;
 6204              		.loc 1 556 0
 6205 000e 0023     		movs	r3, #0
 6206 0010 FB60     		str	r3, [r7, #12]
 6207 0012 09E0     		b	.L516
 6208              	.L517:
 6209              		.loc 1 556 0 is_stmt 0 discriminator 3
 6210 0014 7B68     		ldr	r3, [r7, #4]
 6211 0016 5A1C     		adds	r2, r3, #1
 6212 0018 7A60     		str	r2, [r7, #4]
 6213 001a 1A78     		ldrb	r2, [r3]	@ zero_extendqisi2
 6214 001c FB7A     		ldrb	r3, [r7, #11]
 6215 001e 1344     		add	r3, r3, r2
 6216 0020 FB72     		strb	r3, [r7, #11]
 6217 0022 FB68     		ldr	r3, [r7, #12]
 6218 0024 0133     		adds	r3, r3, #1
 6219 0026 FB60     		str	r3, [r7, #12]
 6220              	.L516:
 6221              		.loc 1 556 0 discriminator 1
 6222 0028 FA68     		ldr	r2, [r7, #12]
 6223 002a 3B68     		ldr	r3, [r7]
ARM GAS  C:\Users\JENNEW~1\AppData\Local\Temp\ccQ5uJSg.s 			page 122


 6224 002c 9A42     		cmp	r2, r3
 6225 002e F1D3     		bcc	.L517
 557:..\..\..\HamFlyAPI\src/hamfly_qx_protocol.c ****     return checksum;
 6226              		.loc 1 557 0 is_stmt 1
 6227 0030 FB7A     		ldrb	r3, [r7, #11]	@ zero_extendqisi2
 558:..\..\..\HamFlyAPI\src/hamfly_qx_protocol.c **** }
 6228              		.loc 1 558 0
 6229 0032 1846     		mov	r0, r3
 6230 0034 1437     		adds	r7, r7, #20
 6231              		.cfi_def_cfa_offset 4
 6232 0036 BD46     		mov	sp, r7
 6233              		.cfi_def_cfa_register 13
 6234              		@ sp needed
 6235 0038 80BC     		pop	{r7}
 6236              		.cfi_restore 7
 6237              		.cfi_def_cfa_offset 0
 6238 003a 7047     		bx	lr
 6239              		.cfi_endproc
 6240              	.LFE50:
 6241              		.size	QX_Calc8bChecksum, .-QX_Calc8bChecksum
 6242              		.section	.text.QX_AddExtdValToBuf,"ax",%progbits
 6243              		.align	2
 6244              		.thumb
 6245              		.thumb_func
 6246              		.type	QX_AddExtdValToBuf, %function
 6247              	QX_AddExtdValToBuf:
 6248              	.LFB51:
 559:..\..\..\HamFlyAPI\src/hamfly_qx_protocol.c **** 
 560:..\..\..\HamFlyAPI\src/hamfly_qx_protocol.c **** static void QX_AddExtdValToBuf(uint8_t **p, uint32_t Val)
 561:..\..\..\HamFlyAPI\src/hamfly_qx_protocol.c **** {
 6249              		.loc 1 561 0
 6250              		.cfi_startproc
 6251              		@ args = 0, pretend = 0, frame = 16
 6252              		@ frame_needed = 1, uses_anonymous_args = 0
 6253              		@ link register save eliminated.
 6254 0000 80B4     		push	{r7}
 6255              		.cfi_def_cfa_offset 4
 6256              		.cfi_offset 7, -4
 6257 0002 85B0     		sub	sp, sp, #20
 6258              		.cfi_def_cfa_offset 24
 6259 0004 00AF     		add	r7, sp, #0
 6260              		.cfi_def_cfa_register 7
 6261 0006 7860     		str	r0, [r7, #4]
 6262 0008 3960     		str	r1, [r7]
 562:..\..\..\HamFlyAPI\src/hamfly_qx_protocol.c ****     int n;
 563:..\..\..\HamFlyAPI\src/hamfly_qx_protocol.c ****     for (n = 0; n < 4; n++) {
 6263              		.loc 1 563 0
 6264 000a 0023     		movs	r3, #0
 6265 000c FB60     		str	r3, [r7, #12]
 6266 000e 33E0     		b	.L520
 6267              	.L524:
 6268              	.LBB50:
 564:..\..\..\HamFlyAPI\src/hamfly_qx_protocol.c ****         uint8_t this_chunk = (uint8_t)((Val >> (7*n)) & 0x7F);
 6269              		.loc 1 564 0
 6270 0010 FA68     		ldr	r2, [r7, #12]
 6271 0012 1346     		mov	r3, r2
 6272 0014 DB00     		lsls	r3, r3, #3
ARM GAS  C:\Users\JENNEW~1\AppData\Local\Temp\ccQ5uJSg.s 			page 123


 6273 0016 9B1A     		subs	r3, r3, r2
 6274 0018 3A68     		ldr	r2, [r7]
 6275 001a 22FA03F3 		lsr	r3, r2, r3
 6276 001e DBB2     		uxtb	r3, r3
 6277 0020 03F07F03 		and	r3, r3, #127
 6278 0024 FB72     		strb	r3, [r7, #11]
 565:..\..\..\HamFlyAPI\src/hamfly_qx_protocol.c ****         uint8_t next_chunk = (uint8_t)((Val >> (7*(n+1))) & 0x7F);
 6279              		.loc 1 565 0
 6280 0026 FB68     		ldr	r3, [r7, #12]
 6281 0028 5A1C     		adds	r2, r3, #1
 6282 002a 1346     		mov	r3, r2
 6283 002c DB00     		lsls	r3, r3, #3
 6284 002e 9B1A     		subs	r3, r3, r2
 6285 0030 3A68     		ldr	r2, [r7]
 6286 0032 22FA03F3 		lsr	r3, r2, r3
 6287 0036 DBB2     		uxtb	r3, r3
 6288 0038 03F07F03 		and	r3, r3, #127
 6289 003c BB72     		strb	r3, [r7, #10]
 566:..\..\..\HamFlyAPI\src/hamfly_qx_protocol.c ****         if (next_chunk > 0) { **p = this_chunk | 0x80; (*p)++; }
 6290              		.loc 1 566 0
 6291 003e BB7A     		ldrb	r3, [r7, #10]	@ zero_extendqisi2
 6292 0040 002B     		cmp	r3, #0
 6293 0042 0CD0     		beq	.L521
 6294              		.loc 1 566 0 is_stmt 0 discriminator 1
 6295 0044 7B68     		ldr	r3, [r7, #4]
 6296 0046 1B68     		ldr	r3, [r3]
 6297 0048 FA7A     		ldrb	r2, [r7, #11]
 6298 004a 62F07F02 		orn	r2, r2, #127
 6299 004e D2B2     		uxtb	r2, r2
 6300 0050 1A70     		strb	r2, [r3]
 6301 0052 7B68     		ldr	r3, [r7, #4]
 6302 0054 1B68     		ldr	r3, [r3]
 6303 0056 5A1C     		adds	r2, r3, #1
 6304 0058 7B68     		ldr	r3, [r7, #4]
 6305 005a 1A60     		str	r2, [r3]
 6306 005c 09E0     		b	.L525
 6307              	.L521:
 567:..\..\..\HamFlyAPI\src/hamfly_qx_protocol.c ****         else                { **p = this_chunk;         (*p)++; break; }
 6308              		.loc 1 567 0 is_stmt 1
 6309 005e 7B68     		ldr	r3, [r7, #4]
 6310 0060 1B68     		ldr	r3, [r3]
 6311 0062 FA7A     		ldrb	r2, [r7, #11]
 6312 0064 1A70     		strb	r2, [r3]
 6313 0066 7B68     		ldr	r3, [r7, #4]
 6314 0068 1B68     		ldr	r3, [r3]
 6315 006a 5A1C     		adds	r2, r3, #1
 6316 006c 7B68     		ldr	r3, [r7, #4]
 6317 006e 1A60     		str	r2, [r3]
 6318 0070 05E0     		b	.L523
 6319              	.L525:
 6320              	.LBE50:
 563:..\..\..\HamFlyAPI\src/hamfly_qx_protocol.c ****         uint8_t this_chunk = (uint8_t)((Val >> (7*n)) & 0x7F);
 6321              		.loc 1 563 0 discriminator 2
 6322 0072 FB68     		ldr	r3, [r7, #12]
 6323 0074 0133     		adds	r3, r3, #1
 6324 0076 FB60     		str	r3, [r7, #12]
 6325              	.L520:
ARM GAS  C:\Users\JENNEW~1\AppData\Local\Temp\ccQ5uJSg.s 			page 124


 563:..\..\..\HamFlyAPI\src/hamfly_qx_protocol.c ****         uint8_t this_chunk = (uint8_t)((Val >> (7*n)) & 0x7F);
 6326              		.loc 1 563 0 is_stmt 0 discriminator 1
 6327 0078 FB68     		ldr	r3, [r7, #12]
 6328 007a 032B     		cmp	r3, #3
 6329 007c C8DD     		ble	.L524
 6330              	.L523:
 568:..\..\..\HamFlyAPI\src/hamfly_qx_protocol.c ****     }
 569:..\..\..\HamFlyAPI\src/hamfly_qx_protocol.c **** }
 6331              		.loc 1 569 0 is_stmt 1
 6332 007e 00BF     		nop
 6333 0080 1437     		adds	r7, r7, #20
 6334              		.cfi_def_cfa_offset 4
 6335 0082 BD46     		mov	sp, r7
 6336              		.cfi_def_cfa_register 13
 6337              		@ sp needed
 6338 0084 80BC     		pop	{r7}
 6339              		.cfi_restore 7
 6340              		.cfi_def_cfa_offset 0
 6341 0086 7047     		bx	lr
 6342              		.cfi_endproc
 6343              	.LFE51:
 6344              		.size	QX_AddExtdValToBuf, .-QX_AddExtdValToBuf
 6345              		.section	.text.QX_GetExtdValFromBuf,"ax",%progbits
 6346              		.align	2
 6347              		.thumb
 6348              		.thumb_func
 6349              		.type	QX_GetExtdValFromBuf, %function
 6350              	QX_GetExtdValFromBuf:
 6351              	.LFB52:
 570:..\..\..\HamFlyAPI\src/hamfly_qx_protocol.c **** 
 571:..\..\..\HamFlyAPI\src/hamfly_qx_protocol.c **** static uint32_t QX_GetExtdValFromBuf(uint8_t **p)
 572:..\..\..\HamFlyAPI\src/hamfly_qx_protocol.c **** {
 6352              		.loc 1 572 0
 6353              		.cfi_startproc
 6354              		@ args = 0, pretend = 0, frame = 16
 6355              		@ frame_needed = 1, uses_anonymous_args = 0
 6356              		@ link register save eliminated.
 6357 0000 80B4     		push	{r7}
 6358              		.cfi_def_cfa_offset 4
 6359              		.cfi_offset 7, -4
 6360 0002 85B0     		sub	sp, sp, #20
 6361              		.cfi_def_cfa_offset 24
 6362 0004 00AF     		add	r7, sp, #0
 6363              		.cfi_def_cfa_register 7
 6364 0006 7860     		str	r0, [r7, #4]
 573:..\..\..\HamFlyAPI\src/hamfly_qx_protocol.c ****     uint32_t Val = 0;
 6365              		.loc 1 573 0
 6366 0008 0023     		movs	r3, #0
 6367 000a FB60     		str	r3, [r7, #12]
 574:..\..\..\HamFlyAPI\src/hamfly_qx_protocol.c ****     int n;
 575:..\..\..\HamFlyAPI\src/hamfly_qx_protocol.c ****     for (n = 0; n < 4; n++) {
 6368              		.loc 1 575 0
 6369 000c 0023     		movs	r3, #0
 6370 000e BB60     		str	r3, [r7, #8]
 6371 0010 22E0     		b	.L527
 6372              	.L531:
 576:..\..\..\HamFlyAPI\src/hamfly_qx_protocol.c ****         Val = (((uint32_t)(**p & 0x7F)) << (7*n)) | Val;
ARM GAS  C:\Users\JENNEW~1\AppData\Local\Temp\ccQ5uJSg.s 			page 125


 6373              		.loc 1 576 0
 6374 0012 7B68     		ldr	r3, [r7, #4]
 6375 0014 1B68     		ldr	r3, [r3]
 6376 0016 1B78     		ldrb	r3, [r3]	@ zero_extendqisi2
 6377 0018 03F07F01 		and	r1, r3, #127
 6378 001c BA68     		ldr	r2, [r7, #8]
 6379 001e 1346     		mov	r3, r2
 6380 0020 DB00     		lsls	r3, r3, #3
 6381 0022 9B1A     		subs	r3, r3, r2
 6382 0024 01FA03F3 		lsl	r3, r1, r3
 6383 0028 FA68     		ldr	r2, [r7, #12]
 6384 002a 1343     		orrs	r3, r3, r2
 6385 002c FB60     		str	r3, [r7, #12]
 577:..\..\..\HamFlyAPI\src/hamfly_qx_protocol.c ****         if (**p & 0x80) (*p)++;
 6386              		.loc 1 577 0
 6387 002e 7B68     		ldr	r3, [r7, #4]
 6388 0030 1B68     		ldr	r3, [r3]
 6389 0032 1B78     		ldrb	r3, [r3]	@ zero_extendqisi2
 6390 0034 5BB2     		sxtb	r3, r3
 6391 0036 002B     		cmp	r3, #0
 6392 0038 05DA     		bge	.L528
 6393              		.loc 1 577 0 is_stmt 0 discriminator 1
 6394 003a 7B68     		ldr	r3, [r7, #4]
 6395 003c 1B68     		ldr	r3, [r3]
 6396 003e 5A1C     		adds	r2, r3, #1
 6397 0040 7B68     		ldr	r3, [r7, #4]
 6398 0042 1A60     		str	r2, [r3]
 6399 0044 05E0     		b	.L533
 6400              	.L528:
 578:..\..\..\HamFlyAPI\src/hamfly_qx_protocol.c ****         else            { (*p)++; break; }
 6401              		.loc 1 578 0 is_stmt 1
 6402 0046 7B68     		ldr	r3, [r7, #4]
 6403 0048 1B68     		ldr	r3, [r3]
 6404 004a 5A1C     		adds	r2, r3, #1
 6405 004c 7B68     		ldr	r3, [r7, #4]
 6406 004e 1A60     		str	r2, [r3]
 6407 0050 05E0     		b	.L530
 6408              	.L533:
 575:..\..\..\HamFlyAPI\src/hamfly_qx_protocol.c ****         Val = (((uint32_t)(**p & 0x7F)) << (7*n)) | Val;
 6409              		.loc 1 575 0 discriminator 2
 6410 0052 BB68     		ldr	r3, [r7, #8]
 6411 0054 0133     		adds	r3, r3, #1
 6412 0056 BB60     		str	r3, [r7, #8]
 6413              	.L527:
 575:..\..\..\HamFlyAPI\src/hamfly_qx_protocol.c ****         Val = (((uint32_t)(**p & 0x7F)) << (7*n)) | Val;
 6414              		.loc 1 575 0 is_stmt 0 discriminator 1
 6415 0058 BB68     		ldr	r3, [r7, #8]
 6416 005a 032B     		cmp	r3, #3
 6417 005c D9DD     		ble	.L531
 6418              	.L530:
 579:..\..\..\HamFlyAPI\src/hamfly_qx_protocol.c ****     }
 580:..\..\..\HamFlyAPI\src/hamfly_qx_protocol.c ****     return Val;
 6419              		.loc 1 580 0 is_stmt 1
 6420 005e FB68     		ldr	r3, [r7, #12]
 581:..\..\..\HamFlyAPI\src/hamfly_qx_protocol.c **** }
 6421              		.loc 1 581 0
 6422 0060 1846     		mov	r0, r3
ARM GAS  C:\Users\JENNEW~1\AppData\Local\Temp\ccQ5uJSg.s 			page 126


 6423 0062 1437     		adds	r7, r7, #20
 6424              		.cfi_def_cfa_offset 4
 6425 0064 BD46     		mov	sp, r7
 6426              		.cfi_def_cfa_register 13
 6427              		@ sp needed
 6428 0066 80BC     		pop	{r7}
 6429              		.cfi_restore 7
 6430              		.cfi_def_cfa_offset 0
 6431 0068 7047     		bx	lr
 6432              		.cfi_endproc
 6433              	.LFE52:
 6434              		.size	QX_GetExtdValFromBuf, .-QX_GetExtdValFromBuf
 6435 006a 00BF     		.section	.text.QX_compute_crc32,"ax",%progbits
 6436              		.align	2
 6437              		.thumb
 6438              		.thumb_func
 6439              		.type	QX_compute_crc32, %function
 6440              	QX_compute_crc32:
 6441              	.LFB53:
 582:..\..\..\HamFlyAPI\src/hamfly_qx_protocol.c **** 
 583:..\..\..\HamFlyAPI\src/hamfly_qx_protocol.c **** static uint32_t QX_compute_crc32(uint8_t data)
 584:..\..\..\HamFlyAPI\src/hamfly_qx_protocol.c **** {
 6442              		.loc 1 584 0
 6443              		.cfi_startproc
 6444              		@ args = 0, pretend = 0, frame = 16
 6445              		@ frame_needed = 1, uses_anonymous_args = 0
 6446              		@ link register save eliminated.
 6447 0000 80B4     		push	{r7}
 6448              		.cfi_def_cfa_offset 4
 6449              		.cfi_offset 7, -4
 6450 0002 85B0     		sub	sp, sp, #20
 6451              		.cfi_def_cfa_offset 24
 6452 0004 00AF     		add	r7, sp, #0
 6453              		.cfi_def_cfa_register 7
 6454 0006 0346     		mov	r3, r0
 6455 0008 FB71     		strb	r3, [r7, #7]
 585:..\..\..\HamFlyAPI\src/hamfly_qx_protocol.c ****     uint8_t i;
 586:..\..\..\HamFlyAPI\src/hamfly_qx_protocol.c ****     uint32_t crc = (uint32_t)data << 24;
 6456              		.loc 1 586 0
 6457 000a FB79     		ldrb	r3, [r7, #7]	@ zero_extendqisi2
 6458 000c 1B06     		lsls	r3, r3, #24
 6459 000e BB60     		str	r3, [r7, #8]
 587:..\..\..\HamFlyAPI\src/hamfly_qx_protocol.c ****     for (i = 0; i < 8; i++) {
 6460              		.loc 1 587 0
 6461 0010 0023     		movs	r3, #0
 6462 0012 FB73     		strb	r3, [r7, #15]
 6463 0014 0EE0     		b	.L535
 6464              	.L538:
 588:..\..\..\HamFlyAPI\src/hamfly_qx_protocol.c ****         if ((crc & 0x80000000) != 0) crc = (crc << 1) ^ 0x04C11DB7;
 6465              		.loc 1 588 0
 6466 0016 BB68     		ldr	r3, [r7, #8]
 6467 0018 002B     		cmp	r3, #0
 6468 001a 05DA     		bge	.L536
 6469              		.loc 1 588 0 is_stmt 0 discriminator 1
 6470 001c BB68     		ldr	r3, [r7, #8]
 6471 001e 5A00     		lsls	r2, r3, #1
 6472 0020 094B     		ldr	r3, .L540
ARM GAS  C:\Users\JENNEW~1\AppData\Local\Temp\ccQ5uJSg.s 			page 127


 6473 0022 5340     		eors	r3, r3, r2
 6474 0024 BB60     		str	r3, [r7, #8]
 6475 0026 02E0     		b	.L537
 6476              	.L536:
 589:..\..\..\HamFlyAPI\src/hamfly_qx_protocol.c ****         else                          crc = (crc << 1);
 6477              		.loc 1 589 0 is_stmt 1
 6478 0028 BB68     		ldr	r3, [r7, #8]
 6479 002a 5B00     		lsls	r3, r3, #1
 6480 002c BB60     		str	r3, [r7, #8]
 6481              	.L537:
 587:..\..\..\HamFlyAPI\src/hamfly_qx_protocol.c ****     for (i = 0; i < 8; i++) {
 6482              		.loc 1 587 0 discriminator 2
 6483 002e FB7B     		ldrb	r3, [r7, #15]	@ zero_extendqisi2
 6484 0030 0133     		adds	r3, r3, #1
 6485 0032 FB73     		strb	r3, [r7, #15]
 6486              	.L535:
 587:..\..\..\HamFlyAPI\src/hamfly_qx_protocol.c ****     for (i = 0; i < 8; i++) {
 6487              		.loc 1 587 0 is_stmt 0 discriminator 1
 6488 0034 FB7B     		ldrb	r3, [r7, #15]	@ zero_extendqisi2
 6489 0036 072B     		cmp	r3, #7
 6490 0038 EDD9     		bls	.L538
 590:..\..\..\HamFlyAPI\src/hamfly_qx_protocol.c ****     }
 591:..\..\..\HamFlyAPI\src/hamfly_qx_protocol.c ****     return crc;
 6491              		.loc 1 591 0 is_stmt 1
 6492 003a BB68     		ldr	r3, [r7, #8]
 592:..\..\..\HamFlyAPI\src/hamfly_qx_protocol.c **** }
 6493              		.loc 1 592 0
 6494 003c 1846     		mov	r0, r3
 6495 003e 1437     		adds	r7, r7, #20
 6496              		.cfi_def_cfa_offset 4
 6497 0040 BD46     		mov	sp, r7
 6498              		.cfi_def_cfa_register 13
 6499              		@ sp needed
 6500 0042 80BC     		pop	{r7}
 6501              		.cfi_restore 7
 6502              		.cfi_def_cfa_offset 0
 6503 0044 7047     		bx	lr
 6504              	.L541:
 6505 0046 00BF     		.align	2
 6506              	.L540:
 6507 0048 B71DC104 		.word	79764919
 6508              		.cfi_endproc
 6509              	.LFE53:
 6510              		.size	QX_compute_crc32, .-QX_compute_crc32
 6511              		.section	.text.QX_accumulate_crc32,"ax",%progbits
 6512              		.align	2
 6513              		.global	QX_accumulate_crc32
 6514              		.thumb
 6515              		.thumb_func
 6516              		.type	QX_accumulate_crc32, %function
 6517              	QX_accumulate_crc32:
 6518              	.LFB54:
 593:..\..\..\HamFlyAPI\src/hamfly_qx_protocol.c **** 
 594:..\..\..\HamFlyAPI\src/hamfly_qx_protocol.c **** uint32_t QX_accumulate_crc32(uint32_t initial, const uint8_t *data, uint32_t size)
 595:..\..\..\HamFlyAPI\src/hamfly_qx_protocol.c **** {
 6519              		.loc 1 595 0
 6520              		.cfi_startproc
ARM GAS  C:\Users\JENNEW~1\AppData\Local\Temp\ccQ5uJSg.s 			page 128


 6521              		@ args = 0, pretend = 0, frame = 24
 6522              		@ frame_needed = 1, uses_anonymous_args = 0
 6523 0000 80B5     		push	{r7, lr}
 6524              		.cfi_def_cfa_offset 8
 6525              		.cfi_offset 7, -8
 6526              		.cfi_offset 14, -4
 6527 0002 86B0     		sub	sp, sp, #24
 6528              		.cfi_def_cfa_offset 32
 6529 0004 00AF     		add	r7, sp, #0
 6530              		.cfi_def_cfa_register 7
 6531 0006 F860     		str	r0, [r7, #12]
 6532 0008 B960     		str	r1, [r7, #8]
 6533 000a 7A60     		str	r2, [r7, #4]
 596:..\..\..\HamFlyAPI\src/hamfly_qx_protocol.c ****     uint32_t i, final = initial;
 6534              		.loc 1 596 0
 6535 000c FB68     		ldr	r3, [r7, #12]
 6536 000e 3B61     		str	r3, [r7, #16]
 597:..\..\..\HamFlyAPI\src/hamfly_qx_protocol.c ****     for (i = 0; i < size; i++)
 6537              		.loc 1 597 0
 6538 0010 0023     		movs	r3, #0
 6539 0012 7B61     		str	r3, [r7, #20]
 6540 0014 15E0     		b	.L543
 6541              	.L544:
 598:..\..\..\HamFlyAPI\src/hamfly_qx_protocol.c ****         final = QX_compute_crc32((uint8_t)(final >> 24) ^ data[i]) ^ (final << 8);
 6542              		.loc 1 598 0 discriminator 3
 6543 0016 3B69     		ldr	r3, [r7, #16]
 6544 0018 1B0E     		lsrs	r3, r3, #24
 6545 001a 5AB2     		sxtb	r2, r3
 6546 001c B968     		ldr	r1, [r7, #8]
 6547 001e 7B69     		ldr	r3, [r7, #20]
 6548 0020 0B44     		add	r3, r3, r1
 6549 0022 1B78     		ldrb	r3, [r3]	@ zero_extendqisi2
 6550 0024 5BB2     		sxtb	r3, r3
 6551 0026 5340     		eors	r3, r3, r2
 6552 0028 5BB2     		sxtb	r3, r3
 6553 002a DBB2     		uxtb	r3, r3
 6554 002c 1846     		mov	r0, r3
 6555 002e FFF7FEFF 		bl	QX_compute_crc32
 6556 0032 0246     		mov	r2, r0
 6557 0034 3B69     		ldr	r3, [r7, #16]
 6558 0036 1B02     		lsls	r3, r3, #8
 6559 0038 5340     		eors	r3, r3, r2
 6560 003a 3B61     		str	r3, [r7, #16]
 597:..\..\..\HamFlyAPI\src/hamfly_qx_protocol.c ****     for (i = 0; i < size; i++)
 6561              		.loc 1 597 0 discriminator 3
 6562 003c 7B69     		ldr	r3, [r7, #20]
 6563 003e 0133     		adds	r3, r3, #1
 6564 0040 7B61     		str	r3, [r7, #20]
 6565              	.L543:
 597:..\..\..\HamFlyAPI\src/hamfly_qx_protocol.c ****     for (i = 0; i < size; i++)
 6566              		.loc 1 597 0 is_stmt 0 discriminator 1
 6567 0042 7A69     		ldr	r2, [r7, #20]
 6568 0044 7B68     		ldr	r3, [r7, #4]
 6569 0046 9A42     		cmp	r2, r3
 6570 0048 E5D3     		bcc	.L544
 599:..\..\..\HamFlyAPI\src/hamfly_qx_protocol.c ****     return final;
 6571              		.loc 1 599 0 is_stmt 1
ARM GAS  C:\Users\JENNEW~1\AppData\Local\Temp\ccQ5uJSg.s 			page 129


 6572 004a 3B69     		ldr	r3, [r7, #16]
 600:..\..\..\HamFlyAPI\src/hamfly_qx_protocol.c **** }
 6573              		.loc 1 600 0
 6574 004c 1846     		mov	r0, r3
 6575 004e 1837     		adds	r7, r7, #24
 6576              		.cfi_def_cfa_offset 8
 6577 0050 BD46     		mov	sp, r7
 6578              		.cfi_def_cfa_register 13
 6579              		@ sp needed
 6580 0052 80BD     		pop	{r7, pc}
 6581              		.cfi_endproc
 6582              	.LFE54:
 6583              		.size	QX_accumulate_crc32, .-QX_accumulate_crc32
 6584              		.section	.text.QX_InitSrv,"ax",%progbits
 6585              		.align	2
 6586              		.global	QX_InitSrv
 6587              		.thumb
 6588              		.thumb_func
 6589              		.type	QX_InitSrv, %function
 6590              	QX_InitSrv:
 6591              	.LFB55:
 601:..\..\..\HamFlyAPI\src/hamfly_qx_protocol.c **** 
 602:..\..\..\HamFlyAPI\src/hamfly_qx_protocol.c **** /* ============================================================
 603:..\..\..\HamFlyAPI\src/hamfly_qx_protocol.c ****  * Public functions
 604:..\..\..\HamFlyAPI\src/hamfly_qx_protocol.c ****  * ============================================================ */
 605:..\..\..\HamFlyAPI\src/hamfly_qx_protocol.c **** 
 606:..\..\..\HamFlyAPI\src/hamfly_qx_protocol.c **** void QX_InitSrv(QX_Server_t *QX_Server, QX_DevId_e Address, uint8_t *(*Parser_CB)(QX_Msg_t *))
 607:..\..\..\HamFlyAPI\src/hamfly_qx_protocol.c **** {
 6592              		.loc 1 607 0
 6593              		.cfi_startproc
 6594              		@ args = 0, pretend = 0, frame = 16
 6595              		@ frame_needed = 1, uses_anonymous_args = 0
 6596              		@ link register save eliminated.
 6597 0000 80B4     		push	{r7}
 6598              		.cfi_def_cfa_offset 4
 6599              		.cfi_offset 7, -4
 6600 0002 85B0     		sub	sp, sp, #20
 6601              		.cfi_def_cfa_offset 24
 6602 0004 00AF     		add	r7, sp, #0
 6603              		.cfi_def_cfa_register 7
 6604 0006 F860     		str	r0, [r7, #12]
 6605 0008 0B46     		mov	r3, r1
 6606 000a 7A60     		str	r2, [r7, #4]
 6607 000c FB72     		strb	r3, [r7, #11]
 608:..\..\..\HamFlyAPI\src/hamfly_qx_protocol.c ****     QX_Server->Parser_CB = Parser_CB;
 6608              		.loc 1 608 0
 6609 000e FB68     		ldr	r3, [r7, #12]
 6610 0010 7A68     		ldr	r2, [r7, #4]
 6611 0012 5A60     		str	r2, [r3, #4]
 609:..\..\..\HamFlyAPI\src/hamfly_qx_protocol.c ****     QX_Server->Address   = Address;
 6612              		.loc 1 609 0
 6613 0014 FB68     		ldr	r3, [r7, #12]
 6614 0016 FA7A     		ldrb	r2, [r7, #11]
 6615 0018 1A70     		strb	r2, [r3]
 610:..\..\..\HamFlyAPI\src/hamfly_qx_protocol.c **** }
 6616              		.loc 1 610 0
 6617 001a 00BF     		nop
ARM GAS  C:\Users\JENNEW~1\AppData\Local\Temp\ccQ5uJSg.s 			page 130


 6618 001c 1437     		adds	r7, r7, #20
 6619              		.cfi_def_cfa_offset 4
 6620 001e BD46     		mov	sp, r7
 6621              		.cfi_def_cfa_register 13
 6622              		@ sp needed
 6623 0020 80BC     		pop	{r7}
 6624              		.cfi_restore 7
 6625              		.cfi_def_cfa_offset 0
 6626 0022 7047     		bx	lr
 6627              		.cfi_endproc
 6628              	.LFE55:
 6629              		.size	QX_InitSrv, .-QX_InitSrv
 6630              		.section	.text.QX_InitCli,"ax",%progbits
 6631              		.align	2
 6632              		.global	QX_InitCli
 6633              		.thumb
 6634              		.thumb_func
 6635              		.type	QX_InitCli, %function
 6636              	QX_InitCli:
 6637              	.LFB56:
 611:..\..\..\HamFlyAPI\src/hamfly_qx_protocol.c **** 
 612:..\..\..\HamFlyAPI\src/hamfly_qx_protocol.c **** void QX_InitCli(QX_Client_t *QX_Client, QX_DevId_e Address, uint8_t *(*Parser_CB)(QX_Msg_t *))
 613:..\..\..\HamFlyAPI\src/hamfly_qx_protocol.c **** {
 6638              		.loc 1 613 0
 6639              		.cfi_startproc
 6640              		@ args = 0, pretend = 0, frame = 16
 6641              		@ frame_needed = 1, uses_anonymous_args = 0
 6642              		@ link register save eliminated.
 6643 0000 80B4     		push	{r7}
 6644              		.cfi_def_cfa_offset 4
 6645              		.cfi_offset 7, -4
 6646 0002 85B0     		sub	sp, sp, #20
 6647              		.cfi_def_cfa_offset 24
 6648 0004 00AF     		add	r7, sp, #0
 6649              		.cfi_def_cfa_register 7
 6650 0006 F860     		str	r0, [r7, #12]
 6651 0008 0B46     		mov	r3, r1
 6652 000a 7A60     		str	r2, [r7, #4]
 6653 000c FB72     		strb	r3, [r7, #11]
 614:..\..\..\HamFlyAPI\src/hamfly_qx_protocol.c ****     QX_Client->Parser_CB = Parser_CB;
 6654              		.loc 1 614 0
 6655 000e FB68     		ldr	r3, [r7, #12]
 6656 0010 7A68     		ldr	r2, [r7, #4]
 6657 0012 5A60     		str	r2, [r3, #4]
 615:..\..\..\HamFlyAPI\src/hamfly_qx_protocol.c ****     QX_Client->Address   = Address;
 6658              		.loc 1 615 0
 6659 0014 FB68     		ldr	r3, [r7, #12]
 6660 0016 FA7A     		ldrb	r2, [r7, #11]
 6661 0018 1A70     		strb	r2, [r3]
 616:..\..\..\HamFlyAPI\src/hamfly_qx_protocol.c **** }
 6662              		.loc 1 616 0
 6663 001a 00BF     		nop
 6664 001c 1437     		adds	r7, r7, #20
 6665              		.cfi_def_cfa_offset 4
 6666 001e BD46     		mov	sp, r7
 6667              		.cfi_def_cfa_register 13
 6668              		@ sp needed
ARM GAS  C:\Users\JENNEW~1\AppData\Local\Temp\ccQ5uJSg.s 			page 131


 6669 0020 80BC     		pop	{r7}
 6670              		.cfi_restore 7
 6671              		.cfi_def_cfa_offset 0
 6672 0022 7047     		bx	lr
 6673              		.cfi_endproc
 6674              	.LFE56:
 6675              		.size	QX_InitCli, .-QX_InitCli
 6676              		.section	.text.QX_InitTxOptions,"ax",%progbits
 6677              		.align	2
 6678              		.global	QX_InitTxOptions
 6679              		.thumb
 6680              		.thumb_func
 6681              		.type	QX_InitTxOptions, %function
 6682              	QX_InitTxOptions:
 6683              	.LFB57:
 617:..\..\..\HamFlyAPI\src/hamfly_qx_protocol.c **** 
 618:..\..\..\HamFlyAPI\src/hamfly_qx_protocol.c **** void QX_InitTxOptions(QX_TxMsgOptions_t *options)
 619:..\..\..\HamFlyAPI\src/hamfly_qx_protocol.c **** {
 6684              		.loc 1 619 0
 6685              		.cfi_startproc
 6686              		@ args = 0, pretend = 0, frame = 8
 6687              		@ frame_needed = 1, uses_anonymous_args = 0
 6688              		@ link register save eliminated.
 6689 0000 80B4     		push	{r7}
 6690              		.cfi_def_cfa_offset 4
 6691              		.cfi_offset 7, -4
 6692 0002 83B0     		sub	sp, sp, #12
 6693              		.cfi_def_cfa_offset 16
 6694 0004 00AF     		add	r7, sp, #0
 6695              		.cfi_def_cfa_register 7
 6696 0006 7860     		str	r0, [r7, #4]
 620:..\..\..\HamFlyAPI\src/hamfly_qx_protocol.c ****     options->Remove_Addr_Fields = 0;
 6697              		.loc 1 620 0
 6698 0008 7B68     		ldr	r3, [r7, #4]
 6699 000a 0022     		movs	r2, #0
 6700 000c 9A70     		strb	r2, [r3, #2]
 621:..\..\..\HamFlyAPI\src/hamfly_qx_protocol.c ****     options->Remove_Req_Fields  = 0;
 6701              		.loc 1 621 0
 6702 000e 7B68     		ldr	r3, [r7, #4]
 6703 0010 0022     		movs	r2, #0
 6704 0012 DA70     		strb	r2, [r3, #3]
 622:..\..\..\HamFlyAPI\src/hamfly_qx_protocol.c ****     options->RespReq_Addr       = QX_DEV_ID_BROADCAST;
 6705              		.loc 1 622 0
 6706 0014 7B68     		ldr	r3, [r7, #4]
 6707 0016 0022     		movs	r2, #0
 6708 0018 9A71     		strb	r2, [r3, #6]
 623:..\..\..\HamFlyAPI\src/hamfly_qx_protocol.c ****     options->Target_Addr        = QX_DEV_ID_BROADCAST;
 6709              		.loc 1 623 0
 6710 001a 7B68     		ldr	r3, [r7, #4]
 6711 001c 0022     		movs	r2, #0
 6712 001e 1A71     		strb	r2, [r3, #4]
 624:..\..\..\HamFlyAPI\src/hamfly_qx_protocol.c ****     options->TransReq_Addr      = QX_DEV_ID_BROADCAST;
 6713              		.loc 1 624 0
 6714 0020 7B68     		ldr	r3, [r7, #4]
 6715 0022 0022     		movs	r2, #0
 6716 0024 5A71     		strb	r2, [r3, #5]
 625:..\..\..\HamFlyAPI\src/hamfly_qx_protocol.c ****     options->FF_Ext             = 0;
ARM GAS  C:\Users\JENNEW~1\AppData\Local\Temp\ccQ5uJSg.s 			page 132


 6717              		.loc 1 625 0
 6718 0026 7B68     		ldr	r3, [r7, #4]
 6719 0028 0022     		movs	r2, #0
 6720 002a 1A70     		strb	r2, [r3]
 626:..\..\..\HamFlyAPI\src/hamfly_qx_protocol.c ****     options->use_CRC32          = 0;
 6721              		.loc 1 626 0
 6722 002c 7B68     		ldr	r3, [r7, #4]
 6723 002e 0022     		movs	r2, #0
 6724 0030 5A70     		strb	r2, [r3, #1]
 627:..\..\..\HamFlyAPI\src/hamfly_qx_protocol.c **** }
 6725              		.loc 1 627 0
 6726 0032 00BF     		nop
 6727 0034 0C37     		adds	r7, r7, #12
 6728              		.cfi_def_cfa_offset 4
 6729 0036 BD46     		mov	sp, r7
 6730              		.cfi_def_cfa_register 13
 6731              		@ sp needed
 6732 0038 80BC     		pop	{r7}
 6733              		.cfi_restore 7
 6734              		.cfi_def_cfa_offset 0
 6735 003a 7047     		bx	lr
 6736              		.cfi_endproc
 6737              	.LFE57:
 6738              		.size	QX_InitTxOptions, .-QX_InitTxOptions
 6739              		.section	.text.QX_Disable_Default_Response,"ax",%progbits
 6740              		.align	2
 6741              		.global	QX_Disable_Default_Response
 6742              		.thumb
 6743              		.thumb_func
 6744              		.type	QX_Disable_Default_Response, %function
 6745              	QX_Disable_Default_Response:
 6746              	.LFB58:
 628:..\..\..\HamFlyAPI\src/hamfly_qx_protocol.c **** 
 629:..\..\..\HamFlyAPI\src/hamfly_qx_protocol.c **** void QX_Disable_Default_Response(QX_Msg_t *Msg_p) { Msg_p->DisableStdResponse = 1; }
 6747              		.loc 1 629 0
 6748              		.cfi_startproc
 6749              		@ args = 0, pretend = 0, frame = 8
 6750              		@ frame_needed = 1, uses_anonymous_args = 0
 6751              		@ link register save eliminated.
 6752 0000 80B4     		push	{r7}
 6753              		.cfi_def_cfa_offset 4
 6754              		.cfi_offset 7, -4
 6755 0002 83B0     		sub	sp, sp, #12
 6756              		.cfi_def_cfa_offset 16
 6757 0004 00AF     		add	r7, sp, #0
 6758              		.cfi_def_cfa_register 7
 6759 0006 7860     		str	r0, [r7, #4]
 6760              		.loc 1 629 0
 6761 0008 7B68     		ldr	r3, [r7, #4]
 6762 000a 0122     		movs	r2, #1
 6763 000c 5A70     		strb	r2, [r3, #1]
 6764 000e 00BF     		nop
 6765 0010 0C37     		adds	r7, r7, #12
 6766              		.cfi_def_cfa_offset 4
 6767 0012 BD46     		mov	sp, r7
 6768              		.cfi_def_cfa_register 13
 6769              		@ sp needed
ARM GAS  C:\Users\JENNEW~1\AppData\Local\Temp\ccQ5uJSg.s 			page 133


 6770 0014 80BC     		pop	{r7}
 6771              		.cfi_restore 7
 6772              		.cfi_def_cfa_offset 0
 6773 0016 7047     		bx	lr
 6774              		.cfi_endproc
 6775              	.LFE58:
 6776              		.size	QX_Disable_Default_Response, .-QX_Disable_Default_Response
 6777              		.section	.text.QX_Connection_Status_Update,"ax",%progbits
 6778              		.align	2
 6779              		.global	QX_Connection_Status_Update
 6780              		.thumb
 6781              		.thumb_func
 6782              		.type	QX_Connection_Status_Update, %function
 6783              	QX_Connection_Status_Update:
 6784              	.LFB59:
 630:..\..\..\HamFlyAPI\src/hamfly_qx_protocol.c **** 
 631:..\..\..\HamFlyAPI\src/hamfly_qx_protocol.c **** void QX_Connection_Status_Update(QX_Comms_Port_e port)
 632:..\..\..\HamFlyAPI\src/hamfly_qx_protocol.c **** {
 6785              		.loc 1 632 0
 6786              		.cfi_startproc
 6787              		@ args = 0, pretend = 0, frame = 8
 6788              		@ frame_needed = 1, uses_anonymous_args = 0
 6789 0000 90B5     		push	{r4, r7, lr}
 6790              		.cfi_def_cfa_offset 12
 6791              		.cfi_offset 4, -12
 6792              		.cfi_offset 7, -8
 6793              		.cfi_offset 14, -4
 6794 0002 83B0     		sub	sp, sp, #12
 6795              		.cfi_def_cfa_offset 24
 6796 0004 00AF     		add	r7, sp, #0
 6797              		.cfi_def_cfa_register 7
 6798 0006 0346     		mov	r3, r0
 6799 0008 FB71     		strb	r3, [r7, #7]
 633:..\..\..\HamFlyAPI\src/hamfly_qx_protocol.c ****     QX_CommsPorts[port].Timeout_Cntr =
 6800              		.loc 1 633 0
 6801 000a FC79     		ldrb	r4, [r7, #7]	@ zero_extendqisi2
 634:..\..\..\HamFlyAPI\src/hamfly_qx_protocol.c ****         QX_GetTicks_ms() - QX_CommsPorts[port].last_rx_msg_time;
 6802              		.loc 1 634 0
 6803 000c FFF7FEFF 		bl	QX_GetTicks_ms
 6804 0010 FB79     		ldrb	r3, [r7, #7]	@ zero_extendqisi2
 6805 0012 134A     		ldr	r2, .L553
 6806 0014 8C21     		movs	r1, #140
 6807 0016 01FB03F3 		mul	r3, r1, r3
 6808 001a 1344     		add	r3, r3, r2
 6809 001c 8833     		adds	r3, r3, #136
 6810 001e 1B68     		ldr	r3, [r3]
 6811 0020 C21A     		subs	r2, r0, r3
 633:..\..\..\HamFlyAPI\src/hamfly_qx_protocol.c ****     QX_CommsPorts[port].Timeout_Cntr =
 6812              		.loc 1 633 0
 6813 0022 0F49     		ldr	r1, .L553
 6814 0024 8C23     		movs	r3, #140
 6815 0026 03FB04F3 		mul	r3, r3, r4
 6816 002a 0B44     		add	r3, r3, r1
 6817 002c 7833     		adds	r3, r3, #120
 6818 002e 1A60     		str	r2, [r3]
 635:..\..\..\HamFlyAPI\src/hamfly_qx_protocol.c ****     if (QX_CommsPorts[port].Timeout_Cntr > QX_PORT_TIMEOUT_MSEC)
 6819              		.loc 1 635 0
ARM GAS  C:\Users\JENNEW~1\AppData\Local\Temp\ccQ5uJSg.s 			page 134


 6820 0030 FB79     		ldrb	r3, [r7, #7]	@ zero_extendqisi2
 6821 0032 0B4A     		ldr	r2, .L553
 6822 0034 8C21     		movs	r1, #140
 6823 0036 01FB03F3 		mul	r3, r1, r3
 6824 003a 1344     		add	r3, r3, r2
 6825 003c 7833     		adds	r3, r3, #120
 6826 003e 1B68     		ldr	r3, [r3]
 6827 0040 B3F5FA6F 		cmp	r3, #2000
 6828 0044 08D9     		bls	.L552
 636:..\..\..\HamFlyAPI\src/hamfly_qx_protocol.c ****         QX_CommsPorts[port].Connected = 0;
 6829              		.loc 1 636 0
 6830 0046 FB79     		ldrb	r3, [r7, #7]	@ zero_extendqisi2
 6831 0048 054A     		ldr	r2, .L553
 6832 004a 8C21     		movs	r1, #140
 6833 004c 01FB03F3 		mul	r3, r1, r3
 6834 0050 1344     		add	r3, r3, r2
 6835 0052 7C33     		adds	r3, r3, #124
 6836 0054 0022     		movs	r2, #0
 6837 0056 1A70     		strb	r2, [r3]
 6838              	.L552:
 637:..\..\..\HamFlyAPI\src/hamfly_qx_protocol.c **** }
 6839              		.loc 1 637 0
 6840 0058 00BF     		nop
 6841 005a 0C37     		adds	r7, r7, #12
 6842              		.cfi_def_cfa_offset 12
 6843 005c BD46     		mov	sp, r7
 6844              		.cfi_def_cfa_register 13
 6845              		@ sp needed
 6846 005e 90BD     		pop	{r4, r7, pc}
 6847              	.L554:
 6848              		.align	2
 6849              	.L553:
 6850 0060 00000000 		.word	QX_CommsPorts
 6851              		.cfi_endproc
 6852              	.LFE59:
 6853              		.size	QX_Connection_Status_Update, .-QX_Connection_Status_Update
 6854              		.section	.text.QX_SendPacket_Srv_CurVal,"ax",%progbits
 6855              		.align	2
 6856              		.global	QX_SendPacket_Srv_CurVal
 6857              		.thumb
 6858              		.thumb_func
 6859              		.type	QX_SendPacket_Srv_CurVal, %function
 6860              	QX_SendPacket_Srv_CurVal:
 6861              	.LFB60:
 638:..\..\..\HamFlyAPI\src/hamfly_qx_protocol.c **** 
 639:..\..\..\HamFlyAPI\src/hamfly_qx_protocol.c **** QX_Stat_e QX_SendPacket_Srv_CurVal(QX_Server_t *Srv_p, uint32_t Attrib,
 640:..\..\..\HamFlyAPI\src/hamfly_qx_protocol.c ****     QX_Comms_Port_e CommPort, QX_TxMsgOptions_t options)
 641:..\..\..\HamFlyAPI\src/hamfly_qx_protocol.c **** {
 6862              		.loc 1 641 0
 6863              		.cfi_startproc
 6864              		@ args = 12, pretend = 8, frame = 136
 6865              		@ frame_needed = 1, uses_anonymous_args = 0
 6866 0000 82B0     		sub	sp, sp, #8
 6867              		.cfi_def_cfa_offset 8
 6868 0002 80B5     		push	{r7, lr}
 6869              		.cfi_def_cfa_offset 16
 6870              		.cfi_offset 7, -16
ARM GAS  C:\Users\JENNEW~1\AppData\Local\Temp\ccQ5uJSg.s 			page 135


 6871              		.cfi_offset 14, -12
 6872 0004 A2B0     		sub	sp, sp, #136
 6873              		.cfi_def_cfa_offset 152
 6874 0006 00AF     		add	r7, sp, #0
 6875              		.cfi_def_cfa_register 7
 6876 0008 F860     		str	r0, [r7, #12]
 6877 000a B960     		str	r1, [r7, #8]
 6878 000c C7F89430 		str	r3, [r7, #148]
 6879 0010 1346     		mov	r3, r2
 6880 0012 FB71     		strb	r3, [r7, #7]
 642:..\..\..\HamFlyAPI\src/hamfly_qx_protocol.c ****     QX_Msg_t TxMsg; QX_InitMsg(&TxMsg);
 6881              		.loc 1 642 0
 6882 0014 07F11403 		add	r3, r7, #20
 6883 0018 1846     		mov	r0, r3
 6884 001a FFF7FEFF 		bl	QX_InitMsg
 643:..\..\..\HamFlyAPI\src/hamfly_qx_protocol.c ****     TxMsg.CommPort              = CommPort;
 6885              		.loc 1 643 0
 6886 001e FB79     		ldrb	r3, [r7, #7]
 6887 0020 BB76     		strb	r3, [r7, #26]
 644:..\..\..\HamFlyAPI\src/hamfly_qx_protocol.c ****     TxMsg.Header.Attrib         = Attrib;
 6888              		.loc 1 644 0
 6889 0022 BB68     		ldr	r3, [r7, #8]
 6890 0024 3B62     		str	r3, [r7, #32]
 645:..\..\..\HamFlyAPI\src/hamfly_qx_protocol.c ****     TxMsg.Header.Type           = QX_MSG_TYPE_CURVAL;
 6891              		.loc 1 645 0
 6892 0026 0023     		movs	r3, #0
 6893 0028 87F82430 		strb	r3, [r7, #36]
 646:..\..\..\HamFlyAPI\src/hamfly_qx_protocol.c ****     TxMsg.Header.Target_Addr    = options.Target_Addr;
 6894              		.loc 1 646 0
 6895 002c 97F89830 		ldrb	r3, [r7, #152]	@ zero_extendqisi2
 6896 0030 87F82D30 		strb	r3, [r7, #45]
 647:..\..\..\HamFlyAPI\src/hamfly_qx_protocol.c ****     TxMsg.Header.TransReq_Addr  = options.TransReq_Addr;
 6897              		.loc 1 647 0
 6898 0034 97F89930 		ldrb	r3, [r7, #153]	@ zero_extendqisi2
 6899 0038 87F82E30 		strb	r3, [r7, #46]
 648:..\..\..\HamFlyAPI\src/hamfly_qx_protocol.c ****     TxMsg.Header.RespReq_Addr   = options.RespReq_Addr;
 6900              		.loc 1 648 0
 6901 003c 97F89A30 		ldrb	r3, [r7, #154]	@ zero_extendqisi2
 6902 0040 87F82F30 		strb	r3, [r7, #47]
 649:..\..\..\HamFlyAPI\src/hamfly_qx_protocol.c ****     TxMsg.Header.Source_Addr    = Srv_p->Address;
 6903              		.loc 1 649 0
 6904 0044 FB68     		ldr	r3, [r7, #12]
 6905 0046 1B78     		ldrb	r3, [r3]	@ zero_extendqisi2
 6906 0048 87F82C30 		strb	r3, [r7, #44]
 650:..\..\..\HamFlyAPI\src/hamfly_qx_protocol.c ****     TxMsg.Header.FF_Ext         = options.FF_Ext;
 6907              		.loc 1 650 0
 6908 004c 97F89430 		ldrb	r3, [r7, #148]	@ zero_extendqisi2
 6909 0050 87F82730 		strb	r3, [r7, #39]
 651:..\..\..\HamFlyAPI\src/hamfly_qx_protocol.c ****     TxMsg.Header.AddCRC32       = options.use_CRC32;
 6910              		.loc 1 651 0
 6911 0054 97F89530 		ldrb	r3, [r7, #149]	@ zero_extendqisi2
 6912 0058 87F82630 		strb	r3, [r7, #38]
 652:..\..\..\HamFlyAPI\src/hamfly_qx_protocol.c ****     QX_TxMsg_Setup(&TxMsg);
 6913              		.loc 1 652 0
 6914 005c 07F11403 		add	r3, r7, #20
 6915 0060 1846     		mov	r0, r3
 6916 0062 FFF7FEFF 		bl	QX_TxMsg_Setup
ARM GAS  C:\Users\JENNEW~1\AppData\Local\Temp\ccQ5uJSg.s 			page 136


 653:..\..\..\HamFlyAPI\src/hamfly_qx_protocol.c ****     TxMsg.Parse_Type = QX_PARSE_TYPE_CURVAL_SEND;
 6917              		.loc 1 653 0
 6918 0066 0023     		movs	r3, #0
 6919 0068 3B75     		strb	r3, [r7, #20]
 654:..\..\..\HamFlyAPI\src/hamfly_qx_protocol.c ****     TxMsg.MsgBuf_p   = Srv_p->Parser_CB(&TxMsg);
 6920              		.loc 1 654 0
 6921 006a FB68     		ldr	r3, [r7, #12]
 6922 006c 5B68     		ldr	r3, [r3, #4]
 6923 006e 07F11402 		add	r2, r7, #20
 6924 0072 1046     		mov	r0, r2
 6925 0074 9847     		blx	r3
 6926 0076 0346     		mov	r3, r0
 6927 0078 C7F88430 		str	r3, [r7, #132]
 655:..\..\..\HamFlyAPI\src/hamfly_qx_protocol.c ****     return QX_TxMsg_Finish(&TxMsg);
 6928              		.loc 1 655 0
 6929 007c 07F11403 		add	r3, r7, #20
 6930 0080 1846     		mov	r0, r3
 6931 0082 FFF7FEFF 		bl	QX_TxMsg_Finish
 6932 0086 0346     		mov	r3, r0
 656:..\..\..\HamFlyAPI\src/hamfly_qx_protocol.c **** }
 6933              		.loc 1 656 0
 6934 0088 1846     		mov	r0, r3
 6935 008a 8837     		adds	r7, r7, #136
 6936              		.cfi_def_cfa_offset 16
 6937 008c BD46     		mov	sp, r7
 6938              		.cfi_def_cfa_register 13
 6939              		@ sp needed
 6940 008e BDE88040 		pop	{r7, lr}
 6941              		.cfi_restore 14
 6942              		.cfi_restore 7
 6943              		.cfi_def_cfa_offset 8
 6944 0092 02B0     		add	sp, sp, #8
 6945              		.cfi_def_cfa_offset 0
 6946 0094 7047     		bx	lr
 6947              		.cfi_endproc
 6948              	.LFE60:
 6949              		.size	QX_SendPacket_Srv_CurVal, .-QX_SendPacket_Srv_CurVal
 6950 0096 00BF     		.section	.text.QX_SendPacket_Cli_Read,"ax",%progbits
 6951              		.align	2
 6952              		.global	QX_SendPacket_Cli_Read
 6953              		.thumb
 6954              		.thumb_func
 6955              		.type	QX_SendPacket_Cli_Read, %function
 6956              	QX_SendPacket_Cli_Read:
 6957              	.LFB61:
 657:..\..\..\HamFlyAPI\src/hamfly_qx_protocol.c **** 
 658:..\..\..\HamFlyAPI\src/hamfly_qx_protocol.c **** QX_Stat_e QX_SendPacket_Cli_Read(QX_Client_t *Cli_p, uint32_t Attrib,
 659:..\..\..\HamFlyAPI\src/hamfly_qx_protocol.c ****     QX_Comms_Port_e CommPort, QX_TxMsgOptions_t options)
 660:..\..\..\HamFlyAPI\src/hamfly_qx_protocol.c **** {
 6958              		.loc 1 660 0
 6959              		.cfi_startproc
 6960              		@ args = 12, pretend = 8, frame = 136
 6961              		@ frame_needed = 1, uses_anonymous_args = 0
 6962 0000 82B0     		sub	sp, sp, #8
 6963              		.cfi_def_cfa_offset 8
 6964 0002 80B5     		push	{r7, lr}
 6965              		.cfi_def_cfa_offset 16
ARM GAS  C:\Users\JENNEW~1\AppData\Local\Temp\ccQ5uJSg.s 			page 137


 6966              		.cfi_offset 7, -16
 6967              		.cfi_offset 14, -12
 6968 0004 A2B0     		sub	sp, sp, #136
 6969              		.cfi_def_cfa_offset 152
 6970 0006 00AF     		add	r7, sp, #0
 6971              		.cfi_def_cfa_register 7
 6972 0008 F860     		str	r0, [r7, #12]
 6973 000a B960     		str	r1, [r7, #8]
 6974 000c C7F89430 		str	r3, [r7, #148]
 6975 0010 1346     		mov	r3, r2
 6976 0012 FB71     		strb	r3, [r7, #7]
 661:..\..\..\HamFlyAPI\src/hamfly_qx_protocol.c ****     QX_Msg_t TxMsg; QX_InitMsg(&TxMsg);
 6977              		.loc 1 661 0
 6978 0014 07F11403 		add	r3, r7, #20
 6979 0018 1846     		mov	r0, r3
 6980 001a FFF7FEFF 		bl	QX_InitMsg
 662:..\..\..\HamFlyAPI\src/hamfly_qx_protocol.c ****     TxMsg.CommPort             = CommPort;
 6981              		.loc 1 662 0
 6982 001e FB79     		ldrb	r3, [r7, #7]
 6983 0020 BB76     		strb	r3, [r7, #26]
 663:..\..\..\HamFlyAPI\src/hamfly_qx_protocol.c ****     TxMsg.Header.Attrib        = Attrib;
 6984              		.loc 1 663 0
 6985 0022 BB68     		ldr	r3, [r7, #8]
 6986 0024 3B62     		str	r3, [r7, #32]
 664:..\..\..\HamFlyAPI\src/hamfly_qx_protocol.c ****     TxMsg.Header.Type          = QX_MSG_TYPE_READ;
 6987              		.loc 1 664 0
 6988 0026 0123     		movs	r3, #1
 6989 0028 87F82430 		strb	r3, [r7, #36]
 665:..\..\..\HamFlyAPI\src/hamfly_qx_protocol.c ****     TxMsg.Header.Target_Addr   = options.Target_Addr;
 6990              		.loc 1 665 0
 6991 002c 97F89830 		ldrb	r3, [r7, #152]	@ zero_extendqisi2
 6992 0030 87F82D30 		strb	r3, [r7, #45]
 666:..\..\..\HamFlyAPI\src/hamfly_qx_protocol.c ****     TxMsg.Header.TransReq_Addr = QX_DEV_ID_BROADCAST;
 6993              		.loc 1 666 0
 6994 0034 0023     		movs	r3, #0
 6995 0036 87F82E30 		strb	r3, [r7, #46]
 667:..\..\..\HamFlyAPI\src/hamfly_qx_protocol.c ****     TxMsg.Header.RespReq_Addr  = options.RespReq_Addr;
 6996              		.loc 1 667 0
 6997 003a 97F89A30 		ldrb	r3, [r7, #154]	@ zero_extendqisi2
 6998 003e 87F82F30 		strb	r3, [r7, #47]
 668:..\..\..\HamFlyAPI\src/hamfly_qx_protocol.c ****     TxMsg.Header.Source_Addr   = Cli_p->Address;
 6999              		.loc 1 668 0
 7000 0042 FB68     		ldr	r3, [r7, #12]
 7001 0044 1B78     		ldrb	r3, [r3]	@ zero_extendqisi2
 7002 0046 87F82C30 		strb	r3, [r7, #44]
 669:..\..\..\HamFlyAPI\src/hamfly_qx_protocol.c ****     TxMsg.Header.FF_Ext        = options.FF_Ext;
 7003              		.loc 1 669 0
 7004 004a 97F89430 		ldrb	r3, [r7, #148]	@ zero_extendqisi2
 7005 004e 87F82730 		strb	r3, [r7, #39]
 670:..\..\..\HamFlyAPI\src/hamfly_qx_protocol.c ****     TxMsg.Header.AddCRC32      = options.use_CRC32;
 7006              		.loc 1 670 0
 7007 0052 97F89530 		ldrb	r3, [r7, #149]	@ zero_extendqisi2
 7008 0056 87F82630 		strb	r3, [r7, #38]
 671:..\..\..\HamFlyAPI\src/hamfly_qx_protocol.c ****     QX_TxMsg_Setup(&TxMsg);
 7009              		.loc 1 671 0
 7010 005a 07F11403 		add	r3, r7, #20
 7011 005e 1846     		mov	r0, r3
ARM GAS  C:\Users\JENNEW~1\AppData\Local\Temp\ccQ5uJSg.s 			page 138


 7012 0060 FFF7FEFF 		bl	QX_TxMsg_Setup
 672:..\..\..\HamFlyAPI\src/hamfly_qx_protocol.c ****     return QX_TxMsg_Finish(&TxMsg);
 7013              		.loc 1 672 0
 7014 0064 07F11403 		add	r3, r7, #20
 7015 0068 1846     		mov	r0, r3
 7016 006a FFF7FEFF 		bl	QX_TxMsg_Finish
 7017 006e 0346     		mov	r3, r0
 673:..\..\..\HamFlyAPI\src/hamfly_qx_protocol.c **** }
 7018              		.loc 1 673 0
 7019 0070 1846     		mov	r0, r3
 7020 0072 8837     		adds	r7, r7, #136
 7021              		.cfi_def_cfa_offset 16
 7022 0074 BD46     		mov	sp, r7
 7023              		.cfi_def_cfa_register 13
 7024              		@ sp needed
 7025 0076 BDE88040 		pop	{r7, lr}
 7026              		.cfi_restore 14
 7027              		.cfi_restore 7
 7028              		.cfi_def_cfa_offset 8
 7029 007a 02B0     		add	sp, sp, #8
 7030              		.cfi_def_cfa_offset 0
 7031 007c 7047     		bx	lr
 7032              		.cfi_endproc
 7033              	.LFE61:
 7034              		.size	QX_SendPacket_Cli_Read, .-QX_SendPacket_Cli_Read
 7035 007e 00BF     		.section	.text.QX_SendPacket_Cli_WriteABS,"ax",%progbits
 7036              		.align	2
 7037              		.global	QX_SendPacket_Cli_WriteABS
 7038              		.thumb
 7039              		.thumb_func
 7040              		.type	QX_SendPacket_Cli_WriteABS, %function
 7041              	QX_SendPacket_Cli_WriteABS:
 7042              	.LFB62:
 674:..\..\..\HamFlyAPI\src/hamfly_qx_protocol.c **** 
 675:..\..\..\HamFlyAPI\src/hamfly_qx_protocol.c **** QX_Stat_e QX_SendPacket_Cli_WriteABS(QX_Client_t *Cli_p, uint32_t Attrib,
 676:..\..\..\HamFlyAPI\src/hamfly_qx_protocol.c ****     QX_Comms_Port_e CommPort, QX_TxMsgOptions_t options)
 677:..\..\..\HamFlyAPI\src/hamfly_qx_protocol.c **** {
 7043              		.loc 1 677 0
 7044              		.cfi_startproc
 7045              		@ args = 12, pretend = 8, frame = 136
 7046              		@ frame_needed = 1, uses_anonymous_args = 0
 7047 0000 82B0     		sub	sp, sp, #8
 7048              		.cfi_def_cfa_offset 8
 7049 0002 80B5     		push	{r7, lr}
 7050              		.cfi_def_cfa_offset 16
 7051              		.cfi_offset 7, -16
 7052              		.cfi_offset 14, -12
 7053 0004 A2B0     		sub	sp, sp, #136
 7054              		.cfi_def_cfa_offset 152
 7055 0006 00AF     		add	r7, sp, #0
 7056              		.cfi_def_cfa_register 7
 7057 0008 F860     		str	r0, [r7, #12]
 7058 000a B960     		str	r1, [r7, #8]
 7059 000c C7F89430 		str	r3, [r7, #148]
 7060 0010 1346     		mov	r3, r2
 7061 0012 FB71     		strb	r3, [r7, #7]
 678:..\..\..\HamFlyAPI\src/hamfly_qx_protocol.c ****     QX_Msg_t TxMsg; QX_InitMsg(&TxMsg);
ARM GAS  C:\Users\JENNEW~1\AppData\Local\Temp\ccQ5uJSg.s 			page 139


 7062              		.loc 1 678 0
 7063 0014 07F11403 		add	r3, r7, #20
 7064 0018 1846     		mov	r0, r3
 7065 001a FFF7FEFF 		bl	QX_InitMsg
 679:..\..\..\HamFlyAPI\src/hamfly_qx_protocol.c ****     TxMsg.CommPort             = CommPort;
 7066              		.loc 1 679 0
 7067 001e FB79     		ldrb	r3, [r7, #7]
 7068 0020 BB76     		strb	r3, [r7, #26]
 680:..\..\..\HamFlyAPI\src/hamfly_qx_protocol.c ****     TxMsg.Header.Attrib        = Attrib;
 7069              		.loc 1 680 0
 7070 0022 BB68     		ldr	r3, [r7, #8]
 7071 0024 3B62     		str	r3, [r7, #32]
 681:..\..\..\HamFlyAPI\src/hamfly_qx_protocol.c ****     TxMsg.Header.Type          = QX_MSG_TYPE_WRITE_ABS;
 7072              		.loc 1 681 0
 7073 0026 0223     		movs	r3, #2
 7074 0028 87F82430 		strb	r3, [r7, #36]
 682:..\..\..\HamFlyAPI\src/hamfly_qx_protocol.c ****     TxMsg.Header.Target_Addr   = options.Target_Addr;
 7075              		.loc 1 682 0
 7076 002c 97F89830 		ldrb	r3, [r7, #152]	@ zero_extendqisi2
 7077 0030 87F82D30 		strb	r3, [r7, #45]
 683:..\..\..\HamFlyAPI\src/hamfly_qx_protocol.c ****     TxMsg.Header.TransReq_Addr = options.TransReq_Addr;
 7078              		.loc 1 683 0
 7079 0034 97F89930 		ldrb	r3, [r7, #153]	@ zero_extendqisi2
 7080 0038 87F82E30 		strb	r3, [r7, #46]
 684:..\..\..\HamFlyAPI\src/hamfly_qx_protocol.c ****     TxMsg.Header.RespReq_Addr  = options.RespReq_Addr;
 7081              		.loc 1 684 0
 7082 003c 97F89A30 		ldrb	r3, [r7, #154]	@ zero_extendqisi2
 7083 0040 87F82F30 		strb	r3, [r7, #47]
 685:..\..\..\HamFlyAPI\src/hamfly_qx_protocol.c ****     TxMsg.Header.Source_Addr   = Cli_p->Address;
 7084              		.loc 1 685 0
 7085 0044 FB68     		ldr	r3, [r7, #12]
 7086 0046 1B78     		ldrb	r3, [r3]	@ zero_extendqisi2
 7087 0048 87F82C30 		strb	r3, [r7, #44]
 686:..\..\..\HamFlyAPI\src/hamfly_qx_protocol.c ****     TxMsg.Header.FF_Ext        = options.FF_Ext;
 7088              		.loc 1 686 0
 7089 004c 97F89430 		ldrb	r3, [r7, #148]	@ zero_extendqisi2
 7090 0050 87F82730 		strb	r3, [r7, #39]
 687:..\..\..\HamFlyAPI\src/hamfly_qx_protocol.c ****     TxMsg.Header.AddCRC32      = options.use_CRC32;
 7091              		.loc 1 687 0
 7092 0054 97F89530 		ldrb	r3, [r7, #149]	@ zero_extendqisi2
 7093 0058 87F82630 		strb	r3, [r7, #38]
 688:..\..\..\HamFlyAPI\src/hamfly_qx_protocol.c ****     QX_TxMsg_Setup(&TxMsg);
 7094              		.loc 1 688 0
 7095 005c 07F11403 		add	r3, r7, #20
 7096 0060 1846     		mov	r0, r3
 7097 0062 FFF7FEFF 		bl	QX_TxMsg_Setup
 689:..\..\..\HamFlyAPI\src/hamfly_qx_protocol.c ****     TxMsg.Parse_Type = QX_PARSE_TYPE_WRITE_ABS_SEND;
 7098              		.loc 1 689 0
 7099 0066 0223     		movs	r3, #2
 7100 0068 3B75     		strb	r3, [r7, #20]
 690:..\..\..\HamFlyAPI\src/hamfly_qx_protocol.c ****     TxMsg.MsgBuf_p   = Cli_p->Parser_CB(&TxMsg);
 7101              		.loc 1 690 0
 7102 006a FB68     		ldr	r3, [r7, #12]
 7103 006c 5B68     		ldr	r3, [r3, #4]
 7104 006e 07F11402 		add	r2, r7, #20
 7105 0072 1046     		mov	r0, r2
 7106 0074 9847     		blx	r3
ARM GAS  C:\Users\JENNEW~1\AppData\Local\Temp\ccQ5uJSg.s 			page 140


 7107 0076 0346     		mov	r3, r0
 7108 0078 C7F88430 		str	r3, [r7, #132]
 691:..\..\..\HamFlyAPI\src/hamfly_qx_protocol.c ****     return QX_TxMsg_Finish(&TxMsg);
 7109              		.loc 1 691 0
 7110 007c 07F11403 		add	r3, r7, #20
 7111 0080 1846     		mov	r0, r3
 7112 0082 FFF7FEFF 		bl	QX_TxMsg_Finish
 7113 0086 0346     		mov	r3, r0
 692:..\..\..\HamFlyAPI\src/hamfly_qx_protocol.c **** }
 7114              		.loc 1 692 0
 7115 0088 1846     		mov	r0, r3
 7116 008a 8837     		adds	r7, r7, #136
 7117              		.cfi_def_cfa_offset 16
 7118 008c BD46     		mov	sp, r7
 7119              		.cfi_def_cfa_register 13
 7120              		@ sp needed
 7121 008e BDE88040 		pop	{r7, lr}
 7122              		.cfi_restore 14
 7123              		.cfi_restore 7
 7124              		.cfi_def_cfa_offset 8
 7125 0092 02B0     		add	sp, sp, #8
 7126              		.cfi_def_cfa_offset 0
 7127 0094 7047     		bx	lr
 7128              		.cfi_endproc
 7129              	.LFE62:
 7130              		.size	QX_SendPacket_Cli_WriteABS, .-QX_SendPacket_Cli_WriteABS
 7131 0096 00BF     		.section	.text.QX_SendPacket_Cli_WriteREL,"ax",%progbits
 7132              		.align	2
 7133              		.global	QX_SendPacket_Cli_WriteREL
 7134              		.thumb
 7135              		.thumb_func
 7136              		.type	QX_SendPacket_Cli_WriteREL, %function
 7137              	QX_SendPacket_Cli_WriteREL:
 7138              	.LFB63:
 693:..\..\..\HamFlyAPI\src/hamfly_qx_protocol.c **** 
 694:..\..\..\HamFlyAPI\src/hamfly_qx_protocol.c **** QX_Stat_e QX_SendPacket_Cli_WriteREL(QX_Client_t *Cli_p, uint32_t Attrib,
 695:..\..\..\HamFlyAPI\src/hamfly_qx_protocol.c ****     QX_Comms_Port_e CommPort, QX_TxMsgOptions_t options)
 696:..\..\..\HamFlyAPI\src/hamfly_qx_protocol.c **** {
 7139              		.loc 1 696 0
 7140              		.cfi_startproc
 7141              		@ args = 12, pretend = 8, frame = 136
 7142              		@ frame_needed = 1, uses_anonymous_args = 0
 7143 0000 82B0     		sub	sp, sp, #8
 7144              		.cfi_def_cfa_offset 8
 7145 0002 80B5     		push	{r7, lr}
 7146              		.cfi_def_cfa_offset 16
 7147              		.cfi_offset 7, -16
 7148              		.cfi_offset 14, -12
 7149 0004 A2B0     		sub	sp, sp, #136
 7150              		.cfi_def_cfa_offset 152
 7151 0006 00AF     		add	r7, sp, #0
 7152              		.cfi_def_cfa_register 7
 7153 0008 F860     		str	r0, [r7, #12]
 7154 000a B960     		str	r1, [r7, #8]
 7155 000c C7F89430 		str	r3, [r7, #148]
 7156 0010 1346     		mov	r3, r2
 7157 0012 FB71     		strb	r3, [r7, #7]
ARM GAS  C:\Users\JENNEW~1\AppData\Local\Temp\ccQ5uJSg.s 			page 141


 697:..\..\..\HamFlyAPI\src/hamfly_qx_protocol.c ****     QX_Msg_t TxMsg; QX_InitMsg(&TxMsg);
 7158              		.loc 1 697 0
 7159 0014 07F11403 		add	r3, r7, #20
 7160 0018 1846     		mov	r0, r3
 7161 001a FFF7FEFF 		bl	QX_InitMsg
 698:..\..\..\HamFlyAPI\src/hamfly_qx_protocol.c ****     TxMsg.CommPort             = CommPort;
 7162              		.loc 1 698 0
 7163 001e FB79     		ldrb	r3, [r7, #7]
 7164 0020 BB76     		strb	r3, [r7, #26]
 699:..\..\..\HamFlyAPI\src/hamfly_qx_protocol.c ****     TxMsg.Header.Attrib        = Attrib;
 7165              		.loc 1 699 0
 7166 0022 BB68     		ldr	r3, [r7, #8]
 7167 0024 3B62     		str	r3, [r7, #32]
 700:..\..\..\HamFlyAPI\src/hamfly_qx_protocol.c ****     TxMsg.Header.Type          = QX_MSG_TYPE_WRITE_REL;
 7168              		.loc 1 700 0
 7169 0026 0323     		movs	r3, #3
 7170 0028 87F82430 		strb	r3, [r7, #36]
 701:..\..\..\HamFlyAPI\src/hamfly_qx_protocol.c ****     TxMsg.Header.Target_Addr   = options.Target_Addr;
 7171              		.loc 1 701 0
 7172 002c 97F89830 		ldrb	r3, [r7, #152]	@ zero_extendqisi2
 7173 0030 87F82D30 		strb	r3, [r7, #45]
 702:..\..\..\HamFlyAPI\src/hamfly_qx_protocol.c ****     TxMsg.Header.TransReq_Addr = options.TransReq_Addr;
 7174              		.loc 1 702 0
 7175 0034 97F89930 		ldrb	r3, [r7, #153]	@ zero_extendqisi2
 7176 0038 87F82E30 		strb	r3, [r7, #46]
 703:..\..\..\HamFlyAPI\src/hamfly_qx_protocol.c ****     TxMsg.Header.RespReq_Addr  = options.RespReq_Addr;
 7177              		.loc 1 703 0
 7178 003c 97F89A30 		ldrb	r3, [r7, #154]	@ zero_extendqisi2
 7179 0040 87F82F30 		strb	r3, [r7, #47]
 704:..\..\..\HamFlyAPI\src/hamfly_qx_protocol.c ****     TxMsg.Header.Source_Addr   = Cli_p->Address;
 7180              		.loc 1 704 0
 7181 0044 FB68     		ldr	r3, [r7, #12]
 7182 0046 1B78     		ldrb	r3, [r3]	@ zero_extendqisi2
 7183 0048 87F82C30 		strb	r3, [r7, #44]
 705:..\..\..\HamFlyAPI\src/hamfly_qx_protocol.c ****     TxMsg.Header.FF_Ext        = options.FF_Ext;
 7184              		.loc 1 705 0
 7185 004c 97F89430 		ldrb	r3, [r7, #148]	@ zero_extendqisi2
 7186 0050 87F82730 		strb	r3, [r7, #39]
 706:..\..\..\HamFlyAPI\src/hamfly_qx_protocol.c ****     TxMsg.Header.AddCRC32      = options.use_CRC32;
 7187              		.loc 1 706 0
 7188 0054 97F89530 		ldrb	r3, [r7, #149]	@ zero_extendqisi2
 7189 0058 87F82630 		strb	r3, [r7, #38]
 707:..\..\..\HamFlyAPI\src/hamfly_qx_protocol.c ****     QX_TxMsg_Setup(&TxMsg);
 7190              		.loc 1 707 0
 7191 005c 07F11403 		add	r3, r7, #20
 7192 0060 1846     		mov	r0, r3
 7193 0062 FFF7FEFF 		bl	QX_TxMsg_Setup
 708:..\..\..\HamFlyAPI\src/hamfly_qx_protocol.c ****     TxMsg.Parse_Type = QX_PARSE_TYPE_WRITE_REL_SEND;
 7194              		.loc 1 708 0
 7195 0066 0423     		movs	r3, #4
 7196 0068 3B75     		strb	r3, [r7, #20]
 709:..\..\..\HamFlyAPI\src/hamfly_qx_protocol.c ****     TxMsg.MsgBuf_p   = Cli_p->Parser_CB(&TxMsg);
 7197              		.loc 1 709 0
 7198 006a FB68     		ldr	r3, [r7, #12]
 7199 006c 5B68     		ldr	r3, [r3, #4]
 7200 006e 07F11402 		add	r2, r7, #20
 7201 0072 1046     		mov	r0, r2
ARM GAS  C:\Users\JENNEW~1\AppData\Local\Temp\ccQ5uJSg.s 			page 142


 7202 0074 9847     		blx	r3
 7203 0076 0346     		mov	r3, r0
 7204 0078 C7F88430 		str	r3, [r7, #132]
 710:..\..\..\HamFlyAPI\src/hamfly_qx_protocol.c ****     return QX_TxMsg_Finish(&TxMsg);
 7205              		.loc 1 710 0
 7206 007c 07F11403 		add	r3, r7, #20
 7207 0080 1846     		mov	r0, r3
 7208 0082 FFF7FEFF 		bl	QX_TxMsg_Finish
 7209 0086 0346     		mov	r3, r0
 711:..\..\..\HamFlyAPI\src/hamfly_qx_protocol.c **** }
 7210              		.loc 1 711 0
 7211 0088 1846     		mov	r0, r3
 7212 008a 8837     		adds	r7, r7, #136
 7213              		.cfi_def_cfa_offset 16
 7214 008c BD46     		mov	sp, r7
 7215              		.cfi_def_cfa_register 13
 7216              		@ sp needed
 7217 008e BDE88040 		pop	{r7, lr}
 7218              		.cfi_restore 14
 7219              		.cfi_restore 7
 7220              		.cfi_def_cfa_offset 8
 7221 0092 02B0     		add	sp, sp, #8
 7222              		.cfi_def_cfa_offset 0
 7223 0094 7047     		bx	lr
 7224              		.cfi_endproc
 7225              	.LFE63:
 7226              		.size	QX_SendPacket_Cli_WriteREL, .-QX_SendPacket_Cli_WriteREL
 7227 0096 00BF     		.section	.text.QX_SendPacket_Control,"ax",%progbits
 7228              		.align	2
 7229              		.global	QX_SendPacket_Control
 7230              		.thumb
 7231              		.thumb_func
 7232              		.type	QX_SendPacket_Control, %function
 7233              	QX_SendPacket_Control:
 7234              	.LFB64:
 712:..\..\..\HamFlyAPI\src/hamfly_qx_protocol.c **** 
 713:..\..\..\HamFlyAPI\src/hamfly_qx_protocol.c **** QX_Stat_e QX_SendPacket_Control(QX_Client_t *Cli_p, uint32_t Attrib,
 714:..\..\..\HamFlyAPI\src/hamfly_qx_protocol.c ****     QX_Comms_Port_e CommPort, QX_TxMsgOptions_t options)
 715:..\..\..\HamFlyAPI\src/hamfly_qx_protocol.c **** {
 7235              		.loc 1 715 0
 7236              		.cfi_startproc
 7237              		@ args = 12, pretend = 8, frame = 16
 7238              		@ frame_needed = 1, uses_anonymous_args = 0
 7239 0000 82B0     		sub	sp, sp, #8
 7240              		.cfi_def_cfa_offset 8
 7241 0002 80B5     		push	{r7, lr}
 7242              		.cfi_def_cfa_offset 16
 7243              		.cfi_offset 7, -16
 7244              		.cfi_offset 14, -12
 7245 0004 86B0     		sub	sp, sp, #24
 7246              		.cfi_def_cfa_offset 40
 7247 0006 02AF     		add	r7, sp, #8
 7248              		.cfi_def_cfa 7, 32
 7249 0008 F860     		str	r0, [r7, #12]
 7250 000a B960     		str	r1, [r7, #8]
 7251 000c FB61     		str	r3, [r7, #28]
 7252 000e 1346     		mov	r3, r2
ARM GAS  C:\Users\JENNEW~1\AppData\Local\Temp\ccQ5uJSg.s 			page 143


 7253 0010 FB71     		strb	r3, [r7, #7]
 716:..\..\..\HamFlyAPI\src/hamfly_qx_protocol.c ****     return QX_SendPacket_Cli_WriteABS(Cli_p, Attrib, CommPort, options);
 7254              		.loc 1 716 0
 7255 0012 F979     		ldrb	r1, [r7, #7]	@ zero_extendqisi2
 7256 0014 6B46     		mov	r3, sp
 7257 0016 07F12002 		add	r2, r7, #32
 7258 001a 1268     		ldr	r2, [r2]
 7259 001c 1046     		mov	r0, r2	@ movhi
 7260 001e 1880     		strh	r0, [r3]	@ movhi
 7261 0020 0233     		adds	r3, r3, #2
 7262 0022 120C     		lsrs	r2, r2, #16
 7263 0024 1A70     		strb	r2, [r3]
 7264 0026 FB69     		ldr	r3, [r7, #28]
 7265 0028 0A46     		mov	r2, r1
 7266 002a B968     		ldr	r1, [r7, #8]
 7267 002c F868     		ldr	r0, [r7, #12]
 7268 002e FFF7FEFF 		bl	QX_SendPacket_Cli_WriteABS
 7269 0032 0346     		mov	r3, r0
 717:..\..\..\HamFlyAPI\src/hamfly_qx_protocol.c **** }
 7270              		.loc 1 717 0
 7271 0034 1846     		mov	r0, r3
 7272 0036 1037     		adds	r7, r7, #16
 7273              		.cfi_def_cfa_offset 16
 7274 0038 BD46     		mov	sp, r7
 7275              		.cfi_def_cfa_register 13
 7276              		@ sp needed
 7277 003a BDE88040 		pop	{r7, lr}
 7278              		.cfi_restore 14
 7279              		.cfi_restore 7
 7280              		.cfi_def_cfa_offset 8
 7281 003e 02B0     		add	sp, sp, #8
 7282              		.cfi_def_cfa_offset 0
 7283 0040 7047     		bx	lr
 7284              		.cfi_endproc
 7285              	.LFE64:
 7286              		.size	QX_SendPacket_Control, .-QX_SendPacket_Control
 7287 0042 00BF     		.section	.text.QX_StreamRxCharSM,"ax",%progbits
 7288              		.align	2
 7289              		.global	QX_StreamRxCharSM
 7290              		.thumb
 7291              		.thumb_func
 7292              		.type	QX_StreamRxCharSM, %function
 7293              	QX_StreamRxCharSM:
 7294              	.LFB65:
 718:..\..\..\HamFlyAPI\src/hamfly_qx_protocol.c **** 
 719:..\..\..\HamFlyAPI\src/hamfly_qx_protocol.c **** uint8_t QX_StreamRxCharSM(QX_Comms_Port_e port, unsigned char rxbyte)
 720:..\..\..\HamFlyAPI\src/hamfly_qx_protocol.c **** {
 7295              		.loc 1 720 0
 7296              		.cfi_startproc
 7297              		@ args = 0, pretend = 0, frame = 16
 7298              		@ frame_needed = 1, uses_anonymous_args = 0
 7299 0000 90B5     		push	{r4, r7, lr}
 7300              		.cfi_def_cfa_offset 12
 7301              		.cfi_offset 4, -12
 7302              		.cfi_offset 7, -8
 7303              		.cfi_offset 14, -4
 7304 0002 85B0     		sub	sp, sp, #20
ARM GAS  C:\Users\JENNEW~1\AppData\Local\Temp\ccQ5uJSg.s 			page 144


 7305              		.cfi_def_cfa_offset 32
 7306 0004 00AF     		add	r7, sp, #0
 7307              		.cfi_def_cfa_register 7
 7308 0006 0346     		mov	r3, r0
 7309 0008 0A46     		mov	r2, r1
 7310 000a FB71     		strb	r3, [r7, #7]
 7311 000c 1346     		mov	r3, r2
 7312 000e BB71     		strb	r3, [r7, #6]
 721:..\..\..\HamFlyAPI\src/hamfly_qx_protocol.c ****     uint8_t chksum;
 722:..\..\..\HamFlyAPI\src/hamfly_qx_protocol.c ****     switch (QX_CommsPorts[port].RxState) {
 7313              		.loc 1 722 0
 7314 0010 FB79     		ldrb	r3, [r7, #7]	@ zero_extendqisi2
 7315 0012 B94A     		ldr	r2, .L594
 7316 0014 8C21     		movs	r1, #140
 7317 0016 01FB03F3 		mul	r3, r1, r3
 7318 001a 1344     		add	r3, r3, r2
 7319 001c 1B78     		ldrb	r3, [r3]	@ zero_extendqisi2
 7320 001e 072B     		cmp	r3, #7
 7321 0020 00F25783 		bhi	.L566
 7322 0024 01A2     		adr	r2, .L568
 7323 0026 52F823F0 		ldr	pc, [r2, r3, lsl #2]
 7324 002a 00BF     		.p2align 2
 7325              	.L568:
 7326 002c 4D000000 		.word	.L567+1
 7327 0030 CB000000 		.word	.L569+1
 7328 0034 79010000 		.word	.L570+1
 7329 0038 77020000 		.word	.L571+1
 7330 003c 81030000 		.word	.L572+1
 7331 0040 F5030000 		.word	.L573+1
 7332 0044 D1040000 		.word	.L574+1
 7333 0048 A9050000 		.word	.L575+1
 7334              		.p2align 1
 7335              	.L567:
 723:..\..\..\HamFlyAPI\src/hamfly_qx_protocol.c **** 
 724:..\..\..\HamFlyAPI\src/hamfly_qx_protocol.c ****         case QX_RX_STATE_START_WAIT:
 725:..\..\..\HamFlyAPI\src/hamfly_qx_protocol.c ****             if (rxbyte == 'Q') {
 7336              		.loc 1 725 0
 7337 004c BB79     		ldrb	r3, [r7, #6]	@ zero_extendqisi2
 7338 004e 512B     		cmp	r3, #81
 7339 0050 2AD1     		bne	.L576
 726:..\..\..\HamFlyAPI\src/hamfly_qx_protocol.c ****                 QX_CommsPorts[port].RxCntr          = 1;
 7340              		.loc 1 726 0
 7341 0052 FB79     		ldrb	r3, [r7, #7]	@ zero_extendqisi2
 7342 0054 A84A     		ldr	r2, .L594
 7343 0056 8C21     		movs	r1, #140
 7344 0058 01FB03F3 		mul	r3, r1, r3
 7345 005c 1344     		add	r3, r3, r2
 7346 005e 0233     		adds	r3, r3, #2
 7347 0060 0122     		movs	r2, #1
 7348 0062 1A80     		strh	r2, [r3]	@ movhi
 727:..\..\..\HamFlyAPI\src/hamfly_qx_protocol.c ****                 QX_CommsPorts[port].RxMsg.MsgBuf[0] = rxbyte;
 7349              		.loc 1 727 0
 7350 0064 FB79     		ldrb	r3, [r7, #7]	@ zero_extendqisi2
 7351 0066 A44A     		ldr	r2, .L594
 7352 0068 8C21     		movs	r1, #140
 7353 006a 01FB03F3 		mul	r3, r1, r3
 7354 006e 1344     		add	r3, r3, r2
ARM GAS  C:\Users\JENNEW~1\AppData\Local\Temp\ccQ5uJSg.s 			page 145


 7355 0070 2033     		adds	r3, r3, #32
 7356 0072 BA79     		ldrb	r2, [r7, #6]
 7357 0074 1A70     		strb	r2, [r3]
 728:..\..\..\HamFlyAPI\src/hamfly_qx_protocol.c ****                 QX_CommsPorts[port].RxMsg.MsgBuf_p  = &QX_CommsPorts[port].RxMsg.MsgBuf[1];
 7358              		.loc 1 728 0
 7359 0076 FB79     		ldrb	r3, [r7, #7]	@ zero_extendqisi2
 7360 0078 FA79     		ldrb	r2, [r7, #7]	@ zero_extendqisi2
 7361 007a 8C21     		movs	r1, #140
 7362 007c 01FB02F2 		mul	r2, r1, r2
 7363 0080 1932     		adds	r2, r2, #25
 7364 0082 9D49     		ldr	r1, .L594
 7365 0084 0A44     		add	r2, r2, r1
 7366 0086 0832     		adds	r2, r2, #8
 7367 0088 9B49     		ldr	r1, .L594
 7368 008a 8C20     		movs	r0, #140
 7369 008c 00FB03F3 		mul	r3, r0, r3
 7370 0090 0B44     		add	r3, r3, r1
 7371 0092 7433     		adds	r3, r3, #116
 7372 0094 1A60     		str	r2, [r3]
 729:..\..\..\HamFlyAPI\src/hamfly_qx_protocol.c ****                 QX_CommsPorts[port].RxState         = QX_RX_STATE_GET_PROTOCOL_VER;
 7373              		.loc 1 729 0
 7374 0096 FB79     		ldrb	r3, [r7, #7]	@ zero_extendqisi2
 7375 0098 974A     		ldr	r2, .L594
 7376 009a 8C21     		movs	r1, #140
 7377 009c 01FB03F3 		mul	r3, r1, r3
 7378 00a0 1344     		add	r3, r3, r2
 7379 00a2 0122     		movs	r2, #1
 7380 00a4 1A70     		strb	r2, [r3]
 730:..\..\..\HamFlyAPI\src/hamfly_qx_protocol.c ****             } else {
 731:..\..\..\HamFlyAPI\src/hamfly_qx_protocol.c ****                 QX_CommsPorts[port].non_Q_cnt++;
 732:..\..\..\HamFlyAPI\src/hamfly_qx_protocol.c ****             }
 733:..\..\..\HamFlyAPI\src/hamfly_qx_protocol.c ****             break;
 7381              		.loc 1 733 0
 7382 00a6 14E3     		b	.L566
 7383              	.L576:
 731:..\..\..\HamFlyAPI\src/hamfly_qx_protocol.c ****             }
 7384              		.loc 1 731 0
 7385 00a8 FB79     		ldrb	r3, [r7, #7]	@ zero_extendqisi2
 7386 00aa 9349     		ldr	r1, .L594
 7387 00ac 8C22     		movs	r2, #140
 7388 00ae 02FB03F2 		mul	r2, r2, r3
 7389 00b2 0A44     		add	r2, r2, r1
 7390 00b4 8432     		adds	r2, r2, #132
 7391 00b6 1268     		ldr	r2, [r2]
 7392 00b8 0132     		adds	r2, r2, #1
 7393 00ba 8F49     		ldr	r1, .L594
 7394 00bc 8C20     		movs	r0, #140
 7395 00be 00FB03F3 		mul	r3, r0, r3
 7396 00c2 0B44     		add	r3, r3, r1
 7397 00c4 8433     		adds	r3, r3, #132
 7398 00c6 1A60     		str	r2, [r3]
 7399              		.loc 1 733 0
 7400 00c8 03E3     		b	.L566
 7401              	.L569:
 734:..\..\..\HamFlyAPI\src/hamfly_qx_protocol.c **** 
 735:..\..\..\HamFlyAPI\src/hamfly_qx_protocol.c ****         case QX_RX_STATE_GET_PROTOCOL_VER:
 736:..\..\..\HamFlyAPI\src/hamfly_qx_protocol.c ****             *QX_CommsPorts[port].RxMsg.MsgBuf_p++ = rxbyte;
ARM GAS  C:\Users\JENNEW~1\AppData\Local\Temp\ccQ5uJSg.s 			page 146


 7402              		.loc 1 736 0
 7403 00ca FA79     		ldrb	r2, [r7, #7]	@ zero_extendqisi2
 7404 00cc 8A49     		ldr	r1, .L594
 7405 00ce 8C23     		movs	r3, #140
 7406 00d0 03FB02F3 		mul	r3, r3, r2
 7407 00d4 0B44     		add	r3, r3, r1
 7408 00d6 7433     		adds	r3, r3, #116
 7409 00d8 1B68     		ldr	r3, [r3]
 7410 00da 591C     		adds	r1, r3, #1
 7411 00dc 8648     		ldr	r0, .L594
 7412 00de 8C24     		movs	r4, #140
 7413 00e0 04FB02F2 		mul	r2, r4, r2
 7414 00e4 0244     		add	r2, r2, r0
 7415 00e6 7432     		adds	r2, r2, #116
 7416 00e8 1160     		str	r1, [r2]
 7417 00ea BA79     		ldrb	r2, [r7, #6]
 7418 00ec 1A70     		strb	r2, [r3]
 737:..\..\..\HamFlyAPI\src/hamfly_qx_protocol.c ****             QX_CommsPorts[port].RxCntr++;
 7419              		.loc 1 737 0
 7420 00ee FB79     		ldrb	r3, [r7, #7]	@ zero_extendqisi2
 7421 00f0 8149     		ldr	r1, .L594
 7422 00f2 8C22     		movs	r2, #140
 7423 00f4 02FB03F2 		mul	r2, r2, r3
 7424 00f8 0A44     		add	r2, r2, r1
 7425 00fa 0232     		adds	r2, r2, #2
 7426 00fc 1288     		ldrh	r2, [r2]
 7427 00fe 0132     		adds	r2, r2, #1
 7428 0100 90B2     		uxth	r0, r2
 7429 0102 7D4A     		ldr	r2, .L594
 7430 0104 8C21     		movs	r1, #140
 7431 0106 01FB03F3 		mul	r3, r1, r3
 7432 010a 1344     		add	r3, r3, r2
 7433 010c 0233     		adds	r3, r3, #2
 7434 010e 0246     		mov	r2, r0	@ movhi
 7435 0110 1A80     		strh	r2, [r3]	@ movhi
 738:..\..\..\HamFlyAPI\src/hamfly_qx_protocol.c ****             if      (rxbyte == 'X') { QX_CommsPorts[port].RxMsg.Legacy_Header = 0; QX_CommsPorts[po
 7436              		.loc 1 738 0
 7437 0112 BB79     		ldrb	r3, [r7, #6]	@ zero_extendqisi2
 7438 0114 582B     		cmp	r3, #88
 7439 0116 11D1     		bne	.L578
 7440              		.loc 1 738 0 is_stmt 0 discriminator 1
 7441 0118 FB79     		ldrb	r3, [r7, #7]	@ zero_extendqisi2
 7442 011a 774A     		ldr	r2, .L594
 7443 011c 8C21     		movs	r1, #140
 7444 011e 01FB03F3 		mul	r3, r1, r3
 7445 0122 1344     		add	r3, r3, r2
 7446 0124 0933     		adds	r3, r3, #9
 7447 0126 0022     		movs	r2, #0
 7448 0128 1A70     		strb	r2, [r3]
 7449 012a FB79     		ldrb	r3, [r7, #7]	@ zero_extendqisi2
 7450 012c 724A     		ldr	r2, .L594
 7451 012e 8C21     		movs	r1, #140
 7452 0130 01FB03F3 		mul	r3, r1, r3
 7453 0134 1344     		add	r3, r3, r2
 7454 0136 0222     		movs	r2, #2
 7455 0138 1A70     		strb	r2, [r3]
 739:..\..\..\HamFlyAPI\src/hamfly_qx_protocol.c ****             else if (rxbyte == 'B') { QX_CommsPorts[port].RxMsg.Legacy_Header = 1; QX_CommsPorts[po
ARM GAS  C:\Users\JENNEW~1\AppData\Local\Temp\ccQ5uJSg.s 			page 147


 740:..\..\..\HamFlyAPI\src/hamfly_qx_protocol.c ****             else                    { QX_CommsPorts[port].RxState = QX_RX_STATE_START_WAIT; }
 741:..\..\..\HamFlyAPI\src/hamfly_qx_protocol.c ****             break;
 7456              		.loc 1 741 0 is_stmt 1 discriminator 1
 7457 013a CAE2     		b	.L566
 7458              	.L578:
 739:..\..\..\HamFlyAPI\src/hamfly_qx_protocol.c ****             else if (rxbyte == 'B') { QX_CommsPorts[port].RxMsg.Legacy_Header = 1; QX_CommsPorts[po
 7459              		.loc 1 739 0
 7460 013c BB79     		ldrb	r3, [r7, #6]	@ zero_extendqisi2
 7461 013e 422B     		cmp	r3, #66
 7462 0140 11D1     		bne	.L580
 739:..\..\..\HamFlyAPI\src/hamfly_qx_protocol.c ****             else if (rxbyte == 'B') { QX_CommsPorts[port].RxMsg.Legacy_Header = 1; QX_CommsPorts[po
 7463              		.loc 1 739 0 is_stmt 0 discriminator 1
 7464 0142 FB79     		ldrb	r3, [r7, #7]	@ zero_extendqisi2
 7465 0144 6C4A     		ldr	r2, .L594
 7466 0146 8C21     		movs	r1, #140
 7467 0148 01FB03F3 		mul	r3, r1, r3
 7468 014c 1344     		add	r3, r3, r2
 7469 014e 0933     		adds	r3, r3, #9
 7470 0150 0122     		movs	r2, #1
 7471 0152 1A70     		strb	r2, [r3]
 7472 0154 FB79     		ldrb	r3, [r7, #7]	@ zero_extendqisi2
 7473 0156 684A     		ldr	r2, .L594
 7474 0158 8C21     		movs	r1, #140
 7475 015a 01FB03F3 		mul	r3, r1, r3
 7476 015e 1344     		add	r3, r3, r2
 7477 0160 0422     		movs	r2, #4
 7478 0162 1A70     		strb	r2, [r3]
 7479              		.loc 1 741 0 is_stmt 1 discriminator 1
 7480 0164 B5E2     		b	.L566
 7481              	.L580:
 740:..\..\..\HamFlyAPI\src/hamfly_qx_protocol.c ****             break;
 7482              		.loc 1 740 0
 7483 0166 FB79     		ldrb	r3, [r7, #7]	@ zero_extendqisi2
 7484 0168 634A     		ldr	r2, .L594
 7485 016a 8C21     		movs	r1, #140
 7486 016c 01FB03F3 		mul	r3, r1, r3
 7487 0170 1344     		add	r3, r3, r2
 7488 0172 0022     		movs	r2, #0
 7489 0174 1A70     		strb	r2, [r3]
 7490              		.loc 1 741 0
 7491 0176 ACE2     		b	.L566
 7492              	.L570:
 742:..\..\..\HamFlyAPI\src/hamfly_qx_protocol.c **** 
 743:..\..\..\HamFlyAPI\src/hamfly_qx_protocol.c ****         case QX_RX_STATE_GET_QX_LEN0:
 744:..\..\..\HamFlyAPI\src/hamfly_qx_protocol.c ****             *QX_CommsPorts[port].RxMsg.MsgBuf_p++ = rxbyte;
 7493              		.loc 1 744 0
 7494 0178 FA79     		ldrb	r2, [r7, #7]	@ zero_extendqisi2
 7495 017a 5F49     		ldr	r1, .L594
 7496 017c 8C23     		movs	r3, #140
 7497 017e 03FB02F3 		mul	r3, r3, r2
 7498 0182 0B44     		add	r3, r3, r1
 7499 0184 7433     		adds	r3, r3, #116
 7500 0186 1B68     		ldr	r3, [r3]
 7501 0188 591C     		adds	r1, r3, #1
 7502 018a 5B48     		ldr	r0, .L594
 7503 018c 8C24     		movs	r4, #140
 7504 018e 04FB02F2 		mul	r2, r4, r2
ARM GAS  C:\Users\JENNEW~1\AppData\Local\Temp\ccQ5uJSg.s 			page 148


 7505 0192 0244     		add	r2, r2, r0
 7506 0194 7432     		adds	r2, r2, #116
 7507 0196 1160     		str	r1, [r2]
 7508 0198 BA79     		ldrb	r2, [r7, #6]
 7509 019a 1A70     		strb	r2, [r3]
 745:..\..\..\HamFlyAPI\src/hamfly_qx_protocol.c ****             QX_CommsPorts[port].RxCntr++;
 7510              		.loc 1 745 0
 7511 019c FB79     		ldrb	r3, [r7, #7]	@ zero_extendqisi2
 7512 019e 5649     		ldr	r1, .L594
 7513 01a0 8C22     		movs	r2, #140
 7514 01a2 02FB03F2 		mul	r2, r2, r3
 7515 01a6 0A44     		add	r2, r2, r1
 7516 01a8 0232     		adds	r2, r2, #2
 7517 01aa 1288     		ldrh	r2, [r2]
 7518 01ac 0132     		adds	r2, r2, #1
 7519 01ae 90B2     		uxth	r0, r2
 7520 01b0 514A     		ldr	r2, .L594
 7521 01b2 8C21     		movs	r1, #140
 7522 01b4 01FB03F3 		mul	r3, r1, r3
 7523 01b8 1344     		add	r3, r3, r2
 7524 01ba 0233     		adds	r3, r3, #2
 7525 01bc 0246     		mov	r2, r0	@ movhi
 7526 01be 1A80     		strh	r2, [r3]	@ movhi
 746:..\..\..\HamFlyAPI\src/hamfly_qx_protocol.c ****             if (rxbyte & 0x80) {
 7527              		.loc 1 746 0
 7528 01c0 97F90630 		ldrsb	r3, [r7, #6]
 7529 01c4 002B     		cmp	r3, #0
 7530 01c6 16DA     		bge	.L581
 747:..\..\..\HamFlyAPI\src/hamfly_qx_protocol.c ****                 QX_CommsPorts[port].RxMsg.Header.MsgLength = (uint16_t)(rxbyte & ~0x80);
 7531              		.loc 1 747 0
 7532 01c8 FB79     		ldrb	r3, [r7, #7]	@ zero_extendqisi2
 7533 01ca BA79     		ldrb	r2, [r7, #6]	@ zero_extendqisi2
 7534 01cc 92B2     		uxth	r2, r2
 7535 01ce 22F08002 		bic	r2, r2, #128
 7536 01d2 90B2     		uxth	r0, r2
 7537 01d4 484A     		ldr	r2, .L594
 7538 01d6 8C21     		movs	r1, #140
 7539 01d8 01FB03F3 		mul	r3, r1, r3
 7540 01dc 1344     		add	r3, r3, r2
 7541 01de 0C33     		adds	r3, r3, #12
 7542 01e0 0246     		mov	r2, r0	@ movhi
 7543 01e2 1A80     		strh	r2, [r3]	@ movhi
 748:..\..\..\HamFlyAPI\src/hamfly_qx_protocol.c ****                 QX_CommsPorts[port].RxState = QX_RX_STATE_GET_QX_LEN1;
 7544              		.loc 1 748 0
 7545 01e4 FB79     		ldrb	r3, [r7, #7]	@ zero_extendqisi2
 7546 01e6 444A     		ldr	r2, .L594
 7547 01e8 8C21     		movs	r1, #140
 7548 01ea 01FB03F3 		mul	r3, r1, r3
 7549 01ee 1344     		add	r3, r3, r2
 7550 01f0 0322     		movs	r2, #3
 7551 01f2 1A70     		strb	r2, [r3]
 749:..\..\..\HamFlyAPI\src/hamfly_qx_protocol.c ****             } else {
 750:..\..\..\HamFlyAPI\src/hamfly_qx_protocol.c ****                 QX_CommsPorts[port].RxMsg.Header.MsgLength  = (uint16_t)rxbyte;
 751:..\..\..\HamFlyAPI\src/hamfly_qx_protocol.c ****                 QX_CommsPorts[port].RxMsg.MsgBufAtt_p       = QX_CommsPorts[port].RxMsg.MsgBuf_p;
 752:..\..\..\HamFlyAPI\src/hamfly_qx_protocol.c ****                 QX_CommsPorts[port].RxMsg.RunningChecksum    = 0;
 753:..\..\..\HamFlyAPI\src/hamfly_qx_protocol.c ****                 QX_CommsPorts[port].RxState = QX_RX_STATE_GET_DATA;
 754:..\..\..\HamFlyAPI\src/hamfly_qx_protocol.c ****                 if (QX_MAX_PAYLOAD_LEN < QX_CommsPorts[port].RxMsg.Header.MsgLength)
ARM GAS  C:\Users\JENNEW~1\AppData\Local\Temp\ccQ5uJSg.s 			page 149


 755:..\..\..\HamFlyAPI\src/hamfly_qx_protocol.c ****                     QX_CommsPorts[port].RxState = QX_RX_STATE_START_WAIT;
 756:..\..\..\HamFlyAPI\src/hamfly_qx_protocol.c ****             }
 757:..\..\..\HamFlyAPI\src/hamfly_qx_protocol.c ****             break;
 7552              		.loc 1 757 0
 7553 01f4 66E2     		b	.L590
 7554              	.L581:
 750:..\..\..\HamFlyAPI\src/hamfly_qx_protocol.c ****                 QX_CommsPorts[port].RxMsg.MsgBufAtt_p       = QX_CommsPorts[port].RxMsg.MsgBuf_p;
 7555              		.loc 1 750 0
 7556 01f6 FB79     		ldrb	r3, [r7, #7]	@ zero_extendqisi2
 7557 01f8 BA79     		ldrb	r2, [r7, #6]	@ zero_extendqisi2
 7558 01fa 90B2     		uxth	r0, r2
 7559 01fc 3E4A     		ldr	r2, .L594
 7560 01fe 8C21     		movs	r1, #140
 7561 0200 01FB03F3 		mul	r3, r1, r3
 7562 0204 1344     		add	r3, r3, r2
 7563 0206 0C33     		adds	r3, r3, #12
 7564 0208 0246     		mov	r2, r0	@ movhi
 7565 020a 1A80     		strh	r2, [r3]	@ movhi
 751:..\..\..\HamFlyAPI\src/hamfly_qx_protocol.c ****                 QX_CommsPorts[port].RxMsg.RunningChecksum    = 0;
 7566              		.loc 1 751 0
 7567 020c FB79     		ldrb	r3, [r7, #7]	@ zero_extendqisi2
 7568 020e FA79     		ldrb	r2, [r7, #7]	@ zero_extendqisi2
 7569 0210 3949     		ldr	r1, .L594
 7570 0212 8C20     		movs	r0, #140
 7571 0214 00FB02F2 		mul	r2, r0, r2
 7572 0218 0A44     		add	r2, r2, r1
 7573 021a 7432     		adds	r2, r2, #116
 7574 021c 1268     		ldr	r2, [r2]
 7575 021e 3649     		ldr	r1, .L594
 7576 0220 8C20     		movs	r0, #140
 7577 0222 00FB03F3 		mul	r3, r0, r3
 7578 0226 0B44     		add	r3, r3, r1
 7579 0228 6C33     		adds	r3, r3, #108
 7580 022a 1A60     		str	r2, [r3]
 752:..\..\..\HamFlyAPI\src/hamfly_qx_protocol.c ****                 QX_CommsPorts[port].RxState = QX_RX_STATE_GET_DATA;
 7581              		.loc 1 752 0
 7582 022c FB79     		ldrb	r3, [r7, #7]	@ zero_extendqisi2
 7583 022e 324A     		ldr	r2, .L594
 7584 0230 8C21     		movs	r1, #140
 7585 0232 01FB03F3 		mul	r3, r1, r3
 7586 0236 1344     		add	r3, r3, r2
 7587 0238 0633     		adds	r3, r3, #6
 7588 023a 0022     		movs	r2, #0
 7589 023c 1A70     		strb	r2, [r3]
 753:..\..\..\HamFlyAPI\src/hamfly_qx_protocol.c ****                 if (QX_MAX_PAYLOAD_LEN < QX_CommsPorts[port].RxMsg.Header.MsgLength)
 7590              		.loc 1 753 0
 7591 023e FB79     		ldrb	r3, [r7, #7]	@ zero_extendqisi2
 7592 0240 2D4A     		ldr	r2, .L594
 7593 0242 8C21     		movs	r1, #140
 7594 0244 01FB03F3 		mul	r3, r1, r3
 7595 0248 1344     		add	r3, r3, r2
 7596 024a 0622     		movs	r2, #6
 7597 024c 1A70     		strb	r2, [r3]
 754:..\..\..\HamFlyAPI\src/hamfly_qx_protocol.c ****                     QX_CommsPorts[port].RxState = QX_RX_STATE_START_WAIT;
 7598              		.loc 1 754 0
 7599 024e FB79     		ldrb	r3, [r7, #7]	@ zero_extendqisi2
 7600 0250 294A     		ldr	r2, .L594
ARM GAS  C:\Users\JENNEW~1\AppData\Local\Temp\ccQ5uJSg.s 			page 150


 7601 0252 8C21     		movs	r1, #140
 7602 0254 01FB03F3 		mul	r3, r1, r3
 7603 0258 1344     		add	r3, r3, r2
 7604 025a 0C33     		adds	r3, r3, #12
 7605 025c 1B88     		ldrh	r3, [r3]
 7606 025e 402B     		cmp	r3, #64
 7607 0260 40F23082 		bls	.L590
 755:..\..\..\HamFlyAPI\src/hamfly_qx_protocol.c ****             }
 7608              		.loc 1 755 0
 7609 0264 FB79     		ldrb	r3, [r7, #7]	@ zero_extendqisi2
 7610 0266 244A     		ldr	r2, .L594
 7611 0268 8C21     		movs	r1, #140
 7612 026a 01FB03F3 		mul	r3, r1, r3
 7613 026e 1344     		add	r3, r3, r2
 7614 0270 0022     		movs	r2, #0
 7615 0272 1A70     		strb	r2, [r3]
 7616              		.loc 1 757 0
 7617 0274 26E2     		b	.L590
 7618              	.L571:
 758:..\..\..\HamFlyAPI\src/hamfly_qx_protocol.c **** 
 759:..\..\..\HamFlyAPI\src/hamfly_qx_protocol.c ****         case QX_RX_STATE_GET_QX_LEN1:
 760:..\..\..\HamFlyAPI\src/hamfly_qx_protocol.c ****             *QX_CommsPorts[port].RxMsg.MsgBuf_p++ = rxbyte;
 7619              		.loc 1 760 0
 7620 0276 FA79     		ldrb	r2, [r7, #7]	@ zero_extendqisi2
 7621 0278 1F49     		ldr	r1, .L594
 7622 027a 8C23     		movs	r3, #140
 7623 027c 03FB02F3 		mul	r3, r3, r2
 7624 0280 0B44     		add	r3, r3, r1
 7625 0282 7433     		adds	r3, r3, #116
 7626 0284 1B68     		ldr	r3, [r3]
 7627 0286 591C     		adds	r1, r3, #1
 7628 0288 1B48     		ldr	r0, .L594
 7629 028a 8C24     		movs	r4, #140
 7630 028c 04FB02F2 		mul	r2, r4, r2
 7631 0290 0244     		add	r2, r2, r0
 7632 0292 7432     		adds	r2, r2, #116
 7633 0294 1160     		str	r1, [r2]
 7634 0296 BA79     		ldrb	r2, [r7, #6]
 7635 0298 1A70     		strb	r2, [r3]
 761:..\..\..\HamFlyAPI\src/hamfly_qx_protocol.c ****             QX_CommsPorts[port].RxCntr++;
 7636              		.loc 1 761 0
 7637 029a FB79     		ldrb	r3, [r7, #7]	@ zero_extendqisi2
 7638 029c 1649     		ldr	r1, .L594
 7639 029e 8C22     		movs	r2, #140
 7640 02a0 02FB03F2 		mul	r2, r2, r3
 7641 02a4 0A44     		add	r2, r2, r1
 7642 02a6 0232     		adds	r2, r2, #2
 7643 02a8 1288     		ldrh	r2, [r2]
 7644 02aa 0132     		adds	r2, r2, #1
 7645 02ac 90B2     		uxth	r0, r2
 7646 02ae 124A     		ldr	r2, .L594
 7647 02b0 8C21     		movs	r1, #140
 7648 02b2 01FB03F3 		mul	r3, r1, r3
 7649 02b6 1344     		add	r3, r3, r2
 7650 02b8 0233     		adds	r3, r3, #2
 7651 02ba 0246     		mov	r2, r0	@ movhi
 7652 02bc 1A80     		strh	r2, [r3]	@ movhi
ARM GAS  C:\Users\JENNEW~1\AppData\Local\Temp\ccQ5uJSg.s 			page 151


 762:..\..\..\HamFlyAPI\src/hamfly_qx_protocol.c ****             QX_CommsPorts[port].RxMsg.MsgBufAtt_p = QX_CommsPorts[port].RxMsg.MsgBuf_p;
 7653              		.loc 1 762 0
 7654 02be FB79     		ldrb	r3, [r7, #7]	@ zero_extendqisi2
 7655 02c0 FA79     		ldrb	r2, [r7, #7]	@ zero_extendqisi2
 7656 02c2 0D49     		ldr	r1, .L594
 7657 02c4 8C20     		movs	r0, #140
 7658 02c6 00FB02F2 		mul	r2, r0, r2
 7659 02ca 0A44     		add	r2, r2, r1
 7660 02cc 7432     		adds	r2, r2, #116
 7661 02ce 1268     		ldr	r2, [r2]
 7662 02d0 0949     		ldr	r1, .L594
 7663 02d2 8C20     		movs	r0, #140
 7664 02d4 00FB03F3 		mul	r3, r0, r3
 7665 02d8 0B44     		add	r3, r3, r1
 7666 02da 6C33     		adds	r3, r3, #108
 7667 02dc 1A60     		str	r2, [r3]
 763:..\..\..\HamFlyAPI\src/hamfly_qx_protocol.c ****             if (rxbyte & 0x80) {
 7668              		.loc 1 763 0
 7669 02de 97F90630 		ldrsb	r3, [r7, #6]
 7670 02e2 002B     		cmp	r3, #0
 7671 02e4 0ADA     		bge	.L583
 764:..\..\..\HamFlyAPI\src/hamfly_qx_protocol.c ****                 QX_CommsPorts[port].RxState = QX_RX_STATE_START_WAIT;
 7672              		.loc 1 764 0
 7673 02e6 FB79     		ldrb	r3, [r7, #7]	@ zero_extendqisi2
 7674 02e8 034A     		ldr	r2, .L594
 7675 02ea 8C21     		movs	r1, #140
 7676 02ec 01FB03F3 		mul	r3, r1, r3
 7677 02f0 1344     		add	r3, r3, r2
 7678 02f2 0022     		movs	r2, #0
 7679 02f4 1A70     		strb	r2, [r3]
 7680 02f6 2FE0     		b	.L584
 7681              	.L595:
 7682              		.align	2
 7683              	.L594:
 7684 02f8 00000000 		.word	QX_CommsPorts
 7685              	.L583:
 765:..\..\..\HamFlyAPI\src/hamfly_qx_protocol.c ****             } else {
 766:..\..\..\HamFlyAPI\src/hamfly_qx_protocol.c ****                 QX_CommsPorts[port].RxMsg.Header.MsgLength |= (((uint16_t)(rxbyte & ~0x80)) << 7);
 7686              		.loc 1 766 0
 7687 02fc FA79     		ldrb	r2, [r7, #7]	@ zero_extendqisi2
 7688 02fe FB79     		ldrb	r3, [r7, #7]	@ zero_extendqisi2
 7689 0300 A849     		ldr	r1, .L596
 7690 0302 8C20     		movs	r0, #140
 7691 0304 00FB03F3 		mul	r3, r0, r3
 7692 0308 0B44     		add	r3, r3, r1
 7693 030a 0C33     		adds	r3, r3, #12
 7694 030c 1B88     		ldrh	r3, [r3]
 7695 030e 19B2     		sxth	r1, r3
 7696 0310 BB79     		ldrb	r3, [r7, #6]	@ zero_extendqisi2
 7697 0312 DB01     		lsls	r3, r3, #7
 7698 0314 1BB2     		sxth	r3, r3
 7699 0316 23F48043 		bic	r3, r3, #16384
 7700 031a 23F07F03 		bic	r3, r3, #127
 7701 031e 1BB2     		sxth	r3, r3
 7702 0320 0B43     		orrs	r3, r3, r1
 7703 0322 1BB2     		sxth	r3, r3
 7704 0324 98B2     		uxth	r0, r3
ARM GAS  C:\Users\JENNEW~1\AppData\Local\Temp\ccQ5uJSg.s 			page 152


 7705 0326 9F49     		ldr	r1, .L596
 7706 0328 8C23     		movs	r3, #140
 7707 032a 03FB02F3 		mul	r3, r3, r2
 7708 032e 0B44     		add	r3, r3, r1
 7709 0330 0C33     		adds	r3, r3, #12
 7710 0332 0246     		mov	r2, r0	@ movhi
 7711 0334 1A80     		strh	r2, [r3]	@ movhi
 767:..\..\..\HamFlyAPI\src/hamfly_qx_protocol.c ****                 QX_CommsPorts[port].RxMsg.RunningChecksum    = 0;
 7712              		.loc 1 767 0
 7713 0336 FB79     		ldrb	r3, [r7, #7]	@ zero_extendqisi2
 7714 0338 9A4A     		ldr	r2, .L596
 7715 033a 8C21     		movs	r1, #140
 7716 033c 01FB03F3 		mul	r3, r1, r3
 7717 0340 1344     		add	r3, r3, r2
 7718 0342 0633     		adds	r3, r3, #6
 7719 0344 0022     		movs	r2, #0
 7720 0346 1A70     		strb	r2, [r3]
 768:..\..\..\HamFlyAPI\src/hamfly_qx_protocol.c ****                 QX_CommsPorts[port].RxState = QX_RX_STATE_GET_DATA;
 7721              		.loc 1 768 0
 7722 0348 FB79     		ldrb	r3, [r7, #7]	@ zero_extendqisi2
 7723 034a 964A     		ldr	r2, .L596
 7724 034c 8C21     		movs	r1, #140
 7725 034e 01FB03F3 		mul	r3, r1, r3
 7726 0352 1344     		add	r3, r3, r2
 7727 0354 0622     		movs	r2, #6
 7728 0356 1A70     		strb	r2, [r3]
 7729              	.L584:
 769:..\..\..\HamFlyAPI\src/hamfly_qx_protocol.c ****             }
 770:..\..\..\HamFlyAPI\src/hamfly_qx_protocol.c ****             if (QX_MAX_PAYLOAD_LEN < QX_CommsPorts[port].RxMsg.Header.MsgLength)
 7730              		.loc 1 770 0
 7731 0358 FB79     		ldrb	r3, [r7, #7]	@ zero_extendqisi2
 7732 035a 924A     		ldr	r2, .L596
 7733 035c 8C21     		movs	r1, #140
 7734 035e 01FB03F3 		mul	r3, r1, r3
 7735 0362 1344     		add	r3, r3, r2
 7736 0364 0C33     		adds	r3, r3, #12
 7737 0366 1B88     		ldrh	r3, [r3]
 7738 0368 402B     		cmp	r3, #64
 7739 036a 40F2AD81 		bls	.L591
 771:..\..\..\HamFlyAPI\src/hamfly_qx_protocol.c ****                 QX_CommsPorts[port].RxState = QX_RX_STATE_START_WAIT;
 7740              		.loc 1 771 0
 7741 036e FB79     		ldrb	r3, [r7, #7]	@ zero_extendqisi2
 7742 0370 8C4A     		ldr	r2, .L596
 7743 0372 8C21     		movs	r1, #140
 7744 0374 01FB03F3 		mul	r3, r1, r3
 7745 0378 1344     		add	r3, r3, r2
 7746 037a 0022     		movs	r2, #0
 7747 037c 1A70     		strb	r2, [r3]
 772:..\..\..\HamFlyAPI\src/hamfly_qx_protocol.c ****             break;
 7748              		.loc 1 772 0
 7749 037e A3E1     		b	.L591
 7750              	.L572:
 773:..\..\..\HamFlyAPI\src/hamfly_qx_protocol.c **** 
 774:..\..\..\HamFlyAPI\src/hamfly_qx_protocol.c ****         case QX_RX_STATE_GET_QB_LEN0:
 775:..\..\..\HamFlyAPI\src/hamfly_qx_protocol.c ****             *QX_CommsPorts[port].RxMsg.MsgBuf_p++ = rxbyte;
 7751              		.loc 1 775 0
 7752 0380 FA79     		ldrb	r2, [r7, #7]	@ zero_extendqisi2
ARM GAS  C:\Users\JENNEW~1\AppData\Local\Temp\ccQ5uJSg.s 			page 153


 7753 0382 8849     		ldr	r1, .L596
 7754 0384 8C23     		movs	r3, #140
 7755 0386 03FB02F3 		mul	r3, r3, r2
 7756 038a 0B44     		add	r3, r3, r1
 7757 038c 7433     		adds	r3, r3, #116
 7758 038e 1B68     		ldr	r3, [r3]
 7759 0390 591C     		adds	r1, r3, #1
 7760 0392 8448     		ldr	r0, .L596
 7761 0394 8C24     		movs	r4, #140
 7762 0396 04FB02F2 		mul	r2, r4, r2
 7763 039a 0244     		add	r2, r2, r0
 7764 039c 7432     		adds	r2, r2, #116
 7765 039e 1160     		str	r1, [r2]
 7766 03a0 BA79     		ldrb	r2, [r7, #6]
 7767 03a2 1A70     		strb	r2, [r3]
 776:..\..\..\HamFlyAPI\src/hamfly_qx_protocol.c ****             QX_CommsPorts[port].RxCntr++;
 7768              		.loc 1 776 0
 7769 03a4 FB79     		ldrb	r3, [r7, #7]	@ zero_extendqisi2
 7770 03a6 7F49     		ldr	r1, .L596
 7771 03a8 8C22     		movs	r2, #140
 7772 03aa 02FB03F2 		mul	r2, r2, r3
 7773 03ae 0A44     		add	r2, r2, r1
 7774 03b0 0232     		adds	r2, r2, #2
 7775 03b2 1288     		ldrh	r2, [r2]
 7776 03b4 0132     		adds	r2, r2, #1
 7777 03b6 90B2     		uxth	r0, r2
 7778 03b8 7A4A     		ldr	r2, .L596
 7779 03ba 8C21     		movs	r1, #140
 7780 03bc 01FB03F3 		mul	r3, r1, r3
 7781 03c0 1344     		add	r3, r3, r2
 7782 03c2 0233     		adds	r3, r3, #2
 7783 03c4 0246     		mov	r2, r0	@ movhi
 7784 03c6 1A80     		strh	r2, [r3]	@ movhi
 777:..\..\..\HamFlyAPI\src/hamfly_qx_protocol.c ****             QX_CommsPorts[port].RxMsg.Header.MsgLength = (uint16_t)rxbyte << 8;
 7785              		.loc 1 777 0
 7786 03c8 FB79     		ldrb	r3, [r7, #7]	@ zero_extendqisi2
 7787 03ca BA79     		ldrb	r2, [r7, #6]	@ zero_extendqisi2
 7788 03cc 92B2     		uxth	r2, r2
 7789 03ce 1202     		lsls	r2, r2, #8
 7790 03d0 90B2     		uxth	r0, r2
 7791 03d2 744A     		ldr	r2, .L596
 7792 03d4 8C21     		movs	r1, #140
 7793 03d6 01FB03F3 		mul	r3, r1, r3
 7794 03da 1344     		add	r3, r3, r2
 7795 03dc 0C33     		adds	r3, r3, #12
 7796 03de 0246     		mov	r2, r0	@ movhi
 7797 03e0 1A80     		strh	r2, [r3]	@ movhi
 778:..\..\..\HamFlyAPI\src/hamfly_qx_protocol.c ****             QX_CommsPorts[port].RxState = QX_RX_STATE_GET_QB_LEN1;
 7798              		.loc 1 778 0
 7799 03e2 FB79     		ldrb	r3, [r7, #7]	@ zero_extendqisi2
 7800 03e4 6F4A     		ldr	r2, .L596
 7801 03e6 8C21     		movs	r1, #140
 7802 03e8 01FB03F3 		mul	r3, r1, r3
 7803 03ec 1344     		add	r3, r3, r2
 7804 03ee 0522     		movs	r2, #5
 7805 03f0 1A70     		strb	r2, [r3]
 779:..\..\..\HamFlyAPI\src/hamfly_qx_protocol.c ****             break;
ARM GAS  C:\Users\JENNEW~1\AppData\Local\Temp\ccQ5uJSg.s 			page 154


 7806              		.loc 1 779 0
 7807 03f2 6EE1     		b	.L566
 7808              	.L573:
 780:..\..\..\HamFlyAPI\src/hamfly_qx_protocol.c **** 
 781:..\..\..\HamFlyAPI\src/hamfly_qx_protocol.c ****         case QX_RX_STATE_GET_QB_LEN1:
 782:..\..\..\HamFlyAPI\src/hamfly_qx_protocol.c ****             *QX_CommsPorts[port].RxMsg.MsgBuf_p++ = rxbyte;
 7809              		.loc 1 782 0
 7810 03f4 FA79     		ldrb	r2, [r7, #7]	@ zero_extendqisi2
 7811 03f6 6B49     		ldr	r1, .L596
 7812 03f8 8C23     		movs	r3, #140
 7813 03fa 03FB02F3 		mul	r3, r3, r2
 7814 03fe 0B44     		add	r3, r3, r1
 7815 0400 7433     		adds	r3, r3, #116
 7816 0402 1B68     		ldr	r3, [r3]
 7817 0404 591C     		adds	r1, r3, #1
 7818 0406 6748     		ldr	r0, .L596
 7819 0408 8C24     		movs	r4, #140
 7820 040a 04FB02F2 		mul	r2, r4, r2
 7821 040e 0244     		add	r2, r2, r0
 7822 0410 7432     		adds	r2, r2, #116
 7823 0412 1160     		str	r1, [r2]
 7824 0414 BA79     		ldrb	r2, [r7, #6]
 7825 0416 1A70     		strb	r2, [r3]
 783:..\..\..\HamFlyAPI\src/hamfly_qx_protocol.c ****             QX_CommsPorts[port].RxCntr++;
 7826              		.loc 1 783 0
 7827 0418 FB79     		ldrb	r3, [r7, #7]	@ zero_extendqisi2
 7828 041a 6249     		ldr	r1, .L596
 7829 041c 8C22     		movs	r2, #140
 7830 041e 02FB03F2 		mul	r2, r2, r3
 7831 0422 0A44     		add	r2, r2, r1
 7832 0424 0232     		adds	r2, r2, #2
 7833 0426 1288     		ldrh	r2, [r2]
 7834 0428 0132     		adds	r2, r2, #1
 7835 042a 90B2     		uxth	r0, r2
 7836 042c 5D4A     		ldr	r2, .L596
 7837 042e 8C21     		movs	r1, #140
 7838 0430 01FB03F3 		mul	r3, r1, r3
 7839 0434 1344     		add	r3, r3, r2
 7840 0436 0233     		adds	r3, r3, #2
 7841 0438 0246     		mov	r2, r0	@ movhi
 7842 043a 1A80     		strh	r2, [r3]	@ movhi
 784:..\..\..\HamFlyAPI\src/hamfly_qx_protocol.c ****             QX_CommsPorts[port].RxMsg.MsgBufAtt_p       = QX_CommsPorts[port].RxMsg.MsgBuf_p;
 7843              		.loc 1 784 0
 7844 043c FB79     		ldrb	r3, [r7, #7]	@ zero_extendqisi2
 7845 043e FA79     		ldrb	r2, [r7, #7]	@ zero_extendqisi2
 7846 0440 5849     		ldr	r1, .L596
 7847 0442 8C20     		movs	r0, #140
 7848 0444 00FB02F2 		mul	r2, r0, r2
 7849 0448 0A44     		add	r2, r2, r1
 7850 044a 7432     		adds	r2, r2, #116
 7851 044c 1268     		ldr	r2, [r2]
 7852 044e 5549     		ldr	r1, .L596
 7853 0450 8C20     		movs	r0, #140
 7854 0452 00FB03F3 		mul	r3, r0, r3
 7855 0456 0B44     		add	r3, r3, r1
 7856 0458 6C33     		adds	r3, r3, #108
 7857 045a 1A60     		str	r2, [r3]
ARM GAS  C:\Users\JENNEW~1\AppData\Local\Temp\ccQ5uJSg.s 			page 155


 785:..\..\..\HamFlyAPI\src/hamfly_qx_protocol.c ****             QX_CommsPorts[port].RxMsg.Header.MsgLength  |= (uint16_t)rxbyte;
 7858              		.loc 1 785 0
 7859 045c FB79     		ldrb	r3, [r7, #7]	@ zero_extendqisi2
 7860 045e FA79     		ldrb	r2, [r7, #7]	@ zero_extendqisi2
 7861 0460 5049     		ldr	r1, .L596
 7862 0462 8C20     		movs	r0, #140
 7863 0464 00FB02F2 		mul	r2, r0, r2
 7864 0468 0A44     		add	r2, r2, r1
 7865 046a 0C32     		adds	r2, r2, #12
 7866 046c 1188     		ldrh	r1, [r2]
 7867 046e BA79     		ldrb	r2, [r7, #6]	@ zero_extendqisi2
 7868 0470 92B2     		uxth	r2, r2
 7869 0472 0A43     		orrs	r2, r2, r1
 7870 0474 90B2     		uxth	r0, r2
 7871 0476 4B4A     		ldr	r2, .L596
 7872 0478 8C21     		movs	r1, #140
 7873 047a 01FB03F3 		mul	r3, r1, r3
 7874 047e 1344     		add	r3, r3, r2
 7875 0480 0C33     		adds	r3, r3, #12
 7876 0482 0246     		mov	r2, r0	@ movhi
 7877 0484 1A80     		strh	r2, [r3]	@ movhi
 786:..\..\..\HamFlyAPI\src/hamfly_qx_protocol.c ****             QX_CommsPorts[port].RxMsg.RunningChecksum    = 0;
 7878              		.loc 1 786 0
 7879 0486 FB79     		ldrb	r3, [r7, #7]	@ zero_extendqisi2
 7880 0488 464A     		ldr	r2, .L596
 7881 048a 8C21     		movs	r1, #140
 7882 048c 01FB03F3 		mul	r3, r1, r3
 7883 0490 1344     		add	r3, r3, r2
 7884 0492 0633     		adds	r3, r3, #6
 7885 0494 0022     		movs	r2, #0
 7886 0496 1A70     		strb	r2, [r3]
 787:..\..\..\HamFlyAPI\src/hamfly_qx_protocol.c ****             QX_CommsPorts[port].RxState = QX_RX_STATE_GET_DATA;
 7887              		.loc 1 787 0
 7888 0498 FB79     		ldrb	r3, [r7, #7]	@ zero_extendqisi2
 7889 049a 424A     		ldr	r2, .L596
 7890 049c 8C21     		movs	r1, #140
 7891 049e 01FB03F3 		mul	r3, r1, r3
 7892 04a2 1344     		add	r3, r3, r2
 7893 04a4 0622     		movs	r2, #6
 7894 04a6 1A70     		strb	r2, [r3]
 788:..\..\..\HamFlyAPI\src/hamfly_qx_protocol.c ****             if (QX_MAX_PAYLOAD_LEN < QX_CommsPorts[port].RxMsg.Header.MsgLength)
 7895              		.loc 1 788 0
 7896 04a8 FB79     		ldrb	r3, [r7, #7]	@ zero_extendqisi2
 7897 04aa 3E4A     		ldr	r2, .L596
 7898 04ac 8C21     		movs	r1, #140
 7899 04ae 01FB03F3 		mul	r3, r1, r3
 7900 04b2 1344     		add	r3, r3, r2
 7901 04b4 0C33     		adds	r3, r3, #12
 7902 04b6 1B88     		ldrh	r3, [r3]
 7903 04b8 402B     		cmp	r3, #64
 7904 04ba 40F20781 		bls	.L592
 789:..\..\..\HamFlyAPI\src/hamfly_qx_protocol.c ****                 QX_CommsPorts[port].RxState = QX_RX_STATE_START_WAIT;
 7905              		.loc 1 789 0
 7906 04be FB79     		ldrb	r3, [r7, #7]	@ zero_extendqisi2
 7907 04c0 384A     		ldr	r2, .L596
 7908 04c2 8C21     		movs	r1, #140
 7909 04c4 01FB03F3 		mul	r3, r1, r3
ARM GAS  C:\Users\JENNEW~1\AppData\Local\Temp\ccQ5uJSg.s 			page 156


 7910 04c8 1344     		add	r3, r3, r2
 7911 04ca 0022     		movs	r2, #0
 7912 04cc 1A70     		strb	r2, [r3]
 790:..\..\..\HamFlyAPI\src/hamfly_qx_protocol.c ****             break;
 7913              		.loc 1 790 0
 7914 04ce FDE0     		b	.L592
 7915              	.L574:
 791:..\..\..\HamFlyAPI\src/hamfly_qx_protocol.c **** 
 792:..\..\..\HamFlyAPI\src/hamfly_qx_protocol.c ****         case QX_RX_STATE_GET_DATA:
 793:..\..\..\HamFlyAPI\src/hamfly_qx_protocol.c ****             *QX_CommsPorts[port].RxMsg.MsgBuf_p++ = rxbyte;
 7916              		.loc 1 793 0
 7917 04d0 FA79     		ldrb	r2, [r7, #7]	@ zero_extendqisi2
 7918 04d2 3449     		ldr	r1, .L596
 7919 04d4 8C23     		movs	r3, #140
 7920 04d6 03FB02F3 		mul	r3, r3, r2
 7921 04da 0B44     		add	r3, r3, r1
 7922 04dc 7433     		adds	r3, r3, #116
 7923 04de 1B68     		ldr	r3, [r3]
 7924 04e0 591C     		adds	r1, r3, #1
 7925 04e2 3048     		ldr	r0, .L596
 7926 04e4 8C24     		movs	r4, #140
 7927 04e6 04FB02F2 		mul	r2, r4, r2
 7928 04ea 0244     		add	r2, r2, r0
 7929 04ec 7432     		adds	r2, r2, #116
 7930 04ee 1160     		str	r1, [r2]
 7931 04f0 BA79     		ldrb	r2, [r7, #6]
 7932 04f2 1A70     		strb	r2, [r3]
 794:..\..\..\HamFlyAPI\src/hamfly_qx_protocol.c ****             QX_CommsPorts[port].RxCntr++;
 7933              		.loc 1 794 0
 7934 04f4 FB79     		ldrb	r3, [r7, #7]	@ zero_extendqisi2
 7935 04f6 2B49     		ldr	r1, .L596
 7936 04f8 8C22     		movs	r2, #140
 7937 04fa 02FB03F2 		mul	r2, r2, r3
 7938 04fe 0A44     		add	r2, r2, r1
 7939 0500 0232     		adds	r2, r2, #2
 7940 0502 1288     		ldrh	r2, [r2]
 7941 0504 0132     		adds	r2, r2, #1
 7942 0506 90B2     		uxth	r0, r2
 7943 0508 264A     		ldr	r2, .L596
 7944 050a 8C21     		movs	r1, #140
 7945 050c 01FB03F3 		mul	r3, r1, r3
 7946 0510 1344     		add	r3, r3, r2
 7947 0512 0233     		adds	r3, r3, #2
 7948 0514 0246     		mov	r2, r0	@ movhi
 7949 0516 1A80     		strh	r2, [r3]	@ movhi
 795:..\..\..\HamFlyAPI\src/hamfly_qx_protocol.c ****             QX_CommsPorts[port].RxMsg.RunningChecksum += rxbyte;
 7950              		.loc 1 795 0
 7951 0518 FB79     		ldrb	r3, [r7, #7]	@ zero_extendqisi2
 7952 051a FA79     		ldrb	r2, [r7, #7]	@ zero_extendqisi2
 7953 051c 2149     		ldr	r1, .L596
 7954 051e 8C20     		movs	r0, #140
 7955 0520 00FB02F2 		mul	r2, r0, r2
 7956 0524 0A44     		add	r2, r2, r1
 7957 0526 0632     		adds	r2, r2, #6
 7958 0528 1178     		ldrb	r1, [r2]	@ zero_extendqisi2
 7959 052a BA79     		ldrb	r2, [r7, #6]
 7960 052c 0A44     		add	r2, r2, r1
ARM GAS  C:\Users\JENNEW~1\AppData\Local\Temp\ccQ5uJSg.s 			page 157


 7961 052e D0B2     		uxtb	r0, r2
 7962 0530 1C4A     		ldr	r2, .L596
 7963 0532 8C21     		movs	r1, #140
 7964 0534 01FB03F3 		mul	r3, r1, r3
 7965 0538 1344     		add	r3, r3, r2
 7966 053a 0633     		adds	r3, r3, #6
 7967 053c 0246     		mov	r2, r0
 7968 053e 1A70     		strb	r2, [r3]
 796:..\..\..\HamFlyAPI\src/hamfly_qx_protocol.c ****             if (QX_CommsPorts[port].RxMsg.Header.MsgLength <=
 7969              		.loc 1 796 0
 7970 0540 FB79     		ldrb	r3, [r7, #7]	@ zero_extendqisi2
 7971 0542 184A     		ldr	r2, .L596
 7972 0544 8C21     		movs	r1, #140
 7973 0546 01FB03F3 		mul	r3, r1, r3
 7974 054a 1344     		add	r3, r3, r2
 7975 054c 0C33     		adds	r3, r3, #12
 7976 054e 1B88     		ldrh	r3, [r3]
 7977 0550 1846     		mov	r0, r3
 797:..\..\..\HamFlyAPI\src/hamfly_qx_protocol.c ****                 QX_CommsPorts[port].RxCntr -
 7978              		.loc 1 797 0
 7979 0552 FB79     		ldrb	r3, [r7, #7]	@ zero_extendqisi2
 7980 0554 134A     		ldr	r2, .L596
 7981 0556 8C21     		movs	r1, #140
 7982 0558 01FB03F3 		mul	r3, r1, r3
 7983 055c 1344     		add	r3, r3, r2
 7984 055e 0233     		adds	r3, r3, #2
 7985 0560 1B88     		ldrh	r3, [r3]
 7986 0562 1C46     		mov	r4, r3
 798:..\..\..\HamFlyAPI\src/hamfly_qx_protocol.c ****                 (QX_CommsPorts[port].RxMsg.MsgBufAtt_p - &QX_CommsPorts[port].RxMsg.MsgBuf[0]))
 7987              		.loc 1 798 0
 7988 0564 FB79     		ldrb	r3, [r7, #7]	@ zero_extendqisi2
 7989 0566 0F4A     		ldr	r2, .L596
 7990 0568 8C21     		movs	r1, #140
 7991 056a 01FB03F3 		mul	r3, r1, r3
 7992 056e 1344     		add	r3, r3, r2
 7993 0570 6C33     		adds	r3, r3, #108
 7994 0572 1B68     		ldr	r3, [r3]
 7995 0574 1946     		mov	r1, r3
 7996 0576 FB79     		ldrb	r3, [r7, #7]	@ zero_extendqisi2
 7997 0578 8C22     		movs	r2, #140
 7998 057a 02FB03F3 		mul	r3, r2, r3
 7999 057e 1833     		adds	r3, r3, #24
 8000 0580 084A     		ldr	r2, .L596
 8001 0582 1344     		add	r3, r3, r2
 8002 0584 0833     		adds	r3, r3, #8
 8003 0586 CB1A     		subs	r3, r1, r3
 797:..\..\..\HamFlyAPI\src/hamfly_qx_protocol.c ****                 QX_CommsPorts[port].RxCntr -
 8004              		.loc 1 797 0
 8005 0588 E31A     		subs	r3, r4, r3
 796:..\..\..\HamFlyAPI\src/hamfly_qx_protocol.c ****             if (QX_CommsPorts[port].RxMsg.Header.MsgLength <=
 8006              		.loc 1 796 0
 8007 058a 9842     		cmp	r0, r3
 8008 058c 00F3A080 		bgt	.L593
 799:..\..\..\HamFlyAPI\src/hamfly_qx_protocol.c ****                 QX_CommsPorts[port].RxState = QX_RX_STATE_GET_CHKSUM;
 8009              		.loc 1 799 0
 8010 0590 FB79     		ldrb	r3, [r7, #7]	@ zero_extendqisi2
 8011 0592 044A     		ldr	r2, .L596
ARM GAS  C:\Users\JENNEW~1\AppData\Local\Temp\ccQ5uJSg.s 			page 158


 8012 0594 8C21     		movs	r1, #140
 8013 0596 01FB03F3 		mul	r3, r1, r3
 8014 059a 1344     		add	r3, r3, r2
 8015 059c 0722     		movs	r2, #7
 8016 059e 1A70     		strb	r2, [r3]
 800:..\..\..\HamFlyAPI\src/hamfly_qx_protocol.c ****             break;
 8017              		.loc 1 800 0
 8018 05a0 96E0     		b	.L593
 8019              	.L597:
 8020 05a2 00BF     		.align	2
 8021              	.L596:
 8022 05a4 00000000 		.word	QX_CommsPorts
 8023              	.L575:
 801:..\..\..\HamFlyAPI\src/hamfly_qx_protocol.c **** 
 802:..\..\..\HamFlyAPI\src/hamfly_qx_protocol.c ****         case QX_RX_STATE_GET_CHKSUM:
 803:..\..\..\HamFlyAPI\src/hamfly_qx_protocol.c ****             *QX_CommsPorts[port].RxMsg.MsgBuf_p++ = rxbyte;
 8024              		.loc 1 803 0
 8025 05a8 FA79     		ldrb	r2, [r7, #7]	@ zero_extendqisi2
 8026 05aa 4C49     		ldr	r1, .L598
 8027 05ac 8C23     		movs	r3, #140
 8028 05ae 03FB02F3 		mul	r3, r3, r2
 8029 05b2 0B44     		add	r3, r3, r1
 8030 05b4 7433     		adds	r3, r3, #116
 8031 05b6 1B68     		ldr	r3, [r3]
 8032 05b8 591C     		adds	r1, r3, #1
 8033 05ba 4848     		ldr	r0, .L598
 8034 05bc 8C24     		movs	r4, #140
 8035 05be 04FB02F2 		mul	r2, r4, r2
 8036 05c2 0244     		add	r2, r2, r0
 8037 05c4 7432     		adds	r2, r2, #116
 8038 05c6 1160     		str	r1, [r2]
 8039 05c8 BA79     		ldrb	r2, [r7, #6]
 8040 05ca 1A70     		strb	r2, [r3]
 804:..\..\..\HamFlyAPI\src/hamfly_qx_protocol.c ****             QX_CommsPorts[port].RxCntr++;
 8041              		.loc 1 804 0
 8042 05cc FB79     		ldrb	r3, [r7, #7]	@ zero_extendqisi2
 8043 05ce 4349     		ldr	r1, .L598
 8044 05d0 8C22     		movs	r2, #140
 8045 05d2 02FB03F2 		mul	r2, r2, r3
 8046 05d6 0A44     		add	r2, r2, r1
 8047 05d8 0232     		adds	r2, r2, #2
 8048 05da 1288     		ldrh	r2, [r2]
 8049 05dc 0132     		adds	r2, r2, #1
 8050 05de 90B2     		uxth	r0, r2
 8051 05e0 3E4A     		ldr	r2, .L598
 8052 05e2 8C21     		movs	r1, #140
 8053 05e4 01FB03F3 		mul	r3, r1, r3
 8054 05e8 1344     		add	r3, r3, r2
 8055 05ea 0233     		adds	r3, r3, #2
 8056 05ec 0246     		mov	r2, r0	@ movhi
 8057 05ee 1A80     		strh	r2, [r3]	@ movhi
 805:..\..\..\HamFlyAPI\src/hamfly_qx_protocol.c ****             chksum = rxbyte;
 8058              		.loc 1 805 0
 8059 05f0 BB79     		ldrb	r3, [r7, #6]
 8060 05f2 FB73     		strb	r3, [r7, #15]
 806:..\..\..\HamFlyAPI\src/hamfly_qx_protocol.c ****             QX_CommsPorts[port].RxState      = QX_RX_STATE_START_WAIT;
 8061              		.loc 1 806 0
ARM GAS  C:\Users\JENNEW~1\AppData\Local\Temp\ccQ5uJSg.s 			page 159


 8062 05f4 FB79     		ldrb	r3, [r7, #7]	@ zero_extendqisi2
 8063 05f6 394A     		ldr	r2, .L598
 8064 05f8 8C21     		movs	r1, #140
 8065 05fa 01FB03F3 		mul	r3, r1, r3
 8066 05fe 1344     		add	r3, r3, r2
 8067 0600 0022     		movs	r2, #0
 8068 0602 1A70     		strb	r2, [r3]
 807:..\..\..\HamFlyAPI\src/hamfly_qx_protocol.c ****             QX_CommsPorts[port].RxMsg.CommPort = port;
 8069              		.loc 1 807 0
 8070 0604 FB79     		ldrb	r3, [r7, #7]	@ zero_extendqisi2
 8071 0606 354A     		ldr	r2, .L598
 8072 0608 8C21     		movs	r1, #140
 8073 060a 01FB03F3 		mul	r3, r1, r3
 8074 060e 1344     		add	r3, r3, r2
 8075 0610 0A33     		adds	r3, r3, #10
 8076 0612 FA79     		ldrb	r2, [r7, #7]
 8077 0614 1A70     		strb	r2, [r3]
 808:..\..\..\HamFlyAPI\src/hamfly_qx_protocol.c ****             if ((chksum + QX_CommsPorts[port].RxMsg.RunningChecksum) == 0xFF) {
 8078              		.loc 1 808 0
 8079 0616 FB7B     		ldrb	r3, [r7, #15]	@ zero_extendqisi2
 8080 0618 FA79     		ldrb	r2, [r7, #7]	@ zero_extendqisi2
 8081 061a 3049     		ldr	r1, .L598
 8082 061c 8C20     		movs	r0, #140
 8083 061e 00FB02F2 		mul	r2, r0, r2
 8084 0622 0A44     		add	r2, r2, r1
 8085 0624 0632     		adds	r2, r2, #6
 8086 0626 1278     		ldrb	r2, [r2]	@ zero_extendqisi2
 8087 0628 1344     		add	r3, r3, r2
 8088 062a FF2B     		cmp	r3, #255
 8089 062c 39D1     		bne	.L588
 809:..\..\..\HamFlyAPI\src/hamfly_qx_protocol.c ****                 QX_CommsPorts[port].Timeout_Cntr       = 0;
 8090              		.loc 1 809 0
 8091 062e FB79     		ldrb	r3, [r7, #7]	@ zero_extendqisi2
 8092 0630 2A4A     		ldr	r2, .L598
 8093 0632 8C21     		movs	r1, #140
 8094 0634 01FB03F3 		mul	r3, r1, r3
 8095 0638 1344     		add	r3, r3, r2
 8096 063a 7833     		adds	r3, r3, #120
 8097 063c 0022     		movs	r2, #0
 8098 063e 1A60     		str	r2, [r3]
 810:..\..\..\HamFlyAPI\src/hamfly_qx_protocol.c ****                 QX_CommsPorts[port].last_rx_msg_time   = QX_GetTicks_ms();
 8099              		.loc 1 810 0
 8100 0640 FC79     		ldrb	r4, [r7, #7]	@ zero_extendqisi2
 8101 0642 FFF7FEFF 		bl	QX_GetTicks_ms
 8102 0646 0146     		mov	r1, r0
 8103 0648 244A     		ldr	r2, .L598
 8104 064a 8C23     		movs	r3, #140
 8105 064c 03FB04F3 		mul	r3, r3, r4
 8106 0650 1344     		add	r3, r3, r2
 8107 0652 8833     		adds	r3, r3, #136
 8108 0654 1960     		str	r1, [r3]
 811:..\..\..\HamFlyAPI\src/hamfly_qx_protocol.c ****                 QX_CommsPorts[port].Connected          = 1;
 8109              		.loc 1 811 0
 8110 0656 FB79     		ldrb	r3, [r7, #7]	@ zero_extendqisi2
 8111 0658 204A     		ldr	r2, .L598
 8112 065a 8C21     		movs	r1, #140
 8113 065c 01FB03F3 		mul	r3, r1, r3
ARM GAS  C:\Users\JENNEW~1\AppData\Local\Temp\ccQ5uJSg.s 			page 160


 8114 0660 1344     		add	r3, r3, r2
 8115 0662 7C33     		adds	r3, r3, #124
 8116 0664 0122     		movs	r2, #1
 8117 0666 1A70     		strb	r2, [r3]
 812:..\..\..\HamFlyAPI\src/hamfly_qx_protocol.c ****                 QX_CommsPorts[port].RxMsg.MsgBuf_MsgLen = QX_CommsPorts[port].RxCntr;
 8118              		.loc 1 812 0
 8119 0668 FB79     		ldrb	r3, [r7, #7]	@ zero_extendqisi2
 8120 066a FA79     		ldrb	r2, [r7, #7]	@ zero_extendqisi2
 8121 066c 1B49     		ldr	r1, .L598
 8122 066e 8C20     		movs	r0, #140
 8123 0670 00FB02F2 		mul	r2, r0, r2
 8124 0674 0A44     		add	r2, r2, r1
 8125 0676 0232     		adds	r2, r2, #2
 8126 0678 1088     		ldrh	r0, [r2]
 8127 067a 184A     		ldr	r2, .L598
 8128 067c 8C21     		movs	r1, #140
 8129 067e 01FB03F3 		mul	r3, r1, r3
 8130 0682 1344     		add	r3, r3, r2
 8131 0684 6633     		adds	r3, r3, #102
 8132 0686 0246     		mov	r2, r0	@ movhi
 8133 0688 1A80     		strh	r2, [r3]	@ movhi
 813:..\..\..\HamFlyAPI\src/hamfly_qx_protocol.c ****                 QX_RxMsg(&QX_CommsPorts[port].RxMsg);
 8134              		.loc 1 813 0
 8135 068a FB79     		ldrb	r3, [r7, #7]	@ zero_extendqisi2
 8136 068c 8C22     		movs	r2, #140
 8137 068e 02FB03F3 		mul	r3, r2, r3
 8138 0692 124A     		ldr	r2, .L598
 8139 0694 1344     		add	r3, r3, r2
 8140 0696 0433     		adds	r3, r3, #4
 8141 0698 1846     		mov	r0, r3
 8142 069a FFF7FEFF 		bl	QX_RxMsg
 814:..\..\..\HamFlyAPI\src/hamfly_qx_protocol.c ****                 return 1;
 8143              		.loc 1 814 0
 8144 069e 0123     		movs	r3, #1
 8145 06a0 18E0     		b	.L589
 8146              	.L588:
 815:..\..\..\HamFlyAPI\src/hamfly_qx_protocol.c ****             } else {
 816:..\..\..\HamFlyAPI\src/hamfly_qx_protocol.c ****                 QX_CommsPorts[port].ChkSumFail_cnt++;
 8147              		.loc 1 816 0
 8148 06a2 FB79     		ldrb	r3, [r7, #7]	@ zero_extendqisi2
 8149 06a4 0D49     		ldr	r1, .L598
 8150 06a6 8C22     		movs	r2, #140
 8151 06a8 02FB03F2 		mul	r2, r2, r3
 8152 06ac 0A44     		add	r2, r2, r1
 8153 06ae 8032     		adds	r2, r2, #128
 8154 06b0 1268     		ldr	r2, [r2]
 8155 06b2 0132     		adds	r2, r2, #1
 8156 06b4 0949     		ldr	r1, .L598
 8157 06b6 8C20     		movs	r0, #140
 8158 06b8 00FB03F3 		mul	r3, r0, r3
 8159 06bc 0B44     		add	r3, r3, r1
 8160 06be 8033     		adds	r3, r3, #128
 8161 06c0 1A60     		str	r2, [r3]
 817:..\..\..\HamFlyAPI\src/hamfly_qx_protocol.c ****             }
 818:..\..\..\HamFlyAPI\src/hamfly_qx_protocol.c ****             break;
 8162              		.loc 1 818 0
 8163 06c2 06E0     		b	.L566
ARM GAS  C:\Users\JENNEW~1\AppData\Local\Temp\ccQ5uJSg.s 			page 161


 8164              	.L590:
 757:..\..\..\HamFlyAPI\src/hamfly_qx_protocol.c **** 
 8165              		.loc 1 757 0
 8166 06c4 00BF     		nop
 8167 06c6 04E0     		b	.L566
 8168              	.L591:
 772:..\..\..\HamFlyAPI\src/hamfly_qx_protocol.c **** 
 8169              		.loc 1 772 0
 8170 06c8 00BF     		nop
 8171 06ca 02E0     		b	.L566
 8172              	.L592:
 790:..\..\..\HamFlyAPI\src/hamfly_qx_protocol.c **** 
 8173              		.loc 1 790 0
 8174 06cc 00BF     		nop
 8175 06ce 00E0     		b	.L566
 8176              	.L593:
 800:..\..\..\HamFlyAPI\src/hamfly_qx_protocol.c **** 
 8177              		.loc 1 800 0
 8178 06d0 00BF     		nop
 8179              	.L566:
 819:..\..\..\HamFlyAPI\src/hamfly_qx_protocol.c ****     }
 820:..\..\..\HamFlyAPI\src/hamfly_qx_protocol.c ****     return 0;
 8180              		.loc 1 820 0
 8181 06d2 0023     		movs	r3, #0
 8182              	.L589:
 821:..\..\..\HamFlyAPI\src/hamfly_qx_protocol.c **** }
 8183              		.loc 1 821 0
 8184 06d4 1846     		mov	r0, r3
 8185 06d6 1437     		adds	r7, r7, #20
 8186              		.cfi_def_cfa_offset 12
 8187 06d8 BD46     		mov	sp, r7
 8188              		.cfi_def_cfa_register 13
 8189              		@ sp needed
 8190 06da 90BD     		pop	{r4, r7, pc}
 8191              	.L599:
 8192              		.align	2
 8193              	.L598:
 8194 06dc 00000000 		.word	QX_CommsPorts
 8195              		.cfi_endproc
 8196              	.LFE65:
 8197              		.size	QX_StreamRxCharSM, .-QX_StreamRxCharSM
 8198              		.text
 8199              	.Letext0:
 8200              		.file 2 "c:\\program files (x86)\\cypress\\psoc creator\\4.4\\psoc creator\\import\\gnu\\arm\\5.4.
 8201              		.file 3 "c:\\program files (x86)\\cypress\\psoc creator\\4.4\\psoc creator\\import\\gnu\\arm\\5.4.
 8202              		.file 4 "..\\..\\..\\HamFlyAPI\\src\\hamfly_qx_app.h"
 8203              		.file 5 "..\\..\\..\\HamFlyAPI\\src\\hamfly_qx_protocol.h"
 8204              		.section	.debug_info,"",%progbits
 8205              	.Ldebug_info0:
 8206 0000 FB1A0000 		.4byte	0x1afb
 8207 0004 0400     		.2byte	0x4
 8208 0006 00000000 		.4byte	.Ldebug_abbrev0
 8209 000a 04       		.byte	0x4
 8210 000b 01       		.uleb128 0x1
 8211 000c 42010000 		.4byte	.LASF223
 8212 0010 0C       		.byte	0xc
 8213 0011 A30D0000 		.4byte	.LASF224
ARM GAS  C:\Users\JENNEW~1\AppData\Local\Temp\ccQ5uJSg.s 			page 162


 8214 0015 FA0E0000 		.4byte	.LASF225
 8215 0019 00000000 		.4byte	.Ldebug_ranges0+0
 8216 001d 00000000 		.4byte	0
 8217 0021 00000000 		.4byte	.Ldebug_line0
 8218 0025 02       		.uleb128 0x2
 8219 0026 04       		.byte	0x4
 8220 0027 07       		.byte	0x7
 8221 0028 B4000000 		.4byte	.LASF0
 8222 002c 03       		.uleb128 0x3
 8223 002d 04       		.byte	0x4
 8224 002e 05       		.byte	0x5
 8225 002f 696E7400 		.ascii	"int\000"
 8226 0033 02       		.uleb128 0x2
 8227 0034 08       		.byte	0x8
 8228 0035 05       		.byte	0x5
 8229 0036 E1070000 		.4byte	.LASF1
 8230 003a 02       		.uleb128 0x2
 8231 003b 08       		.byte	0x8
 8232 003c 04       		.byte	0x4
 8233 003d 88090000 		.4byte	.LASF2
 8234 0041 04       		.uleb128 0x4
 8235 0042 2C090000 		.4byte	.LASF4
 8236 0046 02       		.byte	0x2
 8237 0047 1B       		.byte	0x1b
 8238 0048 4C000000 		.4byte	0x4c
 8239 004c 02       		.uleb128 0x2
 8240 004d 01       		.byte	0x1
 8241 004e 06       		.byte	0x6
 8242 004f 040E0000 		.4byte	.LASF3
 8243 0053 04       		.uleb128 0x4
 8244 0054 440B0000 		.4byte	.LASF5
 8245 0058 02       		.byte	0x2
 8246 0059 1D       		.byte	0x1d
 8247 005a 5E000000 		.4byte	0x5e
 8248 005e 02       		.uleb128 0x2
 8249 005f 01       		.byte	0x1
 8250 0060 08       		.byte	0x8
 8251 0061 CC0C0000 		.4byte	.LASF6
 8252 0065 04       		.uleb128 0x4
 8253 0066 69080000 		.4byte	.LASF7
 8254 006a 02       		.byte	0x2
 8255 006b 29       		.byte	0x29
 8256 006c 70000000 		.4byte	0x70
 8257 0070 02       		.uleb128 0x2
 8258 0071 02       		.byte	0x2
 8259 0072 05       		.byte	0x5
 8260 0073 560A0000 		.4byte	.LASF8
 8261 0077 04       		.uleb128 0x4
 8262 0078 FD030000 		.4byte	.LASF9
 8263 007c 02       		.byte	0x2
 8264 007d 2B       		.byte	0x2b
 8265 007e 82000000 		.4byte	0x82
 8266 0082 02       		.uleb128 0x2
 8267 0083 02       		.byte	0x2
 8268 0084 07       		.byte	0x7
 8269 0085 100E0000 		.4byte	.LASF10
 8270 0089 04       		.uleb128 0x4
ARM GAS  C:\Users\JENNEW~1\AppData\Local\Temp\ccQ5uJSg.s 			page 163


 8271 008a 0A010000 		.4byte	.LASF11
 8272 008e 02       		.byte	0x2
 8273 008f 3F       		.byte	0x3f
 8274 0090 94000000 		.4byte	0x94
 8275 0094 02       		.uleb128 0x2
 8276 0095 04       		.byte	0x4
 8277 0096 05       		.byte	0x5
 8278 0097 660A0000 		.4byte	.LASF12
 8279 009b 04       		.uleb128 0x4
 8280 009c DA0C0000 		.4byte	.LASF13
 8281 00a0 02       		.byte	0x2
 8282 00a1 41       		.byte	0x41
 8283 00a2 A6000000 		.4byte	0xa6
 8284 00a6 02       		.uleb128 0x2
 8285 00a7 04       		.byte	0x4
 8286 00a8 07       		.byte	0x7
 8287 00a9 C20B0000 		.4byte	.LASF14
 8288 00ad 02       		.uleb128 0x2
 8289 00ae 08       		.byte	0x8
 8290 00af 07       		.byte	0x7
 8291 00b0 BF030000 		.4byte	.LASF15
 8292 00b4 02       		.uleb128 0x2
 8293 00b5 04       		.byte	0x4
 8294 00b6 07       		.byte	0x7
 8295 00b7 A20B0000 		.4byte	.LASF16
 8296 00bb 02       		.uleb128 0x2
 8297 00bc 01       		.byte	0x1
 8298 00bd 08       		.byte	0x8
 8299 00be 9E060000 		.4byte	.LASF17
 8300 00c2 04       		.uleb128 0x4
 8301 00c3 0A030000 		.4byte	.LASF18
 8302 00c7 03       		.byte	0x3
 8303 00c8 14       		.byte	0x14
 8304 00c9 41000000 		.4byte	0x41
 8305 00cd 04       		.uleb128 0x4
 8306 00ce 43070000 		.4byte	.LASF19
 8307 00d2 03       		.byte	0x3
 8308 00d3 18       		.byte	0x18
 8309 00d4 53000000 		.4byte	0x53
 8310 00d8 04       		.uleb128 0x4
 8311 00d9 B7030000 		.4byte	.LASF20
 8312 00dd 03       		.byte	0x3
 8313 00de 20       		.byte	0x20
 8314 00df 65000000 		.4byte	0x65
 8315 00e3 04       		.uleb128 0x4
 8316 00e4 B1090000 		.4byte	.LASF21
 8317 00e8 03       		.byte	0x3
 8318 00e9 24       		.byte	0x24
 8319 00ea 77000000 		.4byte	0x77
 8320 00ee 04       		.uleb128 0x4
 8321 00ef 6A0C0000 		.4byte	.LASF22
 8322 00f3 03       		.byte	0x3
 8323 00f4 2C       		.byte	0x2c
 8324 00f5 89000000 		.4byte	0x89
 8325 00f9 04       		.uleb128 0x4
 8326 00fa 01030000 		.4byte	.LASF23
 8327 00fe 03       		.byte	0x3
ARM GAS  C:\Users\JENNEW~1\AppData\Local\Temp\ccQ5uJSg.s 			page 164


 8328 00ff 30       		.byte	0x30
 8329 0100 9B000000 		.4byte	0x9b
 8330 0104 05       		.uleb128 0x5
 8331 0105 01       		.byte	0x1
 8332 0106 5E000000 		.4byte	0x5e
 8333 010a 04       		.byte	0x4
 8334 010b 29       		.byte	0x29
 8335 010c 1D010000 		.4byte	0x11d
 8336 0110 06       		.uleb128 0x6
 8337 0111 130C0000 		.4byte	.LASF24
 8338 0115 00       		.byte	0
 8339 0116 06       		.uleb128 0x6
 8340 0117 F10B0000 		.4byte	.LASF25
 8341 011b 01       		.byte	0x1
 8342 011c 00       		.byte	0
 8343 011d 04       		.uleb128 0x4
 8344 011e B7070000 		.4byte	.LASF26
 8345 0122 04       		.byte	0x4
 8346 0123 2C       		.byte	0x2c
 8347 0124 04010000 		.4byte	0x104
 8348 0128 02       		.uleb128 0x2
 8349 0129 04       		.byte	0x4
 8350 012a 04       		.byte	0x4
 8351 012b 42030000 		.4byte	.LASF27
 8352 012f 05       		.uleb128 0x5
 8353 0130 01       		.byte	0x1
 8354 0131 5E000000 		.4byte	0x5e
 8355 0135 05       		.byte	0x5
 8356 0136 2F       		.byte	0x2f
 8357 0137 6C010000 		.4byte	0x16c
 8358 013b 06       		.uleb128 0x6
 8359 013c D5000000 		.4byte	.LASF28
 8360 0140 00       		.byte	0
 8361 0141 06       		.uleb128 0x6
 8362 0142 E4020000 		.4byte	.LASF29
 8363 0146 01       		.byte	0x1
 8364 0147 06       		.uleb128 0x6
 8365 0148 9F0A0000 		.4byte	.LASF30
 8366 014c 02       		.byte	0x2
 8367 014d 06       		.uleb128 0x6
 8368 014e B70A0000 		.4byte	.LASF31
 8369 0152 03       		.byte	0x3
 8370 0153 06       		.uleb128 0x6
 8371 0154 05060000 		.4byte	.LASF32
 8372 0158 04       		.byte	0x4
 8373 0159 06       		.uleb128 0x6
 8374 015a 1D060000 		.4byte	.LASF33
 8375 015e 05       		.byte	0x5
 8376 015f 06       		.uleb128 0x6
 8377 0160 4C0E0000 		.4byte	.LASF34
 8378 0164 06       		.byte	0x6
 8379 0165 06       		.uleb128 0x6
 8380 0166 AB0B0000 		.4byte	.LASF35
 8381 016a 07       		.byte	0x7
 8382 016b 00       		.byte	0
 8383 016c 04       		.uleb128 0x4
 8384 016d A9040000 		.4byte	.LASF36
ARM GAS  C:\Users\JENNEW~1\AppData\Local\Temp\ccQ5uJSg.s 			page 165


 8385 0171 05       		.byte	0x5
 8386 0172 38       		.byte	0x38
 8387 0173 2F010000 		.4byte	0x12f
 8388 0177 05       		.uleb128 0x5
 8389 0178 01       		.byte	0x1
 8390 0179 5E000000 		.4byte	0x5e
 8391 017d 05       		.byte	0x5
 8392 017e 3A       		.byte	0x3a
 8393 017f A2010000 		.4byte	0x1a2
 8394 0183 06       		.uleb128 0x6
 8395 0184 EC000000 		.4byte	.LASF37
 8396 0188 00       		.byte	0
 8397 0189 06       		.uleb128 0x6
 8398 018a 920C0000 		.4byte	.LASF38
 8399 018e 01       		.byte	0x1
 8400 018f 06       		.uleb128 0x6
 8401 0190 F30D0000 		.4byte	.LASF39
 8402 0194 02       		.byte	0x2
 8403 0195 06       		.uleb128 0x6
 8404 0196 050D0000 		.4byte	.LASF40
 8405 019a 03       		.byte	0x3
 8406 019b 06       		.uleb128 0x6
 8407 019c EA060000 		.4byte	.LASF41
 8408 01a0 0A       		.byte	0xa
 8409 01a1 00       		.byte	0
 8410 01a2 04       		.uleb128 0x4
 8411 01a3 48030000 		.4byte	.LASF42
 8412 01a7 05       		.byte	0x5
 8413 01a8 40       		.byte	0x40
 8414 01a9 77010000 		.4byte	0x177
 8415 01ad 05       		.uleb128 0x5
 8416 01ae 01       		.byte	0x1
 8417 01af 5E000000 		.4byte	0x5e
 8418 01b3 05       		.byte	0x5
 8419 01b4 42       		.byte	0x42
 8420 01b5 D2010000 		.4byte	0x1d2
 8421 01b9 06       		.uleb128 0x6
 8422 01ba BE040000 		.4byte	.LASF43
 8423 01be 00       		.byte	0
 8424 01bf 06       		.uleb128 0x6
 8425 01c0 11080000 		.4byte	.LASF44
 8426 01c4 01       		.byte	0x1
 8427 01c5 06       		.uleb128 0x6
 8428 01c6 2C010000 		.4byte	.LASF45
 8429 01ca 02       		.byte	0x2
 8430 01cb 06       		.uleb128 0x6
 8431 01cc 38000000 		.4byte	.LASF46
 8432 01d0 03       		.byte	0x3
 8433 01d1 00       		.byte	0
 8434 01d2 04       		.uleb128 0x4
 8435 01d3 5C030000 		.4byte	.LASF47
 8436 01d7 05       		.byte	0x5
 8437 01d8 47       		.byte	0x47
 8438 01d9 AD010000 		.4byte	0x1ad
 8439 01dd 05       		.uleb128 0x5
 8440 01de 01       		.byte	0x1
 8441 01df 5E000000 		.4byte	0x5e
ARM GAS  C:\Users\JENNEW~1\AppData\Local\Temp\ccQ5uJSg.s 			page 166


 8442 01e3 05       		.byte	0x5
 8443 01e4 49       		.byte	0x49
 8444 01e5 0E020000 		.4byte	0x20e
 8445 01e9 06       		.uleb128 0x6
 8446 01ea BB080000 		.4byte	.LASF48
 8447 01ee 00       		.byte	0
 8448 01ef 06       		.uleb128 0x6
 8449 01f0 E3030000 		.4byte	.LASF49
 8450 01f4 01       		.byte	0x1
 8451 01f5 06       		.uleb128 0x6
 8452 01f6 81060000 		.4byte	.LASF50
 8453 01fa 02       		.byte	0x2
 8454 01fb 06       		.uleb128 0x6
 8455 01fc F7010000 		.4byte	.LASF51
 8456 0200 03       		.byte	0x3
 8457 0201 06       		.uleb128 0x6
 8458 0202 00000000 		.4byte	.LASF52
 8459 0206 04       		.byte	0x4
 8460 0207 06       		.uleb128 0x6
 8461 0208 D40A0000 		.4byte	.LASF53
 8462 020c 05       		.byte	0x5
 8463 020d 00       		.byte	0
 8464 020e 04       		.uleb128 0x4
 8465 020f 7A020000 		.4byte	.LASF54
 8466 0213 05       		.byte	0x5
 8467 0214 50       		.byte	0x50
 8468 0215 DD010000 		.4byte	0x1dd
 8469 0219 05       		.uleb128 0x5
 8470 021a 01       		.byte	0x1
 8471 021b 5E000000 		.4byte	0x5e
 8472 021f 05       		.byte	0x5
 8473 0220 52       		.byte	0x52
 8474 0221 5C020000 		.4byte	0x25c
 8475 0225 06       		.uleb128 0x6
 8476 0226 EC010000 		.4byte	.LASF55
 8477 022a 00       		.byte	0
 8478 022b 06       		.uleb128 0x6
 8479 022c 7E0A0000 		.4byte	.LASF56
 8480 0230 01       		.byte	0x1
 8481 0231 06       		.uleb128 0x6
 8482 0232 64000000 		.4byte	.LASF57
 8483 0236 02       		.byte	0x2
 8484 0237 06       		.uleb128 0x6
 8485 0238 B00E0000 		.4byte	.LASF58
 8486 023c 03       		.byte	0x3
 8487 023d 06       		.uleb128 0x6
 8488 023e 120B0000 		.4byte	.LASF59
 8489 0242 04       		.byte	0x4
 8490 0243 06       		.uleb128 0x6
 8491 0244 090A0000 		.4byte	.LASF60
 8492 0248 05       		.byte	0x5
 8493 0249 06       		.uleb128 0x6
 8494 024a 720C0000 		.4byte	.LASF61
 8495 024e 06       		.byte	0x6
 8496 024f 06       		.uleb128 0x6
 8497 0250 69090000 		.4byte	.LASF62
 8498 0254 07       		.byte	0x7
ARM GAS  C:\Users\JENNEW~1\AppData\Local\Temp\ccQ5uJSg.s 			page 167


 8499 0255 06       		.uleb128 0x6
 8500 0256 11050000 		.4byte	.LASF63
 8501 025a 08       		.byte	0x8
 8502 025b 00       		.byte	0
 8503 025c 04       		.uleb128 0x4
 8504 025d 69050000 		.4byte	.LASF64
 8505 0261 05       		.byte	0x5
 8506 0262 5C       		.byte	0x5c
 8507 0263 19020000 		.4byte	0x219
 8508 0267 07       		.uleb128 0x7
 8509 0268 07       		.byte	0x7
 8510 0269 05       		.byte	0x5
 8511 026a 61       		.byte	0x61
 8512 026b C4020000 		.4byte	0x2c4
 8513 026f 08       		.uleb128 0x8
 8514 0270 EC090000 		.4byte	.LASF65
 8515 0274 05       		.byte	0x5
 8516 0275 62       		.byte	0x62
 8517 0276 CD000000 		.4byte	0xcd
 8518 027a 00       		.byte	0
 8519 027b 08       		.uleb128 0x8
 8520 027c BF020000 		.4byte	.LASF66
 8521 0280 05       		.byte	0x5
 8522 0281 63       		.byte	0x63
 8523 0282 CD000000 		.4byte	0xcd
 8524 0286 01       		.byte	0x1
 8525 0287 08       		.uleb128 0x8
 8526 0288 870D0000 		.4byte	.LASF67
 8527 028c 05       		.byte	0x5
 8528 028d 64       		.byte	0x64
 8529 028e CD000000 		.4byte	0xcd
 8530 0292 02       		.byte	0x2
 8531 0293 08       		.uleb128 0x8
 8532 0294 8A030000 		.4byte	.LASF68
 8533 0298 05       		.byte	0x5
 8534 0299 65       		.byte	0x65
 8535 029a CD000000 		.4byte	0xcd
 8536 029e 03       		.byte	0x3
 8537 029f 08       		.uleb128 0x8
 8538 02a0 300A0000 		.4byte	.LASF69
 8539 02a4 05       		.byte	0x5
 8540 02a5 66       		.byte	0x66
 8541 02a6 A2010000 		.4byte	0x1a2
 8542 02aa 04       		.byte	0x4
 8543 02ab 08       		.uleb128 0x8
 8544 02ac D6020000 		.4byte	.LASF70
 8545 02b0 05       		.byte	0x5
 8546 02b1 67       		.byte	0x67
 8547 02b2 A2010000 		.4byte	0x1a2
 8548 02b6 05       		.byte	0x5
 8549 02b7 08       		.uleb128 0x8
 8550 02b8 C9020000 		.4byte	.LASF71
 8551 02bc 05       		.byte	0x5
 8552 02bd 68       		.byte	0x68
 8553 02be A2010000 		.4byte	0x1a2
 8554 02c2 06       		.byte	0x6
 8555 02c3 00       		.byte	0
ARM GAS  C:\Users\JENNEW~1\AppData\Local\Temp\ccQ5uJSg.s 			page 168


 8556 02c4 04       		.uleb128 0x4
 8557 02c5 010C0000 		.4byte	.LASF72
 8558 02c9 05       		.byte	0x5
 8559 02ca 69       		.byte	0x69
 8560 02cb 67020000 		.4byte	0x267
 8561 02cf 07       		.uleb128 0x7
 8562 02d0 14       		.byte	0x14
 8563 02d1 05       		.byte	0x5
 8564 02d2 6B       		.byte	0x6b
 8565 02d3 80030000 		.4byte	0x380
 8566 02d7 08       		.uleb128 0x8
 8567 02d8 11030000 		.4byte	.LASF73
 8568 02dc 05       		.byte	0x5
 8569 02dd 6C       		.byte	0x6c
 8570 02de E3000000 		.4byte	0xe3
 8571 02e2 00       		.byte	0
 8572 02e3 08       		.uleb128 0x8
 8573 02e4 F5080000 		.4byte	.LASF74
 8574 02e8 05       		.byte	0x5
 8575 02e9 6D       		.byte	0x6d
 8576 02ea F9000000 		.4byte	0xf9
 8577 02ee 04       		.byte	0x4
 8578 02ef 08       		.uleb128 0x8
 8579 02f0 A7070000 		.4byte	.LASF75
 8580 02f4 05       		.byte	0x5
 8581 02f5 6E       		.byte	0x6e
 8582 02f6 D2010000 		.4byte	0x1d2
 8583 02fa 08       		.byte	0x8
 8584 02fb 08       		.uleb128 0x8
 8585 02fc 690D0000 		.4byte	.LASF76
 8586 0300 05       		.byte	0x5
 8587 0301 6F       		.byte	0x6f
 8588 0302 CD000000 		.4byte	0xcd
 8589 0306 09       		.byte	0x9
 8590 0307 08       		.uleb128 0x8
 8591 0308 08050000 		.4byte	.LASF77
 8592 030c 05       		.byte	0x5
 8593 030d 70       		.byte	0x70
 8594 030e CD000000 		.4byte	0xcd
 8595 0312 0A       		.byte	0xa
 8596 0313 08       		.uleb128 0x8
 8597 0314 EC090000 		.4byte	.LASF65
 8598 0318 05       		.byte	0x5
 8599 0319 71       		.byte	0x71
 8600 031a CD000000 		.4byte	0xcd
 8601 031e 0B       		.byte	0xb
 8602 031f 08       		.uleb128 0x8
 8603 0320 1D070000 		.4byte	.LASF78
 8604 0324 05       		.byte	0x5
 8605 0325 72       		.byte	0x72
 8606 0326 CD000000 		.4byte	0xcd
 8607 032a 0C       		.byte	0xc
 8608 032b 08       		.uleb128 0x8
 8609 032c 27070000 		.4byte	.LASF79
 8610 0330 05       		.byte	0x5
 8611 0331 73       		.byte	0x73
 8612 0332 CD000000 		.4byte	0xcd
ARM GAS  C:\Users\JENNEW~1\AppData\Local\Temp\ccQ5uJSg.s 			page 169


 8613 0336 0D       		.byte	0xd
 8614 0337 08       		.uleb128 0x8
 8615 0338 870D0000 		.4byte	.LASF67
 8616 033c 05       		.byte	0x5
 8617 033d 74       		.byte	0x74
 8618 033e CD000000 		.4byte	0xcd
 8619 0342 0E       		.byte	0xe
 8620 0343 08       		.uleb128 0x8
 8621 0344 8A030000 		.4byte	.LASF68
 8622 0348 05       		.byte	0x5
 8623 0349 75       		.byte	0x75
 8624 034a CD000000 		.4byte	0xcd
 8625 034e 0F       		.byte	0xf
 8626 034f 08       		.uleb128 0x8
 8627 0350 260C0000 		.4byte	.LASF80
 8628 0354 05       		.byte	0x5
 8629 0355 76       		.byte	0x76
 8630 0356 A2010000 		.4byte	0x1a2
 8631 035a 10       		.byte	0x10
 8632 035b 08       		.uleb128 0x8
 8633 035c 300A0000 		.4byte	.LASF69
 8634 0360 05       		.byte	0x5
 8635 0361 77       		.byte	0x77
 8636 0362 A2010000 		.4byte	0x1a2
 8637 0366 11       		.byte	0x11
 8638 0367 08       		.uleb128 0x8
 8639 0368 D6020000 		.4byte	.LASF70
 8640 036c 05       		.byte	0x5
 8641 036d 78       		.byte	0x78
 8642 036e A2010000 		.4byte	0x1a2
 8643 0372 12       		.byte	0x12
 8644 0373 08       		.uleb128 0x8
 8645 0374 C9020000 		.4byte	.LASF71
 8646 0378 05       		.byte	0x5
 8647 0379 79       		.byte	0x79
 8648 037a A2010000 		.4byte	0x1a2
 8649 037e 13       		.byte	0x13
 8650 037f 00       		.byte	0
 8651 0380 04       		.uleb128 0x4
 8652 0381 A1050000 		.4byte	.LASF81
 8653 0385 05       		.byte	0x5
 8654 0386 7A       		.byte	0x7a
 8655 0387 CF020000 		.4byte	0x2cf
 8656 038b 07       		.uleb128 0x7
 8657 038c 74       		.byte	0x74
 8658 038d 05       		.byte	0x5
 8659 038e 7C       		.byte	0x7c
 8660 038f 3C040000 		.4byte	0x43c
 8661 0393 08       		.uleb128 0x8
 8662 0394 EF070000 		.4byte	.LASF82
 8663 0398 05       		.byte	0x5
 8664 0399 7D       		.byte	0x7d
 8665 039a 0E020000 		.4byte	0x20e
 8666 039e 00       		.byte	0
 8667 039f 08       		.uleb128 0x8
 8668 03a0 54060000 		.4byte	.LASF83
 8669 03a4 05       		.byte	0x5
ARM GAS  C:\Users\JENNEW~1\AppData\Local\Temp\ccQ5uJSg.s 			page 170


 8670 03a5 7E       		.byte	0x7e
 8671 03a6 CD000000 		.4byte	0xcd
 8672 03aa 01       		.byte	0x1
 8673 03ab 08       		.uleb128 0x8
 8674 03ac E5080000 		.4byte	.LASF84
 8675 03b0 05       		.byte	0x5
 8676 03b1 7F       		.byte	0x7f
 8677 03b2 CD000000 		.4byte	0xcd
 8678 03b6 02       		.byte	0x2
 8679 03b7 08       		.uleb128 0x8
 8680 03b8 6F0A0000 		.4byte	.LASF85
 8681 03bc 05       		.byte	0x5
 8682 03bd 80       		.byte	0x80
 8683 03be CD000000 		.4byte	0xcd
 8684 03c2 03       		.byte	0x3
 8685 03c3 08       		.uleb128 0x8
 8686 03c4 35060000 		.4byte	.LASF86
 8687 03c8 05       		.byte	0x5
 8688 03c9 81       		.byte	0x81
 8689 03ca CD000000 		.4byte	0xcd
 8690 03ce 04       		.byte	0x4
 8691 03cf 08       		.uleb128 0x8
 8692 03d0 A3090000 		.4byte	.LASF87
 8693 03d4 05       		.byte	0x5
 8694 03d5 82       		.byte	0x82
 8695 03d6 CD000000 		.4byte	0xcd
 8696 03da 05       		.byte	0x5
 8697 03db 08       		.uleb128 0x8
 8698 03dc E1060000 		.4byte	.LASF88
 8699 03e0 05       		.byte	0x5
 8700 03e1 83       		.byte	0x83
 8701 03e2 1D010000 		.4byte	0x11d
 8702 03e6 06       		.byte	0x6
 8703 03e7 08       		.uleb128 0x8
 8704 03e8 1B030000 		.4byte	.LASF89
 8705 03ec 05       		.byte	0x5
 8706 03ed 84       		.byte	0x84
 8707 03ee 80030000 		.4byte	0x380
 8708 03f2 08       		.byte	0x8
 8709 03f3 08       		.uleb128 0x8
 8710 03f4 C6060000 		.4byte	.LASF90
 8711 03f8 05       		.byte	0x5
 8712 03f9 85       		.byte	0x85
 8713 03fa 3C040000 		.4byte	0x43c
 8714 03fe 1C       		.byte	0x1c
 8715 03ff 08       		.uleb128 0x8
 8716 0400 08040000 		.4byte	.LASF91
 8717 0404 05       		.byte	0x5
 8718 0405 86       		.byte	0x86
 8719 0406 E3000000 		.4byte	0xe3
 8720 040a 62       		.byte	0x62
 8721 040b 08       		.uleb128 0x8
 8722 040c C1000000 		.4byte	.LASF92
 8723 0410 05       		.byte	0x5
 8724 0411 87       		.byte	0x87
 8725 0412 4C040000 		.4byte	0x44c
 8726 0416 64       		.byte	0x64
ARM GAS  C:\Users\JENNEW~1\AppData\Local\Temp\ccQ5uJSg.s 			page 171


 8727 0417 08       		.uleb128 0x8
 8728 0418 760B0000 		.4byte	.LASF93
 8729 041c 05       		.byte	0x5
 8730 041d 88       		.byte	0x88
 8731 041e 4C040000 		.4byte	0x44c
 8732 0422 68       		.byte	0x68
 8733 0423 08       		.uleb128 0x8
 8734 0424 440A0000 		.4byte	.LASF94
 8735 0428 05       		.byte	0x5
 8736 0429 89       		.byte	0x89
 8737 042a 4C040000 		.4byte	0x44c
 8738 042e 6C       		.byte	0x6c
 8739 042f 08       		.uleb128 0x8
 8740 0430 600D0000 		.4byte	.LASF95
 8741 0434 05       		.byte	0x5
 8742 0435 8A       		.byte	0x8a
 8743 0436 4C040000 		.4byte	0x44c
 8744 043a 70       		.byte	0x70
 8745 043b 00       		.byte	0
 8746 043c 09       		.uleb128 0x9
 8747 043d CD000000 		.4byte	0xcd
 8748 0441 4C040000 		.4byte	0x44c
 8749 0445 0A       		.uleb128 0xa
 8750 0446 B4000000 		.4byte	0xb4
 8751 044a 44       		.byte	0x44
 8752 044b 00       		.byte	0
 8753 044c 0B       		.uleb128 0xb
 8754 044d 04       		.byte	0x4
 8755 044e CD000000 		.4byte	0xcd
 8756 0452 04       		.uleb128 0x4
 8757 0453 9A0D0000 		.4byte	.LASF96
 8758 0457 05       		.byte	0x5
 8759 0458 8B       		.byte	0x8b
 8760 0459 8B030000 		.4byte	0x38b
 8761 045d 07       		.uleb128 0x7
 8762 045e 8C       		.byte	0x8c
 8763 045f 05       		.byte	0x5
 8764 0460 8D       		.byte	0x8d
 8765 0461 C6040000 		.4byte	0x4c6
 8766 0465 08       		.uleb128 0x8
 8767 0466 30000000 		.4byte	.LASF97
 8768 046a 05       		.byte	0x5
 8769 046b 8E       		.byte	0x8e
 8770 046c 6C010000 		.4byte	0x16c
 8771 0470 00       		.byte	0
 8772 0471 08       		.uleb128 0x8
 8773 0472 B7040000 		.4byte	.LASF98
 8774 0476 05       		.byte	0x5
 8775 0477 8F       		.byte	0x8f
 8776 0478 E3000000 		.4byte	0xe3
 8777 047c 02       		.byte	0x2
 8778 047d 08       		.uleb128 0x8
 8779 047e 460D0000 		.4byte	.LASF99
 8780 0482 05       		.byte	0x5
 8781 0483 90       		.byte	0x90
 8782 0484 52040000 		.4byte	0x452
 8783 0488 04       		.byte	0x4
ARM GAS  C:\Users\JENNEW~1\AppData\Local\Temp\ccQ5uJSg.s 			page 172


 8784 0489 08       		.uleb128 0x8
 8785 048a D90E0000 		.4byte	.LASF100
 8786 048e 05       		.byte	0x5
 8787 048f 91       		.byte	0x91
 8788 0490 F9000000 		.4byte	0xf9
 8789 0494 78       		.byte	0x78
 8790 0495 08       		.uleb128 0x8
 8791 0496 A8020000 		.4byte	.LASF101
 8792 049a 05       		.byte	0x5
 8793 049b 92       		.byte	0x92
 8794 049c CD000000 		.4byte	0xcd
 8795 04a0 7C       		.byte	0x7c
 8796 04a1 08       		.uleb128 0x8
 8797 04a2 98070000 		.4byte	.LASF102
 8798 04a6 05       		.byte	0x5
 8799 04a7 93       		.byte	0x93
 8800 04a8 F9000000 		.4byte	0xf9
 8801 04ac 80       		.byte	0x80
 8802 04ad 08       		.uleb128 0x8
 8803 04ae CF0E0000 		.4byte	.LASF103
 8804 04b2 05       		.byte	0x5
 8805 04b3 94       		.byte	0x94
 8806 04b4 F9000000 		.4byte	0xf9
 8807 04b8 84       		.byte	0x84
 8808 04b9 08       		.uleb128 0x8
 8809 04ba F4050000 		.4byte	.LASF104
 8810 04be 05       		.byte	0x5
 8811 04bf 95       		.byte	0x95
 8812 04c0 F9000000 		.4byte	0xf9
 8813 04c4 88       		.byte	0x88
 8814 04c5 00       		.byte	0
 8815 04c6 04       		.uleb128 0x4
 8816 04c7 62040000 		.4byte	.LASF105
 8817 04cb 05       		.byte	0x5
 8818 04cc 96       		.byte	0x96
 8819 04cd 5D040000 		.4byte	0x45d
 8820 04d1 07       		.uleb128 0x7
 8821 04d2 08       		.byte	0x8
 8822 04d3 05       		.byte	0x5
 8823 04d4 98       		.byte	0x98
 8824 04d5 F2040000 		.4byte	0x4f2
 8825 04d9 08       		.uleb128 0x8
 8826 04da 840E0000 		.4byte	.LASF106
 8827 04de 05       		.byte	0x5
 8828 04df 99       		.byte	0x99
 8829 04e0 A2010000 		.4byte	0x1a2
 8830 04e4 00       		.byte	0
 8831 04e5 08       		.uleb128 0x8
 8832 04e6 2A020000 		.4byte	.LASF107
 8833 04ea 05       		.byte	0x5
 8834 04eb 9A       		.byte	0x9a
 8835 04ec 07050000 		.4byte	0x507
 8836 04f0 04       		.byte	0x4
 8837 04f1 00       		.byte	0
 8838 04f2 0C       		.uleb128 0xc
 8839 04f3 4C040000 		.4byte	0x44c
 8840 04f7 01050000 		.4byte	0x501
ARM GAS  C:\Users\JENNEW~1\AppData\Local\Temp\ccQ5uJSg.s 			page 173


 8841 04fb 0D       		.uleb128 0xd
 8842 04fc 01050000 		.4byte	0x501
 8843 0500 00       		.byte	0
 8844 0501 0B       		.uleb128 0xb
 8845 0502 04       		.byte	0x4
 8846 0503 52040000 		.4byte	0x452
 8847 0507 0B       		.uleb128 0xb
 8848 0508 04       		.byte	0x4
 8849 0509 F2040000 		.4byte	0x4f2
 8850 050d 04       		.uleb128 0x4
 8851 050e 20010000 		.4byte	.LASF108
 8852 0512 05       		.byte	0x5
 8853 0513 9B       		.byte	0x9b
 8854 0514 D1040000 		.4byte	0x4d1
 8855 0518 07       		.uleb128 0x7
 8856 0519 08       		.byte	0x8
 8857 051a 05       		.byte	0x5
 8858 051b 9D       		.byte	0x9d
 8859 051c 39050000 		.4byte	0x539
 8860 0520 08       		.uleb128 0x8
 8861 0521 840E0000 		.4byte	.LASF106
 8862 0525 05       		.byte	0x5
 8863 0526 9E       		.byte	0x9e
 8864 0527 A2010000 		.4byte	0x1a2
 8865 052b 00       		.byte	0
 8866 052c 08       		.uleb128 0x8
 8867 052d 2A020000 		.4byte	.LASF107
 8868 0531 05       		.byte	0x5
 8869 0532 9F       		.byte	0x9f
 8870 0533 07050000 		.4byte	0x507
 8871 0537 04       		.byte	0x4
 8872 0538 00       		.byte	0
 8873 0539 04       		.uleb128 0x4
 8874 053a 380B0000 		.4byte	.LASF109
 8875 053e 05       		.byte	0x5
 8876 053f A0       		.byte	0xa0
 8877 0540 18050000 		.4byte	0x518
 8878 0544 05       		.uleb128 0x5
 8879 0545 01       		.byte	0x1
 8880 0546 5E000000 		.4byte	0x5e
 8881 054a 05       		.byte	0x5
 8882 054b C4       		.byte	0xc4
 8883 054c 63050000 		.4byte	0x563
 8884 0550 06       		.uleb128 0x6
 8885 0551 1D000000 		.4byte	.LASF110
 8886 0555 00       		.byte	0
 8887 0556 06       		.uleb128 0x6
 8888 0557 30040000 		.4byte	.LASF111
 8889 055b 01       		.byte	0x1
 8890 055c 06       		.uleb128 0x6
 8891 055d CF0D0000 		.4byte	.LASF112
 8892 0561 02       		.byte	0x2
 8893 0562 00       		.byte	0
 8894 0563 04       		.uleb128 0x4
 8895 0564 91050000 		.4byte	.LASF113
 8896 0568 05       		.byte	0x5
 8897 0569 C8       		.byte	0xc8
ARM GAS  C:\Users\JENNEW~1\AppData\Local\Temp\ccQ5uJSg.s 			page 174


 8898 056a 44050000 		.4byte	0x544
 8899 056e 02       		.uleb128 0x2
 8900 056f 08       		.byte	0x8
 8901 0570 04       		.byte	0x4
 8902 0571 610E0000 		.4byte	.LASF114
 8903 0575 0E       		.uleb128 0xe
 8904 0576 4C0D0000 		.4byte	.LASF123
 8905 057a 01       		.byte	0x1
 8906 057b 5D       		.byte	0x5d
 8907 057c 00000000 		.4byte	.LFB0
 8908 0580 1C000000 		.4byte	.LFE0-.LFB0
 8909 0584 01       		.uleb128 0x1
 8910 0585 9C       		.byte	0x9c
 8911 0586 97050000 		.4byte	0x597
 8912 058a 0F       		.uleb128 0xf
 8913 058b 7000     		.ascii	"p\000"
 8914 058d 01       		.byte	0x1
 8915 058e 5D       		.byte	0x5d
 8916 058f 4C040000 		.4byte	0x44c
 8917 0593 02       		.uleb128 0x2
 8918 0594 91       		.byte	0x91
 8919 0595 74       		.sleb128 -12
 8920 0596 00       		.byte	0
 8921 0597 10       		.uleb128 0x10
 8922 0598 67070000 		.4byte	.LASF115
 8923 059c 01       		.byte	0x1
 8924 059d 5E       		.byte	0x5e
 8925 059e 00000000 		.4byte	.LFB1
 8926 05a2 1C000000 		.4byte	.LFE1-.LFB1
 8927 05a6 01       		.uleb128 0x1
 8928 05a7 9C       		.byte	0x9c
 8929 05a8 11       		.uleb128 0x11
 8930 05a9 CD060000 		.4byte	.LASF119
 8931 05ad 01       		.byte	0x1
 8932 05ae 5F       		.byte	0x5f
 8933 05af BD050000 		.4byte	0x5bd
 8934 05b3 00000000 		.4byte	.LFB2
 8935 05b7 14000000 		.4byte	.LFE2-.LFB2
 8936 05bb 01       		.uleb128 0x1
 8937 05bc 9C       		.byte	0x9c
 8938 05bd 0B       		.uleb128 0xb
 8939 05be 04       		.byte	0x4
 8940 05bf C3050000 		.4byte	0x5c3
 8941 05c3 12       		.uleb128 0x12
 8942 05c4 CD000000 		.4byte	0xcd
 8943 05c8 10       		.uleb128 0x10
 8944 05c9 F3090000 		.4byte	.LASF116
 8945 05cd 01       		.byte	0x1
 8946 05ce 60       		.byte	0x60
 8947 05cf 00000000 		.4byte	.LFB3
 8948 05d3 18000000 		.4byte	.LFE3-.LFB3
 8949 05d7 01       		.uleb128 0x1
 8950 05d8 9C       		.byte	0x9c
 8951 05d9 10       		.uleb128 0x10
 8952 05da 5C0B0000 		.4byte	.LASF117
 8953 05de 01       		.byte	0x1
 8954 05df 61       		.byte	0x61
ARM GAS  C:\Users\JENNEW~1\AppData\Local\Temp\ccQ5uJSg.s 			page 175


 8955 05e0 00000000 		.4byte	.LFB4
 8956 05e4 18000000 		.4byte	.LFE4-.LFB4
 8957 05e8 01       		.uleb128 0x1
 8958 05e9 9C       		.byte	0x9c
 8959 05ea 10       		.uleb128 0x10
 8960 05eb B20C0000 		.4byte	.LASF118
 8961 05ef 01       		.byte	0x1
 8962 05f0 62       		.byte	0x62
 8963 05f1 00000000 		.4byte	.LFB5
 8964 05f5 18000000 		.4byte	.LFE5-.LFB5
 8965 05f9 01       		.uleb128 0x1
 8966 05fa 9C       		.byte	0x9c
 8967 05fb 11       		.uleb128 0x11
 8968 05fc 43060000 		.4byte	.LASF120
 8969 0600 01       		.byte	0x1
 8970 0601 63       		.byte	0x63
 8971 0602 63050000 		.4byte	0x563
 8972 0606 00000000 		.4byte	.LFB6
 8973 060a 14000000 		.4byte	.LFE6-.LFB6
 8974 060e 01       		.uleb128 0x1
 8975 060f 9C       		.byte	0x9c
 8976 0610 10       		.uleb128 0x10
 8977 0611 6A030000 		.4byte	.LASF121
 8978 0615 01       		.byte	0x1
 8979 0616 65       		.byte	0x65
 8980 0617 00000000 		.4byte	.LFB7
 8981 061b 2C000000 		.4byte	.LFE7-.LFB7
 8982 061f 01       		.uleb128 0x1
 8983 0620 9C       		.byte	0x9c
 8984 0621 10       		.uleb128 0x10
 8985 0622 2F050000 		.4byte	.LASF122
 8986 0626 01       		.byte	0x1
 8987 0627 69       		.byte	0x69
 8988 0628 00000000 		.4byte	.LFB8
 8989 062c 1C000000 		.4byte	.LFE8-.LFB8
 8990 0630 01       		.uleb128 0x1
 8991 0631 9C       		.byte	0x9c
 8992 0632 13       		.uleb128 0x13
 8993 0633 08070000 		.4byte	.LASF124
 8994 0637 01       		.byte	0x1
 8995 0638 6B       		.byte	0x6b
 8996 0639 00000000 		.4byte	.LFB9
 8997 063d E8000000 		.4byte	.LFE9-.LFB9
 8998 0641 01       		.uleb128 0x1
 8999 0642 9C       		.byte	0x9c
 9000 0643 86060000 		.4byte	0x686
 9001 0647 0F       		.uleb128 0xf
 9002 0648 7600     		.ascii	"v\000"
 9003 064a 01       		.byte	0x1
 9004 064b 6B       		.byte	0x6b
 9005 064c 86060000 		.4byte	0x686
 9006 0650 02       		.uleb128 0x2
 9007 0651 91       		.byte	0x91
 9008 0652 5C       		.sleb128 -36
 9009 0653 0F       		.uleb128 0xf
 9010 0654 6E00     		.ascii	"n\000"
 9011 0656 01       		.byte	0x1
ARM GAS  C:\Users\JENNEW~1\AppData\Local\Temp\ccQ5uJSg.s 			page 176


 9012 0657 6B       		.byte	0x6b
 9013 0658 F9000000 		.4byte	0xf9
 9014 065c 02       		.uleb128 0x2
 9015 065d 91       		.byte	0x91
 9016 065e 58       		.sleb128 -40
 9017 065f 14       		.uleb128 0x14
 9018 0660 1E0D0000 		.4byte	.LASF125
 9019 0664 01       		.byte	0x1
 9020 0665 6B       		.byte	0x6b
 9021 0666 28010000 		.4byte	0x128
 9022 066a 02       		.uleb128 0x2
 9023 066b 91       		.byte	0x91
 9024 066c 54       		.sleb128 -44
 9025 066d 15       		.uleb128 0x15
 9026 066e 0E000000 		.4byte	.LBB2
 9027 0672 C4000000 		.4byte	.LBE2-.LBB2
 9028 0676 16       		.uleb128 0x16
 9029 0677 F40E0000 		.4byte	.LASF127
 9030 067b 01       		.byte	0x1
 9031 067c 6C       		.byte	0x6c
 9032 067d EE000000 		.4byte	0xee
 9033 0681 02       		.uleb128 0x2
 9034 0682 91       		.byte	0x91
 9035 0683 64       		.sleb128 -28
 9036 0684 00       		.byte	0
 9037 0685 00       		.byte	0
 9038 0686 0B       		.uleb128 0xb
 9039 0687 04       		.byte	0x4
 9040 0688 28010000 		.4byte	0x128
 9041 068c 13       		.uleb128 0x13
 9042 068d 2C030000 		.4byte	.LASF126
 9043 0691 01       		.byte	0x1
 9044 0692 6E       		.byte	0x6e
 9045 0693 00000000 		.4byte	.LFB10
 9046 0697 C8000000 		.4byte	.LFE10-.LFB10
 9047 069b 01       		.uleb128 0x1
 9048 069c 9C       		.byte	0x9c
 9049 069d E0060000 		.4byte	0x6e0
 9050 06a1 0F       		.uleb128 0xf
 9051 06a2 7600     		.ascii	"v\000"
 9052 06a4 01       		.byte	0x1
 9053 06a5 6E       		.byte	0x6e
 9054 06a6 86060000 		.4byte	0x686
 9055 06aa 02       		.uleb128 0x2
 9056 06ab 91       		.byte	0x91
 9057 06ac 5C       		.sleb128 -36
 9058 06ad 0F       		.uleb128 0xf
 9059 06ae 6E00     		.ascii	"n\000"
 9060 06b0 01       		.byte	0x1
 9061 06b1 6E       		.byte	0x6e
 9062 06b2 F9000000 		.4byte	0xf9
 9063 06b6 02       		.uleb128 0x2
 9064 06b7 91       		.byte	0x91
 9065 06b8 58       		.sleb128 -40
 9066 06b9 14       		.uleb128 0x14
 9067 06ba 1E0D0000 		.4byte	.LASF125
 9068 06be 01       		.byte	0x1
ARM GAS  C:\Users\JENNEW~1\AppData\Local\Temp\ccQ5uJSg.s 			page 177


 9069 06bf 6E       		.byte	0x6e
 9070 06c0 28010000 		.4byte	0x128
 9071 06c4 02       		.uleb128 0x2
 9072 06c5 91       		.byte	0x91
 9073 06c6 54       		.sleb128 -44
 9074 06c7 15       		.uleb128 0x15
 9075 06c8 0E000000 		.4byte	.LBB3
 9076 06cc A4000000 		.4byte	.LBE3-.LBB3
 9077 06d0 16       		.uleb128 0x16
 9078 06d1 F40E0000 		.4byte	.LASF127
 9079 06d5 01       		.byte	0x1
 9080 06d6 6F       		.byte	0x6f
 9081 06d7 D8000000 		.4byte	0xd8
 9082 06db 02       		.uleb128 0x2
 9083 06dc 91       		.byte	0x91
 9084 06dd 66       		.sleb128 -26
 9085 06de 00       		.byte	0
 9086 06df 00       		.byte	0
 9087 06e0 13       		.uleb128 0x13
 9088 06e1 BA090000 		.4byte	.LASF128
 9089 06e5 01       		.byte	0x1
 9090 06e6 71       		.byte	0x71
 9091 06e7 00000000 		.4byte	.LFB11
 9092 06eb B0000000 		.4byte	.LFE11-.LFB11
 9093 06ef 01       		.uleb128 0x1
 9094 06f0 9C       		.byte	0x9c
 9095 06f1 34070000 		.4byte	0x734
 9096 06f5 0F       		.uleb128 0xf
 9097 06f6 7600     		.ascii	"v\000"
 9098 06f8 01       		.byte	0x1
 9099 06f9 71       		.byte	0x71
 9100 06fa 86060000 		.4byte	0x686
 9101 06fe 02       		.uleb128 0x2
 9102 06ff 91       		.byte	0x91
 9103 0700 5C       		.sleb128 -36
 9104 0701 0F       		.uleb128 0xf
 9105 0702 6E00     		.ascii	"n\000"
 9106 0704 01       		.byte	0x1
 9107 0705 71       		.byte	0x71
 9108 0706 F9000000 		.4byte	0xf9
 9109 070a 02       		.uleb128 0x2
 9110 070b 91       		.byte	0x91
 9111 070c 58       		.sleb128 -40
 9112 070d 14       		.uleb128 0x14
 9113 070e 1E0D0000 		.4byte	.LASF125
 9114 0712 01       		.byte	0x1
 9115 0713 71       		.byte	0x71
 9116 0714 28010000 		.4byte	0x128
 9117 0718 02       		.uleb128 0x2
 9118 0719 91       		.byte	0x91
 9119 071a 54       		.sleb128 -44
 9120 071b 15       		.uleb128 0x15
 9121 071c 0E000000 		.4byte	.LBB4
 9122 0720 8C000000 		.4byte	.LBE4-.LBB4
 9123 0724 16       		.uleb128 0x16
 9124 0725 F40E0000 		.4byte	.LASF127
 9125 0729 01       		.byte	0x1
ARM GAS  C:\Users\JENNEW~1\AppData\Local\Temp\ccQ5uJSg.s 			page 178


 9126 072a 72       		.byte	0x72
 9127 072b C2000000 		.4byte	0xc2
 9128 072f 02       		.uleb128 0x2
 9129 0730 91       		.byte	0x91
 9130 0731 67       		.sleb128 -25
 9131 0732 00       		.byte	0
 9132 0733 00       		.byte	0
 9133 0734 13       		.uleb128 0x13
 9134 0735 73080000 		.4byte	.LASF129
 9135 0739 01       		.byte	0x1
 9136 073a 74       		.byte	0x74
 9137 073b 00000000 		.4byte	.LFB12
 9138 073f B0000000 		.4byte	.LFE12-.LFB12
 9139 0743 01       		.uleb128 0x1
 9140 0744 9C       		.byte	0x9c
 9141 0745 88070000 		.4byte	0x788
 9142 0749 0F       		.uleb128 0xf
 9143 074a 7600     		.ascii	"v\000"
 9144 074c 01       		.byte	0x1
 9145 074d 74       		.byte	0x74
 9146 074e 86060000 		.4byte	0x686
 9147 0752 02       		.uleb128 0x2
 9148 0753 91       		.byte	0x91
 9149 0754 5C       		.sleb128 -36
 9150 0755 0F       		.uleb128 0xf
 9151 0756 6E00     		.ascii	"n\000"
 9152 0758 01       		.byte	0x1
 9153 0759 74       		.byte	0x74
 9154 075a F9000000 		.4byte	0xf9
 9155 075e 02       		.uleb128 0x2
 9156 075f 91       		.byte	0x91
 9157 0760 58       		.sleb128 -40
 9158 0761 14       		.uleb128 0x14
 9159 0762 1E0D0000 		.4byte	.LASF125
 9160 0766 01       		.byte	0x1
 9161 0767 74       		.byte	0x74
 9162 0768 28010000 		.4byte	0x128
 9163 076c 02       		.uleb128 0x2
 9164 076d 91       		.byte	0x91
 9165 076e 54       		.sleb128 -44
 9166 076f 15       		.uleb128 0x15
 9167 0770 0E000000 		.4byte	.LBB5
 9168 0774 8C000000 		.4byte	.LBE5-.LBB5
 9169 0778 16       		.uleb128 0x16
 9170 0779 F40E0000 		.4byte	.LASF127
 9171 077d 01       		.byte	0x1
 9172 077e 75       		.byte	0x75
 9173 077f CD000000 		.4byte	0xcd
 9174 0783 02       		.uleb128 0x2
 9175 0784 91       		.byte	0x91
 9176 0785 67       		.sleb128 -25
 9177 0786 00       		.byte	0
 9178 0787 00       		.byte	0
 9179 0788 13       		.uleb128 0x13
 9180 0789 340E0000 		.4byte	.LASF130
 9181 078d 01       		.byte	0x1
 9182 078e 77       		.byte	0x77
ARM GAS  C:\Users\JENNEW~1\AppData\Local\Temp\ccQ5uJSg.s 			page 179


 9183 078f 00000000 		.4byte	.LFB13
 9184 0793 C8000000 		.4byte	.LFE13-.LFB13
 9185 0797 01       		.uleb128 0x1
 9186 0798 9C       		.byte	0x9c
 9187 0799 DC070000 		.4byte	0x7dc
 9188 079d 0F       		.uleb128 0xf
 9189 079e 7600     		.ascii	"v\000"
 9190 07a0 01       		.byte	0x1
 9191 07a1 77       		.byte	0x77
 9192 07a2 86060000 		.4byte	0x686
 9193 07a6 02       		.uleb128 0x2
 9194 07a7 91       		.byte	0x91
 9195 07a8 5C       		.sleb128 -36
 9196 07a9 0F       		.uleb128 0xf
 9197 07aa 6E00     		.ascii	"n\000"
 9198 07ac 01       		.byte	0x1
 9199 07ad 77       		.byte	0x77
 9200 07ae F9000000 		.4byte	0xf9
 9201 07b2 02       		.uleb128 0x2
 9202 07b3 91       		.byte	0x91
 9203 07b4 58       		.sleb128 -40
 9204 07b5 14       		.uleb128 0x14
 9205 07b6 1E0D0000 		.4byte	.LASF125
 9206 07ba 01       		.byte	0x1
 9207 07bb 77       		.byte	0x77
 9208 07bc 28010000 		.4byte	0x128
 9209 07c0 02       		.uleb128 0x2
 9210 07c1 91       		.byte	0x91
 9211 07c2 54       		.sleb128 -44
 9212 07c3 15       		.uleb128 0x15
 9213 07c4 0E000000 		.4byte	.LBB6
 9214 07c8 A2000000 		.4byte	.LBE6-.LBB6
 9215 07cc 16       		.uleb128 0x16
 9216 07cd F40E0000 		.4byte	.LASF127
 9217 07d1 01       		.byte	0x1
 9218 07d2 78       		.byte	0x78
 9219 07d3 E3000000 		.4byte	0xe3
 9220 07d7 02       		.uleb128 0x2
 9221 07d8 91       		.byte	0x91
 9222 07d9 66       		.sleb128 -26
 9223 07da 00       		.byte	0
 9224 07db 00       		.byte	0
 9225 07dc 13       		.uleb128 0x13
 9226 07dd 73050000 		.4byte	.LASF131
 9227 07e1 01       		.byte	0x1
 9228 07e2 7B       		.byte	0x7b
 9229 07e3 00000000 		.4byte	.LFB14
 9230 07e7 A0010000 		.4byte	.LFE14-.LFB14
 9231 07eb 01       		.uleb128 0x1
 9232 07ec 9C       		.byte	0x9c
 9233 07ed 64080000 		.4byte	0x864
 9234 07f1 0F       		.uleb128 0xf
 9235 07f2 7600     		.ascii	"v\000"
 9236 07f4 01       		.byte	0x1
 9237 07f5 7B       		.byte	0x7b
 9238 07f6 86060000 		.4byte	0x686
 9239 07fa 02       		.uleb128 0x2
ARM GAS  C:\Users\JENNEW~1\AppData\Local\Temp\ccQ5uJSg.s 			page 180


 9240 07fb 91       		.byte	0x91
 9241 07fc 6C       		.sleb128 -20
 9242 07fd 0F       		.uleb128 0xf
 9243 07fe 6E00     		.ascii	"n\000"
 9244 0800 01       		.byte	0x1
 9245 0801 7B       		.byte	0x7b
 9246 0802 F9000000 		.4byte	0xf9
 9247 0806 02       		.uleb128 0x2
 9248 0807 91       		.byte	0x91
 9249 0808 68       		.sleb128 -24
 9250 0809 0F       		.uleb128 0xf
 9251 080a 6D617800 		.ascii	"max\000"
 9252 080e 01       		.byte	0x1
 9253 080f 7B       		.byte	0x7b
 9254 0810 28010000 		.4byte	0x128
 9255 0814 02       		.uleb128 0x2
 9256 0815 91       		.byte	0x91
 9257 0816 64       		.sleb128 -28
 9258 0817 0F       		.uleb128 0xf
 9259 0818 6D696E00 		.ascii	"min\000"
 9260 081c 01       		.byte	0x1
 9261 081d 7B       		.byte	0x7b
 9262 081e 28010000 		.4byte	0x128
 9263 0822 02       		.uleb128 0x2
 9264 0823 91       		.byte	0x91
 9265 0824 60       		.sleb128 -32
 9266 0825 14       		.uleb128 0x14
 9267 0826 F10A0000 		.4byte	.LASF132
 9268 082a 01       		.byte	0x1
 9269 082b 7B       		.byte	0x7b
 9270 082c 28010000 		.4byte	0x128
 9271 0830 02       		.uleb128 0x2
 9272 0831 91       		.byte	0x91
 9273 0832 00       		.sleb128 0
 9274 0833 17       		.uleb128 0x17
 9275 0834 1A000000 		.4byte	.LBB7
 9276 0838 B6000000 		.4byte	.LBE7-.LBB7
 9277 083c 4D080000 		.4byte	0x84d
 9278 0840 18       		.uleb128 0x18
 9279 0841 7200     		.ascii	"r\000"
 9280 0843 01       		.byte	0x1
 9281 0844 7D       		.byte	0x7d
 9282 0845 28010000 		.4byte	0x128
 9283 0849 02       		.uleb128 0x2
 9284 084a 91       		.byte	0x91
 9285 084b 74       		.sleb128 -12
 9286 084c 00       		.byte	0
 9287 084d 15       		.uleb128 0x15
 9288 084e DC000000 		.4byte	.LBB8
 9289 0852 A8000000 		.4byte	.LBE8-.LBB8
 9290 0856 18       		.uleb128 0x18
 9291 0857 7200     		.ascii	"r\000"
 9292 0859 01       		.byte	0x1
 9293 085a 80       		.byte	0x80
 9294 085b 28010000 		.4byte	0x128
 9295 085f 02       		.uleb128 0x2
 9296 0860 91       		.byte	0x91
ARM GAS  C:\Users\JENNEW~1\AppData\Local\Temp\ccQ5uJSg.s 			page 181


 9297 0861 70       		.sleb128 -16
 9298 0862 00       		.byte	0
 9299 0863 00       		.byte	0
 9300 0864 13       		.uleb128 0x13
 9301 0865 4E000000 		.4byte	.LASF133
 9302 0869 01       		.byte	0x1
 9303 086a 84       		.byte	0x84
 9304 086b 00000000 		.4byte	.LFB15
 9305 086f 70010000 		.4byte	.LFE15-.LFB15
 9306 0873 01       		.uleb128 0x1
 9307 0874 9C       		.byte	0x9c
 9308 0875 EC080000 		.4byte	0x8ec
 9309 0879 0F       		.uleb128 0xf
 9310 087a 7600     		.ascii	"v\000"
 9311 087c 01       		.byte	0x1
 9312 087d 84       		.byte	0x84
 9313 087e 86060000 		.4byte	0x686
 9314 0882 02       		.uleb128 0x2
 9315 0883 91       		.byte	0x91
 9316 0884 6C       		.sleb128 -20
 9317 0885 0F       		.uleb128 0xf
 9318 0886 6E00     		.ascii	"n\000"
 9319 0888 01       		.byte	0x1
 9320 0889 84       		.byte	0x84
 9321 088a F9000000 		.4byte	0xf9
 9322 088e 02       		.uleb128 0x2
 9323 088f 91       		.byte	0x91
 9324 0890 68       		.sleb128 -24
 9325 0891 0F       		.uleb128 0xf
 9326 0892 6D617800 		.ascii	"max\000"
 9327 0896 01       		.byte	0x1
 9328 0897 84       		.byte	0x84
 9329 0898 28010000 		.4byte	0x128
 9330 089c 02       		.uleb128 0x2
 9331 089d 91       		.byte	0x91
 9332 089e 64       		.sleb128 -28
 9333 089f 0F       		.uleb128 0xf
 9334 08a0 6D696E00 		.ascii	"min\000"
 9335 08a4 01       		.byte	0x1
 9336 08a5 84       		.byte	0x84
 9337 08a6 28010000 		.4byte	0x128
 9338 08aa 02       		.uleb128 0x2
 9339 08ab 91       		.byte	0x91
 9340 08ac 60       		.sleb128 -32
 9341 08ad 14       		.uleb128 0x14
 9342 08ae F10A0000 		.4byte	.LASF132
 9343 08b2 01       		.byte	0x1
 9344 08b3 84       		.byte	0x84
 9345 08b4 28010000 		.4byte	0x128
 9346 08b8 02       		.uleb128 0x2
 9347 08b9 91       		.byte	0x91
 9348 08ba 00       		.sleb128 0
 9349 08bb 17       		.uleb128 0x17
 9350 08bc 1A000000 		.4byte	.LBB9
 9351 08c0 9E000000 		.4byte	.LBE9-.LBB9
 9352 08c4 D5080000 		.4byte	0x8d5
 9353 08c8 18       		.uleb128 0x18
ARM GAS  C:\Users\JENNEW~1\AppData\Local\Temp\ccQ5uJSg.s 			page 182


 9354 08c9 7200     		.ascii	"r\000"
 9355 08cb 01       		.byte	0x1
 9356 08cc 86       		.byte	0x86
 9357 08cd 28010000 		.4byte	0x128
 9358 08d1 02       		.uleb128 0x2
 9359 08d2 91       		.byte	0x91
 9360 08d3 74       		.sleb128 -12
 9361 08d4 00       		.byte	0
 9362 08d5 15       		.uleb128 0x15
 9363 08d6 C4000000 		.4byte	.LBB10
 9364 08da 90000000 		.4byte	.LBE10-.LBB10
 9365 08de 18       		.uleb128 0x18
 9366 08df 7200     		.ascii	"r\000"
 9367 08e1 01       		.byte	0x1
 9368 08e2 89       		.byte	0x89
 9369 08e3 28010000 		.4byte	0x128
 9370 08e7 02       		.uleb128 0x2
 9371 08e8 91       		.byte	0x91
 9372 08e9 70       		.sleb128 -16
 9373 08ea 00       		.byte	0
 9374 08eb 00       		.byte	0
 9375 08ec 13       		.uleb128 0x13
 9376 08ed 2C080000 		.4byte	.LASF134
 9377 08f1 01       		.byte	0x1
 9378 08f2 8D       		.byte	0x8d
 9379 08f3 00000000 		.4byte	.LFB16
 9380 08f7 48010000 		.4byte	.LFE16-.LFB16
 9381 08fb 01       		.uleb128 0x1
 9382 08fc 9C       		.byte	0x9c
 9383 08fd 74090000 		.4byte	0x974
 9384 0901 0F       		.uleb128 0xf
 9385 0902 7600     		.ascii	"v\000"
 9386 0904 01       		.byte	0x1
 9387 0905 8D       		.byte	0x8d
 9388 0906 86060000 		.4byte	0x686
 9389 090a 02       		.uleb128 0x2
 9390 090b 91       		.byte	0x91
 9391 090c 6C       		.sleb128 -20
 9392 090d 0F       		.uleb128 0xf
 9393 090e 6E00     		.ascii	"n\000"
 9394 0910 01       		.byte	0x1
 9395 0911 8D       		.byte	0x8d
 9396 0912 F9000000 		.4byte	0xf9
 9397 0916 02       		.uleb128 0x2
 9398 0917 91       		.byte	0x91
 9399 0918 68       		.sleb128 -24
 9400 0919 0F       		.uleb128 0xf
 9401 091a 6D617800 		.ascii	"max\000"
 9402 091e 01       		.byte	0x1
 9403 091f 8D       		.byte	0x8d
 9404 0920 28010000 		.4byte	0x128
 9405 0924 02       		.uleb128 0x2
 9406 0925 91       		.byte	0x91
 9407 0926 64       		.sleb128 -28
 9408 0927 0F       		.uleb128 0xf
 9409 0928 6D696E00 		.ascii	"min\000"
 9410 092c 01       		.byte	0x1
ARM GAS  C:\Users\JENNEW~1\AppData\Local\Temp\ccQ5uJSg.s 			page 183


 9411 092d 8D       		.byte	0x8d
 9412 092e 28010000 		.4byte	0x128
 9413 0932 02       		.uleb128 0x2
 9414 0933 91       		.byte	0x91
 9415 0934 60       		.sleb128 -32
 9416 0935 14       		.uleb128 0x14
 9417 0936 F10A0000 		.4byte	.LASF132
 9418 093a 01       		.byte	0x1
 9419 093b 8D       		.byte	0x8d
 9420 093c 28010000 		.4byte	0x128
 9421 0940 02       		.uleb128 0x2
 9422 0941 91       		.byte	0x91
 9423 0942 00       		.sleb128 0
 9424 0943 17       		.uleb128 0x17
 9425 0944 1A000000 		.4byte	.LBB11
 9426 0948 8A000000 		.4byte	.LBE11-.LBB11
 9427 094c 5D090000 		.4byte	0x95d
 9428 0950 18       		.uleb128 0x18
 9429 0951 7200     		.ascii	"r\000"
 9430 0953 01       		.byte	0x1
 9431 0954 8F       		.byte	0x8f
 9432 0955 28010000 		.4byte	0x128
 9433 0959 02       		.uleb128 0x2
 9434 095a 91       		.byte	0x91
 9435 095b 74       		.sleb128 -12
 9436 095c 00       		.byte	0
 9437 095d 15       		.uleb128 0x15
 9438 095e B0000000 		.4byte	.LBB12
 9439 0962 7C000000 		.4byte	.LBE12-.LBB12
 9440 0966 18       		.uleb128 0x18
 9441 0967 7200     		.ascii	"r\000"
 9442 0969 01       		.byte	0x1
 9443 096a 92       		.byte	0x92
 9444 096b 28010000 		.4byte	0x128
 9445 096f 02       		.uleb128 0x2
 9446 0970 91       		.byte	0x91
 9447 0971 70       		.sleb128 -16
 9448 0972 00       		.byte	0
 9449 0973 00       		.byte	0
 9450 0974 13       		.uleb128 0x13
 9451 0975 FB0A0000 		.4byte	.LASF135
 9452 0979 01       		.byte	0x1
 9453 097a 96       		.byte	0x96
 9454 097b 00000000 		.4byte	.LFB17
 9455 097f 44010000 		.4byte	.LFE17-.LFB17
 9456 0983 01       		.uleb128 0x1
 9457 0984 9C       		.byte	0x9c
 9458 0985 FC090000 		.4byte	0x9fc
 9459 0989 0F       		.uleb128 0xf
 9460 098a 7600     		.ascii	"v\000"
 9461 098c 01       		.byte	0x1
 9462 098d 96       		.byte	0x96
 9463 098e 86060000 		.4byte	0x686
 9464 0992 02       		.uleb128 0x2
 9465 0993 91       		.byte	0x91
 9466 0994 6C       		.sleb128 -20
 9467 0995 0F       		.uleb128 0xf
ARM GAS  C:\Users\JENNEW~1\AppData\Local\Temp\ccQ5uJSg.s 			page 184


 9468 0996 6E00     		.ascii	"n\000"
 9469 0998 01       		.byte	0x1
 9470 0999 96       		.byte	0x96
 9471 099a F9000000 		.4byte	0xf9
 9472 099e 02       		.uleb128 0x2
 9473 099f 91       		.byte	0x91
 9474 09a0 68       		.sleb128 -24
 9475 09a1 0F       		.uleb128 0xf
 9476 09a2 6D617800 		.ascii	"max\000"
 9477 09a6 01       		.byte	0x1
 9478 09a7 96       		.byte	0x96
 9479 09a8 28010000 		.4byte	0x128
 9480 09ac 02       		.uleb128 0x2
 9481 09ad 91       		.byte	0x91
 9482 09ae 64       		.sleb128 -28
 9483 09af 0F       		.uleb128 0xf
 9484 09b0 6D696E00 		.ascii	"min\000"
 9485 09b4 01       		.byte	0x1
 9486 09b5 96       		.byte	0x96
 9487 09b6 28010000 		.4byte	0x128
 9488 09ba 02       		.uleb128 0x2
 9489 09bb 91       		.byte	0x91
 9490 09bc 60       		.sleb128 -32
 9491 09bd 14       		.uleb128 0x14
 9492 09be F10A0000 		.4byte	.LASF132
 9493 09c2 01       		.byte	0x1
 9494 09c3 96       		.byte	0x96
 9495 09c4 28010000 		.4byte	0x128
 9496 09c8 02       		.uleb128 0x2
 9497 09c9 91       		.byte	0x91
 9498 09ca 00       		.sleb128 0
 9499 09cb 17       		.uleb128 0x17
 9500 09cc 1A000000 		.4byte	.LBB13
 9501 09d0 8A000000 		.4byte	.LBE13-.LBB13
 9502 09d4 E5090000 		.4byte	0x9e5
 9503 09d8 18       		.uleb128 0x18
 9504 09d9 7200     		.ascii	"r\000"
 9505 09db 01       		.byte	0x1
 9506 09dc 98       		.byte	0x98
 9507 09dd 28010000 		.4byte	0x128
 9508 09e1 02       		.uleb128 0x2
 9509 09e2 91       		.byte	0x91
 9510 09e3 74       		.sleb128 -12
 9511 09e4 00       		.byte	0
 9512 09e5 15       		.uleb128 0x15
 9513 09e6 B0000000 		.4byte	.LBB14
 9514 09ea 7A000000 		.4byte	.LBE14-.LBB14
 9515 09ee 18       		.uleb128 0x18
 9516 09ef 7200     		.ascii	"r\000"
 9517 09f1 01       		.byte	0x1
 9518 09f2 9B       		.byte	0x9b
 9519 09f3 28010000 		.4byte	0x128
 9520 09f7 02       		.uleb128 0x2
 9521 09f8 91       		.byte	0x91
 9522 09f9 70       		.sleb128 -16
 9523 09fa 00       		.byte	0
 9524 09fb 00       		.byte	0
ARM GAS  C:\Users\JENNEW~1\AppData\Local\Temp\ccQ5uJSg.s 			page 185


 9525 09fc 13       		.uleb128 0x13
 9526 09fd 89000000 		.4byte	.LASF136
 9527 0a01 01       		.byte	0x1
 9528 0a02 9F       		.byte	0x9f
 9529 0a03 00000000 		.4byte	.LFB18
 9530 0a07 74010000 		.4byte	.LFE18-.LFB18
 9531 0a0b 01       		.uleb128 0x1
 9532 0a0c 9C       		.byte	0x9c
 9533 0a0d 840A0000 		.4byte	0xa84
 9534 0a11 0F       		.uleb128 0xf
 9535 0a12 7600     		.ascii	"v\000"
 9536 0a14 01       		.byte	0x1
 9537 0a15 9F       		.byte	0x9f
 9538 0a16 86060000 		.4byte	0x686
 9539 0a1a 02       		.uleb128 0x2
 9540 0a1b 91       		.byte	0x91
 9541 0a1c 6C       		.sleb128 -20
 9542 0a1d 0F       		.uleb128 0xf
 9543 0a1e 6E00     		.ascii	"n\000"
 9544 0a20 01       		.byte	0x1
 9545 0a21 9F       		.byte	0x9f
 9546 0a22 F9000000 		.4byte	0xf9
 9547 0a26 02       		.uleb128 0x2
 9548 0a27 91       		.byte	0x91
 9549 0a28 68       		.sleb128 -24
 9550 0a29 0F       		.uleb128 0xf
 9551 0a2a 6D617800 		.ascii	"max\000"
 9552 0a2e 01       		.byte	0x1
 9553 0a2f 9F       		.byte	0x9f
 9554 0a30 28010000 		.4byte	0x128
 9555 0a34 02       		.uleb128 0x2
 9556 0a35 91       		.byte	0x91
 9557 0a36 64       		.sleb128 -28
 9558 0a37 0F       		.uleb128 0xf
 9559 0a38 6D696E00 		.ascii	"min\000"
 9560 0a3c 01       		.byte	0x1
 9561 0a3d 9F       		.byte	0x9f
 9562 0a3e 28010000 		.4byte	0x128
 9563 0a42 02       		.uleb128 0x2
 9564 0a43 91       		.byte	0x91
 9565 0a44 60       		.sleb128 -32
 9566 0a45 14       		.uleb128 0x14
 9567 0a46 F10A0000 		.4byte	.LASF132
 9568 0a4a 01       		.byte	0x1
 9569 0a4b 9F       		.byte	0x9f
 9570 0a4c 28010000 		.4byte	0x128
 9571 0a50 02       		.uleb128 0x2
 9572 0a51 91       		.byte	0x91
 9573 0a52 00       		.sleb128 0
 9574 0a53 17       		.uleb128 0x17
 9575 0a54 1A000000 		.4byte	.LBB15
 9576 0a58 A0000000 		.4byte	.LBE15-.LBB15
 9577 0a5c 6D0A0000 		.4byte	0xa6d
 9578 0a60 18       		.uleb128 0x18
 9579 0a61 7200     		.ascii	"r\000"
 9580 0a63 01       		.byte	0x1
 9581 0a64 A1       		.byte	0xa1
ARM GAS  C:\Users\JENNEW~1\AppData\Local\Temp\ccQ5uJSg.s 			page 186


 9582 0a65 28010000 		.4byte	0x128
 9583 0a69 02       		.uleb128 0x2
 9584 0a6a 91       		.byte	0x91
 9585 0a6b 74       		.sleb128 -12
 9586 0a6c 00       		.byte	0
 9587 0a6d 15       		.uleb128 0x15
 9588 0a6e C6000000 		.4byte	.LBB16
 9589 0a72 92000000 		.4byte	.LBE16-.LBB16
 9590 0a76 18       		.uleb128 0x18
 9591 0a77 7200     		.ascii	"r\000"
 9592 0a79 01       		.byte	0x1
 9593 0a7a A4       		.byte	0xa4
 9594 0a7b 28010000 		.4byte	0x128
 9595 0a7f 02       		.uleb128 0x2
 9596 0a80 91       		.byte	0x91
 9597 0a81 70       		.sleb128 -16
 9598 0a82 00       		.byte	0
 9599 0a83 00       		.byte	0
 9600 0a84 0E       		.uleb128 0xe
 9601 0a85 35090000 		.4byte	.LASF137
 9602 0a89 01       		.byte	0x1
 9603 0a8a A9       		.byte	0xa9
 9604 0a8b 00000000 		.4byte	.LFB19
 9605 0a8f 78000000 		.4byte	.LFE19-.LFB19
 9606 0a93 01       		.uleb128 0x1
 9607 0a94 9C       		.byte	0x9c
 9608 0a95 CA0A0000 		.4byte	0xaca
 9609 0a99 0F       		.uleb128 0xf
 9610 0a9a 7600     		.ascii	"v\000"
 9611 0a9c 01       		.byte	0x1
 9612 0a9d A9       		.byte	0xa9
 9613 0a9e CA0A0000 		.4byte	0xaca
 9614 0aa2 02       		.uleb128 0x2
 9615 0aa3 91       		.byte	0x91
 9616 0aa4 6C       		.sleb128 -20
 9617 0aa5 0F       		.uleb128 0xf
 9618 0aa6 6E00     		.ascii	"n\000"
 9619 0aa8 01       		.byte	0x1
 9620 0aa9 A9       		.byte	0xa9
 9621 0aaa F9000000 		.4byte	0xf9
 9622 0aae 02       		.uleb128 0x2
 9623 0aaf 91       		.byte	0x91
 9624 0ab0 68       		.sleb128 -24
 9625 0ab1 15       		.uleb128 0x15
 9626 0ab2 0C000000 		.4byte	.LBB17
 9627 0ab6 52000000 		.4byte	.LBE17-.LBB17
 9628 0aba 18       		.uleb128 0x18
 9629 0abb 76616C00 		.ascii	"val\000"
 9630 0abf 01       		.byte	0x1
 9631 0ac0 AA       		.byte	0xaa
 9632 0ac1 EE000000 		.4byte	0xee
 9633 0ac5 02       		.uleb128 0x2
 9634 0ac6 91       		.byte	0x91
 9635 0ac7 74       		.sleb128 -12
 9636 0ac8 00       		.byte	0
 9637 0ac9 00       		.byte	0
 9638 0aca 0B       		.uleb128 0xb
ARM GAS  C:\Users\JENNEW~1\AppData\Local\Temp\ccQ5uJSg.s 			page 187


 9639 0acb 04       		.byte	0x4
 9640 0acc EE000000 		.4byte	0xee
 9641 0ad0 0E       		.uleb128 0xe
 9642 0ad1 5F020000 		.4byte	.LASF138
 9643 0ad5 01       		.byte	0x1
 9644 0ad6 AC       		.byte	0xac
 9645 0ad7 00000000 		.4byte	.LFB20
 9646 0adb 58000000 		.4byte	.LFE20-.LFB20
 9647 0adf 01       		.uleb128 0x1
 9648 0ae0 9C       		.byte	0x9c
 9649 0ae1 160B0000 		.4byte	0xb16
 9650 0ae5 0F       		.uleb128 0xf
 9651 0ae6 7600     		.ascii	"v\000"
 9652 0ae8 01       		.byte	0x1
 9653 0ae9 AC       		.byte	0xac
 9654 0aea CA0A0000 		.4byte	0xaca
 9655 0aee 02       		.uleb128 0x2
 9656 0aef 91       		.byte	0x91
 9657 0af0 6C       		.sleb128 -20
 9658 0af1 0F       		.uleb128 0xf
 9659 0af2 6E00     		.ascii	"n\000"
 9660 0af4 01       		.byte	0x1
 9661 0af5 AC       		.byte	0xac
 9662 0af6 F9000000 		.4byte	0xf9
 9663 0afa 02       		.uleb128 0x2
 9664 0afb 91       		.byte	0x91
 9665 0afc 68       		.sleb128 -24
 9666 0afd 15       		.uleb128 0x15
 9667 0afe 0C000000 		.4byte	.LBB18
 9668 0b02 32000000 		.4byte	.LBE18-.LBB18
 9669 0b06 18       		.uleb128 0x18
 9670 0b07 76616C00 		.ascii	"val\000"
 9671 0b0b 01       		.byte	0x1
 9672 0b0c AD       		.byte	0xad
 9673 0b0d D8000000 		.4byte	0xd8
 9674 0b11 02       		.uleb128 0x2
 9675 0b12 91       		.byte	0x91
 9676 0b13 76       		.sleb128 -10
 9677 0b14 00       		.byte	0
 9678 0b15 00       		.byte	0
 9679 0b16 0E       		.uleb128 0xe
 9680 0b17 320C0000 		.4byte	.LASF139
 9681 0b1b 01       		.byte	0x1
 9682 0b1c AF       		.byte	0xaf
 9683 0b1d 00000000 		.4byte	.LFB21
 9684 0b21 40000000 		.4byte	.LFE21-.LFB21
 9685 0b25 01       		.uleb128 0x1
 9686 0b26 9C       		.byte	0x9c
 9687 0b27 5C0B0000 		.4byte	0xb5c
 9688 0b2b 0F       		.uleb128 0xf
 9689 0b2c 7600     		.ascii	"v\000"
 9690 0b2e 01       		.byte	0x1
 9691 0b2f AF       		.byte	0xaf
 9692 0b30 CA0A0000 		.4byte	0xaca
 9693 0b34 02       		.uleb128 0x2
 9694 0b35 91       		.byte	0x91
 9695 0b36 6C       		.sleb128 -20
ARM GAS  C:\Users\JENNEW~1\AppData\Local\Temp\ccQ5uJSg.s 			page 188


 9696 0b37 0F       		.uleb128 0xf
 9697 0b38 6E00     		.ascii	"n\000"
 9698 0b3a 01       		.byte	0x1
 9699 0b3b AF       		.byte	0xaf
 9700 0b3c F9000000 		.4byte	0xf9
 9701 0b40 02       		.uleb128 0x2
 9702 0b41 91       		.byte	0x91
 9703 0b42 68       		.sleb128 -24
 9704 0b43 15       		.uleb128 0x15
 9705 0b44 0C000000 		.4byte	.LBB19
 9706 0b48 1A000000 		.4byte	.LBE19-.LBB19
 9707 0b4c 18       		.uleb128 0x18
 9708 0b4d 76616C00 		.ascii	"val\000"
 9709 0b51 01       		.byte	0x1
 9710 0b52 B0       		.byte	0xb0
 9711 0b53 C2000000 		.4byte	0xc2
 9712 0b57 02       		.uleb128 0x2
 9713 0b58 91       		.byte	0x91
 9714 0b59 77       		.sleb128 -9
 9715 0b5a 00       		.byte	0
 9716 0b5b 00       		.byte	0
 9717 0b5c 0E       		.uleb128 0xe
 9718 0b5d 8D040000 		.4byte	.LASF140
 9719 0b61 01       		.byte	0x1
 9720 0b62 B2       		.byte	0xb2
 9721 0b63 00000000 		.4byte	.LFB22
 9722 0b67 40000000 		.4byte	.LFE22-.LFB22
 9723 0b6b 01       		.uleb128 0x1
 9724 0b6c 9C       		.byte	0x9c
 9725 0b6d A20B0000 		.4byte	0xba2
 9726 0b71 0F       		.uleb128 0xf
 9727 0b72 7600     		.ascii	"v\000"
 9728 0b74 01       		.byte	0x1
 9729 0b75 B2       		.byte	0xb2
 9730 0b76 CA0A0000 		.4byte	0xaca
 9731 0b7a 02       		.uleb128 0x2
 9732 0b7b 91       		.byte	0x91
 9733 0b7c 6C       		.sleb128 -20
 9734 0b7d 0F       		.uleb128 0xf
 9735 0b7e 6E00     		.ascii	"n\000"
 9736 0b80 01       		.byte	0x1
 9737 0b81 B2       		.byte	0xb2
 9738 0b82 F9000000 		.4byte	0xf9
 9739 0b86 02       		.uleb128 0x2
 9740 0b87 91       		.byte	0x91
 9741 0b88 68       		.sleb128 -24
 9742 0b89 15       		.uleb128 0x15
 9743 0b8a 0C000000 		.4byte	.LBB20
 9744 0b8e 1A000000 		.4byte	.LBE20-.LBB20
 9745 0b92 18       		.uleb128 0x18
 9746 0b93 76616C00 		.ascii	"val\000"
 9747 0b97 01       		.byte	0x1
 9748 0b98 B3       		.byte	0xb3
 9749 0b99 CD000000 		.4byte	0xcd
 9750 0b9d 02       		.uleb128 0x2
 9751 0b9e 91       		.byte	0x91
 9752 0b9f 77       		.sleb128 -9
ARM GAS  C:\Users\JENNEW~1\AppData\Local\Temp\ccQ5uJSg.s 			page 189


 9753 0ba0 00       		.byte	0
 9754 0ba1 00       		.byte	0
 9755 0ba2 0E       		.uleb128 0xe
 9756 0ba3 E7040000 		.4byte	.LASF141
 9757 0ba7 01       		.byte	0x1
 9758 0ba8 B5       		.byte	0xb5
 9759 0ba9 00000000 		.4byte	.LFB23
 9760 0bad 1C010000 		.4byte	.LFE23-.LFB23
 9761 0bb1 01       		.uleb128 0x1
 9762 0bb2 9C       		.byte	0x9c
 9763 0bb3 1C0C0000 		.4byte	0xc1c
 9764 0bb7 0F       		.uleb128 0xf
 9765 0bb8 7600     		.ascii	"v\000"
 9766 0bba 01       		.byte	0x1
 9767 0bbb B5       		.byte	0xb5
 9768 0bbc CA0A0000 		.4byte	0xaca
 9769 0bc0 02       		.uleb128 0x2
 9770 0bc1 91       		.byte	0x91
 9771 0bc2 6C       		.sleb128 -20
 9772 0bc3 0F       		.uleb128 0xf
 9773 0bc4 6E00     		.ascii	"n\000"
 9774 0bc6 01       		.byte	0x1
 9775 0bc7 B5       		.byte	0xb5
 9776 0bc8 F9000000 		.4byte	0xf9
 9777 0bcc 02       		.uleb128 0x2
 9778 0bcd 91       		.byte	0x91
 9779 0bce 68       		.sleb128 -24
 9780 0bcf 0F       		.uleb128 0xf
 9781 0bd0 6D617800 		.ascii	"max\000"
 9782 0bd4 01       		.byte	0x1
 9783 0bd5 B5       		.byte	0xb5
 9784 0bd6 EE000000 		.4byte	0xee
 9785 0bda 02       		.uleb128 0x2
 9786 0bdb 91       		.byte	0x91
 9787 0bdc 64       		.sleb128 -28
 9788 0bdd 0F       		.uleb128 0xf
 9789 0bde 6D696E00 		.ascii	"min\000"
 9790 0be2 01       		.byte	0x1
 9791 0be3 B5       		.byte	0xb5
 9792 0be4 EE000000 		.4byte	0xee
 9793 0be8 02       		.uleb128 0x2
 9794 0be9 91       		.byte	0x91
 9795 0bea 60       		.sleb128 -32
 9796 0beb 17       		.uleb128 0x17
 9797 0bec 18000000 		.4byte	.LBB21
 9798 0bf0 70000000 		.4byte	.LBE21-.LBB21
 9799 0bf4 050C0000 		.4byte	0xc05
 9800 0bf8 18       		.uleb128 0x18
 9801 0bf9 7200     		.ascii	"r\000"
 9802 0bfb 01       		.byte	0x1
 9803 0bfc B7       		.byte	0xb7
 9804 0bfd EE000000 		.4byte	0xee
 9805 0c01 02       		.uleb128 0x2
 9806 0c02 91       		.byte	0x91
 9807 0c03 74       		.sleb128 -12
 9808 0c04 00       		.byte	0
 9809 0c05 15       		.uleb128 0x15
ARM GAS  C:\Users\JENNEW~1\AppData\Local\Temp\ccQ5uJSg.s 			page 190


 9810 0c06 94000000 		.4byte	.LBB22
 9811 0c0a 6A000000 		.4byte	.LBE22-.LBB22
 9812 0c0e 18       		.uleb128 0x18
 9813 0c0f 7200     		.ascii	"r\000"
 9814 0c11 01       		.byte	0x1
 9815 0c12 B9       		.byte	0xb9
 9816 0c13 EE000000 		.4byte	0xee
 9817 0c17 02       		.uleb128 0x2
 9818 0c18 91       		.byte	0x91
 9819 0c19 70       		.sleb128 -16
 9820 0c1a 00       		.byte	0
 9821 0c1b 00       		.byte	0
 9822 0c1c 0E       		.uleb128 0xe
 9823 0c1d 950E0000 		.4byte	.LASF142
 9824 0c21 01       		.byte	0x1
 9825 0c22 BC       		.byte	0xbc
 9826 0c23 00000000 		.4byte	.LFB24
 9827 0c27 F0000000 		.4byte	.LFE24-.LFB24
 9828 0c2b 01       		.uleb128 0x1
 9829 0c2c 9C       		.byte	0x9c
 9830 0c2d 960C0000 		.4byte	0xc96
 9831 0c31 0F       		.uleb128 0xf
 9832 0c32 7600     		.ascii	"v\000"
 9833 0c34 01       		.byte	0x1
 9834 0c35 BC       		.byte	0xbc
 9835 0c36 CA0A0000 		.4byte	0xaca
 9836 0c3a 02       		.uleb128 0x2
 9837 0c3b 91       		.byte	0x91
 9838 0c3c 6C       		.sleb128 -20
 9839 0c3d 0F       		.uleb128 0xf
 9840 0c3e 6E00     		.ascii	"n\000"
 9841 0c40 01       		.byte	0x1
 9842 0c41 BC       		.byte	0xbc
 9843 0c42 F9000000 		.4byte	0xf9
 9844 0c46 02       		.uleb128 0x2
 9845 0c47 91       		.byte	0x91
 9846 0c48 68       		.sleb128 -24
 9847 0c49 0F       		.uleb128 0xf
 9848 0c4a 6D617800 		.ascii	"max\000"
 9849 0c4e 01       		.byte	0x1
 9850 0c4f BC       		.byte	0xbc
 9851 0c50 EE000000 		.4byte	0xee
 9852 0c54 02       		.uleb128 0x2
 9853 0c55 91       		.byte	0x91
 9854 0c56 64       		.sleb128 -28
 9855 0c57 0F       		.uleb128 0xf
 9856 0c58 6D696E00 		.ascii	"min\000"
 9857 0c5c 01       		.byte	0x1
 9858 0c5d BC       		.byte	0xbc
 9859 0c5e EE000000 		.4byte	0xee
 9860 0c62 02       		.uleb128 0x2
 9861 0c63 91       		.byte	0x91
 9862 0c64 60       		.sleb128 -32
 9863 0c65 17       		.uleb128 0x17
 9864 0c66 18000000 		.4byte	.LBB23
 9865 0c6a 5A000000 		.4byte	.LBE23-.LBB23
 9866 0c6e 7F0C0000 		.4byte	0xc7f
ARM GAS  C:\Users\JENNEW~1\AppData\Local\Temp\ccQ5uJSg.s 			page 191


 9867 0c72 18       		.uleb128 0x18
 9868 0c73 7200     		.ascii	"r\000"
 9869 0c75 01       		.byte	0x1
 9870 0c76 BE       		.byte	0xbe
 9871 0c77 EE000000 		.4byte	0xee
 9872 0c7b 02       		.uleb128 0x2
 9873 0c7c 91       		.byte	0x91
 9874 0c7d 74       		.sleb128 -12
 9875 0c7e 00       		.byte	0
 9876 0c7f 15       		.uleb128 0x15
 9877 0c80 7E000000 		.4byte	.LBB24
 9878 0c84 54000000 		.4byte	.LBE24-.LBB24
 9879 0c88 18       		.uleb128 0x18
 9880 0c89 7200     		.ascii	"r\000"
 9881 0c8b 01       		.byte	0x1
 9882 0c8c C0       		.byte	0xc0
 9883 0c8d EE000000 		.4byte	0xee
 9884 0c91 02       		.uleb128 0x2
 9885 0c92 91       		.byte	0x91
 9886 0c93 70       		.sleb128 -16
 9887 0c94 00       		.byte	0
 9888 0c95 00       		.byte	0
 9889 0c96 0E       		.uleb128 0xe
 9890 0c97 C7070000 		.4byte	.LASF143
 9891 0c9b 01       		.byte	0x1
 9892 0c9c C3       		.byte	0xc3
 9893 0c9d 00000000 		.4byte	.LFB25
 9894 0ca1 C4000000 		.4byte	.LFE25-.LFB25
 9895 0ca5 01       		.uleb128 0x1
 9896 0ca6 9C       		.byte	0x9c
 9897 0ca7 100D0000 		.4byte	0xd10
 9898 0cab 0F       		.uleb128 0xf
 9899 0cac 7600     		.ascii	"v\000"
 9900 0cae 01       		.byte	0x1
 9901 0caf C3       		.byte	0xc3
 9902 0cb0 CA0A0000 		.4byte	0xaca
 9903 0cb4 02       		.uleb128 0x2
 9904 0cb5 91       		.byte	0x91
 9905 0cb6 6C       		.sleb128 -20
 9906 0cb7 0F       		.uleb128 0xf
 9907 0cb8 6E00     		.ascii	"n\000"
 9908 0cba 01       		.byte	0x1
 9909 0cbb C3       		.byte	0xc3
 9910 0cbc F9000000 		.4byte	0xf9
 9911 0cc0 02       		.uleb128 0x2
 9912 0cc1 91       		.byte	0x91
 9913 0cc2 68       		.sleb128 -24
 9914 0cc3 0F       		.uleb128 0xf
 9915 0cc4 6D617800 		.ascii	"max\000"
 9916 0cc8 01       		.byte	0x1
 9917 0cc9 C3       		.byte	0xc3
 9918 0cca EE000000 		.4byte	0xee
 9919 0cce 02       		.uleb128 0x2
 9920 0ccf 91       		.byte	0x91
 9921 0cd0 64       		.sleb128 -28
 9922 0cd1 0F       		.uleb128 0xf
 9923 0cd2 6D696E00 		.ascii	"min\000"
ARM GAS  C:\Users\JENNEW~1\AppData\Local\Temp\ccQ5uJSg.s 			page 192


 9924 0cd6 01       		.byte	0x1
 9925 0cd7 C3       		.byte	0xc3
 9926 0cd8 EE000000 		.4byte	0xee
 9927 0cdc 02       		.uleb128 0x2
 9928 0cdd 91       		.byte	0x91
 9929 0cde 60       		.sleb128 -32
 9930 0cdf 17       		.uleb128 0x17
 9931 0ce0 18000000 		.4byte	.LBB25
 9932 0ce4 44000000 		.4byte	.LBE25-.LBB25
 9933 0ce8 F90C0000 		.4byte	0xcf9
 9934 0cec 18       		.uleb128 0x18
 9935 0ced 7200     		.ascii	"r\000"
 9936 0cef 01       		.byte	0x1
 9937 0cf0 C5       		.byte	0xc5
 9938 0cf1 EE000000 		.4byte	0xee
 9939 0cf5 02       		.uleb128 0x2
 9940 0cf6 91       		.byte	0x91
 9941 0cf7 74       		.sleb128 -12
 9942 0cf8 00       		.byte	0
 9943 0cf9 15       		.uleb128 0x15
 9944 0cfa 68000000 		.4byte	.LBB26
 9945 0cfe 3E000000 		.4byte	.LBE26-.LBB26
 9946 0d02 18       		.uleb128 0x18
 9947 0d03 7200     		.ascii	"r\000"
 9948 0d05 01       		.byte	0x1
 9949 0d06 C7       		.byte	0xc7
 9950 0d07 EE000000 		.4byte	0xee
 9951 0d0b 02       		.uleb128 0x2
 9952 0d0c 91       		.byte	0x91
 9953 0d0d 70       		.sleb128 -16
 9954 0d0e 00       		.byte	0
 9955 0d0f 00       		.byte	0
 9956 0d10 0E       		.uleb128 0xe
 9957 0d11 4B070000 		.4byte	.LASF144
 9958 0d15 01       		.byte	0x1
 9959 0d16 CA       		.byte	0xca
 9960 0d17 00000000 		.4byte	.LFB26
 9961 0d1b C0000000 		.4byte	.LFE26-.LFB26
 9962 0d1f 01       		.uleb128 0x1
 9963 0d20 9C       		.byte	0x9c
 9964 0d21 8A0D0000 		.4byte	0xd8a
 9965 0d25 0F       		.uleb128 0xf
 9966 0d26 7600     		.ascii	"v\000"
 9967 0d28 01       		.byte	0x1
 9968 0d29 CA       		.byte	0xca
 9969 0d2a CA0A0000 		.4byte	0xaca
 9970 0d2e 02       		.uleb128 0x2
 9971 0d2f 91       		.byte	0x91
 9972 0d30 6C       		.sleb128 -20
 9973 0d31 0F       		.uleb128 0xf
 9974 0d32 6E00     		.ascii	"n\000"
 9975 0d34 01       		.byte	0x1
 9976 0d35 CA       		.byte	0xca
 9977 0d36 F9000000 		.4byte	0xf9
 9978 0d3a 02       		.uleb128 0x2
 9979 0d3b 91       		.byte	0x91
 9980 0d3c 68       		.sleb128 -24
ARM GAS  C:\Users\JENNEW~1\AppData\Local\Temp\ccQ5uJSg.s 			page 193


 9981 0d3d 0F       		.uleb128 0xf
 9982 0d3e 6D617800 		.ascii	"max\000"
 9983 0d42 01       		.byte	0x1
 9984 0d43 CA       		.byte	0xca
 9985 0d44 EE000000 		.4byte	0xee
 9986 0d48 02       		.uleb128 0x2
 9987 0d49 91       		.byte	0x91
 9988 0d4a 64       		.sleb128 -28
 9989 0d4b 0F       		.uleb128 0xf
 9990 0d4c 6D696E00 		.ascii	"min\000"
 9991 0d50 01       		.byte	0x1
 9992 0d51 CA       		.byte	0xca
 9993 0d52 EE000000 		.4byte	0xee
 9994 0d56 02       		.uleb128 0x2
 9995 0d57 91       		.byte	0x91
 9996 0d58 60       		.sleb128 -32
 9997 0d59 17       		.uleb128 0x17
 9998 0d5a 18000000 		.4byte	.LBB27
 9999 0d5e 44000000 		.4byte	.LBE27-.LBB27
 10000 0d62 730D0000 		.4byte	0xd73
 10001 0d66 18       		.uleb128 0x18
 10002 0d67 7200     		.ascii	"r\000"
 10003 0d69 01       		.byte	0x1
 10004 0d6a CC       		.byte	0xcc
 10005 0d6b EE000000 		.4byte	0xee
 10006 0d6f 02       		.uleb128 0x2
 10007 0d70 91       		.byte	0x91
 10008 0d71 74       		.sleb128 -12
 10009 0d72 00       		.byte	0
 10010 0d73 15       		.uleb128 0x15
 10011 0d74 68000000 		.4byte	.LBB28
 10012 0d78 3C000000 		.4byte	.LBE28-.LBB28
 10013 0d7c 18       		.uleb128 0x18
 10014 0d7d 7200     		.ascii	"r\000"
 10015 0d7f 01       		.byte	0x1
 10016 0d80 CE       		.byte	0xce
 10017 0d81 EE000000 		.4byte	0xee
 10018 0d85 02       		.uleb128 0x2
 10019 0d86 91       		.byte	0x91
 10020 0d87 70       		.sleb128 -16
 10021 0d88 00       		.byte	0
 10022 0d89 00       		.byte	0
 10023 0d8a 0E       		.uleb128 0xe
 10024 0d8b 10090000 		.4byte	.LASF145
 10025 0d8f 01       		.byte	0x1
 10026 0d90 D2       		.byte	0xd2
 10027 0d91 00000000 		.4byte	.LFB27
 10028 0d95 58000000 		.4byte	.LFE27-.LFB27
 10029 0d99 01       		.uleb128 0x1
 10030 0d9a 9C       		.byte	0x9c
 10031 0d9b D00D0000 		.4byte	0xdd0
 10032 0d9f 0F       		.uleb128 0xf
 10033 0da0 7600     		.ascii	"v\000"
 10034 0da2 01       		.byte	0x1
 10035 0da3 D2       		.byte	0xd2
 10036 0da4 D00D0000 		.4byte	0xdd0
 10037 0da8 02       		.uleb128 0x2
ARM GAS  C:\Users\JENNEW~1\AppData\Local\Temp\ccQ5uJSg.s 			page 194


 10038 0da9 91       		.byte	0x91
 10039 0daa 6C       		.sleb128 -20
 10040 0dab 0F       		.uleb128 0xf
 10041 0dac 6E00     		.ascii	"n\000"
 10042 0dae 01       		.byte	0x1
 10043 0daf D2       		.byte	0xd2
 10044 0db0 F9000000 		.4byte	0xf9
 10045 0db4 02       		.uleb128 0x2
 10046 0db5 91       		.byte	0x91
 10047 0db6 68       		.sleb128 -24
 10048 0db7 15       		.uleb128 0x15
 10049 0db8 0C000000 		.4byte	.LBB29
 10050 0dbc 32000000 		.4byte	.LBE29-.LBB29
 10051 0dc0 18       		.uleb128 0x18
 10052 0dc1 76616C00 		.ascii	"val\000"
 10053 0dc5 01       		.byte	0x1
 10054 0dc6 D3       		.byte	0xd3
 10055 0dc7 D8000000 		.4byte	0xd8
 10056 0dcb 02       		.uleb128 0x2
 10057 0dcc 91       		.byte	0x91
 10058 0dcd 76       		.sleb128 -10
 10059 0dce 00       		.byte	0
 10060 0dcf 00       		.byte	0
 10061 0dd0 0B       		.uleb128 0xb
 10062 0dd1 04       		.byte	0x4
 10063 0dd2 D8000000 		.4byte	0xd8
 10064 0dd6 0E       		.uleb128 0xe
 10065 0dd7 9C030000 		.4byte	.LASF146
 10066 0ddb 01       		.byte	0x1
 10067 0ddc D5       		.byte	0xd5
 10068 0ddd 00000000 		.4byte	.LFB28
 10069 0de1 40000000 		.4byte	.LFE28-.LFB28
 10070 0de5 01       		.uleb128 0x1
 10071 0de6 9C       		.byte	0x9c
 10072 0de7 1C0E0000 		.4byte	0xe1c
 10073 0deb 0F       		.uleb128 0xf
 10074 0dec 7600     		.ascii	"v\000"
 10075 0dee 01       		.byte	0x1
 10076 0def D5       		.byte	0xd5
 10077 0df0 D00D0000 		.4byte	0xdd0
 10078 0df4 02       		.uleb128 0x2
 10079 0df5 91       		.byte	0x91
 10080 0df6 6C       		.sleb128 -20
 10081 0df7 0F       		.uleb128 0xf
 10082 0df8 6E00     		.ascii	"n\000"
 10083 0dfa 01       		.byte	0x1
 10084 0dfb D5       		.byte	0xd5
 10085 0dfc F9000000 		.4byte	0xf9
 10086 0e00 02       		.uleb128 0x2
 10087 0e01 91       		.byte	0x91
 10088 0e02 68       		.sleb128 -24
 10089 0e03 15       		.uleb128 0x15
 10090 0e04 0C000000 		.4byte	.LBB30
 10091 0e08 1C000000 		.4byte	.LBE30-.LBB30
 10092 0e0c 18       		.uleb128 0x18
 10093 0e0d 76616C00 		.ascii	"val\000"
 10094 0e11 01       		.byte	0x1
ARM GAS  C:\Users\JENNEW~1\AppData\Local\Temp\ccQ5uJSg.s 			page 195


 10095 0e12 D6       		.byte	0xd6
 10096 0e13 C2000000 		.4byte	0xc2
 10097 0e17 02       		.uleb128 0x2
 10098 0e18 91       		.byte	0x91
 10099 0e19 77       		.sleb128 -9
 10100 0e1a 00       		.byte	0
 10101 0e1b 00       		.byte	0
 10102 0e1c 0E       		.uleb128 0xe
 10103 0e1d D40B0000 		.4byte	.LASF147
 10104 0e21 01       		.byte	0x1
 10105 0e22 D8       		.byte	0xd8
 10106 0e23 00000000 		.4byte	.LFB29
 10107 0e27 40000000 		.4byte	.LFE29-.LFB29
 10108 0e2b 01       		.uleb128 0x1
 10109 0e2c 9C       		.byte	0x9c
 10110 0e2d 620E0000 		.4byte	0xe62
 10111 0e31 0F       		.uleb128 0xf
 10112 0e32 7600     		.ascii	"v\000"
 10113 0e34 01       		.byte	0x1
 10114 0e35 D8       		.byte	0xd8
 10115 0e36 D00D0000 		.4byte	0xdd0
 10116 0e3a 02       		.uleb128 0x2
 10117 0e3b 91       		.byte	0x91
 10118 0e3c 6C       		.sleb128 -20
 10119 0e3d 0F       		.uleb128 0xf
 10120 0e3e 6E00     		.ascii	"n\000"
 10121 0e40 01       		.byte	0x1
 10122 0e41 D8       		.byte	0xd8
 10123 0e42 F9000000 		.4byte	0xf9
 10124 0e46 02       		.uleb128 0x2
 10125 0e47 91       		.byte	0x91
 10126 0e48 68       		.sleb128 -24
 10127 0e49 15       		.uleb128 0x15
 10128 0e4a 0C000000 		.4byte	.LBB31
 10129 0e4e 1C000000 		.4byte	.LBE31-.LBB31
 10130 0e52 18       		.uleb128 0x18
 10131 0e53 76616C00 		.ascii	"val\000"
 10132 0e57 01       		.byte	0x1
 10133 0e58 D9       		.byte	0xd9
 10134 0e59 CD000000 		.4byte	0xcd
 10135 0e5d 02       		.uleb128 0x2
 10136 0e5e 91       		.byte	0x91
 10137 0e5f 77       		.sleb128 -9
 10138 0e60 00       		.byte	0
 10139 0e61 00       		.byte	0
 10140 0e62 13       		.uleb128 0x13
 10141 0e63 680E0000 		.4byte	.LASF148
 10142 0e67 01       		.byte	0x1
 10143 0e68 DB       		.byte	0xdb
 10144 0e69 00000000 		.4byte	.LFB30
 10145 0e6d 5C010000 		.4byte	.LFE30-.LFB30
 10146 0e71 01       		.uleb128 0x1
 10147 0e72 9C       		.byte	0x9c
 10148 0e73 DC0E0000 		.4byte	0xedc
 10149 0e77 0F       		.uleb128 0xf
 10150 0e78 7600     		.ascii	"v\000"
 10151 0e7a 01       		.byte	0x1
ARM GAS  C:\Users\JENNEW~1\AppData\Local\Temp\ccQ5uJSg.s 			page 196


 10152 0e7b DB       		.byte	0xdb
 10153 0e7c D00D0000 		.4byte	0xdd0
 10154 0e80 02       		.uleb128 0x2
 10155 0e81 91       		.byte	0x91
 10156 0e82 6C       		.sleb128 -20
 10157 0e83 0F       		.uleb128 0xf
 10158 0e84 6E00     		.ascii	"n\000"
 10159 0e86 01       		.byte	0x1
 10160 0e87 DB       		.byte	0xdb
 10161 0e88 F9000000 		.4byte	0xf9
 10162 0e8c 02       		.uleb128 0x2
 10163 0e8d 91       		.byte	0x91
 10164 0e8e 68       		.sleb128 -24
 10165 0e8f 0F       		.uleb128 0xf
 10166 0e90 6D617800 		.ascii	"max\000"
 10167 0e94 01       		.byte	0x1
 10168 0e95 DB       		.byte	0xdb
 10169 0e96 28010000 		.4byte	0x128
 10170 0e9a 02       		.uleb128 0x2
 10171 0e9b 91       		.byte	0x91
 10172 0e9c 64       		.sleb128 -28
 10173 0e9d 0F       		.uleb128 0xf
 10174 0e9e 6D696E00 		.ascii	"min\000"
 10175 0ea2 01       		.byte	0x1
 10176 0ea3 DB       		.byte	0xdb
 10177 0ea4 28010000 		.4byte	0x128
 10178 0ea8 02       		.uleb128 0x2
 10179 0ea9 91       		.byte	0x91
 10180 0eaa 60       		.sleb128 -32
 10181 0eab 17       		.uleb128 0x17
 10182 0eac 1A000000 		.4byte	.LBB32
 10183 0eb0 94000000 		.4byte	.LBE32-.LBB32
 10184 0eb4 C50E0000 		.4byte	0xec5
 10185 0eb8 18       		.uleb128 0x18
 10186 0eb9 7200     		.ascii	"r\000"
 10187 0ebb 01       		.byte	0x1
 10188 0ebc DD       		.byte	0xdd
 10189 0ebd D8000000 		.4byte	0xd8
 10190 0ec1 02       		.uleb128 0x2
 10191 0ec2 91       		.byte	0x91
 10192 0ec3 76       		.sleb128 -10
 10193 0ec4 00       		.byte	0
 10194 0ec5 15       		.uleb128 0x15
 10195 0ec6 BA000000 		.4byte	.LBB33
 10196 0eca 86000000 		.4byte	.LBE33-.LBB33
 10197 0ece 18       		.uleb128 0x18
 10198 0ecf 7200     		.ascii	"r\000"
 10199 0ed1 01       		.byte	0x1
 10200 0ed2 DF       		.byte	0xdf
 10201 0ed3 D8000000 		.4byte	0xd8
 10202 0ed7 02       		.uleb128 0x2
 10203 0ed8 91       		.byte	0x91
 10204 0ed9 74       		.sleb128 -12
 10205 0eda 00       		.byte	0
 10206 0edb 00       		.byte	0
 10207 0edc 13       		.uleb128 0x13
 10208 0edd 44020000 		.4byte	.LASF149
ARM GAS  C:\Users\JENNEW~1\AppData\Local\Temp\ccQ5uJSg.s 			page 197


 10209 0ee1 01       		.byte	0x1
 10210 0ee2 E2       		.byte	0xe2
 10211 0ee3 00000000 		.4byte	.LFB31
 10212 0ee7 30010000 		.4byte	.LFE31-.LFB31
 10213 0eeb 01       		.uleb128 0x1
 10214 0eec 9C       		.byte	0x9c
 10215 0eed 560F0000 		.4byte	0xf56
 10216 0ef1 0F       		.uleb128 0xf
 10217 0ef2 7600     		.ascii	"v\000"
 10218 0ef4 01       		.byte	0x1
 10219 0ef5 E2       		.byte	0xe2
 10220 0ef6 D00D0000 		.4byte	0xdd0
 10221 0efa 02       		.uleb128 0x2
 10222 0efb 91       		.byte	0x91
 10223 0efc 6C       		.sleb128 -20
 10224 0efd 0F       		.uleb128 0xf
 10225 0efe 6E00     		.ascii	"n\000"
 10226 0f00 01       		.byte	0x1
 10227 0f01 E2       		.byte	0xe2
 10228 0f02 F9000000 		.4byte	0xf9
 10229 0f06 02       		.uleb128 0x2
 10230 0f07 91       		.byte	0x91
 10231 0f08 68       		.sleb128 -24
 10232 0f09 0F       		.uleb128 0xf
 10233 0f0a 6D617800 		.ascii	"max\000"
 10234 0f0e 01       		.byte	0x1
 10235 0f0f E2       		.byte	0xe2
 10236 0f10 28010000 		.4byte	0x128
 10237 0f14 02       		.uleb128 0x2
 10238 0f15 91       		.byte	0x91
 10239 0f16 64       		.sleb128 -28
 10240 0f17 0F       		.uleb128 0xf
 10241 0f18 6D696E00 		.ascii	"min\000"
 10242 0f1c 01       		.byte	0x1
 10243 0f1d E2       		.byte	0xe2
 10244 0f1e 28010000 		.4byte	0x128
 10245 0f22 02       		.uleb128 0x2
 10246 0f23 91       		.byte	0x91
 10247 0f24 60       		.sleb128 -32
 10248 0f25 17       		.uleb128 0x17
 10249 0f26 18000000 		.4byte	.LBB34
 10250 0f2a 80000000 		.4byte	.LBE34-.LBB34
 10251 0f2e 3F0F0000 		.4byte	0xf3f
 10252 0f32 18       		.uleb128 0x18
 10253 0f33 7200     		.ascii	"r\000"
 10254 0f35 01       		.byte	0x1
 10255 0f36 E4       		.byte	0xe4
 10256 0f37 D8000000 		.4byte	0xd8
 10257 0f3b 02       		.uleb128 0x2
 10258 0f3c 91       		.byte	0x91
 10259 0f3d 76       		.sleb128 -10
 10260 0f3e 00       		.byte	0
 10261 0f3f 15       		.uleb128 0x15
 10262 0f40 A4000000 		.4byte	.LBB35
 10263 0f44 72000000 		.4byte	.LBE35-.LBB35
 10264 0f48 18       		.uleb128 0x18
 10265 0f49 7200     		.ascii	"r\000"
ARM GAS  C:\Users\JENNEW~1\AppData\Local\Temp\ccQ5uJSg.s 			page 198


 10266 0f4b 01       		.byte	0x1
 10267 0f4c E6       		.byte	0xe6
 10268 0f4d D8000000 		.4byte	0xd8
 10269 0f51 02       		.uleb128 0x2
 10270 0f52 91       		.byte	0x91
 10271 0f53 74       		.sleb128 -12
 10272 0f54 00       		.byte	0
 10273 0f55 00       		.byte	0
 10274 0f56 0E       		.uleb128 0xe
 10275 0f57 CF090000 		.4byte	.LASF150
 10276 0f5b 01       		.byte	0x1
 10277 0f5c E9       		.byte	0xe9
 10278 0f5d 00000000 		.4byte	.LFB32
 10279 0f61 E0000000 		.4byte	.LFE32-.LFB32
 10280 0f65 01       		.uleb128 0x1
 10281 0f66 9C       		.byte	0x9c
 10282 0f67 D00F0000 		.4byte	0xfd0
 10283 0f6b 0F       		.uleb128 0xf
 10284 0f6c 7600     		.ascii	"v\000"
 10285 0f6e 01       		.byte	0x1
 10286 0f6f E9       		.byte	0xe9
 10287 0f70 D00D0000 		.4byte	0xdd0
 10288 0f74 02       		.uleb128 0x2
 10289 0f75 91       		.byte	0x91
 10290 0f76 6C       		.sleb128 -20
 10291 0f77 0F       		.uleb128 0xf
 10292 0f78 6E00     		.ascii	"n\000"
 10293 0f7a 01       		.byte	0x1
 10294 0f7b E9       		.byte	0xe9
 10295 0f7c F9000000 		.4byte	0xf9
 10296 0f80 02       		.uleb128 0x2
 10297 0f81 91       		.byte	0x91
 10298 0f82 68       		.sleb128 -24
 10299 0f83 0F       		.uleb128 0xf
 10300 0f84 6D617800 		.ascii	"max\000"
 10301 0f88 01       		.byte	0x1
 10302 0f89 E9       		.byte	0xe9
 10303 0f8a D8000000 		.4byte	0xd8
 10304 0f8e 02       		.uleb128 0x2
 10305 0f8f 91       		.byte	0x91
 10306 0f90 66       		.sleb128 -26
 10307 0f91 0F       		.uleb128 0xf
 10308 0f92 6D696E00 		.ascii	"min\000"
 10309 0f96 01       		.byte	0x1
 10310 0f97 E9       		.byte	0xe9
 10311 0f98 D8000000 		.4byte	0xd8
 10312 0f9c 02       		.uleb128 0x2
 10313 0f9d 91       		.byte	0x91
 10314 0f9e 64       		.sleb128 -28
 10315 0f9f 17       		.uleb128 0x17
 10316 0fa0 20000000 		.4byte	.LBB36
 10317 0fa4 54000000 		.4byte	.LBE36-.LBB36
 10318 0fa8 B90F0000 		.4byte	0xfb9
 10319 0fac 18       		.uleb128 0x18
 10320 0fad 7200     		.ascii	"r\000"
 10321 0faf 01       		.byte	0x1
 10322 0fb0 EB       		.byte	0xeb
ARM GAS  C:\Users\JENNEW~1\AppData\Local\Temp\ccQ5uJSg.s 			page 199


 10323 0fb1 D8000000 		.4byte	0xd8
 10324 0fb5 02       		.uleb128 0x2
 10325 0fb6 91       		.byte	0x91
 10326 0fb7 76       		.sleb128 -10
 10327 0fb8 00       		.byte	0
 10328 0fb9 15       		.uleb128 0x15
 10329 0fba 80000000 		.4byte	.LBB37
 10330 0fbe 44000000 		.4byte	.LBE37-.LBB37
 10331 0fc2 18       		.uleb128 0x18
 10332 0fc3 7200     		.ascii	"r\000"
 10333 0fc5 01       		.byte	0x1
 10334 0fc6 ED       		.byte	0xed
 10335 0fc7 D8000000 		.4byte	0xd8
 10336 0fcb 02       		.uleb128 0x2
 10337 0fcc 91       		.byte	0x91
 10338 0fcd 74       		.sleb128 -12
 10339 0fce 00       		.byte	0
 10340 0fcf 00       		.byte	0
 10341 0fd0 0E       		.uleb128 0xe
 10342 0fd1 820B0000 		.4byte	.LASF151
 10343 0fd5 01       		.byte	0x1
 10344 0fd6 F1       		.byte	0xf1
 10345 0fd7 00000000 		.4byte	.LFB33
 10346 0fdb 40000000 		.4byte	.LFE33-.LFB33
 10347 0fdf 01       		.uleb128 0x1
 10348 0fe0 9C       		.byte	0x9c
 10349 0fe1 FE0F0000 		.4byte	0xffe
 10350 0fe5 0F       		.uleb128 0xf
 10351 0fe6 7600     		.ascii	"v\000"
 10352 0fe8 01       		.byte	0x1
 10353 0fe9 F1       		.byte	0xf1
 10354 0fea FE0F0000 		.4byte	0xffe
 10355 0fee 02       		.uleb128 0x2
 10356 0fef 91       		.byte	0x91
 10357 0ff0 74       		.sleb128 -12
 10358 0ff1 0F       		.uleb128 0xf
 10359 0ff2 6E00     		.ascii	"n\000"
 10360 0ff4 01       		.byte	0x1
 10361 0ff5 F1       		.byte	0xf1
 10362 0ff6 F9000000 		.4byte	0xf9
 10363 0ffa 02       		.uleb128 0x2
 10364 0ffb 91       		.byte	0x91
 10365 0ffc 70       		.sleb128 -16
 10366 0ffd 00       		.byte	0
 10367 0ffe 0B       		.uleb128 0xb
 10368 0fff 04       		.byte	0x4
 10369 1000 C2000000 		.4byte	0xc2
 10370 1004 0E       		.uleb128 0xe
 10371 1005 DA050000 		.4byte	.LASF152
 10372 1009 01       		.byte	0x1
 10373 100a F4       		.byte	0xf4
 10374 100b 00000000 		.4byte	.LFB34
 10375 100f DC000000 		.4byte	.LFE34-.LFB34
 10376 1013 01       		.uleb128 0x1
 10377 1014 9C       		.byte	0x9c
 10378 1015 8A100000 		.4byte	0x108a
 10379 1019 0F       		.uleb128 0xf
ARM GAS  C:\Users\JENNEW~1\AppData\Local\Temp\ccQ5uJSg.s 			page 200


 10380 101a 7600     		.ascii	"v\000"
 10381 101c 01       		.byte	0x1
 10382 101d F4       		.byte	0xf4
 10383 101e FE0F0000 		.4byte	0xffe
 10384 1022 02       		.uleb128 0x2
 10385 1023 91       		.byte	0x91
 10386 1024 6C       		.sleb128 -20
 10387 1025 0F       		.uleb128 0xf
 10388 1026 6E00     		.ascii	"n\000"
 10389 1028 01       		.byte	0x1
 10390 1029 F4       		.byte	0xf4
 10391 102a F9000000 		.4byte	0xf9
 10392 102e 02       		.uleb128 0x2
 10393 102f 91       		.byte	0x91
 10394 1030 68       		.sleb128 -24
 10395 1031 0F       		.uleb128 0xf
 10396 1032 6D617800 		.ascii	"max\000"
 10397 1036 01       		.byte	0x1
 10398 1037 F4       		.byte	0xf4
 10399 1038 C2000000 		.4byte	0xc2
 10400 103c 02       		.uleb128 0x2
 10401 103d 91       		.byte	0x91
 10402 103e 67       		.sleb128 -25
 10403 103f 0F       		.uleb128 0xf
 10404 1040 6D696E00 		.ascii	"min\000"
 10405 1044 01       		.byte	0x1
 10406 1045 F4       		.byte	0xf4
 10407 1046 C2000000 		.4byte	0xc2
 10408 104a 02       		.uleb128 0x2
 10409 104b 91       		.byte	0x91
 10410 104c 66       		.sleb128 -26
 10411 104d 17       		.uleb128 0x17
 10412 104e 20000000 		.4byte	.LBB38
 10413 1052 50000000 		.4byte	.LBE38-.LBB38
 10414 1056 73100000 		.4byte	0x1073
 10415 105a 18       		.uleb128 0x18
 10416 105b 7200     		.ascii	"r\000"
 10417 105d 01       		.byte	0x1
 10418 105e F6       		.byte	0xf6
 10419 105f C2000000 		.4byte	0xc2
 10420 1063 02       		.uleb128 0x2
 10421 1064 91       		.byte	0x91
 10422 1065 73       		.sleb128 -13
 10423 1066 18       		.uleb128 0x18
 10424 1067 7400     		.ascii	"t\000"
 10425 1069 01       		.byte	0x1
 10426 106a F6       		.byte	0xf6
 10427 106b EE000000 		.4byte	0xee
 10428 106f 02       		.uleb128 0x2
 10429 1070 91       		.byte	0x91
 10430 1071 74       		.sleb128 -12
 10431 1072 00       		.byte	0
 10432 1073 15       		.uleb128 0x15
 10433 1074 7C000000 		.4byte	.LBB39
 10434 1078 44000000 		.4byte	.LBE39-.LBB39
 10435 107c 18       		.uleb128 0x18
 10436 107d 7200     		.ascii	"r\000"
ARM GAS  C:\Users\JENNEW~1\AppData\Local\Temp\ccQ5uJSg.s 			page 201


 10437 107f 01       		.byte	0x1
 10438 1080 F9       		.byte	0xf9
 10439 1081 C2000000 		.4byte	0xc2
 10440 1085 02       		.uleb128 0x2
 10441 1086 91       		.byte	0x91
 10442 1087 72       		.sleb128 -14
 10443 1088 00       		.byte	0
 10444 1089 00       		.byte	0
 10445 108a 0E       		.uleb128 0xe
 10446 108b 8A020000 		.4byte	.LASF153
 10447 108f 01       		.byte	0x1
 10448 1090 FE       		.byte	0xfe
 10449 1091 00000000 		.4byte	.LFB35
 10450 1095 3C000000 		.4byte	.LFE35-.LFB35
 10451 1099 01       		.uleb128 0x1
 10452 109a 9C       		.byte	0x9c
 10453 109b B8100000 		.4byte	0x10b8
 10454 109f 0F       		.uleb128 0xf
 10455 10a0 7600     		.ascii	"v\000"
 10456 10a2 01       		.byte	0x1
 10457 10a3 FE       		.byte	0xfe
 10458 10a4 4C040000 		.4byte	0x44c
 10459 10a8 02       		.uleb128 0x2
 10460 10a9 91       		.byte	0x91
 10461 10aa 74       		.sleb128 -12
 10462 10ab 0F       		.uleb128 0xf
 10463 10ac 6E00     		.ascii	"n\000"
 10464 10ae 01       		.byte	0x1
 10465 10af FE       		.byte	0xfe
 10466 10b0 F9000000 		.4byte	0xf9
 10467 10b4 02       		.uleb128 0x2
 10468 10b5 91       		.byte	0x91
 10469 10b6 70       		.sleb128 -16
 10470 10b7 00       		.byte	0
 10471 10b8 19       		.uleb128 0x19
 10472 10b9 4C0C0000 		.4byte	.LASF154
 10473 10bd 01       		.byte	0x1
 10474 10be 0101     		.2byte	0x101
 10475 10c0 00000000 		.4byte	.LFB36
 10476 10c4 C8000000 		.4byte	.LFE36-.LFB36
 10477 10c8 01       		.uleb128 0x1
 10478 10c9 9C       		.byte	0x9c
 10479 10ca 46110000 		.4byte	0x1146
 10480 10ce 1A       		.uleb128 0x1a
 10481 10cf 7600     		.ascii	"v\000"
 10482 10d1 01       		.byte	0x1
 10483 10d2 0101     		.2byte	0x101
 10484 10d4 4C040000 		.4byte	0x44c
 10485 10d8 02       		.uleb128 0x2
 10486 10d9 91       		.byte	0x91
 10487 10da 6C       		.sleb128 -20
 10488 10db 1A       		.uleb128 0x1a
 10489 10dc 6E00     		.ascii	"n\000"
 10490 10de 01       		.byte	0x1
 10491 10df 0101     		.2byte	0x101
 10492 10e1 F9000000 		.4byte	0xf9
 10493 10e5 02       		.uleb128 0x2
ARM GAS  C:\Users\JENNEW~1\AppData\Local\Temp\ccQ5uJSg.s 			page 202


 10494 10e6 91       		.byte	0x91
 10495 10e7 68       		.sleb128 -24
 10496 10e8 1A       		.uleb128 0x1a
 10497 10e9 6D617800 		.ascii	"max\000"
 10498 10ed 01       		.byte	0x1
 10499 10ee 0101     		.2byte	0x101
 10500 10f0 CD000000 		.4byte	0xcd
 10501 10f4 02       		.uleb128 0x2
 10502 10f5 91       		.byte	0x91
 10503 10f6 67       		.sleb128 -25
 10504 10f7 1A       		.uleb128 0x1a
 10505 10f8 6D696E00 		.ascii	"min\000"
 10506 10fc 01       		.byte	0x1
 10507 10fd 0101     		.2byte	0x101
 10508 10ff CD000000 		.4byte	0xcd
 10509 1103 02       		.uleb128 0x2
 10510 1104 91       		.byte	0x91
 10511 1105 66       		.sleb128 -26
 10512 1106 17       		.uleb128 0x17
 10513 1107 20000000 		.4byte	.LBB40
 10514 110b 46000000 		.4byte	.LBE40-.LBB40
 10515 110f 2E110000 		.4byte	0x112e
 10516 1113 1B       		.uleb128 0x1b
 10517 1114 7200     		.ascii	"r\000"
 10518 1116 01       		.byte	0x1
 10519 1117 0301     		.2byte	0x103
 10520 1119 C2000000 		.4byte	0xc2
 10521 111d 02       		.uleb128 0x2
 10522 111e 91       		.byte	0x91
 10523 111f 73       		.sleb128 -13
 10524 1120 1B       		.uleb128 0x1b
 10525 1121 7400     		.ascii	"t\000"
 10526 1123 01       		.byte	0x1
 10527 1124 0301     		.2byte	0x103
 10528 1126 EE000000 		.4byte	0xee
 10529 112a 02       		.uleb128 0x2
 10530 112b 91       		.byte	0x91
 10531 112c 74       		.sleb128 -12
 10532 112d 00       		.byte	0
 10533 112e 15       		.uleb128 0x15
 10534 112f 72000000 		.4byte	.LBB41
 10535 1133 3A000000 		.4byte	.LBE41-.LBB41
 10536 1137 1B       		.uleb128 0x1b
 10537 1138 7200     		.ascii	"r\000"
 10538 113a 01       		.byte	0x1
 10539 113b 0601     		.2byte	0x106
 10540 113d CD000000 		.4byte	0xcd
 10541 1141 02       		.uleb128 0x2
 10542 1142 91       		.byte	0x91
 10543 1143 72       		.sleb128 -14
 10544 1144 00       		.byte	0
 10545 1145 00       		.byte	0
 10546 1146 19       		.uleb128 0x19
 10547 1147 260D0000 		.4byte	.LASF155
 10548 114b 01       		.byte	0x1
 10549 114c 0B01     		.2byte	0x10b
 10550 114e 00000000 		.4byte	.LFB37
ARM GAS  C:\Users\JENNEW~1\AppData\Local\Temp\ccQ5uJSg.s 			page 203


 10551 1152 54000000 		.4byte	.LFE37-.LFB37
 10552 1156 01       		.uleb128 0x1
 10553 1157 9C       		.byte	0x9c
 10554 1158 77110000 		.4byte	0x1177
 10555 115c 1A       		.uleb128 0x1a
 10556 115d 7600     		.ascii	"v\000"
 10557 115f 01       		.byte	0x1
 10558 1160 0B01     		.2byte	0x10b
 10559 1162 77110000 		.4byte	0x1177
 10560 1166 02       		.uleb128 0x2
 10561 1167 91       		.byte	0x91
 10562 1168 74       		.sleb128 -12
 10563 1169 1A       		.uleb128 0x1a
 10564 116a 6E00     		.ascii	"n\000"
 10565 116c 01       		.byte	0x1
 10566 116d 0B01     		.2byte	0x10b
 10567 116f F9000000 		.4byte	0xf9
 10568 1173 02       		.uleb128 0x2
 10569 1174 91       		.byte	0x91
 10570 1175 70       		.sleb128 -16
 10571 1176 00       		.byte	0
 10572 1177 0B       		.uleb128 0xb
 10573 1178 04       		.byte	0x4
 10574 1179 E3000000 		.4byte	0xe3
 10575 117d 19       		.uleb128 0x19
 10576 117e E50C0000 		.4byte	.LASF156
 10577 1182 01       		.byte	0x1
 10578 1183 0E01     		.2byte	0x10e
 10579 1185 00000000 		.4byte	.LFB38
 10580 1189 F8000000 		.4byte	.LFE38-.LFB38
 10581 118d 01       		.uleb128 0x1
 10582 118e 9C       		.byte	0x9c
 10583 118f FE110000 		.4byte	0x11fe
 10584 1193 1A       		.uleb128 0x1a
 10585 1194 7600     		.ascii	"v\000"
 10586 1196 01       		.byte	0x1
 10587 1197 0E01     		.2byte	0x10e
 10588 1199 77110000 		.4byte	0x1177
 10589 119d 02       		.uleb128 0x2
 10590 119e 91       		.byte	0x91
 10591 119f 6C       		.sleb128 -20
 10592 11a0 1A       		.uleb128 0x1a
 10593 11a1 6E00     		.ascii	"n\000"
 10594 11a3 01       		.byte	0x1
 10595 11a4 0E01     		.2byte	0x10e
 10596 11a6 F9000000 		.4byte	0xf9
 10597 11aa 02       		.uleb128 0x2
 10598 11ab 91       		.byte	0x91
 10599 11ac 68       		.sleb128 -24
 10600 11ad 1A       		.uleb128 0x1a
 10601 11ae 6D617800 		.ascii	"max\000"
 10602 11b2 01       		.byte	0x1
 10603 11b3 0E01     		.2byte	0x10e
 10604 11b5 E3000000 		.4byte	0xe3
 10605 11b9 02       		.uleb128 0x2
 10606 11ba 91       		.byte	0x91
 10607 11bb 66       		.sleb128 -26
ARM GAS  C:\Users\JENNEW~1\AppData\Local\Temp\ccQ5uJSg.s 			page 204


 10608 11bc 1A       		.uleb128 0x1a
 10609 11bd 6D696E00 		.ascii	"min\000"
 10610 11c1 01       		.byte	0x1
 10611 11c2 0E01     		.2byte	0x10e
 10612 11c4 E3000000 		.4byte	0xe3
 10613 11c8 02       		.uleb128 0x2
 10614 11c9 91       		.byte	0x91
 10615 11ca 64       		.sleb128 -28
 10616 11cb 17       		.uleb128 0x17
 10617 11cc 20000000 		.4byte	.LBB42
 10618 11d0 5C000000 		.4byte	.LBE42-.LBB42
 10619 11d4 E6110000 		.4byte	0x11e6
 10620 11d8 1B       		.uleb128 0x1b
 10621 11d9 7200     		.ascii	"r\000"
 10622 11db 01       		.byte	0x1
 10623 11dc 1001     		.2byte	0x110
 10624 11de E3000000 		.4byte	0xe3
 10625 11e2 02       		.uleb128 0x2
 10626 11e3 91       		.byte	0x91
 10627 11e4 76       		.sleb128 -10
 10628 11e5 00       		.byte	0
 10629 11e6 15       		.uleb128 0x15
 10630 11e7 88000000 		.4byte	.LBB43
 10631 11eb 54000000 		.4byte	.LBE43-.LBB43
 10632 11ef 1B       		.uleb128 0x1b
 10633 11f0 7200     		.ascii	"r\000"
 10634 11f2 01       		.byte	0x1
 10635 11f3 1201     		.2byte	0x112
 10636 11f5 E3000000 		.4byte	0xe3
 10637 11f9 02       		.uleb128 0x2
 10638 11fa 91       		.byte	0x91
 10639 11fb 74       		.sleb128 -12
 10640 11fc 00       		.byte	0
 10641 11fd 00       		.byte	0
 10642 11fe 19       		.uleb128 0x19
 10643 11ff 8A070000 		.4byte	.LASF157
 10644 1203 01       		.byte	0x1
 10645 1204 1601     		.2byte	0x116
 10646 1206 00000000 		.4byte	.LFB39
 10647 120a CC000000 		.4byte	.LFE39-.LFB39
 10648 120e 01       		.uleb128 0x1
 10649 120f 9C       		.byte	0x9c
 10650 1210 5E120000 		.4byte	0x125e
 10651 1214 1A       		.uleb128 0x1a
 10652 1215 7600     		.ascii	"v\000"
 10653 1217 01       		.byte	0x1
 10654 1218 1601     		.2byte	0x116
 10655 121a 4C040000 		.4byte	0x44c
 10656 121e 02       		.uleb128 0x2
 10657 121f 91       		.byte	0x91
 10658 1220 6C       		.sleb128 -20
 10659 1221 1C       		.uleb128 0x1c
 10660 1222 22080000 		.4byte	.LASF158
 10661 1226 01       		.byte	0x1
 10662 1227 1601     		.2byte	0x116
 10663 1229 CD000000 		.4byte	0xcd
 10664 122d 02       		.uleb128 0x2
ARM GAS  C:\Users\JENNEW~1\AppData\Local\Temp\ccQ5uJSg.s 			page 205


 10665 122e 91       		.byte	0x91
 10666 122f 6B       		.sleb128 -21
 10667 1230 1C       		.uleb128 0x1c
 10668 1231 3C070000 		.4byte	.LASF159
 10669 1235 01       		.byte	0x1
 10670 1236 1601     		.2byte	0x116
 10671 1238 CD000000 		.4byte	0xcd
 10672 123c 02       		.uleb128 0x2
 10673 123d 91       		.byte	0x91
 10674 123e 6A       		.sleb128 -22
 10675 123f 1D       		.uleb128 0x1d
 10676 1240 CF0A0000 		.4byte	.LASF160
 10677 1244 01       		.byte	0x1
 10678 1245 1701     		.2byte	0x117
 10679 1247 CD000000 		.4byte	0xcd
 10680 124b 02       		.uleb128 0x2
 10681 124c 91       		.byte	0x91
 10682 124d 76       		.sleb128 -10
 10683 124e 1D       		.uleb128 0x1d
 10684 124f E0080000 		.4byte	.LASF161
 10685 1253 01       		.byte	0x1
 10686 1254 1701     		.2byte	0x117
 10687 1256 CD000000 		.4byte	0xcd
 10688 125a 02       		.uleb128 0x2
 10689 125b 91       		.byte	0x91
 10690 125c 77       		.sleb128 -9
 10691 125d 00       		.byte	0
 10692 125e 19       		.uleb128 0x19
 10693 125f E60E0000 		.4byte	.LASF162
 10694 1263 01       		.byte	0x1
 10695 1264 2401     		.2byte	0x124
 10696 1266 00000000 		.4byte	.LFB40
 10697 126a DC000000 		.4byte	.LFE40-.LFB40
 10698 126e 01       		.uleb128 0x1
 10699 126f 9C       		.byte	0x9c
 10700 1270 C8120000 		.4byte	0x12c8
 10701 1274 1A       		.uleb128 0x1a
 10702 1275 7600     		.ascii	"v\000"
 10703 1277 01       		.byte	0x1
 10704 1278 2401     		.2byte	0x124
 10705 127a 4C040000 		.4byte	0x44c
 10706 127e 02       		.uleb128 0x2
 10707 127f 91       		.byte	0x91
 10708 1280 6C       		.sleb128 -20
 10709 1281 1C       		.uleb128 0x1c
 10710 1282 22080000 		.4byte	.LASF158
 10711 1286 01       		.byte	0x1
 10712 1287 2401     		.2byte	0x124
 10713 1289 CD000000 		.4byte	0xcd
 10714 128d 02       		.uleb128 0x2
 10715 128e 91       		.byte	0x91
 10716 128f 6B       		.sleb128 -21
 10717 1290 1C       		.uleb128 0x1c
 10718 1291 3C070000 		.4byte	.LASF159
 10719 1295 01       		.byte	0x1
 10720 1296 2401     		.2byte	0x124
 10721 1298 CD000000 		.4byte	0xcd
ARM GAS  C:\Users\JENNEW~1\AppData\Local\Temp\ccQ5uJSg.s 			page 206


 10722 129c 02       		.uleb128 0x2
 10723 129d 91       		.byte	0x91
 10724 129e 6A       		.sleb128 -22
 10725 129f 1D       		.uleb128 0x1d
 10726 12a0 E0080000 		.4byte	.LASF161
 10727 12a4 01       		.byte	0x1
 10728 12a5 2501     		.2byte	0x125
 10729 12a7 CD000000 		.4byte	0xcd
 10730 12ab 02       		.uleb128 0x2
 10731 12ac 91       		.byte	0x91
 10732 12ad 77       		.sleb128 -9
 10733 12ae 15       		.uleb128 0x15
 10734 12af 7E000000 		.4byte	.LBB44
 10735 12b3 2A000000 		.4byte	.LBE44-.LBB44
 10736 12b7 1D       		.uleb128 0x1d
 10737 12b8 8C0E0000 		.4byte	.LASF163
 10738 12bc 01       		.byte	0x1
 10739 12bd 2E01     		.2byte	0x12e
 10740 12bf CD000000 		.4byte	0xcd
 10741 12c3 02       		.uleb128 0x2
 10742 12c4 91       		.byte	0x91
 10743 12c5 76       		.sleb128 -10
 10744 12c6 00       		.byte	0
 10745 12c7 00       		.byte	0
 10746 12c8 1E       		.uleb128 0x1e
 10747 12c9 890F0000 		.4byte	.LASF165
 10748 12cd 01       		.byte	0x1
 10749 12ce 3901     		.2byte	0x139
 10750 12d0 5C020000 		.4byte	0x25c
 10751 12d4 00000000 		.4byte	.LFB41
 10752 12d8 2E000000 		.4byte	.LFE41-.LFB41
 10753 12dc 01       		.uleb128 0x1
 10754 12dd 9C       		.byte	0x9c
 10755 12de F2120000 		.4byte	0x12f2
 10756 12e2 1C       		.uleb128 0x1c
 10757 12e3 2A0A0000 		.4byte	.LASF164
 10758 12e7 01       		.byte	0x1
 10759 12e8 3901     		.2byte	0x139
 10760 12ea 01050000 		.4byte	0x501
 10761 12ee 02       		.uleb128 0x2
 10762 12ef 91       		.byte	0x91
 10763 12f0 74       		.sleb128 -12
 10764 12f1 00       		.byte	0
 10765 12f2 1E       		.uleb128 0x1e
 10766 12f3 88050000 		.4byte	.LASF166
 10767 12f7 01       		.byte	0x1
 10768 12f8 4201     		.2byte	0x142
 10769 12fa 5C020000 		.4byte	0x25c
 10770 12fe 00000000 		.4byte	.LFB42
 10771 1302 EC000000 		.4byte	.LFE42-.LFB42
 10772 1306 01       		.uleb128 0x1
 10773 1307 9C       		.byte	0x9c
 10774 1308 44130000 		.4byte	0x1344
 10775 130c 1C       		.uleb128 0x1c
 10776 130d 8A080000 		.4byte	.LASF167
 10777 1311 01       		.byte	0x1
 10778 1312 4201     		.2byte	0x142
ARM GAS  C:\Users\JENNEW~1\AppData\Local\Temp\ccQ5uJSg.s 			page 207


 10779 1314 01050000 		.4byte	0x501
 10780 1318 02       		.uleb128 0x2
 10781 1319 91       		.byte	0x91
 10782 131a 6C       		.sleb128 -20
 10783 131b 15       		.uleb128 0x15
 10784 131c 56000000 		.4byte	.LBB45
 10785 1320 46000000 		.4byte	.LBE45-.LBB45
 10786 1324 1D       		.uleb128 0x1d
 10787 1325 B2020000 		.4byte	.LASF168
 10788 1329 01       		.byte	0x1
 10789 132a 5201     		.2byte	0x152
 10790 132c F9000000 		.4byte	0xf9
 10791 1330 02       		.uleb128 0x2
 10792 1331 91       		.byte	0x91
 10793 1332 74       		.sleb128 -12
 10794 1333 1D       		.uleb128 0x1d
 10795 1334 22030000 		.4byte	.LASF169
 10796 1338 01       		.byte	0x1
 10797 1339 5401     		.2byte	0x154
 10798 133b F9000000 		.4byte	0xf9
 10799 133f 02       		.uleb128 0x2
 10800 1340 91       		.byte	0x91
 10801 1341 70       		.sleb128 -16
 10802 1342 00       		.byte	0
 10803 1343 00       		.byte	0
 10804 1344 1F       		.uleb128 0x1f
 10805 1345 780D0000 		.4byte	.LASF172
 10806 1349 01       		.byte	0x1
 10807 134a 6501     		.2byte	0x165
 10808 134c 00000000 		.4byte	.LFB43
 10809 1350 90000000 		.4byte	.LFE43-.LFB43
 10810 1354 01       		.uleb128 0x1
 10811 1355 9C       		.byte	0x9c
 10812 1356 92130000 		.4byte	0x1392
 10813 135a 1C       		.uleb128 0x1c
 10814 135b 8A080000 		.4byte	.LASF167
 10815 135f 01       		.byte	0x1
 10816 1360 6501     		.2byte	0x165
 10817 1362 01050000 		.4byte	0x501
 10818 1366 02       		.uleb128 0x2
 10819 1367 91       		.byte	0x91
 10820 1368 5C       		.sleb128 -36
 10821 1369 1D       		.uleb128 0x1d
 10822 136a 600A0000 		.4byte	.LASF170
 10823 136e 01       		.byte	0x1
 10824 136f 6701     		.2byte	0x167
 10825 1371 2C000000 		.4byte	0x2c
 10826 1375 02       		.uleb128 0x2
 10827 1376 91       		.byte	0x91
 10828 1377 6C       		.sleb128 -20
 10829 1378 15       		.uleb128 0x15
 10830 1379 26000000 		.4byte	.LBB46
 10831 137d 50000000 		.4byte	.LBE46-.LBB46
 10832 1381 1D       		.uleb128 0x1d
 10833 1382 8C0A0000 		.4byte	.LASF171
 10834 1386 01       		.byte	0x1
 10835 1387 6B01     		.2byte	0x16b
ARM GAS  C:\Users\JENNEW~1\AppData\Local\Temp\ccQ5uJSg.s 			page 208


 10836 1389 C4020000 		.4byte	0x2c4
 10837 138d 02       		.uleb128 0x2
 10838 138e 91       		.byte	0x91
 10839 138f 64       		.sleb128 -28
 10840 1390 00       		.byte	0
 10841 1391 00       		.byte	0
 10842 1392 1F       		.uleb128 0x1f
 10843 1393 34020000 		.4byte	.LASF173
 10844 1397 01       		.byte	0x1
 10845 1398 7801     		.2byte	0x178
 10846 139a 00000000 		.4byte	.LFB44
 10847 139e C4000000 		.4byte	.LFE44-.LFB44
 10848 13a2 01       		.uleb128 0x1
 10849 13a3 9C       		.byte	0x9c
 10850 13a4 E0130000 		.4byte	0x13e0
 10851 13a8 1C       		.uleb128 0x1c
 10852 13a9 8A080000 		.4byte	.LASF167
 10853 13ad 01       		.byte	0x1
 10854 13ae 7801     		.2byte	0x178
 10855 13b0 01050000 		.4byte	0x501
 10856 13b4 02       		.uleb128 0x2
 10857 13b5 91       		.byte	0x91
 10858 13b6 5C       		.sleb128 -36
 10859 13b7 1D       		.uleb128 0x1d
 10860 13b8 600A0000 		.4byte	.LASF170
 10861 13bc 01       		.byte	0x1
 10862 13bd 7A01     		.2byte	0x17a
 10863 13bf 2C000000 		.4byte	0x2c
 10864 13c3 02       		.uleb128 0x2
 10865 13c4 91       		.byte	0x91
 10866 13c5 6C       		.sleb128 -20
 10867 13c6 15       		.uleb128 0x15
 10868 13c7 5A000000 		.4byte	.LBB47
 10869 13cb 50000000 		.4byte	.LBE47-.LBB47
 10870 13cf 1D       		.uleb128 0x1d
 10871 13d0 8C0A0000 		.4byte	.LASF171
 10872 13d4 01       		.byte	0x1
 10873 13d5 8301     		.2byte	0x183
 10874 13d7 C4020000 		.4byte	0x2c4
 10875 13db 02       		.uleb128 0x2
 10876 13dc 91       		.byte	0x91
 10877 13dd 64       		.sleb128 -28
 10878 13de 00       		.byte	0
 10879 13df 00       		.byte	0
 10880 13e0 1F       		.uleb128 0x1f
 10881 13e1 230E0000 		.4byte	.LASF174
 10882 13e5 01       		.byte	0x1
 10883 13e6 9101     		.2byte	0x191
 10884 13e8 00000000 		.4byte	.LFB45
 10885 13ec 3C000000 		.4byte	.LFE45-.LFB45
 10886 13f0 01       		.uleb128 0x1
 10887 13f1 9C       		.byte	0x9c
 10888 13f2 15140000 		.4byte	0x1415
 10889 13f6 1C       		.uleb128 0x1c
 10890 13f7 8A080000 		.4byte	.LASF167
 10891 13fb 01       		.byte	0x1
 10892 13fc 9101     		.2byte	0x191
ARM GAS  C:\Users\JENNEW~1\AppData\Local\Temp\ccQ5uJSg.s 			page 209


 10893 13fe 01050000 		.4byte	0x501
 10894 1402 02       		.uleb128 0x2
 10895 1403 91       		.byte	0x91
 10896 1404 6C       		.sleb128 -20
 10897 1405 1D       		.uleb128 0x1d
 10898 1406 320B0000 		.4byte	.LASF175
 10899 140a 01       		.byte	0x1
 10900 140b 9301     		.2byte	0x193
 10901 140d 2C000000 		.4byte	0x2c
 10902 1411 02       		.uleb128 0x2
 10903 1412 91       		.byte	0x91
 10904 1413 74       		.sleb128 -12
 10905 1414 00       		.byte	0
 10906 1415 1E       		.uleb128 0x1e
 10907 1416 A2080000 		.4byte	.LASF176
 10908 141a 01       		.byte	0x1
 10909 141b 9901     		.2byte	0x199
 10910 141d 5C020000 		.4byte	0x25c
 10911 1421 00000000 		.4byte	.LFB46
 10912 1425 4C000000 		.4byte	.LFE46-.LFB46
 10913 1429 01       		.uleb128 0x1
 10914 142a 9C       		.byte	0x9c
 10915 142b 3F140000 		.4byte	0x143f
 10916 142f 1C       		.uleb128 0x1c
 10917 1430 3C0A0000 		.4byte	.LASF177
 10918 1434 01       		.byte	0x1
 10919 1435 9901     		.2byte	0x199
 10920 1437 01050000 		.4byte	0x501
 10921 143b 02       		.uleb128 0x2
 10922 143c 91       		.byte	0x91
 10923 143d 74       		.sleb128 -12
 10924 143e 00       		.byte	0
 10925 143f 1E       		.uleb128 0x1e
 10926 1440 B6060000 		.4byte	.LASF178
 10927 1444 01       		.byte	0x1
 10928 1445 A601     		.2byte	0x1a6
 10929 1447 5C020000 		.4byte	0x25c
 10930 144b 00000000 		.4byte	.LFB47
 10931 144f DC010000 		.4byte	.LFE47-.LFB47
 10932 1453 01       		.uleb128 0x1
 10933 1454 9C       		.byte	0x9c
 10934 1455 BD140000 		.4byte	0x14bd
 10935 1459 1C       		.uleb128 0x1c
 10936 145a 3C0A0000 		.4byte	.LASF177
 10937 145e 01       		.byte	0x1
 10938 145f A601     		.2byte	0x1a6
 10939 1461 01050000 		.4byte	0x501
 10940 1465 02       		.uleb128 0x2
 10941 1466 91       		.byte	0x91
 10942 1467 64       		.sleb128 -28
 10943 1468 1D       		.uleb128 0x1d
 10944 1469 94090000 		.4byte	.LASF179
 10945 146d 01       		.byte	0x1
 10946 146e A801     		.2byte	0x1a8
 10947 1470 CD000000 		.4byte	0xcd
 10948 1474 02       		.uleb128 0x2
 10949 1475 91       		.byte	0x91
ARM GAS  C:\Users\JENNEW~1\AppData\Local\Temp\ccQ5uJSg.s 			page 210


 10950 1476 77       		.sleb128 -9
 10951 1477 1D       		.uleb128 0x1d
 10952 1478 51050000 		.4byte	.LASF180
 10953 147c 01       		.byte	0x1
 10954 147d D801     		.2byte	0x1d8
 10955 147f CD000000 		.4byte	0xcd
 10956 1483 02       		.uleb128 0x2
 10957 1484 91       		.byte	0x91
 10958 1485 6F       		.sleb128 -17
 10959 1486 17       		.uleb128 0x17
 10960 1487 70000000 		.4byte	.LBB48
 10961 148b 54000000 		.4byte	.LBE48-.LBB48
 10962 148f A3140000 		.4byte	0x14a3
 10963 1493 1D       		.uleb128 0x1d
 10964 1494 D6030000 		.4byte	.LASF181
 10965 1498 01       		.byte	0x1
 10966 1499 B701     		.2byte	0x1b7
 10967 149b F9000000 		.4byte	0xf9
 10968 149f 02       		.uleb128 0x2
 10969 14a0 91       		.byte	0x91
 10970 14a1 70       		.sleb128 -16
 10971 14a2 00       		.byte	0
 10972 14a3 15       		.uleb128 0x15
 10973 14a4 50010000 		.4byte	.LBB49
 10974 14a8 46000000 		.4byte	.LBE49-.LBB49
 10975 14ac 1B       		.uleb128 0x1b
 10976 14ad 63726300 		.ascii	"crc\000"
 10977 14b1 01       		.byte	0x1
 10978 14b2 D101     		.2byte	0x1d1
 10979 14b4 F9000000 		.4byte	0xf9
 10980 14b8 02       		.uleb128 0x2
 10981 14b9 91       		.byte	0x91
 10982 14ba 68       		.sleb128 -24
 10983 14bb 00       		.byte	0
 10984 14bc 00       		.byte	0
 10985 14bd 1F       		.uleb128 0x1f
 10986 14be 72060000 		.4byte	.LASF182
 10987 14c2 01       		.byte	0x1
 10988 14c3 E001     		.2byte	0x1e0
 10989 14c5 00000000 		.4byte	.LFB48
 10990 14c9 88010000 		.4byte	.LFE48-.LFB48
 10991 14cd 01       		.uleb128 0x1
 10992 14ce 9C       		.byte	0x9c
 10993 14cf F2140000 		.4byte	0x14f2
 10994 14d3 1C       		.uleb128 0x1c
 10995 14d4 2A0A0000 		.4byte	.LASF164
 10996 14d8 01       		.byte	0x1
 10997 14d9 E001     		.2byte	0x1e0
 10998 14db 01050000 		.4byte	0x501
 10999 14df 02       		.uleb128 0x2
 11000 14e0 91       		.byte	0x91
 11001 14e1 6C       		.sleb128 -20
 11002 14e2 1D       		.uleb128 0x1d
 11003 14e3 67060000 		.4byte	.LASF183
 11004 14e7 01       		.byte	0x1
 11005 14e8 E701     		.2byte	0x1e7
 11006 14ea C3050000 		.4byte	0x5c3
ARM GAS  C:\Users\JENNEW~1\AppData\Local\Temp\ccQ5uJSg.s 			page 211


 11007 14ee 02       		.uleb128 0x2
 11008 14ef 91       		.byte	0x91
 11009 14f0 77       		.sleb128 -9
 11010 14f1 00       		.byte	0
 11011 14f2 1F       		.uleb128 0x1f
 11012 14f3 7B070000 		.4byte	.LASF184
 11013 14f7 01       		.byte	0x1
 11014 14f8 0802     		.2byte	0x208
 11015 14fa 00000000 		.4byte	.LFB49
 11016 14fe 14010000 		.4byte	.LFE49-.LFB49
 11017 1502 01       		.uleb128 0x1
 11018 1503 9C       		.byte	0x9c
 11019 1504 27150000 		.4byte	0x1527
 11020 1508 1C       		.uleb128 0x1c
 11021 1509 2A0A0000 		.4byte	.LASF164
 11022 150d 01       		.byte	0x1
 11023 150e 0802     		.2byte	0x208
 11024 1510 01050000 		.4byte	0x501
 11025 1514 02       		.uleb128 0x2
 11026 1515 91       		.byte	0x91
 11027 1516 6C       		.sleb128 -20
 11028 1517 1D       		.uleb128 0x1d
 11029 1518 67060000 		.4byte	.LASF183
 11030 151c 01       		.byte	0x1
 11031 151d 0A02     		.2byte	0x20a
 11032 151f C3050000 		.4byte	0x5c3
 11033 1523 02       		.uleb128 0x2
 11034 1524 91       		.byte	0x91
 11035 1525 77       		.sleb128 -9
 11036 1526 00       		.byte	0
 11037 1527 20       		.uleb128 0x20
 11038 1528 16040000 		.4byte	.LASF185
 11039 152c 01       		.byte	0x1
 11040 152d 2802     		.2byte	0x228
 11041 152f CD000000 		.4byte	0xcd
 11042 1533 00000000 		.4byte	.LFB50
 11043 1537 3C000000 		.4byte	.LFE50-.LFB50
 11044 153b 01       		.uleb128 0x1
 11045 153c 9C       		.byte	0x9c
 11046 153d 7C150000 		.4byte	0x157c
 11047 1541 1C       		.uleb128 0x1c
 11048 1542 1A010000 		.4byte	.LASF186
 11049 1546 01       		.byte	0x1
 11050 1547 2802     		.2byte	0x228
 11051 1549 4C040000 		.4byte	0x44c
 11052 154d 02       		.uleb128 0x2
 11053 154e 91       		.byte	0x91
 11054 154f 6C       		.sleb128 -20
 11055 1550 1A       		.uleb128 0x1a
 11056 1551 6C656E00 		.ascii	"len\000"
 11057 1555 01       		.byte	0x1
 11058 1556 2802     		.2byte	0x228
 11059 1558 F9000000 		.4byte	0xf9
 11060 155c 02       		.uleb128 0x2
 11061 155d 91       		.byte	0x91
 11062 155e 68       		.sleb128 -24
 11063 155f 1B       		.uleb128 0x1b
ARM GAS  C:\Users\JENNEW~1\AppData\Local\Temp\ccQ5uJSg.s 			page 212


 11064 1560 6A00     		.ascii	"j\000"
 11065 1562 01       		.byte	0x1
 11066 1563 2A02     		.2byte	0x22a
 11067 1565 F9000000 		.4byte	0xf9
 11068 1569 02       		.uleb128 0x2
 11069 156a 91       		.byte	0x91
 11070 156b 74       		.sleb128 -12
 11071 156c 1D       		.uleb128 0x1d
 11072 156d 53030000 		.4byte	.LASF187
 11073 1571 01       		.byte	0x1
 11074 1572 2B02     		.2byte	0x22b
 11075 1574 CD000000 		.4byte	0xcd
 11076 1578 02       		.uleb128 0x2
 11077 1579 91       		.byte	0x91
 11078 157a 73       		.sleb128 -13
 11079 157b 00       		.byte	0
 11080 157c 21       		.uleb128 0x21
 11081 157d A3060000 		.4byte	.LASF188
 11082 1581 01       		.byte	0x1
 11083 1582 3002     		.2byte	0x230
 11084 1584 00000000 		.4byte	.LFB51
 11085 1588 88000000 		.4byte	.LFE51-.LFB51
 11086 158c 01       		.uleb128 0x1
 11087 158d 9C       		.byte	0x9c
 11088 158e E4150000 		.4byte	0x15e4
 11089 1592 1A       		.uleb128 0x1a
 11090 1593 7000     		.ascii	"p\000"
 11091 1595 01       		.byte	0x1
 11092 1596 3002     		.2byte	0x230
 11093 1598 E4150000 		.4byte	0x15e4
 11094 159c 02       		.uleb128 0x2
 11095 159d 91       		.byte	0x91
 11096 159e 6C       		.sleb128 -20
 11097 159f 1A       		.uleb128 0x1a
 11098 15a0 56616C00 		.ascii	"Val\000"
 11099 15a4 01       		.byte	0x1
 11100 15a5 3002     		.2byte	0x230
 11101 15a7 F9000000 		.4byte	0xf9
 11102 15ab 02       		.uleb128 0x2
 11103 15ac 91       		.byte	0x91
 11104 15ad 68       		.sleb128 -24
 11105 15ae 1B       		.uleb128 0x1b
 11106 15af 6E00     		.ascii	"n\000"
 11107 15b1 01       		.byte	0x1
 11108 15b2 3202     		.2byte	0x232
 11109 15b4 2C000000 		.4byte	0x2c
 11110 15b8 02       		.uleb128 0x2
 11111 15b9 91       		.byte	0x91
 11112 15ba 74       		.sleb128 -12
 11113 15bb 15       		.uleb128 0x15
 11114 15bc 10000000 		.4byte	.LBB50
 11115 15c0 62000000 		.4byte	.LBE50-.LBB50
 11116 15c4 1D       		.uleb128 0x1d
 11117 15c5 92080000 		.4byte	.LASF189
 11118 15c9 01       		.byte	0x1
 11119 15ca 3402     		.2byte	0x234
 11120 15cc CD000000 		.4byte	0xcd
ARM GAS  C:\Users\JENNEW~1\AppData\Local\Temp\ccQ5uJSg.s 			page 213


 11121 15d0 02       		.uleb128 0x2
 11122 15d1 91       		.byte	0x91
 11123 15d2 73       		.sleb128 -13
 11124 15d3 1D       		.uleb128 0x1d
 11125 15d4 AC070000 		.4byte	.LASF190
 11126 15d8 01       		.byte	0x1
 11127 15d9 3502     		.2byte	0x235
 11128 15db CD000000 		.4byte	0xcd
 11129 15df 02       		.uleb128 0x2
 11130 15e0 91       		.byte	0x91
 11131 15e1 72       		.sleb128 -14
 11132 15e2 00       		.byte	0
 11133 15e3 00       		.byte	0
 11134 15e4 0B       		.uleb128 0xb
 11135 15e5 04       		.byte	0x4
 11136 15e6 4C040000 		.4byte	0x44c
 11137 15ea 20       		.uleb128 0x20
 11138 15eb 54090000 		.4byte	.LASF191
 11139 15ef 01       		.byte	0x1
 11140 15f0 3B02     		.2byte	0x23b
 11141 15f2 F9000000 		.4byte	0xf9
 11142 15f6 00000000 		.4byte	.LFB52
 11143 15fa 6A000000 		.4byte	.LFE52-.LFB52
 11144 15fe 01       		.uleb128 0x1
 11145 15ff 9C       		.byte	0x9c
 11146 1600 2E160000 		.4byte	0x162e
 11147 1604 1A       		.uleb128 0x1a
 11148 1605 7000     		.ascii	"p\000"
 11149 1607 01       		.byte	0x1
 11150 1608 3B02     		.2byte	0x23b
 11151 160a E4150000 		.4byte	0x15e4
 11152 160e 02       		.uleb128 0x2
 11153 160f 91       		.byte	0x91
 11154 1610 6C       		.sleb128 -20
 11155 1611 1B       		.uleb128 0x1b
 11156 1612 56616C00 		.ascii	"Val\000"
 11157 1616 01       		.byte	0x1
 11158 1617 3D02     		.2byte	0x23d
 11159 1619 F9000000 		.4byte	0xf9
 11160 161d 02       		.uleb128 0x2
 11161 161e 91       		.byte	0x91
 11162 161f 74       		.sleb128 -12
 11163 1620 1B       		.uleb128 0x1b
 11164 1621 6E00     		.ascii	"n\000"
 11165 1623 01       		.byte	0x1
 11166 1624 3E02     		.2byte	0x23e
 11167 1626 2C000000 		.4byte	0x2c
 11168 162a 02       		.uleb128 0x2
 11169 162b 91       		.byte	0x91
 11170 162c 70       		.sleb128 -16
 11171 162d 00       		.byte	0
 11172 162e 20       		.uleb128 0x20
 11173 162f 58050000 		.4byte	.LASF192
 11174 1633 01       		.byte	0x1
 11175 1634 4702     		.2byte	0x247
 11176 1636 F9000000 		.4byte	0xf9
 11177 163a 00000000 		.4byte	.LFB53
ARM GAS  C:\Users\JENNEW~1\AppData\Local\Temp\ccQ5uJSg.s 			page 214


 11178 163e 4C000000 		.4byte	.LFE53-.LFB53
 11179 1642 01       		.uleb128 0x1
 11180 1643 9C       		.byte	0x9c
 11181 1644 74160000 		.4byte	0x1674
 11182 1648 1C       		.uleb128 0x1c
 11183 1649 4F090000 		.4byte	.LASF193
 11184 164d 01       		.byte	0x1
 11185 164e 4702     		.2byte	0x247
 11186 1650 CD000000 		.4byte	0xcd
 11187 1654 02       		.uleb128 0x2
 11188 1655 91       		.byte	0x91
 11189 1656 6F       		.sleb128 -17
 11190 1657 1B       		.uleb128 0x1b
 11191 1658 6900     		.ascii	"i\000"
 11192 165a 01       		.byte	0x1
 11193 165b 4902     		.2byte	0x249
 11194 165d CD000000 		.4byte	0xcd
 11195 1661 02       		.uleb128 0x2
 11196 1662 91       		.byte	0x91
 11197 1663 77       		.sleb128 -9
 11198 1664 1B       		.uleb128 0x1b
 11199 1665 63726300 		.ascii	"crc\000"
 11200 1669 01       		.byte	0x1
 11201 166a 4A02     		.2byte	0x24a
 11202 166c F9000000 		.4byte	0xf9
 11203 1670 02       		.uleb128 0x2
 11204 1671 91       		.byte	0x91
 11205 1672 70       		.sleb128 -16
 11206 1673 00       		.byte	0
 11207 1674 22       		.uleb128 0x22
 11208 1675 FC080000 		.4byte	.LASF205
 11209 1679 01       		.byte	0x1
 11210 167a 5202     		.2byte	0x252
 11211 167c F9000000 		.4byte	0xf9
 11212 1680 00000000 		.4byte	.LFB54
 11213 1684 54000000 		.4byte	.LFE54-.LFB54
 11214 1688 01       		.uleb128 0x1
 11215 1689 9C       		.byte	0x9c
 11216 168a D8160000 		.4byte	0x16d8
 11217 168e 1C       		.uleb128 0x1c
 11218 168f AC000000 		.4byte	.LASF194
 11219 1693 01       		.byte	0x1
 11220 1694 5202     		.2byte	0x252
 11221 1696 F9000000 		.4byte	0xf9
 11222 169a 02       		.uleb128 0x2
 11223 169b 91       		.byte	0x91
 11224 169c 6C       		.sleb128 -20
 11225 169d 1C       		.uleb128 0x1c
 11226 169e 4F090000 		.4byte	.LASF193
 11227 16a2 01       		.byte	0x1
 11228 16a3 5202     		.2byte	0x252
 11229 16a5 D8160000 		.4byte	0x16d8
 11230 16a9 02       		.uleb128 0x2
 11231 16aa 91       		.byte	0x91
 11232 16ab 68       		.sleb128 -24
 11233 16ac 1C       		.uleb128 0x1c
 11234 16ad 9D080000 		.4byte	.LASF195
ARM GAS  C:\Users\JENNEW~1\AppData\Local\Temp\ccQ5uJSg.s 			page 215


 11235 16b1 01       		.byte	0x1
 11236 16b2 5202     		.2byte	0x252
 11237 16b4 F9000000 		.4byte	0xf9
 11238 16b8 02       		.uleb128 0x2
 11239 16b9 91       		.byte	0x91
 11240 16ba 64       		.sleb128 -28
 11241 16bb 1B       		.uleb128 0x1b
 11242 16bc 6900     		.ascii	"i\000"
 11243 16be 01       		.byte	0x1
 11244 16bf 5402     		.2byte	0x254
 11245 16c1 F9000000 		.4byte	0xf9
 11246 16c5 02       		.uleb128 0x2
 11247 16c6 91       		.byte	0x91
 11248 16c7 74       		.sleb128 -12
 11249 16c8 1D       		.uleb128 0x1d
 11250 16c9 CF000000 		.4byte	.LASF196
 11251 16cd 01       		.byte	0x1
 11252 16ce 5402     		.2byte	0x254
 11253 16d0 F9000000 		.4byte	0xf9
 11254 16d4 02       		.uleb128 0x2
 11255 16d5 91       		.byte	0x91
 11256 16d6 70       		.sleb128 -16
 11257 16d7 00       		.byte	0
 11258 16d8 0B       		.uleb128 0xb
 11259 16d9 04       		.byte	0x4
 11260 16da DE160000 		.4byte	0x16de
 11261 16de 23       		.uleb128 0x23
 11262 16df CD000000 		.4byte	0xcd
 11263 16e3 19       		.uleb128 0x19
 11264 16e4 31070000 		.4byte	.LASF197
 11265 16e8 01       		.byte	0x1
 11266 16e9 5E02     		.2byte	0x25e
 11267 16eb 00000000 		.4byte	.LFB55
 11268 16ef 24000000 		.4byte	.LFE55-.LFB55
 11269 16f3 01       		.uleb128 0x1
 11270 16f4 9C       		.byte	0x9c
 11271 16f5 27170000 		.4byte	0x1727
 11272 16f9 1C       		.uleb128 0x1c
 11273 16fa B1080000 		.4byte	.LASF198
 11274 16fe 01       		.byte	0x1
 11275 16ff 5E02     		.2byte	0x25e
 11276 1701 27170000 		.4byte	0x1727
 11277 1705 02       		.uleb128 0x2
 11278 1706 91       		.byte	0x91
 11279 1707 74       		.sleb128 -12
 11280 1708 1C       		.uleb128 0x1c
 11281 1709 840E0000 		.4byte	.LASF106
 11282 170d 01       		.byte	0x1
 11283 170e 5E02     		.2byte	0x25e
 11284 1710 A2010000 		.4byte	0x1a2
 11285 1714 02       		.uleb128 0x2
 11286 1715 91       		.byte	0x91
 11287 1716 73       		.sleb128 -13
 11288 1717 1C       		.uleb128 0x1c
 11289 1718 2A020000 		.4byte	.LASF107
 11290 171c 01       		.byte	0x1
 11291 171d 5E02     		.2byte	0x25e
ARM GAS  C:\Users\JENNEW~1\AppData\Local\Temp\ccQ5uJSg.s 			page 216


 11292 171f 07050000 		.4byte	0x507
 11293 1723 02       		.uleb128 0x2
 11294 1724 91       		.byte	0x91
 11295 1725 6C       		.sleb128 -20
 11296 1726 00       		.byte	0
 11297 1727 0B       		.uleb128 0xb
 11298 1728 04       		.byte	0x4
 11299 1729 0D050000 		.4byte	0x50d
 11300 172d 19       		.uleb128 0x19
 11301 172e D5080000 		.4byte	.LASF199
 11302 1732 01       		.byte	0x1
 11303 1733 6402     		.2byte	0x264
 11304 1735 00000000 		.4byte	.LFB56
 11305 1739 24000000 		.4byte	.LFE56-.LFB56
 11306 173d 01       		.uleb128 0x1
 11307 173e 9C       		.byte	0x9c
 11308 173f 71170000 		.4byte	0x1771
 11309 1743 1C       		.uleb128 0x1c
 11310 1744 00010000 		.4byte	.LASF200
 11311 1748 01       		.byte	0x1
 11312 1749 6402     		.2byte	0x264
 11313 174b 71170000 		.4byte	0x1771
 11314 174f 02       		.uleb128 0x2
 11315 1750 91       		.byte	0x91
 11316 1751 74       		.sleb128 -12
 11317 1752 1C       		.uleb128 0x1c
 11318 1753 840E0000 		.4byte	.LASF106
 11319 1757 01       		.byte	0x1
 11320 1758 6402     		.2byte	0x264
 11321 175a A2010000 		.4byte	0x1a2
 11322 175e 02       		.uleb128 0x2
 11323 175f 91       		.byte	0x91
 11324 1760 73       		.sleb128 -13
 11325 1761 1C       		.uleb128 0x1c
 11326 1762 2A020000 		.4byte	.LASF107
 11327 1766 01       		.byte	0x1
 11328 1767 6402     		.2byte	0x264
 11329 1769 07050000 		.4byte	0x507
 11330 176d 02       		.uleb128 0x2
 11331 176e 91       		.byte	0x91
 11332 176f 6C       		.sleb128 -20
 11333 1770 00       		.byte	0
 11334 1771 0B       		.uleb128 0xb
 11335 1772 04       		.byte	0x4
 11336 1773 39050000 		.4byte	0x539
 11337 1777 19       		.uleb128 0x19
 11338 1778 C9050000 		.4byte	.LASF201
 11339 177c 01       		.byte	0x1
 11340 177d 6A02     		.2byte	0x26a
 11341 177f 00000000 		.4byte	.LFB57
 11342 1783 3C000000 		.4byte	.LFE57-.LFB57
 11343 1787 01       		.uleb128 0x1
 11344 1788 9C       		.byte	0x9c
 11345 1789 9D170000 		.4byte	0x179d
 11346 178d 1C       		.uleb128 0x1c
 11347 178e 8C0A0000 		.4byte	.LASF171
 11348 1792 01       		.byte	0x1
ARM GAS  C:\Users\JENNEW~1\AppData\Local\Temp\ccQ5uJSg.s 			page 217


 11349 1793 6A02     		.2byte	0x26a
 11350 1795 9D170000 		.4byte	0x179d
 11351 1799 02       		.uleb128 0x2
 11352 179a 91       		.byte	0x91
 11353 179b 74       		.sleb128 -12
 11354 179c 00       		.byte	0
 11355 179d 0B       		.uleb128 0xb
 11356 179e 04       		.byte	0x4
 11357 179f C4020000 		.4byte	0x2c4
 11358 17a3 19       		.uleb128 0x19
 11359 17a4 71040000 		.4byte	.LASF202
 11360 17a8 01       		.byte	0x1
 11361 17a9 7502     		.2byte	0x275
 11362 17ab 00000000 		.4byte	.LFB58
 11363 17af 18000000 		.4byte	.LFE58-.LFB58
 11364 17b3 01       		.uleb128 0x1
 11365 17b4 9C       		.byte	0x9c
 11366 17b5 C9170000 		.4byte	0x17c9
 11367 17b9 1C       		.uleb128 0x1c
 11368 17ba 2A0A0000 		.4byte	.LASF164
 11369 17be 01       		.byte	0x1
 11370 17bf 7502     		.2byte	0x275
 11371 17c1 01050000 		.4byte	0x501
 11372 17c5 02       		.uleb128 0x2
 11373 17c6 91       		.byte	0x91
 11374 17c7 74       		.sleb128 -12
 11375 17c8 00       		.byte	0
 11376 17c9 24       		.uleb128 0x24
 11377 17ca D0010000 		.4byte	.LASF203
 11378 17ce 01       		.byte	0x1
 11379 17cf 7702     		.2byte	0x277
 11380 17d1 00000000 		.4byte	.LFB59
 11381 17d5 64000000 		.4byte	.LFE59-.LFB59
 11382 17d9 01       		.uleb128 0x1
 11383 17da 9C       		.byte	0x9c
 11384 17db EF170000 		.4byte	0x17ef
 11385 17df 1C       		.uleb128 0x1c
 11386 17e0 8D0C0000 		.4byte	.LASF204
 11387 17e4 01       		.byte	0x1
 11388 17e5 7702     		.2byte	0x277
 11389 17e7 1D010000 		.4byte	0x11d
 11390 17eb 02       		.uleb128 0x2
 11391 17ec 91       		.byte	0x91
 11392 17ed 6F       		.sleb128 -17
 11393 17ee 00       		.byte	0
 11394 17ef 22       		.uleb128 0x22
 11395 17f0 B0050000 		.4byte	.LASF206
 11396 17f4 01       		.byte	0x1
 11397 17f5 7F02     		.2byte	0x27f
 11398 17f7 5C020000 		.4byte	0x25c
 11399 17fb 00000000 		.4byte	.LFB60
 11400 17ff 96000000 		.4byte	.LFE60-.LFB60
 11401 1803 01       		.uleb128 0x1
 11402 1804 9C       		.byte	0x9c
 11403 1805 59180000 		.4byte	0x1859
 11404 1809 1C       		.uleb128 0x1c
 11405 180a 9C0B0000 		.4byte	.LASF207
ARM GAS  C:\Users\JENNEW~1\AppData\Local\Temp\ccQ5uJSg.s 			page 218


 11406 180e 01       		.byte	0x1
 11407 180f 7F02     		.2byte	0x27f
 11408 1811 27170000 		.4byte	0x1727
 11409 1815 03       		.uleb128 0x3
 11410 1816 91       		.byte	0x91
 11411 1817 F47E     		.sleb128 -140
 11412 1819 1C       		.uleb128 0x1c
 11413 181a F5080000 		.4byte	.LASF74
 11414 181e 01       		.byte	0x1
 11415 181f 7F02     		.2byte	0x27f
 11416 1821 F9000000 		.4byte	0xf9
 11417 1825 03       		.uleb128 0x3
 11418 1826 91       		.byte	0x91
 11419 1827 F07E     		.sleb128 -144
 11420 1829 1C       		.uleb128 0x1c
 11421 182a E1060000 		.4byte	.LASF88
 11422 182e 01       		.byte	0x1
 11423 182f 8002     		.2byte	0x280
 11424 1831 1D010000 		.4byte	0x11d
 11425 1835 03       		.uleb128 0x3
 11426 1836 91       		.byte	0x91
 11427 1837 EF7E     		.sleb128 -145
 11428 1839 1C       		.uleb128 0x1c
 11429 183a 8C0A0000 		.4byte	.LASF171
 11430 183e 01       		.byte	0x1
 11431 183f 8002     		.2byte	0x280
 11432 1841 C4020000 		.4byte	0x2c4
 11433 1845 02       		.uleb128 0x2
 11434 1846 91       		.byte	0x91
 11435 1847 7C       		.sleb128 -4
 11436 1848 1D       		.uleb128 0x1d
 11437 1849 14010000 		.4byte	.LASF208
 11438 184d 01       		.byte	0x1
 11439 184e 8202     		.2byte	0x282
 11440 1850 52040000 		.4byte	0x452
 11441 1854 03       		.uleb128 0x3
 11442 1855 91       		.byte	0x91
 11443 1856 FC7E     		.sleb128 -132
 11444 1858 00       		.byte	0
 11445 1859 22       		.uleb128 0x22
 11446 185a FA070000 		.4byte	.LASF209
 11447 185e 01       		.byte	0x1
 11448 185f 9202     		.2byte	0x292
 11449 1861 5C020000 		.4byte	0x25c
 11450 1865 00000000 		.4byte	.LFB61
 11451 1869 7E000000 		.4byte	.LFE61-.LFB61
 11452 186d 01       		.uleb128 0x1
 11453 186e 9C       		.byte	0x9c
 11454 186f C3180000 		.4byte	0x18c3
 11455 1873 1C       		.uleb128 0x1c
 11456 1874 ED0D0000 		.4byte	.LASF210
 11457 1878 01       		.byte	0x1
 11458 1879 9202     		.2byte	0x292
 11459 187b 71170000 		.4byte	0x1771
 11460 187f 03       		.uleb128 0x3
 11461 1880 91       		.byte	0x91
 11462 1881 F47E     		.sleb128 -140
ARM GAS  C:\Users\JENNEW~1\AppData\Local\Temp\ccQ5uJSg.s 			page 219


 11463 1883 1C       		.uleb128 0x1c
 11464 1884 F5080000 		.4byte	.LASF74
 11465 1888 01       		.byte	0x1
 11466 1889 9202     		.2byte	0x292
 11467 188b F9000000 		.4byte	0xf9
 11468 188f 03       		.uleb128 0x3
 11469 1890 91       		.byte	0x91
 11470 1891 F07E     		.sleb128 -144
 11471 1893 1C       		.uleb128 0x1c
 11472 1894 E1060000 		.4byte	.LASF88
 11473 1898 01       		.byte	0x1
 11474 1899 9302     		.2byte	0x293
 11475 189b 1D010000 		.4byte	0x11d
 11476 189f 03       		.uleb128 0x3
 11477 18a0 91       		.byte	0x91
 11478 18a1 EF7E     		.sleb128 -145
 11479 18a3 1C       		.uleb128 0x1c
 11480 18a4 8C0A0000 		.4byte	.LASF171
 11481 18a8 01       		.byte	0x1
 11482 18a9 9302     		.2byte	0x293
 11483 18ab C4020000 		.4byte	0x2c4
 11484 18af 02       		.uleb128 0x2
 11485 18b0 91       		.byte	0x91
 11486 18b1 7C       		.sleb128 -4
 11487 18b2 1D       		.uleb128 0x1d
 11488 18b3 14010000 		.4byte	.LASF208
 11489 18b7 01       		.byte	0x1
 11490 18b8 9502     		.2byte	0x295
 11491 18ba 52040000 		.4byte	0x452
 11492 18be 03       		.uleb128 0x3
 11493 18bf 91       		.byte	0x91
 11494 18c0 FC7E     		.sleb128 -132
 11495 18c2 00       		.byte	0
 11496 18c3 22       		.uleb128 0x22
 11497 18c4 47040000 		.4byte	.LASF211
 11498 18c8 01       		.byte	0x1
 11499 18c9 A302     		.2byte	0x2a3
 11500 18cb 5C020000 		.4byte	0x25c
 11501 18cf 00000000 		.4byte	.LFB62
 11502 18d3 96000000 		.4byte	.LFE62-.LFB62
 11503 18d7 01       		.uleb128 0x1
 11504 18d8 9C       		.byte	0x9c
 11505 18d9 2D190000 		.4byte	0x192d
 11506 18dd 1C       		.uleb128 0x1c
 11507 18de ED0D0000 		.4byte	.LASF210
 11508 18e2 01       		.byte	0x1
 11509 18e3 A302     		.2byte	0x2a3
 11510 18e5 71170000 		.4byte	0x1771
 11511 18e9 03       		.uleb128 0x3
 11512 18ea 91       		.byte	0x91
 11513 18eb F47E     		.sleb128 -140
 11514 18ed 1C       		.uleb128 0x1c
 11515 18ee F5080000 		.4byte	.LASF74
 11516 18f2 01       		.byte	0x1
 11517 18f3 A302     		.2byte	0x2a3
 11518 18f5 F9000000 		.4byte	0xf9
 11519 18f9 03       		.uleb128 0x3
ARM GAS  C:\Users\JENNEW~1\AppData\Local\Temp\ccQ5uJSg.s 			page 220


 11520 18fa 91       		.byte	0x91
 11521 18fb F07E     		.sleb128 -144
 11522 18fd 1C       		.uleb128 0x1c
 11523 18fe E1060000 		.4byte	.LASF88
 11524 1902 01       		.byte	0x1
 11525 1903 A402     		.2byte	0x2a4
 11526 1905 1D010000 		.4byte	0x11d
 11527 1909 03       		.uleb128 0x3
 11528 190a 91       		.byte	0x91
 11529 190b EF7E     		.sleb128 -145
 11530 190d 1C       		.uleb128 0x1c
 11531 190e 8C0A0000 		.4byte	.LASF171
 11532 1912 01       		.byte	0x1
 11533 1913 A402     		.2byte	0x2a4
 11534 1915 C4020000 		.4byte	0x2c4
 11535 1919 02       		.uleb128 0x2
 11536 191a 91       		.byte	0x91
 11537 191b 7C       		.sleb128 -4
 11538 191c 1D       		.uleb128 0x1d
 11539 191d 14010000 		.4byte	.LASF208
 11540 1921 01       		.byte	0x1
 11541 1922 A602     		.2byte	0x2a6
 11542 1924 52040000 		.4byte	0x452
 11543 1928 03       		.uleb128 0x3
 11544 1929 91       		.byte	0x91
 11545 192a FC7E     		.sleb128 -132
 11546 192c 00       		.byte	0
 11547 192d 22       		.uleb128 0x22
 11548 192e 6E0F0000 		.4byte	.LASF212
 11549 1932 01       		.byte	0x1
 11550 1933 B602     		.2byte	0x2b6
 11551 1935 5C020000 		.4byte	0x25c
 11552 1939 00000000 		.4byte	.LFB63
 11553 193d 96000000 		.4byte	.LFE63-.LFB63
 11554 1941 01       		.uleb128 0x1
 11555 1942 9C       		.byte	0x9c
 11556 1943 97190000 		.4byte	0x1997
 11557 1947 1C       		.uleb128 0x1c
 11558 1948 ED0D0000 		.4byte	.LASF210
 11559 194c 01       		.byte	0x1
 11560 194d B602     		.2byte	0x2b6
 11561 194f 71170000 		.4byte	0x1771
 11562 1953 03       		.uleb128 0x3
 11563 1954 91       		.byte	0x91
 11564 1955 F47E     		.sleb128 -140
 11565 1957 1C       		.uleb128 0x1c
 11566 1958 F5080000 		.4byte	.LASF74
 11567 195c 01       		.byte	0x1
 11568 195d B602     		.2byte	0x2b6
 11569 195f F9000000 		.4byte	0xf9
 11570 1963 03       		.uleb128 0x3
 11571 1964 91       		.byte	0x91
 11572 1965 F07E     		.sleb128 -144
 11573 1967 1C       		.uleb128 0x1c
 11574 1968 E1060000 		.4byte	.LASF88
 11575 196c 01       		.byte	0x1
 11576 196d B702     		.2byte	0x2b7
ARM GAS  C:\Users\JENNEW~1\AppData\Local\Temp\ccQ5uJSg.s 			page 221


 11577 196f 1D010000 		.4byte	0x11d
 11578 1973 03       		.uleb128 0x3
 11579 1974 91       		.byte	0x91
 11580 1975 EF7E     		.sleb128 -145
 11581 1977 1C       		.uleb128 0x1c
 11582 1978 8C0A0000 		.4byte	.LASF171
 11583 197c 01       		.byte	0x1
 11584 197d B702     		.2byte	0x2b7
 11585 197f C4020000 		.4byte	0x2c4
 11586 1983 02       		.uleb128 0x2
 11587 1984 91       		.byte	0x91
 11588 1985 7C       		.sleb128 -4
 11589 1986 1D       		.uleb128 0x1d
 11590 1987 14010000 		.4byte	.LASF208
 11591 198b 01       		.byte	0x1
 11592 198c B902     		.2byte	0x2b9
 11593 198e 52040000 		.4byte	0x452
 11594 1992 03       		.uleb128 0x3
 11595 1993 91       		.byte	0x91
 11596 1994 FC7E     		.sleb128 -132
 11597 1996 00       		.byte	0
 11598 1997 22       		.uleb128 0x22
 11599 1998 14020000 		.4byte	.LASF213
 11600 199c 01       		.byte	0x1
 11601 199d C902     		.2byte	0x2c9
 11602 199f 5C020000 		.4byte	0x25c
 11603 19a3 00000000 		.4byte	.LFB64
 11604 19a7 42000000 		.4byte	.LFE64-.LFB64
 11605 19ab 01       		.uleb128 0x1
 11606 19ac 9C       		.byte	0x9c
 11607 19ad EE190000 		.4byte	0x19ee
 11608 19b1 1C       		.uleb128 0x1c
 11609 19b2 ED0D0000 		.4byte	.LASF210
 11610 19b6 01       		.byte	0x1
 11611 19b7 C902     		.2byte	0x2c9
 11612 19b9 71170000 		.4byte	0x1771
 11613 19bd 02       		.uleb128 0x2
 11614 19be 91       		.byte	0x91
 11615 19bf 6C       		.sleb128 -20
 11616 19c0 1C       		.uleb128 0x1c
 11617 19c1 F5080000 		.4byte	.LASF74
 11618 19c5 01       		.byte	0x1
 11619 19c6 C902     		.2byte	0x2c9
 11620 19c8 F9000000 		.4byte	0xf9
 11621 19cc 02       		.uleb128 0x2
 11622 19cd 91       		.byte	0x91
 11623 19ce 68       		.sleb128 -24
 11624 19cf 1C       		.uleb128 0x1c
 11625 19d0 E1060000 		.4byte	.LASF88
 11626 19d4 01       		.byte	0x1
 11627 19d5 CA02     		.2byte	0x2ca
 11628 19d7 1D010000 		.4byte	0x11d
 11629 19db 02       		.uleb128 0x2
 11630 19dc 91       		.byte	0x91
 11631 19dd 67       		.sleb128 -25
 11632 19de 1C       		.uleb128 0x1c
 11633 19df 8C0A0000 		.4byte	.LASF171
ARM GAS  C:\Users\JENNEW~1\AppData\Local\Temp\ccQ5uJSg.s 			page 222


 11634 19e3 01       		.byte	0x1
 11635 19e4 CA02     		.2byte	0x2ca
 11636 19e6 C4020000 		.4byte	0x2c4
 11637 19ea 02       		.uleb128 0x2
 11638 19eb 91       		.byte	0x91
 11639 19ec 7C       		.sleb128 -4
 11640 19ed 00       		.byte	0
 11641 19ee 22       		.uleb128 0x22
 11642 19ef 57080000 		.4byte	.LASF214
 11643 19f3 01       		.byte	0x1
 11644 19f4 CF02     		.2byte	0x2cf
 11645 19f6 CD000000 		.4byte	0xcd
 11646 19fa 00000000 		.4byte	.LFB65
 11647 19fe E0060000 		.4byte	.LFE65-.LFB65
 11648 1a02 01       		.uleb128 0x1
 11649 1a03 9C       		.byte	0x9c
 11650 1a04 361A0000 		.4byte	0x1a36
 11651 1a08 1C       		.uleb128 0x1c
 11652 1a09 8D0C0000 		.4byte	.LASF204
 11653 1a0d 01       		.byte	0x1
 11654 1a0e CF02     		.2byte	0x2cf
 11655 1a10 1D010000 		.4byte	0x11d
 11656 1a14 02       		.uleb128 0x2
 11657 1a15 91       		.byte	0x91
 11658 1a16 67       		.sleb128 -25
 11659 1a17 1C       		.uleb128 0x1c
 11660 1a18 E60D0000 		.4byte	.LASF215
 11661 1a1c 01       		.byte	0x1
 11662 1a1d CF02     		.2byte	0x2cf
 11663 1a1f 5E000000 		.4byte	0x5e
 11664 1a23 02       		.uleb128 0x2
 11665 1a24 91       		.byte	0x91
 11666 1a25 66       		.sleb128 -26
 11667 1a26 1D       		.uleb128 0x1d
 11668 1a27 51050000 		.4byte	.LASF180
 11669 1a2b 01       		.byte	0x1
 11670 1a2c D102     		.2byte	0x2d1
 11671 1a2e CD000000 		.4byte	0xcd
 11672 1a32 02       		.uleb128 0x2
 11673 1a33 91       		.byte	0x91
 11674 1a34 6F       		.sleb128 -17
 11675 1a35 00       		.byte	0
 11676 1a36 16       		.uleb128 0x16
 11677 1a37 28040000 		.4byte	.LASF216
 11678 1a3b 01       		.byte	0x1
 11679 1a3c 2F       		.byte	0x2f
 11680 1a3d 63050000 		.4byte	0x563
 11681 1a41 05       		.uleb128 0x5
 11682 1a42 03       		.byte	0x3
 11683 1a43 08000000 		.4byte	rw_orig
 11684 1a47 09       		.uleb128 0x9
 11685 1a48 C6040000 		.4byte	0x4c6
 11686 1a4c 571A0000 		.4byte	0x1a57
 11687 1a50 0A       		.uleb128 0xa
 11688 1a51 B4000000 		.4byte	0xb4
 11689 1a55 00       		.byte	0
 11690 1a56 00       		.byte	0
ARM GAS  C:\Users\JENNEW~1\AppData\Local\Temp\ccQ5uJSg.s 			page 223


 11691 1a57 25       		.uleb128 0x25
 11692 1a58 4E0B0000 		.4byte	.LASF217
 11693 1a5c 01       		.byte	0x1
 11694 1a5d 27       		.byte	0x27
 11695 1a5e 471A0000 		.4byte	0x1a47
 11696 1a62 05       		.uleb128 0x5
 11697 1a63 03       		.byte	0x3
 11698 1a64 00000000 		.4byte	QX_CommsPorts
 11699 1a68 09       		.uleb128 0x9
 11700 1a69 0D050000 		.4byte	0x50d
 11701 1a6d 781A0000 		.4byte	0x1a78
 11702 1a71 0A       		.uleb128 0xa
 11703 1a72 B4000000 		.4byte	0xb4
 11704 1a76 00       		.byte	0
 11705 1a77 00       		.byte	0
 11706 1a78 25       		.uleb128 0x25
 11707 1a79 940A0000 		.4byte	.LASF218
 11708 1a7d 01       		.byte	0x1
 11709 1a7e 25       		.byte	0x25
 11710 1a7f 681A0000 		.4byte	0x1a68
 11711 1a83 05       		.uleb128 0x5
 11712 1a84 03       		.byte	0x3
 11713 1a85 00000000 		.4byte	QX_Servers
 11714 1a89 09       		.uleb128 0x9
 11715 1a8a 39050000 		.4byte	0x539
 11716 1a8e 991A0000 		.4byte	0x1a99
 11717 1a92 0A       		.uleb128 0xa
 11718 1a93 B4000000 		.4byte	0xb4
 11719 1a97 00       		.byte	0
 11720 1a98 00       		.byte	0
 11721 1a99 25       		.uleb128 0x25
 11722 1a9a A1000000 		.4byte	.LASF219
 11723 1a9e 01       		.byte	0x1
 11724 1a9f 26       		.byte	0x26
 11725 1aa0 891A0000 		.4byte	0x1a89
 11726 1aa4 05       		.uleb128 0x5
 11727 1aa5 03       		.byte	0x3
 11728 1aa6 00000000 		.4byte	QX_Clients
 11729 1aaa 26       		.uleb128 0x26
 11730 1aab B51A0000 		.4byte	0x1ab5
 11731 1aaf 0D       		.uleb128 0xd
 11732 1ab0 01050000 		.4byte	0x501
 11733 1ab4 00       		.byte	0
 11734 1ab5 25       		.uleb128 0x25
 11735 1ab6 D1040000 		.4byte	.LASF220
 11736 1aba 01       		.byte	0x1
 11737 1abb 29       		.byte	0x29
 11738 1abc C61A0000 		.4byte	0x1ac6
 11739 1ac0 05       		.uleb128 0x5
 11740 1ac1 03       		.byte	0x3
 11741 1ac2 00000000 		.4byte	QX_BuildHeader_Legacy
 11742 1ac6 0B       		.uleb128 0xb
 11743 1ac7 04       		.byte	0x4
 11744 1ac8 AA1A0000 		.4byte	0x1aaa
 11745 1acc 25       		.uleb128 0x25
 11746 1acd 41080000 		.4byte	.LASF221
 11747 1ad1 01       		.byte	0x1
ARM GAS  C:\Users\JENNEW~1\AppData\Local\Temp\ccQ5uJSg.s 			page 224


 11748 1ad2 2A       		.byte	0x2a
 11749 1ad3 C61A0000 		.4byte	0x1ac6
 11750 1ad7 05       		.uleb128 0x5
 11751 1ad8 03       		.byte	0x3
 11752 1ad9 00000000 		.4byte	QX_ParseHeader_Legacy
 11753 1add 27       		.uleb128 0x27
 11754 1ade 727700   		.ascii	"rw\000"
 11755 1ae1 01       		.byte	0x1
 11756 1ae2 2E       		.byte	0x2e
 11757 1ae3 63050000 		.4byte	0x563
 11758 1ae7 05       		.uleb128 0x5
 11759 1ae8 03       		.byte	0x3
 11760 1ae9 00000000 		.4byte	rw
 11761 1aed 25       		.uleb128 0x25
 11762 1aee 01050000 		.4byte	.LASF222
 11763 1af2 01       		.byte	0x1
 11764 1af3 2D       		.byte	0x2d
 11765 1af4 BD050000 		.4byte	0x5bd
 11766 1af8 05       		.uleb128 0x5
 11767 1af9 03       		.byte	0x3
 11768 1afa 00000000 		.4byte	msgPtr
 11769 1afe 00       		.byte	0
 11770              		.section	.debug_abbrev,"",%progbits
 11771              	.Ldebug_abbrev0:
 11772 0000 01       		.uleb128 0x1
 11773 0001 11       		.uleb128 0x11
 11774 0002 01       		.byte	0x1
 11775 0003 25       		.uleb128 0x25
 11776 0004 0E       		.uleb128 0xe
 11777 0005 13       		.uleb128 0x13
 11778 0006 0B       		.uleb128 0xb
 11779 0007 03       		.uleb128 0x3
 11780 0008 0E       		.uleb128 0xe
 11781 0009 1B       		.uleb128 0x1b
 11782 000a 0E       		.uleb128 0xe
 11783 000b 55       		.uleb128 0x55
 11784 000c 17       		.uleb128 0x17
 11785 000d 11       		.uleb128 0x11
 11786 000e 01       		.uleb128 0x1
 11787 000f 10       		.uleb128 0x10
 11788 0010 17       		.uleb128 0x17
 11789 0011 00       		.byte	0
 11790 0012 00       		.byte	0
 11791 0013 02       		.uleb128 0x2
 11792 0014 24       		.uleb128 0x24
 11793 0015 00       		.byte	0
 11794 0016 0B       		.uleb128 0xb
 11795 0017 0B       		.uleb128 0xb
 11796 0018 3E       		.uleb128 0x3e
 11797 0019 0B       		.uleb128 0xb
 11798 001a 03       		.uleb128 0x3
 11799 001b 0E       		.uleb128 0xe
 11800 001c 00       		.byte	0
 11801 001d 00       		.byte	0
 11802 001e 03       		.uleb128 0x3
 11803 001f 24       		.uleb128 0x24
 11804 0020 00       		.byte	0
ARM GAS  C:\Users\JENNEW~1\AppData\Local\Temp\ccQ5uJSg.s 			page 225


 11805 0021 0B       		.uleb128 0xb
 11806 0022 0B       		.uleb128 0xb
 11807 0023 3E       		.uleb128 0x3e
 11808 0024 0B       		.uleb128 0xb
 11809 0025 03       		.uleb128 0x3
 11810 0026 08       		.uleb128 0x8
 11811 0027 00       		.byte	0
 11812 0028 00       		.byte	0
 11813 0029 04       		.uleb128 0x4
 11814 002a 16       		.uleb128 0x16
 11815 002b 00       		.byte	0
 11816 002c 03       		.uleb128 0x3
 11817 002d 0E       		.uleb128 0xe
 11818 002e 3A       		.uleb128 0x3a
 11819 002f 0B       		.uleb128 0xb
 11820 0030 3B       		.uleb128 0x3b
 11821 0031 0B       		.uleb128 0xb
 11822 0032 49       		.uleb128 0x49
 11823 0033 13       		.uleb128 0x13
 11824 0034 00       		.byte	0
 11825 0035 00       		.byte	0
 11826 0036 05       		.uleb128 0x5
 11827 0037 04       		.uleb128 0x4
 11828 0038 01       		.byte	0x1
 11829 0039 0B       		.uleb128 0xb
 11830 003a 0B       		.uleb128 0xb
 11831 003b 49       		.uleb128 0x49
 11832 003c 13       		.uleb128 0x13
 11833 003d 3A       		.uleb128 0x3a
 11834 003e 0B       		.uleb128 0xb
 11835 003f 3B       		.uleb128 0x3b
 11836 0040 0B       		.uleb128 0xb
 11837 0041 01       		.uleb128 0x1
 11838 0042 13       		.uleb128 0x13
 11839 0043 00       		.byte	0
 11840 0044 00       		.byte	0
 11841 0045 06       		.uleb128 0x6
 11842 0046 28       		.uleb128 0x28
 11843 0047 00       		.byte	0
 11844 0048 03       		.uleb128 0x3
 11845 0049 0E       		.uleb128 0xe
 11846 004a 1C       		.uleb128 0x1c
 11847 004b 0B       		.uleb128 0xb
 11848 004c 00       		.byte	0
 11849 004d 00       		.byte	0
 11850 004e 07       		.uleb128 0x7
 11851 004f 13       		.uleb128 0x13
 11852 0050 01       		.byte	0x1
 11853 0051 0B       		.uleb128 0xb
 11854 0052 0B       		.uleb128 0xb
 11855 0053 3A       		.uleb128 0x3a
 11856 0054 0B       		.uleb128 0xb
 11857 0055 3B       		.uleb128 0x3b
 11858 0056 0B       		.uleb128 0xb
 11859 0057 01       		.uleb128 0x1
 11860 0058 13       		.uleb128 0x13
 11861 0059 00       		.byte	0
ARM GAS  C:\Users\JENNEW~1\AppData\Local\Temp\ccQ5uJSg.s 			page 226


 11862 005a 00       		.byte	0
 11863 005b 08       		.uleb128 0x8
 11864 005c 0D       		.uleb128 0xd
 11865 005d 00       		.byte	0
 11866 005e 03       		.uleb128 0x3
 11867 005f 0E       		.uleb128 0xe
 11868 0060 3A       		.uleb128 0x3a
 11869 0061 0B       		.uleb128 0xb
 11870 0062 3B       		.uleb128 0x3b
 11871 0063 0B       		.uleb128 0xb
 11872 0064 49       		.uleb128 0x49
 11873 0065 13       		.uleb128 0x13
 11874 0066 38       		.uleb128 0x38
 11875 0067 0B       		.uleb128 0xb
 11876 0068 00       		.byte	0
 11877 0069 00       		.byte	0
 11878 006a 09       		.uleb128 0x9
 11879 006b 01       		.uleb128 0x1
 11880 006c 01       		.byte	0x1
 11881 006d 49       		.uleb128 0x49
 11882 006e 13       		.uleb128 0x13
 11883 006f 01       		.uleb128 0x1
 11884 0070 13       		.uleb128 0x13
 11885 0071 00       		.byte	0
 11886 0072 00       		.byte	0
 11887 0073 0A       		.uleb128 0xa
 11888 0074 21       		.uleb128 0x21
 11889 0075 00       		.byte	0
 11890 0076 49       		.uleb128 0x49
 11891 0077 13       		.uleb128 0x13
 11892 0078 2F       		.uleb128 0x2f
 11893 0079 0B       		.uleb128 0xb
 11894 007a 00       		.byte	0
 11895 007b 00       		.byte	0
 11896 007c 0B       		.uleb128 0xb
 11897 007d 0F       		.uleb128 0xf
 11898 007e 00       		.byte	0
 11899 007f 0B       		.uleb128 0xb
 11900 0080 0B       		.uleb128 0xb
 11901 0081 49       		.uleb128 0x49
 11902 0082 13       		.uleb128 0x13
 11903 0083 00       		.byte	0
 11904 0084 00       		.byte	0
 11905 0085 0C       		.uleb128 0xc
 11906 0086 15       		.uleb128 0x15
 11907 0087 01       		.byte	0x1
 11908 0088 27       		.uleb128 0x27
 11909 0089 19       		.uleb128 0x19
 11910 008a 49       		.uleb128 0x49
 11911 008b 13       		.uleb128 0x13
 11912 008c 01       		.uleb128 0x1
 11913 008d 13       		.uleb128 0x13
 11914 008e 00       		.byte	0
 11915 008f 00       		.byte	0
 11916 0090 0D       		.uleb128 0xd
 11917 0091 05       		.uleb128 0x5
 11918 0092 00       		.byte	0
ARM GAS  C:\Users\JENNEW~1\AppData\Local\Temp\ccQ5uJSg.s 			page 227


 11919 0093 49       		.uleb128 0x49
 11920 0094 13       		.uleb128 0x13
 11921 0095 00       		.byte	0
 11922 0096 00       		.byte	0
 11923 0097 0E       		.uleb128 0xe
 11924 0098 2E       		.uleb128 0x2e
 11925 0099 01       		.byte	0x1
 11926 009a 3F       		.uleb128 0x3f
 11927 009b 19       		.uleb128 0x19
 11928 009c 03       		.uleb128 0x3
 11929 009d 0E       		.uleb128 0xe
 11930 009e 3A       		.uleb128 0x3a
 11931 009f 0B       		.uleb128 0xb
 11932 00a0 3B       		.uleb128 0x3b
 11933 00a1 0B       		.uleb128 0xb
 11934 00a2 27       		.uleb128 0x27
 11935 00a3 19       		.uleb128 0x19
 11936 00a4 11       		.uleb128 0x11
 11937 00a5 01       		.uleb128 0x1
 11938 00a6 12       		.uleb128 0x12
 11939 00a7 06       		.uleb128 0x6
 11940 00a8 40       		.uleb128 0x40
 11941 00a9 18       		.uleb128 0x18
 11942 00aa 9742     		.uleb128 0x2117
 11943 00ac 19       		.uleb128 0x19
 11944 00ad 01       		.uleb128 0x1
 11945 00ae 13       		.uleb128 0x13
 11946 00af 00       		.byte	0
 11947 00b0 00       		.byte	0
 11948 00b1 0F       		.uleb128 0xf
 11949 00b2 05       		.uleb128 0x5
 11950 00b3 00       		.byte	0
 11951 00b4 03       		.uleb128 0x3
 11952 00b5 08       		.uleb128 0x8
 11953 00b6 3A       		.uleb128 0x3a
 11954 00b7 0B       		.uleb128 0xb
 11955 00b8 3B       		.uleb128 0x3b
 11956 00b9 0B       		.uleb128 0xb
 11957 00ba 49       		.uleb128 0x49
 11958 00bb 13       		.uleb128 0x13
 11959 00bc 02       		.uleb128 0x2
 11960 00bd 18       		.uleb128 0x18
 11961 00be 00       		.byte	0
 11962 00bf 00       		.byte	0
 11963 00c0 10       		.uleb128 0x10
 11964 00c1 2E       		.uleb128 0x2e
 11965 00c2 00       		.byte	0
 11966 00c3 3F       		.uleb128 0x3f
 11967 00c4 19       		.uleb128 0x19
 11968 00c5 03       		.uleb128 0x3
 11969 00c6 0E       		.uleb128 0xe
 11970 00c7 3A       		.uleb128 0x3a
 11971 00c8 0B       		.uleb128 0xb
 11972 00c9 3B       		.uleb128 0x3b
 11973 00ca 0B       		.uleb128 0xb
 11974 00cb 27       		.uleb128 0x27
 11975 00cc 19       		.uleb128 0x19
ARM GAS  C:\Users\JENNEW~1\AppData\Local\Temp\ccQ5uJSg.s 			page 228


 11976 00cd 11       		.uleb128 0x11
 11977 00ce 01       		.uleb128 0x1
 11978 00cf 12       		.uleb128 0x12
 11979 00d0 06       		.uleb128 0x6
 11980 00d1 40       		.uleb128 0x40
 11981 00d2 18       		.uleb128 0x18
 11982 00d3 9742     		.uleb128 0x2117
 11983 00d5 19       		.uleb128 0x19
 11984 00d6 00       		.byte	0
 11985 00d7 00       		.byte	0
 11986 00d8 11       		.uleb128 0x11
 11987 00d9 2E       		.uleb128 0x2e
 11988 00da 00       		.byte	0
 11989 00db 3F       		.uleb128 0x3f
 11990 00dc 19       		.uleb128 0x19
 11991 00dd 03       		.uleb128 0x3
 11992 00de 0E       		.uleb128 0xe
 11993 00df 3A       		.uleb128 0x3a
 11994 00e0 0B       		.uleb128 0xb
 11995 00e1 3B       		.uleb128 0x3b
 11996 00e2 0B       		.uleb128 0xb
 11997 00e3 27       		.uleb128 0x27
 11998 00e4 19       		.uleb128 0x19
 11999 00e5 49       		.uleb128 0x49
 12000 00e6 13       		.uleb128 0x13
 12001 00e7 11       		.uleb128 0x11
 12002 00e8 01       		.uleb128 0x1
 12003 00e9 12       		.uleb128 0x12
 12004 00ea 06       		.uleb128 0x6
 12005 00eb 40       		.uleb128 0x40
 12006 00ec 18       		.uleb128 0x18
 12007 00ed 9742     		.uleb128 0x2117
 12008 00ef 19       		.uleb128 0x19
 12009 00f0 00       		.byte	0
 12010 00f1 00       		.byte	0
 12011 00f2 12       		.uleb128 0x12
 12012 00f3 35       		.uleb128 0x35
 12013 00f4 00       		.byte	0
 12014 00f5 49       		.uleb128 0x49
 12015 00f6 13       		.uleb128 0x13
 12016 00f7 00       		.byte	0
 12017 00f8 00       		.byte	0
 12018 00f9 13       		.uleb128 0x13
 12019 00fa 2E       		.uleb128 0x2e
 12020 00fb 01       		.byte	0x1
 12021 00fc 3F       		.uleb128 0x3f
 12022 00fd 19       		.uleb128 0x19
 12023 00fe 03       		.uleb128 0x3
 12024 00ff 0E       		.uleb128 0xe
 12025 0100 3A       		.uleb128 0x3a
 12026 0101 0B       		.uleb128 0xb
 12027 0102 3B       		.uleb128 0x3b
 12028 0103 0B       		.uleb128 0xb
 12029 0104 27       		.uleb128 0x27
 12030 0105 19       		.uleb128 0x19
 12031 0106 11       		.uleb128 0x11
 12032 0107 01       		.uleb128 0x1
ARM GAS  C:\Users\JENNEW~1\AppData\Local\Temp\ccQ5uJSg.s 			page 229


 12033 0108 12       		.uleb128 0x12
 12034 0109 06       		.uleb128 0x6
 12035 010a 40       		.uleb128 0x40
 12036 010b 18       		.uleb128 0x18
 12037 010c 9642     		.uleb128 0x2116
 12038 010e 19       		.uleb128 0x19
 12039 010f 01       		.uleb128 0x1
 12040 0110 13       		.uleb128 0x13
 12041 0111 00       		.byte	0
 12042 0112 00       		.byte	0
 12043 0113 14       		.uleb128 0x14
 12044 0114 05       		.uleb128 0x5
 12045 0115 00       		.byte	0
 12046 0116 03       		.uleb128 0x3
 12047 0117 0E       		.uleb128 0xe
 12048 0118 3A       		.uleb128 0x3a
 12049 0119 0B       		.uleb128 0xb
 12050 011a 3B       		.uleb128 0x3b
 12051 011b 0B       		.uleb128 0xb
 12052 011c 49       		.uleb128 0x49
 12053 011d 13       		.uleb128 0x13
 12054 011e 02       		.uleb128 0x2
 12055 011f 18       		.uleb128 0x18
 12056 0120 00       		.byte	0
 12057 0121 00       		.byte	0
 12058 0122 15       		.uleb128 0x15
 12059 0123 0B       		.uleb128 0xb
 12060 0124 01       		.byte	0x1
 12061 0125 11       		.uleb128 0x11
 12062 0126 01       		.uleb128 0x1
 12063 0127 12       		.uleb128 0x12
 12064 0128 06       		.uleb128 0x6
 12065 0129 00       		.byte	0
 12066 012a 00       		.byte	0
 12067 012b 16       		.uleb128 0x16
 12068 012c 34       		.uleb128 0x34
 12069 012d 00       		.byte	0
 12070 012e 03       		.uleb128 0x3
 12071 012f 0E       		.uleb128 0xe
 12072 0130 3A       		.uleb128 0x3a
 12073 0131 0B       		.uleb128 0xb
 12074 0132 3B       		.uleb128 0x3b
 12075 0133 0B       		.uleb128 0xb
 12076 0134 49       		.uleb128 0x49
 12077 0135 13       		.uleb128 0x13
 12078 0136 02       		.uleb128 0x2
 12079 0137 18       		.uleb128 0x18
 12080 0138 00       		.byte	0
 12081 0139 00       		.byte	0
 12082 013a 17       		.uleb128 0x17
 12083 013b 0B       		.uleb128 0xb
 12084 013c 01       		.byte	0x1
 12085 013d 11       		.uleb128 0x11
 12086 013e 01       		.uleb128 0x1
 12087 013f 12       		.uleb128 0x12
 12088 0140 06       		.uleb128 0x6
 12089 0141 01       		.uleb128 0x1
ARM GAS  C:\Users\JENNEW~1\AppData\Local\Temp\ccQ5uJSg.s 			page 230


 12090 0142 13       		.uleb128 0x13
 12091 0143 00       		.byte	0
 12092 0144 00       		.byte	0
 12093 0145 18       		.uleb128 0x18
 12094 0146 34       		.uleb128 0x34
 12095 0147 00       		.byte	0
 12096 0148 03       		.uleb128 0x3
 12097 0149 08       		.uleb128 0x8
 12098 014a 3A       		.uleb128 0x3a
 12099 014b 0B       		.uleb128 0xb
 12100 014c 3B       		.uleb128 0x3b
 12101 014d 0B       		.uleb128 0xb
 12102 014e 49       		.uleb128 0x49
 12103 014f 13       		.uleb128 0x13
 12104 0150 02       		.uleb128 0x2
 12105 0151 18       		.uleb128 0x18
 12106 0152 00       		.byte	0
 12107 0153 00       		.byte	0
 12108 0154 19       		.uleb128 0x19
 12109 0155 2E       		.uleb128 0x2e
 12110 0156 01       		.byte	0x1
 12111 0157 3F       		.uleb128 0x3f
 12112 0158 19       		.uleb128 0x19
 12113 0159 03       		.uleb128 0x3
 12114 015a 0E       		.uleb128 0xe
 12115 015b 3A       		.uleb128 0x3a
 12116 015c 0B       		.uleb128 0xb
 12117 015d 3B       		.uleb128 0x3b
 12118 015e 05       		.uleb128 0x5
 12119 015f 27       		.uleb128 0x27
 12120 0160 19       		.uleb128 0x19
 12121 0161 11       		.uleb128 0x11
 12122 0162 01       		.uleb128 0x1
 12123 0163 12       		.uleb128 0x12
 12124 0164 06       		.uleb128 0x6
 12125 0165 40       		.uleb128 0x40
 12126 0166 18       		.uleb128 0x18
 12127 0167 9742     		.uleb128 0x2117
 12128 0169 19       		.uleb128 0x19
 12129 016a 01       		.uleb128 0x1
 12130 016b 13       		.uleb128 0x13
 12131 016c 00       		.byte	0
 12132 016d 00       		.byte	0
 12133 016e 1A       		.uleb128 0x1a
 12134 016f 05       		.uleb128 0x5
 12135 0170 00       		.byte	0
 12136 0171 03       		.uleb128 0x3
 12137 0172 08       		.uleb128 0x8
 12138 0173 3A       		.uleb128 0x3a
 12139 0174 0B       		.uleb128 0xb
 12140 0175 3B       		.uleb128 0x3b
 12141 0176 05       		.uleb128 0x5
 12142 0177 49       		.uleb128 0x49
 12143 0178 13       		.uleb128 0x13
 12144 0179 02       		.uleb128 0x2
 12145 017a 18       		.uleb128 0x18
 12146 017b 00       		.byte	0
ARM GAS  C:\Users\JENNEW~1\AppData\Local\Temp\ccQ5uJSg.s 			page 231


 12147 017c 00       		.byte	0
 12148 017d 1B       		.uleb128 0x1b
 12149 017e 34       		.uleb128 0x34
 12150 017f 00       		.byte	0
 12151 0180 03       		.uleb128 0x3
 12152 0181 08       		.uleb128 0x8
 12153 0182 3A       		.uleb128 0x3a
 12154 0183 0B       		.uleb128 0xb
 12155 0184 3B       		.uleb128 0x3b
 12156 0185 05       		.uleb128 0x5
 12157 0186 49       		.uleb128 0x49
 12158 0187 13       		.uleb128 0x13
 12159 0188 02       		.uleb128 0x2
 12160 0189 18       		.uleb128 0x18
 12161 018a 00       		.byte	0
 12162 018b 00       		.byte	0
 12163 018c 1C       		.uleb128 0x1c
 12164 018d 05       		.uleb128 0x5
 12165 018e 00       		.byte	0
 12166 018f 03       		.uleb128 0x3
 12167 0190 0E       		.uleb128 0xe
 12168 0191 3A       		.uleb128 0x3a
 12169 0192 0B       		.uleb128 0xb
 12170 0193 3B       		.uleb128 0x3b
 12171 0194 05       		.uleb128 0x5
 12172 0195 49       		.uleb128 0x49
 12173 0196 13       		.uleb128 0x13
 12174 0197 02       		.uleb128 0x2
 12175 0198 18       		.uleb128 0x18
 12176 0199 00       		.byte	0
 12177 019a 00       		.byte	0
 12178 019b 1D       		.uleb128 0x1d
 12179 019c 34       		.uleb128 0x34
 12180 019d 00       		.byte	0
 12181 019e 03       		.uleb128 0x3
 12182 019f 0E       		.uleb128 0xe
 12183 01a0 3A       		.uleb128 0x3a
 12184 01a1 0B       		.uleb128 0xb
 12185 01a2 3B       		.uleb128 0x3b
 12186 01a3 05       		.uleb128 0x5
 12187 01a4 49       		.uleb128 0x49
 12188 01a5 13       		.uleb128 0x13
 12189 01a6 02       		.uleb128 0x2
 12190 01a7 18       		.uleb128 0x18
 12191 01a8 00       		.byte	0
 12192 01a9 00       		.byte	0
 12193 01aa 1E       		.uleb128 0x1e
 12194 01ab 2E       		.uleb128 0x2e
 12195 01ac 01       		.byte	0x1
 12196 01ad 03       		.uleb128 0x3
 12197 01ae 0E       		.uleb128 0xe
 12198 01af 3A       		.uleb128 0x3a
 12199 01b0 0B       		.uleb128 0xb
 12200 01b1 3B       		.uleb128 0x3b
 12201 01b2 05       		.uleb128 0x5
 12202 01b3 27       		.uleb128 0x27
 12203 01b4 19       		.uleb128 0x19
ARM GAS  C:\Users\JENNEW~1\AppData\Local\Temp\ccQ5uJSg.s 			page 232


 12204 01b5 49       		.uleb128 0x49
 12205 01b6 13       		.uleb128 0x13
 12206 01b7 11       		.uleb128 0x11
 12207 01b8 01       		.uleb128 0x1
 12208 01b9 12       		.uleb128 0x12
 12209 01ba 06       		.uleb128 0x6
 12210 01bb 40       		.uleb128 0x40
 12211 01bc 18       		.uleb128 0x18
 12212 01bd 9642     		.uleb128 0x2116
 12213 01bf 19       		.uleb128 0x19
 12214 01c0 01       		.uleb128 0x1
 12215 01c1 13       		.uleb128 0x13
 12216 01c2 00       		.byte	0
 12217 01c3 00       		.byte	0
 12218 01c4 1F       		.uleb128 0x1f
 12219 01c5 2E       		.uleb128 0x2e
 12220 01c6 01       		.byte	0x1
 12221 01c7 03       		.uleb128 0x3
 12222 01c8 0E       		.uleb128 0xe
 12223 01c9 3A       		.uleb128 0x3a
 12224 01ca 0B       		.uleb128 0xb
 12225 01cb 3B       		.uleb128 0x3b
 12226 01cc 05       		.uleb128 0x5
 12227 01cd 27       		.uleb128 0x27
 12228 01ce 19       		.uleb128 0x19
 12229 01cf 11       		.uleb128 0x11
 12230 01d0 01       		.uleb128 0x1
 12231 01d1 12       		.uleb128 0x12
 12232 01d2 06       		.uleb128 0x6
 12233 01d3 40       		.uleb128 0x40
 12234 01d4 18       		.uleb128 0x18
 12235 01d5 9642     		.uleb128 0x2116
 12236 01d7 19       		.uleb128 0x19
 12237 01d8 01       		.uleb128 0x1
 12238 01d9 13       		.uleb128 0x13
 12239 01da 00       		.byte	0
 12240 01db 00       		.byte	0
 12241 01dc 20       		.uleb128 0x20
 12242 01dd 2E       		.uleb128 0x2e
 12243 01de 01       		.byte	0x1
 12244 01df 03       		.uleb128 0x3
 12245 01e0 0E       		.uleb128 0xe
 12246 01e1 3A       		.uleb128 0x3a
 12247 01e2 0B       		.uleb128 0xb
 12248 01e3 3B       		.uleb128 0x3b
 12249 01e4 05       		.uleb128 0x5
 12250 01e5 27       		.uleb128 0x27
 12251 01e6 19       		.uleb128 0x19
 12252 01e7 49       		.uleb128 0x49
 12253 01e8 13       		.uleb128 0x13
 12254 01e9 11       		.uleb128 0x11
 12255 01ea 01       		.uleb128 0x1
 12256 01eb 12       		.uleb128 0x12
 12257 01ec 06       		.uleb128 0x6
 12258 01ed 40       		.uleb128 0x40
 12259 01ee 18       		.uleb128 0x18
 12260 01ef 9742     		.uleb128 0x2117
ARM GAS  C:\Users\JENNEW~1\AppData\Local\Temp\ccQ5uJSg.s 			page 233


 12261 01f1 19       		.uleb128 0x19
 12262 01f2 01       		.uleb128 0x1
 12263 01f3 13       		.uleb128 0x13
 12264 01f4 00       		.byte	0
 12265 01f5 00       		.byte	0
 12266 01f6 21       		.uleb128 0x21
 12267 01f7 2E       		.uleb128 0x2e
 12268 01f8 01       		.byte	0x1
 12269 01f9 03       		.uleb128 0x3
 12270 01fa 0E       		.uleb128 0xe
 12271 01fb 3A       		.uleb128 0x3a
 12272 01fc 0B       		.uleb128 0xb
 12273 01fd 3B       		.uleb128 0x3b
 12274 01fe 05       		.uleb128 0x5
 12275 01ff 27       		.uleb128 0x27
 12276 0200 19       		.uleb128 0x19
 12277 0201 11       		.uleb128 0x11
 12278 0202 01       		.uleb128 0x1
 12279 0203 12       		.uleb128 0x12
 12280 0204 06       		.uleb128 0x6
 12281 0205 40       		.uleb128 0x40
 12282 0206 18       		.uleb128 0x18
 12283 0207 9742     		.uleb128 0x2117
 12284 0209 19       		.uleb128 0x19
 12285 020a 01       		.uleb128 0x1
 12286 020b 13       		.uleb128 0x13
 12287 020c 00       		.byte	0
 12288 020d 00       		.byte	0
 12289 020e 22       		.uleb128 0x22
 12290 020f 2E       		.uleb128 0x2e
 12291 0210 01       		.byte	0x1
 12292 0211 3F       		.uleb128 0x3f
 12293 0212 19       		.uleb128 0x19
 12294 0213 03       		.uleb128 0x3
 12295 0214 0E       		.uleb128 0xe
 12296 0215 3A       		.uleb128 0x3a
 12297 0216 0B       		.uleb128 0xb
 12298 0217 3B       		.uleb128 0x3b
 12299 0218 05       		.uleb128 0x5
 12300 0219 27       		.uleb128 0x27
 12301 021a 19       		.uleb128 0x19
 12302 021b 49       		.uleb128 0x49
 12303 021c 13       		.uleb128 0x13
 12304 021d 11       		.uleb128 0x11
 12305 021e 01       		.uleb128 0x1
 12306 021f 12       		.uleb128 0x12
 12307 0220 06       		.uleb128 0x6
 12308 0221 40       		.uleb128 0x40
 12309 0222 18       		.uleb128 0x18
 12310 0223 9642     		.uleb128 0x2116
 12311 0225 19       		.uleb128 0x19
 12312 0226 01       		.uleb128 0x1
 12313 0227 13       		.uleb128 0x13
 12314 0228 00       		.byte	0
 12315 0229 00       		.byte	0
 12316 022a 23       		.uleb128 0x23
 12317 022b 26       		.uleb128 0x26
ARM GAS  C:\Users\JENNEW~1\AppData\Local\Temp\ccQ5uJSg.s 			page 234


 12318 022c 00       		.byte	0
 12319 022d 49       		.uleb128 0x49
 12320 022e 13       		.uleb128 0x13
 12321 022f 00       		.byte	0
 12322 0230 00       		.byte	0
 12323 0231 24       		.uleb128 0x24
 12324 0232 2E       		.uleb128 0x2e
 12325 0233 01       		.byte	0x1
 12326 0234 3F       		.uleb128 0x3f
 12327 0235 19       		.uleb128 0x19
 12328 0236 03       		.uleb128 0x3
 12329 0237 0E       		.uleb128 0xe
 12330 0238 3A       		.uleb128 0x3a
 12331 0239 0B       		.uleb128 0xb
 12332 023a 3B       		.uleb128 0x3b
 12333 023b 05       		.uleb128 0x5
 12334 023c 27       		.uleb128 0x27
 12335 023d 19       		.uleb128 0x19
 12336 023e 11       		.uleb128 0x11
 12337 023f 01       		.uleb128 0x1
 12338 0240 12       		.uleb128 0x12
 12339 0241 06       		.uleb128 0x6
 12340 0242 40       		.uleb128 0x40
 12341 0243 18       		.uleb128 0x18
 12342 0244 9642     		.uleb128 0x2116
 12343 0246 19       		.uleb128 0x19
 12344 0247 01       		.uleb128 0x1
 12345 0248 13       		.uleb128 0x13
 12346 0249 00       		.byte	0
 12347 024a 00       		.byte	0
 12348 024b 25       		.uleb128 0x25
 12349 024c 34       		.uleb128 0x34
 12350 024d 00       		.byte	0
 12351 024e 03       		.uleb128 0x3
 12352 024f 0E       		.uleb128 0xe
 12353 0250 3A       		.uleb128 0x3a
 12354 0251 0B       		.uleb128 0xb
 12355 0252 3B       		.uleb128 0x3b
 12356 0253 0B       		.uleb128 0xb
 12357 0254 49       		.uleb128 0x49
 12358 0255 13       		.uleb128 0x13
 12359 0256 3F       		.uleb128 0x3f
 12360 0257 19       		.uleb128 0x19
 12361 0258 02       		.uleb128 0x2
 12362 0259 18       		.uleb128 0x18
 12363 025a 00       		.byte	0
 12364 025b 00       		.byte	0
 12365 025c 26       		.uleb128 0x26
 12366 025d 15       		.uleb128 0x15
 12367 025e 01       		.byte	0x1
 12368 025f 27       		.uleb128 0x27
 12369 0260 19       		.uleb128 0x19
 12370 0261 01       		.uleb128 0x1
 12371 0262 13       		.uleb128 0x13
 12372 0263 00       		.byte	0
 12373 0264 00       		.byte	0
 12374 0265 27       		.uleb128 0x27
ARM GAS  C:\Users\JENNEW~1\AppData\Local\Temp\ccQ5uJSg.s 			page 235


 12375 0266 34       		.uleb128 0x34
 12376 0267 00       		.byte	0
 12377 0268 03       		.uleb128 0x3
 12378 0269 08       		.uleb128 0x8
 12379 026a 3A       		.uleb128 0x3a
 12380 026b 0B       		.uleb128 0xb
 12381 026c 3B       		.uleb128 0x3b
 12382 026d 0B       		.uleb128 0xb
 12383 026e 49       		.uleb128 0x49
 12384 026f 13       		.uleb128 0x13
 12385 0270 3F       		.uleb128 0x3f
 12386 0271 19       		.uleb128 0x19
 12387 0272 02       		.uleb128 0x2
 12388 0273 18       		.uleb128 0x18
 12389 0274 00       		.byte	0
 12390 0275 00       		.byte	0
 12391 0276 00       		.byte	0
 12392              		.section	.debug_aranges,"",%progbits
 12393 0000 24020000 		.4byte	0x224
 12394 0004 0200     		.2byte	0x2
 12395 0006 00000000 		.4byte	.Ldebug_info0
 12396 000a 04       		.byte	0x4
 12397 000b 00       		.byte	0
 12398 000c 0000     		.2byte	0
 12399 000e 0000     		.2byte	0
 12400 0010 00000000 		.4byte	.LFB0
 12401 0014 1C000000 		.4byte	.LFE0-.LFB0
 12402 0018 00000000 		.4byte	.LFB1
 12403 001c 1C000000 		.4byte	.LFE1-.LFB1
 12404 0020 00000000 		.4byte	.LFB2
 12405 0024 14000000 		.4byte	.LFE2-.LFB2
 12406 0028 00000000 		.4byte	.LFB3
 12407 002c 18000000 		.4byte	.LFE3-.LFB3
 12408 0030 00000000 		.4byte	.LFB4
 12409 0034 18000000 		.4byte	.LFE4-.LFB4
 12410 0038 00000000 		.4byte	.LFB5
 12411 003c 18000000 		.4byte	.LFE5-.LFB5
 12412 0040 00000000 		.4byte	.LFB6
 12413 0044 14000000 		.4byte	.LFE6-.LFB6
 12414 0048 00000000 		.4byte	.LFB7
 12415 004c 2C000000 		.4byte	.LFE7-.LFB7
 12416 0050 00000000 		.4byte	.LFB8
 12417 0054 1C000000 		.4byte	.LFE8-.LFB8
 12418 0058 00000000 		.4byte	.LFB9
 12419 005c E8000000 		.4byte	.LFE9-.LFB9
 12420 0060 00000000 		.4byte	.LFB10
 12421 0064 C8000000 		.4byte	.LFE10-.LFB10
 12422 0068 00000000 		.4byte	.LFB11
 12423 006c B0000000 		.4byte	.LFE11-.LFB11
 12424 0070 00000000 		.4byte	.LFB12
 12425 0074 B0000000 		.4byte	.LFE12-.LFB12
 12426 0078 00000000 		.4byte	.LFB13
 12427 007c C8000000 		.4byte	.LFE13-.LFB13
 12428 0080 00000000 		.4byte	.LFB14
 12429 0084 A0010000 		.4byte	.LFE14-.LFB14
 12430 0088 00000000 		.4byte	.LFB15
 12431 008c 70010000 		.4byte	.LFE15-.LFB15
ARM GAS  C:\Users\JENNEW~1\AppData\Local\Temp\ccQ5uJSg.s 			page 236


 12432 0090 00000000 		.4byte	.LFB16
 12433 0094 48010000 		.4byte	.LFE16-.LFB16
 12434 0098 00000000 		.4byte	.LFB17
 12435 009c 44010000 		.4byte	.LFE17-.LFB17
 12436 00a0 00000000 		.4byte	.LFB18
 12437 00a4 74010000 		.4byte	.LFE18-.LFB18
 12438 00a8 00000000 		.4byte	.LFB19
 12439 00ac 78000000 		.4byte	.LFE19-.LFB19
 12440 00b0 00000000 		.4byte	.LFB20
 12441 00b4 58000000 		.4byte	.LFE20-.LFB20
 12442 00b8 00000000 		.4byte	.LFB21
 12443 00bc 40000000 		.4byte	.LFE21-.LFB21
 12444 00c0 00000000 		.4byte	.LFB22
 12445 00c4 40000000 		.4byte	.LFE22-.LFB22
 12446 00c8 00000000 		.4byte	.LFB23
 12447 00cc 1C010000 		.4byte	.LFE23-.LFB23
 12448 00d0 00000000 		.4byte	.LFB24
 12449 00d4 F0000000 		.4byte	.LFE24-.LFB24
 12450 00d8 00000000 		.4byte	.LFB25
 12451 00dc C4000000 		.4byte	.LFE25-.LFB25
 12452 00e0 00000000 		.4byte	.LFB26
 12453 00e4 C0000000 		.4byte	.LFE26-.LFB26
 12454 00e8 00000000 		.4byte	.LFB27
 12455 00ec 58000000 		.4byte	.LFE27-.LFB27
 12456 00f0 00000000 		.4byte	.LFB28
 12457 00f4 40000000 		.4byte	.LFE28-.LFB28
 12458 00f8 00000000 		.4byte	.LFB29
 12459 00fc 40000000 		.4byte	.LFE29-.LFB29
 12460 0100 00000000 		.4byte	.LFB30
 12461 0104 5C010000 		.4byte	.LFE30-.LFB30
 12462 0108 00000000 		.4byte	.LFB31
 12463 010c 30010000 		.4byte	.LFE31-.LFB31
 12464 0110 00000000 		.4byte	.LFB32
 12465 0114 E0000000 		.4byte	.LFE32-.LFB32
 12466 0118 00000000 		.4byte	.LFB33
 12467 011c 40000000 		.4byte	.LFE33-.LFB33
 12468 0120 00000000 		.4byte	.LFB34
 12469 0124 DC000000 		.4byte	.LFE34-.LFB34
 12470 0128 00000000 		.4byte	.LFB35
 12471 012c 3C000000 		.4byte	.LFE35-.LFB35
 12472 0130 00000000 		.4byte	.LFB36
 12473 0134 C8000000 		.4byte	.LFE36-.LFB36
 12474 0138 00000000 		.4byte	.LFB37
 12475 013c 54000000 		.4byte	.LFE37-.LFB37
 12476 0140 00000000 		.4byte	.LFB38
 12477 0144 F8000000 		.4byte	.LFE38-.LFB38
 12478 0148 00000000 		.4byte	.LFB39
 12479 014c CC000000 		.4byte	.LFE39-.LFB39
 12480 0150 00000000 		.4byte	.LFB40
 12481 0154 DC000000 		.4byte	.LFE40-.LFB40
 12482 0158 00000000 		.4byte	.LFB41
 12483 015c 2E000000 		.4byte	.LFE41-.LFB41
 12484 0160 00000000 		.4byte	.LFB42
 12485 0164 EC000000 		.4byte	.LFE42-.LFB42
 12486 0168 00000000 		.4byte	.LFB43
 12487 016c 90000000 		.4byte	.LFE43-.LFB43
 12488 0170 00000000 		.4byte	.LFB44
ARM GAS  C:\Users\JENNEW~1\AppData\Local\Temp\ccQ5uJSg.s 			page 237


 12489 0174 C4000000 		.4byte	.LFE44-.LFB44
 12490 0178 00000000 		.4byte	.LFB45
 12491 017c 3C000000 		.4byte	.LFE45-.LFB45
 12492 0180 00000000 		.4byte	.LFB46
 12493 0184 4C000000 		.4byte	.LFE46-.LFB46
 12494 0188 00000000 		.4byte	.LFB47
 12495 018c DC010000 		.4byte	.LFE47-.LFB47
 12496 0190 00000000 		.4byte	.LFB48
 12497 0194 88010000 		.4byte	.LFE48-.LFB48
 12498 0198 00000000 		.4byte	.LFB49
 12499 019c 14010000 		.4byte	.LFE49-.LFB49
 12500 01a0 00000000 		.4byte	.LFB50
 12501 01a4 3C000000 		.4byte	.LFE50-.LFB50
 12502 01a8 00000000 		.4byte	.LFB51
 12503 01ac 88000000 		.4byte	.LFE51-.LFB51
 12504 01b0 00000000 		.4byte	.LFB52
 12505 01b4 6A000000 		.4byte	.LFE52-.LFB52
 12506 01b8 00000000 		.4byte	.LFB53
 12507 01bc 4C000000 		.4byte	.LFE53-.LFB53
 12508 01c0 00000000 		.4byte	.LFB54
 12509 01c4 54000000 		.4byte	.LFE54-.LFB54
 12510 01c8 00000000 		.4byte	.LFB55
 12511 01cc 24000000 		.4byte	.LFE55-.LFB55
 12512 01d0 00000000 		.4byte	.LFB56
 12513 01d4 24000000 		.4byte	.LFE56-.LFB56
 12514 01d8 00000000 		.4byte	.LFB57
 12515 01dc 3C000000 		.4byte	.LFE57-.LFB57
 12516 01e0 00000000 		.4byte	.LFB58
 12517 01e4 18000000 		.4byte	.LFE58-.LFB58
 12518 01e8 00000000 		.4byte	.LFB59
 12519 01ec 64000000 		.4byte	.LFE59-.LFB59
 12520 01f0 00000000 		.4byte	.LFB60
 12521 01f4 96000000 		.4byte	.LFE60-.LFB60
 12522 01f8 00000000 		.4byte	.LFB61
 12523 01fc 7E000000 		.4byte	.LFE61-.LFB61
 12524 0200 00000000 		.4byte	.LFB62
 12525 0204 96000000 		.4byte	.LFE62-.LFB62
 12526 0208 00000000 		.4byte	.LFB63
 12527 020c 96000000 		.4byte	.LFE63-.LFB63
 12528 0210 00000000 		.4byte	.LFB64
 12529 0214 42000000 		.4byte	.LFE64-.LFB64
 12530 0218 00000000 		.4byte	.LFB65
 12531 021c E0060000 		.4byte	.LFE65-.LFB65
 12532 0220 00000000 		.4byte	0
 12533 0224 00000000 		.4byte	0
 12534              		.section	.debug_ranges,"",%progbits
 12535              	.Ldebug_ranges0:
 12536 0000 00000000 		.4byte	.LFB0
 12537 0004 1C000000 		.4byte	.LFE0
 12538 0008 00000000 		.4byte	.LFB1
 12539 000c 1C000000 		.4byte	.LFE1
 12540 0010 00000000 		.4byte	.LFB2
 12541 0014 14000000 		.4byte	.LFE2
 12542 0018 00000000 		.4byte	.LFB3
 12543 001c 18000000 		.4byte	.LFE3
 12544 0020 00000000 		.4byte	.LFB4
 12545 0024 18000000 		.4byte	.LFE4
ARM GAS  C:\Users\JENNEW~1\AppData\Local\Temp\ccQ5uJSg.s 			page 238


 12546 0028 00000000 		.4byte	.LFB5
 12547 002c 18000000 		.4byte	.LFE5
 12548 0030 00000000 		.4byte	.LFB6
 12549 0034 14000000 		.4byte	.LFE6
 12550 0038 00000000 		.4byte	.LFB7
 12551 003c 2C000000 		.4byte	.LFE7
 12552 0040 00000000 		.4byte	.LFB8
 12553 0044 1C000000 		.4byte	.LFE8
 12554 0048 00000000 		.4byte	.LFB9
 12555 004c E8000000 		.4byte	.LFE9
 12556 0050 00000000 		.4byte	.LFB10
 12557 0054 C8000000 		.4byte	.LFE10
 12558 0058 00000000 		.4byte	.LFB11
 12559 005c B0000000 		.4byte	.LFE11
 12560 0060 00000000 		.4byte	.LFB12
 12561 0064 B0000000 		.4byte	.LFE12
 12562 0068 00000000 		.4byte	.LFB13
 12563 006c C8000000 		.4byte	.LFE13
 12564 0070 00000000 		.4byte	.LFB14
 12565 0074 A0010000 		.4byte	.LFE14
 12566 0078 00000000 		.4byte	.LFB15
 12567 007c 70010000 		.4byte	.LFE15
 12568 0080 00000000 		.4byte	.LFB16
 12569 0084 48010000 		.4byte	.LFE16
 12570 0088 00000000 		.4byte	.LFB17
 12571 008c 44010000 		.4byte	.LFE17
 12572 0090 00000000 		.4byte	.LFB18
 12573 0094 74010000 		.4byte	.LFE18
 12574 0098 00000000 		.4byte	.LFB19
 12575 009c 78000000 		.4byte	.LFE19
 12576 00a0 00000000 		.4byte	.LFB20
 12577 00a4 58000000 		.4byte	.LFE20
 12578 00a8 00000000 		.4byte	.LFB21
 12579 00ac 40000000 		.4byte	.LFE21
 12580 00b0 00000000 		.4byte	.LFB22
 12581 00b4 40000000 		.4byte	.LFE22
 12582 00b8 00000000 		.4byte	.LFB23
 12583 00bc 1C010000 		.4byte	.LFE23
 12584 00c0 00000000 		.4byte	.LFB24
 12585 00c4 F0000000 		.4byte	.LFE24
 12586 00c8 00000000 		.4byte	.LFB25
 12587 00cc C4000000 		.4byte	.LFE25
 12588 00d0 00000000 		.4byte	.LFB26
 12589 00d4 C0000000 		.4byte	.LFE26
 12590 00d8 00000000 		.4byte	.LFB27
 12591 00dc 58000000 		.4byte	.LFE27
 12592 00e0 00000000 		.4byte	.LFB28
 12593 00e4 40000000 		.4byte	.LFE28
 12594 00e8 00000000 		.4byte	.LFB29
 12595 00ec 40000000 		.4byte	.LFE29
 12596 00f0 00000000 		.4byte	.LFB30
 12597 00f4 5C010000 		.4byte	.LFE30
 12598 00f8 00000000 		.4byte	.LFB31
 12599 00fc 30010000 		.4byte	.LFE31
 12600 0100 00000000 		.4byte	.LFB32
 12601 0104 E0000000 		.4byte	.LFE32
 12602 0108 00000000 		.4byte	.LFB33
ARM GAS  C:\Users\JENNEW~1\AppData\Local\Temp\ccQ5uJSg.s 			page 239


 12603 010c 40000000 		.4byte	.LFE33
 12604 0110 00000000 		.4byte	.LFB34
 12605 0114 DC000000 		.4byte	.LFE34
 12606 0118 00000000 		.4byte	.LFB35
 12607 011c 3C000000 		.4byte	.LFE35
 12608 0120 00000000 		.4byte	.LFB36
 12609 0124 C8000000 		.4byte	.LFE36
 12610 0128 00000000 		.4byte	.LFB37
 12611 012c 54000000 		.4byte	.LFE37
 12612 0130 00000000 		.4byte	.LFB38
 12613 0134 F8000000 		.4byte	.LFE38
 12614 0138 00000000 		.4byte	.LFB39
 12615 013c CC000000 		.4byte	.LFE39
 12616 0140 00000000 		.4byte	.LFB40
 12617 0144 DC000000 		.4byte	.LFE40
 12618 0148 00000000 		.4byte	.LFB41
 12619 014c 2E000000 		.4byte	.LFE41
 12620 0150 00000000 		.4byte	.LFB42
 12621 0154 EC000000 		.4byte	.LFE42
 12622 0158 00000000 		.4byte	.LFB43
 12623 015c 90000000 		.4byte	.LFE43
 12624 0160 00000000 		.4byte	.LFB44
 12625 0164 C4000000 		.4byte	.LFE44
 12626 0168 00000000 		.4byte	.LFB45
 12627 016c 3C000000 		.4byte	.LFE45
 12628 0170 00000000 		.4byte	.LFB46
 12629 0174 4C000000 		.4byte	.LFE46
 12630 0178 00000000 		.4byte	.LFB47
 12631 017c DC010000 		.4byte	.LFE47
 12632 0180 00000000 		.4byte	.LFB48
 12633 0184 88010000 		.4byte	.LFE48
 12634 0188 00000000 		.4byte	.LFB49
 12635 018c 14010000 		.4byte	.LFE49
 12636 0190 00000000 		.4byte	.LFB50
 12637 0194 3C000000 		.4byte	.LFE50
 12638 0198 00000000 		.4byte	.LFB51
 12639 019c 88000000 		.4byte	.LFE51
 12640 01a0 00000000 		.4byte	.LFB52
 12641 01a4 6A000000 		.4byte	.LFE52
 12642 01a8 00000000 		.4byte	.LFB53
 12643 01ac 4C000000 		.4byte	.LFE53
 12644 01b0 00000000 		.4byte	.LFB54
 12645 01b4 54000000 		.4byte	.LFE54
 12646 01b8 00000000 		.4byte	.LFB55
 12647 01bc 24000000 		.4byte	.LFE55
 12648 01c0 00000000 		.4byte	.LFB56
 12649 01c4 24000000 		.4byte	.LFE56
 12650 01c8 00000000 		.4byte	.LFB57
 12651 01cc 3C000000 		.4byte	.LFE57
 12652 01d0 00000000 		.4byte	.LFB58
 12653 01d4 18000000 		.4byte	.LFE58
 12654 01d8 00000000 		.4byte	.LFB59
 12655 01dc 64000000 		.4byte	.LFE59
 12656 01e0 00000000 		.4byte	.LFB60
 12657 01e4 96000000 		.4byte	.LFE60
 12658 01e8 00000000 		.4byte	.LFB61
 12659 01ec 7E000000 		.4byte	.LFE61
ARM GAS  C:\Users\JENNEW~1\AppData\Local\Temp\ccQ5uJSg.s 			page 240


 12660 01f0 00000000 		.4byte	.LFB62
 12661 01f4 96000000 		.4byte	.LFE62
 12662 01f8 00000000 		.4byte	.LFB63
 12663 01fc 96000000 		.4byte	.LFE63
 12664 0200 00000000 		.4byte	.LFB64
 12665 0204 42000000 		.4byte	.LFE64
 12666 0208 00000000 		.4byte	.LFB65
 12667 020c E0060000 		.4byte	.LFE65
 12668 0210 00000000 		.4byte	0
 12669 0214 00000000 		.4byte	0
 12670              		.section	.debug_line,"",%progbits
 12671              	.Ldebug_line0:
 12672 0000 620D0000 		.section	.debug_str,"MS",%progbits,1
 12672      02006A01 
 12672      00000201 
 12672      FB0E0D00 
 12672      01010101 
 12673              	.LASF52:
 12674 0000 51585F50 		.ascii	"QX_PARSE_TYPE_WRITE_REL_SEND\000"
 12674      41525345 
 12674      5F545950 
 12674      455F5752 
 12674      4954455F 
 12675              	.LASF110:
 12676 001d 51425F50 		.ascii	"QB_Parser_Dir_Read\000"
 12676      61727365 
 12676      725F4469 
 12676      725F5265 
 12676      616400
 12677              	.LASF97:
 12678 0030 52785374 		.ascii	"RxState\000"
 12678      61746500 
 12679              	.LASF46:
 12680 0038 51585F4D 		.ascii	"QX_MSG_TYPE_WRITE_REL\000"
 12680      53475F54 
 12680      5950455F 
 12680      57524954 
 12680      455F5245 
 12681              	.LASF133:
 12682 004e 47657446 		.ascii	"GetFloatAsSignedShort\000"
 12682      6C6F6174 
 12682      41735369 
 12682      676E6564 
 12682      53686F72 
 12683              	.LASF57:
 12684 0064 51585F53 		.ascii	"QX_STAT_ERROR_MSG_TYPE_NOT_SUPPORTED\000"
 12684      5441545F 
 12684      4552524F 
 12684      525F4D53 
 12684      475F5459 
 12685              	.LASF136:
 12686 0089 47657446 		.ascii	"GetFloatAsUnsignedShort\000"
 12686      6C6F6174 
 12686      4173556E 
 12686      7369676E 
 12686      65645368 
 12687              	.LASF219:
ARM GAS  C:\Users\JENNEW~1\AppData\Local\Temp\ccQ5uJSg.s 			page 241


 12688 00a1 51585F43 		.ascii	"QX_Clients\000"
 12688      6C69656E 
 12688      747300
 12689              	.LASF194:
 12690 00ac 696E6974 		.ascii	"initial\000"
 12690      69616C00 
 12691              	.LASF0:
 12692 00b4 756E7369 		.ascii	"unsigned int\000"
 12692      676E6564 
 12692      20696E74 
 12692      00
 12693              	.LASF92:
 12694 00c1 4D736742 		.ascii	"MsgBufStart_p\000"
 12694      75665374 
 12694      6172745F 
 12694      7000
 12695              	.LASF196:
 12696 00cf 66696E61 		.ascii	"final\000"
 12696      6C00
 12697              	.LASF28:
 12698 00d5 51585F52 		.ascii	"QX_RX_STATE_START_WAIT\000"
 12698      585F5354 
 12698      4154455F 
 12698      53544152 
 12698      545F5741 
 12699              	.LASF37:
 12700 00ec 51585F44 		.ascii	"QX_DEV_ID_BROADCAST\000"
 12700      45565F49 
 12700      445F4252 
 12700      4F414443 
 12700      41535400 
 12701              	.LASF200:
 12702 0100 51585F43 		.ascii	"QX_Client\000"
 12702      6C69656E 
 12702      7400
 12703              	.LASF11:
 12704 010a 5F5F696E 		.ascii	"__int32_t\000"
 12704      7433325F 
 12704      7400
 12705              	.LASF208:
 12706 0114 54784D73 		.ascii	"TxMsg\000"
 12706      6700
 12707              	.LASF186:
 12708 011a 6275665F 		.ascii	"buf_p\000"
 12708      7000
 12709              	.LASF108:
 12710 0120 51585F53 		.ascii	"QX_Server_t\000"
 12710      65727665 
 12710      725F7400 
 12711              	.LASF45:
 12712 012c 51585F4D 		.ascii	"QX_MSG_TYPE_WRITE_ABS\000"
 12712      53475F54 
 12712      5950455F 
 12712      57524954 
 12712      455F4142 
 12713              	.LASF223:
 12714 0142 474E5520 		.ascii	"GNU C11 5.4.1 20160609 (release) [ARM/embedded-5-br"
ARM GAS  C:\Users\JENNEW~1\AppData\Local\Temp\ccQ5uJSg.s 			page 242


 12714      43313120 
 12714      352E342E 
 12714      31203230 
 12714      31363036 
 12715 0175 616E6368 		.ascii	"anch revision 237715] -mcpu=cortex-m3 -mthumb -g -O"
 12715      20726576 
 12715      6973696F 
 12715      6E203233 
 12715      37373135 
 12716 01a8 30202D66 		.ascii	"0 -ffunction-sections -ffat-lto-objects\000"
 12716      66756E63 
 12716      74696F6E 
 12716      2D736563 
 12716      74696F6E 
 12717              	.LASF203:
 12718 01d0 51585F43 		.ascii	"QX_Connection_Status_Update\000"
 12718      6F6E6E65 
 12718      6374696F 
 12718      6E5F5374 
 12718      61747573 
 12719              	.LASF55:
 12720 01ec 51585F53 		.ascii	"QX_STAT_OK\000"
 12720      5441545F 
 12720      4F4B00
 12721              	.LASF51:
 12722 01f7 51585F50 		.ascii	"QX_PARSE_TYPE_WRITE_ABS_RECV\000"
 12722      41525345 
 12722      5F545950 
 12722      455F5752 
 12722      4954455F 
 12723              	.LASF213:
 12724 0214 51585F53 		.ascii	"QX_SendPacket_Control\000"
 12724      656E6450 
 12724      61636B65 
 12724      745F436F 
 12724      6E74726F 
 12725              	.LASF107:
 12726 022a 50617273 		.ascii	"Parser_CB\000"
 12726      65725F43 
 12726      4200
 12727              	.LASF173:
 12728 0234 51585F53 		.ascii	"QX_Srv_Rx_Write\000"
 12728      72765F52 
 12728      785F5772 
 12728      69746500 
 12729              	.LASF149:
 12730 0244 47657453 		.ascii	"GetSignedShortAsSignedChar\000"
 12730      69676E65 
 12730      6453686F 
 12730      72744173 
 12730      5369676E 
 12731              	.LASF138:
 12732 025f 41646453 		.ascii	"AddSignedLongAsSignedShort\000"
 12732      69676E65 
 12732      644C6F6E 
 12732      67417353 
 12732      69676E65 
ARM GAS  C:\Users\JENNEW~1\AppData\Local\Temp\ccQ5uJSg.s 			page 243


 12733              	.LASF54:
 12734 027a 51585F50 		.ascii	"QX_Parse_Type_e\000"
 12734      61727365 
 12734      5F547970 
 12734      655F6500 
 12735              	.LASF153:
 12736 028a 41646455 		.ascii	"AddUnsignedCharAsUnsignedChar\000"
 12736      6E736967 
 12736      6E656443 
 12736      68617241 
 12736      73556E73 
 12737              	.LASF101:
 12738 02a8 436F6E6E 		.ascii	"Connected\000"
 12738      65637465 
 12738      6400
 12739              	.LASF168:
 12740 02b2 63726333 		.ascii	"crc32_result\000"
 12740      325F7265 
 12740      73756C74 
 12740      00
 12741              	.LASF66:
 12742 02bf 7573655F 		.ascii	"use_CRC32\000"
 12742      43524333 
 12742      3200
 12743              	.LASF71:
 12744 02c9 52657370 		.ascii	"RespReq_Addr\000"
 12744      5265715F 
 12744      41646472 
 12744      00
 12745              	.LASF70:
 12746 02d6 5472616E 		.ascii	"TransReq_Addr\000"
 12746      73526571 
 12746      5F416464 
 12746      7200
 12747              	.LASF29:
 12748 02e4 51585F52 		.ascii	"QX_RX_STATE_GET_PROTOCOL_VER\000"
 12748      585F5354 
 12748      4154455F 
 12748      4745545F 
 12748      50524F54 
 12749              	.LASF23:
 12750 0301 75696E74 		.ascii	"uint32_t\000"
 12750      33325F74 
 12750      00
 12751              	.LASF18:
 12752 030a 696E7438 		.ascii	"int8_t\000"
 12752      5F7400
 12753              	.LASF73:
 12754 0311 4D73674C 		.ascii	"MsgLength\000"
 12754      656E6774 
 12754      6800
 12755              	.LASF89:
 12756 031b 48656164 		.ascii	"Header\000"
 12756      657200
 12757              	.LASF169:
 12758 0322 63726333 		.ascii	"crc32_msg\000"
 12758      325F6D73 
ARM GAS  C:\Users\JENNEW~1\AppData\Local\Temp\ccQ5uJSg.s 			page 244


 12758      6700
 12759              	.LASF126:
 12760 032c 41646446 		.ascii	"AddFloatAsSignedShort\000"
 12760      6C6F6174 
 12760      41735369 
 12760      676E6564 
 12760      53686F72 
 12761              	.LASF27:
 12762 0342 666C6F61 		.ascii	"float\000"
 12762      7400
 12763              	.LASF42:
 12764 0348 51585F44 		.ascii	"QX_DevId_e\000"
 12764      65764964 
 12764      5F6500
 12765              	.LASF187:
 12766 0353 63686563 		.ascii	"checksum\000"
 12766      6B73756D 
 12766      00
 12767              	.LASF47:
 12768 035c 51585F4D 		.ascii	"QX_Msg_Type_e\000"
 12768      73675F54 
 12768      7970655F 
 12768      6500
 12769              	.LASF121:
 12770 036a 51585F50 		.ascii	"QX_Parser_Dir_ForceWriteAbs_Set\000"
 12770      61727365 
 12770      725F4469 
 12770      725F466F 
 12770      72636557 
 12771              	.LASF68:
 12772 038a 52656D6F 		.ascii	"Remove_Req_Fields\000"
 12772      76655F52 
 12772      65715F46 
 12772      69656C64 
 12772      7300
 12773              	.LASF146:
 12774 039c 41646453 		.ascii	"AddSignedShortAsSignedChar\000"
 12774      69676E65 
 12774      6453686F 
 12774      72744173 
 12774      5369676E 
 12775              	.LASF20:
 12776 03b7 696E7431 		.ascii	"int16_t\000"
 12776      365F7400 
 12777              	.LASF15:
 12778 03bf 6C6F6E67 		.ascii	"long long unsigned int\000"
 12778      206C6F6E 
 12778      6720756E 
 12778      7369676E 
 12778      65642069 
 12779              	.LASF181:
 12780 03d6 62797465 		.ascii	"bytes_to_add\000"
 12780      735F746F 
 12780      5F616464 
 12780      00
 12781              	.LASF49:
 12782 03e3 51585F50 		.ascii	"QX_PARSE_TYPE_CURVAL_RECV\000"
ARM GAS  C:\Users\JENNEW~1\AppData\Local\Temp\ccQ5uJSg.s 			page 245


 12782      41525345 
 12782      5F545950 
 12782      455F4355 
 12782      5256414C 
 12783              	.LASF9:
 12784 03fd 5F5F7569 		.ascii	"__uint16_t\000"
 12784      6E743136 
 12784      5F7400
 12785              	.LASF91:
 12786 0408 4D736742 		.ascii	"MsgBuf_MsgLen\000"
 12786      75665F4D 
 12786      73674C65 
 12786      6E00
 12787              	.LASF185:
 12788 0416 51585F43 		.ascii	"QX_Calc8bChecksum\000"
 12788      616C6338 
 12788      62436865 
 12788      636B7375 
 12788      6D00
 12789              	.LASF216:
 12790 0428 72775F6F 		.ascii	"rw_orig\000"
 12790      72696700 
 12791              	.LASF111:
 12792 0430 51425F50 		.ascii	"QB_Parser_Dir_WriteDel\000"
 12792      61727365 
 12792      725F4469 
 12792      725F5772 
 12792      69746544 
 12793              	.LASF211:
 12794 0447 51585F53 		.ascii	"QX_SendPacket_Cli_WriteABS\000"
 12794      656E6450 
 12794      61636B65 
 12794      745F436C 
 12794      695F5772 
 12795              	.LASF105:
 12796 0462 51585F43 		.ascii	"QX_CommsPort_t\000"
 12796      6F6D6D73 
 12796      506F7274 
 12796      5F7400
 12797              	.LASF202:
 12798 0471 51585F44 		.ascii	"QX_Disable_Default_Response\000"
 12798      69736162 
 12798      6C655F44 
 12798      65666175 
 12798      6C745F52 
 12799              	.LASF140:
 12800 048d 41646453 		.ascii	"AddSignedLongAsUnsignedChar\000"
 12800      69676E65 
 12800      644C6F6E 
 12800      67417355 
 12800      6E736967 
 12801              	.LASF36:
 12802 04a9 51585F52 		.ascii	"QX_Rx_State_e\000"
 12802      785F5374 
 12802      6174655F 
 12802      6500
 12803              	.LASF98:
ARM GAS  C:\Users\JENNEW~1\AppData\Local\Temp\ccQ5uJSg.s 			page 246


 12804 04b7 5278436E 		.ascii	"RxCntr\000"
 12804      747200
 12805              	.LASF43:
 12806 04be 51585F4D 		.ascii	"QX_MSG_TYPE_CURVAL\000"
 12806      53475F54 
 12806      5950455F 
 12806      43555256 
 12806      414C00
 12807              	.LASF220:
 12808 04d1 51585F42 		.ascii	"QX_BuildHeader_Legacy\000"
 12808      75696C64 
 12808      48656164 
 12808      65725F4C 
 12808      65676163 
 12809              	.LASF141:
 12810 04e7 47657453 		.ascii	"GetSignedLongAsSignedLong\000"
 12810      69676E65 
 12810      644C6F6E 
 12810      67417353 
 12810      69676E65 
 12811              	.LASF222:
 12812 0501 6D736750 		.ascii	"msgPtr\000"
 12812      747200
 12813              	.LASF77:
 12814 0508 41646443 		.ascii	"AddCRC32\000"
 12814      52433332 
 12814      00
 12815              	.LASF63:
 12816 0511 51585F53 		.ascii	"QX_STAT_ERROR_ATT_NOT_HANDLED\000"
 12816      5441545F 
 12816      4552524F 
 12816      525F4154 
 12816      545F4E4F 
 12817              	.LASF122:
 12818 052f 51585F50 		.ascii	"QX_Parser_Dir_ForceWriteAbs_Reset\000"
 12818      61727365 
 12818      725F4469 
 12818      725F466F 
 12818      72636557 
 12819              	.LASF180:
 12820 0551 63686B73 		.ascii	"chksum\000"
 12820      756D00
 12821              	.LASF192:
 12822 0558 51585F63 		.ascii	"QX_compute_crc32\000"
 12822      6F6D7075 
 12822      74655F63 
 12822      72633332 
 12822      00
 12823              	.LASF64:
 12824 0569 51585F53 		.ascii	"QX_Stat_e\000"
 12824      7461745F 
 12824      6500
 12825              	.LASF131:
 12826 0573 47657446 		.ascii	"GetFloatAsSignedLong\000"
 12826      6C6F6174 
 12826      41735369 
 12826      676E6564 
ARM GAS  C:\Users\JENNEW~1\AppData\Local\Temp\ccQ5uJSg.s 			page 247


 12826      4C6F6E67 
 12827              	.LASF166:
 12828 0588 51585F52 		.ascii	"QX_RxMsg\000"
 12828      784D7367 
 12828      00
 12829              	.LASF113:
 12830 0591 51425F50 		.ascii	"QB_Parser_Dir_e\000"
 12830      61727365 
 12830      725F4469 
 12830      725F6500 
 12831              	.LASF81:
 12832 05a1 51585F4D 		.ascii	"QX_MsgHeader_t\000"
 12832      73674865 
 12832      61646572 
 12832      5F7400
 12833              	.LASF206:
 12834 05b0 51585F53 		.ascii	"QX_SendPacket_Srv_CurVal\000"
 12834      656E6450 
 12834      61636B65 
 12834      745F5372 
 12834      765F4375 
 12835              	.LASF201:
 12836 05c9 51585F49 		.ascii	"QX_InitTxOptions\000"
 12836      6E697454 
 12836      784F7074 
 12836      696F6E73 
 12836      00
 12837              	.LASF152:
 12838 05da 47657453 		.ascii	"GetSignedCharAsSignedChar\000"
 12838      69676E65 
 12838      64436861 
 12838      72417353 
 12838      69676E65 
 12839              	.LASF104:
 12840 05f4 6C617374 		.ascii	"last_rx_msg_time\000"
 12840      5F72785F 
 12840      6D73675F 
 12840      74696D65 
 12840      00
 12841              	.LASF32:
 12842 0605 51585F52 		.ascii	"QX_RX_STATE_GET_QB_LEN0\000"
 12842      585F5354 
 12842      4154455F 
 12842      4745545F 
 12842      51425F4C 
 12843              	.LASF33:
 12844 061d 51585F52 		.ascii	"QX_RX_STATE_GET_QB_LEN1\000"
 12844      585F5354 
 12844      4154455F 
 12844      4745545F 
 12844      51425F4C 
 12845              	.LASF86:
 12846 0635 4174744E 		.ascii	"AttNotHandled\000"
 12846      6F744861 
 12846      6E646C65 
 12846      6400
 12847              	.LASF120:
ARM GAS  C:\Users\JENNEW~1\AppData\Local\Temp\ccQ5uJSg.s 			page 248


 12848 0643 51585F50 		.ascii	"QX_Parser_GetDir\000"
 12848      61727365 
 12848      725F4765 
 12848      74446972 
 12848      00
 12849              	.LASF83:
 12850 0654 44697361 		.ascii	"DisableStdResponse\000"
 12850      626C6553 
 12850      74645265 
 12850      73706F6E 
 12850      736500
 12851              	.LASF183:
 12852 0667 4F707469 		.ascii	"OptionByte\000"
 12852      6F6E4279 
 12852      746500
 12853              	.LASF182:
 12854 0672 51585F42 		.ascii	"QX_BuildHeader\000"
 12854      75696C64 
 12854      48656164 
 12854      657200
 12855              	.LASF50:
 12856 0681 51585F50 		.ascii	"QX_PARSE_TYPE_WRITE_ABS_SEND\000"
 12856      41525345 
 12856      5F545950 
 12856      455F5752 
 12856      4954455F 
 12857              	.LASF17:
 12858 069e 63686172 		.ascii	"char\000"
 12858      00
 12859              	.LASF188:
 12860 06a3 51585F41 		.ascii	"QX_AddExtdValToBuf\000"
 12860      64644578 
 12860      74645661 
 12860      6C546F42 
 12860      756600
 12861              	.LASF178:
 12862 06b6 51585F54 		.ascii	"QX_TxMsg_Finish\000"
 12862      784D7367 
 12862      5F46696E 
 12862      69736800 
 12863              	.LASF90:
 12864 06c6 4D736742 		.ascii	"MsgBuf\000"
 12864      756600
 12865              	.LASF119:
 12866 06cd 51585F50 		.ascii	"QX_Parser_GetMsgPtr\000"
 12866      61727365 
 12866      725F4765 
 12866      744D7367 
 12866      50747200 
 12867              	.LASF88:
 12868 06e1 436F6D6D 		.ascii	"CommPort\000"
 12868      506F7274 
 12868      00
 12869              	.LASF41:
 12870 06ea 51585F44 		.ascii	"QX_DEV_ID_MOVI_API_CONTROLLER\000"
 12870      45565F49 
 12870      445F4D4F 
ARM GAS  C:\Users\JENNEW~1\AppData\Local\Temp\ccQ5uJSg.s 			page 249


 12870      56495F41 
 12870      50495F43 
 12871              	.LASF124:
 12872 0708 41646446 		.ascii	"AddFloatAsSignedLong\000"
 12872      6C6F6174 
 12872      41735369 
 12872      676E6564 
 12872      4C6F6E67 
 12873              	.LASF78:
 12874 071d 46465F45 		.ascii	"FF_Ext_R0\000"
 12874      78745F52 
 12874      3000
 12875              	.LASF79:
 12876 0727 46465F45 		.ascii	"FF_Ext_R1\000"
 12876      78745F52 
 12876      3100
 12877              	.LASF197:
 12878 0731 51585F49 		.ascii	"QX_InitSrv\000"
 12878      6E697453 
 12878      727600
 12879              	.LASF159:
 12880 073c 6E5F6269 		.ascii	"n_bits\000"
 12880      747300
 12881              	.LASF19:
 12882 0743 75696E74 		.ascii	"uint8_t\000"
 12882      385F7400 
 12883              	.LASF144:
 12884 074b 47657453 		.ascii	"GetSignedLongAsUnsignedChar\000"
 12884      69676E65 
 12884      644C6F6E 
 12884      67417355 
 12884      6E736967 
 12885              	.LASF115:
 12886 0767 51585F50 		.ascii	"QX_Parser_AdvMsgPtr\000"
 12886      61727365 
 12886      725F4164 
 12886      764D7367 
 12886      50747200 
 12887              	.LASF184:
 12888 077b 51585F50 		.ascii	"QX_ParseHeader\000"
 12888      61727365 
 12888      48656164 
 12888      657200
 12889              	.LASF157:
 12890 078a 41646442 		.ascii	"AddBitsAsByte\000"
 12890      69747341 
 12890      73427974 
 12890      6500
 12891              	.LASF102:
 12892 0798 43686B53 		.ascii	"ChkSumFail_cnt\000"
 12892      756D4661 
 12892      696C5F63 
 12892      6E7400
 12893              	.LASF75:
 12894 07a7 54797065 		.ascii	"Type\000"
 12894      00
 12895              	.LASF190:
ARM GAS  C:\Users\JENNEW~1\AppData\Local\Temp\ccQ5uJSg.s 			page 250


 12896 07ac 6E657874 		.ascii	"next_chunk\000"
 12896      5F636875 
 12896      6E6B00
 12897              	.LASF26:
 12898 07b7 51585F43 		.ascii	"QX_Comms_Port_e\000"
 12898      6F6D6D73 
 12898      5F506F72 
 12898      745F6500 
 12899              	.LASF143:
 12900 07c7 47657453 		.ascii	"GetSignedLongAsSignedChar\000"
 12900      69676E65 
 12900      644C6F6E 
 12900      67417353 
 12900      69676E65 
 12901              	.LASF1:
 12902 07e1 6C6F6E67 		.ascii	"long long int\000"
 12902      206C6F6E 
 12902      6720696E 
 12902      7400
 12903              	.LASF82:
 12904 07ef 50617273 		.ascii	"Parse_Type\000"
 12904      655F5479 
 12904      706500
 12905              	.LASF209:
 12906 07fa 51585F53 		.ascii	"QX_SendPacket_Cli_Read\000"
 12906      656E6450 
 12906      61636B65 
 12906      745F436C 
 12906      695F5265 
 12907              	.LASF44:
 12908 0811 51585F4D 		.ascii	"QX_MSG_TYPE_READ\000"
 12908      53475F54 
 12908      5950455F 
 12908      52454144 
 12908      00
 12909              	.LASF158:
 12910 0822 73746172 		.ascii	"start_bit\000"
 12910      745F6269 
 12910      7400
 12911              	.LASF134:
 12912 082c 47657446 		.ascii	"GetFloatAsSignedChar\000"
 12912      6C6F6174 
 12912      41735369 
 12912      676E6564 
 12912      43686172 
 12913              	.LASF221:
 12914 0841 51585F50 		.ascii	"QX_ParseHeader_Legacy\000"
 12914      61727365 
 12914      48656164 
 12914      65725F4C 
 12914      65676163 
 12915              	.LASF214:
 12916 0857 51585F53 		.ascii	"QX_StreamRxCharSM\000"
 12916      74726561 
 12916      6D527843 
 12916      68617253 
 12916      4D00
ARM GAS  C:\Users\JENNEW~1\AppData\Local\Temp\ccQ5uJSg.s 			page 251


 12917              	.LASF7:
 12918 0869 5F5F696E 		.ascii	"__int16_t\000"
 12918      7431365F 
 12918      7400
 12919              	.LASF129:
 12920 0873 41646446 		.ascii	"AddFloatAsUnsignedChar\000"
 12920      6C6F6174 
 12920      4173556E 
 12920      7369676E 
 12920      65644368 
 12921              	.LASF167:
 12922 088a 52784D73 		.ascii	"RxMsg_p\000"
 12922      675F7000 
 12923              	.LASF189:
 12924 0892 74686973 		.ascii	"this_chunk\000"
 12924      5F636875 
 12924      6E6B00
 12925              	.LASF195:
 12926 089d 73697A65 		.ascii	"size\000"
 12926      00
 12927              	.LASF176:
 12928 08a2 51585F54 		.ascii	"QX_TxMsg_Setup\000"
 12928      784D7367 
 12928      5F536574 
 12928      757000
 12929              	.LASF198:
 12930 08b1 51585F53 		.ascii	"QX_Server\000"
 12930      65727665 
 12930      7200
 12931              	.LASF48:
 12932 08bb 51585F50 		.ascii	"QX_PARSE_TYPE_CURVAL_SEND\000"
 12932      41525345 
 12932      5F545950 
 12932      455F4355 
 12932      5256414C 
 12933              	.LASF199:
 12934 08d5 51585F49 		.ascii	"QX_InitCli\000"
 12934      6E697443 
 12934      6C6900
 12935              	.LASF161:
 12936 08e0 6D61736B 		.ascii	"mask\000"
 12936      00
 12937              	.LASF84:
 12938 08e5 52756E6E 		.ascii	"RunningChecksum\000"
 12938      696E6743 
 12938      6865636B 
 12938      73756D00 
 12939              	.LASF74:
 12940 08f5 41747472 		.ascii	"Attrib\000"
 12940      696200
 12941              	.LASF205:
 12942 08fc 51585F61 		.ascii	"QX_accumulate_crc32\000"
 12942      6363756D 
 12942      756C6174 
 12942      655F6372 
 12942      63333200 
 12943              	.LASF145:
ARM GAS  C:\Users\JENNEW~1\AppData\Local\Temp\ccQ5uJSg.s 			page 252


 12944 0910 41646453 		.ascii	"AddSignedShortAsSignedShort\000"
 12944      69676E65 
 12944      6453686F 
 12944      72744173 
 12944      5369676E 
 12945              	.LASF4:
 12946 092c 5F5F696E 		.ascii	"__int8_t\000"
 12946      74385F74 
 12946      00
 12947              	.LASF137:
 12948 0935 41646453 		.ascii	"AddSignedLongAsSignedLong\000"
 12948      69676E65 
 12948      644C6F6E 
 12948      67417353 
 12948      69676E65 
 12949              	.LASF193:
 12950 094f 64617461 		.ascii	"data\000"
 12950      00
 12951              	.LASF191:
 12952 0954 51585F47 		.ascii	"QX_GetExtdValFromBuf\000"
 12952      65744578 
 12952      74645661 
 12952      6C46726F 
 12952      6D427566 
 12953              	.LASF62:
 12954 0969 51585F53 		.ascii	"QX_STAT_ERROR_RXMSG_CRC32_FAIL\000"
 12954      5441545F 
 12954      4552524F 
 12954      525F5258 
 12954      4D53475F 
 12955              	.LASF2:
 12956 0988 6C6F6E67 		.ascii	"long double\000"
 12956      20646F75 
 12956      626C6500 
 12957              	.LASF179:
 12958 0994 51585F75 		.ascii	"QX_use2ByteLen\000"
 12958      73653242 
 12958      7974654C 
 12958      656E00
 12959              	.LASF87:
 12960 09a3 4C656761 		.ascii	"Legacy_Header\000"
 12960      63795F48 
 12960      65616465 
 12960      7200
 12961              	.LASF21:
 12962 09b1 75696E74 		.ascii	"uint16_t\000"
 12962      31365F74 
 12962      00
 12963              	.LASF128:
 12964 09ba 41646446 		.ascii	"AddFloatAsSignedChar\000"
 12964      6C6F6174 
 12964      41735369 
 12964      676E6564 
 12964      43686172 
 12965              	.LASF150:
 12966 09cf 47657453 		.ascii	"GetSignedShortAsUnsignedChar\000"
 12966      69676E65 
ARM GAS  C:\Users\JENNEW~1\AppData\Local\Temp\ccQ5uJSg.s 			page 253


 12966      6453686F 
 12966      72744173 
 12966      556E7369 
 12967              	.LASF65:
 12968 09ec 46465F45 		.ascii	"FF_Ext\000"
 12968      787400
 12969              	.LASF116:
 12970 09f3 51585F50 		.ascii	"QX_Parser_SetDir_Read\000"
 12970      61727365 
 12970      725F5365 
 12970      74446972 
 12970      5F526561 
 12971              	.LASF60:
 12972 0a09 51585F53 		.ascii	"QX_STAT_ERROR_MSG_LENGTH_INVALID\000"
 12972      5441545F 
 12972      4552524F 
 12972      525F4D53 
 12972      475F4C45 
 12973              	.LASF164:
 12974 0a2a 4D73675F 		.ascii	"Msg_p\000"
 12974      7000
 12975              	.LASF69:
 12976 0a30 54617267 		.ascii	"Target_Addr\000"
 12976      65745F41 
 12976      64647200 
 12977              	.LASF177:
 12978 0a3c 54784D73 		.ascii	"TxMsg_p\000"
 12978      675F7000 
 12979              	.LASF94:
 12980 0a44 42756650 		.ascii	"BufPayloadStart_p\000"
 12980      61796C6F 
 12980      61645374 
 12980      6172745F 
 12980      7000
 12981              	.LASF8:
 12982 0a56 73686F72 		.ascii	"short int\000"
 12982      7420696E 
 12982      7400
 12983              	.LASF170:
 12984 0a60 7372765F 		.ascii	"srv_i\000"
 12984      6900
 12985              	.LASF12:
 12986 0a66 6C6F6E67 		.ascii	"long int\000"
 12986      20696E74 
 12986      00
 12987              	.LASF85:
 12988 0a6f 43524333 		.ascii	"CRC32_Checksum\000"
 12988      325F4368 
 12988      65636B73 
 12988      756D00
 12989              	.LASF56:
 12990 0a7e 51585F53 		.ascii	"QX_STAT_ERROR\000"
 12990      5441545F 
 12990      4552524F 
 12990      5200
 12991              	.LASF171:
 12992 0a8c 6F707469 		.ascii	"options\000"
ARM GAS  C:\Users\JENNEW~1\AppData\Local\Temp\ccQ5uJSg.s 			page 254


 12992      6F6E7300 
 12993              	.LASF218:
 12994 0a94 51585F53 		.ascii	"QX_Servers\000"
 12994      65727665 
 12994      727300
 12995              	.LASF30:
 12996 0a9f 51585F52 		.ascii	"QX_RX_STATE_GET_QX_LEN0\000"
 12996      585F5354 
 12996      4154455F 
 12996      4745545F 
 12996      51585F4C 
 12997              	.LASF31:
 12998 0ab7 51585F52 		.ascii	"QX_RX_STATE_GET_QX_LEN1\000"
 12998      585F5354 
 12998      4154455F 
 12998      4745545F 
 12998      51585F4C 
 12999              	.LASF160:
 13000 0acf 74656D70 		.ascii	"temp\000"
 13000      00
 13001              	.LASF53:
 13002 0ad4 51585F50 		.ascii	"QX_PARSE_TYPE_WRITE_REL_RECV\000"
 13002      41525345 
 13002      5F545950 
 13002      455F5752 
 13002      4954455F 
 13003              	.LASF132:
 13004 0af1 7363616C 		.ascii	"scalefrom\000"
 13004      6566726F 
 13004      6D00
 13005              	.LASF135:
 13006 0afb 47657446 		.ascii	"GetFloatAsUnsignedChar\000"
 13006      6C6F6174 
 13006      4173556E 
 13006      7369676E 
 13006      65644368 
 13007              	.LASF59:
 13008 0b12 51585F53 		.ascii	"QX_STAT_ERROR_INVALID_EXTENSION\000"
 13008      5441545F 
 13008      4552524F 
 13008      525F494E 
 13008      56414C49 
 13009              	.LASF175:
 13010 0b32 636C695F 		.ascii	"cli_i\000"
 13010      6900
 13011              	.LASF109:
 13012 0b38 51585F43 		.ascii	"QX_Client_t\000"
 13012      6C69656E 
 13012      745F7400 
 13013              	.LASF5:
 13014 0b44 5F5F7569 		.ascii	"__uint8_t\000"
 13014      6E74385F 
 13014      7400
 13015              	.LASF217:
 13016 0b4e 51585F43 		.ascii	"QX_CommsPorts\000"
 13016      6F6D6D73 
 13016      506F7274 
ARM GAS  C:\Users\JENNEW~1\AppData\Local\Temp\ccQ5uJSg.s 			page 255


 13016      7300
 13017              	.LASF117:
 13018 0b5c 51585F50 		.ascii	"QX_Parser_SetDir_WriteRel\000"
 13018      61727365 
 13018      725F5365 
 13018      74446972 
 13018      5F577269 
 13019              	.LASF93:
 13020 0b76 4D736742 		.ascii	"MsgBufAtt_p\000"
 13020      75664174 
 13020      745F7000 
 13021              	.LASF151:
 13022 0b82 41646453 		.ascii	"AddSignedCharAsSignedChar\000"
 13022      69676E65 
 13022      64436861 
 13022      72417353 
 13022      69676E65 
 13023              	.LASF207:
 13024 0b9c 5372765F 		.ascii	"Srv_p\000"
 13024      7000
 13025              	.LASF16:
 13026 0ba2 73697A65 		.ascii	"sizetype\000"
 13026      74797065 
 13026      00
 13027              	.LASF35:
 13028 0bab 51585F52 		.ascii	"QX_RX_STATE_GET_CHKSUM\000"
 13028      585F5354 
 13028      4154455F 
 13028      4745545F 
 13028      43484B53 
 13029              	.LASF14:
 13030 0bc2 6C6F6E67 		.ascii	"long unsigned int\000"
 13030      20756E73 
 13030      69676E65 
 13030      6420696E 
 13030      7400
 13031              	.LASF147:
 13032 0bd4 41646453 		.ascii	"AddSignedShortAsUnsignedChar\000"
 13032      69676E65 
 13032      6453686F 
 13032      72744173 
 13032      556E7369 
 13033              	.LASF25:
 13034 0bf1 51585F4E 		.ascii	"QX_NUM_OF_PORTS\000"
 13034      554D5F4F 
 13034      465F504F 
 13034      52545300 
 13035              	.LASF72:
 13036 0c01 51585F54 		.ascii	"QX_TxMsgOptions_t\000"
 13036      784D7367 
 13036      4F707469 
 13036      6F6E735F 
 13036      7400
 13037              	.LASF24:
 13038 0c13 51585F43 		.ascii	"QX_COMMS_PORT_UART\000"
 13038      4F4D4D53 
 13038      5F504F52 
ARM GAS  C:\Users\JENNEW~1\AppData\Local\Temp\ccQ5uJSg.s 			page 256


 13038      545F5541 
 13038      525400
 13039              	.LASF80:
 13040 0c26 536F7572 		.ascii	"Source_Addr\000"
 13040      63655F41 
 13040      64647200 
 13041              	.LASF139:
 13042 0c32 41646453 		.ascii	"AddSignedLongAsSignedChar\000"
 13042      69676E65 
 13042      644C6F6E 
 13042      67417353 
 13042      69676E65 
 13043              	.LASF154:
 13044 0c4c 47657455 		.ascii	"GetUnsignedCharAsUnsignedChar\000"
 13044      6E736967 
 13044      6E656443 
 13044      68617241 
 13044      73556E73 
 13045              	.LASF22:
 13046 0c6a 696E7433 		.ascii	"int32_t\000"
 13046      325F7400 
 13047              	.LASF61:
 13048 0c72 51585F53 		.ascii	"QX_STAT_ERROR_KEY_REQUIRED\000"
 13048      5441545F 
 13048      4552524F 
 13048      525F4B45 
 13048      595F5245 
 13049              	.LASF204:
 13050 0c8d 706F7274 		.ascii	"port\000"
 13050      00
 13051              	.LASF38:
 13052 0c92 51585F44 		.ascii	"QX_DEV_ID_WEDGE_LENS_CONTROLLER\000"
 13052      45565F49 
 13052      445F5745 
 13052      4447455F 
 13052      4C454E53 
 13053              	.LASF118:
 13054 0cb2 51585F50 		.ascii	"QX_Parser_SetDir_WriteAbs\000"
 13054      61727365 
 13054      725F5365 
 13054      74446972 
 13054      5F577269 
 13055              	.LASF6:
 13056 0ccc 756E7369 		.ascii	"unsigned char\000"
 13056      676E6564 
 13056      20636861 
 13056      7200
 13057              	.LASF13:
 13058 0cda 5F5F7569 		.ascii	"__uint32_t\000"
 13058      6E743332 
 13058      5F7400
 13059              	.LASF156:
 13060 0ce5 47657455 		.ascii	"GetUnsignedShortAsUnsignedShort\000"
 13060      6E736967 
 13060      6E656453 
 13060      686F7274 
 13060      4173556E 
ARM GAS  C:\Users\JENNEW~1\AppData\Local\Temp\ccQ5uJSg.s 			page 257


 13061              	.LASF40:
 13062 0d05 51585F44 		.ascii	"QX_DEV_ID_GIMBAL_INT_FIZ\000"
 13062      45565F49 
 13062      445F4749 
 13062      4D42414C 
 13062      5F494E54 
 13063              	.LASF125:
 13064 0d1e 7363616C 		.ascii	"scaleto\000"
 13064      65746F00 
 13065              	.LASF155:
 13066 0d26 41646455 		.ascii	"AddUnsignedShortAsUnsignedShort\000"
 13066      6E736967 
 13066      6E656453 
 13066      686F7274 
 13066      4173556E 
 13067              	.LASF99:
 13068 0d46 52784D73 		.ascii	"RxMsg\000"
 13068      6700
 13069              	.LASF123:
 13070 0d4c 51585F50 		.ascii	"QX_Parser_SetMsgPtr\000"
 13070      61727365 
 13070      725F5365 
 13070      744D7367 
 13070      50747200 
 13071              	.LASF95:
 13072 0d60 4D736742 		.ascii	"MsgBuf_p\000"
 13072      75665F70 
 13072      00
 13073              	.LASF76:
 13074 0d69 4164644F 		.ascii	"AddOptionByte1\000"
 13074      7074696F 
 13074      6E427974 
 13074      653100
 13075              	.LASF172:
 13076 0d78 51585F53 		.ascii	"QX_Srv_Rx_Read\000"
 13076      72765F52 
 13076      785F5265 
 13076      616400
 13077              	.LASF67:
 13078 0d87 52656D6F 		.ascii	"Remove_Addr_Fields\000"
 13078      76655F41 
 13078      6464725F 
 13078      4669656C 
 13078      647300
 13079              	.LASF96:
 13080 0d9a 51585F4D 		.ascii	"QX_Msg_t\000"
 13080      73675F74 
 13080      00
 13081              	.LASF224:
 13082 0da3 2E2E5C2E 		.ascii	"..\\..\\..\\HamFlyAPI\\src\\hamfly_qx_protocol.c\000"
 13082      2E5C2E2E 
 13082      5C48616D 
 13082      466C7941 
 13082      50495C73 
 13083              	.LASF112:
 13084 0dcf 51425F50 		.ascii	"QB_Parser_Dir_WriteAbs\000"
 13084      61727365 
ARM GAS  C:\Users\JENNEW~1\AppData\Local\Temp\ccQ5uJSg.s 			page 258


 13084      725F4469 
 13084      725F5772 
 13084      69746541 
 13085              	.LASF215:
 13086 0de6 72786279 		.ascii	"rxbyte\000"
 13086      746500
 13087              	.LASF210:
 13088 0ded 436C695F 		.ascii	"Cli_p\000"
 13088      7000
 13089              	.LASF39:
 13090 0df3 51585F44 		.ascii	"QX_DEV_ID_GIMBAL\000"
 13090      45565F49 
 13090      445F4749 
 13090      4D42414C 
 13090      00
 13091              	.LASF3:
 13092 0e04 7369676E 		.ascii	"signed char\000"
 13092      65642063 
 13092      68617200 
 13093              	.LASF10:
 13094 0e10 73686F72 		.ascii	"short unsigned int\000"
 13094      7420756E 
 13094      7369676E 
 13094      65642069 
 13094      6E7400
 13095              	.LASF174:
 13096 0e23 51585F43 		.ascii	"QX_Cli_Rx_CurVal\000"
 13096      6C695F52 
 13096      785F4375 
 13096      7256616C 
 13096      00
 13097              	.LASF130:
 13098 0e34 41646446 		.ascii	"AddFloatAsUnsignedShort\000"
 13098      6C6F6174 
 13098      4173556E 
 13098      7369676E 
 13098      65645368 
 13099              	.LASF34:
 13100 0e4c 51585F52 		.ascii	"QX_RX_STATE_GET_DATA\000"
 13100      585F5354 
 13100      4154455F 
 13100      4745545F 
 13100      44415441 
 13101              	.LASF114:
 13102 0e61 646F7562 		.ascii	"double\000"
 13102      6C6500
 13103              	.LASF148:
 13104 0e68 47657453 		.ascii	"GetSignedShortAsSignedShort\000"
 13104      69676E65 
 13104      6453686F 
 13104      72744173 
 13104      5369676E 
 13105              	.LASF106:
 13106 0e84 41646472 		.ascii	"Address\000"
 13106      65737300 
 13107              	.LASF163:
 13108 0e8c 786F725F 		.ascii	"xor_mask\000"
ARM GAS  C:\Users\JENNEW~1\AppData\Local\Temp\ccQ5uJSg.s 			page 259


 13108      6D61736B 
 13108      00
 13109              	.LASF142:
 13110 0e95 47657453 		.ascii	"GetSignedLongAsSignedShort\000"
 13110      69676E65 
 13110      644C6F6E 
 13110      67417353 
 13110      69676E65 
 13111              	.LASF58:
 13112 0eb0 51585F53 		.ascii	"QX_STAT_ERROR_EXTENSION_FAILED\000"
 13112      5441545F 
 13112      4552524F 
 13112      525F4558 
 13112      54454E53 
 13113              	.LASF103:
 13114 0ecf 6E6F6E5F 		.ascii	"non_Q_cnt\000"
 13114      515F636E 
 13114      7400
 13115              	.LASF100:
 13116 0ed9 54696D65 		.ascii	"Timeout_Cntr\000"
 13116      6F75745F 
 13116      436E7472 
 13116      00
 13117              	.LASF162:
 13118 0ee6 47657442 		.ascii	"GetBitsAsByte\000"
 13118      69747341 
 13118      73427974 
 13118      6500
 13119              	.LASF127:
 13120 0ef4 76616C75 		.ascii	"value\000"
 13120      6500
 13121              	.LASF225:
 13122 0efa 433A5C55 		.ascii	"C:\\Users\\Jennewein\\Documents\\hamish-workspace\\"
 13122      73657273 
 13122      5C4A656E 
 13122      6E657765 
 13122      696E5C44 
 13123 0f28 50536F43 		.ascii	"PSoC-Programs\\test_projects\\Proj07_hamflyAPI_pres"
 13123      2D50726F 
 13123      6772616D 
 13123      735C7465 
 13123      73745F70 
 13124 0f59 63697369 		.ascii	"cisionPointing.cydsn\000"
 13124      6F6E506F 
 13124      696E7469 
 13124      6E672E63 
 13124      7964736E 
 13125              	.LASF212:
 13126 0f6e 51585F53 		.ascii	"QX_SendPacket_Cli_WriteREL\000"
 13126      656E6450 
 13126      61636B65 
 13126      745F436C 
 13126      695F5772 
 13127              	.LASF165:
 13128 0f89 51585F49 		.ascii	"QX_InitMsg\000"
 13128      6E69744D 
 13128      736700
ARM GAS  C:\Users\JENNEW~1\AppData\Local\Temp\ccQ5uJSg.s 			page 260


 13129              		.ident	"GCC: (GNU Tools for ARM Embedded Processors) 5.4.1 20160609 (release) [ARM/embedded-5-bran
