ARM GAS  C:\Users\JENNEW~1\AppData\Local\Temp\ccMzHkUr.s 			page 1


   1              		.syntax unified
   2              		.cpu cortex-m3
   3              		.fpu softvfp
   4              		.eabi_attribute 20, 1
   5              		.eabi_attribute 21, 1
   6              		.eabi_attribute 23, 3
   7              		.eabi_attribute 24, 1
   8              		.eabi_attribute 25, 1
   9              		.eabi_attribute 26, 1
  10              		.eabi_attribute 30, 6
  11              		.eabi_attribute 34, 1
  12              		.eabi_attribute 18, 4
  13              		.thumb
  14              		.syntax unified
  15              		.file	"joystick.c"
  16              		.text
  17              	.Ltext0:
  18              		.cfi_sections	.debug_frame
  19              		.bss
  20              		.align	2
  21              	s_default:
  22 0000 00000000 		.space	14
  22      00000000 
  22      00000000 
  22      0000
  23 000e 0000     		.align	2
  24              	s_saved:
  25 0010 00000000 		.space	14
  25      00000000 
  25      00000000 
  25      0000
  26 001e 0000     		.align	2
  27              	s_work:
  28 0020 00000000 		.space	14
  28      00000000 
  28      00000000 
  28      0000
  29              	s_state:
  30 002e 00       		.space	1
  31 002f 00       		.align	2
  32              	s_latest_counts:
  33 0030 00000000 		.space	4
  34              		.align	2
  35              	s_invert_mask:
  36 0034 00000000 		.space	4
  37              		.align	2
  38              	s_center_sum:
  39 0038 00000000 		.space	8
  39      00000000 
  40              		.align	1
  41              	s_center_n:
  42 0040 0000     		.space	2
  43              		.data
  44              		.align	2
  45              		.type	s_sensitivity_multiplier, %object
  46              		.size	s_sensitivity_multiplier, 4
  47              	s_sensitivity_multiplier:
ARM GAS  C:\Users\JENNEW~1\AppData\Local\Temp\ccMzHkUr.s 			page 2


  48 0000 0000803F 		.word	1065353216
  49              		.section	.text.joystick_set_sensitivity,"ax",%progbits
  50              		.align	2
  51              		.global	joystick_set_sensitivity
  52              		.thumb
  53              		.thumb_func
  54              		.type	joystick_set_sensitivity, %function
  55              	joystick_set_sensitivity:
  56              	.LFB63:
  57              		.file 1 "joystick.c"
   1:joystick.c    **** /* ========================================
   2:joystick.c    ****  *
   3:joystick.c    ****  * Copyright Hamish Johnson, 2026
   4:joystick.c    ****  * All Rights Reserved
   5:joystick.c    ****  * UNPUBLISHED, LICENSED SOFTWARE.
   6:joystick.c    ****  *
   7:joystick.c    ****  * CONFIDENTIAL AND PROPRIETARY INFORMATION
   8:joystick.c    ****  * WHICH IS THE PROPERTY OF 
   9:joystick.c    ****  * Quantum Internet Systems Lab (QISL),
  10:joystick.c    ****  * Department of Physics, SFU, Canada.
  11:joystick.c    ****  *
  12:joystick.c    ****  * Author: Hamish Johnson (2026)
  13:joystick.c    ****  *
  14:joystick.c    ****  * ========================================
  15:joystick.c    ****  *
  16:joystick.c    ****  * This code helps callibrate ADC inpit for
  17:joystick.c    ****  * use as a joystick.
  18:joystick.c    **** */
  19:joystick.c    **** 
  20:joystick.c    **** #include "joystick.h"
  21:joystick.c    **** #include "psoc_eeprom.h"
  22:joystick.c    **** 
  23:joystick.c    **** // Persistent states
  24:joystick.c    **** static joy_cal_t s_default;
  25:joystick.c    **** static joy_cal_t s_saved;
  26:joystick.c    **** static joy_cal_t s_work;
  27:joystick.c    **** 
  28:joystick.c    **** static joy_cal_state_t s_state = JOY_CAL_OFF;
  29:joystick.c    **** 
  30:joystick.c    **** static int16 s_latest_counts[N_CH];
  31:joystick.c    **** static uint32 s_invert_mask = 0u;
  32:joystick.c    **** 
  33:joystick.c    **** // Variables to capture joystick centered from average.
  34:joystick.c    **** static int32  s_center_sum[N_CH];
  35:joystick.c    **** static uint16 s_center_n = 0u;
  36:joystick.c    **** 
  37:joystick.c    **** static float s_sensitivity_multiplier = 1.0f;
  38:joystick.c    **** void joystick_set_sensitivity(joy_sensitivity_t level) {
  58              		.loc 1 38 0
  59              		.cfi_startproc
  60              		@ args = 0, pretend = 0, frame = 8
  61              		@ frame_needed = 1, uses_anonymous_args = 0
  62              		@ link register save eliminated.
  63 0000 80B4     		push	{r7}
  64              		.cfi_def_cfa_offset 4
  65              		.cfi_offset 7, -4
  66 0002 83B0     		sub	sp, sp, #12
ARM GAS  C:\Users\JENNEW~1\AppData\Local\Temp\ccMzHkUr.s 			page 3


  67              		.cfi_def_cfa_offset 16
  68 0004 00AF     		add	r7, sp, #0
  69              		.cfi_def_cfa_register 7
  70 0006 0346     		mov	r3, r0
  71 0008 FB71     		strb	r3, [r7, #7]
  39:joystick.c    ****     switch(level) {
  72              		.loc 1 39 0
  73 000a FB79     		ldrb	r3, [r7, #7]	@ zero_extendqisi2
  74 000c 012B     		cmp	r3, #1
  75 000e 08D0     		beq	.L3
  76 0010 022B     		cmp	r3, #2
  77 0012 0BD0     		beq	.L4
  78 0014 002B     		cmp	r3, #0
  79 0016 00D0     		beq	.L5
  40:joystick.c    ****         case SENSE_LOW:  s_sensitivity_multiplier = 0.1f; break;
  41:joystick.c    ****         case SENSE_MED:  s_sensitivity_multiplier = 0.5f; break;
  42:joystick.c    ****         case SENSE_HIGH: s_sensitivity_multiplier = 1.0f; break;
  43:joystick.c    ****     }
  44:joystick.c    **** }
  80              		.loc 1 44 0
  81 0018 0DE0     		b	.L6
  82              	.L5:
  40:joystick.c    ****         case SENSE_LOW:  s_sensitivity_multiplier = 0.1f; break;
  83              		.loc 1 40 0
  84 001a 094B     		ldr	r3, .L7
  85 001c 094A     		ldr	r2, .L7+4
  86 001e 1A60     		str	r2, [r3]	@ float
  87 0020 09E0     		b	.L2
  88              	.L3:
  41:joystick.c    ****         case SENSE_HIGH: s_sensitivity_multiplier = 1.0f; break;
  89              		.loc 1 41 0
  90 0022 074B     		ldr	r3, .L7
  91 0024 4FF07C52 		mov	r2, #1056964608
  92 0028 1A60     		str	r2, [r3]	@ float
  93 002a 04E0     		b	.L2
  94              	.L4:
  42:joystick.c    ****     }
  95              		.loc 1 42 0
  96 002c 044B     		ldr	r3, .L7
  97 002e 4FF07E52 		mov	r2, #1065353216
  98 0032 1A60     		str	r2, [r3]	@ float
  99 0034 00BF     		nop
 100              	.L2:
 101              	.L6:
 102              		.loc 1 44 0
 103 0036 00BF     		nop
 104 0038 0C37     		adds	r7, r7, #12
 105              		.cfi_def_cfa_offset 4
 106 003a BD46     		mov	sp, r7
 107              		.cfi_def_cfa_register 13
 108              		@ sp needed
 109 003c 80BC     		pop	{r7}
 110              		.cfi_restore 7
 111              		.cfi_def_cfa_offset 0
 112 003e 7047     		bx	lr
 113              	.L8:
 114              		.align	2
ARM GAS  C:\Users\JENNEW~1\AppData\Local\Temp\ccMzHkUr.s 			page 4


 115              	.L7:
 116 0040 00000000 		.word	s_sensitivity_multiplier
 117 0044 CDCCCC3D 		.word	1036831949
 118              		.cfi_endproc
 119              	.LFE63:
 120              		.size	joystick_set_sensitivity, .-joystick_set_sensitivity
 121              		.global	__aeabi_i2f
 122              		.global	__aeabi_fdiv
 123              		.section	.text.normalize_axis,"ax",%progbits
 124              		.align	2
 125              		.thumb
 126              		.thumb_func
 127              		.type	normalize_axis, %function
 128              	normalize_axis:
 129              	.LFB64:
  45:joystick.c    **** 
  46:joystick.c    **** // Helper - Normalizes within +/-1
  47:joystick.c    **** static float normalize_axis(int16 c, int16 cmin, int16 ccenter, int16 cmax)
  48:joystick.c    **** {
 130              		.loc 1 48 0
 131              		.cfi_startproc
 132              		@ args = 0, pretend = 0, frame = 16
 133              		@ frame_needed = 1, uses_anonymous_args = 0
 134 0000 90B5     		push	{r4, r7, lr}
 135              		.cfi_def_cfa_offset 12
 136              		.cfi_offset 4, -12
 137              		.cfi_offset 7, -8
 138              		.cfi_offset 14, -4
 139 0002 85B0     		sub	sp, sp, #20
 140              		.cfi_def_cfa_offset 32
 141 0004 00AF     		add	r7, sp, #0
 142              		.cfi_def_cfa_register 7
 143 0006 0446     		mov	r4, r0
 144 0008 0846     		mov	r0, r1
 145 000a 1146     		mov	r1, r2
 146 000c 1A46     		mov	r2, r3
 147 000e 2346     		mov	r3, r4	@ movhi
 148 0010 FB80     		strh	r3, [r7, #6]	@ movhi
 149 0012 0346     		mov	r3, r0	@ movhi
 150 0014 BB80     		strh	r3, [r7, #4]	@ movhi
 151 0016 0B46     		mov	r3, r1	@ movhi
 152 0018 7B80     		strh	r3, [r7, #2]	@ movhi
 153 001a 1346     		mov	r3, r2	@ movhi
 154 001c 3B80     		strh	r3, [r7]	@ movhi
  49:joystick.c    ****     if (c < cmin) c = cmin;
 155              		.loc 1 49 0
 156 001e B7F90620 		ldrsh	r2, [r7, #6]
 157 0022 B7F90430 		ldrsh	r3, [r7, #4]
 158 0026 9A42     		cmp	r2, r3
 159 0028 01DA     		bge	.L10
 160              		.loc 1 49 0 is_stmt 0 discriminator 1
 161 002a BB88     		ldrh	r3, [r7, #4]	@ movhi
 162 002c FB80     		strh	r3, [r7, #6]	@ movhi
 163              	.L10:
  50:joystick.c    ****     if (c > cmax) c = cmax;
 164              		.loc 1 50 0 is_stmt 1
 165 002e B7F90620 		ldrsh	r2, [r7, #6]
ARM GAS  C:\Users\JENNEW~1\AppData\Local\Temp\ccMzHkUr.s 			page 5


 166 0032 B7F90030 		ldrsh	r3, [r7]
 167 0036 9A42     		cmp	r2, r3
 168 0038 01DD     		ble	.L11
 169              		.loc 1 50 0 is_stmt 0 discriminator 1
 170 003a 3B88     		ldrh	r3, [r7]	@ movhi
 171 003c FB80     		strh	r3, [r7, #6]	@ movhi
 172              	.L11:
  51:joystick.c    **** 
  52:joystick.c    ****     int16 span_pos = (int16)(cmax - ccenter);
 173              		.loc 1 52 0 is_stmt 1
 174 003e 3A88     		ldrh	r2, [r7]
 175 0040 7B88     		ldrh	r3, [r7, #2]
 176 0042 D31A     		subs	r3, r2, r3
 177 0044 9BB2     		uxth	r3, r3
 178 0046 FB81     		strh	r3, [r7, #14]	@ movhi
  53:joystick.c    ****     int16 span_neg = (int16)(ccenter - cmin);
 179              		.loc 1 53 0
 180 0048 7A88     		ldrh	r2, [r7, #2]
 181 004a BB88     		ldrh	r3, [r7, #4]
 182 004c D31A     		subs	r3, r2, r3
 183 004e 9BB2     		uxth	r3, r3
 184 0050 BB81     		strh	r3, [r7, #12]	@ movhi
  54:joystick.c    **** 
  55:joystick.c    ****     if (span_pos <= 0) span_pos = 1;
 185              		.loc 1 55 0
 186 0052 B7F90E30 		ldrsh	r3, [r7, #14]
 187 0056 002B     		cmp	r3, #0
 188 0058 01DC     		bgt	.L12
 189              		.loc 1 55 0 is_stmt 0 discriminator 1
 190 005a 0123     		movs	r3, #1
 191 005c FB81     		strh	r3, [r7, #14]	@ movhi
 192              	.L12:
  56:joystick.c    ****     if (span_neg <= 0) span_neg = 1;
 193              		.loc 1 56 0 is_stmt 1
 194 005e B7F90C30 		ldrsh	r3, [r7, #12]
 195 0062 002B     		cmp	r3, #0
 196 0064 01DC     		bgt	.L13
 197              		.loc 1 56 0 is_stmt 0 discriminator 1
 198 0066 0123     		movs	r3, #1
 199 0068 BB81     		strh	r3, [r7, #12]	@ movhi
 200              	.L13:
  57:joystick.c    **** 
  58:joystick.c    ****     if (c >= ccenter)
 201              		.loc 1 58 0 is_stmt 1
 202 006a B7F90620 		ldrsh	r2, [r7, #6]
 203 006e B7F90230 		ldrsh	r3, [r7, #2]
 204 0072 9A42     		cmp	r2, r3
 205 0074 14DB     		blt	.L14
  59:joystick.c    ****         return (float)(c - ccenter) / (float)span_pos;  // 0..+1
 206              		.loc 1 59 0
 207 0076 B7F90620 		ldrsh	r2, [r7, #6]
 208 007a B7F90230 		ldrsh	r3, [r7, #2]
 209 007e D31A     		subs	r3, r2, r3
 210 0080 1846     		mov	r0, r3
 211 0082 FFF7FEFF 		bl	__aeabi_i2f
 212 0086 0446     		mov	r4, r0
 213 0088 B7F90E30 		ldrsh	r3, [r7, #14]
ARM GAS  C:\Users\JENNEW~1\AppData\Local\Temp\ccMzHkUr.s 			page 6


 214 008c 1846     		mov	r0, r3
 215 008e FFF7FEFF 		bl	__aeabi_i2f
 216 0092 0346     		mov	r3, r0
 217 0094 1946     		mov	r1, r3
 218 0096 2046     		mov	r0, r4
 219 0098 FFF7FEFF 		bl	__aeabi_fdiv
 220 009c 0346     		mov	r3, r0
 221 009e 13E0     		b	.L15
 222              	.L14:
  60:joystick.c    ****     else
  61:joystick.c    ****         return (float)(c - ccenter) / (float)span_neg;  // 0..-1
 223              		.loc 1 61 0
 224 00a0 B7F90620 		ldrsh	r2, [r7, #6]
 225 00a4 B7F90230 		ldrsh	r3, [r7, #2]
 226 00a8 D31A     		subs	r3, r2, r3
 227 00aa 1846     		mov	r0, r3
 228 00ac FFF7FEFF 		bl	__aeabi_i2f
 229 00b0 0446     		mov	r4, r0
 230 00b2 B7F90C30 		ldrsh	r3, [r7, #12]
 231 00b6 1846     		mov	r0, r3
 232 00b8 FFF7FEFF 		bl	__aeabi_i2f
 233 00bc 0346     		mov	r3, r0
 234 00be 1946     		mov	r1, r3
 235 00c0 2046     		mov	r0, r4
 236 00c2 FFF7FEFF 		bl	__aeabi_fdiv
 237 00c6 0346     		mov	r3, r0
 238              	.L15:
  62:joystick.c    **** }
 239              		.loc 1 62 0
 240 00c8 1846     		mov	r0, r3
 241 00ca 1437     		adds	r7, r7, #20
 242              		.cfi_def_cfa_offset 12
 243 00cc BD46     		mov	sp, r7
 244              		.cfi_def_cfa_register 13
 245              		@ sp needed
 246 00ce 90BD     		pop	{r4, r7, pc}
 247              		.cfi_endproc
 248              	.LFE64:
 249              		.size	normalize_axis, .-normalize_axis
 250              		.global	__aeabi_fcmplt
 251              		.global	__aeabi_fcmpgt
 252              		.global	__aeabi_fsub
 253              		.global	__aeabi_fadd
 254              		.section	.text.apply_deadband,"ax",%progbits
 255              		.align	2
 256              		.thumb
 257              		.thumb_func
 258              		.type	apply_deadband, %function
 259              	apply_deadband:
 260              	.LFB65:
  63:joystick.c    **** 
  64:joystick.c    **** // Helper - Deadband central region to avoid fluctuations
  65:joystick.c    **** static float apply_deadband(float u, float db)
  66:joystick.c    **** {
 261              		.loc 1 66 0
 262              		.cfi_startproc
 263              		@ args = 0, pretend = 0, frame = 8
ARM GAS  C:\Users\JENNEW~1\AppData\Local\Temp\ccMzHkUr.s 			page 7


 264              		@ frame_needed = 1, uses_anonymous_args = 0
 265 0000 90B5     		push	{r4, r7, lr}
 266              		.cfi_def_cfa_offset 12
 267              		.cfi_offset 4, -12
 268              		.cfi_offset 7, -8
 269              		.cfi_offset 14, -4
 270 0002 83B0     		sub	sp, sp, #12
 271              		.cfi_def_cfa_offset 24
 272 0004 00AF     		add	r7, sp, #0
 273              		.cfi_def_cfa_register 7
 274 0006 7860     		str	r0, [r7, #4]	@ float
 275 0008 3960     		str	r1, [r7]	@ float
  67:joystick.c    ****     if (u > -db && u < db)
 276              		.loc 1 67 0
 277 000a 3B68     		ldr	r3, [r7]
 278 000c 83F00043 		eor	r3, r3, #-2147483648
 279 0010 7968     		ldr	r1, [r7, #4]	@ float
 280 0012 1846     		mov	r0, r3
 281 0014 FFF7FEFF 		bl	__aeabi_fcmplt
 282 0018 0346     		mov	r3, r0
 283 001a 002B     		cmp	r3, #0
 284 001c 09D0     		beq	.L17
 285              		.loc 1 67 0 is_stmt 0 discriminator 1
 286 001e 3968     		ldr	r1, [r7]	@ float
 287 0020 7868     		ldr	r0, [r7, #4]	@ float
 288 0022 FFF7FEFF 		bl	__aeabi_fcmplt
 289 0026 0346     		mov	r3, r0
 290 0028 002B     		cmp	r3, #0
 291 002a 02D0     		beq	.L17
  68:joystick.c    ****         return 0.0f;
 292              		.loc 1 68 0 is_stmt 1
 293 002c 4FF00003 		mov	r3, #0
 294 0030 2AE0     		b	.L20
 295              	.L17:
  69:joystick.c    **** 
  70:joystick.c    ****     if (u > 0.0f)
 296              		.loc 1 70 0
 297 0032 4FF00001 		mov	r1, #0
 298 0036 7868     		ldr	r0, [r7, #4]	@ float
 299 0038 FFF7FEFF 		bl	__aeabi_fcmpgt
 300 003c 0346     		mov	r3, r0
 301 003e 002B     		cmp	r3, #0
 302 0040 11D0     		beq	.L26
  71:joystick.c    ****         return (u - db) / (1.0f - db);
 303              		.loc 1 71 0
 304 0042 3968     		ldr	r1, [r7]	@ float
 305 0044 7868     		ldr	r0, [r7, #4]	@ float
 306 0046 FFF7FEFF 		bl	__aeabi_fsub
 307 004a 0346     		mov	r3, r0
 308 004c 1C46     		mov	r4, r3
 309 004e 3968     		ldr	r1, [r7]	@ float
 310 0050 4FF07E50 		mov	r0, #1065353216
 311 0054 FFF7FEFF 		bl	__aeabi_fsub
 312 0058 0346     		mov	r3, r0
 313 005a 1946     		mov	r1, r3
 314 005c 2046     		mov	r0, r4
 315 005e FFF7FEFF 		bl	__aeabi_fdiv
ARM GAS  C:\Users\JENNEW~1\AppData\Local\Temp\ccMzHkUr.s 			page 8


 316 0062 0346     		mov	r3, r0
 317 0064 10E0     		b	.L20
 318              	.L26:
  72:joystick.c    ****     else
  73:joystick.c    ****         return (u + db) / (1.0f - db);
 319              		.loc 1 73 0
 320 0066 3968     		ldr	r1, [r7]	@ float
 321 0068 7868     		ldr	r0, [r7, #4]	@ float
 322 006a FFF7FEFF 		bl	__aeabi_fadd
 323 006e 0346     		mov	r3, r0
 324 0070 1C46     		mov	r4, r3
 325 0072 3968     		ldr	r1, [r7]	@ float
 326 0074 4FF07E50 		mov	r0, #1065353216
 327 0078 FFF7FEFF 		bl	__aeabi_fsub
 328 007c 0346     		mov	r3, r0
 329 007e 1946     		mov	r1, r3
 330 0080 2046     		mov	r0, r4
 331 0082 FFF7FEFF 		bl	__aeabi_fdiv
 332 0086 0346     		mov	r3, r0
 333              	.L20:
  74:joystick.c    **** }
 334              		.loc 1 74 0
 335 0088 1846     		mov	r0, r3
 336 008a 0C37     		adds	r7, r7, #12
 337              		.cfi_def_cfa_offset 12
 338 008c BD46     		mov	sp, r7
 339              		.cfi_def_cfa_register 13
 340              		@ sp needed
 341 008e 90BD     		pop	{r4, r7, pc}
 342              		.cfi_endproc
 343              	.LFE65:
 344              		.size	apply_deadband, .-apply_deadband
 345              		.section	.text.joystick_validate,"ax",%progbits
 346              		.align	2
 347              		.global	joystick_validate
 348              		.thumb
 349              		.thumb_func
 350              		.type	joystick_validate, %function
 351              	joystick_validate:
 352              	.LFB66:
  75:joystick.c    **** 
  76:joystick.c    **** // Helper - Validate callibration data
  77:joystick.c    **** uint8 joystick_validate(const joy_cal_t *c)
  78:joystick.c    **** {
 353              		.loc 1 78 0
 354              		.cfi_startproc
 355              		@ args = 0, pretend = 0, frame = 16
 356              		@ frame_needed = 1, uses_anonymous_args = 0
 357              		@ link register save eliminated.
 358 0000 80B4     		push	{r7}
 359              		.cfi_def_cfa_offset 4
 360              		.cfi_offset 7, -4
 361 0002 85B0     		sub	sp, sp, #20
 362              		.cfi_def_cfa_offset 24
 363 0004 00AF     		add	r7, sp, #0
 364              		.cfi_def_cfa_register 7
 365 0006 7860     		str	r0, [r7, #4]
ARM GAS  C:\Users\JENNEW~1\AppData\Local\Temp\ccMzHkUr.s 			page 9


 366              	.LBB2:
  79:joystick.c    ****     // Validate over each channel
  80:joystick.c    ****     for (uint8 i = 0u; i < (uint8)N_CH; i++)
 367              		.loc 1 80 0
 368 0008 0023     		movs	r3, #0
 369 000a FB73     		strb	r3, [r7, #15]
 370 000c 38E0     		b	.L28
 371              	.L34:
 372              	.LBB3:
  81:joystick.c    ****     {
  82:joystick.c    ****         // Calculate channel range
  83:joystick.c    ****         int16 span   = (int16)(c->maxv[i] - c->minv[i]);
 373              		.loc 1 83 0
 374 000e FB7B     		ldrb	r3, [r7, #15]	@ zero_extendqisi2
 375 0010 7A68     		ldr	r2, [r7, #4]
 376 0012 5B00     		lsls	r3, r3, #1
 377 0014 1344     		add	r3, r3, r2
 378 0016 B3F90430 		ldrsh	r3, [r3, #4]
 379 001a 9AB2     		uxth	r2, r3
 380 001c F97B     		ldrb	r1, [r7, #15]	@ zero_extendqisi2
 381 001e 7B68     		ldr	r3, [r7, #4]
 382 0020 33F91130 		ldrsh	r3, [r3, r1, lsl #1]
 383 0024 9BB2     		uxth	r3, r3
 384 0026 D31A     		subs	r3, r2, r3
 385 0028 9BB2     		uxth	r3, r3
 386 002a BB81     		strh	r3, [r7, #12]	@ movhi
  84:joystick.c    ****         // Ensure measured center is within this range
  85:joystick.c    ****         uint8 center_ok = (c->minv[i] < c->center[i]) && (
 387              		.loc 1 85 0
 388 002c FA7B     		ldrb	r2, [r7, #15]	@ zero_extendqisi2
 389 002e 7B68     		ldr	r3, [r7, #4]
 390 0030 33F91220 		ldrsh	r2, [r3, r2, lsl #1]
 391 0034 F97B     		ldrb	r1, [r7, #15]	@ zero_extendqisi2
 392 0036 7B68     		ldr	r3, [r7, #4]
 393 0038 0431     		adds	r1, r1, #4
 394 003a 33F91130 		ldrsh	r3, [r3, r1, lsl #1]
 395 003e 9A42     		cmp	r2, r3
 396 0040 0EDA     		bge	.L29
  86:joystick.c    ****                             c->center[i] < c->maxv[i]);
 397              		.loc 1 86 0 discriminator 1
 398 0042 FA7B     		ldrb	r2, [r7, #15]	@ zero_extendqisi2
 399 0044 7B68     		ldr	r3, [r7, #4]
 400 0046 0432     		adds	r2, r2, #4
 401 0048 33F91220 		ldrsh	r2, [r3, r2, lsl #1]
 402 004c FB7B     		ldrb	r3, [r7, #15]	@ zero_extendqisi2
 403 004e 7968     		ldr	r1, [r7, #4]
 404 0050 5B00     		lsls	r3, r3, #1
 405 0052 0B44     		add	r3, r3, r1
 406 0054 B3F90430 		ldrsh	r3, [r3, #4]
  85:joystick.c    ****                             c->center[i] < c->maxv[i]);
 407              		.loc 1 85 0 discriminator 1
 408 0058 9A42     		cmp	r2, r3
 409 005a 01DA     		bge	.L29
  85:joystick.c    ****                             c->center[i] < c->maxv[i]);
 410              		.loc 1 85 0 is_stmt 0 discriminator 3
 411 005c 0123     		movs	r3, #1
 412 005e 00E0     		b	.L30
ARM GAS  C:\Users\JENNEW~1\AppData\Local\Temp\ccMzHkUr.s 			page 10


 413              	.L29:
  85:joystick.c    ****                             c->center[i] < c->maxv[i]);
 414              		.loc 1 85 0 discriminator 4
 415 0060 0023     		movs	r3, #0
 416              	.L30:
  85:joystick.c    ****                             c->center[i] < c->maxv[i]);
 417              		.loc 1 85 0 discriminator 6
 418 0062 FB72     		strb	r3, [r7, #11]
  87:joystick.c    ****         // Unhappy cases
  88:joystick.c    ****         if (span < (int16)CAL_MIN_SPAN_COUNTS){return 0u;}
 419              		.loc 1 88 0 is_stmt 1 discriminator 6
 420 0064 B7F90C30 		ldrsh	r3, [r7, #12]
 421 0068 132B     		cmp	r3, #19
 422 006a 01DC     		bgt	.L31
 423              		.loc 1 88 0 is_stmt 0 discriminator 1
 424 006c 0023     		movs	r3, #0
 425 006e 0BE0     		b	.L32
 426              	.L31:
  89:joystick.c    ****         if (!center_ok){return 0u;}
 427              		.loc 1 89 0 is_stmt 1
 428 0070 FB7A     		ldrb	r3, [r7, #11]	@ zero_extendqisi2
 429 0072 002B     		cmp	r3, #0
 430 0074 01D1     		bne	.L33
 431              		.loc 1 89 0 is_stmt 0 discriminator 1
 432 0076 0023     		movs	r3, #0
 433 0078 06E0     		b	.L32
 434              	.L33:
 435              	.LBE3:
  80:joystick.c    ****     {
 436              		.loc 1 80 0 is_stmt 1 discriminator 2
 437 007a FB7B     		ldrb	r3, [r7, #15]	@ zero_extendqisi2
 438 007c 0133     		adds	r3, r3, #1
 439 007e FB73     		strb	r3, [r7, #15]
 440              	.L28:
  80:joystick.c    ****     {
 441              		.loc 1 80 0 is_stmt 0 discriminator 1
 442 0080 FB7B     		ldrb	r3, [r7, #15]	@ zero_extendqisi2
 443 0082 012B     		cmp	r3, #1
 444 0084 C3D9     		bls	.L34
 445              	.LBE2:
  90:joystick.c    ****     }
  91:joystick.c    ****     return 1u;  // Happy
 446              		.loc 1 91 0 is_stmt 1
 447 0086 0123     		movs	r3, #1
 448              	.L32:
  92:joystick.c    **** }
 449              		.loc 1 92 0
 450 0088 1846     		mov	r0, r3
 451 008a 1437     		adds	r7, r7, #20
 452              		.cfi_def_cfa_offset 4
 453 008c BD46     		mov	sp, r7
 454              		.cfi_def_cfa_register 13
 455              		@ sp needed
 456 008e 80BC     		pop	{r7}
 457              		.cfi_restore 7
 458              		.cfi_def_cfa_offset 0
 459 0090 7047     		bx	lr
ARM GAS  C:\Users\JENNEW~1\AppData\Local\Temp\ccMzHkUr.s 			page 11


 460              		.cfi_endproc
 461              	.LFE66:
 462              		.size	joystick_validate, .-joystick_validate
 463 0092 00BF     		.section	.text.cal_begin_range_capture,"ax",%progbits
 464              		.align	2
 465              		.thumb
 466              		.thumb_func
 467              		.type	cal_begin_range_capture, %function
 468              	cal_begin_range_capture:
 469              	.LFB67:
  93:joystick.c    **** 
  94:joystick.c    **** // Helper - Prepare for range calibration
  95:joystick.c    **** static void cal_begin_range_capture(const int16 counts[N_CH])
  96:joystick.c    **** {
 470              		.loc 1 96 0
 471              		.cfi_startproc
 472              		@ args = 0, pretend = 0, frame = 16
 473              		@ frame_needed = 1, uses_anonymous_args = 0
 474              		@ link register save eliminated.
 475 0000 90B4     		push	{r4, r7}
 476              		.cfi_def_cfa_offset 8
 477              		.cfi_offset 4, -8
 478              		.cfi_offset 7, -4
 479 0002 84B0     		sub	sp, sp, #16
 480              		.cfi_def_cfa_offset 24
 481 0004 00AF     		add	r7, sp, #0
 482              		.cfi_def_cfa_register 7
 483 0006 7860     		str	r0, [r7, #4]
  97:joystick.c    ****     // Copy last calibration state in case we need to revert
  98:joystick.c    ****     s_work = s_saved;
 484              		.loc 1 98 0
 485 0008 1B4A     		ldr	r2, .L38
 486 000a 1C4B     		ldr	r3, .L38+4
 487 000c 1446     		mov	r4, r2
 488 000e 0FCB     		ldmia	r3, {r0, r1, r2, r3}
 489 0010 07C4     		stmia	r4!, {r0, r1, r2}
 490 0012 2380     		strh	r3, [r4]	@ movhi
 491              	.LBB4:
  99:joystick.c    **** 
 100:joystick.c    ****     // BEfore collecting data, initialize the state with current readings
 101:joystick.c    ****     for (uint8 i = 0u; i < (uint8)N_CH; i++)
 492              		.loc 1 101 0
 493 0014 0023     		movs	r3, #0
 494 0016 FB73     		strb	r3, [r7, #15]
 495 0018 23E0     		b	.L36
 496              	.L37:
 102:joystick.c    ****     {
 103:joystick.c    ****         s_work.minv[i]   = counts[i];
 497              		.loc 1 103 0 discriminator 3
 498 001a FB7B     		ldrb	r3, [r7, #15]	@ zero_extendqisi2
 499 001c FA7B     		ldrb	r2, [r7, #15]	@ zero_extendqisi2
 500 001e 5200     		lsls	r2, r2, #1
 501 0020 7968     		ldr	r1, [r7, #4]
 502 0022 0A44     		add	r2, r2, r1
 503 0024 B2F90010 		ldrsh	r1, [r2]
 504 0028 134A     		ldr	r2, .L38
 505 002a 22F81310 		strh	r1, [r2, r3, lsl #1]	@ movhi
ARM GAS  C:\Users\JENNEW~1\AppData\Local\Temp\ccMzHkUr.s 			page 12


 104:joystick.c    ****         s_work.maxv[i]   = counts[i];
 506              		.loc 1 104 0 discriminator 3
 507 002e FB7B     		ldrb	r3, [r7, #15]	@ zero_extendqisi2
 508 0030 FA7B     		ldrb	r2, [r7, #15]	@ zero_extendqisi2
 509 0032 5200     		lsls	r2, r2, #1
 510 0034 7968     		ldr	r1, [r7, #4]
 511 0036 0A44     		add	r2, r2, r1
 512 0038 B2F90010 		ldrsh	r1, [r2]
 513 003c 0E4A     		ldr	r2, .L38
 514 003e 5B00     		lsls	r3, r3, #1
 515 0040 1344     		add	r3, r3, r2
 516 0042 0A46     		mov	r2, r1	@ movhi
 517 0044 9A80     		strh	r2, [r3, #4]	@ movhi
 105:joystick.c    ****         s_work.center[i] = counts[i]; /* provisional */
 518              		.loc 1 105 0 discriminator 3
 519 0046 FB7B     		ldrb	r3, [r7, #15]	@ zero_extendqisi2
 520 0048 FA7B     		ldrb	r2, [r7, #15]	@ zero_extendqisi2
 521 004a 5200     		lsls	r2, r2, #1
 522 004c 7968     		ldr	r1, [r7, #4]
 523 004e 0A44     		add	r2, r2, r1
 524 0050 B2F90010 		ldrsh	r1, [r2]
 525 0054 084A     		ldr	r2, .L38
 526 0056 0433     		adds	r3, r3, #4
 527 0058 22F81310 		strh	r1, [r2, r3, lsl #1]	@ movhi
 101:joystick.c    ****     {
 528              		.loc 1 101 0 discriminator 3
 529 005c FB7B     		ldrb	r3, [r7, #15]	@ zero_extendqisi2
 530 005e 0133     		adds	r3, r3, #1
 531 0060 FB73     		strb	r3, [r7, #15]
 532              	.L36:
 101:joystick.c    ****     {
 533              		.loc 1 101 0 is_stmt 0 discriminator 1
 534 0062 FB7B     		ldrb	r3, [r7, #15]	@ zero_extendqisi2
 535 0064 012B     		cmp	r3, #1
 536 0066 D8D9     		bls	.L37
 537              	.LBE4:
 106:joystick.c    ****     }
 107:joystick.c    **** 
 108:joystick.c    ****     s_state = JOY_CAL_RANGE_CAPTURE;  // Enter calibration mode
 538              		.loc 1 108 0 is_stmt 1
 539 0068 054B     		ldr	r3, .L38+8
 540 006a 0122     		movs	r2, #1
 541 006c 1A70     		strb	r2, [r3]
 109:joystick.c    **** }
 542              		.loc 1 109 0
 543 006e 00BF     		nop
 544 0070 1037     		adds	r7, r7, #16
 545              		.cfi_def_cfa_offset 8
 546 0072 BD46     		mov	sp, r7
 547              		.cfi_def_cfa_register 13
 548              		@ sp needed
 549 0074 90BC     		pop	{r4, r7}
 550              		.cfi_restore 7
 551              		.cfi_restore 4
 552              		.cfi_def_cfa_offset 0
 553 0076 7047     		bx	lr
 554              	.L39:
ARM GAS  C:\Users\JENNEW~1\AppData\Local\Temp\ccMzHkUr.s 			page 13


 555              		.align	2
 556              	.L38:
 557 0078 20000000 		.word	s_work
 558 007c 10000000 		.word	s_saved
 559 0080 2E000000 		.word	s_state
 560              		.cfi_endproc
 561              	.LFE67:
 562              		.size	cal_begin_range_capture, .-cal_begin_range_capture
 563              		.section	.text.cal_update_ranges,"ax",%progbits
 564              		.align	2
 565              		.thumb
 566              		.thumb_func
 567              		.type	cal_update_ranges, %function
 568              	cal_update_ranges:
 569              	.LFB68:
 110:joystick.c    **** 
 111:joystick.c    **** // Helper - Update max and min from callibration data
 112:joystick.c    **** static void cal_update_ranges(const int16 counts[N_CH])
 113:joystick.c    **** {   
 570              		.loc 1 113 0
 571              		.cfi_startproc
 572              		@ args = 0, pretend = 0, frame = 16
 573              		@ frame_needed = 1, uses_anonymous_args = 0
 574              		@ link register save eliminated.
 575 0000 80B4     		push	{r7}
 576              		.cfi_def_cfa_offset 4
 577              		.cfi_offset 7, -4
 578 0002 85B0     		sub	sp, sp, #20
 579              		.cfi_def_cfa_offset 24
 580 0004 00AF     		add	r7, sp, #0
 581              		.cfi_def_cfa_register 7
 582 0006 7860     		str	r0, [r7, #4]
 114:joystick.c    ****     // Dont run if not calibrating
 115:joystick.c    ****     if (s_state != JOY_CAL_RANGE_CAPTURE)
 583              		.loc 1 115 0
 584 0008 214B     		ldr	r3, .L48
 585 000a 1B78     		ldrb	r3, [r3]	@ zero_extendqisi2
 586 000c 012B     		cmp	r3, #1
 587 000e 39D1     		bne	.L47
 588              	.LBB5:
 116:joystick.c    ****         return;
 117:joystick.c    ****     
 118:joystick.c    ****     // Loop over captured data and populate range limits.
 119:joystick.c    ****     for (uint8 i = 0u; i < (uint8)N_CH; i++)
 589              		.loc 1 119 0
 590 0010 0023     		movs	r3, #0
 591 0012 FB73     		strb	r3, [r7, #15]
 592 0014 32E0     		b	.L43
 593              	.L46:
 120:joystick.c    ****     {
 121:joystick.c    ****         if (counts[i] < s_work.minv[i]) s_work.minv[i] = counts[i];  // min
 594              		.loc 1 121 0
 595 0016 FB7B     		ldrb	r3, [r7, #15]	@ zero_extendqisi2
 596 0018 5B00     		lsls	r3, r3, #1
 597 001a 7A68     		ldr	r2, [r7, #4]
 598 001c 1344     		add	r3, r3, r2
 599 001e B3F90020 		ldrsh	r2, [r3]
ARM GAS  C:\Users\JENNEW~1\AppData\Local\Temp\ccMzHkUr.s 			page 14


 600 0022 FB7B     		ldrb	r3, [r7, #15]	@ zero_extendqisi2
 601 0024 1B49     		ldr	r1, .L48+4
 602 0026 31F91330 		ldrsh	r3, [r1, r3, lsl #1]
 603 002a 9A42     		cmp	r2, r3
 604 002c 09DA     		bge	.L44
 605              		.loc 1 121 0 is_stmt 0 discriminator 1
 606 002e FB7B     		ldrb	r3, [r7, #15]	@ zero_extendqisi2
 607 0030 FA7B     		ldrb	r2, [r7, #15]	@ zero_extendqisi2
 608 0032 5200     		lsls	r2, r2, #1
 609 0034 7968     		ldr	r1, [r7, #4]
 610 0036 0A44     		add	r2, r2, r1
 611 0038 B2F90010 		ldrsh	r1, [r2]
 612 003c 154A     		ldr	r2, .L48+4
 613 003e 22F81310 		strh	r1, [r2, r3, lsl #1]	@ movhi
 614              	.L44:
 122:joystick.c    ****         if (counts[i] > s_work.maxv[i]) s_work.maxv[i] = counts[i];  // max
 615              		.loc 1 122 0 is_stmt 1
 616 0042 FB7B     		ldrb	r3, [r7, #15]	@ zero_extendqisi2
 617 0044 5B00     		lsls	r3, r3, #1
 618 0046 7A68     		ldr	r2, [r7, #4]
 619 0048 1344     		add	r3, r3, r2
 620 004a B3F90020 		ldrsh	r2, [r3]
 621 004e FB7B     		ldrb	r3, [r7, #15]	@ zero_extendqisi2
 622 0050 1049     		ldr	r1, .L48+4
 623 0052 5B00     		lsls	r3, r3, #1
 624 0054 0B44     		add	r3, r3, r1
 625 0056 B3F90430 		ldrsh	r3, [r3, #4]
 626 005a 9A42     		cmp	r2, r3
 627 005c 0BDD     		ble	.L45
 628              		.loc 1 122 0 is_stmt 0 discriminator 1
 629 005e FB7B     		ldrb	r3, [r7, #15]	@ zero_extendqisi2
 630 0060 FA7B     		ldrb	r2, [r7, #15]	@ zero_extendqisi2
 631 0062 5200     		lsls	r2, r2, #1
 632 0064 7968     		ldr	r1, [r7, #4]
 633 0066 0A44     		add	r2, r2, r1
 634 0068 B2F90010 		ldrsh	r1, [r2]
 635 006c 094A     		ldr	r2, .L48+4
 636 006e 5B00     		lsls	r3, r3, #1
 637 0070 1344     		add	r3, r3, r2
 638 0072 0A46     		mov	r2, r1	@ movhi
 639 0074 9A80     		strh	r2, [r3, #4]	@ movhi
 640              	.L45:
 119:joystick.c    ****     {
 641              		.loc 1 119 0 is_stmt 1 discriminator 2
 642 0076 FB7B     		ldrb	r3, [r7, #15]	@ zero_extendqisi2
 643 0078 0133     		adds	r3, r3, #1
 644 007a FB73     		strb	r3, [r7, #15]
 645              	.L43:
 119:joystick.c    ****     {
 646              		.loc 1 119 0 is_stmt 0 discriminator 1
 647 007c FB7B     		ldrb	r3, [r7, #15]	@ zero_extendqisi2
 648 007e 012B     		cmp	r3, #1
 649 0080 C9D9     		bls	.L46
 650 0082 00E0     		b	.L40
 651              	.L47:
 652              	.LBE5:
 116:joystick.c    ****     
ARM GAS  C:\Users\JENNEW~1\AppData\Local\Temp\ccMzHkUr.s 			page 15


 653              		.loc 1 116 0 is_stmt 1
 654 0084 00BF     		nop
 655              	.L40:
 123:joystick.c    ****     }
 124:joystick.c    **** }
 656              		.loc 1 124 0
 657 0086 1437     		adds	r7, r7, #20
 658              		.cfi_def_cfa_offset 4
 659 0088 BD46     		mov	sp, r7
 660              		.cfi_def_cfa_register 13
 661              		@ sp needed
 662 008a 80BC     		pop	{r7}
 663              		.cfi_restore 7
 664              		.cfi_def_cfa_offset 0
 665 008c 7047     		bx	lr
 666              	.L49:
 667 008e 00BF     		.align	2
 668              	.L48:
 669 0090 2E000000 		.word	s_state
 670 0094 20000000 		.word	s_work
 671              		.cfi_endproc
 672              	.LFE68:
 673              		.size	cal_update_ranges, .-cal_update_ranges
 674              		.section	.text.cal_start_center_capture,"ax",%progbits
 675              		.align	2
 676              		.thumb
 677              		.thumb_func
 678              		.type	cal_start_center_capture, %function
 679              	cal_start_center_capture:
 680              	.LFB69:
 125:joystick.c    **** 
 126:joystick.c    **** // Helper - Prepare for centered calibration
 127:joystick.c    **** static void cal_start_center_capture(void)
 128:joystick.c    **** {
 681              		.loc 1 128 0
 682              		.cfi_startproc
 683              		@ args = 0, pretend = 0, frame = 8
 684              		@ frame_needed = 1, uses_anonymous_args = 0
 685              		@ link register save eliminated.
 686 0000 80B4     		push	{r7}
 687              		.cfi_def_cfa_offset 4
 688              		.cfi_offset 7, -4
 689 0002 83B0     		sub	sp, sp, #12
 690              		.cfi_def_cfa_offset 16
 691 0004 00AF     		add	r7, sp, #0
 692              		.cfi_def_cfa_register 7
 693              	.LBB6:
 129:joystick.c    ****     // Initialize center value
 130:joystick.c    ****     for (uint8 i = 0u; i < (uint8)N_CH; i++)
 694              		.loc 1 130 0
 695 0006 0023     		movs	r3, #0
 696 0008 FB71     		strb	r3, [r7, #7]
 697 000a 07E0     		b	.L51
 698              	.L52:
 131:joystick.c    ****         s_center_sum[i] = 0;
 699              		.loc 1 131 0 discriminator 3
 700 000c FB79     		ldrb	r3, [r7, #7]	@ zero_extendqisi2
ARM GAS  C:\Users\JENNEW~1\AppData\Local\Temp\ccMzHkUr.s 			page 16


 701 000e 0A4A     		ldr	r2, .L53
 702 0010 0021     		movs	r1, #0
 703 0012 42F82310 		str	r1, [r2, r3, lsl #2]
 130:joystick.c    ****         s_center_sum[i] = 0;
 704              		.loc 1 130 0 discriminator 3
 705 0016 FB79     		ldrb	r3, [r7, #7]	@ zero_extendqisi2
 706 0018 0133     		adds	r3, r3, #1
 707 001a FB71     		strb	r3, [r7, #7]
 708              	.L51:
 130:joystick.c    ****         s_center_sum[i] = 0;
 709              		.loc 1 130 0 is_stmt 0 discriminator 1
 710 001c FB79     		ldrb	r3, [r7, #7]	@ zero_extendqisi2
 711 001e 012B     		cmp	r3, #1
 712 0020 F4D9     		bls	.L52
 713              	.LBE6:
 132:joystick.c    **** 
 133:joystick.c    ****     s_center_n = 0u;
 714              		.loc 1 133 0 is_stmt 1
 715 0022 064B     		ldr	r3, .L53+4
 716 0024 0022     		movs	r2, #0
 717 0026 1A80     		strh	r2, [r3]	@ movhi
 134:joystick.c    ****     s_state = JOY_CAL_CENTER_CAPTURE;  // Move to next state
 718              		.loc 1 134 0
 719 0028 054B     		ldr	r3, .L53+8
 720 002a 0222     		movs	r2, #2
 721 002c 1A70     		strb	r2, [r3]
 135:joystick.c    **** }
 722              		.loc 1 135 0
 723 002e 00BF     		nop
 724 0030 0C37     		adds	r7, r7, #12
 725              		.cfi_def_cfa_offset 4
 726 0032 BD46     		mov	sp, r7
 727              		.cfi_def_cfa_register 13
 728              		@ sp needed
 729 0034 80BC     		pop	{r7}
 730              		.cfi_restore 7
 731              		.cfi_def_cfa_offset 0
 732 0036 7047     		bx	lr
 733              	.L54:
 734              		.align	2
 735              	.L53:
 736 0038 38000000 		.word	s_center_sum
 737 003c 40000000 		.word	s_center_n
 738 0040 2E000000 		.word	s_state
 739              		.cfi_endproc
 740              	.LFE69:
 741              		.size	cal_start_center_capture, .-cal_start_center_capture
 742              		.section	.text.cal_center_capture_update,"ax",%progbits
 743              		.align	2
 744              		.thumb
 745              		.thumb_func
 746              		.type	cal_center_capture_update, %function
 747              	cal_center_capture_update:
 748              	.LFB70:
 136:joystick.c    **** 
 137:joystick.c    **** // Helper - Collect and average center data, save to calibration
 138:joystick.c    **** static void cal_center_capture_update(const int16 counts[N_CH])
ARM GAS  C:\Users\JENNEW~1\AppData\Local\Temp\ccMzHkUr.s 			page 17


 139:joystick.c    **** {
 749              		.loc 1 139 0
 750              		.cfi_startproc
 751              		@ args = 0, pretend = 0, frame = 16
 752              		@ frame_needed = 1, uses_anonymous_args = 0
 753              		@ link register save eliminated.
 754 0000 80B4     		push	{r7}
 755              		.cfi_def_cfa_offset 4
 756              		.cfi_offset 7, -4
 757 0002 85B0     		sub	sp, sp, #20
 758              		.cfi_def_cfa_offset 24
 759 0004 00AF     		add	r7, sp, #0
 760              		.cfi_def_cfa_register 7
 761 0006 7860     		str	r0, [r7, #4]
 140:joystick.c    ****     // Dont run if not calibrating
 141:joystick.c    ****     if (s_state != JOY_CAL_CENTER_CAPTURE)
 762              		.loc 1 141 0
 763 0008 234B     		ldr	r3, .L64
 764 000a 1B78     		ldrb	r3, [r3]	@ zero_extendqisi2
 765 000c 022B     		cmp	r3, #2
 766 000e 3DD1     		bne	.L63
 767              	.LBB7:
 142:joystick.c    ****         return;
 143:joystick.c    **** 
 144:joystick.c    ****     // Collect data (User should not be touching joystick)
 145:joystick.c    ****     for (uint8 i = 0u; i < (uint8)N_CH; i++)
 768              		.loc 1 145 0
 769 0010 0023     		movs	r3, #0
 770 0012 FB73     		strb	r3, [r7, #15]
 771 0014 11E0     		b	.L58
 772              	.L59:
 146:joystick.c    ****         s_center_sum[i] += counts[i];
 773              		.loc 1 146 0 discriminator 3
 774 0016 FB7B     		ldrb	r3, [r7, #15]	@ zero_extendqisi2
 775 0018 FA7B     		ldrb	r2, [r7, #15]	@ zero_extendqisi2
 776 001a 2049     		ldr	r1, .L64+4
 777 001c 51F82220 		ldr	r2, [r1, r2, lsl #2]
 778 0020 F97B     		ldrb	r1, [r7, #15]	@ zero_extendqisi2
 779 0022 4900     		lsls	r1, r1, #1
 780 0024 7868     		ldr	r0, [r7, #4]
 781 0026 0144     		add	r1, r1, r0
 782 0028 B1F90010 		ldrsh	r1, [r1]
 783 002c 0A44     		add	r2, r2, r1
 784 002e 1B49     		ldr	r1, .L64+4
 785 0030 41F82320 		str	r2, [r1, r3, lsl #2]
 145:joystick.c    ****         s_center_sum[i] += counts[i];
 786              		.loc 1 145 0 discriminator 3
 787 0034 FB7B     		ldrb	r3, [r7, #15]	@ zero_extendqisi2
 788 0036 0133     		adds	r3, r3, #1
 789 0038 FB73     		strb	r3, [r7, #15]
 790              	.L58:
 145:joystick.c    ****         s_center_sum[i] += counts[i];
 791              		.loc 1 145 0 is_stmt 0 discriminator 1
 792 003a FB7B     		ldrb	r3, [r7, #15]	@ zero_extendqisi2
 793 003c 012B     		cmp	r3, #1
 794 003e EAD9     		bls	.L59
 795              	.LBE7:
ARM GAS  C:\Users\JENNEW~1\AppData\Local\Temp\ccMzHkUr.s 			page 18


 147:joystick.c    **** 
 148:joystick.c    ****     s_center_n++;
 796              		.loc 1 148 0 is_stmt 1
 797 0040 174B     		ldr	r3, .L64+8
 798 0042 1B88     		ldrh	r3, [r3]
 799 0044 0133     		adds	r3, r3, #1
 800 0046 9AB2     		uxth	r2, r3
 801 0048 154B     		ldr	r3, .L64+8
 802 004a 1A80     		strh	r2, [r3]	@ movhi
 149:joystick.c    **** 
 150:joystick.c    ****     // Process and average
 151:joystick.c    ****     if (s_center_n >= (uint16)CAL_CENTER_SAMPLES)
 803              		.loc 1 151 0
 804 004c 144B     		ldr	r3, .L64+8
 805 004e 1B88     		ldrh	r3, [r3]
 806 0050 1F2B     		cmp	r3, #31
 807 0052 1CD9     		bls	.L55
 808              	.LBB8:
 152:joystick.c    ****     {
 153:joystick.c    ****         for (uint8 i = 0u; i < (uint8)N_CH; i++)
 809              		.loc 1 153 0
 810 0054 0023     		movs	r3, #0
 811 0056 BB73     		strb	r3, [r7, #14]
 812 0058 11E0     		b	.L60
 813              	.L62:
 154:joystick.c    ****             s_work.center[i] = (int16)(s_center_sum[i] / (int32)CAL_CENTER_SAMPLES);
 814              		.loc 1 154 0 discriminator 3
 815 005a BA7B     		ldrb	r2, [r7, #14]	@ zero_extendqisi2
 816 005c BB7B     		ldrb	r3, [r7, #14]	@ zero_extendqisi2
 817 005e 0F49     		ldr	r1, .L64+4
 818 0060 51F82330 		ldr	r3, [r1, r3, lsl #2]
 819 0064 002B     		cmp	r3, #0
 820 0066 00DA     		bge	.L61
 821 0068 1F33     		adds	r3, r3, #31
 822              	.L61:
 823 006a 5B11     		asrs	r3, r3, #5
 824 006c 18B2     		sxth	r0, r3
 825 006e 0D49     		ldr	r1, .L64+12
 826 0070 131D     		adds	r3, r2, #4
 827 0072 0246     		mov	r2, r0	@ movhi
 828 0074 21F81320 		strh	r2, [r1, r3, lsl #1]	@ movhi
 153:joystick.c    ****             s_work.center[i] = (int16)(s_center_sum[i] / (int32)CAL_CENTER_SAMPLES);
 829              		.loc 1 153 0 discriminator 3
 830 0078 BB7B     		ldrb	r3, [r7, #14]	@ zero_extendqisi2
 831 007a 0133     		adds	r3, r3, #1
 832 007c BB73     		strb	r3, [r7, #14]
 833              	.L60:
 153:joystick.c    ****             s_work.center[i] = (int16)(s_center_sum[i] / (int32)CAL_CENTER_SAMPLES);
 834              		.loc 1 153 0 is_stmt 0 discriminator 1
 835 007e BB7B     		ldrb	r3, [r7, #14]	@ zero_extendqisi2
 836 0080 012B     		cmp	r3, #1
 837 0082 EAD9     		bls	.L62
 838              	.LBE8:
 155:joystick.c    **** 
 156:joystick.c    ****         s_state = JOY_CAL_CONFIRM_SAVE;  // Move to next state
 839              		.loc 1 156 0 is_stmt 1
 840 0084 044B     		ldr	r3, .L64
ARM GAS  C:\Users\JENNEW~1\AppData\Local\Temp\ccMzHkUr.s 			page 19


 841 0086 0322     		movs	r2, #3
 842 0088 1A70     		strb	r2, [r3]
 843 008a 00E0     		b	.L55
 844              	.L63:
 142:joystick.c    **** 
 845              		.loc 1 142 0
 846 008c 00BF     		nop
 847              	.L55:
 157:joystick.c    ****     }
 158:joystick.c    **** }
 848              		.loc 1 158 0
 849 008e 1437     		adds	r7, r7, #20
 850              		.cfi_def_cfa_offset 4
 851 0090 BD46     		mov	sp, r7
 852              		.cfi_def_cfa_register 13
 853              		@ sp needed
 854 0092 80BC     		pop	{r7}
 855              		.cfi_restore 7
 856              		.cfi_def_cfa_offset 0
 857 0094 7047     		bx	lr
 858              	.L65:
 859 0096 00BF     		.align	2
 860              	.L64:
 861 0098 2E000000 		.word	s_state
 862 009c 38000000 		.word	s_center_sum
 863 00a0 40000000 		.word	s_center_n
 864 00a4 20000000 		.word	s_work
 865              		.cfi_endproc
 866              	.LFE70:
 867              		.size	cal_center_capture_update, .-cal_center_capture_update
 868              		.section	.text.cal_save_or_restart,"ax",%progbits
 869              		.align	2
 870              		.thumb
 871              		.thumb_func
 872              		.type	cal_save_or_restart, %function
 873              	cal_save_or_restart:
 874              	.LFB71:
 159:joystick.c    **** 
 160:joystick.c    **** // Helper - Give user option to save, begin calibration again, or cancel
 161:joystick.c    **** static void cal_save_or_restart(void)
 162:joystick.c    **** {
 875              		.loc 1 162 0
 876              		.cfi_startproc
 877              		@ args = 0, pretend = 0, frame = 0
 878              		@ frame_needed = 1, uses_anonymous_args = 0
 879 0000 98B5     		push	{r3, r4, r7, lr}
 880              		.cfi_def_cfa_offset 16
 881              		.cfi_offset 3, -16
 882              		.cfi_offset 4, -12
 883              		.cfi_offset 7, -8
 884              		.cfi_offset 14, -4
 885 0002 00AF     		add	r7, sp, #0
 886              		.cfi_def_cfa_register 7
 163:joystick.c    ****     if (!joystick_validate(&s_work))
 887              		.loc 1 163 0
 888 0004 0B48     		ldr	r0, .L69
 889 0006 FFF7FEFF 		bl	joystick_validate
ARM GAS  C:\Users\JENNEW~1\AppData\Local\Temp\ccMzHkUr.s 			page 20


 890 000a 0346     		mov	r3, r0
 891 000c 002B     		cmp	r3, #0
 892 000e 03D1     		bne	.L67
 164:joystick.c    ****     {
 165:joystick.c    ****         // Re-run from range capturing state (Caution: recursion-ish)
 166:joystick.c    ****         cal_begin_range_capture(s_latest_counts);
 893              		.loc 1 166 0
 894 0010 0948     		ldr	r0, .L69+4
 895 0012 FFF7FEFF 		bl	cal_begin_range_capture
 167:joystick.c    ****         return;
 896              		.loc 1 167 0
 897 0016 0BE0     		b	.L66
 898              	.L67:
 168:joystick.c    ****     }
 169:joystick.c    **** 
 170:joystick.c    ****     // Save!
 171:joystick.c    ****     s_saved = s_work;
 899              		.loc 1 171 0
 900 0018 084A     		ldr	r2, .L69+8
 901 001a 064B     		ldr	r3, .L69
 902 001c 1446     		mov	r4, r2
 903 001e 0FCB     		ldmia	r3, {r0, r1, r2, r3}
 904 0020 07C4     		stmia	r4!, {r0, r1, r2}
 905 0022 2380     		strh	r3, [r4]	@ movhi
 172:joystick.c    ****     s_saved.valid = 1u;
 906              		.loc 1 172 0
 907 0024 054B     		ldr	r3, .L69+8
 908 0026 0122     		movs	r2, #1
 909 0028 1A73     		strb	r2, [r3, #12]
 173:joystick.c    ****     s_state = JOY_CAL_OFF;
 910              		.loc 1 173 0
 911 002a 054B     		ldr	r3, .L69+12
 912 002c 0022     		movs	r2, #0
 913 002e 1A70     		strb	r2, [r3]
 914              	.L66:
 174:joystick.c    **** }
 915              		.loc 1 174 0
 916 0030 98BD     		pop	{r3, r4, r7, pc}
 917              	.L70:
 918 0032 00BF     		.align	2
 919              	.L69:
 920 0034 20000000 		.word	s_work
 921 0038 30000000 		.word	s_latest_counts
 922 003c 10000000 		.word	s_saved
 923 0040 2E000000 		.word	s_state
 924              		.cfi_endproc
 925              	.LFE71:
 926              		.size	cal_save_or_restart, .-cal_save_or_restart
 927              		.section	.text.joystick_init,"ax",%progbits
 928              		.align	2
 929              		.global	joystick_init
 930              		.thumb
 931              		.thumb_func
 932              		.type	joystick_init, %function
 933              	joystick_init:
 934              	.LFB72:
 175:joystick.c    **** 
ARM GAS  C:\Users\JENNEW~1\AppData\Local\Temp\ccMzHkUr.s 			page 21


 176:joystick.c    **** /* ------------------------------------------------------------------
 177:joystick.c    ****  * Public API (This is what you include in your code (; )
 178:joystick.c    ****  * ------------------------------------------------------------------ */
 179:joystick.c    **** 
 180:joystick.c    **** // Initialize joystick with default values
 181:joystick.c    **** void joystick_init(const joy_cal_t *defaults, uint32 invert_mask)
 182:joystick.c    **** {
 935              		.loc 1 182 0
 936              		.cfi_startproc
 937              		@ args = 0, pretend = 0, frame = 16
 938              		@ frame_needed = 1, uses_anonymous_args = 0
 939              		@ link register save eliminated.
 940 0000 90B4     		push	{r4, r7}
 941              		.cfi_def_cfa_offset 8
 942              		.cfi_offset 4, -8
 943              		.cfi_offset 7, -4
 944 0002 84B0     		sub	sp, sp, #16
 945              		.cfi_def_cfa_offset 24
 946 0004 00AF     		add	r7, sp, #0
 947              		.cfi_def_cfa_register 7
 948 0006 7860     		str	r0, [r7, #4]
 949 0008 3960     		str	r1, [r7]
 183:joystick.c    ****     s_default = *defaults;
 950              		.loc 1 183 0
 951 000a 1F4B     		ldr	r3, .L74
 952 000c 7A68     		ldr	r2, [r7, #4]
 953 000e 1446     		mov	r4, r2
 954 0010 2068     		ldr	r0, [r4]	@ unaligned
 955 0012 6168     		ldr	r1, [r4, #4]	@ unaligned
 956 0014 A268     		ldr	r2, [r4, #8]	@ unaligned
 957 0016 07C3     		stmia	r3!, {r0, r1, r2}
 958 0018 A289     		ldrh	r2, [r4, #12]	@ unaligned
 959 001a 1A80     		strh	r2, [r3]	@ unaligned
 184:joystick.c    ****     s_saved   = *defaults;
 960              		.loc 1 184 0
 961 001c 1B4B     		ldr	r3, .L74+4
 962 001e 7A68     		ldr	r2, [r7, #4]
 963 0020 1446     		mov	r4, r2
 964 0022 2068     		ldr	r0, [r4]	@ unaligned
 965 0024 6168     		ldr	r1, [r4, #4]	@ unaligned
 966 0026 A268     		ldr	r2, [r4, #8]	@ unaligned
 967 0028 07C3     		stmia	r3!, {r0, r1, r2}
 968 002a A289     		ldrh	r2, [r4, #12]	@ unaligned
 969 002c 1A80     		strh	r2, [r3]	@ unaligned
 185:joystick.c    ****     s_saved.valid = 0u;
 970              		.loc 1 185 0
 971 002e 174B     		ldr	r3, .L74+4
 972 0030 0022     		movs	r2, #0
 973 0032 1A73     		strb	r2, [r3, #12]
 186:joystick.c    ****     s_work    = *defaults;
 974              		.loc 1 186 0
 975 0034 164B     		ldr	r3, .L74+8
 976 0036 7A68     		ldr	r2, [r7, #4]
 977 0038 1446     		mov	r4, r2
 978 003a 2068     		ldr	r0, [r4]	@ unaligned
 979 003c 6168     		ldr	r1, [r4, #4]	@ unaligned
 980 003e A268     		ldr	r2, [r4, #8]	@ unaligned
ARM GAS  C:\Users\JENNEW~1\AppData\Local\Temp\ccMzHkUr.s 			page 22


 981 0040 07C3     		stmia	r3!, {r0, r1, r2}
 982 0042 A289     		ldrh	r2, [r4, #12]	@ unaligned
 983 0044 1A80     		strh	r2, [r3]	@ unaligned
 187:joystick.c    **** 
 188:joystick.c    ****     s_invert_mask = invert_mask;
 984              		.loc 1 188 0
 985 0046 134A     		ldr	r2, .L74+12
 986 0048 3B68     		ldr	r3, [r7]
 987 004a 1360     		str	r3, [r2]
 988              	.LBB9:
 189:joystick.c    **** 
 190:joystick.c    ****     for (uint8 i = 0u; i < (uint8)N_CH; i++)
 989              		.loc 1 190 0
 990 004c 0023     		movs	r3, #0
 991 004e FB73     		strb	r3, [r7, #15]
 992 0050 0BE0     		b	.L72
 993              	.L73:
 191:joystick.c    ****         s_latest_counts[i] = defaults->center[i];
 994              		.loc 1 191 0 discriminator 3
 995 0052 FB7B     		ldrb	r3, [r7, #15]	@ zero_extendqisi2
 996 0054 F97B     		ldrb	r1, [r7, #15]	@ zero_extendqisi2
 997 0056 7A68     		ldr	r2, [r7, #4]
 998 0058 0431     		adds	r1, r1, #4
 999 005a 32F91110 		ldrsh	r1, [r2, r1, lsl #1]
 1000 005e 0E4A     		ldr	r2, .L74+16
 1001 0060 22F81310 		strh	r1, [r2, r3, lsl #1]	@ movhi
 190:joystick.c    ****         s_latest_counts[i] = defaults->center[i];
 1002              		.loc 1 190 0 discriminator 3
 1003 0064 FB7B     		ldrb	r3, [r7, #15]	@ zero_extendqisi2
 1004 0066 0133     		adds	r3, r3, #1
 1005 0068 FB73     		strb	r3, [r7, #15]
 1006              	.L72:
 190:joystick.c    ****         s_latest_counts[i] = defaults->center[i];
 1007              		.loc 1 190 0 is_stmt 0 discriminator 1
 1008 006a FB7B     		ldrb	r3, [r7, #15]	@ zero_extendqisi2
 1009 006c 012B     		cmp	r3, #1
 1010 006e F0D9     		bls	.L73
 1011              	.LBE9:
 192:joystick.c    **** 
 193:joystick.c    ****     s_state = JOY_CAL_OFF;
 1012              		.loc 1 193 0 is_stmt 1
 1013 0070 0A4B     		ldr	r3, .L74+20
 1014 0072 0022     		movs	r2, #0
 1015 0074 1A70     		strb	r2, [r3]
 194:joystick.c    ****     s_center_n = 0u;
 1016              		.loc 1 194 0
 1017 0076 0A4B     		ldr	r3, .L74+24
 1018 0078 0022     		movs	r2, #0
 1019 007a 1A80     		strh	r2, [r3]	@ movhi
 195:joystick.c    **** }
 1020              		.loc 1 195 0
 1021 007c 00BF     		nop
 1022 007e 1037     		adds	r7, r7, #16
 1023              		.cfi_def_cfa_offset 8
 1024 0080 BD46     		mov	sp, r7
 1025              		.cfi_def_cfa_register 13
 1026              		@ sp needed
ARM GAS  C:\Users\JENNEW~1\AppData\Local\Temp\ccMzHkUr.s 			page 23


 1027 0082 90BC     		pop	{r4, r7}
 1028              		.cfi_restore 7
 1029              		.cfi_restore 4
 1030              		.cfi_def_cfa_offset 0
 1031 0084 7047     		bx	lr
 1032              	.L75:
 1033 0086 00BF     		.align	2
 1034              	.L74:
 1035 0088 00000000 		.word	s_default
 1036 008c 10000000 		.word	s_saved
 1037 0090 20000000 		.word	s_work
 1038 0094 34000000 		.word	s_invert_mask
 1039 0098 30000000 		.word	s_latest_counts
 1040 009c 2E000000 		.word	s_state
 1041 00a0 40000000 		.word	s_center_n
 1042              		.cfi_endproc
 1043              	.LFE72:
 1044              		.size	joystick_init, .-joystick_init
 1045              		.section	.text.joystick_on_sample,"ax",%progbits
 1046              		.align	2
 1047              		.global	joystick_on_sample
 1048              		.thumb
 1049              		.thumb_func
 1050              		.type	joystick_on_sample, %function
 1051              	joystick_on_sample:
 1052              	.LFB73:
 196:joystick.c    **** 
 197:joystick.c    **** void joystick_on_sample(const int16 counts[N_CH])
 198:joystick.c    **** {
 1053              		.loc 1 198 0
 1054              		.cfi_startproc
 1055              		@ args = 0, pretend = 0, frame = 16
 1056              		@ frame_needed = 1, uses_anonymous_args = 0
 1057 0000 80B5     		push	{r7, lr}
 1058              		.cfi_def_cfa_offset 8
 1059              		.cfi_offset 7, -8
 1060              		.cfi_offset 14, -4
 1061 0002 84B0     		sub	sp, sp, #16
 1062              		.cfi_def_cfa_offset 24
 1063 0004 00AF     		add	r7, sp, #0
 1064              		.cfi_def_cfa_register 7
 1065 0006 7860     		str	r0, [r7, #4]
 1066              	.LBB10:
 199:joystick.c    ****     // Received sample from ADC over channels
 200:joystick.c    ****     for (uint8 i = 0u; i < (uint8)N_CH; i++)
 1067              		.loc 1 200 0
 1068 0008 0023     		movs	r3, #0
 1069 000a FB73     		strb	r3, [r7, #15]
 1070 000c 0CE0     		b	.L77
 1071              	.L78:
 201:joystick.c    ****         s_latest_counts[i] = counts[i];
 1072              		.loc 1 201 0 discriminator 3
 1073 000e FB7B     		ldrb	r3, [r7, #15]	@ zero_extendqisi2
 1074 0010 FA7B     		ldrb	r2, [r7, #15]	@ zero_extendqisi2
 1075 0012 5200     		lsls	r2, r2, #1
 1076 0014 7968     		ldr	r1, [r7, #4]
 1077 0016 0A44     		add	r2, r2, r1
ARM GAS  C:\Users\JENNEW~1\AppData\Local\Temp\ccMzHkUr.s 			page 24


 1078 0018 B2F90010 		ldrsh	r1, [r2]
 1079 001c 094A     		ldr	r2, .L79
 1080 001e 22F81310 		strh	r1, [r2, r3, lsl #1]	@ movhi
 200:joystick.c    ****         s_latest_counts[i] = counts[i];
 1081              		.loc 1 200 0 discriminator 3
 1082 0022 FB7B     		ldrb	r3, [r7, #15]	@ zero_extendqisi2
 1083 0024 0133     		adds	r3, r3, #1
 1084 0026 FB73     		strb	r3, [r7, #15]
 1085              	.L77:
 200:joystick.c    ****         s_latest_counts[i] = counts[i];
 1086              		.loc 1 200 0 is_stmt 0 discriminator 1
 1087 0028 FB7B     		ldrb	r3, [r7, #15]	@ zero_extendqisi2
 1088 002a 012B     		cmp	r3, #1
 1089 002c EFD9     		bls	.L78
 1090              	.LBE10:
 202:joystick.c    **** 
 203:joystick.c    ****     // If calibration enabled these will accept counts, otherwise will pass
 204:joystick.c    ****     cal_update_ranges(counts);
 1091              		.loc 1 204 0 is_stmt 1
 1092 002e 7868     		ldr	r0, [r7, #4]
 1093 0030 FFF7FEFF 		bl	cal_update_ranges
 205:joystick.c    ****     cal_center_capture_update(counts);
 1094              		.loc 1 205 0
 1095 0034 7868     		ldr	r0, [r7, #4]
 1096 0036 FFF7FEFF 		bl	cal_center_capture_update
 206:joystick.c    **** }
 1097              		.loc 1 206 0
 1098 003a 00BF     		nop
 1099 003c 1037     		adds	r7, r7, #16
 1100              		.cfi_def_cfa_offset 8
 1101 003e BD46     		mov	sp, r7
 1102              		.cfi_def_cfa_register 13
 1103              		@ sp needed
 1104 0040 80BD     		pop	{r7, pc}
 1105              	.L80:
 1106 0042 00BF     		.align	2
 1107              	.L79:
 1108 0044 30000000 		.word	s_latest_counts
 1109              		.cfi_endproc
 1110              	.LFE73:
 1111              		.size	joystick_on_sample, .-joystick_on_sample
 1112              		.section	.text.joystick_on_key,"ax",%progbits
 1113              		.align	2
 1114              		.global	joystick_on_key
 1115              		.thumb
 1116              		.thumb_func
 1117              		.type	joystick_on_key, %function
 1118              	joystick_on_key:
 1119              	.LFB74:
 207:joystick.c    **** 
 208:joystick.c    **** // Terminal UI, this is not generalized
 209:joystick.c    **** // Handles:
 210:joystick.c    **** //  x - disable joystick
 211:joystick.c    **** //  c - start calibration
 212:joystick.c    **** void joystick_on_key(char key)
 213:joystick.c    **** {
 1120              		.loc 1 213 0
ARM GAS  C:\Users\JENNEW~1\AppData\Local\Temp\ccMzHkUr.s 			page 25


 1121              		.cfi_startproc
 1122              		@ args = 0, pretend = 0, frame = 8
 1123              		@ frame_needed = 1, uses_anonymous_args = 0
 1124 0000 80B5     		push	{r7, lr}
 1125              		.cfi_def_cfa_offset 8
 1126              		.cfi_offset 7, -8
 1127              		.cfi_offset 14, -4
 1128 0002 82B0     		sub	sp, sp, #8
 1129              		.cfi_def_cfa_offset 16
 1130 0004 00AF     		add	r7, sp, #0
 1131              		.cfi_def_cfa_register 7
 1132 0006 0346     		mov	r3, r0
 1133 0008 FB71     		strb	r3, [r7, #7]
 214:joystick.c    ****     if (key == 'x' || key == 'X')
 1134              		.loc 1 214 0
 1135 000a FB79     		ldrb	r3, [r7, #7]	@ zero_extendqisi2
 1136 000c 782B     		cmp	r3, #120
 1137 000e 02D0     		beq	.L82
 1138              		.loc 1 214 0 is_stmt 0 discriminator 1
 1139 0010 FB79     		ldrb	r3, [r7, #7]	@ zero_extendqisi2
 1140 0012 582B     		cmp	r3, #88
 1141 0014 03D1     		bne	.L83
 1142              	.L82:
 215:joystick.c    ****     {
 216:joystick.c    ****         s_state = JOY_CAL_OFF;
 1143              		.loc 1 216 0 is_stmt 1
 1144 0016 144B     		ldr	r3, .L89
 1145 0018 0022     		movs	r2, #0
 1146 001a 1A70     		strb	r2, [r3]
 217:joystick.c    ****         return;
 1147              		.loc 1 217 0
 1148 001c 20E0     		b	.L81
 1149              	.L83:
 218:joystick.c    ****     }
 219:joystick.c    **** 
 220:joystick.c    ****     if (!(key == 'c' || key == 'C'))
 1150              		.loc 1 220 0
 1151 001e FB79     		ldrb	r3, [r7, #7]	@ zero_extendqisi2
 1152 0020 632B     		cmp	r3, #99
 1153 0022 02D0     		beq	.L85
 1154              		.loc 1 220 0 is_stmt 0 discriminator 1
 1155 0024 FB79     		ldrb	r3, [r7, #7]	@ zero_extendqisi2
 1156 0026 432B     		cmp	r3, #67
 1157 0028 19D1     		bne	.L88
 1158              	.L85:
 221:joystick.c    ****         return;
 222:joystick.c    **** 
 223:joystick.c    ****     // c will advance through calibration stages
 224:joystick.c    ****     if (s_state == JOY_CAL_OFF)
 1159              		.loc 1 224 0 is_stmt 1
 1160 002a 0F4B     		ldr	r3, .L89
 1161 002c 1B78     		ldrb	r3, [r3]	@ zero_extendqisi2
 1162 002e 002B     		cmp	r3, #0
 1163 0030 03D1     		bne	.L86
 225:joystick.c    ****     {
 226:joystick.c    ****         cal_begin_range_capture(s_latest_counts);
 1164              		.loc 1 226 0
ARM GAS  C:\Users\JENNEW~1\AppData\Local\Temp\ccMzHkUr.s 			page 26


 1165 0032 0E48     		ldr	r0, .L89+4
 1166 0034 FFF7FEFF 		bl	cal_begin_range_capture
 1167 0038 12E0     		b	.L81
 1168              	.L86:
 227:joystick.c    ****     }
 228:joystick.c    ****     else if (s_state == JOY_CAL_RANGE_CAPTURE)
 1169              		.loc 1 228 0
 1170 003a 0B4B     		ldr	r3, .L89
 1171 003c 1B78     		ldrb	r3, [r3]	@ zero_extendqisi2
 1172 003e 012B     		cmp	r3, #1
 1173 0040 02D1     		bne	.L87
 229:joystick.c    ****     {
 230:joystick.c    ****         cal_start_center_capture();
 1174              		.loc 1 230 0
 1175 0042 FFF7FEFF 		bl	cal_start_center_capture
 1176 0046 0BE0     		b	.L81
 1177              	.L87:
 231:joystick.c    ****     }
 232:joystick.c    ****     else if (s_state == JOY_CAL_CENTER_CAPTURE)
 1178              		.loc 1 232 0
 1179 0048 074B     		ldr	r3, .L89
 1180 004a 1B78     		ldrb	r3, [r3]	@ zero_extendqisi2
 1181 004c 022B     		cmp	r3, #2
 1182 004e 07D0     		beq	.L81
 233:joystick.c    ****     {
 234:joystick.c    ****         // Pass
 235:joystick.c    ****     }
 236:joystick.c    ****     else if (s_state == JOY_CAL_CONFIRM_SAVE)
 1183              		.loc 1 236 0
 1184 0050 054B     		ldr	r3, .L89
 1185 0052 1B78     		ldrb	r3, [r3]	@ zero_extendqisi2
 1186 0054 032B     		cmp	r3, #3
 1187 0056 03D1     		bne	.L81
 237:joystick.c    ****     {
 238:joystick.c    ****         cal_save_or_restart();
 1188              		.loc 1 238 0
 1189 0058 FFF7FEFF 		bl	cal_save_or_restart
 1190 005c 00E0     		b	.L81
 1191              	.L88:
 221:joystick.c    **** 
 1192              		.loc 1 221 0
 1193 005e 00BF     		nop
 1194              	.L81:
 239:joystick.c    ****     }
 240:joystick.c    **** }
 1195              		.loc 1 240 0
 1196 0060 0837     		adds	r7, r7, #8
 1197              		.cfi_def_cfa_offset 8
 1198 0062 BD46     		mov	sp, r7
 1199              		.cfi_def_cfa_register 13
 1200              		@ sp needed
 1201 0064 80BD     		pop	{r7, pc}
 1202              	.L90:
 1203 0066 00BF     		.align	2
 1204              	.L89:
 1205 0068 2E000000 		.word	s_state
 1206 006c 30000000 		.word	s_latest_counts
ARM GAS  C:\Users\JENNEW~1\AppData\Local\Temp\ccMzHkUr.s 			page 27


 1207              		.cfi_endproc
 1208              	.LFE74:
 1209              		.size	joystick_on_key, .-joystick_on_key
 1210              		.section	.text.joystick_cal_state,"ax",%progbits
 1211              		.align	2
 1212              		.global	joystick_cal_state
 1213              		.thumb
 1214              		.thumb_func
 1215              		.type	joystick_cal_state, %function
 1216              	joystick_cal_state:
 1217              	.LFB75:
 241:joystick.c    **** 
 242:joystick.c    **** // Calibration state machine state getter
 243:joystick.c    **** joy_cal_state_t joystick_cal_state(void)
 244:joystick.c    **** {
 1218              		.loc 1 244 0
 1219              		.cfi_startproc
 1220              		@ args = 0, pretend = 0, frame = 0
 1221              		@ frame_needed = 1, uses_anonymous_args = 0
 1222              		@ link register save eliminated.
 1223 0000 80B4     		push	{r7}
 1224              		.cfi_def_cfa_offset 4
 1225              		.cfi_offset 7, -4
 1226 0002 00AF     		add	r7, sp, #0
 1227              		.cfi_def_cfa_register 7
 245:joystick.c    ****     return s_state;
 1228              		.loc 1 245 0
 1229 0004 024B     		ldr	r3, .L93
 1230 0006 1B78     		ldrb	r3, [r3]	@ zero_extendqisi2
 246:joystick.c    **** }
 1231              		.loc 1 246 0
 1232 0008 1846     		mov	r0, r3
 1233 000a BD46     		mov	sp, r7
 1234              		.cfi_def_cfa_register 13
 1235              		@ sp needed
 1236 000c 80BC     		pop	{r7}
 1237              		.cfi_restore 7
 1238              		.cfi_def_cfa_offset 0
 1239 000e 7047     		bx	lr
 1240              	.L94:
 1241              		.align	2
 1242              	.L93:
 1243 0010 2E000000 		.word	s_state
 1244              		.cfi_endproc
 1245              	.LFE75:
 1246              		.size	joystick_cal_state, .-joystick_cal_state
 1247              		.section	.text.joystick_get_cal,"ax",%progbits
 1248              		.align	2
 1249              		.global	joystick_get_cal
 1250              		.thumb
 1251              		.thumb_func
 1252              		.type	joystick_get_cal, %function
 1253              	joystick_get_cal:
 1254              	.LFB76:
 247:joystick.c    **** 
 248:joystick.c    **** // Getter function for calibration - Unused
 249:joystick.c    **** uint8 joystick_get_cal(joy_cal_t *out)
ARM GAS  C:\Users\JENNEW~1\AppData\Local\Temp\ccMzHkUr.s 			page 28


 250:joystick.c    **** {
 1255              		.loc 1 250 0
 1256              		.cfi_startproc
 1257              		@ args = 0, pretend = 0, frame = 8
 1258              		@ frame_needed = 1, uses_anonymous_args = 0
 1259 0000 90B5     		push	{r4, r7, lr}
 1260              		.cfi_def_cfa_offset 12
 1261              		.cfi_offset 4, -12
 1262              		.cfi_offset 7, -8
 1263              		.cfi_offset 14, -4
 1264 0002 83B0     		sub	sp, sp, #12
 1265              		.cfi_def_cfa_offset 24
 1266 0004 00AF     		add	r7, sp, #0
 1267              		.cfi_def_cfa_register 7
 1268 0006 7860     		str	r0, [r7, #4]
 251:joystick.c    ****     if (joystick_validate(&s_saved))
 1269              		.loc 1 251 0
 1270 0008 0B48     		ldr	r0, .L98
 1271 000a FFF7FEFF 		bl	joystick_validate
 1272 000e 0346     		mov	r3, r0
 1273 0010 002B     		cmp	r3, #0
 1274 0012 0BD0     		beq	.L96
 252:joystick.c    ****     {
 253:joystick.c    ****         *out = s_saved;
 1275              		.loc 1 253 0
 1276 0014 7B68     		ldr	r3, [r7, #4]
 1277 0016 084A     		ldr	r2, .L98
 1278 0018 1C46     		mov	r4, r3
 1279 001a 1346     		mov	r3, r2
 1280 001c 07CB     		ldmia	r3!, {r0, r1, r2}
 1281 001e 2060     		str	r0, [r4]	@ unaligned
 1282 0020 6160     		str	r1, [r4, #4]	@ unaligned
 1283 0022 A260     		str	r2, [r4, #8]	@ unaligned
 1284 0024 1B88     		ldrh	r3, [r3]	@ unaligned
 1285 0026 A381     		strh	r3, [r4, #12]	@ unaligned
 254:joystick.c    ****         return 1u;
 1286              		.loc 1 254 0
 1287 0028 0123     		movs	r3, #1
 1288 002a 00E0     		b	.L97
 1289              	.L96:
 255:joystick.c    ****     }
 256:joystick.c    ****     return 0u;
 1290              		.loc 1 256 0
 1291 002c 0023     		movs	r3, #0
 1292              	.L97:
 257:joystick.c    **** }
 1293              		.loc 1 257 0
 1294 002e 1846     		mov	r0, r3
 1295 0030 0C37     		adds	r7, r7, #12
 1296              		.cfi_def_cfa_offset 12
 1297 0032 BD46     		mov	sp, r7
 1298              		.cfi_def_cfa_register 13
 1299              		@ sp needed
 1300 0034 90BD     		pop	{r4, r7, pc}
 1301              	.L99:
 1302 0036 00BF     		.align	2
 1303              	.L98:
ARM GAS  C:\Users\JENNEW~1\AppData\Local\Temp\ccMzHkUr.s 			page 29


 1304 0038 10000000 		.word	s_saved
 1305              		.cfi_endproc
 1306              	.LFE76:
 1307              		.size	joystick_get_cal, .-joystick_get_cal
 1308              		.section	.text.joystick_get_raw,"ax",%progbits
 1309              		.align	2
 1310              		.global	joystick_get_raw
 1311              		.thumb
 1312              		.thumb_func
 1313              		.type	joystick_get_raw, %function
 1314              	joystick_get_raw:
 1315              	.LFB77:
 258:joystick.c    **** 
 259:joystick.c    **** // Getter function for uncalibrated samples - Unused
 260:joystick.c    **** void joystick_get_raw(int16 out_counts[N_CH])
 261:joystick.c    **** {
 1316              		.loc 1 261 0
 1317              		.cfi_startproc
 1318              		@ args = 0, pretend = 0, frame = 16
 1319              		@ frame_needed = 1, uses_anonymous_args = 0
 1320              		@ link register save eliminated.
 1321 0000 80B4     		push	{r7}
 1322              		.cfi_def_cfa_offset 4
 1323              		.cfi_offset 7, -4
 1324 0002 85B0     		sub	sp, sp, #20
 1325              		.cfi_def_cfa_offset 24
 1326 0004 00AF     		add	r7, sp, #0
 1327              		.cfi_def_cfa_register 7
 1328 0006 7860     		str	r0, [r7, #4]
 1329              	.LBB11:
 262:joystick.c    ****     for (uint8 i = 0u; i < (uint8)N_CH; i++)
 1330              		.loc 1 262 0
 1331 0008 0023     		movs	r3, #0
 1332 000a FB73     		strb	r3, [r7, #15]
 1333 000c 0BE0     		b	.L101
 1334              	.L102:
 263:joystick.c    ****         out_counts[i] = s_latest_counts[i];
 1335              		.loc 1 263 0 discriminator 3
 1336 000e FB7B     		ldrb	r3, [r7, #15]	@ zero_extendqisi2
 1337 0010 5B00     		lsls	r3, r3, #1
 1338 0012 7A68     		ldr	r2, [r7, #4]
 1339 0014 1344     		add	r3, r3, r2
 1340 0016 FA7B     		ldrb	r2, [r7, #15]	@ zero_extendqisi2
 1341 0018 0749     		ldr	r1, .L103
 1342 001a 31F91220 		ldrsh	r2, [r1, r2, lsl #1]
 1343 001e 1A80     		strh	r2, [r3]	@ movhi
 262:joystick.c    ****     for (uint8 i = 0u; i < (uint8)N_CH; i++)
 1344              		.loc 1 262 0 discriminator 3
 1345 0020 FB7B     		ldrb	r3, [r7, #15]	@ zero_extendqisi2
 1346 0022 0133     		adds	r3, r3, #1
 1347 0024 FB73     		strb	r3, [r7, #15]
 1348              	.L101:
 262:joystick.c    ****     for (uint8 i = 0u; i < (uint8)N_CH; i++)
 1349              		.loc 1 262 0 is_stmt 0 discriminator 1
 1350 0026 FB7B     		ldrb	r3, [r7, #15]	@ zero_extendqisi2
 1351 0028 012B     		cmp	r3, #1
 1352 002a F0D9     		bls	.L102
ARM GAS  C:\Users\JENNEW~1\AppData\Local\Temp\ccMzHkUr.s 			page 30


 1353              	.LBE11:
 264:joystick.c    **** }
 1354              		.loc 1 264 0 is_stmt 1
 1355 002c 00BF     		nop
 1356 002e 1437     		adds	r7, r7, #20
 1357              		.cfi_def_cfa_offset 4
 1358 0030 BD46     		mov	sp, r7
 1359              		.cfi_def_cfa_register 13
 1360              		@ sp needed
 1361 0032 80BC     		pop	{r7}
 1362              		.cfi_restore 7
 1363              		.cfi_def_cfa_offset 0
 1364 0034 7047     		bx	lr
 1365              	.L104:
 1366 0036 00BF     		.align	2
 1367              	.L103:
 1368 0038 30000000 		.word	s_latest_counts
 1369              		.cfi_endproc
 1370              	.LFE77:
 1371              		.size	joystick_get_raw, .-joystick_get_raw
 1372              		.section	.text.joystick_center_samples_collected,"ax",%progbits
 1373              		.align	2
 1374              		.global	joystick_center_samples_collected
 1375              		.thumb
 1376              		.thumb_func
 1377              		.type	joystick_center_samples_collected, %function
 1378              	joystick_center_samples_collected:
 1379              	.LFB78:
 265:joystick.c    **** 
 266:joystick.c    **** // Getter function for how many samples have been captured during calibration
 267:joystick.c    **** uint16 joystick_center_samples_collected(void)
 268:joystick.c    **** {
 1380              		.loc 1 268 0
 1381              		.cfi_startproc
 1382              		@ args = 0, pretend = 0, frame = 0
 1383              		@ frame_needed = 1, uses_anonymous_args = 0
 1384              		@ link register save eliminated.
 1385 0000 80B4     		push	{r7}
 1386              		.cfi_def_cfa_offset 4
 1387              		.cfi_offset 7, -4
 1388 0002 00AF     		add	r7, sp, #0
 1389              		.cfi_def_cfa_register 7
 269:joystick.c    ****     return s_center_n;
 1390              		.loc 1 269 0
 1391 0004 024B     		ldr	r3, .L107
 1392 0006 1B88     		ldrh	r3, [r3]
 270:joystick.c    **** }
 1393              		.loc 1 270 0
 1394 0008 1846     		mov	r0, r3
 1395 000a BD46     		mov	sp, r7
 1396              		.cfi_def_cfa_register 13
 1397              		@ sp needed
 1398 000c 80BC     		pop	{r7}
 1399              		.cfi_restore 7
 1400              		.cfi_def_cfa_offset 0
 1401 000e 7047     		bx	lr
 1402              	.L108:
ARM GAS  C:\Users\JENNEW~1\AppData\Local\Temp\ccMzHkUr.s 			page 31


 1403              		.align	2
 1404              	.L107:
 1405 0010 40000000 		.word	s_center_n
 1406              		.cfi_endproc
 1407              	.LFE78:
 1408              		.size	joystick_center_samples_collected, .-joystick_center_samples_collected
 1409              		.global	__aeabi_fmul
 1410              		.section	.text.joystick_get_cmd,"ax",%progbits
 1411              		.align	2
 1412              		.global	joystick_get_cmd
 1413              		.thumb
 1414              		.thumb_func
 1415              		.type	joystick_get_cmd, %function
 1416              	joystick_get_cmd:
 1417              	.LFB79:
 271:joystick.c    **** 
 272:joystick.c    **** // Main API call
 273:joystick.c    **** // Takes raw ADC and converts to normalized joystick output.
 274:joystick.c    **** void joystick_get_cmd(joy_cmd_t *out_cmd)
 275:joystick.c    **** {
 1418              		.loc 1 275 0
 1419              		.cfi_startproc
 1420              		@ args = 0, pretend = 0, frame = 24
 1421              		@ frame_needed = 1, uses_anonymous_args = 0
 1422 0000 90B5     		push	{r4, r7, lr}
 1423              		.cfi_def_cfa_offset 12
 1424              		.cfi_offset 4, -12
 1425              		.cfi_offset 7, -8
 1426              		.cfi_offset 14, -4
 1427 0002 87B0     		sub	sp, sp, #28
 1428              		.cfi_def_cfa_offset 40
 1429 0004 00AF     		add	r7, sp, #0
 1430              		.cfi_def_cfa_register 7
 1431 0006 7860     		str	r0, [r7, #4]
 276:joystick.c    ****     // Grab default cal, and use user calibration only if its valid.
 277:joystick.c    ****     const joy_cal_t *cal = &s_default;
 1432              		.loc 1 277 0
 1433 0008 304B     		ldr	r3, .L120
 1434 000a 7B61     		str	r3, [r7, #20]
 278:joystick.c    ****     if (joystick_validate(&s_saved))
 1435              		.loc 1 278 0
 1436 000c 3048     		ldr	r0, .L120+4
 1437 000e FFF7FEFF 		bl	joystick_validate
 1438 0012 0346     		mov	r3, r0
 1439 0014 002B     		cmp	r3, #0
 1440 0016 01D0     		beq	.L110
 279:joystick.c    ****     {
 280:joystick.c    ****         cal = &s_saved;
 1441              		.loc 1 280 0
 1442 0018 2D4B     		ldr	r3, .L120+4
 1443 001a 7B61     		str	r3, [r7, #20]
 1444              	.L110:
 1445              	.LBB12:
 281:joystick.c    ****     }
 282:joystick.c    **** 
 283:joystick.c    ****     // For each channel
 284:joystick.c    ****     for (uint8 i = 0u; i < (uint8)N_CH; i++)
ARM GAS  C:\Users\JENNEW~1\AppData\Local\Temp\ccMzHkUr.s 			page 32


 1446              		.loc 1 284 0
 1447 001c 0023     		movs	r3, #0
 1448 001e FB74     		strb	r3, [r7, #19]
 1449 0020 4CE0     		b	.L111
 1450              	.L117:
 1451              	.LBB13:
 285:joystick.c    ****     {
 286:joystick.c    ****         // Linear normalize between min, center, and max
 287:joystick.c    ****         float u = normalize_axis(s_latest_counts[i], cal->minv[i], cal->center[i], cal->maxv[i]);
 1452              		.loc 1 287 0
 1453 0022 FB7C     		ldrb	r3, [r7, #19]	@ zero_extendqisi2
 1454 0024 2B4A     		ldr	r2, .L120+8
 1455 0026 32F91300 		ldrsh	r0, [r2, r3, lsl #1]
 1456 002a FA7C     		ldrb	r2, [r7, #19]	@ zero_extendqisi2
 1457 002c 7B69     		ldr	r3, [r7, #20]
 1458 002e 33F91210 		ldrsh	r1, [r3, r2, lsl #1]
 1459 0032 FA7C     		ldrb	r2, [r7, #19]	@ zero_extendqisi2
 1460 0034 7B69     		ldr	r3, [r7, #20]
 1461 0036 0432     		adds	r2, r2, #4
 1462 0038 33F91240 		ldrsh	r4, [r3, r2, lsl #1]
 1463 003c FB7C     		ldrb	r3, [r7, #19]	@ zero_extendqisi2
 1464 003e 7A69     		ldr	r2, [r7, #20]
 1465 0040 5B00     		lsls	r3, r3, #1
 1466 0042 1344     		add	r3, r3, r2
 1467 0044 B3F90430 		ldrsh	r3, [r3, #4]
 1468 0048 2246     		mov	r2, r4
 1469 004a FFF7FEFF 		bl	normalize_axis
 1470 004e F860     		str	r0, [r7, #12]	@ float
 288:joystick.c    ****         // Zeroes anything within 5% of center
 289:joystick.c    ****         u = apply_deadband(u, (float)JOY_DEADBAND);
 1471              		.loc 1 289 0
 1472 0050 2149     		ldr	r1, .L120+12
 1473 0052 F868     		ldr	r0, [r7, #12]	@ float
 1474 0054 FFF7FEFF 		bl	apply_deadband
 1475 0058 F860     		str	r0, [r7, #12]	@ float
 290:joystick.c    **** 
 291:joystick.c    ****         // Flips x axis for pan
 292:joystick.c    ****         if ((s_invert_mask >> i) & 0x1u)
 1476              		.loc 1 292 0
 1477 005a 204B     		ldr	r3, .L120+16
 1478 005c 1A68     		ldr	r2, [r3]
 1479 005e FB7C     		ldrb	r3, [r7, #19]	@ zero_extendqisi2
 1480 0060 22FA03F3 		lsr	r3, r2, r3
 1481 0064 03F00103 		and	r3, r3, #1
 1482 0068 002B     		cmp	r3, #0
 1483 006a 03D0     		beq	.L112
 293:joystick.c    ****             u = -u;
 1484              		.loc 1 293 0
 1485 006c FB68     		ldr	r3, [r7, #12]
 1486 006e 83F00043 		eor	r3, r3, #-2147483648
 1487 0072 FB60     		str	r3, [r7, #12]	@ float
 1488              	.L112:
 294:joystick.c    **** 
 295:joystick.c    ****         // Scale by global variable so user can tune output to different limits
 296:joystick.c    ****         u *= s_sensitivity_multiplier;
 1489              		.loc 1 296 0
 1490 0074 1A4B     		ldr	r3, .L120+20
ARM GAS  C:\Users\JENNEW~1\AppData\Local\Temp\ccMzHkUr.s 			page 33


 1491 0076 1B68     		ldr	r3, [r3]	@ float
 1492 0078 1946     		mov	r1, r3
 1493 007a F868     		ldr	r0, [r7, #12]	@ float
 1494 007c FFF7FEFF 		bl	__aeabi_fmul
 1495 0080 0346     		mov	r3, r0
 1496 0082 FB60     		str	r3, [r7, #12]	@ float
 297:joystick.c    ****         if (u > (float)CMD_MAX) u = (float)CMD_MAX;
 1497              		.loc 1 297 0
 1498 0084 4FF07E51 		mov	r1, #1065353216
 1499 0088 F868     		ldr	r0, [r7, #12]	@ float
 1500 008a FFF7FEFF 		bl	__aeabi_fcmpgt
 1501 008e 0346     		mov	r3, r0
 1502 0090 002B     		cmp	r3, #0
 1503 0092 02D0     		beq	.L113
 1504              		.loc 1 297 0 is_stmt 0 discriminator 1
 1505 0094 4FF07E53 		mov	r3, #1065353216
 1506 0098 FB60     		str	r3, [r7, #12]	@ float
 1507              	.L113:
 298:joystick.c    ****         if (u < -(float)CMD_MAX) u = -(float)CMD_MAX;
 1508              		.loc 1 298 0 is_stmt 1
 1509 009a 1249     		ldr	r1, .L120+24
 1510 009c F868     		ldr	r0, [r7, #12]	@ float
 1511 009e FFF7FEFF 		bl	__aeabi_fcmplt
 1512 00a2 0346     		mov	r3, r0
 1513 00a4 002B     		cmp	r3, #0
 1514 00a6 01D0     		beq	.L115
 1515              		.loc 1 298 0 is_stmt 0 discriminator 1
 1516 00a8 0E4B     		ldr	r3, .L120+24
 1517 00aa FB60     		str	r3, [r7, #12]	@ float
 1518              	.L115:
 299:joystick.c    ****         out_cmd->u[i] = u;
 1519              		.loc 1 299 0 is_stmt 1 discriminator 2
 1520 00ac FA7C     		ldrb	r2, [r7, #19]	@ zero_extendqisi2
 1521 00ae 7B68     		ldr	r3, [r7, #4]
 1522 00b0 F968     		ldr	r1, [r7, #12]	@ float
 1523 00b2 43F82210 		str	r1, [r3, r2, lsl #2]	@ float
 1524              	.LBE13:
 284:joystick.c    ****     {
 1525              		.loc 1 284 0 discriminator 2
 1526 00b6 FB7C     		ldrb	r3, [r7, #19]	@ zero_extendqisi2
 1527 00b8 0133     		adds	r3, r3, #1
 1528 00ba FB74     		strb	r3, [r7, #19]
 1529              	.L111:
 284:joystick.c    ****     {
 1530              		.loc 1 284 0 is_stmt 0 discriminator 1
 1531 00bc FB7C     		ldrb	r3, [r7, #19]	@ zero_extendqisi2
 1532 00be 012B     		cmp	r3, #1
 1533 00c0 AFD9     		bls	.L117
 1534              	.LBE12:
 300:joystick.c    ****     }
 301:joystick.c    **** }
 1535              		.loc 1 301 0 is_stmt 1
 1536 00c2 00BF     		nop
 1537 00c4 1C37     		adds	r7, r7, #28
 1538              		.cfi_def_cfa_offset 12
 1539 00c6 BD46     		mov	sp, r7
 1540              		.cfi_def_cfa_register 13
ARM GAS  C:\Users\JENNEW~1\AppData\Local\Temp\ccMzHkUr.s 			page 34


 1541              		@ sp needed
 1542 00c8 90BD     		pop	{r4, r7, pc}
 1543              	.L121:
 1544 00ca 00BF     		.align	2
 1545              	.L120:
 1546 00cc 00000000 		.word	s_default
 1547 00d0 10000000 		.word	s_saved
 1548 00d4 30000000 		.word	s_latest_counts
 1549 00d8 CDCC4C3D 		.word	1028443341
 1550 00dc 34000000 		.word	s_invert_mask
 1551 00e0 00000000 		.word	s_sensitivity_multiplier
 1552 00e4 000080BF 		.word	-1082130432
 1553              		.cfi_endproc
 1554              	.LFE79:
 1555              		.size	joystick_get_cmd, .-joystick_get_cmd
 1556              		.section	.text.joystick_save,"ax",%progbits
 1557              		.align	2
 1558              		.global	joystick_save
 1559              		.thumb
 1560              		.thumb_func
 1561              		.type	joystick_save, %function
 1562              	joystick_save:
 1563              	.LFB80:
 302:joystick.c    **** /* Save current calibration to EEPROM.
 303:joystick.c    ****  * Returns 1 on success, 0 if cal invalid or write failed. */
 304:joystick.c    **** uint8 joystick_save(void)
 305:joystick.c    **** {
 1564              		.loc 1 305 0
 1565              		.cfi_startproc
 1566              		@ args = 0, pretend = 0, frame = 16
 1567              		@ frame_needed = 1, uses_anonymous_args = 0
 1568 0000 80B5     		push	{r7, lr}
 1569              		.cfi_def_cfa_offset 8
 1570              		.cfi_offset 7, -8
 1571              		.cfi_offset 14, -4
 1572 0002 84B0     		sub	sp, sp, #16
 1573              		.cfi_def_cfa_offset 24
 1574 0004 00AF     		add	r7, sp, #0
 1575              		.cfi_def_cfa_register 7
 306:joystick.c    ****     joy_cal_t cal;
 307:joystick.c    ****     if (!joystick_get_cal(&cal)) return 0u;
 1576              		.loc 1 307 0
 1577 0006 3B46     		mov	r3, r7
 1578 0008 1846     		mov	r0, r3
 1579 000a FFF7FEFF 		bl	joystick_get_cal
 1580 000e 0346     		mov	r3, r0
 1581 0010 002B     		cmp	r3, #0
 1582 0012 01D1     		bne	.L123
 1583              		.loc 1 307 0 is_stmt 0 discriminator 1
 1584 0014 0023     		movs	r3, #0
 1585 0016 06E0     		b	.L125
 1586              	.L123:
 308:joystick.c    ****     return psoc_eeprom_write(PSOC_EEPROM_SLOT_JOY_CAL,
 1587              		.loc 1 308 0 is_stmt 1
 1588 0018 3B46     		mov	r3, r7
 1589 001a 0E22     		movs	r2, #14
 1590 001c 1946     		mov	r1, r3
ARM GAS  C:\Users\JENNEW~1\AppData\Local\Temp\ccMzHkUr.s 			page 35


 1591 001e 0120     		movs	r0, #1
 1592 0020 FFF7FEFF 		bl	psoc_eeprom_write
 1593 0024 0346     		mov	r3, r0
 1594              	.L125:
 309:joystick.c    ****                              &cal, (uint8)sizeof(joy_cal_t));
 310:joystick.c    **** }
 1595              		.loc 1 310 0 discriminator 1
 1596 0026 1846     		mov	r0, r3
 1597 0028 1037     		adds	r7, r7, #16
 1598              		.cfi_def_cfa_offset 8
 1599 002a BD46     		mov	sp, r7
 1600              		.cfi_def_cfa_register 13
 1601              		@ sp needed
 1602 002c 80BD     		pop	{r7, pc}
 1603              		.cfi_endproc
 1604              	.LFE80:
 1605              		.size	joystick_save, .-joystick_save
 1606 002e 00BF     		.section	.text.joystick_load,"ax",%progbits
 1607              		.align	2
 1608              		.global	joystick_load
 1609              		.thumb
 1610              		.thumb_func
 1611              		.type	joystick_load, %function
 1612              	joystick_load:
 1613              	.LFB81:
 311:joystick.c    ****  
 312:joystick.c    **** /* Load calibration from EEPROM and apply it.
 313:joystick.c    ****  * Calls joystick_init internally with loaded cal.
 314:joystick.c    ****  * invert_mask is re-applied from the caller's value.
 315:joystick.c    ****  * Returns 1 if loaded and applied, 0 if no saved cal found. */
 316:joystick.c    **** uint8 joystick_load(uint32 invert_mask)
 317:joystick.c    **** {
 1614              		.loc 1 317 0
 1615              		.cfi_startproc
 1616              		@ args = 0, pretend = 0, frame = 24
 1617              		@ frame_needed = 1, uses_anonymous_args = 0
 1618 0000 80B5     		push	{r7, lr}
 1619              		.cfi_def_cfa_offset 8
 1620              		.cfi_offset 7, -8
 1621              		.cfi_offset 14, -4
 1622 0002 86B0     		sub	sp, sp, #24
 1623              		.cfi_def_cfa_offset 32
 1624 0004 00AF     		add	r7, sp, #0
 1625              		.cfi_def_cfa_register 7
 1626 0006 7860     		str	r0, [r7, #4]
 318:joystick.c    ****     joy_cal_t cal;
 319:joystick.c    ****     if (!psoc_eeprom_read(PSOC_EEPROM_SLOT_JOY_CAL,
 1627              		.loc 1 319 0
 1628 0008 07F10803 		add	r3, r7, #8
 1629 000c 0E22     		movs	r2, #14
 1630 000e 1946     		mov	r1, r3
 1631 0010 0120     		movs	r0, #1
 1632 0012 FFF7FEFF 		bl	psoc_eeprom_read
 1633 0016 0346     		mov	r3, r0
 1634 0018 002B     		cmp	r3, #0
 1635 001a 01D1     		bne	.L127
 320:joystick.c    ****                           &cal, (uint8)sizeof(joy_cal_t))) return 0u;
ARM GAS  C:\Users\JENNEW~1\AppData\Local\Temp\ccMzHkUr.s 			page 36


 1636              		.loc 1 320 0
 1637 001c 0023     		movs	r3, #0
 1638 001e 10E0     		b	.L130
 1639              	.L127:
 321:joystick.c    ****     if (!joystick_validate(&cal)) return 0u;
 1640              		.loc 1 321 0
 1641 0020 07F10803 		add	r3, r7, #8
 1642 0024 1846     		mov	r0, r3
 1643 0026 FFF7FEFF 		bl	joystick_validate
 1644 002a 0346     		mov	r3, r0
 1645 002c 002B     		cmp	r3, #0
 1646 002e 01D1     		bne	.L129
 1647              		.loc 1 321 0 is_stmt 0 discriminator 1
 1648 0030 0023     		movs	r3, #0
 1649 0032 06E0     		b	.L130
 1650              	.L129:
 322:joystick.c    ****     joystick_init(&cal, invert_mask);
 1651              		.loc 1 322 0 is_stmt 1
 1652 0034 07F10803 		add	r3, r7, #8
 1653 0038 7968     		ldr	r1, [r7, #4]
 1654 003a 1846     		mov	r0, r3
 1655 003c FFF7FEFF 		bl	joystick_init
 323:joystick.c    ****     return 1u;
 1656              		.loc 1 323 0
 1657 0040 0123     		movs	r3, #1
 1658              	.L130:
 324:joystick.c    **** }
 1659              		.loc 1 324 0 discriminator 1
 1660 0042 1846     		mov	r0, r3
 1661 0044 1837     		adds	r7, r7, #24
 1662              		.cfi_def_cfa_offset 8
 1663 0046 BD46     		mov	sp, r7
 1664              		.cfi_def_cfa_register 13
 1665              		@ sp needed
 1666 0048 80BD     		pop	{r7, pc}
 1667              		.cfi_endproc
 1668              	.LFE81:
 1669              		.size	joystick_load, .-joystick_load
 1670 004a 00BF     		.text
 1671              	.Letext0:
 1672              		.file 2 "c:\\program files (x86)\\cypress\\psoc creator\\4.4\\psoc creator\\import\\gnu\\arm\\5.4.
 1673              		.file 3 "c:\\program files (x86)\\cypress\\psoc creator\\4.4\\psoc creator\\import\\gnu\\arm\\5.4.
 1674              		.file 4 "Generated_Source\\PSoC5/cytypes.h"
 1675              		.file 5 "joystick.h"
 1676              		.file 6 "Generated_Source\\PSoC5/core_cm3.h"