ARM GAS  C:\Users\JENNEW~1\AppData\Local\Temp\ccMzHkUr.s 			page 1


   1              		.syntax unified
   2              		.cpu cortex-m3
   3              		.fpu softvfp
   4              		.eabi_attribute 20, 1
   5              		.eabi_attribute 21, 1
   6              		.eabi_attribute 23, 3
   7              		.eabi_attribute 24, 1
   8              		.eabi_attribute 25, 1
   9              		.eabi_attribute 26, 1
  10              		.eabi_attribute 30, 6
  11              		.eabi_attribute 34, 1
  12              		.eabi_attribute 18, 4
  13              		.thumb
  14              		.syntax unified
  15              		.file	"joystick.c"
  16              		.text
  17              	.Ltext0:
  18              		.cfi_sections	.debug_frame
  19              		.bss
  20              		.align	2
  21              	s_default:
  22 0000 00000000 		.space	14
  22      00000000 
  22      00000000 
  22      0000
  23 000e 0000     		.align	2
  24              	s_saved:
  25 0010 00000000 		.space	14
  25      00000000 
  25      00000000 
  25      0000
  26 001e 0000     		.align	2
  27              	s_work:
  28 0020 00000000 		.space	14
  28      00000000 
  28      00000000 
  28      0000
  29              	s_state:
  30 002e 00       		.space	1
  31 002f 00       		.align	2
  32              	s_latest_counts:
  33 0030 00000000 		.space	4
  34              		.align	2
  35              	s_invert_mask:
  36 0034 00000000 		.space	4
  37              		.align	2
  38              	s_center_sum:
  39 0038 00000000 		.space	8
  39      00000000 
  40              		.align	1
  41              	s_center_n:
  42 0040 0000     		.space	2
  43              		.data
  44              		.align	2
  45              		.type	s_sensitivity_multiplier, %object
  46              		.size	s_sensitivity_multiplier, 4
  47              	s_sensitivity_multiplier:
ARM GAS  C:\Users\JENNEW~1\AppData\Local\Temp\ccMzHkUr.s 			page 2


  48 0000 0000803F 		.word	1065353216
  49              		.section	.text.joystick_set_sensitivity,"ax",%progbits
  50              		.align	2
  51              		.global	joystick_set_sensitivity
  52              		.thumb
  53              		.thumb_func
  54              		.type	joystick_set_sensitivity, %function
  55              	joystick_set_sensitivity:
  56              	.LFB63:
  57              		.file 1 "joystick.c"
   1:joystick.c    **** /* ========================================
   2:joystick.c    ****  *
   3:joystick.c    ****  * Copyright Hamish Johnson, 2026
   4:joystick.c    ****  * All Rights Reserved
   5:joystick.c    ****  * UNPUBLISHED, LICENSED SOFTWARE.
   6:joystick.c    ****  *
   7:joystick.c    ****  * CONFIDENTIAL AND PROPRIETARY INFORMATION
   8:joystick.c    ****  * WHICH IS THE PROPERTY OF 
   9:joystick.c    ****  * Quantum Internet Systems Lab (QISL),
  10:joystick.c    ****  * Department of Physics, SFU, Canada.
  11:joystick.c    ****  *
  12:joystick.c    ****  * Author: Hamish Johnson (2026)
  13:joystick.c    ****  *
  14:joystick.c    ****  * ========================================
  15:joystick.c    ****  *
  16:joystick.c    ****  * This code helps callibrate ADC inpit for
  17:joystick.c    ****  * use as a joystick.
  18:joystick.c    **** */
  19:joystick.c    **** 
  20:joystick.c    **** #include "joystick.h"
  21:joystick.c    **** #include "psoc_eeprom.h"
  22:joystick.c    **** 
  23:joystick.c    **** // Persistent states
  24:joystick.c    **** static joy_cal_t s_default;
  25:joystick.c    **** static joy_cal_t s_saved;
  26:joystick.c    **** static joy_cal_t s_work;
  27:joystick.c    **** 
  28:joystick.c    **** static joy_cal_state_t s_state = JOY_CAL_OFF;
  29:joystick.c    **** 
  30:joystick.c    **** static int16 s_latest_counts[N_CH];
  31:joystick.c    **** static uint32 s_invert_mask = 0u;
  32:joystick.c    **** 
  33:joystick.c    **** // Variables to capture joystick centered from average.
  34:joystick.c    **** static int32  s_center_sum[N_CH];
  35:joystick.c    **** static uint16 s_center_n = 0u;
  36:joystick.c    **** 
  37:joystick.c    **** static float s_sensitivity_multiplier = 1.0f;
  38:joystick.c    **** void joystick_set_sensitivity(joy_sensitivity_t level) {
  58              		.loc 1 38 0
  59              		.cfi_startproc
  60              		@ args = 0, pretend = 0, frame = 8
  61              		@ frame_needed = 1, uses_anonymous_args = 0
  62              		@ link register save eliminated.
  63 0000 80B4     		push	{r7}
  64              		.cfi_def_cfa_offset 4
  65              		.cfi_offset 7, -4
  66 0002 83B0     		sub	sp, sp, #12
ARM GAS  C:\Users\JENNEW~1\AppData\Local\Temp\ccMzHkUr.s 			page 3


  67              		.cfi_def_cfa_offset 16
  68 0004 00AF     		add	r7, sp, #0
  69              		.cfi_def_cfa_register 7
  70 0006 0346     		mov	r3, r0
  71 0008 FB71     		strb	r3, [r7, #7]
  39:joystick.c    ****     switch(level) {
  72              		.loc 1 39 0
  73 000a FB79     		ldrb	r3, [r7, #7]	@ zero_extendqisi2
  74 000c 012B     		cmp	r3, #1
  75 000e 08D0     		beq	.L3
  76 0010 022B     		cmp	r3, #2
  77 0012 0BD0     		beq	.L4
  78 0014 002B     		cmp	r3, #0
  79 0016 00D0     		beq	.L5
  40:joystick.c    ****         case SENSE_LOW:  s_sensitivity_multiplier = 0.1f; break;
  41:joystick.c    ****         case SENSE_MED:  s_sensitivity_multiplier = 0.5f; break;
  42:joystick.c    ****         case SENSE_HIGH: s_sensitivity_multiplier = 1.0f; break;
  43:joystick.c    ****     }
  44:joystick.c    **** }
  80              		.loc 1 44 0
  81 0018 0DE0     		b	.L6
  82              	.L5:
  40:joystick.c    ****         case SENSE_LOW:  s_sensitivity_multiplier = 0.1f; break;
  83              		.loc 1 40 0
  84 001a 094B     		ldr	r3, .L7
  85 001c 094A     		ldr	r2, .L7+4
  86 001e 1A60     		str	r2, [r3]	@ float
  87 0020 09E0     		b	.L2
  88              	.L3:
  41:joystick.c    ****         case SENSE_HIGH: s_sensitivity_multiplier = 1.0f; break;
  89              		.loc 1 41 0
  90 0022 074B     		ldr	r3, .L7
  91 0024 4FF07C52 		mov	r2, #1056964608
  92 0028 1A60     		str	r2, [r3]	@ float
  93 002a 04E0     		b	.L2
  94              	.L4:
  42:joystick.c    ****     }
  95              		.loc 1 42 0
  96 002c 044B     		ldr	r3, .L7
  97 002e 4FF07E52 		mov	r2, #1065353216
  98 0032 1A60     		str	r2, [r3]	@ float
  99 0034 00BF     		nop
 100              	.L2:
 101              	.L6:
 102              		.loc 1 44 0
 103 0036 00BF     		nop
 104 0038 0C37     		adds	r7, r7, #12
 105              		.cfi_def_cfa_offset 4
 106 003a BD46     		mov	sp, r7
 107              		.cfi_def_cfa_register 13
 108              		@ sp needed
 109 003c 80BC     		pop	{r7}
 110              		.cfi_restore 7
 111              		.cfi_def_cfa_offset 0
 112 003e 7047     		bx	lr
 113              	.L8:
 114              		.align	2
ARM GAS  C:\Users\JENNEW~1\AppData\Local\Temp\ccMzHkUr.s 			page 4


 115              	.L7:
 116 0040 00000000 		.word	s_sensitivity_multiplier
 117 0044 CDCCCC3D 		.word	1036831949
 118              		.cfi_endproc
 119              	.LFE63:
 120              		.size	joystick_set_sensitivity, .-joystick_set_sensitivity
 121              		.global	__aeabi_i2f
 122              		.global	__aeabi_fdiv
 123              		.section	.text.normalize_axis,"ax",%progbits
 124              		.align	2
 125              		.thumb
 126              		.thumb_func
 127              		.type	normalize_axis, %function
 128              	normalize_axis:
 129              	.LFB64:
  45:joystick.c    **** 
  46:joystick.c    **** // Helper - Normalizes within +/-1
  47:joystick.c    **** static float normalize_axis(int16 c, int16 cmin, int16 ccenter, int16 cmax)
  48:joystick.c    **** {
 130              		.loc 1 48 0
 131              		.cfi_startproc
 132              		@ args = 0, pretend = 0, frame = 16
 133              		@ frame_needed = 1, uses_anonymous_args = 0
 134 0000 90B5     		push	{r4, r7, lr}
 135              		.cfi_def_cfa_offset 12
 136              		.cfi_offset 4, -12
 137              		.cfi_offset 7, -8
 138              		.cfi_offset 14, -4
 139 0002 85B0     		sub	sp, sp, #20
 140              		.cfi_def_cfa_offset 32
 141 0004 00AF     		add	r7, sp, #0
 142              		.cfi_def_cfa_register 7
 143 0006 0446     		mov	r4, r0
 144 0008 0846     		mov	r0, r1
 145 000a 1146     		mov	r1, r2
 146 000c 1A46     		mov	r2, r3
 147 000e 2346     		mov	r3, r4	@ movhi
 148 0010 FB80     		strh	r3, [r7, #6]	@ movhi
 149 0012 0346     		mov	r3, r0	@ movhi
 150 0014 BB80     		strh	r3, [r7, #4]	@ movhi
 151 0016 0B46     		mov	r3, r1	@ movhi
 152 0018 7B80     		strh	r3, [r7, #2]	@ movhi
 153 001a 1346     		mov	r3, r2	@ movhi
 154 001c 3B80     		strh	r3, [r7]	@ movhi
  49:joystick.c    ****     if (c < cmin) c = cmin;
 155              		.loc 1 49 0
 156 001e B7F90620 		ldrsh	r2, [r7, #6]
 157 0022 B7F90430 		ldrsh	r3, [r7, #4]
 158 0026 9A42     		cmp	r2, r3
 159 0028 01DA     		bge	.L10
 160              		.loc 1 49 0 is_stmt 0 discriminator 1
 161 002a BB88     		ldrh	r3, [r7, #4]	@ movhi
 162 002c FB80     		strh	r3, [r7, #6]	@ movhi
 163              	.L10:
  50:joystick.c    ****     if (c > cmax) c = cmax;
 164              		.loc 1 50 0 is_stmt 1
 165 002e B7F90620 		ldrsh	r2, [r7, #6]
ARM GAS  C:\Users\JENNEW~1\AppData\Local\Temp\ccMzHkUr.s 			page 5


 166 0032 B7F90030 		ldrsh	r3, [r7]
 167 0036 9A42     		cmp	r2, r3
 168 0038 01DD     		ble	.L11
 169              		.loc 1 50 0 is_stmt 0 discriminator 1
 170 003a 3B88     		ldrh	r3, [r7]	@ movhi
 171 003c FB80     		strh	r3, [r7, #6]	@ movhi
 172              	.L11:
  51:joystick.c    **** 
  52:joystick.c    ****     int16 span_pos = (int16)(cmax - ccenter);
 173              		.loc 1 52 0 is_stmt 1
 174 003e 3A88     		ldrh	r2, [r7]
 175 0040 7B88     		ldrh	r3, [r7, #2]
 176 0042 D31A     		subs	r3, r2, r3
 177 0044 9BB2     		uxth	r3, r3
 178 0046 FB81     		strh	r3, [r7, #14]	@ movhi
  53:joystick.c    ****     int16 span_neg = (int16)(ccenter - cmin);
 179              		.loc 1 53 0
 180 0048 7A88     		ldrh	r2, [r7, #2]
 181 004a BB88     		ldrh	r3, [r7, #4]
 182 004c D31A     		subs	r3, r2, r3
 183 004e 9BB2     		uxth	r3, r3
 184 0050 BB81     		strh	r3, [r7, #12]	@ movhi
  54:joystick.c    **** 
  55:joystick.c    ****     if (span_pos <= 0) span_pos = 1;
 185              		.loc 1 55 0
 186 0052 B7F90E30 		ldrsh	r3, [r7, #14]
 187 0056 002B     		cmp	r3, #0
 188 0058 01DC     		bgt	.L12
 189              		.loc 1 55 0 is_stmt 0 discriminator 1
 190 005a 0123     		movs	r3, #1
 191 005c FB81     		strh	r3, [r7, #14]	@ movhi
 192              	.L12:
  56:joystick.c    ****     if (span_neg <= 0) span_neg = 1;
 193              		.loc 1 56 0 is_stmt 1
 194 005e B7F90C30 		ldrsh	r3, [r7, #12]
 195 0062 002B     		cmp	r3, #0
 196 0064 01DC     		bgt	.L13
 197              		.loc 1 56 0 is_stmt 0 discriminator 1
 198 0066 0123     		movs	r3, #1
 199 0068 BB81     		strh	r3, [r7, #12]	@ movhi
 200              	.L13:
  57:joystick.c    **** 
  58:joystick.c    ****     if (c >= ccenter)
 201              		.loc 1 58 0 is_stmt 1
 202 006a B7F90620 		ldrsh	r2, [r7, #6]
 203 006e B7F90230 		ldrsh	r3, [r7, #2]
 204 0072 9A42     		cmp	r2, r3
 205 0074 14DB     		blt	.L14
  59:joystick.c    ****         return (float)(c - ccenter) / (float)span_pos;  // 0..+1
 206              		.loc 1 59 0
 207 0076 B7F90620 		ldrsh	r2, [r7, #6]
 208 007a B7F90230 		ldrsh	r3, [r7, #2]
 209 007e D31A     		subs	r3, r2, r3
 210 0080 1846     		mov	r0, r3
 211 0082 FFF7FEFF 		bl	__aeabi_i2f
 212 0086 0446     		mov	r4, r0
 213 0088 B7F90E30 		ldrsh	r3, [r7, #14]
ARM GAS  C:\Users\JENNEW~1\AppData\Local\Temp\ccMzHkUr.s 			page 6


 214 008c 1846     		mov	r0, r3
 215 008e FFF7FEFF 		bl	__aeabi_i2f
 216 0092 0346     		mov	r3, r0
 217 0094 1946     		mov	r1, r3
 218 0096 2046     		mov	r0, r4
 219 0098 FFF7FEFF 		bl	__aeabi_fdiv
 220 009c 0346     		mov	r3, r0
 221 009e 13E0     		b	.L15
 222              	.L14:
  60:joystick.c    ****     else
  61:joystick.c    ****         return (float)(c - ccenter) / (float)span_neg;  // 0..-1
 223              		.loc 1 61 0
 224 00a0 B7F90620 		ldrsh	r2, [r7, #6]
 225 00a4 B7F90230 		ldrsh	r3, [r7, #2]
 226 00a8 D31A     		subs	r3, r2, r3
 227 00aa 1846     		mov	r0, r3
 228 00ac FFF7FEFF 		bl	__aeabi_i2f
 229 00b0 0446     		mov	r4, r0
 230 00b2 B7F90C30 		ldrsh	r3, [r7, #12]
 231 00b6 1846     		mov	r0, r3
 232 00b8 FFF7FEFF 		bl	__aeabi_i2f
 233 00bc 0346     		mov	r3, r0
 234 00be 1946     		mov	r1, r3
 235 00c0 2046     		mov	r0, r4
 236 00c2 FFF7FEFF 		bl	__aeabi_fdiv
 237 00c6 0346     		mov	r3, r0
 238              	.L15:
  62:joystick.c    **** }
 239              		.loc 1 62 0
 240 00c8 1846     		mov	r0, r3
 241 00ca 1437     		adds	r7, r7, #20
 242              		.cfi_def_cfa_offset 12
 243 00cc BD46     		mov	sp, r7
 244              		.cfi_def_cfa_register 13
 245              		@ sp needed
 246 00ce 90BD     		pop	{r4, r7, pc}
 247              		.cfi_endproc
 248              	.LFE64:
 249              		.size	normalize_axis, .-normalize_axis
 250              		.global	__aeabi_fcmplt
 251              		.global	__aeabi_fcmpgt
 252              		.global	__aeabi_fsub
 253              		.global	__aeabi_fadd
 254              		.section	.text.apply_deadband,"ax",%progbits
 255              		.align	2
 256              		.thumb
 257              		.thumb_func
 258              		.type	apply_deadband, %function
 259              	apply_deadband:
 260              	.LFB65:
  63:joystick.c    **** 
  64:joystick.c    **** // Helper - Deadband central region to avoid fluctuations
  65:joystick.c    **** static float apply_deadband(float u, float db)
  66:joystick.c    **** {
 261              		.loc 1 66 0
 262              		.cfi_startproc
 263              		@ args = 0, pretend = 0, frame = 8
ARM GAS  C:\Users\JENNEW~1\AppData\Local\Temp\ccMzHkUr.s 			page 7


 264              		@ frame_needed = 1, uses_anonymous_args = 0
 265 0000 90B5     		push	{r4, r7, lr}
 266              		.cfi_def_cfa_offset 12
 267              		.cfi_offset 4, -12
 268              		.cfi_offset 7, -8
 269              		.cfi_offset 14, -4
 270 0002 83B0     		sub	sp, sp, #12
 271              		.cfi_def_cfa_offset 24
 272 0004 00AF     		add	r7, sp, #0
 273              		.cfi_def_cfa_register 7
 274 0006 7860     		str	r0, [r7, #4]	@ float
 275 0008 3960     		str	r1, [r7]	@ float
  67:joystick.c    ****     if (u > -db && u < db)
 276              		.loc 1 67 0
 277 000a 3B68     		ldr	r3, [r7]
 278 000c 83F00043 		eor	r3, r3, #-2147483648
 279 0010 7968     		ldr	r1, [r7, #4]	@ float
 280 0012 1846     		mov	r0, r3
 281 0014 FFF7FEFF 		bl	__aeabi_fcmplt
 282 0018 0346     		mov	r3, r0
 283 001a 002B     		cmp	r3, #0
 284 001c 09D0     		beq	.L17
 285              		.loc 1 67 0 is_stmt 0 discriminator 1
 286 001e 3968     		ldr	r1, [r7]	@ float
 287 0020 7868     		ldr	r0, [r7, #4]	@ float
 288 0022 FFF7FEFF 		bl	__aeabi_fcmplt
 289 0026 0346     		mov	r3, r0
 290 0028 002B     		cmp	r3, #0
 291 002a 02D0     		beq	.L17
  68:joystick.c    ****         return 0.0f;
 292              		.loc 1 68 0 is_stmt 1
 293 002c 4FF00003 		mov	r3, #0
 294 0030 2AE0     		b	.L20
 295              	.L17:
  69:joystick.c    **** 
  70:joystick.c    ****     if (u > 0.0f)
 296              		.loc 1 70 0
 297 0032 4FF00001 		mov	r1, #0
 298 0036 7868     		ldr	r0, [r7, #4]	@ float
 299 0038 FFF7FEFF 		bl	__aeabi_fcmpgt
 300 003c 0346     		mov	r3, r0
 301 003e 002B     		cmp	r3, #0
 302 0040 11D0     		beq	.L26
  71:joystick.c    ****         return (u - db) / (1.0f - db);
 303              		.loc 1 71 0
 304 0042 3968     		ldr	r1, [r7]	@ float
 305 0044 7868     		ldr	r0, [r7, #4]	@ float
 306 0046 FFF7FEFF 		bl	__aeabi_fsub
 307 004a 0346     		mov	r3, r0
 308 004c 1C46     		mov	r4, r3
 309 004e 3968     		ldr	r1, [r7]	@ float
 310 0050 4FF07E50 		mov	r0, #1065353216
 311 0054 FFF7FEFF 		bl	__aeabi_fsub
 312 0058 0346     		mov	r3, r0
 313 005a 1946     		mov	r1, r3
 314 005c 2046     		mov	r0, r4
 315 005e FFF7FEFF 		bl	__aeabi_fdiv
ARM GAS  C:\Users\JENNEW~1\AppData\Local\Temp\ccMzHkUr.s 			page 8


 316 0062 0346     		mov	r3, r0
 317 0064 10E0     		b	.L20
 318              	.L26:
  72:joystick.c    ****     else
  73:joystick.c    ****         return (u + db) / (1.0f - db);
 319              		.loc 1 73 0
 320 0066 3968     		ldr	r1, [r7]	@ float
 321 0068 7868     		ldr	r0, [r7, #4]	@ float
 322 006a FFF7FEFF 		bl	__aeabi_fadd
 323 006e 0346     		mov	r3, r0
 324 0070 1C46     		mov	r4, r3
 325 0072 3968     		ldr	r1, [r7]	@ float
 326 0074 4FF07E50 		mov	r0, #1065353216
 327 0078 FFF7FEFF 		bl	__aeabi_fsub
 328 007c 0346     		mov	r3, r0
 329 007e 1946     		mov	r1, r3
 330 0080 2046     		mov	r0, r4
 331 0082 FFF7FEFF 		bl	__aeabi_fdiv
 332 0086 0346     		mov	r3, r0
 333              	.L20:
  74:joystick.c    **** }
 334              		.loc 1 74 0
 335 0088 1846     		mov	r0, r3
 336 008a 0C37     		adds	r7, r7, #12
 337              		.cfi_def_cfa_offset 12
 338 008c BD46     		mov	sp, r7
 339              		.cfi_def_cfa_register 13
 340              		@ sp needed
 341 008e 90BD     		pop	{r4, r7, pc}
 342              		.cfi_endproc
 343              	.LFE65:
 344              		.size	apply_deadband, .-apply_deadband
 345              		.section	.text.joystick_validate,"ax",%progbits
 346              		.align	2
 347              		.global	joystick_validate
 348              		.thumb
 349              		.thumb_func
 350              		.type	joystick_validate, %function
 351              	joystick_validate:
 352              	.LFB66:
  75:joystick.c    **** 
  76:joystick.c    **** // Helper - Validate callibration data
  77:joystick.c    **** uint8 joystick_validate(const joy_cal_t *c)
  78:joystick.c    **** {
 353              		.loc 1 78 0
 354              		.cfi_startproc
 355              		@ args = 0, pretend = 0, frame = 16
 356              		@ frame_needed = 1, uses_anonymous_args = 0
 357              		@ link register save eliminated.
 358 0000 80B4     		push	{r7}
 359              		.cfi_def_cfa_offset 4
 360              		.cfi_offset 7, -4
 361 0002 85B0     		sub	sp, sp, #20
 362              		.cfi_def_cfa_offset 24
 363 0004 00AF     		add	r7, sp, #0
 364              		.cfi_def_cfa_register 7
 365 0006 7860     		str	r0, [r7, #4]
ARM GAS  C:\Users\JENNEW~1\AppData\Local\Temp\ccMzHkUr.s 			page 9


 366              	.LBB2:
  79:joystick.c    ****     // Validate over each channel
  80:joystick.c    ****     for (uint8 i = 0u; i < (uint8)N_CH; i++)
 367              		.loc 1 80 0
 368 0008 0023     		movs	r3, #0
 369 000a FB73     		strb	r3, [r7, #15]
 370 000c 38E0     		b	.L28
 371              	.L34:
 372              	.LBB3:
  81:joystick.c    ****     {
  82:joystick.c    ****         // Calculate channel range
  83:joystick.c    ****         int16 span   = (int16)(c->maxv[i] - c->minv[i]);
 373              		.loc 1 83 0
 374 000e FB7B     		ldrb	r3, [r7, #15]	@ zero_extendqisi2
 375 0010 7A68     		ldr	r2, [r7, #4]
 376 0012 5B00     		lsls	r3, r3, #1
 377 0014 1344     		add	r3, r3, r2
 378 0016 B3F90430 		ldrsh	r3, [r3, #4]
 379 001a 9AB2     		uxth	r2, r3
 380 001c F97B     		ldrb	r1, [r7, #15]	@ zero_extendqisi2
 381 001e 7B68     		ldr	r3, [r7, #4]
 382 0020 33F91130 		ldrsh	r3, [r3, r1, lsl #1]
 383 0024 9BB2     		uxth	r3, r3
 384 0026 D31A     		subs	r3, r2, r3
 385 0028 9BB2     		uxth	r3, r3
 386 002a BB81     		strh	r3, [r7, #12]	@ movhi
  84:joystick.c    ****         // Ensure measured center is within this range
  85:joystick.c    ****         uint8 center_ok = (c->minv[i] < c->center[i]) && (
 387              		.loc 1 85 0
 388 002c FA7B     		ldrb	r2, [r7, #15]	@ zero_extendqisi2
 389 002e 7B68     		ldr	r3, [r7, #4]
 390 0030 33F91220 		ldrsh	r2, [r3, r2, lsl #1]
 391 0034 F97B     		ldrb	r1, [r7, #15]	@ zero_extendqisi2
 392 0036 7B68     		ldr	r3, [r7, #4]
 393 0038 0431     		adds	r1, r1, #4
 394 003a 33F91130 		ldrsh	r3, [r3, r1, lsl #1]
 395 003e 9A42     		cmp	r2, r3
 396 0040 0EDA     		bge	.L29
  86:joystick.c    ****                             c->center[i] < c->maxv[i]);
 397              		.loc 1 86 0 discriminator 1
 398 0042 FA7B     		ldrb	r2, [r7, #15]	@ zero_extendqisi2
 399 0044 7B68     		ldr	r3, [r7, #4]
 400 0046 0432     		adds	r2, r2, #4
 401 0048 33F91220 		ldrsh	r2, [r3, r2, lsl #1]
 402 004c FB7B     		ldrb	r3, [r7, #15]	@ zero_extendqisi2
 403 004e 7968     		ldr	r1, [r7, #4]
 404 0050 5B00     		lsls	r3, r3, #1
 405 0052 0B44     		add	r3, r3, r1
 406 0054 B3F90430 		ldrsh	r3, [r3, #4]
  85:joystick.c    ****                             c->center[i] < c->maxv[i]);
 407              		.loc 1 85 0 discriminator 1
 408 0058 9A42     		cmp	r2, r3
 409 005a 01DA     		bge	.L29
  85:joystick.c    ****                             c->center[i] < c->maxv[i]);
 410              		.loc 1 85 0 is_stmt 0 discriminator 3
 411 005c 0123     		movs	r3, #1
 412 005e 00E0     		b	.L30
ARM GAS  C:\Users\JENNEW~1\AppData\Local\Temp\ccMzHkUr.s 			page 10


 413              	.L29:
  85:joystick.c    ****                             c->center[i] < c->maxv[i]);
 414              		.loc 1 85 0 discriminator 4
 415 0060 0023     		movs	r3, #0
 416              	.L30:
  85:joystick.c    ****                             c->center[i] < c->maxv[i]);
 417              		.loc 1 85 0 discriminator 6
 418 0062 FB72     		strb	r3, [r7, #11]
  87:joystick.c    ****         // Unhappy cases
  88:joystick.c    ****         if (span < (int16)CAL_MIN_SPAN_COUNTS){return 0u;}
 419              		.loc 1 88 0 is_stmt 1 discriminator 6
 420 0064 B7F90C30 		ldrsh	r3, [r7, #12]
 421 0068 132B     		cmp	r3, #19
 422 006a 01DC     		bgt	.L31
 423              		.loc 1 88 0 is_stmt 0 discriminator 1
 424 006c 0023     		movs	r3, #0
 425 006e 0BE0     		b	.L32
 426              	.L31:
  89:joystick.c    ****         if (!center_ok){return 0u;}
 427              		.loc 1 89 0 is_stmt 1
 428 0070 FB7A     		ldrb	r3, [r7, #11]	@ zero_extendqisi2
 429 0072 002B     		cmp	r3, #0
 430 0074 01D1     		bne	.L33
 431              		.loc 1 89 0 is_stmt 0 discriminator 1
 432 0076 0023     		movs	r3, #0
 433 0078 06E0     		b	.L32
 434              	.L33:
 435              	.LBE3:
  80:joystick.c    ****     {
 436              		.loc 1 80 0 is_stmt 1 discriminator 2
 437 007a FB7B     		ldrb	r3, [r7, #15]	@ zero_extendqisi2
 438 007c 0133     		adds	r3, r3, #1
 439 007e FB73     		strb	r3, [r7, #15]
 440              	.L28:
  80:joystick.c    ****     {
 441              		.loc 1 80 0 is_stmt 0 discriminator 1
 442 0080 FB7B     		ldrb	r3, [r7, #15]	@ zero_extendqisi2
 443 0082 012B     		cmp	r3, #1
 444 0084 C3D9     		bls	.L34
 445              	.LBE2:
  90:joystick.c    ****     }
  91:joystick.c    ****     return 1u;  // Happy
 446              		.loc 1 91 0 is_stmt 1
 447 0086 0123     		movs	r3, #1
 448              	.L32:
  92:joystick.c    **** }
 449              		.loc 1 92 0
 450 0088 1846     		mov	r0, r3
 451 008a 1437     		adds	r7, r7, #20
 452              		.cfi_def_cfa_offset 4
 453 008c BD46     		mov	sp, r7
 454              		.cfi_def_cfa_register 13
 455              		@ sp needed
 456 008e 80BC     		pop	{r7}
 457              		.cfi_restore 7
 458              		.cfi_def_cfa_offset 0
 459 0090 7047     		bx	lr
ARM GAS  C:\Users\JENNEW~1\AppData\Local\Temp\ccMzHkUr.s 			page 11


 460              		.cfi_endproc
 461              	.LFE66:
 462              		.size	joystick_validate, .-joystick_validate
 463 0092 00BF     		.section	.text.cal_begin_range_capture,"ax",%progbits
 464              		.align	2
 465              		.thumb
 466              		.thumb_func
 467              		.type	cal_begin_range_capture, %function
 468              	cal_begin_range_capture:
 469              	.LFB67:
  93:joystick.c    **** 
  94:joystick.c    **** // Helper - Prepare for range calibration
  95:joystick.c    **** static void cal_begin_range_capture(const int16 counts[N_CH])
  96:joystick.c    **** {
 470              		.loc 1 96 0
 471              		.cfi_startproc
 472              		@ args = 0, pretend = 0, frame = 16
 473              		@ frame_needed = 1, uses_anonymous_args = 0
 474              		@ link register save eliminated.
 475 0000 90B4     		push	{r4, r7}
 476              		.cfi_def_cfa_offset 8
 477              		.cfi_offset 4, -8
 478              		.cfi_offset 7, -4
 479 0002 84B0     		sub	sp, sp, #16
 480              		.cfi_def_cfa_offset 24
 481 0004 00AF     		add	r7, sp, #0
 482              		.cfi_def_cfa_register 7
 483 0006 7860     		str	r0, [r7, #4]
  97:joystick.c    ****     // Copy last calibration state in case we need to revert
  98:joystick.c    ****     s_work = s_saved;
 484              		.loc 1 98 0
 485 0008 1B4A     		ldr	r2, .L38
 486 000a 1C4B     		ldr	r3, .L38+4
 487 000c 1446     		mov	r4, r2
 488 000e 0FCB     		ldmia	r3, {r0, r1, r2, r3}
 489 0010 07C4     		stmia	r4!, {r0, r1, r2}
 490 0012 2380     		strh	r3, [r4]	@ movhi
 491              	.LBB4:
  99:joystick.c    **** 
 100:joystick.c    ****     // BEfore collecting data, initialize the state with current readings
 101:joystick.c    ****     for (uint8 i = 0u; i < (uint8)N_CH; i++)
 492              		.loc 1 101 0
 493 0014 0023     		movs	r3, #0
 494 0016 FB73     		strb	r3, [r7, #15]
 495 0018 23E0     		b	.L36
 496              	.L37:
 102:joystick.c    ****     {
 103:joystick.c    ****         s_work.minv[i]   = counts[i];
 497              		.loc 1 103 0 discriminator 3
 498 001a FB7B     		ldrb	r3, [r7, #15]	@ zero_extendqisi2
 499 001c FA7B     		ldrb	r2, [r7, #15]	@ zero_extendqisi2
 500 001e 5200     		lsls	r2, r2, #1
 501 0020 7968     		ldr	r1, [r7, #4]
 502 0022 0A44     		add	r2, r2, r1
 503 0024 B2F90010 		ldrsh	r1, [r2]
 504 0028 134A     		ldr	r2, .L38
 505 002a 22F81310 		strh	r1, [r2, r3, lsl #1]	@ movhi
ARM GAS  C:\Users\JENNEW~1\AppData\Local\Temp\ccMzHkUr.s 			page 12


 104:joystick.c    ****         s_work.maxv[i]   = counts[i];
 506              		.loc 1 104 0 discriminator 3
 507 002e FB7B     		ldrb	r3, [r7, #15]	@ zero_extendqisi2
 508 0030 FA7B     		ldrb	r2, [r7, #15]	@ zero_extendqisi2
 509 0032 5200     		lsls	r2, r2, #1
 510 0034 7968     		ldr	r1, [r7, #4]
 511 0036 0A44     		add	r2, r2, r1
 512 0038 B2F90010 		ldrsh	r1, [r2]
 513 003c 0E4A     		ldr	r2, .L38
 514 003e 5B00     		lsls	r3, r3, #1
 515 0040 1344     		add	r3, r3, r2
 516 0042 0A46     		mov	r2, r1	@ movhi
 517 0044 9A80     		strh	r2, [r3, #4]	@ movhi
 105:joystick.c    ****         s_work.center[i] = counts[i]; /* provisional */
 518              		.loc 1 105 0 discriminator 3
 519 0046 FB7B     		ldrb	r3, [r7, #15]	@ zero_extendqisi2
 520 0048 FA7B     		ldrb	r2, [r7, #15]	@ zero_extendqisi2
 521 004a 5200     		lsls	r2, r2, #1
 522 004c 7968     		ldr	r1, [r7, #4]
 523 004e 0A44     		add	r2, r2, r1
 524 0050 B2F90010 		ldrsh	r1, [r2]
 525 0054 084A     		ldr	r2, .L38
 526 0056 0433     		adds	r3, r3, #4
 527 0058 22F81310 		strh	r1, [r2, r3, lsl #1]	@ movhi
 101:joystick.c    ****     {
 528              		.loc 1 101 0 discriminator 3
 529 005c FB7B     		ldrb	r3, [r7, #15]	@ zero_extendqisi2
 530 005e 0133     		adds	r3, r3, #1
 531 0060 FB73     		strb	r3, [r7, #15]
 532              	.L36:
 101:joystick.c    ****     {
 533              		.loc 1 101 0 is_stmt 0 discriminator 1
 534 0062 FB7B     		ldrb	r3, [r7, #15]	@ zero_extendqisi2
 535 0064 012B     		cmp	r3, #1
 536 0066 D8D9     		bls	.L37
 537              	.LBE4:
 106:joystick.c    ****     }
 107:joystick.c    **** 
 108:joystick.c    ****     s_state = JOY_CAL_RANGE_CAPTURE;  // Enter calibration mode
 538              		.loc 1 108 0 is_stmt 1
 539 0068 054B     		ldr	r3, .L38+8
 540 006a 0122     		movs	r2, #1
 541 006c 1A70     		strb	r2, [r3]
 109:joystick.c    **** }
 542              		.loc 1 109 0
 543 006e 00BF     		nop
 544 0070 1037     		adds	r7, r7, #16
 545              		.cfi_def_cfa_offset 8
 546 0072 BD46     		mov	sp, r7
 547              		.cfi_def_cfa_register 13
 548              		@ sp needed
 549 0074 90BC     		pop	{r4, r7}
 550              		.cfi_restore 7
 551              		.cfi_restore 4
 552              		.cfi_def_cfa_offset 0
 553 0076 7047     		bx	lr
 554              	.L39:
ARM GAS  C:\Users\JENNEW~1\AppData\Local\Temp\ccMzHkUr.s 			page 13


 555              		.align	2
 556              	.L38:
 557 0078 20000000 		.word	s_work
 558 007c 10000000 		.word	s_saved
 559 0080 2E000000 		.word	s_state
 560              		.cfi_endproc
 561              	.LFE67:
 562              		.size	cal_begin_range_capture, .-cal_begin_range_capture
 563              		.section	.text.cal_update_ranges,"ax",%progbits
 564              		.align	2
 565              		.thumb
 566              		.thumb_func
 567              		.type	cal_update_ranges, %function
 568              	cal_update_ranges:
 569              	.LFB68:
 110:joystick.c    **** 
 111:joystick.c    **** // Helper - Update max and min from callibration data
 112:joystick.c    **** static void cal_update_ranges(const int16 counts[N_CH])
 113:joystick.c    **** {   
 570              		.loc 1 113 0
 571              		.cfi_startproc
 572              		@ args = 0, pretend = 0, frame = 16
 573              		@ frame_needed = 1, uses_anonymous_args = 0
 574              		@ link register save eliminated.
 575 0000 80B4     		push	{r7}
 576              		.cfi_def_cfa_offset 4
 577              		.cfi_offset 7, -4
 578 0002 85B0     		sub	sp, sp, #20
 579              		.cfi_def_cfa_offset 24
 580 0004 00AF     		add	r7, sp, #0
 581              		.cfi_def_cfa_register 7
 582 0006 7860     		str	r0, [r7, #4]
 114:joystick.c    ****     // Dont run if not calibrating
 115:joystick.c    ****     if (s_state != JOY_CAL_RANGE_CAPTURE)
 583              		.loc 1 115 0
 584 0008 214B     		ldr	r3, .L48
 585 000a 1B78     		ldrb	r3, [r3]	@ zero_extendqisi2
 586 000c 012B     		cmp	r3, #1
 587 000e 39D1     		bne	.L47
 588              	.LBB5:
 116:joystick.c    ****         return;
 117:joystick.c    ****     
 118:joystick.c    ****     // Loop over captured data and populate range limits.
 119:joystick.c    ****     for (uint8 i = 0u; i < (uint8)N_CH; i++)
 589              		.loc 1 119 0
 590 0010 0023     		movs	r3, #0
 591 0012 FB73     		strb	r3, [r7, #15]
 592 0014 32E0     		b	.L43
 593              	.L46:
 120:joystick.c    ****     {
 121:joystick.c    ****         if (counts[i] < s_work.minv[i]) s_work.minv[i] = counts[i];  // min
 594              		.loc 1 121 0
 595 0016 FB7B     		ldrb	r3, [r7, #15]	@ zero_extendqisi2
 596 0018 5B00     		lsls	r3, r3, #1
 597 001a 7A68     		ldr	r2, [r7, #4]
 598 001c 1344     		add	r3, r3, r2
 599 001e B3F90020 		ldrsh	r2, [r3]
ARM GAS  C:\Users\JENNEW~1\AppData\Local\Temp\ccMzHkUr.s 			page 14


 600 0022 FB7B     		ldrb	r3, [r7, #15]	@ zero_extendqisi2
 601 0024 1B49     		ldr	r1, .L48+4
 602 0026 31F91330 		ldrsh	r3, [r1, r3, lsl #1]
 603 002a 9A42     		cmp	r2, r3
 604 002c 09DA     		bge	.L44
 605              		.loc 1 121 0 is_stmt 0 discriminator 1
 606 002e FB7B     		ldrb	r3, [r7, #15]	@ zero_extendqisi2
 607 0030 FA7B     		ldrb	r2, [r7, #15]	@ zero_extendqisi2
 608 0032 5200     		lsls	r2, r2, #1
 609 0034 7968     		ldr	r1, [r7, #4]
 610 0036 0A44     		add	r2, r2, r1
 611 0038 B2F90010 		ldrsh	r1, [r2]
 612 003c 154A     		ldr	r2, .L48+4
 613 003e 22F81310 		strh	r1, [r2, r3, lsl #1]	@ movhi
 614              	.L44:
 122:joystick.c    ****         if (counts[i] > s_work.maxv[i]) s_work.maxv[i] = counts[i];  // max
 615              		.loc 1 122 0 is_stmt 1
 616 0042 FB7B     		ldrb	r3, [r7, #15]	@ zero_extendqisi2
 617 0044 5B00     		lsls	r3, r3, #1
 618 0046 7A68     		ldr	r2, [r7, #4]
 619 0048 1344     		add	r3, r3, r2
 620 004a B3F90020 		ldrsh	r2, [r3]
 621 004e FB7B     		ldrb	r3, [r7, #15]	@ zero_extendqisi2
 622 0050 1049     		ldr	r1, .L48+4
 623 0052 5B00     		lsls	r3, r3, #1
 624 0054 0B44     		add	r3, r3, r1
 625 0056 B3F90430 		ldrsh	r3, [r3, #4]
 626 005a 9A42     		cmp	r2, r3
 627 005c 0BDD     		ble	.L45
 628              		.loc 1 122 0 is_stmt 0 discriminator 1
 629 005e FB7B     		ldrb	r3, [r7, #15]	@ zero_extendqisi2
 630 0060 FA7B     		ldrb	r2, [r7, #15]	@ zero_extendqisi2
 631 0062 5200     		lsls	r2, r2, #1
 632 0064 7968     		ldr	r1, [r7, #4]
 633 0066 0A44     		add	r2, r2, r1
 634 0068 B2F90010 		ldrsh	r1, [r2]
 635 006c 094A     		ldr	r2, .L48+4
 636 006e 5B00     		lsls	r3, r3, #1
 637 0070 1344     		add	r3, r3, r2
 638 0072 0A46     		mov	r2, r1	@ movhi
 639 0074 9A80     		strh	r2, [r3, #4]	@ movhi
 640              	.L45:
 119:joystick.c    ****     {
 641              		.loc 1 119 0 is_stmt 1 discriminator 2
 642 0076 FB7B     		ldrb	r3, [r7, #15]	@ zero_extendqisi2
 643 0078 0133     		adds	r3, r3, #1
 644 007a FB73     		strb	r3, [r7, #15]
 645              	.L43:
 119:joystick.c    ****     {
 646              		.loc 1 119 0 is_stmt 0 discriminator 1
 647 007c FB7B     		ldrb	r3, [r7, #15]	@ zero_extendqisi2
 648 007e 012B     		cmp	r3, #1
 649 0080 C9D9     		bls	.L46
 650 0082 00E0     		b	.L40
 651              	.L47:
 652              	.LBE5:
 116:joystick.c    ****     
ARM GAS  C:\Users\JENNEW~1\AppData\Local\Temp\ccMzHkUr.s 			page 15


 653              		.loc 1 116 0 is_stmt 1
 654 0084 00BF     		nop
 655              	.L40:
 123:joystick.c    ****     }
 124:joystick.c    **** }
 656              		.loc 1 124 0
 657 0086 1437     		adds	r7, r7, #20
 658              		.cfi_def_cfa_offset 4
 659 0088 BD46     		mov	sp, r7
 660              		.cfi_def_cfa_register 13
 661              		@ sp needed
 662 008a 80BC     		pop	{r7}
 663              		.cfi_restore 7
 664              		.cfi_def_cfa_offset 0
 665 008c 7047     		bx	lr
 666              	.L49:
 667 008e 00BF     		.align	2
 668              	.L48:
 669 0090 2E000000 		.word	s_state
 670 0094 20000000 		.word	s_work
 671              		.cfi_endproc
 672              	.LFE68:
 673              		.size	cal_update_ranges, .-cal_update_ranges
 674              		.section	.text.cal_start_center_capture,"ax",%progbits
 675              		.align	2
 676              		.thumb
 677              		.thumb_func
 678              		.type	cal_start_center_capture, %function
 679              	cal_start_center_capture:
 680              	.LFB69:
 125:joystick.c    **** 
 126:joystick.c    **** // Helper - Prepare for centered calibration
 127:joystick.c    **** static void cal_start_center_capture(void)
 128:joystick.c    **** {
 681              		.loc 1 128 0
 682              		.cfi_startproc
 683              		@ args = 0, pretend = 0, frame = 8
 684              		@ frame_needed = 1, uses_anonymous_args = 0
 685              		@ link register save eliminated.
 686 0000 80B4     		push	{r7}
 687              		.cfi_def_cfa_offset 4
 688              		.cfi_offset 7, -4
 689 0002 83B0     		sub	sp, sp, #12
 690              		.cfi_def_cfa_offset 16
 691 0004 00AF     		add	r7, sp, #0
 692              		.cfi_def_cfa_register 7
 693              	.LBB6:
 129:joystick.c    ****     // Initialize center value
 130:joystick.c    ****     for (uint8 i = 0u; i < (uint8)N_CH; i++)
 694              		.loc 1 130 0
 695 0006 0023     		movs	r3, #0
 696 0008 FB71     		strb	r3, [r7, #7]
 697 000a 07E0     		b	.L51
 698              	.L52:
 131:joystick.c    ****         s_center_sum[i] = 0;
 699              		.loc 1 131 0 discriminator 3
 700 000c FB79     		ldrb	r3, [r7, #7]	@ zero_extendqisi2
ARM GAS  C:\Users\JENNEW~1\AppData\Local\Temp\ccMzHkUr.s 			page 16


 701 000e 0A4A     		ldr	r2, .L53
 702 0010 0021     		movs	r1, #0
 703 0012 42F82310 		str	r1, [r2, r3, lsl #2]
 130:joystick.c    ****         s_center_sum[i] = 0;
 704              		.loc 1 130 0 discriminator 3
 705 0016 FB79     		ldrb	r3, [r7, #7]	@ zero_extendqisi2
 706 0018 0133     		adds	r3, r3, #1
 707 001a FB71     		strb	r3, [r7, #7]
 708              	.L51:
 130:joystick.c    ****         s_center_sum[i] = 0;
 709              		.loc 1 130 0 is_stmt 0 discriminator 1
 710 001c FB79     		ldrb	r3, [r7, #7]	@ zero_extendqisi2
 711 001e 012B     		cmp	r3, #1
 712 0020 F4D9     		bls	.L52
 713              	.LBE6:
 132:joystick.c    **** 
 133:joystick.c    ****     s_center_n = 0u;
 714              		.loc 1 133 0 is_stmt 1
 715 0022 064B     		ldr	r3, .L53+4
 716 0024 0022     		movs	r2, #0
 717 0026 1A80     		strh	r2, [r3]	@ movhi
 134:joystick.c    ****     s_state = JOY_CAL_CENTER_CAPTURE;  // Move to next state
 718              		.loc 1 134 0
 719 0028 054B     		ldr	r3, .L53+8
 720 002a 0222     		movs	r2, #2
 721 002c 1A70     		strb	r2, [r3]
 135:joystick.c    **** }
 722              		.loc 1 135 0
 723 002e 00BF     		nop
 724 0030 0C37     		adds	r7, r7, #12
 725              		.cfi_def_cfa_offset 4
 726 0032 BD46     		mov	sp, r7
 727              		.cfi_def_cfa_register 13
 728              		@ sp needed
 729 0034 80BC     		pop	{r7}
 730              		.cfi_restore 7
 731              		.cfi_def_cfa_offset 0
 732 0036 7047     		bx	lr
 733              	.L54:
 734              		.align	2
 735              	.L53:
 736 0038 38000000 		.word	s_center_sum
 737 003c 40000000 		.word	s_center_n
 738 0040 2E000000 		.word	s_state
 739              		.cfi_endproc
 740              	.LFE69:
 741              		.size	cal_start_center_capture, .-cal_start_center_capture
 742              		.section	.text.cal_center_capture_update,"ax",%progbits
 743              		.align	2
 744              		.thumb
 745              		.thumb_func
 746              		.type	cal_center_capture_update, %function
 747              	cal_center_capture_update:
 748              	.LFB70:
 136:joystick.c    **** 
 137:joystick.c    **** // Helper - Collect and average center data, save to calibration
 138:joystick.c    **** static void cal_center_capture_update(const int16 counts[N_CH])
ARM GAS  C:\Users\JENNEW~1\AppData\Local\Temp\ccMzHkUr.s 			page 17


 139:joystick.c    **** {
 749              		.loc 1 139 0
 750              		.cfi_startproc
 751              		@ args = 0, pretend = 0, frame = 16
 752              		@ frame_needed = 1, uses_anonymous_args = 0
 753              		@ link register save eliminated.
 754 0000 80B4     		push	{r7}
 755              		.cfi_def_cfa_offset 4
 756              		.cfi_offset 7, -4
 757 0002 85B0     		sub	sp, sp, #20
 758              		.cfi_def_cfa_offset 24
 759 0004 00AF     		add	r7, sp, #0
 760              		.cfi_def_cfa_register 7
 761 0006 7860     		str	r0, [r7, #4]
 140:joystick.c    ****     // Dont run if not calibrating
 141:joystick.c    ****     if (s_state != JOY_CAL_CENTER_CAPTURE)
 762              		.loc 1 141 0
 763 0008 234B     		ldr	r3, .L64
 764 000a 1B78     		ldrb	r3, [r3]	@ zero_extendqisi2
 765 000c 022B     		cmp	r3, #2
 766 000e 3DD1     		bne	.L63
 767              	.LBB7:
 142:joystick.c    ****         return;
 143:joystick.c    **** 
 144:joystick.c    ****     // Collect data (User should not be touching joystick)
 145:joystick.c    ****     for (uint8 i = 0u; i < (uint8)N_CH; i++)
 768              		.loc 1 145 0
 769 0010 0023     		movs	r3, #0
 770 0012 FB73     		strb	r3, [r7, #15]
 771 0014 11E0     		b	.L58
 772              	.L59:
 146:joystick.c    ****         s_center_sum[i] += counts[i];
 773              		.loc 1 146 0 discriminator 3
 774 0016 FB7B     		ldrb	r3, [r7, #15]	@ zero_extendqisi2
 775 0018 FA7B     		ldrb	r2, [r7, #15]	@ zero_extendqisi2
 776 001a 2049     		ldr	r1, .L64+4
 777 001c 51F82220 		ldr	r2, [r1, r2, lsl #2]
 778 0020 F97B     		ldrb	r1, [r7, #15]	@ zero_extendqisi2
 779 0022 4900     		lsls	r1, r1, #1
 780 0024 7868     		ldr	r0, [r7, #4]
 781 0026 0144     		add	r1, r1, r0
 782 0028 B1F90010 		ldrsh	r1, [r1]
 783 002c 0A44     		add	r2, r2, r1
 784 002e 1B49     		ldr	r1, .L64+4
 785 0030 41F82320 		str	r2, [r1, r3, lsl #2]
 145:joystick.c    ****         s_center_sum[i] += counts[i];
 786              		.loc 1 145 0 discriminator 3
 787 0034 FB7B     		ldrb	r3, [r7, #15]	@ zero_extendqisi2
 788 0036 0133     		adds	r3, r3, #1
 789 0038 FB73     		strb	r3, [r7, #15]
 790              	.L58:
 145:joystick.c    ****         s_center_sum[i] += counts[i];
 791              		.loc 1 145 0 is_stmt 0 discriminator 1
 792 003a FB7B     		ldrb	r3, [r7, #15]	@ zero_extendqisi2
 793 003c 012B     		cmp	r3, #1
 794 003e EAD9     		bls	.L59
 795              	.LBE7:
ARM GAS  C:\Users\JENNEW~1\AppData\Local\Temp\ccMzHkUr.s 			page 18


 147:joystick.c    **** 
 148:joystick.c    ****     s_center_n++;
 796              		.loc 1 148 0 is_stmt 1
 797 0040 174B     		ldr	r3, .L64+8
 798 0042 1B88     		ldrh	r3, [r3]
 799 0044 0133     		adds	r3, r3, #1
 800 0046 9AB2     		uxth	r2, r3
 801 0048 154B     		ldr	r3, .L64+8
 802 004a 1A80     		strh	r2, [r3]	@ movhi
 149:joystick.c    **** 
 150:joystick.c    ****     // Process and average
 151:joystick.c    ****     if (s_center_n >= (uint16)CAL_CENTER_SAMPLES)
 803              		.loc 1 151 0
 804 004c 144B     		ldr	r3, .L64+8
 805 004e 1B88     		ldrh	r3, [r3]
 806 0050 1F2B     		cmp	r3, #31
 807 0052 1CD9     		bls	.L55
 808              	.LBB8:
 152:joystick.c    ****     {
 153:joystick.c    ****         for (uint8 i = 0u; i < (uint8)N_CH; i++)
 809              		.loc 1 153 0
 810 0054 0023     		movs	r3, #0
 811 0056 BB73     		strb	r3, [r7, #14]
 812 0058 11E0     		b	.L60
 813              	.L62:
 154:joystick.c    ****             s_work.center[i] = (int16)(s_center_sum[i] / (int32)CAL_CENTER_SAMPLES);
 814              		.loc 1 154 0 discriminator 3
 815 005a BA7B     		ldrb	r2, [r7, #14]	@ zero_extendqisi2
 816 005c BB7B     		ldrb	r3, [r7, #14]	@ zero_extendqisi2
 817 005e 0F49     		ldr	r1, .L64+4
 818 0060 51F82330 		ldr	r3, [r1, r3, lsl #2]
 819 0064 002B     		cmp	r3, #0
 820 0066 00DA     		bge	.L61
 821 0068 1F33     		adds	r3, r3, #31
 822              	.L61:
 823 006a 5B11     		asrs	r3, r3, #5
 824 006c 18B2     		sxth	r0, r3
 825 006e 0D49     		ldr	r1, .L64+12
 826 0070 131D     		adds	r3, r2, #4
 827 0072 0246     		mov	r2, r0	@ movhi
 828 0074 21F81320 		strh	r2, [r1, r3, lsl #1]	@ movhi
 153:joystick.c    ****             s_work.center[i] = (int16)(s_center_sum[i] / (int32)CAL_CENTER_SAMPLES);
 829              		.loc 1 153 0 discriminator 3
 830 0078 BB7B     		ldrb	r3, [r7, #14]	@ zero_extendqisi2
 831 007a 0133     		adds	r3, r3, #1
 832 007c BB73     		strb	r3, [r7, #14]
 833              	.L60:
 153:joystick.c    ****             s_work.center[i] = (int16)(s_center_sum[i] / (int32)CAL_CENTER_SAMPLES);
 834              		.loc 1 153 0 is_stmt 0 discriminator 1
 835 007e BB7B     		ldrb	r3, [r7, #14]	@ zero_extendqisi2
 836 0080 012B     		cmp	r3, #1
 837 0082 EAD9     		bls	.L62
 838              	.LBE8:
 155:joystick.c    **** 
 156:joystick.c    ****         s_state = JOY_CAL_CONFIRM_SAVE;  // Move to next state
 839              		.loc 1 156 0 is_stmt 1
 840 0084 044B     		ldr	r3, .L64
ARM GAS  C:\Users\JENNEW~1\AppData\Local\Temp\ccMzHkUr.s 			page 19


 841 0086 0322     		movs	r2, #3
 842 0088 1A70     		strb	r2, [r3]
 843 008a 00E0     		b	.L55
 844              	.L63:
 142:joystick.c    **** 
 845              		.loc 1 142 0
 846 008c 00BF     		nop
 847              	.L55:
 157:joystick.c    ****     }
 158:joystick.c    **** }
 848              		.loc 1 158 0
 849 008e 1437     		adds	r7, r7, #20
 850              		.cfi_def_cfa_offset 4
 851 0090 BD46     		mov	sp, r7
 852              		.cfi_def_cfa_register 13
 853              		@ sp needed
 854 0092 80BC     		pop	{r7}
 855              		.cfi_restore 7
 856              		.cfi_def_cfa_offset 0
 857 0094 7047     		bx	lr
 858              	.L65:
 859 0096 00BF     		.align	2
 860              	.L64:
 861 0098 2E000000 		.word	s_state
 862 009c 38000000 		.word	s_center_sum
 863 00a0 40000000 		.word	s_center_n
 864 00a4 20000000 		.word	s_work
 865              		.cfi_endproc
 866              	.LFE70:
 867              		.size	cal_center_capture_update, .-cal_center_capture_update
 868              		.section	.text.cal_save_or_restart,"ax",%progbits
 869              		.align	2
 870              		.thumb
 871              		.thumb_func
 872              		.type	cal_save_or_restart, %function
 873              	cal_save_or_restart:
 874              	.LFB71:
 159:joystick.c    **** 
 160:joystick.c    **** // Helper - Give user option to save, begin calibration again, or cancel
 161:joystick.c    **** static void cal_save_or_restart(void)
 162:joystick.c    **** {
 875              		.loc 1 162 0
 876              		.cfi_startproc
 877              		@ args = 0, pretend = 0, frame = 0
 878              		@ frame_needed = 1, uses_anonymous_args = 0
 879 0000 98B5     		push	{r3, r4, r7, lr}
 880              		.cfi_def_cfa_offset 16
 881              		.cfi_offset 3, -16
 882              		.cfi_offset 4, -12
 883              		.cfi_offset 7, -8
 884              		.cfi_offset 14, -4
 885 0002 00AF     		add	r7, sp, #0
 886              		.cfi_def_cfa_register 7
 163:joystick.c    ****     if (!joystick_validate(&s_work))
 887              		.loc 1 163 0
 888 0004 0B48     		ldr	r0, .L69
 889 0006 FFF7FEFF 		bl	joystick_validate
ARM GAS  C:\Users\JENNEW~1\AppData\Local\Temp\ccMzHkUr.s 			page 20


 890 000a 0346     		mov	r3, r0
 891 000c 002B     		cmp	r3, #0
 892 000e 03D1     		bne	.L67
 164:joystick.c    ****     {
 165:joystick.c    ****         // Re-run from range capturing state (Caution: recursion-ish)
 166:joystick.c    ****         cal_begin_range_capture(s_latest_counts);
 893              		.loc 1 166 0
 894 0010 0948     		ldr	r0, .L69+4
 895 0012 FFF7FEFF 		bl	cal_begin_range_capture
 167:joystick.c    ****         return;
 896              		.loc 1 167 0
 897 0016 0BE0     		b	.L66
 898              	.L67:
 168:joystick.c    ****     }
 169:joystick.c    **** 
 170:joystick.c    ****     // Save!
 171:joystick.c    ****     s_saved = s_work;
 899              		.loc 1 171 0
 900 0018 084A     		ldr	r2, .L69+8
 901 001a 064B     		ldr	r3, .L69
 902 001c 1446     		mov	r4, r2
 903 001e 0FCB     		ldmia	r3, {r0, r1, r2, r3}
 904 0020 07C4     		stmia	r4!, {r0, r1, r2}
 905 0022 2380     		strh	r3, [r4]	@ movhi
 172:joystick.c    ****     s_saved.valid = 1u;
 906              		.loc 1 172 0
 907 0024 054B     		ldr	r3, .L69+8
 908 0026 0122     		movs	r2, #1
 909 0028 1A73     		strb	r2, [r3, #12]
 173:joystick.c    ****     s_state = JOY_CAL_OFF;
 910              		.loc 1 173 0
 911 002a 054B     		ldr	r3, .L69+12
 912 002c 0022     		movs	r2, #0
 913 002e 1A70     		strb	r2, [r3]
 914              	.L66:
 174:joystick.c    **** }
 915              		.loc 1 174 0
 916 0030 98BD     		pop	{r3, r4, r7, pc}
 917              	.L70:
 918 0032 00BF     		.align	2
 919              	.L69:
 920 0034 20000000 		.word	s_work
 921 0038 30000000 		.word	s_latest_counts
 922 003c 10000000 		.word	s_saved
 923 0040 2E000000 		.word	s_state
 924              		.cfi_endproc
 925              	.LFE71:
 926              		.size	cal_save_or_restart, .-cal_save_or_restart
 927              		.section	.text.joystick_init,"ax",%progbits
 928              		.align	2
 929              		.global	joystick_init
 930              		.thumb
 931              		.thumb_func
 932              		.type	joystick_init, %function
 933              	joystick_init:
 934              	.LFB72:
 175:joystick.c    **** 
ARM GAS  C:\Users\JENNEW~1\AppData\Local\Temp\ccMzHkUr.s 			page 21


 176:joystick.c    **** /* ------------------------------------------------------------------
 177:joystick.c    ****  * Public API (This is what you include in your code (; )
 178:joystick.c    ****  * ------------------------------------------------------------------ */
 179:joystick.c    **** 
 180:joystick.c    **** // Initialize joystick with default values
 181:joystick.c    **** void joystick_init(const joy_cal_t *defaults, uint32 invert_mask)
 182:joystick.c    **** {
 935              		.loc 1 182 0
 936              		.cfi_startproc
 937              		@ args = 0, pretend = 0, frame = 16
 938              		@ frame_needed = 1, uses_anonymous_args = 0
 939              		@ link register save eliminated.
 940 0000 90B4     		push	{r4, r7}
 941              		.cfi_def_cfa_offset 8
 942              		.cfi_offset 4, -8
 943              		.cfi_offset 7, -4
 944 0002 84B0     		sub	sp, sp, #16
 945              		.cfi_def_cfa_offset 24
 946 0004 00AF     		add	r7, sp, #0
 947              		.cfi_def_cfa_register 7
 948 0006 7860     		str	r0, [r7, #4]
 949 0008 3960     		str	r1, [r7]
 183:joystick.c    ****     s_default = *defaults;
 950              		.loc 1 183 0
 951 000a 1F4B     		ldr	r3, .L74
 952 000c 7A68     		ldr	r2, [r7, #4]
 953 000e 1446     		mov	r4, r2
 954 0010 2068     		ldr	r0, [r4]	@ unaligned
 955 0012 6168     		ldr	r1, [r4, #4]	@ unaligned
 956 0014 A268     		ldr	r2, [r4, #8]	@ unaligned
 957 0016 07C3     		stmia	r3!, {r0, r1, r2}
 958 0018 A289     		ldrh	r2, [r4, #12]	@ unaligned
 959 001a 1A80     		strh	r2, [r3]	@ unaligned
 184:joystick.c    ****     s_saved   = *defaults;
 960              		.loc 1 184 0
 961 001c 1B4B     		ldr	r3, .L74+4
 962 001e 7A68     		ldr	r2, [r7, #4]
 963 0020 1446     		mov	r4, r2
 964 0022 2068     		ldr	r0, [r4]	@ unaligned
 965 0024 6168     		ldr	r1, [r4, #4]	@ unaligned
 966 0026 A268     		ldr	r2, [r4, #8]	@ unaligned
 967 0028 07C3     		stmia	r3!, {r0, r1, r2}
 968 002a A289     		ldrh	r2, [r4, #12]	@ unaligned
 969 002c 1A80     		strh	r2, [r3]	@ unaligned
 185:joystick.c    ****     s_saved.valid = 0u;
 970              		.loc 1 185 0
 971 002e 174B     		ldr	r3, .L74+4
 972 0030 0022     		movs	r2, #0
 973 0032 1A73     		strb	r2, [r3, #12]
 186:joystick.c    ****     s_work    = *defaults;
 974              		.loc 1 186 0
 975 0034 164B     		ldr	r3, .L74+8
 976 0036 7A68     		ldr	r2, [r7, #4]
 977 0038 1446     		mov	r4, r2
 978 003a 2068     		ldr	r0, [r4]	@ unaligned
 979 003c 6168     		ldr	r1, [r4, #4]	@ unaligned
 980 003e A268     		ldr	r2, [r4, #8]	@ unaligned
ARM GAS  C:\Users\JENNEW~1\AppData\Local\Temp\ccMzHkUr.s 			page 22


 981 0040 07C3     		stmia	r3!, {r0, r1, r2}
 982 0042 A289     		ldrh	r2, [r4, #12]	@ unaligned
 983 0044 1A80     		strh	r2, [r3]	@ unaligned
 187:joystick.c    **** 
 188:joystick.c    ****     s_invert_mask = invert_mask;
 984              		.loc 1 188 0
 985 0046 134A     		ldr	r2, .L74+12
 986 0048 3B68     		ldr	r3, [r7]
 987 004a 1360     		str	r3, [r2]
 988              	.LBB9:
 189:joystick.c    **** 
 190:joystick.c    ****     for (uint8 i = 0u; i < (uint8)N_CH; i++)
 989              		.loc 1 190 0
 990 004c 0023     		movs	r3, #0
 991 004e FB73     		strb	r3, [r7, #15]
 992 0050 0BE0     		b	.L72
 993              	.L73:
 191:joystick.c    ****         s_latest_counts[i] = defaults->center[i];
 994              		.loc 1 191 0 discriminator 3
 995 0052 FB7B     		ldrb	r3, [r7, #15]	@ zero_extendqisi2
 996 0054 F97B     		ldrb	r1, [r7, #15]	@ zero_extendqisi2
 997 0056 7A68     		ldr	r2, [r7, #4]
 998 0058 0431     		adds	r1, r1, #4
 999 005a 32F91110 		ldrsh	r1, [r2, r1, lsl #1]
 1000 005e 0E4A     		ldr	r2, .L74+16
 1001 0060 22F81310 		strh	r1, [r2, r3, lsl #1]	@ movhi
 190:joystick.c    ****         s_latest_counts[i] = defaults->center[i];
 1002              		.loc 1 190 0 discriminator 3
 1003 0064 FB7B     		ldrb	r3, [r7, #15]	@ zero_extendqisi2
 1004 0066 0133     		adds	r3, r3, #1
 1005 0068 FB73     		strb	r3, [r7, #15]
 1006              	.L72:
 190:joystick.c    ****         s_latest_counts[i] = defaults->center[i];
 1007              		.loc 1 190 0 is_stmt 0 discriminator 1
 1008 006a FB7B     		ldrb	r3, [r7, #15]	@ zero_extendqisi2
 1009 006c 012B     		cmp	r3, #1
 1010 006e F0D9     		bls	.L73
 1011              	.LBE9:
 192:joystick.c    **** 
 193:joystick.c    ****     s_state = JOY_CAL_OFF;
 1012              		.loc 1 193 0 is_stmt 1
 1013 0070 0A4B     		ldr	r3, .L74+20
 1014 0072 0022     		movs	r2, #0
 1015 0074 1A70     		strb	r2, [r3]
 194:joystick.c    ****     s_center_n = 0u;
 1016              		.loc 1 194 0
 1017 0076 0A4B     		ldr	r3, .L74+24
 1018 0078 0022     		movs	r2, #0
 1019 007a 1A80     		strh	r2, [r3]	@ movhi
 195:joystick.c    **** }
 1020              		.loc 1 195 0
 1021 007c 00BF     		nop
 1022 007e 1037     		adds	r7, r7, #16
 1023              		.cfi_def_cfa_offset 8
 1024 0080 BD46     		mov	sp, r7
 1025              		.cfi_def_cfa_register 13
 1026              		@ sp needed
ARM GAS  C:\Users\JENNEW~1\AppData\Local\Temp\ccMzHkUr.s 			page 23


 1027 0082 90BC     		pop	{r4, r7}
 1028              		.cfi_restore 7
 1029              		.cfi_restore 4
 1030              		.cfi_def_cfa_offset 0
 1031 0084 7047     		bx	lr
 1032              	.L75:
 1033 0086 00BF     		.align	2
 1034              	.L74:
 1035 0088 00000000 		.word	s_default
 1036 008c 10000000 		.word	s_saved
 1037 0090 20000000 		.word	s_work
 1038 0094 34000000 		.word	s_invert_mask
 1039 0098 30000000 		.word	s_latest_counts
 1040 009c 2E000000 		.word	s_state
 1041 00a0 40000000 		.word	s_center_n
 1042              		.cfi_endproc
 1043              	.LFE72:
 1044              		.size	joystick_init, .-joystick_init
 1045              		.section	.text.joystick_on_sample,"ax",%progbits
 1046              		.align	2
 1047              		.global	joystick_on_sample
 1048              		.thumb
 1049              		.thumb_func
 1050              		.type	joystick_on_sample, %function
 1051              	joystick_on_sample:
 1052              	.LFB73:
 196:joystick.c    **** 
 197:joystick.c    **** void joystick_on_sample(const int16 counts[N_CH])
 198:joystick.c    **** {
 1053              		.loc 1 198 0
 1054              		.cfi_startproc
 1055              		@ args = 0, pretend = 0, frame = 16
 1056              		@ frame_needed = 1, uses_anonymous_args = 0
 1057 0000 80B5     		push	{r7, lr}
 1058              		.cfi_def_cfa_offset 8
 1059              		.cfi_offset 7, -8
 1060              		.cfi_offset 14, -4
 1061 0002 84B0     		sub	sp, sp, #16
 1062              		.cfi_def_cfa_offset 24
 1063 0004 00AF     		add	r7, sp, #0
 1064              		.cfi_def_cfa_register 7
 1065 0006 7860     		str	r0, [r7, #4]
 1066              	.LBB10:
 199:joystick.c    ****     // Received sample from ADC over channels
 200:joystick.c    ****     for (uint8 i = 0u; i < (uint8)N_CH; i++)
 1067              		.loc 1 200 0
 1068 0008 0023     		movs	r3, #0
 1069 000a FB73     		strb	r3, [r7, #15]
 1070 000c 0CE0     		b	.L77
 1071              	.L78:
 201:joystick.c    ****         s_latest_counts[i] = counts[i];
 1072              		.loc 1 201 0 discriminator 3
 1073 000e FB7B     		ldrb	r3, [r7, #15]	@ zero_extendqisi2
 1074 0010 FA7B     		ldrb	r2, [r7, #15]	@ zero_extendqisi2
 1075 0012 5200     		lsls	r2, r2, #1
 1076 0014 7968     		ldr	r1, [r7, #4]
 1077 0016 0A44     		add	r2, r2, r1
ARM GAS  C:\Users\JENNEW~1\AppData\Local\Temp\ccMzHkUr.s 			page 24


 1078 0018 B2F90010 		ldrsh	r1, [r2]
 1079 001c 094A     		ldr	r2, .L79
 1080 001e 22F81310 		strh	r1, [r2, r3, lsl #1]	@ movhi
 200:joystick.c    ****         s_latest_counts[i] = counts[i];
 1081              		.loc 1 200 0 discriminator 3
 1082 0022 FB7B     		ldrb	r3, [r7, #15]	@ zero_extendqisi2
 1083 0024 0133     		adds	r3, r3, #1
 1084 0026 FB73     		strb	r3, [r7, #15]
 1085              	.L77:
 200:joystick.c    ****         s_latest_counts[i] = counts[i];
 1086              		.loc 1 200 0 is_stmt 0 discriminator 1
 1087 0028 FB7B     		ldrb	r3, [r7, #15]	@ zero_extendqisi2
 1088 002a 012B     		cmp	r3, #1
 1089 002c EFD9     		bls	.L78
 1090              	.LBE10:
 202:joystick.c    **** 
 203:joystick.c    ****     // If calibration enabled these will accept counts, otherwise will pass
 204:joystick.c    ****     cal_update_ranges(counts);
 1091              		.loc 1 204 0 is_stmt 1
 1092 002e 7868     		ldr	r0, [r7, #4]
 1093 0030 FFF7FEFF 		bl	cal_update_ranges
 205:joystick.c    ****     cal_center_capture_update(counts);
 1094              		.loc 1 205 0
 1095 0034 7868     		ldr	r0, [r7, #4]
 1096 0036 FFF7FEFF 		bl	cal_center_capture_update
 206:joystick.c    **** }
 1097              		.loc 1 206 0
 1098 003a 00BF     		nop
 1099 003c 1037     		adds	r7, r7, #16
 1100              		.cfi_def_cfa_offset 8
 1101 003e BD46     		mov	sp, r7
 1102              		.cfi_def_cfa_register 13
 1103              		@ sp needed
 1104 0040 80BD     		pop	{r7, pc}
 1105              	.L80:
 1106 0042 00BF     		.align	2
 1107              	.L79:
 1108 0044 30000000 		.word	s_latest_counts
 1109              		.cfi_endproc
 1110              	.LFE73:
 1111              		.size	joystick_on_sample, .-joystick_on_sample
 1112              		.section	.text.joystick_on_key,"ax",%progbits
 1113              		.align	2
 1114              		.global	joystick_on_key
 1115              		.thumb
 1116              		.thumb_func
 1117              		.type	joystick_on_key, %function
 1118              	joystick_on_key:
 1119              	.LFB74:
 207:joystick.c    **** 
 208:joystick.c    **** // Terminal UI, this is not generalized
 209:joystick.c    **** // Handles:
 210:joystick.c    **** //  x - disable joystick
 211:joystick.c    **** //  c - start calibration
 212:joystick.c    **** void joystick_on_key(char key)
 213:joystick.c    **** {
 1120              		.loc 1 213 0
ARM GAS  C:\Users\JENNEW~1\AppData\Local\Temp\ccMzHkUr.s 			page 25


 1121              		.cfi_startproc
 1122              		@ args = 0, pretend = 0, frame = 8
 1123              		@ frame_needed = 1, uses_anonymous_args = 0
 1124 0000 80B5     		push	{r7, lr}
 1125              		.cfi_def_cfa_offset 8
 1126              		.cfi_offset 7, -8
 1127              		.cfi_offset 14, -4
 1128 0002 82B0     		sub	sp, sp, #8
 1129              		.cfi_def_cfa_offset 16
 1130 0004 00AF     		add	r7, sp, #0
 1131              		.cfi_def_cfa_register 7
 1132 0006 0346     		mov	r3, r0
 1133 0008 FB71     		strb	r3, [r7, #7]
 214:joystick.c    ****     if (key == 'x' || key == 'X')
 1134              		.loc 1 214 0
 1135 000a FB79     		ldrb	r3, [r7, #7]	@ zero_extendqisi2
 1136 000c 782B     		cmp	r3, #120
 1137 000e 02D0     		beq	.L82
 1138              		.loc 1 214 0 is_stmt 0 discriminator 1
 1139 0010 FB79     		ldrb	r3, [r7, #7]	@ zero_extendqisi2
 1140 0012 582B     		cmp	r3, #88
 1141 0014 03D1     		bne	.L83
 1142              	.L82:
 215:joystick.c    ****     {
 216:joystick.c    ****         s_state = JOY_CAL_OFF;
 1143              		.loc 1 216 0 is_stmt 1
 1144 0016 144B     		ldr	r3, .L89
 1145 0018 0022     		movs	r2, #0
 1146 001a 1A70     		strb	r2, [r3]
 217:joystick.c    ****         return;
 1147              		.loc 1 217 0
 1148 001c 20E0     		b	.L81
 1149              	.L83:
 218:joystick.c    ****     }
 219:joystick.c    **** 
 220:joystick.c    ****     if (!(key == 'c' || key == 'C'))
 1150              		.loc 1 220 0
 1151 001e FB79     		ldrb	r3, [r7, #7]	@ zero_extendqisi2
 1152 0020 632B     		cmp	r3, #99
 1153 0022 02D0     		beq	.L85
 1154              		.loc 1 220 0 is_stmt 0 discriminator 1
 1155 0024 FB79     		ldrb	r3, [r7, #7]	@ zero_extendqisi2
 1156 0026 432B     		cmp	r3, #67
 1157 0028 19D1     		bne	.L88
 1158              	.L85:
 221:joystick.c    ****         return;
 222:joystick.c    **** 
 223:joystick.c    ****     // c will advance through calibration stages
 224:joystick.c    ****     if (s_state == JOY_CAL_OFF)
 1159              		.loc 1 224 0 is_stmt 1
 1160 002a 0F4B     		ldr	r3, .L89
 1161 002c 1B78     		ldrb	r3, [r3]	@ zero_extendqisi2
 1162 002e 002B     		cmp	r3, #0
 1163 0030 03D1     		bne	.L86
 225:joystick.c    ****     {
 226:joystick.c    ****         cal_begin_range_capture(s_latest_counts);
 1164              		.loc 1 226 0
ARM GAS  C:\Users\JENNEW~1\AppData\Local\Temp\ccMzHkUr.s 			page 26


 1165 0032 0E48     		ldr	r0, .L89+4
 1166 0034 FFF7FEFF 		bl	cal_begin_range_capture
 1167 0038 12E0     		b	.L81
 1168              	.L86:
 227:joystick.c    ****     }
 228:joystick.c    ****     else if (s_state == JOY_CAL_RANGE_CAPTURE)
 1169              		.loc 1 228 0
 1170 003a 0B4B     		ldr	r3, .L89
 1171 003c 1B78     		ldrb	r3, [r3]	@ zero_extendqisi2
 1172 003e 012B     		cmp	r3, #1
 1173 0040 02D1     		bne	.L87
 229:joystick.c    ****     {
 230:joystick.c    ****         cal_start_center_capture();
 1174              		.loc 1 230 0
 1175 0042 FFF7FEFF 		bl	cal_start_center_capture
 1176 0046 0BE0     		b	.L81
 1177              	.L87:
 231:joystick.c    ****     }
 232:joystick.c    ****     else if (s_state == JOY_CAL_CENTER_CAPTURE)
 1178              		.loc 1 232 0
 1179 0048 074B     		ldr	r3, .L89
 1180 004a 1B78     		ldrb	r3, [r3]	@ zero_extendqisi2
 1181 004c 022B     		cmp	r3, #2
 1182 004e 07D0     		beq	.L81
 233:joystick.c    ****     {
 234:joystick.c    ****         // Pass
 235:joystick.c    ****     }
 236:joystick.c    ****     else if (s_state == JOY_CAL_CONFIRM_SAVE)
 1183              		.loc 1 236 0
 1184 0050 054B     		ldr	r3, .L89
 1185 0052 1B78     		ldrb	r3, [r3]	@ zero_extendqisi2
 1186 0054 032B     		cmp	r3, #3
 1187 0056 03D1     		bne	.L81
 237:joystick.c    ****     {
 238:joystick.c    ****         cal_save_or_restart();
 1188              		.loc 1 238 0
 1189 0058 FFF7FEFF 		bl	cal_save_or_restart
 1190 005c 00E0     		b	.L81
 1191              	.L88:
 221:joystick.c    **** 
 1192              		.loc 1 221 0
 1193 005e 00BF     		nop
 1194              	.L81:
 239:joystick.c    ****     }
 240:joystick.c    **** }
 1195              		.loc 1 240 0
 1196 0060 0837     		adds	r7, r7, #8
 1197              		.cfi_def_cfa_offset 8
 1198 0062 BD46     		mov	sp, r7
 1199              		.cfi_def_cfa_register 13
 1200              		@ sp needed
 1201 0064 80BD     		pop	{r7, pc}
 1202              	.L90:
 1203 0066 00BF     		.align	2
 1204              	.L89:
 1205 0068 2E000000 		.word	s_state
 1206 006c 30000000 		.word	s_latest_counts
ARM GAS  C:\Users\JENNEW~1\AppData\Local\Temp\ccMzHkUr.s 			page 27


 1207              		.cfi_endproc
 1208              	.LFE74:
 1209              		.size	joystick_on_key, .-joystick_on_key
 1210              		.section	.text.joystick_cal_state,"ax",%progbits
 1211              		.align	2
 1212              		.global	joystick_cal_state
 1213              		.thumb
 1214              		.thumb_func
 1215              		.type	joystick_cal_state, %function
 1216              	joystick_cal_state:
 1217              	.LFB75:
 241:joystick.c    **** 
 242:joystick.c    **** // Calibration state machine state getter
 243:joystick.c    **** joy_cal_state_t joystick_cal_state(void)
 244:joystick.c    **** {
 1218              		.loc 1 244 0
 1219              		.cfi_startproc
 1220              		@ args = 0, pretend = 0, frame = 0
 1221              		@ frame_needed = 1, uses_anonymous_args = 0
 1222              		@ link register save eliminated.
 1223 0000 80B4     		push	{r7}
 1224              		.cfi_def_cfa_offset 4
 1225              		.cfi_offset 7, -4
 1226 0002 00AF     		add	r7, sp, #0
 1227              		.cfi_def_cfa_register 7
 245:joystick.c    ****     return s_state;
 1228              		.loc 1 245 0
 1229 0004 024B     		ldr	r3, .L93
 1230 0006 1B78     		ldrb	r3, [r3]	@ zero_extendqisi2
 246:joystick.c    **** }
 1231              		.loc 1 246 0
 1232 0008 1846     		mov	r0, r3
 1233 000a BD46     		mov	sp, r7
 1234              		.cfi_def_cfa_register 13
 1235              		@ sp needed
 1236 000c 80BC     		pop	{r7}
 1237              		.cfi_restore 7
 1238              		.cfi_def_cfa_offset 0
 1239 000e 7047     		bx	lr
 1240              	.L94:
 1241              		.align	2
 1242              	.L93:
 1243 0010 2E000000 		.word	s_state
 1244              		.cfi_endproc
 1245              	.LFE75:
 1246              		.size	joystick_cal_state, .-joystick_cal_state
 1247              		.section	.text.joystick_get_cal,"ax",%progbits
 1248              		.align	2
 1249              		.global	joystick_get_cal
 1250              		.thumb
 1251              		.thumb_func
 1252              		.type	joystick_get_cal, %function
 1253              	joystick_get_cal:
 1254              	.LFB76:
 247:joystick.c    **** 
 248:joystick.c    **** // Getter function for calibration - Unused
 249:joystick.c    **** uint8 joystick_get_cal(joy_cal_t *out)
ARM GAS  C:\Users\JENNEW~1\AppData\Local\Temp\ccMzHkUr.s 			page 28


 250:joystick.c    **** {
 1255              		.loc 1 250 0
 1256              		.cfi_startproc
 1257              		@ args = 0, pretend = 0, frame = 8
 1258              		@ frame_needed = 1, uses_anonymous_args = 0
 1259 0000 90B5     		push	{r4, r7, lr}
 1260              		.cfi_def_cfa_offset 12
 1261              		.cfi_offset 4, -12
 1262              		.cfi_offset 7, -8
 1263              		.cfi_offset 14, -4
 1264 0002 83B0     		sub	sp, sp, #12
 1265              		.cfi_def_cfa_offset 24
 1266 0004 00AF     		add	r7, sp, #0
 1267              		.cfi_def_cfa_register 7
 1268 0006 7860     		str	r0, [r7, #4]
 251:joystick.c    ****     if (joystick_validate(&s_saved))
 1269              		.loc 1 251 0
 1270 0008 0B48     		ldr	r0, .L98
 1271 000a FFF7FEFF 		bl	joystick_validate
 1272 000e 0346     		mov	r3, r0
 1273 0010 002B     		cmp	r3, #0
 1274 0012 0BD0     		beq	.L96
 252:joystick.c    ****     {
 253:joystick.c    ****         *out = s_saved;
 1275              		.loc 1 253 0
 1276 0014 7B68     		ldr	r3, [r7, #4]
 1277 0016 084A     		ldr	r2, .L98
 1278 0018 1C46     		mov	r4, r3
 1279 001a 1346     		mov	r3, r2
 1280 001c 07CB     		ldmia	r3!, {r0, r1, r2}
 1281 001e 2060     		str	r0, [r4]	@ unaligned
 1282 0020 6160     		str	r1, [r4, #4]	@ unaligned
 1283 0022 A260     		str	r2, [r4, #8]	@ unaligned
 1284 0024 1B88     		ldrh	r3, [r3]	@ unaligned
 1285 0026 A381     		strh	r3, [r4, #12]	@ unaligned
 254:joystick.c    ****         return 1u;
 1286              		.loc 1 254 0
 1287 0028 0123     		movs	r3, #1
 1288 002a 00E0     		b	.L97
 1289              	.L96:
 255:joystick.c    ****     }
 256:joystick.c    ****     return 0u;
 1290              		.loc 1 256 0
 1291 002c 0023     		movs	r3, #0
 1292              	.L97:
 257:joystick.c    **** }
 1293              		.loc 1 257 0
 1294 002e 1846     		mov	r0, r3
 1295 0030 0C37     		adds	r7, r7, #12
 1296              		.cfi_def_cfa_offset 12
 1297 0032 BD46     		mov	sp, r7
 1298              		.cfi_def_cfa_register 13
 1299              		@ sp needed
 1300 0034 90BD     		pop	{r4, r7, pc}
 1301              	.L99:
 1302 0036 00BF     		.align	2
 1303              	.L98:
ARM GAS  C:\Users\JENNEW~1\AppData\Local\Temp\ccMzHkUr.s 			page 29


 1304 0038 10000000 		.word	s_saved
 1305              		.cfi_endproc
 1306              	.LFE76:
 1307              		.size	joystick_get_cal, .-joystick_get_cal
 1308              		.section	.text.joystick_get_raw,"ax",%progbits
 1309              		.align	2
 1310              		.global	joystick_get_raw
 1311              		.thumb
 1312              		.thumb_func
 1313              		.type	joystick_get_raw, %function
 1314              	joystick_get_raw:
 1315              	.LFB77:
 258:joystick.c    **** 
 259:joystick.c    **** // Getter function for uncalibrated samples - Unused
 260:joystick.c    **** void joystick_get_raw(int16 out_counts[N_CH])
 261:joystick.c    **** {
 1316              		.loc 1 261 0
 1317              		.cfi_startproc
 1318              		@ args = 0, pretend = 0, frame = 16
 1319              		@ frame_needed = 1, uses_anonymous_args = 0
 1320              		@ link register save eliminated.
 1321 0000 80B4     		push	{r7}
 1322              		.cfi_def_cfa_offset 4
 1323              		.cfi_offset 7, -4
 1324 0002 85B0     		sub	sp, sp, #20
 1325              		.cfi_def_cfa_offset 24
 1326 0004 00AF     		add	r7, sp, #0
 1327              		.cfi_def_cfa_register 7
 1328 0006 7860     		str	r0, [r7, #4]
 1329              	.LBB11:
 262:joystick.c    ****     for (uint8 i = 0u; i < (uint8)N_CH; i++)
 1330              		.loc 1 262 0
 1331 0008 0023     		movs	r3, #0
 1332 000a FB73     		strb	r3, [r7, #15]
 1333 000c 0BE0     		b	.L101
 1334              	.L102:
 263:joystick.c    ****         out_counts[i] = s_latest_counts[i];
 1335              		.loc 1 263 0 discriminator 3
 1336 000e FB7B     		ldrb	r3, [r7, #15]	@ zero_extendqisi2
 1337 0010 5B00     		lsls	r3, r3, #1
 1338 0012 7A68     		ldr	r2, [r7, #4]
 1339 0014 1344     		add	r3, r3, r2
 1340 0016 FA7B     		ldrb	r2, [r7, #15]	@ zero_extendqisi2
 1341 0018 0749     		ldr	r1, .L103
 1342 001a 31F91220 		ldrsh	r2, [r1, r2, lsl #1]
 1343 001e 1A80     		strh	r2, [r3]	@ movhi
 262:joystick.c    ****     for (uint8 i = 0u; i < (uint8)N_CH; i++)
 1344              		.loc 1 262 0 discriminator 3
 1345 0020 FB7B     		ldrb	r3, [r7, #15]	@ zero_extendqisi2
 1346 0022 0133     		adds	r3, r3, #1
 1347 0024 FB73     		strb	r3, [r7, #15]
 1348              	.L101:
 262:joystick.c    ****     for (uint8 i = 0u; i < (uint8)N_CH; i++)
 1349              		.loc 1 262 0 is_stmt 0 discriminator 1
 1350 0026 FB7B     		ldrb	r3, [r7, #15]	@ zero_extendqisi2
 1351 0028 012B     		cmp	r3, #1
 1352 002a F0D9     		bls	.L102
ARM GAS  C:\Users\JENNEW~1\AppData\Local\Temp\ccMzHkUr.s 			page 30


 1353              	.LBE11:
 264:joystick.c    **** }
 1354              		.loc 1 264 0 is_stmt 1
 1355 002c 00BF     		nop
 1356 002e 1437     		adds	r7, r7, #20
 1357              		.cfi_def_cfa_offset 4
 1358 0030 BD46     		mov	sp, r7
 1359              		.cfi_def_cfa_register 13
 1360              		@ sp needed
 1361 0032 80BC     		pop	{r7}
 1362              		.cfi_restore 7
 1363              		.cfi_def_cfa_offset 0
 1364 0034 7047     		bx	lr
 1365              	.L104:
 1366 0036 00BF     		.align	2
 1367              	.L103:
 1368 0038 30000000 		.word	s_latest_counts
 1369              		.cfi_endproc
 1370              	.LFE77:
 1371              		.size	joystick_get_raw, .-joystick_get_raw
 1372              		.section	.text.joystick_center_samples_collected,"ax",%progbits
 1373              		.align	2
 1374              		.global	joystick_center_samples_collected
 1375              		.thumb
 1376              		.thumb_func
 1377              		.type	joystick_center_samples_collected, %function
 1378              	joystick_center_samples_collected:
 1379              	.LFB78:
 265:joystick.c    **** 
 266:joystick.c    **** // Getter function for how many samples have been captured during calibration
 267:joystick.c    **** uint16 joystick_center_samples_collected(void)
 268:joystick.c    **** {
 1380              		.loc 1 268 0
 1381              		.cfi_startproc
 1382              		@ args = 0, pretend = 0, frame = 0
 1383              		@ frame_needed = 1, uses_anonymous_args = 0
 1384              		@ link register save eliminated.
 1385 0000 80B4     		push	{r7}
 1386              		.cfi_def_cfa_offset 4
 1387              		.cfi_offset 7, -4
 1388 0002 00AF     		add	r7, sp, #0
 1389              		.cfi_def_cfa_register 7
 269:joystick.c    ****     return s_center_n;
 1390              		.loc 1 269 0
 1391 0004 024B     		ldr	r3, .L107
 1392 0006 1B88     		ldrh	r3, [r3]
 270:joystick.c    **** }
 1393              		.loc 1 270 0
 1394 0008 1846     		mov	r0, r3
 1395 000a BD46     		mov	sp, r7
 1396              		.cfi_def_cfa_register 13
 1397              		@ sp needed
 1398 000c 80BC     		pop	{r7}
 1399              		.cfi_restore 7
 1400              		.cfi_def_cfa_offset 0
 1401 000e 7047     		bx	lr
 1402              	.L108:
ARM GAS  C:\Users\JENNEW~1\AppData\Local\Temp\ccMzHkUr.s 			page 31


 1403              		.align	2
 1404              	.L107:
 1405 0010 40000000 		.word	s_center_n
 1406              		.cfi_endproc
 1407              	.LFE78:
 1408              		.size	joystick_center_samples_collected, .-joystick_center_samples_collected
 1409              		.global	__aeabi_fmul
 1410              		.section	.text.joystick_get_cmd,"ax",%progbits
 1411              		.align	2
 1412              		.global	joystick_get_cmd
 1413              		.thumb
 1414              		.thumb_func
 1415              		.type	joystick_get_cmd, %function
 1416              	joystick_get_cmd:
 1417              	.LFB79:
 271:joystick.c    **** 
 272:joystick.c    **** // Main API call
 273:joystick.c    **** // Takes raw ADC and converts to normalized joystick output.
 274:joystick.c    **** void joystick_get_cmd(joy_cmd_t *out_cmd)
 275:joystick.c    **** {
 1418              		.loc 1 275 0
 1419              		.cfi_startproc
 1420              		@ args = 0, pretend = 0, frame = 24
 1421              		@ frame_needed = 1, uses_anonymous_args = 0
 1422 0000 90B5     		push	{r4, r7, lr}
 1423              		.cfi_def_cfa_offset 12
 1424              		.cfi_offset 4, -12
 1425              		.cfi_offset 7, -8
 1426              		.cfi_offset 14, -4
 1427 0002 87B0     		sub	sp, sp, #28
 1428              		.cfi_def_cfa_offset 40
 1429 0004 00AF     		add	r7, sp, #0
 1430              		.cfi_def_cfa_register 7
 1431 0006 7860     		str	r0, [r7, #4]
 276:joystick.c    ****     // Grab default cal, and use user calibration only if its valid.
 277:joystick.c    ****     const joy_cal_t *cal = &s_default;
 1432              		.loc 1 277 0
 1433 0008 304B     		ldr	r3, .L120
 1434 000a 7B61     		str	r3, [r7, #20]
 278:joystick.c    ****     if (joystick_validate(&s_saved))
 1435              		.loc 1 278 0
 1436 000c 3048     		ldr	r0, .L120+4
 1437 000e FFF7FEFF 		bl	joystick_validate
 1438 0012 0346     		mov	r3, r0
 1439 0014 002B     		cmp	r3, #0
 1440 0016 01D0     		beq	.L110
 279:joystick.c    ****     {
 280:joystick.c    ****         cal = &s_saved;
 1441              		.loc 1 280 0
 1442 0018 2D4B     		ldr	r3, .L120+4
 1443 001a 7B61     		str	r3, [r7, #20]
 1444              	.L110:
 1445              	.LBB12:
 281:joystick.c    ****     }
 282:joystick.c    **** 
 283:joystick.c    ****     // For each channel
 284:joystick.c    ****     for (uint8 i = 0u; i < (uint8)N_CH; i++)
ARM GAS  C:\Users\JENNEW~1\AppData\Local\Temp\ccMzHkUr.s 			page 32


 1446              		.loc 1 284 0
 1447 001c 0023     		movs	r3, #0
 1448 001e FB74     		strb	r3, [r7, #19]
 1449 0020 4CE0     		b	.L111
 1450              	.L117:
 1451              	.LBB13:
 285:joystick.c    ****     {
 286:joystick.c    ****         // Linear normalize between min, center, and max
 287:joystick.c    ****         float u = normalize_axis(s_latest_counts[i], cal->minv[i], cal->center[i], cal->maxv[i]);
 1452              		.loc 1 287 0
 1453 0022 FB7C     		ldrb	r3, [r7, #19]	@ zero_extendqisi2
 1454 0024 2B4A     		ldr	r2, .L120+8
 1455 0026 32F91300 		ldrsh	r0, [r2, r3, lsl #1]
 1456 002a FA7C     		ldrb	r2, [r7, #19]	@ zero_extendqisi2
 1457 002c 7B69     		ldr	r3, [r7, #20]
 1458 002e 33F91210 		ldrsh	r1, [r3, r2, lsl #1]
 1459 0032 FA7C     		ldrb	r2, [r7, #19]	@ zero_extendqisi2
 1460 0034 7B69     		ldr	r3, [r7, #20]
 1461 0036 0432     		adds	r2, r2, #4
 1462 0038 33F91240 		ldrsh	r4, [r3, r2, lsl #1]
 1463 003c FB7C     		ldrb	r3, [r7, #19]	@ zero_extendqisi2
 1464 003e 7A69     		ldr	r2, [r7, #20]
 1465 0040 5B00     		lsls	r3, r3, #1
 1466 0042 1344     		add	r3, r3, r2
 1467 0044 B3F90430 		ldrsh	r3, [r3, #4]
 1468 0048 2246     		mov	r2, r4
 1469 004a FFF7FEFF 		bl	normalize_axis
 1470 004e F860     		str	r0, [r7, #12]	@ float
 288:joystick.c    ****         // Zeroes anything within 5% of center
 289:joystick.c    ****         u = apply_deadband(u, (float)JOY_DEADBAND);
 1471              		.loc 1 289 0
 1472 0050 2149     		ldr	r1, .L120+12
 1473 0052 F868     		ldr	r0, [r7, #12]	@ float
 1474 0054 FFF7FEFF 		bl	apply_deadband
 1475 0058 F860     		str	r0, [r7, #12]	@ float
 290:joystick.c    **** 
 291:joystick.c    ****         // Flips x axis for pan
 292:joystick.c    ****         if ((s_invert_mask >> i) & 0x1u)
 1476              		.loc 1 292 0
 1477 005a 204B     		ldr	r3, .L120+16
 1478 005c 1A68     		ldr	r2, [r3]
 1479 005e FB7C     		ldrb	r3, [r7, #19]	@ zero_extendqisi2
 1480 0060 22FA03F3 		lsr	r3, r2, r3
 1481 0064 03F00103 		and	r3, r3, #1
 1482 0068 002B     		cmp	r3, #0
 1483 006a 03D0     		beq	.L112
 293:joystick.c    ****             u = -u;
 1484              		.loc 1 293 0
 1485 006c FB68     		ldr	r3, [r7, #12]
 1486 006e 83F00043 		eor	r3, r3, #-2147483648
 1487 0072 FB60     		str	r3, [r7, #12]	@ float
 1488              	.L112:
 294:joystick.c    **** 
 295:joystick.c    ****         // Scale by global variable so user can tune output to different limits
 296:joystick.c    ****         u *= s_sensitivity_multiplier;
 1489              		.loc 1 296 0
 1490 0074 1A4B     		ldr	r3, .L120+20
ARM GAS  C:\Users\JENNEW~1\AppData\Local\Temp\ccMzHkUr.s 			page 33


 1491 0076 1B68     		ldr	r3, [r3]	@ float
 1492 0078 1946     		mov	r1, r3
 1493 007a F868     		ldr	r0, [r7, #12]	@ float
 1494 007c FFF7FEFF 		bl	__aeabi_fmul
 1495 0080 0346     		mov	r3, r0
 1496 0082 FB60     		str	r3, [r7, #12]	@ float
 297:joystick.c    ****         if (u > (float)CMD_MAX) u = (float)CMD_MAX;
 1497              		.loc 1 297 0
 1498 0084 4FF07E51 		mov	r1, #1065353216
 1499 0088 F868     		ldr	r0, [r7, #12]	@ float
 1500 008a FFF7FEFF 		bl	__aeabi_fcmpgt
 1501 008e 0346     		mov	r3, r0
 1502 0090 002B     		cmp	r3, #0
 1503 0092 02D0     		beq	.L113
 1504              		.loc 1 297 0 is_stmt 0 discriminator 1
 1505 0094 4FF07E53 		mov	r3, #1065353216
 1506 0098 FB60     		str	r3, [r7, #12]	@ float
 1507              	.L113:
 298:joystick.c    ****         if (u < -(float)CMD_MAX) u = -(float)CMD_MAX;
 1508              		.loc 1 298 0 is_stmt 1
 1509 009a 1249     		ldr	r1, .L120+24
 1510 009c F868     		ldr	r0, [r7, #12]	@ float
 1511 009e FFF7FEFF 		bl	__aeabi_fcmplt
 1512 00a2 0346     		mov	r3, r0
 1513 00a4 002B     		cmp	r3, #0
 1514 00a6 01D0     		beq	.L115
 1515              		.loc 1 298 0 is_stmt 0 discriminator 1
 1516 00a8 0E4B     		ldr	r3, .L120+24
 1517 00aa FB60     		str	r3, [r7, #12]	@ float
 1518              	.L115:
 299:joystick.c    ****         out_cmd->u[i] = u;
 1519              		.loc 1 299 0 is_stmt 1 discriminator 2
 1520 00ac FA7C     		ldrb	r2, [r7, #19]	@ zero_extendqisi2
 1521 00ae 7B68     		ldr	r3, [r7, #4]
 1522 00b0 F968     		ldr	r1, [r7, #12]	@ float
 1523 00b2 43F82210 		str	r1, [r3, r2, lsl #2]	@ float
 1524              	.LBE13:
 284:joystick.c    ****     {
 1525              		.loc 1 284 0 discriminator 2
 1526 00b6 FB7C     		ldrb	r3, [r7, #19]	@ zero_extendqisi2
 1527 00b8 0133     		adds	r3, r3, #1
 1528 00ba FB74     		strb	r3, [r7, #19]
 1529              	.L111:
 284:joystick.c    ****     {
 1530              		.loc 1 284 0 is_stmt 0 discriminator 1
 1531 00bc FB7C     		ldrb	r3, [r7, #19]	@ zero_extendqisi2
 1532 00be 012B     		cmp	r3, #1
 1533 00c0 AFD9     		bls	.L117
 1534              	.LBE12:
 300:joystick.c    ****     }
 301:joystick.c    **** }
 1535              		.loc 1 301 0 is_stmt 1
 1536 00c2 00BF     		nop
 1537 00c4 1C37     		adds	r7, r7, #28
 1538              		.cfi_def_cfa_offset 12
 1539 00c6 BD46     		mov	sp, r7
 1540              		.cfi_def_cfa_register 13
ARM GAS  C:\Users\JENNEW~1\AppData\Local\Temp\ccMzHkUr.s 			page 34


 1541              		@ sp needed
 1542 00c8 90BD     		pop	{r4, r7, pc}
 1543              	.L121:
 1544 00ca 00BF     		.align	2
 1545              	.L120:
 1546 00cc 00000000 		.word	s_default
 1547 00d0 10000000 		.word	s_saved
 1548 00d4 30000000 		.word	s_latest_counts
 1549 00d8 CDCC4C3D 		.word	1028443341
 1550 00dc 34000000 		.word	s_invert_mask
 1551 00e0 00000000 		.word	s_sensitivity_multiplier
 1552 00e4 000080BF 		.word	-1082130432
 1553              		.cfi_endproc
 1554              	.LFE79:
 1555              		.size	joystick_get_cmd, .-joystick_get_cmd
 1556              		.section	.text.joystick_save,"ax",%progbits
 1557              		.align	2
 1558              		.global	joystick_save
 1559              		.thumb
 1560              		.thumb_func
 1561              		.type	joystick_save, %function
 1562              	joystick_save:
 1563              	.LFB80:
 302:joystick.c    **** /* Save current calibration to EEPROM.
 303:joystick.c    ****  * Returns 1 on success, 0 if cal invalid or write failed. */
 304:joystick.c    **** uint8 joystick_save(void)
 305:joystick.c    **** {
 1564              		.loc 1 305 0
 1565              		.cfi_startproc
 1566              		@ args = 0, pretend = 0, frame = 16
 1567              		@ frame_needed = 1, uses_anonymous_args = 0
 1568 0000 80B5     		push	{r7, lr}
 1569              		.cfi_def_cfa_offset 8
 1570              		.cfi_offset 7, -8
 1571              		.cfi_offset 14, -4
 1572 0002 84B0     		sub	sp, sp, #16
 1573              		.cfi_def_cfa_offset 24
 1574 0004 00AF     		add	r7, sp, #0
 1575              		.cfi_def_cfa_register 7
 306:joystick.c    ****     joy_cal_t cal;
 307:joystick.c    ****     if (!joystick_get_cal(&cal)) return 0u;
 1576              		.loc 1 307 0
 1577 0006 3B46     		mov	r3, r7
 1578 0008 1846     		mov	r0, r3
 1579 000a FFF7FEFF 		bl	joystick_get_cal
 1580 000e 0346     		mov	r3, r0
 1581 0010 002B     		cmp	r3, #0
 1582 0012 01D1     		bne	.L123
 1583              		.loc 1 307 0 is_stmt 0 discriminator 1
 1584 0014 0023     		movs	r3, #0
 1585 0016 06E0     		b	.L125
 1586              	.L123:
 308:joystick.c    ****     return psoc_eeprom_write(PSOC_EEPROM_SLOT_JOY_CAL,
 1587              		.loc 1 308 0 is_stmt 1
 1588 0018 3B46     		mov	r3, r7
 1589 001a 0E22     		movs	r2, #14
 1590 001c 1946     		mov	r1, r3
ARM GAS  C:\Users\JENNEW~1\AppData\Local\Temp\ccMzHkUr.s 			page 35


 1591 001e 0120     		movs	r0, #1
 1592 0020 FFF7FEFF 		bl	psoc_eeprom_write
 1593 0024 0346     		mov	r3, r0
 1594              	.L125:
 309:joystick.c    ****                              &cal, (uint8)sizeof(joy_cal_t));
 310:joystick.c    **** }
 1595              		.loc 1 310 0 discriminator 1
 1596 0026 1846     		mov	r0, r3
 1597 0028 1037     		adds	r7, r7, #16
 1598              		.cfi_def_cfa_offset 8
 1599 002a BD46     		mov	sp, r7
 1600              		.cfi_def_cfa_register 13
 1601              		@ sp needed
 1602 002c 80BD     		pop	{r7, pc}
 1603              		.cfi_endproc
 1604              	.LFE80:
 1605              		.size	joystick_save, .-joystick_save
 1606 002e 00BF     		.section	.text.joystick_load,"ax",%progbits
 1607              		.align	2
 1608              		.global	joystick_load
 1609              		.thumb
 1610              		.thumb_func
 1611              		.type	joystick_load, %function
 1612              	joystick_load:
 1613              	.LFB81:
 311:joystick.c    ****  
 312:joystick.c    **** /* Load calibration from EEPROM and apply it.
 313:joystick.c    ****  * Calls joystick_init internally with loaded cal.
 314:joystick.c    ****  * invert_mask is re-applied from the caller's value.
 315:joystick.c    ****  * Returns 1 if loaded and applied, 0 if no saved cal found. */
 316:joystick.c    **** uint8 joystick_load(uint32 invert_mask)
 317:joystick.c    **** {
 1614              		.loc 1 317 0
 1615              		.cfi_startproc
 1616              		@ args = 0, pretend = 0, frame = 24
 1617              		@ frame_needed = 1, uses_anonymous_args = 0
 1618 0000 80B5     		push	{r7, lr}
 1619              		.cfi_def_cfa_offset 8
 1620              		.cfi_offset 7, -8
 1621              		.cfi_offset 14, -4
 1622 0002 86B0     		sub	sp, sp, #24
 1623              		.cfi_def_cfa_offset 32
 1624 0004 00AF     		add	r7, sp, #0
 1625              		.cfi_def_cfa_register 7
 1626 0006 7860     		str	r0, [r7, #4]
 318:joystick.c    ****     joy_cal_t cal;
 319:joystick.c    ****     if (!psoc_eeprom_read(PSOC_EEPROM_SLOT_JOY_CAL,
 1627              		.loc 1 319 0
 1628 0008 07F10803 		add	r3, r7, #8
 1629 000c 0E22     		movs	r2, #14
 1630 000e 1946     		mov	r1, r3
 1631 0010 0120     		movs	r0, #1
 1632 0012 FFF7FEFF 		bl	psoc_eeprom_read
 1633 0016 0346     		mov	r3, r0
 1634 0018 002B     		cmp	r3, #0
 1635 001a 01D1     		bne	.L127
 320:joystick.c    ****                           &cal, (uint8)sizeof(joy_cal_t))) return 0u;
ARM GAS  C:\Users\JENNEW~1\AppData\Local\Temp\ccMzHkUr.s 			page 36


 1636              		.loc 1 320 0
 1637 001c 0023     		movs	r3, #0
 1638 001e 10E0     		b	.L130
 1639              	.L127:
 321:joystick.c    ****     if (!joystick_validate(&cal)) return 0u;
 1640              		.loc 1 321 0
 1641 0020 07F10803 		add	r3, r7, #8
 1642 0024 1846     		mov	r0, r3
 1643 0026 FFF7FEFF 		bl	joystick_validate
 1644 002a 0346     		mov	r3, r0
 1645 002c 002B     		cmp	r3, #0
 1646 002e 01D1     		bne	.L129
 1647              		.loc 1 321 0 is_stmt 0 discriminator 1
 1648 0030 0023     		movs	r3, #0
 1649 0032 06E0     		b	.L130
 1650              	.L129:
 322:joystick.c    ****     joystick_init(&cal, invert_mask);
 1651              		.loc 1 322 0 is_stmt 1
 1652 0034 07F10803 		add	r3, r7, #8
 1653 0038 7968     		ldr	r1, [r7, #4]
 1654 003a 1846     		mov	r0, r3
 1655 003c FFF7FEFF 		bl	joystick_init
 323:joystick.c    ****     return 1u;
 1656              		.loc 1 323 0
 1657 0040 0123     		movs	r3, #1
 1658              	.L130:
 324:joystick.c    **** }
 1659              		.loc 1 324 0 discriminator 1
 1660 0042 1846     		mov	r0, r3
 1661 0044 1837     		adds	r7, r7, #24
 1662              		.cfi_def_cfa_offset 8
 1663 0046 BD46     		mov	sp, r7
 1664              		.cfi_def_cfa_register 13
 1665              		@ sp needed
 1666 0048 80BD     		pop	{r7, pc}
 1667              		.cfi_endproc
 1668              	.LFE81:
 1669              		.size	joystick_load, .-joystick_load
 1670 004a 00BF     		.text
 1671              	.Letext0:
 1672              		.file 2 "c:\\program files (x86)\\cypress\\psoc creator\\4.4\\psoc creator\\import\\gnu\\arm\\5.4.
 1673              		.file 3 "c:\\program files (x86)\\cypress\\psoc creator\\4.4\\psoc creator\\import\\gnu\\arm\\5.4.
 1674              		.file 4 "Generated_Source\\PSoC5/cytypes.h"
 1675              		.file 5 "joystick.h"
 1676              		.file 6 "Generated_Source\\PSoC5/core_cm3.h"
 1677              		.section	.debug_info,"",%progbits
 1678              	.Ldebug_info0:
 1679 0000 C1060000 		.4byte	0x6c1
 1680 0004 0400     		.2byte	0x4
 1681 0006 00000000 		.4byte	.Ldebug_abbrev0
 1682 000a 04       		.byte	0x4
 1683 000b 01       		.uleb128 0x1
 1684 000c D9000000 		.4byte	.LASF76
 1685 0010 0C       		.byte	0xc
 1686 0011 18040000 		.4byte	.LASF77
 1687 0015 AE010000 		.4byte	.LASF78
 1688 0019 00000000 		.4byte	.Ldebug_ranges0+0
ARM GAS  C:\Users\JENNEW~1\AppData\Local\Temp\ccMzHkUr.s 			page 37


 1689 001d 00000000 		.4byte	0
 1690 0021 00000000 		.4byte	.Ldebug_line0
 1691 0025 02       		.uleb128 0x2
 1692 0026 01       		.byte	0x1
 1693 0027 06       		.byte	0x6
 1694 0028 29030000 		.4byte	.LASF0
 1695 002c 02       		.uleb128 0x2
 1696 002d 01       		.byte	0x1
 1697 002e 08       		.byte	0x8
 1698 002f F6020000 		.4byte	.LASF1
 1699 0033 02       		.uleb128 0x2
 1700 0034 02       		.byte	0x2
 1701 0035 05       		.byte	0x5
 1702 0036 99000000 		.4byte	.LASF2
 1703 003a 02       		.uleb128 0x2
 1704 003b 02       		.byte	0x2
 1705 003c 07       		.byte	0x7
 1706 003d 77030000 		.4byte	.LASF3
 1707 0041 03       		.uleb128 0x3
 1708 0042 81040000 		.4byte	.LASF9
 1709 0046 02       		.byte	0x2
 1710 0047 3F       		.byte	0x3f
 1711 0048 4C000000 		.4byte	0x4c
 1712 004c 02       		.uleb128 0x2
 1713 004d 04       		.byte	0x4
 1714 004e 05       		.byte	0x5
 1715 004f A9020000 		.4byte	.LASF4
 1716 0053 02       		.uleb128 0x2
 1717 0054 04       		.byte	0x4
 1718 0055 07       		.byte	0x7
 1719 0056 23040000 		.4byte	.LASF5
 1720 005a 02       		.uleb128 0x2
 1721 005b 08       		.byte	0x8
 1722 005c 05       		.byte	0x5
 1723 005d 8B020000 		.4byte	.LASF6
 1724 0061 02       		.uleb128 0x2
 1725 0062 08       		.byte	0x8
 1726 0063 07       		.byte	0x7
 1727 0064 35030000 		.4byte	.LASF7
 1728 0068 04       		.uleb128 0x4
 1729 0069 04       		.byte	0x4
 1730 006a 05       		.byte	0x5
 1731 006b 696E7400 		.ascii	"int\000"
 1732 006f 02       		.uleb128 0x2
 1733 0070 04       		.byte	0x4
 1734 0071 07       		.byte	0x7
 1735 0072 4C030000 		.4byte	.LASF8
 1736 0076 03       		.uleb128 0x3
 1737 0077 B9030000 		.4byte	.LASF10
 1738 007b 03       		.byte	0x3
 1739 007c 2C       		.byte	0x2c
 1740 007d 41000000 		.4byte	0x41
 1741 0081 05       		.uleb128 0x5
 1742 0082 AA040000 		.4byte	.LASF11
 1743 0086 04       		.byte	0x4
 1744 0087 E901     		.2byte	0x1e9
 1745 0089 2C000000 		.4byte	0x2c
ARM GAS  C:\Users\JENNEW~1\AppData\Local\Temp\ccMzHkUr.s 			page 38


 1746 008d 05       		.uleb128 0x5
 1747 008e 22020000 		.4byte	.LASF12
 1748 0092 04       		.byte	0x4
 1749 0093 EA01     		.2byte	0x1ea
 1750 0095 3A000000 		.4byte	0x3a
 1751 0099 05       		.uleb128 0x5
 1752 009a 11040000 		.4byte	.LASF13
 1753 009e 04       		.byte	0x4
 1754 009f EB01     		.2byte	0x1eb
 1755 00a1 53000000 		.4byte	0x53
 1756 00a5 05       		.uleb128 0x5
 1757 00a6 37020000 		.4byte	.LASF14
 1758 00aa 04       		.byte	0x4
 1759 00ab ED01     		.2byte	0x1ed
 1760 00ad 33000000 		.4byte	0x33
 1761 00b1 05       		.uleb128 0x5
 1762 00b2 4E040000 		.4byte	.LASF15
 1763 00b6 04       		.byte	0x4
 1764 00b7 EE01     		.2byte	0x1ee
 1765 00b9 4C000000 		.4byte	0x4c
 1766 00bd 02       		.uleb128 0x2
 1767 00be 04       		.byte	0x4
 1768 00bf 04       		.byte	0x4
 1769 00c0 85020000 		.4byte	.LASF16
 1770 00c4 02       		.uleb128 0x2
 1771 00c5 08       		.byte	0x8
 1772 00c6 04       		.byte	0x4
 1773 00c7 54040000 		.4byte	.LASF17
 1774 00cb 02       		.uleb128 0x2
 1775 00cc 01       		.byte	0x1
 1776 00cd 08       		.byte	0x8
 1777 00ce B4030000 		.4byte	.LASF18
 1778 00d2 02       		.uleb128 0x2
 1779 00d3 08       		.byte	0x8
 1780 00d4 04       		.byte	0x4
 1781 00d5 EA020000 		.4byte	.LASF19
 1782 00d9 02       		.uleb128 0x2
 1783 00da 04       		.byte	0x4
 1784 00db 07       		.byte	0x7
 1785 00dc B3000000 		.4byte	.LASF20
 1786 00e0 06       		.uleb128 0x6
 1787 00e1 01       		.byte	0x1
 1788 00e2 2C000000 		.4byte	0x2c
 1789 00e6 05       		.byte	0x5
 1790 00e7 38       		.byte	0x38
 1791 00e8 FF000000 		.4byte	0xff
 1792 00ec 07       		.uleb128 0x7
 1793 00ed 06000000 		.4byte	.LASF21
 1794 00f1 00       		.byte	0
 1795 00f2 07       		.uleb128 0x7
 1796 00f3 67010000 		.4byte	.LASF22
 1797 00f7 01       		.byte	0x1
 1798 00f8 07       		.uleb128 0x7
 1799 00f9 C1030000 		.4byte	.LASF23
 1800 00fd 02       		.byte	0x2
 1801 00fe 00       		.byte	0
 1802 00ff 03       		.uleb128 0x3
ARM GAS  C:\Users\JENNEW~1\AppData\Local\Temp\ccMzHkUr.s 			page 39


 1803 0100 17030000 		.4byte	.LASF24
 1804 0104 05       		.byte	0x5
 1805 0105 3C       		.byte	0x3c
 1806 0106 E0000000 		.4byte	0xe0
 1807 010a 08       		.uleb128 0x8
 1808 010b 0E       		.byte	0xe
 1809 010c 05       		.byte	0x5
 1810 010d 40       		.byte	0x40
 1811 010e 43010000 		.4byte	0x143
 1812 0112 09       		.uleb128 0x9
 1813 0113 72030000 		.4byte	.LASF25
 1814 0117 05       		.byte	0x5
 1815 0118 41       		.byte	0x41
 1816 0119 43010000 		.4byte	0x143
 1817 011d 00       		.byte	0
 1818 011e 09       		.uleb128 0x9
 1819 011f 8B010000 		.4byte	.LASF26
 1820 0123 05       		.byte	0x5
 1821 0124 42       		.byte	0x42
 1822 0125 43010000 		.4byte	0x143
 1823 0129 04       		.byte	0x4
 1824 012a 09       		.uleb128 0x9
 1825 012b 1F000000 		.4byte	.LASF27
 1826 012f 05       		.byte	0x5
 1827 0130 43       		.byte	0x43
 1828 0131 43010000 		.4byte	0x143
 1829 0135 08       		.byte	0x8
 1830 0136 09       		.uleb128 0x9
 1831 0137 00000000 		.4byte	.LASF28
 1832 013b 05       		.byte	0x5
 1833 013c 44       		.byte	0x44
 1834 013d 81000000 		.4byte	0x81
 1835 0141 0C       		.byte	0xc
 1836 0142 00       		.byte	0
 1837 0143 0A       		.uleb128 0xa
 1838 0144 A5000000 		.4byte	0xa5
 1839 0148 53010000 		.4byte	0x153
 1840 014c 0B       		.uleb128 0xb
 1841 014d D9000000 		.4byte	0xd9
 1842 0151 01       		.byte	0x1
 1843 0152 00       		.byte	0
 1844 0153 03       		.uleb128 0x3
 1845 0154 3D020000 		.4byte	.LASF29
 1846 0158 05       		.byte	0x5
 1847 0159 45       		.byte	0x45
 1848 015a 0A010000 		.4byte	0x10a
 1849 015e 06       		.uleb128 0x6
 1850 015f 01       		.byte	0x1
 1851 0160 2C000000 		.4byte	0x2c
 1852 0164 05       		.byte	0x5
 1853 0165 48       		.byte	0x48
 1854 0166 83010000 		.4byte	0x183
 1855 016a 07       		.uleb128 0x7
 1856 016b 56000000 		.4byte	.LASF30
 1857 016f 00       		.byte	0
 1858 0170 07       		.uleb128 0x7
 1859 0171 B0040000 		.4byte	.LASF31
ARM GAS  C:\Users\JENNEW~1\AppData\Local\Temp\ccMzHkUr.s 			page 40


 1860 0175 01       		.byte	0x1
 1861 0176 07       		.uleb128 0x7
 1862 0177 8A030000 		.4byte	.LASF32
 1863 017b 02       		.byte	0x2
 1864 017c 07       		.uleb128 0x7
 1865 017d 71010000 		.4byte	.LASF33
 1866 0181 03       		.byte	0x3
 1867 0182 00       		.byte	0
 1868 0183 03       		.uleb128 0x3
 1869 0184 B2020000 		.4byte	.LASF34
 1870 0188 05       		.byte	0x5
 1871 0189 4D       		.byte	0x4d
 1872 018a 5E010000 		.4byte	0x15e
 1873 018e 08       		.uleb128 0x8
 1874 018f 08       		.byte	0x8
 1875 0190 05       		.byte	0x5
 1876 0191 50       		.byte	0x50
 1877 0192 A1010000 		.4byte	0x1a1
 1878 0196 0C       		.uleb128 0xc
 1879 0197 7500     		.ascii	"u\000"
 1880 0199 05       		.byte	0x5
 1881 019a 51       		.byte	0x51
 1882 019b A1010000 		.4byte	0x1a1
 1883 019f 00       		.byte	0
 1884 01a0 00       		.byte	0
 1885 01a1 0A       		.uleb128 0xa
 1886 01a2 BD000000 		.4byte	0xbd
 1887 01a6 B1010000 		.4byte	0x1b1
 1888 01aa 0B       		.uleb128 0xb
 1889 01ab D9000000 		.4byte	0xd9
 1890 01af 01       		.byte	0x1
 1891 01b0 00       		.byte	0
 1892 01b1 03       		.uleb128 0x3
 1893 01b2 5E020000 		.4byte	.LASF35
 1894 01b6 05       		.byte	0x5
 1895 01b7 52       		.byte	0x52
 1896 01b8 8E010000 		.4byte	0x18e
 1897 01bc 0D       		.uleb128 0xd
 1898 01bd 91040000 		.4byte	.LASF51
 1899 01c1 01       		.byte	0x1
 1900 01c2 26       		.byte	0x26
 1901 01c3 00000000 		.4byte	.LFB63
 1902 01c7 48000000 		.4byte	.LFE63-.LFB63
 1903 01cb 01       		.uleb128 0x1
 1904 01cc 9C       		.byte	0x9c
 1905 01cd E0010000 		.4byte	0x1e0
 1906 01d1 0E       		.uleb128 0xe
 1907 01d2 8B040000 		.4byte	.LASF36
 1908 01d6 01       		.byte	0x1
 1909 01d7 26       		.byte	0x26
 1910 01d8 FF000000 		.4byte	0xff
 1911 01dc 02       		.uleb128 0x2
 1912 01dd 91       		.byte	0x91
 1913 01de 77       		.sleb128 -9
 1914 01df 00       		.byte	0
 1915 01e0 0F       		.uleb128 0xf
 1916 01e1 10000000 		.4byte	.LASF42
ARM GAS  C:\Users\JENNEW~1\AppData\Local\Temp\ccMzHkUr.s 			page 41


 1917 01e5 01       		.byte	0x1
 1918 01e6 2F       		.byte	0x2f
 1919 01e7 BD000000 		.4byte	0xbd
 1920 01eb 00000000 		.4byte	.LFB64
 1921 01ef D0000000 		.4byte	.LFE64-.LFB64
 1922 01f3 01       		.uleb128 0x1
 1923 01f4 9C       		.byte	0x9c
 1924 01f5 4C020000 		.4byte	0x24c
 1925 01f9 10       		.uleb128 0x10
 1926 01fa 6300     		.ascii	"c\000"
 1927 01fc 01       		.byte	0x1
 1928 01fd 2F       		.byte	0x2f
 1929 01fe A5000000 		.4byte	0xa5
 1930 0202 02       		.uleb128 0x2
 1931 0203 91       		.byte	0x91
 1932 0204 66       		.sleb128 -26
 1933 0205 0E       		.uleb128 0xe
 1934 0206 86010000 		.4byte	.LASF37
 1935 020a 01       		.byte	0x1
 1936 020b 2F       		.byte	0x2f
 1937 020c A5000000 		.4byte	0xa5
 1938 0210 02       		.uleb128 0x2
 1939 0211 91       		.byte	0x91
 1940 0212 64       		.sleb128 -28
 1941 0213 0E       		.uleb128 0xe
 1942 0214 F0040000 		.4byte	.LASF38
 1943 0218 01       		.byte	0x1
 1944 0219 2F       		.byte	0x2f
 1945 021a A5000000 		.4byte	0xa5
 1946 021e 02       		.uleb128 0x2
 1947 021f 91       		.byte	0x91
 1948 0220 62       		.sleb128 -30
 1949 0221 0E       		.uleb128 0xe
 1950 0222 7A000000 		.4byte	.LASF39
 1951 0226 01       		.byte	0x1
 1952 0227 2F       		.byte	0x2f
 1953 0228 A5000000 		.4byte	0xa5
 1954 022c 02       		.uleb128 0x2
 1955 022d 91       		.byte	0x91
 1956 022e 60       		.sleb128 -32
 1957 022f 11       		.uleb128 0x11
 1958 0230 AB030000 		.4byte	.LASF40
 1959 0234 01       		.byte	0x1
 1960 0235 34       		.byte	0x34
 1961 0236 A5000000 		.4byte	0xa5
 1962 023a 02       		.uleb128 0x2
 1963 023b 91       		.byte	0x91
 1964 023c 6E       		.sleb128 -18
 1965 023d 11       		.uleb128 0x11
 1966 023e C6040000 		.4byte	.LASF41
 1967 0242 01       		.byte	0x1
 1968 0243 35       		.byte	0x35
 1969 0244 A5000000 		.4byte	0xa5
 1970 0248 02       		.uleb128 0x2
 1971 0249 91       		.byte	0x91
 1972 024a 6C       		.sleb128 -20
 1973 024b 00       		.byte	0
ARM GAS  C:\Users\JENNEW~1\AppData\Local\Temp\ccMzHkUr.s 			page 42


 1974 024c 0F       		.uleb128 0xf
 1975 024d 47020000 		.4byte	.LASF43
 1976 0251 01       		.byte	0x1
 1977 0252 41       		.byte	0x41
 1978 0253 BD000000 		.4byte	0xbd
 1979 0257 00000000 		.4byte	.LFB65
 1980 025b 90000000 		.4byte	.LFE65-.LFB65
 1981 025f 01       		.uleb128 0x1
 1982 0260 9C       		.byte	0x9c
 1983 0261 7F020000 		.4byte	0x27f
 1984 0265 10       		.uleb128 0x10
 1985 0266 7500     		.ascii	"u\000"
 1986 0268 01       		.byte	0x1
 1987 0269 41       		.byte	0x41
 1988 026a BD000000 		.4byte	0xbd
 1989 026e 02       		.uleb128 0x2
 1990 026f 91       		.byte	0x91
 1991 0270 6C       		.sleb128 -20
 1992 0271 10       		.uleb128 0x10
 1993 0272 646200   		.ascii	"db\000"
 1994 0275 01       		.byte	0x1
 1995 0276 41       		.byte	0x41
 1996 0277 BD000000 		.4byte	0xbd
 1997 027b 02       		.uleb128 0x2
 1998 027c 91       		.byte	0x91
 1999 027d 68       		.sleb128 -24
 2000 027e 00       		.byte	0
 2001 027f 12       		.uleb128 0x12
 2002 0280 60030000 		.4byte	.LASF57
 2003 0284 01       		.byte	0x1
 2004 0285 4D       		.byte	0x4d
 2005 0286 81000000 		.4byte	0x81
 2006 028a 00000000 		.4byte	.LFB66
 2007 028e 92000000 		.4byte	.LFE66-.LFB66
 2008 0292 01       		.uleb128 0x1
 2009 0293 9C       		.byte	0x9c
 2010 0294 E1020000 		.4byte	0x2e1
 2011 0298 10       		.uleb128 0x10
 2012 0299 6300     		.ascii	"c\000"
 2013 029b 01       		.byte	0x1
 2014 029c 4D       		.byte	0x4d
 2015 029d E1020000 		.4byte	0x2e1
 2016 02a1 02       		.uleb128 0x2
 2017 02a2 91       		.byte	0x91
 2018 02a3 6C       		.sleb128 -20
 2019 02a4 13       		.uleb128 0x13
 2020 02a5 08000000 		.4byte	.LBB2
 2021 02a9 7E000000 		.4byte	.LBE2-.LBB2
 2022 02ad 14       		.uleb128 0x14
 2023 02ae 6900     		.ascii	"i\000"
 2024 02b0 01       		.byte	0x1
 2025 02b1 50       		.byte	0x50
 2026 02b2 81000000 		.4byte	0x81
 2027 02b6 02       		.uleb128 0x2
 2028 02b7 91       		.byte	0x91
 2029 02b8 77       		.sleb128 -9
 2030 02b9 13       		.uleb128 0x13
ARM GAS  C:\Users\JENNEW~1\AppData\Local\Temp\ccMzHkUr.s 			page 43


 2031 02ba 0E000000 		.4byte	.LBB3
 2032 02be 6C000000 		.4byte	.LBE3-.LBB3
 2033 02c2 11       		.uleb128 0x11
 2034 02c3 99020000 		.4byte	.LASF44
 2035 02c7 01       		.byte	0x1
 2036 02c8 53       		.byte	0x53
 2037 02c9 A5000000 		.4byte	0xa5
 2038 02cd 02       		.uleb128 0x2
 2039 02ce 91       		.byte	0x91
 2040 02cf 74       		.sleb128 -12
 2041 02d0 11       		.uleb128 0x11
 2042 02d1 7B020000 		.4byte	.LASF45
 2043 02d5 01       		.byte	0x1
 2044 02d6 55       		.byte	0x55
 2045 02d7 81000000 		.4byte	0x81
 2046 02db 02       		.uleb128 0x2
 2047 02dc 91       		.byte	0x91
 2048 02dd 73       		.sleb128 -13
 2049 02de 00       		.byte	0
 2050 02df 00       		.byte	0
 2051 02e0 00       		.byte	0
 2052 02e1 15       		.uleb128 0x15
 2053 02e2 04       		.byte	0x4
 2054 02e3 E7020000 		.4byte	0x2e7
 2055 02e7 16       		.uleb128 0x16
 2056 02e8 53010000 		.4byte	0x153
 2057 02ec 17       		.uleb128 0x17
 2058 02ed 62000000 		.4byte	.LASF47
 2059 02f1 01       		.byte	0x1
 2060 02f2 5F       		.byte	0x5f
 2061 02f3 00000000 		.4byte	.LFB67
 2062 02f7 84000000 		.4byte	.LFE67-.LFB67
 2063 02fb 01       		.uleb128 0x1
 2064 02fc 9C       		.byte	0x9c
 2065 02fd 26030000 		.4byte	0x326
 2066 0301 0E       		.uleb128 0xe
 2067 0302 59030000 		.4byte	.LASF46
 2068 0306 01       		.byte	0x1
 2069 0307 5F       		.byte	0x5f
 2070 0308 26030000 		.4byte	0x326
 2071 030c 02       		.uleb128 0x2
 2072 030d 91       		.byte	0x91
 2073 030e 6C       		.sleb128 -20
 2074 030f 13       		.uleb128 0x13
 2075 0310 14000000 		.4byte	.LBB4
 2076 0314 54000000 		.4byte	.LBE4-.LBB4
 2077 0318 14       		.uleb128 0x14
 2078 0319 6900     		.ascii	"i\000"
 2079 031b 01       		.byte	0x1
 2080 031c 65       		.byte	0x65
 2081 031d 81000000 		.4byte	0x81
 2082 0321 02       		.uleb128 0x2
 2083 0322 91       		.byte	0x91
 2084 0323 77       		.sleb128 -9
 2085 0324 00       		.byte	0
 2086 0325 00       		.byte	0
 2087 0326 15       		.uleb128 0x15
ARM GAS  C:\Users\JENNEW~1\AppData\Local\Temp\ccMzHkUr.s 			page 44


 2088 0327 04       		.byte	0x4
 2089 0328 2C030000 		.4byte	0x32c
 2090 032c 16       		.uleb128 0x16
 2091 032d A5000000 		.4byte	0xa5
 2092 0331 17       		.uleb128 0x17
 2093 0332 CB020000 		.4byte	.LASF48
 2094 0336 01       		.byte	0x1
 2095 0337 70       		.byte	0x70
 2096 0338 00000000 		.4byte	.LFB68
 2097 033c 98000000 		.4byte	.LFE68-.LFB68
 2098 0340 01       		.uleb128 0x1
 2099 0341 9C       		.byte	0x9c
 2100 0342 6B030000 		.4byte	0x36b
 2101 0346 0E       		.uleb128 0xe
 2102 0347 59030000 		.4byte	.LASF46
 2103 034b 01       		.byte	0x1
 2104 034c 70       		.byte	0x70
 2105 034d 26030000 		.4byte	0x326
 2106 0351 02       		.uleb128 0x2
 2107 0352 91       		.byte	0x91
 2108 0353 6C       		.sleb128 -20
 2109 0354 13       		.uleb128 0x13
 2110 0355 10000000 		.4byte	.LBB5
 2111 0359 74000000 		.4byte	.LBE5-.LBB5
 2112 035d 14       		.uleb128 0x14
 2113 035e 6900     		.ascii	"i\000"
 2114 0360 01       		.byte	0x1
 2115 0361 77       		.byte	0x77
 2116 0362 81000000 		.4byte	0x81
 2117 0366 02       		.uleb128 0x2
 2118 0367 91       		.byte	0x91
 2119 0368 77       		.sleb128 -9
 2120 0369 00       		.byte	0
 2121 036a 00       		.byte	0
 2122 036b 17       		.uleb128 0x17
 2123 036c 5B040000 		.4byte	.LASF49
 2124 0370 01       		.byte	0x1
 2125 0371 7F       		.byte	0x7f
 2126 0372 00000000 		.4byte	.LFB69
 2127 0376 44000000 		.4byte	.LFE69-.LFB69
 2128 037a 01       		.uleb128 0x1
 2129 037b 9C       		.byte	0x9c
 2130 037c 97030000 		.4byte	0x397
 2131 0380 13       		.uleb128 0x13
 2132 0381 06000000 		.4byte	.LBB6
 2133 0385 1C000000 		.4byte	.LBE6-.LBB6
 2134 0389 14       		.uleb128 0x14
 2135 038a 6900     		.ascii	"i\000"
 2136 038c 01       		.byte	0x1
 2137 038d 82       		.byte	0x82
 2138 038e 81000000 		.4byte	0x81
 2139 0392 02       		.uleb128 0x2
 2140 0393 91       		.byte	0x91
 2141 0394 77       		.sleb128 -9
 2142 0395 00       		.byte	0
 2143 0396 00       		.byte	0
 2144 0397 17       		.uleb128 0x17
ARM GAS  C:\Users\JENNEW~1\AppData\Local\Temp\ccMzHkUr.s 			page 45


 2145 0398 7F000000 		.4byte	.LASF50
 2146 039c 01       		.byte	0x1
 2147 039d 8A       		.byte	0x8a
 2148 039e 00000000 		.4byte	.LFB70
 2149 03a2 A8000000 		.4byte	.LFE70-.LFB70
 2150 03a6 01       		.uleb128 0x1
 2151 03a7 9C       		.byte	0x9c
 2152 03a8 EB030000 		.4byte	0x3eb
 2153 03ac 0E       		.uleb128 0xe
 2154 03ad 59030000 		.4byte	.LASF46
 2155 03b1 01       		.byte	0x1
 2156 03b2 8A       		.byte	0x8a
 2157 03b3 26030000 		.4byte	0x326
 2158 03b7 02       		.uleb128 0x2
 2159 03b8 91       		.byte	0x91
 2160 03b9 6C       		.sleb128 -20
 2161 03ba 18       		.uleb128 0x18
 2162 03bb 10000000 		.4byte	.LBB7
 2163 03bf 30000000 		.4byte	.LBE7-.LBB7
 2164 03c3 D4030000 		.4byte	0x3d4
 2165 03c7 14       		.uleb128 0x14
 2166 03c8 6900     		.ascii	"i\000"
 2167 03ca 01       		.byte	0x1
 2168 03cb 91       		.byte	0x91
 2169 03cc 81000000 		.4byte	0x81
 2170 03d0 02       		.uleb128 0x2
 2171 03d1 91       		.byte	0x91
 2172 03d2 77       		.sleb128 -9
 2173 03d3 00       		.byte	0
 2174 03d4 13       		.uleb128 0x13
 2175 03d5 54000000 		.4byte	.LBB8
 2176 03d9 30000000 		.4byte	.LBE8-.LBB8
 2177 03dd 14       		.uleb128 0x14
 2178 03de 6900     		.ascii	"i\000"
 2179 03e0 01       		.byte	0x1
 2180 03e1 99       		.byte	0x99
 2181 03e2 81000000 		.4byte	0x81
 2182 03e6 02       		.uleb128 0x2
 2183 03e7 91       		.byte	0x91
 2184 03e8 76       		.sleb128 -10
 2185 03e9 00       		.byte	0
 2186 03ea 00       		.byte	0
 2187 03eb 19       		.uleb128 0x19
 2188 03ec CC030000 		.4byte	.LASF79
 2189 03f0 01       		.byte	0x1
 2190 03f1 A1       		.byte	0xa1
 2191 03f2 00000000 		.4byte	.LFB71
 2192 03f6 44000000 		.4byte	.LFE71-.LFB71
 2193 03fa 01       		.uleb128 0x1
 2194 03fb 9C       		.byte	0x9c
 2195 03fc 0D       		.uleb128 0xd
 2196 03fd 03040000 		.4byte	.LASF52
 2197 0401 01       		.byte	0x1
 2198 0402 B5       		.byte	0xb5
 2199 0403 00000000 		.4byte	.LFB72
 2200 0407 A4000000 		.4byte	.LFE72-.LFB72
 2201 040b 01       		.uleb128 0x1
ARM GAS  C:\Users\JENNEW~1\AppData\Local\Temp\ccMzHkUr.s 			page 46


 2202 040c 9C       		.byte	0x9c
 2203 040d 44040000 		.4byte	0x444
 2204 0411 0E       		.uleb128 0xe
 2205 0412 C2020000 		.4byte	.LASF53
 2206 0416 01       		.byte	0x1
 2207 0417 B5       		.byte	0xb5
 2208 0418 E1020000 		.4byte	0x2e1
 2209 041c 02       		.uleb128 0x2
 2210 041d 91       		.byte	0x91
 2211 041e 6C       		.sleb128 -20
 2212 041f 0E       		.uleb128 0xe
 2213 0420 CD000000 		.4byte	.LASF54
 2214 0424 01       		.byte	0x1
 2215 0425 B5       		.byte	0xb5
 2216 0426 99000000 		.4byte	0x99
 2217 042a 02       		.uleb128 0x2
 2218 042b 91       		.byte	0x91
 2219 042c 68       		.sleb128 -24
 2220 042d 13       		.uleb128 0x13
 2221 042e 4C000000 		.4byte	.LBB9
 2222 0432 24000000 		.4byte	.LBE9-.LBB9
 2223 0436 14       		.uleb128 0x14
 2224 0437 6900     		.ascii	"i\000"
 2225 0439 01       		.byte	0x1
 2226 043a BE       		.byte	0xbe
 2227 043b 81000000 		.4byte	0x81
 2228 043f 02       		.uleb128 0x2
 2229 0440 91       		.byte	0x91
 2230 0441 77       		.sleb128 -9
 2231 0442 00       		.byte	0
 2232 0443 00       		.byte	0
 2233 0444 1A       		.uleb128 0x1a
 2234 0445 04030000 		.4byte	.LASF55
 2235 0449 01       		.byte	0x1
 2236 044a C5       		.byte	0xc5
 2237 044b 00000000 		.4byte	.LFB73
 2238 044f 48000000 		.4byte	.LFE73-.LFB73
 2239 0453 01       		.uleb128 0x1
 2240 0454 9C       		.byte	0x9c
 2241 0455 7E040000 		.4byte	0x47e
 2242 0459 0E       		.uleb128 0xe
 2243 045a 59030000 		.4byte	.LASF46
 2244 045e 01       		.byte	0x1
 2245 045f C5       		.byte	0xc5
 2246 0460 26030000 		.4byte	0x326
 2247 0464 02       		.uleb128 0x2
 2248 0465 91       		.byte	0x91
 2249 0466 6C       		.sleb128 -20
 2250 0467 13       		.uleb128 0x13
 2251 0468 08000000 		.4byte	.LBB10
 2252 046c 26000000 		.4byte	.LBE10-.LBB10
 2253 0470 14       		.uleb128 0x14
 2254 0471 6900     		.ascii	"i\000"
 2255 0473 01       		.byte	0x1
 2256 0474 C8       		.byte	0xc8
 2257 0475 81000000 		.4byte	0x81
 2258 0479 02       		.uleb128 0x2
ARM GAS  C:\Users\JENNEW~1\AppData\Local\Temp\ccMzHkUr.s 			page 47


 2259 047a 91       		.byte	0x91
 2260 047b 77       		.sleb128 -9
 2261 047c 00       		.byte	0
 2262 047d 00       		.byte	0
 2263 047e 1A       		.uleb128 0x1a
 2264 047f 90010000 		.4byte	.LASF56
 2265 0483 01       		.byte	0x1
 2266 0484 D4       		.byte	0xd4
 2267 0485 00000000 		.4byte	.LFB74
 2268 0489 70000000 		.4byte	.LFE74-.LFB74
 2269 048d 01       		.uleb128 0x1
 2270 048e 9C       		.byte	0x9c
 2271 048f A2040000 		.4byte	0x4a2
 2272 0493 10       		.uleb128 0x10
 2273 0494 6B657900 		.ascii	"key\000"
 2274 0498 01       		.byte	0x1
 2275 0499 D4       		.byte	0xd4
 2276 049a CB000000 		.4byte	0xcb
 2277 049e 02       		.uleb128 0x2
 2278 049f 91       		.byte	0x91
 2279 04a0 77       		.sleb128 -9
 2280 04a1 00       		.byte	0
 2281 04a2 1B       		.uleb128 0x1b
 2282 04a3 68020000 		.4byte	.LASF61
 2283 04a7 01       		.byte	0x1
 2284 04a8 F3       		.byte	0xf3
 2285 04a9 83010000 		.4byte	0x183
 2286 04ad 00000000 		.4byte	.LFB75
 2287 04b1 14000000 		.4byte	.LFE75-.LFB75
 2288 04b5 01       		.uleb128 0x1
 2289 04b6 9C       		.byte	0x9c
 2290 04b7 1C       		.uleb128 0x1c
 2291 04b8 DF040000 		.4byte	.LASF58
 2292 04bc 01       		.byte	0x1
 2293 04bd F9       		.byte	0xf9
 2294 04be 81000000 		.4byte	0x81
 2295 04c2 00000000 		.4byte	.LFB76
 2296 04c6 3C000000 		.4byte	.LFE76-.LFB76
 2297 04ca 01       		.uleb128 0x1
 2298 04cb 9C       		.byte	0x9c
 2299 04cc DF040000 		.4byte	0x4df
 2300 04d0 10       		.uleb128 0x10
 2301 04d1 6F757400 		.ascii	"out\000"
 2302 04d5 01       		.byte	0x1
 2303 04d6 F9       		.byte	0xf9
 2304 04d7 DF040000 		.4byte	0x4df
 2305 04db 02       		.uleb128 0x2
 2306 04dc 91       		.byte	0x91
 2307 04dd 6C       		.sleb128 -20
 2308 04de 00       		.byte	0
 2309 04df 15       		.uleb128 0x15
 2310 04e0 04       		.byte	0x4
 2311 04e1 53010000 		.4byte	0x153
 2312 04e5 1D       		.uleb128 0x1d
 2313 04e6 F2030000 		.4byte	.LASF59
 2314 04ea 01       		.byte	0x1
 2315 04eb 0401     		.2byte	0x104
ARM GAS  C:\Users\JENNEW~1\AppData\Local\Temp\ccMzHkUr.s 			page 48


 2316 04ed 00000000 		.4byte	.LFB77
 2317 04f1 3C000000 		.4byte	.LFE77-.LFB77
 2318 04f5 01       		.uleb128 0x1
 2319 04f6 9C       		.byte	0x9c
 2320 04f7 22050000 		.4byte	0x522
 2321 04fb 1E       		.uleb128 0x1e
 2322 04fc E0030000 		.4byte	.LASF60
 2323 0500 01       		.byte	0x1
 2324 0501 0401     		.2byte	0x104
 2325 0503 22050000 		.4byte	0x522
 2326 0507 02       		.uleb128 0x2
 2327 0508 91       		.byte	0x91
 2328 0509 6C       		.sleb128 -20
 2329 050a 13       		.uleb128 0x13
 2330 050b 08000000 		.4byte	.LBB11
 2331 050f 24000000 		.4byte	.LBE11-.LBB11
 2332 0513 1F       		.uleb128 0x1f
 2333 0514 6900     		.ascii	"i\000"
 2334 0516 01       		.byte	0x1
 2335 0517 0601     		.2byte	0x106
 2336 0519 81000000 		.4byte	0x81
 2337 051d 02       		.uleb128 0x2
 2338 051e 91       		.byte	0x91
 2339 051f 77       		.sleb128 -9
 2340 0520 00       		.byte	0
 2341 0521 00       		.byte	0
 2342 0522 15       		.uleb128 0x15
 2343 0523 04       		.byte	0x4
 2344 0524 A5000000 		.4byte	0xa5
 2345 0528 20       		.uleb128 0x20
 2346 0529 26000000 		.4byte	.LASF62
 2347 052d 01       		.byte	0x1
 2348 052e 0B01     		.2byte	0x10b
 2349 0530 8D000000 		.4byte	0x8d
 2350 0534 00000000 		.4byte	.LFB78
 2351 0538 14000000 		.4byte	.LFE78-.LFB78
 2352 053c 01       		.uleb128 0x1
 2353 053d 9C       		.byte	0x9c
 2354 053e 21       		.uleb128 0x21
 2355 053f BC000000 		.4byte	.LASF63
 2356 0543 01       		.byte	0x1
 2357 0544 1201     		.2byte	0x112
 2358 0546 00000000 		.4byte	.LFB79
 2359 054a E8000000 		.4byte	.LFE79-.LFB79
 2360 054e 01       		.uleb128 0x1
 2361 054f 9C       		.byte	0x9c
 2362 0550 A1050000 		.4byte	0x5a1
 2363 0554 1E       		.uleb128 0x1e
 2364 0555 56020000 		.4byte	.LASF64
 2365 0559 01       		.byte	0x1
 2366 055a 1201     		.2byte	0x112
 2367 055c A1050000 		.4byte	0x5a1
 2368 0560 02       		.uleb128 0x2
 2369 0561 91       		.byte	0x91
 2370 0562 5C       		.sleb128 -36
 2371 0563 1F       		.uleb128 0x1f
 2372 0564 63616C00 		.ascii	"cal\000"
ARM GAS  C:\Users\JENNEW~1\AppData\Local\Temp\ccMzHkUr.s 			page 49


 2373 0568 01       		.byte	0x1
 2374 0569 1501     		.2byte	0x115
 2375 056b E1020000 		.4byte	0x2e1
 2376 056f 02       		.uleb128 0x2
 2377 0570 91       		.byte	0x91
 2378 0571 6C       		.sleb128 -20
 2379 0572 13       		.uleb128 0x13
 2380 0573 1C000000 		.4byte	.LBB12
 2381 0577 A6000000 		.4byte	.LBE12-.LBB12
 2382 057b 1F       		.uleb128 0x1f
 2383 057c 6900     		.ascii	"i\000"
 2384 057e 01       		.byte	0x1
 2385 057f 1C01     		.2byte	0x11c
 2386 0581 81000000 		.4byte	0x81
 2387 0585 02       		.uleb128 0x2
 2388 0586 91       		.byte	0x91
 2389 0587 6B       		.sleb128 -21
 2390 0588 13       		.uleb128 0x13
 2391 0589 22000000 		.4byte	.LBB13
 2392 058d 94000000 		.4byte	.LBE13-.LBB13
 2393 0591 1F       		.uleb128 0x1f
 2394 0592 7500     		.ascii	"u\000"
 2395 0594 01       		.byte	0x1
 2396 0595 1F01     		.2byte	0x11f
 2397 0597 BD000000 		.4byte	0xbd
 2398 059b 02       		.uleb128 0x2
 2399 059c 91       		.byte	0x91
 2400 059d 64       		.sleb128 -28
 2401 059e 00       		.byte	0
 2402 059f 00       		.byte	0
 2403 05a0 00       		.byte	0
 2404 05a1 15       		.uleb128 0x15
 2405 05a2 04       		.byte	0x4
 2406 05a3 B1010000 		.4byte	0x1b1
 2407 05a7 22       		.uleb128 0x22
 2408 05a8 29020000 		.4byte	.LASF65
 2409 05ac 01       		.byte	0x1
 2410 05ad 3001     		.2byte	0x130
 2411 05af 81000000 		.4byte	0x81
 2412 05b3 00000000 		.4byte	.LFB80
 2413 05b7 2E000000 		.4byte	.LFE80-.LFB80
 2414 05bb 01       		.uleb128 0x1
 2415 05bc 9C       		.byte	0x9c
 2416 05bd D1050000 		.4byte	0x5d1
 2417 05c1 1F       		.uleb128 0x1f
 2418 05c2 63616C00 		.ascii	"cal\000"
 2419 05c6 01       		.byte	0x1
 2420 05c7 3201     		.2byte	0x132
 2421 05c9 53010000 		.4byte	0x153
 2422 05cd 02       		.uleb128 0x2
 2423 05ce 91       		.byte	0x91
 2424 05cf 68       		.sleb128 -24
 2425 05d0 00       		.byte	0
 2426 05d1 22       		.uleb128 0x22
 2427 05d2 A0010000 		.4byte	.LASF66
 2428 05d6 01       		.byte	0x1
 2429 05d7 3C01     		.2byte	0x13c
ARM GAS  C:\Users\JENNEW~1\AppData\Local\Temp\ccMzHkUr.s 			page 50


 2430 05d9 81000000 		.4byte	0x81
 2431 05dd 00000000 		.4byte	.LFB81
 2432 05e1 4A000000 		.4byte	.LFE81-.LFB81
 2433 05e5 01       		.uleb128 0x1
 2434 05e6 9C       		.byte	0x9c
 2435 05e7 0A060000 		.4byte	0x60a
 2436 05eb 1E       		.uleb128 0x1e
 2437 05ec CD000000 		.4byte	.LASF54
 2438 05f0 01       		.byte	0x1
 2439 05f1 3C01     		.2byte	0x13c
 2440 05f3 99000000 		.4byte	0x99
 2441 05f7 02       		.uleb128 0x2
 2442 05f8 91       		.byte	0x91
 2443 05f9 64       		.sleb128 -28
 2444 05fa 1F       		.uleb128 0x1f
 2445 05fb 63616C00 		.ascii	"cal\000"
 2446 05ff 01       		.byte	0x1
 2447 0600 3E01     		.2byte	0x13e
 2448 0602 53010000 		.4byte	0x153
 2449 0606 02       		.uleb128 0x2
 2450 0607 91       		.byte	0x91
 2451 0608 68       		.sleb128 -24
 2452 0609 00       		.byte	0
 2453 060a 11       		.uleb128 0x11
 2454 060b A1030000 		.4byte	.LASF67
 2455 060f 01       		.byte	0x1
 2456 0610 18       		.byte	0x18
 2457 0611 53010000 		.4byte	0x153
 2458 0615 05       		.uleb128 0x5
 2459 0616 03       		.byte	0x3
 2460 0617 00000000 		.4byte	s_default
 2461 061b 11       		.uleb128 0x11
 2462 061c CF040000 		.4byte	.LASF68
 2463 0620 01       		.byte	0x1
 2464 0621 19       		.byte	0x19
 2465 0622 53010000 		.4byte	0x153
 2466 0626 05       		.uleb128 0x5
 2467 0627 03       		.byte	0x3
 2468 0628 10000000 		.4byte	s_saved
 2469 062c 11       		.uleb128 0x11
 2470 062d EB030000 		.4byte	.LASF69
 2471 0631 01       		.byte	0x1
 2472 0632 1A       		.byte	0x1a
 2473 0633 53010000 		.4byte	0x153
 2474 0637 05       		.uleb128 0x5
 2475 0638 03       		.byte	0x3
 2476 0639 20000000 		.4byte	s_work
 2477 063d 11       		.uleb128 0x11
 2478 063e D7040000 		.4byte	.LASF70
 2479 0642 01       		.byte	0x1
 2480 0643 1C       		.byte	0x1c
 2481 0644 83010000 		.4byte	0x183
 2482 0648 05       		.uleb128 0x5
 2483 0649 03       		.byte	0x3
 2484 064a 2E000000 		.4byte	s_state
 2485 064e 11       		.uleb128 0x11
 2486 064f A3000000 		.4byte	.LASF71
ARM GAS  C:\Users\JENNEW~1\AppData\Local\Temp\ccMzHkUr.s 			page 51


 2487 0653 01       		.byte	0x1
 2488 0654 1E       		.byte	0x1e
 2489 0655 43010000 		.4byte	0x143
 2490 0659 05       		.uleb128 0x5
 2491 065a 03       		.byte	0x3
 2492 065b 30000000 		.4byte	s_latest_counts
 2493 065f 11       		.uleb128 0x11
 2494 0660 48000000 		.4byte	.LASF72
 2495 0664 01       		.byte	0x1
 2496 0665 1F       		.byte	0x1f
 2497 0666 99000000 		.4byte	0x99
 2498 066a 05       		.uleb128 0x5
 2499 066b 03       		.byte	0x3
 2500 066c 34000000 		.4byte	s_invert_mask
 2501 0670 0A       		.uleb128 0xa
 2502 0671 B1000000 		.4byte	0xb1
 2503 0675 80060000 		.4byte	0x680
 2504 0679 0B       		.uleb128 0xb
 2505 067a D9000000 		.4byte	0xd9
 2506 067e 01       		.byte	0x1
 2507 067f 00       		.byte	0
 2508 0680 11       		.uleb128 0x11
 2509 0681 DD020000 		.4byte	.LASF73
 2510 0685 01       		.byte	0x1
 2511 0686 22       		.byte	0x22
 2512 0687 70060000 		.4byte	0x670
 2513 068b 05       		.uleb128 0x5
 2514 068c 03       		.byte	0x3
 2515 068d 38000000 		.4byte	s_center_sum
 2516 0691 11       		.uleb128 0x11
 2517 0692 9E020000 		.4byte	.LASF74
 2518 0696 01       		.byte	0x1
 2519 0697 23       		.byte	0x23
 2520 0698 8D000000 		.4byte	0x8d
 2521 069c 05       		.uleb128 0x5
 2522 069d 03       		.byte	0x3
 2523 069e 40000000 		.4byte	s_center_n
 2524 06a2 11       		.uleb128 0x11
 2525 06a3 35040000 		.4byte	.LASF75
 2526 06a7 01       		.byte	0x1
 2527 06a8 25       		.byte	0x25
 2528 06a9 BD000000 		.4byte	0xbd
 2529 06ad 05       		.uleb128 0x5
 2530 06ae 03       		.byte	0x3
 2531 06af 00000000 		.4byte	s_sensitivity_multiplier
 2532 06b3 23       		.uleb128 0x23
 2533 06b4 74040000 		.4byte	.LASF80
 2534 06b8 06       		.byte	0x6
 2535 06b9 1207     		.2byte	0x712
 2536 06bb BF060000 		.4byte	0x6bf
 2537 06bf 24       		.uleb128 0x24
 2538 06c0 76000000 		.4byte	0x76
 2539 06c4 00       		.byte	0
 2540              		.section	.debug_abbrev,"",%progbits
 2541              	.Ldebug_abbrev0:
 2542 0000 01       		.uleb128 0x1
 2543 0001 11       		.uleb128 0x11
ARM GAS  C:\Users\JENNEW~1\AppData\Local\Temp\ccMzHkUr.s 			page 52


 2544 0002 01       		.byte	0x1
 2545 0003 25       		.uleb128 0x25
 2546 0004 0E       		.uleb128 0xe
 2547 0005 13       		.uleb128 0x13
 2548 0006 0B       		.uleb128 0xb
 2549 0007 03       		.uleb128 0x3
 2550 0008 0E       		.uleb128 0xe
 2551 0009 1B       		.uleb128 0x1b
 2552 000a 0E       		.uleb128 0xe
 2553 000b 55       		.uleb128 0x55
 2554 000c 17       		.uleb128 0x17
 2555 000d 11       		.uleb128 0x11
 2556 000e 01       		.uleb128 0x1
 2557 000f 10       		.uleb128 0x10
 2558 0010 17       		.uleb128 0x17
 2559 0011 00       		.byte	0
 2560 0012 00       		.byte	0
 2561 0013 02       		.uleb128 0x2
 2562 0014 24       		.uleb128 0x24
 2563 0015 00       		.byte	0
 2564 0016 0B       		.uleb128 0xb
 2565 0017 0B       		.uleb128 0xb
 2566 0018 3E       		.uleb128 0x3e
 2567 0019 0B       		.uleb128 0xb
 2568 001a 03       		.uleb128 0x3
 2569 001b 0E       		.uleb128 0xe
 2570 001c 00       		.byte	0
 2571 001d 00       		.byte	0
 2572 001e 03       		.uleb128 0x3
 2573 001f 16       		.uleb128 0x16
 2574 0020 00       		.byte	0
 2575 0021 03       		.uleb128 0x3
 2576 0022 0E       		.uleb128 0xe
 2577 0023 3A       		.uleb128 0x3a
 2578 0024 0B       		.uleb128 0xb
 2579 0025 3B       		.uleb128 0x3b
 2580 0026 0B       		.uleb128 0xb
 2581 0027 49       		.uleb128 0x49
 2582 0028 13       		.uleb128 0x13
 2583 0029 00       		.byte	0
 2584 002a 00       		.byte	0
 2585 002b 04       		.uleb128 0x4
 2586 002c 24       		.uleb128 0x24
 2587 002d 00       		.byte	0
 2588 002e 0B       		.uleb128 0xb
 2589 002f 0B       		.uleb128 0xb
 2590 0030 3E       		.uleb128 0x3e
 2591 0031 0B       		.uleb128 0xb
 2592 0032 03       		.uleb128 0x3
 2593 0033 08       		.uleb128 0x8
 2594 0034 00       		.byte	0
 2595 0035 00       		.byte	0
 2596 0036 05       		.uleb128 0x5
 2597 0037 16       		.uleb128 0x16
 2598 0038 00       		.byte	0
 2599 0039 03       		.uleb128 0x3
 2600 003a 0E       		.uleb128 0xe
ARM GAS  C:\Users\JENNEW~1\AppData\Local\Temp\ccMzHkUr.s 			page 53


 2601 003b 3A       		.uleb128 0x3a
 2602 003c 0B       		.uleb128 0xb
 2603 003d 3B       		.uleb128 0x3b
 2604 003e 05       		.uleb128 0x5
 2605 003f 49       		.uleb128 0x49
 2606 0040 13       		.uleb128 0x13
 2607 0041 00       		.byte	0
 2608 0042 00       		.byte	0
 2609 0043 06       		.uleb128 0x6
 2610 0044 04       		.uleb128 0x4
 2611 0045 01       		.byte	0x1
 2612 0046 0B       		.uleb128 0xb
 2613 0047 0B       		.uleb128 0xb
 2614 0048 49       		.uleb128 0x49
 2615 0049 13       		.uleb128 0x13
 2616 004a 3A       		.uleb128 0x3a
 2617 004b 0B       		.uleb128 0xb
 2618 004c 3B       		.uleb128 0x3b
 2619 004d 0B       		.uleb128 0xb
 2620 004e 01       		.uleb128 0x1
 2621 004f 13       		.uleb128 0x13
 2622 0050 00       		.byte	0
 2623 0051 00       		.byte	0
 2624 0052 07       		.uleb128 0x7
 2625 0053 28       		.uleb128 0x28
 2626 0054 00       		.byte	0
 2627 0055 03       		.uleb128 0x3
 2628 0056 0E       		.uleb128 0xe
 2629 0057 1C       		.uleb128 0x1c
 2630 0058 0B       		.uleb128 0xb
 2631 0059 00       		.byte	0
 2632 005a 00       		.byte	0
 2633 005b 08       		.uleb128 0x8
 2634 005c 13       		.uleb128 0x13
 2635 005d 01       		.byte	0x1
 2636 005e 0B       		.uleb128 0xb
 2637 005f 0B       		.uleb128 0xb
 2638 0060 3A       		.uleb128 0x3a
 2639 0061 0B       		.uleb128 0xb
 2640 0062 3B       		.uleb128 0x3b
 2641 0063 0B       		.uleb128 0xb
 2642 0064 01       		.uleb128 0x1
 2643 0065 13       		.uleb128 0x13
 2644 0066 00       		.byte	0
 2645 0067 00       		.byte	0
 2646 0068 09       		.uleb128 0x9
 2647 0069 0D       		.uleb128 0xd
 2648 006a 00       		.byte	0
 2649 006b 03       		.uleb128 0x3
 2650 006c 0E       		.uleb128 0xe
 2651 006d 3A       		.uleb128 0x3a
 2652 006e 0B       		.uleb128 0xb
 2653 006f 3B       		.uleb128 0x3b
 2654 0070 0B       		.uleb128 0xb
 2655 0071 49       		.uleb128 0x49
 2656 0072 13       		.uleb128 0x13
 2657 0073 38       		.uleb128 0x38
ARM GAS  C:\Users\JENNEW~1\AppData\Local\Temp\ccMzHkUr.s 			page 54


 2658 0074 0B       		.uleb128 0xb
 2659 0075 00       		.byte	0
 2660 0076 00       		.byte	0
 2661 0077 0A       		.uleb128 0xa
 2662 0078 01       		.uleb128 0x1
 2663 0079 01       		.byte	0x1
 2664 007a 49       		.uleb128 0x49
 2665 007b 13       		.uleb128 0x13
 2666 007c 01       		.uleb128 0x1
 2667 007d 13       		.uleb128 0x13
 2668 007e 00       		.byte	0
 2669 007f 00       		.byte	0
 2670 0080 0B       		.uleb128 0xb
 2671 0081 21       		.uleb128 0x21
 2672 0082 00       		.byte	0
 2673 0083 49       		.uleb128 0x49
 2674 0084 13       		.uleb128 0x13
 2675 0085 2F       		.uleb128 0x2f
 2676 0086 0B       		.uleb128 0xb
 2677 0087 00       		.byte	0
 2678 0088 00       		.byte	0
 2679 0089 0C       		.uleb128 0xc
 2680 008a 0D       		.uleb128 0xd
 2681 008b 00       		.byte	0
 2682 008c 03       		.uleb128 0x3
 2683 008d 08       		.uleb128 0x8
 2684 008e 3A       		.uleb128 0x3a
 2685 008f 0B       		.uleb128 0xb
 2686 0090 3B       		.uleb128 0x3b
 2687 0091 0B       		.uleb128 0xb
 2688 0092 49       		.uleb128 0x49
 2689 0093 13       		.uleb128 0x13
 2690 0094 38       		.uleb128 0x38
 2691 0095 0B       		.uleb128 0xb
 2692 0096 00       		.byte	0
 2693 0097 00       		.byte	0
 2694 0098 0D       		.uleb128 0xd
 2695 0099 2E       		.uleb128 0x2e
 2696 009a 01       		.byte	0x1
 2697 009b 3F       		.uleb128 0x3f
 2698 009c 19       		.uleb128 0x19
 2699 009d 03       		.uleb128 0x3
 2700 009e 0E       		.uleb128 0xe
 2701 009f 3A       		.uleb128 0x3a
 2702 00a0 0B       		.uleb128 0xb
 2703 00a1 3B       		.uleb128 0x3b
 2704 00a2 0B       		.uleb128 0xb
 2705 00a3 27       		.uleb128 0x27
 2706 00a4 19       		.uleb128 0x19
 2707 00a5 11       		.uleb128 0x11
 2708 00a6 01       		.uleb128 0x1
 2709 00a7 12       		.uleb128 0x12
 2710 00a8 06       		.uleb128 0x6
 2711 00a9 40       		.uleb128 0x40
 2712 00aa 18       		.uleb128 0x18
 2713 00ab 9742     		.uleb128 0x2117
 2714 00ad 19       		.uleb128 0x19
ARM GAS  C:\Users\JENNEW~1\AppData\Local\Temp\ccMzHkUr.s 			page 55


 2715 00ae 01       		.uleb128 0x1
 2716 00af 13       		.uleb128 0x13
 2717 00b0 00       		.byte	0
 2718 00b1 00       		.byte	0
 2719 00b2 0E       		.uleb128 0xe
 2720 00b3 05       		.uleb128 0x5
 2721 00b4 00       		.byte	0
 2722 00b5 03       		.uleb128 0x3
 2723 00b6 0E       		.uleb128 0xe
 2724 00b7 3A       		.uleb128 0x3a
 2725 00b8 0B       		.uleb128 0xb
 2726 00b9 3B       		.uleb128 0x3b
 2727 00ba 0B       		.uleb128 0xb
 2728 00bb 49       		.uleb128 0x49
 2729 00bc 13       		.uleb128 0x13
 2730 00bd 02       		.uleb128 0x2
 2731 00be 18       		.uleb128 0x18
 2732 00bf 00       		.byte	0
 2733 00c0 00       		.byte	0
 2734 00c1 0F       		.uleb128 0xf
 2735 00c2 2E       		.uleb128 0x2e
 2736 00c3 01       		.byte	0x1
 2737 00c4 03       		.uleb128 0x3
 2738 00c5 0E       		.uleb128 0xe
 2739 00c6 3A       		.uleb128 0x3a
 2740 00c7 0B       		.uleb128 0xb
 2741 00c8 3B       		.uleb128 0x3b
 2742 00c9 0B       		.uleb128 0xb
 2743 00ca 27       		.uleb128 0x27
 2744 00cb 19       		.uleb128 0x19
 2745 00cc 49       		.uleb128 0x49
 2746 00cd 13       		.uleb128 0x13
 2747 00ce 11       		.uleb128 0x11
 2748 00cf 01       		.uleb128 0x1
 2749 00d0 12       		.uleb128 0x12
 2750 00d1 06       		.uleb128 0x6
 2751 00d2 40       		.uleb128 0x40
 2752 00d3 18       		.uleb128 0x18
 2753 00d4 9642     		.uleb128 0x2116
 2754 00d6 19       		.uleb128 0x19
 2755 00d7 01       		.uleb128 0x1
 2756 00d8 13       		.uleb128 0x13
 2757 00d9 00       		.byte	0
 2758 00da 00       		.byte	0
 2759 00db 10       		.uleb128 0x10
 2760 00dc 05       		.uleb128 0x5
 2761 00dd 00       		.byte	0
 2762 00de 03       		.uleb128 0x3
 2763 00df 08       		.uleb128 0x8
 2764 00e0 3A       		.uleb128 0x3a
 2765 00e1 0B       		.uleb128 0xb
 2766 00e2 3B       		.uleb128 0x3b
 2767 00e3 0B       		.uleb128 0xb
 2768 00e4 49       		.uleb128 0x49
 2769 00e5 13       		.uleb128 0x13
 2770 00e6 02       		.uleb128 0x2
 2771 00e7 18       		.uleb128 0x18
ARM GAS  C:\Users\JENNEW~1\AppData\Local\Temp\ccMzHkUr.s 			page 56


 2772 00e8 00       		.byte	0
 2773 00e9 00       		.byte	0
 2774 00ea 11       		.uleb128 0x11
 2775 00eb 34       		.uleb128 0x34
 2776 00ec 00       		.byte	0
 2777 00ed 03       		.uleb128 0x3
 2778 00ee 0E       		.uleb128 0xe
 2779 00ef 3A       		.uleb128 0x3a
 2780 00f0 0B       		.uleb128 0xb
 2781 00f1 3B       		.uleb128 0x3b
 2782 00f2 0B       		.uleb128 0xb
 2783 00f3 49       		.uleb128 0x49
 2784 00f4 13       		.uleb128 0x13
 2785 00f5 02       		.uleb128 0x2
 2786 00f6 18       		.uleb128 0x18
 2787 00f7 00       		.byte	0
 2788 00f8 00       		.byte	0
 2789 00f9 12       		.uleb128 0x12
 2790 00fa 2E       		.uleb128 0x2e
 2791 00fb 01       		.byte	0x1
 2792 00fc 3F       		.uleb128 0x3f
 2793 00fd 19       		.uleb128 0x19
 2794 00fe 03       		.uleb128 0x3
 2795 00ff 0E       		.uleb128 0xe
 2796 0100 3A       		.uleb128 0x3a
 2797 0101 0B       		.uleb128 0xb
 2798 0102 3B       		.uleb128 0x3b
 2799 0103 0B       		.uleb128 0xb
 2800 0104 27       		.uleb128 0x27
 2801 0105 19       		.uleb128 0x19
 2802 0106 49       		.uleb128 0x49
 2803 0107 13       		.uleb128 0x13
 2804 0108 11       		.uleb128 0x11
 2805 0109 01       		.uleb128 0x1
 2806 010a 12       		.uleb128 0x12
 2807 010b 06       		.uleb128 0x6
 2808 010c 40       		.uleb128 0x40
 2809 010d 18       		.uleb128 0x18
 2810 010e 9742     		.uleb128 0x2117
 2811 0110 19       		.uleb128 0x19
 2812 0111 01       		.uleb128 0x1
 2813 0112 13       		.uleb128 0x13
 2814 0113 00       		.byte	0
 2815 0114 00       		.byte	0
 2816 0115 13       		.uleb128 0x13
 2817 0116 0B       		.uleb128 0xb
 2818 0117 01       		.byte	0x1
 2819 0118 11       		.uleb128 0x11
 2820 0119 01       		.uleb128 0x1
 2821 011a 12       		.uleb128 0x12
 2822 011b 06       		.uleb128 0x6
 2823 011c 00       		.byte	0
 2824 011d 00       		.byte	0
 2825 011e 14       		.uleb128 0x14
 2826 011f 34       		.uleb128 0x34
 2827 0120 00       		.byte	0
 2828 0121 03       		.uleb128 0x3
ARM GAS  C:\Users\JENNEW~1\AppData\Local\Temp\ccMzHkUr.s 			page 57


 2829 0122 08       		.uleb128 0x8
 2830 0123 3A       		.uleb128 0x3a
 2831 0124 0B       		.uleb128 0xb
 2832 0125 3B       		.uleb128 0x3b
 2833 0126 0B       		.uleb128 0xb
 2834 0127 49       		.uleb128 0x49
 2835 0128 13       		.uleb128 0x13
 2836 0129 02       		.uleb128 0x2
 2837 012a 18       		.uleb128 0x18
 2838 012b 00       		.byte	0
 2839 012c 00       		.byte	0
 2840 012d 15       		.uleb128 0x15
 2841 012e 0F       		.uleb128 0xf
 2842 012f 00       		.byte	0
 2843 0130 0B       		.uleb128 0xb
 2844 0131 0B       		.uleb128 0xb
 2845 0132 49       		.uleb128 0x49
 2846 0133 13       		.uleb128 0x13
 2847 0134 00       		.byte	0
 2848 0135 00       		.byte	0
 2849 0136 16       		.uleb128 0x16
 2850 0137 26       		.uleb128 0x26
 2851 0138 00       		.byte	0
 2852 0139 49       		.uleb128 0x49
 2853 013a 13       		.uleb128 0x13
 2854 013b 00       		.byte	0
 2855 013c 00       		.byte	0
 2856 013d 17       		.uleb128 0x17
 2857 013e 2E       		.uleb128 0x2e
 2858 013f 01       		.byte	0x1
 2859 0140 03       		.uleb128 0x3
 2860 0141 0E       		.uleb128 0xe
 2861 0142 3A       		.uleb128 0x3a
 2862 0143 0B       		.uleb128 0xb
 2863 0144 3B       		.uleb128 0x3b
 2864 0145 0B       		.uleb128 0xb
 2865 0146 27       		.uleb128 0x27
 2866 0147 19       		.uleb128 0x19
 2867 0148 11       		.uleb128 0x11
 2868 0149 01       		.uleb128 0x1
 2869 014a 12       		.uleb128 0x12
 2870 014b 06       		.uleb128 0x6
 2871 014c 40       		.uleb128 0x40
 2872 014d 18       		.uleb128 0x18
 2873 014e 9742     		.uleb128 0x2117
 2874 0150 19       		.uleb128 0x19
 2875 0151 01       		.uleb128 0x1
 2876 0152 13       		.uleb128 0x13
 2877 0153 00       		.byte	0
 2878 0154 00       		.byte	0
 2879 0155 18       		.uleb128 0x18
 2880 0156 0B       		.uleb128 0xb
 2881 0157 01       		.byte	0x1
 2882 0158 11       		.uleb128 0x11
 2883 0159 01       		.uleb128 0x1
 2884 015a 12       		.uleb128 0x12
 2885 015b 06       		.uleb128 0x6
ARM GAS  C:\Users\JENNEW~1\AppData\Local\Temp\ccMzHkUr.s 			page 58


 2886 015c 01       		.uleb128 0x1
 2887 015d 13       		.uleb128 0x13
 2888 015e 00       		.byte	0
 2889 015f 00       		.byte	0
 2890 0160 19       		.uleb128 0x19
 2891 0161 2E       		.uleb128 0x2e
 2892 0162 00       		.byte	0
 2893 0163 03       		.uleb128 0x3
 2894 0164 0E       		.uleb128 0xe
 2895 0165 3A       		.uleb128 0x3a
 2896 0166 0B       		.uleb128 0xb
 2897 0167 3B       		.uleb128 0x3b
 2898 0168 0B       		.uleb128 0xb
 2899 0169 27       		.uleb128 0x27
 2900 016a 19       		.uleb128 0x19
 2901 016b 11       		.uleb128 0x11
 2902 016c 01       		.uleb128 0x1
 2903 016d 12       		.uleb128 0x12
 2904 016e 06       		.uleb128 0x6
 2905 016f 40       		.uleb128 0x40
 2906 0170 18       		.uleb128 0x18
 2907 0171 9642     		.uleb128 0x2116
 2908 0173 19       		.uleb128 0x19
 2909 0174 00       		.byte	0
 2910 0175 00       		.byte	0
 2911 0176 1A       		.uleb128 0x1a
 2912 0177 2E       		.uleb128 0x2e
 2913 0178 01       		.byte	0x1
 2914 0179 3F       		.uleb128 0x3f
 2915 017a 19       		.uleb128 0x19
 2916 017b 03       		.uleb128 0x3
 2917 017c 0E       		.uleb128 0xe
 2918 017d 3A       		.uleb128 0x3a
 2919 017e 0B       		.uleb128 0xb
 2920 017f 3B       		.uleb128 0x3b
 2921 0180 0B       		.uleb128 0xb
 2922 0181 27       		.uleb128 0x27
 2923 0182 19       		.uleb128 0x19
 2924 0183 11       		.uleb128 0x11
 2925 0184 01       		.uleb128 0x1
 2926 0185 12       		.uleb128 0x12
 2927 0186 06       		.uleb128 0x6
 2928 0187 40       		.uleb128 0x40
 2929 0188 18       		.uleb128 0x18
 2930 0189 9642     		.uleb128 0x2116
 2931 018b 19       		.uleb128 0x19
 2932 018c 01       		.uleb128 0x1
 2933 018d 13       		.uleb128 0x13
 2934 018e 00       		.byte	0
 2935 018f 00       		.byte	0
 2936 0190 1B       		.uleb128 0x1b
 2937 0191 2E       		.uleb128 0x2e
 2938 0192 00       		.byte	0
 2939 0193 3F       		.uleb128 0x3f
 2940 0194 19       		.uleb128 0x19
 2941 0195 03       		.uleb128 0x3
 2942 0196 0E       		.uleb128 0xe
ARM GAS  C:\Users\JENNEW~1\AppData\Local\Temp\ccMzHkUr.s 			page 59


 2943 0197 3A       		.uleb128 0x3a
 2944 0198 0B       		.uleb128 0xb
 2945 0199 3B       		.uleb128 0x3b
 2946 019a 0B       		.uleb128 0xb
 2947 019b 27       		.uleb128 0x27
 2948 019c 19       		.uleb128 0x19
 2949 019d 49       		.uleb128 0x49
 2950 019e 13       		.uleb128 0x13
 2951 019f 11       		.uleb128 0x11
 2952 01a0 01       		.uleb128 0x1
 2953 01a1 12       		.uleb128 0x12
 2954 01a2 06       		.uleb128 0x6
 2955 01a3 40       		.uleb128 0x40
 2956 01a4 18       		.uleb128 0x18
 2957 01a5 9742     		.uleb128 0x2117
 2958 01a7 19       		.uleb128 0x19
 2959 01a8 00       		.byte	0
 2960 01a9 00       		.byte	0
 2961 01aa 1C       		.uleb128 0x1c
 2962 01ab 2E       		.uleb128 0x2e
 2963 01ac 01       		.byte	0x1
 2964 01ad 3F       		.uleb128 0x3f
 2965 01ae 19       		.uleb128 0x19
 2966 01af 03       		.uleb128 0x3
 2967 01b0 0E       		.uleb128 0xe
 2968 01b1 3A       		.uleb128 0x3a
 2969 01b2 0B       		.uleb128 0xb
 2970 01b3 3B       		.uleb128 0x3b
 2971 01b4 0B       		.uleb128 0xb
 2972 01b5 27       		.uleb128 0x27
 2973 01b6 19       		.uleb128 0x19
 2974 01b7 49       		.uleb128 0x49
 2975 01b8 13       		.uleb128 0x13
 2976 01b9 11       		.uleb128 0x11
 2977 01ba 01       		.uleb128 0x1
 2978 01bb 12       		.uleb128 0x12
 2979 01bc 06       		.uleb128 0x6
 2980 01bd 40       		.uleb128 0x40
 2981 01be 18       		.uleb128 0x18
 2982 01bf 9642     		.uleb128 0x2116
 2983 01c1 19       		.uleb128 0x19
 2984 01c2 01       		.uleb128 0x1
 2985 01c3 13       		.uleb128 0x13
 2986 01c4 00       		.byte	0
 2987 01c5 00       		.byte	0
 2988 01c6 1D       		.uleb128 0x1d
 2989 01c7 2E       		.uleb128 0x2e
 2990 01c8 01       		.byte	0x1
 2991 01c9 3F       		.uleb128 0x3f
 2992 01ca 19       		.uleb128 0x19
 2993 01cb 03       		.uleb128 0x3
 2994 01cc 0E       		.uleb128 0xe
 2995 01cd 3A       		.uleb128 0x3a
 2996 01ce 0B       		.uleb128 0xb
 2997 01cf 3B       		.uleb128 0x3b
 2998 01d0 05       		.uleb128 0x5
 2999 01d1 27       		.uleb128 0x27
ARM GAS  C:\Users\JENNEW~1\AppData\Local\Temp\ccMzHkUr.s 			page 60


 3000 01d2 19       		.uleb128 0x19
 3001 01d3 11       		.uleb128 0x11
 3002 01d4 01       		.uleb128 0x1
 3003 01d5 12       		.uleb128 0x12
 3004 01d6 06       		.uleb128 0x6
 3005 01d7 40       		.uleb128 0x40
 3006 01d8 18       		.uleb128 0x18
 3007 01d9 9742     		.uleb128 0x2117
 3008 01db 19       		.uleb128 0x19
 3009 01dc 01       		.uleb128 0x1
 3010 01dd 13       		.uleb128 0x13
 3011 01de 00       		.byte	0
 3012 01df 00       		.byte	0
 3013 01e0 1E       		.uleb128 0x1e
 3014 01e1 05       		.uleb128 0x5
 3015 01e2 00       		.byte	0
 3016 01e3 03       		.uleb128 0x3
 3017 01e4 0E       		.uleb128 0xe
 3018 01e5 3A       		.uleb128 0x3a
 3019 01e6 0B       		.uleb128 0xb
 3020 01e7 3B       		.uleb128 0x3b
 3021 01e8 05       		.uleb128 0x5
 3022 01e9 49       		.uleb128 0x49
 3023 01ea 13       		.uleb128 0x13
 3024 01eb 02       		.uleb128 0x2
 3025 01ec 18       		.uleb128 0x18
 3026 01ed 00       		.byte	0
 3027 01ee 00       		.byte	0
 3028 01ef 1F       		.uleb128 0x1f
 3029 01f0 34       		.uleb128 0x34
 3030 01f1 00       		.byte	0
 3031 01f2 03       		.uleb128 0x3
 3032 01f3 08       		.uleb128 0x8
 3033 01f4 3A       		.uleb128 0x3a
 3034 01f5 0B       		.uleb128 0xb
 3035 01f6 3B       		.uleb128 0x3b
 3036 01f7 05       		.uleb128 0x5
 3037 01f8 49       		.uleb128 0x49
 3038 01f9 13       		.uleb128 0x13
 3039 01fa 02       		.uleb128 0x2
 3040 01fb 18       		.uleb128 0x18
 3041 01fc 00       		.byte	0
 3042 01fd 00       		.byte	0
 3043 01fe 20       		.uleb128 0x20
 3044 01ff 2E       		.uleb128 0x2e
 3045 0200 00       		.byte	0
 3046 0201 3F       		.uleb128 0x3f
 3047 0202 19       		.uleb128 0x19
 3048 0203 03       		.uleb128 0x3
 3049 0204 0E       		.uleb128 0xe
 3050 0205 3A       		.uleb128 0x3a
 3051 0206 0B       		.uleb128 0xb
 3052 0207 3B       		.uleb128 0x3b
 3053 0208 05       		.uleb128 0x5
 3054 0209 27       		.uleb128 0x27
 3055 020a 19       		.uleb128 0x19
 3056 020b 49       		.uleb128 0x49
ARM GAS  C:\Users\JENNEW~1\AppData\Local\Temp\ccMzHkUr.s 			page 61


 3057 020c 13       		.uleb128 0x13
 3058 020d 11       		.uleb128 0x11
 3059 020e 01       		.uleb128 0x1
 3060 020f 12       		.uleb128 0x12
 3061 0210 06       		.uleb128 0x6
 3062 0211 40       		.uleb128 0x40
 3063 0212 18       		.uleb128 0x18
 3064 0213 9742     		.uleb128 0x2117
 3065 0215 19       		.uleb128 0x19
 3066 0216 00       		.byte	0
 3067 0217 00       		.byte	0
 3068 0218 21       		.uleb128 0x21
 3069 0219 2E       		.uleb128 0x2e
 3070 021a 01       		.byte	0x1
 3071 021b 3F       		.uleb128 0x3f
 3072 021c 19       		.uleb128 0x19
 3073 021d 03       		.uleb128 0x3
 3074 021e 0E       		.uleb128 0xe
 3075 021f 3A       		.uleb128 0x3a
 3076 0220 0B       		.uleb128 0xb
 3077 0221 3B       		.uleb128 0x3b
 3078 0222 05       		.uleb128 0x5
 3079 0223 27       		.uleb128 0x27
 3080 0224 19       		.uleb128 0x19
 3081 0225 11       		.uleb128 0x11
 3082 0226 01       		.uleb128 0x1
 3083 0227 12       		.uleb128 0x12
 3084 0228 06       		.uleb128 0x6
 3085 0229 40       		.uleb128 0x40
 3086 022a 18       		.uleb128 0x18
 3087 022b 9642     		.uleb128 0x2116
 3088 022d 19       		.uleb128 0x19
 3089 022e 01       		.uleb128 0x1
 3090 022f 13       		.uleb128 0x13
 3091 0230 00       		.byte	0
 3092 0231 00       		.byte	0
 3093 0232 22       		.uleb128 0x22
 3094 0233 2E       		.uleb128 0x2e
 3095 0234 01       		.byte	0x1
 3096 0235 3F       		.uleb128 0x3f
 3097 0236 19       		.uleb128 0x19
 3098 0237 03       		.uleb128 0x3
 3099 0238 0E       		.uleb128 0xe
 3100 0239 3A       		.uleb128 0x3a
 3101 023a 0B       		.uleb128 0xb
 3102 023b 3B       		.uleb128 0x3b
 3103 023c 05       		.uleb128 0x5
 3104 023d 27       		.uleb128 0x27
 3105 023e 19       		.uleb128 0x19
 3106 023f 49       		.uleb128 0x49
 3107 0240 13       		.uleb128 0x13
 3108 0241 11       		.uleb128 0x11
 3109 0242 01       		.uleb128 0x1
 3110 0243 12       		.uleb128 0x12
 3111 0244 06       		.uleb128 0x6
 3112 0245 40       		.uleb128 0x40
 3113 0246 18       		.uleb128 0x18
ARM GAS  C:\Users\JENNEW~1\AppData\Local\Temp\ccMzHkUr.s 			page 62


 3114 0247 9642     		.uleb128 0x2116
 3115 0249 19       		.uleb128 0x19
 3116 024a 01       		.uleb128 0x1
 3117 024b 13       		.uleb128 0x13
 3118 024c 00       		.byte	0
 3119 024d 00       		.byte	0
 3120 024e 23       		.uleb128 0x23
 3121 024f 34       		.uleb128 0x34
 3122 0250 00       		.byte	0
 3123 0251 03       		.uleb128 0x3
 3124 0252 0E       		.uleb128 0xe
 3125 0253 3A       		.uleb128 0x3a
 3126 0254 0B       		.uleb128 0xb
 3127 0255 3B       		.uleb128 0x3b
 3128 0256 05       		.uleb128 0x5
 3129 0257 49       		.uleb128 0x49
 3130 0258 13       		.uleb128 0x13
 3131 0259 3F       		.uleb128 0x3f
 3132 025a 19       		.uleb128 0x19
 3133 025b 3C       		.uleb128 0x3c
 3134 025c 19       		.uleb128 0x19
 3135 025d 00       		.byte	0
 3136 025e 00       		.byte	0
 3137 025f 24       		.uleb128 0x24
 3138 0260 35       		.uleb128 0x35
 3139 0261 00       		.byte	0
 3140 0262 49       		.uleb128 0x49
 3141 0263 13       		.uleb128 0x13
 3142 0264 00       		.byte	0
 3143 0265 00       		.byte	0
 3144 0266 00       		.byte	0
 3145              		.section	.debug_aranges,"",%progbits
 3146 0000 AC000000 		.4byte	0xac
 3147 0004 0200     		.2byte	0x2
 3148 0006 00000000 		.4byte	.Ldebug_info0
 3149 000a 04       		.byte	0x4
 3150 000b 00       		.byte	0
 3151 000c 0000     		.2byte	0
 3152 000e 0000     		.2byte	0
 3153 0010 00000000 		.4byte	.LFB63
 3154 0014 48000000 		.4byte	.LFE63-.LFB63
 3155 0018 00000000 		.4byte	.LFB64
 3156 001c D0000000 		.4byte	.LFE64-.LFB64
 3157 0020 00000000 		.4byte	.LFB65
 3158 0024 90000000 		.4byte	.LFE65-.LFB65
 3159 0028 00000000 		.4byte	.LFB66
 3160 002c 92000000 		.4byte	.LFE66-.LFB66
 3161 0030 00000000 		.4byte	.LFB67
 3162 0034 84000000 		.4byte	.LFE67-.LFB67
 3163 0038 00000000 		.4byte	.LFB68
 3164 003c 98000000 		.4byte	.LFE68-.LFB68
 3165 0040 00000000 		.4byte	.LFB69
 3166 0044 44000000 		.4byte	.LFE69-.LFB69
 3167 0048 00000000 		.4byte	.LFB70
 3168 004c A8000000 		.4byte	.LFE70-.LFB70
 3169 0050 00000000 		.4byte	.LFB71
 3170 0054 44000000 		.4byte	.LFE71-.LFB71
ARM GAS  C:\Users\JENNEW~1\AppData\Local\Temp\ccMzHkUr.s 			page 63


 3171 0058 00000000 		.4byte	.LFB72
 3172 005c A4000000 		.4byte	.LFE72-.LFB72
 3173 0060 00000000 		.4byte	.LFB73
 3174 0064 48000000 		.4byte	.LFE73-.LFB73
 3175 0068 00000000 		.4byte	.LFB74
 3176 006c 70000000 		.4byte	.LFE74-.LFB74
 3177 0070 00000000 		.4byte	.LFB75
 3178 0074 14000000 		.4byte	.LFE75-.LFB75
 3179 0078 00000000 		.4byte	.LFB76
 3180 007c 3C000000 		.4byte	.LFE76-.LFB76
 3181 0080 00000000 		.4byte	.LFB77
 3182 0084 3C000000 		.4byte	.LFE77-.LFB77
 3183 0088 00000000 		.4byte	.LFB78
 3184 008c 14000000 		.4byte	.LFE78-.LFB78
 3185 0090 00000000 		.4byte	.LFB79
 3186 0094 E8000000 		.4byte	.LFE79-.LFB79
 3187 0098 00000000 		.4byte	.LFB80
 3188 009c 2E000000 		.4byte	.LFE80-.LFB80
 3189 00a0 00000000 		.4byte	.LFB81
 3190 00a4 4A000000 		.4byte	.LFE81-.LFB81
 3191 00a8 00000000 		.4byte	0
 3192 00ac 00000000 		.4byte	0
 3193              		.section	.debug_ranges,"",%progbits
 3194              	.Ldebug_ranges0:
 3195 0000 00000000 		.4byte	.LFB63
 3196 0004 48000000 		.4byte	.LFE63
 3197 0008 00000000 		.4byte	.LFB64
 3198 000c D0000000 		.4byte	.LFE64
 3199 0010 00000000 		.4byte	.LFB65
 3200 0014 90000000 		.4byte	.LFE65
 3201 0018 00000000 		.4byte	.LFB66
 3202 001c 92000000 		.4byte	.LFE66
 3203 0020 00000000 		.4byte	.LFB67
 3204 0024 84000000 		.4byte	.LFE67
 3205 0028 00000000 		.4byte	.LFB68
 3206 002c 98000000 		.4byte	.LFE68
 3207 0030 00000000 		.4byte	.LFB69
 3208 0034 44000000 		.4byte	.LFE69
 3209 0038 00000000 		.4byte	.LFB70
 3210 003c A8000000 		.4byte	.LFE70
 3211 0040 00000000 		.4byte	.LFB71
 3212 0044 44000000 		.4byte	.LFE71
 3213 0048 00000000 		.4byte	.LFB72
 3214 004c A4000000 		.4byte	.LFE72
 3215 0050 00000000 		.4byte	.LFB73
 3216 0054 48000000 		.4byte	.LFE73
 3217 0058 00000000 		.4byte	.LFB74
 3218 005c 70000000 		.4byte	.LFE74
 3219 0060 00000000 		.4byte	.LFB75
 3220 0064 14000000 		.4byte	.LFE75
 3221 0068 00000000 		.4byte	.LFB76
 3222 006c 3C000000 		.4byte	.LFE76
 3223 0070 00000000 		.4byte	.LFB77
 3224 0074 3C000000 		.4byte	.LFE77
 3225 0078 00000000 		.4byte	.LFB78
 3226 007c 14000000 		.4byte	.LFE78
 3227 0080 00000000 		.4byte	.LFB79
ARM GAS  C:\Users\JENNEW~1\AppData\Local\Temp\ccMzHkUr.s 			page 64


 3228 0084 E8000000 		.4byte	.LFE79
 3229 0088 00000000 		.4byte	.LFB80
 3230 008c 2E000000 		.4byte	.LFE80
 3231 0090 00000000 		.4byte	.LFB81
 3232 0094 4A000000 		.4byte	.LFE81
 3233 0098 00000000 		.4byte	0
 3234 009c 00000000 		.4byte	0
 3235              		.section	.debug_line,"",%progbits
 3236              	.Ldebug_line0:
 3237 0000 55040000 		.section	.debug_str,"MS",%progbits,1
 3237      02005E01 
 3237      00000201 
 3237      FB0E0D00 
 3237      01010101 
 3238              	.LASF28:
 3239 0000 76616C69 		.ascii	"valid\000"
 3239      6400
 3240              	.LASF21:
 3241 0006 53454E53 		.ascii	"SENSE_LOW\000"
 3241      455F4C4F 
 3241      5700
 3242              	.LASF42:
 3243 0010 6E6F726D 		.ascii	"normalize_axis\000"
 3243      616C697A 
 3243      655F6178 
 3243      697300
 3244              	.LASF27:
 3245 001f 63656E74 		.ascii	"center\000"
 3245      657200
 3246              	.LASF62:
 3247 0026 6A6F7973 		.ascii	"joystick_center_samples_collected\000"
 3247      7469636B 
 3247      5F63656E 
 3247      7465725F 
 3247      73616D70 
 3248              	.LASF72:
 3249 0048 735F696E 		.ascii	"s_invert_mask\000"
 3249      76657274 
 3249      5F6D6173 
 3249      6B00
 3250              	.LASF30:
 3251 0056 4A4F595F 		.ascii	"JOY_CAL_OFF\000"
 3251      43414C5F 
 3251      4F464600 
 3252              	.LASF47:
 3253 0062 63616C5F 		.ascii	"cal_begin_range_capture\000"
 3253      62656769 
 3253      6E5F7261 
 3253      6E67655F 
 3253      63617074 
 3254              	.LASF39:
 3255 007a 636D6178 		.ascii	"cmax\000"
 3255      00
 3256              	.LASF50:
 3257 007f 63616C5F 		.ascii	"cal_center_capture_update\000"
 3257      63656E74 
 3257      65725F63 
ARM GAS  C:\Users\JENNEW~1\AppData\Local\Temp\ccMzHkUr.s 			page 65


 3257      61707475 
 3257      72655F75 
 3258              	.LASF2:
 3259 0099 73686F72 		.ascii	"short int\000"
 3259      7420696E 
 3259      7400
 3260              	.LASF71:
 3261 00a3 735F6C61 		.ascii	"s_latest_counts\000"
 3261      74657374 
 3261      5F636F75 
 3261      6E747300 
 3262              	.LASF20:
 3263 00b3 73697A65 		.ascii	"sizetype\000"
 3263      74797065 
 3263      00
 3264              	.LASF63:
 3265 00bc 6A6F7973 		.ascii	"joystick_get_cmd\000"
 3265      7469636B 
 3265      5F676574 
 3265      5F636D64 
 3265      00
 3266              	.LASF54:
 3267 00cd 696E7665 		.ascii	"invert_mask\000"
 3267      72745F6D 
 3267      61736B00 
 3268              	.LASF76:
 3269 00d9 474E5520 		.ascii	"GNU C11 5.4.1 20160609 (release) [ARM/embedded-5-br"
 3269      43313120 
 3269      352E342E 
 3269      31203230 
 3269      31363036 
 3270 010c 616E6368 		.ascii	"anch revision 237715] -mcpu=cortex-m3 -mthumb -g -O"
 3270      20726576 
 3270      6973696F 
 3270      6E203233 
 3270      37373135 
 3271 013f 30202D66 		.ascii	"0 -ffunction-sections -ffat-lto-objects\000"
 3271      66756E63 
 3271      74696F6E 
 3271      2D736563 
 3271      74696F6E 
 3272              	.LASF22:
 3273 0167 53454E53 		.ascii	"SENSE_MED\000"
 3273      455F4D45 
 3273      4400
 3274              	.LASF33:
 3275 0171 4A4F595F 		.ascii	"JOY_CAL_CONFIRM_SAVE\000"
 3275      43414C5F 
 3275      434F4E46 
 3275      49524D5F 
 3275      53415645 
 3276              	.LASF37:
 3277 0186 636D696E 		.ascii	"cmin\000"
 3277      00
 3278              	.LASF26:
 3279 018b 6D617876 		.ascii	"maxv\000"
 3279      00
ARM GAS  C:\Users\JENNEW~1\AppData\Local\Temp\ccMzHkUr.s 			page 66


 3280              	.LASF56:
 3281 0190 6A6F7973 		.ascii	"joystick_on_key\000"
 3281      7469636B 
 3281      5F6F6E5F 
 3281      6B657900 
 3282              	.LASF66:
 3283 01a0 6A6F7973 		.ascii	"joystick_load\000"
 3283      7469636B 
 3283      5F6C6F61 
 3283      6400
 3284              	.LASF78:
 3285 01ae 433A5C55 		.ascii	"C:\\Users\\Jennewein\\Documents\\hamish-workspace\\"
 3285      73657273 
 3285      5C4A656E 
 3285      6E657765 
 3285      696E5C44 
 3286 01dc 50536F43 		.ascii	"PSoC-Programs\\test_projects\\Proj07_hamflyAPI_pres"
 3286      2D50726F 
 3286      6772616D 
 3286      735C7465 
 3286      73745F70 
 3287 020d 63697369 		.ascii	"cisionPointing.cydsn\000"
 3287      6F6E506F 
 3287      696E7469 
 3287      6E672E63 
 3287      7964736E 
 3288              	.LASF12:
 3289 0222 75696E74 		.ascii	"uint16\000"
 3289      313600
 3290              	.LASF65:
 3291 0229 6A6F7973 		.ascii	"joystick_save\000"
 3291      7469636B 
 3291      5F736176 
 3291      6500
 3292              	.LASF14:
 3293 0237 696E7431 		.ascii	"int16\000"
 3293      3600
 3294              	.LASF29:
 3295 023d 6A6F795F 		.ascii	"joy_cal_t\000"
 3295      63616C5F 
 3295      7400
 3296              	.LASF43:
 3297 0247 6170706C 		.ascii	"apply_deadband\000"
 3297      795F6465 
 3297      61646261 
 3297      6E6400
 3298              	.LASF64:
 3299 0256 6F75745F 		.ascii	"out_cmd\000"
 3299      636D6400 
 3300              	.LASF35:
 3301 025e 6A6F795F 		.ascii	"joy_cmd_t\000"
 3301      636D645F 
 3301      7400
 3302              	.LASF61:
 3303 0268 6A6F7973 		.ascii	"joystick_cal_state\000"
 3303      7469636B 
 3303      5F63616C 
ARM GAS  C:\Users\JENNEW~1\AppData\Local\Temp\ccMzHkUr.s 			page 67


 3303      5F737461 
 3303      746500
 3304              	.LASF45:
 3305 027b 63656E74 		.ascii	"center_ok\000"
 3305      65725F6F 
 3305      6B00
 3306              	.LASF16:
 3307 0285 666C6F61 		.ascii	"float\000"
 3307      7400
 3308              	.LASF6:
 3309 028b 6C6F6E67 		.ascii	"long long int\000"
 3309      206C6F6E 
 3309      6720696E 
 3309      7400
 3310              	.LASF44:
 3311 0299 7370616E 		.ascii	"span\000"
 3311      00
 3312              	.LASF74:
 3313 029e 735F6365 		.ascii	"s_center_n\000"
 3313      6E746572 
 3313      5F6E00
 3314              	.LASF4:
 3315 02a9 6C6F6E67 		.ascii	"long int\000"
 3315      20696E74 
 3315      00
 3316              	.LASF34:
 3317 02b2 6A6F795F 		.ascii	"joy_cal_state_t\000"
 3317      63616C5F 
 3317      73746174 
 3317      655F7400 
 3318              	.LASF53:
 3319 02c2 64656661 		.ascii	"defaults\000"
 3319      756C7473 
 3319      00
 3320              	.LASF48:
 3321 02cb 63616C5F 		.ascii	"cal_update_ranges\000"
 3321      75706461 
 3321      74655F72 
 3321      616E6765 
 3321      7300
 3322              	.LASF73:
 3323 02dd 735F6365 		.ascii	"s_center_sum\000"
 3323      6E746572 
 3323      5F73756D 
 3323      00
 3324              	.LASF19:
 3325 02ea 6C6F6E67 		.ascii	"long double\000"
 3325      20646F75 
 3325      626C6500 
 3326              	.LASF1:
 3327 02f6 756E7369 		.ascii	"unsigned char\000"
 3327      676E6564 
 3327      20636861 
 3327      7200
 3328              	.LASF55:
 3329 0304 6A6F7973 		.ascii	"joystick_on_sample\000"
 3329      7469636B 
ARM GAS  C:\Users\JENNEW~1\AppData\Local\Temp\ccMzHkUr.s 			page 68


 3329      5F6F6E5F 
 3329      73616D70 
 3329      6C6500
 3330              	.LASF24:
 3331 0317 6A6F795F 		.ascii	"joy_sensitivity_t\000"
 3331      73656E73 
 3331      69746976 
 3331      6974795F 
 3331      7400
 3332              	.LASF0:
 3333 0329 7369676E 		.ascii	"signed char\000"
 3333      65642063 
 3333      68617200 
 3334              	.LASF7:
 3335 0335 6C6F6E67 		.ascii	"long long unsigned int\000"
 3335      206C6F6E 
 3335      6720756E 
 3335      7369676E 
 3335      65642069 
 3336              	.LASF8:
 3337 034c 756E7369 		.ascii	"unsigned int\000"
 3337      676E6564 
 3337      20696E74 
 3337      00
 3338              	.LASF46:
 3339 0359 636F756E 		.ascii	"counts\000"
 3339      747300
 3340              	.LASF57:
 3341 0360 6A6F7973 		.ascii	"joystick_validate\000"
 3341      7469636B 
 3341      5F76616C 
 3341      69646174 
 3341      6500
 3342              	.LASF25:
 3343 0372 6D696E76 		.ascii	"minv\000"
 3343      00
 3344              	.LASF3:
 3345 0377 73686F72 		.ascii	"short unsigned int\000"
 3345      7420756E 
 3345      7369676E 
 3345      65642069 
 3345      6E7400
 3346              	.LASF32:
 3347 038a 4A4F595F 		.ascii	"JOY_CAL_CENTER_CAPTURE\000"
 3347      43414C5F 
 3347      43454E54 
 3347      45525F43 
 3347      41505455 
 3348              	.LASF67:
 3349 03a1 735F6465 		.ascii	"s_default\000"
 3349      6661756C 
 3349      7400
 3350              	.LASF40:
 3351 03ab 7370616E 		.ascii	"span_pos\000"
 3351      5F706F73 
 3351      00
 3352              	.LASF18:
ARM GAS  C:\Users\JENNEW~1\AppData\Local\Temp\ccMzHkUr.s 			page 69


 3353 03b4 63686172 		.ascii	"char\000"
 3353      00
 3354              	.LASF10:
 3355 03b9 696E7433 		.ascii	"int32_t\000"
 3355      325F7400 
 3356              	.LASF23:
 3357 03c1 53454E53 		.ascii	"SENSE_HIGH\000"
 3357      455F4849 
 3357      474800
 3358              	.LASF79:
 3359 03cc 63616C5F 		.ascii	"cal_save_or_restart\000"
 3359      73617665 
 3359      5F6F725F 
 3359      72657374 
 3359      61727400 
 3360              	.LASF60:
 3361 03e0 6F75745F 		.ascii	"out_counts\000"
 3361      636F756E 
 3361      747300
 3362              	.LASF69:
 3363 03eb 735F776F 		.ascii	"s_work\000"
 3363      726B00
 3364              	.LASF59:
 3365 03f2 6A6F7973 		.ascii	"joystick_get_raw\000"
 3365      7469636B 
 3365      5F676574 
 3365      5F726177 
 3365      00
 3366              	.LASF52:
 3367 0403 6A6F7973 		.ascii	"joystick_init\000"
 3367      7469636B 
 3367      5F696E69 
 3367      7400
 3368              	.LASF13:
 3369 0411 75696E74 		.ascii	"uint32\000"
 3369      333200
 3370              	.LASF77:
 3371 0418 6A6F7973 		.ascii	"joystick.c\000"
 3371      7469636B 
 3371      2E6300
 3372              	.LASF5:
 3373 0423 6C6F6E67 		.ascii	"long unsigned int\000"
 3373      20756E73 
 3373      69676E65 
 3373      6420696E 
 3373      7400
 3374              	.LASF75:
 3375 0435 735F7365 		.ascii	"s_sensitivity_multiplier\000"
 3375      6E736974 
 3375      69766974 
 3375      795F6D75 
 3375      6C746970 
 3376              	.LASF15:
 3377 044e 696E7433 		.ascii	"int32\000"
 3377      3200
 3378              	.LASF17:
 3379 0454 646F7562 		.ascii	"double\000"
ARM GAS  C:\Users\JENNEW~1\AppData\Local\Temp\ccMzHkUr.s 			page 70


 3379      6C6500
 3380              	.LASF49:
 3381 045b 63616C5F 		.ascii	"cal_start_center_capture\000"
 3381      73746172 
 3381      745F6365 
 3381      6E746572 
 3381      5F636170 
 3382              	.LASF80:
 3383 0474 49544D5F 		.ascii	"ITM_RxBuffer\000"
 3383      52784275 
 3383      66666572 
 3383      00
 3384              	.LASF9:
 3385 0481 5F5F696E 		.ascii	"__int32_t\000"
 3385      7433325F 
 3385      7400
 3386              	.LASF36:
 3387 048b 6C657665 		.ascii	"level\000"
 3387      6C00
 3388              	.LASF51:
 3389 0491 6A6F7973 		.ascii	"joystick_set_sensitivity\000"
 3389      7469636B 
 3389      5F736574 
 3389      5F73656E 
 3389      73697469 
 3390              	.LASF11:
 3391 04aa 75696E74 		.ascii	"uint8\000"
 3391      3800
 3392              	.LASF31:
 3393 04b0 4A4F595F 		.ascii	"JOY_CAL_RANGE_CAPTURE\000"
 3393      43414C5F 
 3393      52414E47 
 3393      455F4341 
 3393      50545552 
 3394              	.LASF41:
 3395 04c6 7370616E 		.ascii	"span_neg\000"
 3395      5F6E6567 
 3395      00
 3396              	.LASF68:
 3397 04cf 735F7361 		.ascii	"s_saved\000"
 3397      76656400 
 3398              	.LASF70:
 3399 04d7 735F7374 		.ascii	"s_state\000"
 3399      61746500 
 3400              	.LASF58:
 3401 04df 6A6F7973 		.ascii	"joystick_get_cal\000"
 3401      7469636B 
 3401      5F676574 
 3401      5F63616C 
 3401      00
 3402              	.LASF38:
 3403 04f0 6363656E 		.ascii	"ccenter\000"
 3403      74657200 
 3404              		.ident	"GCC: (GNU Tools for ARM Embedded Processors) 5.4.1 20160609 (release) [ARM/embedded-5-bran
