ARM GAS  C:\Users\JENNEW~1\AppData\Local\Temp\ccFpxs5T.s 			page 1


   1              		.syntax unified
   2              		.cpu cortex-m3
   3              		.fpu softvfp
   4              		.eabi_attribute 20, 1
   5              		.eabi_attribute 21, 1
   6              		.eabi_attribute 23, 3
   7              		.eabi_attribute 24, 1
   8              		.eabi_attribute 25, 1
   9              		.eabi_attribute 26, 1
  10              		.eabi_attribute 30, 6
  11              		.eabi_attribute 34, 1
  12              		.eabi_attribute 18, 4
  13              		.thumb
  14              		.syntax unified
  15              		.file	"main.c"
  16              		.text
  17              	.Ltext0:
  18              		.cfi_sections	.debug_frame
  19              		.bss
  20              		.align	2
  21              	g_movi:
  22 0000 00000000 		.space	896
  22      00000000 
  22      00000000 
  22      00000000 
  22      00000000 
  23              		.global	g_tick_ms
  24              		.align	2
  25              		.type	g_tick_ms, %object
  26              		.size	g_tick_ms, 4
  27              	g_tick_ms:
  28 0380 00000000 		.space	4
  29              		.section	.text.psoc_uart_putc,"ax",%progbits
  30              		.align	2
  31              		.thumb
  32              		.thumb_func
  33              		.type	psoc_uart_putc, %function
  34              	psoc_uart_putc:
  35              	.LFB64:
  36              		.file 1 "main.c"
   1:main.c        **** /* main.c
   2:main.c        ****  * Author: Hamish Johnson
   3:main.c        ****  * Org: Quantum Internet Systems Lab, SFU, Physics
   4:main.c        ****  * Date: March 2026
   5:main.c        ****  *
   6:main.c        ****  * Uses HamflyAPI (hamfly.h) for all gimbal communication.
   7:main.c        ****  *
   8:main.c        ****  * Modes:
   9:main.c        ****  *   STANDBY   passive; pump runs; 1 Hz status if telemetry valid.
  10:main.c        ****  *             Set boresight origin here before entering other modes.
  11:main.c        ****  *   CONTROL   10 Hz QX277 TX.  Joystick (rate) and numpad presets
  12:main.c        ****  *             share the mode — preset executes, settles to within
  13:main.c        ****  *             PRESET_SETTLE_DEG of target (or PRESET_SETTLE_MS
  14:main.c        ****  *             timeout), then joystick resumes automatically.
  15:main.c        ****  *   QUERY     one-shot attr reads with verbose print or 2 s timeout.
  16:main.c        ****  *             No periodic TX; gimbal holds last command.
  17:main.c        ****  *   NUDGE     keyboard-driven absolute accumulation for beam-profiler
ARM GAS  C:\Users\JENNEW~1\AppData\Local\Temp\ccFpxs5T.s 			page 2


  18:main.c        ****  *             calibration.  Each keypress adds a fixed step to the
  19:main.c        ****  *             accumulated pan/tilt target, clamped to software limits.
  20:main.c        ****  *             Current accumulated position prints after every step.
  21:main.c        ****  *             No joystick input in this mode.
  22:main.c        ****  *
  23:main.c        ****  * Keys — STANDBY:
  24:main.c        ****  *   m  enter CONTROL      q  enter QUERY
  25:main.c        ****  *   n  enter NUDGE        s  toggle ADC stream
  26:main.c        ****  *   j  toggle joystick    l  cycle DEFER/RATE/ABS
  27:main.c        ****  *   c  calibration        k  kill + STANDBY
  28:main.c        ****  *   x  kill + quiet
  29:main.c        ****  *   z  command (0, 0) absolute  (go to boresight)
  30:main.c        ****  *   [  set limit origin at current Euler position
  31:main.c        ****  *      (prints Euler first so you can confirm boresight)
  32:main.c        ****  *
  33:main.c        ****  * Keys — CONTROL (plus all STANDBY keys active):
  34:main.c        ****  *   Numpad presets (require ABS mode via 'l'):
  35:main.c        ****  *     8  tilt +25 deg      2  tilt -25 deg      5  tilt  0 deg
  36:main.c        ****  *     4  pan  -45 deg      6  pan  +45 deg       0  pan   0 deg
  37:main.c        ****  *   (preset executes, joystick resumes automatically after settle)
  38:main.c        ****  *   p  toggle platform-yaw display in 1 Hz diag
  39:main.c        ****  *
  40:main.c        ****  * Keys — QUERY:
  41:main.c        ****  *   a  attr 22 euler       g  attr  4 GPS
  42:main.c        ****  *   b  attr  3 baro        s  attr  1 sysstat
  43:main.c        ****  *   n  attr 12 mag         2  attr  2 platform att
  44:main.c        ****  *   4  attr 48 motor       q  quat crosscheck
  45:main.c        ****  *   t  exit to STANDBY     x  kill + exit
  46:main.c        ****  *
  47:main.c        ****  * Keys — NUDGE:
  48:main.c        ****  *   j  pan  left  (NUDGE_SMALL_DEG)    l  pan  right (NUDGE_SMALL_DEG)
  49:main.c        ****  *   i  tilt up    (NUDGE_SMALL_DEG)    k  tilt down  (NUDGE_SMALL_DEG)
  50:main.c        ****  *   a  pan  left  (NUDGE_LARGE_DEG)    d  pan  right (NUDGE_LARGE_DEG)
  51:main.c        ****  *   w  tilt up    (NUDGE_LARGE_DEG)    s  tilt down  (NUDGE_LARGE_DEG)
  52:main.c        ****  *   (accumulated pan/tilt printed after every step)
  53:main.c        ****  *   t  exit to STANDBY     x  kill + exit
  54:main.c        ****  */
  55:main.c        **** 
  56:main.c        **** #include <project.h>
  57:main.c        **** #include <stdio.h>
  58:main.c        **** #include <math.h>
  59:main.c        **** #include <string.h>
  60:main.c        **** 
  61:main.c        **** #include "hamfly.h"
  62:main.c        **** #include "adc_balanced.h"
  63:main.c        **** #include "joystick.h"
  64:main.c        **** #include "psoc_eeprom.h"
  65:main.c        **** 
  66:main.c        **** /* =========================================================================
  67:main.c        ****  * Timing constants
  68:main.c        ****  * ========================================================================= */
  69:main.c        **** #define TX_BUF_SIZE           160u
  70:main.c        **** #define CONTROL_PERIOD_MS     100u    /* 10 Hz control TX                       */
  71:main.c        **** #define DIAG_PERIOD_MS        1000u   /* 1 Hz diagnostic print                  */
  72:main.c        **** #define QUERY_TIMEOUT_MS      2000u   /* max wait for attr response in QUERY     */
  73:main.c        **** #define PRESET_SETTLE_MS      1500u   /* fallback timeout if threshold not met   */
  74:main.c        **** 
ARM GAS  C:\Users\JENNEW~1\AppData\Local\Temp\ccFpxs5T.s 			page 3


  75:main.c        **** /* =========================================================================
  76:main.c        ****  * Software limits
  77:main.c        ****  * Limits are relative to the boresight origin set with '[' in STANDBY.
  78:main.c        ****  * All values in degrees.
  79:main.c        ****  * ========================================================================= */
  80:main.c        **** #define LIMIT_PAN_MAX_DEG      15.0f
  81:main.c        **** #define LIMIT_PAN_MIN_DEG     -15.0f
  82:main.c        **** #define LIMIT_TILT_MAX_DEG     15.0f
  83:main.c        **** #define LIMIT_TILT_MIN_DEG    -15.0f
  84:main.c        **** 
  85:main.c        **** /* =========================================================================
  86:main.c        ****  * Nudge step sizes (degrees)
  87:main.c        ****  * ========================================================================= */
  88:main.c        **** #define NUDGE_SMALL_DEG         0.05f  /* jkli — smallest reliable gimbal step  */
  89:main.c        **** #define NUDGE_LARGE_DEG         0.5f   /* wasd — coarse step for beam scanning  */
  90:main.c        **** 
  91:main.c        **** /* =========================================================================
  92:main.c        ****  * Preset settle threshold
  93:main.c        ****  * Joystick resumes when |commanded - actual| < this value on both axes,
  94:main.c        ****  * or after PRESET_SETTLE_MS, whichever comes first.
  95:main.c        ****  * ========================================================================= */
  96:main.c        **** #define PRESET_SETTLE_DEG       0.5f
  97:main.c        **** 
  98:main.c        **** /* =========================================================================
  99:main.c        ****  * Utility macros
 100:main.c        ****  * ========================================================================= */
 101:main.c        **** #define DEG_TO_UNIT(d)   ((float)(d) / 180.0f)
 102:main.c        **** #define UNIT_TO_DEG(u)   ((float)(u) * 180.0f)
 103:main.c        **** #define CLAMP(v,lo,hi)   ((v)<(lo)?(lo):((v)>(hi)?(hi):(v)))
 104:main.c        **** #define FALSE  0u
 105:main.c        **** #define TRUE   1u
 106:main.c        **** #define CH_X   0u
 107:main.c        **** #define CH_Y   1u
 108:main.c        **** 
 109:main.c        **** /* =========================================================================
 110:main.c        ****  * App state
 111:main.c        ****  * ========================================================================= */
 112:main.c        **** typedef enum {
 113:main.c        ****     APP_MODE_STANDBY = 0,
 114:main.c        ****     APP_MODE_CONTROL,      /* joystick rate + numpad presets                   */
 115:main.c        ****     APP_MODE_QUERY,        /* one-shot attr reads, verbose print                */
 116:main.c        ****     APP_MODE_NUDGE,        /* keyboard abs-accumulation for beam calibration    */
 117:main.c        **** } app_mode_t;
 118:main.c        **** 
 119:main.c        **** /* =========================================================================
 120:main.c        ****  * Globals
 121:main.c        ****  * ========================================================================= */
 122:main.c        **** static hamfly_gimbal_t g_movi;
 123:main.c        **** volatile uint32_t      g_tick_ms = 0u;
 124:main.c        **** 
 125:main.c        **** /* =========================================================================
 126:main.c        ****  * HAL
 127:main.c        ****  * ========================================================================= */
 128:main.c        **** static void psoc_uart_putc(void *ctx, uint8_t b)
 129:main.c        **** {
  37              		.loc 1 129 0
  38              		.cfi_startproc
ARM GAS  C:\Users\JENNEW~1\AppData\Local\Temp\ccFpxs5T.s 			page 4


  39              		@ args = 0, pretend = 0, frame = 8
  40              		@ frame_needed = 1, uses_anonymous_args = 0
  41 0000 80B5     		push	{r7, lr}
  42              		.cfi_def_cfa_offset 8
  43              		.cfi_offset 7, -8
  44              		.cfi_offset 14, -4
  45 0002 82B0     		sub	sp, sp, #8
  46              		.cfi_def_cfa_offset 16
  47 0004 00AF     		add	r7, sp, #0
  48              		.cfi_def_cfa_register 7
  49 0006 7860     		str	r0, [r7, #4]
  50 0008 0B46     		mov	r3, r1
  51 000a FB70     		strb	r3, [r7, #3]
 130:main.c        ****     (void)ctx;
 131:main.c        ****     UART_MOVI_PutChar((char)b);
  52              		.loc 1 131 0
  53 000c FB78     		ldrb	r3, [r7, #3]	@ zero_extendqisi2
  54 000e 1846     		mov	r0, r3
  55 0010 FFF7FEFF 		bl	UART_MOVI_PutChar
 132:main.c        **** }
  56              		.loc 1 132 0
  57 0014 00BF     		nop
  58 0016 0837     		adds	r7, r7, #8
  59              		.cfi_def_cfa_offset 8
  60 0018 BD46     		mov	sp, r7
  61              		.cfi_def_cfa_register 13
  62              		@ sp needed
  63 001a 80BD     		pop	{r7, pc}
  64              		.cfi_endproc
  65              	.LFE64:
  66              		.size	psoc_uart_putc, .-psoc_uart_putc
  67              		.section	.text.psoc_get_tick,"ax",%progbits
  68              		.align	2
  69              		.thumb
  70              		.thumb_func
  71              		.type	psoc_get_tick, %function
  72              	psoc_get_tick:
  73              	.LFB65:
 133:main.c        **** 
 134:main.c        **** static uint32_t psoc_get_tick(void *ctx)
 135:main.c        **** {
  74              		.loc 1 135 0
  75              		.cfi_startproc
  76              		@ args = 0, pretend = 0, frame = 8
  77              		@ frame_needed = 1, uses_anonymous_args = 0
  78              		@ link register save eliminated.
  79 0000 80B4     		push	{r7}
  80              		.cfi_def_cfa_offset 4
  81              		.cfi_offset 7, -4
  82 0002 83B0     		sub	sp, sp, #12
  83              		.cfi_def_cfa_offset 16
  84 0004 00AF     		add	r7, sp, #0
  85              		.cfi_def_cfa_register 7
  86 0006 7860     		str	r0, [r7, #4]
 136:main.c        ****     (void)ctx;
 137:main.c        ****     return g_tick_ms;
  87              		.loc 1 137 0
ARM GAS  C:\Users\JENNEW~1\AppData\Local\Temp\ccFpxs5T.s 			page 5


  88 0008 034B     		ldr	r3, .L4
  89 000a 1B68     		ldr	r3, [r3]
 138:main.c        **** }
  90              		.loc 1 138 0
  91 000c 1846     		mov	r0, r3
  92 000e 0C37     		adds	r7, r7, #12
  93              		.cfi_def_cfa_offset 4
  94 0010 BD46     		mov	sp, r7
  95              		.cfi_def_cfa_register 13
  96              		@ sp needed
  97 0012 80BC     		pop	{r7}
  98              		.cfi_restore 7
  99              		.cfi_def_cfa_offset 0
 100 0014 7047     		bx	lr
 101              	.L5:
 102 0016 00BF     		.align	2
 103              	.L4:
 104 0018 00000000 		.word	g_tick_ms
 105              		.cfi_endproc
 106              	.LFE65:
 107              		.size	psoc_get_tick, .-psoc_get_tick
 108              		.section	.rodata
 109              		.align	2
 110              		.type	MOVI_HAL, %object
 111              		.size	MOVI_HAL, 12
 112              	MOVI_HAL:
 113 0000 00000000 		.word	0
 114 0004 00000000 		.word	psoc_uart_putc
 115 0008 00000000 		.word	psoc_get_tick
 116              		.section	.text.isr_rx_movi_Handler,"ax",%progbits
 117              		.align	2
 118              		.global	isr_rx_movi_Handler
 119              		.thumb
 120              		.thumb_func
 121              		.type	isr_rx_movi_Handler, %function
 122              	isr_rx_movi_Handler:
 123              	.LFB66:
 139:main.c        **** 
 140:main.c        **** static const hamfly_hal_t MOVI_HAL = {
 141:main.c        ****     .ctx         = NULL,
 142:main.c        ****     .uart_putc   = psoc_uart_putc,
 143:main.c        ****     .get_tick_ms = psoc_get_tick
 144:main.c        **** };
 145:main.c        **** 
 146:main.c        **** /* =========================================================================
 147:main.c        ****  * ISRs
 148:main.c        ****  * ========================================================================= */
 149:main.c        **** CY_ISR(isr_rx_movi_Handler)
 150:main.c        **** {
 124              		.loc 1 150 0
 125              		.cfi_startproc
 126              		@ args = 0, pretend = 0, frame = 8
 127              		@ frame_needed = 1, uses_anonymous_args = 0
 128 0000 80B5     		push	{r7, lr}
 129              		.cfi_def_cfa_offset 8
 130              		.cfi_offset 7, -8
 131              		.cfi_offset 14, -4
ARM GAS  C:\Users\JENNEW~1\AppData\Local\Temp\ccFpxs5T.s 			page 6


 132 0002 82B0     		sub	sp, sp, #8
 133              		.cfi_def_cfa_offset 16
 134 0004 00AF     		add	r7, sp, #0
 135              		.cfi_def_cfa_register 7
 136              	.L9:
 151:main.c        ****     uint8_t st;
 152:main.c        ****     do {
 153:main.c        ****         st = UART_MOVI_RXSTATUS_REG;
 137              		.loc 1 153 0
 138 0006 114B     		ldr	r3, .L10
 139 0008 1B78     		ldrb	r3, [r3]
 140 000a FB71     		strb	r3, [r7, #7]
 154:main.c        ****         if (st & (UART_MOVI_RX_STS_BREAK     |
 141              		.loc 1 154 0
 142 000c FB79     		ldrb	r3, [r7, #7]	@ zero_extendqisi2
 143 000e 03F01E03 		and	r3, r3, #30
 144 0012 002B     		cmp	r3, #0
 145 0014 04D0     		beq	.L7
 155:main.c        ****                   UART_MOVI_RX_STS_PAR_ERROR |
 156:main.c        ****                   UART_MOVI_RX_STS_STOP_ERROR|
 157:main.c        ****                   UART_MOVI_RX_STS_OVERRUN))
 158:main.c        ****             hamfly_on_uart_err_flags(&g_movi, st);
 146              		.loc 1 158 0
 147 0016 FB79     		ldrb	r3, [r7, #7]	@ zero_extendqisi2
 148 0018 1946     		mov	r1, r3
 149 001a 0D48     		ldr	r0, .L10+4
 150 001c FFF7FEFF 		bl	hamfly_on_uart_err_flags
 151              	.L7:
 159:main.c        ****         if (st & UART_MOVI_RX_STS_FIFO_NOTEMPTY)
 152              		.loc 1 159 0
 153 0020 FB79     		ldrb	r3, [r7, #7]	@ zero_extendqisi2
 154 0022 03F02003 		and	r3, r3, #32
 155 0026 002B     		cmp	r3, #0
 156 0028 06D0     		beq	.L8
 160:main.c        ****             hamfly_on_rx_byte(&g_movi, UART_MOVI_RXDATA_REG);
 157              		.loc 1 160 0
 158 002a 0A4B     		ldr	r3, .L10+8
 159 002c 1B78     		ldrb	r3, [r3]
 160 002e DBB2     		uxtb	r3, r3
 161 0030 1946     		mov	r1, r3
 162 0032 0748     		ldr	r0, .L10+4
 163 0034 FFF7FEFF 		bl	hamfly_on_rx_byte
 164              	.L8:
 161:main.c        ****     } while (st & UART_MOVI_RX_STS_FIFO_NOTEMPTY);
 165              		.loc 1 161 0
 166 0038 FB79     		ldrb	r3, [r7, #7]	@ zero_extendqisi2
 167 003a 03F02003 		and	r3, r3, #32
 168 003e 002B     		cmp	r3, #0
 169 0040 E1D1     		bne	.L9
 162:main.c        **** }
 170              		.loc 1 162 0
 171 0042 00BF     		nop
 172 0044 0837     		adds	r7, r7, #8
 173              		.cfi_def_cfa_offset 8
 174 0046 BD46     		mov	sp, r7
 175              		.cfi_def_cfa_register 13
 176              		@ sp needed
ARM GAS  C:\Users\JENNEW~1\AppData\Local\Temp\ccFpxs5T.s 			page 7


 177 0048 80BD     		pop	{r7, pc}
 178              	.L11:
 179 004a 00BF     		.align	2
 180              	.L10:
 181 004c 69640040 		.word	1073767529
 182 0050 00000000 		.word	g_movi
 183 0054 49640040 		.word	1073767497
 184              		.cfi_endproc
 185              	.LFE66:
 186              		.size	isr_rx_movi_Handler, .-isr_rx_movi_Handler
 187              		.section	.text.isr_Looptimer_Handler,"ax",%progbits
 188              		.align	2
 189              		.global	isr_Looptimer_Handler
 190              		.thumb
 191              		.thumb_func
 192              		.type	isr_Looptimer_Handler, %function
 193              	isr_Looptimer_Handler:
 194              	.LFB67:
 163:main.c        **** 
 164:main.c        **** CY_ISR(isr_Looptimer_Handler)
 165:main.c        **** {
 195              		.loc 1 165 0
 196              		.cfi_startproc
 197              		@ args = 0, pretend = 0, frame = 0
 198              		@ frame_needed = 1, uses_anonymous_args = 0
 199 0000 80B5     		push	{r7, lr}
 200              		.cfi_def_cfa_offset 8
 201              		.cfi_offset 7, -8
 202              		.cfi_offset 14, -4
 203 0002 00AF     		add	r7, sp, #0
 204              		.cfi_def_cfa_register 7
 166:main.c        ****     g_tick_ms++;
 205              		.loc 1 166 0
 206 0004 044B     		ldr	r3, .L13
 207 0006 1B68     		ldr	r3, [r3]
 208 0008 0133     		adds	r3, r3, #1
 209 000a 034A     		ldr	r2, .L13
 210 000c 1360     		str	r3, [r2]
 167:main.c        ****     Looptimer_ReadStatusRegister();
 211              		.loc 1 167 0
 212 000e FFF7FEFF 		bl	Looptimer_ReadStatusRegister
 168:main.c        **** }
 213              		.loc 1 168 0
 214 0012 00BF     		nop
 215 0014 80BD     		pop	{r7, pc}
 216              	.L14:
 217 0016 00BF     		.align	2
 218              	.L13:
 219 0018 00000000 		.word	g_tick_ms
 220              		.cfi_endproc
 221              	.LFE67:
 222              		.size	isr_Looptimer_Handler, .-isr_Looptimer_Handler
 223              		.global	__aeabi_fcmplt
 224              		.global	__aeabi_f2iz
 225              		.global	__aeabi_i2f
 226              		.global	__aeabi_fsub
 227              		.global	__aeabi_fmul
ARM GAS  C:\Users\JENNEW~1\AppData\Local\Temp\ccFpxs5T.s 			page 8


 228              		.section	.text.decomp,"ax",%progbits
 229              		.align	2
 230              		.thumb
 231              		.thumb_func
 232              		.type	decomp, %function
 233              	decomp:
 234              	.LFB68:
 169:main.c        **** 
 170:main.c        **** /* =========================================================================
 171:main.c        ****  * Helpers
 172:main.c        ****  * ========================================================================= */
 173:main.c        **** static void decomp(float val, int16_t *i_out, int16_t *f_out, char *sign)
 174:main.c        **** {
 235              		.loc 1 174 0
 236              		.cfi_startproc
 237              		@ args = 0, pretend = 0, frame = 16
 238              		@ frame_needed = 1, uses_anonymous_args = 0
 239 0000 80B5     		push	{r7, lr}
 240              		.cfi_def_cfa_offset 8
 241              		.cfi_offset 7, -8
 242              		.cfi_offset 14, -4
 243 0002 84B0     		sub	sp, sp, #16
 244              		.cfi_def_cfa_offset 24
 245 0004 00AF     		add	r7, sp, #0
 246              		.cfi_def_cfa_register 7
 247 0006 F860     		str	r0, [r7, #12]	@ float
 248 0008 B960     		str	r1, [r7, #8]
 249 000a 7A60     		str	r2, [r7, #4]
 250 000c 3B60     		str	r3, [r7]
 175:main.c        ****     *sign  = (val < 0.0f) ? '-' : ' ';
 251              		.loc 1 175 0
 252 000e 4FF00001 		mov	r1, #0
 253 0012 F868     		ldr	r0, [r7, #12]	@ float
 254 0014 FFF7FEFF 		bl	__aeabi_fcmplt
 255 0018 0346     		mov	r3, r0
 256 001a 002B     		cmp	r3, #0
 257 001c 01D0     		beq	.L24
 258              		.loc 1 175 0 is_stmt 0 discriminator 1
 259 001e 2D22     		movs	r2, #45
 260 0020 00E0     		b	.L18
 261              	.L24:
 262              		.loc 1 175 0 discriminator 2
 263 0022 2022     		movs	r2, #32
 264              	.L18:
 265              		.loc 1 175 0 discriminator 4
 266 0024 3B68     		ldr	r3, [r7]
 267 0026 1A70     		strb	r2, [r3]
 176:main.c        ****     if (val < 0.0f) val = -val;
 268              		.loc 1 176 0 is_stmt 1 discriminator 4
 269 0028 4FF00001 		mov	r1, #0
 270 002c F868     		ldr	r0, [r7, #12]	@ float
 271 002e FFF7FEFF 		bl	__aeabi_fcmplt
 272 0032 0346     		mov	r3, r0
 273 0034 002B     		cmp	r3, #0
 274 0036 03D0     		beq	.L19
 275              		.loc 1 176 0 is_stmt 0 discriminator 1
 276 0038 FB68     		ldr	r3, [r7, #12]
ARM GAS  C:\Users\JENNEW~1\AppData\Local\Temp\ccFpxs5T.s 			page 9


 277 003a 83F00043 		eor	r3, r3, #-2147483648
 278 003e FB60     		str	r3, [r7, #12]	@ float
 279              	.L19:
 177:main.c        ****     *i_out = (int16_t)val;
 280              		.loc 1 177 0 is_stmt 1
 281 0040 F868     		ldr	r0, [r7, #12]	@ float
 282 0042 FFF7FEFF 		bl	__aeabi_f2iz
 283 0046 0346     		mov	r3, r0
 284 0048 1AB2     		sxth	r2, r3
 285 004a BB68     		ldr	r3, [r7, #8]
 286 004c 1A80     		strh	r2, [r3]	@ movhi
 178:main.c        ****     *f_out = (int16_t)((val - (float)*i_out) * 100.0f);
 287              		.loc 1 178 0
 288 004e BB68     		ldr	r3, [r7, #8]
 289 0050 B3F90030 		ldrsh	r3, [r3]
 290 0054 1846     		mov	r0, r3
 291 0056 FFF7FEFF 		bl	__aeabi_i2f
 292 005a 0346     		mov	r3, r0
 293 005c 1946     		mov	r1, r3
 294 005e F868     		ldr	r0, [r7, #12]	@ float
 295 0060 FFF7FEFF 		bl	__aeabi_fsub
 296 0064 0346     		mov	r3, r0
 297 0066 0F49     		ldr	r1, .L26
 298 0068 1846     		mov	r0, r3
 299 006a FFF7FEFF 		bl	__aeabi_fmul
 300 006e 0346     		mov	r3, r0
 301 0070 1846     		mov	r0, r3
 302 0072 FFF7FEFF 		bl	__aeabi_f2iz
 303 0076 0346     		mov	r3, r0
 304 0078 1AB2     		sxth	r2, r3
 305 007a 7B68     		ldr	r3, [r7, #4]
 306 007c 1A80     		strh	r2, [r3]	@ movhi
 179:main.c        ****     if (*f_out < 0) *f_out = -*f_out;
 307              		.loc 1 179 0
 308 007e 7B68     		ldr	r3, [r7, #4]
 309 0080 B3F90030 		ldrsh	r3, [r3]
 310 0084 002B     		cmp	r3, #0
 311 0086 08DA     		bge	.L25
 312              		.loc 1 179 0 is_stmt 0 discriminator 1
 313 0088 7B68     		ldr	r3, [r7, #4]
 314 008a B3F90030 		ldrsh	r3, [r3]
 315 008e 9BB2     		uxth	r3, r3
 316 0090 5B42     		negs	r3, r3
 317 0092 9BB2     		uxth	r3, r3
 318 0094 1AB2     		sxth	r2, r3
 319 0096 7B68     		ldr	r3, [r7, #4]
 320 0098 1A80     		strh	r2, [r3]	@ movhi
 321              	.L25:
 180:main.c        **** }
 322              		.loc 1 180 0 is_stmt 1
 323 009a 00BF     		nop
 324 009c 1037     		adds	r7, r7, #16
 325              		.cfi_def_cfa_offset 8
 326 009e BD46     		mov	sp, r7
 327              		.cfi_def_cfa_register 13
 328              		@ sp needed
 329 00a0 80BD     		pop	{r7, pc}
ARM GAS  C:\Users\JENNEW~1\AppData\Local\Temp\ccFpxs5T.s 			page 10


 330              	.L27:
 331 00a2 00BF     		.align	2
 332              	.L26:
 333 00a4 0000C842 		.word	1120403456
 334              		.cfi_endproc
 335              	.LFE68:
 336              		.size	decomp, .-decomp
 337              		.global	__aeabi_fadd
 338              		.global	__aeabi_fcmpge
 339              		.global	__aeabi_fcmple
 340              		.section	.text.compute_euler,"ax",%progbits
 341              		.align	2
 342              		.thumb
 343              		.thumb_func
 344              		.type	compute_euler, %function
 345              	compute_euler:
 346              	.LFB69:
 181:main.c        **** 
 182:main.c        **** static void compute_euler(const hamfly_telemetry_t *st,
 183:main.c        ****     char *pan_s,  int16_t *pan_i,  int16_t *pan_f,
 184:main.c        ****     char *tilt_s, int16_t *tilt_i, int16_t *tilt_f,
 185:main.c        ****     char *roll_s, int16_t *roll_i, int16_t *roll_f)
 186:main.c        **** {
 347              		.loc 1 186 0
 348              		.cfi_startproc
 349              		@ args = 24, pretend = 0, frame = 64
 350              		@ frame_needed = 1, uses_anonymous_args = 0
 351 0000 90B5     		push	{r4, r7, lr}
 352              		.cfi_def_cfa_offset 12
 353              		.cfi_offset 4, -12
 354              		.cfi_offset 7, -8
 355              		.cfi_offset 14, -4
 356 0002 91B0     		sub	sp, sp, #68
 357              		.cfi_def_cfa_offset 80
 358 0004 00AF     		add	r7, sp, #0
 359              		.cfi_def_cfa_register 7
 360 0006 F860     		str	r0, [r7, #12]
 361 0008 B960     		str	r1, [r7, #8]
 362 000a 7A60     		str	r2, [r7, #4]
 363 000c 3B60     		str	r3, [r7]
 187:main.c        ****     float r  = st->gimbal_r, ii = st->gimbal_i;
 364              		.loc 1 187 0
 365 000e FB68     		ldr	r3, [r7, #12]
 366 0010 DB68     		ldr	r3, [r3, #12]	@ float
 367 0012 FB63     		str	r3, [r7, #60]	@ float
 368 0014 FB68     		ldr	r3, [r7, #12]
 369 0016 1B69     		ldr	r3, [r3, #16]	@ float
 370 0018 BB63     		str	r3, [r7, #56]	@ float
 188:main.c        ****     float j  = st->gimbal_j, k  = st->gimbal_k;
 371              		.loc 1 188 0
 372 001a FB68     		ldr	r3, [r7, #12]
 373 001c 5B69     		ldr	r3, [r3, #20]	@ float
 374 001e 7B63     		str	r3, [r7, #52]	@ float
 375 0020 FB68     		ldr	r3, [r7, #12]
 376 0022 9B69     		ldr	r3, [r3, #24]	@ float
 377 0024 3B63     		str	r3, [r7, #48]	@ float
 189:main.c        ****     float sinr = 2.0f*(r*ii+j*k), cosr = 1.0f-2.0f*(ii*ii+j*j);
ARM GAS  C:\Users\JENNEW~1\AppData\Local\Temp\ccFpxs5T.s 			page 11


 378              		.loc 1 189 0
 379 0026 B96B     		ldr	r1, [r7, #56]	@ float
 380 0028 F86B     		ldr	r0, [r7, #60]	@ float
 381 002a FFF7FEFF 		bl	__aeabi_fmul
 382 002e 0346     		mov	r3, r0
 383 0030 1C46     		mov	r4, r3
 384 0032 396B     		ldr	r1, [r7, #48]	@ float
 385 0034 786B     		ldr	r0, [r7, #52]	@ float
 386 0036 FFF7FEFF 		bl	__aeabi_fmul
 387 003a 0346     		mov	r3, r0
 388 003c 1946     		mov	r1, r3
 389 003e 2046     		mov	r0, r4
 390 0040 FFF7FEFF 		bl	__aeabi_fadd
 391 0044 0346     		mov	r3, r0
 392 0046 1946     		mov	r1, r3
 393 0048 1846     		mov	r0, r3
 394 004a FFF7FEFF 		bl	__aeabi_fadd
 395 004e 0346     		mov	r3, r0
 396 0050 FB62     		str	r3, [r7, #44]	@ float
 397 0052 B96B     		ldr	r1, [r7, #56]	@ float
 398 0054 B86B     		ldr	r0, [r7, #56]	@ float
 399 0056 FFF7FEFF 		bl	__aeabi_fmul
 400 005a 0346     		mov	r3, r0
 401 005c 1C46     		mov	r4, r3
 402 005e 796B     		ldr	r1, [r7, #52]	@ float
 403 0060 786B     		ldr	r0, [r7, #52]	@ float
 404 0062 FFF7FEFF 		bl	__aeabi_fmul
 405 0066 0346     		mov	r3, r0
 406 0068 1946     		mov	r1, r3
 407 006a 2046     		mov	r0, r4
 408 006c FFF7FEFF 		bl	__aeabi_fadd
 409 0070 0346     		mov	r3, r0
 410 0072 1946     		mov	r1, r3
 411 0074 1846     		mov	r0, r3
 412 0076 FFF7FEFF 		bl	__aeabi_fadd
 413 007a 0346     		mov	r3, r0
 414 007c 1946     		mov	r1, r3
 415 007e 4FF07E50 		mov	r0, #1065353216
 416 0082 FFF7FEFF 		bl	__aeabi_fsub
 417 0086 0346     		mov	r3, r0
 418 0088 BB62     		str	r3, [r7, #40]	@ float
 190:main.c        ****     float roll_deg = atan2f(sinr, cosr) * 57.2958f;
 419              		.loc 1 190 0
 420 008a B96A     		ldr	r1, [r7, #40]	@ float
 421 008c F86A     		ldr	r0, [r7, #44]	@ float
 422 008e FFF7FEFF 		bl	atan2f
 423 0092 0346     		mov	r3, r0
 424 0094 4549     		ldr	r1, .L39
 425 0096 1846     		mov	r0, r3
 426 0098 FFF7FEFF 		bl	__aeabi_fmul
 427 009c 0346     		mov	r3, r0
 428 009e 7B62     		str	r3, [r7, #36]	@ float
 191:main.c        ****     float sinp = 2.0f*(r*j-k*ii);
 429              		.loc 1 191 0
 430 00a0 796B     		ldr	r1, [r7, #52]	@ float
 431 00a2 F86B     		ldr	r0, [r7, #60]	@ float
 432 00a4 FFF7FEFF 		bl	__aeabi_fmul
ARM GAS  C:\Users\JENNEW~1\AppData\Local\Temp\ccFpxs5T.s 			page 12


 433 00a8 0346     		mov	r3, r0
 434 00aa 1C46     		mov	r4, r3
 435 00ac B96B     		ldr	r1, [r7, #56]	@ float
 436 00ae 386B     		ldr	r0, [r7, #48]	@ float
 437 00b0 FFF7FEFF 		bl	__aeabi_fmul
 438 00b4 0346     		mov	r3, r0
 439 00b6 1946     		mov	r1, r3
 440 00b8 2046     		mov	r0, r4
 441 00ba FFF7FEFF 		bl	__aeabi_fsub
 442 00be 0346     		mov	r3, r0
 443 00c0 1946     		mov	r1, r3
 444 00c2 1846     		mov	r0, r3
 445 00c4 FFF7FEFF 		bl	__aeabi_fadd
 446 00c8 0346     		mov	r3, r0
 447 00ca 3B62     		str	r3, [r7, #32]	@ float
 192:main.c        ****     float tilt_deg = (sinp >= 1.0f) ?  90.0f :
 448              		.loc 1 192 0
 449 00cc 4FF07E51 		mov	r1, #1065353216
 450 00d0 386A     		ldr	r0, [r7, #32]	@ float
 451 00d2 FFF7FEFF 		bl	__aeabi_fcmpge
 452 00d6 0346     		mov	r3, r0
 453 00d8 002B     		cmp	r3, #0
 454 00da 01D0     		beq	.L37
 455              		.loc 1 192 0 is_stmt 0 discriminator 1
 456 00dc 344B     		ldr	r3, .L39+4
 457 00de 11E0     		b	.L31
 458              	.L37:
 193:main.c        ****                      (sinp <=-1.0f) ? -90.0f :
 459              		.loc 1 193 0 is_stmt 1
 460 00e0 3449     		ldr	r1, .L39+8
 461 00e2 386A     		ldr	r0, [r7, #32]	@ float
 462 00e4 FFF7FEFF 		bl	__aeabi_fcmple
 463 00e8 0346     		mov	r3, r0
 464 00ea 002B     		cmp	r3, #0
 465 00ec 01D0     		beq	.L38
 466              		.loc 1 193 0 is_stmt 0 discriminator 1
 467 00ee 324B     		ldr	r3, .L39+12
 468 00f0 08E0     		b	.L31
 469              	.L38:
 194:main.c        ****                      asinf(sinp) * 57.2958f;
 470              		.loc 1 194 0 is_stmt 1 discriminator 2
 471 00f2 386A     		ldr	r0, [r7, #32]	@ float
 472 00f4 FFF7FEFF 		bl	asinf
 473 00f8 0346     		mov	r3, r0
 193:main.c        ****                      (sinp <=-1.0f) ? -90.0f :
 474              		.loc 1 193 0 discriminator 2
 475 00fa 2C49     		ldr	r1, .L39
 476 00fc 1846     		mov	r0, r3
 477 00fe FFF7FEFF 		bl	__aeabi_fmul
 478 0102 0346     		mov	r3, r0
 479              	.L31:
 192:main.c        ****     float tilt_deg = (sinp >= 1.0f) ?  90.0f :
 480              		.loc 1 192 0 discriminator 2
 481 0104 FB61     		str	r3, [r7, #28]	@ float
 195:main.c        ****     float siny = 2.0f*(r*k+ii*j), cosy = 1.0f-2.0f*(j*j+k*k);
 482              		.loc 1 195 0 discriminator 2
 483 0106 396B     		ldr	r1, [r7, #48]	@ float
ARM GAS  C:\Users\JENNEW~1\AppData\Local\Temp\ccFpxs5T.s 			page 13


 484 0108 F86B     		ldr	r0, [r7, #60]	@ float
 485 010a FFF7FEFF 		bl	__aeabi_fmul
 486 010e 0346     		mov	r3, r0
 487 0110 1C46     		mov	r4, r3
 488 0112 796B     		ldr	r1, [r7, #52]	@ float
 489 0114 B86B     		ldr	r0, [r7, #56]	@ float
 490 0116 FFF7FEFF 		bl	__aeabi_fmul
 491 011a 0346     		mov	r3, r0
 492 011c 1946     		mov	r1, r3
 493 011e 2046     		mov	r0, r4
 494 0120 FFF7FEFF 		bl	__aeabi_fadd
 495 0124 0346     		mov	r3, r0
 496 0126 1946     		mov	r1, r3
 497 0128 1846     		mov	r0, r3
 498 012a FFF7FEFF 		bl	__aeabi_fadd
 499 012e 0346     		mov	r3, r0
 500 0130 BB61     		str	r3, [r7, #24]	@ float
 501 0132 796B     		ldr	r1, [r7, #52]	@ float
 502 0134 786B     		ldr	r0, [r7, #52]	@ float
 503 0136 FFF7FEFF 		bl	__aeabi_fmul
 504 013a 0346     		mov	r3, r0
 505 013c 1C46     		mov	r4, r3
 506 013e 396B     		ldr	r1, [r7, #48]	@ float
 507 0140 386B     		ldr	r0, [r7, #48]	@ float
 508 0142 FFF7FEFF 		bl	__aeabi_fmul
 509 0146 0346     		mov	r3, r0
 510 0148 1946     		mov	r1, r3
 511 014a 2046     		mov	r0, r4
 512 014c FFF7FEFF 		bl	__aeabi_fadd
 513 0150 0346     		mov	r3, r0
 514 0152 1946     		mov	r1, r3
 515 0154 1846     		mov	r0, r3
 516 0156 FFF7FEFF 		bl	__aeabi_fadd
 517 015a 0346     		mov	r3, r0
 518 015c 1946     		mov	r1, r3
 519 015e 4FF07E50 		mov	r0, #1065353216
 520 0162 FFF7FEFF 		bl	__aeabi_fsub
 521 0166 0346     		mov	r3, r0
 522 0168 7B61     		str	r3, [r7, #20]	@ float
 196:main.c        ****     float pan_deg = atan2f(siny, cosy) * 57.2958f;
 523              		.loc 1 196 0 discriminator 2
 524 016a 7969     		ldr	r1, [r7, #20]	@ float
 525 016c B869     		ldr	r0, [r7, #24]	@ float
 526 016e FFF7FEFF 		bl	atan2f
 527 0172 0346     		mov	r3, r0
 528 0174 0D49     		ldr	r1, .L39
 529 0176 1846     		mov	r0, r3
 530 0178 FFF7FEFF 		bl	__aeabi_fmul
 531 017c 0346     		mov	r3, r0
 532 017e 3B61     		str	r3, [r7, #16]	@ float
 197:main.c        ****     decomp(pan_deg,  pan_i,  pan_f,  pan_s);
 533              		.loc 1 197 0 discriminator 2
 534 0180 BB68     		ldr	r3, [r7, #8]
 535 0182 3A68     		ldr	r2, [r7]
 536 0184 7968     		ldr	r1, [r7, #4]
 537 0186 3869     		ldr	r0, [r7, #16]	@ float
 538 0188 FFF7FEFF 		bl	decomp
ARM GAS  C:\Users\JENNEW~1\AppData\Local\Temp\ccFpxs5T.s 			page 14


 198:main.c        ****     decomp(tilt_deg, tilt_i, tilt_f, tilt_s);
 539              		.loc 1 198 0 discriminator 2
 540 018c 3B6D     		ldr	r3, [r7, #80]
 541 018e BA6D     		ldr	r2, [r7, #88]
 542 0190 796D     		ldr	r1, [r7, #84]
 543 0192 F869     		ldr	r0, [r7, #28]	@ float
 544 0194 FFF7FEFF 		bl	decomp
 199:main.c        ****     decomp(roll_deg, roll_i, roll_f, roll_s);
 545              		.loc 1 199 0 discriminator 2
 546 0198 FB6D     		ldr	r3, [r7, #92]
 547 019a 7A6E     		ldr	r2, [r7, #100]
 548 019c 396E     		ldr	r1, [r7, #96]
 549 019e 786A     		ldr	r0, [r7, #36]	@ float
 550 01a0 FFF7FEFF 		bl	decomp
 200:main.c        **** }
 551              		.loc 1 200 0 discriminator 2
 552 01a4 00BF     		nop
 553 01a6 4437     		adds	r7, r7, #68
 554              		.cfi_def_cfa_offset 12
 555 01a8 BD46     		mov	sp, r7
 556              		.cfi_def_cfa_register 13
 557              		@ sp needed
 558 01aa 90BD     		pop	{r4, r7, pc}
 559              	.L40:
 560              		.align	2
 561              	.L39:
 562 01ac E62E6542 		.word	1113927398
 563 01b0 0000B442 		.word	1119092736
 564 01b4 000080BF 		.word	-1082130432
 565 01b8 0000B4C2 		.word	-1028390912
 566              		.cfi_endproc
 567              	.LFE69:
 568              		.size	compute_euler, .-compute_euler
 569              		.section	.text.get_euler_deg,"ax",%progbits
 570              		.align	2
 571              		.thumb
 572              		.thumb_func
 573              		.type	get_euler_deg, %function
 574              	get_euler_deg:
 575              	.LFB70:
 201:main.c        **** 
 202:main.c        **** /* Extract pan and tilt in degrees from current telemetry (no decomp). */
 203:main.c        **** static uint8_t get_euler_deg(float *pan_deg_out, float *tilt_deg_out)
 204:main.c        **** {
 576              		.loc 1 204 0
 577              		.cfi_startproc
 578              		@ args = 0, pretend = 0, frame = 272
 579              		@ frame_needed = 1, uses_anonymous_args = 0
 580 0000 90B5     		push	{r4, r7, lr}
 581              		.cfi_def_cfa_offset 12
 582              		.cfi_offset 4, -12
 583              		.cfi_offset 7, -8
 584              		.cfi_offset 14, -4
 585 0002 C5B0     		sub	sp, sp, #276
 586              		.cfi_def_cfa_offset 288
 587 0004 00AF     		add	r7, sp, #0
 588              		.cfi_def_cfa_register 7
ARM GAS  C:\Users\JENNEW~1\AppData\Local\Temp\ccFpxs5T.s 			page 15


 589 0006 3B1D     		adds	r3, r7, #4
 590 0008 1860     		str	r0, [r3]
 591 000a 3B46     		mov	r3, r7
 592 000c 1960     		str	r1, [r3]
 205:main.c        ****     hamfly_telemetry_t st;
 206:main.c        ****     hamfly_get_telemetry(&g_movi, &st);
 593              		.loc 1 206 0
 594 000e 07F10803 		add	r3, r7, #8
 595 0012 1946     		mov	r1, r3
 596 0014 5748     		ldr	r0, .L55
 597 0016 FFF7FEFF 		bl	hamfly_get_telemetry
 207:main.c        ****     if (!st.valid) return FALSE;
 598              		.loc 1 207 0
 599 001a 07F10803 		add	r3, r7, #8
 600 001e 1B78     		ldrb	r3, [r3]	@ zero_extendqisi2
 601 0020 83F00103 		eor	r3, r3, #1
 602 0024 DBB2     		uxtb	r3, r3
 603 0026 002B     		cmp	r3, #0
 604 0028 01D0     		beq	.L42
 605              		.loc 1 207 0 is_stmt 0 discriminator 1
 606 002a 0023     		movs	r3, #0
 607 002c 9DE0     		b	.L50
 608              	.L42:
 208:main.c        ****     float r  = st.gimbal_r, ii = st.gimbal_i;
 609              		.loc 1 208 0 is_stmt 1
 610 002e 07F10803 		add	r3, r7, #8
 611 0032 DB68     		ldr	r3, [r3, #12]	@ float
 612 0034 C7F80C31 		str	r3, [r7, #268]	@ float
 613 0038 07F10803 		add	r3, r7, #8
 614 003c 1B69     		ldr	r3, [r3, #16]	@ float
 615 003e C7F80831 		str	r3, [r7, #264]	@ float
 209:main.c        ****     float j  = st.gimbal_j, k  = st.gimbal_k;
 616              		.loc 1 209 0
 617 0042 07F10803 		add	r3, r7, #8
 618 0046 5B69     		ldr	r3, [r3, #20]	@ float
 619 0048 C7F80431 		str	r3, [r7, #260]	@ float
 620 004c 07F10803 		add	r3, r7, #8
 621 0050 9B69     		ldr	r3, [r3, #24]	@ float
 622 0052 C7F80031 		str	r3, [r7, #256]	@ float
 210:main.c        ****     float sinp = 2.0f*(r*j-k*ii);
 623              		.loc 1 210 0
 624 0056 D7F80411 		ldr	r1, [r7, #260]	@ float
 625 005a D7F80C01 		ldr	r0, [r7, #268]	@ float
 626 005e FFF7FEFF 		bl	__aeabi_fmul
 627 0062 0346     		mov	r3, r0
 628 0064 1C46     		mov	r4, r3
 629 0066 D7F80811 		ldr	r1, [r7, #264]	@ float
 630 006a D7F80001 		ldr	r0, [r7, #256]	@ float
 631 006e FFF7FEFF 		bl	__aeabi_fmul
 632 0072 0346     		mov	r3, r0
 633 0074 1946     		mov	r1, r3
 634 0076 2046     		mov	r0, r4
 635 0078 FFF7FEFF 		bl	__aeabi_fsub
 636 007c 0346     		mov	r3, r0
 637 007e 1946     		mov	r1, r3
 638 0080 1846     		mov	r0, r3
 639 0082 FFF7FEFF 		bl	__aeabi_fadd
ARM GAS  C:\Users\JENNEW~1\AppData\Local\Temp\ccFpxs5T.s 			page 16


 640 0086 0346     		mov	r3, r0
 641 0088 C7F8FC30 		str	r3, [r7, #252]	@ float
 211:main.c        ****     *tilt_deg_out = (sinp >= 1.0f) ?  90.0f :
 642              		.loc 1 211 0
 643 008c 4FF07E51 		mov	r1, #1065353216
 644 0090 D7F8FC00 		ldr	r0, [r7, #252]	@ float
 645 0094 FFF7FEFF 		bl	__aeabi_fcmpge
 646 0098 0346     		mov	r3, r0
 647 009a 002B     		cmp	r3, #0
 648 009c 01D0     		beq	.L53
 649              		.loc 1 211 0 is_stmt 0 discriminator 1
 650 009e 364B     		ldr	r3, .L55+4
 651 00a0 13E0     		b	.L46
 652              	.L53:
 212:main.c        ****                     (sinp <=-1.0f) ? -90.0f :
 653              		.loc 1 212 0 is_stmt 1
 654 00a2 3649     		ldr	r1, .L55+8
 655 00a4 D7F8FC00 		ldr	r0, [r7, #252]	@ float
 656 00a8 FFF7FEFF 		bl	__aeabi_fcmple
 657 00ac 0346     		mov	r3, r0
 658 00ae 002B     		cmp	r3, #0
 659 00b0 01D0     		beq	.L54
 660              		.loc 1 212 0 is_stmt 0 discriminator 1
 661 00b2 334B     		ldr	r3, .L55+12
 662 00b4 09E0     		b	.L46
 663              	.L54:
 213:main.c        ****                     asinf(sinp) * 57.2958f;
 664              		.loc 1 213 0 is_stmt 1 discriminator 2
 665 00b6 D7F8FC00 		ldr	r0, [r7, #252]	@ float
 666 00ba FFF7FEFF 		bl	asinf
 667 00be 0346     		mov	r3, r0
 212:main.c        ****                     (sinp <=-1.0f) ? -90.0f :
 668              		.loc 1 212 0 discriminator 2
 669 00c0 3049     		ldr	r1, .L55+16
 670 00c2 1846     		mov	r0, r3
 671 00c4 FFF7FEFF 		bl	__aeabi_fmul
 672 00c8 0346     		mov	r3, r0
 673              	.L46:
 211:main.c        ****     *tilt_deg_out = (sinp >= 1.0f) ?  90.0f :
 674              		.loc 1 211 0 discriminator 2
 675 00ca 3A46     		mov	r2, r7
 676 00cc 1268     		ldr	r2, [r2]
 677 00ce 1360     		str	r3, [r2]	@ float
 214:main.c        ****     float siny = 2.0f*(r*k+ii*j), cosy = 1.0f-2.0f*(j*j+k*k);
 678              		.loc 1 214 0 discriminator 2
 679 00d0 D7F80011 		ldr	r1, [r7, #256]	@ float
 680 00d4 D7F80C01 		ldr	r0, [r7, #268]	@ float
 681 00d8 FFF7FEFF 		bl	__aeabi_fmul
 682 00dc 0346     		mov	r3, r0
 683 00de 1C46     		mov	r4, r3
 684 00e0 D7F80411 		ldr	r1, [r7, #260]	@ float
 685 00e4 D7F80801 		ldr	r0, [r7, #264]	@ float
 686 00e8 FFF7FEFF 		bl	__aeabi_fmul
 687 00ec 0346     		mov	r3, r0
 688 00ee 1946     		mov	r1, r3
 689 00f0 2046     		mov	r0, r4
 690 00f2 FFF7FEFF 		bl	__aeabi_fadd
ARM GAS  C:\Users\JENNEW~1\AppData\Local\Temp\ccFpxs5T.s 			page 17


 691 00f6 0346     		mov	r3, r0
 692 00f8 1946     		mov	r1, r3
 693 00fa 1846     		mov	r0, r3
 694 00fc FFF7FEFF 		bl	__aeabi_fadd
 695 0100 0346     		mov	r3, r0
 696 0102 C7F8F830 		str	r3, [r7, #248]	@ float
 697 0106 D7F80411 		ldr	r1, [r7, #260]	@ float
 698 010a D7F80401 		ldr	r0, [r7, #260]	@ float
 699 010e FFF7FEFF 		bl	__aeabi_fmul
 700 0112 0346     		mov	r3, r0
 701 0114 1C46     		mov	r4, r3
 702 0116 D7F80011 		ldr	r1, [r7, #256]	@ float
 703 011a D7F80001 		ldr	r0, [r7, #256]	@ float
 704 011e FFF7FEFF 		bl	__aeabi_fmul
 705 0122 0346     		mov	r3, r0
 706 0124 1946     		mov	r1, r3
 707 0126 2046     		mov	r0, r4
 708 0128 FFF7FEFF 		bl	__aeabi_fadd
 709 012c 0346     		mov	r3, r0
 710 012e 1946     		mov	r1, r3
 711 0130 1846     		mov	r0, r3
 712 0132 FFF7FEFF 		bl	__aeabi_fadd
 713 0136 0346     		mov	r3, r0
 714 0138 1946     		mov	r1, r3
 715 013a 4FF07E50 		mov	r0, #1065353216
 716 013e FFF7FEFF 		bl	__aeabi_fsub
 717 0142 0346     		mov	r3, r0
 718 0144 C7F8F430 		str	r3, [r7, #244]	@ float
 215:main.c        ****     *pan_deg_out = atan2f(siny, cosy) * 57.2958f;
 719              		.loc 1 215 0 discriminator 2
 720 0148 D7F8F410 		ldr	r1, [r7, #244]	@ float
 721 014c D7F8F800 		ldr	r0, [r7, #248]	@ float
 722 0150 FFF7FEFF 		bl	atan2f
 723 0154 0346     		mov	r3, r0
 724 0156 0B49     		ldr	r1, .L55+16
 725 0158 1846     		mov	r0, r3
 726 015a FFF7FEFF 		bl	__aeabi_fmul
 727 015e 0346     		mov	r3, r0
 728 0160 1A46     		mov	r2, r3
 729 0162 3B1D     		adds	r3, r7, #4
 730 0164 1B68     		ldr	r3, [r3]
 731 0166 1A60     		str	r2, [r3]	@ float
 216:main.c        ****     return TRUE;
 732              		.loc 1 216 0 discriminator 2
 733 0168 0123     		movs	r3, #1
 734              	.L50:
 217:main.c        **** }
 735              		.loc 1 217 0 discriminator 1
 736 016a 1846     		mov	r0, r3
 737 016c 07F58A77 		add	r7, r7, #276
 738              		.cfi_def_cfa_offset 12
 739 0170 BD46     		mov	sp, r7
 740              		.cfi_def_cfa_register 13
 741              		@ sp needed
 742 0172 90BD     		pop	{r4, r7, pc}
 743              	.L56:
 744              		.align	2
ARM GAS  C:\Users\JENNEW~1\AppData\Local\Temp\ccFpxs5T.s 			page 18


 745              	.L55:
 746 0174 00000000 		.word	g_movi
 747 0178 0000B442 		.word	1119092736
 748 017c 000080BF 		.word	-1082130432
 749 0180 0000B4C2 		.word	-1028390912
 750 0184 E62E6542 		.word	1113927398
 751              		.cfi_endproc
 752              	.LFE70:
 753              		.size	get_euler_deg, .-get_euler_deg
 754              		.section	.rodata
 755              		.align	2
 756              	.LC0:
 757 000c 52415445 		.ascii	"RATE\000"
 757      00
 758 0011 000000   		.align	2
 759              	.LC1:
 760 0014 41425320 		.ascii	"ABS \000"
 760      00
 761 0019 000000   		.align	2
 762              	.LC2:
 763 001c 44454652 		.ascii	"DEFR\000"
 763      00
 764              		.section	.text.mode_str,"ax",%progbits
 765              		.align	2
 766              		.thumb
 767              		.thumb_func
 768              		.type	mode_str, %function
 769              	mode_str:
 770              	.LFB71:
 218:main.c        **** 
 219:main.c        **** static const char *mode_str(hamfly_control_mode_t m)
 220:main.c        **** {
 771              		.loc 1 220 0
 772              		.cfi_startproc
 773              		@ args = 0, pretend = 0, frame = 8
 774              		@ frame_needed = 1, uses_anonymous_args = 0
 775              		@ link register save eliminated.
 776 0000 80B4     		push	{r7}
 777              		.cfi_def_cfa_offset 4
 778              		.cfi_offset 7, -4
 779 0002 83B0     		sub	sp, sp, #12
 780              		.cfi_def_cfa_offset 16
 781 0004 00AF     		add	r7, sp, #0
 782              		.cfi_def_cfa_register 7
 783 0006 0346     		mov	r3, r0
 784 0008 FB71     		strb	r3, [r7, #7]
 221:main.c        ****     switch (m) {
 785              		.loc 1 221 0
 786 000a FB79     		ldrb	r3, [r7, #7]	@ zero_extendqisi2
 787 000c 012B     		cmp	r3, #1
 788 000e 02D0     		beq	.L59
 789 0010 022B     		cmp	r3, #2
 790 0012 02D0     		beq	.L60
 791 0014 03E0     		b	.L62
 792              	.L59:
 222:main.c        ****         case HAMFLY_RATE:     return "RATE";
 793              		.loc 1 222 0
ARM GAS  C:\Users\JENNEW~1\AppData\Local\Temp\ccFpxs5T.s 			page 19


 794 0016 054B     		ldr	r3, .L63
 795 0018 02E0     		b	.L61
 796              	.L60:
 223:main.c        ****         case HAMFLY_ABSOLUTE: return "ABS ";
 797              		.loc 1 223 0
 798 001a 054B     		ldr	r3, .L63+4
 799 001c 00E0     		b	.L61
 800              	.L62:
 224:main.c        ****         default:              return "DEFR";
 801              		.loc 1 224 0
 802 001e 054B     		ldr	r3, .L63+8
 803              	.L61:
 225:main.c        ****     }
 226:main.c        **** }
 804              		.loc 1 226 0
 805 0020 1846     		mov	r0, r3
 806 0022 0C37     		adds	r7, r7, #12
 807              		.cfi_def_cfa_offset 4
 808 0024 BD46     		mov	sp, r7
 809              		.cfi_def_cfa_register 13
 810              		@ sp needed
 811 0026 80BC     		pop	{r7}
 812              		.cfi_restore 7
 813              		.cfi_def_cfa_offset 0
 814 0028 7047     		bx	lr
 815              	.L64:
 816 002a 00BF     		.align	2
 817              	.L63:
 818 002c 0C000000 		.word	.LC0
 819 0030 14000000 		.word	.LC1
 820 0034 1C000000 		.word	.LC2
 821              		.cfi_endproc
 822              	.LFE71:
 823              		.size	mode_str, .-mode_str
 824              		.section	.rodata
 825 0021 000000   		.align	2
 826              	.LC3:
 827 0024 20206F66 		.ascii	"  off%02u:\000"
 827      66253032 
 827      753A00
 828 002f 00       		.align	2
 829              	.LC4:
 830 0030 20253032 		.ascii	" %02X\000"
 830      5800
 831 0036 0000     		.align	2
 832              	.LC5:
 833 0038 0D0A00   		.ascii	"\015\012\000"
 834              		.section	.text.print_hex_dump,"ax",%progbits
 835              		.align	2
 836              		.thumb
 837              		.thumb_func
 838              		.type	print_hex_dump, %function
 839              	print_hex_dump:
 840              	.LFB72:
 227:main.c        **** 
 228:main.c        **** static void print_hex_dump(const uint8_t *p, uint8_t plen)
 229:main.c        **** {
ARM GAS  C:\Users\JENNEW~1\AppData\Local\Temp\ccFpxs5T.s 			page 20


 841              		.loc 1 229 0
 842              		.cfi_startproc
 843              		@ args = 0, pretend = 0, frame = 176
 844              		@ frame_needed = 1, uses_anonymous_args = 0
 845 0000 80B5     		push	{r7, lr}
 846              		.cfi_def_cfa_offset 8
 847              		.cfi_offset 7, -8
 848              		.cfi_offset 14, -4
 849 0002 ACB0     		sub	sp, sp, #176
 850              		.cfi_def_cfa_offset 184
 851 0004 00AF     		add	r7, sp, #0
 852              		.cfi_def_cfa_register 7
 853 0006 7860     		str	r0, [r7, #4]
 854 0008 0B46     		mov	r3, r1
 855 000a FB70     		strb	r3, [r7, #3]
 230:main.c        ****     char buf[TX_BUF_SIZE];
 231:main.c        ****     uint8_t row, col;
 232:main.c        ****     for (row = 0u; row < plen; row += 8u) {
 856              		.loc 1 232 0
 857 000c 0023     		movs	r3, #0
 858 000e 87F8AF30 		strb	r3, [r7, #175]
 859 0012 55E0     		b	.L66
 860              	.L70:
 861              	.LBB2:
 233:main.c        ****         char *bp = buf;
 862              		.loc 1 233 0
 863 0014 07F10803 		add	r3, r7, #8
 864 0018 C7F8A830 		str	r3, [r7, #168]
 234:main.c        ****         bp += sprintf(bp, "  off%02u:", (unsigned)row);
 865              		.loc 1 234 0
 866 001c 97F8AF30 		ldrb	r3, [r7, #175]	@ zero_extendqisi2
 867 0020 1A46     		mov	r2, r3
 868 0022 2C49     		ldr	r1, .L71
 869 0024 D7F8A800 		ldr	r0, [r7, #168]
 870 0028 FFF7FEFF 		bl	sprintf
 871 002c 0346     		mov	r3, r0
 872 002e 1A46     		mov	r2, r3
 873 0030 D7F8A830 		ldr	r3, [r7, #168]
 874 0034 1344     		add	r3, r3, r2
 875 0036 C7F8A830 		str	r3, [r7, #168]
 235:main.c        ****         for (col = 0u; col < 8u && (row+col) < plen; col++)
 876              		.loc 1 235 0
 877 003a 0023     		movs	r3, #0
 878 003c 87F8AE30 		strb	r3, [r7, #174]
 879 0040 1AE0     		b	.L67
 880              	.L69:
 236:main.c        ****             bp += sprintf(bp, " %02X", (unsigned)p[row+col]);
 881              		.loc 1 236 0 discriminator 4
 882 0042 97F8AF20 		ldrb	r2, [r7, #175]	@ zero_extendqisi2
 883 0046 97F8AE30 		ldrb	r3, [r7, #174]	@ zero_extendqisi2
 884 004a 1344     		add	r3, r3, r2
 885 004c 1A46     		mov	r2, r3
 886 004e 7B68     		ldr	r3, [r7, #4]
 887 0050 1344     		add	r3, r3, r2
 888 0052 1B78     		ldrb	r3, [r3]	@ zero_extendqisi2
 889 0054 1A46     		mov	r2, r3
 890 0056 2049     		ldr	r1, .L71+4
ARM GAS  C:\Users\JENNEW~1\AppData\Local\Temp\ccFpxs5T.s 			page 21


 891 0058 D7F8A800 		ldr	r0, [r7, #168]
 892 005c FFF7FEFF 		bl	sprintf
 893 0060 0346     		mov	r3, r0
 894 0062 1A46     		mov	r2, r3
 895 0064 D7F8A830 		ldr	r3, [r7, #168]
 896 0068 1344     		add	r3, r3, r2
 897 006a C7F8A830 		str	r3, [r7, #168]
 235:main.c        ****         for (col = 0u; col < 8u && (row+col) < plen; col++)
 898              		.loc 1 235 0 discriminator 4
 899 006e 97F8AE30 		ldrb	r3, [r7, #174]	@ zero_extendqisi2
 900 0072 0133     		adds	r3, r3, #1
 901 0074 87F8AE30 		strb	r3, [r7, #174]
 902              	.L67:
 235:main.c        ****         for (col = 0u; col < 8u && (row+col) < plen; col++)
 903              		.loc 1 235 0 is_stmt 0 discriminator 1
 904 0078 97F8AE30 		ldrb	r3, [r7, #174]	@ zero_extendqisi2
 905 007c 072B     		cmp	r3, #7
 906 007e 07D8     		bhi	.L68
 235:main.c        ****         for (col = 0u; col < 8u && (row+col) < plen; col++)
 907              		.loc 1 235 0 discriminator 3
 908 0080 97F8AF20 		ldrb	r2, [r7, #175]	@ zero_extendqisi2
 909 0084 97F8AE30 		ldrb	r3, [r7, #174]	@ zero_extendqisi2
 910 0088 1A44     		add	r2, r2, r3
 911 008a FB78     		ldrb	r3, [r7, #3]	@ zero_extendqisi2
 912 008c 9A42     		cmp	r2, r3
 913 008e D8DB     		blt	.L69
 914              	.L68:
 237:main.c        ****         bp += sprintf(bp, "\r\n");
 915              		.loc 1 237 0 is_stmt 1 discriminator 2
 916 0090 D7F8A830 		ldr	r3, [r7, #168]
 917 0094 114A     		ldr	r2, .L71+8
 918 0096 1188     		ldrh	r1, [r2]	@ unaligned
 919 0098 9278     		ldrb	r2, [r2, #2]
 920 009a 1980     		strh	r1, [r3]	@ unaligned
 921 009c 9A70     		strb	r2, [r3, #2]
 922 009e 0223     		movs	r3, #2
 923 00a0 1A46     		mov	r2, r3
 924 00a2 D7F8A830 		ldr	r3, [r7, #168]
 925 00a6 1344     		add	r3, r3, r2
 926 00a8 C7F8A830 		str	r3, [r7, #168]
 238:main.c        ****         UART_1_PutString(buf);
 927              		.loc 1 238 0 discriminator 2
 928 00ac 07F10803 		add	r3, r7, #8
 929 00b0 1846     		mov	r0, r3
 930 00b2 FFF7FEFF 		bl	UART_1_PutString
 931              	.LBE2:
 232:main.c        ****         char *bp = buf;
 932              		.loc 1 232 0 discriminator 2
 933 00b6 97F8AF30 		ldrb	r3, [r7, #175]
 934 00ba 0833     		adds	r3, r3, #8
 935 00bc 87F8AF30 		strb	r3, [r7, #175]
 936              	.L66:
 232:main.c        ****         char *bp = buf;
 937              		.loc 1 232 0 is_stmt 0 discriminator 1
 938 00c0 97F8AF20 		ldrb	r2, [r7, #175]	@ zero_extendqisi2
 939 00c4 FB78     		ldrb	r3, [r7, #3]	@ zero_extendqisi2
 940 00c6 9A42     		cmp	r2, r3
ARM GAS  C:\Users\JENNEW~1\AppData\Local\Temp\ccFpxs5T.s 			page 22


 941 00c8 A4D3     		bcc	.L70
 239:main.c        ****     }
 240:main.c        **** }
 942              		.loc 1 240 0 is_stmt 1
 943 00ca 00BF     		nop
 944 00cc B037     		adds	r7, r7, #176
 945              		.cfi_def_cfa_offset 8
 946 00ce BD46     		mov	sp, r7
 947              		.cfi_def_cfa_register 13
 948              		@ sp needed
 949 00d0 80BD     		pop	{r7, pc}
 950              	.L72:
 951 00d2 00BF     		.align	2
 952              	.L71:
 953 00d4 24000000 		.word	.LC3
 954 00d8 30000000 		.word	.LC4
 955 00dc 38000000 		.word	.LC5
 956              		.cfi_endproc
 957              	.LFE72:
 958              		.size	print_hex_dump, .-print_hex_dump
 959              		.section	.rodata
 960 003b 00       		.align	2
 961              	.LC6:
 962 003c 0D0A5B51 		.ascii	"\015\012[QUERY][Att] dt=%lums snaplen=%u\015\012\000"
 962      55455259 
 962      5D5B4174 
 962      745D2064 
 962      743D256C 
 963 0061 000000   		.align	2
 964              	.LC7:
 965 0064 20207368 		.ascii	"  short\015\012\000"
 965      6F72740D 
 965      0A00
 966              		.global	__aeabi_fdiv
 967 006e 0000     		.align	2
 968              	.LC8:
 969 0070 20206F66 		.ascii	"  off1 /100 %6d => %c%d.%02d [PITCH]\015\012\000"
 969      6631202F 
 969      31303020 
 969      25366420 
 969      3D3E2025 
 970 0097 00       		.align	2
 971              	.LC9:
 972 0098 20206F66 		.ascii	"  off3 /100 %6d => %c%d.%02d [YAW]\015\012\000"
 972      6633202F 
 972      31303020 
 972      25366420 
 972      3D3E2025 
 973 00bd 000000   		.align	2
 974              	.LC10:
 975 00c0 20206F66 		.ascii	"  off5 /100 %6d => %c%d.%02d [ROLL]\015\012\000"
 975      6635202F 
 975      31303020 
 975      25366420 
 975      3D3E2025 
 976              		.section	.text.print_att,"ax",%progbits
 977              		.align	2
ARM GAS  C:\Users\JENNEW~1\AppData\Local\Temp\ccFpxs5T.s 			page 23


 978              		.thumb
 979              		.thumb_func
 980              		.type	print_att, %function
 981              	print_att:
 982              	.LFB73:
 241:main.c        **** 
 242:main.c        **** /* =========================================================================
 243:main.c        ****  * Snapshot macros
 244:main.c        ****  * ========================================================================= */
 245:main.c        **** #define SNAP16(p,plen,off) \
 246:main.c        ****     (((off)+2u<=(plen))?({int16_t _v;memcpy(&_v,(p)+(off),2);_v;}):(int16_t)0)
 247:main.c        **** #define SNAP16BE(p,plen,off) \
 248:main.c        ****     (((off)+2u<=(plen)) \
 249:main.c        ****         ?(int16_t)(((uint16_t)(p)[(off)]<<8)|(uint16_t)(p)[(off)+1u]) \
 250:main.c        ****         :(int16_t)0)
 251:main.c        **** #define SNAP32BE(p,plen,off) \
 252:main.c        ****     (((off)+4u<=(plen)) \
 253:main.c        ****         ?(int32_t)(((uint32_t)(p)[(off)]<<24)|((uint32_t)(p)[(off)+1u]<<16) \
 254:main.c        ****                   |((uint32_t)(p)[(off)+2u]<<8)|(uint32_t)(p)[(off)+3u]) \
 255:main.c        ****         :(int32_t)0)
 256:main.c        **** 
 257:main.c        **** /* =========================================================================
 258:main.c        ****  * QUERY verbose printers  (unchanged from integration version)
 259:main.c        ****  * ========================================================================= */
 260:main.c        **** static void print_att(const uint8_t *p, uint8_t plen, uint32_t dt)
 261:main.c        **** {
 983              		.loc 1 261 0
 984              		.cfi_startproc
 985              		@ args = 0, pretend = 0, frame = 200
 986              		@ frame_needed = 1, uses_anonymous_args = 0
 987 0000 90B5     		push	{r4, r7, lr}
 988              		.cfi_def_cfa_offset 12
 989              		.cfi_offset 4, -12
 990              		.cfi_offset 7, -8
 991              		.cfi_offset 14, -4
 992 0002 B5B0     		sub	sp, sp, #212
 993              		.cfi_def_cfa_offset 224
 994 0004 02AF     		add	r7, sp, #8
 995              		.cfi_def_cfa 7, 216
 996 0006 F860     		str	r0, [r7, #12]
 997 0008 0B46     		mov	r3, r1
 998 000a 7A60     		str	r2, [r7, #4]
 999 000c FB72     		strb	r3, [r7, #11]
 262:main.c        ****     char buf[TX_BUF_SIZE];
 263:main.c        ****     sprintf(buf, "\r\n[QUERY][Att] dt=%lums snaplen=%u\r\n",
 1000              		.loc 1 263 0
 1001 000e FB7A     		ldrb	r3, [r7, #11]	@ zero_extendqisi2
 1002 0010 07F12000 		add	r0, r7, #32
 1003 0014 7A68     		ldr	r2, [r7, #4]
 1004 0016 6249     		ldr	r1, .L82
 1005 0018 FFF7FEFF 		bl	sprintf
 264:main.c        ****             (unsigned long)dt, plen);
 265:main.c        ****     UART_1_PutString(buf);
 1006              		.loc 1 265 0
 1007 001c 07F12003 		add	r3, r7, #32
 1008 0020 1846     		mov	r0, r3
 1009 0022 FFF7FEFF 		bl	UART_1_PutString
ARM GAS  C:\Users\JENNEW~1\AppData\Local\Temp\ccFpxs5T.s 			page 24


 266:main.c        ****     print_hex_dump(p, plen);
 1010              		.loc 1 266 0
 1011 0026 FB7A     		ldrb	r3, [r7, #11]	@ zero_extendqisi2
 1012 0028 1946     		mov	r1, r3
 1013 002a F868     		ldr	r0, [r7, #12]
 1014 002c FFF7FEFF 		bl	print_hex_dump
 267:main.c        ****     if (plen < 6u) { UART_1_PutString("  short\r\n"); return; }
 1015              		.loc 1 267 0
 1016 0030 FB7A     		ldrb	r3, [r7, #11]	@ zero_extendqisi2
 1017 0032 052B     		cmp	r3, #5
 1018 0034 03D8     		bhi	.L74
 1019              		.loc 1 267 0 is_stmt 0 discriminator 1
 1020 0036 5B48     		ldr	r0, .L82+4
 1021 0038 FFF7FEFF 		bl	UART_1_PutString
 1022 003c ADE0     		b	.L73
 1023              	.L74:
 268:main.c        ****     char s; int16_t vi, vf;
 269:main.c        ****     int16_t r1=SNAP16(p,plen,1), r3=SNAP16(p,plen,3), r5=SNAP16(p,plen,5);
 1024              		.loc 1 269 0 is_stmt 1
 1025 003e FB7A     		ldrb	r3, [r7, #11]	@ zero_extendqisi2
 1026 0040 022B     		cmp	r3, #2
 1027 0042 0AD9     		bls	.L76
 1028              	.LBB3:
 1029              		.loc 1 269 0 is_stmt 0 discriminator 1
 1030 0044 FB68     		ldr	r3, [r7, #12]
 1031 0046 591C     		adds	r1, r3, #1
 1032 0048 07F11803 		add	r3, r7, #24
 1033 004c 0222     		movs	r2, #2
 1034 004e 1846     		mov	r0, r3
 1035 0050 FFF7FEFF 		bl	memcpy
 1036 0054 B7F91830 		ldrsh	r3, [r7, #24]
 1037              	.LBE3:
 1038 0058 00E0     		b	.L77
 1039              	.L76:
 1040              		.loc 1 269 0 discriminator 2
 1041 005a 0023     		movs	r3, #0
 1042              	.L77:
 1043              		.loc 1 269 0 discriminator 4
 1044 005c A7F8C630 		strh	r3, [r7, #198]	@ movhi
 1045 0060 FB7A     		ldrb	r3, [r7, #11]	@ zero_extendqisi2
 1046 0062 042B     		cmp	r3, #4
 1047 0064 0AD9     		bls	.L78
 1048              	.LBB4:
 1049              		.loc 1 269 0 discriminator 5
 1050 0066 FB68     		ldr	r3, [r7, #12]
 1051 0068 D91C     		adds	r1, r3, #3
 1052 006a 07F11603 		add	r3, r7, #22
 1053 006e 0222     		movs	r2, #2
 1054 0070 1846     		mov	r0, r3
 1055 0072 FFF7FEFF 		bl	memcpy
 1056 0076 B7F91630 		ldrsh	r3, [r7, #22]
 1057              	.LBE4:
 1058 007a 00E0     		b	.L79
 1059              	.L78:
 1060              		.loc 1 269 0 discriminator 6
 1061 007c 0023     		movs	r3, #0
 1062              	.L79:
ARM GAS  C:\Users\JENNEW~1\AppData\Local\Temp\ccFpxs5T.s 			page 25


 1063              		.loc 1 269 0 discriminator 8
 1064 007e A7F8C430 		strh	r3, [r7, #196]	@ movhi
 1065 0082 FB7A     		ldrb	r3, [r7, #11]	@ zero_extendqisi2
 1066 0084 062B     		cmp	r3, #6
 1067 0086 0AD9     		bls	.L80
 1068              	.LBB5:
 1069              		.loc 1 269 0 discriminator 9
 1070 0088 FB68     		ldr	r3, [r7, #12]
 1071 008a 591D     		adds	r1, r3, #5
 1072 008c 07F11403 		add	r3, r7, #20
 1073 0090 0222     		movs	r2, #2
 1074 0092 1846     		mov	r0, r3
 1075 0094 FFF7FEFF 		bl	memcpy
 1076 0098 B7F91430 		ldrsh	r3, [r7, #20]
 1077              	.LBE5:
 1078 009c 00E0     		b	.L81
 1079              	.L80:
 1080              		.loc 1 269 0 discriminator 10
 1081 009e 0023     		movs	r3, #0
 1082              	.L81:
 1083              		.loc 1 269 0 discriminator 12
 1084 00a0 A7F8C230 		strh	r3, [r7, #194]	@ movhi
 270:main.c        ****     decomp((float)r1/100.0f, &vi, &vf, &s);
 1085              		.loc 1 270 0 is_stmt 1 discriminator 12
 1086 00a4 B7F9C630 		ldrsh	r3, [r7, #198]
 1087 00a8 1846     		mov	r0, r3
 1088 00aa FFF7FEFF 		bl	__aeabi_i2f
 1089 00ae 0346     		mov	r3, r0
 1090 00b0 3D49     		ldr	r1, .L82+8
 1091 00b2 1846     		mov	r0, r3
 1092 00b4 FFF7FEFF 		bl	__aeabi_fdiv
 1093 00b8 0346     		mov	r3, r0
 1094 00ba 1846     		mov	r0, r3
 1095 00bc 07F11F03 		add	r3, r7, #31
 1096 00c0 07F11A02 		add	r2, r7, #26
 1097 00c4 07F11C01 		add	r1, r7, #28
 1098 00c8 FFF7FEFF 		bl	decomp
 271:main.c        ****     sprintf(buf,"  off1 /100 %6d => %c%d.%02d [PITCH]\r\n",(int)r1,s,vi,vf);
 1099              		.loc 1 271 0 discriminator 12
 1100 00cc B7F9C620 		ldrsh	r2, [r7, #198]
 1101 00d0 FB7F     		ldrb	r3, [r7, #31]	@ zero_extendqisi2
 1102 00d2 1C46     		mov	r4, r3
 1103 00d4 B7F91C30 		ldrsh	r3, [r7, #28]
 1104 00d8 B7F91A10 		ldrsh	r1, [r7, #26]
 1105 00dc 07F12000 		add	r0, r7, #32
 1106 00e0 0191     		str	r1, [sp, #4]
 1107 00e2 0093     		str	r3, [sp]
 1108 00e4 2346     		mov	r3, r4
 1109 00e6 3149     		ldr	r1, .L82+12
 1110 00e8 FFF7FEFF 		bl	sprintf
 272:main.c        ****     UART_1_PutString(buf);
 1111              		.loc 1 272 0 discriminator 12
 1112 00ec 07F12003 		add	r3, r7, #32
 1113 00f0 1846     		mov	r0, r3
 1114 00f2 FFF7FEFF 		bl	UART_1_PutString
 273:main.c        ****     decomp((float)r3/100.0f, &vi, &vf, &s);
 1115              		.loc 1 273 0 discriminator 12
ARM GAS  C:\Users\JENNEW~1\AppData\Local\Temp\ccFpxs5T.s 			page 26


 1116 00f6 B7F9C430 		ldrsh	r3, [r7, #196]
 1117 00fa 1846     		mov	r0, r3
 1118 00fc FFF7FEFF 		bl	__aeabi_i2f
 1119 0100 0346     		mov	r3, r0
 1120 0102 2949     		ldr	r1, .L82+8
 1121 0104 1846     		mov	r0, r3
 1122 0106 FFF7FEFF 		bl	__aeabi_fdiv
 1123 010a 0346     		mov	r3, r0
 1124 010c 1846     		mov	r0, r3
 1125 010e 07F11F03 		add	r3, r7, #31
 1126 0112 07F11A02 		add	r2, r7, #26
 1127 0116 07F11C01 		add	r1, r7, #28
 1128 011a FFF7FEFF 		bl	decomp
 274:main.c        ****     sprintf(buf,"  off3 /100 %6d => %c%d.%02d [YAW]\r\n",(int)r3,s,vi,vf);
 1129              		.loc 1 274 0 discriminator 12
 1130 011e B7F9C420 		ldrsh	r2, [r7, #196]
 1131 0122 FB7F     		ldrb	r3, [r7, #31]	@ zero_extendqisi2
 1132 0124 1C46     		mov	r4, r3
 1133 0126 B7F91C30 		ldrsh	r3, [r7, #28]
 1134 012a B7F91A10 		ldrsh	r1, [r7, #26]
 1135 012e 07F12000 		add	r0, r7, #32
 1136 0132 0191     		str	r1, [sp, #4]
 1137 0134 0093     		str	r3, [sp]
 1138 0136 2346     		mov	r3, r4
 1139 0138 1D49     		ldr	r1, .L82+16
 1140 013a FFF7FEFF 		bl	sprintf
 275:main.c        ****     UART_1_PutString(buf);
 1141              		.loc 1 275 0 discriminator 12
 1142 013e 07F12003 		add	r3, r7, #32
 1143 0142 1846     		mov	r0, r3
 1144 0144 FFF7FEFF 		bl	UART_1_PutString
 276:main.c        ****     decomp((float)r5/100.0f, &vi, &vf, &s);
 1145              		.loc 1 276 0 discriminator 12
 1146 0148 B7F9C230 		ldrsh	r3, [r7, #194]
 1147 014c 1846     		mov	r0, r3
 1148 014e FFF7FEFF 		bl	__aeabi_i2f
 1149 0152 0346     		mov	r3, r0
 1150 0154 1449     		ldr	r1, .L82+8
 1151 0156 1846     		mov	r0, r3
 1152 0158 FFF7FEFF 		bl	__aeabi_fdiv
 1153 015c 0346     		mov	r3, r0
 1154 015e 1846     		mov	r0, r3
 1155 0160 07F11F03 		add	r3, r7, #31
 1156 0164 07F11A02 		add	r2, r7, #26
 1157 0168 07F11C01 		add	r1, r7, #28
 1158 016c FFF7FEFF 		bl	decomp
 277:main.c        ****     sprintf(buf,"  off5 /100 %6d => %c%d.%02d [ROLL]\r\n",(int)r5,s,vi,vf);
 1159              		.loc 1 277 0 discriminator 12
 1160 0170 B7F9C220 		ldrsh	r2, [r7, #194]
 1161 0174 FB7F     		ldrb	r3, [r7, #31]	@ zero_extendqisi2
 1162 0176 1C46     		mov	r4, r3
 1163 0178 B7F91C30 		ldrsh	r3, [r7, #28]
 1164 017c B7F91A10 		ldrsh	r1, [r7, #26]
 1165 0180 07F12000 		add	r0, r7, #32
 1166 0184 0191     		str	r1, [sp, #4]
 1167 0186 0093     		str	r3, [sp]
 1168 0188 2346     		mov	r3, r4
ARM GAS  C:\Users\JENNEW~1\AppData\Local\Temp\ccFpxs5T.s 			page 27


 1169 018a 0A49     		ldr	r1, .L82+20
 1170 018c FFF7FEFF 		bl	sprintf
 278:main.c        ****     UART_1_PutString(buf);
 1171              		.loc 1 278 0 discriminator 12
 1172 0190 07F12003 		add	r3, r7, #32
 1173 0194 1846     		mov	r0, r3
 1174 0196 FFF7FEFF 		bl	UART_1_PutString
 1175              	.L73:
 279:main.c        **** }
 1176              		.loc 1 279 0
 1177 019a CC37     		adds	r7, r7, #204
 1178              		.cfi_def_cfa_offset 12
 1179 019c BD46     		mov	sp, r7
 1180              		.cfi_def_cfa_register 13
 1181              		@ sp needed
 1182 019e 90BD     		pop	{r4, r7, pc}
 1183              	.L83:
 1184              		.align	2
 1185              	.L82:
 1186 01a0 3C000000 		.word	.LC6
 1187 01a4 64000000 		.word	.LC7
 1188 01a8 0000C842 		.word	1120403456
 1189 01ac 70000000 		.word	.LC8
 1190 01b0 98000000 		.word	.LC9
 1191 01b4 C0000000 		.word	.LC10
 1192              		.cfi_endproc
 1193              	.LFE73:
 1194              		.size	print_att, .-print_att
 1195              		.section	.rodata
 1196 00e6 0000     		.align	2
 1197              	.LC11:
 1198 00e8 0D0A5B51 		.ascii	"\015\012[QUERY][GPS] dt=%lums snaplen=%u\015\012\000"
 1198      55455259 
 1198      5D5B4750 
 1198      535D2064 
 1198      743D256C 
 1199 010d 000000   		.align	2
 1200              	.LC12:
 1201 0110 20204C61 		.ascii	"  Lat=%ld.%07ld Lon=%ld.%07ld Alt=%ld mm\015\012\000"
 1201      743D256C 
 1201      642E2530 
 1201      376C6420 
 1201      4C6F6E3D 
 1202              		.section	.text.print_gps,"ax",%progbits
 1203              		.align	2
 1204              		.thumb
 1205              		.thumb_func
 1206              		.type	print_gps, %function
 1207              	print_gps:
 1208              	.LFB74:
 280:main.c        **** 
 281:main.c        **** static void print_gps(const uint8_t *p, uint8_t plen, uint32_t dt)
 282:main.c        **** {
 1209              		.loc 1 282 0
 1210              		.cfi_startproc
 1211              		@ args = 0, pretend = 0, frame = 192
 1212              		@ frame_needed = 1, uses_anonymous_args = 0
ARM GAS  C:\Users\JENNEW~1\AppData\Local\Temp\ccFpxs5T.s 			page 28


 1213 0000 B0B5     		push	{r4, r5, r7, lr}
 1214              		.cfi_def_cfa_offset 16
 1215              		.cfi_offset 4, -16
 1216              		.cfi_offset 5, -12
 1217              		.cfi_offset 7, -8
 1218              		.cfi_offset 14, -4
 1219 0002 B4B0     		sub	sp, sp, #208
 1220              		.cfi_def_cfa_offset 224
 1221 0004 04AF     		add	r7, sp, #16
 1222              		.cfi_def_cfa 7, 208
 1223 0006 F860     		str	r0, [r7, #12]
 1224 0008 0B46     		mov	r3, r1
 1225 000a 7A60     		str	r2, [r7, #4]
 1226 000c FB72     		strb	r3, [r7, #11]
 283:main.c        ****     char buf[TX_BUF_SIZE];
 284:main.c        ****     sprintf(buf, "\r\n[QUERY][GPS] dt=%lums snaplen=%u\r\n",
 1227              		.loc 1 284 0
 1228 000e FB7A     		ldrb	r3, [r7, #11]	@ zero_extendqisi2
 1229 0010 07F11400 		add	r0, r7, #20
 1230 0014 7A68     		ldr	r2, [r7, #4]
 1231 0016 4D49     		ldr	r1, .L93
 1232 0018 FFF7FEFF 		bl	sprintf
 285:main.c        ****             (unsigned long)dt, plen);
 286:main.c        ****     UART_1_PutString(buf);
 1233              		.loc 1 286 0
 1234 001c 07F11403 		add	r3, r7, #20
 1235 0020 1846     		mov	r0, r3
 1236 0022 FFF7FEFF 		bl	UART_1_PutString
 287:main.c        ****     print_hex_dump(p, plen);
 1237              		.loc 1 287 0
 1238 0026 FB7A     		ldrb	r3, [r7, #11]	@ zero_extendqisi2
 1239 0028 1946     		mov	r1, r3
 1240 002a F868     		ldr	r0, [r7, #12]
 1241 002c FFF7FEFF 		bl	print_hex_dump
 288:main.c        ****     if (plen < 12u) { UART_1_PutString("  short\r\n"); return; }
 1242              		.loc 1 288 0
 1243 0030 FB7A     		ldrb	r3, [r7, #11]	@ zero_extendqisi2
 1244 0032 0B2B     		cmp	r3, #11
 1245 0034 03D8     		bhi	.L85
 1246              		.loc 1 288 0 is_stmt 0 discriminator 1
 1247 0036 4648     		ldr	r0, .L93+4
 1248 0038 FFF7FEFF 		bl	UART_1_PutString
 1249 003c 83E0     		b	.L84
 1250              	.L85:
 289:main.c        ****     int32_t lon=SNAP32BE(p,plen,0), lat=SNAP32BE(p,plen,4);
 1251              		.loc 1 289 0 is_stmt 1
 1252 003e FB7A     		ldrb	r3, [r7, #11]	@ zero_extendqisi2
 1253 0040 032B     		cmp	r3, #3
 1254 0042 11D9     		bls	.L87
 1255              		.loc 1 289 0 is_stmt 0 discriminator 1
 1256 0044 FB68     		ldr	r3, [r7, #12]
 1257 0046 1B78     		ldrb	r3, [r3]	@ zero_extendqisi2
 1258 0048 1A06     		lsls	r2, r3, #24
 1259 004a FB68     		ldr	r3, [r7, #12]
 1260 004c 0133     		adds	r3, r3, #1
 1261 004e 1B78     		ldrb	r3, [r3]	@ zero_extendqisi2
 1262 0050 1B04     		lsls	r3, r3, #16
ARM GAS  C:\Users\JENNEW~1\AppData\Local\Temp\ccFpxs5T.s 			page 29


 1263 0052 1A43     		orrs	r2, r2, r3
 1264 0054 FB68     		ldr	r3, [r7, #12]
 1265 0056 0233     		adds	r3, r3, #2
 1266 0058 1B78     		ldrb	r3, [r3]	@ zero_extendqisi2
 1267 005a 1B02     		lsls	r3, r3, #8
 1268 005c 1343     		orrs	r3, r3, r2
 1269 005e FA68     		ldr	r2, [r7, #12]
 1270 0060 0332     		adds	r2, r2, #3
 1271 0062 1278     		ldrb	r2, [r2]	@ zero_extendqisi2
 1272 0064 1343     		orrs	r3, r3, r2
 1273 0066 00E0     		b	.L88
 1274              	.L87:
 1275              		.loc 1 289 0 discriminator 2
 1276 0068 0023     		movs	r3, #0
 1277              	.L88:
 1278              		.loc 1 289 0 discriminator 4
 1279 006a C7F8BC30 		str	r3, [r7, #188]
 1280 006e FB7A     		ldrb	r3, [r7, #11]	@ zero_extendqisi2
 1281 0070 072B     		cmp	r3, #7
 1282 0072 12D9     		bls	.L89
 1283              		.loc 1 289 0 discriminator 5
 1284 0074 FB68     		ldr	r3, [r7, #12]
 1285 0076 0433     		adds	r3, r3, #4
 1286 0078 1B78     		ldrb	r3, [r3]	@ zero_extendqisi2
 1287 007a 1A06     		lsls	r2, r3, #24
 1288 007c FB68     		ldr	r3, [r7, #12]
 1289 007e 0533     		adds	r3, r3, #5
 1290 0080 1B78     		ldrb	r3, [r3]	@ zero_extendqisi2
 1291 0082 1B04     		lsls	r3, r3, #16
 1292 0084 1A43     		orrs	r2, r2, r3
 1293 0086 FB68     		ldr	r3, [r7, #12]
 1294 0088 0633     		adds	r3, r3, #6
 1295 008a 1B78     		ldrb	r3, [r3]	@ zero_extendqisi2
 1296 008c 1B02     		lsls	r3, r3, #8
 1297 008e 1343     		orrs	r3, r3, r2
 1298 0090 FA68     		ldr	r2, [r7, #12]
 1299 0092 0732     		adds	r2, r2, #7
 1300 0094 1278     		ldrb	r2, [r2]	@ zero_extendqisi2
 1301 0096 1343     		orrs	r3, r3, r2
 1302 0098 00E0     		b	.L90
 1303              	.L89:
 1304              		.loc 1 289 0 discriminator 6
 1305 009a 0023     		movs	r3, #0
 1306              	.L90:
 1307              		.loc 1 289 0 discriminator 8
 1308 009c C7F8B830 		str	r3, [r7, #184]
 290:main.c        ****     int32_t alt=SNAP32BE(p,plen,8);
 1309              		.loc 1 290 0 is_stmt 1 discriminator 8
 1310 00a0 FB7A     		ldrb	r3, [r7, #11]	@ zero_extendqisi2
 1311 00a2 0B2B     		cmp	r3, #11
 1312 00a4 12D9     		bls	.L91
 1313              		.loc 1 290 0 is_stmt 0 discriminator 1
 1314 00a6 FB68     		ldr	r3, [r7, #12]
 1315 00a8 0833     		adds	r3, r3, #8
 1316 00aa 1B78     		ldrb	r3, [r3]	@ zero_extendqisi2
 1317 00ac 1A06     		lsls	r2, r3, #24
 1318 00ae FB68     		ldr	r3, [r7, #12]
ARM GAS  C:\Users\JENNEW~1\AppData\Local\Temp\ccFpxs5T.s 			page 30


 1319 00b0 0933     		adds	r3, r3, #9
 1320 00b2 1B78     		ldrb	r3, [r3]	@ zero_extendqisi2
 1321 00b4 1B04     		lsls	r3, r3, #16
 1322 00b6 1A43     		orrs	r2, r2, r3
 1323 00b8 FB68     		ldr	r3, [r7, #12]
 1324 00ba 0A33     		adds	r3, r3, #10
 1325 00bc 1B78     		ldrb	r3, [r3]	@ zero_extendqisi2
 1326 00be 1B02     		lsls	r3, r3, #8
 1327 00c0 1343     		orrs	r3, r3, r2
 1328 00c2 FA68     		ldr	r2, [r7, #12]
 1329 00c4 0B32     		adds	r2, r2, #11
 1330 00c6 1278     		ldrb	r2, [r2]	@ zero_extendqisi2
 1331 00c8 1343     		orrs	r3, r3, r2
 1332 00ca 00E0     		b	.L92
 1333              	.L91:
 1334              		.loc 1 290 0 discriminator 2
 1335 00cc 0023     		movs	r3, #0
 1336              	.L92:
 1337              		.loc 1 290 0 discriminator 4
 1338 00ce C7F8B430 		str	r3, [r7, #180]
 291:main.c        ****     sprintf(buf,"  Lat=%ld.%07ld Lon=%ld.%07ld Alt=%ld mm\r\n",
 1339              		.loc 1 291 0 is_stmt 1 discriminator 4
 1340 00d2 D7F8B830 		ldr	r3, [r7, #184]
 1341 00d6 1F4A     		ldr	r2, .L93+8
 1342 00d8 82FB0312 		smull	r1, r2, r2, r3
 1343 00dc 9215     		asrs	r2, r2, #22
 1344 00de DB17     		asrs	r3, r3, #31
 1345 00e0 D51A     		subs	r5, r2, r3
 1346 00e2 D7F8B830 		ldr	r3, [r7, #184]
 1347 00e6 1B4A     		ldr	r2, .L93+8
 1348 00e8 82FB0312 		smull	r1, r2, r2, r3
 1349 00ec 9115     		asrs	r1, r2, #22
 1350 00ee DA17     		asrs	r2, r3, #31
 1351 00f0 891A     		subs	r1, r1, r2
 1352 00f2 194A     		ldr	r2, .L93+12
 1353 00f4 02FB01F2 		mul	r2, r2, r1
 1354 00f8 991A     		subs	r1, r3, r2
 1355 00fa D7F8BC30 		ldr	r3, [r7, #188]
 1356 00fe 154A     		ldr	r2, .L93+8
 1357 0100 82FB0302 		smull	r0, r2, r2, r3
 1358 0104 9215     		asrs	r2, r2, #22
 1359 0106 DB17     		asrs	r3, r3, #31
 1360 0108 D01A     		subs	r0, r2, r3
 1361 010a D7F8BC20 		ldr	r2, [r7, #188]
 1362 010e 114B     		ldr	r3, .L93+8
 1363 0110 83FB0243 		smull	r4, r3, r3, r2
 1364 0114 9C15     		asrs	r4, r3, #22
 1365 0116 D317     		asrs	r3, r2, #31
 1366 0118 E31A     		subs	r3, r4, r3
 1367 011a 0F4C     		ldr	r4, .L93+12
 1368 011c 04FB03F3 		mul	r3, r4, r3
 1369 0120 D31A     		subs	r3, r2, r3
 1370 0122 07F11404 		add	r4, r7, #20
 1371 0126 D7F8B420 		ldr	r2, [r7, #180]
 1372 012a 0292     		str	r2, [sp, #8]
 1373 012c 0193     		str	r3, [sp, #4]
 1374 012e 0090     		str	r0, [sp]
ARM GAS  C:\Users\JENNEW~1\AppData\Local\Temp\ccFpxs5T.s 			page 31


 1375 0130 0B46     		mov	r3, r1
 1376 0132 2A46     		mov	r2, r5
 1377 0134 0949     		ldr	r1, .L93+16
 1378 0136 2046     		mov	r0, r4
 1379 0138 FFF7FEFF 		bl	sprintf
 292:main.c        ****             (long)(lat/10000000L),(long)(lat%10000000L),
 293:main.c        ****             (long)(lon/10000000L),(long)(lon%10000000L),(long)alt);
 294:main.c        ****     UART_1_PutString(buf);
 1380              		.loc 1 294 0 discriminator 4
 1381 013c 07F11403 		add	r3, r7, #20
 1382 0140 1846     		mov	r0, r3
 1383 0142 FFF7FEFF 		bl	UART_1_PutString
 1384              	.L84:
 295:main.c        **** }
 1385              		.loc 1 295 0
 1386 0146 C037     		adds	r7, r7, #192
 1387              		.cfi_def_cfa_offset 16
 1388 0148 BD46     		mov	sp, r7
 1389              		.cfi_def_cfa_register 13
 1390              		@ sp needed
 1391 014a B0BD     		pop	{r4, r5, r7, pc}
 1392              	.L94:
 1393              		.align	2
 1394              	.L93:
 1395 014c E8000000 		.word	.LC11
 1396 0150 64000000 		.word	.LC7
 1397 0154 6BCA5F6B 		.word	1801439851
 1398 0158 80969800 		.word	10000000
 1399 015c 10010000 		.word	.LC12
 1400              		.cfi_endproc
 1401              	.LFE74:
 1402              		.size	print_gps, .-print_gps
 1403              		.section	.rodata
 1404 013b 00       		.align	2
 1405              	.LC13:
 1406 013c 0D0A5B51 		.ascii	"\015\012[QUERY][Baro] dt=%lums snaplen=%u\015\012\000"
 1406      55455259 
 1406      5D5B4261 
 1406      726F5D20 
 1406      64743D25 
 1407 0162 0000     		.align	2
 1408              	.LC14:
 1409 0164 2020416C 		.ascii	"  Alt=%c%d.%02d m  \000"
 1409      743D2563 
 1409      25642E25 
 1409      30326420 
 1409      6D202000 
 1410              		.align	2
 1411              	.LC15:
 1412 0178 524F433D 		.ascii	"ROC=%c%d.%02d m/s\015\012\000"
 1412      25632564 
 1412      2E253032 
 1412      64206D2F 
 1412      730D0A00 
 1413              		.section	.text.print_baro,"ax",%progbits
 1414              		.align	2
 1415              		.thumb
ARM GAS  C:\Users\JENNEW~1\AppData\Local\Temp\ccFpxs5T.s 			page 32


 1416              		.thumb_func
 1417              		.type	print_baro, %function
 1418              	print_baro:
 1419              	.LFB75:
 296:main.c        **** 
 297:main.c        **** static void print_baro(const uint8_t *p, uint8_t plen, uint32_t dt)
 298:main.c        **** {
 1420              		.loc 1 298 0
 1421              		.cfi_startproc
 1422              		@ args = 0, pretend = 0, frame = 192
 1423              		@ frame_needed = 1, uses_anonymous_args = 0
 1424 0000 80B5     		push	{r7, lr}
 1425              		.cfi_def_cfa_offset 8
 1426              		.cfi_offset 7, -8
 1427              		.cfi_offset 14, -4
 1428 0002 B2B0     		sub	sp, sp, #200
 1429              		.cfi_def_cfa_offset 208
 1430 0004 02AF     		add	r7, sp, #8
 1431              		.cfi_def_cfa 7, 200
 1432 0006 F860     		str	r0, [r7, #12]
 1433 0008 0B46     		mov	r3, r1
 1434 000a 7A60     		str	r2, [r7, #4]
 1435 000c FB72     		strb	r3, [r7, #11]
 299:main.c        ****     char buf[TX_BUF_SIZE];
 300:main.c        ****     sprintf(buf, "\r\n[QUERY][Baro] dt=%lums snaplen=%u\r\n",
 1436              		.loc 1 300 0
 1437 000e FB7A     		ldrb	r3, [r7, #11]	@ zero_extendqisi2
 1438 0010 07F11C00 		add	r0, r7, #28
 1439 0014 7A68     		ldr	r2, [r7, #4]
 1440 0016 4349     		ldr	r1, .L102
 1441 0018 FFF7FEFF 		bl	sprintf
 301:main.c        ****             (unsigned long)dt, plen);
 302:main.c        ****     UART_1_PutString(buf);
 1442              		.loc 1 302 0
 1443 001c 07F11C03 		add	r3, r7, #28
 1444 0020 1846     		mov	r0, r3
 1445 0022 FFF7FEFF 		bl	UART_1_PutString
 303:main.c        ****     print_hex_dump(p, plen);
 1446              		.loc 1 303 0
 1447 0026 FB7A     		ldrb	r3, [r7, #11]	@ zero_extendqisi2
 1448 0028 1946     		mov	r1, r3
 1449 002a F868     		ldr	r0, [r7, #12]
 1450 002c FFF7FEFF 		bl	print_hex_dump
 304:main.c        ****     if (plen < 5u) { UART_1_PutString("  short\r\n"); return; }
 1451              		.loc 1 304 0
 1452 0030 FB7A     		ldrb	r3, [r7, #11]	@ zero_extendqisi2
 1453 0032 042B     		cmp	r3, #4
 1454 0034 03D8     		bhi	.L96
 1455              		.loc 1 304 0 is_stmt 0 discriminator 1
 1456 0036 3C48     		ldr	r0, .L102+4
 1457 0038 FFF7FEFF 		bl	UART_1_PutString
 1458 003c 6FE0     		b	.L95
 1459              	.L96:
 305:main.c        ****     char s; int16_t vi, vf;
 306:main.c        ****     int16_t alt=SNAP16(p,plen,1), roc=SNAP16(p,plen,3);
 1460              		.loc 1 306 0 is_stmt 1
 1461 003e FB7A     		ldrb	r3, [r7, #11]	@ zero_extendqisi2
ARM GAS  C:\Users\JENNEW~1\AppData\Local\Temp\ccFpxs5T.s 			page 33


 1462 0040 022B     		cmp	r3, #2
 1463 0042 0AD9     		bls	.L98
 1464              	.LBB6:
 1465              		.loc 1 306 0 is_stmt 0 discriminator 1
 1466 0044 FB68     		ldr	r3, [r7, #12]
 1467 0046 591C     		adds	r1, r3, #1
 1468 0048 07F11403 		add	r3, r7, #20
 1469 004c 0222     		movs	r2, #2
 1470 004e 1846     		mov	r0, r3
 1471 0050 FFF7FEFF 		bl	memcpy
 1472 0054 B7F91430 		ldrsh	r3, [r7, #20]
 1473              	.LBE6:
 1474 0058 00E0     		b	.L99
 1475              	.L98:
 1476              		.loc 1 306 0 discriminator 2
 1477 005a 0023     		movs	r3, #0
 1478              	.L99:
 1479              		.loc 1 306 0 discriminator 4
 1480 005c A7F8BE30 		strh	r3, [r7, #190]	@ movhi
 1481 0060 FB7A     		ldrb	r3, [r7, #11]	@ zero_extendqisi2
 1482 0062 042B     		cmp	r3, #4
 1483 0064 0AD9     		bls	.L100
 1484              	.LBB7:
 1485              		.loc 1 306 0 discriminator 5
 1486 0066 FB68     		ldr	r3, [r7, #12]
 1487 0068 D91C     		adds	r1, r3, #3
 1488 006a 07F11203 		add	r3, r7, #18
 1489 006e 0222     		movs	r2, #2
 1490 0070 1846     		mov	r0, r3
 1491 0072 FFF7FEFF 		bl	memcpy
 1492 0076 B7F91230 		ldrsh	r3, [r7, #18]
 1493              	.LBE7:
 1494 007a 00E0     		b	.L101
 1495              	.L100:
 1496              		.loc 1 306 0 discriminator 6
 1497 007c 0023     		movs	r3, #0
 1498              	.L101:
 1499              		.loc 1 306 0 discriminator 8
 1500 007e A7F8BC30 		strh	r3, [r7, #188]	@ movhi
 307:main.c        ****     decomp((float)alt/10.0f, &vi, &vf, &s);
 1501              		.loc 1 307 0 is_stmt 1 discriminator 8
 1502 0082 B7F9BE30 		ldrsh	r3, [r7, #190]
 1503 0086 1846     		mov	r0, r3
 1504 0088 FFF7FEFF 		bl	__aeabi_i2f
 1505 008c 0346     		mov	r3, r0
 1506 008e 2749     		ldr	r1, .L102+8
 1507 0090 1846     		mov	r0, r3
 1508 0092 FFF7FEFF 		bl	__aeabi_fdiv
 1509 0096 0346     		mov	r3, r0
 1510 0098 1846     		mov	r0, r3
 1511 009a 07F11B03 		add	r3, r7, #27
 1512 009e 07F11602 		add	r2, r7, #22
 1513 00a2 07F11801 		add	r1, r7, #24
 1514 00a6 FFF7FEFF 		bl	decomp
 308:main.c        ****     sprintf(buf,"  Alt=%c%d.%02d m  ", s, vi, vf); UART_1_PutString(buf);
 1515              		.loc 1 308 0 discriminator 8
 1516 00aa FB7E     		ldrb	r3, [r7, #27]	@ zero_extendqisi2
ARM GAS  C:\Users\JENNEW~1\AppData\Local\Temp\ccFpxs5T.s 			page 34


 1517 00ac 1A46     		mov	r2, r3
 1518 00ae B7F91830 		ldrsh	r3, [r7, #24]
 1519 00b2 1946     		mov	r1, r3
 1520 00b4 B7F91630 		ldrsh	r3, [r7, #22]
 1521 00b8 07F11C00 		add	r0, r7, #28
 1522 00bc 0093     		str	r3, [sp]
 1523 00be 0B46     		mov	r3, r1
 1524 00c0 1B49     		ldr	r1, .L102+12
 1525 00c2 FFF7FEFF 		bl	sprintf
 1526 00c6 07F11C03 		add	r3, r7, #28
 1527 00ca 1846     		mov	r0, r3
 1528 00cc FFF7FEFF 		bl	UART_1_PutString
 309:main.c        ****     decomp((float)roc/100.0f, &vi, &vf, &s);
 1529              		.loc 1 309 0 discriminator 8
 1530 00d0 B7F9BC30 		ldrsh	r3, [r7, #188]
 1531 00d4 1846     		mov	r0, r3
 1532 00d6 FFF7FEFF 		bl	__aeabi_i2f
 1533 00da 0346     		mov	r3, r0
 1534 00dc 1549     		ldr	r1, .L102+16
 1535 00de 1846     		mov	r0, r3
 1536 00e0 FFF7FEFF 		bl	__aeabi_fdiv
 1537 00e4 0346     		mov	r3, r0
 1538 00e6 1846     		mov	r0, r3
 1539 00e8 07F11B03 		add	r3, r7, #27
 1540 00ec 07F11602 		add	r2, r7, #22
 1541 00f0 07F11801 		add	r1, r7, #24
 1542 00f4 FFF7FEFF 		bl	decomp
 310:main.c        ****     sprintf(buf,"ROC=%c%d.%02d m/s\r\n", s, vi, vf); UART_1_PutString(buf);
 1543              		.loc 1 310 0 discriminator 8
 1544 00f8 FB7E     		ldrb	r3, [r7, #27]	@ zero_extendqisi2
 1545 00fa 1A46     		mov	r2, r3
 1546 00fc B7F91830 		ldrsh	r3, [r7, #24]
 1547 0100 1946     		mov	r1, r3
 1548 0102 B7F91630 		ldrsh	r3, [r7, #22]
 1549 0106 07F11C00 		add	r0, r7, #28
 1550 010a 0093     		str	r3, [sp]
 1551 010c 0B46     		mov	r3, r1
 1552 010e 0A49     		ldr	r1, .L102+20
 1553 0110 FFF7FEFF 		bl	sprintf
 1554 0114 07F11C03 		add	r3, r7, #28
 1555 0118 1846     		mov	r0, r3
 1556 011a FFF7FEFF 		bl	UART_1_PutString
 1557              	.L95:
 311:main.c        **** }
 1558              		.loc 1 311 0
 1559 011e C037     		adds	r7, r7, #192
 1560              		.cfi_def_cfa_offset 8
 1561 0120 BD46     		mov	sp, r7
 1562              		.cfi_def_cfa_register 13
 1563              		@ sp needed
 1564 0122 80BD     		pop	{r7, pc}
 1565              	.L103:
 1566              		.align	2
 1567              	.L102:
 1568 0124 3C010000 		.word	.LC13
 1569 0128 64000000 		.word	.LC7
 1570 012c 00002041 		.word	1092616192
ARM GAS  C:\Users\JENNEW~1\AppData\Local\Temp\ccFpxs5T.s 			page 35


 1571 0130 64010000 		.word	.LC14
 1572 0134 0000C842 		.word	1120403456
 1573 0138 78010000 		.word	.LC15
 1574              		.cfi_endproc
 1575              	.LFE75:
 1576              		.size	print_baro, .-print_baro
 1577              		.section	.rodata
 1578              		.align	2
 1579              	.LC16:
 1580 018c 0D0A5B51 		.ascii	"\015\012[QUERY][Stat] dt=%lums snaplen=%u\015\012\000"
 1580      55455259 
 1580      5D5B5374 
 1580      61745D20 
 1580      64743D25 
 1581 01b2 0000     		.align	2
 1582              	.LC17:
 1583 01b4 20204261 		.ascii	"  Batt=%c%d.%02d V  Sats=%u  Temp=%d C\015\012\000"
 1583      74743D25 
 1583      6325642E 
 1583      25303264 
 1583      20562020 
 1584 01dd 000000   		.align	2
 1585              	.LC18:
 1586 01e0 20205072 		.ascii	"  Pres=%c%d.%02d mb\015\012\000"
 1586      65733D25 
 1586      6325642E 
 1586      25303264 
 1586      206D620D 
 1587              		.section	.text.print_sysstat,"ax",%progbits
 1588              		.align	2
 1589              		.thumb
 1590              		.thumb_func
 1591              		.type	print_sysstat, %function
 1592              	print_sysstat:
 1593              	.LFB76:
 312:main.c        **** 
 313:main.c        **** static void print_sysstat(const uint8_t *p, uint8_t plen, uint32_t dt)
 314:main.c        **** {
 1594              		.loc 1 314 0
 1595              		.cfi_startproc
 1596              		@ args = 0, pretend = 0, frame = 192
 1597              		@ frame_needed = 1, uses_anonymous_args = 0
 1598 0000 F0B5     		push	{r4, r5, r6, r7, lr}
 1599              		.cfi_def_cfa_offset 20
 1600              		.cfi_offset 4, -20
 1601              		.cfi_offset 5, -16
 1602              		.cfi_offset 6, -12
 1603              		.cfi_offset 7, -8
 1604              		.cfi_offset 14, -4
 1605 0002 B5B0     		sub	sp, sp, #212
 1606              		.cfi_def_cfa_offset 232
 1607 0004 04AF     		add	r7, sp, #16
 1608              		.cfi_def_cfa 7, 216
 1609 0006 F860     		str	r0, [r7, #12]
 1610 0008 0B46     		mov	r3, r1
 1611 000a 7A60     		str	r2, [r7, #4]
 1612 000c FB72     		strb	r3, [r7, #11]
ARM GAS  C:\Users\JENNEW~1\AppData\Local\Temp\ccFpxs5T.s 			page 36


 315:main.c        ****     char buf[TX_BUF_SIZE];
 316:main.c        ****     sprintf(buf, "\r\n[QUERY][Stat] dt=%lums snaplen=%u\r\n",
 1613              		.loc 1 316 0
 1614 000e FB7A     		ldrb	r3, [r7, #11]	@ zero_extendqisi2
 1615 0010 07F11C00 		add	r0, r7, #28
 1616 0014 7A68     		ldr	r2, [r7, #4]
 1617 0016 4D49     		ldr	r1, .L112
 1618 0018 FFF7FEFF 		bl	sprintf
 317:main.c        ****             (unsigned long)dt, plen);
 318:main.c        ****     UART_1_PutString(buf);
 1619              		.loc 1 318 0
 1620 001c 07F11C03 		add	r3, r7, #28
 1621 0020 1846     		mov	r0, r3
 1622 0022 FFF7FEFF 		bl	UART_1_PutString
 319:main.c        ****     print_hex_dump(p, plen);
 1623              		.loc 1 319 0
 1624 0026 FB7A     		ldrb	r3, [r7, #11]	@ zero_extendqisi2
 1625 0028 1946     		mov	r1, r3
 1626 002a F868     		ldr	r0, [r7, #12]
 1627 002c FFF7FEFF 		bl	print_hex_dump
 320:main.c        ****     if (plen < 4u) { UART_1_PutString("  short\r\n"); return; }
 1628              		.loc 1 320 0
 1629 0030 FB7A     		ldrb	r3, [r7, #11]	@ zero_extendqisi2
 1630 0032 032B     		cmp	r3, #3
 1631 0034 03D8     		bhi	.L105
 1632              		.loc 1 320 0 is_stmt 0 discriminator 1
 1633 0036 4648     		ldr	r0, .L112+4
 1634 0038 FFF7FEFF 		bl	UART_1_PutString
 1635 003c 83E0     		b	.L104
 1636              	.L105:
 321:main.c        ****     char s; int16_t vi, vf;
 322:main.c        ****     int16_t bv = SNAP16BE(p,plen,0);
 1637              		.loc 1 322 0 is_stmt 1
 1638 003e FB7A     		ldrb	r3, [r7, #11]	@ zero_extendqisi2
 1639 0040 012B     		cmp	r3, #1
 1640 0042 0AD9     		bls	.L107
 1641              		.loc 1 322 0 is_stmt 0 discriminator 1
 1642 0044 FB68     		ldr	r3, [r7, #12]
 1643 0046 1B78     		ldrb	r3, [r3]	@ zero_extendqisi2
 1644 0048 1B02     		lsls	r3, r3, #8
 1645 004a 1AB2     		sxth	r2, r3
 1646 004c FB68     		ldr	r3, [r7, #12]
 1647 004e 0133     		adds	r3, r3, #1
 1648 0050 1B78     		ldrb	r3, [r3]	@ zero_extendqisi2
 1649 0052 1BB2     		sxth	r3, r3
 1650 0054 1343     		orrs	r3, r3, r2
 1651 0056 1BB2     		sxth	r3, r3
 1652 0058 00E0     		b	.L108
 1653              	.L107:
 1654              		.loc 1 322 0 discriminator 2
 1655 005a 0023     		movs	r3, #0
 1656              	.L108:
 1657              		.loc 1 322 0 discriminator 4
 1658 005c A7F8BE30 		strh	r3, [r7, #190]	@ movhi
 323:main.c        ****     decomp((float)bv/100.0f, &vi, &vf, &s);
 1659              		.loc 1 323 0 is_stmt 1 discriminator 4
 1660 0060 B7F9BE30 		ldrsh	r3, [r7, #190]
ARM GAS  C:\Users\JENNEW~1\AppData\Local\Temp\ccFpxs5T.s 			page 37


 1661 0064 1846     		mov	r0, r3
 1662 0066 FFF7FEFF 		bl	__aeabi_i2f
 1663 006a 0346     		mov	r3, r0
 1664 006c 3949     		ldr	r1, .L112+8
 1665 006e 1846     		mov	r0, r3
 1666 0070 FFF7FEFF 		bl	__aeabi_fdiv
 1667 0074 0346     		mov	r3, r0
 1668 0076 1846     		mov	r0, r3
 1669 0078 07F11B03 		add	r3, r7, #27
 1670 007c 07F11602 		add	r2, r7, #22
 1671 0080 07F11801 		add	r1, r7, #24
 1672 0084 FFF7FEFF 		bl	decomp
 324:main.c        ****     sprintf(buf,"  Batt=%c%d.%02d V  Sats=%u  Temp=%d C\r\n",
 1673              		.loc 1 324 0 discriminator 4
 1674 0088 FB7E     		ldrb	r3, [r7, #27]	@ zero_extendqisi2
 1675 008a 1D46     		mov	r5, r3
 1676 008c B7F91830 		ldrsh	r3, [r7, #24]
 1677 0090 1E46     		mov	r6, r3
 1678 0092 B7F91630 		ldrsh	r3, [r7, #22]
 1679 0096 1946     		mov	r1, r3
 325:main.c        ****             s, vi, vf, p[2], p[3]/3u);
 1680              		.loc 1 325 0 discriminator 4
 1681 0098 FB68     		ldr	r3, [r7, #12]
 1682 009a 0233     		adds	r3, r3, #2
 1683 009c 1B78     		ldrb	r3, [r3]	@ zero_extendqisi2
 324:main.c        ****     sprintf(buf,"  Batt=%c%d.%02d V  Sats=%u  Temp=%d C\r\n",
 1684              		.loc 1 324 0 discriminator 4
 1685 009e 1C46     		mov	r4, r3
 1686              		.loc 1 325 0 discriminator 4
 1687 00a0 FB68     		ldr	r3, [r7, #12]
 1688 00a2 0333     		adds	r3, r3, #3
 1689 00a4 1B78     		ldrb	r3, [r3]	@ zero_extendqisi2
 324:main.c        ****     sprintf(buf,"  Batt=%c%d.%02d V  Sats=%u  Temp=%d C\r\n",
 1690              		.loc 1 324 0 discriminator 4
 1691 00a6 2C4A     		ldr	r2, .L112+12
 1692 00a8 A2FB0323 		umull	r2, r3, r2, r3
 1693 00ac 5B08     		lsrs	r3, r3, #1
 1694 00ae DBB2     		uxtb	r3, r3
 1695 00b0 07F11C00 		add	r0, r7, #28
 1696 00b4 0293     		str	r3, [sp, #8]
 1697 00b6 0194     		str	r4, [sp, #4]
 1698 00b8 0091     		str	r1, [sp]
 1699 00ba 3346     		mov	r3, r6
 1700 00bc 2A46     		mov	r2, r5
 1701 00be 2749     		ldr	r1, .L112+16
 1702 00c0 FFF7FEFF 		bl	sprintf
 326:main.c        ****     UART_1_PutString(buf);
 1703              		.loc 1 326 0 discriminator 4
 1704 00c4 07F11C03 		add	r3, r7, #28
 1705 00c8 1846     		mov	r0, r3
 1706 00ca FFF7FEFF 		bl	UART_1_PutString
 327:main.c        ****     if (plen >= 11u) {
 1707              		.loc 1 327 0 discriminator 4
 1708 00ce FB7A     		ldrb	r3, [r7, #11]	@ zero_extendqisi2
 1709 00d0 0A2B     		cmp	r3, #10
 1710 00d2 38D9     		bls	.L104
 1711              	.LBB8:
ARM GAS  C:\Users\JENNEW~1\AppData\Local\Temp\ccFpxs5T.s 			page 38


 328:main.c        ****         int16_t pres = SNAP16BE(p,plen,9);
 1712              		.loc 1 328 0
 1713 00d4 FB7A     		ldrb	r3, [r7, #11]	@ zero_extendqisi2
 1714 00d6 0A2B     		cmp	r3, #10
 1715 00d8 0BD9     		bls	.L110
 1716              		.loc 1 328 0 is_stmt 0 discriminator 1
 1717 00da FB68     		ldr	r3, [r7, #12]
 1718 00dc 0933     		adds	r3, r3, #9
 1719 00de 1B78     		ldrb	r3, [r3]	@ zero_extendqisi2
 1720 00e0 1B02     		lsls	r3, r3, #8
 1721 00e2 1AB2     		sxth	r2, r3
 1722 00e4 FB68     		ldr	r3, [r7, #12]
 1723 00e6 0A33     		adds	r3, r3, #10
 1724 00e8 1B78     		ldrb	r3, [r3]	@ zero_extendqisi2
 1725 00ea 1BB2     		sxth	r3, r3
 1726 00ec 1343     		orrs	r3, r3, r2
 1727 00ee 1BB2     		sxth	r3, r3
 1728 00f0 00E0     		b	.L111
 1729              	.L110:
 1730              		.loc 1 328 0 discriminator 2
 1731 00f2 0023     		movs	r3, #0
 1732              	.L111:
 1733              		.loc 1 328 0 discriminator 4
 1734 00f4 A7F8BC30 		strh	r3, [r7, #188]	@ movhi
 329:main.c        ****         decomp((float)pres/10.0f, &vi, &vf, &s);
 1735              		.loc 1 329 0 is_stmt 1 discriminator 4
 1736 00f8 B7F9BC30 		ldrsh	r3, [r7, #188]
 1737 00fc 1846     		mov	r0, r3
 1738 00fe FFF7FEFF 		bl	__aeabi_i2f
 1739 0102 0346     		mov	r3, r0
 1740 0104 1649     		ldr	r1, .L112+20
 1741 0106 1846     		mov	r0, r3
 1742 0108 FFF7FEFF 		bl	__aeabi_fdiv
 1743 010c 0346     		mov	r3, r0
 1744 010e 1846     		mov	r0, r3
 1745 0110 07F11B03 		add	r3, r7, #27
 1746 0114 07F11602 		add	r2, r7, #22
 1747 0118 07F11801 		add	r1, r7, #24
 1748 011c FFF7FEFF 		bl	decomp
 330:main.c        ****         sprintf(buf,"  Pres=%c%d.%02d mb\r\n", s, vi, vf);
 1749              		.loc 1 330 0 discriminator 4
 1750 0120 FB7E     		ldrb	r3, [r7, #27]	@ zero_extendqisi2
 1751 0122 1A46     		mov	r2, r3
 1752 0124 B7F91830 		ldrsh	r3, [r7, #24]
 1753 0128 1946     		mov	r1, r3
 1754 012a B7F91630 		ldrsh	r3, [r7, #22]
 1755 012e 07F11C00 		add	r0, r7, #28
 1756 0132 0093     		str	r3, [sp]
 1757 0134 0B46     		mov	r3, r1
 1758 0136 0B49     		ldr	r1, .L112+24
 1759 0138 FFF7FEFF 		bl	sprintf
 331:main.c        ****         UART_1_PutString(buf);
 1760              		.loc 1 331 0 discriminator 4
 1761 013c 07F11C03 		add	r3, r7, #28
 1762 0140 1846     		mov	r0, r3
 1763 0142 FFF7FEFF 		bl	UART_1_PutString
 1764              	.L104:
ARM GAS  C:\Users\JENNEW~1\AppData\Local\Temp\ccFpxs5T.s 			page 39


 1765              	.LBE8:
 332:main.c        ****     }
 333:main.c        **** }
 1766              		.loc 1 333 0
 1767 0146 C437     		adds	r7, r7, #196
 1768              		.cfi_def_cfa_offset 20
 1769 0148 BD46     		mov	sp, r7
 1770              		.cfi_def_cfa_register 13
 1771              		@ sp needed
 1772 014a F0BD     		pop	{r4, r5, r6, r7, pc}
 1773              	.L113:
 1774              		.align	2
 1775              	.L112:
 1776 014c 8C010000 		.word	.LC16
 1777 0150 64000000 		.word	.LC7
 1778 0154 0000C842 		.word	1120403456
 1779 0158 ABAAAAAA 		.word	-1431655765
 1780 015c B4010000 		.word	.LC17
 1781 0160 00002041 		.word	1092616192
 1782 0164 E0010000 		.word	.LC18
 1783              		.cfi_endproc
 1784              	.LFE76:
 1785              		.size	print_sysstat, .-print_sysstat
 1786              		.section	.rodata
 1787 01f6 0000     		.align	2
 1788              	.LC19:
 1789 01f8 0D0A5B51 		.ascii	"\015\012[QUERY][Mag] dt=%lums snaplen=%u\015\012\000"
 1789      55455259 
 1789      5D5B4D61 
 1789      675D2064 
 1789      743D256C 
 1790 021d 000000   		.align	2
 1791              	.LC20:
 1792 0220 2020583D 		.ascii	"  X=%d Y=%d Z=%d  hdg~=%d.%02d deg\015\012\000"
 1792      25642059 
 1792      3D256420 
 1792      5A3D2564 
 1792      20206864 
 1793              		.section	.text.print_mag,"ax",%progbits
 1794              		.align	2
 1795              		.thumb
 1796              		.thumb_func
 1797              		.type	print_mag, %function
 1798              	print_mag:
 1799              	.LFB77:
 334:main.c        **** 
 335:main.c        **** static void print_mag(const uint8_t *p, uint8_t plen, uint32_t dt)
 336:main.c        **** {
 1800              		.loc 1 336 0
 1801              		.cfi_startproc
 1802              		@ args = 0, pretend = 0, frame = 200
 1803              		@ frame_needed = 1, uses_anonymous_args = 0
 1804 0000 B0B5     		push	{r4, r5, r7, lr}
 1805              		.cfi_def_cfa_offset 16
 1806              		.cfi_offset 4, -16
 1807              		.cfi_offset 5, -12
 1808              		.cfi_offset 7, -8
ARM GAS  C:\Users\JENNEW~1\AppData\Local\Temp\ccFpxs5T.s 			page 40


 1809              		.cfi_offset 14, -4
 1810 0002 B6B0     		sub	sp, sp, #216
 1811              		.cfi_def_cfa_offset 232
 1812 0004 04AF     		add	r7, sp, #16
 1813              		.cfi_def_cfa 7, 216
 1814 0006 F860     		str	r0, [r7, #12]
 1815 0008 0B46     		mov	r3, r1
 1816 000a 7A60     		str	r2, [r7, #4]
 1817 000c FB72     		strb	r3, [r7, #11]
 337:main.c        ****     char buf[TX_BUF_SIZE];
 338:main.c        ****     sprintf(buf, "\r\n[QUERY][Mag] dt=%lums snaplen=%u\r\n",
 1818              		.loc 1 338 0
 1819 000e FB7A     		ldrb	r3, [r7, #11]	@ zero_extendqisi2
 1820 0010 07F11C00 		add	r0, r7, #28
 1821 0014 7A68     		ldr	r2, [r7, #4]
 1822 0016 4C49     		ldr	r1, .L126
 1823 0018 FFF7FEFF 		bl	sprintf
 339:main.c        ****             (unsigned long)dt, plen);
 340:main.c        ****     UART_1_PutString(buf);
 1824              		.loc 1 340 0
 1825 001c 07F11C03 		add	r3, r7, #28
 1826 0020 1846     		mov	r0, r3
 1827 0022 FFF7FEFF 		bl	UART_1_PutString
 341:main.c        ****     print_hex_dump(p, plen);
 1828              		.loc 1 341 0
 1829 0026 FB7A     		ldrb	r3, [r7, #11]	@ zero_extendqisi2
 1830 0028 1946     		mov	r1, r3
 1831 002a F868     		ldr	r0, [r7, #12]
 1832 002c FFF7FEFF 		bl	print_hex_dump
 342:main.c        ****     if (plen < 6u) { UART_1_PutString("  short\r\n"); return; }
 1833              		.loc 1 342 0
 1834 0030 FB7A     		ldrb	r3, [r7, #11]	@ zero_extendqisi2
 1835 0032 052B     		cmp	r3, #5
 1836 0034 03D8     		bhi	.L115
 1837              		.loc 1 342 0 is_stmt 0 discriminator 1
 1838 0036 4548     		ldr	r0, .L126+4
 1839 0038 FFF7FEFF 		bl	UART_1_PutString
 1840 003c 81E0     		b	.L114
 1841              	.L115:
 343:main.c        ****     int16_t x=SNAP16BE(p,plen,0), y=SNAP16BE(p,plen,2), z=SNAP16BE(p,plen,4);
 1842              		.loc 1 343 0 is_stmt 1
 1843 003e FB7A     		ldrb	r3, [r7, #11]	@ zero_extendqisi2
 1844 0040 012B     		cmp	r3, #1
 1845 0042 0AD9     		bls	.L117
 1846              		.loc 1 343 0 is_stmt 0 discriminator 1
 1847 0044 FB68     		ldr	r3, [r7, #12]
 1848 0046 1B78     		ldrb	r3, [r3]	@ zero_extendqisi2
 1849 0048 1B02     		lsls	r3, r3, #8
 1850 004a 1AB2     		sxth	r2, r3
 1851 004c FB68     		ldr	r3, [r7, #12]
 1852 004e 0133     		adds	r3, r3, #1
 1853 0050 1B78     		ldrb	r3, [r3]	@ zero_extendqisi2
 1854 0052 1BB2     		sxth	r3, r3
 1855 0054 1343     		orrs	r3, r3, r2
 1856 0056 1BB2     		sxth	r3, r3
 1857 0058 00E0     		b	.L118
 1858              	.L117:
ARM GAS  C:\Users\JENNEW~1\AppData\Local\Temp\ccFpxs5T.s 			page 41


 1859              		.loc 1 343 0 discriminator 2
 1860 005a 0023     		movs	r3, #0
 1861              	.L118:
 1862              		.loc 1 343 0 discriminator 4
 1863 005c A7F8C230 		strh	r3, [r7, #194]	@ movhi
 1864 0060 FB7A     		ldrb	r3, [r7, #11]	@ zero_extendqisi2
 1865 0062 032B     		cmp	r3, #3
 1866 0064 0BD9     		bls	.L119
 1867              		.loc 1 343 0 discriminator 5
 1868 0066 FB68     		ldr	r3, [r7, #12]
 1869 0068 0233     		adds	r3, r3, #2
 1870 006a 1B78     		ldrb	r3, [r3]	@ zero_extendqisi2
 1871 006c 1B02     		lsls	r3, r3, #8
 1872 006e 1AB2     		sxth	r2, r3
 1873 0070 FB68     		ldr	r3, [r7, #12]
 1874 0072 0333     		adds	r3, r3, #3
 1875 0074 1B78     		ldrb	r3, [r3]	@ zero_extendqisi2
 1876 0076 1BB2     		sxth	r3, r3
 1877 0078 1343     		orrs	r3, r3, r2
 1878 007a 1BB2     		sxth	r3, r3
 1879 007c 00E0     		b	.L120
 1880              	.L119:
 1881              		.loc 1 343 0 discriminator 6
 1882 007e 0023     		movs	r3, #0
 1883              	.L120:
 1884              		.loc 1 343 0 discriminator 8
 1885 0080 A7F8C030 		strh	r3, [r7, #192]	@ movhi
 1886 0084 FB7A     		ldrb	r3, [r7, #11]	@ zero_extendqisi2
 1887 0086 052B     		cmp	r3, #5
 1888 0088 0BD9     		bls	.L121
 1889              		.loc 1 343 0 discriminator 9
 1890 008a FB68     		ldr	r3, [r7, #12]
 1891 008c 0433     		adds	r3, r3, #4
 1892 008e 1B78     		ldrb	r3, [r3]	@ zero_extendqisi2
 1893 0090 1B02     		lsls	r3, r3, #8
 1894 0092 1AB2     		sxth	r2, r3
 1895 0094 FB68     		ldr	r3, [r7, #12]
 1896 0096 0533     		adds	r3, r3, #5
 1897 0098 1B78     		ldrb	r3, [r3]	@ zero_extendqisi2
 1898 009a 1BB2     		sxth	r3, r3
 1899 009c 1343     		orrs	r3, r3, r2
 1900 009e 1BB2     		sxth	r3, r3
 1901 00a0 00E0     		b	.L122
 1902              	.L121:
 1903              		.loc 1 343 0 discriminator 10
 1904 00a2 0023     		movs	r3, #0
 1905              	.L122:
 1906              		.loc 1 343 0 discriminator 12
 1907 00a4 A7F8BE30 		strh	r3, [r7, #190]	@ movhi
 344:main.c        ****     float hdg = atan2f((float)y,(float)x)*57.2958f;
 1908              		.loc 1 344 0 is_stmt 1 discriminator 12
 1909 00a8 B7F9C030 		ldrsh	r3, [r7, #192]
 1910 00ac 1846     		mov	r0, r3
 1911 00ae FFF7FEFF 		bl	__aeabi_i2f
 1912 00b2 0446     		mov	r4, r0
 1913 00b4 B7F9C230 		ldrsh	r3, [r7, #194]
 1914 00b8 1846     		mov	r0, r3
ARM GAS  C:\Users\JENNEW~1\AppData\Local\Temp\ccFpxs5T.s 			page 42


 1915 00ba FFF7FEFF 		bl	__aeabi_i2f
 1916 00be 0346     		mov	r3, r0
 1917 00c0 1946     		mov	r1, r3
 1918 00c2 2046     		mov	r0, r4
 1919 00c4 FFF7FEFF 		bl	atan2f
 1920 00c8 0346     		mov	r3, r0
 1921 00ca 2149     		ldr	r1, .L126+8
 1922 00cc 1846     		mov	r0, r3
 1923 00ce FFF7FEFF 		bl	__aeabi_fmul
 1924 00d2 0346     		mov	r3, r0
 1925 00d4 C7F8C430 		str	r3, [r7, #196]	@ float
 345:main.c        ****     if (hdg < 0.0f) hdg += 360.0f;
 1926              		.loc 1 345 0 discriminator 12
 1927 00d8 4FF00001 		mov	r1, #0
 1928 00dc D7F8C400 		ldr	r0, [r7, #196]	@ float
 1929 00e0 FFF7FEFF 		bl	__aeabi_fcmplt
 1930 00e4 0346     		mov	r3, r0
 1931 00e6 002B     		cmp	r3, #0
 1932 00e8 07D0     		beq	.L123
 1933              		.loc 1 345 0 is_stmt 0 discriminator 1
 1934 00ea 1A49     		ldr	r1, .L126+12
 1935 00ec D7F8C400 		ldr	r0, [r7, #196]	@ float
 1936 00f0 FFF7FEFF 		bl	__aeabi_fadd
 1937 00f4 0346     		mov	r3, r0
 1938 00f6 C7F8C430 		str	r3, [r7, #196]	@ float
 1939              	.L123:
 346:main.c        ****     char s; int16_t hi, hf;
 347:main.c        ****     decomp(hdg, &hi, &hf, &s);
 1940              		.loc 1 347 0 is_stmt 1
 1941 00fa 07F11B03 		add	r3, r7, #27
 1942 00fe 07F11602 		add	r2, r7, #22
 1943 0102 07F11801 		add	r1, r7, #24
 1944 0106 D7F8C400 		ldr	r0, [r7, #196]	@ float
 1945 010a FFF7FEFF 		bl	decomp
 348:main.c        ****     sprintf(buf,"  X=%d Y=%d Z=%d  hdg~=%d.%02d deg\r\n",
 1946              		.loc 1 348 0
 1947 010e B7F9C220 		ldrsh	r2, [r7, #194]
 1948 0112 B7F9C010 		ldrsh	r1, [r7, #192]
 1949 0116 B7F9BE30 		ldrsh	r3, [r7, #190]
 1950 011a B7F91800 		ldrsh	r0, [r7, #24]
 1951 011e 0446     		mov	r4, r0
 1952 0120 B7F91600 		ldrsh	r0, [r7, #22]
 1953 0124 0546     		mov	r5, r0
 1954 0126 07F11C00 		add	r0, r7, #28
 1955 012a 0295     		str	r5, [sp, #8]
 1956 012c 0194     		str	r4, [sp, #4]
 1957 012e 0093     		str	r3, [sp]
 1958 0130 0B46     		mov	r3, r1
 1959 0132 0949     		ldr	r1, .L126+16
 1960 0134 FFF7FEFF 		bl	sprintf
 349:main.c        ****             (int)x,(int)y,(int)z,(int)hi,(int)hf);
 350:main.c        ****     UART_1_PutString(buf);
 1961              		.loc 1 350 0
 1962 0138 07F11C03 		add	r3, r7, #28
 1963 013c 1846     		mov	r0, r3
 1964 013e FFF7FEFF 		bl	UART_1_PutString
 1965              	.L114:
ARM GAS  C:\Users\JENNEW~1\AppData\Local\Temp\ccFpxs5T.s 			page 43


 351:main.c        **** }
 1966              		.loc 1 351 0
 1967 0142 C837     		adds	r7, r7, #200
 1968              		.cfi_def_cfa_offset 16
 1969 0144 BD46     		mov	sp, r7
 1970              		.cfi_def_cfa_register 13
 1971              		@ sp needed
 1972 0146 B0BD     		pop	{r4, r5, r7, pc}
 1973              	.L127:
 1974              		.align	2
 1975              	.L126:
 1976 0148 F8010000 		.word	.LC19
 1977 014c 64000000 		.word	.LC7
 1978 0150 E62E6542 		.word	1113927398
 1979 0154 0000B443 		.word	1135869952
 1980 0158 20020000 		.word	.LC20
 1981              		.cfi_endproc
 1982              	.LFE77:
 1983              		.size	print_mag, .-print_mag
 1984              		.section	.rodata
 1985 0245 000000   		.align	2
 1986              	.LC21:
 1987 0248 0D0A5B51 		.ascii	"\015\012[QUERY][Plat] dt=%lums snaplen=%u\015\012\000"
 1987      55455259 
 1987      5D5B506C 
 1987      61745D20 
 1987      64743D25 
 1988 026e 0000     		.align	2
 1989              	.LC22:
 1990 0270 2020526F 		.ascii	"  Roll =%c%d.%02d  \000"
 1990      6C6C203D 
 1990      25632564 
 1990      2E253032 
 1990      64202000 
 1991              		.align	2
 1992              	.LC23:
 1993 0284 50697463 		.ascii	"Pitch=%c%d.%02d  \000"
 1993      683D2563 
 1993      25642E25 
 1993      30326420 
 1993      2000
 1994 0296 0000     		.align	2
 1995              	.LC24:
 1996 0298 5961773D 		.ascii	"Yaw=%c%d.%02d deg\015\012\000"
 1996      25632564 
 1996      2E253032 
 1996      64206465 
 1996      670D0A00 
 1997              		.align	2
 1998              	.LC25:
 1999 02ac 20202847 		.ascii	"  (GCU box, not camera)\015\012\000"
 1999      43552062 
 1999      6F782C20 
 1999      6E6F7420 
 1999      63616D65 
 2000              		.section	.text.print_platform,"ax",%progbits
 2001              		.align	2
ARM GAS  C:\Users\JENNEW~1\AppData\Local\Temp\ccFpxs5T.s 			page 44


 2002              		.thumb
 2003              		.thumb_func
 2004              		.type	print_platform, %function
 2005              	print_platform:
 2006              	.LFB78:
 352:main.c        **** 
 353:main.c        **** static void print_platform(const uint8_t *p, uint8_t plen, uint32_t dt)
 354:main.c        **** {
 2007              		.loc 1 354 0
 2008              		.cfi_startproc
 2009              		@ args = 0, pretend = 0, frame = 192
 2010              		@ frame_needed = 1, uses_anonymous_args = 0
 2011 0000 80B5     		push	{r7, lr}
 2012              		.cfi_def_cfa_offset 8
 2013              		.cfi_offset 7, -8
 2014              		.cfi_offset 14, -4
 2015 0002 B2B0     		sub	sp, sp, #200
 2016              		.cfi_def_cfa_offset 208
 2017 0004 02AF     		add	r7, sp, #8
 2018              		.cfi_def_cfa 7, 200
 2019 0006 F860     		str	r0, [r7, #12]
 2020 0008 0B46     		mov	r3, r1
 2021 000a 7A60     		str	r2, [r7, #4]
 2022 000c FB72     		strb	r3, [r7, #11]
 355:main.c        ****     char buf[TX_BUF_SIZE];
 356:main.c        ****     sprintf(buf, "\r\n[QUERY][Plat] dt=%lums snaplen=%u\r\n",
 2023              		.loc 1 356 0
 2024 000e FB7A     		ldrb	r3, [r7, #11]	@ zero_extendqisi2
 2025 0010 07F11800 		add	r0, r7, #24
 2026 0014 7A68     		ldr	r2, [r7, #4]
 2027 0016 6249     		ldr	r1, .L137
 2028 0018 FFF7FEFF 		bl	sprintf
 357:main.c        ****             (unsigned long)dt, plen);
 358:main.c        ****     UART_1_PutString(buf);
 2029              		.loc 1 358 0
 2030 001c 07F11803 		add	r3, r7, #24
 2031 0020 1846     		mov	r0, r3
 2032 0022 FFF7FEFF 		bl	UART_1_PutString
 359:main.c        ****     print_hex_dump(p, plen);
 2033              		.loc 1 359 0
 2034 0026 FB7A     		ldrb	r3, [r7, #11]	@ zero_extendqisi2
 2035 0028 1946     		mov	r1, r3
 2036 002a F868     		ldr	r0, [r7, #12]
 2037 002c FFF7FEFF 		bl	print_hex_dump
 360:main.c        ****     if (plen < 7u) { UART_1_PutString("  short\r\n"); return; }
 2038              		.loc 1 360 0
 2039 0030 FB7A     		ldrb	r3, [r7, #11]	@ zero_extendqisi2
 2040 0032 062B     		cmp	r3, #6
 2041 0034 03D8     		bhi	.L129
 2042              		.loc 1 360 0 is_stmt 0 discriminator 1
 2043 0036 5B48     		ldr	r0, .L137+4
 2044 0038 FFF7FEFF 		bl	UART_1_PutString
 2045 003c ADE0     		b	.L128
 2046              	.L129:
 361:main.c        ****     char s; int16_t vi, vf;
 362:main.c        ****     int16_t roll =SNAP16BE(p,plen,1);
 2047              		.loc 1 362 0 is_stmt 1
ARM GAS  C:\Users\JENNEW~1\AppData\Local\Temp\ccFpxs5T.s 			page 45


 2048 003e FB7A     		ldrb	r3, [r7, #11]	@ zero_extendqisi2
 2049 0040 022B     		cmp	r3, #2
 2050 0042 0BD9     		bls	.L131
 2051              		.loc 1 362 0 is_stmt 0 discriminator 1
 2052 0044 FB68     		ldr	r3, [r7, #12]
 2053 0046 0133     		adds	r3, r3, #1
 2054 0048 1B78     		ldrb	r3, [r3]	@ zero_extendqisi2
 2055 004a 1B02     		lsls	r3, r3, #8
 2056 004c 1AB2     		sxth	r2, r3
 2057 004e FB68     		ldr	r3, [r7, #12]
 2058 0050 0233     		adds	r3, r3, #2
 2059 0052 1B78     		ldrb	r3, [r3]	@ zero_extendqisi2
 2060 0054 1BB2     		sxth	r3, r3
 2061 0056 1343     		orrs	r3, r3, r2
 2062 0058 1BB2     		sxth	r3, r3
 2063 005a 00E0     		b	.L132
 2064              	.L131:
 2065              		.loc 1 362 0 discriminator 2
 2066 005c 0023     		movs	r3, #0
 2067              	.L132:
 2068              		.loc 1 362 0 discriminator 4
 2069 005e A7F8BE30 		strh	r3, [r7, #190]	@ movhi
 363:main.c        ****     int16_t pitch=SNAP16BE(p,plen,3);
 2070              		.loc 1 363 0 is_stmt 1 discriminator 4
 2071 0062 FB7A     		ldrb	r3, [r7, #11]	@ zero_extendqisi2
 2072 0064 042B     		cmp	r3, #4
 2073 0066 0BD9     		bls	.L133
 2074              		.loc 1 363 0 is_stmt 0 discriminator 1
 2075 0068 FB68     		ldr	r3, [r7, #12]
 2076 006a 0333     		adds	r3, r3, #3
 2077 006c 1B78     		ldrb	r3, [r3]	@ zero_extendqisi2
 2078 006e 1B02     		lsls	r3, r3, #8
 2079 0070 1AB2     		sxth	r2, r3
 2080 0072 FB68     		ldr	r3, [r7, #12]
 2081 0074 0433     		adds	r3, r3, #4
 2082 0076 1B78     		ldrb	r3, [r3]	@ zero_extendqisi2
 2083 0078 1BB2     		sxth	r3, r3
 2084 007a 1343     		orrs	r3, r3, r2
 2085 007c 1BB2     		sxth	r3, r3
 2086 007e 00E0     		b	.L134
 2087              	.L133:
 2088              		.loc 1 363 0 discriminator 2
 2089 0080 0023     		movs	r3, #0
 2090              	.L134:
 2091              		.loc 1 363 0 discriminator 4
 2092 0082 A7F8BC30 		strh	r3, [r7, #188]	@ movhi
 364:main.c        ****     int16_t yaw  =SNAP16BE(p,plen,5);
 2093              		.loc 1 364 0 is_stmt 1 discriminator 4
 2094 0086 FB7A     		ldrb	r3, [r7, #11]	@ zero_extendqisi2
 2095 0088 062B     		cmp	r3, #6
 2096 008a 0BD9     		bls	.L135
 2097              		.loc 1 364 0 is_stmt 0 discriminator 1
 2098 008c FB68     		ldr	r3, [r7, #12]
 2099 008e 0533     		adds	r3, r3, #5
 2100 0090 1B78     		ldrb	r3, [r3]	@ zero_extendqisi2
 2101 0092 1B02     		lsls	r3, r3, #8
 2102 0094 1AB2     		sxth	r2, r3
ARM GAS  C:\Users\JENNEW~1\AppData\Local\Temp\ccFpxs5T.s 			page 46


 2103 0096 FB68     		ldr	r3, [r7, #12]
 2104 0098 0633     		adds	r3, r3, #6
 2105 009a 1B78     		ldrb	r3, [r3]	@ zero_extendqisi2
 2106 009c 1BB2     		sxth	r3, r3
 2107 009e 1343     		orrs	r3, r3, r2
 2108 00a0 1BB2     		sxth	r3, r3
 2109 00a2 00E0     		b	.L136
 2110              	.L135:
 2111              		.loc 1 364 0 discriminator 2
 2112 00a4 0023     		movs	r3, #0
 2113              	.L136:
 2114              		.loc 1 364 0 discriminator 4
 2115 00a6 A7F8BA30 		strh	r3, [r7, #186]	@ movhi
 365:main.c        ****     decomp((float)roll /100.0f,&vi,&vf,&s);
 2116              		.loc 1 365 0 is_stmt 1 discriminator 4
 2117 00aa B7F9BE30 		ldrsh	r3, [r7, #190]
 2118 00ae 1846     		mov	r0, r3
 2119 00b0 FFF7FEFF 		bl	__aeabi_i2f
 2120 00b4 0346     		mov	r3, r0
 2121 00b6 3C49     		ldr	r1, .L137+8
 2122 00b8 1846     		mov	r0, r3
 2123 00ba FFF7FEFF 		bl	__aeabi_fdiv
 2124 00be 0346     		mov	r3, r0
 2125 00c0 1846     		mov	r0, r3
 2126 00c2 07F11703 		add	r3, r7, #23
 2127 00c6 07F11202 		add	r2, r7, #18
 2128 00ca 07F11401 		add	r1, r7, #20
 2129 00ce FFF7FEFF 		bl	decomp
 366:main.c        ****     sprintf(buf,"  Roll =%c%d.%02d  ",s,vi,vf); UART_1_PutString(buf);
 2130              		.loc 1 366 0 discriminator 4
 2131 00d2 FB7D     		ldrb	r3, [r7, #23]	@ zero_extendqisi2
 2132 00d4 1A46     		mov	r2, r3
 2133 00d6 B7F91430 		ldrsh	r3, [r7, #20]
 2134 00da 1946     		mov	r1, r3
 2135 00dc B7F91230 		ldrsh	r3, [r7, #18]
 2136 00e0 07F11800 		add	r0, r7, #24
 2137 00e4 0093     		str	r3, [sp]
 2138 00e6 0B46     		mov	r3, r1
 2139 00e8 3049     		ldr	r1, .L137+12
 2140 00ea FFF7FEFF 		bl	sprintf
 2141 00ee 07F11803 		add	r3, r7, #24
 2142 00f2 1846     		mov	r0, r3
 2143 00f4 FFF7FEFF 		bl	UART_1_PutString
 367:main.c        ****     decomp((float)pitch/100.0f,&vi,&vf,&s);
 2144              		.loc 1 367 0 discriminator 4
 2145 00f8 B7F9BC30 		ldrsh	r3, [r7, #188]
 2146 00fc 1846     		mov	r0, r3
 2147 00fe FFF7FEFF 		bl	__aeabi_i2f
 2148 0102 0346     		mov	r3, r0
 2149 0104 2849     		ldr	r1, .L137+8
 2150 0106 1846     		mov	r0, r3
 2151 0108 FFF7FEFF 		bl	__aeabi_fdiv
 2152 010c 0346     		mov	r3, r0
 2153 010e 1846     		mov	r0, r3
 2154 0110 07F11703 		add	r3, r7, #23
 2155 0114 07F11202 		add	r2, r7, #18
 2156 0118 07F11401 		add	r1, r7, #20
ARM GAS  C:\Users\JENNEW~1\AppData\Local\Temp\ccFpxs5T.s 			page 47


 2157 011c FFF7FEFF 		bl	decomp
 368:main.c        ****     sprintf(buf,"Pitch=%c%d.%02d  ",s,vi,vf); UART_1_PutString(buf);
 2158              		.loc 1 368 0 discriminator 4
 2159 0120 FB7D     		ldrb	r3, [r7, #23]	@ zero_extendqisi2
 2160 0122 1A46     		mov	r2, r3
 2161 0124 B7F91430 		ldrsh	r3, [r7, #20]
 2162 0128 1946     		mov	r1, r3
 2163 012a B7F91230 		ldrsh	r3, [r7, #18]
 2164 012e 07F11800 		add	r0, r7, #24
 2165 0132 0093     		str	r3, [sp]
 2166 0134 0B46     		mov	r3, r1
 2167 0136 1E49     		ldr	r1, .L137+16
 2168 0138 FFF7FEFF 		bl	sprintf
 2169 013c 07F11803 		add	r3, r7, #24
 2170 0140 1846     		mov	r0, r3
 2171 0142 FFF7FEFF 		bl	UART_1_PutString
 369:main.c        ****     decomp((float)yaw  /100.0f,&vi,&vf,&s);
 2172              		.loc 1 369 0 discriminator 4
 2173 0146 B7F9BA30 		ldrsh	r3, [r7, #186]
 2174 014a 1846     		mov	r0, r3
 2175 014c FFF7FEFF 		bl	__aeabi_i2f
 2176 0150 0346     		mov	r3, r0
 2177 0152 1549     		ldr	r1, .L137+8
 2178 0154 1846     		mov	r0, r3
 2179 0156 FFF7FEFF 		bl	__aeabi_fdiv
 2180 015a 0346     		mov	r3, r0
 2181 015c 1846     		mov	r0, r3
 2182 015e 07F11703 		add	r3, r7, #23
 2183 0162 07F11202 		add	r2, r7, #18
 2184 0166 07F11401 		add	r1, r7, #20
 2185 016a FFF7FEFF 		bl	decomp
 370:main.c        ****     sprintf(buf,"Yaw=%c%d.%02d deg\r\n",s,vi,vf); UART_1_PutString(buf);
 2186              		.loc 1 370 0 discriminator 4
 2187 016e FB7D     		ldrb	r3, [r7, #23]	@ zero_extendqisi2
 2188 0170 1A46     		mov	r2, r3
 2189 0172 B7F91430 		ldrsh	r3, [r7, #20]
 2190 0176 1946     		mov	r1, r3
 2191 0178 B7F91230 		ldrsh	r3, [r7, #18]
 2192 017c 07F11800 		add	r0, r7, #24
 2193 0180 0093     		str	r3, [sp]
 2194 0182 0B46     		mov	r3, r1
 2195 0184 0B49     		ldr	r1, .L137+20
 2196 0186 FFF7FEFF 		bl	sprintf
 2197 018a 07F11803 		add	r3, r7, #24
 2198 018e 1846     		mov	r0, r3
 2199 0190 FFF7FEFF 		bl	UART_1_PutString
 371:main.c        ****     UART_1_PutString("  (GCU box, not camera)\r\n");
 2200              		.loc 1 371 0 discriminator 4
 2201 0194 0848     		ldr	r0, .L137+24
 2202 0196 FFF7FEFF 		bl	UART_1_PutString
 2203              	.L128:
 372:main.c        **** }
 2204              		.loc 1 372 0
 2205 019a C037     		adds	r7, r7, #192
 2206              		.cfi_def_cfa_offset 8
 2207 019c BD46     		mov	sp, r7
 2208              		.cfi_def_cfa_register 13
ARM GAS  C:\Users\JENNEW~1\AppData\Local\Temp\ccFpxs5T.s 			page 48


 2209              		@ sp needed
 2210 019e 80BD     		pop	{r7, pc}
 2211              	.L138:
 2212              		.align	2
 2213              	.L137:
 2214 01a0 48020000 		.word	.LC21
 2215 01a4 64000000 		.word	.LC7
 2216 01a8 0000C842 		.word	1120403456
 2217 01ac 70020000 		.word	.LC22
 2218 01b0 84020000 		.word	.LC23
 2219 01b4 98020000 		.word	.LC24
 2220 01b8 AC020000 		.word	.LC25
 2221              		.cfi_endproc
 2222              	.LFE78:
 2223              		.size	print_platform, .-print_platform
 2224              		.section	.rodata
 2225 02c6 0000     		.align	2
 2226              	.LC26:
 2227 02c8 0D0A5B51 		.ascii	"\015\012[QUERY][Drv] dt=%lums snaplen=%u\015\012\000"
 2227      55455259 
 2227      5D5B4472 
 2227      765D2064 
 2227      743D256C 
 2228 02ed 000000   		.align	2
 2229              	.LC27:
 2230 02f0 20206F66 		.ascii	"  off8=0x%02X (device flag)\015\012\000"
 2230      66383D30 
 2230      78253032 
 2230      58202864 
 2230      65766963 
 2231 030e 0000     		.align	2
 2232              	.LC28:
 2233 0310 6E6F6E2D 		.ascii	"non-zero: active\000"
 2233      7A65726F 
 2233      3A206163 
 2233      74697665 
 2233      00
 2234 0321 000000   		.align	2
 2235              	.LC29:
 2236 0324 616C6C20 		.ascii	"all zero: idle\000"
 2236      7A65726F 
 2236      3A206964 
 2236      6C6500
 2237 0333 00       		.align	2
 2238              	.LC30:
 2239 0334 20206F66 		.ascii	"  off9-13: %02X %02X %02X %02X %02X  %s\015\012\000"
 2239      66392D31 
 2239      333A2025 
 2239      30325820 
 2239      25303258 
 2240              		.section	.text.print_motor,"ax",%progbits
 2241              		.align	2
 2242              		.thumb
 2243              		.thumb_func
 2244              		.type	print_motor, %function
 2245              	print_motor:
 2246              	.LFB79:
ARM GAS  C:\Users\JENNEW~1\AppData\Local\Temp\ccFpxs5T.s 			page 49


 373:main.c        **** 
 374:main.c        **** static void print_motor(const uint8_t *p, uint8_t plen, uint32_t dt)
 375:main.c        **** {
 2247              		.loc 1 375 0
 2248              		.cfi_startproc
 2249              		@ args = 0, pretend = 0, frame = 184
 2250              		@ frame_needed = 1, uses_anonymous_args = 0
 2251 0000 F0B5     		push	{r4, r5, r6, r7, lr}
 2252              		.cfi_def_cfa_offset 20
 2253              		.cfi_offset 4, -20
 2254              		.cfi_offset 5, -16
 2255              		.cfi_offset 6, -12
 2256              		.cfi_offset 7, -8
 2257              		.cfi_offset 14, -4
 2258 0002 B3B0     		sub	sp, sp, #204
 2259              		.cfi_def_cfa_offset 224
 2260 0004 04AF     		add	r7, sp, #16
 2261              		.cfi_def_cfa 7, 208
 2262 0006 F860     		str	r0, [r7, #12]
 2263 0008 0B46     		mov	r3, r1
 2264 000a 7A60     		str	r2, [r7, #4]
 2265 000c FB72     		strb	r3, [r7, #11]
 376:main.c        ****     char buf[TX_BUF_SIZE];
 377:main.c        ****     sprintf(buf, "\r\n[QUERY][Drv] dt=%lums snaplen=%u\r\n",
 2266              		.loc 1 377 0
 2267 000e FB7A     		ldrb	r3, [r7, #11]	@ zero_extendqisi2
 2268 0010 07F11400 		add	r0, r7, #20
 2269 0014 7A68     		ldr	r2, [r7, #4]
 2270 0016 3749     		ldr	r1, .L149
 2271 0018 FFF7FEFF 		bl	sprintf
 378:main.c        ****             (unsigned long)dt, plen);
 379:main.c        ****     UART_1_PutString(buf);
 2272              		.loc 1 379 0
 2273 001c 07F11403 		add	r3, r7, #20
 2274 0020 1846     		mov	r0, r3
 2275 0022 FFF7FEFF 		bl	UART_1_PutString
 380:main.c        ****     print_hex_dump(p, plen);
 2276              		.loc 1 380 0
 2277 0026 FB7A     		ldrb	r3, [r7, #11]	@ zero_extendqisi2
 2278 0028 1946     		mov	r1, r3
 2279 002a F868     		ldr	r0, [r7, #12]
 2280 002c FFF7FEFF 		bl	print_hex_dump
 381:main.c        ****     if (plen < 9u) { UART_1_PutString("  short\r\n"); return; }
 2281              		.loc 1 381 0
 2282 0030 FB7A     		ldrb	r3, [r7, #11]	@ zero_extendqisi2
 2283 0032 082B     		cmp	r3, #8
 2284 0034 03D8     		bhi	.L140
 2285              		.loc 1 381 0 is_stmt 0 discriminator 1
 2286 0036 3048     		ldr	r0, .L149+4
 2287 0038 FFF7FEFF 		bl	UART_1_PutString
 2288 003c 57E0     		b	.L139
 2289              	.L140:
 382:main.c        ****     sprintf(buf,"  off8=0x%02X (device flag)\r\n",(unsigned)p[8]);
 2290              		.loc 1 382 0 is_stmt 1
 2291 003e FB68     		ldr	r3, [r7, #12]
 2292 0040 0833     		adds	r3, r3, #8
 2293 0042 1B78     		ldrb	r3, [r3]	@ zero_extendqisi2
ARM GAS  C:\Users\JENNEW~1\AppData\Local\Temp\ccFpxs5T.s 			page 50


 2294 0044 1A46     		mov	r2, r3
 2295 0046 07F11403 		add	r3, r7, #20
 2296 004a 2C49     		ldr	r1, .L149+8
 2297 004c 1846     		mov	r0, r3
 2298 004e FFF7FEFF 		bl	sprintf
 383:main.c        ****     UART_1_PutString(buf);
 2299              		.loc 1 383 0
 2300 0052 07F11403 		add	r3, r7, #20
 2301 0056 1846     		mov	r0, r3
 2302 0058 FFF7FEFF 		bl	UART_1_PutString
 384:main.c        ****     if (plen >= 14u) {
 2303              		.loc 1 384 0
 2304 005c FB7A     		ldrb	r3, [r7, #11]	@ zero_extendqisi2
 2305 005e 0D2B     		cmp	r3, #13
 2306 0060 45D9     		bls	.L139
 2307              	.LBB9:
 385:main.c        ****         uint8_t any = 0u, i;
 2308              		.loc 1 385 0
 2309 0062 0023     		movs	r3, #0
 2310 0064 87F8B730 		strb	r3, [r7, #183]
 386:main.c        ****         for (i=9u;i<=13u;i++) if(p[i]) { any=1u; break; }
 2311              		.loc 1 386 0
 2312 0068 0923     		movs	r3, #9
 2313 006a 87F8B630 		strb	r3, [r7, #182]
 2314 006e 0FE0     		b	.L143
 2315              	.L146:
 2316              		.loc 1 386 0 is_stmt 0 discriminator 5
 2317 0070 97F8B630 		ldrb	r3, [r7, #182]	@ zero_extendqisi2
 2318 0074 FA68     		ldr	r2, [r7, #12]
 2319 0076 1344     		add	r3, r3, r2
 2320 0078 1B78     		ldrb	r3, [r3]	@ zero_extendqisi2
 2321 007a 002B     		cmp	r3, #0
 2322 007c 03D0     		beq	.L144
 2323              		.loc 1 386 0 discriminator 2
 2324 007e 0123     		movs	r3, #1
 2325 0080 87F8B730 		strb	r3, [r7, #183]
 2326 0084 08E0     		b	.L145
 2327              	.L144:
 2328              		.loc 1 386 0 discriminator 3
 2329 0086 97F8B630 		ldrb	r3, [r7, #182]	@ zero_extendqisi2
 2330 008a 0133     		adds	r3, r3, #1
 2331 008c 87F8B630 		strb	r3, [r7, #182]
 2332              	.L143:
 2333              		.loc 1 386 0 discriminator 4
 2334 0090 97F8B630 		ldrb	r3, [r7, #182]	@ zero_extendqisi2
 2335 0094 0D2B     		cmp	r3, #13
 2336 0096 EBD9     		bls	.L146
 2337              	.L145:
 387:main.c        ****         sprintf(buf,"  off9-13: %02X %02X %02X %02X %02X  %s\r\n",
 388:main.c        ****                 p[9],p[10],p[11],p[12],p[13],
 2338              		.loc 1 388 0 is_stmt 1
 2339 0098 FB68     		ldr	r3, [r7, #12]
 2340 009a 0933     		adds	r3, r3, #9
 2341 009c 1B78     		ldrb	r3, [r3]	@ zero_extendqisi2
 387:main.c        ****         sprintf(buf,"  off9-13: %02X %02X %02X %02X %02X  %s\r\n",
 2342              		.loc 1 387 0
 2343 009e 1D46     		mov	r5, r3
ARM GAS  C:\Users\JENNEW~1\AppData\Local\Temp\ccFpxs5T.s 			page 51


 2344              		.loc 1 388 0
 2345 00a0 FB68     		ldr	r3, [r7, #12]
 2346 00a2 0A33     		adds	r3, r3, #10
 2347 00a4 1B78     		ldrb	r3, [r3]	@ zero_extendqisi2
 387:main.c        ****         sprintf(buf,"  off9-13: %02X %02X %02X %02X %02X  %s\r\n",
 2348              		.loc 1 387 0
 2349 00a6 1E46     		mov	r6, r3
 2350              		.loc 1 388 0
 2351 00a8 FB68     		ldr	r3, [r7, #12]
 2352 00aa 0B33     		adds	r3, r3, #11
 2353 00ac 1B78     		ldrb	r3, [r3]	@ zero_extendqisi2
 387:main.c        ****         sprintf(buf,"  off9-13: %02X %02X %02X %02X %02X  %s\r\n",
 2354              		.loc 1 387 0
 2355 00ae 1A46     		mov	r2, r3
 2356              		.loc 1 388 0
 2357 00b0 FB68     		ldr	r3, [r7, #12]
 2358 00b2 0C33     		adds	r3, r3, #12
 2359 00b4 1B78     		ldrb	r3, [r3]	@ zero_extendqisi2
 387:main.c        ****         sprintf(buf,"  off9-13: %02X %02X %02X %02X %02X  %s\r\n",
 2360              		.loc 1 387 0
 2361 00b6 1946     		mov	r1, r3
 2362              		.loc 1 388 0
 2363 00b8 FB68     		ldr	r3, [r7, #12]
 2364 00ba 0D33     		adds	r3, r3, #13
 2365 00bc 1B78     		ldrb	r3, [r3]	@ zero_extendqisi2
 387:main.c        ****         sprintf(buf,"  off9-13: %02X %02X %02X %02X %02X  %s\r\n",
 2366              		.loc 1 387 0
 2367 00be 1C46     		mov	r4, r3
 2368 00c0 97F8B730 		ldrb	r3, [r7, #183]	@ zero_extendqisi2
 2369 00c4 002B     		cmp	r3, #0
 2370 00c6 01D0     		beq	.L147
 387:main.c        ****         sprintf(buf,"  off9-13: %02X %02X %02X %02X %02X  %s\r\n",
 2371              		.loc 1 387 0 is_stmt 0 discriminator 1
 2372 00c8 0D4B     		ldr	r3, .L149+12
 2373 00ca 00E0     		b	.L148
 2374              	.L147:
 387:main.c        ****         sprintf(buf,"  off9-13: %02X %02X %02X %02X %02X  %s\r\n",
 2375              		.loc 1 387 0 discriminator 2
 2376 00cc 0D4B     		ldr	r3, .L149+16
 2377              	.L148:
 387:main.c        ****         sprintf(buf,"  off9-13: %02X %02X %02X %02X %02X  %s\r\n",
 2378              		.loc 1 387 0 discriminator 4
 2379 00ce 07F11400 		add	r0, r7, #20
 2380 00d2 0393     		str	r3, [sp, #12]
 2381 00d4 0294     		str	r4, [sp, #8]
 2382 00d6 0191     		str	r1, [sp, #4]
 2383 00d8 0092     		str	r2, [sp]
 2384 00da 3346     		mov	r3, r6
 2385 00dc 2A46     		mov	r2, r5
 2386 00de 0A49     		ldr	r1, .L149+20
 2387 00e0 FFF7FEFF 		bl	sprintf
 389:main.c        ****                 any ? "non-zero: active" : "all zero: idle");
 390:main.c        ****         UART_1_PutString(buf);
 2388              		.loc 1 390 0 is_stmt 1 discriminator 4
 2389 00e4 07F11403 		add	r3, r7, #20
 2390 00e8 1846     		mov	r0, r3
 2391 00ea FFF7FEFF 		bl	UART_1_PutString
ARM GAS  C:\Users\JENNEW~1\AppData\Local\Temp\ccFpxs5T.s 			page 52


 2392              	.L139:
 2393              	.LBE9:
 391:main.c        ****     }
 392:main.c        **** }
 2394              		.loc 1 392 0
 2395 00ee BC37     		adds	r7, r7, #188
 2396              		.cfi_def_cfa_offset 20
 2397 00f0 BD46     		mov	sp, r7
 2398              		.cfi_def_cfa_register 13
 2399              		@ sp needed
 2400 00f2 F0BD     		pop	{r4, r5, r6, r7, pc}
 2401              	.L150:
 2402              		.align	2
 2403              	.L149:
 2404 00f4 C8020000 		.word	.LC26
 2405 00f8 64000000 		.word	.LC7
 2406 00fc F0020000 		.word	.LC27
 2407 0100 10030000 		.word	.LC28
 2408 0104 24030000 		.word	.LC29
 2409 0108 34030000 		.word	.LC30
 2410              		.cfi_endproc
 2411              	.LFE79:
 2412              		.size	print_motor, .-print_motor
 2413              		.section	.rodata
 2414 035e 0000     		.align	2
 2415              	.LC31:
 2416 0360 5B515545 		.ascii	"[QUERY] attr=%u -- no printer\015\012\000"
 2416      52595D20 
 2416      61747472 
 2416      3D257520 
 2416      2D2D206E 
 2417              		.section	.text.print_query_response,"ax",%progbits
 2418              		.align	2
 2419              		.thumb
 2420              		.thumb_func
 2421              		.type	print_query_response, %function
 2422              	print_query_response:
 2423              	.LFB80:
 393:main.c        **** 
 394:main.c        **** static void print_query_response(uint32_t dt)
 395:main.c        **** {
 2424              		.loc 1 395 0
 2425              		.cfi_startproc
 2426              		@ args = 0, pretend = 0, frame = 88
 2427              		@ frame_needed = 1, uses_anonymous_args = 0
 2428 0000 80B5     		push	{r7, lr}
 2429              		.cfi_def_cfa_offset 8
 2430              		.cfi_offset 7, -8
 2431              		.cfi_offset 14, -4
 2432 0002 96B0     		sub	sp, sp, #88
 2433              		.cfi_def_cfa_offset 96
 2434 0004 00AF     		add	r7, sp, #0
 2435              		.cfi_def_cfa_register 7
 2436 0006 7860     		str	r0, [r7, #4]
 396:main.c        ****     uint16_t attr = g_movi.pending_response_attr;
 2437              		.loc 1 396 0
 2438 0008 5F4B     		ldr	r3, .L162
ARM GAS  C:\Users\JENNEW~1\AppData\Local\Temp\ccFpxs5T.s 			page 53


 2439 000a B3F83A33 		ldrh	r3, [r3, #826]	@ movhi
 2440 000e A7F85630 		strh	r3, [r7, #86]	@ movhi
 397:main.c        ****     const uint8_t *p = g_movi.pending_payload;
 2441              		.loc 1 397 0
 2442 0012 5E4B     		ldr	r3, .L162+4
 2443 0014 3B65     		str	r3, [r7, #80]
 398:main.c        ****     uint8_t plen = g_movi.pending_payload_len;
 2444              		.loc 1 398 0
 2445 0016 5C4B     		ldr	r3, .L162
 2446 0018 93F87E33 		ldrb	r3, [r3, #894]
 2447 001c 87F84F30 		strb	r3, [r7, #79]
 399:main.c        ****     switch (attr) {
 2448              		.loc 1 399 0
 2449 0020 B7F85630 		ldrh	r3, [r7, #86]
 2450 0024 013B     		subs	r3, r3, #1
 2451 0026 2F2B     		cmp	r3, #47
 2452 0028 00F29C80 		bhi	.L152
 2453 002c 01A2     		adr	r2, .L154
 2454 002e 52F823F0 		ldr	pc, [r2, r3, lsl #2]
 2455 0032 00BF     		.p2align 2
 2456              	.L154:
 2457 0034 25010000 		.word	.L153+1
 2458 0038 45010000 		.word	.L155+1
 2459 003c 15010000 		.word	.L156+1
 2460 0040 05010000 		.word	.L157+1
 2461 0044 65010000 		.word	.L152+1
 2462 0048 65010000 		.word	.L152+1
 2463 004c 65010000 		.word	.L152+1
 2464 0050 65010000 		.word	.L152+1
 2465 0054 65010000 		.word	.L152+1
 2466 0058 65010000 		.word	.L152+1
 2467 005c 65010000 		.word	.L152+1
 2468 0060 35010000 		.word	.L158+1
 2469 0064 65010000 		.word	.L152+1
 2470 0068 65010000 		.word	.L152+1
 2471 006c 65010000 		.word	.L152+1
 2472 0070 65010000 		.word	.L152+1
 2473 0074 65010000 		.word	.L152+1
 2474 0078 65010000 		.word	.L152+1
 2475 007c 65010000 		.word	.L152+1
 2476 0080 65010000 		.word	.L152+1
 2477 0084 65010000 		.word	.L152+1
 2478 0088 F5000000 		.word	.L159+1
 2479 008c 65010000 		.word	.L152+1
 2480 0090 65010000 		.word	.L152+1
 2481 0094 65010000 		.word	.L152+1
 2482 0098 65010000 		.word	.L152+1
 2483 009c 65010000 		.word	.L152+1
 2484 00a0 65010000 		.word	.L152+1
 2485 00a4 65010000 		.word	.L152+1
 2486 00a8 65010000 		.word	.L152+1
 2487 00ac 65010000 		.word	.L152+1
 2488 00b0 65010000 		.word	.L152+1
 2489 00b4 65010000 		.word	.L152+1
 2490 00b8 65010000 		.word	.L152+1
 2491 00bc 65010000 		.word	.L152+1
 2492 00c0 65010000 		.word	.L152+1
ARM GAS  C:\Users\JENNEW~1\AppData\Local\Temp\ccFpxs5T.s 			page 54


 2493 00c4 65010000 		.word	.L152+1
 2494 00c8 65010000 		.word	.L152+1
 2495 00cc 65010000 		.word	.L152+1
 2496 00d0 65010000 		.word	.L152+1
 2497 00d4 65010000 		.word	.L152+1
 2498 00d8 65010000 		.word	.L152+1
 2499 00dc 65010000 		.word	.L152+1
 2500 00e0 65010000 		.word	.L152+1
 2501 00e4 65010000 		.word	.L152+1
 2502 00e8 65010000 		.word	.L152+1
 2503 00ec 65010000 		.word	.L152+1
 2504 00f0 55010000 		.word	.L160+1
 2505              		.p2align 1
 2506              	.L159:
 400:main.c        ****         case 22u: print_att(p, plen, dt);      break;
 2507              		.loc 1 400 0
 2508 00f4 97F84F30 		ldrb	r3, [r7, #79]	@ zero_extendqisi2
 2509 00f8 7A68     		ldr	r2, [r7, #4]
 2510 00fa 1946     		mov	r1, r3
 2511 00fc 386D     		ldr	r0, [r7, #80]
 2512 00fe FFF7FEFF 		bl	print_att
 2513 0102 3CE0     		b	.L161
 2514              	.L157:
 401:main.c        ****         case  4u: print_gps(p, plen, dt);      break;
 2515              		.loc 1 401 0
 2516 0104 97F84F30 		ldrb	r3, [r7, #79]	@ zero_extendqisi2
 2517 0108 7A68     		ldr	r2, [r7, #4]
 2518 010a 1946     		mov	r1, r3
 2519 010c 386D     		ldr	r0, [r7, #80]
 2520 010e FFF7FEFF 		bl	print_gps
 2521 0112 34E0     		b	.L161
 2522              	.L156:
 402:main.c        ****         case  3u: print_baro(p, plen, dt);     break;
 2523              		.loc 1 402 0
 2524 0114 97F84F30 		ldrb	r3, [r7, #79]	@ zero_extendqisi2
 2525 0118 7A68     		ldr	r2, [r7, #4]
 2526 011a 1946     		mov	r1, r3
 2527 011c 386D     		ldr	r0, [r7, #80]
 2528 011e FFF7FEFF 		bl	print_baro
 2529 0122 2CE0     		b	.L161
 2530              	.L153:
 403:main.c        ****         case  1u: print_sysstat(p, plen, dt);  break;
 2531              		.loc 1 403 0
 2532 0124 97F84F30 		ldrb	r3, [r7, #79]	@ zero_extendqisi2
 2533 0128 7A68     		ldr	r2, [r7, #4]
 2534 012a 1946     		mov	r1, r3
 2535 012c 386D     		ldr	r0, [r7, #80]
 2536 012e FFF7FEFF 		bl	print_sysstat
 2537 0132 24E0     		b	.L161
 2538              	.L158:
 404:main.c        ****         case 12u: print_mag(p, plen, dt);      break;
 2539              		.loc 1 404 0
 2540 0134 97F84F30 		ldrb	r3, [r7, #79]	@ zero_extendqisi2
 2541 0138 7A68     		ldr	r2, [r7, #4]
 2542 013a 1946     		mov	r1, r3
 2543 013c 386D     		ldr	r0, [r7, #80]
 2544 013e FFF7FEFF 		bl	print_mag
ARM GAS  C:\Users\JENNEW~1\AppData\Local\Temp\ccFpxs5T.s 			page 55


 2545 0142 1CE0     		b	.L161
 2546              	.L155:
 405:main.c        ****         case  2u: print_platform(p, plen, dt); break;
 2547              		.loc 1 405 0
 2548 0144 97F84F30 		ldrb	r3, [r7, #79]	@ zero_extendqisi2
 2549 0148 7A68     		ldr	r2, [r7, #4]
 2550 014a 1946     		mov	r1, r3
 2551 014c 386D     		ldr	r0, [r7, #80]
 2552 014e FFF7FEFF 		bl	print_platform
 2553 0152 14E0     		b	.L161
 2554              	.L160:
 406:main.c        ****         case 48u: print_motor(p, plen, dt);    break;
 2555              		.loc 1 406 0
 2556 0154 97F84F30 		ldrb	r3, [r7, #79]	@ zero_extendqisi2
 2557 0158 7A68     		ldr	r2, [r7, #4]
 2558 015a 1946     		mov	r1, r3
 2559 015c 386D     		ldr	r0, [r7, #80]
 2560 015e FFF7FEFF 		bl	print_motor
 2561 0162 0CE0     		b	.L161
 2562              	.L152:
 2563              	.LBB10:
 407:main.c        ****         default: {
 408:main.c        ****             char buf[64];
 409:main.c        ****             sprintf(buf, "[QUERY] attr=%u -- no printer\r\n", (unsigned)attr);
 2564              		.loc 1 409 0
 2565 0164 B7F85620 		ldrh	r2, [r7, #86]
 2566 0168 07F10C03 		add	r3, r7, #12
 2567 016c 0849     		ldr	r1, .L162+8
 2568 016e 1846     		mov	r0, r3
 2569 0170 FFF7FEFF 		bl	sprintf
 410:main.c        ****             UART_1_PutString(buf);
 2570              		.loc 1 410 0
 2571 0174 07F10C03 		add	r3, r7, #12
 2572 0178 1846     		mov	r0, r3
 2573 017a FFF7FEFF 		bl	UART_1_PutString
 2574              	.L161:
 2575              	.LBE10:
 411:main.c        ****         }
 412:main.c        ****     }
 413:main.c        **** }
 2576              		.loc 1 413 0
 2577 017e 00BF     		nop
 2578 0180 5837     		adds	r7, r7, #88
 2579              		.cfi_def_cfa_offset 8
 2580 0182 BD46     		mov	sp, r7
 2581              		.cfi_def_cfa_register 13
 2582              		@ sp needed
 2583 0184 80BD     		pop	{r7, pc}
 2584              	.L163:
 2585 0186 00BF     		.align	2
 2586              	.L162:
 2587 0188 00000000 		.word	g_movi
 2588 018c 3E030000 		.word	g_movi+830
 2589 0190 60030000 		.word	.LC31
 2590              		.cfi_endproc
 2591              	.LFE80:
 2592              		.size	print_query_response, .-print_query_response
ARM GAS  C:\Users\JENNEW~1\AppData\Local\Temp\ccFpxs5T.s 			page 56


 2593              		.section	.rodata
 2594              		.align	2
 2595              	.LC32:
 2596 0380 5B434C49 		.ascii	"[CLI] Kill sent\015\012\000"
 2596      5D204B69 
 2596      6C6C2073 
 2596      656E740D 
 2596      0A00
 2597 0392 0000     		.align	2
 2598              	.LC33:
 2599 0394 5B434C49 		.ascii	"[CLI] Stopped -> STANDBY\015\012\000"
 2599      5D205374 
 2599      6F707065 
 2599      64202D3E 
 2599      20535441 
 2600              		.section	.text.do_kill,"ax",%progbits
 2601              		.align	2
 2602              		.thumb
 2603              		.thumb_func
 2604              		.type	do_kill, %function
 2605              	do_kill:
 2606              	.LFB81:
 414:main.c        **** 
 415:main.c        **** /* =========================================================================
 416:main.c        ****  * Kill helper
 417:main.c        ****  * ========================================================================= */
 418:main.c        **** static void do_kill(app_mode_t *mode, uint8_t *joy_active,
 419:main.c        ****                     uint8_t *streaming, hamfly_control_mode_t *ctrl_mode)
 420:main.c        **** {
 2607              		.loc 1 420 0
 2608              		.cfi_startproc
 2609              		@ args = 0, pretend = 0, frame = 16
 2610              		@ frame_needed = 1, uses_anonymous_args = 0
 2611 0000 80B5     		push	{r7, lr}
 2612              		.cfi_def_cfa_offset 8
 2613              		.cfi_offset 7, -8
 2614              		.cfi_offset 14, -4
 2615 0002 84B0     		sub	sp, sp, #16
 2616              		.cfi_def_cfa_offset 24
 2617 0004 00AF     		add	r7, sp, #0
 2618              		.cfi_def_cfa_register 7
 2619 0006 F860     		str	r0, [r7, #12]
 2620 0008 B960     		str	r1, [r7, #8]
 2621 000a 7A60     		str	r2, [r7, #4]
 2622 000c 3B60     		str	r3, [r7]
 421:main.c        ****     if (*mode == APP_MODE_CONTROL || *mode == APP_MODE_NUDGE) {
 2623              		.loc 1 421 0
 2624 000e FB68     		ldr	r3, [r7, #12]
 2625 0010 1B78     		ldrb	r3, [r3]	@ zero_extendqisi2
 2626 0012 012B     		cmp	r3, #1
 2627 0014 03D0     		beq	.L165
 2628              		.loc 1 421 0 is_stmt 0 discriminator 1
 2629 0016 FB68     		ldr	r3, [r7, #12]
 2630 0018 1B78     		ldrb	r3, [r3]	@ zero_extendqisi2
 2631 001a 032B     		cmp	r3, #3
 2632 001c 05D1     		bne	.L166
 2633              	.L165:
ARM GAS  C:\Users\JENNEW~1\AppData\Local\Temp\ccFpxs5T.s 			page 57


 422:main.c        ****         hamfly_kill(&g_movi);
 2634              		.loc 1 422 0 is_stmt 1
 2635 001e 0E48     		ldr	r0, .L167
 2636 0020 FFF7FEFF 		bl	hamfly_kill
 423:main.c        ****         UART_1_PutString("[CLI] Kill sent\r\n");
 2637              		.loc 1 423 0
 2638 0024 0D48     		ldr	r0, .L167+4
 2639 0026 FFF7FEFF 		bl	UART_1_PutString
 2640              	.L166:
 424:main.c        ****     }
 425:main.c        ****     *joy_active = FALSE;
 2641              		.loc 1 425 0
 2642 002a BB68     		ldr	r3, [r7, #8]
 2643 002c 0022     		movs	r2, #0
 2644 002e 1A70     		strb	r2, [r3]
 426:main.c        ****     *mode       = APP_MODE_STANDBY;
 2645              		.loc 1 426 0
 2646 0030 FB68     		ldr	r3, [r7, #12]
 2647 0032 0022     		movs	r2, #0
 2648 0034 1A70     		strb	r2, [r3]
 427:main.c        ****     *streaming  = FALSE;
 2649              		.loc 1 427 0
 2650 0036 7B68     		ldr	r3, [r7, #4]
 2651 0038 0022     		movs	r2, #0
 2652 003a 1A70     		strb	r2, [r3]
 428:main.c        ****     *ctrl_mode  = HAMFLY_DEFER;
 2653              		.loc 1 428 0
 2654 003c 3B68     		ldr	r3, [r7]
 2655 003e 0022     		movs	r2, #0
 2656 0040 1A70     		strb	r2, [r3]
 429:main.c        ****     joystick_on_key('x');
 2657              		.loc 1 429 0
 2658 0042 7820     		movs	r0, #120
 2659 0044 FFF7FEFF 		bl	joystick_on_key
 430:main.c        ****     UART_1_PutString("[CLI] Stopped -> STANDBY\r\n");
 2660              		.loc 1 430 0
 2661 0048 0548     		ldr	r0, .L167+8
 2662 004a FFF7FEFF 		bl	UART_1_PutString
 431:main.c        **** }
 2663              		.loc 1 431 0
 2664 004e 00BF     		nop
 2665 0050 1037     		adds	r7, r7, #16
 2666              		.cfi_def_cfa_offset 8
 2667 0052 BD46     		mov	sp, r7
 2668              		.cfi_def_cfa_register 13
 2669              		@ sp needed
 2670 0054 80BD     		pop	{r7, pc}
 2671              	.L168:
 2672 0056 00BF     		.align	2
 2673              	.L167:
 2674 0058 00000000 		.word	g_movi
 2675 005c 80030000 		.word	.LC32
 2676 0060 94030000 		.word	.LC33
 2677              		.cfi_endproc
 2678              	.LFE81:
 2679              		.size	do_kill, .-do_kill
 2680              		.section	.rodata
ARM GAS  C:\Users\JENNEW~1\AppData\Local\Temp\ccFpxs5T.s 			page 58


 2681 03af 00       		.align	2
 2682              	.LC34:
 2683 03b0 0D0A5B51 		.ascii	"\015\012[QUERY] Quat vs Euler crosscheck\015\012\000"
 2683      55455259 
 2683      5D205175 
 2683      61742076 
 2683      73204575 
 2684 03d5 000000   		.align	2
 2685              	.LC35:
 2686 03d8 5B515545 		.ascii	"[QUERY] No valid telemetry -- enter CONTROL first\015"
 2686      52595D20 
 2686      4E6F2076 
 2686      616C6964 
 2686      2074656C 
 2687 040a 0A00     		.ascii	"\012\000"
 2688              		.align	2
 2689              	.LC36:
 2690 040c 2020512D 		.ascii	"  Q->Euler: Pan=%c%d.%02d Tilt=%c%d.%02d Roll=%c%d."
 2690      3E45756C 
 2690      65723A20 
 2690      50616E3D 
 2690      25632564 
 2691 043f 25303264 		.ascii	"%02d\015\012\000"
 2691      0D0A00
 2692              		.global	__aeabi_f2d
 2693 0446 0000     		.align	2
 2694              	.LC37:
 2695 0448 20205261 		.ascii	"  Raw: R=%.4f I=%.4f J=%.4f K=%.4f\015\012\000"
 2695      773A2052 
 2695      3D252E34 
 2695      6620493D 
 2695      252E3466 
 2696 046d 000000   		.align	2
 2697              	.LC38:
 2698 0470 5B515545 		.ascii	"[QUERY] Requesting attr 22 for direct Euler...\015\012"
 2698      52595D20 
 2698      52657175 
 2698      65737469 
 2698      6E672061 
 2699 04a0 00       		.ascii	"\000"
 2700              		.section	.text.print_quat_crosscheck,"ax",%progbits
 2701              		.align	2
 2702              		.thumb
 2703              		.thumb_func
 2704              		.type	print_quat_crosscheck, %function
 2705              	print_quat_crosscheck:
 2706              	.LFB82:
 432:main.c        **** 
 433:main.c        **** /* =========================================================================
 434:main.c        ****  * Quat crosscheck helper
 435:main.c        ****  * ========================================================================= */
 436:main.c        **** static void print_quat_crosscheck(void)
 437:main.c        **** {
 2707              		.loc 1 437 0
 2708              		.cfi_startproc
 2709              		@ args = 0, pretend = 0, frame = 424
 2710              		@ frame_needed = 1, uses_anonymous_args = 0
ARM GAS  C:\Users\JENNEW~1\AppData\Local\Temp\ccFpxs5T.s 			page 59


 2711 0000 2DE9F04F 		push	{r4, r5, r6, r7, r8, r9, r10, fp, lr}
 2712              		.cfi_def_cfa_offset 36
 2713              		.cfi_offset 4, -36
 2714              		.cfi_offset 5, -32
 2715              		.cfi_offset 6, -28
 2716              		.cfi_offset 7, -24
 2717              		.cfi_offset 8, -20
 2718              		.cfi_offset 9, -16
 2719              		.cfi_offset 10, -12
 2720              		.cfi_offset 11, -8
 2721              		.cfi_offset 14, -4
 2722 0004 F3B0     		sub	sp, sp, #460
 2723              		.cfi_def_cfa_offset 496
 2724 0006 08AF     		add	r7, sp, #32
 2725              		.cfi_def_cfa 7, 464
 438:main.c        ****     char buf[TX_BUF_SIZE];
 439:main.c        ****     hamfly_telemetry_t st;
 440:main.c        ****     hamfly_get_telemetry(&g_movi, &st);
 2726              		.loc 1 440 0
 2727 0008 07F11C03 		add	r3, r7, #28
 2728 000c 1946     		mov	r1, r3
 2729 000e 5748     		ldr	r0, .L172
 2730 0010 FFF7FEFF 		bl	hamfly_get_telemetry
 441:main.c        **** 
 442:main.c        ****     UART_1_PutString("\r\n[QUERY] Quat vs Euler crosscheck\r\n");
 2731              		.loc 1 442 0
 2732 0014 5648     		ldr	r0, .L172+4
 2733 0016 FFF7FEFF 		bl	UART_1_PutString
 443:main.c        ****     if (!st.valid) {
 2734              		.loc 1 443 0
 2735 001a 07F11C03 		add	r3, r7, #28
 2736 001e 1B78     		ldrb	r3, [r3]	@ zero_extendqisi2
 2737 0020 83F00103 		eor	r3, r3, #1
 2738 0024 DBB2     		uxtb	r3, r3
 2739 0026 002B     		cmp	r3, #0
 2740 0028 03D0     		beq	.L170
 444:main.c        ****         UART_1_PutString("[QUERY] No valid telemetry -- enter CONTROL first\r\n");
 2741              		.loc 1 444 0
 2742 002a 5248     		ldr	r0, .L172+8
 2743 002c FFF7FEFF 		bl	UART_1_PutString
 2744 0030 97E0     		b	.L169
 2745              	.L170:
 445:main.c        ****         return;
 446:main.c        ****     }
 447:main.c        ****     char ps, ts, rs;
 448:main.c        ****     int16_t pi, pf, ti, tf, ri, rf;
 449:main.c        ****     compute_euler(&st, &ps,&pi,&pf, &ts,&ti,&tf, &rs,&ri,&rf);
 2746              		.loc 1 449 0
 2747 0032 07F11404 		add	r4, r7, #20
 2748 0036 07F11602 		add	r2, r7, #22
 2749 003a 07F11B01 		add	r1, r7, #27
 2750 003e 07F11C00 		add	r0, r7, #28
 2751 0042 07F10C03 		add	r3, r7, #12
 2752 0046 0593     		str	r3, [sp, #20]
 2753 0048 07F10E03 		add	r3, r7, #14
 2754 004c 0493     		str	r3, [sp, #16]
 2755 004e 07F11903 		add	r3, r7, #25
ARM GAS  C:\Users\JENNEW~1\AppData\Local\Temp\ccFpxs5T.s 			page 60


 2756 0052 0393     		str	r3, [sp, #12]
 2757 0054 07F11003 		add	r3, r7, #16
 2758 0058 0293     		str	r3, [sp, #8]
 2759 005a 07F11203 		add	r3, r7, #18
 2760 005e 0193     		str	r3, [sp, #4]
 2761 0060 07F11A03 		add	r3, r7, #26
 2762 0064 0093     		str	r3, [sp]
 2763 0066 2346     		mov	r3, r4
 2764 0068 FFF7FEFF 		bl	compute_euler
 450:main.c        ****     sprintf(buf,"  Q->Euler: Pan=%c%d.%02d Tilt=%c%d.%02d Roll=%c%d.%02d\r\n",
 2765              		.loc 1 450 0
 2766 006c 07F11B03 		add	r3, r7, #27
 2767 0070 1B78     		ldrb	r3, [r3]	@ zero_extendqisi2
 2768 0072 9E46     		mov	lr, r3
 2769 0074 07F11603 		add	r3, r7, #22
 2770 0078 B3F90030 		ldrsh	r3, [r3]
 2771 007c 9C46     		mov	ip, r3
 2772 007e 07F11403 		add	r3, r7, #20
 2773 0082 B3F90030 		ldrsh	r3, [r3]
 2774 0086 1A46     		mov	r2, r3
 2775 0088 07F11A03 		add	r3, r7, #26
 2776 008c 1B78     		ldrb	r3, [r3]	@ zero_extendqisi2
 2777 008e 1946     		mov	r1, r3
 2778 0090 07F11203 		add	r3, r7, #18
 2779 0094 B3F90030 		ldrsh	r3, [r3]
 2780 0098 1C46     		mov	r4, r3
 2781 009a 07F11003 		add	r3, r7, #16
 2782 009e B3F90030 		ldrsh	r3, [r3]
 2783 00a2 1D46     		mov	r5, r3
 2784 00a4 07F11903 		add	r3, r7, #25
 2785 00a8 1B78     		ldrb	r3, [r3]	@ zero_extendqisi2
 2786 00aa 1E46     		mov	r6, r3
 2787 00ac 07F10E03 		add	r3, r7, #14
 2788 00b0 B3F90030 		ldrsh	r3, [r3]
 2789 00b4 7B60     		str	r3, [r7, #4]
 2790 00b6 07F10C03 		add	r3, r7, #12
 2791 00ba B3F90030 		ldrsh	r3, [r3]
 2792 00be 07F58470 		add	r0, r7, #264
 2793 00c2 0693     		str	r3, [sp, #24]
 2794 00c4 7B68     		ldr	r3, [r7, #4]
 2795 00c6 0593     		str	r3, [sp, #20]
 2796 00c8 0496     		str	r6, [sp, #16]
 2797 00ca 0395     		str	r5, [sp, #12]
 2798 00cc 0294     		str	r4, [sp, #8]
 2799 00ce 0191     		str	r1, [sp, #4]
 2800 00d0 0092     		str	r2, [sp]
 2801 00d2 6346     		mov	r3, ip
 2802 00d4 7246     		mov	r2, lr
 2803 00d6 2849     		ldr	r1, .L172+12
 2804 00d8 FFF7FEFF 		bl	sprintf
 451:main.c        ****             ps,pi,pf, ts,ti,tf, rs,ri,rf);
 452:main.c        ****     UART_1_PutString(buf);
 2805              		.loc 1 452 0
 2806 00dc 07F58473 		add	r3, r7, #264
 2807 00e0 1846     		mov	r0, r3
 2808 00e2 FFF7FEFF 		bl	UART_1_PutString
 453:main.c        ****     sprintf(buf,"  Raw: R=%.4f I=%.4f J=%.4f K=%.4f\r\n",
ARM GAS  C:\Users\JENNEW~1\AppData\Local\Temp\ccFpxs5T.s 			page 61


 454:main.c        ****             st.gimbal_r, st.gimbal_i, st.gimbal_j, st.gimbal_k);
 2809              		.loc 1 454 0
 2810 00e6 07F11C03 		add	r3, r7, #28
 2811 00ea DB68     		ldr	r3, [r3, #12]	@ float
 453:main.c        ****     sprintf(buf,"  Raw: R=%.4f I=%.4f J=%.4f K=%.4f\r\n",
 2812              		.loc 1 453 0
 2813 00ec 1846     		mov	r0, r3
 2814 00ee FFF7FEFF 		bl	__aeabi_f2d
 2815 00f2 8246     		mov	r10, r0
 2816 00f4 8B46     		mov	fp, r1
 2817              		.loc 1 454 0
 2818 00f6 07F11C03 		add	r3, r7, #28
 2819 00fa 1B69     		ldr	r3, [r3, #16]	@ float
 453:main.c        ****     sprintf(buf,"  Raw: R=%.4f I=%.4f J=%.4f K=%.4f\r\n",
 2820              		.loc 1 453 0
 2821 00fc 1846     		mov	r0, r3
 2822 00fe FFF7FEFF 		bl	__aeabi_f2d
 2823 0102 0446     		mov	r4, r0
 2824 0104 0D46     		mov	r5, r1
 2825              		.loc 1 454 0
 2826 0106 07F11C03 		add	r3, r7, #28
 2827 010a 5B69     		ldr	r3, [r3, #20]	@ float
 453:main.c        ****     sprintf(buf,"  Raw: R=%.4f I=%.4f J=%.4f K=%.4f\r\n",
 2828              		.loc 1 453 0
 2829 010c 1846     		mov	r0, r3
 2830 010e FFF7FEFF 		bl	__aeabi_f2d
 2831 0112 8046     		mov	r8, r0
 2832 0114 8946     		mov	r9, r1
 2833              		.loc 1 454 0
 2834 0116 07F11C03 		add	r3, r7, #28
 2835 011a 9B69     		ldr	r3, [r3, #24]	@ float
 453:main.c        ****     sprintf(buf,"  Raw: R=%.4f I=%.4f J=%.4f K=%.4f\r\n",
 2836              		.loc 1 453 0
 2837 011c 1846     		mov	r0, r3
 2838 011e FFF7FEFF 		bl	__aeabi_f2d
 2839 0122 0246     		mov	r2, r0
 2840 0124 0B46     		mov	r3, r1
 2841 0126 07F58470 		add	r0, r7, #264
 2842 012a CDE90423 		strd	r2, [sp, #16]
 2843 012e CDE90289 		strd	r8, [sp, #8]
 2844 0132 CDE90045 		strd	r4, [sp]
 2845 0136 5246     		mov	r2, r10
 2846 0138 5B46     		mov	r3, fp
 2847 013a 1049     		ldr	r1, .L172+16
 2848 013c FFF7FEFF 		bl	sprintf
 455:main.c        ****     UART_1_PutString(buf);
 2849              		.loc 1 455 0
 2850 0140 07F58473 		add	r3, r7, #264
 2851 0144 1846     		mov	r0, r3
 2852 0146 FFF7FEFF 		bl	UART_1_PutString
 456:main.c        ****     UART_1_PutString("[QUERY] Requesting attr 22 for direct Euler...\r\n");
 2853              		.loc 1 456 0
 2854 014a 0D48     		ldr	r0, .L172+20
 2855 014c FFF7FEFF 		bl	UART_1_PutString
 457:main.c        ****     hamfly_request_attr(&g_movi, 22u);
 2856              		.loc 1 457 0
 2857 0150 1621     		movs	r1, #22
ARM GAS  C:\Users\JENNEW~1\AppData\Local\Temp\ccFpxs5T.s 			page 62


 2858 0152 0648     		ldr	r0, .L172
 2859 0154 FFF7FEFF 		bl	hamfly_request_attr
 458:main.c        ****     g_movi.pending_sent_ms = g_tick_ms;
 2860              		.loc 1 458 0
 2861 0158 0A4B     		ldr	r3, .L172+24
 2862 015a 1B68     		ldr	r3, [r3]
 2863 015c 034A     		ldr	r2, .L172
 2864 015e C2F83433 		str	r3, [r2, #820]
 2865              	.L169:
 459:main.c        **** }
 2866              		.loc 1 459 0
 2867 0162 07F5D677 		add	r7, r7, #428
 2868              		.cfi_def_cfa_offset 36
 2869 0166 BD46     		mov	sp, r7
 2870              		.cfi_def_cfa_register 13
 2871              		@ sp needed
 2872 0168 BDE8F08F 		pop	{r4, r5, r6, r7, r8, r9, r10, fp, pc}
 2873              	.L173:
 2874              		.align	2
 2875              	.L172:
 2876 016c 00000000 		.word	g_movi
 2877 0170 B0030000 		.word	.LC34
 2878 0174 D8030000 		.word	.LC35
 2879 0178 0C040000 		.word	.LC36
 2880 017c 48040000 		.word	.LC37
 2881 0180 70040000 		.word	.LC38
 2882 0184 00000000 		.word	g_tick_ms
 2883              		.cfi_endproc
 2884              	.LFE82:
 2885              		.size	print_quat_crosscheck, .-print_quat_crosscheck
 2886              		.section	.rodata
 2887 04a1 000000   		.align	2
 2888              	.LC39:
 2889 04a4 0D0A5B43 		.ascii	"\015\012[CAL] Move joystick full range then press '"
 2889      414C5D20 
 2889      4D6F7665 
 2889      206A6F79 
 2889      73746963 
 2890 04d1 63270D0A 		.ascii	"c'\015\012\000"
 2890      00
 2891 04d6 0000     		.align	2
 2892              	.LC40:
 2893 04d8 0D0A5B43 		.ascii	"\015\012[CAL] Hold center...\015\012\000"
 2893      414C5D20 
 2893      486F6C64 
 2893      2063656E 
 2893      7465722E 
 2894 04f1 000000   		.align	2
 2895              	.LC41:
 2896 04f4 0D0A5B43 		.ascii	"\015\012[CAL] Press 'c' to save, 'x' to cancel\015\012"
 2896      414C5D20 
 2896      50726573 
 2896      73202763 
 2896      2720746F 
 2897 051e 00       		.ascii	"\000"
 2898 051f 00       		.align	2
 2899              	.LC42:
ARM GAS  C:\Users\JENNEW~1\AppData\Local\Temp\ccFpxs5T.s 			page 63


 2900 0520 5B43414C 		.ascii	"[CAL] Saved to EEPROM\015\012\000"
 2900      5D205361 
 2900      76656420 
 2900      746F2045 
 2900      4550524F 
 2901              		.align	2
 2902              	.LC43:
 2903 0538 5B43414C 		.ascii	"[CAL] EEPROM save FAILED\015\012\000"
 2903      5D204545 
 2903      50524F4D 
 2903      20736176 
 2903      65204641 
 2904 0553 00       		.align	2
 2905              	.LC44:
 2906 0554 5B43414C 		.ascii	"[CAL] sizeof(joy_cal_t)=%u\015\012\000"
 2906      5D207369 
 2906      7A656F66 
 2906      286A6F79 
 2906      5F63616C 
 2907 0571 000000   		.align	2
 2908              	.LC45:
 2909 0574 5B43414C 		.ascii	"[CAL] Cancelled\015\012\000"
 2909      5D204361 
 2909      6E63656C 
 2909      6C65640D 
 2909      0A00
 2910              		.section	.text.cal_prompt,"ax",%progbits
 2911              		.align	2
 2912              		.thumb
 2913              		.thumb_func
 2914              		.type	cal_prompt, %function
 2915              	cal_prompt:
 2916              	.LFB83:
 460:main.c        **** 
 461:main.c        **** /* =========================================================================
 462:main.c        ****  * Calibration prompt helper
 463:main.c        ****  * ========================================================================= */
 464:main.c        **** static void cal_prompt(joy_cal_state_t prev, joy_cal_state_t now)
 465:main.c        **** {
 2917              		.loc 1 465 0
 2918              		.cfi_startproc
 2919              		@ args = 0, pretend = 0, frame = 72
 2920              		@ frame_needed = 1, uses_anonymous_args = 0
 2921 0000 80B5     		push	{r7, lr}
 2922              		.cfi_def_cfa_offset 8
 2923              		.cfi_offset 7, -8
 2924              		.cfi_offset 14, -4
 2925 0002 92B0     		sub	sp, sp, #72
 2926              		.cfi_def_cfa_offset 80
 2927 0004 00AF     		add	r7, sp, #0
 2928              		.cfi_def_cfa_register 7
 2929 0006 0346     		mov	r3, r0
 2930 0008 0A46     		mov	r2, r1
 2931 000a FB71     		strb	r3, [r7, #7]
 2932 000c 1346     		mov	r3, r2
 2933 000e BB71     		strb	r3, [r7, #6]
 466:main.c        ****     if (prev == now) return;
ARM GAS  C:\Users\JENNEW~1\AppData\Local\Temp\ccFpxs5T.s 			page 64


 2934              		.loc 1 466 0
 2935 0010 FA79     		ldrb	r2, [r7, #7]	@ zero_extendqisi2
 2936 0012 BB79     		ldrb	r3, [r7, #6]	@ zero_extendqisi2
 2937 0014 9A42     		cmp	r2, r3
 2938 0016 3DD0     		beq	.L183
 467:main.c        ****     if (now == JOY_CAL_RANGE_CAPTURE)
 2939              		.loc 1 467 0
 2940 0018 BB79     		ldrb	r3, [r7, #6]	@ zero_extendqisi2
 2941 001a 012B     		cmp	r3, #1
 2942 001c 03D1     		bne	.L177
 468:main.c        ****         UART_1_PutString("\r\n[CAL] Move joystick full range then press 'c'\r\n");
 2943              		.loc 1 468 0
 2944 001e 1F48     		ldr	r0, .L184
 2945 0020 FFF7FEFF 		bl	UART_1_PutString
 2946 0024 37E0     		b	.L174
 2947              	.L177:
 469:main.c        ****     else if (now == JOY_CAL_CENTER_CAPTURE)
 2948              		.loc 1 469 0
 2949 0026 BB79     		ldrb	r3, [r7, #6]	@ zero_extendqisi2
 2950 0028 022B     		cmp	r3, #2
 2951 002a 03D1     		bne	.L178
 470:main.c        ****         UART_1_PutString("\r\n[CAL] Hold center...\r\n");
 2952              		.loc 1 470 0
 2953 002c 1C48     		ldr	r0, .L184+4
 2954 002e FFF7FEFF 		bl	UART_1_PutString
 2955 0032 30E0     		b	.L174
 2956              	.L178:
 471:main.c        ****     else if (now == JOY_CAL_CONFIRM_SAVE)
 2957              		.loc 1 471 0
 2958 0034 BB79     		ldrb	r3, [r7, #6]	@ zero_extendqisi2
 2959 0036 032B     		cmp	r3, #3
 2960 0038 03D1     		bne	.L179
 472:main.c        ****         UART_1_PutString("\r\n[CAL] Press 'c' to save, 'x' to cancel\r\n");
 2961              		.loc 1 472 0
 2962 003a 1A48     		ldr	r0, .L184+8
 2963 003c FFF7FEFF 		bl	UART_1_PutString
 2964 0040 29E0     		b	.L174
 2965              	.L179:
 473:main.c        ****     else if (now == JOY_CAL_OFF && prev == JOY_CAL_CONFIRM_SAVE) {
 2966              		.loc 1 473 0
 2967 0042 BB79     		ldrb	r3, [r7, #6]	@ zero_extendqisi2
 2968 0044 002B     		cmp	r3, #0
 2969 0046 1BD1     		bne	.L180
 2970              		.loc 1 473 0 is_stmt 0 discriminator 1
 2971 0048 FB79     		ldrb	r3, [r7, #7]	@ zero_extendqisi2
 2972 004a 032B     		cmp	r3, #3
 2973 004c 18D1     		bne	.L180
 2974              	.LBB11:
 474:main.c        ****         if (joystick_save())
 2975              		.loc 1 474 0 is_stmt 1
 2976 004e FFF7FEFF 		bl	joystick_save
 2977 0052 0346     		mov	r3, r0
 2978 0054 002B     		cmp	r3, #0
 2979 0056 03D0     		beq	.L181
 475:main.c        ****             UART_1_PutString("[CAL] Saved to EEPROM\r\n");
 2980              		.loc 1 475 0
 2981 0058 1348     		ldr	r0, .L184+12
ARM GAS  C:\Users\JENNEW~1\AppData\Local\Temp\ccFpxs5T.s 			page 65


 2982 005a FFF7FEFF 		bl	UART_1_PutString
 2983 005e 02E0     		b	.L182
 2984              	.L181:
 476:main.c        ****         else
 477:main.c        ****             UART_1_PutString("[CAL] EEPROM save FAILED\r\n");
 2985              		.loc 1 477 0
 2986 0060 1248     		ldr	r0, .L184+16
 2987 0062 FFF7FEFF 		bl	UART_1_PutString
 2988              	.L182:
 478:main.c        ****             char dbuf[64];
 479:main.c        ****             sprintf(dbuf, "[CAL] sizeof(joy_cal_t)=%u\r\n",
 2989              		.loc 1 479 0 discriminator 2
 2990 0066 07F10803 		add	r3, r7, #8
 2991 006a 0E22     		movs	r2, #14
 2992 006c 1049     		ldr	r1, .L184+20
 2993 006e 1846     		mov	r0, r3
 2994 0070 FFF7FEFF 		bl	sprintf
 480:main.c        ****                     (unsigned)sizeof(joy_cal_t));
 481:main.c        ****             UART_1_PutString(dbuf);
 2995              		.loc 1 481 0 discriminator 2
 2996 0074 07F10803 		add	r3, r7, #8
 2997 0078 1846     		mov	r0, r3
 2998 007a FFF7FEFF 		bl	UART_1_PutString
 2999              	.LBE11:
 473:main.c        ****         if (joystick_save())
 3000              		.loc 1 473 0 discriminator 2
 3001 007e 0AE0     		b	.L174
 3002              	.L180:
 482:main.c        ****     }
 483:main.c        ****     else if (now == JOY_CAL_OFF && prev != JOY_CAL_OFF)
 3003              		.loc 1 483 0
 3004 0080 BB79     		ldrb	r3, [r7, #6]	@ zero_extendqisi2
 3005 0082 002B     		cmp	r3, #0
 3006 0084 07D1     		bne	.L174
 3007              		.loc 1 483 0 is_stmt 0 discriminator 1
 3008 0086 FB79     		ldrb	r3, [r7, #7]	@ zero_extendqisi2
 3009 0088 002B     		cmp	r3, #0
 3010 008a 04D0     		beq	.L174
 484:main.c        ****         UART_1_PutString("[CAL] Cancelled\r\n");
 3011              		.loc 1 484 0 is_stmt 1
 3012 008c 0948     		ldr	r0, .L184+24
 3013 008e FFF7FEFF 		bl	UART_1_PutString
 3014 0092 00E0     		b	.L174
 3015              	.L183:
 466:main.c        ****     if (now == JOY_CAL_RANGE_CAPTURE)
 3016              		.loc 1 466 0
 3017 0094 00BF     		nop
 3018              	.L174:
 485:main.c        **** }
 3019              		.loc 1 485 0
 3020 0096 4837     		adds	r7, r7, #72
 3021              		.cfi_def_cfa_offset 8
 3022 0098 BD46     		mov	sp, r7
 3023              		.cfi_def_cfa_register 13
 3024              		@ sp needed
 3025 009a 80BD     		pop	{r7, pc}
 3026              	.L185:
ARM GAS  C:\Users\JENNEW~1\AppData\Local\Temp\ccFpxs5T.s 			page 66


 3027              		.align	2
 3028              	.L184:
 3029 009c A4040000 		.word	.LC39
 3030 00a0 D8040000 		.word	.LC40
 3031 00a4 F4040000 		.word	.LC41
 3032 00a8 20050000 		.word	.LC42
 3033 00ac 38050000 		.word	.LC43
 3034 00b0 54050000 		.word	.LC44
 3035 00b4 74050000 		.word	.LC45
 3036              		.cfi_endproc
 3037              	.LFE83:
 3038              		.size	cal_prompt, .-cal_prompt
 3039              		.section	.rodata
 3040 0586 0000     		.align	2
 3041              	.LC46:
 3042 0588 5B4E5544 		.ascii	"[NUDGE] Pan=%c%d.%02d  Tilt=%c%d.%02d  (deg from or"
 3042      47455D20 
 3042      50616E3D 
 3042      25632564 
 3042      2E253032 
 3043 05bb 6967696E 		.ascii	"igin)\015\012\000"
 3043      290D0A00 
 3044              		.section	.text.nudge_print_pos,"ax",%progbits
 3045              		.align	2
 3046              		.thumb
 3047              		.thumb_func
 3048              		.type	nudge_print_pos, %function
 3049              	nudge_print_pos:
 3050              	.LFB84:
 486:main.c        **** 
 487:main.c        **** /* =========================================================================
 488:main.c        ****  * NUDGE: print accumulated position
 489:main.c        ****  * ========================================================================= */
 490:main.c        **** static void nudge_print_pos(float pan_deg, float tilt_deg)
 491:main.c        **** {
 3051              		.loc 1 491 0
 3052              		.cfi_startproc
 3053              		@ args = 0, pretend = 0, frame = 184
 3054              		@ frame_needed = 1, uses_anonymous_args = 0
 3055 0000 F0B5     		push	{r4, r5, r6, r7, lr}
 3056              		.cfi_def_cfa_offset 20
 3057              		.cfi_offset 4, -20
 3058              		.cfi_offset 5, -16
 3059              		.cfi_offset 6, -12
 3060              		.cfi_offset 7, -8
 3061              		.cfi_offset 14, -4
 3062 0002 B3B0     		sub	sp, sp, #204
 3063              		.cfi_def_cfa_offset 224
 3064 0004 04AF     		add	r7, sp, #16
 3065              		.cfi_def_cfa 7, 208
 3066 0006 7860     		str	r0, [r7, #4]	@ float
 3067 0008 3960     		str	r1, [r7]	@ float
 492:main.c        ****     char buf[TX_BUF_SIZE];
 493:main.c        ****     char ps, ts;
 494:main.c        ****     int16_t pi, pf, ti, tf;
 495:main.c        ****     decomp(pan_deg,  &pi, &pf, &ps);
 3068              		.loc 1 495 0
ARM GAS  C:\Users\JENNEW~1\AppData\Local\Temp\ccFpxs5T.s 			page 67


 3069 000a 07F11703 		add	r3, r7, #23
 3070 000e 07F11202 		add	r2, r7, #18
 3071 0012 07F11401 		add	r1, r7, #20
 3072 0016 7868     		ldr	r0, [r7, #4]	@ float
 3073 0018 FFF7FEFF 		bl	decomp
 496:main.c        ****     decomp(tilt_deg, &ti, &tf, &ts);
 3074              		.loc 1 496 0
 3075 001c 07F11603 		add	r3, r7, #22
 3076 0020 07F10E02 		add	r2, r7, #14
 3077 0024 07F11001 		add	r1, r7, #16
 3078 0028 3868     		ldr	r0, [r7]	@ float
 3079 002a FFF7FEFF 		bl	decomp
 497:main.c        ****     sprintf(buf, "[NUDGE] Pan=%c%d.%02d  Tilt=%c%d.%02d  (deg from origin)\r\n",
 3080              		.loc 1 497 0
 3081 002e FB7D     		ldrb	r3, [r7, #23]	@ zero_extendqisi2
 3082 0030 1D46     		mov	r5, r3
 3083 0032 B7F91430 		ldrsh	r3, [r7, #20]
 3084 0036 1E46     		mov	r6, r3
 3085 0038 B7F91230 		ldrsh	r3, [r7, #18]
 3086 003c BA7D     		ldrb	r2, [r7, #22]	@ zero_extendqisi2
 3087 003e B7F91010 		ldrsh	r1, [r7, #16]
 3088 0042 B7F90E00 		ldrsh	r0, [r7, #14]
 3089 0046 0446     		mov	r4, r0
 3090 0048 07F11800 		add	r0, r7, #24
 3091 004c 0394     		str	r4, [sp, #12]
 3092 004e 0291     		str	r1, [sp, #8]
 3093 0050 0192     		str	r2, [sp, #4]
 3094 0052 0093     		str	r3, [sp]
 3095 0054 3346     		mov	r3, r6
 3096 0056 2A46     		mov	r2, r5
 3097 0058 0549     		ldr	r1, .L187
 3098 005a FFF7FEFF 		bl	sprintf
 498:main.c        ****             ps, pi, pf, ts, ti, tf);
 499:main.c        ****     UART_1_PutString(buf);
 3099              		.loc 1 499 0
 3100 005e 07F11803 		add	r3, r7, #24
 3101 0062 1846     		mov	r0, r3
 3102 0064 FFF7FEFF 		bl	UART_1_PutString
 500:main.c        **** }
 3103              		.loc 1 500 0
 3104 0068 00BF     		nop
 3105 006a BC37     		adds	r7, r7, #188
 3106              		.cfi_def_cfa_offset 20
 3107 006c BD46     		mov	sp, r7
 3108              		.cfi_def_cfa_register 13
 3109              		@ sp needed
 3110 006e F0BD     		pop	{r4, r5, r6, r7, pc}
 3111              	.L188:
 3112              		.align	2
 3113              	.L187:
 3114 0070 88050000 		.word	.LC46
 3115              		.cfi_endproc
 3116              	.LFE84:
 3117              		.size	nudge_print_pos, .-nudge_print_pos
 3118              		.section	.rodata
 3119 05c3 00       		.align	2
 3120              	.LC47:
ARM GAS  C:\Users\JENNEW~1\AppData\Local\Temp\ccFpxs5T.s 			page 68


 3121 05c4 0D0A3D3D 		.ascii	"\015\012=== Gimbal Control  PSoC 5LP ===\015\012\000"
 3121      3D204769 
 3121      6D62616C 
 3121      20436F6E 
 3121      74726F6C 
 3122 05e9 000000   		.align	2
 3123              	.LC48:
 3124 05ec 5354414E 		.ascii	"STANDBY: m=CONTROL q=QUERY n=NUDGE\015\012\000"
 3124      4442593A 
 3124      206D3D43 
 3124      4F4E5452 
 3124      4F4C2071 
 3125 0611 000000   		.align	2
 3126              	.LC49:
 3127 0614 20202020 		.ascii	"         j=joy l=mode s=adc c=cal k=kill x=quiet\015"
 3127      20202020 
 3127      206A3D6A 
 3127      6F79206C 
 3127      3D6D6F64 
 3128 0645 0A00     		.ascii	"\012\000"
 3129 0647 00       		.align	2
 3130              	.LC50:
 3131 0648 20202020 		.ascii	"         z=goto(0,0)  [=set limit origin\015\012\000"
 3131      20202020 
 3131      207A3D67 
 3131      6F746F28 
 3131      302C3029 
 3132 0673 00       		.align	2
 3133              	.LC51:
 3134 0674 434F4E54 		.ascii	"CONTROL: numpad 8/2/5=tilt  4/6/0=pan  p=plat-yaw\015"
 3134      524F4C3A 
 3134      206E756D 
 3134      70616420 
 3134      382F322F 
 3135 06a6 0A00     		.ascii	"\012\000"
 3136              		.align	2
 3137              	.LC52:
 3138 06a8 51554552 		.ascii	"QUERY:   a=euler g=GPS b=baro s=stat n=mag\015\012\000"
 3138      593A2020 
 3138      20613D65 
 3138      756C6572 
 3138      20673D47 
 3139 06d5 000000   		.align	2
 3140              	.LC53:
 3141 06d8 20202020 		.ascii	"         2=plat 4=motor q=quat  t=exit\015\012\000"
 3141      20202020 
 3141      20323D70 
 3141      6C617420 
 3141      343D6D6F 
 3142 0701 000000   		.align	2
 3143              	.LC54:
 3144 0704 4E554447 		.ascii	"NUDGE:   jl=pan(small) ik=tilt(small)\015\012\000"
 3144      453A2020 
 3144      206A6C3D 
 3144      70616E28 
 3144      736D616C 
 3145              		.align	2
ARM GAS  C:\Users\JENNEW~1\AppData\Local\Temp\ccFpxs5T.s 			page 69


 3146              	.LC55:
 3147 072c 20202020 		.ascii	"         ad=pan(0.5deg) ws=tilt(0.5deg)  t=exit\015"
 3147      20202020 
 3147      2061643D 
 3147      70616E28 
 3147      302E3564 
 3148 075c 0A00     		.ascii	"\012\000"
 3149 075e 0000     		.align	2
 3150              	.LC56:
 3151 0760 5B496E69 		.ascii	"[Init] Gimbal UART ready\015\012\000"
 3151      745D2047 
 3151      696D6261 
 3151      6C205541 
 3151      52542072 
 3152 077b 00       		.align	2
 3153              	.LC57:
 3154 077c 5B496E69 		.ascii	"[Init] No saved cal -- using defaults\015\012\000"
 3154      745D204E 
 3154      6F207361 
 3154      76656420 
 3154      63616C20 
 3155              		.align	2
 3156              	.LC58:
 3157 07a4 5B496E69 		.ascii	"[Init] Loaded cal from EEPROM\015\012\000"
 3157      745D204C 
 3157      6F616465 
 3157      64206361 
 3157      6C206672 
 3158              		.align	2
 3159              	.LC59:
 3160 07c4 5B496E69 		.ascii	"[Init] ADC + Joystick ready\015\012\000"
 3160      745D2041 
 3160      4443202B 
 3160      204A6F79 
 3160      73746963 
 3161 07e2 0000     		.align	2
 3162              	.LC60:
 3163 07e4 5B496E69 		.ascii	"[Init] Ready  Mode: STANDBY\015\012\000"
 3163      745D2052 
 3163      65616479 
 3163      20204D6F 
 3163      64653A20 
 3164 0802 0000     		.align	2
 3165              	.LC61:
 3166 0804 5B434C49 		.ascii	"[CLI] -> CONTROL\015\012\000"
 3166      5D202D3E 
 3166      20434F4E 
 3166      54524F4C 
 3166      0D0A00
 3167 0817 00       		.align	2
 3168              	.LC62:
 3169 0818 5B434C49 		.ascii	"[CLI] -> STANDBY\015\012\000"
 3169      5D202D3E 
 3169      20535441 
 3169      4E444259 
 3169      0D0A00
 3170 082b 00       		.align	2
ARM GAS  C:\Users\JENNEW~1\AppData\Local\Temp\ccFpxs5T.s 			page 70


 3171              	.LC63:
 3172 082c 5B434C49 		.ascii	"[CLI] -> QUERY\015\012\000"
 3172      5D202D3E 
 3172      20515545 
 3172      52590D0A 
 3172      00
 3173 083d 000000   		.align	2
 3174              	.LC64:
 3175 0840 5B434C49 		.ascii	"[CLI] -> NUDGE  (jl=pan ik=tilt ad=pan0.5 ws=tilt0."
 3175      5D202D3E 
 3175      204E5544 
 3175      47452020 
 3175      286A6C3D 
 3176 0873 3520743D 		.ascii	"5 t=exit)\015\012\000"
 3176      65786974 
 3176      290D0A00 
 3177 087f 00       		.align	2
 3178              	.LC65:
 3179 0880 5B4E5544 		.ascii	"[NUDGE] Warning: limit origin not set. Use '[' in S"
 3179      47455D20 
 3179      5761726E 
 3179      696E673A 
 3179      206C696D 
 3180 08b3 54414E44 		.ascii	"TANDBY.\015\012\000"
 3180      42592E0D 
 3180      0A00
 3181 08bd 000000   		.align	2
 3182              	.LC66:
 3183 08c0 5B434C49 		.ascii	"[CLI] Joystick ON\015\012\000"
 3183      5D204A6F 
 3183      79737469 
 3183      636B204F 
 3183      4E0D0A00 
 3184              		.align	2
 3185              	.LC67:
 3186 08d4 5B434C49 		.ascii	"[CLI] Joystick OFF\015\012\000"
 3186      5D204A6F 
 3186      79737469 
 3186      636B204F 
 3186      46460D0A 
 3187 08e9 000000   		.align	2
 3188              	.LC68:
 3189 08ec 5B434C49 		.ascii	"[CLI] Mode: %s\015\012\000"
 3189      5D204D6F 
 3189      64653A20 
 3189      25730D0A 
 3189      00
 3190 08fd 000000   		.align	2
 3191              	.LC69:
 3192 0900 5B434C49 		.ascii	"[CLI] Quiet. m or j to resume.\015\012\000"
 3192      5D205175 
 3192      6965742E 
 3192      206D206F 
 3192      72206A20 
 3193 0921 000000   		.align	2
 3194              	.LC70:
 3195 0924 5B434C49 		.ascii	"[CLI] ADC stream ON\015\012\000"
ARM GAS  C:\Users\JENNEW~1\AppData\Local\Temp\ccFpxs5T.s 			page 71


 3195      5D204144 
 3195      43207374 
 3195      7265616D 
 3195      204F4E0D 
 3196 093a 0000     		.align	2
 3197              	.LC71:
 3198 093c 5B434C49 		.ascii	"[CLI] ADC stream OFF\015\012\000"
 3198      5D204144 
 3198      43207374 
 3198      7265616D 
 3198      204F4646 
 3199 0953 00       		.align	2
 3200              	.LC72:
 3201 0954 5B434C49 		.ascii	"[CLI] Commanding (0, 0)...\015\012\000"
 3201      5D20436F 
 3201      6D6D616E 
 3201      64696E67 
 3201      2028302C 
 3202 0971 000000   		.align	2
 3203              	.LC73:
 3204 0974 5B434C49 		.ascii	"[CLI] Limit origin set: Pan=%c%d.%02d  Tilt=%c%d.%0"
 3204      5D204C69 
 3204      6D697420 
 3204      6F726967 
 3204      696E2073 
 3205 09a7 32642064 		.ascii	"2d deg\015\012\000"
 3205      65670D0A 
 3205      00
 3206              		.align	2
 3207              	.LC74:
 3208 09b0 5B434C49 		.ascii	"[CLI] No valid telemetry -- cannot set origin\015\012"
 3208      5D204E6F 
 3208      2076616C 
 3208      69642074 
 3208      656C656D 
 3209 09df 00       		.ascii	"\000"
 3210              		.align	2
 3211              	.LC75:
 3212 09e0 5B435452 		.ascii	"[CTRL] Platform yaw ON\015\012\000"
 3212      4C5D2050 
 3212      6C617466 
 3212      6F726D20 
 3212      79617720 
 3213 09f9 000000   		.align	2
 3214              	.LC76:
 3215 09fc 5B435452 		.ascii	"[CTRL] Platform yaw OFF\015\012\000"
 3215      4C5D2050 
 3215      6C617466 
 3215      6F726D20 
 3215      79617720 
 3216 0a16 0000     		.align	2
 3217              	.LC77:
 3218 0a18 5B435452 		.ascii	"[CTRL] Need ABS mode -- press 'l'\015\012\000"
 3218      4C5D204E 
 3218      65656420 
 3218      41425320 
 3218      6D6F6465 
ARM GAS  C:\Users\JENNEW~1\AppData\Local\Temp\ccFpxs5T.s 			page 72


 3219              		.align	2
 3220              	.LC78:
 3221 0a3c 5B435452 		.ascii	"[CTRL] Pan -45 deg\015\012\000"
 3221      4C5D2050 
 3221      616E202D 
 3221      34352064 
 3221      65670D0A 
 3222 0a51 000000   		.align	2
 3223              	.LC79:
 3224 0a54 5B435452 		.ascii	"[CTRL] Pan 0 (home)\015\012\000"
 3224      4C5D2050 
 3224      616E2030 
 3224      2028686F 
 3224      6D65290D 
 3225 0a6a 0000     		.align	2
 3226              	.LC80:
 3227 0a6c 5B435452 		.ascii	"[CTRL] Pan +45 deg\015\012\000"
 3227      4C5D2050 
 3227      616E202B 
 3227      34352064 
 3227      65670D0A 
 3228 0a81 000000   		.align	2
 3229              	.LC81:
 3230 0a84 5B435452 		.ascii	"[CTRL] Tilt +25 deg\015\012\000"
 3230      4C5D2054 
 3230      696C7420 
 3230      2B323520 
 3230      6465670D 
 3231 0a9a 0000     		.align	2
 3232              	.LC82:
 3233 0a9c 5B435452 		.ascii	"[CTRL] Tilt 0 deg\015\012\000"
 3233      4C5D2054 
 3233      696C7420 
 3233      30206465 
 3233      670D0A00 
 3234              		.align	2
 3235              	.LC83:
 3236 0ab0 5B435452 		.ascii	"[CTRL] Tilt -25 deg\015\012\000"
 3236      4C5D2054 
 3236      696C7420 
 3236      2D323520 
 3236      6465670D 
 3237 0ac6 0000     		.align	2
 3238              	.LC84:
 3239 0ac8 5B515545 		.ascii	"[QUERY] -> STANDBY\015\012\000"
 3239      52595D20 
 3239      2D3E2053 
 3239      54414E44 
 3239      42590D0A 
 3240 0add 000000   		.align	2
 3241              	.LC85:
 3242 0ae0 5B515545 		.ascii	"[QUERY] attr 22 euler\015\012\000"
 3242      52595D20 
 3242      61747472 
 3242      20323220 
 3242      65756C65 
 3243              		.align	2
ARM GAS  C:\Users\JENNEW~1\AppData\Local\Temp\ccFpxs5T.s 			page 73


 3244              	.LC86:
 3245 0af8 5B515545 		.ascii	"[QUERY] attr 4 GPS\015\012\000"
 3245      52595D20 
 3245      61747472 
 3245      20342047 
 3245      50530D0A 
 3246 0b0d 000000   		.align	2
 3247              	.LC87:
 3248 0b10 5B515545 		.ascii	"[QUERY] attr 3 baro\015\012\000"
 3248      52595D20 
 3248      61747472 
 3248      20332062 
 3248      61726F0D 
 3249 0b26 0000     		.align	2
 3250              	.LC88:
 3251 0b28 5B515545 		.ascii	"[QUERY] attr 1 sysstat\015\012\000"
 3251      52595D20 
 3251      61747472 
 3251      20312073 
 3251      79737374 
 3252 0b41 000000   		.align	2
 3253              	.LC89:
 3254 0b44 5B515545 		.ascii	"[QUERY] attr 12 mag\015\012\000"
 3254      52595D20 
 3254      61747472 
 3254      20313220 
 3254      6D61670D 
 3255 0b5a 0000     		.align	2
 3256              	.LC90:
 3257 0b5c 5B515545 		.ascii	"[QUERY] attr 2 platform\015\012\000"
 3257      52595D20 
 3257      61747472 
 3257      20322070 
 3257      6C617466 
 3258 0b76 0000     		.align	2
 3259              	.LC91:
 3260 0b78 5B515545 		.ascii	"[QUERY] attr 48 motor\015\012\000"
 3260      52595D20 
 3260      61747472 
 3260      20343820 
 3260      6D6F746F 
 3261              		.align	2
 3262              	.LC92:
 3263 0b90 5B4E5544 		.ascii	"[NUDGE] -> STANDBY\015\012\000"
 3263      47455D20 
 3263      2D3E2053 
 3263      54414E44 
 3263      42590D0A 
 3264              		.global	__aeabi_fcmpeq
 3265              		.global	__aeabi_fcmpgt
 3266 0ba5 000000   		.align	2
 3267              	.LC93:
 3268 0ba8 5B515545 		.ascii	"[QUERY] TIMEOUT attr=%u\015\012\000"
 3268      52595D20 
 3268      54494D45 
 3268      4F555420 
 3268      61747472 
ARM GAS  C:\Users\JENNEW~1\AppData\Local\Temp\ccFpxs5T.s 			page 74


 3269 0bc2 0000     		.align	2
 3270              	.LC94:
 3271 0bc4 5B435452 		.ascii	"[CTRL] Preset settled -- joystick active\015\012\000"
 3271      4C5D2050 
 3271      72657365 
 3271      74207365 
 3271      74746C65 
 3272 0bef 00       		.align	2
 3273              	.LC95:
 3274 0bf0 53656E73 		.ascii	"Sensitivity changed\015\012\000"
 3274      69746976 
 3274      69747920 
 3274      6368616E 
 3274      6765640D 
 3275 0c06 0000     		.align	2
 3276              	.LC96:
 3277 0c08 583A256C 		.ascii	"X:%ld mV Y:%ld mV  pan:%d tilt:%d /1000\015\012\000"
 3277      64206D56 
 3277      20593A25 
 3277      6C64206D 
 3277      56202070 
 3278 0c32 0000     		.align	2
 3279              	.LC97:
 3280 0c34 5B43414C 		.ascii	"[CAL] %u/%u\015\012\000"
 3280      5D202575 
 3280      2F25750D 
 3280      0A00
 3281 0c42 0000     		.align	2
 3282              	.LC98:
 3283 0c44 20202530 		.ascii	"  %02lu:%02lu:%02lu\015\012\000"
 3283      326C753A 
 3283      2530326C 
 3283      753A2530 
 3283      326C750D 
 3284 0c5a 0000     		.align	2
 3285              	.LC99:
 3286 0c5c 5B536572 		.ascii	"[Serial] TX:%lu RX:%lu csum:%lu err:0x%02X\015\012\000"
 3286      69616C5D 
 3286      2054583A 
 3286      256C7520 
 3286      52583A25 
 3287 0c89 000000   		.align	2
 3288              	.LC100:
 3289 0c8c 5B546172 		.ascii	"[Target] Pan=%c%d.%02d Tilt=%c%d.%02d deg\015\012\000"
 3289      6765745D 
 3289      2050616E 
 3289      3D256325 
 3289      642E2530 
 3290              		.align	2
 3291              	.LC101:
 3292 0cb8 5B47696D 		.ascii	"[Gimbal] Pan=%c%d.%02d Tilt=%c%d.%02d Roll=%c%d.%02"
 3292      62616C5D 
 3292      2050616E 
 3292      3D256325 
 3292      642E2530 
 3293 0ceb 64204C3D 		.ascii	"d L=%d.%dV R=%d.%dV IMU:%d DRV:%d ERR:%d\015\012\000"
 3293      25642E25 
ARM GAS  C:\Users\JENNEW~1\AppData\Local\Temp\ccFpxs5T.s 			page 75


 3293      64562052 
 3293      3D25642E 
 3293      25645620 
 3294 0d16 0000     		.align	2
 3295              	.LC102:
 3296 0d18 5B47696D 		.ascii	"[Gimbal] No valid frame\015\012\000"
 3296      62616C5D 
 3296      204E6F20 
 3296      76616C69 
 3296      64206672 
 3297 0d32 0000     		.align	2
 3298              	.LC103:
 3299 0d34 5B435452 		.ascii	"[CTRL] attr %u timeout\015\012\000"
 3299      4C5D2061 
 3299      74747220 
 3299      25752074 
 3299      696D656F 
 3300 0d4d 000000   		.align	2
 3301              	.LC104:
 3302 0d50 5B4A6F79 		.ascii	"[Joy] L/R=%c%d.%02d U/D=%c%d.%02d (%s)\015\012\000"
 3302      5D204C2F 
 3302      523D2563 
 3302      25642E25 
 3302      30326420 
 3303              		.section	.text.main,"ax",%progbits
 3304              		.align	2
 3305              		.global	main
 3306              		.thumb
 3307              		.thumb_func
 3308              		.type	main, %function
 3309              	main:
 3310              	.LFB85:
 501:main.c        **** 
 502:main.c        **** /* =========================================================================
 503:main.c        ****  * main
 504:main.c        ****  * ========================================================================= */
 505:main.c        **** int main(void)
 506:main.c        **** {
 3311              		.loc 1 506 0
 3312              		.cfi_startproc
 3313              		@ args = 0, pretend = 0, frame = 704
 3314              		@ frame_needed = 1, uses_anonymous_args = 0
 3315 0000 2DE9F043 		push	{r4, r5, r6, r7, r8, r9, lr}
 3316              		.cfi_def_cfa_offset 28
 3317              		.cfi_offset 4, -28
 3318              		.cfi_offset 5, -24
 3319              		.cfi_offset 6, -20
 3320              		.cfi_offset 7, -16
 3321              		.cfi_offset 8, -12
 3322              		.cfi_offset 9, -8
 3323              		.cfi_offset 14, -4
 3324 0004 ADF53F7D 		sub	sp, sp, #764
 3325              		.cfi_def_cfa_offset 792
 3326 0008 0EAF     		add	r7, sp, #56
 3327              		.cfi_def_cfa 7, 736
 507:main.c        ****     char tx[TX_BUF_SIZE];
 508:main.c        **** 
ARM GAS  C:\Users\JENNEW~1\AppData\Local\Temp\ccFpxs5T.s 			page 76


 509:main.c        ****     app_mode_t            app_mode  = APP_MODE_STANDBY;
 3328              		.loc 1 509 0
 3329 000a 07F29F13 		addw	r3, r7, #415
 3330 000e 0022     		movs	r2, #0
 3331 0010 1A70     		strb	r2, [r3]
 510:main.c        ****     hamfly_control_mode_t ctrl_mode = HAMFLY_DEFER;
 3332              		.loc 1 510 0
 3333 0012 07F5CF73 		add	r3, r7, #414
 3334 0016 0022     		movs	r2, #0
 3335 0018 1A70     		strb	r2, [r3]
 511:main.c        ****     hamfly_control_t      ctl;
 512:main.c        **** 
 513:main.c        ****     uint8_t joystick_active   = FALSE;
 3336              		.loc 1 513 0
 3337 001a 07F28713 		addw	r3, r7, #391
 3338 001e 0022     		movs	r2, #0
 3339 0020 1A70     		strb	r2, [r3]
 514:main.c        ****     uint8_t streaming_adc     = FALSE;
 3340              		.loc 1 514 0
 3341 0022 07F5C373 		add	r3, r7, #390
 3342 0026 0022     		movs	r2, #0
 3343 0028 1A70     		strb	r2, [r3]
 515:main.c        ****     uint8_t diag_active       = FALSE;
 3344              		.loc 1 515 0
 3345 002a 0023     		movs	r3, #0
 3346 002c 87F8BF32 		strb	r3, [r7, #703]
 516:main.c        ****     uint8_t show_platform_yaw = FALSE;
 3347              		.loc 1 516 0
 3348 0030 0023     		movs	r3, #0
 3349 0032 87F8BE32 		strb	r3, [r7, #702]
 517:main.c        ****     uint8_t ctrl_attr_pending = 0u;
 3350              		.loc 1 517 0
 3351 0036 0023     		movs	r3, #0
 3352 0038 87F8BD32 		strb	r3, [r7, #701]
 518:main.c        **** 
 519:main.c        ****     /* CONTROL: absolute preset state */
 520:main.c        ****     float   abs_pan_target    = 0.0f;   /* in hamfly units [-1, +1]             */
 3353              		.loc 1 520 0
 3354 003c 4FF00003 		mov	r3, #0
 3355 0040 C7F8B832 		str	r3, [r7, #696]	@ float
 521:main.c        ****     float   abs_tilt_target   = 0.0f;
 3356              		.loc 1 521 0
 3357 0044 4FF00003 		mov	r3, #0
 3358 0048 C7F8B432 		str	r3, [r7, #692]	@ float
 522:main.c        ****     uint8_t abs_preset_active = FALSE;
 3359              		.loc 1 522 0
 3360 004c 0023     		movs	r3, #0
 3361 004e 87F8B332 		strb	r3, [r7, #691]
 523:main.c        ****     uint32_t preset_sent_ms   = 0u;
 3362              		.loc 1 523 0
 3363 0052 0023     		movs	r3, #0
 3364 0054 C7F8AC32 		str	r3, [r7, #684]
 524:main.c        **** 
 525:main.c        ****     /* NUDGE: accumulated position in degrees relative to limit origin */
 526:main.c        ****     float   nudge_pan_deg     = 0.0f;
 3365              		.loc 1 526 0
 3366 0058 4FF00003 		mov	r3, #0
ARM GAS  C:\Users\JENNEW~1\AppData\Local\Temp\ccFpxs5T.s 			page 77


 3367 005c C7F8A832 		str	r3, [r7, #680]	@ float
 527:main.c        ****     float   nudge_tilt_deg    = 0.0f;
 3368              		.loc 1 527 0
 3369 0060 4FF00003 		mov	r3, #0
 3370 0064 C7F8A432 		str	r3, [r7, #676]	@ float
 528:main.c        **** 
 529:main.c        ****     /* Software limit origin: Euler degrees at the moment '[' was pressed.
 530:main.c        ****      * All limit checks are relative to this origin. */
 531:main.c        ****     float   origin_pan_deg    = 0.0f;
 3371              		.loc 1 531 0
 3372 0068 4FF00003 		mov	r3, #0
 3373 006c C7F87832 		str	r3, [r7, #632]	@ float
 532:main.c        ****     float   origin_tilt_deg   = 0.0f;
 3374              		.loc 1 532 0
 3375 0070 4FF00003 		mov	r3, #0
 3376 0074 C7F87432 		str	r3, [r7, #628]	@ float
 533:main.c        ****     uint8_t origin_set        = FALSE;
 3377              		.loc 1 533 0
 3378 0078 0023     		movs	r3, #0
 3379 007a 87F8A332 		strb	r3, [r7, #675]
 534:main.c        **** 
 535:main.c        ****     uint32_t last_tx_ms   = 0u;
 3380              		.loc 1 535 0
 3381 007e 0023     		movs	r3, #0
 3382 0080 C7F89C32 		str	r3, [r7, #668]
 536:main.c        ****     uint32_t last_diag_ms = 0u;
 3383              		.loc 1 536 0
 3384 0084 0023     		movs	r3, #0
 3385 0086 C7F89832 		str	r3, [r7, #664]
 537:main.c        **** 
 538:main.c        ****     int16_t   counts[N_CH];
 539:main.c        ****     joy_cmd_t cmd;
 540:main.c        ****     cmd.u[0] = cmd.u[1] = 0.0f;
 3386              		.loc 1 540 0
 3387 008a 07F5BC73 		add	r3, r7, #376
 3388 008e 4FF00002 		mov	r2, #0
 3389 0092 5A60     		str	r2, [r3, #4]	@ float
 3390 0094 07F5BC73 		add	r3, r7, #376
 3391 0098 5A68     		ldr	r2, [r3, #4]	@ float
 3392 009a 07F5BC73 		add	r3, r7, #376
 3393 009e 1A60     		str	r2, [r3]	@ float
 541:main.c        **** 
 542:main.c        ****     joy_cal_t defaults;
 543:main.c        ****     uint8_t i;
 544:main.c        ****     for (i=0u; i<(uint8_t)N_CH; i++) {
 3394              		.loc 1 544 0
 3395 00a0 0023     		movs	r3, #0
 3396 00a2 87F89732 		strb	r3, [r7, #663]
 3397 00a6 1BE0     		b	.L190
 3398              	.L191:
 545:main.c        ****         defaults.minv[i]=0; defaults.maxv[i]=255; defaults.center[i]=128;
 3399              		.loc 1 545 0 discriminator 3
 3400 00a8 97F89722 		ldrb	r2, [r7, #663]	@ zero_extendqisi2
 3401 00ac 07F5B473 		add	r3, r7, #360
 3402 00b0 0021     		movs	r1, #0
 3403 00b2 23F81210 		strh	r1, [r3, r2, lsl #1]	@ movhi
 3404 00b6 97F89732 		ldrb	r3, [r7, #663]	@ zero_extendqisi2
ARM GAS  C:\Users\JENNEW~1\AppData\Local\Temp\ccFpxs5T.s 			page 78


 3405 00ba 07F5B472 		add	r2, r7, #360
 3406 00be 5B00     		lsls	r3, r3, #1
 3407 00c0 1344     		add	r3, r3, r2
 3408 00c2 FF22     		movs	r2, #255
 3409 00c4 9A80     		strh	r2, [r3, #4]	@ movhi
 3410 00c6 97F89722 		ldrb	r2, [r7, #663]	@ zero_extendqisi2
 3411 00ca 07F5B473 		add	r3, r7, #360
 3412 00ce 0432     		adds	r2, r2, #4
 3413 00d0 8021     		movs	r1, #128
 3414 00d2 23F81210 		strh	r1, [r3, r2, lsl #1]	@ movhi
 544:main.c        ****         defaults.minv[i]=0; defaults.maxv[i]=255; defaults.center[i]=128;
 3415              		.loc 1 544 0 discriminator 3
 3416 00d6 97F89732 		ldrb	r3, [r7, #663]	@ zero_extendqisi2
 3417 00da 0133     		adds	r3, r3, #1
 3418 00dc 87F89732 		strb	r3, [r7, #663]
 3419              	.L190:
 544:main.c        ****         defaults.minv[i]=0; defaults.maxv[i]=255; defaults.center[i]=128;
 3420              		.loc 1 544 0 is_stmt 0 discriminator 1
 3421 00e0 97F89732 		ldrb	r3, [r7, #663]	@ zero_extendqisi2
 3422 00e4 012B     		cmp	r3, #1
 3423 00e6 DFD9     		bls	.L191
 546:main.c        ****     }
 547:main.c        ****     defaults.valid = 0u;
 3424              		.loc 1 547 0 is_stmt 1
 3425 00e8 07F5B473 		add	r3, r7, #360
 3426 00ec 0022     		movs	r2, #0
 3427 00ee 1A73     		strb	r2, [r3, #12]
 548:main.c        **** 
 549:main.c        ****     joy_cal_state_t   cal_prev     = JOY_CAL_OFF;
 3428              		.loc 1 549 0
 3429 00f0 0023     		movs	r3, #0
 3430 00f2 87F89632 		strb	r3, [r7, #662]
 550:main.c        ****     joy_sensitivity_t current_sense = SENSE_MED;
 3431              		.loc 1 550 0
 3432 00f6 0123     		movs	r3, #1
 3433 00f8 87F89532 		strb	r3, [r7, #661]
 551:main.c        ****     uint8_t           last_button  = 1u;
 3434              		.loc 1 551 0
 3435 00fc 0123     		movs	r3, #1
 3436 00fe 87F89432 		strb	r3, [r7, #660]
 552:main.c        ****     uint32_t          invert_mask  = (1u << CH_X);
 3437              		.loc 1 552 0
 3438 0102 0123     		movs	r3, #1
 3439 0104 C7F87032 		str	r3, [r7, #624]
 553:main.c        **** 
 554:main.c        ****     /* ------------------------------------------------------------------
 555:main.c        ****      * Hardware init
 556:main.c        ****      * ------------------------------------------------------------------ */
 557:main.c        ****     CyGlobalIntEnable;
 3440              		.loc 1 557 0
 3441              		.syntax unified
 3442              	@ 557 "main.c" 1
 3443 0108 62B6     		CPSIE   i
 3444              	@ 0 "" 2
 558:main.c        **** 
 559:main.c        ****     UART_1_Start();
 3445              		.loc 1 559 0
ARM GAS  C:\Users\JENNEW~1\AppData\Local\Temp\ccFpxs5T.s 			page 79


 3446              		.thumb
 3447              		.syntax unified
 3448 010a FFF7FEFF 		bl	UART_1_Start
 560:main.c        ****     UART_1_PutString("\r\n=== Gimbal Control  PSoC 5LP ===\r\n");
 3449              		.loc 1 560 0
 3450 010e C048     		ldr	r0, .L346
 3451 0110 FFF7FEFF 		bl	UART_1_PutString
 561:main.c        ****     UART_1_PutString("STANDBY: m=CONTROL q=QUERY n=NUDGE\r\n");
 3452              		.loc 1 561 0
 3453 0114 BF48     		ldr	r0, .L346+4
 3454 0116 FFF7FEFF 		bl	UART_1_PutString
 562:main.c        ****     UART_1_PutString("         j=joy l=mode s=adc c=cal k=kill x=quiet\r\n");
 3455              		.loc 1 562 0
 3456 011a BF48     		ldr	r0, .L346+8
 3457 011c FFF7FEFF 		bl	UART_1_PutString
 563:main.c        ****     UART_1_PutString("         z=goto(0,0)  [=set limit origin\r\n");
 3458              		.loc 1 563 0
 3459 0120 BE48     		ldr	r0, .L346+12
 3460 0122 FFF7FEFF 		bl	UART_1_PutString
 564:main.c        ****     UART_1_PutString("CONTROL: numpad 8/2/5=tilt  4/6/0=pan  p=plat-yaw\r\n");
 3461              		.loc 1 564 0
 3462 0126 BE48     		ldr	r0, .L346+16
 3463 0128 FFF7FEFF 		bl	UART_1_PutString
 565:main.c        ****     UART_1_PutString("QUERY:   a=euler g=GPS b=baro s=stat n=mag\r\n");
 3464              		.loc 1 565 0
 3465 012c BD48     		ldr	r0, .L346+20
 3466 012e FFF7FEFF 		bl	UART_1_PutString
 566:main.c        ****     UART_1_PutString("         2=plat 4=motor q=quat  t=exit\r\n");
 3467              		.loc 1 566 0
 3468 0132 BD48     		ldr	r0, .L346+24
 3469 0134 FFF7FEFF 		bl	UART_1_PutString
 567:main.c        ****     UART_1_PutString("NUDGE:   jl=pan(small) ik=tilt(small)\r\n");
 3470              		.loc 1 567 0
 3471 0138 BC48     		ldr	r0, .L346+28
 3472 013a FFF7FEFF 		bl	UART_1_PutString
 568:main.c        ****     UART_1_PutString("         ad=pan(0.5deg) ws=tilt(0.5deg)  t=exit\r\n");
 3473              		.loc 1 568 0
 3474 013e BC48     		ldr	r0, .L346+32
 3475 0140 FFF7FEFF 		bl	UART_1_PutString
 569:main.c        **** 
 570:main.c        ****     UART_MOVI_Start();
 3476              		.loc 1 570 0
 3477 0144 FFF7FEFF 		bl	UART_MOVI_Start
 571:main.c        ****     UART_MOVI_ClearRxBuffer();
 3478              		.loc 1 571 0
 3479 0148 FFF7FEFF 		bl	UART_MOVI_ClearRxBuffer
 572:main.c        ****     UART_MOVI_ClearTxBuffer();
 3480              		.loc 1 572 0
 3481 014c FFF7FEFF 		bl	UART_MOVI_ClearTxBuffer
 573:main.c        **** 
 574:main.c        ****     hamfly_init(&g_movi, &MOVI_HAL);
 3482              		.loc 1 574 0
 3483 0150 B849     		ldr	r1, .L346+36
 3484 0152 B948     		ldr	r0, .L346+40
 3485 0154 FFF7FEFF 		bl	hamfly_init
 575:main.c        ****     isr_rx_movi_StartEx(isr_rx_movi_Handler);
 3486              		.loc 1 575 0
ARM GAS  C:\Users\JENNEW~1\AppData\Local\Temp\ccFpxs5T.s 			page 80


 3487 0158 B848     		ldr	r0, .L346+44
 3488 015a FFF7FEFF 		bl	isr_rx_movi_StartEx
 576:main.c        ****     UART_1_PutString("[Init] Gimbal UART ready\r\n");
 3489              		.loc 1 576 0
 3490 015e B848     		ldr	r0, .L346+48
 3491 0160 FFF7FEFF 		bl	UART_1_PutString
 577:main.c        ****     psoc_eeprom_init();
 3492              		.loc 1 577 0
 3493 0164 FFF7FEFF 		bl	psoc_eeprom_init
 578:main.c        ****     if (!joystick_load(invert_mask)) {
 3494              		.loc 1 578 0
 3495 0168 D7F87002 		ldr	r0, [r7, #624]
 3496 016c FFF7FEFF 		bl	joystick_load
 3497 0170 0346     		mov	r3, r0
 3498 0172 002B     		cmp	r3, #0
 3499 0174 0AD1     		bne	.L192
 579:main.c        ****         UART_1_PutString("[Init] No saved cal -- using defaults\r\n");
 3500              		.loc 1 579 0
 3501 0176 B348     		ldr	r0, .L346+52
 3502 0178 FFF7FEFF 		bl	UART_1_PutString
 580:main.c        ****         joystick_init(&defaults, invert_mask);
 3503              		.loc 1 580 0
 3504 017c 07F5B473 		add	r3, r7, #360
 3505 0180 D7F87012 		ldr	r1, [r7, #624]
 3506 0184 1846     		mov	r0, r3
 3507 0186 FFF7FEFF 		bl	joystick_init
 3508 018a 02E0     		b	.L193
 3509              	.L192:
 581:main.c        ****     } else {
 582:main.c        ****         UART_1_PutString("[Init] Loaded cal from EEPROM\r\n");
 3510              		.loc 1 582 0
 3511 018c AE48     		ldr	r0, .L346+56
 3512 018e FFF7FEFF 		bl	UART_1_PutString
 3513              	.L193:
 583:main.c        ****     }
 584:main.c        ****     adc_balanced_init();
 3514              		.loc 1 584 0
 3515 0192 FFF7FEFF 		bl	adc_balanced_init
 585:main.c        ****     UART_1_PutString("[Init] ADC + Joystick ready\r\n");
 3516              		.loc 1 585 0
 3517 0196 AD48     		ldr	r0, .L346+60
 3518 0198 FFF7FEFF 		bl	UART_1_PutString
 586:main.c        **** 
 587:main.c        ****     Looptimer_Start();
 3519              		.loc 1 587 0
 3520 019c FFF7FEFF 		bl	Looptimer_Start
 588:main.c        ****     isr_Looptimer_StartEx(isr_Looptimer_Handler);
 3521              		.loc 1 588 0
 3522 01a0 AB48     		ldr	r0, .L346+64
 3523 01a2 FFF7FEFF 		bl	isr_Looptimer_StartEx
 589:main.c        ****     UART_1_PutString("[Init] Ready  Mode: STANDBY\r\n");
 3524              		.loc 1 589 0
 3525 01a6 AB48     		ldr	r0, .L346+68
 3526 01a8 FFF7FEFF 		bl	UART_1_PutString
 3527              	.L331:
 3528              	.LBB12:
 590:main.c        **** 
ARM GAS  C:\Users\JENNEW~1\AppData\Local\Temp\ccFpxs5T.s 			page 81


 591:main.c        ****     /* ------------------------------------------------------------------
 592:main.c        ****      * Main loop
 593:main.c        ****      * ------------------------------------------------------------------ */
 594:main.c        ****     for (;;)
 595:main.c        ****     {
 596:main.c        ****         /* ----------------------------------------------------------------
 597:main.c        ****          * CLI
 598:main.c        ****          * ---------------------------------------------------------------- */
 599:main.c        ****         uint8_t ch = (uint8_t)UART_1_GetChar();
 3529              		.loc 1 599 0
 3530 01ac FFF7FEFF 		bl	UART_1_GetChar
 3531 01b0 0346     		mov	r3, r0
 3532 01b2 87F86F32 		strb	r3, [r7, #623]
 600:main.c        **** 
 601:main.c        ****         /* ----------------------------------------------------------------
 602:main.c        ****          * STANDBY / CONTROL shared keys
 603:main.c        ****          * ---------------------------------------------------------------- */
 604:main.c        ****         if (app_mode == APP_MODE_STANDBY ||
 3533              		.loc 1 604 0
 3534 01b6 07F29F13 		addw	r3, r7, #415
 3535 01ba 1B78     		ldrb	r3, [r3]	@ zero_extendqisi2
 3536 01bc 002B     		cmp	r3, #0
 3537 01be 05D0     		beq	.L194
 605:main.c        ****             app_mode == APP_MODE_CONTROL)
 3538              		.loc 1 605 0 discriminator 1
 3539 01c0 07F29F13 		addw	r3, r7, #415
 3540 01c4 1B78     		ldrb	r3, [r3]	@ zero_extendqisi2
 604:main.c        ****             app_mode == APP_MODE_CONTROL)
 3541              		.loc 1 604 0 discriminator 1
 3542 01c6 012B     		cmp	r3, #1
 3543 01c8 40F0A482 		bne	.L195
 3544              	.L194:
 606:main.c        ****         {
 607:main.c        ****             if (ch == 'm' || ch == 'M') {
 3545              		.loc 1 607 0
 3546 01cc 97F86F32 		ldrb	r3, [r7, #623]	@ zero_extendqisi2
 3547 01d0 6D2B     		cmp	r3, #109
 3548 01d2 03D0     		beq	.L196
 3549              		.loc 1 607 0 is_stmt 0 discriminator 1
 3550 01d4 97F86F32 		ldrb	r3, [r7, #623]	@ zero_extendqisi2
 3551 01d8 4D2B     		cmp	r3, #77
 3552 01da 1AD1     		bne	.L197
 3553              	.L196:
 608:main.c        ****                 if (app_mode == APP_MODE_STANDBY) {
 3554              		.loc 1 608 0 is_stmt 1
 3555 01dc 07F29F13 		addw	r3, r7, #415
 3556 01e0 1B78     		ldrb	r3, [r3]	@ zero_extendqisi2
 3557 01e2 002B     		cmp	r3, #0
 3558 01e4 0DD1     		bne	.L198
 609:main.c        ****                     app_mode = APP_MODE_CONTROL;
 3559              		.loc 1 609 0
 3560 01e6 07F29F13 		addw	r3, r7, #415
 3561 01ea 0122     		movs	r2, #1
 3562 01ec 1A70     		strb	r2, [r3]
 610:main.c        ****                     diag_active = TRUE;
 3563              		.loc 1 610 0
 3564 01ee 0123     		movs	r3, #1
ARM GAS  C:\Users\JENNEW~1\AppData\Local\Temp\ccFpxs5T.s 			page 82


 3565 01f0 87F8BF32 		strb	r3, [r7, #703]
 611:main.c        ****                     abs_preset_active = FALSE;
 3566              		.loc 1 611 0
 3567 01f4 0023     		movs	r3, #0
 3568 01f6 87F8B332 		strb	r3, [r7, #691]
 612:main.c        ****                     UART_1_PutString("[CLI] -> CONTROL\r\n");
 3569              		.loc 1 612 0
 3570 01fa 9748     		ldr	r0, .L346+72
 3571 01fc FFF7FEFF 		bl	UART_1_PutString
 608:main.c        ****                     app_mode = APP_MODE_CONTROL;
 3572              		.loc 1 608 0
 3573 0200 D7E1     		b	.L200
 3574              	.L198:
 613:main.c        ****                 } else {
 614:main.c        ****                     app_mode = APP_MODE_STANDBY;
 3575              		.loc 1 614 0
 3576 0202 07F29F13 		addw	r3, r7, #415
 3577 0206 0022     		movs	r2, #0
 3578 0208 1A70     		strb	r2, [r3]
 615:main.c        ****                     UART_1_PutString("[CLI] -> STANDBY\r\n");
 3579              		.loc 1 615 0
 3580 020a 9448     		ldr	r0, .L346+76
 3581 020c FFF7FEFF 		bl	UART_1_PutString
 608:main.c        ****                     app_mode = APP_MODE_CONTROL;
 3582              		.loc 1 608 0
 3583 0210 CFE1     		b	.L200
 3584              	.L197:
 616:main.c        ****                 }
 617:main.c        ****             }
 618:main.c        ****             else if ((ch=='q'||ch=='Q') && app_mode==APP_MODE_STANDBY) {
 3585              		.loc 1 618 0
 3586 0212 97F86F32 		ldrb	r3, [r7, #623]	@ zero_extendqisi2
 3587 0216 712B     		cmp	r3, #113
 3588 0218 03D0     		beq	.L201
 3589              		.loc 1 618 0 is_stmt 0 discriminator 2
 3590 021a 97F86F32 		ldrb	r3, [r7, #623]	@ zero_extendqisi2
 3591 021e 512B     		cmp	r3, #81
 3592 0220 0CD1     		bne	.L202
 3593              	.L201:
 3594              		.loc 1 618 0 discriminator 3
 3595 0222 07F29F13 		addw	r3, r7, #415
 3596 0226 1B78     		ldrb	r3, [r3]	@ zero_extendqisi2
 3597 0228 002B     		cmp	r3, #0
 3598 022a 07D1     		bne	.L202
 619:main.c        ****                 app_mode = APP_MODE_QUERY;
 3599              		.loc 1 619 0 is_stmt 1
 3600 022c 07F29F13 		addw	r3, r7, #415
 3601 0230 0222     		movs	r2, #2
 3602 0232 1A70     		strb	r2, [r3]
 620:main.c        ****                 UART_1_PutString("[CLI] -> QUERY\r\n");
 3603              		.loc 1 620 0
 3604 0234 8A48     		ldr	r0, .L346+80
 3605 0236 FFF7FEFF 		bl	UART_1_PutString
 3606 023a BAE1     		b	.L200
 3607              	.L202:
 621:main.c        ****             }
 622:main.c        ****             else if ((ch=='n'||ch=='N') && app_mode==APP_MODE_STANDBY) {
ARM GAS  C:\Users\JENNEW~1\AppData\Local\Temp\ccFpxs5T.s 			page 83


 3608              		.loc 1 622 0
 3609 023c 97F86F32 		ldrb	r3, [r7, #623]	@ zero_extendqisi2
 3610 0240 6E2B     		cmp	r3, #110
 3611 0242 03D0     		beq	.L203
 3612              		.loc 1 622 0 is_stmt 0 discriminator 2
 3613 0244 97F86F32 		ldrb	r3, [r7, #623]	@ zero_extendqisi2
 3614 0248 4E2B     		cmp	r3, #78
 3615 024a 21D1     		bne	.L204
 3616              	.L203:
 3617              		.loc 1 622 0 discriminator 3
 3618 024c 07F29F13 		addw	r3, r7, #415
 3619 0250 1B78     		ldrb	r3, [r3]	@ zero_extendqisi2
 3620 0252 002B     		cmp	r3, #0
 3621 0254 1CD1     		bne	.L204
 623:main.c        ****                 nudge_pan_deg  = 0.0f;
 3622              		.loc 1 623 0 is_stmt 1
 3623 0256 4FF00003 		mov	r3, #0
 3624 025a C7F8A832 		str	r3, [r7, #680]	@ float
 624:main.c        ****                 nudge_tilt_deg = 0.0f;
 3625              		.loc 1 624 0
 3626 025e 4FF00003 		mov	r3, #0
 3627 0262 C7F8A432 		str	r3, [r7, #676]	@ float
 625:main.c        ****                 app_mode = APP_MODE_NUDGE;
 3628              		.loc 1 625 0
 3629 0266 07F29F13 		addw	r3, r7, #415
 3630 026a 0322     		movs	r2, #3
 3631 026c 1A70     		strb	r2, [r3]
 626:main.c        ****                 UART_1_PutString("[CLI] -> NUDGE  (jl=pan ik=tilt ad=pan0.5 ws=tilt0.5 t=exit)\r\n"
 3632              		.loc 1 626 0
 3633 026e 7D48     		ldr	r0, .L346+84
 3634 0270 FFF7FEFF 		bl	UART_1_PutString
 627:main.c        ****                 if (!origin_set)
 3635              		.loc 1 627 0
 3636 0274 97F8A332 		ldrb	r3, [r7, #675]	@ zero_extendqisi2
 3637 0278 002B     		cmp	r3, #0
 3638 027a 02D1     		bne	.L205
 628:main.c        ****                     UART_1_PutString("[NUDGE] Warning: limit origin not set. Use '[' in STANDBY.\r\
 3639              		.loc 1 628 0
 3640 027c 7A48     		ldr	r0, .L346+88
 3641 027e FFF7FEFF 		bl	UART_1_PutString
 3642              	.L205:
 629:main.c        ****                 nudge_print_pos(nudge_pan_deg, nudge_tilt_deg);
 3643              		.loc 1 629 0
 3644 0282 D7F8A412 		ldr	r1, [r7, #676]	@ float
 3645 0286 D7F8A802 		ldr	r0, [r7, #680]	@ float
 3646 028a FFF7FEFF 		bl	nudge_print_pos
 3647 028e 90E1     		b	.L200
 3648              	.L204:
 630:main.c        ****             }
 631:main.c        ****             else if (ch=='j'||ch=='J') {
 3649              		.loc 1 631 0
 3650 0290 97F86F32 		ldrb	r3, [r7, #623]	@ zero_extendqisi2
 3651 0294 6A2B     		cmp	r3, #106
 3652 0296 03D0     		beq	.L206
 3653              		.loc 1 631 0 is_stmt 0 discriminator 1
 3654 0298 97F86F32 		ldrb	r3, [r7, #623]	@ zero_extendqisi2
 3655 029c 4A2B     		cmp	r3, #74
ARM GAS  C:\Users\JENNEW~1\AppData\Local\Temp\ccFpxs5T.s 			page 84


 3656 029e 22D1     		bne	.L207
 3657              	.L206:
 632:main.c        ****                 joystick_active = !joystick_active;
 3658              		.loc 1 632 0 is_stmt 1
 3659 02a0 07F28713 		addw	r3, r7, #391
 3660 02a4 1B78     		ldrb	r3, [r3]	@ zero_extendqisi2
 3661 02a6 002B     		cmp	r3, #0
 3662 02a8 0CBF     		ite	eq
 3663 02aa 0123     		moveq	r3, #1
 3664 02ac 0023     		movne	r3, #0
 3665 02ae DBB2     		uxtb	r3, r3
 3666 02b0 1A46     		mov	r2, r3
 3667 02b2 07F28713 		addw	r3, r7, #391
 3668 02b6 1A70     		strb	r2, [r3]
 633:main.c        ****                 if (joystick_active) { diag_active=TRUE; abs_preset_active=FALSE; }
 3669              		.loc 1 633 0
 3670 02b8 07F28713 		addw	r3, r7, #391
 3671 02bc 1B78     		ldrb	r3, [r3]	@ zero_extendqisi2
 3672 02be 002B     		cmp	r3, #0
 3673 02c0 05D0     		beq	.L208
 3674              		.loc 1 633 0 is_stmt 0 discriminator 1
 3675 02c2 0123     		movs	r3, #1
 3676 02c4 87F8BF32 		strb	r3, [r7, #703]
 3677 02c8 0023     		movs	r3, #0
 3678 02ca 87F8B332 		strb	r3, [r7, #691]
 3679              	.L208:
 634:main.c        ****                 UART_1_PutString(joystick_active
 635:main.c        ****                     ? "[CLI] Joystick ON\r\n" : "[CLI] Joystick OFF\r\n");
 3680              		.loc 1 635 0 is_stmt 1
 3681 02ce 07F28713 		addw	r3, r7, #391
 3682 02d2 1B78     		ldrb	r3, [r3]	@ zero_extendqisi2
 634:main.c        ****                 UART_1_PutString(joystick_active
 3683              		.loc 1 634 0
 3684 02d4 002B     		cmp	r3, #0
 3685 02d6 01D0     		beq	.L209
 634:main.c        ****                 UART_1_PutString(joystick_active
 3686              		.loc 1 634 0 is_stmt 0 discriminator 1
 3687 02d8 644B     		ldr	r3, .L346+92
 3688 02da 00E0     		b	.L210
 3689              	.L209:
 634:main.c        ****                 UART_1_PutString(joystick_active
 3690              		.loc 1 634 0 discriminator 2
 3691 02dc 644B     		ldr	r3, .L346+96
 3692              	.L210:
 634:main.c        ****                 UART_1_PutString(joystick_active
 3693              		.loc 1 634 0 discriminator 4
 3694 02de 1846     		mov	r0, r3
 3695 02e0 FFF7FEFF 		bl	UART_1_PutString
 3696 02e4 65E1     		b	.L200
 3697              	.L207:
 636:main.c        ****             }
 637:main.c        ****             else if (ch=='l'||ch=='L') {
 3698              		.loc 1 637 0 is_stmt 1
 3699 02e6 97F86F32 		ldrb	r3, [r7, #623]	@ zero_extendqisi2
 3700 02ea 6C2B     		cmp	r3, #108
 3701 02ec 03D0     		beq	.L211
 3702              		.loc 1 637 0 is_stmt 0 discriminator 1
ARM GAS  C:\Users\JENNEW~1\AppData\Local\Temp\ccFpxs5T.s 			page 85


 3703 02ee 97F86F32 		ldrb	r3, [r7, #623]	@ zero_extendqisi2
 3704 02f2 4C2B     		cmp	r3, #76
 3705 02f4 2DD1     		bne	.L212
 3706              	.L211:
 638:main.c        ****                 if      (ctrl_mode==HAMFLY_DEFER)    ctrl_mode=HAMFLY_RATE;
 3707              		.loc 1 638 0 is_stmt 1
 3708 02f6 07F5CF73 		add	r3, r7, #414
 3709 02fa 1B78     		ldrb	r3, [r3]	@ zero_extendqisi2
 3710 02fc 002B     		cmp	r3, #0
 3711 02fe 04D1     		bne	.L213
 3712              		.loc 1 638 0 is_stmt 0 discriminator 1
 3713 0300 07F5CF73 		add	r3, r7, #414
 3714 0304 0122     		movs	r2, #1
 3715 0306 1A70     		strb	r2, [r3]
 3716 0308 0DE0     		b	.L214
 3717              	.L213:
 639:main.c        ****                 else if (ctrl_mode==HAMFLY_RATE)     ctrl_mode=HAMFLY_ABSOLUTE;
 3718              		.loc 1 639 0 is_stmt 1
 3719 030a 07F5CF73 		add	r3, r7, #414
 3720 030e 1B78     		ldrb	r3, [r3]	@ zero_extendqisi2
 3721 0310 012B     		cmp	r3, #1
 3722 0312 04D1     		bne	.L215
 3723              		.loc 1 639 0 is_stmt 0 discriminator 1
 3724 0314 07F5CF73 		add	r3, r7, #414
 3725 0318 0222     		movs	r2, #2
 3726 031a 1A70     		strb	r2, [r3]
 3727 031c 03E0     		b	.L214
 3728              	.L215:
 640:main.c        ****                 else                                  ctrl_mode=HAMFLY_DEFER;
 3729              		.loc 1 640 0 is_stmt 1
 3730 031e 07F5CF73 		add	r3, r7, #414
 3731 0322 0022     		movs	r2, #0
 3732 0324 1A70     		strb	r2, [r3]
 3733              	.L214:
 641:main.c        ****                 abs_preset_active = FALSE;
 3734              		.loc 1 641 0
 3735 0326 0023     		movs	r3, #0
 3736 0328 87F8B332 		strb	r3, [r7, #691]
 642:main.c        ****                 sprintf(tx,"[CLI] Mode: %s\r\n",mode_str(ctrl_mode));
 3737              		.loc 1 642 0
 3738 032c 07F5CF73 		add	r3, r7, #414
 3739 0330 1B78     		ldrb	r3, [r3]	@ zero_extendqisi2
 3740 0332 1846     		mov	r0, r3
 3741 0334 FFF7FEFF 		bl	mode_str
 3742 0338 0246     		mov	r2, r0
 3743 033a 07F5D073 		add	r3, r7, #416
 3744 033e 4D49     		ldr	r1, .L346+100
 3745 0340 1846     		mov	r0, r3
 3746 0342 FFF7FEFF 		bl	sprintf
 643:main.c        ****                 UART_1_PutString(tx);
 3747              		.loc 1 643 0
 3748 0346 07F5D073 		add	r3, r7, #416
 3749 034a 1846     		mov	r0, r3
 3750 034c FFF7FEFF 		bl	UART_1_PutString
 3751 0350 2FE1     		b	.L200
 3752              	.L212:
 644:main.c        ****             }
ARM GAS  C:\Users\JENNEW~1\AppData\Local\Temp\ccFpxs5T.s 			page 86


 645:main.c        ****             else if (ch=='k'||ch=='K') {
 3753              		.loc 1 645 0
 3754 0352 97F86F32 		ldrb	r3, [r7, #623]	@ zero_extendqisi2
 3755 0356 6B2B     		cmp	r3, #107
 3756 0358 03D0     		beq	.L216
 3757              		.loc 1 645 0 is_stmt 0 discriminator 1
 3758 035a 97F86F32 		ldrb	r3, [r7, #623]	@ zero_extendqisi2
 3759 035e 4B2B     		cmp	r3, #75
 3760 0360 0DD1     		bne	.L217
 3761              	.L216:
 646:main.c        ****                 abs_preset_active = FALSE;
 3762              		.loc 1 646 0 is_stmt 1
 3763 0362 0023     		movs	r3, #0
 3764 0364 87F8B332 		strb	r3, [r7, #691]
 647:main.c        ****                 do_kill(&app_mode, &joystick_active,
 3765              		.loc 1 647 0
 3766 0368 07F5CF73 		add	r3, r7, #414
 3767 036c 07F5C372 		add	r2, r7, #390
 3768 0370 07F28711 		addw	r1, r7, #391
 3769 0374 07F29F10 		addw	r0, r7, #415
 3770 0378 FFF7FEFF 		bl	do_kill
 3771 037c 19E1     		b	.L200
 3772              	.L217:
 648:main.c        ****                         &streaming_adc, &ctrl_mode);
 649:main.c        ****             }
 650:main.c        ****             else if (ch=='x'||ch=='X') {
 3773              		.loc 1 650 0
 3774 037e 97F86F32 		ldrb	r3, [r7, #623]	@ zero_extendqisi2
 3775 0382 782B     		cmp	r3, #120
 3776 0384 03D0     		beq	.L218
 3777              		.loc 1 650 0 is_stmt 0 discriminator 1
 3778 0386 97F86F32 		ldrb	r3, [r7, #623]	@ zero_extendqisi2
 3779 038a 582B     		cmp	r3, #88
 3780 038c 13D1     		bne	.L219
 3781              	.L218:
 651:main.c        ****                 abs_preset_active = FALSE;
 3782              		.loc 1 651 0 is_stmt 1
 3783 038e 0023     		movs	r3, #0
 3784 0390 87F8B332 		strb	r3, [r7, #691]
 652:main.c        ****                 do_kill(&app_mode, &joystick_active,
 3785              		.loc 1 652 0
 3786 0394 07F5CF73 		add	r3, r7, #414
 3787 0398 07F5C372 		add	r2, r7, #390
 3788 039c 07F28711 		addw	r1, r7, #391
 3789 03a0 07F29F10 		addw	r0, r7, #415
 3790 03a4 FFF7FEFF 		bl	do_kill
 653:main.c        ****                         &streaming_adc, &ctrl_mode);
 654:main.c        ****                 diag_active = FALSE;
 3791              		.loc 1 654 0
 3792 03a8 0023     		movs	r3, #0
 3793 03aa 87F8BF32 		strb	r3, [r7, #703]
 655:main.c        ****                 UART_1_PutString("[CLI] Quiet. m or j to resume.\r\n");
 3794              		.loc 1 655 0
 3795 03ae 3248     		ldr	r0, .L346+104
 3796 03b0 FFF7FEFF 		bl	UART_1_PutString
 3797 03b4 FDE0     		b	.L200
 3798              	.L219:
ARM GAS  C:\Users\JENNEW~1\AppData\Local\Temp\ccFpxs5T.s 			page 87


 656:main.c        ****             }
 657:main.c        ****             else if (ch=='s'||ch=='S') {
 3799              		.loc 1 657 0
 3800 03b6 97F86F32 		ldrb	r3, [r7, #623]	@ zero_extendqisi2
 3801 03ba 732B     		cmp	r3, #115
 3802 03bc 03D0     		beq	.L220
 3803              		.loc 1 657 0 is_stmt 0 discriminator 1
 3804 03be 97F86F32 		ldrb	r3, [r7, #623]	@ zero_extendqisi2
 3805 03c2 532B     		cmp	r3, #83
 3806 03c4 17D1     		bne	.L221
 3807              	.L220:
 658:main.c        ****                 streaming_adc = !streaming_adc;
 3808              		.loc 1 658 0 is_stmt 1
 3809 03c6 07F5C373 		add	r3, r7, #390
 3810 03ca 1B78     		ldrb	r3, [r3]	@ zero_extendqisi2
 3811 03cc 002B     		cmp	r3, #0
 3812 03ce 0CBF     		ite	eq
 3813 03d0 0123     		moveq	r3, #1
 3814 03d2 0023     		movne	r3, #0
 3815 03d4 DBB2     		uxtb	r3, r3
 3816 03d6 1A46     		mov	r2, r3
 3817 03d8 07F5C373 		add	r3, r7, #390
 3818 03dc 1A70     		strb	r2, [r3]
 659:main.c        ****                 UART_1_PutString(streaming_adc
 660:main.c        ****                     ? "[CLI] ADC stream ON\r\n":"[CLI] ADC stream OFF\r\n");
 3819              		.loc 1 660 0
 3820 03de 07F5C373 		add	r3, r7, #390
 3821 03e2 1B78     		ldrb	r3, [r3]	@ zero_extendqisi2
 659:main.c        ****                 UART_1_PutString(streaming_adc
 3822              		.loc 1 659 0
 3823 03e4 002B     		cmp	r3, #0
 3824 03e6 01D0     		beq	.L222
 659:main.c        ****                 UART_1_PutString(streaming_adc
 3825              		.loc 1 659 0 is_stmt 0 discriminator 1
 3826 03e8 244B     		ldr	r3, .L346+108
 3827 03ea 00E0     		b	.L223
 3828              	.L222:
 659:main.c        ****                 UART_1_PutString(streaming_adc
 3829              		.loc 1 659 0 discriminator 2
 3830 03ec 244B     		ldr	r3, .L346+112
 3831              	.L223:
 659:main.c        ****                 UART_1_PutString(streaming_adc
 3832              		.loc 1 659 0 discriminator 4
 3833 03ee 1846     		mov	r0, r3
 3834 03f0 FFF7FEFF 		bl	UART_1_PutString
 3835 03f4 DDE0     		b	.L200
 3836              	.L221:
 661:main.c        ****             }
 662:main.c        ****             else if (ch=='c'||ch=='C') {
 3837              		.loc 1 662 0 is_stmt 1
 3838 03f6 97F86F32 		ldrb	r3, [r7, #623]	@ zero_extendqisi2
 3839 03fa 632B     		cmp	r3, #99
 3840 03fc 03D0     		beq	.L224
 3841              		.loc 1 662 0 is_stmt 0 discriminator 1
 3842 03fe 97F86F32 		ldrb	r3, [r7, #623]	@ zero_extendqisi2
 3843 0402 432B     		cmp	r3, #67
 3844 0404 3ED1     		bne	.L225
ARM GAS  C:\Users\JENNEW~1\AppData\Local\Temp\ccFpxs5T.s 			page 88


 3845              	.L224:
 663:main.c        ****                 joystick_on_key('c');
 3846              		.loc 1 663 0 is_stmt 1
 3847 0406 6320     		movs	r0, #99
 3848 0408 FFF7FEFF 		bl	joystick_on_key
 3849 040c D1E0     		b	.L200
 3850              	.L347:
 3851 040e 00BF     		.align	2
 3852              	.L346:
 3853 0410 C4050000 		.word	.LC47
 3854 0414 EC050000 		.word	.LC48
 3855 0418 14060000 		.word	.LC49
 3856 041c 48060000 		.word	.LC50
 3857 0420 74060000 		.word	.LC51
 3858 0424 A8060000 		.word	.LC52
 3859 0428 D8060000 		.word	.LC53
 3860 042c 04070000 		.word	.LC54
 3861 0430 2C070000 		.word	.LC55
 3862 0434 00000000 		.word	MOVI_HAL
 3863 0438 00000000 		.word	g_movi
 3864 043c 00000000 		.word	isr_rx_movi_Handler
 3865 0440 60070000 		.word	.LC56
 3866 0444 7C070000 		.word	.LC57
 3867 0448 A4070000 		.word	.LC58
 3868 044c C4070000 		.word	.LC59
 3869 0450 00000000 		.word	isr_Looptimer_Handler
 3870 0454 E4070000 		.word	.LC60
 3871 0458 04080000 		.word	.LC61
 3872 045c 18080000 		.word	.LC62
 3873 0460 2C080000 		.word	.LC63
 3874 0464 40080000 		.word	.LC64
 3875 0468 80080000 		.word	.LC65
 3876 046c C0080000 		.word	.LC66
 3877 0470 D4080000 		.word	.LC67
 3878 0474 EC080000 		.word	.LC68
 3879 0478 00090000 		.word	.LC69
 3880 047c 24090000 		.word	.LC70
 3881 0480 3C090000 		.word	.LC71
 3882              	.L225:
 664:main.c        ****             }
 665:main.c        ****             /* Go to absolute (0,0) — optical boresight shortcut */
 666:main.c        ****             else if (ch=='z'||ch=='Z') {
 3883              		.loc 1 666 0
 3884 0484 97F86F32 		ldrb	r3, [r7, #623]	@ zero_extendqisi2
 3885 0488 7A2B     		cmp	r3, #122
 3886 048a 03D0     		beq	.L226
 3887              		.loc 1 666 0 is_stmt 0 discriminator 1
 3888 048c 97F86F32 		ldrb	r3, [r7, #623]	@ zero_extendqisi2
 3889 0490 5A2B     		cmp	r3, #90
 3890 0492 23D1     		bne	.L227
 3891              	.L226:
 667:main.c        ****                 abs_pan_target    = 0.0f;
 3892              		.loc 1 667 0 is_stmt 1
 3893 0494 4FF00003 		mov	r3, #0
 3894 0498 C7F8B832 		str	r3, [r7, #696]	@ float
 668:main.c        ****                 abs_tilt_target   = 0.0f;
 3895              		.loc 1 668 0
ARM GAS  C:\Users\JENNEW~1\AppData\Local\Temp\ccFpxs5T.s 			page 89


 3896 049c 4FF00003 		mov	r3, #0
 3897 04a0 C7F8B432 		str	r3, [r7, #692]	@ float
 669:main.c        ****                 abs_preset_active = TRUE;
 3898              		.loc 1 669 0
 3899 04a4 0123     		movs	r3, #1
 3900 04a6 87F8B332 		strb	r3, [r7, #691]
 670:main.c        ****                 joystick_active   = FALSE;
 3901              		.loc 1 670 0
 3902 04aa 07F28713 		addw	r3, r7, #391
 3903 04ae 0022     		movs	r2, #0
 3904 04b0 1A70     		strb	r2, [r3]
 671:main.c        ****                 preset_sent_ms    = g_tick_ms;
 3905              		.loc 1 671 0
 3906 04b2 CD4B     		ldr	r3, .L348
 3907 04b4 1B68     		ldr	r3, [r3]
 3908 04b6 C7F8AC32 		str	r3, [r7, #684]
 672:main.c        ****                 /* Ensure ABS mode is active */
 673:main.c        ****                 ctrl_mode = HAMFLY_ABSOLUTE;
 3909              		.loc 1 673 0
 3910 04ba 07F5CF73 		add	r3, r7, #414
 3911 04be 0222     		movs	r2, #2
 3912 04c0 1A70     		strb	r2, [r3]
 674:main.c        ****                 if (app_mode == APP_MODE_STANDBY)
 3913              		.loc 1 674 0
 3914 04c2 07F29F13 		addw	r3, r7, #415
 3915 04c6 1B78     		ldrb	r3, [r3]	@ zero_extendqisi2
 3916 04c8 002B     		cmp	r3, #0
 3917 04ca 03D1     		bne	.L228
 675:main.c        ****                     app_mode = APP_MODE_CONTROL;
 3918              		.loc 1 675 0
 3919 04cc 07F29F13 		addw	r3, r7, #415
 3920 04d0 0122     		movs	r2, #1
 3921 04d2 1A70     		strb	r2, [r3]
 3922              	.L228:
 676:main.c        ****                 UART_1_PutString("[CLI] Commanding (0, 0)...\r\n");
 3923              		.loc 1 676 0
 3924 04d4 C548     		ldr	r0, .L348+4
 3925 04d6 FFF7FEFF 		bl	UART_1_PutString
 3926 04da 6AE0     		b	.L200
 3927              	.L227:
 677:main.c        ****             }
 678:main.c        ****             /* Set limit origin at current Euler position */
 679:main.c        ****             else if (ch=='[') {
 3928              		.loc 1 679 0
 3929 04dc 97F86F32 		ldrb	r3, [r7, #623]	@ zero_extendqisi2
 3930 04e0 5B2B     		cmp	r3, #91
 3931 04e2 66D1     		bne	.L200
 3932              	.LBB13:
 680:main.c        ****                 float pd = 0.0f, td = 0.0f;
 3933              		.loc 1 680 0
 3934 04e4 07F5B273 		add	r3, r7, #356
 3935 04e8 4FF00002 		mov	r2, #0
 3936 04ec 1A60     		str	r2, [r3]	@ float
 3937 04ee 07F5B073 		add	r3, r7, #352
 3938 04f2 4FF00002 		mov	r2, #0
 3939 04f6 1A60     		str	r2, [r3]	@ float
 681:main.c        ****                 if (get_euler_deg(&pd, &td)) {
ARM GAS  C:\Users\JENNEW~1\AppData\Local\Temp\ccFpxs5T.s 			page 90


 3940              		.loc 1 681 0
 3941 04f8 07F5B072 		add	r2, r7, #352
 3942 04fc 07F5B273 		add	r3, r7, #356
 3943 0500 1146     		mov	r1, r2
 3944 0502 1846     		mov	r0, r3
 3945 0504 FFF7FEFF 		bl	get_euler_deg
 3946 0508 0346     		mov	r3, r0
 3947 050a 002B     		cmp	r3, #0
 3948 050c 4ED0     		beq	.L229
 3949              	.LBB14:
 682:main.c        ****                     origin_pan_deg  = pd;
 3950              		.loc 1 682 0
 3951 050e 07F5B273 		add	r3, r7, #356
 3952 0512 1B68     		ldr	r3, [r3]	@ float
 3953 0514 C7F87832 		str	r3, [r7, #632]	@ float
 683:main.c        ****                     origin_tilt_deg = td;
 3954              		.loc 1 683 0
 3955 0518 07F5B073 		add	r3, r7, #352
 3956 051c 1B68     		ldr	r3, [r3]	@ float
 3957 051e C7F87432 		str	r3, [r7, #628]	@ float
 684:main.c        ****                     origin_set = TRUE;
 3958              		.loc 1 684 0
 3959 0522 0123     		movs	r3, #1
 3960 0524 87F8A332 		strb	r3, [r7, #675]
 685:main.c        ****                     char ps, ts;
 686:main.c        ****                     int16_t pi, pf, ti, tf;
 687:main.c        ****                     decomp(pd, &pi, &pf, &ps);
 3961              		.loc 1 687 0
 3962 0528 07F5B273 		add	r3, r7, #356
 3963 052c 1868     		ldr	r0, [r3]	@ float
 3964 052e 07F25F13 		addw	r3, r7, #351
 3965 0532 07F5AD72 		add	r2, r7, #346
 3966 0536 07F5AE71 		add	r1, r7, #348
 3967 053a FFF7FEFF 		bl	decomp
 688:main.c        ****                     decomp(td, &ti, &tf, &ts);
 3968              		.loc 1 688 0
 3969 053e 07F5B073 		add	r3, r7, #352
 3970 0542 1868     		ldr	r0, [r3]	@ float
 3971 0544 07F5AF73 		add	r3, r7, #350
 3972 0548 07F5AB72 		add	r2, r7, #342
 3973 054c 07F5AC71 		add	r1, r7, #344
 3974 0550 FFF7FEFF 		bl	decomp
 689:main.c        ****                     sprintf(tx,
 3975              		.loc 1 689 0
 3976 0554 07F25F13 		addw	r3, r7, #351
 3977 0558 1B78     		ldrb	r3, [r3]	@ zero_extendqisi2
 3978 055a 1D46     		mov	r5, r3
 3979 055c 07F5AE73 		add	r3, r7, #348
 3980 0560 B3F90030 		ldrsh	r3, [r3]
 3981 0564 1E46     		mov	r6, r3
 3982 0566 07F5AD73 		add	r3, r7, #346
 3983 056a B3F90030 		ldrsh	r3, [r3]
 3984 056e 1A46     		mov	r2, r3
 3985 0570 07F5AF73 		add	r3, r7, #350
 3986 0574 1B78     		ldrb	r3, [r3]	@ zero_extendqisi2
 3987 0576 1946     		mov	r1, r3
 3988 0578 07F5AC73 		add	r3, r7, #344
ARM GAS  C:\Users\JENNEW~1\AppData\Local\Temp\ccFpxs5T.s 			page 91


 3989 057c B3F90030 		ldrsh	r3, [r3]
 3990 0580 1C46     		mov	r4, r3
 3991 0582 07F5AB73 		add	r3, r7, #342
 3992 0586 B3F90030 		ldrsh	r3, [r3]
 3993 058a 07F5D070 		add	r0, r7, #416
 3994 058e 0393     		str	r3, [sp, #12]
 3995 0590 0294     		str	r4, [sp, #8]
 3996 0592 0191     		str	r1, [sp, #4]
 3997 0594 0092     		str	r2, [sp]
 3998 0596 3346     		mov	r3, r6
 3999 0598 2A46     		mov	r2, r5
 4000 059a 9549     		ldr	r1, .L348+8
 4001 059c FFF7FEFF 		bl	sprintf
 690:main.c        ****                         "[CLI] Limit origin set: Pan=%c%d.%02d  Tilt=%c%d.%02d deg\r\n",
 691:main.c        ****                         ps,pi,pf, ts,ti,tf);
 692:main.c        ****                     UART_1_PutString(tx);
 4002              		.loc 1 692 0
 4003 05a0 07F5D073 		add	r3, r7, #416
 4004 05a4 1846     		mov	r0, r3
 4005 05a6 FFF7FEFF 		bl	UART_1_PutString
 4006              	.LBE14:
 4007 05aa 02E0     		b	.L200
 4008              	.L229:
 693:main.c        ****                 } else {
 694:main.c        ****                     UART_1_PutString("[CLI] No valid telemetry -- cannot set origin\r\n");
 4009              		.loc 1 694 0
 4010 05ac 9148     		ldr	r0, .L348+12
 4011 05ae FFF7FEFF 		bl	UART_1_PutString
 4012              	.L200:
 4013              	.LBE13:
 695:main.c        ****                 }
 696:main.c        ****             }
 697:main.c        **** 
 698:main.c        ****             /* ---- CONTROL-only keys ---- */
 699:main.c        ****             if (app_mode == APP_MODE_CONTROL) {
 4014              		.loc 1 699 0
 4015 05b2 07F29F13 		addw	r3, r7, #415
 4016 05b6 1B78     		ldrb	r3, [r3]	@ zero_extendqisi2
 4017 05b8 012B     		cmp	r3, #1
 4018 05ba 40F09382 		bne	.L344
 700:main.c        ****                 if (ch=='p'||ch=='P') {
 4019              		.loc 1 700 0
 4020 05be 97F86F32 		ldrb	r3, [r7, #623]	@ zero_extendqisi2
 4021 05c2 702B     		cmp	r3, #112
 4022 05c4 03D0     		beq	.L232
 4023              		.loc 1 700 0 is_stmt 0 discriminator 1
 4024 05c6 97F86F32 		ldrb	r3, [r7, #623]	@ zero_extendqisi2
 4025 05ca 502B     		cmp	r3, #80
 4026 05cc 13D1     		bne	.L233
 4027              	.L232:
 701:main.c        ****                     show_platform_yaw = !show_platform_yaw;
 4028              		.loc 1 701 0 is_stmt 1
 4029 05ce 97F8BE32 		ldrb	r3, [r7, #702]	@ zero_extendqisi2
 4030 05d2 002B     		cmp	r3, #0
 4031 05d4 0CBF     		ite	eq
 4032 05d6 0123     		moveq	r3, #1
 4033 05d8 0023     		movne	r3, #0
ARM GAS  C:\Users\JENNEW~1\AppData\Local\Temp\ccFpxs5T.s 			page 92


 4034 05da DBB2     		uxtb	r3, r3
 4035 05dc 87F8BE32 		strb	r3, [r7, #702]
 702:main.c        ****                     UART_1_PutString(show_platform_yaw
 4036              		.loc 1 702 0
 4037 05e0 97F8BE32 		ldrb	r3, [r7, #702]	@ zero_extendqisi2
 4038 05e4 002B     		cmp	r3, #0
 4039 05e6 01D0     		beq	.L234
 4040              		.loc 1 702 0 is_stmt 0 discriminator 1
 4041 05e8 834B     		ldr	r3, .L348+16
 4042 05ea 00E0     		b	.L235
 4043              	.L234:
 4044              		.loc 1 702 0 discriminator 2
 4045 05ec 834B     		ldr	r3, .L348+20
 4046              	.L235:
 4047              		.loc 1 702 0 discriminator 4
 4048 05ee 1846     		mov	r0, r3
 4049 05f0 FFF7FEFF 		bl	UART_1_PutString
 699:main.c        ****                 if (ch=='p'||ch=='P') {
 4050              		.loc 1 699 0 is_stmt 1 discriminator 4
 4051 05f4 76E2     		b	.L344
 4052              	.L233:
 703:main.c        ****                         ? "[CTRL] Platform yaw ON\r\n"
 704:main.c        ****                         : "[CTRL] Platform yaw OFF\r\n");
 705:main.c        ****                 }
 706:main.c        ****                 /* Numpad presets: require ABS mode */
 707:main.c        ****                 else if (ch=='8'||ch=='2'||ch=='5'||
 4053              		.loc 1 707 0
 4054 05f6 97F86F32 		ldrb	r3, [r7, #623]	@ zero_extendqisi2
 4055 05fa 382B     		cmp	r3, #56
 4056 05fc 14D0     		beq	.L236
 4057              		.loc 1 707 0 is_stmt 0 discriminator 1
 4058 05fe 97F86F32 		ldrb	r3, [r7, #623]	@ zero_extendqisi2
 4059 0602 322B     		cmp	r3, #50
 4060 0604 10D0     		beq	.L236
 4061              		.loc 1 707 0 discriminator 2
 4062 0606 97F86F32 		ldrb	r3, [r7, #623]	@ zero_extendqisi2
 4063 060a 352B     		cmp	r3, #53
 4064 060c 0CD0     		beq	.L236
 4065              		.loc 1 707 0 discriminator 3
 4066 060e 97F86F32 		ldrb	r3, [r7, #623]	@ zero_extendqisi2
 4067 0612 342B     		cmp	r3, #52
 4068 0614 08D0     		beq	.L236
 708:main.c        ****                          ch=='4'||ch=='6'||ch=='0') {
 4069              		.loc 1 708 0 is_stmt 1
 4070 0616 97F86F32 		ldrb	r3, [r7, #623]	@ zero_extendqisi2
 4071 061a 362B     		cmp	r3, #54
 4072 061c 04D0     		beq	.L236
 4073              		.loc 1 708 0 is_stmt 0 discriminator 1
 4074 061e 97F86F32 		ldrb	r3, [r7, #623]	@ zero_extendqisi2
 4075 0622 302B     		cmp	r3, #48
 4076 0624 40F05E82 		bne	.L344
 4077              	.L236:
 709:main.c        ****                     if (ctrl_mode != HAMFLY_ABSOLUTE) {
 4078              		.loc 1 709 0 is_stmt 1
 4079 0628 07F5CF73 		add	r3, r7, #414
 4080 062c 1B78     		ldrb	r3, [r3]	@ zero_extendqisi2
 4081 062e 022B     		cmp	r3, #2
ARM GAS  C:\Users\JENNEW~1\AppData\Local\Temp\ccFpxs5T.s 			page 93


 4082 0630 03D0     		beq	.L237
 710:main.c        ****                         UART_1_PutString("[CTRL] Need ABS mode -- press 'l'\r\n");
 4083              		.loc 1 710 0
 4084 0632 7348     		ldr	r0, .L348+24
 4085 0634 FFF7FEFF 		bl	UART_1_PutString
 699:main.c        ****                 if (ch=='p'||ch=='P') {
 4086              		.loc 1 699 0
 4087 0638 54E2     		b	.L344
 4088              	.L237:
 711:main.c        ****                     } else {
 712:main.c        ****                         switch (ch) {
 4089              		.loc 1 712 0
 4090 063a 97F86F32 		ldrb	r3, [r7, #623]	@ zero_extendqisi2
 4091 063e 303B     		subs	r3, r3, #48
 4092 0640 082B     		cmp	r3, #8
 4093 0642 5AD8     		bhi	.L345
 4094 0644 01A2     		adr	r2, .L240
 4095 0646 52F823F0 		ldr	pc, [r2, r3, lsl #2]
 4096 064a 00BF     		.p2align 2
 4097              	.L240:
 4098 064c 87060000 		.word	.L239+1
 4099 0650 FB060000 		.word	.L345+1
 4100 0654 E5060000 		.word	.L241+1
 4101 0658 FB060000 		.word	.L345+1
 4102 065c 71060000 		.word	.L242+1
 4103 0660 CD060000 		.word	.L243+1
 4104 0664 9F060000 		.word	.L244+1
 4105 0668 FB060000 		.word	.L345+1
 4106 066c B7060000 		.word	.L245+1
 4107              		.p2align 1
 4108              	.L242:
 713:main.c        ****                             /* Pan presets */
 714:main.c        ****                             case '4':
 715:main.c        ****                                 abs_pan_target  = DEG_TO_UNIT(-45.0f);
 4109              		.loc 1 715 0
 4110 0670 644B     		ldr	r3, .L348+28
 4111 0672 C7F8B832 		str	r3, [r7, #696]	@ float
 716:main.c        ****                                 abs_tilt_target = 0.0f;
 4112              		.loc 1 716 0
 4113 0676 4FF00003 		mov	r3, #0
 4114 067a C7F8B432 		str	r3, [r7, #692]	@ float
 717:main.c        ****                                 UART_1_PutString("[CTRL] Pan -45 deg\r\n"); break;
 4115              		.loc 1 717 0
 4116 067e 6248     		ldr	r0, .L348+32
 4117 0680 FFF7FEFF 		bl	UART_1_PutString
 4118 0684 3AE0     		b	.L246
 4119              	.L239:
 718:main.c        ****                             case '0':
 719:main.c        ****                                 abs_pan_target  = 0.0f;
 4120              		.loc 1 719 0
 4121 0686 4FF00003 		mov	r3, #0
 4122 068a C7F8B832 		str	r3, [r7, #696]	@ float
 720:main.c        ****                                 abs_tilt_target = 0.0f;
 4123              		.loc 1 720 0
 4124 068e 4FF00003 		mov	r3, #0
 4125 0692 C7F8B432 		str	r3, [r7, #692]	@ float
 721:main.c        ****                                 UART_1_PutString("[CTRL] Pan 0 (home)\r\n"); break;
ARM GAS  C:\Users\JENNEW~1\AppData\Local\Temp\ccFpxs5T.s 			page 94


 4126              		.loc 1 721 0
 4127 0696 5D48     		ldr	r0, .L348+36
 4128 0698 FFF7FEFF 		bl	UART_1_PutString
 4129 069c 2EE0     		b	.L246
 4130              	.L244:
 722:main.c        ****                             case '6':
 723:main.c        ****                                 abs_pan_target  = DEG_TO_UNIT(45.0f);
 4131              		.loc 1 723 0
 4132 069e 4FF07A53 		mov	r3, #1048576000
 4133 06a2 C7F8B832 		str	r3, [r7, #696]	@ float
 724:main.c        ****                                 abs_tilt_target = 0.0f;
 4134              		.loc 1 724 0
 4135 06a6 4FF00003 		mov	r3, #0
 4136 06aa C7F8B432 		str	r3, [r7, #692]	@ float
 725:main.c        ****                                 UART_1_PutString("[CTRL] Pan +45 deg\r\n"); break;
 4137              		.loc 1 725 0
 4138 06ae 5848     		ldr	r0, .L348+40
 4139 06b0 FFF7FEFF 		bl	UART_1_PutString
 4140 06b4 22E0     		b	.L246
 4141              	.L245:
 726:main.c        ****                             /* Tilt presets */
 727:main.c        ****                             case '8':
 728:main.c        ****                                 abs_pan_target  = 0.0f;
 4142              		.loc 1 728 0
 4143 06b6 4FF00003 		mov	r3, #0
 4144 06ba C7F8B832 		str	r3, [r7, #696]	@ float
 729:main.c        ****                                 abs_tilt_target = DEG_TO_UNIT(25.0f);
 4145              		.loc 1 729 0
 4146 06be 554B     		ldr	r3, .L348+44
 4147 06c0 C7F8B432 		str	r3, [r7, #692]	@ float
 730:main.c        ****                                 UART_1_PutString("[CTRL] Tilt +25 deg\r\n"); break;
 4148              		.loc 1 730 0
 4149 06c4 5448     		ldr	r0, .L348+48
 4150 06c6 FFF7FEFF 		bl	UART_1_PutString
 4151 06ca 17E0     		b	.L246
 4152              	.L243:
 731:main.c        ****                             case '5':
 732:main.c        ****                                 abs_pan_target  = 0.0f;
 4153              		.loc 1 732 0
 4154 06cc 4FF00003 		mov	r3, #0
 4155 06d0 C7F8B832 		str	r3, [r7, #696]	@ float
 733:main.c        ****                                 abs_tilt_target = 0.0f;
 4156              		.loc 1 733 0
 4157 06d4 4FF00003 		mov	r3, #0
 4158 06d8 C7F8B432 		str	r3, [r7, #692]	@ float
 734:main.c        ****                                 UART_1_PutString("[CTRL] Tilt 0 deg\r\n"); break;
 4159              		.loc 1 734 0
 4160 06dc 4F48     		ldr	r0, .L348+52
 4161 06de FFF7FEFF 		bl	UART_1_PutString
 4162 06e2 0BE0     		b	.L246
 4163              	.L241:
 735:main.c        ****                             case '2':
 736:main.c        ****                                 abs_pan_target  = 0.0f;
 4164              		.loc 1 736 0
 4165 06e4 4FF00003 		mov	r3, #0
 4166 06e8 C7F8B832 		str	r3, [r7, #696]	@ float
 737:main.c        ****                                 abs_tilt_target = DEG_TO_UNIT(-25.0f);
ARM GAS  C:\Users\JENNEW~1\AppData\Local\Temp\ccFpxs5T.s 			page 95


 4167              		.loc 1 737 0
 4168 06ec 4C4B     		ldr	r3, .L348+56
 4169 06ee C7F8B432 		str	r3, [r7, #692]	@ float
 738:main.c        ****                                 UART_1_PutString("[CTRL] Tilt -25 deg\r\n"); break;
 4170              		.loc 1 738 0
 4171 06f2 4C48     		ldr	r0, .L348+60
 4172 06f4 FFF7FEFF 		bl	UART_1_PutString
 4173 06f8 00E0     		b	.L246
 4174              	.L345:
 739:main.c        ****                             default: break;
 4175              		.loc 1 739 0
 4176 06fa 00BF     		nop
 4177              	.L246:
 740:main.c        ****                         }
 741:main.c        ****                         abs_preset_active = TRUE;
 4178              		.loc 1 741 0
 4179 06fc 0123     		movs	r3, #1
 4180 06fe 87F8B332 		strb	r3, [r7, #691]
 742:main.c        ****                         joystick_active   = FALSE;
 4181              		.loc 1 742 0
 4182 0702 07F28713 		addw	r3, r7, #391
 4183 0706 0022     		movs	r2, #0
 4184 0708 1A70     		strb	r2, [r3]
 743:main.c        ****                         preset_sent_ms    = g_tick_ms;
 4185              		.loc 1 743 0
 4186 070a 374B     		ldr	r3, .L348
 4187 070c 1B68     		ldr	r3, [r3]
 4188 070e C7F8AC32 		str	r3, [r7, #684]
 699:main.c        ****                 if (ch=='p'||ch=='P') {
 4189              		.loc 1 699 0
 4190 0712 E7E1     		b	.L344
 4191              	.L195:
 744:main.c        ****                     }
 745:main.c        ****                 }
 746:main.c        ****             }
 747:main.c        ****         }
 748:main.c        **** 
 749:main.c        ****         /* ----------------------------------------------------------------
 750:main.c        ****          * QUERY keys
 751:main.c        ****          * ---------------------------------------------------------------- */
 752:main.c        ****         else if (app_mode == APP_MODE_QUERY) {
 4192              		.loc 1 752 0
 4193 0714 07F29F13 		addw	r3, r7, #415
 4194 0718 1B78     		ldrb	r3, [r3]	@ zero_extendqisi2
 4195 071a 022B     		cmp	r3, #2
 4196 071c 40F0E380 		bne	.L248
 753:main.c        ****             if (ch=='t'||ch=='T') {
 4197              		.loc 1 753 0
 4198 0720 97F86F32 		ldrb	r3, [r7, #623]	@ zero_extendqisi2
 4199 0724 742B     		cmp	r3, #116
 4200 0726 03D0     		beq	.L249
 4201              		.loc 1 753 0 is_stmt 0 discriminator 1
 4202 0728 97F86F32 		ldrb	r3, [r7, #623]	@ zero_extendqisi2
 4203 072c 542B     		cmp	r3, #84
 4204 072e 0FD1     		bne	.L250
 4205              	.L249:
 754:main.c        ****                 g_movi.pending_attr  = 0u;
ARM GAS  C:\Users\JENNEW~1\AppData\Local\Temp\ccFpxs5T.s 			page 96


 4206              		.loc 1 754 0 is_stmt 1
 4207 0730 3D4B     		ldr	r3, .L348+64
 4208 0732 0022     		movs	r2, #0
 4209 0734 A3F83223 		strh	r2, [r3, #818]	@ movhi
 755:main.c        ****                 g_movi.pending_ready = false;
 4210              		.loc 1 755 0
 4211 0738 3B4B     		ldr	r3, .L348+64
 4212 073a 0022     		movs	r2, #0
 4213 073c 83F83823 		strb	r2, [r3, #824]
 756:main.c        ****                 app_mode = APP_MODE_STANDBY;
 4214              		.loc 1 756 0
 4215 0740 07F29F13 		addw	r3, r7, #415
 4216 0744 0022     		movs	r2, #0
 4217 0746 1A70     		strb	r2, [r3]
 757:main.c        ****                 UART_1_PutString("[QUERY] -> STANDBY\r\n");
 4218              		.loc 1 757 0
 4219 0748 3848     		ldr	r0, .L348+68
 4220 074a FFF7FEFF 		bl	UART_1_PutString
 4221 074e CAE1     		b	.L247
 4222              	.L250:
 758:main.c        ****             }
 759:main.c        ****             else if (ch=='x'||ch=='X') {
 4223              		.loc 1 759 0
 4224 0750 97F86F32 		ldrb	r3, [r7, #623]	@ zero_extendqisi2
 4225 0754 782B     		cmp	r3, #120
 4226 0756 03D0     		beq	.L252
 4227              		.loc 1 759 0 is_stmt 0 discriminator 1
 4228 0758 97F86F32 		ldrb	r3, [r7, #623]	@ zero_extendqisi2
 4229 075c 582B     		cmp	r3, #88
 4230 075e 12D1     		bne	.L253
 4231              	.L252:
 760:main.c        ****                 g_movi.pending_attr  = 0u;
 4232              		.loc 1 760 0 is_stmt 1
 4233 0760 314B     		ldr	r3, .L348+64
 4234 0762 0022     		movs	r2, #0
 4235 0764 A3F83223 		strh	r2, [r3, #818]	@ movhi
 761:main.c        ****                 g_movi.pending_ready = false;
 4236              		.loc 1 761 0
 4237 0768 2F4B     		ldr	r3, .L348+64
 4238 076a 0022     		movs	r2, #0
 4239 076c 83F83823 		strb	r2, [r3, #824]
 762:main.c        ****                 do_kill(&app_mode,&joystick_active,&streaming_adc,&ctrl_mode);
 4240              		.loc 1 762 0
 4241 0770 07F5CF73 		add	r3, r7, #414
 4242 0774 07F5C372 		add	r2, r7, #390
 4243 0778 07F28711 		addw	r1, r7, #391
 4244 077c 07F29F10 		addw	r0, r7, #415
 4245 0780 FFF7FEFF 		bl	do_kill
 4246 0784 AFE1     		b	.L247
 4247              	.L253:
 4248              	.LBB15:
 763:main.c        ****             }
 764:main.c        ****             else {
 765:main.c        ****                 uint16_t req = 0u;
 4249              		.loc 1 765 0
 4250 0786 0023     		movs	r3, #0
 4251 0788 A7F89232 		strh	r3, [r7, #658]	@ movhi
ARM GAS  C:\Users\JENNEW~1\AppData\Local\Temp\ccFpxs5T.s 			page 97


 766:main.c        ****                 if      (ch=='a'||ch=='A') { req=22u; UART_1_PutString("[QUERY] attr 22 euler\r\n")
 4252              		.loc 1 766 0
 4253 078c 97F86F32 		ldrb	r3, [r7, #623]	@ zero_extendqisi2
 4254 0790 612B     		cmp	r3, #97
 4255 0792 03D0     		beq	.L254
 4256              		.loc 1 766 0 is_stmt 0 discriminator 2
 4257 0794 97F86F32 		ldrb	r3, [r7, #623]	@ zero_extendqisi2
 4258 0798 412B     		cmp	r3, #65
 4259 079a 06D1     		bne	.L255
 4260              	.L254:
 4261              		.loc 1 766 0 discriminator 3
 4262 079c 1623     		movs	r3, #22
 4263 079e A7F89232 		strh	r3, [r7, #658]	@ movhi
 4264 07a2 2348     		ldr	r0, .L348+72
 4265 07a4 FFF7FEFF 		bl	UART_1_PutString
 4266 07a8 86E0     		b	.L256
 4267              	.L255:
 767:main.c        ****                 else if (ch=='g'||ch=='G') { req=4u;  UART_1_PutString("[QUERY] attr 4 GPS\r\n"); }
 4268              		.loc 1 767 0 is_stmt 1
 4269 07aa 97F86F32 		ldrb	r3, [r7, #623]	@ zero_extendqisi2
 4270 07ae 672B     		cmp	r3, #103
 4271 07b0 03D0     		beq	.L257
 4272              		.loc 1 767 0 is_stmt 0 discriminator 2
 4273 07b2 97F86F32 		ldrb	r3, [r7, #623]	@ zero_extendqisi2
 4274 07b6 472B     		cmp	r3, #71
 4275 07b8 06D1     		bne	.L258
 4276              	.L257:
 4277              		.loc 1 767 0 discriminator 3
 4278 07ba 0423     		movs	r3, #4
 4279 07bc A7F89232 		strh	r3, [r7, #658]	@ movhi
 4280 07c0 1C48     		ldr	r0, .L348+76
 4281 07c2 FFF7FEFF 		bl	UART_1_PutString
 4282 07c6 77E0     		b	.L256
 4283              	.L258:
 768:main.c        ****                 else if (ch=='b'||ch=='B') { req=3u;  UART_1_PutString("[QUERY] attr 3 baro\r\n"); 
 4284              		.loc 1 768 0 is_stmt 1
 4285 07c8 97F86F32 		ldrb	r3, [r7, #623]	@ zero_extendqisi2
 4286 07cc 622B     		cmp	r3, #98
 4287 07ce 03D0     		beq	.L259
 4288              		.loc 1 768 0 is_stmt 0 discriminator 2
 4289 07d0 97F86F32 		ldrb	r3, [r7, #623]	@ zero_extendqisi2
 4290 07d4 422B     		cmp	r3, #66
 4291 07d6 31D1     		bne	.L260
 4292              	.L259:
 4293              		.loc 1 768 0 discriminator 3
 4294 07d8 0323     		movs	r3, #3
 4295 07da A7F89232 		strh	r3, [r7, #658]	@ movhi
 4296 07de 1648     		ldr	r0, .L348+80
 4297 07e0 FFF7FEFF 		bl	UART_1_PutString
 4298 07e4 68E0     		b	.L256
 4299              	.L349:
 4300 07e6 00BF     		.align	2
 4301              	.L348:
 4302 07e8 00000000 		.word	g_tick_ms
 4303 07ec 54090000 		.word	.LC72
 4304 07f0 74090000 		.word	.LC73
 4305 07f4 B0090000 		.word	.LC74
ARM GAS  C:\Users\JENNEW~1\AppData\Local\Temp\ccFpxs5T.s 			page 98


 4306 07f8 E0090000 		.word	.LC75
 4307 07fc FC090000 		.word	.LC76
 4308 0800 180A0000 		.word	.LC77
 4309 0804 000080BE 		.word	-1098907648
 4310 0808 3C0A0000 		.word	.LC78
 4311 080c 540A0000 		.word	.LC79
 4312 0810 6C0A0000 		.word	.LC80
 4313 0814 E4380E3E 		.word	1041119460
 4314 0818 840A0000 		.word	.LC81
 4315 081c 9C0A0000 		.word	.LC82
 4316 0820 E4380EBE 		.word	-1106364188
 4317 0824 B00A0000 		.word	.LC83
 4318 0828 00000000 		.word	g_movi
 4319 082c C80A0000 		.word	.LC84
 4320 0830 E00A0000 		.word	.LC85
 4321 0834 F80A0000 		.word	.LC86
 4322 0838 100B0000 		.word	.LC87
 4323              	.L260:
 769:main.c        ****                 else if (ch=='s'||ch=='S') { req=1u;  UART_1_PutString("[QUERY] attr 1 sysstat\r\n"
 4324              		.loc 1 769 0 is_stmt 1
 4325 083c 97F86F32 		ldrb	r3, [r7, #623]	@ zero_extendqisi2
 4326 0840 732B     		cmp	r3, #115
 4327 0842 03D0     		beq	.L261
 4328              		.loc 1 769 0 is_stmt 0 discriminator 2
 4329 0844 97F86F32 		ldrb	r3, [r7, #623]	@ zero_extendqisi2
 4330 0848 532B     		cmp	r3, #83
 4331 084a 06D1     		bne	.L262
 4332              	.L261:
 4333              		.loc 1 769 0 discriminator 3
 4334 084c 0123     		movs	r3, #1
 4335 084e A7F89232 		strh	r3, [r7, #658]	@ movhi
 4336 0852 BE48     		ldr	r0, .L350
 4337 0854 FFF7FEFF 		bl	UART_1_PutString
 4338 0858 2EE0     		b	.L256
 4339              	.L262:
 770:main.c        ****                 else if (ch=='n'||ch=='N') { req=12u; UART_1_PutString("[QUERY] attr 12 mag\r\n"); 
 4340              		.loc 1 770 0 is_stmt 1
 4341 085a 97F86F32 		ldrb	r3, [r7, #623]	@ zero_extendqisi2
 4342 085e 6E2B     		cmp	r3, #110
 4343 0860 03D0     		beq	.L263
 4344              		.loc 1 770 0 is_stmt 0 discriminator 2
 4345 0862 97F86F32 		ldrb	r3, [r7, #623]	@ zero_extendqisi2
 4346 0866 4E2B     		cmp	r3, #78
 4347 0868 06D1     		bne	.L264
 4348              	.L263:
 4349              		.loc 1 770 0 discriminator 3
 4350 086a 0C23     		movs	r3, #12
 4351 086c A7F89232 		strh	r3, [r7, #658]	@ movhi
 4352 0870 B748     		ldr	r0, .L350+4
 4353 0872 FFF7FEFF 		bl	UART_1_PutString
 4354 0876 1FE0     		b	.L256
 4355              	.L264:
 771:main.c        ****                 else if (ch=='2')          { req=2u;  UART_1_PutString("[QUERY] attr 2 platform\r\n
 4356              		.loc 1 771 0 is_stmt 1
 4357 0878 97F86F32 		ldrb	r3, [r7, #623]	@ zero_extendqisi2
 4358 087c 322B     		cmp	r3, #50
 4359 087e 06D1     		bne	.L265
ARM GAS  C:\Users\JENNEW~1\AppData\Local\Temp\ccFpxs5T.s 			page 99


 4360              		.loc 1 771 0 is_stmt 0 discriminator 1
 4361 0880 0223     		movs	r3, #2
 4362 0882 A7F89232 		strh	r3, [r7, #658]	@ movhi
 4363 0886 B348     		ldr	r0, .L350+8
 4364 0888 FFF7FEFF 		bl	UART_1_PutString
 4365 088c 14E0     		b	.L256
 4366              	.L265:
 772:main.c        ****                 else if (ch=='4')          { req=48u; UART_1_PutString("[QUERY] attr 48 motor\r\n")
 4367              		.loc 1 772 0 is_stmt 1
 4368 088e 97F86F32 		ldrb	r3, [r7, #623]	@ zero_extendqisi2
 4369 0892 342B     		cmp	r3, #52
 4370 0894 06D1     		bne	.L266
 4371              		.loc 1 772 0 is_stmt 0 discriminator 1
 4372 0896 3023     		movs	r3, #48
 4373 0898 A7F89232 		strh	r3, [r7, #658]	@ movhi
 4374 089c AE48     		ldr	r0, .L350+12
 4375 089e FFF7FEFF 		bl	UART_1_PutString
 4376 08a2 09E0     		b	.L256
 4377              	.L266:
 773:main.c        ****                 else if (ch=='q'||ch=='Q') { print_quat_crosscheck(); }
 4378              		.loc 1 773 0 is_stmt 1
 4379 08a4 97F86F32 		ldrb	r3, [r7, #623]	@ zero_extendqisi2
 4380 08a8 712B     		cmp	r3, #113
 4381 08aa 03D0     		beq	.L267
 4382              		.loc 1 773 0 is_stmt 0 discriminator 2
 4383 08ac 97F86F32 		ldrb	r3, [r7, #623]	@ zero_extendqisi2
 4384 08b0 512B     		cmp	r3, #81
 4385 08b2 01D1     		bne	.L256
 4386              	.L267:
 4387              		.loc 1 773 0 discriminator 3
 4388 08b4 FFF7FEFF 		bl	print_quat_crosscheck
 4389              	.L256:
 774:main.c        ****                 if (req != 0u && g_movi.pending_attr == 0u) {
 4390              		.loc 1 774 0 is_stmt 1
 4391 08b8 B7F89232 		ldrh	r3, [r7, #658]
 4392 08bc 002B     		cmp	r3, #0
 4393 08be 00F01281 		beq	.L247
 4394              		.loc 1 774 0 is_stmt 0 discriminator 1
 4395 08c2 A64B     		ldr	r3, .L350+16
 4396 08c4 B3F83233 		ldrh	r3, [r3, #818]
 4397 08c8 002B     		cmp	r3, #0
 4398 08ca 40F00C81 		bne	.L247
 775:main.c        ****                     hamfly_request_attr(&g_movi, req);
 4399              		.loc 1 775 0 is_stmt 1
 4400 08ce B7F89232 		ldrh	r3, [r7, #658]
 4401 08d2 1946     		mov	r1, r3
 4402 08d4 A148     		ldr	r0, .L350+16
 4403 08d6 FFF7FEFF 		bl	hamfly_request_attr
 776:main.c        ****                     g_movi.pending_sent_ms = g_tick_ms;
 4404              		.loc 1 776 0
 4405 08da A14B     		ldr	r3, .L350+20
 4406 08dc 1B68     		ldr	r3, [r3]
 4407 08de 9F4A     		ldr	r2, .L350+16
 4408 08e0 C2F83433 		str	r3, [r2, #820]
 4409 08e4 FFE0     		b	.L247
 4410              	.L248:
 4411              	.LBE15:
ARM GAS  C:\Users\JENNEW~1\AppData\Local\Temp\ccFpxs5T.s 			page 100


 777:main.c        ****                 }
 778:main.c        ****             }
 779:main.c        ****         }
 780:main.c        **** 
 781:main.c        ****         /* ----------------------------------------------------------------
 782:main.c        ****          * NUDGE keys
 783:main.c        ****          * ---------------------------------------------------------------- */
 784:main.c        ****         else if (app_mode == APP_MODE_NUDGE) {
 4412              		.loc 1 784 0
 4413 08e6 07F29F13 		addw	r3, r7, #415
 4414 08ea 1B78     		ldrb	r3, [r3]	@ zero_extendqisi2
 4415 08ec 032B     		cmp	r3, #3
 4416 08ee 40F0FA80 		bne	.L247
 785:main.c        ****             if (ch=='t'||ch=='T') {
 4417              		.loc 1 785 0
 4418 08f2 97F86F32 		ldrb	r3, [r7, #623]	@ zero_extendqisi2
 4419 08f6 742B     		cmp	r3, #116
 4420 08f8 03D0     		beq	.L268
 4421              		.loc 1 785 0 is_stmt 0 discriminator 1
 4422 08fa 97F86F32 		ldrb	r3, [r7, #623]	@ zero_extendqisi2
 4423 08fe 542B     		cmp	r3, #84
 4424 0900 07D1     		bne	.L269
 4425              	.L268:
 786:main.c        ****                 app_mode = APP_MODE_STANDBY;
 4426              		.loc 1 786 0 is_stmt 1
 4427 0902 07F29F13 		addw	r3, r7, #415
 4428 0906 0022     		movs	r2, #0
 4429 0908 1A70     		strb	r2, [r3]
 787:main.c        ****                 UART_1_PutString("[NUDGE] -> STANDBY\r\n");
 4430              		.loc 1 787 0
 4431 090a 9648     		ldr	r0, .L350+24
 4432 090c FFF7FEFF 		bl	UART_1_PutString
 4433 0910 E9E0     		b	.L247
 4434              	.L269:
 788:main.c        ****             }
 789:main.c        ****             else if (ch=='x'||ch=='X') {
 4435              		.loc 1 789 0
 4436 0912 97F86F32 		ldrb	r3, [r7, #623]	@ zero_extendqisi2
 4437 0916 782B     		cmp	r3, #120
 4438 0918 03D0     		beq	.L270
 4439              		.loc 1 789 0 is_stmt 0 discriminator 1
 4440 091a 97F86F32 		ldrb	r3, [r7, #623]	@ zero_extendqisi2
 4441 091e 582B     		cmp	r3, #88
 4442 0920 0AD1     		bne	.L271
 4443              	.L270:
 790:main.c        ****                 do_kill(&app_mode,&joystick_active,&streaming_adc,&ctrl_mode);
 4444              		.loc 1 790 0 is_stmt 1
 4445 0922 07F5CF73 		add	r3, r7, #414
 4446 0926 07F5C372 		add	r2, r7, #390
 4447 092a 07F28711 		addw	r1, r7, #391
 4448 092e 07F29F10 		addw	r0, r7, #415
 4449 0932 FFF7FEFF 		bl	do_kill
 4450 0936 D6E0     		b	.L247
 4451              	.L271:
 4452              	.LBB16:
 791:main.c        ****             }
 792:main.c        ****             else {
ARM GAS  C:\Users\JENNEW~1\AppData\Local\Temp\ccFpxs5T.s 			page 101


 793:main.c        ****                 float dp = 0.0f, dt = 0.0f;
 4453              		.loc 1 793 0
 4454 0938 4FF00003 		mov	r3, #0
 4455 093c C7F88C32 		str	r3, [r7, #652]	@ float
 4456 0940 4FF00003 		mov	r3, #0
 4457 0944 C7F88832 		str	r3, [r7, #648]	@ float
 794:main.c        ****                 if      (ch=='j'||ch=='J') dp = -NUDGE_SMALL_DEG;
 4458              		.loc 1 794 0
 4459 0948 97F86F32 		ldrb	r3, [r7, #623]	@ zero_extendqisi2
 4460 094c 6A2B     		cmp	r3, #106
 4461 094e 03D0     		beq	.L272
 4462              		.loc 1 794 0 is_stmt 0 discriminator 2
 4463 0950 97F86F32 		ldrb	r3, [r7, #623]	@ zero_extendqisi2
 4464 0954 4A2B     		cmp	r3, #74
 4465 0956 03D1     		bne	.L273
 4466              	.L272:
 4467              		.loc 1 794 0 discriminator 3
 4468 0958 834B     		ldr	r3, .L350+28
 4469 095a C7F88C32 		str	r3, [r7, #652]	@ float
 4470 095e 56E0     		b	.L274
 4471              	.L273:
 795:main.c        ****                 else if (ch=='l'||ch=='L') dp =  NUDGE_SMALL_DEG;
 4472              		.loc 1 795 0 is_stmt 1
 4473 0960 97F86F32 		ldrb	r3, [r7, #623]	@ zero_extendqisi2
 4474 0964 6C2B     		cmp	r3, #108
 4475 0966 03D0     		beq	.L275
 4476              		.loc 1 795 0 is_stmt 0 discriminator 2
 4477 0968 97F86F32 		ldrb	r3, [r7, #623]	@ zero_extendqisi2
 4478 096c 4C2B     		cmp	r3, #76
 4479 096e 03D1     		bne	.L276
 4480              	.L275:
 4481              		.loc 1 795 0 discriminator 3
 4482 0970 7E4B     		ldr	r3, .L350+32
 4483 0972 C7F88C32 		str	r3, [r7, #652]	@ float
 4484 0976 4AE0     		b	.L274
 4485              	.L276:
 796:main.c        ****                 else if (ch=='i'||ch=='I') dt =  NUDGE_SMALL_DEG;
 4486              		.loc 1 796 0 is_stmt 1
 4487 0978 97F86F32 		ldrb	r3, [r7, #623]	@ zero_extendqisi2
 4488 097c 692B     		cmp	r3, #105
 4489 097e 03D0     		beq	.L277
 4490              		.loc 1 796 0 is_stmt 0 discriminator 2
 4491 0980 97F86F32 		ldrb	r3, [r7, #623]	@ zero_extendqisi2
 4492 0984 492B     		cmp	r3, #73
 4493 0986 03D1     		bne	.L278
 4494              	.L277:
 4495              		.loc 1 796 0 discriminator 3
 4496 0988 784B     		ldr	r3, .L350+32
 4497 098a C7F88832 		str	r3, [r7, #648]	@ float
 4498 098e 3EE0     		b	.L274
 4499              	.L278:
 797:main.c        ****                 else if (ch=='k'||ch=='K') dt = -NUDGE_SMALL_DEG;
 4500              		.loc 1 797 0 is_stmt 1
 4501 0990 97F86F32 		ldrb	r3, [r7, #623]	@ zero_extendqisi2
 4502 0994 6B2B     		cmp	r3, #107
 4503 0996 03D0     		beq	.L279
 4504              		.loc 1 797 0 is_stmt 0 discriminator 2
ARM GAS  C:\Users\JENNEW~1\AppData\Local\Temp\ccFpxs5T.s 			page 102


 4505 0998 97F86F32 		ldrb	r3, [r7, #623]	@ zero_extendqisi2
 4506 099c 4B2B     		cmp	r3, #75
 4507 099e 03D1     		bne	.L280
 4508              	.L279:
 4509              		.loc 1 797 0 discriminator 3
 4510 09a0 714B     		ldr	r3, .L350+28
 4511 09a2 C7F88832 		str	r3, [r7, #648]	@ float
 4512 09a6 32E0     		b	.L274
 4513              	.L280:
 798:main.c        ****                 else if (ch=='a'||ch=='A') dp = -NUDGE_LARGE_DEG;
 4514              		.loc 1 798 0 is_stmt 1
 4515 09a8 97F86F32 		ldrb	r3, [r7, #623]	@ zero_extendqisi2
 4516 09ac 612B     		cmp	r3, #97
 4517 09ae 03D0     		beq	.L281
 4518              		.loc 1 798 0 is_stmt 0 discriminator 2
 4519 09b0 97F86F32 		ldrb	r3, [r7, #623]	@ zero_extendqisi2
 4520 09b4 412B     		cmp	r3, #65
 4521 09b6 04D1     		bne	.L282
 4522              	.L281:
 4523              		.loc 1 798 0 discriminator 3
 4524 09b8 4FF03F43 		mov	r3, #-1090519040
 4525 09bc C7F88C32 		str	r3, [r7, #652]	@ float
 4526 09c0 25E0     		b	.L274
 4527              	.L282:
 799:main.c        ****                 else if (ch=='d'||ch=='D') dp =  NUDGE_LARGE_DEG;
 4528              		.loc 1 799 0 is_stmt 1
 4529 09c2 97F86F32 		ldrb	r3, [r7, #623]	@ zero_extendqisi2
 4530 09c6 642B     		cmp	r3, #100
 4531 09c8 03D0     		beq	.L283
 4532              		.loc 1 799 0 is_stmt 0 discriminator 2
 4533 09ca 97F86F32 		ldrb	r3, [r7, #623]	@ zero_extendqisi2
 4534 09ce 442B     		cmp	r3, #68
 4535 09d0 04D1     		bne	.L284
 4536              	.L283:
 4537              		.loc 1 799 0 discriminator 3
 4538 09d2 4FF07C53 		mov	r3, #1056964608
 4539 09d6 C7F88C32 		str	r3, [r7, #652]	@ float
 4540 09da 18E0     		b	.L274
 4541              	.L284:
 800:main.c        ****                 else if (ch=='w'||ch=='W') dt =  NUDGE_LARGE_DEG;
 4542              		.loc 1 800 0 is_stmt 1
 4543 09dc 97F86F32 		ldrb	r3, [r7, #623]	@ zero_extendqisi2
 4544 09e0 772B     		cmp	r3, #119
 4545 09e2 03D0     		beq	.L285
 4546              		.loc 1 800 0 is_stmt 0 discriminator 2
 4547 09e4 97F86F32 		ldrb	r3, [r7, #623]	@ zero_extendqisi2
 4548 09e8 572B     		cmp	r3, #87
 4549 09ea 04D1     		bne	.L286
 4550              	.L285:
 4551              		.loc 1 800 0 discriminator 3
 4552 09ec 4FF07C53 		mov	r3, #1056964608
 4553 09f0 C7F88832 		str	r3, [r7, #648]	@ float
 4554 09f4 0BE0     		b	.L274
 4555              	.L286:
 801:main.c        ****                 else if (ch=='s'||ch=='S') dt = -NUDGE_LARGE_DEG;
 4556              		.loc 1 801 0 is_stmt 1
 4557 09f6 97F86F32 		ldrb	r3, [r7, #623]	@ zero_extendqisi2
ARM GAS  C:\Users\JENNEW~1\AppData\Local\Temp\ccFpxs5T.s 			page 103


 4558 09fa 732B     		cmp	r3, #115
 4559 09fc 03D0     		beq	.L287
 4560              		.loc 1 801 0 is_stmt 0 discriminator 2
 4561 09fe 97F86F32 		ldrb	r3, [r7, #623]	@ zero_extendqisi2
 4562 0a02 532B     		cmp	r3, #83
 4563 0a04 03D1     		bne	.L274
 4564              	.L287:
 4565              		.loc 1 801 0 discriminator 3
 4566 0a06 4FF03F43 		mov	r3, #-1090519040
 4567 0a0a C7F88832 		str	r3, [r7, #648]	@ float
 4568              	.L274:
 802:main.c        **** 
 803:main.c        ****                 if (dp != 0.0f || dt != 0.0f) {
 4569              		.loc 1 803 0 is_stmt 1
 4570 0a0e 4FF00001 		mov	r1, #0
 4571 0a12 D7F88C02 		ldr	r0, [r7, #652]	@ float
 4572 0a16 FFF7FEFF 		bl	__aeabi_fcmpeq
 4573 0a1a 0346     		mov	r3, r0
 4574 0a1c 002B     		cmp	r3, #0
 4575 0a1e 08D0     		beq	.L288
 4576              		.loc 1 803 0 is_stmt 0 discriminator 1
 4577 0a20 4FF00001 		mov	r1, #0
 4578 0a24 D7F88802 		ldr	r0, [r7, #648]	@ float
 4579 0a28 FFF7FEFF 		bl	__aeabi_fcmpeq
 4580 0a2c 0346     		mov	r3, r0
 4581 0a2e 002B     		cmp	r3, #0
 4582 0a30 59D1     		bne	.L247
 4583              	.L288:
 804:main.c        ****                     nudge_pan_deg  = CLAMP(nudge_pan_deg  + dp,
 4584              		.loc 1 804 0 is_stmt 1
 4585 0a32 D7F88C12 		ldr	r1, [r7, #652]	@ float
 4586 0a36 D7F8A802 		ldr	r0, [r7, #680]	@ float
 4587 0a3a FFF7FEFF 		bl	__aeabi_fadd
 4588 0a3e 0346     		mov	r3, r0
 4589 0a40 4B49     		ldr	r1, .L350+36
 4590 0a42 1846     		mov	r0, r3
 4591 0a44 FFF7FEFF 		bl	__aeabi_fcmplt
 4592 0a48 0346     		mov	r3, r0
 4593 0a4a 002B     		cmp	r3, #0
 4594 0a4c 01D0     		beq	.L340
 4595              		.loc 1 804 0 is_stmt 0 discriminator 1
 4596 0a4e 484B     		ldr	r3, .L350+36
 4597 0a50 16E0     		b	.L292
 4598              	.L340:
 4599              		.loc 1 804 0 discriminator 2
 4600 0a52 D7F88C12 		ldr	r1, [r7, #652]	@ float
 4601 0a56 D7F8A802 		ldr	r0, [r7, #680]	@ float
 4602 0a5a FFF7FEFF 		bl	__aeabi_fadd
 4603 0a5e 0346     		mov	r3, r0
 4604 0a60 4449     		ldr	r1, .L350+40
 4605 0a62 1846     		mov	r0, r3
 4606 0a64 FFF7FEFF 		bl	__aeabi_fcmpgt
 4607 0a68 0346     		mov	r3, r0
 4608 0a6a 002B     		cmp	r3, #0
 4609 0a6c 01D0     		beq	.L341
 4610              		.loc 1 804 0 discriminator 4
 4611 0a6e 414B     		ldr	r3, .L350+40
ARM GAS  C:\Users\JENNEW~1\AppData\Local\Temp\ccFpxs5T.s 			page 104


 4612 0a70 06E0     		b	.L292
 4613              	.L341:
 4614              		.loc 1 804 0 discriminator 5
 4615 0a72 D7F88C12 		ldr	r1, [r7, #652]	@ float
 4616 0a76 D7F8A802 		ldr	r0, [r7, #680]	@ float
 4617 0a7a FFF7FEFF 		bl	__aeabi_fadd
 4618 0a7e 0346     		mov	r3, r0
 4619              	.L292:
 4620              		.loc 1 804 0 discriminator 8
 4621 0a80 C7F8A832 		str	r3, [r7, #680]	@ float
 805:main.c        ****                                           LIMIT_PAN_MIN_DEG,  LIMIT_PAN_MAX_DEG);
 806:main.c        ****                     nudge_tilt_deg = CLAMP(nudge_tilt_deg + dt,
 4622              		.loc 1 806 0 is_stmt 1 discriminator 8
 4623 0a84 D7F88812 		ldr	r1, [r7, #648]	@ float
 4624 0a88 D7F8A402 		ldr	r0, [r7, #676]	@ float
 4625 0a8c FFF7FEFF 		bl	__aeabi_fadd
 4626 0a90 0346     		mov	r3, r0
 4627 0a92 3749     		ldr	r1, .L350+36
 4628 0a94 1846     		mov	r0, r3
 4629 0a96 FFF7FEFF 		bl	__aeabi_fcmplt
 4630 0a9a 0346     		mov	r3, r0
 4631 0a9c 002B     		cmp	r3, #0
 4632 0a9e 01D0     		beq	.L342
 4633              		.loc 1 806 0 is_stmt 0 discriminator 1
 4634 0aa0 334B     		ldr	r3, .L350+36
 4635 0aa2 16E0     		b	.L298
 4636              	.L342:
 4637              		.loc 1 806 0 discriminator 2
 4638 0aa4 D7F88812 		ldr	r1, [r7, #648]	@ float
 4639 0aa8 D7F8A402 		ldr	r0, [r7, #676]	@ float
 4640 0aac FFF7FEFF 		bl	__aeabi_fadd
 4641 0ab0 0346     		mov	r3, r0
 4642 0ab2 3049     		ldr	r1, .L350+40
 4643 0ab4 1846     		mov	r0, r3
 4644 0ab6 FFF7FEFF 		bl	__aeabi_fcmpgt
 4645 0aba 0346     		mov	r3, r0
 4646 0abc 002B     		cmp	r3, #0
 4647 0abe 01D0     		beq	.L343
 4648              		.loc 1 806 0 discriminator 4
 4649 0ac0 2C4B     		ldr	r3, .L350+40
 4650 0ac2 06E0     		b	.L298
 4651              	.L343:
 4652              		.loc 1 806 0 discriminator 5
 4653 0ac4 D7F88812 		ldr	r1, [r7, #648]	@ float
 4654 0ac8 D7F8A402 		ldr	r0, [r7, #676]	@ float
 4655 0acc FFF7FEFF 		bl	__aeabi_fadd
 4656 0ad0 0346     		mov	r3, r0
 4657              	.L298:
 4658              		.loc 1 806 0 discriminator 8
 4659 0ad2 C7F8A432 		str	r3, [r7, #676]	@ float
 807:main.c        ****                                           LIMIT_TILT_MIN_DEG, LIMIT_TILT_MAX_DEG);
 808:main.c        ****                     nudge_print_pos(nudge_pan_deg, nudge_tilt_deg);
 4660              		.loc 1 808 0 is_stmt 1 discriminator 8
 4661 0ad6 D7F8A412 		ldr	r1, [r7, #676]	@ float
 4662 0ada D7F8A802 		ldr	r0, [r7, #680]	@ float
 4663 0ade FFF7FEFF 		bl	nudge_print_pos
 4664 0ae2 00E0     		b	.L247
ARM GAS  C:\Users\JENNEW~1\AppData\Local\Temp\ccFpxs5T.s 			page 105


 4665              	.L344:
 4666              	.LBE16:
 699:main.c        ****                 if (ch=='p'||ch=='P') {
 4667              		.loc 1 699 0
 4668 0ae4 00BF     		nop
 4669              	.L247:
 809:main.c        ****                 }
 810:main.c        ****             }
 811:main.c        ****         }
 812:main.c        **** 
 813:main.c        ****         /* Calibration prompt */
 814:main.c        ****         joy_cal_state_t cal_now = joystick_cal_state();
 4670              		.loc 1 814 0
 4671 0ae6 FFF7FEFF 		bl	joystick_cal_state
 4672 0aea 0346     		mov	r3, r0
 4673 0aec 87F86E32 		strb	r3, [r7, #622]
 815:main.c        ****         cal_prompt(cal_prev, cal_now);
 4674              		.loc 1 815 0
 4675 0af0 97F86E22 		ldrb	r2, [r7, #622]	@ zero_extendqisi2
 4676 0af4 97F89632 		ldrb	r3, [r7, #662]	@ zero_extendqisi2
 4677 0af8 1146     		mov	r1, r2
 4678 0afa 1846     		mov	r0, r3
 4679 0afc FFF7FEFF 		bl	cal_prompt
 816:main.c        ****         cal_prev = cal_now;
 4680              		.loc 1 816 0
 4681 0b00 97F86E32 		ldrb	r3, [r7, #622]
 4682 0b04 87F89632 		strb	r3, [r7, #662]
 817:main.c        **** 
 818:main.c        ****         /* ----------------------------------------------------------------
 819:main.c        ****          * Pump RX
 820:main.c        ****          * ---------------------------------------------------------------- */
 821:main.c        ****         hamfly_pump(&g_movi);
 4683              		.loc 1 821 0
 4684 0b08 1448     		ldr	r0, .L350+16
 4685 0b0a FFF7FEFF 		bl	hamfly_pump
 822:main.c        **** 
 823:main.c        ****         /* ----------------------------------------------------------------
 824:main.c        ****          * QUERY: response or timeout
 825:main.c        ****          * ---------------------------------------------------------------- */
 826:main.c        ****         if (app_mode == APP_MODE_QUERY) {
 4686              		.loc 1 826 0
 4687 0b0e 07F29F13 		addw	r3, r7, #415
 4688 0b12 1B78     		ldrb	r3, [r3]	@ zero_extendqisi2
 4689 0b14 022B     		cmp	r3, #2
 4690 0b16 50D1     		bne	.L302
 827:main.c        ****             if (g_movi.pending_ready) {
 4691              		.loc 1 827 0
 4692 0b18 104B     		ldr	r3, .L350+16
 4693 0b1a 93F83833 		ldrb	r3, [r3, #824]	@ zero_extendqisi2
 4694 0b1e 002B     		cmp	r3, #0
 4695 0b20 2AD0     		beq	.L303
 4696              	.LBB17:
 828:main.c        ****                 uint32_t dt = g_tick_ms - g_movi.pending_sent_ms;
 4697              		.loc 1 828 0
 4698 0b22 0F4B     		ldr	r3, .L350+20
 4699 0b24 1A68     		ldr	r2, [r3]
 4700 0b26 0D4B     		ldr	r3, .L350+16
ARM GAS  C:\Users\JENNEW~1\AppData\Local\Temp\ccFpxs5T.s 			page 106


 4701 0b28 D3F83433 		ldr	r3, [r3, #820]
 4702 0b2c D31A     		subs	r3, r2, r3
 4703 0b2e C7F86832 		str	r3, [r7, #616]
 829:main.c        ****                 print_query_response(dt);
 4704              		.loc 1 829 0
 4705 0b32 D7F86802 		ldr	r0, [r7, #616]
 4706 0b36 FFF7FEFF 		bl	print_query_response
 830:main.c        ****                 g_movi.pending_ready = false;
 4707              		.loc 1 830 0
 4708 0b3a 084B     		ldr	r3, .L350+16
 4709 0b3c 0022     		movs	r2, #0
 4710 0b3e 83F83823 		strb	r2, [r3, #824]
 831:main.c        ****                 g_movi.pending_attr  = 0u;
 4711              		.loc 1 831 0
 4712 0b42 064B     		ldr	r3, .L350+16
 4713 0b44 0022     		movs	r2, #0
 4714 0b46 A3F83223 		strh	r2, [r3, #818]	@ movhi
 4715              	.LBE17:
 4716 0b4a 36E0     		b	.L302
 4717              	.L351:
 4718              		.align	2
 4719              	.L350:
 4720 0b4c 280B0000 		.word	.LC88
 4721 0b50 440B0000 		.word	.LC89
 4722 0b54 5C0B0000 		.word	.LC90
 4723 0b58 780B0000 		.word	.LC91
 4724 0b5c 00000000 		.word	g_movi
 4725 0b60 00000000 		.word	g_tick_ms
 4726 0b64 900B0000 		.word	.LC92
 4727 0b68 CDCC4CBD 		.word	-1119040307
 4728 0b6c CDCC4C3D 		.word	1028443341
 4729 0b70 000070C1 		.word	-1049624576
 4730 0b74 00007041 		.word	1097859072
 4731              	.L303:
 832:main.c        ****             }
 833:main.c        ****             else if (g_movi.pending_attr != 0u &&
 4732              		.loc 1 833 0
 4733 0b78 CA4B     		ldr	r3, .L352
 4734 0b7a B3F83233 		ldrh	r3, [r3, #818]
 4735 0b7e 002B     		cmp	r3, #0
 4736 0b80 1BD0     		beq	.L302
 834:main.c        ****                      (g_tick_ms - g_movi.pending_sent_ms) >= QUERY_TIMEOUT_MS) {
 4737              		.loc 1 834 0 discriminator 1
 4738 0b82 C94B     		ldr	r3, .L352+4
 4739 0b84 1A68     		ldr	r2, [r3]
 4740 0b86 C74B     		ldr	r3, .L352
 4741 0b88 D3F83433 		ldr	r3, [r3, #820]
 4742 0b8c D31A     		subs	r3, r2, r3
 833:main.c        ****                      (g_tick_ms - g_movi.pending_sent_ms) >= QUERY_TIMEOUT_MS) {
 4743              		.loc 1 833 0 discriminator 1
 4744 0b8e B3F5FA6F 		cmp	r3, #2000
 4745 0b92 12D3     		bcc	.L302
 835:main.c        ****                 sprintf(tx,"[QUERY] TIMEOUT attr=%u\r\n",
 836:main.c        ****                         (unsigned)g_movi.pending_attr);
 4746              		.loc 1 836 0
 4747 0b94 C34B     		ldr	r3, .L352
 4748 0b96 B3F83233 		ldrh	r3, [r3, #818]
ARM GAS  C:\Users\JENNEW~1\AppData\Local\Temp\ccFpxs5T.s 			page 107


 835:main.c        ****                 sprintf(tx,"[QUERY] TIMEOUT attr=%u\r\n",
 4749              		.loc 1 835 0
 4750 0b9a 1A46     		mov	r2, r3
 4751 0b9c 07F5D073 		add	r3, r7, #416
 4752 0ba0 C249     		ldr	r1, .L352+8
 4753 0ba2 1846     		mov	r0, r3
 4754 0ba4 FFF7FEFF 		bl	sprintf
 837:main.c        ****                 UART_1_PutString(tx);
 4755              		.loc 1 837 0
 4756 0ba8 07F5D073 		add	r3, r7, #416
 4757 0bac 1846     		mov	r0, r3
 4758 0bae FFF7FEFF 		bl	UART_1_PutString
 838:main.c        ****                 g_movi.pending_attr = 0u;
 4759              		.loc 1 838 0
 4760 0bb2 BC4B     		ldr	r3, .L352
 4761 0bb4 0022     		movs	r2, #0
 4762 0bb6 A3F83223 		strh	r2, [r3, #818]	@ movhi
 4763              	.L302:
 839:main.c        ****             }
 840:main.c        ****         }
 841:main.c        **** 
 842:main.c        ****         /* ----------------------------------------------------------------
 843:main.c        ****          * CONTROL: check for preset settle via Euler threshold + timeout
 844:main.c        ****          * ---------------------------------------------------------------- */
 845:main.c        ****         if (app_mode == APP_MODE_CONTROL && abs_preset_active) {
 4764              		.loc 1 845 0
 4765 0bba 07F29F13 		addw	r3, r7, #415
 4766 0bbe 1B78     		ldrb	r3, [r3]	@ zero_extendqisi2
 4767 0bc0 012B     		cmp	r3, #1
 4768 0bc2 40F08E80 		bne	.L304
 4769              		.loc 1 845 0 is_stmt 0 discriminator 1
 4770 0bc6 97F8B332 		ldrb	r3, [r7, #691]	@ zero_extendqisi2
 4771 0bca 002B     		cmp	r3, #0
 4772 0bcc 00F08980 		beq	.L304
 4773              	.LBB18:
 846:main.c        ****             uint8_t settled = FALSE;
 4774              		.loc 1 846 0 is_stmt 1
 4775 0bd0 0023     		movs	r3, #0
 4776 0bd2 87F88732 		strb	r3, [r7, #647]
 847:main.c        ****             float pan_now = 0.0f, tilt_now = 0.0f;
 4777              		.loc 1 847 0
 4778 0bd6 07F5A873 		add	r3, r7, #336
 4779 0bda 4FF00002 		mov	r2, #0
 4780 0bde 1A60     		str	r2, [r3]	@ float
 4781 0be0 07F5A673 		add	r3, r7, #332
 4782 0be4 4FF00002 		mov	r2, #0
 4783 0be8 1A60     		str	r2, [r3]	@ float
 848:main.c        **** 
 849:main.c        ****             /* Try Euler threshold first */
 850:main.c        ****             if (get_euler_deg(&pan_now, &tilt_now)) {
 4784              		.loc 1 850 0
 4785 0bea 07F5A672 		add	r2, r7, #332
 4786 0bee 07F5A873 		add	r3, r7, #336
 4787 0bf2 1146     		mov	r1, r2
 4788 0bf4 1846     		mov	r0, r3
 4789 0bf6 FFF7FEFF 		bl	get_euler_deg
 4790 0bfa 0346     		mov	r3, r0
ARM GAS  C:\Users\JENNEW~1\AppData\Local\Temp\ccFpxs5T.s 			page 108


 4791 0bfc 002B     		cmp	r3, #0
 4792 0bfe 52D0     		beq	.L305
 4793              	.LBB19:
 851:main.c        ****                 float pan_err  = pan_now  - UNIT_TO_DEG(abs_pan_target);
 4794              		.loc 1 851 0
 4795 0c00 07F5A873 		add	r3, r7, #336
 4796 0c04 1C68     		ldr	r4, [r3]	@ float
 4797 0c06 AA49     		ldr	r1, .L352+12
 4798 0c08 D7F8B802 		ldr	r0, [r7, #696]	@ float
 4799 0c0c FFF7FEFF 		bl	__aeabi_fmul
 4800 0c10 0346     		mov	r3, r0
 4801 0c12 1946     		mov	r1, r3
 4802 0c14 2046     		mov	r0, r4
 4803 0c16 FFF7FEFF 		bl	__aeabi_fsub
 4804 0c1a 0346     		mov	r3, r0
 4805 0c1c C7F88032 		str	r3, [r7, #640]	@ float
 852:main.c        ****                 float tilt_err = tilt_now - UNIT_TO_DEG(abs_tilt_target);
 4806              		.loc 1 852 0
 4807 0c20 07F5A673 		add	r3, r7, #332
 4808 0c24 1C68     		ldr	r4, [r3]	@ float
 4809 0c26 A249     		ldr	r1, .L352+12
 4810 0c28 D7F8B402 		ldr	r0, [r7, #692]	@ float
 4811 0c2c FFF7FEFF 		bl	__aeabi_fmul
 4812 0c30 0346     		mov	r3, r0
 4813 0c32 1946     		mov	r1, r3
 4814 0c34 2046     		mov	r0, r4
 4815 0c36 FFF7FEFF 		bl	__aeabi_fsub
 4816 0c3a 0346     		mov	r3, r0
 4817 0c3c C7F87C32 		str	r3, [r7, #636]	@ float
 853:main.c        ****                 if (pan_err  < 0.0f) pan_err  = -pan_err;
 4818              		.loc 1 853 0
 4819 0c40 4FF00001 		mov	r1, #0
 4820 0c44 D7F88002 		ldr	r0, [r7, #640]	@ float
 4821 0c48 FFF7FEFF 		bl	__aeabi_fcmplt
 4822 0c4c 0346     		mov	r3, r0
 4823 0c4e 002B     		cmp	r3, #0
 4824 0c50 05D0     		beq	.L306
 4825              		.loc 1 853 0 is_stmt 0 discriminator 1
 4826 0c52 D7F88032 		ldr	r3, [r7, #640]
 4827 0c56 83F00043 		eor	r3, r3, #-2147483648
 4828 0c5a C7F88032 		str	r3, [r7, #640]	@ float
 4829              	.L306:
 854:main.c        ****                 if (tilt_err < 0.0f) tilt_err = -tilt_err;
 4830              		.loc 1 854 0 is_stmt 1
 4831 0c5e 4FF00001 		mov	r1, #0
 4832 0c62 D7F87C02 		ldr	r0, [r7, #636]	@ float
 4833 0c66 FFF7FEFF 		bl	__aeabi_fcmplt
 4834 0c6a 0346     		mov	r3, r0
 4835 0c6c 002B     		cmp	r3, #0
 4836 0c6e 05D0     		beq	.L308
 4837              		.loc 1 854 0 is_stmt 0 discriminator 1
 4838 0c70 D7F87C32 		ldr	r3, [r7, #636]
 4839 0c74 83F00043 		eor	r3, r3, #-2147483648
 4840 0c78 C7F87C32 		str	r3, [r7, #636]	@ float
 4841              	.L308:
 855:main.c        ****                 if (pan_err < PRESET_SETTLE_DEG && tilt_err < PRESET_SETTLE_DEG)
 4842              		.loc 1 855 0 is_stmt 1
ARM GAS  C:\Users\JENNEW~1\AppData\Local\Temp\ccFpxs5T.s 			page 109


 4843 0c7c 4FF07C51 		mov	r1, #1056964608
 4844 0c80 D7F88002 		ldr	r0, [r7, #640]	@ float
 4845 0c84 FFF7FEFF 		bl	__aeabi_fcmplt
 4846 0c88 0346     		mov	r3, r0
 4847 0c8a 002B     		cmp	r3, #0
 4848 0c8c 0BD0     		beq	.L305
 4849              		.loc 1 855 0 is_stmt 0 discriminator 1
 4850 0c8e 4FF07C51 		mov	r1, #1056964608
 4851 0c92 D7F87C02 		ldr	r0, [r7, #636]	@ float
 4852 0c96 FFF7FEFF 		bl	__aeabi_fcmplt
 4853 0c9a 0346     		mov	r3, r0
 4854 0c9c 002B     		cmp	r3, #0
 4855 0c9e 02D0     		beq	.L305
 856:main.c        ****                     settled = TRUE;
 4856              		.loc 1 856 0 is_stmt 1
 4857 0ca0 0123     		movs	r3, #1
 4858 0ca2 87F88732 		strb	r3, [r7, #647]
 4859              	.L305:
 4860              	.LBE19:
 857:main.c        ****             }
 858:main.c        **** 
 859:main.c        ****             /* Fallback: timeout */
 860:main.c        ****             if (!settled &&
 4861              		.loc 1 860 0
 4862 0ca6 97F88732 		ldrb	r3, [r7, #647]	@ zero_extendqisi2
 4863 0caa 002B     		cmp	r3, #0
 4864 0cac 0BD1     		bne	.L312
 861:main.c        ****                 (g_tick_ms - preset_sent_ms) >= PRESET_SETTLE_MS)
 4865              		.loc 1 861 0 discriminator 1
 4866 0cae 7E4B     		ldr	r3, .L352+4
 4867 0cb0 1A68     		ldr	r2, [r3]
 4868 0cb2 D7F8AC32 		ldr	r3, [r7, #684]
 4869 0cb6 D31A     		subs	r3, r2, r3
 860:main.c        ****                 (g_tick_ms - preset_sent_ms) >= PRESET_SETTLE_MS)
 4870              		.loc 1 860 0 discriminator 1
 4871 0cb8 40F2DB52 		movw	r2, #1499
 4872 0cbc 9342     		cmp	r3, r2
 4873 0cbe 02D9     		bls	.L312
 862:main.c        ****                 settled = TRUE;
 4874              		.loc 1 862 0
 4875 0cc0 0123     		movs	r3, #1
 4876 0cc2 87F88732 		strb	r3, [r7, #647]
 4877              	.L312:
 863:main.c        **** 
 864:main.c        ****             if (settled) {
 4878              		.loc 1 864 0
 4879 0cc6 97F88732 		ldrb	r3, [r7, #647]	@ zero_extendqisi2
 4880 0cca 002B     		cmp	r3, #0
 4881 0ccc 09D0     		beq	.L304
 865:main.c        ****                 abs_preset_active = FALSE;
 4882              		.loc 1 865 0
 4883 0cce 0023     		movs	r3, #0
 4884 0cd0 87F8B332 		strb	r3, [r7, #691]
 866:main.c        ****                 joystick_active   = TRUE;
 4885              		.loc 1 866 0
 4886 0cd4 07F28713 		addw	r3, r7, #391
 4887 0cd8 0122     		movs	r2, #1
ARM GAS  C:\Users\JENNEW~1\AppData\Local\Temp\ccFpxs5T.s 			page 110


 4888 0cda 1A70     		strb	r2, [r3]
 867:main.c        ****                 UART_1_PutString("[CTRL] Preset settled -- joystick active\r\n");
 4889              		.loc 1 867 0
 4890 0cdc 7548     		ldr	r0, .L352+16
 4891 0cde FFF7FEFF 		bl	UART_1_PutString
 4892              	.L304:
 4893              	.LBE18:
 868:main.c        ****             }
 869:main.c        ****         }
 870:main.c        **** 
 871:main.c        ****         /* ----------------------------------------------------------------
 872:main.c        ****          * Joystick ADC
 873:main.c        ****          * ---------------------------------------------------------------- */
 874:main.c        ****         uint8_t pin = Pin_Sensitivity_Read();
 4894              		.loc 1 874 0
 4895 0ce2 FFF7FEFF 		bl	Pin_Sensitivity_Read
 4896 0ce6 0346     		mov	r3, r0
 4897 0ce8 87F86732 		strb	r3, [r7, #615]
 875:main.c        ****         if (last_button==1u && pin==0u) {
 4898              		.loc 1 875 0
 4899 0cec 97F89432 		ldrb	r3, [r7, #660]	@ zero_extendqisi2
 4900 0cf0 012B     		cmp	r3, #1
 4901 0cf2 28D1     		bne	.L314
 4902              		.loc 1 875 0 is_stmt 0 discriminator 1
 4903 0cf4 97F86732 		ldrb	r3, [r7, #615]	@ zero_extendqisi2
 4904 0cf8 002B     		cmp	r3, #0
 4905 0cfa 24D1     		bne	.L314
 876:main.c        ****             CyDelay(50);
 4906              		.loc 1 876 0 is_stmt 1
 4907 0cfc 3220     		movs	r0, #50
 4908 0cfe FFF7FEFF 		bl	CyDelay
 877:main.c        ****             if (Pin_Sensitivity_Read()==0u) {
 4909              		.loc 1 877 0
 4910 0d02 FFF7FEFF 		bl	Pin_Sensitivity_Read
 4911 0d06 0346     		mov	r3, r0
 4912 0d08 002B     		cmp	r3, #0
 4913 0d0a 1CD1     		bne	.L314
 878:main.c        ****                 current_sense=(joy_sensitivity_t)((current_sense+1)%3);
 4914              		.loc 1 878 0
 4915 0d0c 97F89532 		ldrb	r3, [r7, #661]	@ zero_extendqisi2
 4916 0d10 5A1C     		adds	r2, r3, #1
 4917 0d12 694B     		ldr	r3, .L352+20
 4918 0d14 83FB0231 		smull	r3, r1, r3, r2
 4919 0d18 D317     		asrs	r3, r2, #31
 4920 0d1a C91A     		subs	r1, r1, r3
 4921 0d1c 0B46     		mov	r3, r1
 4922 0d1e 5B00     		lsls	r3, r3, #1
 4923 0d20 0B44     		add	r3, r3, r1
 4924 0d22 D11A     		subs	r1, r2, r3
 4925 0d24 0B46     		mov	r3, r1
 4926 0d26 87F89532 		strb	r3, [r7, #661]
 879:main.c        ****                 joystick_set_sensitivity(current_sense);
 4927              		.loc 1 879 0
 4928 0d2a 97F89532 		ldrb	r3, [r7, #661]	@ zero_extendqisi2
 4929 0d2e 1846     		mov	r0, r3
 4930 0d30 FFF7FEFF 		bl	joystick_set_sensitivity
 880:main.c        ****                 UART_1_PutString("Sensitivity changed\r\n");
ARM GAS  C:\Users\JENNEW~1\AppData\Local\Temp\ccFpxs5T.s 			page 111


 4931              		.loc 1 880 0
 4932 0d34 6148     		ldr	r0, .L352+24
 4933 0d36 FFF7FEFF 		bl	UART_1_PutString
 881:main.c        ****                 while (Pin_Sensitivity_Read()==0u);
 4934              		.loc 1 881 0
 4935 0d3a 00BF     		nop
 4936              	.L315:
 4937              		.loc 1 881 0 is_stmt 0 discriminator 1
 4938 0d3c FFF7FEFF 		bl	Pin_Sensitivity_Read
 4939 0d40 0346     		mov	r3, r0
 4940 0d42 002B     		cmp	r3, #0
 4941 0d44 FAD0     		beq	.L315
 4942              	.L314:
 882:main.c        ****             }
 883:main.c        ****         }
 884:main.c        ****         last_button = pin;
 4943              		.loc 1 884 0 is_stmt 1
 4944 0d46 97F86732 		ldrb	r3, [r7, #615]
 4945 0d4a 87F89432 		strb	r3, [r7, #660]
 885:main.c        **** 
 886:main.c        ****         if (adc_balanced_poll_frame(counts)) {
 4946              		.loc 1 886 0
 4947 0d4e 07F5C073 		add	r3, r7, #384
 4948 0d52 1846     		mov	r0, r3
 4949 0d54 FFF7FEFF 		bl	adc_balanced_poll_frame
 4950 0d58 0346     		mov	r3, r0
 4951 0d5a 002B     		cmp	r3, #0
 4952 0d5c 6ED0     		beq	.L316
 887:main.c        ****             joystick_on_sample(counts);
 4953              		.loc 1 887 0
 4954 0d5e 07F5C073 		add	r3, r7, #384
 4955 0d62 1846     		mov	r0, r3
 4956 0d64 FFF7FEFF 		bl	joystick_on_sample
 888:main.c        ****             joystick_get_cmd(&cmd);
 4957              		.loc 1 888 0
 4958 0d68 07F5BC73 		add	r3, r7, #376
 4959 0d6c 1846     		mov	r0, r3
 4960 0d6e FFF7FEFF 		bl	joystick_get_cmd
 889:main.c        ****             if (streaming_adc) {
 4961              		.loc 1 889 0
 4962 0d72 07F5C373 		add	r3, r7, #390
 4963 0d76 1B78     		ldrb	r3, [r3]	@ zero_extendqisi2
 4964 0d78 002B     		cmp	r3, #0
 4965 0d7a 41D0     		beq	.L317
 4966              	.LBB20:
 890:main.c        ****                 int16_t pm = (int16_t)(cmd.u[CH_X]*1000.0f);
 4967              		.loc 1 890 0
 4968 0d7c 07F5BC73 		add	r3, r7, #376
 4969 0d80 1B68     		ldr	r3, [r3]	@ float
 4970 0d82 4F49     		ldr	r1, .L352+28
 4971 0d84 1846     		mov	r0, r3
 4972 0d86 FFF7FEFF 		bl	__aeabi_fmul
 4973 0d8a 0346     		mov	r3, r0
 4974 0d8c 1846     		mov	r0, r3
 4975 0d8e FFF7FEFF 		bl	__aeabi_f2iz
 4976 0d92 0346     		mov	r3, r0
 4977 0d94 A7F86432 		strh	r3, [r7, #612]	@ movhi
ARM GAS  C:\Users\JENNEW~1\AppData\Local\Temp\ccFpxs5T.s 			page 112


 891:main.c        ****                 int16_t tm = (int16_t)(cmd.u[CH_Y]*1000.0f);
 4978              		.loc 1 891 0
 4979 0d98 07F5BC73 		add	r3, r7, #376
 4980 0d9c 5B68     		ldr	r3, [r3, #4]	@ float
 4981 0d9e 4849     		ldr	r1, .L352+28
 4982 0da0 1846     		mov	r0, r3
 4983 0da2 FFF7FEFF 		bl	__aeabi_fmul
 4984 0da6 0346     		mov	r3, r0
 4985 0da8 1846     		mov	r0, r3
 4986 0daa FFF7FEFF 		bl	__aeabi_f2iz
 4987 0dae 0346     		mov	r3, r0
 4988 0db0 A7F86232 		strh	r3, [r7, #610]	@ movhi
 892:main.c        ****                 int32_t xmv = adc_balanced_counts_to_mv(counts[CH_X]);
 4989              		.loc 1 892 0
 4990 0db4 07F5C073 		add	r3, r7, #384
 4991 0db8 B3F90030 		ldrsh	r3, [r3]
 4992 0dbc 1846     		mov	r0, r3
 4993 0dbe FFF7FEFF 		bl	adc_balanced_counts_to_mv
 4994 0dc2 C7F85C02 		str	r0, [r7, #604]
 893:main.c        ****                 int32_t ymv = adc_balanced_counts_to_mv(counts[CH_Y]);
 4995              		.loc 1 893 0
 4996 0dc6 07F5C073 		add	r3, r7, #384
 4997 0dca B3F90230 		ldrsh	r3, [r3, #2]
 4998 0dce 1846     		mov	r0, r3
 4999 0dd0 FFF7FEFF 		bl	adc_balanced_counts_to_mv
 5000 0dd4 C7F85802 		str	r0, [r7, #600]
 894:main.c        ****                 sprintf(tx,"X:%ld mV Y:%ld mV  pan:%d tilt:%d /1000\r\n",
 5001              		.loc 1 894 0
 5002 0dd8 B7F96432 		ldrsh	r3, [r7, #612]
 5003 0ddc B7F96222 		ldrsh	r2, [r7, #610]
 5004 0de0 07F5D070 		add	r0, r7, #416
 5005 0de4 0192     		str	r2, [sp, #4]
 5006 0de6 0093     		str	r3, [sp]
 5007 0de8 D7F85832 		ldr	r3, [r7, #600]
 5008 0dec D7F85C22 		ldr	r2, [r7, #604]
 5009 0df0 3449     		ldr	r1, .L352+32
 5010 0df2 FFF7FEFF 		bl	sprintf
 895:main.c        ****                         (long)xmv,(long)ymv,(int)pm,(int)tm);
 896:main.c        ****                 UART_1_PutString(tx);
 5011              		.loc 1 896 0
 5012 0df6 07F5D073 		add	r3, r7, #416
 5013 0dfa 1846     		mov	r0, r3
 5014 0dfc FFF7FEFF 		bl	UART_1_PutString
 5015              	.L317:
 5016              	.LBE20:
 897:main.c        ****             }
 898:main.c        ****             if (joystick_cal_state()==JOY_CAL_CENTER_CAPTURE) {
 5017              		.loc 1 898 0
 5018 0e00 FFF7FEFF 		bl	joystick_cal_state
 5019 0e04 0346     		mov	r3, r0
 5020 0e06 022B     		cmp	r3, #2
 5021 0e08 18D1     		bne	.L316
 5022              	.LBB21:
 899:main.c        ****                 uint16_t n = joystick_center_samples_collected();
 5023              		.loc 1 899 0
 5024 0e0a FFF7FEFF 		bl	joystick_center_samples_collected
 5025 0e0e 0346     		mov	r3, r0
ARM GAS  C:\Users\JENNEW~1\AppData\Local\Temp\ccFpxs5T.s 			page 113


 5026 0e10 A7F85632 		strh	r3, [r7, #598]	@ movhi
 900:main.c        ****                 if ((n%8u)==0u) {
 5027              		.loc 1 900 0
 5028 0e14 B7F85632 		ldrh	r3, [r7, #598]	@ movhi
 5029 0e18 03F00703 		and	r3, r3, #7
 5030 0e1c 9BB2     		uxth	r3, r3
 5031 0e1e 002B     		cmp	r3, #0
 5032 0e20 0CD1     		bne	.L316
 901:main.c        ****                     sprintf(tx,"[CAL] %u/%u\r\n",(unsigned)n,
 5033              		.loc 1 901 0
 5034 0e22 B7F85622 		ldrh	r2, [r7, #598]
 5035 0e26 07F5D070 		add	r0, r7, #416
 5036 0e2a 2023     		movs	r3, #32
 5037 0e2c 2649     		ldr	r1, .L352+36
 5038 0e2e FFF7FEFF 		bl	sprintf
 902:main.c        ****                             (unsigned)CAL_CENTER_SAMPLES);
 903:main.c        ****                     UART_1_PutString(tx);
 5039              		.loc 1 903 0
 5040 0e32 07F5D073 		add	r3, r7, #416
 5041 0e36 1846     		mov	r0, r3
 5042 0e38 FFF7FEFF 		bl	UART_1_PutString
 5043              	.L316:
 5044              	.LBE21:
 904:main.c        ****                 }
 905:main.c        ****             }
 906:main.c        ****         }
 907:main.c        **** 
 908:main.c        ****         /* ----------------------------------------------------------------
 909:main.c        ****          * Build control struct
 910:main.c        ****          * ---------------------------------------------------------------- */
 911:main.c        ****         ctl.enable = 1u;
 5045              		.loc 1 911 0
 5046 0e3c 07F5C473 		add	r3, r7, #392
 5047 0e40 0122     		movs	r2, #1
 5048 0e42 DA73     		strb	r2, [r3, #15]
 912:main.c        ****         ctl.kill   = 0u;
 5049              		.loc 1 912 0
 5050 0e44 07F5C473 		add	r3, r7, #392
 5051 0e48 0022     		movs	r2, #0
 5052 0e4a 1A74     		strb	r2, [r3, #16]
 913:main.c        **** 
 914:main.c        ****         if (app_mode == APP_MODE_NUDGE) {
 5053              		.loc 1 914 0
 5054 0e4c 07F29F13 		addw	r3, r7, #415
 5055 0e50 1B78     		ldrb	r3, [r3]	@ zero_extendqisi2
 5056 0e52 032B     		cmp	r3, #3
 5057 0e54 3AD1     		bne	.L318
 915:main.c        ****             /* NUDGE: send accumulated position as ABS command every loop */
 916:main.c        ****             ctl.pan_mode  = HAMFLY_ABSOLUTE;
 5058              		.loc 1 916 0
 5059 0e56 07F5C473 		add	r3, r7, #392
 5060 0e5a 0222     		movs	r2, #2
 5061 0e5c 1A73     		strb	r2, [r3, #12]
 917:main.c        ****             ctl.tilt_mode = HAMFLY_ABSOLUTE;
 5062              		.loc 1 917 0
 5063 0e5e 07F5C473 		add	r3, r7, #392
 5064 0e62 0222     		movs	r2, #2
ARM GAS  C:\Users\JENNEW~1\AppData\Local\Temp\ccFpxs5T.s 			page 114


 5065 0e64 5A73     		strb	r2, [r3, #13]
 918:main.c        ****             ctl.roll_mode = HAMFLY_DEFER;
 5066              		.loc 1 918 0
 5067 0e66 07F5C473 		add	r3, r7, #392
 5068 0e6a 0022     		movs	r2, #0
 5069 0e6c 9A73     		strb	r2, [r3, #14]
 919:main.c        ****             ctl.pan  = DEG_TO_UNIT(nudge_pan_deg);
 5070              		.loc 1 919 0
 5071 0e6e 1049     		ldr	r1, .L352+12
 5072 0e70 D7F8A802 		ldr	r0, [r7, #680]	@ float
 5073 0e74 FFF7FEFF 		bl	__aeabi_fdiv
 5074 0e78 0346     		mov	r3, r0
 5075 0e7a 1A46     		mov	r2, r3
 5076 0e7c 07F5C473 		add	r3, r7, #392
 5077 0e80 1A60     		str	r2, [r3]	@ float
 920:main.c        ****             ctl.tilt = DEG_TO_UNIT(nudge_tilt_deg);
 5078              		.loc 1 920 0
 5079 0e82 0B49     		ldr	r1, .L352+12
 5080 0e84 D7F8A402 		ldr	r0, [r7, #676]	@ float
 5081 0e88 FFF7FEFF 		bl	__aeabi_fdiv
 5082 0e8c 0346     		mov	r3, r0
 5083 0e8e 1A46     		mov	r2, r3
 5084 0e90 07F5C473 		add	r3, r7, #392
 5085 0e94 5A60     		str	r2, [r3, #4]	@ float
 921:main.c        ****             ctl.roll = 0.0f;
 5086              		.loc 1 921 0
 5087 0e96 07F5C473 		add	r3, r7, #392
 5088 0e9a 4FF00002 		mov	r2, #0
 5089 0e9e 9A60     		str	r2, [r3, #8]	@ float
 5090 0ea0 84E0     		b	.L319
 5091              	.L353:
 5092 0ea2 00BF     		.align	2
 5093              	.L352:
 5094 0ea4 00000000 		.word	g_movi
 5095 0ea8 00000000 		.word	g_tick_ms
 5096 0eac A80B0000 		.word	.LC93
 5097 0eb0 00003443 		.word	1127481344
 5098 0eb4 C40B0000 		.word	.LC94
 5099 0eb8 56555555 		.word	1431655766
 5100 0ebc F00B0000 		.word	.LC95
 5101 0ec0 00007A44 		.word	1148846080
 5102 0ec4 080C0000 		.word	.LC96
 5103 0ec8 340C0000 		.word	.LC97
 5104              	.L318:
 922:main.c        ****         }
 923:main.c        ****         else if (abs_preset_active && ctrl_mode==HAMFLY_ABSOLUTE) {
 5105              		.loc 1 923 0
 5106 0ecc 97F8B332 		ldrb	r3, [r7, #691]	@ zero_extendqisi2
 5107 0ed0 002B     		cmp	r3, #0
 5108 0ed2 20D0     		beq	.L320
 5109              		.loc 1 923 0 is_stmt 0 discriminator 1
 5110 0ed4 07F5CF73 		add	r3, r7, #414
 5111 0ed8 1B78     		ldrb	r3, [r3]	@ zero_extendqisi2
 5112 0eda 022B     		cmp	r3, #2
 5113 0edc 1BD1     		bne	.L320
 924:main.c        ****             ctl.pan_mode  = HAMFLY_ABSOLUTE;
 5114              		.loc 1 924 0 is_stmt 1
ARM GAS  C:\Users\JENNEW~1\AppData\Local\Temp\ccFpxs5T.s 			page 115


 5115 0ede 07F5C473 		add	r3, r7, #392
 5116 0ee2 0222     		movs	r2, #2
 5117 0ee4 1A73     		strb	r2, [r3, #12]
 925:main.c        ****             ctl.tilt_mode = HAMFLY_ABSOLUTE;
 5118              		.loc 1 925 0
 5119 0ee6 07F5C473 		add	r3, r7, #392
 5120 0eea 0222     		movs	r2, #2
 5121 0eec 5A73     		strb	r2, [r3, #13]
 926:main.c        ****             ctl.roll_mode = HAMFLY_DEFER;
 5122              		.loc 1 926 0
 5123 0eee 07F5C473 		add	r3, r7, #392
 5124 0ef2 0022     		movs	r2, #0
 5125 0ef4 9A73     		strb	r2, [r3, #14]
 927:main.c        ****             ctl.pan  = abs_pan_target;
 5126              		.loc 1 927 0
 5127 0ef6 07F5C473 		add	r3, r7, #392
 5128 0efa D7F8B822 		ldr	r2, [r7, #696]	@ float
 5129 0efe 1A60     		str	r2, [r3]	@ float
 928:main.c        ****             ctl.tilt = abs_tilt_target;
 5130              		.loc 1 928 0
 5131 0f00 07F5C473 		add	r3, r7, #392
 5132 0f04 D7F8B422 		ldr	r2, [r7, #692]	@ float
 5133 0f08 5A60     		str	r2, [r3, #4]	@ float
 929:main.c        ****             ctl.roll = 0.0f;
 5134              		.loc 1 929 0
 5135 0f0a 07F5C473 		add	r3, r7, #392
 5136 0f0e 4FF00002 		mov	r2, #0
 5137 0f12 9A60     		str	r2, [r3, #8]	@ float
 5138 0f14 4AE0     		b	.L319
 5139              	.L320:
 930:main.c        ****         }
 931:main.c        ****         else if (joystick_active && joystick_cal_state()==JOY_CAL_OFF) {
 5140              		.loc 1 931 0
 5141 0f16 07F28713 		addw	r3, r7, #391
 5142 0f1a 1B78     		ldrb	r3, [r3]	@ zero_extendqisi2
 5143 0f1c 002B     		cmp	r3, #0
 5144 0f1e 28D0     		beq	.L321
 5145              		.loc 1 931 0 is_stmt 0 discriminator 1
 5146 0f20 FFF7FEFF 		bl	joystick_cal_state
 5147 0f24 0346     		mov	r3, r0
 5148 0f26 002B     		cmp	r3, #0
 5149 0f28 23D1     		bne	.L321
 932:main.c        ****             ctl.pan_mode  = ctrl_mode;
 5150              		.loc 1 932 0 is_stmt 1
 5151 0f2a 07F5CF73 		add	r3, r7, #414
 5152 0f2e 1A78     		ldrb	r2, [r3]	@ zero_extendqisi2
 5153 0f30 07F5C473 		add	r3, r7, #392
 5154 0f34 1A73     		strb	r2, [r3, #12]
 933:main.c        ****             ctl.tilt_mode = ctrl_mode;
 5155              		.loc 1 933 0
 5156 0f36 07F5CF73 		add	r3, r7, #414
 5157 0f3a 1A78     		ldrb	r2, [r3]	@ zero_extendqisi2
 5158 0f3c 07F5C473 		add	r3, r7, #392
 5159 0f40 5A73     		strb	r2, [r3, #13]
 934:main.c        ****             ctl.roll_mode = HAMFLY_DEFER;
 5160              		.loc 1 934 0
 5161 0f42 07F5C473 		add	r3, r7, #392
ARM GAS  C:\Users\JENNEW~1\AppData\Local\Temp\ccFpxs5T.s 			page 116


 5162 0f46 0022     		movs	r2, #0
 5163 0f48 9A73     		strb	r2, [r3, #14]
 935:main.c        ****             ctl.pan  =  cmd.u[CH_X];
 5164              		.loc 1 935 0
 5165 0f4a 07F5BC73 		add	r3, r7, #376
 5166 0f4e 1A68     		ldr	r2, [r3]	@ float
 5167 0f50 07F5C473 		add	r3, r7, #392
 5168 0f54 1A60     		str	r2, [r3]	@ float
 936:main.c        ****             ctl.tilt = -cmd.u[CH_Y];
 5169              		.loc 1 936 0
 5170 0f56 07F5BC73 		add	r3, r7, #376
 5171 0f5a 5B68     		ldr	r3, [r3, #4]	@ float
 5172 0f5c 83F00042 		eor	r2, r3, #-2147483648
 5173 0f60 07F5C473 		add	r3, r7, #392
 5174 0f64 5A60     		str	r2, [r3, #4]	@ float
 937:main.c        ****             ctl.roll = 0.0f;
 5175              		.loc 1 937 0
 5176 0f66 07F5C473 		add	r3, r7, #392
 5177 0f6a 4FF00002 		mov	r2, #0
 5178 0f6e 9A60     		str	r2, [r3, #8]	@ float
 5179 0f70 1CE0     		b	.L319
 5180              	.L321:
 938:main.c        ****         }
 939:main.c        ****         else {
 940:main.c        ****             ctl.pan_mode  = HAMFLY_DEFER;
 5181              		.loc 1 940 0
 5182 0f72 07F5C473 		add	r3, r7, #392
 5183 0f76 0022     		movs	r2, #0
 5184 0f78 1A73     		strb	r2, [r3, #12]
 941:main.c        ****             ctl.tilt_mode = HAMFLY_DEFER;
 5185              		.loc 1 941 0
 5186 0f7a 07F5C473 		add	r3, r7, #392
 5187 0f7e 0022     		movs	r2, #0
 5188 0f80 5A73     		strb	r2, [r3, #13]
 942:main.c        ****             ctl.roll_mode = HAMFLY_DEFER;
 5189              		.loc 1 942 0
 5190 0f82 07F5C473 		add	r3, r7, #392
 5191 0f86 0022     		movs	r2, #0
 5192 0f88 9A73     		strb	r2, [r3, #14]
 943:main.c        ****             ctl.pan = ctl.tilt = ctl.roll = 0.0f;
 5193              		.loc 1 943 0
 5194 0f8a 07F5C473 		add	r3, r7, #392
 5195 0f8e 4FF00002 		mov	r2, #0
 5196 0f92 9A60     		str	r2, [r3, #8]	@ float
 5197 0f94 07F5C473 		add	r3, r7, #392
 5198 0f98 9A68     		ldr	r2, [r3, #8]	@ float
 5199 0f9a 07F5C473 		add	r3, r7, #392
 5200 0f9e 5A60     		str	r2, [r3, #4]	@ float
 5201 0fa0 07F5C473 		add	r3, r7, #392
 5202 0fa4 5A68     		ldr	r2, [r3, #4]	@ float
 5203 0fa6 07F5C473 		add	r3, r7, #392
 5204 0faa 1A60     		str	r2, [r3]	@ float
 5205              	.L319:
 944:main.c        ****         }
 945:main.c        **** 
 946:main.c        ****         /* ----------------------------------------------------------------
 947:main.c        ****          * TX at 10 Hz (CONTROL and NUDGE)
ARM GAS  C:\Users\JENNEW~1\AppData\Local\Temp\ccFpxs5T.s 			page 117


 948:main.c        ****          * ---------------------------------------------------------------- */
 949:main.c        ****         if ((app_mode==APP_MODE_CONTROL || app_mode==APP_MODE_NUDGE) &&
 5206              		.loc 1 949 0
 5207 0fac 07F29F13 		addw	r3, r7, #415
 5208 0fb0 1B78     		ldrb	r3, [r3]	@ zero_extendqisi2
 5209 0fb2 012B     		cmp	r3, #1
 5210 0fb4 04D0     		beq	.L322
 5211              		.loc 1 949 0 is_stmt 0 discriminator 2
 5212 0fb6 07F29F13 		addw	r3, r7, #415
 5213 0fba 1B78     		ldrb	r3, [r3]	@ zero_extendqisi2
 5214 0fbc 032B     		cmp	r3, #3
 5215 0fbe 15D1     		bne	.L323
 5216              	.L322:
 950:main.c        ****             joystick_cal_state()==JOY_CAL_OFF &&
 5217              		.loc 1 950 0 is_stmt 1 discriminator 3
 5218 0fc0 FFF7FEFF 		bl	joystick_cal_state
 5219 0fc4 0346     		mov	r3, r0
 949:main.c        ****             joystick_cal_state()==JOY_CAL_OFF &&
 5220              		.loc 1 949 0 discriminator 3
 5221 0fc6 002B     		cmp	r3, #0
 5222 0fc8 10D1     		bne	.L323
 951:main.c        ****             (g_tick_ms-last_tx_ms) >= CONTROL_PERIOD_MS) {
 5223              		.loc 1 951 0
 5224 0fca AD4B     		ldr	r3, .L354
 5225 0fcc 1A68     		ldr	r2, [r3]
 5226 0fce D7F89C32 		ldr	r3, [r7, #668]
 5227 0fd2 D31A     		subs	r3, r2, r3
 950:main.c        ****             joystick_cal_state()==JOY_CAL_OFF &&
 5228              		.loc 1 950 0
 5229 0fd4 632B     		cmp	r3, #99
 5230 0fd6 09D9     		bls	.L323
 952:main.c        ****             last_tx_ms = g_tick_ms;
 5231              		.loc 1 952 0
 5232 0fd8 A94B     		ldr	r3, .L354
 5233 0fda 1B68     		ldr	r3, [r3]
 5234 0fdc C7F89C32 		str	r3, [r7, #668]
 953:main.c        ****             hamfly_send_control(&g_movi, &ctl);
 5235              		.loc 1 953 0
 5236 0fe0 07F5C473 		add	r3, r7, #392
 5237 0fe4 1946     		mov	r1, r3
 5238 0fe6 A748     		ldr	r0, .L354+4
 5239 0fe8 FFF7FEFF 		bl	hamfly_send_control
 5240              	.L323:
 954:main.c        ****         }
 955:main.c        **** 
 956:main.c        ****         /* ----------------------------------------------------------------
 957:main.c        ****          * 1 Hz diagnostic (CONTROL only)
 958:main.c        ****          * ---------------------------------------------------------------- */
 959:main.c        ****         if (diag_active && app_mode==APP_MODE_CONTROL &&
 5241              		.loc 1 959 0
 5242 0fec 97F8BF32 		ldrb	r3, [r7, #703]	@ zero_extendqisi2
 5243 0ff0 002B     		cmp	r3, #0
 5244 0ff2 3FF4DBA8 		beq	.L331
 5245              		.loc 1 959 0 is_stmt 0 discriminator 1
 5246 0ff6 07F29F13 		addw	r3, r7, #415
 5247 0ffa 1B78     		ldrb	r3, [r3]	@ zero_extendqisi2
 5248 0ffc 012B     		cmp	r3, #1
ARM GAS  C:\Users\JENNEW~1\AppData\Local\Temp\ccFpxs5T.s 			page 118


 5249 0ffe 7FF4D5A8 		bne	.L331
 960:main.c        ****             joystick_cal_state()==JOY_CAL_OFF &&
 5250              		.loc 1 960 0 is_stmt 1 discriminator 2
 5251 1002 FFF7FEFF 		bl	joystick_cal_state
 5252 1006 0346     		mov	r3, r0
 959:main.c        ****             joystick_cal_state()==JOY_CAL_OFF &&
 5253              		.loc 1 959 0 discriminator 2
 5254 1008 002B     		cmp	r3, #0
 5255 100a 7FF4CFA8 		bne	.L331
 961:main.c        ****             (g_tick_ms-last_diag_ms) >= DIAG_PERIOD_MS) {
 5256              		.loc 1 961 0
 5257 100e 9C4B     		ldr	r3, .L354
 5258 1010 1A68     		ldr	r2, [r3]
 5259 1012 D7F89832 		ldr	r3, [r7, #664]
 5260 1016 D31A     		subs	r3, r2, r3
 960:main.c        ****             joystick_cal_state()==JOY_CAL_OFF &&
 5261              		.loc 1 960 0
 5262 1018 B3F57A7F 		cmp	r3, #1000
 5263 101c FFF4C6A8 		bcc	.L331
 5264              	.LBB22:
 962:main.c        ****             last_diag_ms = g_tick_ms;
 5265              		.loc 1 962 0
 5266 1020 974B     		ldr	r3, .L354
 5267 1022 1B68     		ldr	r3, [r3]
 5268 1024 C7F89832 		str	r3, [r7, #664]
 963:main.c        **** 
 964:main.c        ****             uint32_t ms = g_tick_ms;
 5269              		.loc 1 964 0
 5270 1028 954B     		ldr	r3, .L354
 5271 102a 1B68     		ldr	r3, [r3]
 5272 102c C7F85032 		str	r3, [r7, #592]
 965:main.c        ****             sprintf(tx,"  %02lu:%02lu:%02lu\r\n",
 5273              		.loc 1 965 0
 5274 1030 D7F85032 		ldr	r3, [r7, #592]
 5275 1034 944A     		ldr	r2, .L354+8
 5276 1036 A2FB0323 		umull	r2, r3, r2, r3
 5277 103a 5C0D     		lsrs	r4, r3, #21
 966:main.c        ****                     (unsigned long)(ms/3600000u),
 967:main.c        ****                     (unsigned long)((ms/60000u)%60u),
 5278              		.loc 1 967 0
 5279 103c D7F85032 		ldr	r3, [r7, #592]
 5280 1040 924A     		ldr	r2, .L354+12
 5281 1042 A2FB0323 		umull	r2, r3, r2, r3
 5282 1046 9A0B     		lsrs	r2, r3, #14
 965:main.c        ****             sprintf(tx,"  %02lu:%02lu:%02lu\r\n",
 5283              		.loc 1 965 0
 5284 1048 914B     		ldr	r3, .L354+16
 5285 104a A3FB0213 		umull	r1, r3, r3, r2
 5286 104e 5909     		lsrs	r1, r3, #5
 5287 1050 0B46     		mov	r3, r1
 5288 1052 1B01     		lsls	r3, r3, #4
 5289 1054 5B1A     		subs	r3, r3, r1
 5290 1056 9B00     		lsls	r3, r3, #2
 5291 1058 D11A     		subs	r1, r2, r3
 968:main.c        ****                     (unsigned long)((ms/1000u)%60u));
 5292              		.loc 1 968 0
 5293 105a D7F85032 		ldr	r3, [r7, #592]
ARM GAS  C:\Users\JENNEW~1\AppData\Local\Temp\ccFpxs5T.s 			page 119


 5294 105e 8D4A     		ldr	r2, .L354+20
 5295 1060 A2FB0323 		umull	r2, r3, r2, r3
 5296 1064 9809     		lsrs	r0, r3, #6
 965:main.c        ****             sprintf(tx,"  %02lu:%02lu:%02lu\r\n",
 5297              		.loc 1 965 0
 5298 1066 8A4B     		ldr	r3, .L354+16
 5299 1068 A3FB0023 		umull	r2, r3, r3, r0
 5300 106c 5A09     		lsrs	r2, r3, #5
 5301 106e 1346     		mov	r3, r2
 5302 1070 1B01     		lsls	r3, r3, #4
 5303 1072 9B1A     		subs	r3, r3, r2
 5304 1074 9B00     		lsls	r3, r3, #2
 5305 1076 C21A     		subs	r2, r0, r3
 5306 1078 07F5D070 		add	r0, r7, #416
 5307 107c 0092     		str	r2, [sp]
 5308 107e 0B46     		mov	r3, r1
 5309 1080 2246     		mov	r2, r4
 5310 1082 8549     		ldr	r1, .L354+24
 5311 1084 FFF7FEFF 		bl	sprintf
 969:main.c        ****             UART_1_PutString(tx);
 5312              		.loc 1 969 0
 5313 1088 07F5D073 		add	r3, r7, #416
 5314 108c 1846     		mov	r0, r3
 5315 108e FFF7FEFF 		bl	UART_1_PutString
 970:main.c        **** 
 971:main.c        ****             hamfly_statistics_t s;
 972:main.c        ****             hamfly_get_statistics(&g_movi, &s);
 5316              		.loc 1 972 0
 5317 1092 07F59A73 		add	r3, r7, #308
 5318 1096 1946     		mov	r1, r3
 5319 1098 7A48     		ldr	r0, .L354+4
 5320 109a FFF7FEFF 		bl	hamfly_get_statistics
 973:main.c        ****             sprintf(tx,"[Serial] TX:%lu RX:%lu csum:%lu err:0x%02X\r\n",
 974:main.c        ****                     (unsigned long)s.tx_packets,
 5321              		.loc 1 974 0
 5322 109e 07F59A73 		add	r3, r7, #308
 5323 10a2 1968     		ldr	r1, [r3]
 975:main.c        ****                     (unsigned long)s.rx_packets,
 5324              		.loc 1 975 0
 5325 10a4 07F59A73 		add	r3, r7, #308
 5326 10a8 9C68     		ldr	r4, [r3, #8]
 976:main.c        ****                     (unsigned long)s.rx_bad_checksum,
 5327              		.loc 1 976 0
 5328 10aa 07F59A73 		add	r3, r7, #308
 5329 10ae 1B69     		ldr	r3, [r3, #16]
 977:main.c        ****                     (unsigned)s.uart_err_flags);
 5330              		.loc 1 977 0
 5331 10b0 07F59A72 		add	r2, r7, #308
 5332 10b4 927D     		ldrb	r2, [r2, #22]	@ zero_extendqisi2
 973:main.c        ****                     (unsigned long)s.tx_packets,
 5333              		.loc 1 973 0
 5334 10b6 07F5D070 		add	r0, r7, #416
 5335 10ba 0192     		str	r2, [sp, #4]
 5336 10bc 0093     		str	r3, [sp]
 5337 10be 2346     		mov	r3, r4
 5338 10c0 0A46     		mov	r2, r1
 5339 10c2 7649     		ldr	r1, .L354+28
ARM GAS  C:\Users\JENNEW~1\AppData\Local\Temp\ccFpxs5T.s 			page 120


 5340 10c4 FFF7FEFF 		bl	sprintf
 978:main.c        ****             UART_1_PutString(tx);
 5341              		.loc 1 978 0
 5342 10c8 07F5D073 		add	r3, r7, #416
 5343 10cc 1846     		mov	r0, r3
 5344 10ce FFF7FEFF 		bl	UART_1_PutString
 979:main.c        **** 
 980:main.c        ****             hamfly_telemetry_t st;
 981:main.c        ****             hamfly_get_telemetry(&g_movi, &st);
 5345              		.loc 1 981 0
 5346 10d2 07F12403 		add	r3, r7, #36
 5347 10d6 1946     		mov	r1, r3
 5348 10d8 6A48     		ldr	r0, .L354+4
 5349 10da FFF7FEFF 		bl	hamfly_get_telemetry
 982:main.c        ****             if (st.valid) {
 5350              		.loc 1 982 0
 5351 10de 07F12403 		add	r3, r7, #36
 5352 10e2 1B78     		ldrb	r3, [r3]	@ zero_extendqisi2
 5353 10e4 002B     		cmp	r3, #0
 5354 10e6 00F03C81 		beq	.L325
 5355              	.LBB23:
 983:main.c        ****                 char ps,ts,rs;
 984:main.c        ****                 int16_t pi,pf,ti,tf,ri,rf;
 985:main.c        ****                 compute_euler(&st,&ps,&pi,&pf,&ts,&ti,&tf,&rs,&ri,&rf);
 5356              		.loc 1 985 0
 5357 10ea 07F59174 		add	r4, r7, #290
 5358 10ee 07F59272 		add	r2, r7, #292
 5359 10f2 07F22911 		addw	r1, r7, #297
 5360 10f6 07F12400 		add	r0, r7, #36
 5361 10fa 07F58D73 		add	r3, r7, #282
 5362 10fe 0593     		str	r3, [sp, #20]
 5363 1100 07F58E73 		add	r3, r7, #284
 5364 1104 0493     		str	r3, [sp, #16]
 5365 1106 07F22713 		addw	r3, r7, #295
 5366 110a 0393     		str	r3, [sp, #12]
 5367 110c 07F58F73 		add	r3, r7, #286
 5368 1110 0293     		str	r3, [sp, #8]
 5369 1112 07F59073 		add	r3, r7, #288
 5370 1116 0193     		str	r3, [sp, #4]
 5371 1118 07F59473 		add	r3, r7, #296
 5372 111c 0093     		str	r3, [sp]
 5373 111e 2346     		mov	r3, r4
 5374 1120 FFF7FEFF 		bl	compute_euler
 986:main.c        ****                 int16_t vli=(int16_t)st.battery_left_v;
 5375              		.loc 1 986 0
 5376 1124 07F12403 		add	r3, r7, #36
 5377 1128 5B68     		ldr	r3, [r3, #4]	@ float
 5378 112a 1846     		mov	r0, r3
 5379 112c FFF7FEFF 		bl	__aeabi_f2iz
 5380 1130 0346     		mov	r3, r0
 5381 1132 A7F84E32 		strh	r3, [r7, #590]	@ movhi
 987:main.c        ****                 int16_t vlf=(int16_t)((st.battery_left_v-(float)vli)*10.0f);
 5382              		.loc 1 987 0
 5383 1136 07F12403 		add	r3, r7, #36
 5384 113a 5C68     		ldr	r4, [r3, #4]	@ float
 5385 113c B7F94E32 		ldrsh	r3, [r7, #590]
 5386 1140 1846     		mov	r0, r3
ARM GAS  C:\Users\JENNEW~1\AppData\Local\Temp\ccFpxs5T.s 			page 121


 5387 1142 FFF7FEFF 		bl	__aeabi_i2f
 5388 1146 0346     		mov	r3, r0
 5389 1148 1946     		mov	r1, r3
 5390 114a 2046     		mov	r0, r4
 5391 114c FFF7FEFF 		bl	__aeabi_fsub
 5392 1150 0346     		mov	r3, r0
 5393 1152 5349     		ldr	r1, .L354+32
 5394 1154 1846     		mov	r0, r3
 5395 1156 FFF7FEFF 		bl	__aeabi_fmul
 5396 115a 0346     		mov	r3, r0
 5397 115c 1846     		mov	r0, r3
 5398 115e FFF7FEFF 		bl	__aeabi_f2iz
 5399 1162 0346     		mov	r3, r0
 5400 1164 A7F84C32 		strh	r3, [r7, #588]	@ movhi
 988:main.c        ****                 int16_t vri=(int16_t)st.battery_right_v;
 5401              		.loc 1 988 0
 5402 1168 07F12403 		add	r3, r7, #36
 5403 116c 9B68     		ldr	r3, [r3, #8]	@ float
 5404 116e 1846     		mov	r0, r3
 5405 1170 FFF7FEFF 		bl	__aeabi_f2iz
 5406 1174 0346     		mov	r3, r0
 5407 1176 A7F84A32 		strh	r3, [r7, #586]	@ movhi
 989:main.c        ****                 int16_t vrf=(int16_t)((st.battery_right_v-(float)vri)*10.0f);
 5408              		.loc 1 989 0
 5409 117a 07F12403 		add	r3, r7, #36
 5410 117e 9C68     		ldr	r4, [r3, #8]	@ float
 5411 1180 B7F94A32 		ldrsh	r3, [r7, #586]
 5412 1184 1846     		mov	r0, r3
 5413 1186 FFF7FEFF 		bl	__aeabi_i2f
 5414 118a 0346     		mov	r3, r0
 5415 118c 1946     		mov	r1, r3
 5416 118e 2046     		mov	r0, r4
 5417 1190 FFF7FEFF 		bl	__aeabi_fsub
 5418 1194 0346     		mov	r3, r0
 5419 1196 4249     		ldr	r1, .L354+32
 5420 1198 1846     		mov	r0, r3
 5421 119a FFF7FEFF 		bl	__aeabi_fmul
 5422 119e 0346     		mov	r3, r0
 5423 11a0 1846     		mov	r0, r3
 5424 11a2 FFF7FEFF 		bl	__aeabi_f2iz
 5425 11a6 0346     		mov	r3, r0
 5426 11a8 A7F84832 		strh	r3, [r7, #584]	@ movhi
 990:main.c        ****                 uint8_t imu_err=(st.gimbal_status1>>6)&0x01u;
 5427              		.loc 1 990 0
 5428 11ac 07F12403 		add	r3, r7, #36
 5429 11b0 1B7F     		ldrb	r3, [r3, #28]	@ zero_extendqisi2
 5430 11b2 9B09     		lsrs	r3, r3, #6
 5431 11b4 DBB2     		uxtb	r3, r3
 5432 11b6 03F00103 		and	r3, r3, #1
 5433 11ba 87F84732 		strb	r3, [r7, #583]
 991:main.c        ****                 uint8_t drv_err=(st.gimbal_status1>>4)&0x01u;
 5434              		.loc 1 991 0
 5435 11be 07F12403 		add	r3, r7, #36
 5436 11c2 1B7F     		ldrb	r3, [r3, #28]	@ zero_extendqisi2
 5437 11c4 1B09     		lsrs	r3, r3, #4
 5438 11c6 DBB2     		uxtb	r3, r3
 5439 11c8 03F00103 		and	r3, r3, #1
ARM GAS  C:\Users\JENNEW~1\AppData\Local\Temp\ccFpxs5T.s 			page 122


 5440 11cc 87F84632 		strb	r3, [r7, #582]
 992:main.c        ****                 uint8_t gbl_err=(st.gimbal_status2>>4)&0x01u;
 5441              		.loc 1 992 0
 5442 11d0 07F12403 		add	r3, r7, #36
 5443 11d4 5B7F     		ldrb	r3, [r3, #29]	@ zero_extendqisi2
 5444 11d6 1B09     		lsrs	r3, r3, #4
 5445 11d8 DBB2     		uxtb	r3, r3
 5446 11da 03F00103 		and	r3, r3, #1
 5447 11de 87F84532 		strb	r3, [r7, #581]
 993:main.c        ****                 if (abs_preset_active) {
 5448              		.loc 1 993 0
 5449 11e2 97F8B332 		ldrb	r3, [r7, #691]	@ zero_extendqisi2
 5450 11e6 002B     		cmp	r3, #0
 5451 11e8 60D0     		beq	.L326
 5452              	.LBB24:
 994:main.c        ****                     char aps,ats; int16_t api,apf,ati,atf;
 995:main.c        ****                     decomp(UNIT_TO_DEG(abs_pan_target), &api,&apf,&aps);
 5453              		.loc 1 995 0
 5454 11ea 2E49     		ldr	r1, .L354+36
 5455 11ec D7F8B802 		ldr	r0, [r7, #696]	@ float
 5456 11f0 FFF7FEFF 		bl	__aeabi_fmul
 5457 11f4 0346     		mov	r3, r0
 5458 11f6 1846     		mov	r0, r3
 5459 11f8 07F21913 		addw	r3, r7, #281
 5460 11fc 07F58A72 		add	r2, r7, #276
 5461 1200 07F58B71 		add	r1, r7, #278
 5462 1204 FFF7FEFF 		bl	decomp
 996:main.c        ****                     decomp(UNIT_TO_DEG(abs_tilt_target),&ati,&atf,&ats);
 5463              		.loc 1 996 0
 5464 1208 2649     		ldr	r1, .L354+36
 5465 120a D7F8B402 		ldr	r0, [r7, #692]	@ float
 5466 120e FFF7FEFF 		bl	__aeabi_fmul
 5467 1212 0346     		mov	r3, r0
 5468 1214 1846     		mov	r0, r3
 5469 1216 07F58C73 		add	r3, r7, #280
 5470 121a 07F58872 		add	r2, r7, #272
 5471 121e 07F58971 		add	r1, r7, #274
 5472 1222 FFF7FEFF 		bl	decomp
 997:main.c        ****                     sprintf(tx,"[Target] Pan=%c%d.%02d Tilt=%c%d.%02d deg\r\n",
 5473              		.loc 1 997 0
 5474 1226 07F21913 		addw	r3, r7, #281
 5475 122a 1B78     		ldrb	r3, [r3]	@ zero_extendqisi2
 5476 122c 1D46     		mov	r5, r3
 5477 122e 07F58B73 		add	r3, r7, #278
 5478 1232 B3F90030 		ldrsh	r3, [r3]
 5479 1236 1E46     		mov	r6, r3
 5480 1238 07F58A73 		add	r3, r7, #276
 5481 123c B3F90030 		ldrsh	r3, [r3]
 5482 1240 1A46     		mov	r2, r3
 5483 1242 07F58C73 		add	r3, r7, #280
 5484 1246 1B78     		ldrb	r3, [r3]	@ zero_extendqisi2
 5485 1248 1946     		mov	r1, r3
 5486 124a 07F58973 		add	r3, r7, #274
 5487 124e B3F90030 		ldrsh	r3, [r3]
 5488 1252 1C46     		mov	r4, r3
 5489 1254 07F58873 		add	r3, r7, #272
 5490 1258 B3F90030 		ldrsh	r3, [r3]
ARM GAS  C:\Users\JENNEW~1\AppData\Local\Temp\ccFpxs5T.s 			page 123


 5491 125c 07F5D070 		add	r0, r7, #416
 5492 1260 0393     		str	r3, [sp, #12]
 5493 1262 0294     		str	r4, [sp, #8]
 5494 1264 0191     		str	r1, [sp, #4]
 5495 1266 0092     		str	r2, [sp]
 5496 1268 3346     		mov	r3, r6
 5497 126a 2A46     		mov	r2, r5
 5498 126c 0E49     		ldr	r1, .L354+40
 5499 126e FFF7FEFF 		bl	sprintf
 998:main.c        ****                             aps,api,apf,ats,ati,atf);
 999:main.c        ****                     UART_1_PutString(tx);
 5500              		.loc 1 999 0
 5501 1272 07F5D073 		add	r3, r7, #416
 5502 1276 1846     		mov	r0, r3
 5503 1278 FFF7FEFF 		bl	UART_1_PutString
 5504 127c 16E0     		b	.L355
 5505              	.L356:
 5506 127e 00BF     		.align	2
 5507              	.L354:
 5508 1280 00000000 		.word	g_tick_ms
 5509 1284 00000000 		.word	g_movi
 5510 1288 B17C2195 		.word	-1792967503
 5511 128c 73B2E745 		.word	1172812403
 5512 1290 89888888 		.word	-2004318071
 5513 1294 D34D6210 		.word	274877907
 5514 1298 440C0000 		.word	.LC98
 5515 129c 5C0C0000 		.word	.LC99
 5516 12a0 00002041 		.word	1092616192
 5517 12a4 00003443 		.word	1127481344
 5518 12a8 8C0C0000 		.word	.LC100
 5519              	.L355:
 5520              	.L326:
 5521              	.LBE24:
1000:main.c        ****                 }
1001:main.c        ****                 sprintf(tx,
 5522              		.loc 1 1001 0 discriminator 2
 5523 12ac 07F22913 		addw	r3, r7, #297
 5524 12b0 1B78     		ldrb	r3, [r3]	@ zero_extendqisi2
 5525 12b2 9C46     		mov	ip, r3
 5526 12b4 07F59273 		add	r3, r7, #292
 5527 12b8 B3F90030 		ldrsh	r3, [r3]
 5528 12bc 9846     		mov	r8, r3
 5529 12be 07F59173 		add	r3, r7, #290
 5530 12c2 B3F90030 		ldrsh	r3, [r3]
 5531 12c6 FB61     		str	r3, [r7, #28]
 5532 12c8 07F59473 		add	r3, r7, #296
 5533 12cc 1B78     		ldrb	r3, [r3]	@ zero_extendqisi2
 5534 12ce BB61     		str	r3, [r7, #24]
 5535 12d0 07F59073 		add	r3, r7, #288
 5536 12d4 B3F90030 		ldrsh	r3, [r3]
 5537 12d8 7B61     		str	r3, [r7, #20]
 5538 12da 07F58F73 		add	r3, r7, #286
 5539 12de B3F90030 		ldrsh	r3, [r3]
 5540 12e2 3B61     		str	r3, [r7, #16]
 5541 12e4 07F22713 		addw	r3, r7, #295
 5542 12e8 1B78     		ldrb	r3, [r3]	@ zero_extendqisi2
 5543 12ea FB60     		str	r3, [r7, #12]
ARM GAS  C:\Users\JENNEW~1\AppData\Local\Temp\ccFpxs5T.s 			page 124


 5544 12ec 07F58E73 		add	r3, r7, #284
 5545 12f0 B3F90030 		ldrsh	r3, [r3]
 5546 12f4 BB60     		str	r3, [r7, #8]
 5547 12f6 07F58D73 		add	r3, r7, #282
 5548 12fa B3F90030 		ldrsh	r3, [r3]
 5549 12fe 7B60     		str	r3, [r7, #4]
 5550 1300 B7F94E02 		ldrsh	r0, [r7, #590]
 5551 1304 B7F94C42 		ldrsh	r4, [r7, #588]
 5552 1308 B7F94A52 		ldrsh	r5, [r7, #586]
 5553 130c B7F94862 		ldrsh	r6, [r7, #584]
 5554 1310 97F84712 		ldrb	r1, [r7, #583]	@ zero_extendqisi2
 5555 1314 97F84622 		ldrb	r2, [r7, #582]	@ zero_extendqisi2
 5556 1318 97F84532 		ldrb	r3, [r7, #581]	@ zero_extendqisi2
 5557 131c 07F5D07E 		add	lr, r7, #416
 5558 1320 0D93     		str	r3, [sp, #52]
 5559 1322 0C92     		str	r2, [sp, #48]
 5560 1324 0B91     		str	r1, [sp, #44]
 5561 1326 0A96     		str	r6, [sp, #40]
 5562 1328 0995     		str	r5, [sp, #36]
 5563 132a 0894     		str	r4, [sp, #32]
 5564 132c 0790     		str	r0, [sp, #28]
 5565 132e 7A68     		ldr	r2, [r7, #4]
 5566 1330 0692     		str	r2, [sp, #24]
 5567 1332 BA68     		ldr	r2, [r7, #8]
 5568 1334 0592     		str	r2, [sp, #20]
 5569 1336 FA68     		ldr	r2, [r7, #12]
 5570 1338 0492     		str	r2, [sp, #16]
 5571 133a 3A69     		ldr	r2, [r7, #16]
 5572 133c 0392     		str	r2, [sp, #12]
 5573 133e 7A69     		ldr	r2, [r7, #20]
 5574 1340 0292     		str	r2, [sp, #8]
 5575 1342 BA69     		ldr	r2, [r7, #24]
 5576 1344 0192     		str	r2, [sp, #4]
 5577 1346 FB69     		ldr	r3, [r7, #28]
 5578 1348 0093     		str	r3, [sp]
 5579 134a 4346     		mov	r3, r8
 5580 134c 6246     		mov	r2, ip
 5581 134e 5E49     		ldr	r1, .L357
 5582 1350 7046     		mov	r0, lr
 5583 1352 FFF7FEFF 		bl	sprintf
1002:main.c        ****                     "[Gimbal] Pan=%c%d.%02d Tilt=%c%d.%02d Roll=%c%d.%02d"
1003:main.c        ****                     " L=%d.%dV R=%d.%dV IMU:%d DRV:%d ERR:%d\r\n",
1004:main.c        ****                     ps,pi,pf, ts,ti,tf, rs,ri,rf,
1005:main.c        ****                     vli,vlf, vri,vrf,
1006:main.c        ****                     imu_err, drv_err, gbl_err);
1007:main.c        ****                 UART_1_PutString(tx);
 5584              		.loc 1 1007 0 discriminator 2
 5585 1356 07F5D073 		add	r3, r7, #416
 5586 135a 1846     		mov	r0, r3
 5587 135c FFF7FEFF 		bl	UART_1_PutString
 5588              	.LBE23:
 5589 1360 02E0     		b	.L327
 5590              	.L325:
1008:main.c        ****             } else {
1009:main.c        ****                 UART_1_PutString("[Gimbal] No valid frame\r\n");
 5591              		.loc 1 1009 0
 5592 1362 5A48     		ldr	r0, .L357+4
ARM GAS  C:\Users\JENNEW~1\AppData\Local\Temp\ccFpxs5T.s 			page 125


 5593 1364 FFF7FEFF 		bl	UART_1_PutString
 5594              	.L327:
1010:main.c        ****             }
1011:main.c        **** 
1012:main.c        ****             if (show_platform_yaw && ctrl_attr_pending==0u) {
 5595              		.loc 1 1012 0
 5596 1368 97F8BE32 		ldrb	r3, [r7, #702]	@ zero_extendqisi2
 5597 136c 002B     		cmp	r3, #0
 5598 136e 0FD0     		beq	.L328
 5599              		.loc 1 1012 0 is_stmt 0 discriminator 1
 5600 1370 97F8BD32 		ldrb	r3, [r7, #701]	@ zero_extendqisi2
 5601 1374 002B     		cmp	r3, #0
 5602 1376 0BD1     		bne	.L328
1013:main.c        ****                 hamfly_request_attr(&g_movi, 2u);
 5603              		.loc 1 1013 0 is_stmt 1
 5604 1378 0221     		movs	r1, #2
 5605 137a 5548     		ldr	r0, .L357+8
 5606 137c FFF7FEFF 		bl	hamfly_request_attr
1014:main.c        ****                 g_movi.pending_sent_ms = g_tick_ms;
 5607              		.loc 1 1014 0
 5608 1380 544B     		ldr	r3, .L357+12
 5609 1382 1B68     		ldr	r3, [r3]
 5610 1384 524A     		ldr	r2, .L357+8
 5611 1386 C2F83433 		str	r3, [r2, #820]
1015:main.c        ****                 ctrl_attr_pending = 2u;
 5612              		.loc 1 1015 0
 5613 138a 0223     		movs	r3, #2
 5614 138c 87F8BD32 		strb	r3, [r7, #701]
 5615              	.L328:
1016:main.c        ****             }
1017:main.c        **** 
1018:main.c        ****             /* Handle pending platform yaw response */
1019:main.c        ****             if (ctrl_attr_pending != 0u && g_movi.pending_ready &&
 5616              		.loc 1 1019 0
 5617 1390 97F8BD32 		ldrb	r3, [r7, #701]	@ zero_extendqisi2
 5618 1394 002B     		cmp	r3, #0
 5619 1396 24D0     		beq	.L329
 5620              		.loc 1 1019 0 is_stmt 0 discriminator 1
 5621 1398 4D4B     		ldr	r3, .L357+8
 5622 139a 93F83833 		ldrb	r3, [r3, #824]	@ zero_extendqisi2
 5623 139e 002B     		cmp	r3, #0
 5624 13a0 1FD0     		beq	.L329
1020:main.c        ****                 g_movi.pending_response_attr == ctrl_attr_pending) {
 5625              		.loc 1 1020 0 is_stmt 1 discriminator 2
 5626 13a2 4B4B     		ldr	r3, .L357+8
 5627 13a4 B3F83A23 		ldrh	r2, [r3, #826]
 5628 13a8 97F8BD32 		ldrb	r3, [r7, #701]	@ zero_extendqisi2
 5629 13ac 9BB2     		uxth	r3, r3
1019:main.c        ****                 g_movi.pending_response_attr == ctrl_attr_pending) {
 5630              		.loc 1 1019 0 discriminator 2
 5631 13ae 9A42     		cmp	r2, r3
 5632 13b0 17D1     		bne	.L329
 5633              	.LBB25:
1021:main.c        ****                 uint32_t dt = g_tick_ms - g_movi.pending_sent_ms;
 5634              		.loc 1 1021 0
 5635 13b2 484B     		ldr	r3, .L357+12
 5636 13b4 1A68     		ldr	r2, [r3]
ARM GAS  C:\Users\JENNEW~1\AppData\Local\Temp\ccFpxs5T.s 			page 126


 5637 13b6 464B     		ldr	r3, .L357+8
 5638 13b8 D3F83433 		ldr	r3, [r3, #820]
 5639 13bc D31A     		subs	r3, r2, r3
 5640 13be C7F84032 		str	r3, [r7, #576]
1022:main.c        ****                 print_query_response(dt);
 5641              		.loc 1 1022 0
 5642 13c2 D7F84002 		ldr	r0, [r7, #576]
 5643 13c6 FFF7FEFF 		bl	print_query_response
1023:main.c        ****                 g_movi.pending_ready = false;
 5644              		.loc 1 1023 0
 5645 13ca 414B     		ldr	r3, .L357+8
 5646 13cc 0022     		movs	r2, #0
 5647 13ce 83F83823 		strb	r2, [r3, #824]
1024:main.c        ****                 g_movi.pending_attr  = 0u;
 5648              		.loc 1 1024 0
 5649 13d2 3F4B     		ldr	r3, .L357+8
 5650 13d4 0022     		movs	r2, #0
 5651 13d6 A3F83223 		strh	r2, [r3, #818]	@ movhi
1025:main.c        ****                 ctrl_attr_pending    = 0u;
 5652              		.loc 1 1025 0
 5653 13da 0023     		movs	r3, #0
 5654 13dc 87F8BD32 		strb	r3, [r7, #701]
 5655              	.LBE25:
1020:main.c        ****                 uint32_t dt = g_tick_ms - g_movi.pending_sent_ms;
 5656              		.loc 1 1020 0
 5657 13e0 20E0     		b	.L330
 5658              	.L329:
1026:main.c        ****             }
1027:main.c        ****             else if (ctrl_attr_pending != 0u &&
 5659              		.loc 1 1027 0
 5660 13e2 97F8BD32 		ldrb	r3, [r7, #701]	@ zero_extendqisi2
 5661 13e6 002B     		cmp	r3, #0
 5662 13e8 1CD0     		beq	.L330
1028:main.c        ****                      (g_tick_ms-g_movi.pending_sent_ms) >= QUERY_TIMEOUT_MS) {
 5663              		.loc 1 1028 0 discriminator 1
 5664 13ea 3A4B     		ldr	r3, .L357+12
 5665 13ec 1A68     		ldr	r2, [r3]
 5666 13ee 384B     		ldr	r3, .L357+8
 5667 13f0 D3F83433 		ldr	r3, [r3, #820]
 5668 13f4 D31A     		subs	r3, r2, r3
1027:main.c        ****                      (g_tick_ms-g_movi.pending_sent_ms) >= QUERY_TIMEOUT_MS) {
 5669              		.loc 1 1027 0 discriminator 1
 5670 13f6 B3F5FA6F 		cmp	r3, #2000
 5671 13fa 13D3     		bcc	.L330
1029:main.c        ****                 sprintf(tx,"[CTRL] attr %u timeout\r\n",
 5672              		.loc 1 1029 0
 5673 13fc 97F8BD22 		ldrb	r2, [r7, #701]	@ zero_extendqisi2
 5674 1400 07F5D073 		add	r3, r7, #416
 5675 1404 3449     		ldr	r1, .L357+16
 5676 1406 1846     		mov	r0, r3
 5677 1408 FFF7FEFF 		bl	sprintf
1030:main.c        ****                         (unsigned)ctrl_attr_pending);
1031:main.c        ****                 UART_1_PutString(tx);
 5678              		.loc 1 1031 0
 5679 140c 07F5D073 		add	r3, r7, #416
 5680 1410 1846     		mov	r0, r3
 5681 1412 FFF7FEFF 		bl	UART_1_PutString
ARM GAS  C:\Users\JENNEW~1\AppData\Local\Temp\ccFpxs5T.s 			page 127


1032:main.c        ****                 g_movi.pending_attr = 0u;
 5682              		.loc 1 1032 0
 5683 1416 2E4B     		ldr	r3, .L357+8
 5684 1418 0022     		movs	r2, #0
 5685 141a A3F83223 		strh	r2, [r3, #818]	@ movhi
1033:main.c        ****                 ctrl_attr_pending   = 0u;
 5686              		.loc 1 1033 0
 5687 141e 0023     		movs	r3, #0
 5688 1420 87F8BD32 		strb	r3, [r7, #701]
 5689              	.L330:
1034:main.c        ****             }
1035:main.c        **** 
1036:main.c        ****             char lrs,uds; int16_t lri,lrf,udi,udf;
1037:main.c        ****             decomp(cmd.u[CH_X],&lri,&lrf,&lrs);
 5690              		.loc 1 1037 0
 5691 1424 07F5BC73 		add	r3, r7, #376
 5692 1428 1868     		ldr	r0, [r3]	@ float
 5693 142a 07F23313 		addw	r3, r7, #307
 5694 142e 07F59772 		add	r2, r7, #302
 5695 1432 07F59871 		add	r1, r7, #304
 5696 1436 FFF7FEFF 		bl	decomp
1038:main.c        ****             decomp(cmd.u[CH_Y],&udi,&udf,&uds);
 5697              		.loc 1 1038 0
 5698 143a 07F5BC73 		add	r3, r7, #376
 5699 143e 5868     		ldr	r0, [r3, #4]	@ float
 5700 1440 07F59973 		add	r3, r7, #306
 5701 1444 07F59572 		add	r2, r7, #298
 5702 1448 07F59671 		add	r1, r7, #300
 5703 144c FFF7FEFF 		bl	decomp
1039:main.c        ****             sprintf(tx,"[Joy] L/R=%c%d.%02d U/D=%c%d.%02d (%s)\r\n",
 5704              		.loc 1 1039 0
 5705 1450 07F23313 		addw	r3, r7, #307
 5706 1454 1B78     		ldrb	r3, [r3]	@ zero_extendqisi2
 5707 1456 9846     		mov	r8, r3
 5708 1458 07F59873 		add	r3, r7, #304
 5709 145c B3F90030 		ldrsh	r3, [r3]
 5710 1460 9946     		mov	r9, r3
 5711 1462 07F59773 		add	r3, r7, #302
 5712 1466 B3F90030 		ldrsh	r3, [r3]
 5713 146a 1C46     		mov	r4, r3
 5714 146c 07F59973 		add	r3, r7, #306
 5715 1470 1B78     		ldrb	r3, [r3]	@ zero_extendqisi2
 5716 1472 1D46     		mov	r5, r3
 5717 1474 07F59673 		add	r3, r7, #300
 5718 1478 B3F90030 		ldrsh	r3, [r3]
 5719 147c 1E46     		mov	r6, r3
 5720 147e 07F59573 		add	r3, r7, #298
 5721 1482 B3F90030 		ldrsh	r3, [r3]
 5722 1486 FB61     		str	r3, [r7, #28]
 5723 1488 07F5CF73 		add	r3, r7, #414
 5724 148c 1B78     		ldrb	r3, [r3]	@ zero_extendqisi2
 5725 148e 1846     		mov	r0, r3
 5726 1490 FFF7FEFF 		bl	mode_str
 5727 1494 0346     		mov	r3, r0
 5728 1496 07F5D070 		add	r0, r7, #416
 5729 149a 0493     		str	r3, [sp, #16]
 5730 149c FB69     		ldr	r3, [r7, #28]
ARM GAS  C:\Users\JENNEW~1\AppData\Local\Temp\ccFpxs5T.s 			page 128


 5731 149e 0393     		str	r3, [sp, #12]
 5732 14a0 0296     		str	r6, [sp, #8]
 5733 14a2 0195     		str	r5, [sp, #4]
 5734 14a4 0094     		str	r4, [sp]
 5735 14a6 4B46     		mov	r3, r9
 5736 14a8 4246     		mov	r2, r8
 5737 14aa 0C49     		ldr	r1, .L357+20
 5738 14ac FFF7FEFF 		bl	sprintf
1040:main.c        ****                     lrs,lri,lrf, uds,udi,udf, mode_str(ctrl_mode));
1041:main.c        ****             UART_1_PutString(tx);
 5739              		.loc 1 1041 0
 5740 14b0 07F5D073 		add	r3, r7, #416
 5741 14b4 1846     		mov	r0, r3
 5742 14b6 FFF7FEFF 		bl	UART_1_PutString
1042:main.c        **** 
1043:main.c        ****             s.uart_err_flags = 0u;
 5743              		.loc 1 1043 0
 5744 14ba 07F59A73 		add	r3, r7, #308
 5745 14be 0022     		movs	r2, #0
 5746 14c0 9A75     		strb	r2, [r3, #22]
 5747              	.LBE22:
 5748              	.LBE12:
1044:main.c        ****         }
1045:main.c        ****     }
 5749              		.loc 1 1045 0
 5750 14c2 FEF773BE 		b	.L331
 5751              	.L358:
 5752 14c6 00BF     		.align	2
 5753              	.L357:
 5754 14c8 B80C0000 		.word	.LC101
 5755 14cc 180D0000 		.word	.LC102
 5756 14d0 00000000 		.word	g_movi
 5757 14d4 00000000 		.word	g_tick_ms
 5758 14d8 340D0000 		.word	.LC103
 5759 14dc 500D0000 		.word	.LC104
 5760              		.cfi_endproc
 5761              	.LFE85:
 5762              		.size	main, .-main
 5763              		.text
 5764              	.Letext0:
 5765              		.file 2 "c:\\program files (x86)\\cypress\\psoc creator\\4.4\\psoc creator\\import\\gnu\\arm\\5.4.
 5766              		.file 3 "c:\\program files (x86)\\cypress\\psoc creator\\4.4\\psoc creator\\import\\gnu\\arm\\5.4.
 5767              		.file 4 "Generated_Source\\PSoC5/cytypes.h"
 5768              		.file 5 "..\\..\\..\\HamFlyAPI\\src/hamfly_core_hal.h"
 5769              		.file 6 "..\\..\\..\\HamFlyAPI\\src/hamfly_core_control.h"
 5770              		.file 7 "..\\..\\..\\HamFlyAPI\\src/hamfly_core_telemetry.h"
 5771              		.file 8 "..\\..\\..\\HamFlyAPI\\src/hamfly_comm_rb.h"
 5772              		.file 9 "..\\..\\..\\HamFlyAPI\\src/hamfly_core_gimbal.h"
 5773              		.file 10 "joystick.h"
 5774              		.file 11 "Generated_Source\\PSoC5/core_cm3.h"
 5775              		.section	.debug_info,"",%progbits
 5776              	.Ldebug_info0:
 5777 0000 A0190000 		.4byte	0x19a0
 5778 0004 0400     		.2byte	0x4
 5779 0006 00000000 		.4byte	.Ldebug_abbrev0
 5780 000a 04       		.byte	0x4
 5781 000b 01       		.uleb128 0x1
ARM GAS  C:\Users\JENNEW~1\AppData\Local\Temp\ccFpxs5T.s 			page 129


 5782 000c 1F060000 		.4byte	.LASF247
 5783 0010 0C       		.byte	0xc
 5784 0011 6E070000 		.4byte	.LASF248
 5785 0015 83030000 		.4byte	.LASF249
 5786 0019 00000000 		.4byte	.Ldebug_ranges0+0
 5787 001d 00000000 		.4byte	0
 5788 0021 00000000 		.4byte	.Ldebug_line0
 5789 0025 02       		.uleb128 0x2
 5790 0026 01       		.byte	0x1
 5791 0027 06       		.byte	0x6
 5792 0028 32020000 		.4byte	.LASF0
 5793 002c 03       		.uleb128 0x3
 5794 002d 46010000 		.4byte	.LASF2
 5795 0031 02       		.byte	0x2
 5796 0032 1D       		.byte	0x1d
 5797 0033 37000000 		.4byte	0x37
 5798 0037 02       		.uleb128 0x2
 5799 0038 01       		.byte	0x1
 5800 0039 08       		.byte	0x8
 5801 003a 60020000 		.4byte	.LASF1
 5802 003e 03       		.uleb128 0x3
 5803 003f D5090000 		.4byte	.LASF3
 5804 0043 02       		.byte	0x2
 5805 0044 29       		.byte	0x29
 5806 0045 49000000 		.4byte	0x49
 5807 0049 02       		.uleb128 0x2
 5808 004a 02       		.byte	0x2
 5809 004b 05       		.byte	0x5
 5810 004c 8C0A0000 		.4byte	.LASF4
 5811 0050 03       		.uleb128 0x3
 5812 0051 EF020000 		.4byte	.LASF5
 5813 0055 02       		.byte	0x2
 5814 0056 2B       		.byte	0x2b
 5815 0057 5B000000 		.4byte	0x5b
 5816 005b 02       		.uleb128 0x2
 5817 005c 02       		.byte	0x2
 5818 005d 07       		.byte	0x7
 5819 005e AD0B0000 		.4byte	.LASF6
 5820 0062 03       		.uleb128 0x3
 5821 0063 DF0B0000 		.4byte	.LASF7
 5822 0067 02       		.byte	0x2
 5823 0068 3F       		.byte	0x3f
 5824 0069 6D000000 		.4byte	0x6d
 5825 006d 02       		.uleb128 0x2
 5826 006e 04       		.byte	0x4
 5827 006f 05       		.byte	0x5
 5828 0070 A6010000 		.4byte	.LASF8
 5829 0074 03       		.uleb128 0x3
 5830 0075 C0060000 		.4byte	.LASF9
 5831 0079 02       		.byte	0x2
 5832 007a 41       		.byte	0x41
 5833 007b 7F000000 		.4byte	0x7f
 5834 007f 02       		.uleb128 0x2
 5835 0080 04       		.byte	0x4
 5836 0081 07       		.byte	0x7
 5837 0082 31050000 		.4byte	.LASF10
 5838 0086 02       		.uleb128 0x2
ARM GAS  C:\Users\JENNEW~1\AppData\Local\Temp\ccFpxs5T.s 			page 130


 5839 0087 08       		.byte	0x8
 5840 0088 05       		.byte	0x5
 5841 0089 DA060000 		.4byte	.LASF11
 5842 008d 02       		.uleb128 0x2
 5843 008e 08       		.byte	0x8
 5844 008f 07       		.byte	0x7
 5845 0090 25090000 		.4byte	.LASF12
 5846 0094 04       		.uleb128 0x4
 5847 0095 04       		.byte	0x4
 5848 0096 05       		.byte	0x5
 5849 0097 696E7400 		.ascii	"int\000"
 5850 009b 02       		.uleb128 0x2
 5851 009c 04       		.byte	0x4
 5852 009d 07       		.byte	0x7
 5853 009e D1070000 		.4byte	.LASF13
 5854 00a2 03       		.uleb128 0x3
 5855 00a3 3E020000 		.4byte	.LASF14
 5856 00a7 03       		.byte	0x3
 5857 00a8 18       		.byte	0x18
 5858 00a9 2C000000 		.4byte	0x2c
 5859 00ad 03       		.uleb128 0x3
 5860 00ae AC0A0000 		.4byte	.LASF15
 5861 00b2 03       		.byte	0x3
 5862 00b3 20       		.byte	0x20
 5863 00b4 3E000000 		.4byte	0x3e
 5864 00b8 03       		.uleb128 0x3
 5865 00b9 66090000 		.4byte	.LASF16
 5866 00bd 03       		.byte	0x3
 5867 00be 24       		.byte	0x24
 5868 00bf 50000000 		.4byte	0x50
 5869 00c3 03       		.uleb128 0x3
 5870 00c4 7D000000 		.4byte	.LASF17
 5871 00c8 03       		.byte	0x3
 5872 00c9 2C       		.byte	0x2c
 5873 00ca 62000000 		.4byte	0x62
 5874 00ce 03       		.uleb128 0x3
 5875 00cf 4D0B0000 		.4byte	.LASF18
 5876 00d3 03       		.byte	0x3
 5877 00d4 30       		.byte	0x30
 5878 00d5 74000000 		.4byte	0x74
 5879 00d9 05       		.uleb128 0x5
 5880 00da 670A0000 		.4byte	.LASF19
 5881 00de 04       		.byte	0x4
 5882 00df E901     		.2byte	0x1e9
 5883 00e1 37000000 		.4byte	0x37
 5884 00e5 05       		.uleb128 0x5
 5885 00e6 3C0B0000 		.4byte	.LASF20
 5886 00ea 04       		.byte	0x4
 5887 00eb ED01     		.2byte	0x1ed
 5888 00ed 49000000 		.4byte	0x49
 5889 00f1 02       		.uleb128 0x2
 5890 00f2 04       		.byte	0x4
 5891 00f3 04       		.byte	0x4
 5892 00f4 A4070000 		.4byte	.LASF21
 5893 00f8 02       		.uleb128 0x2
 5894 00f9 08       		.byte	0x8
 5895 00fa 04       		.byte	0x4
ARM GAS  C:\Users\JENNEW~1\AppData\Local\Temp\ccFpxs5T.s 			page 131


 5896 00fb 67070000 		.4byte	.LASF22
 5897 00ff 02       		.uleb128 0x2
 5898 0100 01       		.byte	0x1
 5899 0101 08       		.byte	0x8
 5900 0102 B3020000 		.4byte	.LASF23
 5901 0106 05       		.uleb128 0x5
 5902 0107 AC090000 		.4byte	.LASF24
 5903 010b 04       		.byte	0x4
 5904 010c 9302     		.2byte	0x293
 5905 010e 12010000 		.4byte	0x112
 5906 0112 06       		.uleb128 0x6
 5907 0113 D9000000 		.4byte	0xd9
 5908 0117 02       		.uleb128 0x2
 5909 0118 08       		.byte	0x8
 5910 0119 04       		.byte	0x4
 5911 011a 8F080000 		.4byte	.LASF25
 5912 011e 02       		.uleb128 0x2
 5913 011f 04       		.byte	0x4
 5914 0120 07       		.byte	0x7
 5915 0121 45000000 		.4byte	.LASF26
 5916 0125 07       		.uleb128 0x7
 5917 0126 04       		.byte	0x4
 5918 0127 08       		.uleb128 0x8
 5919 0128 04       		.byte	0x4
 5920 0129 FF000000 		.4byte	0xff
 5921 012d 08       		.uleb128 0x8
 5922 012e 04       		.byte	0x4
 5923 012f 33010000 		.4byte	0x133
 5924 0133 09       		.uleb128 0x9
 5925 0134 FF000000 		.4byte	0xff
 5926 0138 06       		.uleb128 0x6
 5927 0139 CE000000 		.4byte	0xce
 5928 013d 06       		.uleb128 0x6
 5929 013e A2000000 		.4byte	0xa2
 5930 0142 06       		.uleb128 0x6
 5931 0143 B8000000 		.4byte	0xb8
 5932 0147 0A       		.uleb128 0xa
 5933 0148 0C       		.byte	0xc
 5934 0149 05       		.byte	0x5
 5935 014a 24       		.byte	0x24
 5936 014b 74010000 		.4byte	0x174
 5937 014f 0B       		.uleb128 0xb
 5938 0150 63747800 		.ascii	"ctx\000"
 5939 0154 05       		.byte	0x5
 5940 0155 25       		.byte	0x25
 5941 0156 25010000 		.4byte	0x125
 5942 015a 00       		.byte	0
 5943 015b 0C       		.uleb128 0xc
 5944 015c C1050000 		.4byte	.LASF27
 5945 0160 05       		.byte	0x5
 5946 0161 26       		.byte	0x26
 5947 0162 84010000 		.4byte	0x184
 5948 0166 04       		.byte	0x4
 5949 0167 0C       		.uleb128 0xc
 5950 0168 7E0B0000 		.4byte	.LASF28
 5951 016c 05       		.byte	0x5
 5952 016d 27       		.byte	0x27
ARM GAS  C:\Users\JENNEW~1\AppData\Local\Temp\ccFpxs5T.s 			page 132


 5953 016e 99010000 		.4byte	0x199
 5954 0172 08       		.byte	0x8
 5955 0173 00       		.byte	0
 5956 0174 0D       		.uleb128 0xd
 5957 0175 84010000 		.4byte	0x184
 5958 0179 0E       		.uleb128 0xe
 5959 017a 25010000 		.4byte	0x125
 5960 017e 0E       		.uleb128 0xe
 5961 017f A2000000 		.4byte	0xa2
 5962 0183 00       		.byte	0
 5963 0184 08       		.uleb128 0x8
 5964 0185 04       		.byte	0x4
 5965 0186 74010000 		.4byte	0x174
 5966 018a 0F       		.uleb128 0xf
 5967 018b CE000000 		.4byte	0xce
 5968 018f 99010000 		.4byte	0x199
 5969 0193 0E       		.uleb128 0xe
 5970 0194 25010000 		.4byte	0x125
 5971 0198 00       		.byte	0
 5972 0199 08       		.uleb128 0x8
 5973 019a 04       		.byte	0x4
 5974 019b 8A010000 		.4byte	0x18a
 5975 019f 03       		.uleb128 0x3
 5976 01a0 C4080000 		.4byte	.LASF29
 5977 01a4 05       		.byte	0x5
 5978 01a5 28       		.byte	0x28
 5979 01a6 47010000 		.4byte	0x147
 5980 01aa 10       		.uleb128 0x10
 5981 01ab 01       		.byte	0x1
 5982 01ac 37000000 		.4byte	0x37
 5983 01b0 06       		.byte	0x6
 5984 01b1 1E       		.byte	0x1e
 5985 01b2 C9010000 		.4byte	0x1c9
 5986 01b6 11       		.uleb128 0x11
 5987 01b7 F90A0000 		.4byte	.LASF30
 5988 01bb 00       		.byte	0
 5989 01bc 11       		.uleb128 0x11
 5990 01bd A7020000 		.4byte	.LASF31
 5991 01c1 01       		.byte	0x1
 5992 01c2 11       		.uleb128 0x11
 5993 01c3 7F080000 		.4byte	.LASF32
 5994 01c7 02       		.byte	0x2
 5995 01c8 00       		.byte	0
 5996 01c9 03       		.uleb128 0x3
 5997 01ca E8060000 		.4byte	.LASF33
 5998 01ce 06       		.byte	0x6
 5999 01cf 22       		.byte	0x22
 6000 01d0 AA010000 		.4byte	0x1aa
 6001 01d4 0A       		.uleb128 0xa
 6002 01d5 14       		.byte	0x14
 6003 01d6 06       		.byte	0x6
 6004 01d7 26       		.byte	0x26
 6005 01d8 3D020000 		.4byte	0x23d
 6006 01dc 0B       		.uleb128 0xb
 6007 01dd 70616E00 		.ascii	"pan\000"
 6008 01e1 06       		.byte	0x6
 6009 01e2 27       		.byte	0x27
ARM GAS  C:\Users\JENNEW~1\AppData\Local\Temp\ccFpxs5T.s 			page 133


 6010 01e3 F1000000 		.4byte	0xf1
 6011 01e7 00       		.byte	0
 6012 01e8 0C       		.uleb128 0xc
 6013 01e9 C4090000 		.4byte	.LASF34
 6014 01ed 06       		.byte	0x6
 6015 01ee 28       		.byte	0x28
 6016 01ef F1000000 		.4byte	0xf1
 6017 01f3 04       		.byte	0x4
 6018 01f4 0C       		.uleb128 0xc
 6019 01f5 D50B0000 		.4byte	.LASF35
 6020 01f9 06       		.byte	0x6
 6021 01fa 29       		.byte	0x29
 6022 01fb F1000000 		.4byte	0xf1
 6023 01ff 08       		.byte	0x8
 6024 0200 0C       		.uleb128 0xc
 6025 0201 0C090000 		.4byte	.LASF36
 6026 0205 06       		.byte	0x6
 6027 0206 2A       		.byte	0x2a
 6028 0207 C9010000 		.4byte	0x1c9
 6029 020b 0C       		.byte	0xc
 6030 020c 0C       		.uleb128 0xc
 6031 020d 480A0000 		.4byte	.LASF37
 6032 0211 06       		.byte	0x6
 6033 0212 2B       		.byte	0x2b
 6034 0213 C9010000 		.4byte	0x1c9
 6035 0217 0D       		.byte	0xd
 6036 0218 0C       		.uleb128 0xc
 6037 0219 0E080000 		.4byte	.LASF38
 6038 021d 06       		.byte	0x6
 6039 021e 2C       		.byte	0x2c
 6040 021f C9010000 		.4byte	0x1c9
 6041 0223 0E       		.byte	0xe
 6042 0224 0C       		.uleb128 0xc
 6043 0225 2E070000 		.4byte	.LASF39
 6044 0229 06       		.byte	0x6
 6045 022a 2D       		.byte	0x2d
 6046 022b A2000000 		.4byte	0xa2
 6047 022f 0F       		.byte	0xf
 6048 0230 0C       		.uleb128 0xc
 6049 0231 2A0B0000 		.4byte	.LASF40
 6050 0235 06       		.byte	0x6
 6051 0236 2E       		.byte	0x2e
 6052 0237 A2000000 		.4byte	0xa2
 6053 023b 10       		.byte	0x10
 6054 023c 00       		.byte	0
 6055 023d 03       		.uleb128 0x3
 6056 023e B3000000 		.4byte	.LASF41
 6057 0242 06       		.byte	0x6
 6058 0243 2F       		.byte	0x2f
 6059 0244 D4010000 		.4byte	0x1d4
 6060 0248 0A       		.uleb128 0xa
 6061 0249 EC       		.byte	0xec
 6062 024a 07       		.byte	0x7
 6063 024b 1F       		.byte	0x1f
 6064 024c B1050000 		.4byte	0x5b1
 6065 0250 0C       		.uleb128 0xc
 6066 0251 190B0000 		.4byte	.LASF42
ARM GAS  C:\Users\JENNEW~1\AppData\Local\Temp\ccFpxs5T.s 			page 134


 6067 0255 07       		.byte	0x7
 6068 0256 21       		.byte	0x21
 6069 0257 B1050000 		.4byte	0x5b1
 6070 025b 00       		.byte	0
 6071 025c 0C       		.uleb128 0xc
 6072 025d CB060000 		.4byte	.LASF43
 6073 0261 07       		.byte	0x7
 6074 0262 22       		.byte	0x22
 6075 0263 F1000000 		.4byte	0xf1
 6076 0267 04       		.byte	0x4
 6077 0268 0C       		.uleb128 0xc
 6078 0269 37030000 		.4byte	.LASF44
 6079 026d 07       		.byte	0x7
 6080 026e 23       		.byte	0x23
 6081 026f F1000000 		.4byte	0xf1
 6082 0273 08       		.byte	0x8
 6083 0274 0C       		.uleb128 0xc
 6084 0275 5F010000 		.4byte	.LASF45
 6085 0279 07       		.byte	0x7
 6086 027a 24       		.byte	0x24
 6087 027b F1000000 		.4byte	0xf1
 6088 027f 0C       		.byte	0xc
 6089 0280 0C       		.uleb128 0xc
 6090 0281 34010000 		.4byte	.LASF46
 6091 0285 07       		.byte	0x7
 6092 0286 25       		.byte	0x25
 6093 0287 F1000000 		.4byte	0xf1
 6094 028b 10       		.byte	0x10
 6095 028c 0C       		.uleb128 0xc
 6096 028d 3D010000 		.4byte	.LASF47
 6097 0291 07       		.byte	0x7
 6098 0292 26       		.byte	0x26
 6099 0293 F1000000 		.4byte	0xf1
 6100 0297 14       		.byte	0x14
 6101 0298 0C       		.uleb128 0xc
 6102 0299 F5010000 		.4byte	.LASF48
 6103 029d 07       		.byte	0x7
 6104 029e 27       		.byte	0x27
 6105 029f F1000000 		.4byte	0xf1
 6106 02a3 18       		.byte	0x18
 6107 02a4 0C       		.uleb128 0xc
 6108 02a5 19000000 		.4byte	.LASF49
 6109 02a9 07       		.byte	0x7
 6110 02aa 28       		.byte	0x28
 6111 02ab A2000000 		.4byte	0xa2
 6112 02af 1C       		.byte	0x1c
 6113 02b0 0C       		.uleb128 0xc
 6114 02b1 28000000 		.4byte	.LASF50
 6115 02b5 07       		.byte	0x7
 6116 02b6 29       		.byte	0x29
 6117 02b7 A2000000 		.4byte	0xa2
 6118 02bb 1D       		.byte	0x1d
 6119 02bc 0C       		.uleb128 0xc
 6120 02bd 06010000 		.4byte	.LASF51
 6121 02c1 07       		.byte	0x7
 6122 02c2 2C       		.byte	0x2c
 6123 02c3 B1050000 		.4byte	0x5b1
ARM GAS  C:\Users\JENNEW~1\AppData\Local\Temp\ccFpxs5T.s 			page 135


 6124 02c7 1E       		.byte	0x1e
 6125 02c8 0C       		.uleb128 0xc
 6126 02c9 DE0A0000 		.4byte	.LASF52
 6127 02cd 07       		.byte	0x7
 6128 02ce 2E       		.byte	0x2e
 6129 02cf B1050000 		.4byte	0x5b1
 6130 02d3 1F       		.byte	0x1f
 6131 02d4 0C       		.uleb128 0xc
 6132 02d5 92010000 		.4byte	.LASF53
 6133 02d9 07       		.byte	0x7
 6134 02da 31       		.byte	0x31
 6135 02db F1000000 		.4byte	0xf1
 6136 02df 20       		.byte	0x20
 6137 02e0 0C       		.uleb128 0xc
 6138 02e1 5B0C0000 		.4byte	.LASF54
 6139 02e5 07       		.byte	0x7
 6140 02e6 32       		.byte	0x32
 6141 02e7 F1000000 		.4byte	0xf1
 6142 02eb 24       		.byte	0x24
 6143 02ec 0C       		.uleb128 0xc
 6144 02ed 28020000 		.4byte	.LASF55
 6145 02f1 07       		.byte	0x7
 6146 02f2 33       		.byte	0x33
 6147 02f3 F1000000 		.4byte	0xf1
 6148 02f7 28       		.byte	0x28
 6149 02f8 0C       		.uleb128 0xc
 6150 02f9 F7030000 		.4byte	.LASF56
 6151 02fd 07       		.byte	0x7
 6152 02fe 34       		.byte	0x34
 6153 02ff F1000000 		.4byte	0xf1
 6154 0303 2C       		.byte	0x2c
 6155 0304 0C       		.uleb128 0xc
 6156 0305 1E070000 		.4byte	.LASF57
 6157 0309 07       		.byte	0x7
 6158 030a 36       		.byte	0x36
 6159 030b F1000000 		.4byte	0xf1
 6160 030f 30       		.byte	0x30
 6161 0310 0C       		.uleb128 0xc
 6162 0311 51050000 		.4byte	.LASF58
 6163 0315 07       		.byte	0x7
 6164 0316 37       		.byte	0x37
 6165 0317 F1000000 		.4byte	0xf1
 6166 031b 34       		.byte	0x34
 6167 031c 0C       		.uleb128 0xc
 6168 031d 38040000 		.4byte	.LASF59
 6169 0321 07       		.byte	0x7
 6170 0322 38       		.byte	0x38
 6171 0323 F1000000 		.4byte	0xf1
 6172 0327 38       		.byte	0x38
 6173 0328 0C       		.uleb128 0xc
 6174 0329 14050000 		.4byte	.LASF60
 6175 032d 07       		.byte	0x7
 6176 032e 39       		.byte	0x39
 6177 032f F1000000 		.4byte	0xf1
 6178 0333 3C       		.byte	0x3c
 6179 0334 0C       		.uleb128 0xc
 6180 0335 B5050000 		.4byte	.LASF61
ARM GAS  C:\Users\JENNEW~1\AppData\Local\Temp\ccFpxs5T.s 			page 136


 6181 0339 07       		.byte	0x7
 6182 033a 3B       		.byte	0x3b
 6183 033b C3000000 		.4byte	0xc3
 6184 033f 40       		.byte	0x40
 6185 0340 0C       		.uleb128 0xc
 6186 0341 720B0000 		.4byte	.LASF62
 6187 0345 07       		.byte	0x7
 6188 0346 3C       		.byte	0x3c
 6189 0347 C3000000 		.4byte	0xc3
 6190 034b 44       		.byte	0x44
 6191 034c 0C       		.uleb128 0xc
 6192 034d 1F080000 		.4byte	.LASF63
 6193 0351 07       		.byte	0x7
 6194 0352 41       		.byte	0x41
 6195 0353 C3000000 		.4byte	0xc3
 6196 0357 48       		.byte	0x48
 6197 0358 0C       		.uleb128 0xc
 6198 0359 52040000 		.4byte	.LASF64
 6199 035d 07       		.byte	0x7
 6200 035e 42       		.byte	0x42
 6201 035f AD000000 		.4byte	0xad
 6202 0363 4C       		.byte	0x4c
 6203 0364 0C       		.uleb128 0xc
 6204 0365 C9090000 		.4byte	.LASF65
 6205 0369 07       		.byte	0x7
 6206 036a 44       		.byte	0x44
 6207 036b AD000000 		.4byte	0xad
 6208 036f 4E       		.byte	0x4e
 6209 0370 0C       		.uleb128 0xc
 6210 0371 F9000000 		.4byte	.LASF66
 6211 0375 07       		.byte	0x7
 6212 0376 45       		.byte	0x45
 6213 0377 B8000000 		.4byte	0xb8
 6214 037b 50       		.byte	0x50
 6215 037c 0C       		.uleb128 0xc
 6216 037d BA010000 		.4byte	.LASF67
 6217 0381 07       		.byte	0x7
 6218 0382 46       		.byte	0x46
 6219 0383 B8000000 		.4byte	0xb8
 6220 0387 52       		.byte	0x52
 6221 0388 0C       		.uleb128 0xc
 6222 0389 9B080000 		.4byte	.LASF68
 6223 038d 07       		.byte	0x7
 6224 038e 47       		.byte	0x47
 6225 038f B8000000 		.4byte	0xb8
 6226 0393 54       		.byte	0x54
 6227 0394 0C       		.uleb128 0xc
 6228 0395 1F0B0000 		.4byte	.LASF69
 6229 0399 07       		.byte	0x7
 6230 039a 4A       		.byte	0x4a
 6231 039b B1050000 		.4byte	0x5b1
 6232 039f 56       		.byte	0x56
 6233 03a0 0C       		.uleb128 0xc
 6234 03a1 320C0000 		.4byte	.LASF70
 6235 03a5 07       		.byte	0x7
 6236 03a6 4E       		.byte	0x4e
 6237 03a7 F1000000 		.4byte	0xf1
ARM GAS  C:\Users\JENNEW~1\AppData\Local\Temp\ccFpxs5T.s 			page 137


 6238 03ab 58       		.byte	0x58
 6239 03ac 0C       		.uleb128 0xc
 6240 03ad 94090000 		.4byte	.LASF71
 6241 03b1 07       		.byte	0x7
 6242 03b2 52       		.byte	0x52
 6243 03b3 F1000000 		.4byte	0xf1
 6244 03b7 5C       		.byte	0x5c
 6245 03b8 0C       		.uleb128 0xc
 6246 03b9 94040000 		.4byte	.LASF72
 6247 03bd 07       		.byte	0x7
 6248 03be 57       		.byte	0x57
 6249 03bf B1050000 		.4byte	0x5b1
 6250 03c3 60       		.byte	0x60
 6251 03c4 0C       		.uleb128 0xc
 6252 03c5 BD020000 		.4byte	.LASF73
 6253 03c9 07       		.byte	0x7
 6254 03ca 58       		.byte	0x58
 6255 03cb CE000000 		.4byte	0xce
 6256 03cf 64       		.byte	0x64
 6257 03d0 0C       		.uleb128 0xc
 6258 03d1 8F000000 		.4byte	.LASF74
 6259 03d5 07       		.byte	0x7
 6260 03d6 59       		.byte	0x59
 6261 03d7 F1000000 		.4byte	0xf1
 6262 03db 68       		.byte	0x68
 6263 03dc 0C       		.uleb128 0xc
 6264 03dd 48080000 		.4byte	.LASF75
 6265 03e1 07       		.byte	0x7
 6266 03e2 5A       		.byte	0x5a
 6267 03e3 F1000000 		.4byte	0xf1
 6268 03e7 6C       		.byte	0x6c
 6269 03e8 0C       		.uleb128 0xc
 6270 03e9 CE020000 		.4byte	.LASF76
 6271 03ed 07       		.byte	0x7
 6272 03ee 5B       		.byte	0x5b
 6273 03ef F1000000 		.4byte	0xf1
 6274 03f3 70       		.byte	0x70
 6275 03f4 0C       		.uleb128 0xc
 6276 03f5 03060000 		.4byte	.LASF77
 6277 03f9 07       		.byte	0x7
 6278 03fa 5F       		.byte	0x5f
 6279 03fb F1000000 		.4byte	0xf1
 6280 03ff 74       		.byte	0x74
 6281 0400 0C       		.uleb128 0xc
 6282 0401 5E030000 		.4byte	.LASF78
 6283 0405 07       		.byte	0x7
 6284 0406 60       		.byte	0x60
 6285 0407 F1000000 		.4byte	0xf1
 6286 040b 78       		.byte	0x78
 6287 040c 0C       		.uleb128 0xc
 6288 040d B2080000 		.4byte	.LASF79
 6289 0411 07       		.byte	0x7
 6290 0412 61       		.byte	0x61
 6291 0413 F1000000 		.4byte	0xf1
 6292 0417 7C       		.byte	0x7c
 6293 0418 0C       		.uleb128 0xc
 6294 0419 ED080000 		.4byte	.LASF80
ARM GAS  C:\Users\JENNEW~1\AppData\Local\Temp\ccFpxs5T.s 			page 138


 6295 041d 07       		.byte	0x7
 6296 041e 65       		.byte	0x65
 6297 041f F1000000 		.4byte	0xf1
 6298 0423 80       		.byte	0x80
 6299 0424 0C       		.uleb128 0xc
 6300 0425 FE060000 		.4byte	.LASF81
 6301 0429 07       		.byte	0x7
 6302 042a 66       		.byte	0x66
 6303 042b F1000000 		.4byte	0xf1
 6304 042f 84       		.byte	0x84
 6305 0430 0C       		.uleb128 0xc
 6306 0431 D5050000 		.4byte	.LASF82
 6307 0435 07       		.byte	0x7
 6308 0436 67       		.byte	0x67
 6309 0437 F1000000 		.4byte	0xf1
 6310 043b 88       		.byte	0x88
 6311 043c 0C       		.uleb128 0xc
 6312 043d 86090000 		.4byte	.LASF83
 6313 0441 07       		.byte	0x7
 6314 0442 6A       		.byte	0x6a
 6315 0443 B1050000 		.4byte	0x5b1
 6316 0447 8C       		.byte	0x8c
 6317 0448 0C       		.uleb128 0xc
 6318 0449 B1090000 		.4byte	.LASF84
 6319 044d 07       		.byte	0x7
 6320 044e 6E       		.byte	0x6e
 6321 044f B1050000 		.4byte	0x5b1
 6322 0453 8D       		.byte	0x8d
 6323 0454 0C       		.uleb128 0xc
 6324 0455 51030000 		.4byte	.LASF85
 6325 0459 07       		.byte	0x7
 6326 045a 6F       		.byte	0x6f
 6327 045b B1050000 		.4byte	0x5b1
 6328 045f 8E       		.byte	0x8e
 6329 0460 0C       		.uleb128 0xc
 6330 0461 DB020000 		.4byte	.LASF86
 6331 0465 07       		.byte	0x7
 6332 0466 70       		.byte	0x70
 6333 0467 B1050000 		.4byte	0x5b1
 6334 046b 8F       		.byte	0x8f
 6335 046c 0C       		.uleb128 0xc
 6336 046d C9000000 		.4byte	.LASF87
 6337 0471 07       		.byte	0x7
 6338 0472 71       		.byte	0x71
 6339 0473 B1050000 		.4byte	0x5b1
 6340 0477 90       		.byte	0x90
 6341 0478 0C       		.uleb128 0xc
 6342 0479 50010000 		.4byte	.LASF88
 6343 047d 07       		.byte	0x7
 6344 047e 72       		.byte	0x72
 6345 047f F1000000 		.4byte	0xf1
 6346 0483 94       		.byte	0x94
 6347 0484 0C       		.uleb128 0xc
 6348 0485 83040000 		.4byte	.LASF89
 6349 0489 07       		.byte	0x7
 6350 048a 73       		.byte	0x73
 6351 048b A2000000 		.4byte	0xa2
ARM GAS  C:\Users\JENNEW~1\AppData\Local\Temp\ccFpxs5T.s 			page 139


 6352 048f 98       		.byte	0x98
 6353 0490 0C       		.uleb128 0xc
 6354 0491 FE010000 		.4byte	.LASF90
 6355 0495 07       		.byte	0x7
 6356 0496 74       		.byte	0x74
 6357 0497 F1000000 		.4byte	0xf1
 6358 049b 9C       		.byte	0x9c
 6359 049c 0C       		.uleb128 0xc
 6360 049d E90B0000 		.4byte	.LASF91
 6361 04a1 07       		.byte	0x7
 6362 04a2 75       		.byte	0x75
 6363 04a3 A2000000 		.4byte	0xa2
 6364 04a7 A0       		.byte	0xa0
 6365 04a8 0C       		.uleb128 0xc
 6366 04a9 3C090000 		.4byte	.LASF92
 6367 04ad 07       		.byte	0x7
 6368 04ae 76       		.byte	0x76
 6369 04af AD000000 		.4byte	0xad
 6370 04b3 A2       		.byte	0xa2
 6371 04b4 0C       		.uleb128 0xc
 6372 04b5 19040000 		.4byte	.LASF93
 6373 04b9 07       		.byte	0x7
 6374 04ba 77       		.byte	0x77
 6375 04bb AD000000 		.4byte	0xad
 6376 04bf A4       		.byte	0xa4
 6377 04c0 0C       		.uleb128 0xc
 6378 04c1 5C050000 		.4byte	.LASF94
 6379 04c5 07       		.byte	0x7
 6380 04c6 78       		.byte	0x78
 6381 04c7 F1000000 		.4byte	0xf1
 6382 04cb A8       		.byte	0xa8
 6383 04cc 0C       		.uleb128 0xc
 6384 04cd 7D070000 		.4byte	.LASF95
 6385 04d1 07       		.byte	0x7
 6386 04d2 79       		.byte	0x79
 6387 04d3 AD000000 		.4byte	0xad
 6388 04d7 AC       		.byte	0xac
 6389 04d8 0C       		.uleb128 0xc
 6390 04d9 F4090000 		.4byte	.LASF96
 6391 04dd 07       		.byte	0x7
 6392 04de 7A       		.byte	0x7a
 6393 04df AD000000 		.4byte	0xad
 6394 04e3 AE       		.byte	0xae
 6395 04e4 0C       		.uleb128 0xc
 6396 04e5 EF050000 		.4byte	.LASF97
 6397 04e9 07       		.byte	0x7
 6398 04ea 7B       		.byte	0x7b
 6399 04eb AD000000 		.4byte	0xad
 6400 04ef B0       		.byte	0xb0
 6401 04f0 0C       		.uleb128 0xc
 6402 04f1 1C010000 		.4byte	.LASF98
 6403 04f5 07       		.byte	0x7
 6404 04f6 7C       		.byte	0x7c
 6405 04f7 F1000000 		.4byte	0xf1
 6406 04fb B4       		.byte	0xb4
 6407 04fc 0C       		.uleb128 0xc
 6408 04fd DC010000 		.4byte	.LASF99
ARM GAS  C:\Users\JENNEW~1\AppData\Local\Temp\ccFpxs5T.s 			page 140


 6409 0501 07       		.byte	0x7
 6410 0502 7D       		.byte	0x7d
 6411 0503 AD000000 		.4byte	0xad
 6412 0507 B8       		.byte	0xb8
 6413 0508 0C       		.uleb128 0xc
 6414 0509 1C030000 		.4byte	.LASF100
 6415 050d 07       		.byte	0x7
 6416 050e 80       		.byte	0x80
 6417 050f B1050000 		.4byte	0x5b1
 6418 0513 BA       		.byte	0xba
 6419 0514 0C       		.uleb128 0xc
 6420 0515 36080000 		.4byte	.LASF101
 6421 0519 07       		.byte	0x7
 6422 051a 81       		.byte	0x81
 6423 051b F1000000 		.4byte	0xf1
 6424 051f BC       		.byte	0xbc
 6425 0520 0C       		.uleb128 0xc
 6426 0521 3C080000 		.4byte	.LASF102
 6427 0525 07       		.byte	0x7
 6428 0526 82       		.byte	0x82
 6429 0527 F1000000 		.4byte	0xf1
 6430 052b C0       		.byte	0xc0
 6431 052c 0C       		.uleb128 0xc
 6432 052d 42080000 		.4byte	.LASF103
 6433 0531 07       		.byte	0x7
 6434 0532 83       		.byte	0x83
 6435 0533 F1000000 		.4byte	0xf1
 6436 0537 C4       		.byte	0xc4
 6437 0538 0C       		.uleb128 0xc
 6438 0539 FA020000 		.4byte	.LASF104
 6439 053d 07       		.byte	0x7
 6440 053e 84       		.byte	0x84
 6441 053f F1000000 		.4byte	0xf1
 6442 0543 C8       		.byte	0xc8
 6443 0544 0C       		.uleb128 0xc
 6444 0545 A40B0000 		.4byte	.LASF105
 6445 0549 07       		.byte	0x7
 6446 054a 85       		.byte	0x85
 6447 054b F1000000 		.4byte	0xf1
 6448 054f CC       		.byte	0xcc
 6449 0550 0C       		.uleb128 0xc
 6450 0551 DB040000 		.4byte	.LASF106
 6451 0555 07       		.byte	0x7
 6452 0556 86       		.byte	0x86
 6453 0557 F1000000 		.4byte	0xf1
 6454 055b D0       		.byte	0xd0
 6455 055c 0C       		.uleb128 0xc
 6456 055d E5040000 		.4byte	.LASF107
 6457 0561 07       		.byte	0x7
 6458 0562 87       		.byte	0x87
 6459 0563 F1000000 		.4byte	0xf1
 6460 0567 D4       		.byte	0xd4
 6461 0568 0C       		.uleb128 0xc
 6462 0569 EF040000 		.4byte	.LASF108
 6463 056d 07       		.byte	0x7
 6464 056e 88       		.byte	0x88
 6465 056f F1000000 		.4byte	0xf1
ARM GAS  C:\Users\JENNEW~1\AppData\Local\Temp\ccFpxs5T.s 			page 141


 6466 0573 D8       		.byte	0xd8
 6467 0574 0C       		.uleb128 0xc
 6468 0575 E90A0000 		.4byte	.LASF109
 6469 0579 07       		.byte	0x7
 6470 057a 89       		.byte	0x89
 6471 057b F1000000 		.4byte	0xf1
 6472 057f DC       		.byte	0xdc
 6473 0580 0C       		.uleb128 0xc
 6474 0581 37000000 		.4byte	.LASF110
 6475 0585 07       		.byte	0x7
 6476 0586 94       		.byte	0x94
 6477 0587 B1050000 		.4byte	0x5b1
 6478 058b E0       		.byte	0xe0
 6479 058c 0C       		.uleb128 0xc
 6480 058d 1F0C0000 		.4byte	.LASF111
 6481 0591 07       		.byte	0x7
 6482 0592 95       		.byte	0x95
 6483 0593 B1050000 		.4byte	0x5b1
 6484 0597 E1       		.byte	0xe1
 6485 0598 0C       		.uleb128 0xc
 6486 0599 99050000 		.4byte	.LASF112
 6487 059d 07       		.byte	0x7
 6488 059e 96       		.byte	0x96
 6489 059f F1000000 		.4byte	0xf1
 6490 05a3 E4       		.byte	0xe4
 6491 05a4 0C       		.uleb128 0xc
 6492 05a5 20050000 		.4byte	.LASF113
 6493 05a9 07       		.byte	0x7
 6494 05aa 97       		.byte	0x97
 6495 05ab AD000000 		.4byte	0xad
 6496 05af E8       		.byte	0xe8
 6497 05b0 00       		.byte	0
 6498 05b1 02       		.uleb128 0x2
 6499 05b2 01       		.byte	0x1
 6500 05b3 02       		.byte	0x2
 6501 05b4 A1020000 		.4byte	.LASF114
 6502 05b8 03       		.uleb128 0x3
 6503 05b9 86050000 		.4byte	.LASF115
 6504 05bd 07       		.byte	0x7
 6505 05be 99       		.byte	0x99
 6506 05bf 48020000 		.4byte	0x248
 6507 05c3 12       		.uleb128 0x12
 6508 05c4 0601     		.2byte	0x106
 6509 05c6 08       		.byte	0x8
 6510 05c7 22       		.byte	0x22
 6511 05c8 00060000 		.4byte	0x600
 6512 05cc 0B       		.uleb128 0xb
 6513 05cd 62756600 		.ascii	"buf\000"
 6514 05d1 08       		.byte	0x8
 6515 05d2 23       		.byte	0x23
 6516 05d3 10060000 		.4byte	0x610
 6517 05d7 00       		.byte	0
 6518 05d8 13       		.uleb128 0x13
 6519 05d9 0D020000 		.4byte	.LASF116
 6520 05dd 08       		.byte	0x8
 6521 05de 24       		.byte	0x24
 6522 05df 42010000 		.4byte	0x142
ARM GAS  C:\Users\JENNEW~1\AppData\Local\Temp\ccFpxs5T.s 			page 142


 6523 05e3 0001     		.2byte	0x100
 6524 05e5 13       		.uleb128 0x13
 6525 05e6 54000000 		.4byte	.LASF117
 6526 05ea 08       		.byte	0x8
 6527 05eb 25       		.byte	0x25
 6528 05ec 42010000 		.4byte	0x142
 6529 05f0 0201     		.2byte	0x102
 6530 05f2 13       		.uleb128 0x13
 6531 05f3 120A0000 		.4byte	.LASF118
 6532 05f7 08       		.byte	0x8
 6533 05f8 26       		.byte	0x26
 6534 05f9 42010000 		.4byte	0x142
 6535 05fd 0401     		.2byte	0x104
 6536 05ff 00       		.byte	0
 6537 0600 14       		.uleb128 0x14
 6538 0601 3D010000 		.4byte	0x13d
 6539 0605 10060000 		.4byte	0x610
 6540 0609 15       		.uleb128 0x15
 6541 060a 1E010000 		.4byte	0x11e
 6542 060e FF       		.byte	0xff
 6543 060f 00       		.byte	0
 6544 0610 06       		.uleb128 0x6
 6545 0611 00060000 		.4byte	0x600
 6546 0615 03       		.uleb128 0x3
 6547 0616 54020000 		.4byte	.LASF119
 6548 061a 08       		.byte	0x8
 6549 061b 27       		.byte	0x27
 6550 061c C3050000 		.4byte	0x5c3
 6551 0620 0A       		.uleb128 0xa
 6552 0621 18       		.byte	0x18
 6553 0622 09       		.byte	0x9
 6554 0623 2F       		.byte	0x2f
 6555 0624 7D060000 		.4byte	0x67d
 6556 0628 0C       		.uleb128 0xc
 6557 0629 420B0000 		.4byte	.LASF120
 6558 062d 09       		.byte	0x9
 6559 062e 30       		.byte	0x30
 6560 062f CE000000 		.4byte	0xce
 6561 0633 00       		.byte	0
 6562 0634 0C       		.uleb128 0xc
 6563 0635 68010000 		.4byte	.LASF121
 6564 0639 09       		.byte	0x9
 6565 063a 31       		.byte	0x31
 6566 063b CE000000 		.4byte	0xce
 6567 063f 04       		.byte	0x4
 6568 0640 0C       		.uleb128 0xc
 6569 0641 88020000 		.4byte	.LASF122
 6570 0645 09       		.byte	0x9
 6571 0646 32       		.byte	0x32
 6572 0647 CE000000 		.4byte	0xce
 6573 064b 08       		.byte	0x8
 6574 064c 0C       		.uleb128 0xc
 6575 064d 9B070000 		.4byte	.LASF123
 6576 0651 09       		.byte	0x9
 6577 0652 33       		.byte	0x33
 6578 0653 CE000000 		.4byte	0xce
 6579 0657 0C       		.byte	0xc
ARM GAS  C:\Users\JENNEW~1\AppData\Local\Temp\ccFpxs5T.s 			page 143


 6580 0658 0C       		.uleb128 0xc
 6581 0659 28040000 		.4byte	.LASF124
 6582 065d 09       		.byte	0x9
 6583 065e 34       		.byte	0x34
 6584 065f CE000000 		.4byte	0xce
 6585 0663 10       		.byte	0x10
 6586 0664 0C       		.uleb128 0xc
 6587 0665 71010000 		.4byte	.LASF125
 6588 0669 09       		.byte	0x9
 6589 066a 35       		.byte	0x35
 6590 066b B8000000 		.4byte	0xb8
 6591 066f 14       		.byte	0x14
 6592 0670 0C       		.uleb128 0xc
 6593 0671 5E040000 		.4byte	.LASF126
 6594 0675 09       		.byte	0x9
 6595 0676 36       		.byte	0x36
 6596 0677 A2000000 		.4byte	0xa2
 6597 067b 16       		.byte	0x16
 6598 067c 00       		.byte	0
 6599 067d 03       		.uleb128 0x3
 6600 067e 6F030000 		.4byte	.LASF127
 6601 0682 09       		.byte	0x9
 6602 0683 37       		.byte	0x37
 6603 0684 20060000 		.4byte	0x620
 6604 0688 12       		.uleb128 0x12
 6605 0689 8003     		.2byte	0x380
 6606 068b 09       		.byte	0x9
 6607 068c 3E       		.byte	0x3e
 6608 068d 45070000 		.4byte	0x745
 6609 0691 0B       		.uleb128 0xb
 6610 0692 68616C00 		.ascii	"hal\000"
 6611 0696 09       		.byte	0x9
 6612 0697 3F       		.byte	0x3f
 6613 0698 9F010000 		.4byte	0x19f
 6614 069c 00       		.byte	0
 6615 069d 0B       		.uleb128 0xb
 6616 069e 63746C00 		.ascii	"ctl\000"
 6617 06a2 09       		.byte	0x9
 6618 06a3 40       		.byte	0x40
 6619 06a4 3D020000 		.4byte	0x23d
 6620 06a8 0C       		.byte	0xc
 6621 06a9 0C       		.uleb128 0xc
 6622 06aa A8080000 		.4byte	.LASF128
 6623 06ae 09       		.byte	0x9
 6624 06af 41       		.byte	0x41
 6625 06b0 B8050000 		.4byte	0x5b8
 6626 06b4 20       		.byte	0x20
 6627 06b5 13       		.uleb128 0x13
 6628 06b6 060B0000 		.4byte	.LASF129
 6629 06ba 09       		.byte	0x9
 6630 06bb 42       		.byte	0x42
 6631 06bc 7D060000 		.4byte	0x67d
 6632 06c0 0C01     		.2byte	0x10c
 6633 06c2 13       		.uleb128 0x13
 6634 06c3 AD060000 		.4byte	.LASF130
 6635 06c7 09       		.byte	0x9
 6636 06c8 43       		.byte	0x43
ARM GAS  C:\Users\JENNEW~1\AppData\Local\Temp\ccFpxs5T.s 			page 144


 6637 06c9 15060000 		.4byte	0x615
 6638 06cd 2401     		.2byte	0x124
 6639 06cf 13       		.uleb128 0x13
 6640 06d0 EF010000 		.4byte	.LASF131
 6641 06d4 09       		.byte	0x9
 6642 06d5 44       		.byte	0x44
 6643 06d6 15060000 		.4byte	0x615
 6644 06da 2A02     		.2byte	0x22a
 6645 06dc 13       		.uleb128 0x13
 6646 06dd AE040000 		.4byte	.LASF132
 6647 06e1 09       		.byte	0x9
 6648 06e2 48       		.byte	0x48
 6649 06e3 A2000000 		.4byte	0xa2
 6650 06e7 3003     		.2byte	0x330
 6651 06e9 13       		.uleb128 0x13
 6652 06ea 560B0000 		.4byte	.LASF133
 6653 06ee 09       		.byte	0x9
 6654 06ef 4C       		.byte	0x4c
 6655 06f0 B8000000 		.4byte	0xb8
 6656 06f4 3203     		.2byte	0x332
 6657 06f6 13       		.uleb128 0x13
 6658 06f7 6D000000 		.4byte	.LASF134
 6659 06fb 09       		.byte	0x9
 6660 06fc 4D       		.byte	0x4d
 6661 06fd CE000000 		.4byte	0xce
 6662 0701 3403     		.2byte	0x334
 6663 0703 13       		.uleb128 0x13
 6664 0704 A5000000 		.4byte	.LASF135
 6665 0708 09       		.byte	0x9
 6666 0709 4E       		.byte	0x4e
 6667 070a B1050000 		.4byte	0x5b1
 6668 070e 3803     		.2byte	0x338
 6669 0710 13       		.uleb128 0x13
 6670 0711 6D040000 		.4byte	.LASF136
 6671 0715 09       		.byte	0x9
 6672 0716 4F       		.byte	0x4f
 6673 0717 B8000000 		.4byte	0xb8
 6674 071b 3A03     		.2byte	0x33a
 6675 071d 13       		.uleb128 0x13
 6676 071e DF090000 		.4byte	.LASF137
 6677 0722 09       		.byte	0x9
 6678 0723 50       		.byte	0x50
 6679 0724 B8000000 		.4byte	0xb8
 6680 0728 3C03     		.2byte	0x33c
 6681 072a 13       		.uleb128 0x13
 6682 072b CC010000 		.4byte	.LASF138
 6683 072f 09       		.byte	0x9
 6684 0730 51       		.byte	0x51
 6685 0731 45070000 		.4byte	0x745
 6686 0735 3E03     		.2byte	0x33e
 6687 0737 13       		.uleb128 0x13
 6688 0738 53070000 		.4byte	.LASF139
 6689 073c 09       		.byte	0x9
 6690 073d 54       		.byte	0x54
 6691 073e A2000000 		.4byte	0xa2
 6692 0742 7E03     		.2byte	0x37e
 6693 0744 00       		.byte	0
ARM GAS  C:\Users\JENNEW~1\AppData\Local\Temp\ccFpxs5T.s 			page 145


 6694 0745 14       		.uleb128 0x14
 6695 0746 A2000000 		.4byte	0xa2
 6696 074a 55070000 		.4byte	0x755
 6697 074e 15       		.uleb128 0x15
 6698 074f 1E010000 		.4byte	0x11e
 6699 0753 3F       		.byte	0x3f
 6700 0754 00       		.byte	0
 6701 0755 03       		.uleb128 0x3
 6702 0756 00000000 		.4byte	.LASF140
 6703 075a 09       		.byte	0x9
 6704 075b 56       		.byte	0x56
 6705 075c 88060000 		.4byte	0x688
 6706 0760 10       		.uleb128 0x10
 6707 0761 01       		.byte	0x1
 6708 0762 37000000 		.4byte	0x37
 6709 0766 0A       		.byte	0xa
 6710 0767 38       		.byte	0x38
 6711 0768 7F070000 		.4byte	0x77f
 6712 076c 11       		.uleb128 0x11
 6713 076d E5050000 		.4byte	.LASF141
 6714 0771 00       		.byte	0
 6715 0772 11       		.uleb128 0x11
 6716 0773 47030000 		.4byte	.LASF142
 6717 0777 01       		.byte	0x1
 6718 0778 11       		.uleb128 0x11
 6719 0779 2B080000 		.4byte	.LASF143
 6720 077d 02       		.byte	0x2
 6721 077e 00       		.byte	0
 6722 077f 03       		.uleb128 0x3
 6723 0780 54080000 		.4byte	.LASF144
 6724 0784 0A       		.byte	0xa
 6725 0785 3C       		.byte	0x3c
 6726 0786 60070000 		.4byte	0x760
 6727 078a 0A       		.uleb128 0xa
 6728 078b 0E       		.byte	0xe
 6729 078c 0A       		.byte	0xa
 6730 078d 40       		.byte	0x40
 6731 078e C3070000 		.4byte	0x7c3
 6732 0792 0C       		.uleb128 0xc
 6733 0793 DA0B0000 		.4byte	.LASF145
 6734 0797 0A       		.byte	0xa
 6735 0798 41       		.byte	0x41
 6736 0799 C3070000 		.4byte	0x7c3
 6737 079d 00       		.byte	0
 6738 079e 0C       		.uleb128 0xc
 6739 079f D1080000 		.4byte	.LASF146
 6740 07a3 0A       		.byte	0xa
 6741 07a4 42       		.byte	0x42
 6742 07a5 C3070000 		.4byte	0x7c3
 6743 07a9 04       		.byte	0x4
 6744 07aa 0C       		.uleb128 0xc
 6745 07ab 26030000 		.4byte	.LASF147
 6746 07af 0A       		.byte	0xa
 6747 07b0 43       		.byte	0x43
 6748 07b1 C3070000 		.4byte	0x7c3
 6749 07b5 08       		.byte	0x8
 6750 07b6 0C       		.uleb128 0xc
ARM GAS  C:\Users\JENNEW~1\AppData\Local\Temp\ccFpxs5T.s 			page 146


 6751 07b7 190B0000 		.4byte	.LASF42
 6752 07bb 0A       		.byte	0xa
 6753 07bc 44       		.byte	0x44
 6754 07bd D9000000 		.4byte	0xd9
 6755 07c1 0C       		.byte	0xc
 6756 07c2 00       		.byte	0
 6757 07c3 14       		.uleb128 0x14
 6758 07c4 E5000000 		.4byte	0xe5
 6759 07c8 D3070000 		.4byte	0x7d3
 6760 07cc 15       		.uleb128 0x15
 6761 07cd 1E010000 		.4byte	0x11e
 6762 07d1 01       		.byte	0x1
 6763 07d2 00       		.byte	0
 6764 07d3 03       		.uleb128 0x3
 6765 07d4 85000000 		.4byte	.LASF148
 6766 07d8 0A       		.byte	0xa
 6767 07d9 45       		.byte	0x45
 6768 07da 8A070000 		.4byte	0x78a
 6769 07de 10       		.uleb128 0x10
 6770 07df 01       		.byte	0x1
 6771 07e0 37000000 		.4byte	0x37
 6772 07e4 0A       		.byte	0xa
 6773 07e5 48       		.byte	0x48
 6774 07e6 03080000 		.4byte	0x803
 6775 07ea 11       		.uleb128 0x11
 6776 07eb 080C0000 		.4byte	.LASF149
 6777 07ef 00       		.byte	0
 6778 07f0 11       		.uleb128 0x11
 6779 07f1 70050000 		.4byte	.LASF150
 6780 07f5 01       		.byte	0x1
 6781 07f6 11       		.uleb128 0x11
 6782 07f7 D6080000 		.4byte	.LASF151
 6783 07fb 02       		.byte	0x2
 6784 07fc 11       		.uleb128 0x11
 6785 07fd C6040000 		.4byte	.LASF152
 6786 0801 03       		.byte	0x3
 6787 0802 00       		.byte	0
 6788 0803 03       		.uleb128 0x3
 6789 0804 940B0000 		.4byte	.LASF153
 6790 0808 0A       		.byte	0xa
 6791 0809 4D       		.byte	0x4d
 6792 080a DE070000 		.4byte	0x7de
 6793 080e 0A       		.uleb128 0xa
 6794 080f 08       		.byte	0x8
 6795 0810 0A       		.byte	0xa
 6796 0811 50       		.byte	0x50
 6797 0812 21080000 		.4byte	0x821
 6798 0816 0B       		.uleb128 0xb
 6799 0817 7500     		.ascii	"u\000"
 6800 0819 0A       		.byte	0xa
 6801 081a 51       		.byte	0x51
 6802 081b 21080000 		.4byte	0x821
 6803 081f 00       		.byte	0
 6804 0820 00       		.byte	0
 6805 0821 14       		.uleb128 0x14
 6806 0822 F1000000 		.4byte	0xf1
 6807 0826 31080000 		.4byte	0x831
ARM GAS  C:\Users\JENNEW~1\AppData\Local\Temp\ccFpxs5T.s 			page 147


 6808 082a 15       		.uleb128 0x15
 6809 082b 1E010000 		.4byte	0x11e
 6810 082f 01       		.byte	0x1
 6811 0830 00       		.byte	0
 6812 0831 03       		.uleb128 0x3
 6813 0832 830C0000 		.4byte	.LASF154
 6814 0836 0A       		.byte	0xa
 6815 0837 52       		.byte	0x52
 6816 0838 0E080000 		.4byte	0x80e
 6817 083c 10       		.uleb128 0x10
 6818 083d 01       		.byte	0x1
 6819 083e 37000000 		.4byte	0x37
 6820 0842 01       		.byte	0x1
 6821 0843 70       		.byte	0x70
 6822 0844 61080000 		.4byte	0x861
 6823 0848 11       		.uleb128 0x11
 6824 0849 9B0A0000 		.4byte	.LASF155
 6825 084d 00       		.byte	0
 6826 084e 11       		.uleb128 0x11
 6827 084f 77020000 		.4byte	.LASF156
 6828 0853 01       		.byte	0x1
 6829 0854 11       		.uleb128 0x11
 6830 0855 43040000 		.4byte	.LASF157
 6831 0859 02       		.byte	0x2
 6832 085a 11       		.uleb128 0x11
 6833 085b 630B0000 		.4byte	.LASF158
 6834 085f 03       		.byte	0x3
 6835 0860 00       		.byte	0
 6836 0861 03       		.uleb128 0x3
 6837 0862 070A0000 		.4byte	.LASF159
 6838 0866 01       		.byte	0x1
 6839 0867 75       		.byte	0x75
 6840 0868 3C080000 		.4byte	0x83c
 6841 086c 16       		.uleb128 0x16
 6842 086d AA070000 		.4byte	.LASF160
 6843 0871 01       		.byte	0x1
 6844 0872 80       		.byte	0x80
 6845 0873 00000000 		.4byte	.LFB64
 6846 0877 1C000000 		.4byte	.LFE64-.LFB64
 6847 087b 01       		.uleb128 0x1
 6848 087c 9C       		.byte	0x9c
 6849 087d 9C080000 		.4byte	0x89c
 6850 0881 17       		.uleb128 0x17
 6851 0882 63747800 		.ascii	"ctx\000"
 6852 0886 01       		.byte	0x1
 6853 0887 80       		.byte	0x80
 6854 0888 25010000 		.4byte	0x125
 6855 088c 02       		.uleb128 0x2
 6856 088d 91       		.byte	0x91
 6857 088e 74       		.sleb128 -12
 6858 088f 17       		.uleb128 0x17
 6859 0890 6200     		.ascii	"b\000"
 6860 0892 01       		.byte	0x1
 6861 0893 80       		.byte	0x80
 6862 0894 A2000000 		.4byte	0xa2
 6863 0898 02       		.uleb128 0x2
 6864 0899 91       		.byte	0x91
ARM GAS  C:\Users\JENNEW~1\AppData\Local\Temp\ccFpxs5T.s 			page 148


 6865 089a 73       		.sleb128 -13
 6866 089b 00       		.byte	0
 6867 089c 18       		.uleb128 0x18
 6868 089d 10070000 		.4byte	.LASF183
 6869 08a1 01       		.byte	0x1
 6870 08a2 86       		.byte	0x86
 6871 08a3 CE000000 		.4byte	0xce
 6872 08a7 00000000 		.4byte	.LFB65
 6873 08ab 1C000000 		.4byte	.LFE65-.LFB65
 6874 08af 01       		.uleb128 0x1
 6875 08b0 9C       		.byte	0x9c
 6876 08b1 C4080000 		.4byte	0x8c4
 6877 08b5 17       		.uleb128 0x17
 6878 08b6 63747800 		.ascii	"ctx\000"
 6879 08ba 01       		.byte	0x1
 6880 08bb 86       		.byte	0x86
 6881 08bc 25010000 		.4byte	0x125
 6882 08c0 02       		.uleb128 0x2
 6883 08c1 91       		.byte	0x91
 6884 08c2 74       		.sleb128 -12
 6885 08c3 00       		.byte	0
 6886 08c4 19       		.uleb128 0x19
 6887 08c5 59000000 		.4byte	.LASF250
 6888 08c9 01       		.byte	0x1
 6889 08ca 95       		.byte	0x95
 6890 08cb 00000000 		.4byte	.LFB66
 6891 08cf 58000000 		.4byte	.LFE66-.LFB66
 6892 08d3 01       		.uleb128 0x1
 6893 08d4 9C       		.byte	0x9c
 6894 08d5 E7080000 		.4byte	0x8e7
 6895 08d9 1A       		.uleb128 0x1a
 6896 08da 737400   		.ascii	"st\000"
 6897 08dd 01       		.byte	0x1
 6898 08de 97       		.byte	0x97
 6899 08df A2000000 		.4byte	0xa2
 6900 08e3 02       		.uleb128 0x2
 6901 08e4 91       		.byte	0x91
 6902 08e5 77       		.sleb128 -9
 6903 08e6 00       		.byte	0
 6904 08e7 1B       		.uleb128 0x1b
 6905 08e8 12020000 		.4byte	.LASF251
 6906 08ec 01       		.byte	0x1
 6907 08ed A4       		.byte	0xa4
 6908 08ee 00000000 		.4byte	.LFB67
 6909 08f2 1C000000 		.4byte	.LFE67-.LFB67
 6910 08f6 01       		.uleb128 0x1
 6911 08f7 9C       		.byte	0x9c
 6912 08f8 16       		.uleb128 0x16
 6913 08f9 78080000 		.4byte	.LASF161
 6914 08fd 01       		.byte	0x1
 6915 08fe AD       		.byte	0xad
 6916 08ff 00000000 		.4byte	.LFB68
 6917 0903 A8000000 		.4byte	.LFE68-.LFB68
 6918 0907 01       		.uleb128 0x1
 6919 0908 9C       		.byte	0x9c
 6920 0909 46090000 		.4byte	0x946
 6921 090d 17       		.uleb128 0x17
ARM GAS  C:\Users\JENNEW~1\AppData\Local\Temp\ccFpxs5T.s 			page 149


 6922 090e 76616C00 		.ascii	"val\000"
 6923 0912 01       		.byte	0x1
 6924 0913 AD       		.byte	0xad
 6925 0914 F1000000 		.4byte	0xf1
 6926 0918 02       		.uleb128 0x2
 6927 0919 91       		.byte	0x91
 6928 091a 74       		.sleb128 -12
 6929 091b 1C       		.uleb128 0x1c
 6930 091c C5070000 		.4byte	.LASF162
 6931 0920 01       		.byte	0x1
 6932 0921 AD       		.byte	0xad
 6933 0922 46090000 		.4byte	0x946
 6934 0926 02       		.uleb128 0x2
 6935 0927 91       		.byte	0x91
 6936 0928 70       		.sleb128 -16
 6937 0929 1C       		.uleb128 0x1c
 6938 092a 4E000000 		.4byte	.LASF163
 6939 092e 01       		.byte	0x1
 6940 092f AD       		.byte	0xad
 6941 0930 46090000 		.4byte	0x946
 6942 0934 02       		.uleb128 0x2
 6943 0935 91       		.byte	0x91
 6944 0936 6C       		.sleb128 -20
 6945 0937 1C       		.uleb128 0x1c
 6946 0938 C4000000 		.4byte	.LASF164
 6947 093c 01       		.byte	0x1
 6948 093d AD       		.byte	0xad
 6949 093e 27010000 		.4byte	0x127
 6950 0942 02       		.uleb128 0x2
 6951 0943 91       		.byte	0x91
 6952 0944 68       		.sleb128 -24
 6953 0945 00       		.byte	0
 6954 0946 08       		.uleb128 0x8
 6955 0947 04       		.byte	0x4
 6956 0948 AD000000 		.4byte	0xad
 6957 094c 16       		.uleb128 0x16
 6958 094d 93020000 		.4byte	.LASF165
 6959 0951 01       		.byte	0x1
 6960 0952 B6       		.byte	0xb6
 6961 0953 00000000 		.4byte	.LFB69
 6962 0957 BC010000 		.4byte	.LFE69-.LFB69
 6963 095b 01       		.uleb128 0x1
 6964 095c 9C       		.byte	0x9c
 6965 095d 920A0000 		.4byte	0xa92
 6966 0961 17       		.uleb128 0x17
 6967 0962 737400   		.ascii	"st\000"
 6968 0965 01       		.byte	0x1
 6969 0966 B6       		.byte	0xb6
 6970 0967 920A0000 		.4byte	0xa92
 6971 096b 03       		.uleb128 0x3
 6972 096c 91       		.byte	0x91
 6973 096d BC7F     		.sleb128 -68
 6974 096f 1C       		.uleb128 0x1c
 6975 0970 CB070000 		.4byte	.LASF166
 6976 0974 01       		.byte	0x1
 6977 0975 B7       		.byte	0xb7
 6978 0976 27010000 		.4byte	0x127
ARM GAS  C:\Users\JENNEW~1\AppData\Local\Temp\ccFpxs5T.s 			page 150


 6979 097a 03       		.uleb128 0x3
 6980 097b 91       		.byte	0x91
 6981 097c B87F     		.sleb128 -72
 6982 097e 1C       		.uleb128 0x1c
 6983 097f BF070000 		.4byte	.LASF167
 6984 0983 01       		.byte	0x1
 6985 0984 B7       		.byte	0xb7
 6986 0985 46090000 		.4byte	0x946
 6987 0989 03       		.uleb128 0x3
 6988 098a 91       		.byte	0x91
 6989 098b B47F     		.sleb128 -76
 6990 098d 1C       		.uleb128 0x1c
 6991 098e B9070000 		.4byte	.LASF168
 6992 0992 01       		.byte	0x1
 6993 0993 B7       		.byte	0xb7
 6994 0994 46090000 		.4byte	0x946
 6995 0998 03       		.uleb128 0x3
 6996 0999 91       		.byte	0x91
 6997 099a B07F     		.sleb128 -80
 6998 099c 1C       		.uleb128 0x1c
 6999 099d F5070000 		.4byte	.LASF169
 7000 09a1 01       		.byte	0x1
 7001 09a2 B8       		.byte	0xb8
 7002 09a3 27010000 		.4byte	0x127
 7003 09a7 02       		.uleb128 0x2
 7004 09a8 91       		.byte	0x91
 7005 09a9 00       		.sleb128 0
 7006 09aa 1C       		.uleb128 0x1c
 7007 09ab EE070000 		.4byte	.LASF170
 7008 09af 01       		.byte	0x1
 7009 09b0 B8       		.byte	0xb8
 7010 09b1 46090000 		.4byte	0x946
 7011 09b5 02       		.uleb128 0x2
 7012 09b6 91       		.byte	0x91
 7013 09b7 04       		.sleb128 4
 7014 09b8 1C       		.uleb128 0x1c
 7015 09b9 E7070000 		.4byte	.LASF171
 7016 09bd 01       		.byte	0x1
 7017 09be B8       		.byte	0xb8
 7018 09bf 46090000 		.4byte	0x946
 7019 09c3 02       		.uleb128 0x2
 7020 09c4 91       		.byte	0x91
 7021 09c5 08       		.sleb128 8
 7022 09c6 1C       		.uleb128 0x1c
 7023 09c7 600A0000 		.4byte	.LASF172
 7024 09cb 01       		.byte	0x1
 7025 09cc B9       		.byte	0xb9
 7026 09cd 27010000 		.4byte	0x127
 7027 09d1 02       		.uleb128 0x2
 7028 09d2 91       		.byte	0x91
 7029 09d3 0C       		.sleb128 12
 7030 09d4 1C       		.uleb128 0x1c
 7031 09d5 590A0000 		.4byte	.LASF173
 7032 09d9 01       		.byte	0x1
 7033 09da B9       		.byte	0xb9
 7034 09db 46090000 		.4byte	0x946
 7035 09df 02       		.uleb128 0x2
ARM GAS  C:\Users\JENNEW~1\AppData\Local\Temp\ccFpxs5T.s 			page 151


 7036 09e0 91       		.byte	0x91
 7037 09e1 10       		.sleb128 16
 7038 09e2 1C       		.uleb128 0x1c
 7039 09e3 520A0000 		.4byte	.LASF174
 7040 09e7 01       		.byte	0x1
 7041 09e8 B9       		.byte	0xb9
 7042 09e9 46090000 		.4byte	0x946
 7043 09ed 02       		.uleb128 0x2
 7044 09ee 91       		.byte	0x91
 7045 09ef 14       		.sleb128 20
 7046 09f0 1A       		.uleb128 0x1a
 7047 09f1 7200     		.ascii	"r\000"
 7048 09f3 01       		.byte	0x1
 7049 09f4 BB       		.byte	0xbb
 7050 09f5 F1000000 		.4byte	0xf1
 7051 09f9 02       		.uleb128 0x2
 7052 09fa 91       		.byte	0x91
 7053 09fb 6C       		.sleb128 -20
 7054 09fc 1A       		.uleb128 0x1a
 7055 09fd 696900   		.ascii	"ii\000"
 7056 0a00 01       		.byte	0x1
 7057 0a01 BB       		.byte	0xbb
 7058 0a02 F1000000 		.4byte	0xf1
 7059 0a06 02       		.uleb128 0x2
 7060 0a07 91       		.byte	0x91
 7061 0a08 68       		.sleb128 -24
 7062 0a09 1A       		.uleb128 0x1a
 7063 0a0a 6A00     		.ascii	"j\000"
 7064 0a0c 01       		.byte	0x1
 7065 0a0d BC       		.byte	0xbc
 7066 0a0e F1000000 		.4byte	0xf1
 7067 0a12 02       		.uleb128 0x2
 7068 0a13 91       		.byte	0x91
 7069 0a14 64       		.sleb128 -28
 7070 0a15 1A       		.uleb128 0x1a
 7071 0a16 6B00     		.ascii	"k\000"
 7072 0a18 01       		.byte	0x1
 7073 0a19 BC       		.byte	0xbc
 7074 0a1a F1000000 		.4byte	0xf1
 7075 0a1e 02       		.uleb128 0x2
 7076 0a1f 91       		.byte	0x91
 7077 0a20 60       		.sleb128 -32
 7078 0a21 1D       		.uleb128 0x1d
 7079 0a22 0D030000 		.4byte	.LASF175
 7080 0a26 01       		.byte	0x1
 7081 0a27 BD       		.byte	0xbd
 7082 0a28 F1000000 		.4byte	0xf1
 7083 0a2c 02       		.uleb128 0x2
 7084 0a2d 91       		.byte	0x91
 7085 0a2e 5C       		.sleb128 -36
 7086 0a2f 1D       		.uleb128 0x1d
 7087 0a30 B8020000 		.4byte	.LASF176
 7088 0a34 01       		.byte	0x1
 7089 0a35 BD       		.byte	0xbd
 7090 0a36 F1000000 		.4byte	0xf1
 7091 0a3a 02       		.uleb128 0x2
 7092 0a3b 91       		.byte	0x91
ARM GAS  C:\Users\JENNEW~1\AppData\Local\Temp\ccFpxs5T.s 			page 152


 7093 0a3c 58       		.sleb128 -40
 7094 0a3d 1D       		.uleb128 0x1d
 7095 0a3e 16060000 		.4byte	.LASF177
 7096 0a42 01       		.byte	0x1
 7097 0a43 BE       		.byte	0xbe
 7098 0a44 F1000000 		.4byte	0xf1
 7099 0a48 02       		.uleb128 0x2
 7100 0a49 91       		.byte	0x91
 7101 0a4a 54       		.sleb128 -44
 7102 0a4b 1D       		.uleb128 0x1d
 7103 0a4c 08030000 		.4byte	.LASF178
 7104 0a50 01       		.byte	0x1
 7105 0a51 BF       		.byte	0xbf
 7106 0a52 F1000000 		.4byte	0xf1
 7107 0a56 02       		.uleb128 0x2
 7108 0a57 91       		.byte	0x91
 7109 0a58 50       		.sleb128 -48
 7110 0a59 1D       		.uleb128 0x1d
 7111 0a5a 46020000 		.4byte	.LASF179
 7112 0a5e 01       		.byte	0x1
 7113 0a5f C0       		.byte	0xc0
 7114 0a60 F1000000 		.4byte	0xf1
 7115 0a64 02       		.uleb128 0x2
 7116 0a65 91       		.byte	0x91
 7117 0a66 4C       		.sleb128 -52
 7118 0a67 1D       		.uleb128 0x1d
 7119 0a68 17030000 		.4byte	.LASF180
 7120 0a6c 01       		.byte	0x1
 7121 0a6d C3       		.byte	0xc3
 7122 0a6e F1000000 		.4byte	0xf1
 7123 0a72 02       		.uleb128 0x2
 7124 0a73 91       		.byte	0x91
 7125 0a74 48       		.sleb128 -56
 7126 0a75 1D       		.uleb128 0x1d
 7127 0a76 EA020000 		.4byte	.LASF181
 7128 0a7a 01       		.byte	0x1
 7129 0a7b C3       		.byte	0xc3
 7130 0a7c F1000000 		.4byte	0xf1
 7131 0a80 02       		.uleb128 0x2
 7132 0a81 91       		.byte	0x91
 7133 0a82 44       		.sleb128 -60
 7134 0a83 1D       		.uleb128 0x1d
 7135 0a84 35070000 		.4byte	.LASF182
 7136 0a88 01       		.byte	0x1
 7137 0a89 C4       		.byte	0xc4
 7138 0a8a F1000000 		.4byte	0xf1
 7139 0a8e 02       		.uleb128 0x2
 7140 0a8f 91       		.byte	0x91
 7141 0a90 40       		.sleb128 -64
 7142 0a91 00       		.byte	0
 7143 0a92 08       		.uleb128 0x8
 7144 0a93 04       		.byte	0x4
 7145 0a94 980A0000 		.4byte	0xa98
 7146 0a98 09       		.uleb128 0x9
 7147 0a99 B8050000 		.4byte	0x5b8
 7148 0a9d 1E       		.uleb128 0x1e
 7149 0a9e B40A0000 		.4byte	.LASF184
ARM GAS  C:\Users\JENNEW~1\AppData\Local\Temp\ccFpxs5T.s 			page 153


 7150 0aa2 01       		.byte	0x1
 7151 0aa3 CB       		.byte	0xcb
 7152 0aa4 A2000000 		.4byte	0xa2
 7153 0aa8 00000000 		.4byte	.LFB70
 7154 0aac 88010000 		.4byte	.LFE70-.LFB70
 7155 0ab0 01       		.uleb128 0x1
 7156 0ab1 9C       		.byte	0x9c
 7157 0ab2 3E0B0000 		.4byte	0xb3e
 7158 0ab6 1C       		.uleb128 0x1c
 7159 0ab7 8D0C0000 		.4byte	.LASF185
 7160 0abb 01       		.byte	0x1
 7161 0abc CB       		.byte	0xcb
 7162 0abd 3E0B0000 		.4byte	0xb3e
 7163 0ac1 03       		.uleb128 0x3
 7164 0ac2 91       		.byte	0x91
 7165 0ac3 E47D     		.sleb128 -284
 7166 0ac5 1C       		.uleb128 0x1c
 7167 0ac6 B3060000 		.4byte	.LASF186
 7168 0aca 01       		.byte	0x1
 7169 0acb CB       		.byte	0xcb
 7170 0acc 3E0B0000 		.4byte	0xb3e
 7171 0ad0 03       		.uleb128 0x3
 7172 0ad1 91       		.byte	0x91
 7173 0ad2 E07D     		.sleb128 -288
 7174 0ad4 1A       		.uleb128 0x1a
 7175 0ad5 737400   		.ascii	"st\000"
 7176 0ad8 01       		.byte	0x1
 7177 0ad9 CD       		.byte	0xcd
 7178 0ada B8050000 		.4byte	0x5b8
 7179 0ade 03       		.uleb128 0x3
 7180 0adf 91       		.byte	0x91
 7181 0ae0 E87D     		.sleb128 -280
 7182 0ae2 1A       		.uleb128 0x1a
 7183 0ae3 7200     		.ascii	"r\000"
 7184 0ae5 01       		.byte	0x1
 7185 0ae6 D0       		.byte	0xd0
 7186 0ae7 F1000000 		.4byte	0xf1
 7187 0aeb 02       		.uleb128 0x2
 7188 0aec 91       		.byte	0x91
 7189 0aed 6C       		.sleb128 -20
 7190 0aee 1A       		.uleb128 0x1a
 7191 0aef 696900   		.ascii	"ii\000"
 7192 0af2 01       		.byte	0x1
 7193 0af3 D0       		.byte	0xd0
 7194 0af4 F1000000 		.4byte	0xf1
 7195 0af8 02       		.uleb128 0x2
 7196 0af9 91       		.byte	0x91
 7197 0afa 68       		.sleb128 -24
 7198 0afb 1A       		.uleb128 0x1a
 7199 0afc 6A00     		.ascii	"j\000"
 7200 0afe 01       		.byte	0x1
 7201 0aff D1       		.byte	0xd1
 7202 0b00 F1000000 		.4byte	0xf1
 7203 0b04 02       		.uleb128 0x2
 7204 0b05 91       		.byte	0x91
 7205 0b06 64       		.sleb128 -28
 7206 0b07 1A       		.uleb128 0x1a
ARM GAS  C:\Users\JENNEW~1\AppData\Local\Temp\ccFpxs5T.s 			page 154


 7207 0b08 6B00     		.ascii	"k\000"
 7208 0b0a 01       		.byte	0x1
 7209 0b0b D1       		.byte	0xd1
 7210 0b0c F1000000 		.4byte	0xf1
 7211 0b10 02       		.uleb128 0x2
 7212 0b11 91       		.byte	0x91
 7213 0b12 60       		.sleb128 -32
 7214 0b13 1D       		.uleb128 0x1d
 7215 0b14 08030000 		.4byte	.LASF178
 7216 0b18 01       		.byte	0x1
 7217 0b19 D2       		.byte	0xd2
 7218 0b1a F1000000 		.4byte	0xf1
 7219 0b1e 02       		.uleb128 0x2
 7220 0b1f 91       		.byte	0x91
 7221 0b20 5C       		.sleb128 -36
 7222 0b21 1D       		.uleb128 0x1d
 7223 0b22 17030000 		.4byte	.LASF180
 7224 0b26 01       		.byte	0x1
 7225 0b27 D6       		.byte	0xd6
 7226 0b28 F1000000 		.4byte	0xf1
 7227 0b2c 02       		.uleb128 0x2
 7228 0b2d 91       		.byte	0x91
 7229 0b2e 58       		.sleb128 -40
 7230 0b2f 1D       		.uleb128 0x1d
 7231 0b30 EA020000 		.4byte	.LASF181
 7232 0b34 01       		.byte	0x1
 7233 0b35 D6       		.byte	0xd6
 7234 0b36 F1000000 		.4byte	0xf1
 7235 0b3a 02       		.uleb128 0x2
 7236 0b3b 91       		.byte	0x91
 7237 0b3c 54       		.sleb128 -44
 7238 0b3d 00       		.byte	0
 7239 0b3e 08       		.uleb128 0x8
 7240 0b3f 04       		.byte	0x4
 7241 0b40 F1000000 		.4byte	0xf1
 7242 0b44 18       		.uleb128 0x18
 7243 0b45 10000000 		.4byte	.LASF187
 7244 0b49 01       		.byte	0x1
 7245 0b4a DB       		.byte	0xdb
 7246 0b4b 2D010000 		.4byte	0x12d
 7247 0b4f 00000000 		.4byte	.LFB71
 7248 0b53 38000000 		.4byte	.LFE71-.LFB71
 7249 0b57 01       		.uleb128 0x1
 7250 0b58 9C       		.byte	0x9c
 7251 0b59 6A0B0000 		.4byte	0xb6a
 7252 0b5d 17       		.uleb128 0x17
 7253 0b5e 6D00     		.ascii	"m\000"
 7254 0b60 01       		.byte	0x1
 7255 0b61 DB       		.byte	0xdb
 7256 0b62 C9010000 		.4byte	0x1c9
 7257 0b66 02       		.uleb128 0x2
 7258 0b67 91       		.byte	0x91
 7259 0b68 77       		.sleb128 -9
 7260 0b69 00       		.byte	0
 7261 0b6a 16       		.uleb128 0x16
 7262 0b6b C60B0000 		.4byte	.LASF188
 7263 0b6f 01       		.byte	0x1
ARM GAS  C:\Users\JENNEW~1\AppData\Local\Temp\ccFpxs5T.s 			page 155


 7264 0b70 E4       		.byte	0xe4
 7265 0b71 00000000 		.4byte	.LFB72
 7266 0b75 E0000000 		.4byte	.LFE72-.LFB72
 7267 0b79 01       		.uleb128 0x1
 7268 0b7a 9C       		.byte	0x9c
 7269 0b7b DE0B0000 		.4byte	0xbde
 7270 0b7f 17       		.uleb128 0x17
 7271 0b80 7000     		.ascii	"p\000"
 7272 0b82 01       		.byte	0x1
 7273 0b83 E4       		.byte	0xe4
 7274 0b84 DE0B0000 		.4byte	0xbde
 7275 0b88 03       		.uleb128 0x3
 7276 0b89 91       		.byte	0x91
 7277 0b8a CC7E     		.sleb128 -180
 7278 0b8c 1C       		.uleb128 0x1c
 7279 0b8d 260A0000 		.4byte	.LASF189
 7280 0b91 01       		.byte	0x1
 7281 0b92 E4       		.byte	0xe4
 7282 0b93 A2000000 		.4byte	0xa2
 7283 0b97 03       		.uleb128 0x3
 7284 0b98 91       		.byte	0x91
 7285 0b99 CB7E     		.sleb128 -181
 7286 0b9b 1A       		.uleb128 0x1a
 7287 0b9c 62756600 		.ascii	"buf\000"
 7288 0ba0 01       		.byte	0x1
 7289 0ba1 E6       		.byte	0xe6
 7290 0ba2 E90B0000 		.4byte	0xbe9
 7291 0ba6 03       		.uleb128 0x3
 7292 0ba7 91       		.byte	0x91
 7293 0ba8 D07E     		.sleb128 -176
 7294 0baa 1A       		.uleb128 0x1a
 7295 0bab 726F7700 		.ascii	"row\000"
 7296 0baf 01       		.byte	0x1
 7297 0bb0 E7       		.byte	0xe7
 7298 0bb1 A2000000 		.4byte	0xa2
 7299 0bb5 02       		.uleb128 0x2
 7300 0bb6 91       		.byte	0x91
 7301 0bb7 77       		.sleb128 -9
 7302 0bb8 1A       		.uleb128 0x1a
 7303 0bb9 636F6C00 		.ascii	"col\000"
 7304 0bbd 01       		.byte	0x1
 7305 0bbe E7       		.byte	0xe7
 7306 0bbf A2000000 		.4byte	0xa2
 7307 0bc3 02       		.uleb128 0x2
 7308 0bc4 91       		.byte	0x91
 7309 0bc5 76       		.sleb128 -10
 7310 0bc6 1F       		.uleb128 0x1f
 7311 0bc7 14000000 		.4byte	.LBB2
 7312 0bcb A2000000 		.4byte	.LBE2-.LBB2
 7313 0bcf 1A       		.uleb128 0x1a
 7314 0bd0 627000   		.ascii	"bp\000"
 7315 0bd3 01       		.byte	0x1
 7316 0bd4 E9       		.byte	0xe9
 7317 0bd5 27010000 		.4byte	0x127
 7318 0bd9 02       		.uleb128 0x2
 7319 0bda 91       		.byte	0x91
 7320 0bdb 70       		.sleb128 -16
ARM GAS  C:\Users\JENNEW~1\AppData\Local\Temp\ccFpxs5T.s 			page 156


 7321 0bdc 00       		.byte	0
 7322 0bdd 00       		.byte	0
 7323 0bde 08       		.uleb128 0x8
 7324 0bdf 04       		.byte	0x4
 7325 0be0 E40B0000 		.4byte	0xbe4
 7326 0be4 09       		.uleb128 0x9
 7327 0be5 A2000000 		.4byte	0xa2
 7328 0be9 14       		.uleb128 0x14
 7329 0bea FF000000 		.4byte	0xff
 7330 0bee F90B0000 		.4byte	0xbf9
 7331 0bf2 15       		.uleb128 0x15
 7332 0bf3 1E010000 		.4byte	0x11e
 7333 0bf7 9F       		.byte	0x9f
 7334 0bf8 00       		.byte	0
 7335 0bf9 20       		.uleb128 0x20
 7336 0bfa C20A0000 		.4byte	.LASF190
 7337 0bfe 01       		.byte	0x1
 7338 0bff 0401     		.2byte	0x104
 7339 0c01 00000000 		.4byte	.LFB73
 7340 0c05 B8010000 		.4byte	.LFE73-.LFB73
 7341 0c09 01       		.uleb128 0x1
 7342 0c0a 9C       		.byte	0x9c
 7343 0c0b F60C0000 		.4byte	0xcf6
 7344 0c0f 21       		.uleb128 0x21
 7345 0c10 7000     		.ascii	"p\000"
 7346 0c12 01       		.byte	0x1
 7347 0c13 0401     		.2byte	0x104
 7348 0c15 DE0B0000 		.4byte	0xbde
 7349 0c19 03       		.uleb128 0x3
 7350 0c1a 91       		.byte	0x91
 7351 0c1b B47E     		.sleb128 -204
 7352 0c1d 22       		.uleb128 0x22
 7353 0c1e 260A0000 		.4byte	.LASF189
 7354 0c22 01       		.byte	0x1
 7355 0c23 0401     		.2byte	0x104
 7356 0c25 A2000000 		.4byte	0xa2
 7357 0c29 03       		.uleb128 0x3
 7358 0c2a 91       		.byte	0x91
 7359 0c2b B37E     		.sleb128 -205
 7360 0c2d 21       		.uleb128 0x21
 7361 0c2e 647400   		.ascii	"dt\000"
 7362 0c31 01       		.byte	0x1
 7363 0c32 0401     		.2byte	0x104
 7364 0c34 CE000000 		.4byte	0xce
 7365 0c38 03       		.uleb128 0x3
 7366 0c39 91       		.byte	0x91
 7367 0c3a AC7E     		.sleb128 -212
 7368 0c3c 23       		.uleb128 0x23
 7369 0c3d 62756600 		.ascii	"buf\000"
 7370 0c41 01       		.byte	0x1
 7371 0c42 0601     		.2byte	0x106
 7372 0c44 E90B0000 		.4byte	0xbe9
 7373 0c48 03       		.uleb128 0x3
 7374 0c49 91       		.byte	0x91
 7375 0c4a C87E     		.sleb128 -184
 7376 0c4c 23       		.uleb128 0x23
 7377 0c4d 7300     		.ascii	"s\000"
ARM GAS  C:\Users\JENNEW~1\AppData\Local\Temp\ccFpxs5T.s 			page 157


 7378 0c4f 01       		.byte	0x1
 7379 0c50 0C01     		.2byte	0x10c
 7380 0c52 FF000000 		.4byte	0xff
 7381 0c56 03       		.uleb128 0x3
 7382 0c57 91       		.byte	0x91
 7383 0c58 C77E     		.sleb128 -185
 7384 0c5a 23       		.uleb128 0x23
 7385 0c5b 766900   		.ascii	"vi\000"
 7386 0c5e 01       		.byte	0x1
 7387 0c5f 0C01     		.2byte	0x10c
 7388 0c61 AD000000 		.4byte	0xad
 7389 0c65 03       		.uleb128 0x3
 7390 0c66 91       		.byte	0x91
 7391 0c67 C47E     		.sleb128 -188
 7392 0c69 23       		.uleb128 0x23
 7393 0c6a 766600   		.ascii	"vf\000"
 7394 0c6d 01       		.byte	0x1
 7395 0c6e 0C01     		.2byte	0x10c
 7396 0c70 AD000000 		.4byte	0xad
 7397 0c74 03       		.uleb128 0x3
 7398 0c75 91       		.byte	0x91
 7399 0c76 C27E     		.sleb128 -190
 7400 0c78 23       		.uleb128 0x23
 7401 0c79 723100   		.ascii	"r1\000"
 7402 0c7c 01       		.byte	0x1
 7403 0c7d 0D01     		.2byte	0x10d
 7404 0c7f AD000000 		.4byte	0xad
 7405 0c83 02       		.uleb128 0x2
 7406 0c84 91       		.byte	0x91
 7407 0c85 6E       		.sleb128 -18
 7408 0c86 23       		.uleb128 0x23
 7409 0c87 723300   		.ascii	"r3\000"
 7410 0c8a 01       		.byte	0x1
 7411 0c8b 0D01     		.2byte	0x10d
 7412 0c8d AD000000 		.4byte	0xad
 7413 0c91 02       		.uleb128 0x2
 7414 0c92 91       		.byte	0x91
 7415 0c93 6C       		.sleb128 -20
 7416 0c94 23       		.uleb128 0x23
 7417 0c95 723500   		.ascii	"r5\000"
 7418 0c98 01       		.byte	0x1
 7419 0c99 0D01     		.2byte	0x10d
 7420 0c9b AD000000 		.4byte	0xad
 7421 0c9f 02       		.uleb128 0x2
 7422 0ca0 91       		.byte	0x91
 7423 0ca1 6A       		.sleb128 -22
 7424 0ca2 24       		.uleb128 0x24
 7425 0ca3 44000000 		.4byte	.LBB3
 7426 0ca7 14000000 		.4byte	.LBE3-.LBB3
 7427 0cab BF0C0000 		.4byte	0xcbf
 7428 0caf 23       		.uleb128 0x23
 7429 0cb0 5F7600   		.ascii	"_v\000"
 7430 0cb3 01       		.byte	0x1
 7431 0cb4 0D01     		.2byte	0x10d
 7432 0cb6 AD000000 		.4byte	0xad
 7433 0cba 03       		.uleb128 0x3
 7434 0cbb 91       		.byte	0x91
ARM GAS  C:\Users\JENNEW~1\AppData\Local\Temp\ccFpxs5T.s 			page 158


 7435 0cbc C07E     		.sleb128 -192
 7436 0cbe 00       		.byte	0
 7437 0cbf 24       		.uleb128 0x24
 7438 0cc0 66000000 		.4byte	.LBB4
 7439 0cc4 14000000 		.4byte	.LBE4-.LBB4
 7440 0cc8 DC0C0000 		.4byte	0xcdc
 7441 0ccc 23       		.uleb128 0x23
 7442 0ccd 5F7600   		.ascii	"_v\000"
 7443 0cd0 01       		.byte	0x1
 7444 0cd1 0D01     		.2byte	0x10d
 7445 0cd3 AD000000 		.4byte	0xad
 7446 0cd7 03       		.uleb128 0x3
 7447 0cd8 91       		.byte	0x91
 7448 0cd9 BE7E     		.sleb128 -194
 7449 0cdb 00       		.byte	0
 7450 0cdc 1F       		.uleb128 0x1f
 7451 0cdd 88000000 		.4byte	.LBB5
 7452 0ce1 14000000 		.4byte	.LBE5-.LBB5
 7453 0ce5 23       		.uleb128 0x23
 7454 0ce6 5F7600   		.ascii	"_v\000"
 7455 0ce9 01       		.byte	0x1
 7456 0cea 0D01     		.2byte	0x10d
 7457 0cec AD000000 		.4byte	0xad
 7458 0cf0 03       		.uleb128 0x3
 7459 0cf1 91       		.byte	0x91
 7460 0cf2 BC7E     		.sleb128 -196
 7461 0cf4 00       		.byte	0
 7462 0cf5 00       		.byte	0
 7463 0cf6 20       		.uleb128 0x20
 7464 0cf7 8A0B0000 		.4byte	.LASF191
 7465 0cfb 01       		.byte	0x1
 7466 0cfc 1901     		.2byte	0x119
 7467 0cfe 00000000 		.4byte	.LFB74
 7468 0d02 60010000 		.4byte	.LFE74-.LFB74
 7469 0d06 01       		.uleb128 0x1
 7470 0d07 9C       		.byte	0x9c
 7471 0d08 770D0000 		.4byte	0xd77
 7472 0d0c 21       		.uleb128 0x21
 7473 0d0d 7000     		.ascii	"p\000"
 7474 0d0f 01       		.byte	0x1
 7475 0d10 1901     		.2byte	0x119
 7476 0d12 DE0B0000 		.4byte	0xbde
 7477 0d16 03       		.uleb128 0x3
 7478 0d17 91       		.byte	0x91
 7479 0d18 BC7E     		.sleb128 -196
 7480 0d1a 22       		.uleb128 0x22
 7481 0d1b 260A0000 		.4byte	.LASF189
 7482 0d1f 01       		.byte	0x1
 7483 0d20 1901     		.2byte	0x119
 7484 0d22 A2000000 		.4byte	0xa2
 7485 0d26 03       		.uleb128 0x3
 7486 0d27 91       		.byte	0x91
 7487 0d28 BB7E     		.sleb128 -197
 7488 0d2a 21       		.uleb128 0x21
 7489 0d2b 647400   		.ascii	"dt\000"
 7490 0d2e 01       		.byte	0x1
 7491 0d2f 1901     		.2byte	0x119
ARM GAS  C:\Users\JENNEW~1\AppData\Local\Temp\ccFpxs5T.s 			page 159


 7492 0d31 CE000000 		.4byte	0xce
 7493 0d35 03       		.uleb128 0x3
 7494 0d36 91       		.byte	0x91
 7495 0d37 B47E     		.sleb128 -204
 7496 0d39 23       		.uleb128 0x23
 7497 0d3a 62756600 		.ascii	"buf\000"
 7498 0d3e 01       		.byte	0x1
 7499 0d3f 1B01     		.2byte	0x11b
 7500 0d41 E90B0000 		.4byte	0xbe9
 7501 0d45 03       		.uleb128 0x3
 7502 0d46 91       		.byte	0x91
 7503 0d47 C47E     		.sleb128 -188
 7504 0d49 23       		.uleb128 0x23
 7505 0d4a 6C6F6E00 		.ascii	"lon\000"
 7506 0d4e 01       		.byte	0x1
 7507 0d4f 2101     		.2byte	0x121
 7508 0d51 C3000000 		.4byte	0xc3
 7509 0d55 02       		.uleb128 0x2
 7510 0d56 91       		.byte	0x91
 7511 0d57 6C       		.sleb128 -20
 7512 0d58 23       		.uleb128 0x23
 7513 0d59 6C617400 		.ascii	"lat\000"
 7514 0d5d 01       		.byte	0x1
 7515 0d5e 2101     		.2byte	0x121
 7516 0d60 C3000000 		.4byte	0xc3
 7517 0d64 02       		.uleb128 0x2
 7518 0d65 91       		.byte	0x91
 7519 0d66 68       		.sleb128 -24
 7520 0d67 23       		.uleb128 0x23
 7521 0d68 616C7400 		.ascii	"alt\000"
 7522 0d6c 01       		.byte	0x1
 7523 0d6d 2201     		.2byte	0x122
 7524 0d6f C3000000 		.4byte	0xc3
 7525 0d73 02       		.uleb128 0x2
 7526 0d74 91       		.byte	0x91
 7527 0d75 64       		.sleb128 -28
 7528 0d76 00       		.byte	0
 7529 0d77 20       		.uleb128 0x20
 7530 0d78 6F090000 		.4byte	.LASF192
 7531 0d7c 01       		.byte	0x1
 7532 0d7d 2901     		.2byte	0x129
 7533 0d7f 00000000 		.4byte	.LFB75
 7534 0d83 3C010000 		.4byte	.LFE75-.LFB75
 7535 0d87 01       		.uleb128 0x1
 7536 0d88 9C       		.byte	0x9c
 7537 0d89 4B0E0000 		.4byte	0xe4b
 7538 0d8d 21       		.uleb128 0x21
 7539 0d8e 7000     		.ascii	"p\000"
 7540 0d90 01       		.byte	0x1
 7541 0d91 2901     		.2byte	0x129
 7542 0d93 DE0B0000 		.4byte	0xbde
 7543 0d97 03       		.uleb128 0x3
 7544 0d98 91       		.byte	0x91
 7545 0d99 C47E     		.sleb128 -188
 7546 0d9b 22       		.uleb128 0x22
 7547 0d9c 260A0000 		.4byte	.LASF189
 7548 0da0 01       		.byte	0x1
ARM GAS  C:\Users\JENNEW~1\AppData\Local\Temp\ccFpxs5T.s 			page 160


 7549 0da1 2901     		.2byte	0x129
 7550 0da3 A2000000 		.4byte	0xa2
 7551 0da7 03       		.uleb128 0x3
 7552 0da8 91       		.byte	0x91
 7553 0da9 C37E     		.sleb128 -189
 7554 0dab 21       		.uleb128 0x21
 7555 0dac 647400   		.ascii	"dt\000"
 7556 0daf 01       		.byte	0x1
 7557 0db0 2901     		.2byte	0x129
 7558 0db2 CE000000 		.4byte	0xce
 7559 0db6 03       		.uleb128 0x3
 7560 0db7 91       		.byte	0x91
 7561 0db8 BC7E     		.sleb128 -196
 7562 0dba 23       		.uleb128 0x23
 7563 0dbb 62756600 		.ascii	"buf\000"
 7564 0dbf 01       		.byte	0x1
 7565 0dc0 2B01     		.2byte	0x12b
 7566 0dc2 E90B0000 		.4byte	0xbe9
 7567 0dc6 03       		.uleb128 0x3
 7568 0dc7 91       		.byte	0x91
 7569 0dc8 D47E     		.sleb128 -172
 7570 0dca 23       		.uleb128 0x23
 7571 0dcb 7300     		.ascii	"s\000"
 7572 0dcd 01       		.byte	0x1
 7573 0dce 3101     		.2byte	0x131
 7574 0dd0 FF000000 		.4byte	0xff
 7575 0dd4 03       		.uleb128 0x3
 7576 0dd5 91       		.byte	0x91
 7577 0dd6 D37E     		.sleb128 -173
 7578 0dd8 23       		.uleb128 0x23
 7579 0dd9 766900   		.ascii	"vi\000"
 7580 0ddc 01       		.byte	0x1
 7581 0ddd 3101     		.2byte	0x131
 7582 0ddf AD000000 		.4byte	0xad
 7583 0de3 03       		.uleb128 0x3
 7584 0de4 91       		.byte	0x91
 7585 0de5 D07E     		.sleb128 -176
 7586 0de7 23       		.uleb128 0x23
 7587 0de8 766600   		.ascii	"vf\000"
 7588 0deb 01       		.byte	0x1
 7589 0dec 3101     		.2byte	0x131
 7590 0dee AD000000 		.4byte	0xad
 7591 0df2 03       		.uleb128 0x3
 7592 0df3 91       		.byte	0x91
 7593 0df4 CE7E     		.sleb128 -178
 7594 0df6 23       		.uleb128 0x23
 7595 0df7 616C7400 		.ascii	"alt\000"
 7596 0dfb 01       		.byte	0x1
 7597 0dfc 3201     		.2byte	0x132
 7598 0dfe AD000000 		.4byte	0xad
 7599 0e02 02       		.uleb128 0x2
 7600 0e03 91       		.byte	0x91
 7601 0e04 76       		.sleb128 -10
 7602 0e05 23       		.uleb128 0x23
 7603 0e06 726F6300 		.ascii	"roc\000"
 7604 0e0a 01       		.byte	0x1
 7605 0e0b 3201     		.2byte	0x132
ARM GAS  C:\Users\JENNEW~1\AppData\Local\Temp\ccFpxs5T.s 			page 161


 7606 0e0d AD000000 		.4byte	0xad
 7607 0e11 02       		.uleb128 0x2
 7608 0e12 91       		.byte	0x91
 7609 0e13 74       		.sleb128 -12
 7610 0e14 24       		.uleb128 0x24
 7611 0e15 44000000 		.4byte	.LBB6
 7612 0e19 14000000 		.4byte	.LBE6-.LBB6
 7613 0e1d 310E0000 		.4byte	0xe31
 7614 0e21 23       		.uleb128 0x23
 7615 0e22 5F7600   		.ascii	"_v\000"
 7616 0e25 01       		.byte	0x1
 7617 0e26 3201     		.2byte	0x132
 7618 0e28 AD000000 		.4byte	0xad
 7619 0e2c 03       		.uleb128 0x3
 7620 0e2d 91       		.byte	0x91
 7621 0e2e CC7E     		.sleb128 -180
 7622 0e30 00       		.byte	0
 7623 0e31 1F       		.uleb128 0x1f
 7624 0e32 66000000 		.4byte	.LBB7
 7625 0e36 14000000 		.4byte	.LBE7-.LBB7
 7626 0e3a 23       		.uleb128 0x23
 7627 0e3b 5F7600   		.ascii	"_v\000"
 7628 0e3e 01       		.byte	0x1
 7629 0e3f 3201     		.2byte	0x132
 7630 0e41 AD000000 		.4byte	0xad
 7631 0e45 03       		.uleb128 0x3
 7632 0e46 91       		.byte	0x91
 7633 0e47 CA7E     		.sleb128 -182
 7634 0e49 00       		.byte	0
 7635 0e4a 00       		.byte	0
 7636 0e4b 20       		.uleb128 0x20
 7637 0e4c 180A0000 		.4byte	.LASF193
 7638 0e50 01       		.byte	0x1
 7639 0e51 3901     		.2byte	0x139
 7640 0e53 00000000 		.4byte	.LFB76
 7641 0e57 68010000 		.4byte	.LFE76-.LFB76
 7642 0e5b 01       		.uleb128 0x1
 7643 0e5c 9C       		.byte	0x9c
 7644 0e5d F20E0000 		.4byte	0xef2
 7645 0e61 21       		.uleb128 0x21
 7646 0e62 7000     		.ascii	"p\000"
 7647 0e64 01       		.byte	0x1
 7648 0e65 3901     		.2byte	0x139
 7649 0e67 DE0B0000 		.4byte	0xbde
 7650 0e6b 03       		.uleb128 0x3
 7651 0e6c 91       		.byte	0x91
 7652 0e6d B47E     		.sleb128 -204
 7653 0e6f 22       		.uleb128 0x22
 7654 0e70 260A0000 		.4byte	.LASF189
 7655 0e74 01       		.byte	0x1
 7656 0e75 3901     		.2byte	0x139
 7657 0e77 A2000000 		.4byte	0xa2
 7658 0e7b 03       		.uleb128 0x3
 7659 0e7c 91       		.byte	0x91
 7660 0e7d B37E     		.sleb128 -205
 7661 0e7f 21       		.uleb128 0x21
 7662 0e80 647400   		.ascii	"dt\000"
ARM GAS  C:\Users\JENNEW~1\AppData\Local\Temp\ccFpxs5T.s 			page 162


 7663 0e83 01       		.byte	0x1
 7664 0e84 3901     		.2byte	0x139
 7665 0e86 CE000000 		.4byte	0xce
 7666 0e8a 03       		.uleb128 0x3
 7667 0e8b 91       		.byte	0x91
 7668 0e8c AC7E     		.sleb128 -212
 7669 0e8e 23       		.uleb128 0x23
 7670 0e8f 62756600 		.ascii	"buf\000"
 7671 0e93 01       		.byte	0x1
 7672 0e94 3B01     		.2byte	0x13b
 7673 0e96 E90B0000 		.4byte	0xbe9
 7674 0e9a 03       		.uleb128 0x3
 7675 0e9b 91       		.byte	0x91
 7676 0e9c C47E     		.sleb128 -188
 7677 0e9e 23       		.uleb128 0x23
 7678 0e9f 7300     		.ascii	"s\000"
 7679 0ea1 01       		.byte	0x1
 7680 0ea2 4101     		.2byte	0x141
 7681 0ea4 FF000000 		.4byte	0xff
 7682 0ea8 03       		.uleb128 0x3
 7683 0ea9 91       		.byte	0x91
 7684 0eaa C37E     		.sleb128 -189
 7685 0eac 23       		.uleb128 0x23
 7686 0ead 766900   		.ascii	"vi\000"
 7687 0eb0 01       		.byte	0x1
 7688 0eb1 4101     		.2byte	0x141
 7689 0eb3 AD000000 		.4byte	0xad
 7690 0eb7 03       		.uleb128 0x3
 7691 0eb8 91       		.byte	0x91
 7692 0eb9 C07E     		.sleb128 -192
 7693 0ebb 23       		.uleb128 0x23
 7694 0ebc 766600   		.ascii	"vf\000"
 7695 0ebf 01       		.byte	0x1
 7696 0ec0 4101     		.2byte	0x141
 7697 0ec2 AD000000 		.4byte	0xad
 7698 0ec6 03       		.uleb128 0x3
 7699 0ec7 91       		.byte	0x91
 7700 0ec8 BE7E     		.sleb128 -194
 7701 0eca 23       		.uleb128 0x23
 7702 0ecb 627600   		.ascii	"bv\000"
 7703 0ece 01       		.byte	0x1
 7704 0ecf 4201     		.2byte	0x142
 7705 0ed1 AD000000 		.4byte	0xad
 7706 0ed5 02       		.uleb128 0x2
 7707 0ed6 91       		.byte	0x91
 7708 0ed7 66       		.sleb128 -26
 7709 0ed8 1F       		.uleb128 0x1f
 7710 0ed9 D4000000 		.4byte	.LBB8
 7711 0edd 72000000 		.4byte	.LBE8-.LBB8
 7712 0ee1 25       		.uleb128 0x25
 7713 0ee2 670C0000 		.4byte	.LASF194
 7714 0ee6 01       		.byte	0x1
 7715 0ee7 4801     		.2byte	0x148
 7716 0ee9 AD000000 		.4byte	0xad
 7717 0eed 02       		.uleb128 0x2
 7718 0eee 91       		.byte	0x91
 7719 0eef 64       		.sleb128 -28
ARM GAS  C:\Users\JENNEW~1\AppData\Local\Temp\ccFpxs5T.s 			page 163


 7720 0ef0 00       		.byte	0
 7721 0ef1 00       		.byte	0
 7722 0ef2 20       		.uleb128 0x20
 7723 0ef3 6E080000 		.4byte	.LASF195
 7724 0ef7 01       		.byte	0x1
 7725 0ef8 4F01     		.2byte	0x14f
 7726 0efa 00000000 		.4byte	.LFB77
 7727 0efe 5C010000 		.4byte	.LFE77-.LFB77
 7728 0f02 01       		.uleb128 0x1
 7729 0f03 9C       		.byte	0x9c
 7730 0f04 A80F0000 		.4byte	0xfa8
 7731 0f08 21       		.uleb128 0x21
 7732 0f09 7000     		.ascii	"p\000"
 7733 0f0b 01       		.byte	0x1
 7734 0f0c 4F01     		.2byte	0x14f
 7735 0f0e DE0B0000 		.4byte	0xbde
 7736 0f12 03       		.uleb128 0x3
 7737 0f13 91       		.byte	0x91
 7738 0f14 B47E     		.sleb128 -204
 7739 0f16 22       		.uleb128 0x22
 7740 0f17 260A0000 		.4byte	.LASF189
 7741 0f1b 01       		.byte	0x1
 7742 0f1c 4F01     		.2byte	0x14f
 7743 0f1e A2000000 		.4byte	0xa2
 7744 0f22 03       		.uleb128 0x3
 7745 0f23 91       		.byte	0x91
 7746 0f24 B37E     		.sleb128 -205
 7747 0f26 21       		.uleb128 0x21
 7748 0f27 647400   		.ascii	"dt\000"
 7749 0f2a 01       		.byte	0x1
 7750 0f2b 4F01     		.2byte	0x14f
 7751 0f2d CE000000 		.4byte	0xce
 7752 0f31 03       		.uleb128 0x3
 7753 0f32 91       		.byte	0x91
 7754 0f33 AC7E     		.sleb128 -212
 7755 0f35 23       		.uleb128 0x23
 7756 0f36 62756600 		.ascii	"buf\000"
 7757 0f3a 01       		.byte	0x1
 7758 0f3b 5101     		.2byte	0x151
 7759 0f3d E90B0000 		.4byte	0xbe9
 7760 0f41 03       		.uleb128 0x3
 7761 0f42 91       		.byte	0x91
 7762 0f43 C47E     		.sleb128 -188
 7763 0f45 23       		.uleb128 0x23
 7764 0f46 7800     		.ascii	"x\000"
 7765 0f48 01       		.byte	0x1
 7766 0f49 5701     		.2byte	0x157
 7767 0f4b AD000000 		.4byte	0xad
 7768 0f4f 02       		.uleb128 0x2
 7769 0f50 91       		.byte	0x91
 7770 0f51 6A       		.sleb128 -22
 7771 0f52 23       		.uleb128 0x23
 7772 0f53 7900     		.ascii	"y\000"
 7773 0f55 01       		.byte	0x1
 7774 0f56 5701     		.2byte	0x157
 7775 0f58 AD000000 		.4byte	0xad
 7776 0f5c 02       		.uleb128 0x2
ARM GAS  C:\Users\JENNEW~1\AppData\Local\Temp\ccFpxs5T.s 			page 164


 7777 0f5d 91       		.byte	0x91
 7778 0f5e 68       		.sleb128 -24
 7779 0f5f 23       		.uleb128 0x23
 7780 0f60 7A00     		.ascii	"z\000"
 7781 0f62 01       		.byte	0x1
 7782 0f63 5701     		.2byte	0x157
 7783 0f65 AD000000 		.4byte	0xad
 7784 0f69 02       		.uleb128 0x2
 7785 0f6a 91       		.byte	0x91
 7786 0f6b 66       		.sleb128 -26
 7787 0f6c 23       		.uleb128 0x23
 7788 0f6d 68646700 		.ascii	"hdg\000"
 7789 0f71 01       		.byte	0x1
 7790 0f72 5801     		.2byte	0x158
 7791 0f74 F1000000 		.4byte	0xf1
 7792 0f78 02       		.uleb128 0x2
 7793 0f79 91       		.byte	0x91
 7794 0f7a 6C       		.sleb128 -20
 7795 0f7b 23       		.uleb128 0x23
 7796 0f7c 7300     		.ascii	"s\000"
 7797 0f7e 01       		.byte	0x1
 7798 0f7f 5A01     		.2byte	0x15a
 7799 0f81 FF000000 		.4byte	0xff
 7800 0f85 03       		.uleb128 0x3
 7801 0f86 91       		.byte	0x91
 7802 0f87 C37E     		.sleb128 -189
 7803 0f89 23       		.uleb128 0x23
 7804 0f8a 686900   		.ascii	"hi\000"
 7805 0f8d 01       		.byte	0x1
 7806 0f8e 5A01     		.2byte	0x15a
 7807 0f90 AD000000 		.4byte	0xad
 7808 0f94 03       		.uleb128 0x3
 7809 0f95 91       		.byte	0x91
 7810 0f96 C07E     		.sleb128 -192
 7811 0f98 23       		.uleb128 0x23
 7812 0f99 686600   		.ascii	"hf\000"
 7813 0f9c 01       		.byte	0x1
 7814 0f9d 5A01     		.2byte	0x15a
 7815 0f9f AD000000 		.4byte	0xad
 7816 0fa3 03       		.uleb128 0x3
 7817 0fa4 91       		.byte	0x91
 7818 0fa5 BE7E     		.sleb128 -194
 7819 0fa7 00       		.byte	0
 7820 0fa8 20       		.uleb128 0x20
 7821 0fa9 3D0C0000 		.4byte	.LASF196
 7822 0fad 01       		.byte	0x1
 7823 0fae 6101     		.2byte	0x161
 7824 0fb0 00000000 		.4byte	.LFB78
 7825 0fb4 BC010000 		.4byte	.LFE78-.LFB78
 7826 0fb8 01       		.uleb128 0x1
 7827 0fb9 9C       		.byte	0x9c
 7828 0fba 55100000 		.4byte	0x1055
 7829 0fbe 21       		.uleb128 0x21
 7830 0fbf 7000     		.ascii	"p\000"
 7831 0fc1 01       		.byte	0x1
 7832 0fc2 6101     		.2byte	0x161
 7833 0fc4 DE0B0000 		.4byte	0xbde
ARM GAS  C:\Users\JENNEW~1\AppData\Local\Temp\ccFpxs5T.s 			page 165


 7834 0fc8 03       		.uleb128 0x3
 7835 0fc9 91       		.byte	0x91
 7836 0fca C47E     		.sleb128 -188
 7837 0fcc 22       		.uleb128 0x22
 7838 0fcd 260A0000 		.4byte	.LASF189
 7839 0fd1 01       		.byte	0x1
 7840 0fd2 6101     		.2byte	0x161
 7841 0fd4 A2000000 		.4byte	0xa2
 7842 0fd8 03       		.uleb128 0x3
 7843 0fd9 91       		.byte	0x91
 7844 0fda C37E     		.sleb128 -189
 7845 0fdc 21       		.uleb128 0x21
 7846 0fdd 647400   		.ascii	"dt\000"
 7847 0fe0 01       		.byte	0x1
 7848 0fe1 6101     		.2byte	0x161
 7849 0fe3 CE000000 		.4byte	0xce
 7850 0fe7 03       		.uleb128 0x3
 7851 0fe8 91       		.byte	0x91
 7852 0fe9 BC7E     		.sleb128 -196
 7853 0feb 23       		.uleb128 0x23
 7854 0fec 62756600 		.ascii	"buf\000"
 7855 0ff0 01       		.byte	0x1
 7856 0ff1 6301     		.2byte	0x163
 7857 0ff3 E90B0000 		.4byte	0xbe9
 7858 0ff7 03       		.uleb128 0x3
 7859 0ff8 91       		.byte	0x91
 7860 0ff9 D07E     		.sleb128 -176
 7861 0ffb 23       		.uleb128 0x23
 7862 0ffc 7300     		.ascii	"s\000"
 7863 0ffe 01       		.byte	0x1
 7864 0fff 6901     		.2byte	0x169
 7865 1001 FF000000 		.4byte	0xff
 7866 1005 03       		.uleb128 0x3
 7867 1006 91       		.byte	0x91
 7868 1007 CF7E     		.sleb128 -177
 7869 1009 23       		.uleb128 0x23
 7870 100a 766900   		.ascii	"vi\000"
 7871 100d 01       		.byte	0x1
 7872 100e 6901     		.2byte	0x169
 7873 1010 AD000000 		.4byte	0xad
 7874 1014 03       		.uleb128 0x3
 7875 1015 91       		.byte	0x91
 7876 1016 CC7E     		.sleb128 -180
 7877 1018 23       		.uleb128 0x23
 7878 1019 766600   		.ascii	"vf\000"
 7879 101c 01       		.byte	0x1
 7880 101d 6901     		.2byte	0x169
 7881 101f AD000000 		.4byte	0xad
 7882 1023 03       		.uleb128 0x3
 7883 1024 91       		.byte	0x91
 7884 1025 CA7E     		.sleb128 -182
 7885 1027 25       		.uleb128 0x25
 7886 1028 D50B0000 		.4byte	.LASF35
 7887 102c 01       		.byte	0x1
 7888 102d 6A01     		.2byte	0x16a
 7889 102f AD000000 		.4byte	0xad
 7890 1033 02       		.uleb128 0x2
ARM GAS  C:\Users\JENNEW~1\AppData\Local\Temp\ccFpxs5T.s 			page 166


 7891 1034 91       		.byte	0x91
 7892 1035 76       		.sleb128 -10
 7893 1036 25       		.uleb128 0x25
 7894 1037 C00B0000 		.4byte	.LASF197
 7895 103b 01       		.byte	0x1
 7896 103c 6B01     		.2byte	0x16b
 7897 103e AD000000 		.4byte	0xad
 7898 1042 02       		.uleb128 0x2
 7899 1043 91       		.byte	0x91
 7900 1044 74       		.sleb128 -12
 7901 1045 23       		.uleb128 0x23
 7902 1046 79617700 		.ascii	"yaw\000"
 7903 104a 01       		.byte	0x1
 7904 104b 6C01     		.2byte	0x16c
 7905 104d AD000000 		.4byte	0xad
 7906 1051 02       		.uleb128 0x2
 7907 1052 91       		.byte	0x91
 7908 1053 72       		.sleb128 -14
 7909 1054 00       		.byte	0
 7910 1055 20       		.uleb128 0x20
 7911 1056 10010000 		.4byte	.LASF198
 7912 105a 01       		.byte	0x1
 7913 105b 7601     		.2byte	0x176
 7914 105d 00000000 		.4byte	.LFB79
 7915 1061 0C010000 		.4byte	.LFE79-.LFB79
 7916 1065 01       		.uleb128 0x1
 7917 1066 9C       		.byte	0x9c
 7918 1067 CF100000 		.4byte	0x10cf
 7919 106b 21       		.uleb128 0x21
 7920 106c 7000     		.ascii	"p\000"
 7921 106e 01       		.byte	0x1
 7922 106f 7601     		.2byte	0x176
 7923 1071 DE0B0000 		.4byte	0xbde
 7924 1075 03       		.uleb128 0x3
 7925 1076 91       		.byte	0x91
 7926 1077 BC7E     		.sleb128 -196
 7927 1079 22       		.uleb128 0x22
 7928 107a 260A0000 		.4byte	.LASF189
 7929 107e 01       		.byte	0x1
 7930 107f 7601     		.2byte	0x176
 7931 1081 A2000000 		.4byte	0xa2
 7932 1085 03       		.uleb128 0x3
 7933 1086 91       		.byte	0x91
 7934 1087 BB7E     		.sleb128 -197
 7935 1089 21       		.uleb128 0x21
 7936 108a 647400   		.ascii	"dt\000"
 7937 108d 01       		.byte	0x1
 7938 108e 7601     		.2byte	0x176
 7939 1090 CE000000 		.4byte	0xce
 7940 1094 03       		.uleb128 0x3
 7941 1095 91       		.byte	0x91
 7942 1096 B47E     		.sleb128 -204
 7943 1098 23       		.uleb128 0x23
 7944 1099 62756600 		.ascii	"buf\000"
 7945 109d 01       		.byte	0x1
 7946 109e 7801     		.2byte	0x178
 7947 10a0 E90B0000 		.4byte	0xbe9
ARM GAS  C:\Users\JENNEW~1\AppData\Local\Temp\ccFpxs5T.s 			page 167


 7948 10a4 03       		.uleb128 0x3
 7949 10a5 91       		.byte	0x91
 7950 10a6 C47E     		.sleb128 -188
 7951 10a8 1F       		.uleb128 0x1f
 7952 10a9 62000000 		.4byte	.LBB9
 7953 10ad 8C000000 		.4byte	.LBE9-.LBB9
 7954 10b1 23       		.uleb128 0x23
 7955 10b2 616E7900 		.ascii	"any\000"
 7956 10b6 01       		.byte	0x1
 7957 10b7 8101     		.2byte	0x181
 7958 10b9 A2000000 		.4byte	0xa2
 7959 10bd 02       		.uleb128 0x2
 7960 10be 91       		.byte	0x91
 7961 10bf 67       		.sleb128 -25
 7962 10c0 23       		.uleb128 0x23
 7963 10c1 6900     		.ascii	"i\000"
 7964 10c3 01       		.byte	0x1
 7965 10c4 8101     		.2byte	0x181
 7966 10c6 A2000000 		.4byte	0xa2
 7967 10ca 02       		.uleb128 0x2
 7968 10cb 91       		.byte	0x91
 7969 10cc 66       		.sleb128 -26
 7970 10cd 00       		.byte	0
 7971 10ce 00       		.byte	0
 7972 10cf 20       		.uleb128 0x20
 7973 10d0 7D010000 		.4byte	.LASF199
 7974 10d4 01       		.byte	0x1
 7975 10d5 8A01     		.2byte	0x18a
 7976 10d7 00000000 		.4byte	.LFB80
 7977 10db 94010000 		.4byte	.LFE80-.LFB80
 7978 10df 01       		.uleb128 0x1
 7979 10e0 9C       		.byte	0x9c
 7980 10e1 3A110000 		.4byte	0x113a
 7981 10e5 21       		.uleb128 0x21
 7982 10e6 647400   		.ascii	"dt\000"
 7983 10e9 01       		.byte	0x1
 7984 10ea 8A01     		.2byte	0x18a
 7985 10ec CE000000 		.4byte	0xce
 7986 10f0 03       		.uleb128 0x3
 7987 10f1 91       		.byte	0x91
 7988 10f2 A47F     		.sleb128 -92
 7989 10f4 25       		.uleb128 0x25
 7990 10f5 12030000 		.4byte	.LASF200
 7991 10f9 01       		.byte	0x1
 7992 10fa 8C01     		.2byte	0x18c
 7993 10fc B8000000 		.4byte	0xb8
 7994 1100 02       		.uleb128 0x2
 7995 1101 91       		.byte	0x91
 7996 1102 76       		.sleb128 -10
 7997 1103 23       		.uleb128 0x23
 7998 1104 7000     		.ascii	"p\000"
 7999 1106 01       		.byte	0x1
 8000 1107 8D01     		.2byte	0x18d
 8001 1109 DE0B0000 		.4byte	0xbde
 8002 110d 02       		.uleb128 0x2
 8003 110e 91       		.byte	0x91
 8004 110f 70       		.sleb128 -16
ARM GAS  C:\Users\JENNEW~1\AppData\Local\Temp\ccFpxs5T.s 			page 168


 8005 1110 25       		.uleb128 0x25
 8006 1111 260A0000 		.4byte	.LASF189
 8007 1115 01       		.byte	0x1
 8008 1116 8E01     		.2byte	0x18e
 8009 1118 A2000000 		.4byte	0xa2
 8010 111c 02       		.uleb128 0x2
 8011 111d 91       		.byte	0x91
 8012 111e 6F       		.sleb128 -17
 8013 111f 1F       		.uleb128 0x1f
 8014 1120 64010000 		.4byte	.LBB10
 8015 1124 1A000000 		.4byte	.LBE10-.LBB10
 8016 1128 23       		.uleb128 0x23
 8017 1129 62756600 		.ascii	"buf\000"
 8018 112d 01       		.byte	0x1
 8019 112e 9801     		.2byte	0x198
 8020 1130 3A110000 		.4byte	0x113a
 8021 1134 03       		.uleb128 0x3
 8022 1135 91       		.byte	0x91
 8023 1136 AC7F     		.sleb128 -84
 8024 1138 00       		.byte	0
 8025 1139 00       		.byte	0
 8026 113a 14       		.uleb128 0x14
 8027 113b FF000000 		.4byte	0xff
 8028 113f 4A110000 		.4byte	0x114a
 8029 1143 15       		.uleb128 0x15
 8030 1144 1E010000 		.4byte	0x11e
 8031 1148 3F       		.byte	0x3f
 8032 1149 00       		.byte	0
 8033 114a 20       		.uleb128 0x20
 8034 114b AD050000 		.4byte	.LASF201
 8035 114f 01       		.byte	0x1
 8036 1150 A201     		.2byte	0x1a2
 8037 1152 00000000 		.4byte	.LFB81
 8038 1156 64000000 		.4byte	.LFE81-.LFB81
 8039 115a 01       		.uleb128 0x1
 8040 115b 9C       		.byte	0x9c
 8041 115c 9D110000 		.4byte	0x119d
 8042 1160 22       		.uleb128 0x22
 8043 1161 960A0000 		.4byte	.LASF202
 8044 1165 01       		.byte	0x1
 8045 1166 A201     		.2byte	0x1a2
 8046 1168 9D110000 		.4byte	0x119d
 8047 116c 02       		.uleb128 0x2
 8048 116d 91       		.byte	0x91
 8049 116e 74       		.sleb128 -12
 8050 116f 22       		.uleb128 0x22
 8051 1170 3D0A0000 		.4byte	.LASF203
 8052 1174 01       		.byte	0x1
 8053 1175 A201     		.2byte	0x1a2
 8054 1177 A3110000 		.4byte	0x11a3
 8055 117b 02       		.uleb128 0x2
 8056 117c 91       		.byte	0x91
 8057 117d 70       		.sleb128 -16
 8058 117e 22       		.uleb128 0x22
 8059 117f CB050000 		.4byte	.LASF204
 8060 1183 01       		.byte	0x1
 8061 1184 A301     		.2byte	0x1a3
ARM GAS  C:\Users\JENNEW~1\AppData\Local\Temp\ccFpxs5T.s 			page 169


 8062 1186 A3110000 		.4byte	0x11a3
 8063 118a 02       		.uleb128 0x2
 8064 118b 91       		.byte	0x91
 8065 118c 6C       		.sleb128 -20
 8066 118d 22       		.uleb128 0x22
 8067 118e D9000000 		.4byte	.LASF205
 8068 1192 01       		.byte	0x1
 8069 1193 A301     		.2byte	0x1a3
 8070 1195 A9110000 		.4byte	0x11a9
 8071 1199 02       		.uleb128 0x2
 8072 119a 91       		.byte	0x91
 8073 119b 68       		.sleb128 -24
 8074 119c 00       		.byte	0
 8075 119d 08       		.uleb128 0x8
 8076 119e 04       		.byte	0x4
 8077 119f 61080000 		.4byte	0x861
 8078 11a3 08       		.uleb128 0x8
 8079 11a4 04       		.byte	0x4
 8080 11a5 A2000000 		.4byte	0xa2
 8081 11a9 08       		.uleb128 0x8
 8082 11aa 04       		.byte	0x4
 8083 11ab C9010000 		.4byte	0x1c9
 8084 11af 20       		.uleb128 0x20
 8085 11b0 3D070000 		.4byte	.LASF206
 8086 11b4 01       		.byte	0x1
 8087 11b5 B401     		.2byte	0x1b4
 8088 11b7 00000000 		.4byte	.LFB82
 8089 11bb 88010000 		.4byte	.LFE82-.LFB82
 8090 11bf 01       		.uleb128 0x1
 8091 11c0 9C       		.byte	0x9c
 8092 11c1 6C120000 		.4byte	0x126c
 8093 11c5 23       		.uleb128 0x23
 8094 11c6 62756600 		.ascii	"buf\000"
 8095 11ca 01       		.byte	0x1
 8096 11cb B601     		.2byte	0x1b6
 8097 11cd E90B0000 		.4byte	0xbe9
 8098 11d1 03       		.uleb128 0x3
 8099 11d2 91       		.byte	0x91
 8100 11d3 B87E     		.sleb128 -200
 8101 11d5 23       		.uleb128 0x23
 8102 11d6 737400   		.ascii	"st\000"
 8103 11d9 01       		.byte	0x1
 8104 11da B701     		.2byte	0x1b7
 8105 11dc B8050000 		.4byte	0x5b8
 8106 11e0 03       		.uleb128 0x3
 8107 11e1 91       		.byte	0x91
 8108 11e2 CC7C     		.sleb128 -436
 8109 11e4 23       		.uleb128 0x23
 8110 11e5 707300   		.ascii	"ps\000"
 8111 11e8 01       		.byte	0x1
 8112 11e9 BF01     		.2byte	0x1bf
 8113 11eb FF000000 		.4byte	0xff
 8114 11ef 03       		.uleb128 0x3
 8115 11f0 91       		.byte	0x91
 8116 11f1 CB7C     		.sleb128 -437
 8117 11f3 23       		.uleb128 0x23
 8118 11f4 747300   		.ascii	"ts\000"
ARM GAS  C:\Users\JENNEW~1\AppData\Local\Temp\ccFpxs5T.s 			page 170


 8119 11f7 01       		.byte	0x1
 8120 11f8 BF01     		.2byte	0x1bf
 8121 11fa FF000000 		.4byte	0xff
 8122 11fe 03       		.uleb128 0x3
 8123 11ff 91       		.byte	0x91
 8124 1200 CA7C     		.sleb128 -438
 8125 1202 23       		.uleb128 0x23
 8126 1203 727300   		.ascii	"rs\000"
 8127 1206 01       		.byte	0x1
 8128 1207 BF01     		.2byte	0x1bf
 8129 1209 FF000000 		.4byte	0xff
 8130 120d 03       		.uleb128 0x3
 8131 120e 91       		.byte	0x91
 8132 120f C97C     		.sleb128 -439
 8133 1211 23       		.uleb128 0x23
 8134 1212 706900   		.ascii	"pi\000"
 8135 1215 01       		.byte	0x1
 8136 1216 C001     		.2byte	0x1c0
 8137 1218 AD000000 		.4byte	0xad
 8138 121c 03       		.uleb128 0x3
 8139 121d 91       		.byte	0x91
 8140 121e C67C     		.sleb128 -442
 8141 1220 23       		.uleb128 0x23
 8142 1221 706600   		.ascii	"pf\000"
 8143 1224 01       		.byte	0x1
 8144 1225 C001     		.2byte	0x1c0
 8145 1227 AD000000 		.4byte	0xad
 8146 122b 03       		.uleb128 0x3
 8147 122c 91       		.byte	0x91
 8148 122d C47C     		.sleb128 -444
 8149 122f 23       		.uleb128 0x23
 8150 1230 746900   		.ascii	"ti\000"
 8151 1233 01       		.byte	0x1
 8152 1234 C001     		.2byte	0x1c0
 8153 1236 AD000000 		.4byte	0xad
 8154 123a 03       		.uleb128 0x3
 8155 123b 91       		.byte	0x91
 8156 123c C27C     		.sleb128 -446
 8157 123e 23       		.uleb128 0x23
 8158 123f 746600   		.ascii	"tf\000"
 8159 1242 01       		.byte	0x1
 8160 1243 C001     		.2byte	0x1c0
 8161 1245 AD000000 		.4byte	0xad
 8162 1249 03       		.uleb128 0x3
 8163 124a 91       		.byte	0x91
 8164 124b C07C     		.sleb128 -448
 8165 124d 23       		.uleb128 0x23
 8166 124e 726900   		.ascii	"ri\000"
 8167 1251 01       		.byte	0x1
 8168 1252 C001     		.2byte	0x1c0
 8169 1254 AD000000 		.4byte	0xad
 8170 1258 03       		.uleb128 0x3
 8171 1259 91       		.byte	0x91
 8172 125a BE7C     		.sleb128 -450
 8173 125c 23       		.uleb128 0x23
 8174 125d 726600   		.ascii	"rf\000"
 8175 1260 01       		.byte	0x1
ARM GAS  C:\Users\JENNEW~1\AppData\Local\Temp\ccFpxs5T.s 			page 171


 8176 1261 C001     		.2byte	0x1c0
 8177 1263 AD000000 		.4byte	0xad
 8178 1267 03       		.uleb128 0x3
 8179 1268 91       		.byte	0x91
 8180 1269 BC7C     		.sleb128 -452
 8181 126b 00       		.byte	0
 8182 126c 20       		.uleb128 0x20
 8183 126d 140C0000 		.4byte	.LASF207
 8184 1271 01       		.byte	0x1
 8185 1272 D001     		.2byte	0x1d0
 8186 1274 00000000 		.4byte	.LFB83
 8187 1278 B8000000 		.4byte	.LFE83-.LFB83
 8188 127c 01       		.uleb128 0x1
 8189 127d 9C       		.byte	0x9c
 8190 127e BD120000 		.4byte	0x12bd
 8191 1282 22       		.uleb128 0x22
 8192 1283 6C0C0000 		.4byte	.LASF208
 8193 1287 01       		.byte	0x1
 8194 1288 D001     		.2byte	0x1d0
 8195 128a 03080000 		.4byte	0x803
 8196 128e 03       		.uleb128 0x3
 8197 128f 91       		.byte	0x91
 8198 1290 B77F     		.sleb128 -73
 8199 1292 21       		.uleb128 0x21
 8200 1293 6E6F7700 		.ascii	"now\000"
 8201 1297 01       		.byte	0x1
 8202 1298 D001     		.2byte	0x1d0
 8203 129a 03080000 		.4byte	0x803
 8204 129e 03       		.uleb128 0x3
 8205 129f 91       		.byte	0x91
 8206 12a0 B67F     		.sleb128 -74
 8207 12a2 1F       		.uleb128 0x1f
 8208 12a3 4E000000 		.4byte	.LBB11
 8209 12a7 30000000 		.4byte	.LBE11-.LBB11
 8210 12ab 25       		.uleb128 0x25
 8211 12ac 4F020000 		.4byte	.LASF209
 8212 12b0 01       		.byte	0x1
 8213 12b1 DE01     		.2byte	0x1de
 8214 12b3 3A110000 		.4byte	0x113a
 8215 12b7 03       		.uleb128 0x3
 8216 12b8 91       		.byte	0x91
 8217 12b9 B87F     		.sleb128 -72
 8218 12bb 00       		.byte	0
 8219 12bc 00       		.byte	0
 8220 12bd 20       		.uleb128 0x20
 8221 12be 15090000 		.4byte	.LASF210
 8222 12c2 01       		.byte	0x1
 8223 12c3 EA01     		.2byte	0x1ea
 8224 12c5 00000000 		.4byte	.LFB84
 8225 12c9 74000000 		.4byte	.LFE84-.LFB84
 8226 12cd 01       		.uleb128 0x1
 8227 12ce 9C       		.byte	0x9c
 8228 12cf 5E130000 		.4byte	0x135e
 8229 12d3 22       		.uleb128 0x22
 8230 12d4 35070000 		.4byte	.LASF182
 8231 12d8 01       		.byte	0x1
 8232 12d9 EA01     		.2byte	0x1ea
ARM GAS  C:\Users\JENNEW~1\AppData\Local\Temp\ccFpxs5T.s 			page 172


 8233 12db F1000000 		.4byte	0xf1
 8234 12df 03       		.uleb128 0x3
 8235 12e0 91       		.byte	0x91
 8236 12e1 B47E     		.sleb128 -204
 8237 12e3 22       		.uleb128 0x22
 8238 12e4 46020000 		.4byte	.LASF179
 8239 12e8 01       		.byte	0x1
 8240 12e9 EA01     		.2byte	0x1ea
 8241 12eb F1000000 		.4byte	0xf1
 8242 12ef 03       		.uleb128 0x3
 8243 12f0 91       		.byte	0x91
 8244 12f1 B07E     		.sleb128 -208
 8245 12f3 23       		.uleb128 0x23
 8246 12f4 62756600 		.ascii	"buf\000"
 8247 12f8 01       		.byte	0x1
 8248 12f9 EC01     		.2byte	0x1ec
 8249 12fb E90B0000 		.4byte	0xbe9
 8250 12ff 03       		.uleb128 0x3
 8251 1300 91       		.byte	0x91
 8252 1301 C87E     		.sleb128 -184
 8253 1303 23       		.uleb128 0x23
 8254 1304 707300   		.ascii	"ps\000"
 8255 1307 01       		.byte	0x1
 8256 1308 ED01     		.2byte	0x1ed
 8257 130a FF000000 		.4byte	0xff
 8258 130e 03       		.uleb128 0x3
 8259 130f 91       		.byte	0x91
 8260 1310 C77E     		.sleb128 -185
 8261 1312 23       		.uleb128 0x23
 8262 1313 747300   		.ascii	"ts\000"
 8263 1316 01       		.byte	0x1
 8264 1317 ED01     		.2byte	0x1ed
 8265 1319 FF000000 		.4byte	0xff
 8266 131d 03       		.uleb128 0x3
 8267 131e 91       		.byte	0x91
 8268 131f C67E     		.sleb128 -186
 8269 1321 23       		.uleb128 0x23
 8270 1322 706900   		.ascii	"pi\000"
 8271 1325 01       		.byte	0x1
 8272 1326 EE01     		.2byte	0x1ee
 8273 1328 AD000000 		.4byte	0xad
 8274 132c 03       		.uleb128 0x3
 8275 132d 91       		.byte	0x91
 8276 132e C47E     		.sleb128 -188
 8277 1330 23       		.uleb128 0x23
 8278 1331 706600   		.ascii	"pf\000"
 8279 1334 01       		.byte	0x1
 8280 1335 EE01     		.2byte	0x1ee
 8281 1337 AD000000 		.4byte	0xad
 8282 133b 03       		.uleb128 0x3
 8283 133c 91       		.byte	0x91
 8284 133d C27E     		.sleb128 -190
 8285 133f 23       		.uleb128 0x23
 8286 1340 746900   		.ascii	"ti\000"
 8287 1343 01       		.byte	0x1
 8288 1344 EE01     		.2byte	0x1ee
 8289 1346 AD000000 		.4byte	0xad
ARM GAS  C:\Users\JENNEW~1\AppData\Local\Temp\ccFpxs5T.s 			page 173


 8290 134a 03       		.uleb128 0x3
 8291 134b 91       		.byte	0x91
 8292 134c C07E     		.sleb128 -192
 8293 134e 23       		.uleb128 0x23
 8294 134f 746600   		.ascii	"tf\000"
 8295 1352 01       		.byte	0x1
 8296 1353 EE01     		.2byte	0x1ee
 8297 1355 AD000000 		.4byte	0xad
 8298 1359 03       		.uleb128 0x3
 8299 135a 91       		.byte	0x91
 8300 135b BE7E     		.sleb128 -194
 8301 135d 00       		.byte	0
 8302 135e 26       		.uleb128 0x26
 8303 135f C7010000 		.4byte	.LASF252
 8304 1363 01       		.byte	0x1
 8305 1364 F901     		.2byte	0x1f9
 8306 1366 94000000 		.4byte	0x94
 8307 136a 00000000 		.4byte	.LFB85
 8308 136e E0140000 		.4byte	.LFE85-.LFB85
 8309 1372 01       		.uleb128 0x1
 8310 1373 9C       		.byte	0x9c
 8311 1374 4A190000 		.4byte	0x194a
 8312 1378 23       		.uleb128 0x23
 8313 1379 747800   		.ascii	"tx\000"
 8314 137c 01       		.byte	0x1
 8315 137d FB01     		.2byte	0x1fb
 8316 137f E90B0000 		.4byte	0xbe9
 8317 1383 03       		.uleb128 0x3
 8318 1384 91       		.byte	0x91
 8319 1385 C07D     		.sleb128 -320
 8320 1387 25       		.uleb128 0x25
 8321 1388 2B010000 		.4byte	.LASF211
 8322 138c 01       		.byte	0x1
 8323 138d FD01     		.2byte	0x1fd
 8324 138f 61080000 		.4byte	0x861
 8325 1393 03       		.uleb128 0x3
 8326 1394 91       		.byte	0x91
 8327 1395 BF7D     		.sleb128 -321
 8328 1397 25       		.uleb128 0x25
 8329 1398 D9000000 		.4byte	.LASF205
 8330 139c 01       		.byte	0x1
 8331 139d FE01     		.2byte	0x1fe
 8332 139f C9010000 		.4byte	0x1c9
 8333 13a3 03       		.uleb128 0x3
 8334 13a4 91       		.byte	0x91
 8335 13a5 BE7D     		.sleb128 -322
 8336 13a7 23       		.uleb128 0x23
 8337 13a8 63746C00 		.ascii	"ctl\000"
 8338 13ac 01       		.byte	0x1
 8339 13ad FF01     		.2byte	0x1ff
 8340 13af 3D020000 		.4byte	0x23d
 8341 13b3 03       		.uleb128 0x3
 8342 13b4 91       		.byte	0x91
 8343 13b5 A87D     		.sleb128 -344
 8344 13b7 25       		.uleb128 0x25
 8345 13b8 09040000 		.4byte	.LASF212
 8346 13bc 01       		.byte	0x1
ARM GAS  C:\Users\JENNEW~1\AppData\Local\Temp\ccFpxs5T.s 			page 174


 8347 13bd 0102     		.2byte	0x201
 8348 13bf A2000000 		.4byte	0xa2
 8349 13c3 03       		.uleb128 0x3
 8350 13c4 91       		.byte	0x91
 8351 13c5 A77D     		.sleb128 -345
 8352 13c7 25       		.uleb128 0x25
 8353 13c8 43050000 		.4byte	.LASF213
 8354 13cc 01       		.byte	0x1
 8355 13cd 0202     		.2byte	0x202
 8356 13cf A2000000 		.4byte	0xa2
 8357 13d3 03       		.uleb128 0x3
 8358 13d4 91       		.byte	0x91
 8359 13d5 A67D     		.sleb128 -346
 8360 13d7 25       		.uleb128 0x25
 8361 13d8 A0090000 		.4byte	.LASF214
 8362 13dc 01       		.byte	0x1
 8363 13dd 0302     		.2byte	0x203
 8364 13df A2000000 		.4byte	0xa2
 8365 13e3 02       		.uleb128 0x2
 8366 13e4 91       		.byte	0x91
 8367 13e5 5F       		.sleb128 -33
 8368 13e6 25       		.uleb128 0x25
 8369 13e7 FC070000 		.4byte	.LASF215
 8370 13eb 01       		.byte	0x1
 8371 13ec 0402     		.2byte	0x204
 8372 13ee A2000000 		.4byte	0xa2
 8373 13f2 02       		.uleb128 0x2
 8374 13f3 91       		.byte	0x91
 8375 13f4 5E       		.sleb128 -34
 8376 13f5 25       		.uleb128 0x25
 8377 13f6 2B0A0000 		.4byte	.LASF216
 8378 13fa 01       		.byte	0x1
 8379 13fb 0502     		.2byte	0x205
 8380 13fd A2000000 		.4byte	0xa2
 8381 1401 02       		.uleb128 0x2
 8382 1402 91       		.byte	0x91
 8383 1403 5D       		.sleb128 -35
 8384 1404 25       		.uleb128 0x25
 8385 1405 F90B0000 		.4byte	.LASF217
 8386 1409 01       		.byte	0x1
 8387 140a 0802     		.2byte	0x208
 8388 140c F1000000 		.4byte	0xf1
 8389 1410 02       		.uleb128 0x2
 8390 1411 91       		.byte	0x91
 8391 1412 58       		.sleb128 -40
 8392 1413 25       		.uleb128 0x25
 8393 1414 6D0A0000 		.4byte	.LASF218
 8394 1418 01       		.byte	0x1
 8395 1419 0902     		.2byte	0x209
 8396 141b F1000000 		.4byte	0xf1
 8397 141f 02       		.uleb128 0x2
 8398 1420 91       		.byte	0x91
 8399 1421 54       		.sleb128 -44
 8400 1422 25       		.uleb128 0x25
 8401 1423 710C0000 		.4byte	.LASF219
 8402 1427 01       		.byte	0x1
 8403 1428 0A02     		.2byte	0x20a
ARM GAS  C:\Users\JENNEW~1\AppData\Local\Temp\ccFpxs5T.s 			page 175


 8404 142a A2000000 		.4byte	0xa2
 8405 142e 02       		.uleb128 0x2
 8406 142f 91       		.byte	0x91
 8407 1430 53       		.sleb128 -45
 8408 1431 25       		.uleb128 0x25
 8409 1432 EA000000 		.4byte	.LASF220
 8410 1436 01       		.byte	0x1
 8411 1437 0B02     		.2byte	0x20b
 8412 1439 CE000000 		.4byte	0xce
 8413 143d 02       		.uleb128 0x2
 8414 143e 91       		.byte	0x91
 8415 143f 4C       		.sleb128 -52
 8416 1440 25       		.uleb128 0x25
 8417 1441 FE080000 		.4byte	.LASF221
 8418 1445 01       		.byte	0x1
 8419 1446 0E02     		.2byte	0x20e
 8420 1448 F1000000 		.4byte	0xf1
 8421 144c 02       		.uleb128 0x2
 8422 144d 91       		.byte	0x91
 8423 144e 48       		.sleb128 -56
 8424 144f 25       		.uleb128 0x25
 8425 1450 4C0C0000 		.4byte	.LASF222
 8426 1454 01       		.byte	0x1
 8427 1455 0F02     		.2byte	0x20f
 8428 1457 F1000000 		.4byte	0xf1
 8429 145b 02       		.uleb128 0x2
 8430 145c 91       		.byte	0x91
 8431 145d 44       		.sleb128 -60
 8432 145e 25       		.uleb128 0x25
 8433 145f 7D0A0000 		.4byte	.LASF223
 8434 1463 01       		.byte	0x1
 8435 1464 1302     		.2byte	0x213
 8436 1466 F1000000 		.4byte	0xf1
 8437 146a 03       		.uleb128 0x3
 8438 146b 91       		.byte	0x91
 8439 146c 987F     		.sleb128 -104
 8440 146e 25       		.uleb128 0x25
 8441 146f 9E040000 		.4byte	.LASF224
 8442 1473 01       		.byte	0x1
 8443 1474 1402     		.2byte	0x214
 8444 1476 F1000000 		.4byte	0xf1
 8445 147a 03       		.uleb128 0x3
 8446 147b 91       		.byte	0x91
 8447 147c 947F     		.sleb128 -108
 8448 147e 25       		.uleb128 0x25
 8449 147f AF010000 		.4byte	.LASF225
 8450 1483 01       		.byte	0x1
 8451 1484 1502     		.2byte	0x215
 8452 1486 A2000000 		.4byte	0xa2
 8453 148a 02       		.uleb128 0x2
 8454 148b 91       		.byte	0x91
 8455 148c 43       		.sleb128 -61
 8456 148d 25       		.uleb128 0x25
 8457 148e 09050000 		.4byte	.LASF226
 8458 1492 01       		.byte	0x1
 8459 1493 1702     		.2byte	0x217
 8460 1495 CE000000 		.4byte	0xce
ARM GAS  C:\Users\JENNEW~1\AppData\Local\Temp\ccFpxs5T.s 			page 176


 8461 1499 03       		.uleb128 0x3
 8462 149a 91       		.byte	0x91
 8463 149b BC7F     		.sleb128 -68
 8464 149d 25       		.uleb128 0x25
 8465 149e 2F0B0000 		.4byte	.LASF227
 8466 14a2 01       		.byte	0x1
 8467 14a3 1802     		.2byte	0x218
 8468 14a5 CE000000 		.4byte	0xce
 8469 14a9 03       		.uleb128 0x3
 8470 14aa 91       		.byte	0x91
 8471 14ab B87F     		.sleb128 -72
 8472 14ad 25       		.uleb128 0x25
 8473 14ae 18080000 		.4byte	.LASF228
 8474 14b2 01       		.byte	0x1
 8475 14b3 1A02     		.2byte	0x21a
 8476 14b5 4A190000 		.4byte	0x194a
 8477 14b9 03       		.uleb128 0x3
 8478 14ba 91       		.byte	0x91
 8479 14bb A07D     		.sleb128 -352
 8480 14bd 23       		.uleb128 0x23
 8481 14be 636D6400 		.ascii	"cmd\000"
 8482 14c2 01       		.byte	0x1
 8483 14c3 1B02     		.2byte	0x21b
 8484 14c5 31080000 		.4byte	0x831
 8485 14c9 03       		.uleb128 0x3
 8486 14ca 91       		.byte	0x91
 8487 14cb 987D     		.sleb128 -360
 8488 14cd 25       		.uleb128 0x25
 8489 14ce 6E020000 		.4byte	.LASF229
 8490 14d2 01       		.byte	0x1
 8491 14d3 1E02     		.2byte	0x21e
 8492 14d5 D3070000 		.4byte	0x7d3
 8493 14d9 03       		.uleb128 0x3
 8494 14da 91       		.byte	0x91
 8495 14db 887D     		.sleb128 -376
 8496 14dd 23       		.uleb128 0x23
 8497 14de 6900     		.ascii	"i\000"
 8498 14e0 01       		.byte	0x1
 8499 14e1 1F02     		.2byte	0x21f
 8500 14e3 A2000000 		.4byte	0xa2
 8501 14e7 03       		.uleb128 0x3
 8502 14e8 91       		.byte	0x91
 8503 14e9 B77F     		.sleb128 -73
 8504 14eb 25       		.uleb128 0x25
 8505 14ec 51090000 		.4byte	.LASF230
 8506 14f0 01       		.byte	0x1
 8507 14f1 2502     		.2byte	0x225
 8508 14f3 03080000 		.4byte	0x803
 8509 14f7 03       		.uleb128 0x3
 8510 14f8 91       		.byte	0x91
 8511 14f9 B67F     		.sleb128 -74
 8512 14fb 25       		.uleb128 0x25
 8513 14fc B8040000 		.4byte	.LASF231
 8514 1500 01       		.byte	0x1
 8515 1501 2602     		.2byte	0x226
 8516 1503 7F070000 		.4byte	0x77f
 8517 1507 03       		.uleb128 0x3
ARM GAS  C:\Users\JENNEW~1\AppData\Local\Temp\ccFpxs5T.s 			page 177


 8518 1508 91       		.byte	0x91
 8519 1509 B57F     		.sleb128 -75
 8520 150b 25       		.uleb128 0x25
 8521 150c 5A090000 		.4byte	.LASF232
 8522 1510 01       		.byte	0x1
 8523 1511 2702     		.2byte	0x227
 8524 1513 A2000000 		.4byte	0xa2
 8525 1517 03       		.uleb128 0x3
 8526 1518 91       		.byte	0x91
 8527 1519 B47F     		.sleb128 -76
 8528 151b 25       		.uleb128 0x25
 8529 151c 7A090000 		.4byte	.LASF233
 8530 1520 01       		.byte	0x1
 8531 1521 2802     		.2byte	0x228
 8532 1523 CE000000 		.4byte	0xce
 8533 1527 03       		.uleb128 0x3
 8534 1528 91       		.byte	0x91
 8535 1529 907F     		.sleb128 -112
 8536 152b 1F       		.uleb128 0x1f
 8537 152c AC010000 		.4byte	.LBB12
 8538 1530 16130000 		.4byte	.LBE12-.LBB12
 8539 1534 23       		.uleb128 0x23
 8540 1535 636800   		.ascii	"ch\000"
 8541 1538 01       		.byte	0x1
 8542 1539 5702     		.2byte	0x257
 8543 153b A2000000 		.4byte	0xa2
 8544 153f 03       		.uleb128 0x3
 8545 1540 91       		.byte	0x91
 8546 1541 8F7F     		.sleb128 -113
 8547 1543 25       		.uleb128 0x25
 8548 1544 75070000 		.4byte	.LASF234
 8549 1548 01       		.byte	0x1
 8550 1549 2E03     		.2byte	0x32e
 8551 154b 03080000 		.4byte	0x803
 8552 154f 03       		.uleb128 0x3
 8553 1550 91       		.byte	0x91
 8554 1551 8E7F     		.sleb128 -114
 8555 1553 23       		.uleb128 0x23
 8556 1554 70696E00 		.ascii	"pin\000"
 8557 1558 01       		.byte	0x1
 8558 1559 6A03     		.2byte	0x36a
 8559 155b A2000000 		.4byte	0xa2
 8560 155f 03       		.uleb128 0x3
 8561 1560 91       		.byte	0x91
 8562 1561 877F     		.sleb128 -121
 8563 1563 24       		.uleb128 0x24
 8564 1564 E4040000 		.4byte	.LBB13
 8565 1568 CE000000 		.4byte	.LBE13-.LBB13
 8566 156c F3150000 		.4byte	0x15f3
 8567 1570 23       		.uleb128 0x23
 8568 1571 706400   		.ascii	"pd\000"
 8569 1574 01       		.byte	0x1
 8570 1575 A802     		.2byte	0x2a8
 8571 1577 F1000000 		.4byte	0xf1
 8572 157b 03       		.uleb128 0x3
 8573 157c 91       		.byte	0x91
 8574 157d 847D     		.sleb128 -380
ARM GAS  C:\Users\JENNEW~1\AppData\Local\Temp\ccFpxs5T.s 			page 178


 8575 157f 23       		.uleb128 0x23
 8576 1580 746400   		.ascii	"td\000"
 8577 1583 01       		.byte	0x1
 8578 1584 A802     		.2byte	0x2a8
 8579 1586 F1000000 		.4byte	0xf1
 8580 158a 03       		.uleb128 0x3
 8581 158b 91       		.byte	0x91
 8582 158c 807D     		.sleb128 -384
 8583 158e 1F       		.uleb128 0x1f
 8584 158f 0E050000 		.4byte	.LBB14
 8585 1593 9C000000 		.4byte	.LBE14-.LBB14
 8586 1597 23       		.uleb128 0x23
 8587 1598 707300   		.ascii	"ps\000"
 8588 159b 01       		.byte	0x1
 8589 159c AD02     		.2byte	0x2ad
 8590 159e FF000000 		.4byte	0xff
 8591 15a2 03       		.uleb128 0x3
 8592 15a3 91       		.byte	0x91
 8593 15a4 FF7C     		.sleb128 -385
 8594 15a6 23       		.uleb128 0x23
 8595 15a7 747300   		.ascii	"ts\000"
 8596 15aa 01       		.byte	0x1
 8597 15ab AD02     		.2byte	0x2ad
 8598 15ad FF000000 		.4byte	0xff
 8599 15b1 03       		.uleb128 0x3
 8600 15b2 91       		.byte	0x91
 8601 15b3 FE7C     		.sleb128 -386
 8602 15b5 23       		.uleb128 0x23
 8603 15b6 706900   		.ascii	"pi\000"
 8604 15b9 01       		.byte	0x1
 8605 15ba AE02     		.2byte	0x2ae
 8606 15bc AD000000 		.4byte	0xad
 8607 15c0 03       		.uleb128 0x3
 8608 15c1 91       		.byte	0x91
 8609 15c2 FC7C     		.sleb128 -388
 8610 15c4 23       		.uleb128 0x23
 8611 15c5 706600   		.ascii	"pf\000"
 8612 15c8 01       		.byte	0x1
 8613 15c9 AE02     		.2byte	0x2ae
 8614 15cb AD000000 		.4byte	0xad
 8615 15cf 03       		.uleb128 0x3
 8616 15d0 91       		.byte	0x91
 8617 15d1 FA7C     		.sleb128 -390
 8618 15d3 23       		.uleb128 0x23
 8619 15d4 746900   		.ascii	"ti\000"
 8620 15d7 01       		.byte	0x1
 8621 15d8 AE02     		.2byte	0x2ae
 8622 15da AD000000 		.4byte	0xad
 8623 15de 03       		.uleb128 0x3
 8624 15df 91       		.byte	0x91
 8625 15e0 F87C     		.sleb128 -392
 8626 15e2 23       		.uleb128 0x23
 8627 15e3 746600   		.ascii	"tf\000"
 8628 15e6 01       		.byte	0x1
 8629 15e7 AE02     		.2byte	0x2ae
 8630 15e9 AD000000 		.4byte	0xad
 8631 15ed 03       		.uleb128 0x3
ARM GAS  C:\Users\JENNEW~1\AppData\Local\Temp\ccFpxs5T.s 			page 179


 8632 15ee 91       		.byte	0x91
 8633 15ef F67C     		.sleb128 -394
 8634 15f1 00       		.byte	0
 8635 15f2 00       		.byte	0
 8636 15f3 24       		.uleb128 0x24
 8637 15f4 86070000 		.4byte	.LBB15
 8638 15f8 60010000 		.4byte	.LBE15-.LBB15
 8639 15fc 11160000 		.4byte	0x1611
 8640 1600 23       		.uleb128 0x23
 8641 1601 72657100 		.ascii	"req\000"
 8642 1605 01       		.byte	0x1
 8643 1606 FD02     		.2byte	0x2fd
 8644 1608 B8000000 		.4byte	0xb8
 8645 160c 03       		.uleb128 0x3
 8646 160d 91       		.byte	0x91
 8647 160e B27F     		.sleb128 -78
 8648 1610 00       		.byte	0
 8649 1611 24       		.uleb128 0x24
 8650 1612 38090000 		.4byte	.LBB16
 8651 1616 AC010000 		.4byte	.LBE16-.LBB16
 8652 161a 3D160000 		.4byte	0x163d
 8653 161e 23       		.uleb128 0x23
 8654 161f 647000   		.ascii	"dp\000"
 8655 1622 01       		.byte	0x1
 8656 1623 1903     		.2byte	0x319
 8657 1625 F1000000 		.4byte	0xf1
 8658 1629 03       		.uleb128 0x3
 8659 162a 91       		.byte	0x91
 8660 162b AC7F     		.sleb128 -84
 8661 162d 23       		.uleb128 0x23
 8662 162e 647400   		.ascii	"dt\000"
 8663 1631 01       		.byte	0x1
 8664 1632 1903     		.2byte	0x319
 8665 1634 F1000000 		.4byte	0xf1
 8666 1638 03       		.uleb128 0x3
 8667 1639 91       		.byte	0x91
 8668 163a A87F     		.sleb128 -88
 8669 163c 00       		.byte	0
 8670 163d 24       		.uleb128 0x24
 8671 163e 220B0000 		.4byte	.LBB17
 8672 1642 28000000 		.4byte	.LBE17-.LBB17
 8673 1646 5A160000 		.4byte	0x165a
 8674 164a 23       		.uleb128 0x23
 8675 164b 647400   		.ascii	"dt\000"
 8676 164e 01       		.byte	0x1
 8677 164f 3C03     		.2byte	0x33c
 8678 1651 CE000000 		.4byte	0xce
 8679 1655 03       		.uleb128 0x3
 8680 1656 91       		.byte	0x91
 8681 1657 887F     		.sleb128 -120
 8682 1659 00       		.byte	0
 8683 165a 24       		.uleb128 0x24
 8684 165b D00B0000 		.4byte	.LBB18
 8685 165f 12010000 		.4byte	.LBE18-.LBB18
 8686 1663 C2160000 		.4byte	0x16c2
 8687 1667 25       		.uleb128 0x25
 8688 1668 9D000000 		.4byte	.LASF235
ARM GAS  C:\Users\JENNEW~1\AppData\Local\Temp\ccFpxs5T.s 			page 180


 8689 166c 01       		.byte	0x1
 8690 166d 4E03     		.2byte	0x34e
 8691 166f A2000000 		.4byte	0xa2
 8692 1673 03       		.uleb128 0x3
 8693 1674 91       		.byte	0x91
 8694 1675 A77F     		.sleb128 -89
 8695 1677 25       		.uleb128 0x25
 8696 1678 110B0000 		.4byte	.LASF236
 8697 167c 01       		.byte	0x1
 8698 167d 4F03     		.2byte	0x34f
 8699 167f F1000000 		.4byte	0xf1
 8700 1683 03       		.uleb128 0x3
 8701 1684 91       		.byte	0x91
 8702 1685 F07C     		.sleb128 -400
 8703 1687 25       		.uleb128 0x25
 8704 1688 DE070000 		.4byte	.LASF237
 8705 168c 01       		.byte	0x1
 8706 168d 4F03     		.2byte	0x34f
 8707 168f F1000000 		.4byte	0xf1
 8708 1693 03       		.uleb128 0x3
 8709 1694 91       		.byte	0x91
 8710 1695 EC7C     		.sleb128 -404
 8711 1697 1F       		.uleb128 0x1f
 8712 1698 000C0000 		.4byte	.LBB19
 8713 169c A6000000 		.4byte	.LBE19-.LBB19
 8714 16a0 25       		.uleb128 0x25
 8715 16a1 9E010000 		.4byte	.LASF238
 8716 16a5 01       		.byte	0x1
 8717 16a6 5303     		.2byte	0x353
 8718 16a8 F1000000 		.4byte	0xf1
 8719 16ac 03       		.uleb128 0x3
 8720 16ad 91       		.byte	0x91
 8721 16ae A07F     		.sleb128 -96
 8722 16b0 25       		.uleb128 0x25
 8723 16b1 CC0A0000 		.4byte	.LASF239
 8724 16b5 01       		.byte	0x1
 8725 16b6 5403     		.2byte	0x354
 8726 16b8 F1000000 		.4byte	0xf1
 8727 16bc 03       		.uleb128 0x3
 8728 16bd 91       		.byte	0x91
 8729 16be 9C7F     		.sleb128 -100
 8730 16c0 00       		.byte	0
 8731 16c1 00       		.byte	0
 8732 16c2 24       		.uleb128 0x24
 8733 16c3 7C0D0000 		.4byte	.LBB20
 8734 16c7 84000000 		.4byte	.LBE20-.LBB20
 8735 16cb 0E170000 		.4byte	0x170e
 8736 16cf 23       		.uleb128 0x23
 8737 16d0 706D00   		.ascii	"pm\000"
 8738 16d3 01       		.byte	0x1
 8739 16d4 7A03     		.2byte	0x37a
 8740 16d6 AD000000 		.4byte	0xad
 8741 16da 03       		.uleb128 0x3
 8742 16db 91       		.byte	0x91
 8743 16dc 847F     		.sleb128 -124
 8744 16de 23       		.uleb128 0x23
 8745 16df 746D00   		.ascii	"tm\000"
ARM GAS  C:\Users\JENNEW~1\AppData\Local\Temp\ccFpxs5T.s 			page 181


 8746 16e2 01       		.byte	0x1
 8747 16e3 7B03     		.2byte	0x37b
 8748 16e5 AD000000 		.4byte	0xad
 8749 16e9 03       		.uleb128 0x3
 8750 16ea 91       		.byte	0x91
 8751 16eb 827F     		.sleb128 -126
 8752 16ed 23       		.uleb128 0x23
 8753 16ee 786D7600 		.ascii	"xmv\000"
 8754 16f2 01       		.byte	0x1
 8755 16f3 7C03     		.2byte	0x37c
 8756 16f5 C3000000 		.4byte	0xc3
 8757 16f9 03       		.uleb128 0x3
 8758 16fa 91       		.byte	0x91
 8759 16fb FC7E     		.sleb128 -132
 8760 16fd 23       		.uleb128 0x23
 8761 16fe 796D7600 		.ascii	"ymv\000"
 8762 1702 01       		.byte	0x1
 8763 1703 7D03     		.2byte	0x37d
 8764 1705 C3000000 		.4byte	0xc3
 8765 1709 03       		.uleb128 0x3
 8766 170a 91       		.byte	0x91
 8767 170b F87E     		.sleb128 -136
 8768 170d 00       		.byte	0
 8769 170e 24       		.uleb128 0x24
 8770 170f 0A0E0000 		.4byte	.LBB21
 8771 1713 32000000 		.4byte	.LBE21-.LBB21
 8772 1717 2A170000 		.4byte	0x172a
 8773 171b 23       		.uleb128 0x23
 8774 171c 6E00     		.ascii	"n\000"
 8775 171e 01       		.byte	0x1
 8776 171f 8303     		.2byte	0x383
 8777 1721 B8000000 		.4byte	0xb8
 8778 1725 03       		.uleb128 0x3
 8779 1726 91       		.byte	0x91
 8780 1727 F67E     		.sleb128 -138
 8781 1729 00       		.byte	0
 8782 172a 1F       		.uleb128 0x1f
 8783 172b 20100000 		.4byte	.LBB22
 8784 172f A2040000 		.4byte	.LBE22-.LBB22
 8785 1733 23       		.uleb128 0x23
 8786 1734 6D7300   		.ascii	"ms\000"
 8787 1737 01       		.byte	0x1
 8788 1738 C403     		.2byte	0x3c4
 8789 173a CE000000 		.4byte	0xce
 8790 173e 03       		.uleb128 0x3
 8791 173f 91       		.byte	0x91
 8792 1740 F07E     		.sleb128 -144
 8793 1742 23       		.uleb128 0x23
 8794 1743 7300     		.ascii	"s\000"
 8795 1745 01       		.byte	0x1
 8796 1746 CB03     		.2byte	0x3cb
 8797 1748 7D060000 		.4byte	0x67d
 8798 174c 03       		.uleb128 0x3
 8799 174d 91       		.byte	0x91
 8800 174e D47C     		.sleb128 -428
 8801 1750 23       		.uleb128 0x23
 8802 1751 737400   		.ascii	"st\000"
ARM GAS  C:\Users\JENNEW~1\AppData\Local\Temp\ccFpxs5T.s 			page 182


 8803 1754 01       		.byte	0x1
 8804 1755 D403     		.2byte	0x3d4
 8805 1757 B8050000 		.4byte	0x5b8
 8806 175b 03       		.uleb128 0x3
 8807 175c 91       		.byte	0x91
 8808 175d C47A     		.sleb128 -700
 8809 175f 23       		.uleb128 0x23
 8810 1760 6C727300 		.ascii	"lrs\000"
 8811 1764 01       		.byte	0x1
 8812 1765 0C04     		.2byte	0x40c
 8813 1767 FF000000 		.4byte	0xff
 8814 176b 03       		.uleb128 0x3
 8815 176c 91       		.byte	0x91
 8816 176d D37C     		.sleb128 -429
 8817 176f 23       		.uleb128 0x23
 8818 1770 75647300 		.ascii	"uds\000"
 8819 1774 01       		.byte	0x1
 8820 1775 0C04     		.2byte	0x40c
 8821 1777 FF000000 		.4byte	0xff
 8822 177b 03       		.uleb128 0x3
 8823 177c 91       		.byte	0x91
 8824 177d D27C     		.sleb128 -430
 8825 177f 23       		.uleb128 0x23
 8826 1780 6C726900 		.ascii	"lri\000"
 8827 1784 01       		.byte	0x1
 8828 1785 0C04     		.2byte	0x40c
 8829 1787 AD000000 		.4byte	0xad
 8830 178b 03       		.uleb128 0x3
 8831 178c 91       		.byte	0x91
 8832 178d D07C     		.sleb128 -432
 8833 178f 23       		.uleb128 0x23
 8834 1790 6C726600 		.ascii	"lrf\000"
 8835 1794 01       		.byte	0x1
 8836 1795 0C04     		.2byte	0x40c
 8837 1797 AD000000 		.4byte	0xad
 8838 179b 03       		.uleb128 0x3
 8839 179c 91       		.byte	0x91
 8840 179d CE7C     		.sleb128 -434
 8841 179f 23       		.uleb128 0x23
 8842 17a0 75646900 		.ascii	"udi\000"
 8843 17a4 01       		.byte	0x1
 8844 17a5 0C04     		.2byte	0x40c
 8845 17a7 AD000000 		.4byte	0xad
 8846 17ab 03       		.uleb128 0x3
 8847 17ac 91       		.byte	0x91
 8848 17ad CC7C     		.sleb128 -436
 8849 17af 23       		.uleb128 0x23
 8850 17b0 75646600 		.ascii	"udf\000"
 8851 17b4 01       		.byte	0x1
 8852 17b5 0C04     		.2byte	0x40c
 8853 17b7 AD000000 		.4byte	0xad
 8854 17bb 03       		.uleb128 0x3
 8855 17bc 91       		.byte	0x91
 8856 17bd CA7C     		.sleb128 -438
 8857 17bf 24       		.uleb128 0x24
 8858 17c0 EA100000 		.4byte	.LBB23
 8859 17c4 76020000 		.4byte	.LBE23-.LBB23
ARM GAS  C:\Users\JENNEW~1\AppData\Local\Temp\ccFpxs5T.s 			page 183


 8860 17c8 2E190000 		.4byte	0x192e
 8861 17cc 23       		.uleb128 0x23
 8862 17cd 707300   		.ascii	"ps\000"
 8863 17d0 01       		.byte	0x1
 8864 17d1 D703     		.2byte	0x3d7
 8865 17d3 FF000000 		.4byte	0xff
 8866 17d7 03       		.uleb128 0x3
 8867 17d8 91       		.byte	0x91
 8868 17d9 C97C     		.sleb128 -439
 8869 17db 23       		.uleb128 0x23
 8870 17dc 747300   		.ascii	"ts\000"
 8871 17df 01       		.byte	0x1
 8872 17e0 D703     		.2byte	0x3d7
 8873 17e2 FF000000 		.4byte	0xff
 8874 17e6 03       		.uleb128 0x3
 8875 17e7 91       		.byte	0x91
 8876 17e8 C87C     		.sleb128 -440
 8877 17ea 23       		.uleb128 0x23
 8878 17eb 727300   		.ascii	"rs\000"
 8879 17ee 01       		.byte	0x1
 8880 17ef D703     		.2byte	0x3d7
 8881 17f1 FF000000 		.4byte	0xff
 8882 17f5 03       		.uleb128 0x3
 8883 17f6 91       		.byte	0x91
 8884 17f7 C77C     		.sleb128 -441
 8885 17f9 23       		.uleb128 0x23
 8886 17fa 706900   		.ascii	"pi\000"
 8887 17fd 01       		.byte	0x1
 8888 17fe D803     		.2byte	0x3d8
 8889 1800 AD000000 		.4byte	0xad
 8890 1804 03       		.uleb128 0x3
 8891 1805 91       		.byte	0x91
 8892 1806 C47C     		.sleb128 -444
 8893 1808 23       		.uleb128 0x23
 8894 1809 706600   		.ascii	"pf\000"
 8895 180c 01       		.byte	0x1
 8896 180d D803     		.2byte	0x3d8
 8897 180f AD000000 		.4byte	0xad
 8898 1813 03       		.uleb128 0x3
 8899 1814 91       		.byte	0x91
 8900 1815 C27C     		.sleb128 -446
 8901 1817 23       		.uleb128 0x23
 8902 1818 746900   		.ascii	"ti\000"
 8903 181b 01       		.byte	0x1
 8904 181c D803     		.2byte	0x3d8
 8905 181e AD000000 		.4byte	0xad
 8906 1822 03       		.uleb128 0x3
 8907 1823 91       		.byte	0x91
 8908 1824 C07C     		.sleb128 -448
 8909 1826 23       		.uleb128 0x23
 8910 1827 746600   		.ascii	"tf\000"
 8911 182a 01       		.byte	0x1
 8912 182b D803     		.2byte	0x3d8
 8913 182d AD000000 		.4byte	0xad
 8914 1831 03       		.uleb128 0x3
 8915 1832 91       		.byte	0x91
 8916 1833 BE7C     		.sleb128 -450
ARM GAS  C:\Users\JENNEW~1\AppData\Local\Temp\ccFpxs5T.s 			page 184


 8917 1835 23       		.uleb128 0x23
 8918 1836 726900   		.ascii	"ri\000"
 8919 1839 01       		.byte	0x1
 8920 183a D803     		.2byte	0x3d8
 8921 183c AD000000 		.4byte	0xad
 8922 1840 03       		.uleb128 0x3
 8923 1841 91       		.byte	0x91
 8924 1842 BC7C     		.sleb128 -452
 8925 1844 23       		.uleb128 0x23
 8926 1845 726600   		.ascii	"rf\000"
 8927 1848 01       		.byte	0x1
 8928 1849 D803     		.2byte	0x3d8
 8929 184b AD000000 		.4byte	0xad
 8930 184f 03       		.uleb128 0x3
 8931 1850 91       		.byte	0x91
 8932 1851 BA7C     		.sleb128 -454
 8933 1853 23       		.uleb128 0x23
 8934 1854 766C6900 		.ascii	"vli\000"
 8935 1858 01       		.byte	0x1
 8936 1859 DA03     		.2byte	0x3da
 8937 185b AD000000 		.4byte	0xad
 8938 185f 03       		.uleb128 0x3
 8939 1860 91       		.byte	0x91
 8940 1861 EE7E     		.sleb128 -146
 8941 1863 23       		.uleb128 0x23
 8942 1864 766C6600 		.ascii	"vlf\000"
 8943 1868 01       		.byte	0x1
 8944 1869 DB03     		.2byte	0x3db
 8945 186b AD000000 		.4byte	0xad
 8946 186f 03       		.uleb128 0x3
 8947 1870 91       		.byte	0x91
 8948 1871 EC7E     		.sleb128 -148
 8949 1873 23       		.uleb128 0x23
 8950 1874 76726900 		.ascii	"vri\000"
 8951 1878 01       		.byte	0x1
 8952 1879 DC03     		.2byte	0x3dc
 8953 187b AD000000 		.4byte	0xad
 8954 187f 03       		.uleb128 0x3
 8955 1880 91       		.byte	0x91
 8956 1881 EA7E     		.sleb128 -150
 8957 1883 23       		.uleb128 0x23
 8958 1884 76726600 		.ascii	"vrf\000"
 8959 1888 01       		.byte	0x1
 8960 1889 DD03     		.2byte	0x3dd
 8961 188b AD000000 		.4byte	0xad
 8962 188f 03       		.uleb128 0x3
 8963 1890 91       		.byte	0x91
 8964 1891 E87E     		.sleb128 -152
 8965 1893 25       		.uleb128 0x25
 8966 1894 01050000 		.4byte	.LASF240
 8967 1898 01       		.byte	0x1
 8968 1899 DE03     		.2byte	0x3de
 8969 189b A2000000 		.4byte	0xa2
 8970 189f 03       		.uleb128 0x3
 8971 18a0 91       		.byte	0x91
 8972 18a1 E77E     		.sleb128 -153
 8973 18a3 25       		.uleb128 0x25
ARM GAS  C:\Users\JENNEW~1\AppData\Local\Temp\ccFpxs5T.s 			page 185


 8974 18a4 F9040000 		.4byte	.LASF241
 8975 18a8 01       		.byte	0x1
 8976 18a9 DF03     		.2byte	0x3df
 8977 18ab A2000000 		.4byte	0xa2
 8978 18af 03       		.uleb128 0x3
 8979 18b0 91       		.byte	0x91
 8980 18b1 E67E     		.sleb128 -154
 8981 18b3 25       		.uleb128 0x25
 8982 18b4 66080000 		.4byte	.LASF242
 8983 18b8 01       		.byte	0x1
 8984 18b9 E003     		.2byte	0x3e0
 8985 18bb A2000000 		.4byte	0xa2
 8986 18bf 03       		.uleb128 0x3
 8987 18c0 91       		.byte	0x91
 8988 18c1 E57E     		.sleb128 -155
 8989 18c3 1F       		.uleb128 0x1f
 8990 18c4 EA110000 		.4byte	.LBB24
 8991 18c8 C2000000 		.4byte	.LBE24-.LBB24
 8992 18cc 23       		.uleb128 0x23
 8993 18cd 61707300 		.ascii	"aps\000"
 8994 18d1 01       		.byte	0x1
 8995 18d2 E203     		.2byte	0x3e2
 8996 18d4 FF000000 		.4byte	0xff
 8997 18d8 03       		.uleb128 0x3
 8998 18d9 91       		.byte	0x91
 8999 18da B97C     		.sleb128 -455
 9000 18dc 23       		.uleb128 0x23
 9001 18dd 61747300 		.ascii	"ats\000"
 9002 18e1 01       		.byte	0x1
 9003 18e2 E203     		.2byte	0x3e2
 9004 18e4 FF000000 		.4byte	0xff
 9005 18e8 03       		.uleb128 0x3
 9006 18e9 91       		.byte	0x91
 9007 18ea B87C     		.sleb128 -456
 9008 18ec 23       		.uleb128 0x23
 9009 18ed 61706900 		.ascii	"api\000"
 9010 18f1 01       		.byte	0x1
 9011 18f2 E203     		.2byte	0x3e2
 9012 18f4 AD000000 		.4byte	0xad
 9013 18f8 03       		.uleb128 0x3
 9014 18f9 91       		.byte	0x91
 9015 18fa B67C     		.sleb128 -458
 9016 18fc 23       		.uleb128 0x23
 9017 18fd 61706600 		.ascii	"apf\000"
 9018 1901 01       		.byte	0x1
 9019 1902 E203     		.2byte	0x3e2
 9020 1904 AD000000 		.4byte	0xad
 9021 1908 03       		.uleb128 0x3
 9022 1909 91       		.byte	0x91
 9023 190a B47C     		.sleb128 -460
 9024 190c 23       		.uleb128 0x23
 9025 190d 61746900 		.ascii	"ati\000"
 9026 1911 01       		.byte	0x1
 9027 1912 E203     		.2byte	0x3e2
 9028 1914 AD000000 		.4byte	0xad
 9029 1918 03       		.uleb128 0x3
 9030 1919 91       		.byte	0x91
ARM GAS  C:\Users\JENNEW~1\AppData\Local\Temp\ccFpxs5T.s 			page 186


 9031 191a B27C     		.sleb128 -462
 9032 191c 23       		.uleb128 0x23
 9033 191d 61746600 		.ascii	"atf\000"
 9034 1921 01       		.byte	0x1
 9035 1922 E203     		.2byte	0x3e2
 9036 1924 AD000000 		.4byte	0xad
 9037 1928 03       		.uleb128 0x3
 9038 1929 91       		.byte	0x91
 9039 192a B07C     		.sleb128 -464
 9040 192c 00       		.byte	0
 9041 192d 00       		.byte	0
 9042 192e 1F       		.uleb128 0x1f
 9043 192f B2130000 		.4byte	.LBB25
 9044 1933 2E000000 		.4byte	.LBE25-.LBB25
 9045 1937 23       		.uleb128 0x23
 9046 1938 647400   		.ascii	"dt\000"
 9047 193b 01       		.byte	0x1
 9048 193c FD03     		.2byte	0x3fd
 9049 193e CE000000 		.4byte	0xce
 9050 1942 03       		.uleb128 0x3
 9051 1943 91       		.byte	0x91
 9052 1944 E07E     		.sleb128 -160
 9053 1946 00       		.byte	0
 9054 1947 00       		.byte	0
 9055 1948 00       		.byte	0
 9056 1949 00       		.byte	0
 9057 194a 14       		.uleb128 0x14
 9058 194b AD000000 		.4byte	0xad
 9059 194f 5A190000 		.4byte	0x195a
 9060 1953 15       		.uleb128 0x15
 9061 1954 1E010000 		.4byte	0x11e
 9062 1958 01       		.byte	0x1
 9063 1959 00       		.byte	0
 9064 195a 1D       		.uleb128 0x1d
 9065 195b E3000000 		.4byte	.LASF243
 9066 195f 01       		.byte	0x1
 9067 1960 7A       		.byte	0x7a
 9068 1961 55070000 		.4byte	0x755
 9069 1965 05       		.uleb128 0x5
 9070 1966 03       		.byte	0x3
 9071 1967 00000000 		.4byte	g_movi
 9072 196b 1D       		.uleb128 0x1d
 9073 196c D50A0000 		.4byte	.LASF244
 9074 1970 01       		.byte	0x1
 9075 1971 8C       		.byte	0x8c
 9076 1972 7C190000 		.4byte	0x197c
 9077 1976 05       		.uleb128 0x5
 9078 1977 03       		.byte	0x3
 9079 1978 00000000 		.4byte	MOVI_HAL
 9080 197c 09       		.uleb128 0x9
 9081 197d 9F010000 		.4byte	0x19f
 9082 1981 27       		.uleb128 0x27
 9083 1982 8E070000 		.4byte	.LASF245
 9084 1986 0B       		.byte	0xb
 9085 1987 1207     		.2byte	0x712
 9086 1989 8D190000 		.4byte	0x198d
 9087 198d 06       		.uleb128 0x6
ARM GAS  C:\Users\JENNEW~1\AppData\Local\Temp\ccFpxs5T.s 			page 187


 9088 198e C3000000 		.4byte	0xc3
 9089 1992 28       		.uleb128 0x28
 9090 1993 2D030000 		.4byte	.LASF246
 9091 1997 01       		.byte	0x1
 9092 1998 7B       		.byte	0x7b
 9093 1999 38010000 		.4byte	0x138
 9094 199d 05       		.uleb128 0x5
 9095 199e 03       		.byte	0x3
 9096 199f 00000000 		.4byte	g_tick_ms
 9097 19a3 00       		.byte	0
 9098              		.section	.debug_abbrev,"",%progbits
 9099              	.Ldebug_abbrev0:
 9100 0000 01       		.uleb128 0x1
 9101 0001 11       		.uleb128 0x11
 9102 0002 01       		.byte	0x1
 9103 0003 25       		.uleb128 0x25
 9104 0004 0E       		.uleb128 0xe
 9105 0005 13       		.uleb128 0x13
 9106 0006 0B       		.uleb128 0xb
 9107 0007 03       		.uleb128 0x3
 9108 0008 0E       		.uleb128 0xe
 9109 0009 1B       		.uleb128 0x1b
 9110 000a 0E       		.uleb128 0xe
 9111 000b 55       		.uleb128 0x55
 9112 000c 17       		.uleb128 0x17
 9113 000d 11       		.uleb128 0x11
 9114 000e 01       		.uleb128 0x1
 9115 000f 10       		.uleb128 0x10
 9116 0010 17       		.uleb128 0x17
 9117 0011 00       		.byte	0
 9118 0012 00       		.byte	0
 9119 0013 02       		.uleb128 0x2
 9120 0014 24       		.uleb128 0x24
 9121 0015 00       		.byte	0
 9122 0016 0B       		.uleb128 0xb
 9123 0017 0B       		.uleb128 0xb
 9124 0018 3E       		.uleb128 0x3e
 9125 0019 0B       		.uleb128 0xb
 9126 001a 03       		.uleb128 0x3
 9127 001b 0E       		.uleb128 0xe
 9128 001c 00       		.byte	0
 9129 001d 00       		.byte	0
 9130 001e 03       		.uleb128 0x3
 9131 001f 16       		.uleb128 0x16
 9132 0020 00       		.byte	0
 9133 0021 03       		.uleb128 0x3
 9134 0022 0E       		.uleb128 0xe
 9135 0023 3A       		.uleb128 0x3a
 9136 0024 0B       		.uleb128 0xb
 9137 0025 3B       		.uleb128 0x3b
 9138 0026 0B       		.uleb128 0xb
 9139 0027 49       		.uleb128 0x49
 9140 0028 13       		.uleb128 0x13
 9141 0029 00       		.byte	0
 9142 002a 00       		.byte	0
 9143 002b 04       		.uleb128 0x4
 9144 002c 24       		.uleb128 0x24
ARM GAS  C:\Users\JENNEW~1\AppData\Local\Temp\ccFpxs5T.s 			page 188


 9145 002d 00       		.byte	0
 9146 002e 0B       		.uleb128 0xb
 9147 002f 0B       		.uleb128 0xb
 9148 0030 3E       		.uleb128 0x3e
 9149 0031 0B       		.uleb128 0xb
 9150 0032 03       		.uleb128 0x3
 9151 0033 08       		.uleb128 0x8
 9152 0034 00       		.byte	0
 9153 0035 00       		.byte	0
 9154 0036 05       		.uleb128 0x5
 9155 0037 16       		.uleb128 0x16
 9156 0038 00       		.byte	0
 9157 0039 03       		.uleb128 0x3
 9158 003a 0E       		.uleb128 0xe
 9159 003b 3A       		.uleb128 0x3a
 9160 003c 0B       		.uleb128 0xb
 9161 003d 3B       		.uleb128 0x3b
 9162 003e 05       		.uleb128 0x5
 9163 003f 49       		.uleb128 0x49
 9164 0040 13       		.uleb128 0x13
 9165 0041 00       		.byte	0
 9166 0042 00       		.byte	0
 9167 0043 06       		.uleb128 0x6
 9168 0044 35       		.uleb128 0x35
 9169 0045 00       		.byte	0
 9170 0046 49       		.uleb128 0x49
 9171 0047 13       		.uleb128 0x13
 9172 0048 00       		.byte	0
 9173 0049 00       		.byte	0
 9174 004a 07       		.uleb128 0x7
 9175 004b 0F       		.uleb128 0xf
 9176 004c 00       		.byte	0
 9177 004d 0B       		.uleb128 0xb
 9178 004e 0B       		.uleb128 0xb
 9179 004f 00       		.byte	0
 9180 0050 00       		.byte	0
 9181 0051 08       		.uleb128 0x8
 9182 0052 0F       		.uleb128 0xf
 9183 0053 00       		.byte	0
 9184 0054 0B       		.uleb128 0xb
 9185 0055 0B       		.uleb128 0xb
 9186 0056 49       		.uleb128 0x49
 9187 0057 13       		.uleb128 0x13
 9188 0058 00       		.byte	0
 9189 0059 00       		.byte	0
 9190 005a 09       		.uleb128 0x9
 9191 005b 26       		.uleb128 0x26
 9192 005c 00       		.byte	0
 9193 005d 49       		.uleb128 0x49
 9194 005e 13       		.uleb128 0x13
 9195 005f 00       		.byte	0
 9196 0060 00       		.byte	0
 9197 0061 0A       		.uleb128 0xa
 9198 0062 13       		.uleb128 0x13
 9199 0063 01       		.byte	0x1
 9200 0064 0B       		.uleb128 0xb
 9201 0065 0B       		.uleb128 0xb
ARM GAS  C:\Users\JENNEW~1\AppData\Local\Temp\ccFpxs5T.s 			page 189


 9202 0066 3A       		.uleb128 0x3a
 9203 0067 0B       		.uleb128 0xb
 9204 0068 3B       		.uleb128 0x3b
 9205 0069 0B       		.uleb128 0xb
 9206 006a 01       		.uleb128 0x1
 9207 006b 13       		.uleb128 0x13
 9208 006c 00       		.byte	0
 9209 006d 00       		.byte	0
 9210 006e 0B       		.uleb128 0xb
 9211 006f 0D       		.uleb128 0xd
 9212 0070 00       		.byte	0
 9213 0071 03       		.uleb128 0x3
 9214 0072 08       		.uleb128 0x8
 9215 0073 3A       		.uleb128 0x3a
 9216 0074 0B       		.uleb128 0xb
 9217 0075 3B       		.uleb128 0x3b
 9218 0076 0B       		.uleb128 0xb
 9219 0077 49       		.uleb128 0x49
 9220 0078 13       		.uleb128 0x13
 9221 0079 38       		.uleb128 0x38
 9222 007a 0B       		.uleb128 0xb
 9223 007b 00       		.byte	0
 9224 007c 00       		.byte	0
 9225 007d 0C       		.uleb128 0xc
 9226 007e 0D       		.uleb128 0xd
 9227 007f 00       		.byte	0
 9228 0080 03       		.uleb128 0x3
 9229 0081 0E       		.uleb128 0xe
 9230 0082 3A       		.uleb128 0x3a
 9231 0083 0B       		.uleb128 0xb
 9232 0084 3B       		.uleb128 0x3b
 9233 0085 0B       		.uleb128 0xb
 9234 0086 49       		.uleb128 0x49
 9235 0087 13       		.uleb128 0x13
 9236 0088 38       		.uleb128 0x38
 9237 0089 0B       		.uleb128 0xb
 9238 008a 00       		.byte	0
 9239 008b 00       		.byte	0
 9240 008c 0D       		.uleb128 0xd
 9241 008d 15       		.uleb128 0x15
 9242 008e 01       		.byte	0x1
 9243 008f 27       		.uleb128 0x27
 9244 0090 19       		.uleb128 0x19
 9245 0091 01       		.uleb128 0x1
 9246 0092 13       		.uleb128 0x13
 9247 0093 00       		.byte	0
 9248 0094 00       		.byte	0
 9249 0095 0E       		.uleb128 0xe
 9250 0096 05       		.uleb128 0x5
 9251 0097 00       		.byte	0
 9252 0098 49       		.uleb128 0x49
 9253 0099 13       		.uleb128 0x13
 9254 009a 00       		.byte	0
 9255 009b 00       		.byte	0
 9256 009c 0F       		.uleb128 0xf
 9257 009d 15       		.uleb128 0x15
 9258 009e 01       		.byte	0x1
ARM GAS  C:\Users\JENNEW~1\AppData\Local\Temp\ccFpxs5T.s 			page 190


 9259 009f 27       		.uleb128 0x27
 9260 00a0 19       		.uleb128 0x19
 9261 00a1 49       		.uleb128 0x49
 9262 00a2 13       		.uleb128 0x13
 9263 00a3 01       		.uleb128 0x1
 9264 00a4 13       		.uleb128 0x13
 9265 00a5 00       		.byte	0
 9266 00a6 00       		.byte	0
 9267 00a7 10       		.uleb128 0x10
 9268 00a8 04       		.uleb128 0x4
 9269 00a9 01       		.byte	0x1
 9270 00aa 0B       		.uleb128 0xb
 9271 00ab 0B       		.uleb128 0xb
 9272 00ac 49       		.uleb128 0x49
 9273 00ad 13       		.uleb128 0x13
 9274 00ae 3A       		.uleb128 0x3a
 9275 00af 0B       		.uleb128 0xb
 9276 00b0 3B       		.uleb128 0x3b
 9277 00b1 0B       		.uleb128 0xb
 9278 00b2 01       		.uleb128 0x1
 9279 00b3 13       		.uleb128 0x13
 9280 00b4 00       		.byte	0
 9281 00b5 00       		.byte	0
 9282 00b6 11       		.uleb128 0x11
 9283 00b7 28       		.uleb128 0x28
 9284 00b8 00       		.byte	0
 9285 00b9 03       		.uleb128 0x3
 9286 00ba 0E       		.uleb128 0xe
 9287 00bb 1C       		.uleb128 0x1c
 9288 00bc 0B       		.uleb128 0xb
 9289 00bd 00       		.byte	0
 9290 00be 00       		.byte	0
 9291 00bf 12       		.uleb128 0x12
 9292 00c0 13       		.uleb128 0x13
 9293 00c1 01       		.byte	0x1
 9294 00c2 0B       		.uleb128 0xb
 9295 00c3 05       		.uleb128 0x5
 9296 00c4 3A       		.uleb128 0x3a
 9297 00c5 0B       		.uleb128 0xb
 9298 00c6 3B       		.uleb128 0x3b
 9299 00c7 0B       		.uleb128 0xb
 9300 00c8 01       		.uleb128 0x1
 9301 00c9 13       		.uleb128 0x13
 9302 00ca 00       		.byte	0
 9303 00cb 00       		.byte	0
 9304 00cc 13       		.uleb128 0x13
 9305 00cd 0D       		.uleb128 0xd
 9306 00ce 00       		.byte	0
 9307 00cf 03       		.uleb128 0x3
 9308 00d0 0E       		.uleb128 0xe
 9309 00d1 3A       		.uleb128 0x3a
 9310 00d2 0B       		.uleb128 0xb
 9311 00d3 3B       		.uleb128 0x3b
 9312 00d4 0B       		.uleb128 0xb
 9313 00d5 49       		.uleb128 0x49
 9314 00d6 13       		.uleb128 0x13
 9315 00d7 38       		.uleb128 0x38
ARM GAS  C:\Users\JENNEW~1\AppData\Local\Temp\ccFpxs5T.s 			page 191


 9316 00d8 05       		.uleb128 0x5
 9317 00d9 00       		.byte	0
 9318 00da 00       		.byte	0
 9319 00db 14       		.uleb128 0x14
 9320 00dc 01       		.uleb128 0x1
 9321 00dd 01       		.byte	0x1
 9322 00de 49       		.uleb128 0x49
 9323 00df 13       		.uleb128 0x13
 9324 00e0 01       		.uleb128 0x1
 9325 00e1 13       		.uleb128 0x13
 9326 00e2 00       		.byte	0
 9327 00e3 00       		.byte	0
 9328 00e4 15       		.uleb128 0x15
 9329 00e5 21       		.uleb128 0x21
 9330 00e6 00       		.byte	0
 9331 00e7 49       		.uleb128 0x49
 9332 00e8 13       		.uleb128 0x13
 9333 00e9 2F       		.uleb128 0x2f
 9334 00ea 0B       		.uleb128 0xb
 9335 00eb 00       		.byte	0
 9336 00ec 00       		.byte	0
 9337 00ed 16       		.uleb128 0x16
 9338 00ee 2E       		.uleb128 0x2e
 9339 00ef 01       		.byte	0x1
 9340 00f0 03       		.uleb128 0x3
 9341 00f1 0E       		.uleb128 0xe
 9342 00f2 3A       		.uleb128 0x3a
 9343 00f3 0B       		.uleb128 0xb
 9344 00f4 3B       		.uleb128 0x3b
 9345 00f5 0B       		.uleb128 0xb
 9346 00f6 27       		.uleb128 0x27
 9347 00f7 19       		.uleb128 0x19
 9348 00f8 11       		.uleb128 0x11
 9349 00f9 01       		.uleb128 0x1
 9350 00fa 12       		.uleb128 0x12
 9351 00fb 06       		.uleb128 0x6
 9352 00fc 40       		.uleb128 0x40
 9353 00fd 18       		.uleb128 0x18
 9354 00fe 9642     		.uleb128 0x2116
 9355 0100 19       		.uleb128 0x19
 9356 0101 01       		.uleb128 0x1
 9357 0102 13       		.uleb128 0x13
 9358 0103 00       		.byte	0
 9359 0104 00       		.byte	0
 9360 0105 17       		.uleb128 0x17
 9361 0106 05       		.uleb128 0x5
 9362 0107 00       		.byte	0
 9363 0108 03       		.uleb128 0x3
 9364 0109 08       		.uleb128 0x8
 9365 010a 3A       		.uleb128 0x3a
 9366 010b 0B       		.uleb128 0xb
 9367 010c 3B       		.uleb128 0x3b
 9368 010d 0B       		.uleb128 0xb
 9369 010e 49       		.uleb128 0x49
 9370 010f 13       		.uleb128 0x13
 9371 0110 02       		.uleb128 0x2
 9372 0111 18       		.uleb128 0x18
ARM GAS  C:\Users\JENNEW~1\AppData\Local\Temp\ccFpxs5T.s 			page 192


 9373 0112 00       		.byte	0
 9374 0113 00       		.byte	0
 9375 0114 18       		.uleb128 0x18
 9376 0115 2E       		.uleb128 0x2e
 9377 0116 01       		.byte	0x1
 9378 0117 03       		.uleb128 0x3
 9379 0118 0E       		.uleb128 0xe
 9380 0119 3A       		.uleb128 0x3a
 9381 011a 0B       		.uleb128 0xb
 9382 011b 3B       		.uleb128 0x3b
 9383 011c 0B       		.uleb128 0xb
 9384 011d 27       		.uleb128 0x27
 9385 011e 19       		.uleb128 0x19
 9386 011f 49       		.uleb128 0x49
 9387 0120 13       		.uleb128 0x13
 9388 0121 11       		.uleb128 0x11
 9389 0122 01       		.uleb128 0x1
 9390 0123 12       		.uleb128 0x12
 9391 0124 06       		.uleb128 0x6
 9392 0125 40       		.uleb128 0x40
 9393 0126 18       		.uleb128 0x18
 9394 0127 9742     		.uleb128 0x2117
 9395 0129 19       		.uleb128 0x19
 9396 012a 01       		.uleb128 0x1
 9397 012b 13       		.uleb128 0x13
 9398 012c 00       		.byte	0
 9399 012d 00       		.byte	0
 9400 012e 19       		.uleb128 0x19
 9401 012f 2E       		.uleb128 0x2e
 9402 0130 01       		.byte	0x1
 9403 0131 3F       		.uleb128 0x3f
 9404 0132 19       		.uleb128 0x19
 9405 0133 03       		.uleb128 0x3
 9406 0134 0E       		.uleb128 0xe
 9407 0135 3A       		.uleb128 0x3a
 9408 0136 0B       		.uleb128 0xb
 9409 0137 3B       		.uleb128 0x3b
 9410 0138 0B       		.uleb128 0xb
 9411 0139 27       		.uleb128 0x27
 9412 013a 19       		.uleb128 0x19
 9413 013b 11       		.uleb128 0x11
 9414 013c 01       		.uleb128 0x1
 9415 013d 12       		.uleb128 0x12
 9416 013e 06       		.uleb128 0x6
 9417 013f 40       		.uleb128 0x40
 9418 0140 18       		.uleb128 0x18
 9419 0141 9642     		.uleb128 0x2116
 9420 0143 19       		.uleb128 0x19
 9421 0144 01       		.uleb128 0x1
 9422 0145 13       		.uleb128 0x13
 9423 0146 00       		.byte	0
 9424 0147 00       		.byte	0
 9425 0148 1A       		.uleb128 0x1a
 9426 0149 34       		.uleb128 0x34
 9427 014a 00       		.byte	0
 9428 014b 03       		.uleb128 0x3
 9429 014c 08       		.uleb128 0x8
ARM GAS  C:\Users\JENNEW~1\AppData\Local\Temp\ccFpxs5T.s 			page 193


 9430 014d 3A       		.uleb128 0x3a
 9431 014e 0B       		.uleb128 0xb
 9432 014f 3B       		.uleb128 0x3b
 9433 0150 0B       		.uleb128 0xb
 9434 0151 49       		.uleb128 0x49
 9435 0152 13       		.uleb128 0x13
 9436 0153 02       		.uleb128 0x2
 9437 0154 18       		.uleb128 0x18
 9438 0155 00       		.byte	0
 9439 0156 00       		.byte	0
 9440 0157 1B       		.uleb128 0x1b
 9441 0158 2E       		.uleb128 0x2e
 9442 0159 00       		.byte	0
 9443 015a 3F       		.uleb128 0x3f
 9444 015b 19       		.uleb128 0x19
 9445 015c 03       		.uleb128 0x3
 9446 015d 0E       		.uleb128 0xe
 9447 015e 3A       		.uleb128 0x3a
 9448 015f 0B       		.uleb128 0xb
 9449 0160 3B       		.uleb128 0x3b
 9450 0161 0B       		.uleb128 0xb
 9451 0162 27       		.uleb128 0x27
 9452 0163 19       		.uleb128 0x19
 9453 0164 11       		.uleb128 0x11
 9454 0165 01       		.uleb128 0x1
 9455 0166 12       		.uleb128 0x12
 9456 0167 06       		.uleb128 0x6
 9457 0168 40       		.uleb128 0x40
 9458 0169 18       		.uleb128 0x18
 9459 016a 9642     		.uleb128 0x2116
 9460 016c 19       		.uleb128 0x19
 9461 016d 00       		.byte	0
 9462 016e 00       		.byte	0
 9463 016f 1C       		.uleb128 0x1c
 9464 0170 05       		.uleb128 0x5
 9465 0171 00       		.byte	0
 9466 0172 03       		.uleb128 0x3
 9467 0173 0E       		.uleb128 0xe
 9468 0174 3A       		.uleb128 0x3a
 9469 0175 0B       		.uleb128 0xb
 9470 0176 3B       		.uleb128 0x3b
 9471 0177 0B       		.uleb128 0xb
 9472 0178 49       		.uleb128 0x49
 9473 0179 13       		.uleb128 0x13
 9474 017a 02       		.uleb128 0x2
 9475 017b 18       		.uleb128 0x18
 9476 017c 00       		.byte	0
 9477 017d 00       		.byte	0
 9478 017e 1D       		.uleb128 0x1d
 9479 017f 34       		.uleb128 0x34
 9480 0180 00       		.byte	0
 9481 0181 03       		.uleb128 0x3
 9482 0182 0E       		.uleb128 0xe
 9483 0183 3A       		.uleb128 0x3a
 9484 0184 0B       		.uleb128 0xb
 9485 0185 3B       		.uleb128 0x3b
 9486 0186 0B       		.uleb128 0xb
ARM GAS  C:\Users\JENNEW~1\AppData\Local\Temp\ccFpxs5T.s 			page 194


 9487 0187 49       		.uleb128 0x49
 9488 0188 13       		.uleb128 0x13
 9489 0189 02       		.uleb128 0x2
 9490 018a 18       		.uleb128 0x18
 9491 018b 00       		.byte	0
 9492 018c 00       		.byte	0
 9493 018d 1E       		.uleb128 0x1e
 9494 018e 2E       		.uleb128 0x2e
 9495 018f 01       		.byte	0x1
 9496 0190 03       		.uleb128 0x3
 9497 0191 0E       		.uleb128 0xe
 9498 0192 3A       		.uleb128 0x3a
 9499 0193 0B       		.uleb128 0xb
 9500 0194 3B       		.uleb128 0x3b
 9501 0195 0B       		.uleb128 0xb
 9502 0196 27       		.uleb128 0x27
 9503 0197 19       		.uleb128 0x19
 9504 0198 49       		.uleb128 0x49
 9505 0199 13       		.uleb128 0x13
 9506 019a 11       		.uleb128 0x11
 9507 019b 01       		.uleb128 0x1
 9508 019c 12       		.uleb128 0x12
 9509 019d 06       		.uleb128 0x6
 9510 019e 40       		.uleb128 0x40
 9511 019f 18       		.uleb128 0x18
 9512 01a0 9642     		.uleb128 0x2116
 9513 01a2 19       		.uleb128 0x19
 9514 01a3 01       		.uleb128 0x1
 9515 01a4 13       		.uleb128 0x13
 9516 01a5 00       		.byte	0
 9517 01a6 00       		.byte	0
 9518 01a7 1F       		.uleb128 0x1f
 9519 01a8 0B       		.uleb128 0xb
 9520 01a9 01       		.byte	0x1
 9521 01aa 11       		.uleb128 0x11
 9522 01ab 01       		.uleb128 0x1
 9523 01ac 12       		.uleb128 0x12
 9524 01ad 06       		.uleb128 0x6
 9525 01ae 00       		.byte	0
 9526 01af 00       		.byte	0
 9527 01b0 20       		.uleb128 0x20
 9528 01b1 2E       		.uleb128 0x2e
 9529 01b2 01       		.byte	0x1
 9530 01b3 03       		.uleb128 0x3
 9531 01b4 0E       		.uleb128 0xe
 9532 01b5 3A       		.uleb128 0x3a
 9533 01b6 0B       		.uleb128 0xb
 9534 01b7 3B       		.uleb128 0x3b
 9535 01b8 05       		.uleb128 0x5
 9536 01b9 27       		.uleb128 0x27
 9537 01ba 19       		.uleb128 0x19
 9538 01bb 11       		.uleb128 0x11
 9539 01bc 01       		.uleb128 0x1
 9540 01bd 12       		.uleb128 0x12
 9541 01be 06       		.uleb128 0x6
 9542 01bf 40       		.uleb128 0x40
 9543 01c0 18       		.uleb128 0x18
ARM GAS  C:\Users\JENNEW~1\AppData\Local\Temp\ccFpxs5T.s 			page 195


 9544 01c1 9642     		.uleb128 0x2116
 9545 01c3 19       		.uleb128 0x19
 9546 01c4 01       		.uleb128 0x1
 9547 01c5 13       		.uleb128 0x13
 9548 01c6 00       		.byte	0
 9549 01c7 00       		.byte	0
 9550 01c8 21       		.uleb128 0x21
 9551 01c9 05       		.uleb128 0x5
 9552 01ca 00       		.byte	0
 9553 01cb 03       		.uleb128 0x3
 9554 01cc 08       		.uleb128 0x8
 9555 01cd 3A       		.uleb128 0x3a
 9556 01ce 0B       		.uleb128 0xb
 9557 01cf 3B       		.uleb128 0x3b
 9558 01d0 05       		.uleb128 0x5
 9559 01d1 49       		.uleb128 0x49
 9560 01d2 13       		.uleb128 0x13
 9561 01d3 02       		.uleb128 0x2
 9562 01d4 18       		.uleb128 0x18
 9563 01d5 00       		.byte	0
 9564 01d6 00       		.byte	0
 9565 01d7 22       		.uleb128 0x22
 9566 01d8 05       		.uleb128 0x5
 9567 01d9 00       		.byte	0
 9568 01da 03       		.uleb128 0x3
 9569 01db 0E       		.uleb128 0xe
 9570 01dc 3A       		.uleb128 0x3a
 9571 01dd 0B       		.uleb128 0xb
 9572 01de 3B       		.uleb128 0x3b
 9573 01df 05       		.uleb128 0x5
 9574 01e0 49       		.uleb128 0x49
 9575 01e1 13       		.uleb128 0x13
 9576 01e2 02       		.uleb128 0x2
 9577 01e3 18       		.uleb128 0x18
 9578 01e4 00       		.byte	0
 9579 01e5 00       		.byte	0
 9580 01e6 23       		.uleb128 0x23
 9581 01e7 34       		.uleb128 0x34
 9582 01e8 00       		.byte	0
 9583 01e9 03       		.uleb128 0x3
 9584 01ea 08       		.uleb128 0x8
 9585 01eb 3A       		.uleb128 0x3a
 9586 01ec 0B       		.uleb128 0xb
 9587 01ed 3B       		.uleb128 0x3b
 9588 01ee 05       		.uleb128 0x5
 9589 01ef 49       		.uleb128 0x49
 9590 01f0 13       		.uleb128 0x13
 9591 01f1 02       		.uleb128 0x2
 9592 01f2 18       		.uleb128 0x18
 9593 01f3 00       		.byte	0
 9594 01f4 00       		.byte	0
 9595 01f5 24       		.uleb128 0x24
 9596 01f6 0B       		.uleb128 0xb
 9597 01f7 01       		.byte	0x1
 9598 01f8 11       		.uleb128 0x11
 9599 01f9 01       		.uleb128 0x1
 9600 01fa 12       		.uleb128 0x12
ARM GAS  C:\Users\JENNEW~1\AppData\Local\Temp\ccFpxs5T.s 			page 196


 9601 01fb 06       		.uleb128 0x6
 9602 01fc 01       		.uleb128 0x1
 9603 01fd 13       		.uleb128 0x13
 9604 01fe 00       		.byte	0
 9605 01ff 00       		.byte	0
 9606 0200 25       		.uleb128 0x25
 9607 0201 34       		.uleb128 0x34
 9608 0202 00       		.byte	0
 9609 0203 03       		.uleb128 0x3
 9610 0204 0E       		.uleb128 0xe
 9611 0205 3A       		.uleb128 0x3a
 9612 0206 0B       		.uleb128 0xb
 9613 0207 3B       		.uleb128 0x3b
 9614 0208 05       		.uleb128 0x5
 9615 0209 49       		.uleb128 0x49
 9616 020a 13       		.uleb128 0x13
 9617 020b 02       		.uleb128 0x2
 9618 020c 18       		.uleb128 0x18
 9619 020d 00       		.byte	0
 9620 020e 00       		.byte	0
 9621 020f 26       		.uleb128 0x26
 9622 0210 2E       		.uleb128 0x2e
 9623 0211 01       		.byte	0x1
 9624 0212 3F       		.uleb128 0x3f
 9625 0213 19       		.uleb128 0x19
 9626 0214 03       		.uleb128 0x3
 9627 0215 0E       		.uleb128 0xe
 9628 0216 3A       		.uleb128 0x3a
 9629 0217 0B       		.uleb128 0xb
 9630 0218 3B       		.uleb128 0x3b
 9631 0219 05       		.uleb128 0x5
 9632 021a 27       		.uleb128 0x27
 9633 021b 19       		.uleb128 0x19
 9634 021c 49       		.uleb128 0x49
 9635 021d 13       		.uleb128 0x13
 9636 021e 11       		.uleb128 0x11
 9637 021f 01       		.uleb128 0x1
 9638 0220 12       		.uleb128 0x12
 9639 0221 06       		.uleb128 0x6
 9640 0222 40       		.uleb128 0x40
 9641 0223 18       		.uleb128 0x18
 9642 0224 9642     		.uleb128 0x2116
 9643 0226 19       		.uleb128 0x19
 9644 0227 01       		.uleb128 0x1
 9645 0228 13       		.uleb128 0x13
 9646 0229 00       		.byte	0
 9647 022a 00       		.byte	0
 9648 022b 27       		.uleb128 0x27
 9649 022c 34       		.uleb128 0x34
 9650 022d 00       		.byte	0
 9651 022e 03       		.uleb128 0x3
 9652 022f 0E       		.uleb128 0xe
 9653 0230 3A       		.uleb128 0x3a
 9654 0231 0B       		.uleb128 0xb
 9655 0232 3B       		.uleb128 0x3b
 9656 0233 05       		.uleb128 0x5
 9657 0234 49       		.uleb128 0x49
ARM GAS  C:\Users\JENNEW~1\AppData\Local\Temp\ccFpxs5T.s 			page 197


 9658 0235 13       		.uleb128 0x13
 9659 0236 3F       		.uleb128 0x3f
 9660 0237 19       		.uleb128 0x19
 9661 0238 3C       		.uleb128 0x3c
 9662 0239 19       		.uleb128 0x19
 9663 023a 00       		.byte	0
 9664 023b 00       		.byte	0
 9665 023c 28       		.uleb128 0x28
 9666 023d 34       		.uleb128 0x34
 9667 023e 00       		.byte	0
 9668 023f 03       		.uleb128 0x3
 9669 0240 0E       		.uleb128 0xe
 9670 0241 3A       		.uleb128 0x3a
 9671 0242 0B       		.uleb128 0xb
 9672 0243 3B       		.uleb128 0x3b
 9673 0244 0B       		.uleb128 0xb
 9674 0245 49       		.uleb128 0x49
 9675 0246 13       		.uleb128 0x13
 9676 0247 3F       		.uleb128 0x3f
 9677 0248 19       		.uleb128 0x19
 9678 0249 02       		.uleb128 0x2
 9679 024a 18       		.uleb128 0x18
 9680 024b 00       		.byte	0
 9681 024c 00       		.byte	0
 9682 024d 00       		.byte	0
 9683              		.section	.debug_aranges,"",%progbits
 9684 0000 C4000000 		.4byte	0xc4
 9685 0004 0200     		.2byte	0x2
 9686 0006 00000000 		.4byte	.Ldebug_info0
 9687 000a 04       		.byte	0x4
 9688 000b 00       		.byte	0
 9689 000c 0000     		.2byte	0
 9690 000e 0000     		.2byte	0
 9691 0010 00000000 		.4byte	.LFB64
 9692 0014 1C000000 		.4byte	.LFE64-.LFB64
 9693 0018 00000000 		.4byte	.LFB65
 9694 001c 1C000000 		.4byte	.LFE65-.LFB65
 9695 0020 00000000 		.4byte	.LFB66
 9696 0024 58000000 		.4byte	.LFE66-.LFB66
 9697 0028 00000000 		.4byte	.LFB67
 9698 002c 1C000000 		.4byte	.LFE67-.LFB67
 9699 0030 00000000 		.4byte	.LFB68
 9700 0034 A8000000 		.4byte	.LFE68-.LFB68
 9701 0038 00000000 		.4byte	.LFB69
 9702 003c BC010000 		.4byte	.LFE69-.LFB69
 9703 0040 00000000 		.4byte	.LFB70
 9704 0044 88010000 		.4byte	.LFE70-.LFB70
 9705 0048 00000000 		.4byte	.LFB71
 9706 004c 38000000 		.4byte	.LFE71-.LFB71
 9707 0050 00000000 		.4byte	.LFB72
 9708 0054 E0000000 		.4byte	.LFE72-.LFB72
 9709 0058 00000000 		.4byte	.LFB73
 9710 005c B8010000 		.4byte	.LFE73-.LFB73
 9711 0060 00000000 		.4byte	.LFB74
 9712 0064 60010000 		.4byte	.LFE74-.LFB74
 9713 0068 00000000 		.4byte	.LFB75
 9714 006c 3C010000 		.4byte	.LFE75-.LFB75
ARM GAS  C:\Users\JENNEW~1\AppData\Local\Temp\ccFpxs5T.s 			page 198


 9715 0070 00000000 		.4byte	.LFB76
 9716 0074 68010000 		.4byte	.LFE76-.LFB76
 9717 0078 00000000 		.4byte	.LFB77
 9718 007c 5C010000 		.4byte	.LFE77-.LFB77
 9719 0080 00000000 		.4byte	.LFB78
 9720 0084 BC010000 		.4byte	.LFE78-.LFB78
 9721 0088 00000000 		.4byte	.LFB79
 9722 008c 0C010000 		.4byte	.LFE79-.LFB79
 9723 0090 00000000 		.4byte	.LFB80
 9724 0094 94010000 		.4byte	.LFE80-.LFB80
 9725 0098 00000000 		.4byte	.LFB81
 9726 009c 64000000 		.4byte	.LFE81-.LFB81
 9727 00a0 00000000 		.4byte	.LFB82
 9728 00a4 88010000 		.4byte	.LFE82-.LFB82
 9729 00a8 00000000 		.4byte	.LFB83
 9730 00ac B8000000 		.4byte	.LFE83-.LFB83
 9731 00b0 00000000 		.4byte	.LFB84
 9732 00b4 74000000 		.4byte	.LFE84-.LFB84
 9733 00b8 00000000 		.4byte	.LFB85
 9734 00bc E0140000 		.4byte	.LFE85-.LFB85
 9735 00c0 00000000 		.4byte	0
 9736 00c4 00000000 		.4byte	0
 9737              		.section	.debug_ranges,"",%progbits
 9738              	.Ldebug_ranges0:
 9739 0000 00000000 		.4byte	.LFB64
 9740 0004 1C000000 		.4byte	.LFE64
 9741 0008 00000000 		.4byte	.LFB65
 9742 000c 1C000000 		.4byte	.LFE65
 9743 0010 00000000 		.4byte	.LFB66
 9744 0014 58000000 		.4byte	.LFE66
 9745 0018 00000000 		.4byte	.LFB67
 9746 001c 1C000000 		.4byte	.LFE67
 9747 0020 00000000 		.4byte	.LFB68
 9748 0024 A8000000 		.4byte	.LFE68
 9749 0028 00000000 		.4byte	.LFB69
 9750 002c BC010000 		.4byte	.LFE69
 9751 0030 00000000 		.4byte	.LFB70
 9752 0034 88010000 		.4byte	.LFE70
 9753 0038 00000000 		.4byte	.LFB71
 9754 003c 38000000 		.4byte	.LFE71
 9755 0040 00000000 		.4byte	.LFB72
 9756 0044 E0000000 		.4byte	.LFE72
 9757 0048 00000000 		.4byte	.LFB73
 9758 004c B8010000 		.4byte	.LFE73
 9759 0050 00000000 		.4byte	.LFB74
 9760 0054 60010000 		.4byte	.LFE74
 9761 0058 00000000 		.4byte	.LFB75
 9762 005c 3C010000 		.4byte	.LFE75
 9763 0060 00000000 		.4byte	.LFB76
 9764 0064 68010000 		.4byte	.LFE76
 9765 0068 00000000 		.4byte	.LFB77
 9766 006c 5C010000 		.4byte	.LFE77
 9767 0070 00000000 		.4byte	.LFB78
 9768 0074 BC010000 		.4byte	.LFE78
 9769 0078 00000000 		.4byte	.LFB79
 9770 007c 0C010000 		.4byte	.LFE79
 9771 0080 00000000 		.4byte	.LFB80
ARM GAS  C:\Users\JENNEW~1\AppData\Local\Temp\ccFpxs5T.s 			page 199


 9772 0084 94010000 		.4byte	.LFE80
 9773 0088 00000000 		.4byte	.LFB81
 9774 008c 64000000 		.4byte	.LFE81
 9775 0090 00000000 		.4byte	.LFB82
 9776 0094 88010000 		.4byte	.LFE82
 9777 0098 00000000 		.4byte	.LFB83
 9778 009c B8000000 		.4byte	.LFE83
 9779 00a0 00000000 		.4byte	.LFB84
 9780 00a4 74000000 		.4byte	.LFE84
 9781 00a8 00000000 		.4byte	.LFB85
 9782 00ac E0140000 		.4byte	.LFE85
 9783 00b0 00000000 		.4byte	0
 9784 00b4 00000000 		.4byte	0
 9785              		.section	.debug_line,"",%progbits
 9786              	.Ldebug_line0:
 9787 0000 3B0B0000 		.section	.debug_str,"MS",%progbits,1
 9787      0200E601 
 9787      00000201 
 9787      FB0E0D00 
 9787      01010101 
 9788              	.LASF140:
 9789 0000 68616D66 		.ascii	"hamfly_gimbal_t\000"
 9789      6C795F67 
 9789      696D6261 
 9789      6C5F7400 
 9790              	.LASF187:
 9791 0010 6D6F6465 		.ascii	"mode_str\000"
 9791      5F737472 
 9791      00
 9792              	.LASF49:
 9793 0019 67696D62 		.ascii	"gimbal_status1\000"
 9793      616C5F73 
 9793      74617475 
 9793      733100
 9794              	.LASF50:
 9795 0028 67696D62 		.ascii	"gimbal_status2\000"
 9795      616C5F73 
 9795      74617475 
 9795      733200
 9796              	.LASF110:
 9797 0037 73797365 		.ascii	"sysecho_valid\000"
 9797      63686F5F 
 9797      76616C69 
 9797      6400
 9798              	.LASF26:
 9799 0045 73697A65 		.ascii	"sizetype\000"
 9799      74797065 
 9799      00
 9800              	.LASF163:
 9801 004e 665F6F75 		.ascii	"f_out\000"
 9801      7400
 9802              	.LASF117:
 9803 0054 7461696C 		.ascii	"tail\000"
 9803      00
 9804              	.LASF250:
 9805 0059 6973725F 		.ascii	"isr_rx_movi_Handler\000"
 9805      72785F6D 
ARM GAS  C:\Users\JENNEW~1\AppData\Local\Temp\ccFpxs5T.s 			page 200


 9805      6F76695F 
 9805      48616E64 
 9805      6C657200 
 9806              	.LASF134:
 9807 006d 70656E64 		.ascii	"pending_sent_ms\000"
 9807      696E675F 
 9807      73656E74 
 9807      5F6D7300 
 9808              	.LASF17:
 9809 007d 696E7433 		.ascii	"int32_t\000"
 9809      325F7400 
 9810              	.LASF148:
 9811 0085 6A6F795F 		.ascii	"joy_cal_t\000"
 9811      63616C5F 
 9811      7400
 9812              	.LASF74:
 9813 008f 6174745F 		.ascii	"att_pitch_deg\000"
 9813      70697463 
 9813      685F6465 
 9813      6700
 9814              	.LASF235:
 9815 009d 73657474 		.ascii	"settled\000"
 9815      6C656400 
 9816              	.LASF135:
 9817 00a5 70656E64 		.ascii	"pending_ready\000"
 9817      696E675F 
 9817      72656164 
 9817      7900
 9818              	.LASF41:
 9819 00b3 68616D66 		.ascii	"hamfly_control_t\000"
 9819      6C795F63 
 9819      6F6E7472 
 9819      6F6C5F74 
 9819      00
 9820              	.LASF164:
 9821 00c4 7369676E 		.ascii	"sign\000"
 9821      00
 9822              	.LASF87:
 9823 00c9 666C6167 		.ascii	"flag_gps_locked\000"
 9823      5F677073 
 9823      5F6C6F63 
 9823      6B656400 
 9824              	.LASF205:
 9825 00d9 6374726C 		.ascii	"ctrl_mode\000"
 9825      5F6D6F64 
 9825      6500
 9826              	.LASF243:
 9827 00e3 675F6D6F 		.ascii	"g_movi\000"
 9827      766900
 9828              	.LASF220:
 9829 00ea 70726573 		.ascii	"preset_sent_ms\000"
 9829      65745F73 
 9829      656E745F 
 9829      6D7300
 9830              	.LASF66:
 9831 00f9 6770735F 		.ascii	"gps_raw_hacc\000"
 9831      7261775F 
ARM GAS  C:\Users\JENNEW~1\AppData\Local\Temp\ccFpxs5T.s 			page 201


 9831      68616363 
 9831      00
 9832              	.LASF51:
 9833 0106 6770735F 		.ascii	"gps_valid\000"
 9833      76616C69 
 9833      6400
 9834              	.LASF198:
 9835 0110 7072696E 		.ascii	"print_motor\000"
 9835      745F6D6F 
 9835      746F7200 
 9836              	.LASF98:
 9837 011c 73797373 		.ascii	"sysstat_batt_a\000"
 9837      7461745F 
 9837      62617474 
 9837      5F6100
 9838              	.LASF211:
 9839 012b 6170705F 		.ascii	"app_mode\000"
 9839      6D6F6465 
 9839      00
 9840              	.LASF46:
 9841 0134 67696D62 		.ascii	"gimbal_i\000"
 9841      616C5F69 
 9841      00
 9842              	.LASF47:
 9843 013d 67696D62 		.ascii	"gimbal_j\000"
 9843      616C5F6A 
 9843      00
 9844              	.LASF2:
 9845 0146 5F5F7569 		.ascii	"__uint8_t\000"
 9845      6E74385F 
 9845      7400
 9846              	.LASF88:
 9847 0150 73797373 		.ascii	"sysstat_batt_v\000"
 9847      7461745F 
 9847      62617474 
 9847      5F7600
 9848              	.LASF45:
 9849 015f 67696D62 		.ascii	"gimbal_r\000"
 9849      616C5F72 
 9849      00
 9850              	.LASF121:
 9851 0168 74785F62 		.ascii	"tx_bytes\000"
 9851      79746573 
 9851      00
 9852              	.LASF125:
 9853 0171 72786275 		.ascii	"rxbuf_drops\000"
 9853      665F6472 
 9853      6F707300 
 9854              	.LASF199:
 9855 017d 7072696E 		.ascii	"print_query_response\000"
 9855      745F7175 
 9855      6572795F 
 9855      72657370 
 9855      6F6E7365 
 9856              	.LASF53:
 9857 0192 6770735F 		.ascii	"gps_lat_deg\000"
 9857      6C61745F 
ARM GAS  C:\Users\JENNEW~1\AppData\Local\Temp\ccFpxs5T.s 			page 202


 9857      64656700 
 9858              	.LASF238:
 9859 019e 70616E5F 		.ascii	"pan_err\000"
 9859      65727200 
 9860              	.LASF8:
 9861 01a6 6C6F6E67 		.ascii	"long int\000"
 9861      20696E74 
 9861      00
 9862              	.LASF225:
 9863 01af 6F726967 		.ascii	"origin_set\000"
 9863      696E5F73 
 9863      657400
 9864              	.LASF67:
 9865 01ba 6770735F 		.ascii	"gps_raw_vacc\000"
 9865      7261775F 
 9865      76616363 
 9865      00
 9866              	.LASF252:
 9867 01c7 6D61696E 		.ascii	"main\000"
 9867      00
 9868              	.LASF138:
 9869 01cc 70656E64 		.ascii	"pending_payload\000"
 9869      696E675F 
 9869      7061796C 
 9869      6F616400 
 9870              	.LASF99:
 9871 01dc 73797373 		.ascii	"sysstat_charge_mah\000"
 9871      7461745F 
 9871      63686172 
 9871      67655F6D 
 9871      616800
 9872              	.LASF131:
 9873 01ef 74786275 		.ascii	"txbuf\000"
 9873      6600
 9874              	.LASF48:
 9875 01f5 67696D62 		.ascii	"gimbal_k\000"
 9875      616C5F6B 
 9875      00
 9876              	.LASF90:
 9877 01fe 73797373 		.ascii	"sysstat_temp_c\000"
 9877      7461745F 
 9877      74656D70 
 9877      5F6300
 9878              	.LASF116:
 9879 020d 68656164 		.ascii	"head\000"
 9879      00
 9880              	.LASF251:
 9881 0212 6973725F 		.ascii	"isr_Looptimer_Handler\000"
 9881      4C6F6F70 
 9881      74696D65 
 9881      725F4861 
 9881      6E646C65 
 9882              	.LASF55:
 9883 0228 6770735F 		.ascii	"gps_alt_m\000"
 9883      616C745F 
 9883      6D00
 9884              	.LASF0:
ARM GAS  C:\Users\JENNEW~1\AppData\Local\Temp\ccFpxs5T.s 			page 203


 9885 0232 7369676E 		.ascii	"signed char\000"
 9885      65642063 
 9885      68617200 
 9886              	.LASF14:
 9887 023e 75696E74 		.ascii	"uint8_t\000"
 9887      385F7400 
 9888              	.LASF179:
 9889 0246 74696C74 		.ascii	"tilt_deg\000"
 9889      5F646567 
 9889      00
 9890              	.LASF209:
 9891 024f 64627566 		.ascii	"dbuf\000"
 9891      00
 9892              	.LASF119:
 9893 0254 68616D66 		.ascii	"hamfly_rb_t\000"
 9893      6C795F72 
 9893      625F7400 
 9894              	.LASF1:
 9895 0260 756E7369 		.ascii	"unsigned char\000"
 9895      676E6564 
 9895      20636861 
 9895      7200
 9896              	.LASF229:
 9897 026e 64656661 		.ascii	"defaults\000"
 9897      756C7473 
 9897      00
 9898              	.LASF156:
 9899 0277 4150505F 		.ascii	"APP_MODE_CONTROL\000"
 9899      4D4F4445 
 9899      5F434F4E 
 9899      54524F4C 
 9899      00
 9900              	.LASF122:
 9901 0288 72785F70 		.ascii	"rx_packets\000"
 9901      61636B65 
 9901      747300
 9902              	.LASF165:
 9903 0293 636F6D70 		.ascii	"compute_euler\000"
 9903      7574655F 
 9903      65756C65 
 9903      7200
 9904              	.LASF114:
 9905 02a1 5F426F6F 		.ascii	"_Bool\000"
 9905      6C00
 9906              	.LASF31:
 9907 02a7 48414D46 		.ascii	"HAMFLY_RATE\000"
 9907      4C595F52 
 9907      41544500 
 9908              	.LASF23:
 9909 02b3 63686172 		.ascii	"char\000"
 9909      00
 9910              	.LASF176:
 9911 02b8 636F7372 		.ascii	"cosr\000"
 9911      00
 9912              	.LASF73:
 9913 02bd 6174745F 		.ascii	"att_timestamp_ms\000"
 9913      74696D65 
ARM GAS  C:\Users\JENNEW~1\AppData\Local\Temp\ccFpxs5T.s 			page 204


 9913      7374616D 
 9913      705F6D73 
 9913      00
 9914              	.LASF76:
 9915 02ce 6174745F 		.ascii	"att_roll_deg\000"
 9915      726F6C6C 
 9915      5F646567 
 9915      00
 9916              	.LASF86:
 9917 02db 666C6167 		.ascii	"flag_radio_los\000"
 9917      5F726164 
 9917      696F5F6C 
 9917      6F7300
 9918              	.LASF181:
 9919 02ea 636F7379 		.ascii	"cosy\000"
 9919      00
 9920              	.LASF5:
 9921 02ef 5F5F7569 		.ascii	"__uint16_t\000"
 9921      6E743136 
 9921      5F7400
 9922              	.LASF104:
 9923 02fa 6D61675F 		.ascii	"mag_magnitude\000"
 9923      6D61676E 
 9923      69747564 
 9923      6500
 9924              	.LASF178:
 9925 0308 73696E70 		.ascii	"sinp\000"
 9925      00
 9926              	.LASF175:
 9927 030d 73696E72 		.ascii	"sinr\000"
 9927      00
 9928              	.LASF200:
 9929 0312 61747472 		.ascii	"attr\000"
 9929      00
 9930              	.LASF180:
 9931 0317 73696E79 		.ascii	"siny\000"
 9931      00
 9932              	.LASF100:
 9933 031c 6D61675F 		.ascii	"mag_valid\000"
 9933      76616C69 
 9933      6400
 9934              	.LASF147:
 9935 0326 63656E74 		.ascii	"center\000"
 9935      657200
 9936              	.LASF246:
 9937 032d 675F7469 		.ascii	"g_tick_ms\000"
 9937      636B5F6D 
 9937      7300
 9938              	.LASF44:
 9939 0337 62617474 		.ascii	"battery_right_v\000"
 9939      6572795F 
 9939      72696768 
 9939      745F7600 
 9940              	.LASF142:
 9941 0347 53454E53 		.ascii	"SENSE_MED\000"
 9941      455F4D45 
 9941      4400
ARM GAS  C:\Users\JENNEW~1\AppData\Local\Temp\ccFpxs5T.s 			page 205


 9942              	.LASF85:
 9943 0351 666C6167 		.ascii	"flag_gps_los\000"
 9943      5F677073 
 9943      5F6C6F73 
 9943      00
 9944              	.LASF78:
 9945 035e 6174745F 		.ascii	"att_yaw_rate_dps\000"
 9945      7961775F 
 9945      72617465 
 9945      5F647073 
 9945      00
 9946              	.LASF127:
 9947 036f 68616D66 		.ascii	"hamfly_statistics_t\000"
 9947      6C795F73 
 9947      74617469 
 9947      73746963 
 9947      735F7400 
 9948              	.LASF249:
 9949 0383 433A5C55 		.ascii	"C:\\Users\\Jennewein\\Documents\\hamish-workspace\\"
 9949      73657273 
 9949      5C4A656E 
 9949      6E657765 
 9949      696E5C44 
 9950 03b1 50536F43 		.ascii	"PSoC-Programs\\test_projects\\Proj07_hamflyAPI_pres"
 9950      2D50726F 
 9950      6772616D 
 9950      735C7465 
 9950      73745F70 
 9951 03e2 63697369 		.ascii	"cisionPointing.cydsn\000"
 9951      6F6E506F 
 9951      696E7469 
 9951      6E672E63 
 9951      7964736E 
 9952              	.LASF56:
 9953 03f7 6770735F 		.ascii	"gps_ground_spd_ms\000"
 9953      67726F75 
 9953      6E645F73 
 9953      70645F6D 
 9953      7300
 9954              	.LASF212:
 9955 0409 6A6F7973 		.ascii	"joystick_active\000"
 9955      7469636B 
 9955      5F616374 
 9955      69766500 
 9956              	.LASF93:
 9957 0419 73797373 		.ascii	"sysstat_time_s\000"
 9957      7461745F 
 9957      74696D65 
 9957      5F7300
 9958              	.LASF124:
 9959 0428 72785F62 		.ascii	"rx_bad_checksum\000"
 9959      61645F63 
 9959      6865636B 
 9959      73756D00 
 9960              	.LASF59:
 9961 0438 6770735F 		.ascii	"gps_vacc_m\000"
 9961      76616363 
ARM GAS  C:\Users\JENNEW~1\AppData\Local\Temp\ccFpxs5T.s 			page 206


 9961      5F6D00
 9962              	.LASF157:
 9963 0443 4150505F 		.ascii	"APP_MODE_QUERY\000"
 9963      4D4F4445 
 9963      5F515545 
 9963      525900
 9964              	.LASF64:
 9965 0452 6770735F 		.ascii	"gps_raw_spd\000"
 9965      7261775F 
 9965      73706400 
 9966              	.LASF126:
 9967 045e 75617274 		.ascii	"uart_err_flags\000"
 9967      5F657272 
 9967      5F666C61 
 9967      677300
 9968              	.LASF136:
 9969 046d 70656E64 		.ascii	"pending_response_attr\000"
 9969      696E675F 
 9969      72657370 
 9969      6F6E7365 
 9969      5F617474 
 9970              	.LASF89:
 9971 0483 73797373 		.ascii	"sysstat_gps_sats\000"
 9971      7461745F 
 9971      6770735F 
 9971      73617473 
 9971      00
 9972              	.LASF72:
 9973 0494 6174745F 		.ascii	"att_valid\000"
 9973      76616C69 
 9973      6400
 9974              	.LASF224:
 9975 049e 6F726967 		.ascii	"origin_tilt_deg\000"
 9975      696E5F74 
 9975      696C745F 
 9975      64656700 
 9976              	.LASF132:
 9977 04ae 67696D62 		.ascii	"gimbal_id\000"
 9977      616C5F69 
 9977      6400
 9978              	.LASF231:
 9979 04b8 63757272 		.ascii	"current_sense\000"
 9979      656E745F 
 9979      73656E73 
 9979      6500
 9980              	.LASF152:
 9981 04c6 4A4F595F 		.ascii	"JOY_CAL_CONFIRM_SAVE\000"
 9981      43414C5F 
 9981      434F4E46 
 9981      49524D5F 
 9981      53415645 
 9982              	.LASF106:
 9983 04db 6D61675F 		.ascii	"mag_off_x\000"
 9983      6F66665F 
 9983      7800
 9984              	.LASF107:
 9985 04e5 6D61675F 		.ascii	"mag_off_y\000"
ARM GAS  C:\Users\JENNEW~1\AppData\Local\Temp\ccFpxs5T.s 			page 207


 9985      6F66665F 
 9985      7900
 9986              	.LASF108:
 9987 04ef 6D61675F 		.ascii	"mag_off_z\000"
 9987      6F66665F 
 9987      7A00
 9988              	.LASF241:
 9989 04f9 6472765F 		.ascii	"drv_err\000"
 9989      65727200 
 9990              	.LASF240:
 9991 0501 696D755F 		.ascii	"imu_err\000"
 9991      65727200 
 9992              	.LASF226:
 9993 0509 6C617374 		.ascii	"last_tx_ms\000"
 9993      5F74785F 
 9993      6D7300
 9994              	.LASF60:
 9995 0514 6770735F 		.ascii	"gps_sacc_ms\000"
 9995      73616363 
 9995      5F6D7300 
 9996              	.LASF113:
 9997 0520 73797365 		.ascii	"sysecho_imu_rate\000"
 9997      63686F5F 
 9997      696D755F 
 9997      72617465 
 9997      00
 9998              	.LASF10:
 9999 0531 6C6F6E67 		.ascii	"long unsigned int\000"
 9999      20756E73 
 9999      69676E65 
 9999      6420696E 
 9999      7400
 10000              	.LASF213:
 10001 0543 73747265 		.ascii	"streaming_adc\000"
 10001      616D696E 
 10001      675F6164 
 10001      6300
 10002              	.LASF58:
 10003 0551 6770735F 		.ascii	"gps_hacc_m\000"
 10003      68616363 
 10003      5F6D00
 10004              	.LASF94:
 10005 055c 73797373 		.ascii	"sysstat_pressure_mb\000"
 10005      7461745F 
 10005      70726573 
 10005      73757265 
 10005      5F6D6200 
 10006              	.LASF150:
 10007 0570 4A4F595F 		.ascii	"JOY_CAL_RANGE_CAPTURE\000"
 10007      43414C5F 
 10007      52414E47 
 10007      455F4341 
 10007      50545552 
 10008              	.LASF115:
 10009 0586 68616D66 		.ascii	"hamfly_telemetry_t\000"
 10009      6C795F74 
 10009      656C656D 
ARM GAS  C:\Users\JENNEW~1\AppData\Local\Temp\ccFpxs5T.s 			page 208


 10009      65747279 
 10009      5F7400
 10010              	.LASF112:
 10011 0599 73797365 		.ascii	"sysecho_pressure_mb\000"
 10011      63686F5F 
 10011      70726573 
 10011      73757265 
 10011      5F6D6200 
 10012              	.LASF201:
 10013 05ad 646F5F6B 		.ascii	"do_kill\000"
 10013      696C6C00 
 10014              	.LASF61:
 10015 05b5 6770735F 		.ascii	"gps_raw_lat\000"
 10015      7261775F 
 10015      6C617400 
 10016              	.LASF27:
 10017 05c1 75617274 		.ascii	"uart_putc\000"
 10017      5F707574 
 10017      6300
 10018              	.LASF204:
 10019 05cb 73747265 		.ascii	"streaming\000"
 10019      616D696E 
 10019      6700
 10020              	.LASF82:
 10021 05d5 6174745F 		.ascii	"att_yaw_err_deg\000"
 10021      7961775F 
 10021      6572725F 
 10021      64656700 
 10022              	.LASF141:
 10023 05e5 53454E53 		.ascii	"SENSE_LOW\000"
 10023      455F4C4F 
 10023      5700
 10024              	.LASF97:
 10025 05ef 73797373 		.ascii	"sysstat_imu_latency\000"
 10025      7461745F 
 10025      696D755F 
 10025      6C617465 
 10025      6E637900 
 10026              	.LASF77:
 10027 0603 6174745F 		.ascii	"att_pitch_rate_dps\000"
 10027      70697463 
 10027      685F7261 
 10027      74655F64 
 10027      707300
 10028              	.LASF177:
 10029 0616 726F6C6C 		.ascii	"roll_deg\000"
 10029      5F646567 
 10029      00
 10030              	.LASF247:
 10031 061f 474E5520 		.ascii	"GNU C11 5.4.1 20160609 (release) [ARM/embedded-5-br"
 10031      43313120 
 10031      352E342E 
 10031      31203230 
 10031      31363036 
 10032 0652 616E6368 		.ascii	"anch revision 237715] -mcpu=cortex-m3 -mthumb -g -O"
 10032      20726576 
 10032      6973696F 
ARM GAS  C:\Users\JENNEW~1\AppData\Local\Temp\ccFpxs5T.s 			page 209


 10032      6E203233 
 10032      37373135 
 10033 0685 30202D66 		.ascii	"0 -ffunction-sections -ffat-lto-objects\000"
 10033      66756E63 
 10033      74696F6E 
 10033      2D736563 
 10033      74696F6E 
 10034              	.LASF130:
 10035 06ad 72786275 		.ascii	"rxbuf\000"
 10035      6600
 10036              	.LASF186:
 10037 06b3 74696C74 		.ascii	"tilt_deg_out\000"
 10037      5F646567 
 10037      5F6F7574 
 10037      00
 10038              	.LASF9:
 10039 06c0 5F5F7569 		.ascii	"__uint32_t\000"
 10039      6E743332 
 10039      5F7400
 10040              	.LASF43:
 10041 06cb 62617474 		.ascii	"battery_left_v\000"
 10041      6572795F 
 10041      6C656674 
 10041      5F7600
 10042              	.LASF11:
 10043 06da 6C6F6E67 		.ascii	"long long int\000"
 10043      206C6F6E 
 10043      6720696E 
 10043      7400
 10044              	.LASF33:
 10045 06e8 68616D66 		.ascii	"hamfly_control_mode_t\000"
 10045      6C795F63 
 10045      6F6E7472 
 10045      6F6C5F6D 
 10045      6F64655F 
 10046              	.LASF81:
 10047 06fe 6174745F 		.ascii	"att_pitch_err_deg\000"
 10047      70697463 
 10047      685F6572 
 10047      725F6465 
 10047      6700
 10048              	.LASF183:
 10049 0710 70736F63 		.ascii	"psoc_get_tick\000"
 10049      5F676574 
 10049      5F746963 
 10049      6B00
 10050              	.LASF57:
 10051 071e 6770735F 		.ascii	"gps_heading_deg\000"
 10051      68656164 
 10051      696E675F 
 10051      64656700 
 10052              	.LASF39:
 10053 072e 656E6162 		.ascii	"enable\000"
 10053      6C6500
 10054              	.LASF182:
 10055 0735 70616E5F 		.ascii	"pan_deg\000"
 10055      64656700 
ARM GAS  C:\Users\JENNEW~1\AppData\Local\Temp\ccFpxs5T.s 			page 210


 10056              	.LASF206:
 10057 073d 7072696E 		.ascii	"print_quat_crosscheck\000"
 10057      745F7175 
 10057      61745F63 
 10057      726F7373 
 10057      63686563 
 10058              	.LASF139:
 10059 0753 70656E64 		.ascii	"pending_payload_len\000"
 10059      696E675F 
 10059      7061796C 
 10059      6F61645F 
 10059      6C656E00 
 10060              	.LASF22:
 10061 0767 646F7562 		.ascii	"double\000"
 10061      6C6500
 10062              	.LASF248:
 10063 076e 6D61696E 		.ascii	"main.c\000"
 10063      2E6300
 10064              	.LASF234:
 10065 0775 63616C5F 		.ascii	"cal_now\000"
 10065      6E6F7700 
 10066              	.LASF95:
 10067 077d 73797373 		.ascii	"sysstat_imu_rate\000"
 10067      7461745F 
 10067      696D755F 
 10067      72617465 
 10067      00
 10068              	.LASF245:
 10069 078e 49544D5F 		.ascii	"ITM_RxBuffer\000"
 10069      52784275 
 10069      66666572 
 10069      00
 10070              	.LASF123:
 10071 079b 72785F62 		.ascii	"rx_bytes\000"
 10071      79746573 
 10071      00
 10072              	.LASF21:
 10073 07a4 666C6F61 		.ascii	"float\000"
 10073      7400
 10074              	.LASF160:
 10075 07aa 70736F63 		.ascii	"psoc_uart_putc\000"
 10075      5F756172 
 10075      745F7075 
 10075      746300
 10076              	.LASF168:
 10077 07b9 70616E5F 		.ascii	"pan_f\000"
 10077      6600
 10078              	.LASF167:
 10079 07bf 70616E5F 		.ascii	"pan_i\000"
 10079      6900
 10080              	.LASF162:
 10081 07c5 695F6F75 		.ascii	"i_out\000"
 10081      7400
 10082              	.LASF166:
 10083 07cb 70616E5F 		.ascii	"pan_s\000"
 10083      7300
 10084              	.LASF13:
ARM GAS  C:\Users\JENNEW~1\AppData\Local\Temp\ccFpxs5T.s 			page 211


 10085 07d1 756E7369 		.ascii	"unsigned int\000"
 10085      676E6564 
 10085      20696E74 
 10085      00
 10086              	.LASF237:
 10087 07de 74696C74 		.ascii	"tilt_now\000"
 10087      5F6E6F77 
 10087      00
 10088              	.LASF171:
 10089 07e7 74696C74 		.ascii	"tilt_f\000"
 10089      5F6600
 10090              	.LASF170:
 10091 07ee 74696C74 		.ascii	"tilt_i\000"
 10091      5F6900
 10092              	.LASF169:
 10093 07f5 74696C74 		.ascii	"tilt_s\000"
 10093      5F7300
 10094              	.LASF215:
 10095 07fc 73686F77 		.ascii	"show_platform_yaw\000"
 10095      5F706C61 
 10095      74666F72 
 10095      6D5F7961 
 10095      7700
 10096              	.LASF38:
 10097 080e 726F6C6C 		.ascii	"roll_mode\000"
 10097      5F6D6F64 
 10097      6500
 10098              	.LASF228:
 10099 0818 636F756E 		.ascii	"counts\000"
 10099      747300
 10100              	.LASF63:
 10101 081f 6770735F 		.ascii	"gps_raw_alt\000"
 10101      7261775F 
 10101      616C7400 
 10102              	.LASF143:
 10103 082b 53454E53 		.ascii	"SENSE_HIGH\000"
 10103      455F4849 
 10103      474800
 10104              	.LASF101:
 10105 0836 6D61675F 		.ascii	"mag_x\000"
 10105      7800
 10106              	.LASF102:
 10107 083c 6D61675F 		.ascii	"mag_y\000"
 10107      7900
 10108              	.LASF103:
 10109 0842 6D61675F 		.ascii	"mag_z\000"
 10109      7A00
 10110              	.LASF75:
 10111 0848 6174745F 		.ascii	"att_yaw_deg\000"
 10111      7961775F 
 10111      64656700 
 10112              	.LASF144:
 10113 0854 6A6F795F 		.ascii	"joy_sensitivity_t\000"
 10113      73656E73 
 10113      69746976 
 10113      6974795F 
 10113      7400
ARM GAS  C:\Users\JENNEW~1\AppData\Local\Temp\ccFpxs5T.s 			page 212


 10114              	.LASF242:
 10115 0866 67626C5F 		.ascii	"gbl_err\000"
 10115      65727200 
 10116              	.LASF195:
 10117 086e 7072696E 		.ascii	"print_mag\000"
 10117      745F6D61 
 10117      6700
 10118              	.LASF161:
 10119 0878 6465636F 		.ascii	"decomp\000"
 10119      6D7000
 10120              	.LASF32:
 10121 087f 48414D46 		.ascii	"HAMFLY_ABSOLUTE\000"
 10121      4C595F41 
 10121      42534F4C 
 10121      55544500 
 10122              	.LASF25:
 10123 088f 6C6F6E67 		.ascii	"long double\000"
 10123      20646F75 
 10123      626C6500 
 10124              	.LASF68:
 10125 089b 6770735F 		.ascii	"gps_raw_sacc\000"
 10125      7261775F 
 10125      73616363 
 10125      00
 10126              	.LASF128:
 10127 08a8 74656C65 		.ascii	"telemetry\000"
 10127      6D657472 
 10127      7900
 10128              	.LASF79:
 10129 08b2 6174745F 		.ascii	"att_roll_rate_dps\000"
 10129      726F6C6C 
 10129      5F726174 
 10129      655F6470 
 10129      7300
 10130              	.LASF29:
 10131 08c4 68616D66 		.ascii	"hamfly_hal_t\000"
 10131      6C795F68 
 10131      616C5F74 
 10131      00
 10132              	.LASF146:
 10133 08d1 6D617876 		.ascii	"maxv\000"
 10133      00
 10134              	.LASF151:
 10135 08d6 4A4F595F 		.ascii	"JOY_CAL_CENTER_CAPTURE\000"
 10135      43414C5F 
 10135      43454E54 
 10135      45525F43 
 10135      41505455 
 10136              	.LASF80:
 10137 08ed 6174745F 		.ascii	"att_roll_err_deg\000"
 10137      726F6C6C 
 10137      5F657272 
 10137      5F646567 
 10137      00
 10138              	.LASF221:
 10139 08fe 6E756467 		.ascii	"nudge_pan_deg\000"
 10139      655F7061 
ARM GAS  C:\Users\JENNEW~1\AppData\Local\Temp\ccFpxs5T.s 			page 213


 10139      6E5F6465 
 10139      6700
 10140              	.LASF36:
 10141 090c 70616E5F 		.ascii	"pan_mode\000"
 10141      6D6F6465 
 10141      00
 10142              	.LASF210:
 10143 0915 6E756467 		.ascii	"nudge_print_pos\000"
 10143      655F7072 
 10143      696E745F 
 10143      706F7300 
 10144              	.LASF12:
 10145 0925 6C6F6E67 		.ascii	"long long unsigned int\000"
 10145      206C6F6E 
 10145      6720756E 
 10145      7369676E 
 10145      65642069 
 10146              	.LASF92:
 10147 093c 73797373 		.ascii	"sysstat_status_flags\000"
 10147      7461745F 
 10147      73746174 
 10147      75735F66 
 10147      6C616773 
 10148              	.LASF230:
 10149 0951 63616C5F 		.ascii	"cal_prev\000"
 10149      70726576 
 10149      00
 10150              	.LASF232:
 10151 095a 6C617374 		.ascii	"last_button\000"
 10151      5F627574 
 10151      746F6E00 
 10152              	.LASF16:
 10153 0966 75696E74 		.ascii	"uint16_t\000"
 10153      31365F74 
 10153      00
 10154              	.LASF192:
 10155 096f 7072696E 		.ascii	"print_baro\000"
 10155      745F6261 
 10155      726F00
 10156              	.LASF233:
 10157 097a 696E7665 		.ascii	"invert_mask\000"
 10157      72745F6D 
 10157      61736B00 
 10158              	.LASF83:
 10159 0986 73797373 		.ascii	"sysstat_valid\000"
 10159      7461745F 
 10159      76616C69 
 10159      6400
 10160              	.LASF71:
 10161 0994 6261726F 		.ascii	"baro_roc_ms\000"
 10161      5F726F63 
 10161      5F6D7300 
 10162              	.LASF214:
 10163 09a0 64696167 		.ascii	"diag_active\000"
 10163      5F616374 
 10163      69766500 
 10164              	.LASF24:
ARM GAS  C:\Users\JENNEW~1\AppData\Local\Temp\ccFpxs5T.s 			page 214


 10165 09ac 72656738 		.ascii	"reg8\000"
 10165      00
 10166              	.LASF84:
 10167 09b1 666C6167 		.ascii	"flag_compass_error\000"
 10167      5F636F6D 
 10167      70617373 
 10167      5F657272 
 10167      6F7200
 10168              	.LASF34:
 10169 09c4 74696C74 		.ascii	"tilt\000"
 10169      00
 10170              	.LASF65:
 10171 09c9 6770735F 		.ascii	"gps_raw_hdg\000"
 10171      7261775F 
 10171      68646700 
 10172              	.LASF3:
 10173 09d5 5F5F696E 		.ascii	"__int16_t\000"
 10173      7431365F 
 10173      7400
 10174              	.LASF137:
 10175 09df 70656E64 		.ascii	"pending_response_len\000"
 10175      696E675F 
 10175      72657370 
 10175      6F6E7365 
 10175      5F6C656E 
 10176              	.LASF96:
 10177 09f4 73797373 		.ascii	"sysstat_cam_status\000"
 10177      7461745F 
 10177      63616D5F 
 10177      73746174 
 10177      757300
 10178              	.LASF159:
 10179 0a07 6170705F 		.ascii	"app_mode_t\000"
 10179      6D6F6465 
 10179      5F7400
 10180              	.LASF118:
 10181 0a12 64726F70 		.ascii	"drops\000"
 10181      7300
 10182              	.LASF193:
 10183 0a18 7072696E 		.ascii	"print_sysstat\000"
 10183      745F7379 
 10183      73737461 
 10183      7400
 10184              	.LASF189:
 10185 0a26 706C656E 		.ascii	"plen\000"
 10185      00
 10186              	.LASF216:
 10187 0a2b 6374726C 		.ascii	"ctrl_attr_pending\000"
 10187      5F617474 
 10187      725F7065 
 10187      6E64696E 
 10187      6700
 10188              	.LASF203:
 10189 0a3d 6A6F795F 		.ascii	"joy_active\000"
 10189      61637469 
 10189      766500
 10190              	.LASF37:
ARM GAS  C:\Users\JENNEW~1\AppData\Local\Temp\ccFpxs5T.s 			page 215


 10191 0a48 74696C74 		.ascii	"tilt_mode\000"
 10191      5F6D6F64 
 10191      6500
 10192              	.LASF174:
 10193 0a52 726F6C6C 		.ascii	"roll_f\000"
 10193      5F6600
 10194              	.LASF173:
 10195 0a59 726F6C6C 		.ascii	"roll_i\000"
 10195      5F6900
 10196              	.LASF172:
 10197 0a60 726F6C6C 		.ascii	"roll_s\000"
 10197      5F7300
 10198              	.LASF19:
 10199 0a67 75696E74 		.ascii	"uint8\000"
 10199      3800
 10200              	.LASF218:
 10201 0a6d 6162735F 		.ascii	"abs_tilt_target\000"
 10201      74696C74 
 10201      5F746172 
 10201      67657400 
 10202              	.LASF223:
 10203 0a7d 6F726967 		.ascii	"origin_pan_deg\000"
 10203      696E5F70 
 10203      616E5F64 
 10203      656700
 10204              	.LASF4:
 10205 0a8c 73686F72 		.ascii	"short int\000"
 10205      7420696E 
 10205      7400
 10206              	.LASF202:
 10207 0a96 6D6F6465 		.ascii	"mode\000"
 10207      00
 10208              	.LASF155:
 10209 0a9b 4150505F 		.ascii	"APP_MODE_STANDBY\000"
 10209      4D4F4445 
 10209      5F535441 
 10209      4E444259 
 10209      00
 10210              	.LASF15:
 10211 0aac 696E7431 		.ascii	"int16_t\000"
 10211      365F7400 
 10212              	.LASF184:
 10213 0ab4 6765745F 		.ascii	"get_euler_deg\000"
 10213      65756C65 
 10213      725F6465 
 10213      6700
 10214              	.LASF190:
 10215 0ac2 7072696E 		.ascii	"print_att\000"
 10215      745F6174 
 10215      7400
 10216              	.LASF239:
 10217 0acc 74696C74 		.ascii	"tilt_err\000"
 10217      5F657272 
 10217      00
 10218              	.LASF244:
 10219 0ad5 4D4F5649 		.ascii	"MOVI_HAL\000"
 10219      5F48414C 
ARM GAS  C:\Users\JENNEW~1\AppData\Local\Temp\ccFpxs5T.s 			page 216


 10219      00
 10220              	.LASF52:
 10221 0ade 6770735F 		.ascii	"gps_locked\000"
 10221      6C6F636B 
 10221      656400
 10222              	.LASF109:
 10223 0ae9 6D61675F 		.ascii	"mag_declination\000"
 10223      6465636C 
 10223      696E6174 
 10223      696F6E00 
 10224              	.LASF30:
 10225 0af9 48414D46 		.ascii	"HAMFLY_DEFER\000"
 10225      4C595F44 
 10225      45464552 
 10225      00
 10226              	.LASF129:
 10227 0b06 73746174 		.ascii	"statistics\000"
 10227      69737469 
 10227      637300
 10228              	.LASF236:
 10229 0b11 70616E5F 		.ascii	"pan_now\000"
 10229      6E6F7700 
 10230              	.LASF42:
 10231 0b19 76616C69 		.ascii	"valid\000"
 10231      6400
 10232              	.LASF69:
 10233 0b1f 6261726F 		.ascii	"baro_valid\000"
 10233      5F76616C 
 10233      696400
 10234              	.LASF40:
 10235 0b2a 6B696C6C 		.ascii	"kill\000"
 10235      00
 10236              	.LASF227:
 10237 0b2f 6C617374 		.ascii	"last_diag_ms\000"
 10237      5F646961 
 10237      675F6D73 
 10237      00
 10238              	.LASF20:
 10239 0b3c 696E7431 		.ascii	"int16\000"
 10239      3600
 10240              	.LASF120:
 10241 0b42 74785F70 		.ascii	"tx_packets\000"
 10241      61636B65 
 10241      747300
 10242              	.LASF18:
 10243 0b4d 75696E74 		.ascii	"uint32_t\000"
 10243      33325F74 
 10243      00
 10244              	.LASF133:
 10245 0b56 70656E64 		.ascii	"pending_attr\000"
 10245      696E675F 
 10245      61747472 
 10245      00
 10246              	.LASF158:
 10247 0b63 4150505F 		.ascii	"APP_MODE_NUDGE\000"
 10247      4D4F4445 
 10247      5F4E5544 
ARM GAS  C:\Users\JENNEW~1\AppData\Local\Temp\ccFpxs5T.s 			page 217


 10247      474500
 10248              	.LASF62:
 10249 0b72 6770735F 		.ascii	"gps_raw_lon\000"
 10249      7261775F 
 10249      6C6F6E00 
 10250              	.LASF28:
 10251 0b7e 6765745F 		.ascii	"get_tick_ms\000"
 10251      7469636B 
 10251      5F6D7300 
 10252              	.LASF191:
 10253 0b8a 7072696E 		.ascii	"print_gps\000"
 10253      745F6770 
 10253      7300
 10254              	.LASF153:
 10255 0b94 6A6F795F 		.ascii	"joy_cal_state_t\000"
 10255      63616C5F 
 10255      73746174 
 10255      655F7400 
 10256              	.LASF105:
 10257 0ba4 6D61675F 		.ascii	"mag_freq\000"
 10257      66726571 
 10257      00
 10258              	.LASF6:
 10259 0bad 73686F72 		.ascii	"short unsigned int\000"
 10259      7420756E 
 10259      7369676E 
 10259      65642069 
 10259      6E7400
 10260              	.LASF197:
 10261 0bc0 70697463 		.ascii	"pitch\000"
 10261      6800
 10262              	.LASF188:
 10263 0bc6 7072696E 		.ascii	"print_hex_dump\000"
 10263      745F6865 
 10263      785F6475 
 10263      6D7000
 10264              	.LASF35:
 10265 0bd5 726F6C6C 		.ascii	"roll\000"
 10265      00
 10266              	.LASF145:
 10267 0bda 6D696E76 		.ascii	"minv\000"
 10267      00
 10268              	.LASF7:
 10269 0bdf 5F5F696E 		.ascii	"__int32_t\000"
 10269      7433325F 
 10269      7400
 10270              	.LASF91:
 10271 0be9 73797373 		.ascii	"sysstat_cpu_pct\000"
 10271      7461745F 
 10271      6370755F 
 10271      70637400 
 10272              	.LASF217:
 10273 0bf9 6162735F 		.ascii	"abs_pan_target\000"
 10273      70616E5F 
 10273      74617267 
 10273      657400
 10274              	.LASF149:
ARM GAS  C:\Users\JENNEW~1\AppData\Local\Temp\ccFpxs5T.s 			page 218


 10275 0c08 4A4F595F 		.ascii	"JOY_CAL_OFF\000"
 10275      43414C5F 
 10275      4F464600 
 10276              	.LASF207:
 10277 0c14 63616C5F 		.ascii	"cal_prompt\000"
 10277      70726F6D 
 10277      707400
 10278              	.LASF111:
 10279 0c1f 73797365 		.ascii	"sysecho_gps_locked\000"
 10279      63686F5F 
 10279      6770735F 
 10279      6C6F636B 
 10279      656400
 10280              	.LASF70:
 10281 0c32 6261726F 		.ascii	"baro_alt_m\000"
 10281      5F616C74 
 10281      5F6D00
 10282              	.LASF196:
 10283 0c3d 7072696E 		.ascii	"print_platform\000"
 10283      745F706C 
 10283      6174666F 
 10283      726D00
 10284              	.LASF222:
 10285 0c4c 6E756467 		.ascii	"nudge_tilt_deg\000"
 10285      655F7469 
 10285      6C745F64 
 10285      656700
 10286              	.LASF54:
 10287 0c5b 6770735F 		.ascii	"gps_lon_deg\000"
 10287      6C6F6E5F 
 10287      64656700 
 10288              	.LASF194:
 10289 0c67 70726573 		.ascii	"pres\000"
 10289      00
 10290              	.LASF208:
 10291 0c6c 70726576 		.ascii	"prev\000"
 10291      00
 10292              	.LASF219:
 10293 0c71 6162735F 		.ascii	"abs_preset_active\000"
 10293      70726573 
 10293      65745F61 
 10293      63746976 
 10293      6500
 10294              	.LASF154:
 10295 0c83 6A6F795F 		.ascii	"joy_cmd_t\000"
 10295      636D645F 
 10295      7400
 10296              	.LASF185:
 10297 0c8d 70616E5F 		.ascii	"pan_deg_out\000"
 10297      6465675F 
 10297      6F757400 
 10298              		.ident	"GCC: (GNU Tools for ARM Embedded Processors) 5.4.1 20160609 (release) [ARM/embedded-5-bran
