ARM GAS  C:\Users\JENNEW~1\AppData\Local\Temp\ccFpxs5T.s 			page 1


   1              		.syntax unified
   2              		.cpu cortex-m3
   3              		.fpu softvfp
   4              		.eabi_attribute 20, 1
   5              		.eabi_attribute 21, 1
   6              		.eabi_attribute 23, 3
   7              		.eabi_attribute 24, 1
   8              		.eabi_attribute 25, 1
   9              		.eabi_attribute 26, 1
  10              		.eabi_attribute 30, 6
  11              		.eabi_attribute 34, 1
  12              		.eabi_attribute 18, 4
  13              		.thumb
  14              		.syntax unified
  15              		.file	"main.c"
  16              		.text
  17              	.Ltext0:
  18              		.cfi_sections	.debug_frame
  19              		.bss
  20              		.align	2
  21              	g_movi:
  22 0000 00000000 		.space	896
  22      00000000 
  22      00000000 
  22      00000000 
  22      00000000 
  23              		.global	g_tick_ms
  24              		.align	2
  25              		.type	g_tick_ms, %object
  26              		.size	g_tick_ms, 4
  27              	g_tick_ms:
  28 0380 00000000 		.space	4
  29              		.section	.text.psoc_uart_putc,"ax",%progbits
  30              		.align	2
  31              		.thumb
  32              		.thumb_func
  33              		.type	psoc_uart_putc, %function
  34              	psoc_uart_putc:
  35              	.LFB64:
  36              		.file 1 "main.c"
   1:main.c        **** /* main.c
   2:main.c        ****  * Author: Hamish Johnson
   3:main.c        ****  * Org: Quantum Internet Systems Lab, SFU, Physics
   4:main.c        ****  * Date: March 2026
   5:main.c        ****  *
   6:main.c        ****  * Uses HamflyAPI (hamfly.h) for all gimbal communication.
   7:main.c        ****  *
   8:main.c        ****  * Modes:
   9:main.c        ****  *   STANDBY   passive; pump runs; 1 Hz status if telemetry valid.
  10:main.c        ****  *             Set boresight origin here before entering other modes.
  11:main.c        ****  *   CONTROL   10 Hz QX277 TX.  Joystick (rate) and numpad presets
  12:main.c        ****  *             share the mode — preset executes, settles to within
  13:main.c        ****  *             PRESET_SETTLE_DEG of target (or PRESET_SETTLE_MS
  14:main.c        ****  *             timeout), then joystick resumes automatically.
  15:main.c        ****  *   QUERY     one-shot attr reads with verbose print or 2 s timeout.
  16:main.c        ****  *             No periodic TX; gimbal holds last command.
  17:main.c        ****  *   NUDGE     keyboard-driven absolute accumulation for beam-profiler
ARM GAS  C:\Users\JENNEW~1\AppData\Local\Temp\ccFpxs5T.s 			page 2


  18:main.c        ****  *             calibration.  Each keypress adds a fixed step to the
  19:main.c        ****  *             accumulated pan/tilt target, clamped to software limits.
  20:main.c        ****  *             Current accumulated position prints after every step.
  21:main.c        ****  *             No joystick input in this mode.
  22:main.c        ****  *
  23:main.c        ****  * Keys — STANDBY:
  24:main.c        ****  *   m  enter CONTROL      q  enter QUERY
  25:main.c        ****  *   n  enter NUDGE        s  toggle ADC stream
  26:main.c        ****  *   j  toggle joystick    l  cycle DEFER/RATE/ABS
  27:main.c        ****  *   c  calibration        k  kill + STANDBY
  28:main.c        ****  *   x  kill + quiet
  29:main.c        ****  *   z  command (0, 0) absolute  (go to boresight)
  30:main.c        ****  *   [  set limit origin at current Euler position
  31:main.c        ****  *      (prints Euler first so you can confirm boresight)
  32:main.c        ****  *
  33:main.c        ****  * Keys — CONTROL (plus all STANDBY keys active):
  34:main.c        ****  *   Numpad presets (require ABS mode via 'l'):
  35:main.c        ****  *     8  tilt +25 deg      2  tilt -25 deg      5  tilt  0 deg
  36:main.c        ****  *     4  pan  -45 deg      6  pan  +45 deg       0  pan   0 deg
  37:main.c        ****  *   (preset executes, joystick resumes automatically after settle)
  38:main.c        ****  *   p  toggle platform-yaw display in 1 Hz diag
  39:main.c        ****  *
  40:main.c        ****  * Keys — QUERY:
  41:main.c        ****  *   a  attr 22 euler       g  attr  4 GPS
  42:main.c        ****  *   b  attr  3 baro        s  attr  1 sysstat
  43:main.c        ****  *   n  attr 12 mag         2  attr  2 platform att
  44:main.c        ****  *   4  attr 48 motor       q  quat crosscheck
  45:main.c        ****  *   t  exit to STANDBY     x  kill + exit
  46:main.c        ****  *
  47:main.c        ****  * Keys — NUDGE:
  48:main.c        ****  *   j  pan  left  (NUDGE_SMALL_DEG)    l  pan  right (NUDGE_SMALL_DEG)
  49:main.c        ****  *   i  tilt up    (NUDGE_SMALL_DEG)    k  tilt down  (NUDGE_SMALL_DEG)
  50:main.c        ****  *   a  pan  left  (NUDGE_LARGE_DEG)    d  pan  right (NUDGE_LARGE_DEG)
  51:main.c        ****  *   w  tilt up    (NUDGE_LARGE_DEG)    s  tilt down  (NUDGE_LARGE_DEG)
  52:main.c        ****  *   (accumulated pan/tilt printed after every step)
  53:main.c        ****  *   t  exit to STANDBY     x  kill + exit
  54:main.c        ****  */
  55:main.c        **** 
  56:main.c        **** #include <project.h>
  57:main.c        **** #include <stdio.h>
  58:main.c        **** #include <math.h>
  59:main.c        **** #include <string.h>
  60:main.c        **** 
  61:main.c        **** #include "hamfly.h"
  62:main.c        **** #include "adc_balanced.h"
  63:main.c        **** #include "joystick.h"
  64:main.c        **** #include "psoc_eeprom.h"
  65:main.c        **** 
  66:main.c        **** /* =========================================================================
  67:main.c        ****  * Timing constants
  68:main.c        ****  * ========================================================================= */
  69:main.c        **** #define TX_BUF_SIZE           160u
  70:main.c        **** #define CONTROL_PERIOD_MS     100u    /* 10 Hz control TX                       */
  71:main.c        **** #define DIAG_PERIOD_MS        1000u   /* 1 Hz diagnostic print                  */
  72:main.c        **** #define QUERY_TIMEOUT_MS      2000u   /* max wait for attr response in QUERY     */
  73:main.c        **** #define PRESET_SETTLE_MS      1500u   /* fallback timeout if threshold not met   */
  74:main.c        **** 
ARM GAS  C:\Users\JENNEW~1\AppData\Local\Temp\ccFpxs5T.s 			page 3


  75:main.c        **** /* =========================================================================
  76:main.c        ****  * Software limits
  77:main.c        ****  * Limits are relative to the boresight origin set with '[' in STANDBY.
  78:main.c        ****  * All values in degrees.
  79:main.c        ****  * ========================================================================= */
  80:main.c        **** #define LIMIT_PAN_MAX_DEG      15.0f
  81:main.c        **** #define LIMIT_PAN_MIN_DEG     -15.0f
  82:main.c        **** #define LIMIT_TILT_MAX_DEG     15.0f
  83:main.c        **** #define LIMIT_TILT_MIN_DEG    -15.0f
  84:main.c        **** 
  85:main.c        **** /* =========================================================================
  86:main.c        ****  * Nudge step sizes (degrees)
  87:main.c        ****  * ========================================================================= */
  88:main.c        **** #define NUDGE_SMALL_DEG         0.05f  /* jkli — smallest reliable gimbal step  */
  89:main.c        **** #define NUDGE_LARGE_DEG         0.5f   /* wasd — coarse step for beam scanning  */
  90:main.c        **** 
  91:main.c        **** /* =========================================================================
  92:main.c        ****  * Preset settle threshold
  93:main.c        ****  * Joystick resumes when |commanded - actual| < this value on both axes,
  94:main.c        ****  * or after PRESET_SETTLE_MS, whichever comes first.
  95:main.c        ****  * ========================================================================= */
  96:main.c        **** #define PRESET_SETTLE_DEG       0.5f
  97:main.c        **** 
  98:main.c        **** /* =========================================================================
  99:main.c        ****  * Utility macros
 100:main.c        ****  * ========================================================================= */
 101:main.c        **** #define DEG_TO_UNIT(d)   ((float)(d) / 180.0f)
 102:main.c        **** #define UNIT_TO_DEG(u)   ((float)(u) * 180.0f)
 103:main.c        **** #define CLAMP(v,lo,hi)   ((v)<(lo)?(lo):((v)>(hi)?(hi):(v)))
 104:main.c        **** #define FALSE  0u
 105:main.c        **** #define TRUE   1u
 106:main.c        **** #define CH_X   0u
 107:main.c        **** #define CH_Y   1u
 108:main.c        **** 
 109:main.c        **** /* =========================================================================
 110:main.c        ****  * App state
 111:main.c        ****  * ========================================================================= */
 112:main.c        **** typedef enum {
 113:main.c        ****     APP_MODE_STANDBY = 0,
 114:main.c        ****     APP_MODE_CONTROL,      /* joystick rate + numpad presets                   */
 115:main.c        ****     APP_MODE_QUERY,        /* one-shot attr reads, verbose print                */
 116:main.c        ****     APP_MODE_NUDGE,        /* keyboard abs-accumulation for beam calibration    */
 117:main.c        **** } app_mode_t;
 118:main.c        **** 
 119:main.c        **** /* =========================================================================
 120:main.c        ****  * Globals
 121:main.c        ****  * ========================================================================= */
 122:main.c        **** static hamfly_gimbal_t g_movi;
 123:main.c        **** volatile uint32_t      g_tick_ms = 0u;
 124:main.c        **** 
 125:main.c        **** /* =========================================================================
 126:main.c        ****  * HAL
 127:main.c        ****  * ========================================================================= */
 128:main.c        **** static void psoc_uart_putc(void *ctx, uint8_t b)
 129:main.c        **** {
  37              		.loc 1 129 0
  38              		.cfi_startproc
ARM GAS  C:\Users\JENNEW~1\AppData\Local\Temp\ccFpxs5T.s 			page 4


  39              		@ args = 0, pretend = 0, frame = 8
  40              		@ frame_needed = 1, uses_anonymous_args = 0
  41 0000 80B5     		push	{r7, lr}
  42              		.cfi_def_cfa_offset 8
  43              		.cfi_offset 7, -8
  44              		.cfi_offset 14, -4
  45 0002 82B0     		sub	sp, sp, #8
  46              		.cfi_def_cfa_offset 16
  47 0004 00AF     		add	r7, sp, #0
  48              		.cfi_def_cfa_register 7
  49 0006 7860     		str	r0, [r7, #4]
  50 0008 0B46     		mov	r3, r1
  51 000a FB70     		strb	r3, [r7, #3]
 130:main.c        ****     (void)ctx;
 131:main.c        ****     UART_MOVI_PutChar((char)b);
  52              		.loc 1 131 0
  53 000c FB78     		ldrb	r3, [r7, #3]	@ zero_extendqisi2
  54 000e 1846     		mov	r0, r3
  55 0010 FFF7FEFF 		bl	UART_MOVI_PutChar
 132:main.c        **** }
  56              		.loc 1 132 0
  57 0014 00BF     		nop
  58 0016 0837     		adds	r7, r7, #8
  59              		.cfi_def_cfa_offset 8
  60 0018 BD46     		mov	sp, r7
  61              		.cfi_def_cfa_register 13
  62              		@ sp needed
  63 001a 80BD     		pop	{r7, pc}
  64              		.cfi_endproc
  65              	.LFE64:
  66              		.size	psoc_uart_putc, .-psoc_uart_putc
  67              		.section	.text.psoc_get_tick,"ax",%progbits
  68              		.align	2
  69              		.thumb
  70              		.thumb_func
  71              		.type	psoc_get_tick, %function
  72              	psoc_get_tick:
  73              	.LFB65:
 133:main.c        **** 
 134:main.c        **** static uint32_t psoc_get_tick(void *ctx)
 135:main.c        **** {
  74              		.loc 1 135 0
  75              		.cfi_startproc
  76              		@ args = 0, pretend = 0, frame = 8
  77              		@ frame_needed = 1, uses_anonymous_args = 0
  78              		@ link register save eliminated.
  79 0000 80B4     		push	{r7}
  80              		.cfi_def_cfa_offset 4
  81              		.cfi_offset 7, -4
  82 0002 83B0     		sub	sp, sp, #12
  83              		.cfi_def_cfa_offset 16
  84 0004 00AF     		add	r7, sp, #0
  85              		.cfi_def_cfa_register 7
  86 0006 7860     		str	r0, [r7, #4]
 136:main.c        ****     (void)ctx;
 137:main.c        ****     return g_tick_ms;
  87              		.loc 1 137 0
ARM GAS  C:\Users\JENNEW~1\AppData\Local\Temp\ccFpxs5T.s 			page 5


  88 0008 034B     		ldr	r3, .L4
  89 000a 1B68     		ldr	r3, [r3]
 138:main.c        **** }
  90              		.loc 1 138 0
  91 000c 1846     		mov	r0, r3
  92 000e 0C37     		adds	r7, r7, #12
  93              		.cfi_def_cfa_offset 4
  94 0010 BD46     		mov	sp, r7
  95              		.cfi_def_cfa_register 13
  96              		@ sp needed
  97 0012 80BC     		pop	{r7}
  98              		.cfi_restore 7
  99              		.cfi_def_cfa_offset 0
 100 0014 7047     		bx	lr
 101              	.L5:
 102 0016 00BF     		.align	2
 103              	.L4:
 104 0018 00000000 		.word	g_tick_ms
 105              		.cfi_endproc
 106              	.LFE65:
 107              		.size	psoc_get_tick, .-psoc_get_tick
 108              		.section	.rodata
 109              		.align	2
 110              		.type	MOVI_HAL, %object
 111              		.size	MOVI_HAL, 12
 112              	MOVI_HAL:
 113 0000 00000000 		.word	0
 114 0004 00000000 		.word	psoc_uart_putc
 115 0008 00000000 		.word	psoc_get_tick
 116              		.section	.text.isr_rx_movi_Handler,"ax",%progbits
 117              		.align	2
 118              		.global	isr_rx_movi_Handler
 119              		.thumb
 120              		.thumb_func
 121              		.type	isr_rx_movi_Handler, %function
 122              	isr_rx_movi_Handler:
 123              	.LFB66:
 139:main.c        **** 
 140:main.c        **** static const hamfly_hal_t MOVI_HAL = {
 141:main.c        ****     .ctx         = NULL,
 142:main.c        ****     .uart_putc   = psoc_uart_putc,
 143:main.c        ****     .get_tick_ms = psoc_get_tick
 144:main.c        **** };
 145:main.c        **** 
 146:main.c        **** /* =========================================================================
 147:main.c        ****  * ISRs
 148:main.c        ****  * ========================================================================= */
 149:main.c        **** CY_ISR(isr_rx_movi_Handler)
 150:main.c        **** {
 124              		.loc 1 150 0
 125              		.cfi_startproc
 126              		@ args = 0, pretend = 0, frame = 8
 127              		@ frame_needed = 1, uses_anonymous_args = 0
 128 0000 80B5     		push	{r7, lr}
 129              		.cfi_def_cfa_offset 8
 130              		.cfi_offset 7, -8
 131              		.cfi_offset 14, -4
ARM GAS  C:\Users\JENNEW~1\AppData\Local\Temp\ccFpxs5T.s 			page 6


 132 0002 82B0     		sub	sp, sp, #8
 133              		.cfi_def_cfa_offset 16
 134 0004 00AF     		add	r7, sp, #0
 135              		.cfi_def_cfa_register 7
 136              	.L9:
 151:main.c        ****     uint8_t st;
 152:main.c        ****     do {
 153:main.c        ****         st = UART_MOVI_RXSTATUS_REG;
 137              		.loc 1 153 0
 138 0006 114B     		ldr	r3, .L10
 139 0008 1B78     		ldrb	r3, [r3]
 140 000a FB71     		strb	r3, [r7, #7]
 154:main.c        ****         if (st & (UART_MOVI_RX_STS_BREAK     |
 141              		.loc 1 154 0
 142 000c FB79     		ldrb	r3, [r7, #7]	@ zero_extendqisi2
 143 000e 03F01E03 		and	r3, r3, #30
 144 0012 002B     		cmp	r3, #0
 145 0014 04D0     		beq	.L7
 155:main.c        ****                   UART_MOVI_RX_STS_PAR_ERROR |
 156:main.c        ****                   UART_MOVI_RX_STS_STOP_ERROR|
 157:main.c        ****                   UART_MOVI_RX_STS_OVERRUN))
 158:main.c        ****             hamfly_on_uart_err_flags(&g_movi, st);
 146              		.loc 1 158 0
 147 0016 FB79     		ldrb	r3, [r7, #7]	@ zero_extendqisi2
 148 0018 1946     		mov	r1, r3
 149 001a 0D48     		ldr	r0, .L10+4
 150 001c FFF7FEFF 		bl	hamfly_on_uart_err_flags
 151              	.L7:
 159:main.c        ****         if (st & UART_MOVI_RX_STS_FIFO_NOTEMPTY)
 152              		.loc 1 159 0
 153 0020 FB79     		ldrb	r3, [r7, #7]	@ zero_extendqisi2
 154 0022 03F02003 		and	r3, r3, #32
 155 0026 002B     		cmp	r3, #0
 156 0028 06D0     		beq	.L8
 160:main.c        ****             hamfly_on_rx_byte(&g_movi, UART_MOVI_RXDATA_REG);
 157              		.loc 1 160 0
 158 002a 0A4B     		ldr	r3, .L10+8
 159 002c 1B78     		ldrb	r3, [r3]
 160 002e DBB2     		uxtb	r3, r3
 161 0030 1946     		mov	r1, r3
 162 0032 0748     		ldr	r0, .L10+4
 163 0034 FFF7FEFF 		bl	hamfly_on_rx_byte
 164              	.L8:
 161:main.c        ****     } while (st & UART_MOVI_RX_STS_FIFO_NOTEMPTY);
 165              		.loc 1 161 0
 166 0038 FB79     		ldrb	r3, [r7, #7]	@ zero_extendqisi2
 167 003a 03F02003 		and	r3, r3, #32
 168 003e 002B     		cmp	r3, #0
 169 0040 E1D1     		bne	.L9
 162:main.c        **** }
 170              		.loc 1 162 0
 171 0042 00BF     		nop
 172 0044 0837     		adds	r7, r7, #8
 173              		.cfi_def_cfa_offset 8
 174 0046 BD46     		mov	sp, r7
 175              		.cfi_def_cfa_register 13
 176              		@ sp needed
ARM GAS  C:\Users\JENNEW~1\AppData\Local\Temp\ccFpxs5T.s 			page 7


 177 0048 80BD     		pop	{r7, pc}
 178              	.L11:
 179 004a 00BF     		.align	2
 180              	.L10:
 181 004c 69640040 		.word	1073767529
 182 0050 00000000 		.word	g_movi
 183 0054 49640040 		.word	1073767497
 184              		.cfi_endproc
 185              	.LFE66:
 186              		.size	isr_rx_movi_Handler, .-isr_rx_movi_Handler
 187              		.section	.text.isr_Looptimer_Handler,"ax",%progbits
 188              		.align	2
 189              		.global	isr_Looptimer_Handler
 190              		.thumb
 191              		.thumb_func
 192              		.type	isr_Looptimer_Handler, %function
 193              	isr_Looptimer_Handler:
 194              	.LFB67:
 163:main.c        **** 
 164:main.c        **** CY_ISR(isr_Looptimer_Handler)
 165:main.c        **** {
 195              		.loc 1 165 0
 196              		.cfi_startproc
 197              		@ args = 0, pretend = 0, frame = 0
 198              		@ frame_needed = 1, uses_anonymous_args = 0
 199 0000 80B5     		push	{r7, lr}
 200              		.cfi_def_cfa_offset 8
 201              		.cfi_offset 7, -8
 202              		.cfi_offset 14, -4
 203 0002 00AF     		add	r7, sp, #0
 204              		.cfi_def_cfa_register 7
 166:main.c        ****     g_tick_ms++;
 205              		.loc 1 166 0
 206 0004 044B     		ldr	r3, .L13
 207 0006 1B68     		ldr	r3, [r3]
 208 0008 0133     		adds	r3, r3, #1
 209 000a 034A     		ldr	r2, .L13
 210 000c 1360     		str	r3, [r2]
 167:main.c        ****     Looptimer_ReadStatusRegister();
 211              		.loc 1 167 0
 212 000e FFF7FEFF 		bl	Looptimer_ReadStatusRegister
 168:main.c        **** }
 213              		.loc 1 168 0
 214 0012 00BF     		nop
 215 0014 80BD     		pop	{r7, pc}
 216              	.L14:
 217 0016 00BF     		.align	2
 218              	.L13:
 219 0018 00000000 		.word	g_tick_ms
 220              		.cfi_endproc
 221              	.LFE67:
 222              		.size	isr_Looptimer_Handler, .-isr_Looptimer_Handler
 223              		.global	__aeabi_fcmplt
 224              		.global	__aeabi_f2iz
 225              		.global	__aeabi_i2f
 226              		.global	__aeabi_fsub
 227              		.global	__aeabi_fmul
ARM GAS  C:\Users\JENNEW~1\AppData\Local\Temp\ccFpxs5T.s 			page 8


 228              		.section	.text.decomp,"ax",%progbits
 229              		.align	2
 230              		.thumb
 231              		.thumb_func
 232              		.type	decomp, %function
 233              	decomp:
 234              	.LFB68:
 169:main.c        **** 
 170:main.c        **** /* =========================================================================
 171:main.c        ****  * Helpers
 172:main.c        ****  * ========================================================================= */
 173:main.c        **** static void decomp(float val, int16_t *i_out, int16_t *f_out, char *sign)
 174:main.c        **** {
 235              		.loc 1 174 0
 236              		.cfi_startproc
 237              		@ args = 0, pretend = 0, frame = 16
 238              		@ frame_needed = 1, uses_anonymous_args = 0
 239 0000 80B5     		push	{r7, lr}
 240              		.cfi_def_cfa_offset 8
 241              		.cfi_offset 7, -8
 242              		.cfi_offset 14, -4
 243 0002 84B0     		sub	sp, sp, #16
 244              		.cfi_def_cfa_offset 24
 245 0004 00AF     		add	r7, sp, #0
 246              		.cfi_def_cfa_register 7
 247 0006 F860     		str	r0, [r7, #12]	@ float
 248 0008 B960     		str	r1, [r7, #8]
 249 000a 7A60     		str	r2, [r7, #4]
 250 000c 3B60     		str	r3, [r7]
 175:main.c        ****     *sign  = (val < 0.0f) ? '-' : ' ';
 251              		.loc 1 175 0
 252 000e 4FF00001 		mov	r1, #0
 253 0012 F868     		ldr	r0, [r7, #12]	@ float
 254 0014 FFF7FEFF 		bl	__aeabi_fcmplt
 255 0018 0346     		mov	r3, r0
 256 001a 002B     		cmp	r3, #0
 257 001c 01D0     		beq	.L24
 258              		.loc 1 175 0 is_stmt 0 discriminator 1
 259 001e 2D22     		movs	r2, #45
 260 0020 00E0     		b	.L18
 261              	.L24:
 262              		.loc 1 175 0 discriminator 2
 263 0022 2022     		movs	r2, #32
 264              	.L18:
 265              		.loc 1 175 0 discriminator 4
 266 0024 3B68     		ldr	r3, [r7]
 267 0026 1A70     		strb	r2, [r3]
 176:main.c        ****     if (val < 0.0f) val = -val;
 268              		.loc 1 176 0 is_stmt 1 discriminator 4
 269 0028 4FF00001 		mov	r1, #0
 270 002c F868     		ldr	r0, [r7, #12]	@ float
 271 002e FFF7FEFF 		bl	__aeabi_fcmplt
 272 0032 0346     		mov	r3, r0
 273 0034 002B     		cmp	r3, #0
 274 0036 03D0     		beq	.L19
 275              		.loc 1 176 0 is_stmt 0 discriminator 1
 276 0038 FB68     		ldr	r3, [r7, #12]
ARM GAS  C:\Users\JENNEW~1\AppData\Local\Temp\ccFpxs5T.s 			page 9


 277 003a 83F00043 		eor	r3, r3, #-2147483648
 278 003e FB60     		str	r3, [r7, #12]	@ float
 279              	.L19:
 177:main.c        ****     *i_out = (int16_t)val;
 280              		.loc 1 177 0 is_stmt 1
 281 0040 F868     		ldr	r0, [r7, #12]	@ float
 282 0042 FFF7FEFF 		bl	__aeabi_f2iz
 283 0046 0346     		mov	r3, r0
 284 0048 1AB2     		sxth	r2, r3
 285 004a BB68     		ldr	r3, [r7, #8]
 286 004c 1A80     		strh	r2, [r3]	@ movhi
 178:main.c        ****     *f_out = (int16_t)((val - (float)*i_out) * 100.0f);
 287              		.loc 1 178 0
 288 004e BB68     		ldr	r3, [r7, #8]
 289 0050 B3F90030 		ldrsh	r3, [r3]
 290 0054 1846     		mov	r0, r3
 291 0056 FFF7FEFF 		bl	__aeabi_i2f
 292 005a 0346     		mov	r3, r0
 293 005c 1946     		mov	r1, r3
 294 005e F868     		ldr	r0, [r7, #12]	@ float
 295 0060 FFF7FEFF 		bl	__aeabi_fsub
 296 0064 0346     		mov	r3, r0
 297 0066 0F49     		ldr	r1, .L26
 298 0068 1846     		mov	r0, r3
 299 006a FFF7FEFF 		bl	__aeabi_fmul
 300 006e 0346     		mov	r3, r0
 301 0070 1846     		mov	r0, r3
 302 0072 FFF7FEFF 		bl	__aeabi_f2iz
 303 0076 0346     		mov	r3, r0
 304 0078 1AB2     		sxth	r2, r3
 305 007a 7B68     		ldr	r3, [r7, #4]
 306 007c 1A80     		strh	r2, [r3]	@ movhi
 179:main.c        ****     if (*f_out < 0) *f_out = -*f_out;
 307              		.loc 1 179 0
 308 007e 7B68     		ldr	r3, [r7, #4]
 309 0080 B3F90030 		ldrsh	r3, [r3]
 310 0084 002B     		cmp	r3, #0
 311 0086 08DA     		bge	.L25
 312              		.loc 1 179 0 is_stmt 0 discriminator 1
 313 0088 7B68     		ldr	r3, [r7, #4]
 314 008a B3F90030 		ldrsh	r3, [r3]
 315 008e 9BB2     		uxth	r3, r3
 316 0090 5B42     		negs	r3, r3
 317 0092 9BB2     		uxth	r3, r3
 318 0094 1AB2     		sxth	r2, r3
 319 0096 7B68     		ldr	r3, [r7, #4]
 320 0098 1A80     		strh	r2, [r3]	@ movhi
 321              	.L25:
 180:main.c        **** }
 322              		.loc 1 180 0 is_stmt 1
 323 009a 00BF     		nop
 324 009c 1037     		adds	r7, r7, #16
 325              		.cfi_def_cfa_offset 8
 326 009e BD46     		mov	sp, r7
 327              		.cfi_def_cfa_register 13
 328              		@ sp needed
 329 00a0 80BD     		pop	{r7, pc}
ARM GAS  C:\Users\JENNEW~1\AppData\Local\Temp\ccFpxs5T.s 			page 10


 330              	.L27:
 331 00a2 00BF     		.align	2
 332              	.L26:
 333 00a4 0000C842 		.word	1120403456
 334              		.cfi_endproc
 335              	.LFE68:
 336              		.size	decomp, .-decomp
 337              		.global	__aeabi_fadd
 338              		.global	__aeabi_fcmpge
 339              		.global	__aeabi_fcmple
 340              		.section	.text.compute_euler,"ax",%progbits
 341              		.align	2
 342              		.thumb
 343              		.thumb_func
 344              		.type	compute_euler, %function
 345              	compute_euler:
 346              	.LFB69:
 181:main.c        **** 
 182:main.c        **** static void compute_euler(const hamfly_telemetry_t *st,
 183:main.c        ****     char *pan_s,  int16_t *pan_i,  int16_t *pan_f,
 184:main.c        ****     char *tilt_s, int16_t *tilt_i, int16_t *tilt_f,
 185:main.c        ****     char *roll_s, int16_t *roll_i, int16_t *roll_f)
 186:main.c        **** {
 347              		.loc 1 186 0
 348              		.cfi_startproc
 349              		@ args = 24, pretend = 0, frame = 64
 350              		@ frame_needed = 1, uses_anonymous_args = 0
 351 0000 90B5     		push	{r4, r7, lr}
 352              		.cfi_def_cfa_offset 12
 353              		.cfi_offset 4, -12
 354              		.cfi_offset 7, -8
 355              		.cfi_offset 14, -4
 356 0002 91B0     		sub	sp, sp, #68
 357              		.cfi_def_cfa_offset 80
 358 0004 00AF     		add	r7, sp, #0
 359              		.cfi_def_cfa_register 7
 360 0006 F860     		str	r0, [r7, #12]
 361 0008 B960     		str	r1, [r7, #8]
 362 000a 7A60     		str	r2, [r7, #4]
 363 000c 3B60     		str	r3, [r7]
 187:main.c        ****     float r  = st->gimbal_r, ii = st->gimbal_i;
 364              		.loc 1 187 0
 365 000e FB68     		ldr	r3, [r7, #12]
 366 0010 DB68     		ldr	r3, [r3, #12]	@ float
 367 0012 FB63     		str	r3, [r7, #60]	@ float
 368 0014 FB68     		ldr	r3, [r7, #12]
 369 0016 1B69     		ldr	r3, [r3, #16]	@ float
 370 0018 BB63     		str	r3, [r7, #56]	@ float
 188:main.c        ****     float j  = st->gimbal_j, k  = st->gimbal_k;
 371              		.loc 1 188 0
 372 001a FB68     		ldr	r3, [r7, #12]
 373 001c 5B69     		ldr	r3, [r3, #20]	@ float
 374 001e 7B63     		str	r3, [r7, #52]	@ float
 375 0020 FB68     		ldr	r3, [r7, #12]
 376 0022 9B69     		ldr	r3, [r3, #24]	@ float
 377 0024 3B63     		str	r3, [r7, #48]	@ float
 189:main.c        ****     float sinr = 2.0f*(r*ii+j*k), cosr = 1.0f-2.0f*(ii*ii+j*j);
ARM GAS  C:\Users\JENNEW~1\AppData\Local\Temp\ccFpxs5T.s 			page 11


 378              		.loc 1 189 0
 379 0026 B96B     		ldr	r1, [r7, #56]	@ float
 380 0028 F86B     		ldr	r0, [r7, #60]	@ float
 381 002a FFF7FEFF 		bl	__aeabi_fmul
 382 002e 0346     		mov	r3, r0
 383 0030 1C46     		mov	r4, r3
 384 0032 396B     		ldr	r1, [r7, #48]	@ float
 385 0034 786B     		ldr	r0, [r7, #52]	@ float
 386 0036 FFF7FEFF 		bl	__aeabi_fmul
 387 003a 0346     		mov	r3, r0
 388 003c 1946     		mov	r1, r3
 389 003e 2046     		mov	r0, r4
 390 0040 FFF7FEFF 		bl	__aeabi_fadd
 391 0044 0346     		mov	r3, r0
 392 0046 1946     		mov	r1, r3
 393 0048 1846     		mov	r0, r3
 394 004a FFF7FEFF 		bl	__aeabi_fadd
 395 004e 0346     		mov	r3, r0
 396 0050 FB62     		str	r3, [r7, #44]	@ float
 397 0052 B96B     		ldr	r1, [r7, #56]	@ float
 398 0054 B86B     		ldr	r0, [r7, #56]	@ float
 399 0056 FFF7FEFF 		bl	__aeabi_fmul
 400 005a 0346     		mov	r3, r0
 401 005c 1C46     		mov	r4, r3
 402 005e 796B     		ldr	r1, [r7, #52]	@ float
 403 0060 786B     		ldr	r0, [r7, #52]	@ float
 404 0062 FFF7FEFF 		bl	__aeabi_fmul
 405 0066 0346     		mov	r3, r0
 406 0068 1946     		mov	r1, r3
 407 006a 2046     		mov	r0, r4
 408 006c FFF7FEFF 		bl	__aeabi_fadd
 409 0070 0346     		mov	r3, r0
 410 0072 1946     		mov	r1, r3
 411 0074 1846     		mov	r0, r3
 412 0076 FFF7FEFF 		bl	__aeabi_fadd
 413 007a 0346     		mov	r3, r0
 414 007c 1946     		mov	r1, r3
 415 007e 4FF07E50 		mov	r0, #1065353216
 416 0082 FFF7FEFF 		bl	__aeabi_fsub
 417 0086 0346     		mov	r3, r0
 418 0088 BB62     		str	r3, [r7, #40]	@ float
 190:main.c        ****     float roll_deg = atan2f(sinr, cosr) * 57.2958f;
 419              		.loc 1 190 0
 420 008a B96A     		ldr	r1, [r7, #40]	@ float
 421 008c F86A     		ldr	r0, [r7, #44]	@ float
 422 008e FFF7FEFF 		bl	atan2f
 423 0092 0346     		mov	r3, r0
 424 0094 4549     		ldr	r1, .L39
 425 0096 1846     		mov	r0, r3
 426 0098 FFF7FEFF 		bl	__aeabi_fmul
 427 009c 0346     		mov	r3, r0
 428 009e 7B62     		str	r3, [r7, #36]	@ float
 191:main.c        ****     float sinp = 2.0f*(r*j-k*ii);
 429              		.loc 1 191 0
 430 00a0 796B     		ldr	r1, [r7, #52]	@ float
 431 00a2 F86B     		ldr	r0, [r7, #60]	@ float
 432 00a4 FFF7FEFF 		bl	__aeabi_fmul
ARM GAS  C:\Users\JENNEW~1\AppData\Local\Temp\ccFpxs5T.s 			page 12


 433 00a8 0346     		mov	r3, r0
 434 00aa 1C46     		mov	r4, r3
 435 00ac B96B     		ldr	r1, [r7, #56]	@ float
 436 00ae 386B     		ldr	r0, [r7, #48]	@ float
 437 00b0 FFF7FEFF 		bl	__aeabi_fmul
 438 00b4 0346     		mov	r3, r0
 439 00b6 1946     		mov	r1, r3
 440 00b8 2046     		mov	r0, r4
 441 00ba FFF7FEFF 		bl	__aeabi_fsub
 442 00be 0346     		mov	r3, r0
 443 00c0 1946     		mov	r1, r3
 444 00c2 1846     		mov	r0, r3
 445 00c4 FFF7FEFF 		bl	__aeabi_fadd
 446 00c8 0346     		mov	r3, r0
 447 00ca 3B62     		str	r3, [r7, #32]	@ float
 192:main.c        ****     float tilt_deg = (sinp >= 1.0f) ?  90.0f :
 448              		.loc 1 192 0
 449 00cc 4FF07E51 		mov	r1, #1065353216
 450 00d0 386A     		ldr	r0, [r7, #32]	@ float
 451 00d2 FFF7FEFF 		bl	__aeabi_fcmpge
 452 00d6 0346     		mov	r3, r0
 453 00d8 002B     		cmp	r3, #0
 454 00da 01D0     		beq	.L37
 455              		.loc 1 192 0 is_stmt 0 discriminator 1
 456 00dc 344B     		ldr	r3, .L39+4
 457 00de 11E0     		b	.L31
 458              	.L37:
 193:main.c        ****                      (sinp <=-1.0f) ? -90.0f :
 459              		.loc 1 193 0 is_stmt 1
 460 00e0 3449     		ldr	r1, .L39+8
 461 00e2 386A     		ldr	r0, [r7, #32]	@ float
 462 00e4 FFF7FEFF 		bl	__aeabi_fcmple
 463 00e8 0346     		mov	r3, r0
 464 00ea 002B     		cmp	r3, #0
 465 00ec 01D0     		beq	.L38
 466              		.loc 1 193 0 is_stmt 0 discriminator 1
 467 00ee 324B     		ldr	r3, .L39+12
 468 00f0 08E0     		b	.L31
 469              	.L38:
 194:main.c        ****                      asinf(sinp) * 57.2958f;
 470              		.loc 1 194 0 is_stmt 1 discriminator 2
 471 00f2 386A     		ldr	r0, [r7, #32]	@ float
 472 00f4 FFF7FEFF 		bl	asinf
 473 00f8 0346     		mov	r3, r0
 193:main.c        ****                      (sinp <=-1.0f) ? -90.0f :
 474              		.loc 1 193 0 discriminator 2
 475 00fa 2C49     		ldr	r1, .L39
 476 00fc 1846     		mov	r0, r3
 477 00fe FFF7FEFF 		bl	__aeabi_fmul
 478 0102 0346     		mov	r3, r0
 479              	.L31:
 192:main.c        ****     float tilt_deg = (sinp >= 1.0f) ?  90.0f :
 480              		.loc 1 192 0 discriminator 2
 481 0104 FB61     		str	r3, [r7, #28]	@ float
 195:main.c        ****     float siny = 2.0f*(r*k+ii*j), cosy = 1.0f-2.0f*(j*j+k*k);
 482              		.loc 1 195 0 discriminator 2
 483 0106 396B     		ldr	r1, [r7, #48]	@ float
ARM GAS  C:\Users\JENNEW~1\AppData\Local\Temp\ccFpxs5T.s 			page 13


 484 0108 F86B     		ldr	r0, [r7, #60]	@ float
 485 010a FFF7FEFF 		bl	__aeabi_fmul
 486 010e 0346     		mov	r3, r0
 487 0110 1C46     		mov	r4, r3
 488 0112 796B     		ldr	r1, [r7, #52]	@ float
 489 0114 B86B     		ldr	r0, [r7, #56]	@ float
 490 0116 FFF7FEFF 		bl	__aeabi_fmul
 491 011a 0346     		mov	r3, r0
 492 011c 1946     		mov	r1, r3
 493 011e 2046     		mov	r0, r4
 494 0120 FFF7FEFF 		bl	__aeabi_fadd
 495 0124 0346     		mov	r3, r0
 496 0126 1946     		mov	r1, r3
 497 0128 1846     		mov	r0, r3
 498 012a FFF7FEFF 		bl	__aeabi_fadd
 499 012e 0346     		mov	r3, r0
 500 0130 BB61     		str	r3, [r7, #24]	@ float
 501 0132 796B     		ldr	r1, [r7, #52]	@ float
 502 0134 786B     		ldr	r0, [r7, #52]	@ float
 503 0136 FFF7FEFF 		bl	__aeabi_fmul
 504 013a 0346     		mov	r3, r0
 505 013c 1C46     		mov	r4, r3
 506 013e 396B     		ldr	r1, [r7, #48]	@ float
 507 0140 386B     		ldr	r0, [r7, #48]	@ float
 508 0142 FFF7FEFF 		bl	__aeabi_fmul
 509 0146 0346     		mov	r3, r0
 510 0148 1946     		mov	r1, r3
 511 014a 2046     		mov	r0, r4
 512 014c FFF7FEFF 		bl	__aeabi_fadd
 513 0150 0346     		mov	r3, r0
 514 0152 1946     		mov	r1, r3
 515 0154 1846     		mov	r0, r3
 516 0156 FFF7FEFF 		bl	__aeabi_fadd
 517 015a 0346     		mov	r3, r0
 518 015c 1946     		mov	r1, r3
 519 015e 4FF07E50 		mov	r0, #1065353216
 520 0162 FFF7FEFF 		bl	__aeabi_fsub
 521 0166 0346     		mov	r3, r0
 522 0168 7B61     		str	r3, [r7, #20]	@ float
 196:main.c        ****     float pan_deg = atan2f(siny, cosy) * 57.2958f;
 523              		.loc 1 196 0 discriminator 2
 524 016a 7969     		ldr	r1, [r7, #20]	@ float
 525 016c B869     		ldr	r0, [r7, #24]	@ float
 526 016e FFF7FEFF 		bl	atan2f
 527 0172 0346     		mov	r3, r0
 528 0174 0D49     		ldr	r1, .L39
 529 0176 1846     		mov	r0, r3
 530 0178 FFF7FEFF 		bl	__aeabi_fmul
 531 017c 0346     		mov	r3, r0
 532 017e 3B61     		str	r3, [r7, #16]	@ float
 197:main.c        ****     decomp(pan_deg,  pan_i,  pan_f,  pan_s);
 533              		.loc 1 197 0 discriminator 2
 534 0180 BB68     		ldr	r3, [r7, #8]
 535 0182 3A68     		ldr	r2, [r7]
 536 0184 7968     		ldr	r1, [r7, #4]
 537 0186 3869     		ldr	r0, [r7, #16]	@ float
 538 0188 FFF7FEFF 		bl	decomp
ARM GAS  C:\Users\JENNEW~1\AppData\Local\Temp\ccFpxs5T.s 			page 14


 198:main.c        ****     decomp(tilt_deg, tilt_i, tilt_f, tilt_s);
 539              		.loc 1 198 0 discriminator 2
 540 018c 3B6D     		ldr	r3, [r7, #80]
 541 018e BA6D     		ldr	r2, [r7, #88]
 542 0190 796D     		ldr	r1, [r7, #84]
 543 0192 F869     		ldr	r0, [r7, #28]	@ float
 544 0194 FFF7FEFF 		bl	decomp
 199:main.c        ****     decomp(roll_deg, roll_i, roll_f, roll_s);
 545              		.loc 1 199 0 discriminator 2
 546 0198 FB6D     		ldr	r3, [r7, #92]
 547 019a 7A6E     		ldr	r2, [r7, #100]
 548 019c 396E     		ldr	r1, [r7, #96]
 549 019e 786A     		ldr	r0, [r7, #36]	@ float
 550 01a0 FFF7FEFF 		bl	decomp
 200:main.c        **** }
 551              		.loc 1 200 0 discriminator 2
 552 01a4 00BF     		nop
 553 01a6 4437     		adds	r7, r7, #68
 554              		.cfi_def_cfa_offset 12
 555 01a8 BD46     		mov	sp, r7
 556              		.cfi_def_cfa_register 13
 557              		@ sp needed
 558 01aa 90BD     		pop	{r4, r7, pc}
 559              	.L40:
 560              		.align	2
 561              	.L39:
 562 01ac E62E6542 		.word	1113927398
 563 01b0 0000B442 		.word	1119092736
 564 01b4 000080BF 		.word	-1082130432
 565 01b8 0000B4C2 		.word	-1028390912
 566              		.cfi_endproc
 567              	.LFE69:
 568              		.size	compute_euler, .-compute_euler
 569              		.section	.text.get_euler_deg,"ax",%progbits
 570              		.align	2
 571              		.thumb
 572              		.thumb_func
 573              		.type	get_euler_deg, %function
 574              	get_euler_deg:
 575              	.LFB70:
 201:main.c        **** 
 202:main.c        **** /* Extract pan and tilt in degrees from current telemetry (no decomp). */
 203:main.c        **** static uint8_t get_euler_deg(float *pan_deg_out, float *tilt_deg_out)
 204:main.c        **** {
 576              		.loc 1 204 0
 577              		.cfi_startproc
 578              		@ args = 0, pretend = 0, frame = 272
 579              		@ frame_needed = 1, uses_anonymous_args = 0
 580 0000 90B5     		push	{r4, r7, lr}
 581              		.cfi_def_cfa_offset 12
 582              		.cfi_offset 4, -12
 583              		.cfi_offset 7, -8
 584              		.cfi_offset 14, -4
 585 0002 C5B0     		sub	sp, sp, #276
 586              		.cfi_def_cfa_offset 288
 587 0004 00AF     		add	r7, sp, #0
 588              		.cfi_def_cfa_register 7
ARM GAS  C:\Users\JENNEW~1\AppData\Local\Temp\ccFpxs5T.s 			page 15


 589 0006 3B1D     		adds	r3, r7, #4
 590 0008 1860     		str	r0, [r3]
 591 000a 3B46     		mov	r3, r7
 592 000c 1960     		str	r1, [r3]
 205:main.c        ****     hamfly_telemetry_t st;
 206:main.c        ****     hamfly_get_telemetry(&g_movi, &st);
 593              		.loc 1 206 0
 594 000e 07F10803 		add	r3, r7, #8
 595 0012 1946     		mov	r1, r3
 596 0014 5748     		ldr	r0, .L55
 597 0016 FFF7FEFF 		bl	hamfly_get_telemetry
 207:main.c        ****     if (!st.valid) return FALSE;
 598              		.loc 1 207 0
 599 001a 07F10803 		add	r3, r7, #8
 600 001e 1B78     		ldrb	r3, [r3]	@ zero_extendqisi2
 601 0020 83F00103 		eor	r3, r3, #1
 602 0024 DBB2     		uxtb	r3, r3
 603 0026 002B     		cmp	r3, #0
 604 0028 01D0     		beq	.L42
 605              		.loc 1 207 0 is_stmt 0 discriminator 1
 606 002a 0023     		movs	r3, #0
 607 002c 9DE0     		b	.L50
 608              	.L42:
 208:main.c        ****     float r  = st.gimbal_r, ii = st.gimbal_i;
 609              		.loc 1 208 0 is_stmt 1
 610 002e 07F10803 		add	r3, r7, #8
 611 0032 DB68     		ldr	r3, [r3, #12]	@ float
 612 0034 C7F80C31 		str	r3, [r7, #268]	@ float
 613 0038 07F10803 		add	r3, r7, #8
 614 003c 1B69     		ldr	r3, [r3, #16]	@ float
 615 003e C7F80831 		str	r3, [r7, #264]	@ float
 209:main.c        ****     float j  = st.gimbal_j, k  = st.gimbal_k;
 616              		.loc 1 209 0
 617 0042 07F10803 		add	r3, r7, #8
 618 0046 5B69     		ldr	r3, [r3, #20]	@ float
 619 0048 C7F80431 		str	r3, [r7, #260]	@ float
 620 004c 07F10803 		add	r3, r7, #8
 621 0050 9B69     		ldr	r3, [r3, #24]	@ float
 622 0052 C7F80031 		str	r3, [r7, #256]	@ float
 210:main.c        ****     float sinp = 2.0f*(r*j-k*ii);
 623              		.loc 1 210 0
 624 0056 D7F80411 		ldr	r1, [r7, #260]	@ float
 625 005a D7F80C01 		ldr	r0, [r7, #268]	@ float
 626 005e FFF7FEFF 		bl	__aeabi_fmul
 627 0062 0346     		mov	r3, r0
 628 0064 1C46     		mov	r4, r3
 629 0066 D7F80811 		ldr	r1, [r7, #264]	@ float
 630 006a D7F80001 		ldr	r0, [r7, #256]	@ float
 631 006e FFF7FEFF 		bl	__aeabi_fmul
 632 0072 0346     		mov	r3, r0
 633 0074 1946     		mov	r1, r3
 634 0076 2046     		mov	r0, r4
 635 0078 FFF7FEFF 		bl	__aeabi_fsub
 636 007c 0346     		mov	r3, r0
 637 007e 1946     		mov	r1, r3
 638 0080 1846     		mov	r0, r3
 639 0082 FFF7FEFF 		bl	__aeabi_fadd
ARM GAS  C:\Users\JENNEW~1\AppData\Local\Temp\ccFpxs5T.s 			page 16


 640 0086 0346     		mov	r3, r0
 641 0088 C7F8FC30 		str	r3, [r7, #252]	@ float
 211:main.c        ****     *tilt_deg_out = (sinp >= 1.0f) ?  90.0f :
 642              		.loc 1 211 0
 643 008c 4FF07E51 		mov	r1, #1065353216
 644 0090 D7F8FC00 		ldr	r0, [r7, #252]	@ float
 645 0094 FFF7FEFF 		bl	__aeabi_fcmpge
 646 0098 0346     		mov	r3, r0
 647 009a 002B     		cmp	r3, #0
 648 009c 01D0     		beq	.L53
 649              		.loc 1 211 0 is_stmt 0 discriminator 1
 650 009e 364B     		ldr	r3, .L55+4
 651 00a0 13E0     		b	.L46
 652              	.L53:
 212:main.c        ****                     (sinp <=-1.0f) ? -90.0f :
 653              		.loc 1 212 0 is_stmt 1
 654 00a2 3649     		ldr	r1, .L55+8
 655 00a4 D7F8FC00 		ldr	r0, [r7, #252]	@ float
 656 00a8 FFF7FEFF 		bl	__aeabi_fcmple
 657 00ac 0346     		mov	r3, r0
 658 00ae 002B     		cmp	r3, #0
 659 00b0 01D0     		beq	.L54
 660              		.loc 1 212 0 is_stmt 0 discriminator 1
 661 00b2 334B     		ldr	r3, .L55+12
 662 00b4 09E0     		b	.L46
 663              	.L54:
 213:main.c        ****                     asinf(sinp) * 57.2958f;
 664              		.loc 1 213 0 is_stmt 1 discriminator 2
 665 00b6 D7F8FC00 		ldr	r0, [r7, #252]	@ float
 666 00ba FFF7FEFF 		bl	asinf
 667 00be 0346     		mov	r3, r0
 212:main.c        ****                     (sinp <=-1.0f) ? -90.0f :
 668              		.loc 1 212 0 discriminator 2
 669 00c0 3049     		ldr	r1, .L55+16
 670 00c2 1846     		mov	r0, r3
 671 00c4 FFF7FEFF 		bl	__aeabi_fmul
 672 00c8 0346     		mov	r3, r0
 673              	.L46:
 211:main.c        ****     *tilt_deg_out = (sinp >= 1.0f) ?  90.0f :
 674              		.loc 1 211 0 discriminator 2
 675 00ca 3A46     		mov	r2, r7
 676 00cc 1268     		ldr	r2, [r2]
 677 00ce 1360     		str	r3, [r2]	@ float
 214:main.c        ****     float siny = 2.0f*(r*k+ii*j), cosy = 1.0f-2.0f*(j*j+k*k);
 678              		.loc 1 214 0 discriminator 2
 679 00d0 D7F80011 		ldr	r1, [r7, #256]	@ float
 680 00d4 D7F80C01 		ldr	r0, [r7, #268]	@ float
 681 00d8 FFF7FEFF 		bl	__aeabi_fmul
 682 00dc 0346     		mov	r3, r0
 683 00de 1C46     		mov	r4, r3
 684 00e0 D7F80411 		ldr	r1, [r7, #260]	@ float
 685 00e4 D7F80801 		ldr	r0, [r7, #264]	@ float
 686 00e8 FFF7FEFF 		bl	__aeabi_fmul
 687 00ec 0346     		mov	r3, r0
 688 00ee 1946     		mov	r1, r3
 689 00f0 2046     		mov	r0, r4
 690 00f2 FFF7FEFF 		bl	__aeabi_fadd
ARM GAS  C:\Users\JENNEW~1\AppData\Local\Temp\ccFpxs5T.s 			page 17


 691 00f6 0346     		mov	r3, r0
 692 00f8 1946     		mov	r1, r3
 693 00fa 1846     		mov	r0, r3
 694 00fc FFF7FEFF 		bl	__aeabi_fadd
 695 0100 0346     		mov	r3, r0
 696 0102 C7F8F830 		str	r3, [r7, #248]	@ float
 697 0106 D7F80411 		ldr	r1, [r7, #260]	@ float
 698 010a D7F80401 		ldr	r0, [r7, #260]	@ float
 699 010e FFF7FEFF 		bl	__aeabi_fmul
 700 0112 0346     		mov	r3, r0
 701 0114 1C46     		mov	r4, r3
 702 0116 D7F80011 		ldr	r1, [r7, #256]	@ float
 703 011a D7F80001 		ldr	r0, [r7, #256]	@ float
 704 011e FFF7FEFF 		bl	__aeabi_fmul
 705 0122 0346     		mov	r3, r0
 706 0124 1946     		mov	r1, r3
 707 0126 2046     		mov	r0, r4
 708 0128 FFF7FEFF 		bl	__aeabi_fadd
 709 012c 0346     		mov	r3, r0
 710 012e 1946     		mov	r1, r3
 711 0130 1846     		mov	r0, r3
 712 0132 FFF7FEFF 		bl	__aeabi_fadd
 713 0136 0346     		mov	r3, r0
 714 0138 1946     		mov	r1, r3
 715 013a 4FF07E50 		mov	r0, #1065353216
 716 013e FFF7FEFF 		bl	__aeabi_fsub
 717 0142 0346     		mov	r3, r0
 718 0144 C7F8F430 		str	r3, [r7, #244]	@ float
 215:main.c        ****     *pan_deg_out = atan2f(siny, cosy) * 57.2958f;
 719              		.loc 1 215 0 discriminator 2
 720 0148 D7F8F410 		ldr	r1, [r7, #244]	@ float
 721 014c D7F8F800 		ldr	r0, [r7, #248]	@ float
 722 0150 FFF7FEFF 		bl	atan2f
 723 0154 0346     		mov	r3, r0
 724 0156 0B49     		ldr	r1, .L55+16
 725 0158 1846     		mov	r0, r3
 726 015a FFF7FEFF 		bl	__aeabi_fmul
 727 015e 0346     		mov	r3, r0
 728 0160 1A46     		mov	r2, r3
 729 0162 3B1D     		adds	r3, r7, #4
 730 0164 1B68     		ldr	r3, [r3]
 731 0166 1A60     		str	r2, [r3]	@ float
 216:main.c        ****     return TRUE;
 732              		.loc 1 216 0 discriminator 2
 733 0168 0123     		movs	r3, #1
 734              	.L50:
 217:main.c        **** }
 735              		.loc 1 217 0 discriminator 1
 736 016a 1846     		mov	r0, r3
 737 016c 07F58A77 		add	r7, r7, #276
 738              		.cfi_def_cfa_offset 12
 739 0170 BD46     		mov	sp, r7
 740              		.cfi_def_cfa_register 13
 741              		@ sp needed
 742 0172 90BD     		pop	{r4, r7, pc}
 743              	.L56:
 744              		.align	2
ARM GAS  C:\Users\JENNEW~1\AppData\Local\Temp\ccFpxs5T.s 			page 18


 745              	.L55:
 746 0174 00000000 		.word	g_movi
 747 0178 0000B442 		.word	1119092736
 748 017c 000080BF 		.word	-1082130432
 749 0180 0000B4C2 		.word	-1028390912
 750 0184 E62E6542 		.word	1113927398
 751              		.cfi_endproc
 752              	.LFE70:
 753              		.size	get_euler_deg, .-get_euler_deg
 754              		.section	.rodata
 755              		.align	2
 756              	.LC0:
 757 000c 52415445 		.ascii	"RATE\000"
 757      00
 758 0011 000000   		.align	2
 759              	.LC1:
 760 0014 41425320 		.ascii	"ABS \000"
 760      00
 761 0019 000000   		.align	2
 762              	.LC2:
 763 001c 44454652 		.ascii	"DEFR\000"
 763      00
 764              		.section	.text.mode_str,"ax",%progbits
 765              		.align	2
 766              		.thumb
 767              		.thumb_func
 768              		.type	mode_str, %function
 769              	mode_str:
 770              	.LFB71:
 218:main.c        **** 
 219:main.c        **** static const char *mode_str(hamfly_control_mode_t m)
 220:main.c        **** {
 771              		.loc 1 220 0
 772              		.cfi_startproc
 773              		@ args = 0, pretend = 0, frame = 8
 774              		@ frame_needed = 1, uses_anonymous_args = 0
 775              		@ link register save eliminated.
 776 0000 80B4     		push	{r7}
 777              		.cfi_def_cfa_offset 4
 778              		.cfi_offset 7, -4
 779 0002 83B0     		sub	sp, sp, #12
 780              		.cfi_def_cfa_offset 16
 781 0004 00AF     		add	r7, sp, #0
 782              		.cfi_def_cfa_register 7
 783 0006 0346     		mov	r3, r0
 784 0008 FB71     		strb	r3, [r7, #7]
 221:main.c        ****     switch (m) {
 785              		.loc 1 221 0
 786 000a FB79     		ldrb	r3, [r7, #7]	@ zero_extendqisi2
 787 000c 012B     		cmp	r3, #1
 788 000e 02D0     		beq	.L59
 789 0010 022B     		cmp	r3, #2
 790 0012 02D0     		beq	.L60
 791 0014 03E0     		b	.L62
 792              	.L59:
 222:main.c        ****         case HAMFLY_RATE:     return "RATE";
 793              		.loc 1 222 0
ARM GAS  C:\Users\JENNEW~1\AppData\Local\Temp\ccFpxs5T.s 			page 19


 794 0016 054B     		ldr	r3, .L63
 795 0018 02E0     		b	.L61
 796              	.L60:
 223:main.c        ****         case HAMFLY_ABSOLUTE: return "ABS ";
 797              		.loc 1 223 0
 798 001a 054B     		ldr	r3, .L63+4
 799 001c 00E0     		b	.L61
 800              	.L62:
 224:main.c        ****         default:              return "DEFR";
 801              		.loc 1 224 0
 802 001e 054B     		ldr	r3, .L63+8
 803              	.L61:
 225:main.c        ****     }
 226:main.c        **** }
 804              		.loc 1 226 0
 805 0020 1846     		mov	r0, r3
 806 0022 0C37     		adds	r7, r7, #12
 807              		.cfi_def_cfa_offset 4
 808 0024 BD46     		mov	sp, r7
 809              		.cfi_def_cfa_register 13
 810              		@ sp needed
 811 0026 80BC     		pop	{r7}
 812              		.cfi_restore 7
 813              		.cfi_def_cfa_offset 0
 814 0028 7047     		bx	lr
 815              	.L64:
 816 002a 00BF     		.align	2
 817              	.L63:
 818 002c 0C000000 		.word	.LC0
 819 0030 14000000 		.word	.LC1
 820 0034 1C000000 		.word	.LC2
 821              		.cfi_endproc
 822              	.LFE71:
 823              		.size	mode_str, .-mode_str
 824              		.section	.rodata
 825 0021 000000   		.align	2
 826              	.LC3:
 827 0024 20206F66 		.ascii	"  off%02u:\000"
 827      66253032 
 827      753A00
 828 002f 00       		.align	2
 829              	.LC4:
 830 0030 20253032 		.ascii	" %02X\000"
 830      5800
 831 0036 0000     		.align	2
 832              	.LC5:
 833 0038 0D0A00   		.ascii	"\015\012\000"
 834              		.section	.text.print_hex_dump,"ax",%progbits
 835              		.align	2
 836              		.thumb
 837              		.thumb_func
 838              		.type	print_hex_dump, %function
 839              	print_hex_dump:
 840              	.LFB72:
 227:main.c        **** 
 228:main.c        **** static void print_hex_dump(const uint8_t *p, uint8_t plen)
 229:main.c        **** {
ARM GAS  C:\Users\JENNEW~1\AppData\Local\Temp\ccFpxs5T.s 			page 20


 841              		.loc 1 229 0
 842              		.cfi_startproc
 843              		@ args = 0, pretend = 0, frame = 176
 844              		@ frame_needed = 1, uses_anonymous_args = 0
 845 0000 80B5     		push	{r7, lr}
 846              		.cfi_def_cfa_offset 8
 847              		.cfi_offset 7, -8
 848              		.cfi_offset 14, -4
 849 0002 ACB0     		sub	sp, sp, #176
 850              		.cfi_def_cfa_offset 184
 851 0004 00AF     		add	r7, sp, #0
 852              		.cfi_def_cfa_register 7
 853 0006 7860     		str	r0, [r7, #4]
 854 0008 0B46     		mov	r3, r1
 855 000a FB70     		strb	r3, [r7, #3]
 230:main.c        ****     char buf[TX_BUF_SIZE];
 231:main.c        ****     uint8_t row, col;
 232:main.c        ****     for (row = 0u; row < plen; row += 8u) {
 856              		.loc 1 232 0
 857 000c 0023     		movs	r3, #0
 858 000e 87F8AF30 		strb	r3, [r7, #175]
 859 0012 55E0     		b	.L66
 860              	.L70:
 861              	.LBB2:
 233:main.c        ****         char *bp = buf;
 862              		.loc 1 233 0
 863 0014 07F10803 		add	r3, r7, #8
 864 0018 C7F8A830 		str	r3, [r7, #168]
 234:main.c        ****         bp += sprintf(bp, "  off%02u:", (unsigned)row);
 865              		.loc 1 234 0
 866 001c 97F8AF30 		ldrb	r3, [r7, #175]	@ zero_extendqisi2
 867 0020 1A46     		mov	r2, r3
 868 0022 2C49     		ldr	r1, .L71
 869 0024 D7F8A800 		ldr	r0, [r7, #168]
 870 0028 FFF7FEFF 		bl	sprintf
 871 002c 0346     		mov	r3, r0
 872 002e 1A46     		mov	r2, r3
 873 0030 D7F8A830 		ldr	r3, [r7, #168]
 874 0034 1344     		add	r3, r3, r2
 875 0036 C7F8A830 		str	r3, [r7, #168]
 235:main.c        ****         for (col = 0u; col < 8u && (row+col) < plen; col++)
 876              		.loc 1 235 0
 877 003a 0023     		movs	r3, #0
 878 003c 87F8AE30 		strb	r3, [r7, #174]
 879 0040 1AE0     		b	.L67
 880              	.L69:
 236:main.c        ****             bp += sprintf(bp, " %02X", (unsigned)p[row+col]);
 881              		.loc 1 236 0 discriminator 4
 882 0042 97F8AF20 		ldrb	r2, [r7, #175]	@ zero_extendqisi2
 883 0046 97F8AE30 		ldrb	r3, [r7, #174]	@ zero_extendqisi2
 884 004a 1344     		add	r3, r3, r2
 885 004c 1A46     		mov	r2, r3
 886 004e 7B68     		ldr	r3, [r7, #4]
 887 0050 1344     		add	r3, r3, r2
 888 0052 1B78     		ldrb	r3, [r3]	@ zero_extendqisi2
 889 0054 1A46     		mov	r2, r3
 890 0056 2049     		ldr	r1, .L71+4
ARM GAS  C:\Users\JENNEW~1\AppData\Local\Temp\ccFpxs5T.s 			page 21


 891 0058 D7F8A800 		ldr	r0, [r7, #168]
 892 005c FFF7FEFF 		bl	sprintf
 893 0060 0346     		mov	r3, r0
 894 0062 1A46     		mov	r2, r3
 895 0064 D7F8A830 		ldr	r3, [r7, #168]
 896 0068 1344     		add	r3, r3, r2
 897 006a C7F8A830 		str	r3, [r7, #168]
 235:main.c        ****         for (col = 0u; col < 8u && (row+col) < plen; col++)
 898              		.loc 1 235 0 discriminator 4
 899 006e 97F8AE30 		ldrb	r3, [r7, #174]	@ zero_extendqisi2
 900 0072 0133     		adds	r3, r3, #1
 901 0074 87F8AE30 		strb	r3, [r7, #174]
 902              	.L67:
 235:main.c        ****         for (col = 0u; col < 8u && (row+col) < plen; col++)
 903              		.loc 1 235 0 is_stmt 0 discriminator 1
 904 0078 97F8AE30 		ldrb	r3, [r7, #174]	@ zero_extendqisi2
 905 007c 072B     		cmp	r3, #7
 906 007e 07D8     		bhi	.L68
 235:main.c        ****         for (col = 0u; col < 8u && (row+col) < plen; col++)
 907              		.loc 1 235 0 discriminator 3
 908 0080 97F8AF20 		ldrb	r2, [r7, #175]	@ zero_extendqisi2
 909 0084 97F8AE30 		ldrb	r3, [r7, #174]	@ zero_extendqisi2
 910 0088 1A44     		add	r2, r2, r3
 911 008a FB78     		ldrb	r3, [r7, #3]	@ zero_extendqisi2
 912 008c 9A42     		cmp	r2, r3
 913 008e D8DB     		blt	.L69
 914              	.L68:
 237:main.c        ****         bp += sprintf(bp, "\r\n");
 915              		.loc 1 237 0 is_stmt 1 discriminator 2
 916 0090 D7F8A830 		ldr	r3, [r7, #168]
 917 0094 114A     		ldr	r2, .L71+8
 918 0096 1188     		ldrh	r1, [r2]	@ unaligned
 919 0098 9278     		ldrb	r2, [r2, #2]
 920 009a 1980     		strh	r1, [r3]	@ unaligned
 921 009c 9A70     		strb	r2, [r3, #2]
 922 009e 0223     		movs	r3, #2
 923 00a0 1A46     		mov	r2, r3
 924 00a2 D7F8A830 		ldr	r3, [r7, #168]
 925 00a6 1344     		add	r3, r3, r2
 926 00a8 C7F8A830 		str	r3, [r7, #168]
 238:main.c        ****         UART_1_PutString(buf);
 927              		.loc 1 238 0 discriminator 2
 928 00ac 07F10803 		add	r3, r7, #8
 929 00b0 1846     		mov	r0, r3
 930 00b2 FFF7FEFF 		bl	UART_1_PutString
 931              	.LBE2:
 232:main.c        ****         char *bp = buf;
 932              		.loc 1 232 0 discriminator 2
 933 00b6 97F8AF30 		ldrb	r3, [r7, #175]
 934 00ba 0833     		adds	r3, r3, #8
 935 00bc 87F8AF30 		strb	r3, [r7, #175]
 936              	.L66:
 232:main.c        ****         char *bp = buf;
 937              		.loc 1 232 0 is_stmt 0 discriminator 1
 938 00c0 97F8AF20 		ldrb	r2, [r7, #175]	@ zero_extendqisi2
 939 00c4 FB78     		ldrb	r3, [r7, #3]	@ zero_extendqisi2
 940 00c6 9A42     		cmp	r2, r3
ARM GAS  C:\Users\JENNEW~1\AppData\Local\Temp\ccFpxs5T.s 			page 22


 941 00c8 A4D3     		bcc	.L70
 239:main.c        ****     }
 240:main.c        **** }
 942              		.loc 1 240 0 is_stmt 1
 943 00ca 00BF     		nop
 944 00cc B037     		adds	r7, r7, #176
 945              		.cfi_def_cfa_offset 8
 946 00ce BD46     		mov	sp, r7
 947              		.cfi_def_cfa_register 13
 948              		@ sp needed
 949 00d0 80BD     		pop	{r7, pc}
 950              	.L72:
 951 00d2 00BF     		.align	2
 952              	.L71:
 953 00d4 24000000 		.word	.LC3
 954 00d8 30000000 		.word	.LC4
 955 00dc 38000000 		.word	.LC5
 956              		.cfi_endproc
 957              	.LFE72:
 958              		.size	print_hex_dump, .-print_hex_dump
 959              		.section	.rodata
 960 003b 00       		.align	2
 961              	.LC6:
 962 003c 0D0A5B51 		.ascii	"\015\012[QUERY][Att] dt=%lums snaplen=%u\015\012\000"
 962      55455259 
 962      5D5B4174 
 962      745D2064 
 962      743D256C 
 963 0061 000000   		.align	2
 964              	.LC7:
 965 0064 20207368 		.ascii	"  short\015\012\000"
 965      6F72740D 
 965      0A00
 966              		.global	__aeabi_fdiv
 967 006e 0000     		.align	2
 968              	.LC8:
 969 0070 20206F66 		.ascii	"  off1 /100 %6d => %c%d.%02d [PITCH]\015\012\000"
 969      6631202F 
 969      31303020 
 969      25366420 
 969      3D3E2025 
 970 0097 00       		.align	2
 971              	.LC9:
 972 0098 20206F66 		.ascii	"  off3 /100 %6d => %c%d.%02d [YAW]\015\012\000"
 972      6633202F 
 972      31303020 
 972      25366420 
 972      3D3E2025 
 973 00bd 000000   		.align	2
 974              	.LC10:
 975 00c0 20206F66 		.ascii	"  off5 /100 %6d => %c%d.%02d [ROLL]\015\012\000"
 975      6635202F 
 975      31303020 
 975      25366420 
 975      3D3E2025 
 976              		.section	.text.print_att,"ax",%progbits
 977              		.align	2
ARM GAS  C:\Users\JENNEW~1\AppData\Local\Temp\ccFpxs5T.s 			page 23


 978              		.thumb
 979              		.thumb_func
 980              		.type	print_att, %function
 981              	print_att:
 982              	.LFB73:
 241:main.c        **** 
 242:main.c        **** /* =========================================================================
 243:main.c        ****  * Snapshot macros
 244:main.c        ****  * ========================================================================= */
 245:main.c        **** #define SNAP16(p,plen,off) \
 246:main.c        ****     (((off)+2u<=(plen))?({int16_t _v;memcpy(&_v,(p)+(off),2);_v;}):(int16_t)0)
 247:main.c        **** #define SNAP16BE(p,plen,off) \
 248:main.c        ****     (((off)+2u<=(plen)) \
 249:main.c        ****         ?(int16_t)(((uint16_t)(p)[(off)]<<8)|(uint16_t)(p)[(off)+1u]) \
 250:main.c        ****         :(int16_t)0)
 251:main.c        **** #define SNAP32BE(p,plen,off) \
 252:main.c        ****     (((off)+4u<=(plen)) \
 253:main.c        ****         ?(int32_t)(((uint32_t)(p)[(off)]<<24)|((uint32_t)(p)[(off)+1u]<<16) \
 254:main.c        ****                   |((uint32_t)(p)[(off)+2u]<<8)|(uint32_t)(p)[(off)+3u]) \
 255:main.c        ****         :(int32_t)0)
 256:main.c        **** 
 257:main.c        **** /* =========================================================================
 258:main.c        ****  * QUERY verbose printers  (unchanged from integration version)
 259:main.c        ****  * ========================================================================= */
 260:main.c        **** static void print_att(const uint8_t *p, uint8_t plen, uint32_t dt)
 261:main.c        **** {
 983              		.loc 1 261 0
 984              		.cfi_startproc
 985              		@ args = 0, pretend = 0, frame = 200
 986              		@ frame_needed = 1, uses_anonymous_args = 0
 987 0000 90B5     		push	{r4, r7, lr}
 988              		.cfi_def_cfa_offset 12
 989              		.cfi_offset 4, -12
 990              		.cfi_offset 7, -8
 991              		.cfi_offset 14, -4
 992 0002 B5B0     		sub	sp, sp, #212
 993              		.cfi_def_cfa_offset 224
 994 0004 02AF     		add	r7, sp, #8
 995              		.cfi_def_cfa 7, 216
 996 0006 F860     		str	r0, [r7, #12]
 997 0008 0B46     		mov	r3, r1
 998 000a 7A60     		str	r2, [r7, #4]
 999 000c FB72     		strb	r3, [r7, #11]
 262:main.c        ****     char buf[TX_BUF_SIZE];
 263:main.c        ****     sprintf(buf, "\r\n[QUERY][Att] dt=%lums snaplen=%u\r\n",
 1000              		.loc 1 263 0
 1001 000e FB7A     		ldrb	r3, [r7, #11]	@ zero_extendqisi2
 1002 0010 07F12000 		add	r0, r7, #32
 1003 0014 7A68     		ldr	r2, [r7, #4]
 1004 0016 6249     		ldr	r1, .L82
 1005 0018 FFF7FEFF 		bl	sprintf
 264:main.c        ****             (unsigned long)dt, plen);
 265:main.c        ****     UART_1_PutString(buf);
 1006              		.loc 1 265 0
 1007 001c 07F12003 		add	r3, r7, #32
 1008 0020 1846     		mov	r0, r3
 1009 0022 FFF7FEFF 		bl	UART_1_PutString
ARM GAS  C:\Users\JENNEW~1\AppData\Local\Temp\ccFpxs5T.s 			page 24


 266:main.c        ****     print_hex_dump(p, plen);
 1010              		.loc 1 266 0
 1011 0026 FB7A     		ldrb	r3, [r7, #11]	@ zero_extendqisi2
 1012 0028 1946     		mov	r1, r3
 1013 002a F868     		ldr	r0, [r7, #12]
 1014 002c FFF7FEFF 		bl	print_hex_dump
 267:main.c        ****     if (plen < 6u) { UART_1_PutString("  short\r\n"); return; }
 1015              		.loc 1 267 0
 1016 0030 FB7A     		ldrb	r3, [r7, #11]	@ zero_extendqisi2
 1017 0032 052B     		cmp	r3, #5
 1018 0034 03D8     		bhi	.L74
 1019              		.loc 1 267 0 is_stmt 0 discriminator 1
 1020 0036 5B48     		ldr	r0, .L82+4
 1021 0038 FFF7FEFF 		bl	UART_1_PutString
 1022 003c ADE0     		b	.L73
 1023              	.L74:
 268:main.c        ****     char s; int16_t vi, vf;
 269:main.c        ****     int16_t r1=SNAP16(p,plen,1), r3=SNAP16(p,plen,3), r5=SNAP16(p,plen,5);
 1024              		.loc 1 269 0 is_stmt 1
 1025 003e FB7A     		ldrb	r3, [r7, #11]	@ zero_extendqisi2
 1026 0040 022B     		cmp	r3, #2
 1027 0042 0AD9     		bls	.L76
 1028              	.LBB3:
 1029              		.loc 1 269 0 is_stmt 0 discriminator 1
 1030 0044 FB68     		ldr	r3, [r7, #12]
 1031 0046 591C     		adds	r1, r3, #1
 1032 0048 07F11803 		add	r3, r7, #24
 1033 004c 0222     		movs	r2, #2
 1034 004e 1846     		mov	r0, r3
 1035 0050 FFF7FEFF 		bl	memcpy
 1036 0054 B7F91830 		ldrsh	r3, [r7, #24]
 1037              	.LBE3:
 1038 0058 00E0     		b	.L77
 1039              	.L76:
 1040              		.loc 1 269 0 discriminator 2
 1041 005a 0023     		movs	r3, #0
 1042              	.L77:
 1043              		.loc 1 269 0 discriminator 4
 1044 005c A7F8C630 		strh	r3, [r7, #198]	@ movhi
 1045 0060 FB7A     		ldrb	r3, [r7, #11]	@ zero_extendqisi2
 1046 0062 042B     		cmp	r3, #4
 1047 0064 0AD9     		bls	.L78
 1048              	.LBB4:
 1049              		.loc 1 269 0 discriminator 5
 1050 0066 FB68     		ldr	r3, [r7, #12]
 1051 0068 D91C     		adds	r1, r3, #3
 1052 006a 07F11603 		add	r3, r7, #22
 1053 006e 0222     		movs	r2, #2
 1054 0070 1846     		mov	r0, r3
 1055 0072 FFF7FEFF 		bl	memcpy
 1056 0076 B7F91630 		ldrsh	r3, [r7, #22]
 1057              	.LBE4:
 1058 007a 00E0     		b	.L79
 1059              	.L78:
 1060              		.loc 1 269 0 discriminator 6
 1061 007c 0023     		movs	r3, #0
 1062              	.L79:
ARM GAS  C:\Users\JENNEW~1\AppData\Local\Temp\ccFpxs5T.s 			page 25


 1063              		.loc 1 269 0 discriminator 8
 1064 007e A7F8C430 		strh	r3, [r7, #196]	@ movhi
 1065 0082 FB7A     		ldrb	r3, [r7, #11]	@ zero_extendqisi2
 1066 0084 062B     		cmp	r3, #6
 1067 0086 0AD9     		bls	.L80
 1068              	.LBB5:
 1069              		.loc 1 269 0 discriminator 9
 1070 0088 FB68     		ldr	r3, [r7, #12]
 1071 008a 591D     		adds	r1, r3, #5
 1072 008c 07F11403 		add	r3, r7, #20
 1073 0090 0222     		movs	r2, #2
 1074 0092 1846     		mov	r0, r3
 1075 0094 FFF7FEFF 		bl	memcpy
 1076 0098 B7F91430 		ldrsh	r3, [r7, #20]
 1077              	.LBE5:
 1078 009c 00E0     		b	.L81
 1079              	.L80:
 1080              		.loc 1 269 0 discriminator 10
 1081 009e 0023     		movs	r3, #0
 1082              	.L81:
 1083              		.loc 1 269 0 discriminator 12
 1084 00a0 A7F8C230 		strh	r3, [r7, #194]	@ movhi
 270:main.c        ****     decomp((float)r1/100.0f, &vi, &vf, &s);
 1085              		.loc 1 270 0 is_stmt 1 discriminator 12
 1086 00a4 B7F9C630 		ldrsh	r3, [r7, #198]
 1087 00a8 1846     		mov	r0, r3
 1088 00aa FFF7FEFF 		bl	__aeabi_i2f
 1089 00ae 0346     		mov	r3, r0
 1090 00b0 3D49     		ldr	r1, .L82+8
 1091 00b2 1846     		mov	r0, r3
 1092 00b4 FFF7FEFF 		bl	__aeabi_fdiv
 1093 00b8 0346     		mov	r3, r0
 1094 00ba 1846     		mov	r0, r3
 1095 00bc 07F11F03 		add	r3, r7, #31
 1096 00c0 07F11A02 		add	r2, r7, #26
 1097 00c4 07F11C01 		add	r1, r7, #28
 1098 00c8 FFF7FEFF 		bl	decomp
 271:main.c        ****     sprintf(buf,"  off1 /100 %6d => %c%d.%02d [PITCH]\r\n",(int)r1,s,vi,vf);
 1099              		.loc 1 271 0 discriminator 12
 1100 00cc B7F9C620 		ldrsh	r2, [r7, #198]
 1101 00d0 FB7F     		ldrb	r3, [r7, #31]	@ zero_extendqisi2
 1102 00d2 1C46     		mov	r4, r3
 1103 00d4 B7F91C30 		ldrsh	r3, [r7, #28]
 1104 00d8 B7F91A10 		ldrsh	r1, [r7, #26]
 1105 00dc 07F12000 		add	r0, r7, #32
 1106 00e0 0191     		str	r1, [sp, #4]
 1107 00e2 0093     		str	r3, [sp]
 1108 00e4 2346     		mov	r3, r4
 1109 00e6 3149     		ldr	r1, .L82+12
 1110 00e8 FFF7FEFF 		bl	sprintf
 272:main.c        ****     UART_1_PutString(buf);
 1111              		.loc 1 272 0 discriminator 12
 1112 00ec 07F12003 		add	r3, r7, #32
 1113 00f0 1846     		mov	r0, r3
 1114 00f2 FFF7FEFF 		bl	UART_1_PutString
 273:main.c        ****     decomp((float)r3/100.0f, &vi, &vf, &s);
 1115              		.loc 1 273 0 discriminator 12
ARM GAS  C:\Users\JENNEW~1\AppData\Local\Temp\ccFpxs5T.s 			page 26


 1116 00f6 B7F9C430 		ldrsh	r3, [r7, #196]
 1117 00fa 1846     		mov	r0, r3
 1118 00fc FFF7FEFF 		bl	__aeabi_i2f
 1119 0100 0346     		mov	r3, r0
 1120 0102 2949     		ldr	r1, .L82+8
 1121 0104 1846     		mov	r0, r3
 1122 0106 FFF7FEFF 		bl	__aeabi_fdiv
 1123 010a 0346     		mov	r3, r0
 1124 010c 1846     		mov	r0, r3
 1125 010e 07F11F03 		add	r3, r7, #31
 1126 0112 07F11A02 		add	r2, r7, #26
 1127 0116 07F11C01 		add	r1, r7, #28
 1128 011a FFF7FEFF 		bl	decomp
 274:main.c        ****     sprintf(buf,"  off3 /100 %6d => %c%d.%02d [YAW]\r\n",(int)r3,s,vi,vf);
 1129              		.loc 1 274 0 discriminator 12
 1130 011e B7F9C420 		ldrsh	r2, [r7, #196]
 1131 0122 FB7F     		ldrb	r3, [r7, #31]	@ zero_extendqisi2
 1132 0124 1C46     		mov	r4, r3
 1133 0126 B7F91C30 		ldrsh	r3, [r7, #28]
 1134 012a B7F91A10 		ldrsh	r1, [r7, #26]
 1135 012e 07F12000 		add	r0, r7, #32
 1136 0132 0191     		str	r1, [sp, #4]
 1137 0134 0093     		str	r3, [sp]
 1138 0136 2346     		mov	r3, r4
 1139 0138 1D49     		ldr	r1, .L82+16
 1140 013a FFF7FEFF 		bl	sprintf
 275:main.c        ****     UART_1_PutString(buf);
 1141              		.loc 1 275 0 discriminator 12
 1142 013e 07F12003 		add	r3, r7, #32
 1143 0142 1846     		mov	r0, r3
 1144 0144 FFF7FEFF 		bl	UART_1_PutString
 276:main.c        ****     decomp((float)r5/100.0f, &vi, &vf, &s);
 1145              		.loc 1 276 0 discriminator 12
 1146 0148 B7F9C230 		ldrsh	r3, [r7, #194]
 1147 014c 1846     		mov	r0, r3
 1148 014e FFF7FEFF 		bl	__aeabi_i2f
 1149 0152 0346     		mov	r3, r0
 1150 0154 1449     		ldr	r1, .L82+8
 1151 0156 1846     		mov	r0, r3
 1152 0158 FFF7FEFF 		bl	__aeabi_fdiv
 1153 015c 0346     		mov	r3, r0
 1154 015e 1846     		mov	r0, r3
 1155 0160 07F11F03 		add	r3, r7, #31
 1156 0164 07F11A02 		add	r2, r7, #26
 1157 0168 07F11C01 		add	r1, r7, #28
 1158 016c FFF7FEFF 		bl	decomp
 277:main.c        ****     sprintf(buf,"  off5 /100 %6d => %c%d.%02d [ROLL]\r\n",(int)r5,s,vi,vf);
 1159              		.loc 1 277 0 discriminator 12
 1160 0170 B7F9C220 		ldrsh	r2, [r7, #194]
 1161 0174 FB7F     		ldrb	r3, [r7, #31]	@ zero_extendqisi2
 1162 0176 1C46     		mov	r4, r3
 1163 0178 B7F91C30 		ldrsh	r3, [r7, #28]
 1164 017c B7F91A10 		ldrsh	r1, [r7, #26]
 1165 0180 07F12000 		add	r0, r7, #32
 1166 0184 0191     		str	r1, [sp, #4]
 1167 0186 0093     		str	r3, [sp]
 1168 0188 2346     		mov	r3, r4
ARM GAS  C:\Users\JENNEW~1\AppData\Local\Temp\ccFpxs5T.s 			page 27


 1169 018a 0A49     		ldr	r1, .L82+20
 1170 018c FFF7FEFF 		bl	sprintf
 278:main.c        ****     UART_1_PutString(buf);
 1171              		.loc 1 278 0 discriminator 12
 1172 0190 07F12003 		add	r3, r7, #32
 1173 0194 1846     		mov	r0, r3
 1174 0196 FFF7FEFF 		bl	UART_1_PutString
 1175              	.L73:
 279:main.c        **** }
 1176              		.loc 1 279 0
 1177 019a CC37     		adds	r7, r7, #204
 1178              		.cfi_def_cfa_offset 12
 1179 019c BD46     		mov	sp, r7
 1180              		.cfi_def_cfa_register 13
 1181              		@ sp needed
 1182 019e 90BD     		pop	{r4, r7, pc}
 1183              	.L83:
 1184              		.align	2
 1185              	.L82:
 1186 01a0 3C000000 		.word	.LC6
 1187 01a4 64000000 		.word	.LC7
 1188 01a8 0000C842 		.word	1120403456
 1189 01ac 70000000 		.word	.LC8
 1190 01b0 98000000 		.word	.LC9
 1191 01b4 C0000000 		.word	.LC10
 1192              		.cfi_endproc
 1193              	.LFE73:
 1194              		.size	print_att, .-print_att
 1195              		.section	.rodata
 1196 00e6 0000     		.align	2
 1197              	.LC11:
 1198 00e8 0D0A5B51 		.ascii	"\015\012[QUERY][GPS] dt=%lums snaplen=%u\015\012\000"
 1198      55455259 
 1198      5D5B4750 
 1198      535D2064 
 1198      743D256C 
 1199 010d 000000   		.align	2
 1200              	.LC12:
 1201 0110 20204C61 		.ascii	"  Lat=%ld.%07ld Lon=%ld.%07ld Alt=%ld mm\015\012\000"
 1201      743D256C 
 1201      642E2530 
 1201      376C6420 
 1201      4C6F6E3D 
 1202              		.section	.text.print_gps,"ax",%progbits
 1203              		.align	2
 1204              		.thumb
 1205              		.thumb_func
 1206              		.type	print_gps, %function
 1207              	print_gps:
 1208              	.LFB74:
 280:main.c        **** 
 281:main.c        **** static void print_gps(const uint8_t *p, uint8_t plen, uint32_t dt)
 282:main.c        **** {
 1209              		.loc 1 282 0
 1210              		.cfi_startproc
 1211              		@ args = 0, pretend = 0, frame = 192
 1212              		@ frame_needed = 1, uses_anonymous_args = 0
ARM GAS  C:\Users\JENNEW~1\AppData\Local\Temp\ccFpxs5T.s 			page 28


 1213 0000 B0B5     		push	{r4, r5, r7, lr}
 1214              		.cfi_def_cfa_offset 16
 1215              		.cfi_offset 4, -16
 1216              		.cfi_offset 5, -12
 1217              		.cfi_offset 7, -8
 1218              		.cfi_offset 14, -4
 1219 0002 B4B0     		sub	sp, sp, #208
 1220              		.cfi_def_cfa_offset 224
 1221 0004 04AF     		add	r7, sp, #16
 1222              		.cfi_def_cfa 7, 208
 1223 0006 F860     		str	r0, [r7, #12]
 1224 0008 0B46     		mov	r3, r1
 1225 000a 7A60     		str	r2, [r7, #4]
 1226 000c FB72     		strb	r3, [r7, #11]
 283:main.c        ****     char buf[TX_BUF_SIZE];
 284:main.c        ****     sprintf(buf, "\r\n[QUERY][GPS] dt=%lums snaplen=%u\r\n",
 1227              		.loc 1 284 0
 1228 000e FB7A     		ldrb	r3, [r7, #11]	@ zero_extendqisi2
 1229 0010 07F11400 		add	r0, r7, #20
 1230 0014 7A68     		ldr	r2, [r7, #4]
 1231 0016 4D49     		ldr	r1, .L93
 1232 0018 FFF7FEFF 		bl	sprintf
 285:main.c        ****             (unsigned long)dt, plen);
 286:main.c        ****     UART_1_PutString(buf);
 1233              		.loc 1 286 0
 1234 001c 07F11403 		add	r3, r7, #20
 1235 0020 1846     		mov	r0, r3
 1236 0022 FFF7FEFF 		bl	UART_1_PutString
 287:main.c        ****     print_hex_dump(p, plen);
 1237              		.loc 1 287 0
 1238 0026 FB7A     		ldrb	r3, [r7, #11]	@ zero_extendqisi2
 1239 0028 1946     		mov	r1, r3
 1240 002a F868     		ldr	r0, [r7, #12]
 1241 002c FFF7FEFF 		bl	print_hex_dump
 288:main.c        ****     if (plen < 12u) { UART_1_PutString("  short\r\n"); return; }
 1242              		.loc 1 288 0
 1243 0030 FB7A     		ldrb	r3, [r7, #11]	@ zero_extendqisi2
 1244 0032 0B2B     		cmp	r3, #11
 1245 0034 03D8     		bhi	.L85
 1246              		.loc 1 288 0 is_stmt 0 discriminator 1
 1247 0036 4648     		ldr	r0, .L93+4
 1248 0038 FFF7FEFF 		bl	UART_1_PutString
 1249 003c 83E0     		b	.L84
 1250              	.L85:
 289:main.c        ****     int32_t lon=SNAP32BE(p,plen,0), lat=SNAP32BE(p,plen,4);
 1251              		.loc 1 289 0 is_stmt 1
 1252 003e FB7A     		ldrb	r3, [r7, #11]	@ zero_extendqisi2
 1253 0040 032B     		cmp	r3, #3
 1254 0042 11D9     		bls	.L87
 1255              		.loc 1 289 0 is_stmt 0 discriminator 1
 1256 0044 FB68     		ldr	r3, [r7, #12]
 1257 0046 1B78     		ldrb	r3, [r3]	@ zero_extendqisi2
 1258 0048 1A06     		lsls	r2, r3, #24
 1259 004a FB68     		ldr	r3, [r7, #12]
 1260 004c 0133     		adds	r3, r3, #1
 1261 004e 1B78     		ldrb	r3, [r3]	@ zero_extendqisi2
 1262 0050 1B04     		lsls	r3, r3, #16
ARM GAS  C:\Users\JENNEW~1\AppData\Local\Temp\ccFpxs5T.s 			page 29


 1263 0052 1A43     		orrs	r2, r2, r3
 1264 0054 FB68     		ldr	r3, [r7, #12]
 1265 0056 0233     		adds	r3, r3, #2
 1266 0058 1B78     		ldrb	r3, [r3]	@ zero_extendqisi2
 1267 005a 1B02     		lsls	r3, r3, #8
 1268 005c 1343     		orrs	r3, r3, r2
 1269 005e FA68     		ldr	r2, [r7, #12]
 1270 0060 0332     		adds	r2, r2, #3
 1271 0062 1278     		ldrb	r2, [r2]	@ zero_extendqisi2
 1272 0064 1343     		orrs	r3, r3, r2
 1273 0066 00E0     		b	.L88
 1274              	.L87:
 1275              		.loc 1 289 0 discriminator 2
 1276 0068 0023     		movs	r3, #0
 1277              	.L88:
 1278              		.loc 1 289 0 discriminator 4
 1279 006a C7F8BC30 		str	r3, [r7, #188]
 1280 006e FB7A     		ldrb	r3, [r7, #11]	@ zero_extendqisi2
 1281 0070 072B     		cmp	r3, #7
 1282 0072 12D9     		bls	.L89
 1283              		.loc 1 289 0 discriminator 5
 1284 0074 FB68     		ldr	r3, [r7, #12]
 1285 0076 0433     		adds	r3, r3, #4
 1286 0078 1B78     		ldrb	r3, [r3]	@ zero_extendqisi2
 1287 007a 1A06     		lsls	r2, r3, #24
 1288 007c FB68     		ldr	r3, [r7, #12]
 1289 007e 0533     		adds	r3, r3, #5
 1290 0080 1B78     		ldrb	r3, [r3]	@ zero_extendqisi2
 1291 0082 1B04     		lsls	r3, r3, #16
 1292 0084 1A43     		orrs	r2, r2, r3
 1293 0086 FB68     		ldr	r3, [r7, #12]
 1294 0088 0633     		adds	r3, r3, #6
 1295 008a 1B78     		ldrb	r3, [r3]	@ zero_extendqisi2
 1296 008c 1B02     		lsls	r3, r3, #8
 1297 008e 1343     		orrs	r3, r3, r2
 1298 0090 FA68     		ldr	r2, [r7, #12]
 1299 0092 0732     		adds	r2, r2, #7
 1300 0094 1278     		ldrb	r2, [r2]	@ zero_extendqisi2
 1301 0096 1343     		orrs	r3, r3, r2
 1302 0098 00E0     		b	.L90
 1303              	.L89:
 1304              		.loc 1 289 0 discriminator 6
 1305 009a 0023     		movs	r3, #0
 1306              	.L90:
 1307              		.loc 1 289 0 discriminator 8
 1308 009c C7F8B830 		str	r3, [r7, #184]
 290:main.c        ****     int32_t alt=SNAP32BE(p,plen,8);
 1309              		.loc 1 290 0 is_stmt 1 discriminator 8
 1310 00a0 FB7A     		ldrb	r3, [r7, #11]	@ zero_extendqisi2
 1311 00a2 0B2B     		cmp	r3, #11
 1312 00a4 12D9     		bls	.L91
 1313              		.loc 1 290 0 is_stmt 0 discriminator 1
 1314 00a6 FB68     		ldr	r3, [r7, #12]
 1315 00a8 0833     		adds	r3, r3, #8
 1316 00aa 1B78     		ldrb	r3, [r3]	@ zero_extendqisi2
 1317 00ac 1A06     		lsls	r2, r3, #24
 1318 00ae FB68     		ldr	r3, [r7, #12]
ARM GAS  C:\Users\JENNEW~1\AppData\Local\Temp\ccFpxs5T.s 			page 30


 1319 00b0 0933     		adds	r3, r3, #9
 1320 00b2 1B78     		ldrb	r3, [r3]	@ zero_extendqisi2
 1321 00b4 1B04     		lsls	r3, r3, #16
 1322 00b6 1A43     		orrs	r2, r2, r3
 1323 00b8 FB68     		ldr	r3, [r7, #12]
 1324 00ba 0A33     		adds	r3, r3, #10
 1325 00bc 1B78     		ldrb	r3, [r3]	@ zero_extendqisi2
 1326 00be 1B02     		lsls	r3, r3, #8
 1327 00c0 1343     		orrs	r3, r3, r2
 1328 00c2 FA68     		ldr	r2, [r7, #12]
 1329 00c4 0B32     		adds	r2, r2, #11
 1330 00c6 1278     		ldrb	r2, [r2]	@ zero_extendqisi2
 1331 00c8 1343     		orrs	r3, r3, r2
 1332 00ca 00E0     		b	.L92
 1333              	.L91:
 1334              		.loc 1 290 0 discriminator 2
 1335 00cc 0023     		movs	r3, #0
 1336              	.L92:
 1337              		.loc 1 290 0 discriminator 4
 1338 00ce C7F8B430 		str	r3, [r7, #180]
 291:main.c        ****     sprintf(buf,"  Lat=%ld.%07ld Lon=%ld.%07ld Alt=%ld mm\r\n",
 1339              		.loc 1 291 0 is_stmt 1 discriminator 4
 1340 00d2 D7F8B830 		ldr	r3, [r7, #184]
 1341 00d6 1F4A     		ldr	r2, .L93+8
 1342 00d8 82FB0312 		smull	r1, r2, r2, r3
 1343 00dc 9215     		asrs	r2, r2, #22
 1344 00de DB17     		asrs	r3, r3, #31
 1345 00e0 D51A     		subs	r5, r2, r3
 1346 00e2 D7F8B830 		ldr	r3, [r7, #184]
 1347 00e6 1B4A     		ldr	r2, .L93+8
 1348 00e8 82FB0312 		smull	r1, r2, r2, r3
 1349 00ec 9115     		asrs	r1, r2, #22
 1350 00ee DA17     		asrs	r2, r3, #31
 1351 00f0 891A     		subs	r1, r1, r2
 1352 00f2 194A     		ldr	r2, .L93+12
 1353 00f4 02FB01F2 		mul	r2, r2, r1
 1354 00f8 991A     		subs	r1, r3, r2
 1355 00fa D7F8BC30 		ldr	r3, [r7, #188]
 1356 00fe 154A     		ldr	r2, .L93+8
 1357 0100 82FB0302 		smull	r0, r2, r2, r3
 1358 0104 9215     		asrs	r2, r2, #22
 1359 0106 DB17     		asrs	r3, r3, #31
 1360 0108 D01A     		subs	r0, r2, r3
 1361 010a D7F8BC20 		ldr	r2, [r7, #188]
 1362 010e 114B     		ldr	r3, .L93+8
 1363 0110 83FB0243 		smull	r4, r3, r3, r2
 1364 0114 9C15     		asrs	r4, r3, #22
 1365 0116 D317     		asrs	r3, r2, #31
 1366 0118 E31A     		subs	r3, r4, r3
 1367 011a 0F4C     		ldr	r4, .L93+12
 1368 011c 04FB03F3 		mul	r3, r4, r3
 1369 0120 D31A     		subs	r3, r2, r3
 1370 0122 07F11404 		add	r4, r7, #20
 1371 0126 D7F8B420 		ldr	r2, [r7, #180]
 1372 012a 0292     		str	r2, [sp, #8]
 1373 012c 0193     		str	r3, [sp, #4]
 1374 012e 0090     		str	r0, [sp]
ARM GAS  C:\Users\JENNEW~1\AppData\Local\Temp\ccFpxs5T.s 			page 31


 1375 0130 0B46     		mov	r3, r1
 1376 0132 2A46     		mov	r2, r5
 1377 0134 0949     		ldr	r1, .L93+16
 1378 0136 2046     		mov	r0, r4
 1379 0138 FFF7FEFF 		bl	sprintf
 292:main.c        ****             (long)(lat/10000000L),(long)(lat%10000000L),
 293:main.c        ****             (long)(lon/10000000L),(long)(lon%10000000L),(long)alt);
 294:main.c        ****     UART_1_PutString(buf);
 1380              		.loc 1 294 0 discriminator 4
 1381 013c 07F11403 		add	r3, r7, #20
 1382 0140 1846     		mov	r0, r3
 1383 0142 FFF7FEFF 		bl	UART_1_PutString
 1384              	.L84:
 295:main.c        **** }
 1385              		.loc 1 295 0
 1386 0146 C037     		adds	r7, r7, #192
 1387              		.cfi_def_cfa_offset 16
 1388 0148 BD46     		mov	sp, r7
 1389              		.cfi_def_cfa_register 13
 1390              		@ sp needed
 1391 014a B0BD     		pop	{r4, r5, r7, pc}
 1392              	.L94:
 1393              		.align	2
 1394              	.L93:
 1395 014c E8000000 		.word	.LC11
 1396 0150 64000000 		.word	.LC7
 1397 0154 6BCA5F6B 		.word	1801439851
 1398 0158 80969800 		.word	10000000
 1399 015c 10010000 		.word	.LC12
 1400              		.cfi_endproc
 1401              	.LFE74:
 1402              		.size	print_gps, .-print_gps
 1403              		.section	.rodata
 1404 013b 00       		.align	2
 1405              	.LC13:
 1406 013c 0D0A5B51 		.ascii	"\015\012[QUERY][Baro] dt=%lums snaplen=%u\015\012\000"
 1406      55455259 
 1406      5D5B4261 
 1406      726F5D20 
 1406      64743D25 
 1407 0162 0000     		.align	2
 1408              	.LC14:
 1409 0164 2020416C 		.ascii	"  Alt=%c%d.%02d m  \000"
 1409      743D2563 
 1409      25642E25 
 1409      30326420 
 1409      6D202000 
 1410              		.align	2
 1411              	.LC15:
 1412 0178 524F433D 		.ascii	"ROC=%c%d.%02d m/s\015\012\000"
 1412      25632564 
 1412      2E253032 
 1412      64206D2F 
 1412      730D0A00 
 1413              		.section	.text.print_baro,"ax",%progbits
 1414              		.align	2
 1415              		.thumb
ARM GAS  C:\Users\JENNEW~1\AppData\Local\Temp\ccFpxs5T.s 			page 32


 1416              		.thumb_func
 1417              		.type	print_baro, %function
 1418              	print_baro:
 1419              	.LFB75:
 296:main.c        **** 
 297:main.c        **** static void print_baro(const uint8_t *p, uint8_t plen, uint32_t dt)
 298:main.c        **** {
 1420              		.loc 1 298 0
 1421              		.cfi_startproc
 1422              		@ args = 0, pretend = 0, frame = 192
 1423              		@ frame_needed = 1, uses_anonymous_args = 0
 1424 0000 80B5     		push	{r7, lr}
 1425              		.cfi_def_cfa_offset 8
 1426              		.cfi_offset 7, -8
 1427              		.cfi_offset 14, -4
 1428 0002 B2B0     		sub	sp, sp, #200
 1429              		.cfi_def_cfa_offset 208
 1430 0004 02AF     		add	r7, sp, #8
 1431              		.cfi_def_cfa 7, 200
 1432 0006 F860     		str	r0, [r7, #12]
 1433 0008 0B46     		mov	r3, r1
 1434 000a 7A60     		str	r2, [r7, #4]
 1435 000c FB72     		strb	r3, [r7, #11]
 299:main.c        ****     char buf[TX_BUF_SIZE];
 300:main.c        ****     sprintf(buf, "\r\n[QUERY][Baro] dt=%lums snaplen=%u\r\n",
 1436              		.loc 1 300 0
 1437 000e FB7A     		ldrb	r3, [r7, #11]	@ zero_extendqisi2
 1438 0010 07F11C00 		add	r0, r7, #28
 1439 0014 7A68     		ldr	r2, [r7, #4]
 1440 0016 4349     		ldr	r1, .L102
 1441 0018 FFF7FEFF 		bl	sprintf
 301:main.c        ****             (unsigned long)dt, plen);
 302:main.c        ****     UART_1_PutString(buf);
 1442              		.loc 1 302 0
 1443 001c 07F11C03 		add	r3, r7, #28
 1444 0020 1846     		mov	r0, r3
 1445 0022 FFF7FEFF 		bl	UART_1_PutString
 303:main.c        ****     print_hex_dump(p, plen);
 1446              		.loc 1 303 0
 1447 0026 FB7A     		ldrb	r3, [r7, #11]	@ zero_extendqisi2
 1448 0028 1946     		mov	r1, r3
 1449 002a F868     		ldr	r0, [r7, #12]
 1450 002c FFF7FEFF 		bl	print_hex_dump
 304:main.c        ****     if (plen < 5u) { UART_1_PutString("  short\r\n"); return; }
 1451              		.loc 1 304 0
 1452 0030 FB7A     		ldrb	r3, [r7, #11]	@ zero_extendqisi2
 1453 0032 042B     		cmp	r3, #4
 1454 0034 03D8     		bhi	.L96
 1455              		.loc 1 304 0 is_stmt 0 discriminator 1
 1456 0036 3C48     		ldr	r0, .L102+4
 1457 0038 FFF7FEFF 		bl	UART_1_PutString
 1458 003c 6FE0     		b	.L95
 1459              	.L96:
 305:main.c        ****     char s; int16_t vi, vf;
 306:main.c        ****     int16_t alt=SNAP16(p,plen,1), roc=SNAP16(p,plen,3);
 1460              		.loc 1 306 0 is_stmt 1
 1461 003e FB7A     		ldrb	r3, [r7, #11]	@ zero_extendqisi2
ARM GAS  C:\Users\JENNEW~1\AppData\Local\Temp\ccFpxs5T.s 			page 33


 1462 0040 022B     		cmp	r3, #2
 1463 0042 0AD9     		bls	.L98
 1464              	.LBB6:
 1465              		.loc 1 306 0 is_stmt 0 discriminator 1
 1466 0044 FB68     		ldr	r3, [r7, #12]
 1467 0046 591C     		adds	r1, r3, #1
 1468 0048 07F11403 		add	r3, r7, #20
 1469 004c 0222     		movs	r2, #2
 1470 004e 1846     		mov	r0, r3
 1471 0050 FFF7FEFF 		bl	memcpy
 1472 0054 B7F91430 		ldrsh	r3, [r7, #20]
 1473              	.LBE6:
 1474 0058 00E0     		b	.L99
 1475              	.L98:
 1476              		.loc 1 306 0 discriminator 2
 1477 005a 0023     		movs	r3, #0
 1478              	.L99:
 1479              		.loc 1 306 0 discriminator 4
 1480 005c A7F8BE30 		strh	r3, [r7, #190]	@ movhi
 1481 0060 FB7A     		ldrb	r3, [r7, #11]	@ zero_extendqisi2
 1482 0062 042B     		cmp	r3, #4
 1483 0064 0AD9     		bls	.L100
 1484              	.LBB7:
 1485              		.loc 1 306 0 discriminator 5
 1486 0066 FB68     		ldr	r3, [r7, #12]
 1487 0068 D91C     		adds	r1, r3, #3
 1488 006a 07F11203 		add	r3, r7, #18
 1489 006e 0222     		movs	r2, #2
 1490 0070 1846     		mov	r0, r3
 1491 0072 FFF7FEFF 		bl	memcpy
 1492 0076 B7F91230 		ldrsh	r3, [r7, #18]
 1493              	.LBE7:
 1494 007a 00E0     		b	.L101
 1495              	.L100:
 1496              		.loc 1 306 0 discriminator 6
 1497 007c 0023     		movs	r3, #0
 1498              	.L101:
 1499              		.loc 1 306 0 discriminator 8
 1500 007e A7F8BC30 		strh	r3, [r7, #188]	@ movhi
 307:main.c        ****     decomp((float)alt/10.0f, &vi, &vf, &s);
 1501              		.loc 1 307 0 is_stmt 1 discriminator 8
 1502 0082 B7F9BE30 		ldrsh	r3, [r7, #190]
 1503 0086 1846     		mov	r0, r3
 1504 0088 FFF7FEFF 		bl	__aeabi_i2f
 1505 008c 0346     		mov	r3, r0
 1506 008e 2749     		ldr	r1, .L102+8
 1507 0090 1846     		mov	r0, r3
 1508 0092 FFF7FEFF 		bl	__aeabi_fdiv
 1509 0096 0346     		mov	r3, r0
 1510 0098 1846     		mov	r0, r3
 1511 009a 07F11B03 		add	r3, r7, #27
 1512 009e 07F11602 		add	r2, r7, #22
 1513 00a2 07F11801 		add	r1, r7, #24
 1514 00a6 FFF7FEFF 		bl	decomp
 308:main.c        ****     sprintf(buf,"  Alt=%c%d.%02d m  ", s, vi, vf); UART_1_PutString(buf);
 1515              		.loc 1 308 0 discriminator 8
 1516 00aa FB7E     		ldrb	r3, [r7, #27]	@ zero_extendqisi2
ARM GAS  C:\Users\JENNEW~1\AppData\Local\Temp\ccFpxs5T.s 			page 34


 1517 00ac 1A46     		mov	r2, r3
 1518 00ae B7F91830 		ldrsh	r3, [r7, #24]
 1519 00b2 1946     		mov	r1, r3
 1520 00b4 B7F91630 		ldrsh	r3, [r7, #22]
 1521 00b8 07F11C00 		add	r0, r7, #28
 1522 00bc 0093     		str	r3, [sp]
 1523 00be 0B46     		mov	r3, r1
 1524 00c0 1B49     		ldr	r1, .L102+12
 1525 00c2 FFF7FEFF 		bl	sprintf
 1526 00c6 07F11C03 		add	r3, r7, #28
 1527 00ca 1846     		mov	r0, r3
 1528 00cc FFF7FEFF 		bl	UART_1_PutString
 309:main.c        ****     decomp((float)roc/100.0f, &vi, &vf, &s);
 1529              		.loc 1 309 0 discriminator 8
 1530 00d0 B7F9BC30 		ldrsh	r3, [r7, #188]
 1531 00d4 1846     		mov	r0, r3
 1532 00d6 FFF7FEFF 		bl	__aeabi_i2f
 1533 00da 0346     		mov	r3, r0
 1534 00dc 1549     		ldr	r1, .L102+16
 1535 00de 1846     		mov	r0, r3
 1536 00e0 FFF7FEFF 		bl	__aeabi_fdiv
 1537 00e4 0346     		mov	r3, r0
 1538 00e6 1846     		mov	r0, r3
 1539 00e8 07F11B03 		add	r3, r7, #27
 1540 00ec 07F11602 		add	r2, r7, #22
 1541 00f0 07F11801 		add	r1, r7, #24
 1542 00f4 FFF7FEFF 		bl	decomp
 310:main.c        ****     sprintf(buf,"ROC=%c%d.%02d m/s\r\n", s, vi, vf); UART_1_PutString(buf);
 1543              		.loc 1 310 0 discriminator 8
 1544 00f8 FB7E     		ldrb	r3, [r7, #27]	@ zero_extendqisi2
 1545 00fa 1A46     		mov	r2, r3
 1546 00fc B7F91830 		ldrsh	r3, [r7, #24]
 1547 0100 1946     		mov	r1, r3
 1548 0102 B7F91630 		ldrsh	r3, [r7, #22]
 1549 0106 07F11C00 		add	r0, r7, #28
 1550 010a 0093     		str	r3, [sp]
 1551 010c 0B46     		mov	r3, r1
 1552 010e 0A49     		ldr	r1, .L102+20
 1553 0110 FFF7FEFF 		bl	sprintf
 1554 0114 07F11C03 		add	r3, r7, #28
 1555 0118 1846     		mov	r0, r3
 1556 011a FFF7FEFF 		bl	UART_1_PutString
 1557              	.L95:
 311:main.c        **** }
 1558              		.loc 1 311 0
 1559 011e C037     		adds	r7, r7, #192
 1560              		.cfi_def_cfa_offset 8
 1561 0120 BD46     		mov	sp, r7
 1562              		.cfi_def_cfa_register 13
 1563              		@ sp needed
 1564 0122 80BD     		pop	{r7, pc}
 1565              	.L103:
 1566              		.align	2
 1567              	.L102:
 1568 0124 3C010000 		.word	.LC13
 1569 0128 64000000 		.word	.LC7
 1570 012c 00002041 		.word	1092616192
ARM GAS  C:\Users\JENNEW~1\AppData\Local\Temp\ccFpxs5T.s 			page 35


 1571 0130 64010000 		.word	.LC14
 1572 0134 0000C842 		.word	1120403456
 1573 0138 78010000 		.word	.LC15
 1574              		.cfi_endproc
 1575              	.LFE75:
 1576              		.size	print_baro, .-print_baro
 1577              		.section	.rodata
 1578              		.align	2
 1579              	.LC16:
 1580 018c 0D0A5B51 		.ascii	"\015\012[QUERY][Stat] dt=%lums snaplen=%u\015\012\000"
 1580      55455259 
 1580      5D5B5374 
 1580      61745D20 
 1580      64743D25 
 1581 01b2 0000     		.align	2
 1582              	.LC17:
 1583 01b4 20204261 		.ascii	"  Batt=%c%d.%02d V  Sats=%u  Temp=%d C\015\012\000"
 1583      74743D25 
 1583      6325642E 
 1583      25303264 
 1583      20562020 
 1584 01dd 000000   		.align	2
 1585              	.LC18:
 1586 01e0 20205072 		.ascii	"  Pres=%c%d.%02d mb\015\012\000"
 1586      65733D25 
 1586      6325642E 
 1586      25303264 
 1586      206D620D 
 1587              		.section	.text.print_sysstat,"ax",%progbits
 1588              		.align	2
 1589              		.thumb
 1590              		.thumb_func
 1591              		.type	print_sysstat, %function
 1592              	print_sysstat:
 1593              	.LFB76:
 312:main.c        **** 
 313:main.c        **** static void print_sysstat(const uint8_t *p, uint8_t plen, uint32_t dt)
 314:main.c        **** {
 1594              		.loc 1 314 0
 1595              		.cfi_startproc
 1596              		@ args = 0, pretend = 0, frame = 192
 1597              		@ frame_needed = 1, uses_anonymous_args = 0
 1598 0000 F0B5     		push	{r4, r5, r6, r7, lr}
 1599              		.cfi_def_cfa_offset 20
 1600              		.cfi_offset 4, -20
 1601              		.cfi_offset 5, -16
 1602              		.cfi_offset 6, -12
 1603              		.cfi_offset 7, -8
 1604              		.cfi_offset 14, -4
 1605 0002 B5B0     		sub	sp, sp, #212
 1606              		.cfi_def_cfa_offset 232
 1607 0004 04AF     		add	r7, sp, #16
 1608              		.cfi_def_cfa 7, 216
 1609 0006 F860     		str	r0, [r7, #12]
 1610 0008 0B46     		mov	r3, r1
 1611 000a 7A60     		str	r2, [r7, #4]
 1612 000c FB72     		strb	r3, [r7, #11]
ARM GAS  C:\Users\JENNEW~1\AppData\Local\Temp\ccFpxs5T.s 			page 36


 315:main.c        ****     char buf[TX_BUF_SIZE];
 316:main.c        ****     sprintf(buf, "\r\n[QUERY][Stat] dt=%lums snaplen=%u\r\n",
 1613              		.loc 1 316 0
 1614 000e FB7A     		ldrb	r3, [r7, #11]	@ zero_extendqisi2
 1615 0010 07F11C00 		add	r0, r7, #28
 1616 0014 7A68     		ldr	r2, [r7, #4]
 1617 0016 4D49     		ldr	r1, .L112
 1618 0018 FFF7FEFF 		bl	sprintf
 317:main.c        ****             (unsigned long)dt, plen);
 318:main.c        ****     UART_1_PutString(buf);
 1619              		.loc 1 318 0
 1620 001c 07F11C03 		add	r3, r7, #28
 1621 0020 1846     		mov	r0, r3
 1622 0022 FFF7FEFF 		bl	UART_1_PutString
 319:main.c        ****     print_hex_dump(p, plen);
 1623              		.loc 1 319 0
 1624 0026 FB7A     		ldrb	r3, [r7, #11]	@ zero_extendqisi2
 1625 0028 1946     		mov	r1, r3
 1626 002a F868     		ldr	r0, [r7, #12]
 1627 002c FFF7FEFF 		bl	print_hex_dump
 320:main.c        ****     if (plen < 4u) { UART_1_PutString("  short\r\n"); return; }
 1628              		.loc 1 320 0
 1629 0030 FB7A     		ldrb	r3, [r7, #11]	@ zero_extendqisi2
 1630 0032 032B     		cmp	r3, #3
 1631 0034 03D8     		bhi	.L105
 1632              		.loc 1 320 0 is_stmt 0 discriminator 1
 1633 0036 4648     		ldr	r0, .L112+4
 1634 0038 FFF7FEFF 		bl	UART_1_PutString
 1635 003c 83E0     		b	.L104
 1636              	.L105:
 321:main.c        ****     char s; int16_t vi, vf;
 322:main.c        ****     int16_t bv = SNAP16BE(p,plen,0);
 1637              		.loc 1 322 0 is_stmt 1
 1638 003e FB7A     		ldrb	r3, [r7, #11]	@ zero_extendqisi2
 1639 0040 012B     		cmp	r3, #1
 1640 0042 0AD9     		bls	.L107
 1641              		.loc 1 322 0 is_stmt 0 discriminator 1
 1642 0044 FB68     		ldr	r3, [r7, #12]
 1643 0046 1B78     		ldrb	r3, [r3]	@ zero_extendqisi2
 1644 0048 1B02     		lsls	r3, r3, #8
 1645 004a 1AB2     		sxth	r2, r3
 1646 004c FB68     		ldr	r3, [r7, #12]
 1647 004e 0133     		adds	r3, r3, #1
 1648 0050 1B78     		ldrb	r3, [r3]	@ zero_extendqisi2
 1649 0052 1BB2     		sxth	r3, r3
 1650 0054 1343     		orrs	r3, r3, r2
 1651 0056 1BB2     		sxth	r3, r3
 1652 0058 00E0     		b	.L108
 1653              	.L107:
 1654              		.loc 1 322 0 discriminator 2
 1655 005a 0023     		movs	r3, #0
 1656              	.L108:
 1657              		.loc 1 322 0 discriminator 4
 1658 005c A7F8BE30 		strh	r3, [r7, #190]	@ movhi
 323:main.c        ****     decomp((float)bv/100.0f, &vi, &vf, &s);
 1659              		.loc 1 323 0 is_stmt 1 discriminator 4
 1660 0060 B7F9BE30 		ldrsh	r3, [r7, #190]
ARM GAS  C:\Users\JENNEW~1\AppData\Local\Temp\ccFpxs5T.s 			page 37


 1661 0064 1846     		mov	r0, r3
 1662 0066 FFF7FEFF 		bl	__aeabi_i2f
 1663 006a 0346     		mov	r3, r0
 1664 006c 3949     		ldr	r1, .L112+8
 1665 006e 1846     		mov	r0, r3
 1666 0070 FFF7FEFF 		bl	__aeabi_fdiv
 1667 0074 0346     		mov	r3, r0
 1668 0076 1846     		mov	r0, r3
 1669 0078 07F11B03 		add	r3, r7, #27
 1670 007c 07F11602 		add	r2, r7, #22
 1671 0080 07F11801 		add	r1, r7, #24
 1672 0084 FFF7FEFF 		bl	decomp
 324:main.c        ****     sprintf(buf,"  Batt=%c%d.%02d V  Sats=%u  Temp=%d C\r\n",
 1673              		.loc 1 324 0 discriminator 4
 1674 0088 FB7E     		ldrb	r3, [r7, #27]	@ zero_extendqisi2
 1675 008a 1D46     		mov	r5, r3
 1676 008c B7F91830 		ldrsh	r3, [r7, #24]
 1677 0090 1E46     		mov	r6, r3
 1678 0092 B7F91630 		ldrsh	r3, [r7, #22]
 1679 0096 1946     		mov	r1, r3
 325:main.c        ****             s, vi, vf, p[2], p[3]/3u);
 1680              		.loc 1 325 0 discriminator 4
 1681 0098 FB68     		ldr	r3, [r7, #12]
 1682 009a 0233     		adds	r3, r3, #2
 1683 009c 1B78     		ldrb	r3, [r3]	@ zero_extendqisi2
 324:main.c        ****     sprintf(buf,"  Batt=%c%d.%02d V  Sats=%u  Temp=%d C\r\n",
 1684              		.loc 1 324 0 discriminator 4
 1685 009e 1C46     		mov	r4, r3
 1686              		.loc 1 325 0 discriminator 4
 1687 00a0 FB68     		ldr	r3, [r7, #12]
 1688 00a2 0333     		adds	r3, r3, #3
 1689 00a4 1B78     		ldrb	r3, [r3]	@ zero_extendqisi2
 324:main.c        ****     sprintf(buf,"  Batt=%c%d.%02d V  Sats=%u  Temp=%d C\r\n",
 1690              		.loc 1 324 0 discriminator 4
 1691 00a6 2C4A     		ldr	r2, .L112+12
 1692 00a8 A2FB0323 		umull	r2, r3, r2, r3
 1693 00ac 5B08     		lsrs	r3, r3, #1
 1694 00ae DBB2     		uxtb	r3, r3
 1695 00b0 07F11C00 		add	r0, r7, #28
 1696 00b4 0293     		str	r3, [sp, #8]
 1697 00b6 0194     		str	r4, [sp, #4]
 1698 00b8 0091     		str	r1, [sp]
 1699 00ba 3346     		mov	r3, r6
 1700 00bc 2A46     		mov	r2, r5
 1701 00be 2749     		ldr	r1, .L112+16
 1702 00c0 FFF7FEFF 		bl	sprintf
 326:main.c        ****     UART_1_PutString(buf);
 1703              		.loc 1 326 0 discriminator 4
 1704 00c4 07F11C03 		add	r3, r7, #28
 1705 00c8 1846     		mov	r0, r3
 1706 00ca FFF7FEFF 		bl	UART_1_PutString
 327:main.c        ****     if (plen >= 11u) {
 1707              		.loc 1 327 0 discriminator 4
 1708 00ce FB7A     		ldrb	r3, [r7, #11]	@ zero_extendqisi2
 1709 00d0 0A2B     		cmp	r3, #10
 1710 00d2 38D9     		bls	.L104
 1711              	.LBB8:
ARM GAS  C:\Users\JENNEW~1\AppData\Local\Temp\ccFpxs5T.s 			page 38


 328:main.c        ****         int16_t pres = SNAP16BE(p,plen,9);
 1712              		.loc 1 328 0
 1713 00d4 FB7A     		ldrb	r3, [r7, #11]	@ zero_extendqisi2
 1714 00d6 0A2B     		cmp	r3, #10
 1715 00d8 0BD9     		bls	.L110
 1716              		.loc 1 328 0 is_stmt 0 discriminator 1
 1717 00da FB68     		ldr	r3, [r7, #12]
 1718 00dc 0933     		adds	r3, r3, #9
 1719 00de 1B78     		ldrb	r3, [r3]	@ zero_extendqisi2
 1720 00e0 1B02     		lsls	r3, r3, #8
 1721 00e2 1AB2     		sxth	r2, r3
 1722 00e4 FB68     		ldr	r3, [r7, #12]
 1723 00e6 0A33     		adds	r3, r3, #10
 1724 00e8 1B78     		ldrb	r3, [r3]	@ zero_extendqisi2
 1725 00ea 1BB2     		sxth	r3, r3
 1726 00ec 1343     		orrs	r3, r3, r2
 1727 00ee 1BB2     		sxth	r3, r3
 1728 00f0 00E0     		b	.L111
 1729              	.L110:
 1730              		.loc 1 328 0 discriminator 2
 1731 00f2 0023     		movs	r3, #0
 1732              	.L111:
 1733              		.loc 1 328 0 discriminator 4
 1734 00f4 A7F8BC30 		strh	r3, [r7, #188]	@ movhi
 329:main.c        ****         decomp((float)pres/10.0f, &vi, &vf, &s);
 1735              		.loc 1 329 0 is_stmt 1 discriminator 4
 1736 00f8 B7F9BC30 		ldrsh	r3, [r7, #188]
 1737 00fc 1846     		mov	r0, r3
 1738 00fe FFF7FEFF 		bl	__aeabi_i2f
 1739 0102 0346     		mov	r3, r0
 1740 0104 1649     		ldr	r1, .L112+20
 1741 0106 1846     		mov	r0, r3
 1742 0108 FFF7FEFF 		bl	__aeabi_fdiv
 1743 010c 0346     		mov	r3, r0
 1744 010e 1846     		mov	r0, r3
 1745 0110 07F11B03 		add	r3, r7, #27
 1746 0114 07F11602 		add	r2, r7, #22
 1747 0118 07F11801 		add	r1, r7, #24
 1748 011c FFF7FEFF 		bl	decomp
 330:main.c        ****         sprintf(buf,"  Pres=%c%d.%02d mb\r\n", s, vi, vf);
 1749              		.loc 1 330 0 discriminator 4
 1750 0120 FB7E     		ldrb	r3, [r7, #27]	@ zero_extendqisi2
 1751 0122 1A46     		mov	r2, r3
 1752 0124 B7F91830 		ldrsh	r3, [r7, #24]
 1753 0128 1946     		mov	r1, r3
 1754 012a B7F91630 		ldrsh	r3, [r7, #22]
 1755 012e 07F11C00 		add	r0, r7, #28
 1756 0132 0093     		str	r3, [sp]
 1757 0134 0B46     		mov	r3, r1
 1758 0136 0B49     		ldr	r1, .L112+24
 1759 0138 FFF7FEFF 		bl	sprintf
 331:main.c        ****         UART_1_PutString(buf);
 1760              		.loc 1 331 0 discriminator 4
 1761 013c 07F11C03 		add	r3, r7, #28
 1762 0140 1846     		mov	r0, r3
 1763 0142 FFF7FEFF 		bl	UART_1_PutString
 1764              	.L104:
ARM GAS  C:\Users\JENNEW~1\AppData\Local\Temp\ccFpxs5T.s 			page 39


 1765              	.LBE8:
 332:main.c        ****     }
 333:main.c        **** }
 1766              		.loc 1 333 0
 1767 0146 C437     		adds	r7, r7, #196
 1768              		.cfi_def_cfa_offset 20
 1769 0148 BD46     		mov	sp, r7
 1770              		.cfi_def_cfa_register 13
 1771              		@ sp needed
 1772 014a F0BD     		pop	{r4, r5, r6, r7, pc}
 1773              	.L113:
 1774              		.align	2
 1775              	.L112:
 1776 014c 8C010000 		.word	.LC16
 1777 0150 64000000 		.word	.LC7
 1778 0154 0000C842 		.word	1120403456
 1779 0158 ABAAAAAA 		.word	-1431655765
 1780 015c B4010000 		.word	.LC17
 1781 0160 00002041 		.word	1092616192
 1782 0164 E0010000 		.word	.LC18
 1783              		.cfi_endproc
 1784              	.LFE76:
 1785              		.size	print_sysstat, .-print_sysstat
 1786              		.section	.rodata
 1787 01f6 0000     		.align	2
 1788              	.LC19:
 1789 01f8 0D0A5B51 		.ascii	"\015\012[QUERY][Mag] dt=%lums snaplen=%u\015\012\000"
 1789      55455259 
 1789      5D5B4D61 
 1789      675D2064 
 1789      743D256C 
 1790 021d 000000   		.align	2
 1791              	.LC20:
 1792 0220 2020583D 		.ascii	"  X=%d Y=%d Z=%d  hdg~=%d.%02d deg\015\012\000"
 1792      25642059 
 1792      3D256420 
 1792      5A3D2564 
 1792      20206864 
 1793              		.section	.text.print_mag,"ax",%progbits
 1794              		.align	2
 1795              		.thumb
 1796              		.thumb_func
 1797              		.type	print_mag, %function
 1798              	print_mag:
 1799              	.LFB77:
 334:main.c        **** 
 335:main.c        **** static void print_mag(const uint8_t *p, uint8_t plen, uint32_t dt)
 336:main.c        **** {
 1800              		.loc 1 336 0
 1801              		.cfi_startproc
 1802              		@ args = 0, pretend = 0, frame = 200
 1803              		@ frame_needed = 1, uses_anonymous_args = 0
 1804 0000 B0B5     		push	{r4, r5, r7, lr}
 1805              		.cfi_def_cfa_offset 16
 1806              		.cfi_offset 4, -16
 1807              		.cfi_offset 5, -12
 1808              		.cfi_offset 7, -8
ARM GAS  C:\Users\JENNEW~1\AppData\Local\Temp\ccFpxs5T.s 			page 40


 1809              		.cfi_offset 14, -4
 1810 0002 B6B0     		sub	sp, sp, #216
 1811              		.cfi_def_cfa_offset 232
 1812 0004 04AF     		add	r7, sp, #16
 1813              		.cfi_def_cfa 7, 216
 1814 0006 F860     		str	r0, [r7, #12]
 1815 0008 0B46     		mov	r3, r1
 1816 000a 7A60     		str	r2, [r7, #4]
 1817 000c FB72     		strb	r3, [r7, #11]
 337:main.c        ****     char buf[TX_BUF_SIZE];
 338:main.c        ****     sprintf(buf, "\r\n[QUERY][Mag] dt=%lums snaplen=%u\r\n",
 1818              		.loc 1 338 0
 1819 000e FB7A     		ldrb	r3, [r7, #11]	@ zero_extendqisi2
 1820 0010 07F11C00 		add	r0, r7, #28
 1821 0014 7A68     		ldr	r2, [r7, #4]
 1822 0016 4C49     		ldr	r1, .L126
 1823 0018 FFF7FEFF 		bl	sprintf
 339:main.c        ****             (unsigned long)dt, plen);
 340:main.c        ****     UART_1_PutString(buf);
 1824              		.loc 1 340 0
 1825 001c 07F11C03 		add	r3, r7, #28
 1826 0020 1846     		mov	r0, r3
 1827 0022 FFF7FEFF 		bl	UART_1_PutString
 341:main.c        ****     print_hex_dump(p, plen);
 1828              		.loc 1 341 0
 1829 0026 FB7A     		ldrb	r3, [r7, #11]	@ zero_extendqisi2
 1830 0028 1946     		mov	r1, r3
 1831 002a F868     		ldr	r0, [r7, #12]
 1832 002c FFF7FEFF 		bl	print_hex_dump
 342:main.c        ****     if (plen < 6u) { UART_1_PutString("  short\r\n"); return; }
 1833              		.loc 1 342 0
 1834 0030 FB7A     		ldrb	r3, [r7, #11]	@ zero_extendqisi2
 1835 0032 052B     		cmp	r3, #5
 1836 0034 03D8     		bhi	.L115
 1837              		.loc 1 342 0 is_stmt 0 discriminator 1
 1838 0036 4548     		ldr	r0, .L126+4
 1839 0038 FFF7FEFF 		bl	UART_1_PutString
 1840 003c 81E0     		b	.L114
 1841              	.L115:
 343:main.c        ****     int16_t x=SNAP16BE(p,plen,0), y=SNAP16BE(p,plen,2), z=SNAP16BE(p,plen,4);
 1842              		.loc 1 343 0 is_stmt 1
 1843 003e FB7A     		ldrb	r3, [r7, #11]	@ zero_extendqisi2
 1844 0040 012B     		cmp	r3, #1
 1845 0042 0AD9     		bls	.L117
 1846              		.loc 1 343 0 is_stmt 0 discriminator 1
 1847 0044 FB68     		ldr	r3, [r7, #12]
 1848 0046 1B78     		ldrb	r3, [r3]	@ zero_extendqisi2
 1849 0048 1B02     		lsls	r3, r3, #8
 1850 004a 1AB2     		sxth	r2, r3
 1851 004c FB68     		ldr	r3, [r7, #12]
 1852 004e 0133     		adds	r3, r3, #1
 1853 0050 1B78     		ldrb	r3, [r3]	@ zero_extendqisi2
 1854 0052 1BB2     		sxth	r3, r3
 1855 0054 1343     		orrs	r3, r3, r2
 1856 0056 1BB2     		sxth	r3, r3
 1857 0058 00E0     		b	.L118
 1858              	.L117:
ARM GAS  C:\Users\JENNEW~1\AppData\Local\Temp\ccFpxs5T.s 			page 41


 1859              		.loc 1 343 0 discriminator 2
 1860 005a 0023     		movs	r3, #0
 1861              	.L118:
 1862              		.loc 1 343 0 discriminator 4
 1863 005c A7F8C230 		strh	r3, [r7, #194]	@ movhi
 1864 0060 FB7A     		ldrb	r3, [r7, #11]	@ zero_extendqisi2
 1865 0062 032B     		cmp	r3, #3
 1866 0064 0BD9     		bls	.L119
 1867              		.loc 1 343 0 discriminator 5
 1868 0066 FB68     		ldr	r3, [r7, #12]
 1869 0068 0233     		adds	r3, r3, #2
 1870 006a 1B78     		ldrb	r3, [r3]	@ zero_extendqisi2
 1871 006c 1B02     		lsls	r3, r3, #8
 1872 006e 1AB2     		sxth	r2, r3
 1873 0070 FB68     		ldr	r3, [r7, #12]
 1874 0072 0333     		adds	r3, r3, #3
 1875 0074 1B78     		ldrb	r3, [r3]	@ zero_extendqisi2
 1876 0076 1BB2     		sxth	r3, r3
 1877 0078 1343     		orrs	r3, r3, r2
 1878 007a 1BB2     		sxth	r3, r3
 1879 007c 00E0     		b	.L120
 1880              	.L119:
 1881              		.loc 1 343 0 discriminator 6
 1882 007e 0023     		movs	r3, #0
 1883              	.L120:
 1884              		.loc 1 343 0 discriminator 8
 1885 0080 A7F8C030 		strh	r3, [r7, #192]	@ movhi
 1886 0084 FB7A     		ldrb	r3, [r7, #11]	@ zero_extendqisi2
 1887 0086 052B     		cmp	r3, #5
 1888 0088 0BD9     		bls	.L121
 1889              		.loc 1 343 0 discriminator 9
 1890 008a FB68     		ldr	r3, [r7, #12]
 1891 008c 0433     		adds	r3, r3, #4
 1892 008e 1B78     		ldrb	r3, [r3]	@ zero_extendqisi2
 1893 0090 1B02     		lsls	r3, r3, #8
 1894 0092 1AB2     		sxth	r2, r3
 1895 0094 FB68     		ldr	r3, [r7, #12]
 1896 0096 0533     		adds	r3, r3, #5
 1897 0098 1B78     		ldrb	r3, [r3]	@ zero_extendqisi2
 1898 009a 1BB2     		sxth	r3, r3
 1899 009c 1343     		orrs	r3, r3, r2
 1900 009e 1BB2     		sxth	r3, r3
 1901 00a0 00E0     		b	.L122
 1902              	.L121:
 1903              		.loc 1 343 0 discriminator 10
 1904 00a2 0023     		movs	r3, #0
 1905              	.L122:
 1906              		.loc 1 343 0 discriminator 12
 1907 00a4 A7F8BE30 		strh	r3, [r7, #190]	@ movhi
 344:main.c        ****     float hdg = atan2f((float)y,(float)x)*57.2958f;
 1908              		.loc 1 344 0 is_stmt 1 discriminator 12
 1909 00a8 B7F9C030 		ldrsh	r3, [r7, #192]
 1910 00ac 1846     		mov	r0, r3
 1911 00ae FFF7FEFF 		bl	__aeabi_i2f
 1912 00b2 0446     		mov	r4, r0
 1913 00b4 B7F9C230 		ldrsh	r3, [r7, #194]
 1914 00b8 1846     		mov	r0, r3
ARM GAS  C:\Users\JENNEW~1\AppData\Local\Temp\ccFpxs5T.s 			page 42


 1915 00ba FFF7FEFF 		bl	__aeabi_i2f
 1916 00be 0346     		mov	r3, r0
 1917 00c0 1946     		mov	r1, r3
 1918 00c2 2046     		mov	r0, r4
 1919 00c4 FFF7FEFF 		bl	atan2f
 1920 00c8 0346     		mov	r3, r0
 1921 00ca 2149     		ldr	r1, .L126+8
 1922 00cc 1846     		mov	r0, r3
 1923 00ce FFF7FEFF 		bl	__aeabi_fmul
 1924 00d2 0346     		mov	r3, r0
 1925 00d4 C7F8C430 		str	r3, [r7, #196]	@ float
 345:main.c        ****     if (hdg < 0.0f) hdg += 360.0f;
 1926              		.loc 1 345 0 discriminator 12
 1927 00d8 4FF00001 		mov	r1, #0
 1928 00dc D7F8C400 		ldr	r0, [r7, #196]	@ float
 1929 00e0 FFF7FEFF 		bl	__aeabi_fcmplt
 1930 00e4 0346     		mov	r3, r0
 1931 00e6 002B     		cmp	r3, #0
 1932 00e8 07D0     		beq	.L123
 1933              		.loc 1 345 0 is_stmt 0 discriminator 1
 1934 00ea 1A49     		ldr	r1, .L126+12
 1935 00ec D7F8C400 		ldr	r0, [r7, #196]	@ float
 1936 00f0 FFF7FEFF 		bl	__aeabi_fadd
 1937 00f4 0346     		mov	r3, r0
 1938 00f6 C7F8C430 		str	r3, [r7, #196]	@ float
 1939              	.L123:
 346:main.c        ****     char s; int16_t hi, hf;
 347:main.c        ****     decomp(hdg, &hi, &hf, &s);
 1940              		.loc 1 347 0 is_stmt 1
 1941 00fa 07F11B03 		add	r3, r7, #27
 1942 00fe 07F11602 		add	r2, r7, #22
 1943 0102 07F11801 		add	r1, r7, #24
 1944 0106 D7F8C400 		ldr	r0, [r7, #196]	@ float
 1945 010a FFF7FEFF 		bl	decomp
 348:main.c        ****     sprintf(buf,"  X=%d Y=%d Z=%d  hdg~=%d.%02d deg\r\n",
 1946              		.loc 1 348 0
 1947 010e B7F9C220 		ldrsh	r2, [r7, #194]
 1948 0112 B7F9C010 		ldrsh	r1, [r7, #192]
 1949 0116 B7F9BE30 		ldrsh	r3, [r7, #190]
 1950 011a B7F91800 		ldrsh	r0, [r7, #24]
 1951 011e 0446     		mov	r4, r0
 1952 0120 B7F91600 		ldrsh	r0, [r7, #22]
 1953 0124 0546     		mov	r5, r0
 1954 0126 07F11C00 		add	r0, r7, #28
 1955 012a 0295     		str	r5, [sp, #8]
 1956 012c 0194     		str	r4, [sp, #4]
 1957 012e 0093     		str	r3, [sp]
 1958 0130 0B46     		mov	r3, r1
 1959 0132 0949     		ldr	r1, .L126+16
 1960 0134 FFF7FEFF 		bl	sprintf
 349:main.c        ****             (int)x,(int)y,(int)z,(int)hi,(int)hf);
 350:main.c        ****     UART_1_PutString(buf);
 1961              		.loc 1 350 0
 1962 0138 07F11C03 		add	r3, r7, #28
 1963 013c 1846     		mov	r0, r3
 1964 013e FFF7FEFF 		bl	UART_1_PutString
 1965              	.L114:
ARM GAS  C:\Users\JENNEW~1\AppData\Local\Temp\ccFpxs5T.s 			page 43


 351:main.c        **** }
 1966              		.loc 1 351 0
 1967 0142 C837     		adds	r7, r7, #200
 1968              		.cfi_def_cfa_offset 16
 1969 0144 BD46     		mov	sp, r7
 1970              		.cfi_def_cfa_register 13
 1971              		@ sp needed
 1972 0146 B0BD     		pop	{r4, r5, r7, pc}
 1973              	.L127:
 1974              		.align	2
 1975              	.L126:
 1976 0148 F8010000 		.word	.LC19
 1977 014c 64000000 		.word	.LC7
 1978 0150 E62E6542 		.word	1113927398
 1979 0154 0000B443 		.word	1135869952
 1980 0158 20020000 		.word	.LC20
 1981              		.cfi_endproc
 1982              	.LFE77:
 1983              		.size	print_mag, .-print_mag
 1984              		.section	.rodata
 1985 0245 000000   		.align	2
 1986              	.LC21:
 1987 0248 0D0A5B51 		.ascii	"\015\012[QUERY][Plat] dt=%lums snaplen=%u\015\012\000"
 1987      55455259 
 1987      5D5B506C 
 1987      61745D20 
 1987      64743D25 
 1988 026e 0000     		.align	2
 1989              	.LC22:
 1990 0270 2020526F 		.ascii	"  Roll =%c%d.%02d  \000"
 1990      6C6C203D 
 1990      25632564 
 1990      2E253032 
 1990      64202000 
 1991              		.align	2
 1992              	.LC23:
 1993 0284 50697463 		.ascii	"Pitch=%c%d.%02d  \000"
 1993      683D2563 
 1993      25642E25 
 1993      30326420 
 1993      2000
 1994 0296 0000     		.align	2
 1995              	.LC24:
 1996 0298 5961773D 		.ascii	"Yaw=%c%d.%02d deg\015\012\000"
 1996      25632564 
 1996      2E253032 
 1996      64206465 
 1996      670D0A00 
 1997              		.align	2
 1998              	.LC25:
 1999 02ac 20202847 		.ascii	"  (GCU box, not camera)\015\012\000"
 1999      43552062 
 1999      6F782C20 
 1999      6E6F7420 
 1999      63616D65 
 2000              		.section	.text.print_platform,"ax",%progbits
 2001              		.align	2
ARM GAS  C:\Users\JENNEW~1\AppData\Local\Temp\ccFpxs5T.s 			page 44


 2002              		.thumb
 2003              		.thumb_func
 2004              		.type	print_platform, %function
 2005              	print_platform:
 2006              	.LFB78:
 352:main.c        **** 
 353:main.c        **** static void print_platform(const uint8_t *p, uint8_t plen, uint32_t dt)
 354:main.c        **** {
 2007              		.loc 1 354 0
 2008              		.cfi_startproc
 2009              		@ args = 0, pretend = 0, frame = 192
 2010              		@ frame_needed = 1, uses_anonymous_args = 0
 2011 0000 80B5     		push	{r7, lr}
 2012              		.cfi_def_cfa_offset 8
 2013              		.cfi_offset 7, -8
 2014              		.cfi_offset 14, -4
 2015 0002 B2B0     		sub	sp, sp, #200
 2016              		.cfi_def_cfa_offset 208
 2017 0004 02AF     		add	r7, sp, #8
 2018              		.cfi_def_cfa 7, 200
 2019 0006 F860     		str	r0, [r7, #12]
 2020 0008 0B46     		mov	r3, r1
 2021 000a 7A60     		str	r2, [r7, #4]
 2022 000c FB72     		strb	r3, [r7, #11]
 355:main.c        ****     char buf[TX_BUF_SIZE];
 356:main.c        ****     sprintf(buf, "\r\n[QUERY][Plat] dt=%lums snaplen=%u\r\n",
 2023              		.loc 1 356 0
 2024 000e FB7A     		ldrb	r3, [r7, #11]	@ zero_extendqisi2
 2025 0010 07F11800 		add	r0, r7, #24
 2026 0014 7A68     		ldr	r2, [r7, #4]
 2027 0016 6249     		ldr	r1, .L137
 2028 0018 FFF7FEFF 		bl	sprintf
 357:main.c        ****             (unsigned long)dt, plen);
 358:main.c        ****     UART_1_PutString(buf);
 2029              		.loc 1 358 0
 2030 001c 07F11803 		add	r3, r7, #24
 2031 0020 1846     		mov	r0, r3
 2032 0022 FFF7FEFF 		bl	UART_1_PutString
 359:main.c        ****     print_hex_dump(p, plen);
 2033              		.loc 1 359 0
 2034 0026 FB7A     		ldrb	r3, [r7, #11]	@ zero_extendqisi2
 2035 0028 1946     		mov	r1, r3
 2036 002a F868     		ldr	r0, [r7, #12]
 2037 002c FFF7FEFF 		bl	print_hex_dump
 360:main.c        ****     if (plen < 7u) { UART_1_PutString("  short\r\n"); return; }
 2038              		.loc 1 360 0
 2039 0030 FB7A     		ldrb	r3, [r7, #11]	@ zero_extendqisi2
 2040 0032 062B     		cmp	r3, #6
 2041 0034 03D8     		bhi	.L129
 2042              		.loc 1 360 0 is_stmt 0 discriminator 1
 2043 0036 5B48     		ldr	r0, .L137+4
 2044 0038 FFF7FEFF 		bl	UART_1_PutString
 2045 003c ADE0     		b	.L128
 2046              	.L129:
 361:main.c        ****     char s; int16_t vi, vf;
 362:main.c        ****     int16_t roll =SNAP16BE(p,plen,1);
 2047              		.loc 1 362 0 is_stmt 1
ARM GAS  C:\Users\JENNEW~1\AppData\Local\Temp\ccFpxs5T.s 			page 45


 2048 003e FB7A     		ldrb	r3, [r7, #11]	@ zero_extendqisi2
 2049 0040 022B     		cmp	r3, #2
 2050 0042 0BD9     		bls	.L131
 2051              		.loc 1 362 0 is_stmt 0 discriminator 1
 2052 0044 FB68     		ldr	r3, [r7, #12]
 2053 0046 0133     		adds	r3, r3, #1
 2054 0048 1B78     		ldrb	r3, [r3]	@ zero_extendqisi2
 2055 004a 1B02     		lsls	r3, r3, #8
 2056 004c 1AB2     		sxth	r2, r3
 2057 004e FB68     		ldr	r3, [r7, #12]
 2058 0050 0233     		adds	r3, r3, #2
 2059 0052 1B78     		ldrb	r3, [r3]	@ zero_extendqisi2
 2060 0054 1BB2     		sxth	r3, r3
 2061 0056 1343     		orrs	r3, r3, r2
 2062 0058 1BB2     		sxth	r3, r3
 2063 005a 00E0     		b	.L132
 2064              	.L131:
 2065              		.loc 1 362 0 discriminator 2
 2066 005c 0023     		movs	r3, #0
 2067              	.L132:
 2068              		.loc 1 362 0 discriminator 4
 2069 005e A7F8BE30 		strh	r3, [r7, #190]	@ movhi
 363:main.c        ****     int16_t pitch=SNAP16BE(p,plen,3);
 2070              		.loc 1 363 0 is_stmt 1 discriminator 4
 2071 0062 FB7A     		ldrb	r3, [r7, #11]	@ zero_extendqisi2
 2072 0064 042B     		cmp	r3, #4
 2073 0066 0BD9     		bls	.L133
 2074              		.loc 1 363 0 is_stmt 0 discriminator 1
 2075 0068 FB68     		ldr	r3, [r7, #12]
 2076 006a 0333     		adds	r3, r3, #3
 2077 006c 1B78     		ldrb	r3, [r3]	@ zero_extendqisi2
 2078 006e 1B02     		lsls	r3, r3, #8
 2079 0070 1AB2     		sxth	r2, r3
 2080 0072 FB68     		ldr	r3, [r7, #12]
 2081 0074 0433     		adds	r3, r3, #4
 2082 0076 1B78     		ldrb	r3, [r3]	@ zero_extendqisi2
 2083 0078 1BB2     		sxth	r3, r3
 2084 007a 1343     		orrs	r3, r3, r2
 2085 007c 1BB2     		sxth	r3, r3
 2086 007e 00E0     		b	.L134
 2087              	.L133:
 2088              		.loc 1 363 0 discriminator 2
 2089 0080 0023     		movs	r3, #0
 2090              	.L134:
 2091              		.loc 1 363 0 discriminator 4
 2092 0082 A7F8BC30 		strh	r3, [r7, #188]	@ movhi
 364:main.c        ****     int16_t yaw  =SNAP16BE(p,plen,5);
 2093              		.loc 1 364 0 is_stmt 1 discriminator 4
 2094 0086 FB7A     		ldrb	r3, [r7, #11]	@ zero_extendqisi2
 2095 0088 062B     		cmp	r3, #6
 2096 008a 0BD9     		bls	.L135
 2097              		.loc 1 364 0 is_stmt 0 discriminator 1
 2098 008c FB68     		ldr	r3, [r7, #12]
 2099 008e 0533     		adds	r3, r3, #5
 2100 0090 1B78     		ldrb	r3, [r3]	@ zero_extendqisi2
 2101 0092 1B02     		lsls	r3, r3, #8
 2102 0094 1AB2     		sxth	r2, r3
ARM GAS  C:\Users\JENNEW~1\AppData\Local\Temp\ccFpxs5T.s 			page 46


 2103 0096 FB68     		ldr	r3, [r7, #12]
 2104 0098 0633     		adds	r3, r3, #6
 2105 009a 1B78     		ldrb	r3, [r3]	@ zero_extendqisi2
 2106 009c 1BB2     		sxth	r3, r3
 2107 009e 1343     		orrs	r3, r3, r2
 2108 00a0 1BB2     		sxth	r3, r3
 2109 00a2 00E0     		b	.L136
 2110              	.L135:
 2111              		.loc 1 364 0 discriminator 2
 2112 00a4 0023     		movs	r3, #0
 2113              	.L136:
 2114              		.loc 1 364 0 discriminator 4
 2115 00a6 A7F8BA30 		strh	r3, [r7, #186]	@ movhi
 365:main.c        ****     decomp((float)roll /100.0f,&vi,&vf,&s);
 2116              		.loc 1 365 0 is_stmt 1 discriminator 4
 2117 00aa B7F9BE30 		ldrsh	r3, [r7, #190]
 2118 00ae 1846     		mov	r0, r3
 2119 00b0 FFF7FEFF 		bl	__aeabi_i2f
 2120 00b4 0346     		mov	r3, r0
 2121 00b6 3C49     		ldr	r1, .L137+8
 2122 00b8 1846     		mov	r0, r3
 2123 00ba FFF7FEFF 		bl	__aeabi_fdiv
 2124 00be 0346     		mov	r3, r0
 2125 00c0 1846     		mov	r0, r3
 2126 00c2 07F11703 		add	r3, r7, #23
 2127 00c6 07F11202 		add	r2, r7, #18
 2128 00ca 07F11401 		add	r1, r7, #20
 2129 00ce FFF7FEFF 		bl	decomp
 366:main.c        ****     sprintf(buf,"  Roll =%c%d.%02d  ",s,vi,vf); UART_1_PutString(buf);
 2130              		.loc 1 366 0 discriminator 4
 2131 00d2 FB7D     		ldrb	r3, [r7, #23]	@ zero_extendqisi2
 2132 00d4 1A46     		mov	r2, r3
 2133 00d6 B7F91430 		ldrsh	r3, [r7, #20]
 2134 00da 1946     		mov	r1, r3
 2135 00dc B7F91230 		ldrsh	r3, [r7, #18]
 2136 00e0 07F11800 		add	r0, r7, #24
 2137 00e4 0093     		str	r3, [sp]
 2138 00e6 0B46     		mov	r3, r1
 2139 00e8 3049     		ldr	r1, .L137+12
 2140 00ea FFF7FEFF 		bl	sprintf
 2141 00ee 07F11803 		add	r3, r7, #24
 2142 00f2 1846     		mov	r0, r3
 2143 00f4 FFF7FEFF 		bl	UART_1_PutString
 367:main.c        ****     decomp((float)pitch/100.0f,&vi,&vf,&s);
 2144              		.loc 1 367 0 discriminator 4
 2145 00f8 B7F9BC30 		ldrsh	r3, [r7, #188]
 2146 00fc 1846     		mov	r0, r3
 2147 00fe FFF7FEFF 		bl	__aeabi_i2f
 2148 0102 0346     		mov	r3, r0
 2149 0104 2849     		ldr	r1, .L137+8
 2150 0106 1846     		mov	r0, r3
 2151 0108 FFF7FEFF 		bl	__aeabi_fdiv
 2152 010c 0346     		mov	r3, r0
 2153 010e 1846     		mov	r0, r3
 2154 0110 07F11703 		add	r3, r7, #23
 2155 0114 07F11202 		add	r2, r7, #18
 2156 0118 07F11401 		add	r1, r7, #20
ARM GAS  C:\Users\JENNEW~1\AppData\Local\Temp\ccFpxs5T.s 			page 47


 2157 011c FFF7FEFF 		bl	decomp
 368:main.c        ****     sprintf(buf,"Pitch=%c%d.%02d  ",s,vi,vf); UART_1_PutString(buf);
 2158              		.loc 1 368 0 discriminator 4
 2159 0120 FB7D     		ldrb	r3, [r7, #23]	@ zero_extendqisi2
 2160 0122 1A46     		mov	r2, r3
 2161 0124 B7F91430 		ldrsh	r3, [r7, #20]
 2162 0128 1946     		mov	r1, r3
 2163 012a B7F91230 		ldrsh	r3, [r7, #18]
 2164 012e 07F11800 		add	r0, r7, #24
 2165 0132 0093     		str	r3, [sp]
 2166 0134 0B46     		mov	r3, r1
 2167 0136 1E49     		ldr	r1, .L137+16
 2168 0138 FFF7FEFF 		bl	sprintf
 2169 013c 07F11803 		add	r3, r7, #24
 2170 0140 1846     		mov	r0, r3
 2171 0142 FFF7FEFF 		bl	UART_1_PutString
 369:main.c        ****     decomp((float)yaw  /100.0f,&vi,&vf,&s);
 2172              		.loc 1 369 0 discriminator 4
 2173 0146 B7F9BA30 		ldrsh	r3, [r7, #186]
 2174 014a 1846     		mov	r0, r3
 2175 014c FFF7FEFF 		bl	__aeabi_i2f
 2176 0150 0346     		mov	r3, r0
 2177 0152 1549     		ldr	r1, .L137+8
 2178 0154 1846     		mov	r0, r3
 2179 0156 FFF7FEFF 		bl	__aeabi_fdiv
 2180 015a 0346     		mov	r3, r0
 2181 015c 1846     		mov	r0, r3
 2182 015e 07F11703 		add	r3, r7, #23
 2183 0162 07F11202 		add	r2, r7, #18
 2184 0166 07F11401 		add	r1, r7, #20
 2185 016a FFF7FEFF 		bl	decomp
 370:main.c        ****     sprintf(buf,"Yaw=%c%d.%02d deg\r\n",s,vi,vf); UART_1_PutString(buf);
 2186              		.loc 1 370 0 discriminator 4
 2187 016e FB7D     		ldrb	r3, [r7, #23]	@ zero_extendqisi2
 2188 0170 1A46     		mov	r2, r3
 2189 0172 B7F91430 		ldrsh	r3, [r7, #20]
 2190 0176 1946     		mov	r1, r3
 2191 0178 B7F91230 		ldrsh	r3, [r7, #18]
 2192 017c 07F11800 		add	r0, r7, #24
 2193 0180 0093     		str	r3, [sp]
 2194 0182 0B46     		mov	r3, r1
 2195 0184 0B49     		ldr	r1, .L137+20
 2196 0186 FFF7FEFF 		bl	sprintf
 2197 018a 07F11803 		add	r3, r7, #24
 2198 018e 1846     		mov	r0, r3
 2199 0190 FFF7FEFF 		bl	UART_1_PutString
 371:main.c        ****     UART_1_PutString("  (GCU box, not camera)\r\n");
 2200              		.loc 1 371 0 discriminator 4
 2201 0194 0848     		ldr	r0, .L137+24
 2202 0196 FFF7FEFF 		bl	UART_1_PutString
 2203              	.L128:
 372:main.c        **** }
 2204              		.loc 1 372 0
 2205 019a C037     		adds	r7, r7, #192
 2206              		.cfi_def_cfa_offset 8
 2207 019c BD46     		mov	sp, r7
 2208              		.cfi_def_cfa_register 13
ARM GAS  C:\Users\JENNEW~1\AppData\Local\Temp\ccFpxs5T.s 			page 48


 2209              		@ sp needed
 2210 019e 80BD     		pop	{r7, pc}
 2211              	.L138:
 2212              		.align	2
 2213              	.L137:
 2214 01a0 48020000 		.word	.LC21
 2215 01a4 64000000 		.word	.LC7
 2216 01a8 0000C842 		.word	1120403456
 2217 01ac 70020000 		.word	.LC22
 2218 01b0 84020000 		.word	.LC23
 2219 01b4 98020000 		.word	.LC24
 2220 01b8 AC020000 		.word	.LC25
 2221              		.cfi_endproc
 2222              	.LFE78:
 2223              		.size	print_platform, .-print_platform
 2224              		.section	.rodata
 2225 02c6 0000     		.align	2
 2226              	.LC26:
 2227 02c8 0D0A5B51 		.ascii	"\015\012[QUERY][Drv] dt=%lums snaplen=%u\015\012\000"
 2227      55455259 
 2227      5D5B4472 
 2227      765D2064 
 2227      743D256C 
 2228 02ed 000000   		.align	2
 2229              	.LC27:
 2230 02f0 20206F66 		.ascii	"  off8=0x%02X (device flag)\015\012\000"
 2230      66383D30 
 2230      78253032 
 2230      58202864 
 2230      65766963 
 2231 030e 0000     		.align	2
 2232              	.LC28:
 2233 0310 6E6F6E2D 		.ascii	"non-zero: active\000"
 2233      7A65726F 
 2233      3A206163 
 2233      74697665 
 2233      00
 2234 0321 000000   		.align	2
 2235              	.LC29:
 2236 0324 616C6C20 		.ascii	"all zero: idle\000"
 2236      7A65726F 
 2236      3A206964 
 2236      6C6500
 2237 0333 00       		.align	2
 2238              	.LC30:
 2239 0334 20206F66 		.ascii	"  off9-13: %02X %02X %02X %02X %02X  %s\015\012\000"
 2239      66392D31 
 2239      333A2025 
 2239      30325820 
 2239      25303258 
 2240              		.section	.text.print_motor,"ax",%progbits
 2241              		.align	2
 2242              		.thumb
 2243              		.thumb_func
 2244              		.type	print_motor, %function
 2245              	print_motor:
 2246              	.LFB79:
ARM GAS  C:\Users\JENNEW~1\AppData\Local\Temp\ccFpxs5T.s 			page 49


 373:main.c        **** 
 374:main.c        **** static void print_motor(const uint8_t *p, uint8_t plen, uint32_t dt)
 375:main.c        **** {
 2247              		.loc 1 375 0
 2248              		.cfi_startproc
 2249              		@ args = 0, pretend = 0, frame = 184
 2250              		@ frame_needed = 1, uses_anonymous_args = 0
 2251 0000 F0B5     		push	{r4, r5, r6, r7, lr}
 2252              		.cfi_def_cfa_offset 20
 2253              		.cfi_offset 4, -20
 2254              		.cfi_offset 5, -16
 2255              		.cfi_offset 6, -12
 2256              		.cfi_offset 7, -8
 2257              		.cfi_offset 14, -4
 2258 0002 B3B0     		sub	sp, sp, #204
 2259              		.cfi_def_cfa_offset 224
 2260 0004 04AF     		add	r7, sp, #16
 2261              		.cfi_def_cfa 7, 208
 2262 0006 F860     		str	r0, [r7, #12]
 2263 0008 0B46     		mov	r3, r1
 2264 000a 7A60     		str	r2, [r7, #4]
 2265 000c FB72     		strb	r3, [r7, #11]
 376:main.c        ****     char buf[TX_BUF_SIZE];
 377:main.c        ****     sprintf(buf, "\r\n[QUERY][Drv] dt=%lums snaplen=%u\r\n",
 2266              		.loc 1 377 0
 2267 000e FB7A     		ldrb	r3, [r7, #11]	@ zero_extendqisi2
 2268 0010 07F11400 		add	r0, r7, #20
 2269 0014 7A68     		ldr	r2, [r7, #4]
 2270 0016 3749     		ldr	r1, .L149
 2271 0018 FFF7FEFF 		bl	sprintf
 378:main.c        ****             (unsigned long)dt, plen);
 379:main.c        ****     UART_1_PutString(buf);
 2272              		.loc 1 379 0
 2273 001c 07F11403 		add	r3, r7, #20
 2274 0020 1846     		mov	r0, r3
 2275 0022 FFF7FEFF 		bl	UART_1_PutString
 380:main.c        ****     print_hex_dump(p, plen);
 2276              		.loc 1 380 0
 2277 0026 FB7A     		ldrb	r3, [r7, #11]	@ zero_extendqisi2
 2278 0028 1946     		mov	r1, r3
 2279 002a F868     		ldr	r0, [r7, #12]
 2280 002c FFF7FEFF 		bl	print_hex_dump
 381:main.c        ****     if (plen < 9u) { UART_1_PutString("  short\r\n"); return; }
 2281              		.loc 1 381 0
 2282 0030 FB7A     		ldrb	r3, [r7, #11]	@ zero_extendqisi2
 2283 0032 082B     		cmp	r3, #8
 2284 0034 03D8     		bhi	.L140
 2285              		.loc 1 381 0 is_stmt 0 discriminator 1
 2286 0036 3048     		ldr	r0, .L149+4
 2287 0038 FFF7FEFF 		bl	UART_1_PutString
 2288 003c 57E0     		b	.L139
 2289              	.L140:
 382:main.c        ****     sprintf(buf,"  off8=0x%02X (device flag)\r\n",(unsigned)p[8]);
 2290              		.loc 1 382 0 is_stmt 1
 2291 003e FB68     		ldr	r3, [r7, #12]
 2292 0040 0833     		adds	r3, r3, #8
 2293 0042 1B78     		ldrb	r3, [r3]	@ zero_extendqisi2
ARM GAS  C:\Users\JENNEW~1\AppData\Local\Temp\ccFpxs5T.s 			page 50


 2294 0044 1A46     		mov	r2, r3
 2295 0046 07F11403 		add	r3, r7, #20
 2296 004a 2C49     		ldr	r1, .L149+8
 2297 004c 1846     		mov	r0, r3
 2298 004e FFF7FEFF 		bl	sprintf
 383:main.c        ****     UART_1_PutString(buf);
 2299              		.loc 1 383 0
 2300 0052 07F11403 		add	r3, r7, #20
 2301 0056 1846     		mov	r0, r3
 2302 0058 FFF7FEFF 		bl	UART_1_PutString
 384:main.c        ****     if (plen >= 14u) {
 2303              		.loc 1 384 0
 2304 005c FB7A     		ldrb	r3, [r7, #11]	@ zero_extendqisi2
 2305 005e 0D2B     		cmp	r3, #13
 2306 0060 45D9     		bls	.L139
 2307              	.LBB9:
 385:main.c        ****         uint8_t any = 0u, i;
 2308              		.loc 1 385 0
 2309 0062 0023     		movs	r3, #0
 2310 0064 87F8B730 		strb	r3, [r7, #183]
 386:main.c        ****         for (i=9u;i<=13u;i++) if(p[i]) { any=1u; break; }
 2311              		.loc 1 386 0
 2312 0068 0923     		movs	r3, #9
 2313 006a 87F8B630 		strb	r3, [r7, #182]
 2314 006e 0FE0     		b	.L143
 2315              	.L146:
 2316              		.loc 1 386 0 is_stmt 0 discriminator 5
 2317 0070 97F8B630 		ldrb	r3, [r7, #182]	@ zero_extendqisi2
 2318 0074 FA68     		ldr	r2, [r7, #12]
 2319 0076 1344     		add	r3, r3, r2
 2320 0078 1B78     		ldrb	r3, [r3]	@ zero_extendqisi2
 2321 007a 002B     		cmp	r3, #0
 2322 007c 03D0     		beq	.L144
 2323              		.loc 1 386 0 discriminator 2
 2324 007e 0123     		movs	r3, #1
 2325 0080 87F8B730 		strb	r3, [r7, #183]
 2326 0084 08E0     		b	.L145
 2327              	.L144:
 2328              		.loc 1 386 0 discriminator 3
 2329 0086 97F8B630 		ldrb	r3, [r7, #182]	@ zero_extendqisi2
 2330 008a 0133     		adds	r3, r3, #1
 2331 008c 87F8B630 		strb	r3, [r7, #182]
 2332              	.L143:
 2333              		.loc 1 386 0 discriminator 4
 2334 0090 97F8B630 		ldrb	r3, [r7, #182]	@ zero_extendqisi2
 2335 0094 0D2B     		cmp	r3, #13
 2336 0096 EBD9     		bls	.L146
 2337              	.L145:
 387:main.c        ****         sprintf(buf,"  off9-13: %02X %02X %02X %02X %02X  %s\r\n",
 388:main.c        ****                 p[9],p[10],p[11],p[12],p[13],
 2338              		.loc 1 388 0 is_stmt 1
 2339 0098 FB68     		ldr	r3, [r7, #12]
 2340 009a 0933     		adds	r3, r3, #9
 2341 009c 1B78     		ldrb	r3, [r3]	@ zero_extendqisi2
 387:main.c        ****         sprintf(buf,"  off9-13: %02X %02X %02X %02X %02X  %s\r\n",
 2342              		.loc 1 387 0
 2343 009e 1D46     		mov	r5, r3
ARM GAS  C:\Users\JENNEW~1\AppData\Local\Temp\ccFpxs5T.s 			page 51


 2344              		.loc 1 388 0
 2345 00a0 FB68     		ldr	r3, [r7, #12]
 2346 00a2 0A33     		adds	r3, r3, #10
 2347 00a4 1B78     		ldrb	r3, [r3]	@ zero_extendqisi2
 387:main.c        ****         sprintf(buf,"  off9-13: %02X %02X %02X %02X %02X  %s\r\n",
 2348              		.loc 1 387 0
 2349 00a6 1E46     		mov	r6, r3
 2350              		.loc 1 388 0
 2351 00a8 FB68     		ldr	r3, [r7, #12]
 2352 00aa 0B33     		adds	r3, r3, #11
 2353 00ac 1B78     		ldrb	r3, [r3]	@ zero_extendqisi2
 387:main.c        ****         sprintf(buf,"  off9-13: %02X %02X %02X %02X %02X  %s\r\n",
 2354              		.loc 1 387 0
 2355 00ae 1A46     		mov	r2, r3
 2356              		.loc 1 388 0
 2357 00b0 FB68     		ldr	r3, [r7, #12]
 2358 00b2 0C33     		adds	r3, r3, #12
 2359 00b4 1B78     		ldrb	r3, [r3]	@ zero_extendqisi2
 387:main.c        ****         sprintf(buf,"  off9-13: %02X %02X %02X %02X %02X  %s\r\n",
 2360              		.loc 1 387 0
 2361 00b6 1946     		mov	r1, r3
 2362              		.loc 1 388 0
 2363 00b8 FB68     		ldr	r3, [r7, #12]
 2364 00ba 0D33     		adds	r3, r3, #13
 2365 00bc 1B78     		ldrb	r3, [r3]	@ zero_extendqisi2
 387:main.c        ****         sprintf(buf,"  off9-13: %02X %02X %02X %02X %02X  %s\r\n",
 2366              		.loc 1 387 0
 2367 00be 1C46     		mov	r4, r3
 2368 00c0 97F8B730 		ldrb	r3, [r7, #183]	@ zero_extendqisi2
 2369 00c4 002B     		cmp	r3, #0
 2370 00c6 01D0     		beq	.L147
 387:main.c        ****         sprintf(buf,"  off9-13: %02X %02X %02X %02X %02X  %s\r\n",
 2371              		.loc 1 387 0 is_stmt 0 discriminator 1
 2372 00c8 0D4B     		ldr	r3, .L149+12
 2373 00ca 00E0     		b	.L148
 2374              	.L147:
 387:main.c        ****         sprintf(buf,"  off9-13: %02X %02X %02X %02X %02X  %s\r\n",
 2375              		.loc 1 387 0 discriminator 2
 2376 00cc 0D4B     		ldr	r3, .L149+16
 2377              	.L148:
 387:main.c        ****         sprintf(buf,"  off9-13: %02X %02X %02X %02X %02X  %s\r\n",
 2378              		.loc 1 387 0 discriminator 4
 2379 00ce 07F11400 		add	r0, r7, #20
 2380 00d2 0393     		str	r3, [sp, #12]
 2381 00d4 0294     		str	r4, [sp, #8]
 2382 00d6 0191     		str	r1, [sp, #4]
 2383 00d8 0092     		str	r2, [sp]
 2384 00da 3346     		mov	r3, r6
 2385 00dc 2A46     		mov	r2, r5
 2386 00de 0A49     		ldr	r1, .L149+20
 2387 00e0 FFF7FEFF 		bl	sprintf
 389:main.c        ****                 any ? "non-zero: active" : "all zero: idle");
 390:main.c        ****         UART_1_PutString(buf);
 2388              		.loc 1 390 0 is_stmt 1 discriminator 4
 2389 00e4 07F11403 		add	r3, r7, #20
 2390 00e8 1846     		mov	r0, r3
 2391 00ea FFF7FEFF 		bl	UART_1_PutString
ARM GAS  C:\Users\JENNEW~1\AppData\Local\Temp\ccFpxs5T.s 			page 52


 2392              	.L139:
 2393              	.LBE9:
 391:main.c        ****     }
 392:main.c        **** }
 2394              		.loc 1 392 0
 2395 00ee BC37     		adds	r7, r7, #188
 2396              		.cfi_def_cfa_offset 20
 2397 00f0 BD46     		mov	sp, r7
 2398              		.cfi_def_cfa_register 13
 2399              		@ sp needed
 2400 00f2 F0BD     		pop	{r4, r5, r6, r7, pc}
 2401              	.L150:
 2402              		.align	2
 2403              	.L149:
 2404 00f4 C8020000 		.word	.LC26
 2405 00f8 64000000 		.word	.LC7
 2406 00fc F0020000 		.word	.LC27
 2407 0100 10030000 		.word	.LC28
 2408 0104 24030000 		.word	.LC29
 2409 0108 34030000 		.word	.LC30
 2410              		.cfi_endproc
 2411              	.LFE79:
 2412              		.size	print_motor, .-print_motor
 2413              		.section	.rodata
 2414 035e 0000     		.align	2
 2415              	.LC31:
 2416 0360 5B515545 		.ascii	"[QUERY] attr=%u -- no printer\015\012\000"
 2416      52595D20 
 2416      61747472 
 2416      3D257520 
 2416      2D2D206E 
 2417              		.section	.text.print_query_response,"ax",%progbits
 2418              		.align	2
 2419              		.thumb
 2420              		.thumb_func
 2421              		.type	print_query_response, %function
 2422              	print_query_response:
 2423              	.LFB80:
 393:main.c        **** 
 394:main.c        **** static void print_query_response(uint32_t dt)
 395:main.c        **** {
 2424              		.loc 1 395 0
 2425              		.cfi_startproc
 2426              		@ args = 0, pretend = 0, frame = 88
 2427              		@ frame_needed = 1, uses_anonymous_args = 0
 2428 0000 80B5     		push	{r7, lr}
 2429              		.cfi_def_cfa_offset 8
 2430              		.cfi_offset 7, -8
 2431              		.cfi_offset 14, -4
 2432 0002 96B0     		sub	sp, sp, #88
 2433              		.cfi_def_cfa_offset 96
 2434 0004 00AF     		add	r7, sp, #0
 2435              		.cfi_def_cfa_register 7
 2436 0006 7860     		str	r0, [r7, #4]
 396:main.c        ****     uint16_t attr = g_movi.pending_response_attr;
 2437              		.loc 1 396 0
 2438 0008 5F4B     		ldr	r3, .L162
ARM GAS  C:\Users\JENNEW~1\AppData\Local\Temp\ccFpxs5T.s 			page 53


 2439 000a B3F83A33 		ldrh	r3, [r3, #826]	@ movhi
 2440 000e A7F85630 		strh	r3, [r7, #86]	@ movhi
 397:main.c        ****     const uint8_t *p = g_movi.pending_payload;
 2441              		.loc 1 397 0
 2442 0012 5E4B     		ldr	r3, .L162+4
 2443 0014 3B65     		str	r3, [r7, #80]
 398:main.c        ****     uint8_t plen = g_movi.pending_payload_len;
 2444              		.loc 1 398 0
 2445 0016 5C4B     		ldr	r3, .L162
 2446 0018 93F87E33 		ldrb	r3, [r3, #894]
 2447 001c 87F84F30 		strb	r3, [r7, #79]
 399:main.c        ****     switch (attr) {
 2448              		.loc 1 399 0
 2449 0020 B7F85630 		ldrh	r3, [r7, #86]
 2450 0024 013B     		subs	r3, r3, #1
 2451 0026 2F2B     		cmp	r3, #47
 2452 0028 00F29C80 		bhi	.L152
 2453 002c 01A2     		adr	r2, .L154
 2454 002e 52F823F0 		ldr	pc, [r2, r3, lsl #2]
 2455 0032 00BF     		.p2align 2
 2456              	.L154:
 2457 0034 25010000 		.word	.L153+1
 2458 0038 45010000 		.word	.L155+1
 2459 003c 15010000 		.word	.L156+1
 2460 0040 05010000 		.word	.L157+1
 2461 0044 65010000 		.word	.L152+1
 2462 0048 65010000 		.word	.L152+1
 2463 004c 65010000 		.word	.L152+1
 2464 0050 65010000 		.word	.L152+1
 2465 0054 65010000 		.word	.L152+1
 2466 0058 65010000 		.word	.L152+1
 2467 005c 65010000 		.word	.L152+1
 2468 0060 35010000 		.word	.L158+1
 2469 0064 65010000 		.word	.L152+1
 2470 0068 65010000 		.word	.L152+1
 2471 006c 65010000 		.word	.L152+1
 2472 0070 65010000 		.word	.L152+1
 2473 0074 65010000 		.word	.L152+1
 2474 0078 65010000 		.word	.L152+1
 2475 007c 65010000 		.word	.L152+1
 2476 0080 65010000 		.word	.L152+1
 2477 0084 65010000 		.word	.L152+1
 2478 0088 F5000000 		.word	.L159+1
 2479 008c 65010000 		.word	.L152+1
 2480 0090 65010000 		.word	.L152+1
 2481 0094 65010000 		.word	.L152+1
 2482 0098 65010000 		.word	.L152+1
 2483 009c 65010000 		.word	.L152+1
 2484 00a0 65010000 		.word	.L152+1
 2485 00a4 65010000 		.word	.L152+1
 2486 00a8 65010000 		.word	.L152+1
 2487 00ac 65010000 		.word	.L152+1
 2488 00b0 65010000 		.word	.L152+1
 2489 00b4 65010000 		.word	.L152+1
 2490 00b8 65010000 		.word	.L152+1
 2491 00bc 65010000 		.word	.L152+1
 2492 00c0 65010000 		.word	.L152+1
ARM GAS  C:\Users\JENNEW~1\AppData\Local\Temp\ccFpxs5T.s 			page 54


 2493 00c4 65010000 		.word	.L152+1
 2494 00c8 65010000 		.word	.L152+1
 2495 00cc 65010000 		.word	.L152+1
 2496 00d0 65010000 		.word	.L152+1
 2497 00d4 65010000 		.word	.L152+1
 2498 00d8 65010000 		.word	.L152+1
 2499 00dc 65010000 		.word	.L152+1
 2500 00e0 65010000 		.word	.L152+1
 2501 00e4 65010000 		.word	.L152+1
 2502 00e8 65010000 		.word	.L152+1
 2503 00ec 65010000 		.word	.L152+1
 2504 00f0 55010000 		.word	.L160+1
 2505              		.p2align 1
 2506              	.L159:
 400:main.c        ****         case 22u: print_att(p, plen, dt);      break;
 2507              		.loc 1 400 0
 2508 00f4 97F84F30 		ldrb	r3, [r7, #79]	@ zero_extendqisi2
 2509 00f8 7A68     		ldr	r2, [r7, #4]
 2510 00fa 1946     		mov	r1, r3
 2511 00fc 386D     		ldr	r0, [r7, #80]
 2512 00fe FFF7FEFF 		bl	print_att
 2513 0102 3CE0     		b	.L161
 2514              	.L157:
 401:main.c        ****         case  4u: print_gps(p, plen, dt);      break;
 2515              		.loc 1 401 0
 2516 0104 97F84F30 		ldrb	r3, [r7, #79]	@ zero_extendqisi2
 2517 0108 7A68     		ldr	r2, [r7, #4]
 2518 010a 1946     		mov	r1, r3
 2519 010c 386D     		ldr	r0, [r7, #80]
 2520 010e FFF7FEFF 		bl	print_gps
 2521 0112 34E0     		b	.L161
 2522              	.L156:
 402:main.c        ****         case  3u: print_baro(p, plen, dt);     break;
 2523              		.loc 1 402 0
 2524 0114 97F84F30 		ldrb	r3, [r7, #79]	@ zero_extendqisi2
 2525 0118 7A68     		ldr	r2, [r7, #4]
 2526 011a 1946     		mov	r1, r3
 2527 011c 386D     		ldr	r0, [r7, #80]
 2528 011e FFF7FEFF 		bl	print_baro
 2529 0122 2CE0     		b	.L161
 2530              	.L153:
 403:main.c        ****         case  1u: print_sysstat(p, plen, dt);  break;
 2531              		.loc 1 403 0
 2532 0124 97F84F30 		ldrb	r3, [r7, #79]	@ zero_extendqisi2
 2533 0128 7A68     		ldr	r2, [r7, #4]
 2534 012a 1946     		mov	r1, r3
 2535 012c 386D     		ldr	r0, [r7, #80]
 2536 012e FFF7FEFF 		bl	print_sysstat
 2537 0132 24E0     		b	.L161
 2538              	.L158:
 404:main.c        ****         case 12u: print_mag(p, plen, dt);      break;
 2539              		.loc 1 404 0
 2540 0134 97F84F30 		ldrb	r3, [r7, #79]	@ zero_extendqisi2
 2541 0138 7A68     		ldr	r2, [r7, #4]
 2542 013a 1946     		mov	r1, r3
 2543 013c 386D     		ldr	r0, [r7, #80]
 2544 013e FFF7FEFF 		bl	print_mag
ARM GAS  C:\Users\JENNEW~1\AppData\Local\Temp\ccFpxs5T.s 			page 55


 2545 0142 1CE0     		b	.L161
 2546              	.L155:
 405:main.c        ****         case  2u: print_platform(p, plen, dt); break;
 2547              		.loc 1 405 0
 2548 0144 97F84F30 		ldrb	r3, [r7, #79]	@ zero_extendqisi2
 2549 0148 7A68     		ldr	r2, [r7, #4]
 2550 014a 1946     		mov	r1, r3
 2551 014c 386D     		ldr	r0, [r7, #80]
 2552 014e FFF7FEFF 		bl	print_platform
 2553 0152 14E0     		b	.L161
 2554              	.L160:
 406:main.c        ****         case 48u: print_motor(p, plen, dt);    break;
 2555              		.loc 1 406 0
 2556 0154 97F84F30 		ldrb	r3, [r7, #79]	@ zero_extendqisi2
 2557 0158 7A68     		ldr	r2, [r7, #4]
 2558 015a 1946     		mov	r1, r3
 2559 015c 386D     		ldr	r0, [r7, #80]
 2560 015e FFF7FEFF 		bl	print_motor
 2561 0162 0CE0     		b	.L161
 2562              	.L152:
 2563              	.LBB10:
 407:main.c        ****         default: {
 408:main.c        ****             char buf[64];
 409:main.c        ****             sprintf(buf, "[QUERY] attr=%u -- no printer\r\n", (unsigned)attr);
 2564              		.loc 1 409 0
 2565 0164 B7F85620 		ldrh	r2, [r7, #86]
 2566 0168 07F10C03 		add	r3, r7, #12
 2567 016c 0849     		ldr	r1, .L162+8
 2568 016e 1846     		mov	r0, r3
 2569 0170 FFF7FEFF 		bl	sprintf
 410:main.c        ****             UART_1_PutString(buf);
 2570              		.loc 1 410 0
 2571 0174 07F10C03 		add	r3, r7, #12
 2572 0178 1846     		mov	r0, r3
 2573 017a FFF7FEFF 		bl	UART_1_PutString
 2574              	.L161:
 2575              	.LBE10:
 411:main.c        ****         }
 412:main.c        ****     }
 413:main.c        **** }
 2576              		.loc 1 413 0
 2577 017e 00BF     		nop
 2578 0180 5837     		adds	r7, r7, #88
 2579              		.cfi_def_cfa_offset 8
 2580 0182 BD46     		mov	sp, r7
 2581              		.cfi_def_cfa_register 13
 2582              		@ sp needed
 2583 0184 80BD     		pop	{r7, pc}
 2584              	.L163:
 2585 0186 00BF     		.align	2
 2586              	.L162:
 2587 0188 00000000 		.word	g_movi
 2588 018c 3E030000 		.word	g_movi+830
 2589 0190 60030000 		.word	.LC31
 2590              		.cfi_endproc
 2591              	.LFE80:
 2592              		.size	print_query_response, .-print_query_response
ARM GAS  C:\Users\JENNEW~1\AppData\Local\Temp\ccFpxs5T.s 			page 56


 2593              		.section	.rodata
 2594              		.align	2
 2595              	.LC32:
 2596 0380 5B434C49 		.ascii	"[CLI] Kill sent\015\012\000"
 2596      5D204B69 
 2596      6C6C2073 
 2596      656E740D 
 2596      0A00
 2597 0392 0000     		.align	2
 2598              	.LC33:
 2599 0394 5B434C49 		.ascii	"[CLI] Stopped -> STANDBY\015\012\000"
 2599      5D205374 
 2599      6F707065 
 2599      64202D3E 
 2599      20535441 
 2600              		.section	.text.do_kill,"ax",%progbits
 2601              		.align	2
 2602              		.thumb
 2603              		.thumb_func
 2604              		.type	do_kill, %function
 2605              	do_kill:
 2606              	.LFB81:
 414:main.c        **** 
 415:main.c        **** /* =========================================================================
 416:main.c        ****  * Kill helper
 417:main.c        ****  * ========================================================================= */
 418:main.c        **** static void do_kill(app_mode_t *mode, uint8_t *joy_active,
 419:main.c        ****                     uint8_t *streaming, hamfly_control_mode_t *ctrl_mode)
 420:main.c        **** {
 2607              		.loc 1 420 0
 2608              		.cfi_startproc
 2609              		@ args = 0, pretend = 0, frame = 16
 2610              		@ frame_needed = 1, uses_anonymous_args = 0
 2611 0000 80B5     		push	{r7, lr}
 2612              		.cfi_def_cfa_offset 8
 2613              		.cfi_offset 7, -8
 2614              		.cfi_offset 14, -4
 2615 0002 84B0     		sub	sp, sp, #16
 2616              		.cfi_def_cfa_offset 24
 2617 0004 00AF     		add	r7, sp, #0
 2618              		.cfi_def_cfa_register 7
 2619 0006 F860     		str	r0, [r7, #12]
 2620 0008 B960     		str	r1, [r7, #8]
 2621 000a 7A60     		str	r2, [r7, #4]
 2622 000c 3B60     		str	r3, [r7]
 421:main.c        ****     if (*mode == APP_MODE_CONTROL || *mode == APP_MODE_NUDGE) {
 2623              		.loc 1 421 0
 2624 000e FB68     		ldr	r3, [r7, #12]
 2625 0010 1B78     		ldrb	r3, [r3]	@ zero_extendqisi2
 2626 0012 012B     		cmp	r3, #1
 2627 0014 03D0     		beq	.L165
 2628              		.loc 1 421 0 is_stmt 0 discriminator 1
 2629 0016 FB68     		ldr	r3, [r7, #12]
 2630 0018 1B78     		ldrb	r3, [r3]	@ zero_extendqisi2
 2631 001a 032B     		cmp	r3, #3
 2632 001c 05D1     		bne	.L166
 2633              	.L165:
ARM GAS  C:\Users\JENNEW~1\AppData\Local\Temp\ccFpxs5T.s 			page 57


 422:main.c        ****         hamfly_kill(&g_movi);
 2634              		.loc 1 422 0 is_stmt 1
 2635 001e 0E48     		ldr	r0, .L167
 2636 0020 FFF7FEFF 		bl	hamfly_kill
 423:main.c        ****         UART_1_PutString("[CLI] Kill sent\r\n");
 2637              		.loc 1 423 0
 2638 0024 0D48     		ldr	r0, .L167+4
 2639 0026 FFF7FEFF 		bl	UART_1_PutString
 2640              	.L166:
 424:main.c        ****     }
 425:main.c        ****     *joy_active = FALSE;
 2641              		.loc 1 425 0
 2642 002a BB68     		ldr	r3, [r7, #8]
 2643 002c 0022     		movs	r2, #0
 2644 002e 1A70     		strb	r2, [r3]
 426:main.c        ****     *mode       = APP_MODE_STANDBY;
 2645              		.loc 1 426 0
 2646 0030 FB68     		ldr	r3, [r7, #12]
 2647 0032 0022     		movs	r2, #0
 2648 0034 1A70     		strb	r2, [r3]
 427:main.c        ****     *streaming  = FALSE;
 2649              		.loc 1 427 0
 2650 0036 7B68     		ldr	r3, [r7, #4]
 2651 0038 0022     		movs	r2, #0
 2652 003a 1A70     		strb	r2, [r3]
 428:main.c        ****     *ctrl_mode  = HAMFLY_DEFER;
 2653              		.loc 1 428 0
 2654 003c 3B68     		ldr	r3, [r7]
 2655 003e 0022     		movs	r2, #0
 2656 0040 1A70     		strb	r2, [r3]
 429:main.c        ****     joystick_on_key('x');
 2657              		.loc 1 429 0
 2658 0042 7820     		movs	r0, #120
 2659 0044 FFF7FEFF 		bl	joystick_on_key
 430:main.c        ****     UART_1_PutString("[CLI] Stopped -> STANDBY\r\n");
 2660              		.loc 1 430 0
 2661 0048 0548     		ldr	r0, .L167+8
 2662 004a FFF7FEFF 		bl	UART_1_PutString
 431:main.c        **** }
 2663              		.loc 1 431 0
 2664 004e 00BF     		nop
 2665 0050 1037     		adds	r7, r7, #16
 2666              		.cfi_def_cfa_offset 8
 2667 0052 BD46     		mov	sp, r7
 2668              		.cfi_def_cfa_register 13
 2669              		@ sp needed
 2670 0054 80BD     		pop	{r7, pc}
 2671              	.L168:
 2672 0056 00BF     		.align	2
 2673              	.L167:
 2674 0058 00000000 		.word	g_movi
 2675 005c 80030000 		.word	.LC32
 2676 0060 94030000 		.word	.LC33
 2677              		.cfi_endproc
 2678              	.LFE81:
 2679              		.size	do_kill, .-do_kill
 2680              		.section	.rodata
ARM GAS  C:\Users\JENNEW~1\AppData\Local\Temp\ccFpxs5T.s 			page 58


 2681 03af 00       		.align	2
 2682              	.LC34:
 2683 03b0 0D0A5B51 		.ascii	"\015\012[QUERY] Quat vs Euler crosscheck\015\012\000"
 2683      55455259 
 2683      5D205175 
 2683      61742076 
 2683      73204575 
 2684 03d5 000000   		.align	2
 2685              	.LC35:
 2686 03d8 5B515545 		.ascii	"[QUERY] No valid telemetry -- enter CONTROL first\015"
 2686      52595D20 
 2686      4E6F2076 
 2686      616C6964 
 2686      2074656C 
 2687 040a 0A00     		.ascii	"\012\000"
 2688              		.align	2
 2689              	.LC36:
 2690 040c 2020512D 		.ascii	"  Q->Euler: Pan=%c%d.%02d Tilt=%c%d.%02d Roll=%c%d."
 2690      3E45756C 
 2690      65723A20 
 2690      50616E3D 
 2690      25632564 
 2691 043f 25303264 		.ascii	"%02d\015\012\000"
 2691      0D0A00
 2692              		.global	__aeabi_f2d
 2693 0446 0000     		.align	2
 2694              	.LC37:
 2695 0448 20205261 		.ascii	"  Raw: R=%.4f I=%.4f J=%.4f K=%.4f\015\012\000"
 2695      773A2052 
 2695      3D252E34 
 2695      6620493D 
 2695      252E3466 
 2696 046d 000000   		.align	2
 2697              	.LC38:
 2698 0470 5B515545 		.ascii	"[QUERY] Requesting attr 22 for direct Euler...\015\012"
 2698      52595D20 
 2698      52657175 
 2698      65737469 
 2698      6E672061 
 2699 04a0 00       		.ascii	"\000"
 2700              		.section	.text.print_quat_crosscheck,"ax",%progbits
 2701              		.align	2
 2702              		.thumb
 2703              		.thumb_func
 2704              		.type	print_quat_crosscheck, %function
 2705              	print_quat_crosscheck:
 2706              	.LFB82:
 432:main.c        **** 
 433:main.c        **** /* =========================================================================
 434:main.c        ****  * Quat crosscheck helper
 435:main.c        ****  * ========================================================================= */
 436:main.c        **** static void print_quat_crosscheck(void)
 437:main.c        **** {
 2707              		.loc 1 437 0
 2708              		.cfi_startproc
 2709              		@ args = 0, pretend = 0, frame = 424
 2710              		@ frame_needed = 1, uses_anonymous_args = 0
ARM GAS  C:\Users\JENNEW~1\AppData\Local\Temp\ccFpxs5T.s 			page 59


 2711 0000 2DE9F04F 		push	{r4, r5, r6, r7, r8, r9, r10, fp, lr}
 2712              		.cfi_def_cfa_offset 36
 2713              		.cfi_offset 4, -36
 2714              		.cfi_offset 5, -32
 2715              		.cfi_offset 6, -28
 2716              		.cfi_offset 7, -24
 2717              		.cfi_offset 8, -20
 2718              		.cfi_offset 9, -16
 2719              		.cfi_offset 10, -12
 2720              		.cfi_offset 11, -8
 2721              		.cfi_offset 14, -4
 2722 0004 F3B0     		sub	sp, sp, #460
 2723              		.cfi_def_cfa_offset 496
 2724 0006 08AF     		add	r7, sp, #32
 2725              		.cfi_def_cfa 7, 464
 438:main.c        ****     char buf[TX_BUF_SIZE];
 439:main.c        ****     hamfly_telemetry_t st;
 440:main.c        ****     hamfly_get_telemetry(&g_movi, &st);
 2726              		.loc 1 440 0
 2727 0008 07F11C03 		add	r3, r7, #28
 2728 000c 1946     		mov	r1, r3
 2729 000e 5748     		ldr	r0, .L172
 2730 0010 FFF7FEFF 		bl	hamfly_get_telemetry
 441:main.c        **** 
 442:main.c        ****     UART_1_PutString("\r\n[QUERY] Quat vs Euler crosscheck\r\n");
 2731              		.loc 1 442 0
 2732 0014 5648     		ldr	r0, .L172+4
 2733 0016 FFF7FEFF 		bl	UART_1_PutString
 443:main.c        ****     if (!st.valid) {
 2734              		.loc 1 443 0
 2735 001a 07F11C03 		add	r3, r7, #28
 2736 001e 1B78     		ldrb	r3, [r3]	@ zero_extendqisi2
 2737 0020 83F00103 		eor	r3, r3, #1
 2738 0024 DBB2     		uxtb	r3, r3
 2739 0026 002B     		cmp	r3, #0
 2740 0028 03D0     		beq	.L170
 444:main.c        ****         UART_1_PutString("[QUERY] No valid telemetry -- enter CONTROL first\r\n");
 2741              		.loc 1 444 0
 2742 002a 5248     		ldr	r0, .L172+8
 2743 002c FFF7FEFF 		bl	UART_1_PutString
 2744 0030 97E0     		b	.L169
 2745              	.L170:
 445:main.c        ****         return;
 446:main.c        ****     }
 447:main.c        ****     char ps, ts, rs;
 448:main.c        ****     int16_t pi, pf, ti, tf, ri, rf;
 449:main.c        ****     compute_euler(&st, &ps,&pi,&pf, &ts,&ti,&tf, &rs,&ri,&rf);
 2746              		.loc 1 449 0
 2747 0032 07F11404 		add	r4, r7, #20
 2748 0036 07F11602 		add	r2, r7, #22
 2749 003a 07F11B01 		add	r1, r7, #27
 2750 003e 07F11C00 		add	r0, r7, #28
 2751 0042 07F10C03 		add	r3, r7, #12
 2752 0046 0593     		str	r3, [sp, #20]
 2753 0048 07F10E03 		add	r3, r7, #14
 2754 004c 0493     		str	r3, [sp, #16]
 2755 004e 07F11903 		add	r3, r7, #25
ARM GAS  C:\Users\JENNEW~1\AppData\Local\Temp\ccFpxs5T.s 			page 60


 2756 0052 0393     		str	r3, [sp, #12]
 2757 0054 07F11003 		add	r3, r7, #16
 2758 0058 0293     		str	r3, [sp, #8]
 2759 005a 07F11203 		add	r3, r7, #18
 2760 005e 0193     		str	r3, [sp, #4]
 2761 0060 07F11A03 		add	r3, r7, #26
 2762 0064 0093     		str	r3, [sp]
 2763 0066 2346     		mov	r3, r4
 2764 0068 FFF7FEFF 		bl	compute_euler
 450:main.c        ****     sprintf(buf,"  Q->Euler: Pan=%c%d.%02d Tilt=%c%d.%02d Roll=%c%d.%02d\r\n",
 2765              		.loc 1 450 0
 2766 006c 07F11B03 		add	r3, r7, #27
 2767 0070 1B78     		ldrb	r3, [r3]	@ zero_extendqisi2
 2768 0072 9E46     		mov	lr, r3
 2769 0074 07F11603 		add	r3, r7, #22
 2770 0078 B3F90030 		ldrsh	r3, [r3]
 2771 007c 9C46     		mov	ip, r3
 2772 007e 07F11403 		add	r3, r7, #20
 2773 0082 B3F90030 		ldrsh	r3, [r3]
 2774 0086 1A46     		mov	r2, r3
 2775 0088 07F11A03 		add	r3, r7, #26
 2776 008c 1B78     		ldrb	r3, [r3]	@ zero_extendqisi2
 2777 008e 1946     		mov	r1, r3
 2778 0090 07F11203 		add	r3, r7, #18
 2779 0094 B3F90030 		ldrsh	r3, [r3]
 2780 0098 1C46     		mov	r4, r3
 2781 009a 07F11003 		add	r3, r7, #16
 2782 009e B3F90030 		ldrsh	r3, [r3]
 2783 00a2 1D46     		mov	r5, r3
 2784 00a4 07F11903 		add	r3, r7, #25
 2785 00a8 1B78     		ldrb	r3, [r3]	@ zero_extendqisi2
 2786 00aa 1E46     		mov	r6, r3
 2787 00ac 07F10E03 		add	r3, r7, #14
 2788 00b0 B3F90030 		ldrsh	r3, [r3]
 2789 00b4 7B60     		str	r3, [r7, #4]
 2790 00b6 07F10C03 		add	r3, r7, #12
 2791 00ba B3F90030 		ldrsh	r3, [r3]
 2792 00be 07F58470 		add	r0, r7, #264
 2793 00c2 0693     		str	r3, [sp, #24]
 2794 00c4 7B68     		ldr	r3, [r7, #4]
 2795 00c6 0593     		str	r3, [sp, #20]
 2796 00c8 0496     		str	r6, [sp, #16]
 2797 00ca 0395     		str	r5, [sp, #12]
 2798 00cc 0294     		str	r4, [sp, #8]
 2799 00ce 0191     		str	r1, [sp, #4]
 2800 00d0 0092     		str	r2, [sp]
 2801 00d2 6346     		mov	r3, ip
 2802 00d4 7246     		mov	r2, lr
 2803 00d6 2849     		ldr	r1, .L172+12
 2804 00d8 FFF7FEFF 		bl	sprintf
 451:main.c        ****             ps,pi,pf, ts,ti,tf, rs,ri,rf);
 452:main.c        ****     UART_1_PutString(buf);
 2805              		.loc 1 452 0
 2806 00dc 07F58473 		add	r3, r7, #264
 2807 00e0 1846     		mov	r0, r3
 2808 00e2 FFF7FEFF 		bl	UART_1_PutString
 453:main.c        ****     sprintf(buf,"  Raw: R=%.4f I=%.4f J=%.4f K=%.4f\r\n",
ARM GAS  C:\Users\JENNEW~1\AppData\Local\Temp\ccFpxs5T.s 			page 61


 454:main.c        ****             st.gimbal_r, st.gimbal_i, st.gimbal_j, st.gimbal_k);
 2809              		.loc 1 454 0
 2810 00e6 07F11C03 		add	r3, r7, #28
 2811 00ea DB68     		ldr	r3, [r3, #12]	@ float
 453:main.c        ****     sprintf(buf,"  Raw: R=%.4f I=%.4f J=%.4f K=%.4f\r\n",
 2812              		.loc 1 453 0
 2813 00ec 1846     		mov	r0, r3
 2814 00ee FFF7FEFF 		bl	__aeabi_f2d
 2815 00f2 8246     		mov	r10, r0
 2816 00f4 8B46     		mov	fp, r1
 2817              		.loc 1 454 0
 2818 00f6 07F11C03 		add	r3, r7, #28
 2819 00fa 1B69     		ldr	r3, [r3, #16]	@ float
 453:main.c        ****     sprintf(buf,"  Raw: R=%.4f I=%.4f J=%.4f K=%.4f\r\n",
 2820              		.loc 1 453 0
 2821 00fc 1846     		mov	r0, r3
 2822 00fe FFF7FEFF 		bl	__aeabi_f2d
 2823 0102 0446     		mov	r4, r0
 2824 0104 0D46     		mov	r5, r1
 2825              		.loc 1 454 0
 2826 0106 07F11C03 		add	r3, r7, #28
 2827 010a 5B69     		ldr	r3, [r3, #20]	@ float
 453:main.c        ****     sprintf(buf,"  Raw: R=%.4f I=%.4f J=%.4f K=%.4f\r\n",
 2828              		.loc 1 453 0
 2829 010c 1846     		mov	r0, r3
 2830 010e FFF7FEFF 		bl	__aeabi_f2d
 2831 0112 8046     		mov	r8, r0
 2832 0114 8946     		mov	r9, r1
 2833              		.loc 1 454 0
 2834 0116 07F11C03 		add	r3, r7, #28
 2835 011a 9B69     		ldr	r3, [r3, #24]	@ float
 453:main.c        ****     sprintf(buf,"  Raw: R=%.4f I=%.4f J=%.4f K=%.4f\r\n",
 2836              		.loc 1 453 0
 2837 011c 1846     		mov	r0, r3
 2838 011e FFF7FEFF 		bl	__aeabi_f2d
 2839 0122 0246     		mov	r2, r0
 2840 0124 0B46     		mov	r3, r1
 2841 0126 07F58470 		add	r0, r7, #264
 2842 012a CDE90423 		strd	r2, [sp, #16]
 2843 012e CDE90289 		strd	r8, [sp, #8]
 2844 0132 CDE90045 		strd	r4, [sp]
 2845 0136 5246     		mov	r2, r10
 2846 0138 5B46     		mov	r3, fp
 2847 013a 1049     		ldr	r1, .L172+16
 2848 013c FFF7FEFF 		bl	sprintf
 455:main.c        ****     UART_1_PutString(buf);
 2849              		.loc 1 455 0
 2850 0140 07F58473 		add	r3, r7, #264
 2851 0144 1846     		mov	r0, r3
 2852 0146 FFF7FEFF 		bl	UART_1_PutString
 456:main.c        ****     UART_1_PutString("[QUERY] Requesting attr 22 for direct Euler...\r\n");
 2853              		.loc 1 456 0
 2854 014a 0D48     		ldr	r0, .L172+20
 2855 014c FFF7FEFF 		bl	UART_1_PutString
 457:main.c        ****     hamfly_request_attr(&g_movi, 22u);
 2856              		.loc 1 457 0
 2857 0150 1621     		movs	r1, #22
ARM GAS  C:\Users\JENNEW~1\AppData\Local\Temp\ccFpxs5T.s 			page 62


 2858 0152 0648     		ldr	r0, .L172
 2859 0154 FFF7FEFF 		bl	hamfly_request_attr
 458:main.c        ****     g_movi.pending_sent_ms = g_tick_ms;
 2860              		.loc 1 458 0
 2861 0158 0A4B     		ldr	r3, .L172+24
 2862 015a 1B68     		ldr	r3, [r3]
 2863 015c 034A     		ldr	r2, .L172
 2864 015e C2F83433 		str	r3, [r2, #820]
 2865              	.L169:
 459:main.c        **** }
 2866              		.loc 1 459 0
 2867 0162 07F5D677 		add	r7, r7, #428
 2868              		.cfi_def_cfa_offset 36
 2869 0166 BD46     		mov	sp, r7
 2870              		.cfi_def_cfa_register 13
 2871              		@ sp needed
 2872 0168 BDE8F08F 		pop	{r4, r5, r6, r7, r8, r9, r10, fp, pc}
 2873              	.L173:
 2874              		.align	2
 2875              	.L172:
 2876 016c 00000000 		.word	g_movi
 2877 0170 B0030000 		.word	.LC34
 2878 0174 D8030000 		.word	.LC35
 2879 0178 0C040000 		.word	.LC36
 2880 017c 48040000 		.word	.LC37
 2881 0180 70040000 		.word	.LC38
 2882 0184 00000000 		.word	g_tick_ms
 2883              		.cfi_endproc
 2884              	.LFE82:
 2885              		.size	print_quat_crosscheck, .-print_quat_crosscheck
 2886              		.section	.rodata
 2887 04a1 000000   		.align	2
 2888              	.LC39:
 2889 04a4 0D0A5B43 		.ascii	"\015\012[CAL] Move joystick full range then press '"
 2889      414C5D20 
 2889      4D6F7665 
 2889      206A6F79 
 2889      73746963 
 2890 04d1 63270D0A 		.ascii	"c'\015\012\000"
 2890      00
 2891 04d6 0000     		.align	2
 2892              	.LC40:
 2893 04d8 0D0A5B43 		.ascii	"\015\012[CAL] Hold center...\015\012\000"
 2893      414C5D20 
 2893      486F6C64 
 2893      2063656E 
 2893      7465722E 
 2894 04f1 000000   		.align	2
 2895              	.LC41:
 2896 04f4 0D0A5B43 		.ascii	"\015\012[CAL] Press 'c' to save, 'x' to cancel\015\012"
 2896      414C5D20 
 2896      50726573 
 2896      73202763 
 2896      2720746F 
 2897 051e 00       		.ascii	"\000"
 2898 051f 00       		.align	2
 2899              	.LC42:
ARM GAS  C:\Users\JENNEW~1\AppData\Local\Temp\ccFpxs5T.s 			page 63


 2900 0520 5B43414C 		.ascii	"[CAL] Saved to EEPROM\015\012\000"
 2900      5D205361 
 2900      76656420 
 2900      746F2045 
 2900      4550524F 
 2901              		.align	2
 2902              	.LC43:
 2903 0538 5B43414C 		.ascii	"[CAL] EEPROM save FAILED\015\012\000"
 2903      5D204545 
 2903      50524F4D 
 2903      20736176 
 2903      65204641 
 2904 0553 00       		.align	2
 2905              	.LC44:
 2906 0554 5B43414C 		.ascii	"[CAL] sizeof(joy_cal_t)=%u\015\012\000"
 2906      5D207369 
 2906      7A656F66 
 2906      286A6F79 
 2906      5F63616C 
 2907 0571 000000   		.align	2
 2908              	.LC45:
 2909 0574 5B43414C 		.ascii	"[CAL] Cancelled\015\012\000"
 2909      5D204361 
 2909      6E63656C 
 2909      6C65640D 
 2909      0A00
 2910              		.section	.text.cal_prompt,"ax",%progbits
 2911              		.align	2
 2912              		.thumb
 2913              		.thumb_func
 2914              		.type	cal_prompt, %function
 2915              	cal_prompt:
 2916              	.LFB83:
 460:main.c        **** 
 461:main.c        **** /* =========================================================================
 462:main.c        ****  * Calibration prompt helper
 463:main.c        ****  * ========================================================================= */
 464:main.c        **** static void cal_prompt(joy_cal_state_t prev, joy_cal_state_t now)
 465:main.c        **** {
 2917              		.loc 1 465 0
 2918              		.cfi_startproc
 2919              		@ args = 0, pretend = 0, frame = 72
 2920              		@ frame_needed = 1, uses_anonymous_args = 0
 2921 0000 80B5     		push	{r7, lr}
 2922              		.cfi_def_cfa_offset 8
 2923              		.cfi_offset 7, -8
 2924              		.cfi_offset 14, -4
 2925 0002 92B0     		sub	sp, sp, #72
 2926              		.cfi_def_cfa_offset 80
 2927 0004 00AF     		add	r7, sp, #0
 2928              		.cfi_def_cfa_register 7
 2929 0006 0346     		mov	r3, r0
 2930 0008 0A46     		mov	r2, r1
 2931 000a FB71     		strb	r3, [r7, #7]
 2932 000c 1346     		mov	r3, r2
 2933 000e BB71     		strb	r3, [r7, #6]
 466:main.c        ****     if (prev == now) return;
ARM GAS  C:\Users\JENNEW~1\AppData\Local\Temp\ccFpxs5T.s 			page 64


 2934              		.loc 1 466 0
 2935 0010 FA79     		ldrb	r2, [r7, #7]	@ zero_extendqisi2
 2936 0012 BB79     		ldrb	r3, [r7, #6]	@ zero_extendqisi2
 2937 0014 9A42     		cmp	r2, r3
 2938 0016 3DD0     		beq	.L183
 467:main.c        ****     if (now == JOY_CAL_RANGE_CAPTURE)
 2939              		.loc 1 467 0
 2940 0018 BB79     		ldrb	r3, [r7, #6]	@ zero_extendqisi2
 2941 001a 012B     		cmp	r3, #1
 2942 001c 03D1     		bne	.L177
 468:main.c        ****         UART_1_PutString("\r\n[CAL] Move joystick full range then press 'c'\r\n");
 2943              		.loc 1 468 0
 2944 001e 1F48     		ldr	r0, .L184
 2945 0020 FFF7FEFF 		bl	UART_1_PutString
 2946 0024 37E0     		b	.L174
 2947              	.L177:
 469:main.c        ****     else if (now == JOY_CAL_CENTER_CAPTURE)
 2948              		.loc 1 469 0
 2949 0026 BB79     		ldrb	r3, [r7, #6]	@ zero_extendqisi2
 2950 0028 022B     		cmp	r3, #2
 2951 002a 03D1     		bne	.L178
 470:main.c        ****         UART_1_PutString("\r\n[CAL] Hold center...\r\n");
 2952              		.loc 1 470 0
 2953 002c 1C48     		ldr	r0, .L184+4
 2954 002e FFF7FEFF 		bl	UART_1_PutString
 2955 0032 30E0     		b	.L174
 2956              	.L178:
 471:main.c        ****     else if (now == JOY_CAL_CONFIRM_SAVE)
 2957              		.loc 1 471 0
 2958 0034 BB79     		ldrb	r3, [r7, #6]	@ zero_extendqisi2
 2959 0036 032B     		cmp	r3, #3
 2960 0038 03D1     		bne	.L179
 472:main.c        ****         UART_1_PutString("\r\n[CAL] Press 'c' to save, 'x' to cancel\r\n");
 2961              		.loc 1 472 0
 2962 003a 1A48     		ldr	r0, .L184+8
 2963 003c FFF7FEFF 		bl	UART_1_PutString
 2964 0040 29E0     		b	.L174
 2965              	.L179:
 473:main.c        ****     else if (now == JOY_CAL_OFF && prev == JOY_CAL_CONFIRM_SAVE) {
 2966              		.loc 1 473 0
 2967 0042 BB79     		ldrb	r3, [r7, #6]	@ zero_extendqisi2
 2968 0044 002B     		cmp	r3, #0
 2969 0046 1BD1     		bne	.L180
 2970              		.loc 1 473 0 is_stmt 0 discriminator 1
 2971 0048 FB79     		ldrb	r3, [r7, #7]	@ zero_extendqisi2
 2972 004a 032B     		cmp	r3, #3
 2973 004c 18D1     		bne	.L180
 2974              	.LBB11:
 474:main.c        ****         if (joystick_save())
 2975              		.loc 1 474 0 is_stmt 1
 2976 004e FFF7FEFF 		bl	joystick_save
 2977 0052 0346     		mov	r3, r0
 2978 0054 002B     		cmp	r3, #0
 2979 0056 03D0     		beq	.L181
 475:main.c        ****             UART_1_PutString("[CAL] Saved to EEPROM\r\n");
 2980              		.loc 1 475 0
 2981 0058 1348     		ldr	r0, .L184+12
ARM GAS  C:\Users\JENNEW~1\AppData\Local\Temp\ccFpxs5T.s 			page 65


 2982 005a FFF7FEFF 		bl	UART_1_PutString
 2983 005e 02E0     		b	.L182
 2984              	.L181:
 476:main.c        ****         else
 477:main.c        ****             UART_1_PutString("[CAL] EEPROM save FAILED\r\n");
 2985              		.loc 1 477 0
 2986 0060 1248     		ldr	r0, .L184+16
 2987 0062 FFF7FEFF 		bl	UART_1_PutString
 2988              	.L182:
 478:main.c        ****             char dbuf[64];
 479:main.c        ****             sprintf(dbuf, "[CAL] sizeof(joy_cal_t)=%u\r\n",
 2989              		.loc 1 479 0 discriminator 2
 2990 0066 07F10803 		add	r3, r7, #8
 2991 006a 0E22     		movs	r2, #14
 2992 006c 1049     		ldr	r1, .L184+20
 2993 006e 1846     		mov	r0, r3
 2994 0070 FFF7FEFF 		bl	sprintf
 480:main.c        ****                     (unsigned)sizeof(joy_cal_t));
 481:main.c        ****             UART_1_PutString(dbuf);
 2995              		.loc 1 481 0 discriminator 2
 2996 0074 07F10803 		add	r3, r7, #8
 2997 0078 1846     		mov	r0, r3
 2998 007a FFF7FEFF 		bl	UART_1_PutString
 2999              	.LBE11:
 473:main.c        ****         if (joystick_save())
 3000              		.loc 1 473 0 discriminator 2
 3001 007e 0AE0     		b	.L174
 3002              	.L180:
 482:main.c        ****     }
 483:main.c        ****     else if (now == JOY_CAL_OFF && prev != JOY_CAL_OFF)
 3003              		.loc 1 483 0
 3004 0080 BB79     		ldrb	r3, [r7, #6]	@ zero_extendqisi2
 3005 0082 002B     		cmp	r3, #0
 3006 0084 07D1     		bne	.L174
 3007              		.loc 1 483 0 is_stmt 0 discriminator 1
 3008 0086 FB79     		ldrb	r3, [r7, #7]	@ zero_extendqisi2
 3009 0088 002B     		cmp	r3, #0
 3010 008a 04D0     		beq	.L174
 484:main.c        ****         UART_1_PutString("[CAL] Cancelled\r\n");
 3011              		.loc 1 484 0 is_stmt 1
 3012 008c 0948     		ldr	r0, .L184+24
 3013 008e FFF7FEFF 		bl	UART_1_PutString
 3014 0092 00E0     		b	.L174
 3015              	.L183:
 466:main.c        ****     if (now == JOY_CAL_RANGE_CAPTURE)
 3016              		.loc 1 466 0
 3017 0094 00BF     		nop
 3018              	.L174:
 485:main.c        **** }
 3019              		.loc 1 485 0
 3020 0096 4837     		adds	r7, r7, #72
 3021              		.cfi_def_cfa_offset 8
 3022 0098 BD46     		mov	sp, r7
 3023              		.cfi_def_cfa_register 13
 3024              		@ sp needed
 3025 009a 80BD     		pop	{r7, pc}
 3026              	.L185:
ARM GAS  C:\Users\JENNEW~1\AppData\Local\Temp\ccFpxs5T.s 			page 66


 3027              		.align	2
 3028              	.L184:
 3029 009c A4040000 		.word	.LC39
 3030 00a0 D8040000 		.word	.LC40
 3031 00a4 F4040000 		.word	.LC41
 3032 00a8 20050000 		.word	.LC42
 3033 00ac 38050000 		.word	.LC43
 3034 00b0 54050000 		.word	.LC44
 3035 00b4 74050000 		.word	.LC45
 3036              		.cfi_endproc
 3037              	.LFE83:
 3038              		.size	cal_prompt, .-cal_prompt
 3039              		.section	.rodata
 3040 0586 0000     		.align	2
 3041              	.LC46:
 3042 0588 5B4E5544 		.ascii	"[NUDGE] Pan=%c%d.%02d  Tilt=%c%d.%02d  (deg from or"
 3042      47455D20 
 3042      50616E3D 
 3042      25632564 
 3042      2E253032 
 3043 05bb 6967696E 		.ascii	"igin)\015\012\000"
 3043      290D0A00 
 3044              		.section	.text.nudge_print_pos,"ax",%progbits
 3045              		.align	2
 3046              		.thumb
 3047              		.thumb_func
 3048              		.type	nudge_print_pos, %function
 3049              	nudge_print_pos:
 3050              	.LFB84:
 486:main.c        **** 
 487:main.c        **** /* =========================================================================
 488:main.c        ****  * NUDGE: print accumulated position
 489:main.c        ****  * ========================================================================= */
 490:main.c        **** static void nudge_print_pos(float pan_deg, float tilt_deg)
 491:main.c        **** {
 3051              		.loc 1 491 0
 3052              		.cfi_startproc
 3053              		@ args = 0, pretend = 0, frame = 184
 3054              		@ frame_needed = 1, uses_anonymous_args = 0
 3055 0000 F0B5     		push	{r4, r5, r6, r7, lr}
 3056              		.cfi_def_cfa_offset 20
 3057              		.cfi_offset 4, -20
 3058              		.cfi_offset 5, -16
 3059              		.cfi_offset 6, -12
 3060              		.cfi_offset 7, -8
 3061              		.cfi_offset 14, -4
 3062 0002 B3B0     		sub	sp, sp, #204
 3063              		.cfi_def_cfa_offset 224
 3064 0004 04AF     		add	r7, sp, #16
 3065              		.cfi_def_cfa 7, 208
 3066 0006 7860     		str	r0, [r7, #4]	@ float
 3067 0008 3960     		str	r1, [r7]	@ float
 492:main.c        ****     char buf[TX_BUF_SIZE];
 493:main.c        ****     char ps, ts;
 494:main.c        ****     int16_t pi, pf, ti, tf;
 495:main.c        ****     decomp(pan_deg,  &pi, &pf, &ps);
 3068              		.loc 1 495 0
ARM GAS  C:\Users\JENNEW~1\AppData\Local\Temp\ccFpxs5T.s 			page 67


 3069 000a 07F11703 		add	r3, r7, #23
 3070 000e 07F11202 		add	r2, r7, #18
 3071 0012 07F11401 		add	r1, r7, #20
 3072 0016 7868     		ldr	r0, [r7, #4]	@ float
 3073 0018 FFF7FEFF 		bl	decomp
 496:main.c        ****     decomp(tilt_deg, &ti, &tf, &ts);
 3074              		.loc 1 496 0
 3075 001c 07F11603 		add	r3, r7, #22
 3076 0020 07F10E02 		add	r2, r7, #14
 3077 0024 07F11001 		add	r1, r7, #16
 3078 0028 3868     		ldr	r0, [r7]	@ float
 3079 002a FFF7FEFF 		bl	decomp
 497:main.c        ****     sprintf(buf, "[NUDGE] Pan=%c%d.%02d  Tilt=%c%d.%02d  (deg from origin)\r\n",
 3080              		.loc 1 497 0
 3081 002e FB7D     		ldrb	r3, [r7, #23]	@ zero_extendqisi2
 3082 0030 1D46     		mov	r5, r3
 3083 0032 B7F91430 		ldrsh	r3, [r7, #20]
 3084 0036 1E46     		mov	r6, r3
 3085 0038 B7F91230 		ldrsh	r3, [r7, #18]
 3086 003c BA7D     		ldrb	r2, [r7, #22]	@ zero_extendqisi2
 3087 003e B7F91010 		ldrsh	r1, [r7, #16]
 3088 0042 B7F90E00 		ldrsh	r0, [r7, #14]
 3089 0046 0446     		mov	r4, r0
 3090 0048 07F11800 		add	r0, r7, #24
 3091 004c 0394     		str	r4, [sp, #12]
 3092 004e 0291     		str	r1, [sp, #8]
 3093 0050 0192     		str	r2, [sp, #4]
 3094 0052 0093     		str	r3, [sp]
 3095 0054 3346     		mov	r3, r6
 3096 0056 2A46     		mov	r2, r5
 3097 0058 0549     		ldr	r1, .L187
 3098 005a FFF7FEFF 		bl	sprintf
 498:main.c        ****             ps, pi, pf, ts, ti, tf);
 499:main.c        ****     UART_1_PutString(buf);
 3099              		.loc 1 499 0
 3100 005e 07F11803 		add	r3, r7, #24
 3101 0062 1846     		mov	r0, r3
 3102 0064 FFF7FEFF 		bl	UART_1_PutString
 500:main.c        **** }
 3103              		.loc 1 500 0
 3104 0068 00BF     		nop
 3105 006a BC37     		adds	r7, r7, #188
 3106              		.cfi_def_cfa_offset 20
 3107 006c BD46     		mov	sp, r7
 3108              		.cfi_def_cfa_register 13
 3109              		@ sp needed
 3110 006e F0BD     		pop	{r4, r5, r6, r7, pc}
 3111              	.L188:
 3112              		.align	2
 3113              	.L187:
 3114 0070 88050000 		.word	.LC46
 3115              		.cfi_endproc
 3116              	.LFE84:
 3117              		.size	nudge_print_pos, .-nudge_print_pos
 3118              		.section	.rodata
 3119 05c3 00       		.align	2
 3120              	.LC47:
ARM GAS  C:\Users\JENNEW~1\AppData\Local\Temp\ccFpxs5T.s 			page 68


 3121 05c4 0D0A3D3D 		.ascii	"\015\012=== Gimbal Control  PSoC 5LP ===\015\012\000"
 3121      3D204769 
 3121      6D62616C 
 3121      20436F6E 
 3121      74726F6C 
 3122 05e9 000000   		.align	2
 3123              	.LC48:
 3124 05ec 5354414E 		.ascii	"STANDBY: m=CONTROL q=QUERY n=NUDGE\015\012\000"
 3124      4442593A 
 3124      206D3D43 
 3124      4F4E5452 
 3124      4F4C2071 
 3125 0611 000000   		.align	2
 3126              	.LC49:
 3127 0614 20202020 		.ascii	"         j=joy l=mode s=adc c=cal k=kill x=quiet\015"
 3127      20202020 
 3127      206A3D6A 
 3127      6F79206C 
 3127      3D6D6F64 
 3128 0645 0A00     		.ascii	"\012\000"
 3129 0647 00       		.align	2
 3130              	.LC50:
 3131 0648 20202020 		.ascii	"         z=goto(0,0)  [=set limit origin\015\012\000"
 3131      20202020 
 3131      207A3D67 
 3131      6F746F28 
 3131      302C3029 
 3132 0673 00       		.align	2
 3133              	.LC51:
 3134 0674 434F4E54 		.ascii	"CONTROL: numpad 8/2/5=tilt  4/6/0=pan  p=plat-yaw\015"
 3134      524F4C3A 
 3134      206E756D 
 3134      70616420 
 3134      382F322F 
 3135 06a6 0A00     		.ascii	"\012\000"
 3136              		.align	2
 3137              	.LC52:
 3138 06a8 51554552 		.ascii	"QUERY:   a=euler g=GPS b=baro s=stat n=mag\015\012\000"
 3138      593A2020 
 3138      20613D65 
 3138      756C6572 
 3138      20673D47 
 3139 06d5 000000   		.align	2
 3140              	.LC53:
 3141 06d8 20202020 		.ascii	"         2=plat 4=motor q=quat  t=exit\015\012\000"
 3141      20202020 
 3141      20323D70 
 3141      6C617420 
 3141      343D6D6F 
 3142 0701 000000   		.align	2
 3143              	.LC54:
 3144 0704 4E554447 		.ascii	"NUDGE:   jl=pan(small) ik=tilt(small)\015\012\000"
 3144      453A2020 
 3144      206A6C3D 
 3144      70616E28 
 3144      736D616C 
 3145              		.align	2
ARM GAS  C:\Users\JENNEW~1\AppData\Local\Temp\ccFpxs5T.s 			page 69


 3146              	.LC55:
 3147 072c 20202020 		.ascii	"         ad=pan(0.5deg) ws=tilt(0.5deg)  t=exit\015"
 3147      20202020 
 3147      2061643D 
 3147      70616E28 
 3147      302E3564 
 3148 075c 0A00     		.ascii	"\012\000"
 3149 075e 0000     		.align	2
 3150              	.LC56:
 3151 0760 5B496E69 		.ascii	"[Init] Gimbal UART ready\015\012\000"
 3151      745D2047 
 3151      696D6261 
 3151      6C205541 
 3151      52542072 
 3152 077b 00       		.align	2
 3153              	.LC57:
 3154 077c 5B496E69 		.ascii	"[Init] No saved cal -- using defaults\015\012\000"
 3154      745D204E 
 3154      6F207361 
 3154      76656420 
 3154      63616C20 
 3155              		.align	2
 3156              	.LC58:
 3157 07a4 5B496E69 		.ascii	"[Init] Loaded cal from EEPROM\015\012\000"
 3157      745D204C 
 3157      6F616465 
 3157      64206361 
 3157      6C206672 
 3158              		.align	2
 3159              	.LC59:
 3160 07c4 5B496E69 		.ascii	"[Init] ADC + Joystick ready\015\012\000"
 3160      745D2041 
 3160      4443202B 
 3160      204A6F79 
 3160      73746963 
 3161 07e2 0000     		.align	2
 3162              	.LC60:
 3163 07e4 5B496E69 		.ascii	"[Init] Ready  Mode: STANDBY\015\012\000"
 3163      745D2052 
 3163      65616479 
 3163      20204D6F 
 3163      64653A20 
 3164 0802 0000     		.align	2
 3165              	.LC61:
 3166 0804 5B434C49 		.ascii	"[CLI] -> CONTROL\015\012\000"
 3166      5D202D3E 
 3166      20434F4E 
 3166      54524F4C 
 3166      0D0A00
 3167 0817 00       		.align	2
 3168              	.LC62:
 3169 0818 5B434C49 		.ascii	"[CLI] -> STANDBY\015\012\000"
 3169      5D202D3E 
 3169      20535441 
 3169      4E444259 
 3169      0D0A00
 3170 082b 00       		.align	2
ARM GAS  C:\Users\JENNEW~1\AppData\Local\Temp\ccFpxs5T.s 			page 70


 3171              	.LC63:
 3172 082c 5B434C49 		.ascii	"[CLI] -> QUERY\015\012\000"
 3172      5D202D3E 
 3172      20515545 
 3172      52590D0A 
 3172      00
 3173 083d 000000   		.align	2
 3174              	.LC64:
 3175 0840 5B434C49 		.ascii	"[CLI] -> NUDGE  (jl=pan ik=tilt ad=pan0.5 ws=tilt0."
 3175      5D202D3E 
 3175      204E5544 
 3175      47452020 
 3175      286A6C3D 
 3176 0873 3520743D 		.ascii	"5 t=exit)\015\012\000"
 3176      65786974 
 3176      290D0A00 
 3177 087f 00       		.align	2
 3178              	.LC65:
 3179 0880 5B4E5544 		.ascii	"[NUDGE] Warning: limit origin not set. Use '[' in S"
 3179      47455D20 
 3179      5761726E 
 3179      696E673A 
 3179      206C696D 
 3180 08b3 54414E44 		.ascii	"TANDBY.\015\012\000"
 3180      42592E0D 
 3180      0A00
 3181 08bd 000000   		.align	2
 3182              	.LC66:
 3183 08c0 5B434C49 		.ascii	"[CLI] Joystick ON\015\012\000"
 3183      5D204A6F 
 3183      79737469 
 3183      636B204F 
 3183      4E0D0A00 
 3184              		.align	2
 3185              	.LC67:
 3186 08d4 5B434C49 		.ascii	"[CLI] Joystick OFF\015\012\000"
 3186      5D204A6F 
 3186      79737469 
 3186      636B204F 
 3186      46460D0A 
 3187 08e9 000000   		.align	2
 3188              	.LC68:
 3189 08ec 5B434C49 		.ascii	"[CLI] Mode: %s\015\012\000"
 3189      5D204D6F 
 3189      64653A20 
 3189      25730D0A 
 3189      00
 3190 08fd 000000   		.align	2
 3191              	.LC69:
 3192 0900 5B434C49 		.ascii	"[CLI] Quiet. m or j to resume.\015\012\000"
 3192      5D205175 
 3192      6965742E 
 3192      206D206F 
 3192      72206A20 
 3193 0921 000000   		.align	2
 3194              	.LC70:
 3195 0924 5B434C49 		.ascii	"[CLI] ADC stream ON\015\012\000"
ARM GAS  C:\Users\JENNEW~1\AppData\Local\Temp\ccFpxs5T.s 			page 71


 3195      5D204144 
 3195      43207374 
 3195      7265616D 
 3195      204F4E0D 
 3196 093a 0000     		.align	2
 3197              	.LC71:
 3198 093c 5B434C49 		.ascii	"[CLI] ADC stream OFF\015\012\000"
 3198      5D204144 
 3198      43207374 
 3198      7265616D 
 3198      204F4646 
 3199 0953 00       		.align	2
 3200              	.LC72:
 3201 0954 5B434C49 		.ascii	"[CLI] Commanding (0, 0)...\015\012\000"
 3201      5D20436F 
 3201      6D6D616E 
 3201      64696E67 
 3201      2028302C 
 3202 0971 000000   		.align	2
 3203              	.LC73:
 3204 0974 5B434C49 		.ascii	"[CLI] Limit origin set: Pan=%c%d.%02d  Tilt=%c%d.%0"
 3204      5D204C69 
 3204      6D697420 
 3204      6F726967 
 3204      696E2073 
 3205 09a7 32642064 		.ascii	"2d deg\015\012\000"
 3205      65670D0A 
 3205      00
 3206              		.align	2
 3207              	.LC74:
 3208 09b0 5B434C49 		.ascii	"[CLI] No valid telemetry -- cannot set origin\015\012"
 3208      5D204E6F 
 3208      2076616C 
 3208      69642074 
 3208      656C656D 
 3209 09df 00       		.ascii	"\000"
 3210              		.align	2
 3211              	.LC75:
 3212 09e0 5B435452 		.ascii	"[CTRL] Platform yaw ON\015\012\000"
 3212      4C5D2050 
 3212      6C617466 
 3212      6F726D20 
 3212      79617720 
 3213 09f9 000000   		.align	2
 3214              	.LC76:
 3215 09fc 5B435452 		.ascii	"[CTRL] Platform yaw OFF\015\012\000"
 3215      4C5D2050 
 3215      6C617466 
 3215      6F726D20 
 3215      79617720 
 3216 0a16 0000     		.align	2
 3217              	.LC77:
 3218 0a18 5B435452 		.ascii	"[CTRL] Need ABS mode -- press 'l'\015\012\000"
 3218      4C5D204E 
 3218      65656420 
 3218      41425320 
 3218      6D6F6465 
ARM GAS  C:\Users\JENNEW~1\AppData\Local\Temp\ccFpxs5T.s 			page 72


 3219              		.align	2
 3220              	.LC78:
 3221 0a3c 5B435452 		.ascii	"[CTRL] Pan -45 deg\015\012\000"
 3221      4C5D2050 
 3221      616E202D 
 3221      34352064 
 3221      65670D0A 
 3222 0a51 000000   		.align	2
 3223              	.LC79:
 3224 0a54 5B435452 		.ascii	"[CTRL] Pan 0 (home)\015\012\000"
 3224      4C5D2050 
 3224      616E2030 
 3224      2028686F 
 3224      6D65290D 
 3225 0a6a 0000     		.align	2
 3226              	.LC80:
 3227 0a6c 5B435452 		.ascii	"[CTRL] Pan +45 deg\015\012\000"
 3227      4C5D2050 
 3227      616E202B 
 3227      34352064 
 3227      65670D0A 
 3228 0a81 000000   		.align	2
 3229              	.LC81:
 3230 0a84 5B435452 		.ascii	"[CTRL] Tilt +25 deg\015\012\000"
 3230      4C5D2054 
 3230      696C7420 
 3230      2B323520 
 3230      6465670D 
 3231 0a9a 0000     		.align	2
 3232              	.LC82:
 3233 0a9c 5B435452 		.ascii	"[CTRL] Tilt 0 deg\015\012\000"
 3233      4C5D2054 
 3233      696C7420 
 3233      30206465 
 3233      670D0A00 
 3234              		.align	2
 3235              	.LC83:
 3236 0ab0 5B435452 		.ascii	"[CTRL] Tilt -25 deg\015\012\000"
 3236      4C5D2054 
 3236      696C7420 
 3236      2D323520 
 3236      6465670D 
 3237 0ac6 0000     		.align	2
 3238              	.LC84:
 3239 0ac8 5B515545 		.ascii	"[QUERY] -> STANDBY\015\012\000"
 3239      52595D20 
 3239      2D3E2053 
 3239      54414E44 
 3239      42590D0A 
 3240 0add 000000   		.align	2
 3241              	.LC85:
 3242 0ae0 5B515545 		.ascii	"[QUERY] attr 22 euler\015\012\000"
 3242      52595D20 
 3242      61747472 
 3242      20323220 
 3242      65756C65 
 3243              		.align	2
ARM GAS  C:\Users\JENNEW~1\AppData\Local\Temp\ccFpxs5T.s 			page 73


 3244              	.LC86:
 3245 0af8 5B515545 		.ascii	"[QUERY] attr 4 GPS\015\012\000"
 3245      52595D20 
 3245      61747472 
 3245      20342047 
 3245      50530D0A 
 3246 0b0d 000000   		.align	2
 3247              	.LC87:
 3248 0b10 5B515545 		.ascii	"[QUERY] attr 3 baro\015\012\000"
 3248      52595D20 
 3248      61747472 
 3248      20332062 
 3248      61726F0D 
 3249 0b26 0000     		.align	2
 3250              	.LC88:
 3251 0b28 5B515545 		.ascii	"[QUERY] attr 1 sysstat\015\012\000"
 3251      52595D20 
 3251      61747472 
 3251      20312073 
 3251      79737374 
 3252 0b41 000000   		.align	2
 3253              	.LC89:
 3254 0b44 5B515545 		.ascii	"[QUERY] attr 12 mag\015\012\000"
 3254      52595D20 
 3254      61747472 
 3254      20313220 
 3254      6D61670D 
 3255 0b5a 0000     		.align	2
 3256              	.LC90:
 3257 0b5c 5B515545 		.ascii	"[QUERY] attr 2 platform\015\012\000"
 3257      52595D20 
 3257      61747472 
 3257      20322070 
 3257      6C617466 
 3258 0b76 0000     		.align	2
 3259              	.LC91:
 3260 0b78 5B515545 		.ascii	"[QUERY] attr 48 motor\015\012\000"
 3260      52595D20 
 3260      61747472 
 3260      20343820 
 3260      6D6F746F 
 3261              		.align	2
 3262              	.LC92:
 3263 0b90 5B4E5544 		.ascii	"[NUDGE] -> STANDBY\015\012\000"
 3263      47455D20 
 3263      2D3E2053 
 3263      54414E44 
 3263      42590D0A 
 3264              		.global	__aeabi_fcmpeq
 3265              		.global	__aeabi_fcmpgt
 3266 0ba5 000000   		.align	2
 3267              	.LC93:
 3268 0ba8 5B515545 		.ascii	"[QUERY] TIMEOUT attr=%u\015\012\000"
 3268      52595D20 
 3268      54494D45 
 3268      4F555420 
 3268      61747472 
ARM GAS  C:\Users\JENNEW~1\AppData\Local\Temp\ccFpxs5T.s 			page 74


 3269 0bc2 0000     		.align	2
 3270              	.LC94:
 3271 0bc4 5B435452 		.ascii	"[CTRL] Preset settled -- joystick active\015\012\000"
 3271      4C5D2050 
 3271      72657365 
 3271      74207365 
 3271      74746C65 
 3272 0bef 00       		.align	2
 3273              	.LC95:
 3274 0bf0 53656E73 		.ascii	"Sensitivity changed\015\012\000"
 3274      69746976 
 3274      69747920 
 3274      6368616E 
 3274      6765640D 
 3275 0c06 0000     		.align	2
 3276              	.LC96:
 3277 0c08 583A256C 		.ascii	"X:%ld mV Y:%ld mV  pan:%d tilt:%d /1000\015\012\000"
 3277      64206D56 
 3277      20593A25 
 3277      6C64206D 
 3277      56202070 
 3278 0c32 0000     		.align	2
 3279              	.LC97:
 3280 0c34 5B43414C 		.ascii	"[CAL] %u/%u\015\012\000"
 3280      5D202575 
 3280      2F25750D 
 3280      0A00
 3281 0c42 0000     		.align	2
 3282              	.LC98:
 3283 0c44 20202530 		.ascii	"  %02lu:%02lu:%02lu\015\012\000"
 3283      326C753A 
 3283      2530326C 
 3283      753A2530 
 3283      326C750D 
 3284 0c5a 0000     		.align	2
 3285              	.LC99:
 3286 0c5c 5B536572 		.ascii	"[Serial] TX:%lu RX:%lu csum:%lu err:0x%02X\015\012\000"
 3286      69616C5D 
 3286      2054583A 
 3286      256C7520 
 3286      52583A25 
 3287 0c89 000000   		.align	2
 3288              	.LC100:
 3289 0c8c 5B546172 		.ascii	"[Target] Pan=%c%d.%02d Tilt=%c%d.%02d deg\015\012\000"
 3289      6765745D 
 3289      2050616E 
 3289      3D256325 
 3289      642E2530 
 3290              		.align	2
 3291              	.LC101:
 3292 0cb8 5B47696D 		.ascii	"[Gimbal] Pan=%c%d.%02d Tilt=%c%d.%02d Roll=%c%d.%02"
 3292      62616C5D 
 3292      2050616E 
 3292      3D256325 
 3292      642E2530 
 3293 0ceb 64204C3D 		.ascii	"d L=%d.%dV R=%d.%dV IMU:%d DRV:%d ERR:%d\015\012\000"
 3293      25642E25 
ARM GAS  C:\Users\JENNEW~1\AppData\Local\Temp\ccFpxs5T.s 			page 75


 3293      64562052 
 3293      3D25642E 
 3293      25645620 
 3294 0d16 0000     		.align	2
 3295              	.LC102:
 3296 0d18 5B47696D 		.ascii	"[Gimbal] No valid frame\015\012\000"
 3296      62616C5D 
 3296      204E6F20 
 3296      76616C69 
 3296      64206672 
 3297 0d32 0000     		.align	2
 3298              	.LC103:
 3299 0d34 5B435452 		.ascii	"[CTRL] attr %u timeout\015\012\000"
 3299      4C5D2061 
 3299      74747220 
 3299      25752074 
 3299      696D656F 
 3300 0d4d 000000   		.align	2
 3301              	.LC104:
 3302 0d50 5B4A6F79 		.ascii	"[Joy] L/R=%c%d.%02d U/D=%c%d.%02d (%s)\015\012\000"
 3302      5D204C2F 
 3302      523D2563 
 3302      25642E25 
 3302      30326420 
 3303              		.section	.text.main,"ax",%progbits
 3304              		.align	2
 3305              		.global	main
 3306              		.thumb
 3307              		.thumb_func
 3308              		.type	main, %function
 3309              	main:
 3310              	.LFB85:
 501:main.c        **** 
 502:main.c        **** /* =========================================================================
 503:main.c        ****  * main
 504:main.c        ****  * ========================================================================= */
 505:main.c        **** int main(void)
 506:main.c        **** {
 3311              		.loc 1 506 0
 3312              		.cfi_startproc
 3313              		@ args = 0, pretend = 0, frame = 704
 3314              		@ frame_needed = 1, uses_anonymous_args = 0
 3315 0000 2DE9F043 		push	{r4, r5, r6, r7, r8, r9, lr}
 3316              		.cfi_def_cfa_offset 28
 3317              		.cfi_offset 4, -28
 3318              		.cfi_offset 5, -24
 3319              		.cfi_offset 6, -20
 3320              		.cfi_offset 7, -16
 3321              		.cfi_offset 8, -12
 3322              		.cfi_offset 9, -8
 3323              		.cfi_offset 14, -4
 3324 0004 ADF53F7D 		sub	sp, sp, #764
 3325              		.cfi_def_cfa_offset 792
 3326 0008 0EAF     		add	r7, sp, #56
 3327              		.cfi_def_cfa 7, 736
 507:main.c        ****     char tx[TX_BUF_SIZE];
 508:main.c        **** 
ARM GAS  C:\Users\JENNEW~1\AppData\Local\Temp\ccFpxs5T.s 			page 76


 509:main.c        ****     app_mode_t            app_mode  = APP_MODE_STANDBY;
 3328              		.loc 1 509 0
 3329 000a 07F29F13 		addw	r3, r7, #415
 3330 000e 0022     		movs	r2, #0
 3331 0010 1A70     		strb	r2, [r3]
 510:main.c        ****     hamfly_control_mode_t ctrl_mode = HAMFLY_DEFER;
 3332              		.loc 1 510 0
 3333 0012 07F5CF73 		add	r3, r7, #414
 3334 0016 0022     		movs	r2, #0
 3335 0018 1A70     		strb	r2, [r3]
 511:main.c        ****     hamfly_control_t      ctl;
 512:main.c        **** 
 513:main.c        ****     uint8_t joystick_active   = FALSE;
 3336              		.loc 1 513 0
 3337 001a 07F28713 		addw	r3, r7, #391
 3338 001e 0022     		movs	r2, #0
 3339 0020 1A70     		strb	r2, [r3]
 514:main.c        ****     uint8_t streaming_adc     = FALSE;
 3340              		.loc 1 514 0
 3341 0022 07F5C373 		add	r3, r7, #390
 3342 0026 0022     		movs	r2, #0
 3343 0028 1A70     		strb	r2, [r3]
 515:main.c        ****     uint8_t diag_active       = FALSE;
 3344              		.loc 1 515 0
 3345 002a 0023     		movs	r3, #0
 3346 002c 87F8BF32 		strb	r3, [r7, #703]
 516:main.c        ****     uint8_t show_platform_yaw = FALSE;
 3347              		.loc 1 516 0
 3348 0030 0023     		movs	r3, #0
 3349 0032 87F8BE32 		strb	r3, [r7, #702]
 517:main.c        ****     uint8_t ctrl_attr_pending = 0u;
 3350              		.loc 1 517 0
 3351 0036 0023     		movs	r3, #0
 3352 0038 87F8BD32 		strb	r3, [r7, #701]
 518:main.c        **** 
 519:main.c        ****     /* CONTROL: absolute preset state */
 520:main.c        ****     float   abs_pan_target    = 0.0f;   /* in hamfly units [-1, +1]             */
 3353              		.loc 1 520 0
 3354 003c 4FF00003 		mov	r3, #0
 3355 0040 C7F8B832 		str	r3, [r7, #696]	@ float
 521:main.c        ****     float   abs_tilt_target   = 0.0f;
 3356              		.loc 1 521 0
 3357 0044 4FF00003 		mov	r3, #0
 3358 0048 C7F8B432 		str	r3, [r7, #692]	@ float
 522:main.c        ****     uint8_t abs_preset_active = FALSE;
 3359              		.loc 1 522 0
 3360 004c 0023     		movs	r3, #0
 3361 004e 87F8B332 		strb	r3, [r7, #691]
 523:main.c        ****     uint32_t preset_sent_ms   = 0u;
 3362              		.loc 1 523 0
 3363 0052 0023     		movs	r3, #0
 3364 0054 C7F8AC32 		str	r3, [r7, #684]
 524:main.c        **** 
 525:main.c        ****     /* NUDGE: accumulated position in degrees relative to limit origin */
 526:main.c        ****     float   nudge_pan_deg     = 0.0f;
 3365              		.loc 1 526 0
 3366 0058 4FF00003 		mov	r3, #0
ARM GAS  C:\Users\JENNEW~1\AppData\Local\Temp\ccFpxs5T.s 			page 77


 3367 005c C7F8A832 		str	r3, [r7, #680]	@ float
 527:main.c        ****     float   nudge_tilt_deg    = 0.0f;
 3368              		.loc 1 527 0
 3369 0060 4FF00003 		mov	r3, #0
 3370 0064 C7F8A432 		str	r3, [r7, #676]	@ float
 528:main.c        **** 
 529:main.c        ****     /* Software limit origin: Euler degrees at the moment '[' was pressed.
 530:main.c        ****      * All limit checks are relative to this origin. */
 531:main.c        ****     float   origin_pan_deg    = 0.0f;
 3371              		.loc 1 531 0
 3372 0068 4FF00003 		mov	r3, #0
 3373 006c C7F87832 		str	r3, [r7, #632]	@ float
 532:main.c        ****     float   origin_tilt_deg   = 0.0f;
 3374              		.loc 1 532 0
 3375 0070 4FF00003 		mov	r3, #0
 3376 0074 C7F87432 		str	r3, [r7, #628]	@ float
 533:main.c        ****     uint8_t origin_set        = FALSE;
 3377              		.loc 1 533 0
 3378 0078 0023     		movs	r3, #0
 3379 007a 87F8A332 		strb	r3, [r7, #675]
 534:main.c        **** 
 535:main.c        ****     uint32_t last_tx_ms   = 0u;
 3380              		.loc 1 535 0
 3381 007e 0023     		movs	r3, #0
 3382 0080 C7F89C32 		str	r3, [r7, #668]
 536:main.c        ****     uint32_t last_diag_ms = 0u;
 3383              		.loc 1 536 0
 3384 0084 0023     		movs	r3, #0
 3385 0086 C7F89832 		str	r3, [r7, #664]
 537:main.c        **** 
 538:main.c        ****     int16_t   counts[N_CH];
 539:main.c        ****     joy_cmd_t cmd;
 540:main.c        ****     cmd.u[0] = cmd.u[1] = 0.0f;
 3386              		.loc 1 540 0
 3387 008a 07F5BC73 		add	r3, r7, #376
 3388 008e 4FF00002 		mov	r2, #0
 3389 0092 5A60     		str	r2, [r3, #4]	@ float
 3390 0094 07F5BC73 		add	r3, r7, #376
 3391 0098 5A68     		ldr	r2, [r3, #4]	@ float
 3392 009a 07F5BC73 		add	r3, r7, #376
 3393 009e 1A60     		str	r2, [r3]	@ float
 541:main.c        **** 
 542:main.c        ****     joy_cal_t defaults;
 543:main.c        ****     uint8_t i;
 544:main.c        ****     for (i=0u; i<(uint8_t)N_CH; i++) {
 3394              		.loc 1 544 0
 3395 00a0 0023     		movs	r3, #0
 3396 00a2 87F89732 		strb	r3, [r7, #663]
 3397 00a6 1BE0     		b	.L190
 3398              	.L191:
 545:main.c        ****         defaults.minv[i]=0; defaults.maxv[i]=255; defaults.center[i]=128;
 3399              		.loc 1 545 0 discriminator 3
 3400 00a8 97F89722 		ldrb	r2, [r7, #663]	@ zero_extendqisi2
 3401 00ac 07F5B473 		add	r3, r7, #360
 3402 00b0 0021     		movs	r1, #0
 3403 00b2 23F81210 		strh	r1, [r3, r2, lsl #1]	@ movhi
 3404 00b6 97F89732 		ldrb	r3, [r7, #663]	@ zero_extendqisi2
ARM GAS  C:\Users\JENNEW~1\AppData\Local\Temp\ccFpxs5T.s 			page 78


 3405 00ba 07F5B472 		add	r2, r7, #360
 3406 00be 5B00     		lsls	r3, r3, #1
 3407 00c0 1344     		add	r3, r3, r2
 3408 00c2 FF22     		movs	r2, #255
 3409 00c4 9A80     		strh	r2, [r3, #4]	@ movhi
 3410 00c6 97F89722 		ldrb	r2, [r7, #663]	@ zero_extendqisi2
 3411 00ca 07F5B473 		add	r3, r7, #360
 3412 00ce 0432     		adds	r2, r2, #4
 3413 00d0 8021     		movs	r1, #128
 3414 00d2 23F81210 		strh	r1, [r3, r2, lsl #1]	@ movhi
 544:main.c        ****         defaults.minv[i]=0; defaults.maxv[i]=255; defaults.center[i]=128;
 3415              		.loc 1 544 0 discriminator 3
 3416 00d6 97F89732 		ldrb	r3, [r7, #663]	@ zero_extendqisi2
 3417 00da 0133     		adds	r3, r3, #1
 3418 00dc 87F89732 		strb	r3, [r7, #663]
 3419              	.L190:
 544:main.c        ****         defaults.minv[i]=0; defaults.maxv[i]=255; defaults.center[i]=128;
 3420              		.loc 1 544 0 is_stmt 0 discriminator 1
 3421 00e0 97F89732 		ldrb	r3, [r7, #663]	@ zero_extendqisi2
 3422 00e4 012B     		cmp	r3, #1
 3423 00e6 DFD9     		bls	.L191
 546:main.c        ****     }
 547:main.c        ****     defaults.valid = 0u;
 3424              		.loc 1 547 0 is_stmt 1
 3425 00e8 07F5B473 		add	r3, r7, #360
 3426 00ec 0022     		movs	r2, #0
 3427 00ee 1A73     		strb	r2, [r3, #12]
 548:main.c        **** 
 549:main.c        ****     joy_cal_state_t   cal_prev     = JOY_CAL_OFF;
 3428              		.loc 1 549 0
 3429 00f0 0023     		movs	r3, #0
 3430 00f2 87F89632 		strb	r3, [r7, #662]
 550:main.c        ****     joy_sensitivity_t current_sense = SENSE_MED;
 3431              		.loc 1 550 0
 3432 00f6 0123     		movs	r3, #1
 3433 00f8 87F89532 		strb	r3, [r7, #661]
 551:main.c        ****     uint8_t           last_button  = 1u;
 3434              		.loc 1 551 0
 3435 00fc 0123     		movs	r3, #1
 3436 00fe 87F89432 		strb	r3, [r7, #660]
 552:main.c        ****     uint32_t          invert_mask  = (1u << CH_X);
 3437              		.loc 1 552 0
 3438 0102 0123     		movs	r3, #1
 3439 0104 C7F87032 		str	r3, [r7, #624]
 553:main.c        **** 
 554:main.c        ****     /* ------------------------------------------------------------------
 555:main.c        ****      * Hardware init
 556:main.c        ****      * ------------------------------------------------------------------ */
 557:main.c        ****     CyGlobalIntEnable;
 3440              		.loc 1 557 0
 3441              		.syntax unified
 3442              	@ 557 "main.c" 1
 3443 0108 62B6     		CPSIE   i
 3444              	@ 0 "" 2
 558:main.c        **** 
 559:main.c        ****     UART_1_Start();
 3445              		.loc 1 559 0
ARM GAS  C:\Users\JENNEW~1\AppData\Local\Temp\ccFpxs5T.s 			page 79


 3446              		.thumb
 3447              		.syntax unified
 3448 010a FFF7FEFF 		bl	UART_1_Start
 560:main.c        ****     UART_1_PutString("\r\n=== Gimbal Control  PSoC 5LP ===\r\n");
 3449              		.loc 1 560 0
 3450 010e C048     		ldr	r0, .L346
 3451 0110 FFF7FEFF 		bl	UART_1_PutString
 561:main.c        ****     UART_1_PutString("STANDBY: m=CONTROL q=QUERY n=NUDGE\r\n");
 3452              		.loc 1 561 0
 3453 0114 BF48     		ldr	r0, .L346+4
 3454 0116 FFF7FEFF 		bl	UART_1_PutString
 562:main.c        ****     UART_1_PutString("         j=joy l=mode s=adc c=cal k=kill x=quiet\r\n");
 3455              		.loc 1 562 0
 3456 011a BF48     		ldr	r0, .L346+8
 3457 011c FFF7FEFF 		bl	UART_1_PutString
 563:main.c        ****     UART_1_PutString("         z=goto(0,0)  [=set limit origin\r\n");
 3458              		.loc 1 563 0
 3459 0120 BE48     		ldr	r0, .L346+12
 3460 0122 FFF7FEFF 		bl	UART_1_PutString
 564:main.c        ****     UART_1_PutString("CONTROL: numpad 8/2/5=tilt  4/6/0=pan  p=plat-yaw\r\n");
 3461              		.loc 1 564 0
 3462 0126 BE48     		ldr	r0, .L346+16
 3463 0128 FFF7FEFF 		bl	UART_1_PutString
 565:main.c        ****     UART_1_PutString("QUERY:   a=euler g=GPS b=baro s=stat n=mag\r\n");
 3464              		.loc 1 565 0
 3465 012c BD48     		ldr	r0, .L346+20
 3466 012e FFF7FEFF 		bl	UART_1_PutString
 566:main.c        ****     UART_1_PutString("         2=plat 4=motor q=quat  t=exit\r\n");
 3467              		.loc 1 566 0
 3468 0132 BD48     		ldr	r0, .L346+24
 3469 0134 FFF7FEFF 		bl	UART_1_PutString
 567:main.c        ****     UART_1_PutString("NUDGE:   jl=pan(small) ik=tilt(small)\r\n");
 3470              		.loc 1 567 0
 3471 0138 BC48     		ldr	r0, .L346+28
 3472 013a FFF7FEFF 		bl	UART_1_PutString
 568:main.c        ****     UART_1_PutString("         ad=pan(0.5deg) ws=tilt(0.5deg)  t=exit\r\n");
 3473              		.loc 1 568 0
 3474 013e BC48     		ldr	r0, .L346+32
 3475 0140 FFF7FEFF 		bl	UART_1_PutString
 569:main.c        **** 
 570:main.c        ****     UART_MOVI_Start();
 3476              		.loc 1 570 0
 3477 0144 FFF7FEFF 		bl	UART_MOVI_Start
 571:main.c        ****     UART_MOVI_ClearRxBuffer();
 3478              		.loc 1 571 0
 3479 0148 FFF7FEFF 		bl	UART_MOVI_ClearRxBuffer
 572:main.c        ****     UART_MOVI_ClearTxBuffer();
 3480              		.loc 1 572 0
 3481 014c FFF7FEFF 		bl	UART_MOVI_ClearTxBuffer
 573:main.c        **** 
 574:main.c        ****     hamfly_init(&g_movi, &MOVI_HAL);
 3482              		.loc 1 574 0
 3483 0150 B849     		ldr	r1, .L346+36
 3484 0152 B948     		ldr	r0, .L346+40
 3485 0154 FFF7FEFF 		bl	hamfly_init
 575:main.c        ****     isr_rx_movi_StartEx(isr_rx_movi_Handler);
 3486              		.loc 1 575 0
ARM GAS  C:\Users\JENNEW~1\AppData\Local\Temp\ccFpxs5T.s 			page 80


 3487 0158 B848     		ldr	r0, .L346+44
 3488 015a FFF7FEFF 		bl	isr_rx_movi_StartEx
 576:main.c        ****     UART_1_PutString("[Init] Gimbal UART ready\r\n");
 3489              		.loc 1 576 0
 3490 015e B848     		ldr	r0, .L346+48
 3491 0160 FFF7FEFF 		bl	UART_1_PutString
 577:main.c        ****     psoc_eeprom_init();
 3492              		.loc 1 577 0
 3493 0164 FFF7FEFF 		bl	psoc_eeprom_init
 578:main.c        ****     if (!joystick_load(invert_mask)) {
 3494              		.loc 1 578 0
 3495 0168 D7F87002 		ldr	r0, [r7, #624]
 3496 016c FFF7FEFF 		bl	joystick_load
 3497 0170 0346     		mov	r3, r0
 3498 0172 002B     		cmp	r3, #0
 3499 0174 0AD1     		bne	.L192
 579:main.c        ****         UART_1_PutString("[Init] No saved cal -- using defaults\r\n");
 3500              		.loc 1 579 0
 3501 0176 B348     		ldr	r0, .L346+52
 3502 0178 FFF7FEFF 		bl	UART_1_PutString
 580:main.c        ****         joystick_init(&defaults, invert_mask);
 3503              		.loc 1 580 0
 3504 017c 07F5B473 		add	r3, r7, #360
 3505 0180 D7F87012 		ldr	r1, [r7, #624]
 3506 0184 1846     		mov	r0, r3
 3507 0186 FFF7FEFF 		bl	joystick_init
 3508 018a 02E0     		b	.L193
 3509              	.L192:
 581:main.c        ****     } else {
 582:main.c        ****         UART_1_PutString("[Init] Loaded cal from EEPROM\r\n");
 3510              		.loc 1 582 0
 3511 018c AE48     		ldr	r0, .L346+56
 3512 018e FFF7FEFF 		bl	UART_1_PutString
 3513              	.L193:
 583:main.c        ****     }
 584:main.c        ****     adc_balanced_init();
 3514              		.loc 1 584 0
 3515 0192 FFF7FEFF 		bl	adc_balanced_init
 585:main.c        ****     UART_1_PutString("[Init] ADC + Joystick ready\r\n");
 3516              		.loc 1 585 0
 3517 0196 AD48     		ldr	r0, .L346+60
 3518 0198 FFF7FEFF 		bl	UART_1_PutString
 586:main.c        **** 
 587:main.c        ****     Looptimer_Start();
 3519              		.loc 1 587 0
 3520 019c FFF7FEFF 		bl	Looptimer_Start
 588:main.c        ****     isr_Looptimer_StartEx(isr_Looptimer_Handler);
 3521              		.loc 1 588 0
 3522 01a0 AB48     		ldr	r0, .L346+64
 3523 01a2 FFF7FEFF 		bl	isr_Looptimer_StartEx
 589:main.c        ****     UART_1_PutString("[Init] Ready  Mode: STANDBY\r\n");
 3524              		.loc 1 589 0
 3525 01a6 AB48     		ldr	r0, .L346+68
 3526 01a8 FFF7FEFF 		bl	UART_1_PutString
 3527              	.L331:
 3528              	.LBB12:
 590:main.c        **** 
ARM GAS  C:\Users\JENNEW~1\AppData\Local\Temp\ccFpxs5T.s 			page 81


 591:main.c        ****     /* ------------------------------------------------------------------
 592:main.c        ****      * Main loop
 593:main.c        ****      * ------------------------------------------------------------------ */
 594:main.c        ****     for (;;)
 595:main.c        ****     {
 596:main.c        ****         /* ----------------------------------------------------------------
 597:main.c        ****          * CLI
 598:main.c        ****          * ---------------------------------------------------------------- */
 599:main.c        ****         uint8_t ch = (uint8_t)UART_1_GetChar();
 3529              		.loc 1 599 0
 3530 01ac FFF7FEFF 		bl	UART_1_GetChar
 3531 01b0 0346     		mov	r3, r0
 3532 01b2 87F86F32 		strb	r3, [r7, #623]
 600:main.c        **** 
 601:main.c        ****         /* ----------------------------------------------------------------
 602:main.c        ****          * STANDBY / CONTROL shared keys
 603:main.c        ****          * ---------------------------------------------------------------- */
 604:main.c        ****         if (app_mode == APP_MODE_STANDBY ||
 3533              		.loc 1 604 0
 3534 01b6 07F29F13 		addw	r3, r7, #415
 3535 01ba 1B78     		ldrb	r3, [r3]	@ zero_extendqisi2
 3536 01bc 002B     		cmp	r3, #0
 3537 01be 05D0     		beq	.L194
 605:main.c        ****             app_mode == APP_MODE_CONTROL)
 3538              		.loc 1 605 0 discriminator 1
 3539 01c0 07F29F13 		addw	r3, r7, #415
 3540 01c4 1B78     		ldrb	r3, [r3]	@ zero_extendqisi2
 604:main.c        ****             app_mode == APP_MODE_CONTROL)
 3541              		.loc 1 604 0 discriminator 1
 3542 01c6 012B     		cmp	r3, #1
 3543 01c8 40F0A482 		bne	.L195
 3544              	.L194:
 606:main.c        ****         {
 607:main.c        ****             if (ch == 'm' || ch == 'M') {
 3545              		.loc 1 607 0
 3546 01cc 97F86F32 		ldrb	r3, [r7, #623]	@ zero_extendqisi2
 3547 01d0 6D2B     		cmp	r3, #109
 3548 01d2 03D0     		beq	.L196
 3549              		.loc 1 607 0 is_stmt 0 discriminator 1
 3550 01d4 97F86F32 		ldrb	r3, [r7, #623]	@ zero_extendqisi2
 3551 01d8 4D2B     		cmp	r3, #77
 3552 01da 1AD1     		bne	.L197
 3553              	.L196:
 608:main.c        ****                 if (app_mode == APP_MODE_STANDBY) {
 3554              		.loc 1 608 0 is_stmt 1
 3555 01dc 07F29F13 		addw	r3, r7, #415
 3556 01e0 1B78     		ldrb	r3, [r3]	@ zero_extendqisi2
 3557 01e2 002B     		cmp	r3, #0
 3558 01e4 0DD1     		bne	.L198
 609:main.c        ****                     app_mode = APP_MODE_CONTROL;
 3559              		.loc 1 609 0
 3560 01e6 07F29F13 		addw	r3, r7, #415
 3561 01ea 0122     		movs	r2, #1
 3562 01ec 1A70     		strb	r2, [r3]
 610:main.c        ****                     diag_active = TRUE;
 3563              		.loc 1 610 0
 3564 01ee 0123     		movs	r3, #1
ARM GAS  C:\Users\JENNEW~1\AppData\Local\Temp\ccFpxs5T.s 			page 82


 3565 01f0 87F8BF32 		strb	r3, [r7, #703]
 611:main.c        ****                     abs_preset_active = FALSE;
 3566              		.loc 1 611 0
 3567 01f4 0023     		movs	r3, #0
 3568 01f6 87F8B332 		strb	r3, [r7, #691]
 612:main.c        ****                     UART_1_PutString("[CLI] -> CONTROL\r\n");
 3569              		.loc 1 612 0
 3570 01fa 9748     		ldr	r0, .L346+72
 3571 01fc FFF7FEFF 		bl	UART_1_PutString
 608:main.c        ****                     app_mode = APP_MODE_CONTROL;
 3572              		.loc 1 608 0
 3573 0200 D7E1     		b	.L200
 3574              	.L198:
 613:main.c        ****                 } else {
 614:main.c        ****                     app_mode = APP_MODE_STANDBY;
 3575              		.loc 1 614 0
 3576 0202 07F29F13 		addw	r3, r7, #415
 3577 0206 0022     		movs	r2, #0
 3578 0208 1A70     		strb	r2, [r3]
 615:main.c        ****                     UART_1_PutString("[CLI] -> STANDBY\r\n");
 3579              		.loc 1 615 0
 3580 020a 9448     		ldr	r0, .L346+76
 3581 020c FFF7FEFF 		bl	UART_1_PutString
 608:main.c        ****                     app_mode = APP_MODE_CONTROL;
 3582              		.loc 1 608 0
 3583 0210 CFE1     		b	.L200
 3584              	.L197:
 616:main.c        ****                 }
 617:main.c        ****             }
 618:main.c        ****             else if ((ch=='q'||ch=='Q') && app_mode==APP_MODE_STANDBY) {
 3585              		.loc 1 618 0
 3586 0212 97F86F32 		ldrb	r3, [r7, #623]	@ zero_extendqisi2
 3587 0216 712B     		cmp	r3, #113
 3588 0218 03D0     		beq	.L201
 3589              		.loc 1 618 0 is_stmt 0 discriminator 2
 3590 021a 97F86F32 		ldrb	r3, [r7, #623]	@ zero_extendqisi2
 3591 021e 512B     		cmp	r3, #81
 3592 0220 0CD1     		bne	.L202
 3593              	.L201:
 3594              		.loc 1 618 0 discriminator 3
 3595 0222 07F29F13 		addw	r3, r7, #415
 3596 0226 1B78     		ldrb	r3, [r3]	@ zero_extendqisi2
 3597 0228 002B     		cmp	r3, #0
 3598 022a 07D1     		bne	.L202
 619:main.c        ****                 app_mode = APP_MODE_QUERY;
 3599              		.loc 1 619 0 is_stmt 1
 3600 022c 07F29F13 		addw	r3, r7, #415
 3601 0230 0222     		movs	r2, #2
 3602 0232 1A70     		strb	r2, [r3]
 620:main.c        ****                 UART_1_PutString("[CLI] -> QUERY\r\n");
 3603              		.loc 1 620 0
 3604 0234 8A48     		ldr	r0, .L346+80
 3605 0236 FFF7FEFF 		bl	UART_1_PutString
 3606 023a BAE1     		b	.L200
 3607              	.L202:
 621:main.c        ****             }
 622:main.c        ****             else if ((ch=='n'||ch=='N') && app_mode==APP_MODE_STANDBY) {
ARM GAS  C:\Users\JENNEW~1\AppData\Local\Temp\ccFpxs5T.s 			page 83


 3608              		.loc 1 622 0
 3609 023c 97F86F32 		ldrb	r3, [r7, #623]	@ zero_extendqisi2
 3610 0240 6E2B     		cmp	r3, #110
 3611 0242 03D0     		beq	.L203
 3612              		.loc 1 622 0 is_stmt 0 discriminator 2
 3613 0244 97F86F32 		ldrb	r3, [r7, #623]	@ zero_extendqisi2
 3614 0248 4E2B     		cmp	r3, #78
 3615 024a 21D1     		bne	.L204
 3616              	.L203:
 3617              		.loc 1 622 0 discriminator 3
 3618 024c 07F29F13 		addw	r3, r7, #415
 3619 0250 1B78     		ldrb	r3, [r3]	@ zero_extendqisi2
 3620 0252 002B     		cmp	r3, #0
 3621 0254 1CD1     		bne	.L204
 623:main.c        ****                 nudge_pan_deg  = 0.0f;
 3622              		.loc 1 623 0 is_stmt 1
 3623 0256 4FF00003 		mov	r3, #0
 3624 025a C7F8A832 		str	r3, [r7, #680]	@ float
 624:main.c        ****                 nudge_tilt_deg = 0.0f;
 3625              		.loc 1 624 0
 3626 025e 4FF00003 		mov	r3, #0
 3627 0262 C7F8A432 		str	r3, [r7, #676]	@ float
 625:main.c        ****                 app_mode = APP_MODE_NUDGE;
 3628              		.loc 1 625 0
 3629 0266 07F29F13 		addw	r3, r7, #415
 3630 026a 0322     		movs	r2, #3
 3631 026c 1A70     		strb	r2, [r3]
 626:main.c        ****                 UART_1_PutString("[CLI] -> NUDGE  (jl=pan ik=tilt ad=pan0.5 ws=tilt0.5 t=exit)\r\n"
 3632              		.loc 1 626 0
 3633 026e 7D48     		ldr	r0, .L346+84
 3634 0270 FFF7FEFF 		bl	UART_1_PutString
 627:main.c        ****                 if (!origin_set)
 3635              		.loc 1 627 0
 3636 0274 97F8A332 		ldrb	r3, [r7, #675]	@ zero_extendqisi2
 3637 0278 002B     		cmp	r3, #0
 3638 027a 02D1     		bne	.L205
 628:main.c        ****                     UART_1_PutString("[NUDGE] Warning: limit origin not set. Use '[' in STANDBY.\r\
 3639              		.loc 1 628 0
 3640 027c 7A48     		ldr	r0, .L346+88
 3641 027e FFF7FEFF 		bl	UART_1_PutString
 3642              	.L205:
 629:main.c        ****                 nudge_print_pos(nudge_pan_deg, nudge_tilt_deg);
 3643              		.loc 1 629 0
 3644 0282 D7F8A412 		ldr	r1, [r7, #676]	@ float
 3645 0286 D7F8A802 		ldr	r0, [r7, #680]	@ float
 3646 028a FFF7FEFF 		bl	nudge_print_pos
 3647 028e 90E1     		b	.L200
 3648              	.L204:
 630:main.c        ****             }
 631:main.c        ****             else if (ch=='j'||ch=='J') {
 3649              		.loc 1 631 0
 3650 0290 97F86F32 		ldrb	r3, [r7, #623]	@ zero_extendqisi2
 3651 0294 6A2B     		cmp	r3, #106
 3652 0296 03D0     		beq	.L206
 3653              		.loc 1 631 0 is_stmt 0 discriminator 1
 3654 0298 97F86F32 		ldrb	r3, [r7, #623]	@ zero_extendqisi2
 3655 029c 4A2B     		cmp	r3, #74
ARM GAS  C:\Users\JENNEW~1\AppData\Local\Temp\ccFpxs5T.s 			page 84


 3656 029e 22D1     		bne	.L207
 3657              	.L206:
 632:main.c        ****                 joystick_active = !joystick_active;
 3658              		.loc 1 632 0 is_stmt 1
 3659 02a0 07F28713 		addw	r3, r7, #391
 3660 02a4 1B78     		ldrb	r3, [r3]	@ zero_extendqisi2
 3661 02a6 002B     		cmp	r3, #0
 3662 02a8 0CBF     		ite	eq
 3663 02aa 0123     		moveq	r3, #1
 3664 02ac 0023     		movne	r3, #0
 3665 02ae DBB2     		uxtb	r3, r3
 3666 02b0 1A46     		mov	r2, r3
 3667 02b2 07F28713 		addw	r3, r7, #391
 3668 02b6 1A70     		strb	r2, [r3]
 633:main.c        ****                 if (joystick_active) { diag_active=TRUE; abs_preset_active=FALSE; }
 3669              		.loc 1 633 0
 3670 02b8 07F28713 		addw	r3, r7, #391
 3671 02bc 1B78     		ldrb	r3, [r3]	@ zero_extendqisi2
 3672 02be 002B     		cmp	r3, #0
 3673 02c0 05D0     		beq	.L208
 3674              		.loc 1 633 0 is_stmt 0 discriminator 1
 3675 02c2 0123     		movs	r3, #1
 3676 02c4 87F8BF32 		strb	r3, [r7, #703]
 3677 02c8 0023     		movs	r3, #0
 3678 02ca 87F8B332 		strb	r3, [r7, #691]
 3679              	.L208:
 634:main.c        ****                 UART_1_PutString(joystick_active
 635:main.c        ****                     ? "[CLI] Joystick ON\r\n" : "[CLI] Joystick OFF\r\n");
 3680              		.loc 1 635 0 is_stmt 1
 3681 02ce 07F28713 		addw	r3, r7, #391
 3682 02d2 1B78     		ldrb	r3, [r3]	@ zero_extendqisi2
 634:main.c        ****                 UART_1_PutString(joystick_active
 3683              		.loc 1 634 0
 3684 02d4 002B     		cmp	r3, #0
 3685 02d6 01D0     		beq	.L209
 634:main.c        ****                 UART_1_PutString(joystick_active
 3686              		.loc 1 634 0 is_stmt 0 discriminator 1
 3687 02d8 644B     		ldr	r3, .L346+92
 3688 02da 00E0     		b	.L210
 3689              	.L209:
 634:main.c        ****                 UART_1_PutString(joystick_active
 3690              		.loc 1 634 0 discriminator 2
 3691 02dc 644B     		ldr	r3, .L346+96
 3692              	.L210:
 634:main.c        ****                 UART_1_PutString(joystick_active
 3693              		.loc 1 634 0 discriminator 4
 3694 02de 1846     		mov	r0, r3
 3695 02e0 FFF7FEFF 		bl	UART_1_PutString
 3696 02e4 65E1     		b	.L200
 3697              	.L207:
 636:main.c        ****             }
 637:main.c        ****             else if (ch=='l'||ch=='L') {
 3698              		.loc 1 637 0 is_stmt 1
 3699 02e6 97F86F32 		ldrb	r3, [r7, #623]	@ zero_extendqisi2
 3700 02ea 6C2B     		cmp	r3, #108
 3701 02ec 03D0     		beq	.L211
 3702              		.loc 1 637 0 is_stmt 0 discriminator 1
ARM GAS  C:\Users\JENNEW~1\AppData\Local\Temp\ccFpxs5T.s 			page 85


 3703 02ee 97F86F32 		ldrb	r3, [r7, #623]	@ zero_extendqisi2
 3704 02f2 4C2B     		cmp	r3, #76
 3705 02f4 2DD1     		bne	.L212
 3706              	.L211:
 638:main.c        ****                 if      (ctrl_mode==HAMFLY_DEFER)    ctrl_mode=HAMFLY_RATE;
 3707              		.loc 1 638 0 is_stmt 1
 3708 02f6 07F5CF73 		add	r3, r7, #414
 3709 02fa 1B78     		ldrb	r3, [r3]	@ zero_extendqisi2
 3710 02fc 002B     		cmp	r3, #0
 3711 02fe 04D1     		bne	.L213
 3712              		.loc 1 638 0 is_stmt 0 discriminator 1
 3713 0300 07F5CF73 		add	r3, r7, #414
 3714 0304 0122     		movs	r2, #1
 3715 0306 1A70     		strb	r2, [r3]
 3716 0308 0DE0     		b	.L214
 3717              	.L213:
 639:main.c        ****                 else if (ctrl_mode==HAMFLY_RATE)     ctrl_mode=HAMFLY_ABSOLUTE;
 3718              		.loc 1 639 0 is_stmt 1
 3719 030a 07F5CF73 		add	r3, r7, #414
 3720 030e 1B78     		ldrb	r3, [r3]	@ zero_extendqisi2
 3721 0310 012B     		cmp	r3, #1
 3722 0312 04D1     		bne	.L215
 3723              		.loc 1 639 0 is_stmt 0 discriminator 1
 3724 0314 07F5CF73 		add	r3, r7, #414
 3725 0318 0222     		movs	r2, #2
 3726 031a 1A70     		strb	r2, [r3]
 3727 031c 03E0     		b	.L214
 3728              	.L215:
 640:main.c        ****                 else                                  ctrl_mode=HAMFLY_DEFER;
 3729              		.loc 1 640 0 is_stmt 1
 3730 031e 07F5CF73 		add	r3, r7, #414
 3731 0322 0022     		movs	r2, #0
 3732 0324 1A70     		strb	r2, [r3]
 3733              	.L214:
 641:main.c        ****                 abs_preset_active = FALSE;
 3734              		.loc 1 641 0
 3735 0326 0023     		movs	r3, #0
 3736 0328 87F8B332 		strb	r3, [r7, #691]
 642:main.c        ****                 sprintf(tx,"[CLI] Mode: %s\r\n",mode_str(ctrl_mode));
 3737              		.loc 1 642 0
 3738 032c 07F5CF73 		add	r3, r7, #414
 3739 0330 1B78     		ldrb	r3, [r3]	@ zero_extendqisi2
 3740 0332 1846     		mov	r0, r3
 3741 0334 FFF7FEFF 		bl	mode_str
 3742 0338 0246     		mov	r2, r0
 3743 033a 07F5D073 		add	r3, r7, #416
 3744 033e 4D49     		ldr	r1, .L346+100
 3745 0340 1846     		mov	r0, r3
 3746 0342 FFF7FEFF 		bl	sprintf
 643:main.c        ****                 UART_1_PutString(tx);
 3747              		.loc 1 643 0
 3748 0346 07F5D073 		add	r3, r7, #416
 3749 034a 1846     		mov	r0, r3
 3750 034c FFF7FEFF 		bl	UART_1_PutString
 3751 0350 2FE1     		b	.L200
 3752              	.L212:
 644:main.c        ****             }
ARM GAS  C:\Users\JENNEW~1\AppData\Local\Temp\ccFpxs5T.s 			page 86


 645:main.c        ****             else if (ch=='k'||ch=='K') {
 3753              		.loc 1 645 0
 3754 0352 97F86F32 		ldrb	r3, [r7, #623]	@ zero_extendqisi2
 3755 0356 6B2B     		cmp	r3, #107
 3756 0358 03D0     		beq	.L216
 3757              		.loc 1 645 0 is_stmt 0 discriminator 1
 3758 035a 97F86F32 		ldrb	r3, [r7, #623]	@ zero_extendqisi2
 3759 035e 4B2B     		cmp	r3, #75
 3760 0360 0DD1     		bne	.L217
 3761              	.L216:
 646:main.c        ****                 abs_preset_active = FALSE;
 3762              		.loc 1 646 0 is_stmt 1
 3763 0362 0023     		movs	r3, #0
 3764 0364 87F8B332 		strb	r3, [r7, #691]
 647:main.c        ****                 do_kill(&app_mode, &joystick_active,
 3765              		.loc 1 647 0
 3766 0368 07F5CF73 		add	r3, r7, #414
 3767 036c 07F5C372 		add	r2, r7, #390
 3768 0370 07F28711 		addw	r1, r7, #391
 3769 0374 07F29F10 		addw	r0, r7, #415
 3770 0378 FFF7FEFF 		bl	do_kill
 3771 037c 19E1     		b	.L200
 3772              	.L217:
 648:main.c        ****                         &streaming_adc, &ctrl_mode);
 649:main.c        ****             }
 650:main.c        ****             else if (ch=='x'||ch=='X') {
 3773              		.loc 1 650 0
 3774 037e 97F86F32 		ldrb	r3, [r7, #623]	@ zero_extendqisi2
 3775 0382 782B     		cmp	r3, #120
 3776 0384 03D0     		beq	.L218
 3777              		.loc 1 650 0 is_stmt 0 discriminator 1
 3778 0386 97F86F32 		ldrb	r3, [r7, #623]	@ zero_extendqisi2
 3779 038a 582B     		cmp	r3, #88
 3780 038c 13D1     		bne	.L219
 3781              	.L218:
 651:main.c        ****                 abs_preset_active = FALSE;
 3782              		.loc 1 651 0 is_stmt 1
 3783 038e 0023     		movs	r3, #0
 3784 0390 87F8B332 		strb	r3, [r7, #691]
 652:main.c        ****                 do_kill(&app_mode, &joystick_active,
 3785              		.loc 1 652 0
 3786 0394 07F5CF73 		add	r3, r7, #414
 3787 0398 07F5C372 		add	r2, r7, #390
 3788 039c 07F28711 		addw	r1, r7, #391
 3789 03a0 07F29F10 		addw	r0, r7, #415
 3790 03a4 FFF7FEFF 		bl	do_kill
 653:main.c        ****                         &streaming_adc, &ctrl_mode);
 654:main.c        ****                 diag_active = FALSE;
 3791              		.loc 1 654 0
 3792 03a8 0023     		movs	r3, #0
 3793 03aa 87F8BF32 		strb	r3, [r7, #703]
 655:main.c        ****                 UART_1_PutString("[CLI] Quiet. m or j to resume.\r\n");
 3794              		.loc 1 655 0
 3795 03ae 3248     		ldr	r0, .L346+104
 3796 03b0 FFF7FEFF 		bl	UART_1_PutString
 3797 03b4 FDE0     		b	.L200
 3798              	.L219:
ARM GAS  C:\Users\JENNEW~1\AppData\Local\Temp\ccFpxs5T.s 			page 87


 656:main.c        ****             }
 657:main.c        ****             else if (ch=='s'||ch=='S') {
 3799              		.loc 1 657 0
 3800 03b6 97F86F32 		ldrb	r3, [r7, #623]	@ zero_extendqisi2
 3801 03ba 732B     		cmp	r3, #115
 3802 03bc 03D0     		beq	.L220
 3803              		.loc 1 657 0 is_stmt 0 discriminator 1
 3804 03be 97F86F32 		ldrb	r3, [r7, #623]	@ zero_extendqisi2
 3805 03c2 532B     		cmp	r3, #83
 3806 03c4 17D1     		bne	.L221
 3807              	.L220:
 658:main.c        ****                 streaming_adc = !streaming_adc;
 3808              		.loc 1 658 0 is_stmt 1
 3809 03c6 07F5C373 		add	r3, r7, #390
 3810 03ca 1B78     		ldrb	r3, [r3]	@ zero_extendqisi2
 3811 03cc 002B     		cmp	r3, #0
 3812 03ce 0CBF     		ite	eq
 3813 03d0 0123     		moveq	r3, #1
 3814 03d2 0023     		movne	r3, #0
 3815 03d4 DBB2     		uxtb	r3, r3
 3816 03d6 1A46     		mov	r2, r3
 3817 03d8 07F5C373 		add	r3, r7, #390
 3818 03dc 1A70     		strb	r2, [r3]
 659:main.c        ****                 UART_1_PutString(streaming_adc
 660:main.c        ****                     ? "[CLI] ADC stream ON\r\n":"[CLI] ADC stream OFF\r\n");
 3819              		.loc 1 660 0
 3820 03de 07F5C373 		add	r3, r7, #390
 3821 03e2 1B78     		ldrb	r3, [r3]	@ zero_extendqisi2
 659:main.c        ****                 UART_1_PutString(streaming_adc
 3822              		.loc 1 659 0
 3823 03e4 002B     		cmp	r3, #0
 3824 03e6 01D0     		beq	.L222
 659:main.c        ****                 UART_1_PutString(streaming_adc
 3825              		.loc 1 659 0 is_stmt 0 discriminator 1
 3826 03e8 244B     		ldr	r3, .L346+108
 3827 03ea 00E0     		b	.L223
 3828              	.L222:
 659:main.c        ****                 UART_1_PutString(streaming_adc
 3829              		.loc 1 659 0 discriminator 2
 3830 03ec 244B     		ldr	r3, .L346+112
 3831              	.L223:
 659:main.c        ****                 UART_1_PutString(streaming_adc
 3832              		.loc 1 659 0 discriminator 4
 3833 03ee 1846     		mov	r0, r3
 3834 03f0 FFF7FEFF 		bl	UART_1_PutString
 3835 03f4 DDE0     		b	.L200
 3836              	.L221:
 661:main.c        ****             }
 662:main.c        ****             else if (ch=='c'||ch=='C') {
 3837              		.loc 1 662 0 is_stmt 1
 3838 03f6 97F86F32 		ldrb	r3, [r7, #623]	@ zero_extendqisi2
 3839 03fa 632B     		cmp	r3, #99
 3840 03fc 03D0     		beq	.L224
 3841              		.loc 1 662 0 is_stmt 0 discriminator 1
 3842 03fe 97F86F32 		ldrb	r3, [r7, #623]	@ zero_extendqisi2
 3843 0402 432B     		cmp	r3, #67
 3844 0404 3ED1     		bne	.L225
ARM GAS  C:\Users\JENNEW~1\AppData\Local\Temp\ccFpxs5T.s 			page 88


 3845              	.L224:
 663:main.c        ****                 joystick_on_key('c');
 3846              		.loc 1 663 0 is_stmt 1
 3847 0406 6320     		movs	r0, #99
 3848 0408 FFF7FEFF 		bl	joystick_on_key
 3849 040c D1E0     		b	.L200
 3850              	.L347:
 3851 040e 00BF     		.align	2
 3852              	.L346:
 3853 0410 C4050000 		.word	.LC47
 3854 0414 EC050000 		.word	.LC48
 3855 0418 14060000 		.word	.LC49
 3856 041c 48060000 		.word	.LC50
 3857 0420 74060000 		.word	.LC51
 3858 0424 A8060000 		.word	.LC52
 3859 0428 D8060000 		.word	.LC53
 3860 042c 04070000 		.word	.LC54
 3861 0430 2C070000 		.word	.LC55
 3862 0434 00000000 		.word	MOVI_HAL
 3863 0438 00000000 		.word	g_movi
 3864 043c 00000000 		.word	isr_rx_movi_Handler
 3865 0440 60070000 		.word	.LC56
 3866 0444 7C070000 		.word	.LC57
 3867 0448 A4070000 		.word	.LC58
 3868 044c C4070000 		.word	.LC59
 3869 0450 00000000 		.word	isr_Looptimer_Handler
 3870 0454 E4070000 		.word	.LC60
 3871 0458 04080000 		.word	.LC61
 3872 045c 18080000 		.word	.LC62
 3873 0460 2C080000 		.word	.LC63
 3874 0464 40080000 		.word	.LC64
 3875 0468 80080000 		.word	.LC65
 3876 046c C0080000 		.word	.LC66
 3877 0470 D4080000 		.word	.LC67
 3878 0474 EC080000 		.word	.LC68
 3879 0478 00090000 		.word	.LC69
 3880 047c 24090000 		.word	.LC70
 3881 0480 3C090000 		.word	.LC71
 3882              	.L225:
 664:main.c        ****             }
 665:main.c        ****             /* Go to absolute (0,0) — optical boresight shortcut */
 666:main.c        ****             else if (ch=='z'||ch=='Z') {
 3883              		.loc 1 666 0
 3884 0484 97F86F32 		ldrb	r3, [r7, #623]	@ zero_extendqisi2
 3885 0488 7A2B     		cmp	r3, #122
 3886 048a 03D0     		beq	.L226
 3887              		.loc 1 666 0 is_stmt 0 discriminator 1
 3888 048c 97F86F32 		ldrb	r3, [r7, #623]	@ zero_extendqisi2
 3889 0490 5A2B     		cmp	r3, #90
 3890 0492 23D1     		bne	.L227
 3891              	.L226:
 667:main.c        ****                 abs_pan_target    = 0.0f;
 3892              		.loc 1 667 0 is_stmt 1
 3893 0494 4FF00003 		mov	r3, #0
 3894 0498 C7F8B832 		str	r3, [r7, #696]	@ float
 668:main.c        ****                 abs_tilt_target   = 0.0f;
 3895              		.loc 1 668 0
ARM GAS  C:\Users\JENNEW~1\AppData\Local\Temp\ccFpxs5T.s 			page 89


 3896 049c 4FF00003 		mov	r3, #0
 3897 04a0 C7F8B432 		str	r3, [r7, #692]	@ float
 669:main.c        ****                 abs_preset_active = TRUE;
 3898              		.loc 1 669 0
 3899 04a4 0123     		movs	r3, #1
 3900 04a6 87F8B332 		strb	r3, [r7, #691]
 670:main.c        ****                 joystick_active   = FALSE;
 3901              		.loc 1 670 0
 3902 04aa 07F28713 		addw	r3, r7, #391
 3903 04ae 0022     		movs	r2, #0
 3904 04b0 1A70     		strb	r2, [r3]
 671:main.c        ****                 preset_sent_ms    = g_tick_ms;
 3905              		.loc 1 671 0
 3906 04b2 CD4B     		ldr	r3, .L348
 3907 04b4 1B68     		ldr	r3, [r3]
 3908 04b6 C7F8AC32 		str	r3, [r7, #684]
 672:main.c        ****                 /* Ensure ABS mode is active */
 673:main.c        ****                 ctrl_mode = HAMFLY_ABSOLUTE;
 3909              		.loc 1 673 0
 3910 04ba 07F5CF73 		add	r3, r7, #414
 3911 04be 0222     		movs	r2, #2
 3912 04c0 1A70     		strb	r2, [r3]
 674:main.c        ****                 if (app_mode == APP_MODE_STANDBY)
 3913              		.loc 1 674 0
 3914 04c2 07F29F13 		addw	r3, r7, #415
 3915 04c6 1B78     		ldrb	r3, [r3]	@ zero_extendqisi2
 3916 04c8 002B     		cmp	r3, #0
 3917 04ca 03D1     		bne	.L228
 675:main.c        ****                     app_mode = APP_MODE_CONTROL;
 3918              		.loc 1 675 0
 3919 04cc 07F29F13 		addw	r3, r7, #415
 3920 04d0 0122     		movs	r2, #1
 3921 04d2 1A70     		strb	r2, [r3]
 3922              	.L228:
 676:main.c        ****                 UART_1_PutString("[CLI] Commanding (0, 0)...\r\n");
 3923              		.loc 1 676 0
 3924 04d4 C548     		ldr	r0, .L348+4
 3925 04d6 FFF7FEFF 		bl	UART_1_PutString
 3926 04da 6AE0     		b	.L200
 3927              	.L227:
 677:main.c        ****             }
 678:main.c        ****             /* Set limit origin at current Euler position */
 679:main.c        ****             else if (ch=='[') {
 3928              		.loc 1 679 0
 3929 04dc 97F86F32 		ldrb	r3, [r7, #623]	@ zero_extendqisi2
 3930 04e0 5B2B     		cmp	r3, #91
 3931 04e2 66D1     		bne	.L200
 3932              	.LBB13:
 680:main.c        ****                 float pd = 0.0f, td = 0.0f;
 3933              		.loc 1 680 0
 3934 04e4 07F5B273 		add	r3, r7, #356
 3935 04e8 4FF00002 		mov	r2, #0
 3936 04ec 1A60     		str	r2, [r3]	@ float
 3937 04ee 07F5B073 		add	r3, r7, #352
 3938 04f2 4FF00002 		mov	r2, #0
 3939 04f6 1A60     		str	r2, [r3]	@ float
 681:main.c        ****                 if (get_euler_deg(&pd, &td)) {
ARM GAS  C:\Users\JENNEW~1\AppData\Local\Temp\ccFpxs5T.s 			page 90


 3940              		.loc 1 681 0
 3941 04f8 07F5B072 		add	r2, r7, #352
 3942 04fc 07F5B273 		add	r3, r7, #356
 3943 0500 1146     		mov	r1, r2
 3944 0502 1846     		mov	r0, r3
 3945 0504 FFF7FEFF 		bl	get_euler_deg
 3946 0508 0346     		mov	r3, r0
 3947 050a 002B     		cmp	r3, #0
 3948 050c 4ED0     		beq	.L229
 3949              	.LBB14:
 682:main.c        ****                     origin_pan_deg  = pd;
 3950              		.loc 1 682 0
 3951 050e 07F5B273 		add	r3, r7, #356
 3952 0512 1B68     		ldr	r3, [r3]	@ float
 3953 0514 C7F87832 		str	r3, [r7, #632]	@ float
 683:main.c        ****                     origin_tilt_deg = td;
 3954              		.loc 1 683 0
 3955 0518 07F5B073 		add	r3, r7, #352
 3956 051c 1B68     		ldr	r3, [r3]	@ float
 3957 051e C7F87432 		str	r3, [r7, #628]	@ float
 684:main.c        ****                     origin_set = TRUE;
 3958              		.loc 1 684 0
 3959 0522 0123     		movs	r3, #1
 3960 0524 87F8A332 		strb	r3, [r7, #675]
 685:main.c        ****                     char ps, ts;
 686:main.c        ****                     int16_t pi, pf, ti, tf;
 687:main.c        ****                     decomp(pd, &pi, &pf, &ps);
 3961              		.loc 1 687 0
 3962 0528 07F5B273 		add	r3, r7, #356
 3963 052c 1868     		ldr	r0, [r3]	@ float
 3964 052e 07F25F13 		addw	r3, r7, #351
 3965 0532 07F5AD72 		add	r2, r7, #346
 3966 0536 07F5AE71 		add	r1, r7, #348
 3967 053a FFF7FEFF 		bl	decomp
 688:main.c        ****                     decomp(td, &ti, &tf, &ts);
 3968              		.loc 1 688 0
 3969 053e 07F5B073 		add	r3, r7, #352
 3970 0542 1868     		ldr	r0, [r3]	@ float
 3971 0544 07F5AF73 		add	r3, r7, #350
 3972 0548 07F5AB72 		add	r2, r7, #342
 3973 054c 07F5AC71 		add	r1, r7, #344
 3974 0550 FFF7FEFF 		bl	decomp
 689:main.c        ****                     sprintf(tx,
 3975              		.loc 1 689 0
 3976 0554 07F25F13 		addw	r3, r7, #351
 3977 0558 1B78     		ldrb	r3, [r3]	@ zero_extendqisi2
 3978 055a 1D46     		mov	r5, r3
 3979 055c 07F5AE73 		add	r3, r7, #348
 3980 0560 B3F90030 		ldrsh	r3, [r3]
 3981 0564 1E46     		mov	r6, r3
 3982 0566 07F5AD73 		add	r3, r7, #346
 3983 056a B3F90030 		ldrsh	r3, [r3]
 3984 056e 1A46     		mov	r2, r3
 3985 0570 07F5AF73 		add	r3, r7, #350
 3986 0574 1B78     		ldrb	r3, [r3]	@ zero_extendqisi2
 3987 0576 1946     		mov	r1, r3
 3988 0578 07F5AC73 		add	r3, r7, #344
ARM GAS  C:\Users\JENNEW~1\AppData\Local\Temp\ccFpxs5T.s 			page 91


 3989 057c B3F90030 		ldrsh	r3, [r3]
 3990 0580 1C46     		mov	r4, r3
 3991 0582 07F5AB73 		add	r3, r7, #342
 3992 0586 B3F90030 		ldrsh	r3, [r3]
 3993 058a 07F5D070 		add	r0, r7, #416
 3994 058e 0393     		str	r3, [sp, #12]
 3995 0590 0294     		str	r4, [sp, #8]
 3996 0592 0191     		str	r1, [sp, #4]
 3997 0594 0092     		str	r2, [sp]
 3998 0596 3346     		mov	r3, r6
 3999 0598 2A46     		mov	r2, r5
 4000 059a 9549     		ldr	r1, .L348+8
 4001 059c FFF7FEFF 		bl	sprintf
 690:main.c        ****                         "[CLI] Limit origin set: Pan=%c%d.%02d  Tilt=%c%d.%02d deg\r\n",
 691:main.c        ****                         ps,pi,pf, ts,ti,tf);
 692:main.c        ****                     UART_1_PutString(tx);
 4002              		.loc 1 692 0
 4003 05a0 07F5D073 		add	r3, r7, #416
 4004 05a4 1846     		mov	r0, r3
 4005 05a6 FFF7FEFF 		bl	UART_1_PutString
 4006              	.LBE14:
 4007 05aa 02E0     		b	.L200
 4008              	.L229:
 693:main.c        ****                 } else {
 694:main.c        ****                     UART_1_PutString("[CLI] No valid telemetry -- cannot set origin\r\n");
 4009              		.loc 1 694 0
 4010 05ac 9148     		ldr	r0, .L348+12
 4011 05ae FFF7FEFF 		bl	UART_1_PutString
 4012              	.L200:
 4013              	.LBE13:
 695:main.c        ****                 }
 696:main.c        ****             }
 697:main.c        **** 
 698:main.c        ****             /* ---- CONTROL-only keys ---- */
 699:main.c        ****             if (app_mode == APP_MODE_CONTROL) {
 4014              		.loc 1 699 0
 4015 05b2 07F29F13 		addw	r3, r7, #415
 4016 05b6 1B78     		ldrb	r3, [r3]	@ zero_extendqisi2
 4017 05b8 012B     		cmp	r3, #1
 4018 05ba 40F09382 		bne	.L344
 700:main.c        ****                 if (ch=='p'||ch=='P') {
 4019              		.loc 1 700 0
 4020 05be 97F86F32 		ldrb	r3, [r7, #623]	@ zero_extendqisi2
 4021 05c2 702B     		cmp	r3, #112
 4022 05c4 03D0     		beq	.L232
 4023              		.loc 1 700 0 is_stmt 0 discriminator 1
 4024 05c6 97F86F32 		ldrb	r3, [r7, #623]	@ zero_extendqisi2
 4025 05ca 502B     		cmp	r3, #80
 4026 05cc 13D1     		bne	.L233
 4027              	.L232:
 701:main.c        ****                     show_platform_yaw = !show_platform_yaw;
 4028              		.loc 1 701 0 is_stmt 1
 4029 05ce 97F8BE32 		ldrb	r3, [r7, #702]	@ zero_extendqisi2
 4030 05d2 002B     		cmp	r3, #0
 4031 05d4 0CBF     		ite	eq
 4032 05d6 0123     		moveq	r3, #1
 4033 05d8 0023     		movne	r3, #0
ARM GAS  C:\Users\JENNEW~1\AppData\Local\Temp\ccFpxs5T.s 			page 92


 4034 05da DBB2     		uxtb	r3, r3
 4035 05dc 87F8BE32 		strb	r3, [r7, #702]
 702:main.c        ****                     UART_1_PutString(show_platform_yaw
 4036              		.loc 1 702 0
 4037 05e0 97F8BE32 		ldrb	r3, [r7, #702]	@ zero_extendqisi2
 4038 05e4 002B     		cmp	r3, #0
 4039 05e6 01D0     		beq	.L234
 4040              		.loc 1 702 0 is_stmt 0 discriminator 1
 4041 05e8 834B     		ldr	r3, .L348+16
 4042 05ea 00E0     		b	.L235
 4043              	.L234:
 4044              		.loc 1 702 0 discriminator 2
 4045 05ec 834B     		ldr	r3, .L348+20
 4046              	.L235:
 4047              		.loc 1 702 0 discriminator 4
 4048 05ee 1846     		mov	r0, r3
 4049 05f0 FFF7FEFF 		bl	UART_1_PutString
 699:main.c        ****                 if (ch=='p'||ch=='P') {
 4050              		.loc 1 699 0 is_stmt 1 discriminator 4
 4051 05f4 76E2     		b	.L344
 4052              	.L233:
 703:main.c        ****                         ? "[CTRL] Platform yaw ON\r\n"
 704:main.c        ****                         : "[CTRL] Platform yaw OFF\r\n");
 705:main.c        ****                 }
 706:main.c        ****                 /* Numpad presets: require ABS mode */
 707:main.c        ****                 else if (ch=='8'||ch=='2'||ch=='5'||
 4053              		.loc 1 707 0
 4054 05f6 97F86F32 		ldrb	r3, [r7, #623]	@ zero_extendqisi2
 4055 05fa 382B     		cmp	r3, #56
 4056 05fc 14D0     		beq	.L236
 4057              		.loc 1 707 0 is_stmt 0 discriminator 1
 4058 05fe 97F86F32 		ldrb	r3, [r7, #623]	@ zero_extendqisi2
 4059 0602 322B     		cmp	r3, #50
 4060 0604 10D0     		beq	.L236
 4061              		.loc 1 707 0 discriminator 2
 4062 0606 97F86F32 		ldrb	r3, [r7, #623]	@ zero_extendqisi2
 4063 060a 352B     		cmp	r3, #53
 4064 060c 0CD0     		beq	.L236
 4065              		.loc 1 707 0 discriminator 3
 4066 060e 97F86F32 		ldrb	r3, [r7, #623]	@ zero_extendqisi2
 4067 0612 342B     		cmp	r3, #52
 4068 0614 08D0     		beq	.L236
 708:main.c        ****                          ch=='4'||ch=='6'||ch=='0') {
 4069              		.loc 1 708 0 is_stmt 1
 4070 0616 97F86F32 		ldrb	r3, [r7, #623]	@ zero_extendqisi2
 4071 061a 362B     		cmp	r3, #54
 4072 061c 04D0     		beq	.L236
 4073              		.loc 1 708 0 is_stmt 0 discriminator 1
 4074 061e 97F86F32 		ldrb	r3, [r7, #623]	@ zero_extendqisi2
 4075 0622 302B     		cmp	r3, #48
 4076 0624 40F05E82 		bne	.L344
 4077              	.L236:
 709:main.c        ****                     if (ctrl_mode != HAMFLY_ABSOLUTE) {
 4078              		.loc 1 709 0 is_stmt 1
 4079 0628 07F5CF73 		add	r3, r7, #414
 4080 062c 1B78     		ldrb	r3, [r3]	@ zero_extendqisi2
 4081 062e 022B     		cmp	r3, #2
ARM GAS  C:\Users\JENNEW~1\AppData\Local\Temp\ccFpxs5T.s 			page 93


 4082 0630 03D0     		beq	.L237
 710:main.c        ****                         UART_1_PutString("[CTRL] Need ABS mode -- press 'l'\r\n");
 4083              		.loc 1 710 0
 4084 0632 7348     		ldr	r0, .L348+24
 4085 0634 FFF7FEFF 		bl	UART_1_PutString
 699:main.c        ****                 if (ch=='p'||ch=='P') {
 4086              		.loc 1 699 0
 4087 0638 54E2     		b	.L344
 4088              	.L237:
 711:main.c        ****                     } else {
 712:main.c        ****                         switch (ch) {
 4089              		.loc 1 712 0
 4090 063a 97F86F32 		ldrb	r3, [r7, #623]	@ zero_extendqisi2
 4091 063e 303B     		subs	r3, r3, #48
 4092 0640 082B     		cmp	r3, #8
 4093 0642 5AD8     		bhi	.L345
 4094 0644 01A2     		adr	r2, .L240
 4095 0646 52F823F0 		ldr	pc, [r2, r3, lsl #2]
 4096 064a 00BF     		.p2align 2
 4097              	.L240:
 4098 064c 87060000 		.word	.L239+1
 4099 0650 FB060000 		.word	.L345+1
 4100 0654 E5060000 		.word	.L241+1
 4101 0658 FB060000 		.word	.L345+1
 4102 065c 71060000 		.word	.L242+1
 4103 0660 CD060000 		.word	.L243+1
 4104 0664 9F060000 		.word	.L244+1
 4105 0668 FB060000 		.word	.L345+1
 4106 066c B7060000 		.word	.L245+1
 4107              		.p2align 1
 4108              	.L242:
 713:main.c        ****                             /* Pan presets */
 714:main.c        ****                             case '4':
 715:main.c        ****                                 abs_pan_target  = DEG_TO_UNIT(-45.0f);
 4109              		.loc 1 715 0
 4110 0670 644B     		ldr	r3, .L348+28
 4111 0672 C7F8B832 		str	r3, [r7, #696]	@ float
 716:main.c        ****                                 abs_tilt_target = 0.0f;
 4112              		.loc 1 716 0
 4113 0676 4FF00003 		mov	r3, #0
 4114 067a C7F8B432 		str	r3, [r7, #692]	@ float
 717:main.c        ****                                 UART_1_PutString("[CTRL] Pan -45 deg\r\n"); break;
 4115              		.loc 1 717 0
 4116 067e 6248     		ldr	r0, .L348+32
 4117 0680 FFF7FEFF 		bl	UART_1_PutString
 4118 0684 3AE0     		b	.L246
 4119              	.L239:
 718:main.c        ****                             case '0':
 719:main.c        ****                                 abs_pan_target  = 0.0f;
 4120              		.loc 1 719 0
 4121 0686 4FF00003 		mov	r3, #0
 4122 068a C7F8B832 		str	r3, [r7, #696]	@ float
 720:main.c        ****                                 abs_tilt_target = 0.0f;
 4123              		.loc 1 720 0
 4124 068e 4FF00003 		mov	r3, #0
 4125 0692 C7F8B432 		str	r3, [r7, #692]	@ float
 721:main.c        ****                                 UART_1_PutString("[CTRL] Pan 0 (home)\r\n"); break;
ARM GAS  C:\Users\JENNEW~1\AppData\Local\Temp\ccFpxs5T.s 			page 94


 4126              		.loc 1 721 0
 4127 0696 5D48     		ldr	r0, .L348+36
 4128 0698 FFF7FEFF 		bl	UART_1_PutString
 4129 069c 2EE0     		b	.L246
 4130              	.L244:
 722:main.c        ****                             case '6':
 723:main.c        ****                                 abs_pan_target  = DEG_TO_UNIT(45.0f);
 4131              		.loc 1 723 0
 4132 069e 4FF07A53 		mov	r3, #1048576000
 4133 06a2 C7F8B832 		str	r3, [r7, #696]	@ float
 724:main.c        ****                                 abs_tilt_target = 0.0f;
 4134              		.loc 1 724 0
 4135 06a6 4FF00003 		mov	r3, #0
 4136 06aa C7F8B432 		str	r3, [r7, #692]	@ float
 725:main.c        ****                                 UART_1_PutString("[CTRL] Pan +45 deg\r\n"); break;
 4137              		.loc 1 725 0
 4138 06ae 5848     		ldr	r0, .L348+40
 4139 06b0 FFF7FEFF 		bl	UART_1_PutString
 4140 06b4 22E0     		b	.L246
 4141              	.L245:
 726:main.c        ****                             /* Tilt presets */
 727:main.c        ****                             case '8':
 728:main.c        ****                                 abs_pan_target  = 0.0f;
 4142              		.loc 1 728 0
 4143 06b6 4FF00003 		mov	r3, #0
 4144 06ba C7F8B832 		str	r3, [r7, #696]	@ float
 729:main.c        ****                                 abs_tilt_target = DEG_TO_UNIT(25.0f);
 4145              		.loc 1 729 0
 4146 06be 554B     		ldr	r3, .L348+44
 4147 06c0 C7F8B432 		str	r3, [r7, #692]	@ float
 730:main.c        ****                                 UART_1_PutString("[CTRL] Tilt +25 deg\r\n"); break;
 4148              		.loc 1 730 0
 4149 06c4 5448     		ldr	r0, .L348+48
 4150 06c6 FFF7FEFF 		bl	UART_1_PutString
 4151 06ca 17E0     		b	.L246
 4152              	.L243:
 731:main.c        ****                             case '5':
 732:main.c        ****                                 abs_pan_target  = 0.0f;
 4153              		.loc 1 732 0
 4154 06cc 4FF00003 		mov	r3, #0
 4155 06d0 C7F8B832 		str	r3, [r7, #696]	@ float
 733:main.c        ****                                 abs_tilt_target = 0.0f;
 4156              		.loc 1 733 0
 4157 06d4 4FF00003 		mov	r3, #0
 4158 06d8 C7F8B432 		str	r3, [r7, #692]	@ float
 734:main.c        ****                                 UART_1_PutString("[CTRL] Tilt 0 deg\r\n"); break;
 4159              		.loc 1 734 0
 4160 06dc 4F48     		ldr	r0, .L348+52
 4161 06de FFF7FEFF 		bl	UART_1_PutString
 4162 06e2 0BE0     		b	.L246
 4163              	.L241:
 735:main.c        ****                             case '2':
 736:main.c        ****                                 abs_pan_target  = 0.0f;
 4164              		.loc 1 736 0
 4165 06e4 4FF00003 		mov	r3, #0
 4166 06e8 C7F8B832 		str	r3, [r7, #696]	@ float
 737:main.c        ****                                 abs_tilt_target = DEG_TO_UNIT(-25.0f);
ARM GAS  C:\Users\JENNEW~1\AppData\Local\Temp\ccFpxs5T.s 			page 95


 4167              		.loc 1 737 0
 4168 06ec 4C4B     		ldr	r3, .L348+56
 4169 06ee C7F8B432 		str	r3, [r7, #692]	@ float
 738:main.c        ****                                 UART_1_PutString("[CTRL] Tilt -25 deg\r\n"); break;
 4170              		.loc 1 738 0
 4171 06f2 4C48     		ldr	r0, .L348+60
 4172 06f4 FFF7FEFF 		bl	UART_1_PutString
 4173 06f8 00E0     		b	.L246
 4174              	.L345:
 739:main.c        ****                             default: break;
 4175              		.loc 1 739 0
 4176 06fa 00BF     		nop
 4177              	.L246:
 740:main.c        ****                         }
 741:main.c        ****                         abs_preset_active = TRUE;
 4178              		.loc 1 741 0
 4179 06fc 0123     		movs	r3, #1
 4180 06fe 87F8B332 		strb	r3, [r7, #691]
 742:main.c        ****                         joystick_active   = FALSE;
 4181              		.loc 1 742 0
 4182 0702 07F28713 		addw	r3, r7, #391
 4183 0706 0022     		movs	r2, #0
 4184 0708 1A70     		strb	r2, [r3]
 743:main.c        ****                         preset_sent_ms    = g_tick_ms;
 4185              		.loc 1 743 0
 4186 070a 374B     		ldr	r3, .L348
 4187 070c 1B68     		ldr	r3, [r3]
 4188 070e C7F8AC32 		str	r3, [r7, #684]
 699:main.c        ****                 if (ch=='p'||ch=='P') {
 4189              		.loc 1 699 0
 4190 0712 E7E1     		b	.L344
 4191              	.L195:
 744:main.c        ****                     }
 745:main.c        ****                 }
 746:main.c        ****             }
 747:main.c        ****         }
 748:main.c        **** 
 749:main.c        ****         /* ----------------------------------------------------------------
 750:main.c        ****          * QUERY keys
 751:main.c        ****          * ---------------------------------------------------------------- */
 752:main.c        ****         else if (app_mode == APP_MODE_QUERY) {
 4192              		.loc 1 752 0
 4193 0714 07F29F13 		addw	r3, r7, #415
 4194 0718 1B78     		ldrb	r3, [r3]	@ zero_extendqisi2
 4195 071a 022B     		cmp	r3, #2
 4196 071c 40F0E380 		bne	.L248
 753:main.c        ****             if (ch=='t'||ch=='T') {
 4197              		.loc 1 753 0
 4198 0720 97F86F32 		ldrb	r3, [r7, #623]	@ zero_extendqisi2
 4199 0724 742B     		cmp	r3, #116
 4200 0726 03D0     		beq	.L249
 4201              		.loc 1 753 0 is_stmt 0 discriminator 1
 4202 0728 97F86F32 		ldrb	r3, [r7, #623]	@ zero_extendqisi2
 4203 072c 542B     		cmp	r3, #84
 4204 072e 0FD1     		bne	.L250
 4205              	.L249:
 754:main.c        ****                 g_movi.pending_attr  = 0u;
ARM GAS  C:\Users\JENNEW~1\AppData\Local\Temp\ccFpxs5T.s 			page 96


 4206              		.loc 1 754 0 is_stmt 1
 4207 0730 3D4B     		ldr	r3, .L348+64
 4208 0732 0022     		movs	r2, #0
 4209 0734 A3F83223 		strh	r2, [r3, #818]	@ movhi
 755:main.c        ****                 g_movi.pending_ready = false;
 4210              		.loc 1 755 0
 4211 0738 3B4B     		ldr	r3, .L348+64
 4212 073a 0022     		movs	r2, #0
 4213 073c 83F83823 		strb	r2, [r3, #824]
 756:main.c        ****                 app_mode = APP_MODE_STANDBY;
 4214              		.loc 1 756 0
 4215 0740 07F29F13 		addw	r3, r7, #415
 4216 0744 0022     		movs	r2, #0
 4217 0746 1A70     		strb	r2, [r3]
 757:main.c        ****                 UART_1_PutString("[QUERY] -> STANDBY\r\n");
 4218              		.loc 1 757 0
 4219 0748 3848     		ldr	r0, .L348+68
 4220 074a FFF7FEFF 		bl	UART_1_PutString
 4221 074e CAE1     		b	.L247
 4222              	.L250:
 758:main.c        ****             }
 759:main.c        ****             else if (ch=='x'||ch=='X') {
 4223              		.loc 1 759 0
 4224 0750 97F86F32 		ldrb	r3, [r7, #623]	@ zero_extendqisi2
 4225 0754 782B     		cmp	r3, #120
 4226 0756 03D0     		beq	.L252
 4227              		.loc 1 759 0 is_stmt 0 discriminator 1
 4228 0758 97F86F32 		ldrb	r3, [r7, #623]	@ zero_extendqisi2
 4229 075c 582B     		cmp	r3, #88
 4230 075e 12D1     		bne	.L253
 4231              	.L252:
 760:main.c        ****                 g_movi.pending_attr  = 0u;
 4232              		.loc 1 760 0 is_stmt 1
 4233 0760 314B     		ldr	r3, .L348+64
 4234 0762 0022     		movs	r2, #0
 4235 0764 A3F83223 		strh	r2, [r3, #818]	@ movhi
 761:main.c        ****                 g_movi.pending_ready = false;
 4236              		.loc 1 761 0
 4237 0768 2F4B     		ldr	r3, .L348+64
 4238 076a 0022     		movs	r2, #0
 4239 076c 83F83823 		strb	r2, [r3, #824]
 762:main.c        ****                 do_kill(&app_mode,&joystick_active,&streaming_adc,&ctrl_mode);
 4240              		.loc 1 762 0
 4241 0770 07F5CF73 		add	r3, r7, #414
 4242 0774 07F5C372 		add	r2, r7, #390
 4243 0778 07F28711 		addw	r1, r7, #391
 4244 077c 07F29F10 		addw	r0, r7, #415
 4245 0780 FFF7FEFF 		bl	do_kill
 4246 0784 AFE1     		b	.L247
 4247              	.L253:
 4248              	.LBB15:
 763:main.c        ****             }
 764:main.c        ****             else {
 765:main.c        ****                 uint16_t req = 0u;
 4249              		.loc 1 765 0
 4250 0786 0023     		movs	r3, #0
 4251 0788 A7F89232 		strh	r3, [r7, #658]	@ movhi
ARM GAS  C:\Users\JENNEW~1\AppData\Local\Temp\ccFpxs5T.s 			page 97


 766:main.c        ****                 if      (ch=='a'||ch=='A') { req=22u; UART_1_PutString("[QUERY] attr 22 euler\r\n")
 4252              		.loc 1 766 0
 4253 078c 97F86F32 		ldrb	r3, [r7, #623]	@ zero_extendqisi2
 4254 0790 612B     		cmp	r3, #97
 4255 0792 03D0     		beq	.L254
 4256              		.loc 1 766 0 is_stmt 0 discriminator 2
 4257 0794 97F86F32 		ldrb	r3, [r7, #623]	@ zero_extendqisi2
 4258 0798 412B     		cmp	r3, #65
 4259 079a 06D1     		bne	.L255
 4260              	.L254:
 4261              		.loc 1 766 0 discriminator 3
 4262 079c 1623     		movs	r3, #22
 4263 079e A7F89232 		strh	r3, [r7, #658]	@ movhi
 4264 07a2 2348     		ldr	r0, .L348+72
 4265 07a4 FFF7FEFF 		bl	UART_1_PutString
 4266 07a8 86E0     		b	.L256
 4267              	.L255:
 767:main.c        ****                 else if (ch=='g'||ch=='G') { req=4u;  UART_1_PutString("[QUERY] attr 4 GPS\r\n"); }
 4268              		.loc 1 767 0 is_stmt 1
 4269 07aa 97F86F32 		ldrb	r3, [r7, #623]	@ zero_extendqisi2
 4270 07ae 672B     		cmp	r3, #103
 4271 07b0 03D0     		beq	.L257
 4272              		.loc 1 767 0 is_stmt 0 discriminator 2
 4273 07b2 97F86F32 		ldrb	r3, [r7, #623]	@ zero_extendqisi2
 4274 07b6 472B     		cmp	r3, #71
 4275 07b8 06D1     		bne	.L258
 4276              	.L257:
 4277              		.loc 1 767 0 discriminator 3
 4278 07ba 0423     		movs	r3, #4
 4279 07bc A7F89232 		strh	r3, [r7, #658]	@ movhi
 4280 07c0 1C48     		ldr	r0, .L348+76
 4281 07c2 FFF7FEFF 		bl	UART_1_PutString
 4282 07c6 77E0     		b	.L256
 4283              	.L258:
 768:main.c        ****                 else if (ch=='b'||ch=='B') { req=3u;  UART_1_PutString("[QUERY] attr 3 baro\r\n"); 
 4284              		.loc 1 768 0 is_stmt 1
 4285 07c8 97F86F32 		ldrb	r3, [r7, #623]	@ zero_extendqisi2
 4286 07cc 622B     		cmp	r3, #98
 4287 07ce 03D0     		beq	.L259
 4288              		.loc 1 768 0 is_stmt 0 discriminator 2
 4289 07d0 97F86F32 		ldrb	r3, [r7, #623]	@ zero_extendqisi2
 4290 07d4 422B     		cmp	r3, #66
 4291 07d6 31D1     		bne	.L260
 4292              	.L259:
 4293              		.loc 1 768 0 discriminator 3
 4294 07d8 0323     		movs	r3, #3
 4295 07da A7F89232 		strh	r3, [r7, #658]	@ movhi
 4296 07de 1648     		ldr	r0, .L348+80
 4297 07e0 FFF7FEFF 		bl	UART_1_PutString
 4298 07e4 68E0     		b	.L256
 4299              	.L349:
 4300 07e6 00BF     		.align	2
 4301              	.L348:
 4302 07e8 00000000 		.word	g_tick_ms
 4303 07ec 54090000 		.word	.LC72
 4304 07f0 74090000 		.word	.LC73
 4305 07f4 B0090000 		.word	.LC74
ARM GAS  C:\Users\JENNEW~1\AppData\Local\Temp\ccFpxs5T.s 			page 98


 4306 07f8 E0090000 		.word	.LC75
 4307 07fc FC090000 		.word	.LC76
 4308 0800 180A0000 		.word	.LC77
 4309 0804 000080BE 		.word	-1098907648
 4310 0808 3C0A0000 		.word	.LC78
 4311 080c 540A0000 		.word	.LC79
 4312 0810 6C0A0000 		.word	.LC80
 4313 0814 E4380E3E 		.word	1041119460
 4314 0818 840A0000 		.word	.LC81
 4315 081c 9C0A0000 		.word	.LC82
 4316 0820 E4380EBE 		.word	-1106364188
 4317 0824 B00A0000 		.word	.LC83
 4318 0828 00000000 		.word	g_movi
 4319 082c C80A0000 		.word	.LC84
 4320 0830 E00A0000 		.word	.LC85
 4321 0834 F80A0000 		.word	.LC86
 4322 0838 100B0000 		.word	.LC87
 4323              	.L260:
 769:main.c        ****                 else if (ch=='s'||ch=='S') { req=1u;  UART_1_PutString("[QUERY] attr 1 sysstat\r\n"
 4324              		.loc 1 769 0 is_stmt 1
 4325 083c 97F86F32 		ldrb	r3, [r7, #623]	@ zero_extendqisi2
 4326 0840 732B     		cmp	r3, #115
 4327 0842 03D0     		beq	.L261
 4328              		.loc 1 769 0 is_stmt 0 discriminator 2
 4329 0844 97F86F32 		ldrb	r3, [r7, #623]	@ zero_extendqisi2
 4330 0848 532B     		cmp	r3, #83
 4331 084a 06D1     		bne	.L262
 4332              	.L261:
 4333              		.loc 1 769 0 discriminator 3
 4334 084c 0123     		movs	r3, #1
 4335 084e A7F89232 		strh	r3, [r7, #658]	@ movhi
 4336 0852 BE48     		ldr	r0, .L350
 4337 0854 FFF7FEFF 		bl	UART_1_PutString
 4338 0858 2EE0     		b	.L256
 4339              	.L262:
 770:main.c        ****                 else if (ch=='n'||ch=='N') { req=12u; UART_1_PutString("[QUERY] attr 12 mag\r\n"); 
 4340              		.loc 1 770 0 is_stmt 1
 4341 085a 97F86F32 		ldrb	r3, [r7, #623]	@ zero_extendqisi2
 4342 085e 6E2B     		cmp	r3, #110
 4343 0860 03D0     		beq	.L263
 4344              		.loc 1 770 0 is_stmt 0 discriminator 2
 4345 0862 97F86F32 		ldrb	r3, [r7, #623]	@ zero_extendqisi2
 4346 0866 4E2B     		cmp	r3, #78
 4347 0868 06D1     		bne	.L264
 4348              	.L263:
 4349              		.loc 1 770 0 discriminator 3
 4350 086a 0C23     		movs	r3, #12
 4351 086c A7F89232 		strh	r3, [r7, #658]	@ movhi
 4352 0870 B748     		ldr	r0, .L350+4
 4353 0872 FFF7FEFF 		bl	UART_1_PutString
 4354 0876 1FE0     		b	.L256
 4355              	.L264:
 771:main.c        ****                 else if (ch=='2')          { req=2u;  UART_1_PutString("[QUERY] attr 2 platform\r\n
 4356              		.loc 1 771 0 is_stmt 1
 4357 0878 97F86F32 		ldrb	r3, [r7, #623]	@ zero_extendqisi2
 4358 087c 322B     		cmp	r3, #50
 4359 087e 06D1     		bne	.L265
ARM GAS  C:\Users\JENNEW~1\AppData\Local\Temp\ccFpxs5T.s 			page 99


 4360              		.loc 1 771 0 is_stmt 0 discriminator 1
 4361 0880 0223     		movs	r3, #2
 4362 0882 A7F89232 		strh	r3, [r7, #658]	@ movhi
 4363 0886 B348     		ldr	r0, .L350+8
 4364 0888 FFF7FEFF 		bl	UART_1_PutString
 4365 088c 14E0     		b	.L256
 4366              	.L265:
 772:main.c        ****                 else if (ch=='4')          { req=48u; UART_1_PutString("[QUERY] attr 48 motor\r\n")
 4367              		.loc 1 772 0 is_stmt 1
 4368 088e 97F86F32 		ldrb	r3, [r7, #623]	@ zero_extendqisi2
 4369 0892 342B     		cmp	r3, #52
 4370 0894 06D1     		bne	.L266
 4371              		.loc 1 772 0 is_stmt 0 discriminator 1
 4372 0896 3023     		movs	r3, #48
 4373 0898 A7F89232 		strh	r3, [r7, #658]	@ movhi
 4374 089c AE48     		ldr	r0, .L350+12
 4375 089e FFF7FEFF 		bl	UART_1_PutString
 4376 08a2 09E0     		b	.L256
 4377              	.L266:
 773:main.c        ****                 else if (ch=='q'||ch=='Q') { print_quat_crosscheck(); }
 4378              		.loc 1 773 0 is_stmt 1
 4379 08a4 97F86F32 		ldrb	r3, [r7, #623]	@ zero_extendqisi2
 4380 08a8 712B     		cmp	r3, #113
 4381 08aa 03D0     		beq	.L267
 4382              		.loc 1 773 0 is_stmt 0 discriminator 2
 4383 08ac 97F86F32 		ldrb	r3, [r7, #623]	@ zero_extendqisi2
 4384 08b0 512B     		cmp	r3, #81
 4385 08b2 01D1     		bne	.L256
 4386              	.L267:
 4387              		.loc 1 773 0 discriminator 3
 4388 08b4 FFF7FEFF 		bl	print_quat_crosscheck
 4389              	.L256:
 774:main.c        ****                 if (req != 0u && g_movi.pending_attr == 0u) {
 4390              		.loc 1 774 0 is_stmt 1
 4391 08b8 B7F89232 		ldrh	r3, [r7, #658]
 4392 08bc 002B     		cmp	r3, #0
 4393 08be 00F01281 		beq	.L247
 4394              		.loc 1 774 0 is_stmt 0 discriminator 1
 4395 08c2 A64B     		ldr	r3, .L350+16
 4396 08c4 B3F83233 		ldrh	r3, [r3, #818]
 4397 08c8 002B     		cmp	r3, #0
 4398 08ca 40F00C81 		bne	.L247
 775:main.c        ****                     hamfly_request_attr(&g_movi, req);
 4399              		.loc 1 775 0 is_stmt 1
 4400 08ce B7F89232 		ldrh	r3, [r7, #658]
 4401 08d2 1946     		mov	r1, r3
 4402 08d4 A148     		ldr	r0, .L350+16
 4403 08d6 FFF7FEFF 		bl	hamfly_request_attr
 776:main.c        ****                     g_movi.pending_sent_ms = g_tick_ms;
 4404              		.loc 1 776 0
 4405 08da A14B     		ldr	r3, .L350+20
 4406 08dc 1B68     		ldr	r3, [r3]
 4407 08de 9F4A     		ldr	r2, .L350+16
 4408 08e0 C2F83433 		str	r3, [r2, #820]
 4409 08e4 FFE0     		b	.L247
 4410              	.L248:
 4411              	.LBE15:
ARM GAS  C:\Users\JENNEW~1\AppData\Local\Temp\ccFpxs5T.s 			page 100


 777:main.c        ****                 }
 778:main.c        ****             }
 779:main.c        ****         }
 780:main.c        **** 
 781:main.c        ****         /* ----------------------------------------------------------------
 782:main.c        ****          * NUDGE keys
 783:main.c        ****          * ---------------------------------------------------------------- */
 784:main.c        ****         else if (app_mode == APP_MODE_NUDGE) {
 4412              		.loc 1 784 0
 4413 08e6 07F29F13 		addw	r3, r7, #415
 4414 08ea 1B78     		ldrb	r3, [r3]	@ zero_extendqisi2
 4415 08ec 032B     		cmp	r3, #3
 4416 08ee 40F0FA80 		bne	.L247
 785:main.c        ****             if (ch=='t'||ch=='T') {
 4417              		.loc 1 785 0
 4418 08f2 97F86F32 		ldrb	r3, [r7, #623]	@ zero_extendqisi2
 4419 08f6 742B     		cmp	r3, #116
 4420 08f8 03D0     		beq	.L268
 4421              		.loc 1 785 0 is_stmt 0 discriminator 1
 4422 08fa 97F86F32 		ldrb	r3, [r7, #623]	@ zero_extendqisi2
 4423 08fe 542B     		cmp	r3, #84
 4424 0900 07D1     		bne	.L269
 4425              	.L268:
 786:main.c        ****                 app_mode = APP_MODE_STANDBY;
 4426              		.loc 1 786 0 is_stmt 1
 4427 0902 07F29F13 		addw	r3, r7, #415
 4428 0906 0022     		movs	r2, #0
 4429 0908 1A70     		strb	r2, [r3]
 787:main.c        ****                 UART_1_PutString("[NUDGE] -> STANDBY\r\n");
 4430              		.loc 1 787 0
 4431 090a 9648     		ldr	r0, .L350+24
 4432 090c FFF7FEFF 		bl	UART_1_PutString
 4433 0910 E9E0     		b	.L247
 4434              	.L269:
 788:main.c        ****             }
 789:main.c        ****             else if (ch=='x'||ch=='X') {
 4435              		.loc 1 789 0
 4436 0912 97F86F32 		ldrb	r3, [r7, #623]	@ zero_extendqisi2
 4437 0916 782B     		cmp	r3, #120
 4438 0918 03D0     		beq	.L270
 4439              		.loc 1 789 0 is_stmt 0 discriminator 1
 4440 091a 97F86F32 		ldrb	r3, [r7, #623]	@ zero_extendqisi2
 4441 091e 582B     		cmp	r3, #88
 4442 0920 0AD1     		bne	.L271
 4443              	.L270:
 790:main.c        ****                 do_kill(&app_mode,&joystick_active,&streaming_adc,&ctrl_mode);
 4444              		.loc 1 790 0 is_stmt 1
 4445 0922 07F5CF73 		add	r3, r7, #414
 4446 0926 07F5C372 		add	r2, r7, #390
 4447 092a 07F28711 		addw	r1, r7, #391
 4448 092e 07F29F10 		addw	r0, r7, #415
 4449 0932 FFF7FEFF 		bl	do_kill
 4450 0936 D6E0     		b	.L247
 4451              	.L271:
 4452              	.LBB16:
 791:main.c        ****             }
 792:main.c        ****             else {
ARM GAS  C:\Users\JENNEW~1\AppData\Local\Temp\ccFpxs5T.s 			page 101


 793:main.c        ****                 float dp = 0.0f, dt = 0.0f;
 4453              		.loc 1 793 0
 4454 0938 4FF00003 		mov	r3, #0
 4455 093c C7F88C32 		str	r3, [r7, #652]	@ float
 4456 0940 4FF00003 		mov	r3, #0
 4457 0944 C7F88832 		str	r3, [r7, #648]	@ float
 794:main.c        ****                 if      (ch=='j'||ch=='J') dp = -NUDGE_SMALL_DEG;
 4458              		.loc 1 794 0
 4459 0948 97F86F32 		ldrb	r3, [r7, #623]	@ zero_extendqisi2
 4460 094c 6A2B     		cmp	r3, #106
 4461 094e 03D0     		beq	.L272
 4462              		.loc 1 794 0 is_stmt 0 discriminator 2
 4463 0950 97F86F32 		ldrb	r3, [r7, #623]	@ zero_extendqisi2
 4464 0954 4A2B     		cmp	r3, #74
 4465 0956 03D1     		bne	.L273
 4466              	.L272:
 4467              		.loc 1 794 0 discriminator 3
 4468 0958 834B     		ldr	r3, .L350+28
 4469 095a C7F88C32 		str	r3, [r7, #652]	@ float
 4470 095e 56E0     		b	.L274
 4471              	.L273:
 795:main.c        ****                 else if (ch=='l'||ch=='L') dp =  NUDGE_SMALL_DEG;
 4472              		.loc 1 795 0 is_stmt 1
 4473 0960 97F86F32 		ldrb	r3, [r7, #623]	@ zero_extendqisi2
 4474 0964 6C2B     		cmp	r3, #108
 4475 0966 03D0     		beq	.L275
 4476              		.loc 1 795 0 is_stmt 0 discriminator 2
 4477 0968 97F86F32 		ldrb	r3, [r7, #623]	@ zero_extendqisi2
 4478 096c 4C2B     		cmp	r3, #76
 4479 096e 03D1     		bne	.L276
 4480              	.L275:
 4481              		.loc 1 795 0 discriminator 3
 4482 0970 7E4B     		ldr	r3, .L350+32
 4483 0972 C7F88C32 		str	r3, [r7, #652]	@ float
 4484 0976 4AE0     		b	.L274
 4485              	.L276:
 796:main.c        ****                 else if (ch=='i'||ch=='I') dt =  NUDGE_SMALL_DEG;
 4486              		.loc 1 796 0 is_stmt 1
 4487 0978 97F86F32 		ldrb	r3, [r7, #623]	@ zero_extendqisi2
 4488 097c 692B     		cmp	r3, #105
 4489 097e 03D0     		beq	.L277
 4490              		.loc 1 796 0 is_stmt 0 discriminator 2
 4491 0980 97F86F32 		ldrb	r3, [r7, #623]	@ zero_extendqisi2
 4492 0984 492B     		cmp	r3, #73
 4493 0986 03D1     		bne	.L278
 4494              	.L277:
 4495              		.loc 1 796 0 discriminator 3
 4496 0988 784B     		ldr	r3, .L350+32
 4497 098a C7F88832 		str	r3, [r7, #648]	@ float
 4498 098e 3EE0     		b	.L274
 4499              	.L278:
 797:main.c        ****                 else if (ch=='k'||ch=='K') dt = -NUDGE_SMALL_DEG;
 4500              		.loc 1 797 0 is_stmt 1
 4501 0990 97F86F32 		ldrb	r3, [r7, #623]	@ zero_extendqisi2
 4502 0994 6B2B     		cmp	r3, #107
 4503 0996 03D0     		beq	.L279
 4504              		.loc 1 797 0 is_stmt 0 discriminator 2
ARM GAS  C:\Users\JENNEW~1\AppData\Local\Temp\ccFpxs5T.s 			page 102


 4505 0998 97F86F32 		ldrb	r3, [r7, #623]	@ zero_extendqisi2
 4506 099c 4B2B     		cmp	r3, #75
 4507 099e 03D1     		bne	.L280
 4508              	.L279:
 4509              		.loc 1 797 0 discriminator 3
 4510 09a0 714B     		ldr	r3, .L350+28
 4511 09a2 C7F88832 		str	r3, [r7, #648]	@ float
 4512 09a6 32E0     		b	.L274
 4513              	.L280:
 798:main.c        ****                 else if (ch=='a'||ch=='A') dp = -NUDGE_LARGE_DEG;
 4514              		.loc 1 798 0 is_stmt 1
 4515 09a8 97F86F32 		ldrb	r3, [r7, #623]	@ zero_extendqisi2
 4516 09ac 612B     		cmp	r3, #97
 4517 09ae 03D0     		beq	.L281
 4518              		.loc 1 798 0 is_stmt 0 discriminator 2
 4519 09b0 97F86F32 		ldrb	r3, [r7, #623]	@ zero_extendqisi2
 4520 09b4 412B     		cmp	r3, #65
 4521 09b6 04D1     		bne	.L282
 4522              	.L281:
 4523              		.loc 1 798 0 discriminator 3
 4524 09b8 4FF03F43 		mov	r3, #-1090519040
 4525 09bc C7F88C32 		str	r3, [r7, #652]	@ float
 4526 09c0 25E0     		b	.L274
 4527              	.L282:
 799:main.c        ****                 else if (ch=='d'||ch=='D') dp =  NUDGE_LARGE_DEG;
 4528              		.loc 1 799 0 is_stmt 1
 4529 09c2 97F86F32 		ldrb	r3, [r7, #623]	@ zero_extendqisi2
 4530 09c6 642B     		cmp	r3, #100
 4531 09c8 03D0     		beq	.L283
 4532              		.loc 1 799 0 is_stmt 0 discriminator 2
 4533 09ca 97F86F32 		ldrb	r3, [r7, #623]	@ zero_extendqisi2
 4534 09ce 442B     		cmp	r3, #68
 4535 09d0 04D1     		bne	.L284
 4536              	.L283:
 4537              		.loc 1 799 0 discriminator 3
 4538 09d2 4FF07C53 		mov	r3, #1056964608
 4539 09d6 C7F88C32 		str	r3, [r7, #652]	@ float
 4540 09da 18E0     		b	.L274
 4541              	.L284:
 800:main.c        ****                 else if (ch=='w'||ch=='W') dt =  NUDGE_LARGE_DEG;
 4542              		.loc 1 800 0 is_stmt 1
 4543 09dc 97F86F32 		ldrb	r3, [r7, #623]	@ zero_extendqisi2
 4544 09e0 772B     		cmp	r3, #119
 4545 09e2 03D0     		beq	.L285
 4546              		.loc 1 800 0 is_stmt 0 discriminator 2
 4547 09e4 97F86F32 		ldrb	r3, [r7, #623]	@ zero_extendqisi2
 4548 09e8 572B     		cmp	r3, #87
 4549 09ea 04D1     		bne	.L286
 4550              	.L285:
 4551              		.loc 1 800 0 discriminator 3
 4552 09ec 4FF07C53 		mov	r3, #1056964608
 4553 09f0 C7F88832 		str	r3, [r7, #648]	@ float
 4554 09f4 0BE0     		b	.L274
 4555              	.L286:
 801:main.c        ****                 else if (ch=='s'||ch=='S') dt = -NUDGE_LARGE_DEG;
 4556              		.loc 1 801 0 is_stmt 1
 4557 09f6 97F86F32 		ldrb	r3, [r7, #623]	@ zero_extendqisi2
ARM GAS  C:\Users\JENNEW~1\AppData\Local\Temp\ccFpxs5T.s 			page 103


 4558 09fa 732B     		cmp	r3, #115
 4559 09fc 03D0     		beq	.L287
 4560              		.loc 1 801 0 is_stmt 0 discriminator 2
 4561 09fe 97F86F32 		ldrb	r3, [r7, #623]	@ zero_extendqisi2
 4562 0a02 532B     		cmp	r3, #83
 4563 0a04 03D1     		bne	.L274
 4564              	.L287:
 4565              		.loc 1 801 0 discriminator 3
 4566 0a06 4FF03F43 		mov	r3, #-1090519040
 4567 0a0a C7F88832 		str	r3, [r7, #648]	@ float
 4568              	.L274:
 802:main.c        **** 
 803:main.c        ****                 if (dp != 0.0f || dt != 0.0f) {
 4569              		.loc 1 803 0 is_stmt 1
 4570 0a0e 4FF00001 		mov	r1, #0
 4571 0a12 D7F88C02 		ldr	r0, [r7, #652]	@ float
 4572 0a16 FFF7FEFF 		bl	__aeabi_fcmpeq
 4573 0a1a 0346     		mov	r3, r0
 4574 0a1c 002B     		cmp	r3, #0
 4575 0a1e 08D0     		beq	.L288
 4576              		.loc 1 803 0 is_stmt 0 discriminator 1
 4577 0a20 4FF00001 		mov	r1, #0
 4578 0a24 D7F88802 		ldr	r0, [r7, #648]	@ float
 4579 0a28 FFF7FEFF 		bl	__aeabi_fcmpeq
 4580 0a2c 0346     		mov	r3, r0
 4581 0a2e 002B     		cmp	r3, #0
 4582 0a30 59D1     		bne	.L247
 4583              	.L288:
 804:main.c        ****                     nudge_pan_deg  = CLAMP(nudge_pan_deg  + dp,
 4584              		.loc 1 804 0 is_stmt 1
 4585 0a32 D7F88C12 		ldr	r1, [r7, #652]	@ float
 4586 0a36 D7F8A802 		ldr	r0, [r7, #680]	@ float
 4587 0a3a FFF7FEFF 		bl	__aeabi_fadd
 4588 0a3e 0346     		mov	r3, r0
 4589 0a40 4B49     		ldr	r1, .L350+36
 4590 0a42 1846     		mov	r0, r3
 4591 0a44 FFF7FEFF 		bl	__aeabi_fcmplt
 4592 0a48 0346     		mov	r3, r0
 4593 0a4a 002B     		cmp	r3, #0
 4594 0a4c 01D0     		beq	.L340
 4595              		.loc 1 804 0 is_stmt 0 discriminator 1
