ARM GAS  C:\Users\JENNEW~1\AppData\Local\Temp\cciWnisx.s 			page 1


   1              		.syntax unified
   2              		.cpu cortex-m3
   3              		.fpu softvfp
   4              		.eabi_attribute 20, 1
   5              		.eabi_attribute 21, 1
   6              		.eabi_attribute 23, 3
   7              		.eabi_attribute 24, 1
   8              		.eabi_attribute 25, 1
   9              		.eabi_attribute 26, 1
  10              		.eabi_attribute 30, 6
  11              		.eabi_attribute 34, 1
  12              		.eabi_attribute 18, 4
  13              		.thumb
  14              		.syntax unified
  15              		.file	"adc_balanced.c"
  16              		.text
  17              	.Ltext0:
  18              		.cfi_sections	.debug_frame
  19              		.bss
  20              	s_eoc_flag:
  21 0000 00       		.space	1
  22              	s_frame_ready:
  23 0001 00       		.space	1
  24              	s_ch_idx:
  25 0002 00       		.space	1
  26 0003 00       		.align	2
  27              	s_counts:
  28 0004 00000000 		.space	4
  29              		.section	.text.isr_adc_Handler,"ax",%progbits
  30              		.align	2
  31              		.global	isr_adc_Handler
  32              		.thumb
  33              		.thumb_func
  34              		.type	isr_adc_Handler, %function
  35              	isr_adc_Handler:
  36              	.LFB63:
  37              		.file 1 "adc_balanced.c"
   1:adc_balanced.c **** /* adc_balanced.c */
   2:adc_balanced.c **** 
   3:adc_balanced.c **** #include "adc_balanced.h"
   4:adc_balanced.c **** 
   5:adc_balanced.c **** /* ---- Internal state ---- */
   6:adc_balanced.c **** static volatile uint8 s_eoc_flag = 0;          /* set by ISR on EOC */
   7:adc_balanced.c **** static volatile uint8 s_frame_ready = 0;       /* set when we finish channel N_CH-1 */
   8:adc_balanced.c **** static volatile uint8 s_ch_idx = 0;            /* current mux channel index */
   9:adc_balanced.c **** static volatile int16 s_counts[N_CH];          /* latest counts per channel */
  10:adc_balanced.c **** 
  11:adc_balanced.c **** /* ISR prototype generated by PSoC Creator conventions */
  12:adc_balanced.c **** CY_ISR_PROTO(isr_adc_Handler);
  13:adc_balanced.c **** 
  14:adc_balanced.c **** /* ISR: fires on ADC end-of-conversion */
  15:adc_balanced.c **** CY_ISR(isr_adc_Handler)
  16:adc_balanced.c **** {
  38              		.loc 1 16 0
  39              		.cfi_startproc
  40              		@ args = 0, pretend = 0, frame = 0
  41              		@ frame_needed = 1, uses_anonymous_args = 0
ARM GAS  C:\Users\JENNEW~1\AppData\Local\Temp\cciWnisx.s 			page 2


  42 0000 80B5     		push	{r7, lr}
  43              		.cfi_def_cfa_offset 8
  44              		.cfi_offset 7, -8
  45              		.cfi_offset 14, -4
  46 0002 00AF     		add	r7, sp, #0
  47              		.cfi_def_cfa_register 7
  17:adc_balanced.c ****     /* Clear pending IRQ from ISR component */
  18:adc_balanced.c ****     isr_adc_ClearPending();
  48              		.loc 1 18 0
  49 0004 FFF7FEFF 		bl	isr_adc_ClearPending
  19:adc_balanced.c ****     s_eoc_flag = 1u;
  50              		.loc 1 19 0
  51 0008 024B     		ldr	r3, .L2
  52 000a 0122     		movs	r2, #1
  53 000c 1A70     		strb	r2, [r3]
  20:adc_balanced.c **** }
  54              		.loc 1 20 0
  55 000e 00BF     		nop
  56 0010 80BD     		pop	{r7, pc}
  57              	.L3:
  58 0012 00BF     		.align	2
  59              	.L2:
  60 0014 00000000 		.word	s_eoc_flag
  61              		.cfi_endproc
  62              	.LFE63:
  63              		.size	isr_adc_Handler, .-isr_adc_Handler
  64              		.section	.text.adc_balanced_init,"ax",%progbits
  65              		.align	2
  66              		.global	adc_balanced_init
  67              		.thumb
  68              		.thumb_func
  69              		.type	adc_balanced_init, %function
  70              	adc_balanced_init:
  71              	.LFB64:
  21:adc_balanced.c **** 
  22:adc_balanced.c **** void adc_balanced_init(void)
  23:adc_balanced.c **** {
  72              		.loc 1 23 0
  73              		.cfi_startproc
  74              		@ args = 0, pretend = 0, frame = 8
  75              		@ frame_needed = 1, uses_anonymous_args = 0
  76 0000 80B5     		push	{r7, lr}
  77              		.cfi_def_cfa_offset 8
  78              		.cfi_offset 7, -8
  79              		.cfi_offset 14, -4
  80 0002 82B0     		sub	sp, sp, #8
  81              		.cfi_def_cfa_offset 16
  82 0004 00AF     		add	r7, sp, #0
  83              		.cfi_def_cfa_register 7
  24:adc_balanced.c ****     CyGlobalIntEnable;
  84              		.loc 1 24 0
  85              		.syntax unified
  86              	@ 24 "adc_balanced.c" 1
  87 0006 62B6     		CPSIE   i
  88              	@ 0 "" 2
  25:adc_balanced.c **** 
  26:adc_balanced.c ****     /* Start hardware blocks */
ARM GAS  C:\Users\JENNEW~1\AppData\Local\Temp\cciWnisx.s 			page 3


  27:adc_balanced.c ****     ADC_DelSig_1_Start();
  89              		.loc 1 27 0
  90              		.thumb
  91              		.syntax unified
  92 0008 FFF7FEFF 		bl	ADC_DelSig_1_Start
  28:adc_balanced.c ****     AMux_1_Start();
  93              		.loc 1 28 0
  94 000c FFF7FEFF 		bl	AMux_1_Start
  29:adc_balanced.c **** 
  30:adc_balanced.c ****     /* Hook ISR */
  31:adc_balanced.c ****     isr_adc_StartEx(isr_adc_Handler);
  95              		.loc 1 31 0
  96 0010 1148     		ldr	r0, .L7
  97 0012 FFF7FEFF 		bl	isr_adc_StartEx
  32:adc_balanced.c **** 
  33:adc_balanced.c ****     /* Init state */
  34:adc_balanced.c ****     s_ch_idx = 0u;
  98              		.loc 1 34 0
  99 0016 114B     		ldr	r3, .L7+4
 100 0018 0022     		movs	r2, #0
 101 001a 1A70     		strb	r2, [r3]
  35:adc_balanced.c ****     s_eoc_flag = 0u;
 102              		.loc 1 35 0
 103 001c 104B     		ldr	r3, .L7+8
 104 001e 0022     		movs	r2, #0
 105 0020 1A70     		strb	r2, [r3]
  36:adc_balanced.c ****     s_frame_ready = 0u;
 106              		.loc 1 36 0
 107 0022 104B     		ldr	r3, .L7+12
 108 0024 0022     		movs	r2, #0
 109 0026 1A70     		strb	r2, [r3]
 110              	.LBB2:
  37:adc_balanced.c **** 
  38:adc_balanced.c ****     for (uint8 i = 0u; i < (uint8)N_CH; i++)
 111              		.loc 1 38 0
 112 0028 0023     		movs	r3, #0
 113 002a FB71     		strb	r3, [r7, #7]
 114 002c 07E0     		b	.L5
 115              	.L6:
  39:adc_balanced.c ****         s_counts[i] = 0;
 116              		.loc 1 39 0 discriminator 3
 117 002e FB79     		ldrb	r3, [r7, #7]	@ zero_extendqisi2
 118 0030 0D4A     		ldr	r2, .L7+16
 119 0032 0021     		movs	r1, #0
 120 0034 22F81310 		strh	r1, [r2, r3, lsl #1]	@ movhi
  38:adc_balanced.c ****         s_counts[i] = 0;
 121              		.loc 1 38 0 discriminator 3
 122 0038 FB79     		ldrb	r3, [r7, #7]	@ zero_extendqisi2
 123 003a 0133     		adds	r3, r3, #1
 124 003c FB71     		strb	r3, [r7, #7]
 125              	.L5:
  38:adc_balanced.c ****         s_counts[i] = 0;
 126              		.loc 1 38 0 is_stmt 0 discriminator 1
 127 003e FB79     		ldrb	r3, [r7, #7]	@ zero_extendqisi2
 128 0040 012B     		cmp	r3, #1
 129 0042 F4D9     		bls	.L6
 130              	.LBE2:
ARM GAS  C:\Users\JENNEW~1\AppData\Local\Temp\cciWnisx.s 			page 4


  40:adc_balanced.c **** 
  41:adc_balanced.c ****     /* Start on channel 0 */
  42:adc_balanced.c ****     AMux_1_Select(0u);
 131              		.loc 1 42 0 is_stmt 1
 132 0044 0020     		movs	r0, #0
 133 0046 FFF7FEFF 		bl	AMux_1_FastSelect
  43:adc_balanced.c **** 
  44:adc_balanced.c ****     /* Start conversions */
  45:adc_balanced.c ****     ADC_DelSig_1_StartConvert();
 134              		.loc 1 45 0
 135 004a FFF7FEFF 		bl	ADC_DelSig_1_StartConvert
  46:adc_balanced.c **** }
 136              		.loc 1 46 0
 137 004e 00BF     		nop
 138 0050 0837     		adds	r7, r7, #8
 139              		.cfi_def_cfa_offset 8
 140 0052 BD46     		mov	sp, r7
 141              		.cfi_def_cfa_register 13
 142              		@ sp needed
 143 0054 80BD     		pop	{r7, pc}
 144              	.L8:
 145 0056 00BF     		.align	2
 146              	.L7:
 147 0058 00000000 		.word	isr_adc_Handler
 148 005c 02000000 		.word	s_ch_idx
 149 0060 00000000 		.word	s_eoc_flag
 150 0064 01000000 		.word	s_frame_ready
 151 0068 04000000 		.word	s_counts
 152              		.cfi_endproc
 153              	.LFE64:
 154              		.size	adc_balanced_init, .-adc_balanced_init
 155              		.section	.text.adc_balanced_advance_on_eoc,"ax",%progbits
 156              		.align	2
 157              		.thumb
 158              		.thumb_func
 159              		.type	adc_balanced_advance_on_eoc, %function
 160              	adc_balanced_advance_on_eoc:
 161              	.LFB65:
  47:adc_balanced.c **** 
  48:adc_balanced.c **** static void adc_balanced_advance_on_eoc(void)
  49:adc_balanced.c **** {
 162              		.loc 1 49 0
 163              		.cfi_startproc
 164              		@ args = 0, pretend = 0, frame = 0
 165              		@ frame_needed = 1, uses_anonymous_args = 0
 166 0000 98B5     		push	{r3, r4, r7, lr}
 167              		.cfi_def_cfa_offset 16
 168              		.cfi_offset 3, -16
 169              		.cfi_offset 4, -12
 170              		.cfi_offset 7, -8
 171              		.cfi_offset 14, -4
 172 0002 00AF     		add	r7, sp, #0
 173              		.cfi_def_cfa_register 7
  50:adc_balanced.c ****     /* Stop conversion before switching mux (cleanest/safest) */
  51:adc_balanced.c ****     ADC_DelSig_1_StopConvert();
 174              		.loc 1 51 0
 175 0004 FFF7FEFF 		bl	ADC_DelSig_1_StopConvert
ARM GAS  C:\Users\JENNEW~1\AppData\Local\Temp\cciWnisx.s 			page 5


  52:adc_balanced.c **** 
  53:adc_balanced.c ****     /* Read result for current channel */
  54:adc_balanced.c ****     s_counts[s_ch_idx] = ADC_DelSig_1_GetResult16();
 176              		.loc 1 54 0
 177 0008 134B     		ldr	r3, .L12
 178 000a 1B78     		ldrb	r3, [r3]
 179 000c DBB2     		uxtb	r3, r3
 180 000e 1C46     		mov	r4, r3
 181 0010 FFF7FEFF 		bl	ADC_DelSig_1_GetResult16
 182 0014 0346     		mov	r3, r0
 183 0016 1A46     		mov	r2, r3
 184 0018 104B     		ldr	r3, .L12+4
 185 001a 23F81420 		strh	r2, [r3, r4, lsl #1]	@ movhi
  55:adc_balanced.c **** 
  56:adc_balanced.c ****     /* If we just captured the last channel, mark a full frame ready */
  57:adc_balanced.c ****     if (s_ch_idx == (uint8)(N_CH - 1u))
 186              		.loc 1 57 0
 187 001e 0E4B     		ldr	r3, .L12
 188 0020 1B78     		ldrb	r3, [r3]
 189 0022 DBB2     		uxtb	r3, r3
 190 0024 012B     		cmp	r3, #1
 191 0026 06D1     		bne	.L10
  58:adc_balanced.c ****     {
  59:adc_balanced.c ****         s_frame_ready = 1u;
 192              		.loc 1 59 0
 193 0028 0D4B     		ldr	r3, .L12+8
 194 002a 0122     		movs	r2, #1
 195 002c 1A70     		strb	r2, [r3]
  60:adc_balanced.c ****         s_ch_idx = 0u;
 196              		.loc 1 60 0
 197 002e 0A4B     		ldr	r3, .L12
 198 0030 0022     		movs	r2, #0
 199 0032 1A70     		strb	r2, [r3]
 200 0034 06E0     		b	.L11
 201              	.L10:
  61:adc_balanced.c ****     }
  62:adc_balanced.c ****     else
  63:adc_balanced.c ****     {
  64:adc_balanced.c ****         s_ch_idx++;
 202              		.loc 1 64 0
 203 0036 084B     		ldr	r3, .L12
 204 0038 1B78     		ldrb	r3, [r3]
 205 003a DBB2     		uxtb	r3, r3
 206 003c 0133     		adds	r3, r3, #1
 207 003e DAB2     		uxtb	r2, r3
 208 0040 054B     		ldr	r3, .L12
 209 0042 1A70     		strb	r2, [r3]
 210              	.L11:
  65:adc_balanced.c ****     }
  66:adc_balanced.c **** 
  67:adc_balanced.c ****     /* Switch mux to next channel */
  68:adc_balanced.c ****     AMux_1_Select(s_ch_idx);
 211              		.loc 1 68 0
 212 0044 044B     		ldr	r3, .L12
 213 0046 1B78     		ldrb	r3, [r3]
 214 0048 DBB2     		uxtb	r3, r3
 215 004a 1846     		mov	r0, r3
ARM GAS  C:\Users\JENNEW~1\AppData\Local\Temp\cciWnisx.s 			page 6


 216 004c FFF7FEFF 		bl	AMux_1_FastSelect
  69:adc_balanced.c **** 
  70:adc_balanced.c ****     /* (Optional) small settle; usually not required with DelSig, but available:
  71:adc_balanced.c ****      * CyDelayUs(5);
  72:adc_balanced.c ****      */
  73:adc_balanced.c **** 
  74:adc_balanced.c ****     /* Restart conversion */
  75:adc_balanced.c ****     ADC_DelSig_1_StartConvert();
 217              		.loc 1 75 0
 218 0050 FFF7FEFF 		bl	ADC_DelSig_1_StartConvert
  76:adc_balanced.c **** }
 219              		.loc 1 76 0
 220 0054 00BF     		nop
 221 0056 98BD     		pop	{r3, r4, r7, pc}
 222              	.L13:
 223              		.align	2
 224              	.L12:
 225 0058 02000000 		.word	s_ch_idx
 226 005c 04000000 		.word	s_counts
 227 0060 01000000 		.word	s_frame_ready
 228              		.cfi_endproc
 229              	.LFE65:
 230              		.size	adc_balanced_advance_on_eoc, .-adc_balanced_advance_on_eoc
 231              		.section	.text.adc_balanced_poll_frame,"ax",%progbits
 232              		.align	2
 233              		.global	adc_balanced_poll_frame
 234              		.thumb
 235              		.thumb_func
 236              		.type	adc_balanced_poll_frame, %function
 237              	adc_balanced_poll_frame:
 238              	.LFB66:
  77:adc_balanced.c **** 
  78:adc_balanced.c **** uint8 adc_balanced_poll_frame(int16 out_counts[N_CH])
  79:adc_balanced.c **** {
 239              		.loc 1 79 0
 240              		.cfi_startproc
 241              		@ args = 0, pretend = 0, frame = 16
 242              		@ frame_needed = 1, uses_anonymous_args = 0
 243 0000 80B5     		push	{r7, lr}
 244              		.cfi_def_cfa_offset 8
 245              		.cfi_offset 7, -8
 246              		.cfi_offset 14, -4
 247 0002 84B0     		sub	sp, sp, #16
 248              		.cfi_def_cfa_offset 24
 249 0004 00AF     		add	r7, sp, #0
 250              		.cfi_def_cfa_register 7
 251 0006 7860     		str	r0, [r7, #4]
  80:adc_balanced.c ****     /* Consume EOC events (could be 0 or 1 per call; loop defensively) */
  81:adc_balanced.c ****     if (s_eoc_flag)
 252              		.loc 1 81 0
 253 0008 154B     		ldr	r3, .L20
 254 000a 1B78     		ldrb	r3, [r3]
 255 000c DBB2     		uxtb	r3, r3
 256 000e 002B     		cmp	r3, #0
 257 0010 04D0     		beq	.L15
  82:adc_balanced.c ****     {
  83:adc_balanced.c ****         s_eoc_flag = 0u;
ARM GAS  C:\Users\JENNEW~1\AppData\Local\Temp\cciWnisx.s 			page 7


 258              		.loc 1 83 0
 259 0012 134B     		ldr	r3, .L20
 260 0014 0022     		movs	r2, #0
 261 0016 1A70     		strb	r2, [r3]
  84:adc_balanced.c ****         adc_balanced_advance_on_eoc();
 262              		.loc 1 84 0
 263 0018 FFF7FEFF 		bl	adc_balanced_advance_on_eoc
 264              	.L15:
  85:adc_balanced.c ****     }
  86:adc_balanced.c **** 
  87:adc_balanced.c ****     if (s_frame_ready)
 265              		.loc 1 87 0
 266 001c 114B     		ldr	r3, .L20+4
 267 001e 1B78     		ldrb	r3, [r3]
 268 0020 DBB2     		uxtb	r3, r3
 269 0022 002B     		cmp	r3, #0
 270 0024 17D0     		beq	.L16
  88:adc_balanced.c ****     {
  89:adc_balanced.c ****         s_frame_ready = 0u;
 271              		.loc 1 89 0
 272 0026 0F4B     		ldr	r3, .L20+4
 273 0028 0022     		movs	r2, #0
 274 002a 1A70     		strb	r2, [r3]
 275              	.LBB3:
  90:adc_balanced.c **** 
  91:adc_balanced.c ****         for (uint8 i = 0u; i < (uint8)N_CH; i++)
 276              		.loc 1 91 0
 277 002c 0023     		movs	r3, #0
 278 002e FB73     		strb	r3, [r7, #15]
 279 0030 0CE0     		b	.L17
 280              	.L18:
  92:adc_balanced.c ****             out_counts[i] = s_counts[i];
 281              		.loc 1 92 0 discriminator 3
 282 0032 FB7B     		ldrb	r3, [r7, #15]	@ zero_extendqisi2
 283 0034 5B00     		lsls	r3, r3, #1
 284 0036 7A68     		ldr	r2, [r7, #4]
 285 0038 1344     		add	r3, r3, r2
 286 003a FA7B     		ldrb	r2, [r7, #15]	@ zero_extendqisi2
 287 003c 0A49     		ldr	r1, .L20+8
 288 003e 31F81220 		ldrh	r2, [r1, r2, lsl #1]	@ movhi
 289 0042 12B2     		sxth	r2, r2
 290 0044 1A80     		strh	r2, [r3]	@ movhi
  91:adc_balanced.c ****             out_counts[i] = s_counts[i];
 291              		.loc 1 91 0 discriminator 3
 292 0046 FB7B     		ldrb	r3, [r7, #15]	@ zero_extendqisi2
 293 0048 0133     		adds	r3, r3, #1
 294 004a FB73     		strb	r3, [r7, #15]
 295              	.L17:
  91:adc_balanced.c ****             out_counts[i] = s_counts[i];
 296              		.loc 1 91 0 is_stmt 0 discriminator 1
 297 004c FB7B     		ldrb	r3, [r7, #15]	@ zero_extendqisi2
 298 004e 012B     		cmp	r3, #1
 299 0050 EFD9     		bls	.L18
 300              	.LBE3:
  93:adc_balanced.c **** 
  94:adc_balanced.c ****         return 1u;
 301              		.loc 1 94 0 is_stmt 1
ARM GAS  C:\Users\JENNEW~1\AppData\Local\Temp\cciWnisx.s 			page 8


 302 0052 0123     		movs	r3, #1
 303 0054 00E0     		b	.L19
 304              	.L16:
  95:adc_balanced.c ****     }
  96:adc_balanced.c **** 
  97:adc_balanced.c ****     return 0u;
 305              		.loc 1 97 0
 306 0056 0023     		movs	r3, #0
 307              	.L19:
  98:adc_balanced.c **** }
 308              		.loc 1 98 0
 309 0058 1846     		mov	r0, r3
 310 005a 1037     		adds	r7, r7, #16
 311              		.cfi_def_cfa_offset 8
 312 005c BD46     		mov	sp, r7
 313              		.cfi_def_cfa_register 13
 314              		@ sp needed
 315 005e 80BD     		pop	{r7, pc}
 316              	.L21:
 317              		.align	2
 318              	.L20:
 319 0060 00000000 		.word	s_eoc_flag
 320 0064 01000000 		.word	s_frame_ready
 321 0068 04000000 		.word	s_counts
 322              		.cfi_endproc
 323              	.LFE66:
 324              		.size	adc_balanced_poll_frame, .-adc_balanced_poll_frame
 325              		.section	.text.adc_balanced_get_latest,"ax",%progbits
 326              		.align	2
 327              		.global	adc_balanced_get_latest
 328              		.thumb
 329              		.thumb_func
 330              		.type	adc_balanced_get_latest, %function
 331              	adc_balanced_get_latest:
 332              	.LFB67:
  99:adc_balanced.c **** 
 100:adc_balanced.c **** void adc_balanced_get_latest(int16 out_counts[N_CH])
 101:adc_balanced.c **** {
 333              		.loc 1 101 0
 334              		.cfi_startproc
 335              		@ args = 0, pretend = 0, frame = 16
 336              		@ frame_needed = 1, uses_anonymous_args = 0
 337              		@ link register save eliminated.
 338 0000 80B4     		push	{r7}
 339              		.cfi_def_cfa_offset 4
 340              		.cfi_offset 7, -4
 341 0002 85B0     		sub	sp, sp, #20
 342              		.cfi_def_cfa_offset 24
 343 0004 00AF     		add	r7, sp, #0
 344              		.cfi_def_cfa_register 7
 345 0006 7860     		str	r0, [r7, #4]
 346              	.LBB4:
 102:adc_balanced.c ****     for (uint8 i = 0u; i < (uint8)N_CH; i++)
 347              		.loc 1 102 0
 348 0008 0023     		movs	r3, #0
 349 000a FB73     		strb	r3, [r7, #15]
 350 000c 0CE0     		b	.L23
ARM GAS  C:\Users\JENNEW~1\AppData\Local\Temp\cciWnisx.s 			page 9


 351              	.L24:
 103:adc_balanced.c ****         out_counts[i] = s_counts[i];
 352              		.loc 1 103 0 discriminator 3
 353 000e FB7B     		ldrb	r3, [r7, #15]	@ zero_extendqisi2
 354 0010 5B00     		lsls	r3, r3, #1
 355 0012 7A68     		ldr	r2, [r7, #4]
 356 0014 1344     		add	r3, r3, r2
 357 0016 FA7B     		ldrb	r2, [r7, #15]	@ zero_extendqisi2
 358 0018 0749     		ldr	r1, .L25
 359 001a 31F81220 		ldrh	r2, [r1, r2, lsl #1]	@ movhi
 360 001e 12B2     		sxth	r2, r2
 361 0020 1A80     		strh	r2, [r3]	@ movhi
 102:adc_balanced.c ****     for (uint8 i = 0u; i < (uint8)N_CH; i++)
 362              		.loc 1 102 0 discriminator 3
 363 0022 FB7B     		ldrb	r3, [r7, #15]	@ zero_extendqisi2
 364 0024 0133     		adds	r3, r3, #1
 365 0026 FB73     		strb	r3, [r7, #15]
 366              	.L23:
 102:adc_balanced.c ****     for (uint8 i = 0u; i < (uint8)N_CH; i++)
 367              		.loc 1 102 0 is_stmt 0 discriminator 1
 368 0028 FB7B     		ldrb	r3, [r7, #15]	@ zero_extendqisi2
 369 002a 012B     		cmp	r3, #1
 370 002c EFD9     		bls	.L24
 371              	.LBE4:
 104:adc_balanced.c **** }
 372              		.loc 1 104 0 is_stmt 1
 373 002e 00BF     		nop
 374 0030 1437     		adds	r7, r7, #20
 375              		.cfi_def_cfa_offset 4
 376 0032 BD46     		mov	sp, r7
 377              		.cfi_def_cfa_register 13
 378              		@ sp needed
 379 0034 80BC     		pop	{r7}
 380              		.cfi_restore 7
 381              		.cfi_def_cfa_offset 0
 382 0036 7047     		bx	lr
 383              	.L26:
 384              		.align	2
 385              	.L25:
 386 0038 04000000 		.word	s_counts
 387              		.cfi_endproc
 388              	.LFE67:
 389              		.size	adc_balanced_get_latest, .-adc_balanced_get_latest
 390              		.section	.text.adc_balanced_counts_to_mv,"ax",%progbits
 391              		.align	2
 392              		.global	adc_balanced_counts_to_mv
 393              		.thumb
 394              		.thumb_func
 395              		.type	adc_balanced_counts_to_mv, %function
 396              	adc_balanced_counts_to_mv:
 397              	.LFB68:
 105:adc_balanced.c **** 
 106:adc_balanced.c **** int32 adc_balanced_counts_to_mv(int16 counts)
 107:adc_balanced.c **** {
 398              		.loc 1 107 0
 399              		.cfi_startproc
 400              		@ args = 0, pretend = 0, frame = 8
ARM GAS  C:\Users\JENNEW~1\AppData\Local\Temp\cciWnisx.s 			page 10


 401              		@ frame_needed = 1, uses_anonymous_args = 0
 402 0000 80B5     		push	{r7, lr}
 403              		.cfi_def_cfa_offset 8
 404              		.cfi_offset 7, -8
 405              		.cfi_offset 14, -4
 406 0002 82B0     		sub	sp, sp, #8
 407              		.cfi_def_cfa_offset 16
 408 0004 00AF     		add	r7, sp, #0
 409              		.cfi_def_cfa_register 7
 410 0006 0346     		mov	r3, r0
 411 0008 FB80     		strh	r3, [r7, #6]	@ movhi
 108:adc_balanced.c ****     /* ADC_DelSig_1_CountsTo_mVolts returns int32 in PSoC Creator */
 109:adc_balanced.c ****     return (int32)ADC_DelSig_1_CountsTo_mVolts(counts);
 412              		.loc 1 109 0
 413 000a B7F90630 		ldrsh	r3, [r7, #6]
 414 000e 1846     		mov	r0, r3
 415 0010 FFF7FEFF 		bl	ADC_DelSig_1_CountsTo_mVolts
 416 0014 0346     		mov	r3, r0
 110:adc_balanced.c **** }
 417              		.loc 1 110 0
 418 0016 1846     		mov	r0, r3
 419 0018 0837     		adds	r7, r7, #8
 420              		.cfi_def_cfa_offset 8
 421 001a BD46     		mov	sp, r7
 422              		.cfi_def_cfa_register 13
 423              		@ sp needed
 424 001c 80BD     		pop	{r7, pc}
 425              		.cfi_endproc
 426              	.LFE68:
 427              		.size	adc_balanced_counts_to_mv, .-adc_balanced_counts_to_mv
 428 001e 00BF     		.section	.text.adc_balanced_clear_frame_flag,"ax",%progbits
 429              		.align	2
 430              		.global	adc_balanced_clear_frame_flag
 431              		.thumb
 432              		.thumb_func
 433              		.type	adc_balanced_clear_frame_flag, %function
 434              	adc_balanced_clear_frame_flag:
 435              	.LFB69:
 111:adc_balanced.c **** 
 112:adc_balanced.c **** void adc_balanced_clear_frame_flag(void)
 113:adc_balanced.c **** {
 436              		.loc 1 113 0
 437              		.cfi_startproc
 438              		@ args = 0, pretend = 0, frame = 0
 439              		@ frame_needed = 1, uses_anonymous_args = 0
 440              		@ link register save eliminated.
 441 0000 80B4     		push	{r7}
 442              		.cfi_def_cfa_offset 4
 443              		.cfi_offset 7, -4
 444 0002 00AF     		add	r7, sp, #0
 445              		.cfi_def_cfa_register 7
 114:adc_balanced.c ****     s_frame_ready = 0u;
 446              		.loc 1 114 0
 447 0004 034B     		ldr	r3, .L30
 448 0006 0022     		movs	r2, #0
 449 0008 1A70     		strb	r2, [r3]
 115:adc_balanced.c **** }
ARM GAS  C:\Users\JENNEW~1\AppData\Local\Temp\cciWnisx.s 			page 11


 450              		.loc 1 115 0
 451 000a 00BF     		nop
 452 000c BD46     		mov	sp, r7
 453              		.cfi_def_cfa_register 13
 454              		@ sp needed
 455 000e 80BC     		pop	{r7}
 456              		.cfi_restore 7
 457              		.cfi_def_cfa_offset 0
 458 0010 7047     		bx	lr
 459              	.L31:
 460 0012 00BF     		.align	2
 461              	.L30:
 462 0014 01000000 		.word	s_frame_ready
 463              		.cfi_endproc
 464              	.LFE69:
 465              		.size	adc_balanced_clear_frame_flag, .-adc_balanced_clear_frame_flag
 466              		.text
 467              	.Letext0:
 468              		.file 2 "c:\\program files (x86)\\cypress\\psoc creator\\4.4\\psoc creator\\import\\gnu\\arm\\5.4.
 469              		.file 3 "c:\\program files (x86)\\cypress\\psoc creator\\4.4\\psoc creator\\import\\gnu\\arm\\5.4.
 470              		.file 4 "Generated_Source\\PSoC5/cytypes.h"
 471              		.file 5 "Generated_Source\\PSoC5/core_cm3.h"