ARM GAS  C:\Users\JENNEW~1\AppData\Local\Temp\ccIqmgX7.s 			page 1


   1              		.syntax unified
   2              		.cpu cortex-m3
   3              		.fpu softvfp
   4              		.eabi_attribute 20, 1
   5              		.eabi_attribute 21, 1
   6              		.eabi_attribute 23, 3
   7              		.eabi_attribute 24, 1
   8              		.eabi_attribute 25, 1
   9              		.eabi_attribute 26, 1
  10              		.eabi_attribute 30, 6
  11              		.eabi_attribute 34, 1
  12              		.eabi_attribute 18, 4
  13              		.thumb
  14              		.syntax unified
  15              		.file	"main.c"
  16              		.text
  17              	.Ltext0:
  18              		.cfi_sections	.debug_frame
  19              		.global	__aeabi_fcmplt
  20              		.global	__aeabi_f2iz
  21              		.global	__aeabi_i2f
  22              		.global	__aeabi_fsub
  23              		.global	__aeabi_fmul
  24              		.section	.text.decomp,"ax",%progbits
  25              		.align	2
  26              		.thumb
  27              		.thumb_func
  28              		.type	decomp, %function
  29              	decomp:
  30              	.LFB64:
  31              		.file 1 "main.c"
   1:main.c        **** /* main.c
   2:main.c        ****  *
   3:main.c        ****  * Uses:
   4:main.c        ****  *  - adc_balanced.c/.h  : round-robin ADC sampling over AMux (N_CH channels)
   5:main.c        ****  *  - joystick.c/.h      : calibration + mapping (deadband, inversion, scaling)
   6:main.c        ****  *  - movi_comm.c/.h     : MōVI Pro QX protocol HAL
   7:main.c        ****  *
   8:main.c        ****  * CLI:
   9:main.c        ****  *   'j' : toggle joystick active (feeds pan/tilt commands)
  10:main.c        ****  *   'm' : toggle movi comms active (sends QX packets)
  11:main.c        ****  *   'l' : cycle control mode DEFER -> RATE -> ABSOLUTE -> DEFER (both axes)
  12:main.c        ****  *   'k' : kill motion + reset mode to DEFER, keep printing
  13:main.c        ****  *   'x' : kill motion + reset mode to DEFER + stop diagnostic printing
  14:main.c        ****  *   's' : toggle raw ADC stream (debug)
  15:main.c        ****  *   'c' : calibration advance
  16:main.c        ****  */
  17:main.c        **** 
  18:main.c        **** #include <project.h>
  19:main.c        **** #include <stdio.h>
  20:main.c        **** #include <math.h>
  21:main.c        **** 
  22:main.c        **** #include "adc_balanced.h"
  23:main.c        **** #include "joystick.h"
  24:main.c        **** #include "movi_comm.h"
  25:main.c        **** 
  26:main.c        **** /* =========================================================================
ARM GAS  C:\Users\JENNEW~1\AppData\Local\Temp\ccIqmgX7.s 			page 2


  27:main.c        ****  * Constants
  28:main.c        ****  * ========================================================================= */
  29:main.c        **** #define TRANSMIT_BUFFER_SIZE  160u   /* enough for longest diagnostic line  */
  30:main.c        **** #define MOVI_TX_PERIOD_MS     100u   /* 10 Hz — safe over BLE bridge        */
  31:main.c        **** #define DIAG_PERIOD_MS        1000u  /* 1 Hz diagnostic print               */
  32:main.c        **** 
  33:main.c        **** #define FALSE  0
  34:main.c        **** #define TRUE   1
  35:main.c        **** 
  36:main.c        **** /* Channel assignments */
  37:main.c        **** #define CH_X (0u)   /* pan  */
  38:main.c        **** #define CH_Y (1u)   /* tilt */
  39:main.c        **** 
  40:main.c        **** /* =========================================================================
  41:main.c        ****  * Helpers — signed integer decomposition for sprintf
  42:main.c        ****  * Produces sign char, absolute integer part, absolute fractional part.
  43:main.c        ****  * e.g. -0.42 -> sign='-', i=0, f=42
  44:main.c        ****  *      +1.75 -> sign=' ', i=1, f=75
  45:main.c        ****  * ========================================================================= */
  46:main.c        **** static void decomp(float val, int16* i_out, int16* f_out, char* sign_out)
  47:main.c        **** {
  32              		.loc 1 47 0
  33              		.cfi_startproc
  34              		@ args = 0, pretend = 0, frame = 16
  35              		@ frame_needed = 1, uses_anonymous_args = 0
  36 0000 80B5     		push	{r7, lr}
  37              		.cfi_def_cfa_offset 8
  38              		.cfi_offset 7, -8
  39              		.cfi_offset 14, -4
  40 0002 84B0     		sub	sp, sp, #16
  41              		.cfi_def_cfa_offset 24
  42 0004 00AF     		add	r7, sp, #0
  43              		.cfi_def_cfa_register 7
  44 0006 F860     		str	r0, [r7, #12]	@ float
  45 0008 B960     		str	r1, [r7, #8]
  46 000a 7A60     		str	r2, [r7, #4]
  47 000c 3B60     		str	r3, [r7]
  48:main.c        ****     *sign_out = (val < 0.0f) ? '-' : ' ';
  48              		.loc 1 48 0
  49 000e 4FF00001 		mov	r1, #0
  50 0012 F868     		ldr	r0, [r7, #12]	@ float
  51 0014 FFF7FEFF 		bl	__aeabi_fcmplt
  52 0018 0346     		mov	r3, r0
  53 001a 002B     		cmp	r3, #0
  54 001c 01D0     		beq	.L10
  55              		.loc 1 48 0 is_stmt 0 discriminator 1
  56 001e 2D22     		movs	r2, #45
  57 0020 00E0     		b	.L4
  58              	.L10:
  59              		.loc 1 48 0 discriminator 2
  60 0022 2022     		movs	r2, #32
  61              	.L4:
  62              		.loc 1 48 0 discriminator 4
  63 0024 3B68     		ldr	r3, [r7]
  64 0026 1A70     		strb	r2, [r3]
  49:main.c        ****     if (val < 0.0f) val = -val;
  65              		.loc 1 49 0 is_stmt 1 discriminator 4
ARM GAS  C:\Users\JENNEW~1\AppData\Local\Temp\ccIqmgX7.s 			page 3


  66 0028 4FF00001 		mov	r1, #0
  67 002c F868     		ldr	r0, [r7, #12]	@ float
  68 002e FFF7FEFF 		bl	__aeabi_fcmplt
  69 0032 0346     		mov	r3, r0
  70 0034 002B     		cmp	r3, #0
  71 0036 03D0     		beq	.L5
  72              		.loc 1 49 0 is_stmt 0 discriminator 1
  73 0038 FB68     		ldr	r3, [r7, #12]
  74 003a 83F00043 		eor	r3, r3, #-2147483648
  75 003e FB60     		str	r3, [r7, #12]	@ float
  76              	.L5:
  50:main.c        ****     *i_out = (int16)val;
  77              		.loc 1 50 0 is_stmt 1
  78 0040 F868     		ldr	r0, [r7, #12]	@ float
  79 0042 FFF7FEFF 		bl	__aeabi_f2iz
  80 0046 0346     		mov	r3, r0
  81 0048 1AB2     		sxth	r2, r3
  82 004a BB68     		ldr	r3, [r7, #8]
  83 004c 1A80     		strh	r2, [r3]	@ movhi
  51:main.c        ****     *f_out = (int16)((val - (float)*i_out) * 100.0f);
  84              		.loc 1 51 0
  85 004e BB68     		ldr	r3, [r7, #8]
  86 0050 B3F90030 		ldrsh	r3, [r3]
  87 0054 1846     		mov	r0, r3
  88 0056 FFF7FEFF 		bl	__aeabi_i2f
  89 005a 0346     		mov	r3, r0
  90 005c 1946     		mov	r1, r3
  91 005e F868     		ldr	r0, [r7, #12]	@ float
  92 0060 FFF7FEFF 		bl	__aeabi_fsub
  93 0064 0346     		mov	r3, r0
  94 0066 0F49     		ldr	r1, .L12
  95 0068 1846     		mov	r0, r3
  96 006a FFF7FEFF 		bl	__aeabi_fmul
  97 006e 0346     		mov	r3, r0
  98 0070 1846     		mov	r0, r3
  99 0072 FFF7FEFF 		bl	__aeabi_f2iz
 100 0076 0346     		mov	r3, r0
 101 0078 1AB2     		sxth	r2, r3
 102 007a 7B68     		ldr	r3, [r7, #4]
 103 007c 1A80     		strh	r2, [r3]	@ movhi
  52:main.c        ****     if (*f_out < 0) *f_out = -*f_out;
 104              		.loc 1 52 0
 105 007e 7B68     		ldr	r3, [r7, #4]
 106 0080 B3F90030 		ldrsh	r3, [r3]
 107 0084 002B     		cmp	r3, #0
 108 0086 08DA     		bge	.L11
 109              		.loc 1 52 0 is_stmt 0 discriminator 1
 110 0088 7B68     		ldr	r3, [r7, #4]
 111 008a B3F90030 		ldrsh	r3, [r3]
 112 008e 9BB2     		uxth	r3, r3
 113 0090 5B42     		negs	r3, r3
 114 0092 9BB2     		uxth	r3, r3
 115 0094 1AB2     		sxth	r2, r3
 116 0096 7B68     		ldr	r3, [r7, #4]
 117 0098 1A80     		strh	r2, [r3]	@ movhi
 118              	.L11:
  53:main.c        **** }
ARM GAS  C:\Users\JENNEW~1\AppData\Local\Temp\ccIqmgX7.s 			page 4


 119              		.loc 1 53 0 is_stmt 1
 120 009a 00BF     		nop
 121 009c 1037     		adds	r7, r7, #16
 122              		.cfi_def_cfa_offset 8
 123 009e BD46     		mov	sp, r7
 124              		.cfi_def_cfa_register 13
 125              		@ sp needed
 126 00a0 80BD     		pop	{r7, pc}
 127              	.L13:
 128 00a2 00BF     		.align	2
 129              	.L12:
 130 00a4 0000C842 		.word	1120403456
 131              		.cfi_endproc
 132              	.LFE64:
 133              		.size	decomp, .-decomp
 134              		.global	__aeabi_fadd
 135              		.global	__aeabi_fcmpge
 136              		.global	__aeabi_fcmple
 137              		.section	.text.compute_euler_ints,"ax",%progbits
 138              		.align	2
 139              		.thumb
 140              		.thumb_func
 141              		.type	compute_euler_ints, %function
 142              	compute_euler_ints:
 143              	.LFB65:
  54:main.c        **** 
  55:main.c        **** /* =========================================================================
  56:main.c        ****  * Helpers — quaternion to Euler (integer decomposition for sprintf)
  57:main.c        ****  * ========================================================================= */
  58:main.c        **** static void compute_euler_ints(const movi_status_t* st,
  59:main.c        ****                                 char* pan_s,  int16* pan_i,  int16* pan_f,
  60:main.c        ****                                 char* tilt_s, int16* tilt_i, int16* tilt_f,
  61:main.c        ****                                 char* roll_s, int16* roll_i, int16* roll_f)
  62:main.c        **** {
 144              		.loc 1 62 0
 145              		.cfi_startproc
 146              		@ args = 24, pretend = 0, frame = 64
 147              		@ frame_needed = 1, uses_anonymous_args = 0
 148 0000 90B5     		push	{r4, r7, lr}
 149              		.cfi_def_cfa_offset 12
 150              		.cfi_offset 4, -12
 151              		.cfi_offset 7, -8
 152              		.cfi_offset 14, -4
 153 0002 91B0     		sub	sp, sp, #68
 154              		.cfi_def_cfa_offset 80
 155 0004 00AF     		add	r7, sp, #0
 156              		.cfi_def_cfa_register 7
 157 0006 F860     		str	r0, [r7, #12]
 158 0008 B960     		str	r1, [r7, #8]
 159 000a 7A60     		str	r2, [r7, #4]
 160 000c 3B60     		str	r3, [r7]
  63:main.c        ****     float r  = st->gimbal_r;
 161              		.loc 1 63 0
 162 000e FB68     		ldr	r3, [r7, #12]
 163 0010 DB68     		ldr	r3, [r3, #12]	@ float
 164 0012 FB63     		str	r3, [r7, #60]	@ float
  64:main.c        ****     float ii = st->gimbal_i;
ARM GAS  C:\Users\JENNEW~1\AppData\Local\Temp\ccIqmgX7.s 			page 5


 165              		.loc 1 64 0
 166 0014 FB68     		ldr	r3, [r7, #12]
 167 0016 1B69     		ldr	r3, [r3, #16]	@ float
 168 0018 BB63     		str	r3, [r7, #56]	@ float
  65:main.c        ****     float j  = st->gimbal_j;
 169              		.loc 1 65 0
 170 001a FB68     		ldr	r3, [r7, #12]
 171 001c 5B69     		ldr	r3, [r3, #20]	@ float
 172 001e 7B63     		str	r3, [r7, #52]	@ float
  66:main.c        ****     float k  = st->gimbal_k;
 173              		.loc 1 66 0
 174 0020 FB68     		ldr	r3, [r7, #12]
 175 0022 9B69     		ldr	r3, [r3, #24]	@ float
 176 0024 3B63     		str	r3, [r7, #48]	@ float
  67:main.c        **** 
  68:main.c        ****     /* Roll (X / gimbal_i axis) */
  69:main.c        ****     float sinr_val = 2.0f * (r*ii + j*k);
 177              		.loc 1 69 0
 178 0026 B96B     		ldr	r1, [r7, #56]	@ float
 179 0028 F86B     		ldr	r0, [r7, #60]	@ float
 180 002a FFF7FEFF 		bl	__aeabi_fmul
 181 002e 0346     		mov	r3, r0
 182 0030 1C46     		mov	r4, r3
 183 0032 396B     		ldr	r1, [r7, #48]	@ float
 184 0034 786B     		ldr	r0, [r7, #52]	@ float
 185 0036 FFF7FEFF 		bl	__aeabi_fmul
 186 003a 0346     		mov	r3, r0
 187 003c 1946     		mov	r1, r3
 188 003e 2046     		mov	r0, r4
 189 0040 FFF7FEFF 		bl	__aeabi_fadd
 190 0044 0346     		mov	r3, r0
 191 0046 1946     		mov	r1, r3
 192 0048 1846     		mov	r0, r3
 193 004a FFF7FEFF 		bl	__aeabi_fadd
 194 004e 0346     		mov	r3, r0
 195 0050 FB62     		str	r3, [r7, #44]	@ float
  70:main.c        ****     float cosr_val = 1.0f - 2.0f * (ii*ii + j*j);
 196              		.loc 1 70 0
 197 0052 B96B     		ldr	r1, [r7, #56]	@ float
 198 0054 B86B     		ldr	r0, [r7, #56]	@ float
 199 0056 FFF7FEFF 		bl	__aeabi_fmul
 200 005a 0346     		mov	r3, r0
 201 005c 1C46     		mov	r4, r3
 202 005e 796B     		ldr	r1, [r7, #52]	@ float
 203 0060 786B     		ldr	r0, [r7, #52]	@ float
 204 0062 FFF7FEFF 		bl	__aeabi_fmul
 205 0066 0346     		mov	r3, r0
 206 0068 1946     		mov	r1, r3
 207 006a 2046     		mov	r0, r4
 208 006c FFF7FEFF 		bl	__aeabi_fadd
 209 0070 0346     		mov	r3, r0
 210 0072 1946     		mov	r1, r3
 211 0074 1846     		mov	r0, r3
 212 0076 FFF7FEFF 		bl	__aeabi_fadd
 213 007a 0346     		mov	r3, r0
 214 007c 1946     		mov	r1, r3
 215 007e 4FF07E50 		mov	r0, #1065353216
ARM GAS  C:\Users\JENNEW~1\AppData\Local\Temp\ccIqmgX7.s 			page 6


 216 0082 FFF7FEFF 		bl	__aeabi_fsub
 217 0086 0346     		mov	r3, r0
 218 0088 BB62     		str	r3, [r7, #40]	@ float
  71:main.c        ****     float roll_deg = atan2f(sinr_val, cosr_val) * 57.2958f;
 219              		.loc 1 71 0
 220 008a B96A     		ldr	r1, [r7, #40]	@ float
 221 008c F86A     		ldr	r0, [r7, #44]	@ float
 222 008e FFF7FEFF 		bl	atan2f
 223 0092 0346     		mov	r3, r0
 224 0094 4549     		ldr	r1, .L25
 225 0096 1846     		mov	r0, r3
 226 0098 FFF7FEFF 		bl	__aeabi_fmul
 227 009c 0346     		mov	r3, r0
 228 009e 7B62     		str	r3, [r7, #36]	@ float
  72:main.c        **** 
  73:main.c        ****     /* Tilt (Y / gimbal_j axis) */
  74:main.c        ****     float sinp = 2.0f * (r*j - k*ii);
 229              		.loc 1 74 0
 230 00a0 796B     		ldr	r1, [r7, #52]	@ float
 231 00a2 F86B     		ldr	r0, [r7, #60]	@ float
 232 00a4 FFF7FEFF 		bl	__aeabi_fmul
 233 00a8 0346     		mov	r3, r0
 234 00aa 1C46     		mov	r4, r3
 235 00ac B96B     		ldr	r1, [r7, #56]	@ float
 236 00ae 386B     		ldr	r0, [r7, #48]	@ float
 237 00b0 FFF7FEFF 		bl	__aeabi_fmul
 238 00b4 0346     		mov	r3, r0
 239 00b6 1946     		mov	r1, r3
 240 00b8 2046     		mov	r0, r4
 241 00ba FFF7FEFF 		bl	__aeabi_fsub
 242 00be 0346     		mov	r3, r0
 243 00c0 1946     		mov	r1, r3
 244 00c2 1846     		mov	r0, r3
 245 00c4 FFF7FEFF 		bl	__aeabi_fadd
 246 00c8 0346     		mov	r3, r0
 247 00ca 3B62     		str	r3, [r7, #32]	@ float
  75:main.c        ****     float tilt_deg = (sinp >=  1.0f) ?  90.0f :
 248              		.loc 1 75 0
 249 00cc 4FF07E51 		mov	r1, #1065353216
 250 00d0 386A     		ldr	r0, [r7, #32]	@ float
 251 00d2 FFF7FEFF 		bl	__aeabi_fcmpge
 252 00d6 0346     		mov	r3, r0
 253 00d8 002B     		cmp	r3, #0
 254 00da 01D0     		beq	.L23
 255              		.loc 1 75 0 is_stmt 0 discriminator 1
 256 00dc 344B     		ldr	r3, .L25+4
 257 00de 11E0     		b	.L17
 258              	.L23:
  76:main.c        ****                      (sinp <= -1.0f) ? -90.0f :
 259              		.loc 1 76 0 is_stmt 1
 260 00e0 3449     		ldr	r1, .L25+8
 261 00e2 386A     		ldr	r0, [r7, #32]	@ float
 262 00e4 FFF7FEFF 		bl	__aeabi_fcmple
 263 00e8 0346     		mov	r3, r0
 264 00ea 002B     		cmp	r3, #0
 265 00ec 01D0     		beq	.L24
 266              		.loc 1 76 0 is_stmt 0 discriminator 1
ARM GAS  C:\Users\JENNEW~1\AppData\Local\Temp\ccIqmgX7.s 			page 7


 267 00ee 324B     		ldr	r3, .L25+12
 268 00f0 08E0     		b	.L17
 269              	.L24:
  77:main.c        ****                      asinf(sinp) * 57.2958f;
 270              		.loc 1 77 0 is_stmt 1 discriminator 2
 271 00f2 386A     		ldr	r0, [r7, #32]	@ float
 272 00f4 FFF7FEFF 		bl	asinf
 273 00f8 0346     		mov	r3, r0
  76:main.c        ****                      (sinp <= -1.0f) ? -90.0f :
 274              		.loc 1 76 0 discriminator 2
 275 00fa 2C49     		ldr	r1, .L25
 276 00fc 1846     		mov	r0, r3
 277 00fe FFF7FEFF 		bl	__aeabi_fmul
 278 0102 0346     		mov	r3, r0
 279              	.L17:
  75:main.c        ****     float tilt_deg = (sinp >=  1.0f) ?  90.0f :
 280              		.loc 1 75 0 discriminator 2
 281 0104 FB61     		str	r3, [r7, #28]	@ float
  78:main.c        **** 
  79:main.c        ****     /* Pan (Z / gimbal_k axis) */
  80:main.c        ****     float siny_val = 2.0f * (r*k + ii*j);
 282              		.loc 1 80 0 discriminator 2
 283 0106 396B     		ldr	r1, [r7, #48]	@ float
 284 0108 F86B     		ldr	r0, [r7, #60]	@ float
 285 010a FFF7FEFF 		bl	__aeabi_fmul
 286 010e 0346     		mov	r3, r0
 287 0110 1C46     		mov	r4, r3
 288 0112 796B     		ldr	r1, [r7, #52]	@ float
 289 0114 B86B     		ldr	r0, [r7, #56]	@ float
 290 0116 FFF7FEFF 		bl	__aeabi_fmul
 291 011a 0346     		mov	r3, r0
 292 011c 1946     		mov	r1, r3
 293 011e 2046     		mov	r0, r4
 294 0120 FFF7FEFF 		bl	__aeabi_fadd
 295 0124 0346     		mov	r3, r0
 296 0126 1946     		mov	r1, r3
 297 0128 1846     		mov	r0, r3
 298 012a FFF7FEFF 		bl	__aeabi_fadd
 299 012e 0346     		mov	r3, r0
 300 0130 BB61     		str	r3, [r7, #24]	@ float
  81:main.c        ****     float cosy_val = 1.0f - 2.0f * (j*j + k*k);
 301              		.loc 1 81 0 discriminator 2
 302 0132 796B     		ldr	r1, [r7, #52]	@ float
 303 0134 786B     		ldr	r0, [r7, #52]	@ float
 304 0136 FFF7FEFF 		bl	__aeabi_fmul
 305 013a 0346     		mov	r3, r0
 306 013c 1C46     		mov	r4, r3
 307 013e 396B     		ldr	r1, [r7, #48]	@ float
 308 0140 386B     		ldr	r0, [r7, #48]	@ float
 309 0142 FFF7FEFF 		bl	__aeabi_fmul
 310 0146 0346     		mov	r3, r0
 311 0148 1946     		mov	r1, r3
 312 014a 2046     		mov	r0, r4
 313 014c FFF7FEFF 		bl	__aeabi_fadd
 314 0150 0346     		mov	r3, r0
 315 0152 1946     		mov	r1, r3
 316 0154 1846     		mov	r0, r3
ARM GAS  C:\Users\JENNEW~1\AppData\Local\Temp\ccIqmgX7.s 			page 8


 317 0156 FFF7FEFF 		bl	__aeabi_fadd
 318 015a 0346     		mov	r3, r0
 319 015c 1946     		mov	r1, r3
 320 015e 4FF07E50 		mov	r0, #1065353216
 321 0162 FFF7FEFF 		bl	__aeabi_fsub
 322 0166 0346     		mov	r3, r0
 323 0168 7B61     		str	r3, [r7, #20]	@ float
  82:main.c        ****     float pan_deg  = atan2f(siny_val, cosy_val) * 57.2958f;
 324              		.loc 1 82 0 discriminator 2
 325 016a 7969     		ldr	r1, [r7, #20]	@ float
 326 016c B869     		ldr	r0, [r7, #24]	@ float
 327 016e FFF7FEFF 		bl	atan2f
 328 0172 0346     		mov	r3, r0
 329 0174 0D49     		ldr	r1, .L25
 330 0176 1846     		mov	r0, r3
 331 0178 FFF7FEFF 		bl	__aeabi_fmul
 332 017c 0346     		mov	r3, r0
 333 017e 3B61     		str	r3, [r7, #16]	@ float
  83:main.c        **** 
  84:main.c        ****     decomp(pan_deg,  pan_i,  pan_f,  pan_s);
 334              		.loc 1 84 0 discriminator 2
 335 0180 BB68     		ldr	r3, [r7, #8]
 336 0182 3A68     		ldr	r2, [r7]
 337 0184 7968     		ldr	r1, [r7, #4]
 338 0186 3869     		ldr	r0, [r7, #16]	@ float
 339 0188 FFF7FEFF 		bl	decomp
  85:main.c        ****     decomp(tilt_deg, tilt_i, tilt_f, tilt_s);
 340              		.loc 1 85 0 discriminator 2
 341 018c 3B6D     		ldr	r3, [r7, #80]
 342 018e BA6D     		ldr	r2, [r7, #88]
 343 0190 796D     		ldr	r1, [r7, #84]
 344 0192 F869     		ldr	r0, [r7, #28]	@ float
 345 0194 FFF7FEFF 		bl	decomp
  86:main.c        ****     decomp(roll_deg, roll_i, roll_f, roll_s);
 346              		.loc 1 86 0 discriminator 2
 347 0198 FB6D     		ldr	r3, [r7, #92]
 348 019a 7A6E     		ldr	r2, [r7, #100]
 349 019c 396E     		ldr	r1, [r7, #96]
 350 019e 786A     		ldr	r0, [r7, #36]	@ float
 351 01a0 FFF7FEFF 		bl	decomp
  87:main.c        **** }
 352              		.loc 1 87 0 discriminator 2
 353 01a4 00BF     		nop
 354 01a6 4437     		adds	r7, r7, #68
 355              		.cfi_def_cfa_offset 12
 356 01a8 BD46     		mov	sp, r7
 357              		.cfi_def_cfa_register 13
 358              		@ sp needed
 359 01aa 90BD     		pop	{r4, r7, pc}
 360              	.L26:
 361              		.align	2
 362              	.L25:
 363 01ac E62E6542 		.word	1113927398
 364 01b0 0000B442 		.word	1119092736
 365 01b4 000080BF 		.word	-1082130432
 366 01b8 0000B4C2 		.word	-1028390912
 367              		.cfi_endproc
ARM GAS  C:\Users\JENNEW~1\AppData\Local\Temp\ccIqmgX7.s 			page 9


 368              	.LFE65:
 369              		.size	compute_euler_ints, .-compute_euler_ints
 370              		.section	.rodata
 371              		.align	2
 372              	.LC0:
 373 0000 52415445 		.ascii	"RATE\000"
 373      00
 374 0005 000000   		.align	2
 375              	.LC1:
 376 0008 41425320 		.ascii	"ABS \000"
 376      00
 377 000d 000000   		.align	2
 378              	.LC2:
 379 0010 44454652 		.ascii	"DEFR\000"
 379      00
 380              		.section	.text.mode_str,"ax",%progbits
 381              		.align	2
 382              		.thumb
 383              		.thumb_func
 384              		.type	mode_str, %function
 385              	mode_str:
 386              	.LFB66:
  88:main.c        **** 
  89:main.c        **** /* =========================================================================
  90:main.c        ****  * Helpers — control type to short string
  91:main.c        ****  * ========================================================================= */
  92:main.c        **** static const char* mode_str(ff_api_control_type_e m)
  93:main.c        **** {
 387              		.loc 1 93 0
 388              		.cfi_startproc
 389              		@ args = 0, pretend = 0, frame = 8
 390              		@ frame_needed = 1, uses_anonymous_args = 0
 391              		@ link register save eliminated.
 392 0000 80B4     		push	{r7}
 393              		.cfi_def_cfa_offset 4
 394              		.cfi_offset 7, -4
 395 0002 83B0     		sub	sp, sp, #12
 396              		.cfi_def_cfa_offset 16
 397 0004 00AF     		add	r7, sp, #0
 398              		.cfi_def_cfa_register 7
 399 0006 0346     		mov	r3, r0
 400 0008 FB71     		strb	r3, [r7, #7]
  94:main.c        ****     switch (m) {
 401              		.loc 1 94 0
 402 000a FB79     		ldrb	r3, [r7, #7]	@ zero_extendqisi2
 403 000c 012B     		cmp	r3, #1
 404 000e 02D0     		beq	.L29
 405 0010 022B     		cmp	r3, #2
 406 0012 02D0     		beq	.L30
 407 0014 03E0     		b	.L32
 408              	.L29:
  95:main.c        ****         case RATE:     return "RATE";
 409              		.loc 1 95 0
 410 0016 054B     		ldr	r3, .L33
 411 0018 02E0     		b	.L31
 412              	.L30:
  96:main.c        ****         case ABSOLUTE: return "ABS ";
ARM GAS  C:\Users\JENNEW~1\AppData\Local\Temp\ccIqmgX7.s 			page 10


 413              		.loc 1 96 0
 414 001a 054B     		ldr	r3, .L33+4
 415 001c 00E0     		b	.L31
 416              	.L32:
  97:main.c        ****         default:       return "DEFR";
 417              		.loc 1 97 0
 418 001e 054B     		ldr	r3, .L33+8
 419              	.L31:
  98:main.c        ****     }
  99:main.c        **** }
 420              		.loc 1 99 0
 421 0020 1846     		mov	r0, r3
 422 0022 0C37     		adds	r7, r7, #12
 423              		.cfi_def_cfa_offset 4
 424 0024 BD46     		mov	sp, r7
 425              		.cfi_def_cfa_register 13
 426              		@ sp needed
 427 0026 80BC     		pop	{r7}
 428              		.cfi_restore 7
 429              		.cfi_def_cfa_offset 0
 430 0028 7047     		bx	lr
 431              	.L34:
 432 002a 00BF     		.align	2
 433              	.L33:
 434 002c 00000000 		.word	.LC0
 435 0030 08000000 		.word	.LC1
 436 0034 10000000 		.word	.LC2
 437              		.cfi_endproc
 438              	.LFE66:
 439              		.size	mode_str, .-mode_str
 440              		.section	.rodata
 441 0015 000000   		.align	2
 442              	.LC3:
 443 0018 0D0A5B43 		.ascii	"\015\012[CAL] Step 1: Move joystick through FULL ra"
 443      414C5D20 
 443      53746570 
 443      20313A20 
 443      4D6F7665 
 444 0045 6E67652C 		.ascii	"nge, then release to center.\015\012\000"
 444      20746865 
 444      6E207265 
 444      6C656173 
 444      6520746F 
 445              		.align	2
 446              	.LC4:
 447 0064 5B43414C 		.ascii	"[CAL] Press 'c' to proceed to center capture, 'x' t"
 447      5D205072 
 447      65737320 
 447      27632720 
 447      746F2070 
 448 0097 6F206361 		.ascii	"o cancel.\015\012\000"
 448      6E63656C 
 448      2E0D0A00 
 449 00a3 00       		.align	2
 450              	.LC5:
 451 00a4 0D0A5B43 		.ascii	"\015\012[CAL] Step 2: Hold center \342\200\224 aver"
 451      414C5D20 
ARM GAS  C:\Users\JENNEW~1\AppData\Local\Temp\ccIqmgX7.s 			page 11


 451      53746570 
 451      20323A20 
 451      486F6C64 
 452 00c8 6167696E 		.ascii	"aging...\015\012\000"
 452      672E2E2E 
 452      0D0A00
 453 00d3 00       		.align	2
 454              	.LC6:
 455 00d4 0D0A5B43 		.ascii	"\015\012[CAL] Step 3: Center captured. Press 'c' to"
 455      414C5D20 
 455      53746570 
 455      20333A20 
 455      43656E74 
 456 0101 20534156 		.ascii	" SAVE, 'x' to cancel.\015\012\000"
 456      452C2027 
 456      78272074 
 456      6F206361 
 456      6E63656C 
 457 0119 000000   		.align	2
 458              	.LC7:
 459 011c 5B43414C 		.ascii	"[CAL] Exited.\015\012\000"
 459      5D204578 
 459      69746564 
 459      2E0D0A00 
 460              		.section	.text.print_cal_prompt_on_state_change,"ax",%progbits
 461              		.align	2
 462              		.thumb
 463              		.thumb_func
 464              		.type	print_cal_prompt_on_state_change, %function
 465              	print_cal_prompt_on_state_change:
 466              	.LFB67:
 100:main.c        **** 
 101:main.c        **** /* =========================================================================
 102:main.c        ****  * Calibration prompt — fires on state transitions only
 103:main.c        ****  * ========================================================================= */
 104:main.c        **** static void print_cal_prompt_on_state_change(joy_cal_state_t prev,
 105:main.c        ****                                               joy_cal_state_t now)
 106:main.c        **** {
 467              		.loc 1 106 0
 468              		.cfi_startproc
 469              		@ args = 0, pretend = 0, frame = 8
 470              		@ frame_needed = 1, uses_anonymous_args = 0
 471 0000 80B5     		push	{r7, lr}
 472              		.cfi_def_cfa_offset 8
 473              		.cfi_offset 7, -8
 474              		.cfi_offset 14, -4
 475 0002 82B0     		sub	sp, sp, #8
 476              		.cfi_def_cfa_offset 16
 477 0004 00AF     		add	r7, sp, #0
 478              		.cfi_def_cfa_register 7
 479 0006 0346     		mov	r3, r0
 480 0008 0A46     		mov	r2, r1
 481 000a FB71     		strb	r3, [r7, #7]
 482 000c 1346     		mov	r3, r2
 483 000e BB71     		strb	r3, [r7, #6]
 107:main.c        ****     if (prev == now) return;
 484              		.loc 1 107 0
ARM GAS  C:\Users\JENNEW~1\AppData\Local\Temp\ccIqmgX7.s 			page 12


 485 0010 FA79     		ldrb	r2, [r7, #7]	@ zero_extendqisi2
 486 0012 BB79     		ldrb	r3, [r7, #6]	@ zero_extendqisi2
 487 0014 9A42     		cmp	r2, r3
 488 0016 21D0     		beq	.L41
 108:main.c        **** 
 109:main.c        ****     if (now == JOY_CAL_RANGE_CAPTURE) {
 489              		.loc 1 109 0
 490 0018 BB79     		ldrb	r3, [r7, #6]	@ zero_extendqisi2
 491 001a 012B     		cmp	r3, #1
 492 001c 06D1     		bne	.L38
 110:main.c        ****         UART_1_PutString("\r\n[CAL] Step 1: Move joystick through FULL range, then release to cente
 493              		.loc 1 110 0
 494 001e 1148     		ldr	r0, .L42
 495 0020 FFF7FEFF 		bl	UART_1_PutString
 111:main.c        ****         UART_1_PutString("[CAL] Press 'c' to proceed to center capture, 'x' to cancel.\r\n");
 496              		.loc 1 111 0
 497 0024 1048     		ldr	r0, .L42+4
 498 0026 FFF7FEFF 		bl	UART_1_PutString
 499 002a 18E0     		b	.L35
 500              	.L38:
 112:main.c        ****     } else if (now == JOY_CAL_CENTER_CAPTURE) {
 501              		.loc 1 112 0
 502 002c BB79     		ldrb	r3, [r7, #6]	@ zero_extendqisi2
 503 002e 022B     		cmp	r3, #2
 504 0030 03D1     		bne	.L39
 113:main.c        ****         UART_1_PutString("\r\n[CAL] Step 2: Hold center — averaging...\r\n");
 505              		.loc 1 113 0
 506 0032 0E48     		ldr	r0, .L42+8
 507 0034 FFF7FEFF 		bl	UART_1_PutString
 508 0038 11E0     		b	.L35
 509              	.L39:
 114:main.c        ****     } else if (now == JOY_CAL_CONFIRM_SAVE) {
 510              		.loc 1 114 0
 511 003a BB79     		ldrb	r3, [r7, #6]	@ zero_extendqisi2
 512 003c 032B     		cmp	r3, #3
 513 003e 03D1     		bne	.L40
 115:main.c        ****         UART_1_PutString("\r\n[CAL] Step 3: Center captured. Press 'c' to SAVE, 'x' to cancel.\r\n"
 514              		.loc 1 115 0
 515 0040 0B48     		ldr	r0, .L42+12
 516 0042 FFF7FEFF 		bl	UART_1_PutString
 517 0046 0AE0     		b	.L35
 518              	.L40:
 116:main.c        ****     } else if (now == JOY_CAL_OFF && prev != JOY_CAL_OFF) {
 519              		.loc 1 116 0
 520 0048 BB79     		ldrb	r3, [r7, #6]	@ zero_extendqisi2
 521 004a 002B     		cmp	r3, #0
 522 004c 07D1     		bne	.L35
 523              		.loc 1 116 0 is_stmt 0 discriminator 1
 524 004e FB79     		ldrb	r3, [r7, #7]	@ zero_extendqisi2
 525 0050 002B     		cmp	r3, #0
 526 0052 04D0     		beq	.L35
 117:main.c        ****         UART_1_PutString("[CAL] Exited.\r\n");
 527              		.loc 1 117 0 is_stmt 1
 528 0054 0748     		ldr	r0, .L42+16
 529 0056 FFF7FEFF 		bl	UART_1_PutString
 530 005a 00E0     		b	.L35
 531              	.L41:
ARM GAS  C:\Users\JENNEW~1\AppData\Local\Temp\ccIqmgX7.s 			page 13


 107:main.c        **** 
 532              		.loc 1 107 0
 533 005c 00BF     		nop
 534              	.L35:
 118:main.c        ****     }
 119:main.c        **** }
 535              		.loc 1 119 0
 536 005e 0837     		adds	r7, r7, #8
 537              		.cfi_def_cfa_offset 8
 538 0060 BD46     		mov	sp, r7
 539              		.cfi_def_cfa_register 13
 540              		@ sp needed
 541 0062 80BD     		pop	{r7, pc}
 542              	.L43:
 543              		.align	2
 544              	.L42:
 545 0064 18000000 		.word	.LC3
 546 0068 64000000 		.word	.LC4
 547 006c A4000000 		.word	.LC5
 548 0070 D4000000 		.word	.LC6
 549 0074 1C010000 		.word	.LC7
 550              		.cfi_endproc
 551              	.LFE67:
 552              		.size	print_cal_prompt_on_state_change, .-print_cal_prompt_on_state_change
 553              		.bss
 554              		.align	2
 555              	g_movi:
 556 0000 00000000 		.space	348
 556      00000000 
 556      00000000 
 556      00000000 
 556      00000000 
 557              		.section	.text.movi_uart_putc,"ax",%progbits
 558              		.align	2
 559              		.thumb
 560              		.thumb_func
 561              		.type	movi_uart_putc, %function
 562              	movi_uart_putc:
 563              	.LFB68:
 120:main.c        **** 
 121:main.c        **** /* =========================================================================
 122:main.c        ****  * Hardware instances
 123:main.c        ****  * ========================================================================= */
 124:main.c        **** static movi_comm_t g_movi;
 125:main.c        **** 
 126:main.c        **** static void movi_uart_putc(void* ctx, uint8_t b)
 127:main.c        **** {
 564              		.loc 1 127 0
 565              		.cfi_startproc
 566              		@ args = 0, pretend = 0, frame = 8
 567              		@ frame_needed = 1, uses_anonymous_args = 0
 568 0000 80B5     		push	{r7, lr}
 569              		.cfi_def_cfa_offset 8
 570              		.cfi_offset 7, -8
 571              		.cfi_offset 14, -4
 572 0002 82B0     		sub	sp, sp, #8
 573              		.cfi_def_cfa_offset 16
ARM GAS  C:\Users\JENNEW~1\AppData\Local\Temp\ccIqmgX7.s 			page 14


 574 0004 00AF     		add	r7, sp, #0
 575              		.cfi_def_cfa_register 7
 576 0006 7860     		str	r0, [r7, #4]
 577 0008 0B46     		mov	r3, r1
 578 000a FB70     		strb	r3, [r7, #3]
 128:main.c        ****     (void)ctx;
 129:main.c        ****     UART_MOVI_PutChar((char)b);
 579              		.loc 1 129 0
 580 000c FB78     		ldrb	r3, [r7, #3]	@ zero_extendqisi2
 581 000e 1846     		mov	r0, r3
 582 0010 FFF7FEFF 		bl	UART_MOVI_PutChar
 130:main.c        **** }
 583              		.loc 1 130 0
 584 0014 00BF     		nop
 585 0016 0837     		adds	r7, r7, #8
 586              		.cfi_def_cfa_offset 8
 587 0018 BD46     		mov	sp, r7
 588              		.cfi_def_cfa_register 13
 589              		@ sp needed
 590 001a 80BD     		pop	{r7, pc}
 591              		.cfi_endproc
 592              	.LFE68:
 593              		.size	movi_uart_putc, .-movi_uart_putc
 594              		.section	.rodata
 595              		.align	2
 596              		.type	MOVI_HAL, %object
 597              		.size	MOVI_HAL, 8
 598              	MOVI_HAL:
 599 012c 00000000 		.word	0
 600 0130 00000000 		.word	movi_uart_putc
 601              		.section	.text.isr_rx_movi_Handler,"ax",%progbits
 602              		.align	2
 603              		.global	isr_rx_movi_Handler
 604              		.thumb
 605              		.thumb_func
 606              		.type	isr_rx_movi_Handler, %function
 607              	isr_rx_movi_Handler:
 608              	.LFB69:
 131:main.c        **** 
 132:main.c        **** static const movi_hal_t MOVI_HAL = {
 133:main.c        ****     .ctx       = NULL,
 134:main.c        ****     .uart_putc = movi_uart_putc
 135:main.c        **** };
 136:main.c        **** 
 137:main.c        **** /* =========================================================================
 138:main.c        ****  * ISRs
 139:main.c        ****  * ========================================================================= */
 140:main.c        **** CY_ISR(isr_rx_movi_Handler)
 141:main.c        **** {
 609              		.loc 1 141 0
 610              		.cfi_startproc
 611              		@ args = 0, pretend = 0, frame = 8
 612              		@ frame_needed = 1, uses_anonymous_args = 0
 613 0000 80B5     		push	{r7, lr}
 614              		.cfi_def_cfa_offset 8
 615              		.cfi_offset 7, -8
 616              		.cfi_offset 14, -4
ARM GAS  C:\Users\JENNEW~1\AppData\Local\Temp\ccIqmgX7.s 			page 15


 617 0002 82B0     		sub	sp, sp, #8
 618              		.cfi_def_cfa_offset 16
 619 0004 00AF     		add	r7, sp, #0
 620              		.cfi_def_cfa_register 7
 621              	.L48:
 142:main.c        ****     uint8 st;
 143:main.c        ****     do {
 144:main.c        ****         st = UART_MOVI_RXSTATUS_REG;
 622              		.loc 1 144 0
 623 0006 134B     		ldr	r3, .L49
 624 0008 1B78     		ldrb	r3, [r3]
 625 000a FB71     		strb	r3, [r7, #7]
 145:main.c        **** 
 146:main.c        ****         if (st & (UART_MOVI_RX_STS_BREAK     |
 626              		.loc 1 146 0
 627 000c FB79     		ldrb	r3, [r7, #7]	@ zero_extendqisi2
 628 000e 03F01E03 		and	r3, r3, #30
 629 0012 002B     		cmp	r3, #0
 630 0014 07D0     		beq	.L46
 147:main.c        ****                   UART_MOVI_RX_STS_PAR_ERROR |
 148:main.c        ****                   UART_MOVI_RX_STS_STOP_ERROR|
 149:main.c        ****                   UART_MOVI_RX_STS_OVERRUN))
 150:main.c        ****         {
 151:main.c        ****             movi_comm_on_uart_error_flags(&g_movi,
 631              		.loc 1 151 0
 632 0016 FB79     		ldrb	r3, [r7, #7]
 633 0018 03F01E03 		and	r3, r3, #30
 634 001c DBB2     		uxtb	r3, r3
 635 001e 1946     		mov	r1, r3
 636 0020 0D48     		ldr	r0, .L49+4
 637 0022 FFF7FEFF 		bl	movi_comm_on_uart_error_flags
 638              	.L46:
 152:main.c        ****                 (uint8)(st & (UART_MOVI_RX_STS_BREAK     |
 153:main.c        ****                               UART_MOVI_RX_STS_PAR_ERROR |
 154:main.c        ****                               UART_MOVI_RX_STS_STOP_ERROR|
 155:main.c        ****                               UART_MOVI_RX_STS_OVERRUN)));
 156:main.c        ****         }
 157:main.c        **** 
 158:main.c        ****         if (st & UART_MOVI_RX_STS_FIFO_NOTEMPTY) {
 639              		.loc 1 158 0
 640 0026 FB79     		ldrb	r3, [r7, #7]	@ zero_extendqisi2
 641 0028 03F02003 		and	r3, r3, #32
 642 002c 002B     		cmp	r3, #0
 643 002e 07D0     		beq	.L47
 644              	.LBB2:
 159:main.c        ****             uint8 b = UART_MOVI_RXDATA_REG;
 645              		.loc 1 159 0
 646 0030 0A4B     		ldr	r3, .L49+8
 647 0032 1B78     		ldrb	r3, [r3]
 648 0034 BB71     		strb	r3, [r7, #6]
 160:main.c        ****             movi_comm_on_rx_byte(&g_movi, b);
 649              		.loc 1 160 0
 650 0036 BB79     		ldrb	r3, [r7, #6]	@ zero_extendqisi2
 651 0038 1946     		mov	r1, r3
 652 003a 0748     		ldr	r0, .L49+4
 653 003c FFF7FEFF 		bl	movi_comm_on_rx_byte
 654              	.L47:
ARM GAS  C:\Users\JENNEW~1\AppData\Local\Temp\ccIqmgX7.s 			page 16


 655              	.LBE2:
 161:main.c        ****         }
 162:main.c        ****     } while (st & UART_MOVI_RX_STS_FIFO_NOTEMPTY);
 656              		.loc 1 162 0
 657 0040 FB79     		ldrb	r3, [r7, #7]	@ zero_extendqisi2
 658 0042 03F02003 		and	r3, r3, #32
 659 0046 002B     		cmp	r3, #0
 660 0048 DDD1     		bne	.L48
 163:main.c        **** }
 661              		.loc 1 163 0
 662 004a 00BF     		nop
 663 004c 0837     		adds	r7, r7, #8
 664              		.cfi_def_cfa_offset 8
 665 004e BD46     		mov	sp, r7
 666              		.cfi_def_cfa_register 13
 667              		@ sp needed
 668 0050 80BD     		pop	{r7, pc}
 669              	.L50:
 670 0052 00BF     		.align	2
 671              	.L49:
 672 0054 69640040 		.word	1073767529
 673 0058 00000000 		.word	g_movi
 674 005c 49640040 		.word	1073767497
 675              		.cfi_endproc
 676              	.LFE69:
 677              		.size	isr_rx_movi_Handler, .-isr_rx_movi_Handler
 678              		.global	g_tick_ms
 679              		.bss
 680              		.align	2
 681              		.type	g_tick_ms, %object
 682              		.size	g_tick_ms, 4
 683              	g_tick_ms:
 684 015c 00000000 		.space	4
 685              		.global	last_diag_ms
 686              		.align	2
 687              		.type	last_diag_ms, %object
 688              		.size	last_diag_ms, 4
 689              	last_diag_ms:
 690 0160 00000000 		.space	4
 691              		.section	.text.isr_Looptimer_Handler,"ax",%progbits
 692              		.align	2
 693              		.global	isr_Looptimer_Handler
 694              		.thumb
 695              		.thumb_func
 696              		.type	isr_Looptimer_Handler, %function
 697              	isr_Looptimer_Handler:
 698              	.LFB70:
 164:main.c        **** 
 165:main.c        **** volatile uint32 g_tick_ms    = 0u;
 166:main.c        **** volatile uint32 last_diag_ms = 0u;
 167:main.c        **** 
 168:main.c        **** CY_ISR(isr_Looptimer_Handler)
 169:main.c        **** {
 699              		.loc 1 169 0
 700              		.cfi_startproc
 701              		@ args = 0, pretend = 0, frame = 0
 702              		@ frame_needed = 1, uses_anonymous_args = 0
ARM GAS  C:\Users\JENNEW~1\AppData\Local\Temp\ccIqmgX7.s 			page 17


 703 0000 80B5     		push	{r7, lr}
 704              		.cfi_def_cfa_offset 8
 705              		.cfi_offset 7, -8
 706              		.cfi_offset 14, -4
 707 0002 00AF     		add	r7, sp, #0
 708              		.cfi_def_cfa_register 7
 170:main.c        ****     g_tick_ms++;
 709              		.loc 1 170 0
 710 0004 044B     		ldr	r3, .L52
 711 0006 1B68     		ldr	r3, [r3]
 712 0008 0133     		adds	r3, r3, #1
 713 000a 034A     		ldr	r2, .L52
 714 000c 1360     		str	r3, [r2]
 171:main.c        ****     Looptimer_ReadStatusRegister();
 715              		.loc 1 171 0
 716 000e FFF7FEFF 		bl	Looptimer_ReadStatusRegister
 172:main.c        **** }
 717              		.loc 1 172 0
 718 0012 00BF     		nop
 719 0014 80BD     		pop	{r7, pc}
 720              	.L53:
 721 0016 00BF     		.align	2
 722              	.L52:
 723 0018 00000000 		.word	g_tick_ms
 724              		.cfi_endproc
 725              	.LFE70:
 726              		.size	isr_Looptimer_Handler, .-isr_Looptimer_Handler
 727              		.section	.rodata
 728              		.align	2
 729              	.LC8:
 730 0134 5B434C49 		.ascii	"[CLI] Kill packet sent\015\012\000"
 730      5D204B69 
 730      6C6C2070 
 730      61636B65 
 730      74207365 
 731 014d 000000   		.align	2
 732              	.LC9:
 733 0150 5B434C49 		.ascii	"[CLI] All stopped  Mode: DEFR\015\012\000"
 733      5D20416C 
 733      6C207374 
 733      6F707065 
 733      6420204D 
 734              		.section	.text.do_kill,"ax",%progbits
 735              		.align	2
 736              		.thumb
 737              		.thumb_func
 738              		.type	do_kill, %function
 739              	do_kill:
 740              	.LFB71:
 173:main.c        **** 
 174:main.c        **** /* =========================================================================
 175:main.c        ****  * Kill helper — shared by 'k' and 'x'
 176:main.c        ****  * ========================================================================= */
 177:main.c        **** static void do_kill(movi_comm_t* movi, uint8* joystick_active,
 178:main.c        ****                     uint8* movi_active, uint8* streaming_adc,
 179:main.c        ****                     ff_api_control_type_e* mode)
 180:main.c        **** {
ARM GAS  C:\Users\JENNEW~1\AppData\Local\Temp\ccIqmgX7.s 			page 18


 741              		.loc 1 180 0
 742              		.cfi_startproc
 743              		@ args = 4, pretend = 0, frame = 16
 744              		@ frame_needed = 1, uses_anonymous_args = 0
 745 0000 80B5     		push	{r7, lr}
 746              		.cfi_def_cfa_offset 8
 747              		.cfi_offset 7, -8
 748              		.cfi_offset 14, -4
 749 0002 84B0     		sub	sp, sp, #16
 750              		.cfi_def_cfa_offset 24
 751 0004 00AF     		add	r7, sp, #0
 752              		.cfi_def_cfa_register 7
 753 0006 F860     		str	r0, [r7, #12]
 754 0008 B960     		str	r1, [r7, #8]
 755 000a 7A60     		str	r2, [r7, #4]
 756 000c 3B60     		str	r3, [r7]
 181:main.c        ****     if (*movi_active) {
 757              		.loc 1 181 0
 758 000e 7B68     		ldr	r3, [r7, #4]
 759 0010 1B78     		ldrb	r3, [r3]	@ zero_extendqisi2
 760 0012 002B     		cmp	r3, #0
 761 0014 05D0     		beq	.L55
 182:main.c        ****         movi_comm_kill(movi);
 762              		.loc 1 182 0
 763 0016 F868     		ldr	r0, [r7, #12]
 764 0018 FFF7FEFF 		bl	movi_comm_kill
 183:main.c        ****         UART_1_PutString("[CLI] Kill packet sent\r\n");
 765              		.loc 1 183 0
 766 001c 0C48     		ldr	r0, .L56
 767 001e FFF7FEFF 		bl	UART_1_PutString
 768              	.L55:
 184:main.c        ****     }
 185:main.c        ****     *joystick_active = FALSE;
 769              		.loc 1 185 0
 770 0022 BB68     		ldr	r3, [r7, #8]
 771 0024 0022     		movs	r2, #0
 772 0026 1A70     		strb	r2, [r3]
 186:main.c        ****     *movi_active     = FALSE;
 773              		.loc 1 186 0
 774 0028 7B68     		ldr	r3, [r7, #4]
 775 002a 0022     		movs	r2, #0
 776 002c 1A70     		strb	r2, [r3]
 187:main.c        ****     *streaming_adc   = FALSE;
 777              		.loc 1 187 0
 778 002e 3B68     		ldr	r3, [r7]
 779 0030 0022     		movs	r2, #0
 780 0032 1A70     		strb	r2, [r3]
 188:main.c        ****     *mode            = DEFER;
 781              		.loc 1 188 0
 782 0034 BB69     		ldr	r3, [r7, #24]
 783 0036 0022     		movs	r2, #0
 784 0038 1A70     		strb	r2, [r3]
 189:main.c        ****     joystick_on_key('x');
 785              		.loc 1 189 0
 786 003a 7820     		movs	r0, #120
 787 003c FFF7FEFF 		bl	joystick_on_key
 190:main.c        ****     UART_1_PutString("[CLI] All stopped  Mode: DEFR\r\n");
ARM GAS  C:\Users\JENNEW~1\AppData\Local\Temp\ccIqmgX7.s 			page 19


 788              		.loc 1 190 0
 789 0040 0448     		ldr	r0, .L56+4
 790 0042 FFF7FEFF 		bl	UART_1_PutString
 191:main.c        **** }
 791              		.loc 1 191 0
 792 0046 00BF     		nop
 793 0048 1037     		adds	r7, r7, #16
 794              		.cfi_def_cfa_offset 8
 795 004a BD46     		mov	sp, r7
 796              		.cfi_def_cfa_register 13
 797              		@ sp needed
 798 004c 80BD     		pop	{r7, pc}
 799              	.L57:
 800 004e 00BF     		.align	2
 801              	.L56:
 802 0050 34010000 		.word	.LC8
 803 0054 50010000 		.word	.LC9
 804              		.cfi_endproc
 805              	.LFE71:
 806              		.size	do_kill, .-do_kill
 807              		.section	.rodata
 808              		.align	2
 809              	.LC10:
 810 0170 0D0A3D3D 		.ascii	"\015\012========================================\015"
 810      3D3D3D3D 
 810      3D3D3D3D 
 810      3D3D3D3D 
 810      3D3D3D3D 
 811 019b 0A00     		.ascii	"\012\000"
 812 019d 000000   		.align	2
 813              	.LC11:
 814 01a0 20204D6F 		.ascii	"  MoVI Pro Controller  PSoC 5LP\015\012\000"
 814      56492050 
 814      726F2043 
 814      6F6E7472 
 814      6F6C6C65 
 815 01c2 0000     		.align	2
 816              	.LC12:
 817 01c4 3D3D3D3D 		.ascii	"========================================\015\012\000"
 817      3D3D3D3D 
 817      3D3D3D3D 
 817      3D3D3D3D 
 817      3D3D3D3D 
 818 01ef 00       		.align	2
 819              	.LC13:
 820 01f0 20206A3D 		.ascii	"  j=joystick  m=movi  l=mode  s=adc\015\012\000"
 820      6A6F7973 
 820      7469636B 
 820      20206D3D 
 820      6D6F7669 
 821 0216 0000     		.align	2
 822              	.LC14:
 823 0218 2020633D 		.ascii	"  c=cal  k=kill  x=kill+quiet\015\012\000"
 823      63616C20 
 823      206B3D6B 
 823      696C6C20 
 823      20783D6B 
ARM GAS  C:\Users\JENNEW~1\AppData\Local\Temp\ccIqmgX7.s 			page 20


 824              		.align	2
 825              	.LC15:
 826 0238 5B496E69 		.ascii	"[Init] MoVI UART ready\015\012\000"
 826      745D204D 
 826      6F564920 
 826      55415254 
 826      20726561 
 827 0251 000000   		.align	2
 828              	.LC16:
 829 0254 5B496E69 		.ascii	"[Init] ADC + Joystick ready\015\012\000"
 829      745D2041 
 829      4443202B 
 829      204A6F79 
 829      73746963 
 830 0272 0000     		.align	2
 831              	.LC17:
 832 0274 5B496E69 		.ascii	"[Init] Loop timer ready\015\012\000"
 832      745D204C 
 832      6F6F7020 
 832      74696D65 
 832      72207265 
 833 028e 0000     		.align	2
 834              	.LC18:
 835 0290 5B434C49 		.ascii	"[CLI] Joystick ON\015\012\000"
 835      5D204A6F 
 835      79737469 
 835      636B204F 
 835      4E0D0A00 
 836              		.align	2
 837              	.LC19:
 838 02a4 5B434C49 		.ascii	"[CLI] Joystick OFF\015\012\000"
 838      5D204A6F 
 838      79737469 
 838      636B204F 
 838      46460D0A 
 839 02b9 000000   		.align	2
 840              	.LC20:
 841 02bc 5B434C49 		.ascii	"[CLI] MoVI comms ON\015\012\000"
 841      5D204D6F 
 841      56492063 
 841      6F6D6D73 
 841      204F4E0D 
 842 02d2 0000     		.align	2
 843              	.LC21:
 844 02d4 5B434C49 		.ascii	"[CLI] MoVI comms OFF\015\012\000"
 844      5D204D6F 
 844      56492063 
 844      6F6D6D73 
 844      204F4646 
 845 02eb 00       		.align	2
 846              	.LC22:
 847 02ec 5B434C49 		.ascii	"[CLI] Mode: %s\015\012\000"
 847      5D204D6F 
 847      64653A20 
 847      25730D0A 
 847      00
 848 02fd 000000   		.align	2
ARM GAS  C:\Users\JENNEW~1\AppData\Local\Temp\ccIqmgX7.s 			page 21


 849              	.LC23:
 850 0300 5B434C49 		.ascii	"[CLI] Output paused. Press j or m to resume.\015\012"
 850      5D204F75 
 850      74707574 
 850      20706175 
 850      7365642E 
 851 032e 00       		.ascii	"\000"
 852 032f 00       		.align	2
 853              	.LC24:
 854 0330 5B434C49 		.ascii	"[CLI] ADC stream ON\015\012\000"
 854      5D204144 
 854      43207374 
 854      7265616D 
 854      204F4E0D 
 855 0346 0000     		.align	2
 856              	.LC25:
 857 0348 5B434C49 		.ascii	"[CLI] ADC stream OFF\015\012\000"
 857      5D204144 
 857      43207374 
 857      7265616D 
 857      204F4646 
 858 035f 00       		.align	2
 859              	.LC26:
 860 0360 583A256C 		.ascii	"X:%ld mV Y:%ld mV  pan:%d/1000  tilt:%d/1000\015\012"
 860      64206D56 
 860      20593A25 
 860      6C64206D 
 860      56202070 
 861 038e 00       		.ascii	"\000"
 862 038f 00       		.align	2
 863              	.LC27:
 864 0390 5B43414C 		.ascii	"[CAL] Center samples: %u/%u\015\012\000"
 864      5D204365 
 864      6E746572 
 864      2073616D 
 864      706C6573 
 865 03ae 0000     		.align	2
 866              	.LC28:
 867 03b0 20202530 		.ascii	"  %02lu:%02lu:%02lu\015\012\000"
 867      326C753A 
 867      2530326C 
 867      753A2530 
 867      326C750D 
 868 03c6 0000     		.align	2
 869              	.LC29:
 870 03c8 4F4E2000 		.ascii	"ON \000"
 871              		.align	2
 872              	.LC30:
 873 03cc 4F464600 		.ascii	"OFF\000"
 874              		.align	2
 875              	.LC31:
 876 03d0 5B536572 		.ascii	"[Serial]    TX:%lu RX:%lu | csum:%lu err:0x%02X | C"
 876      69616C5D 
 876      20202020 
 876      54583A25 
 876      6C752052 
 877 0403 4F4D4D53 		.ascii	"OMMS:%s JOYSTICK:%s\015\012\000"
ARM GAS  C:\Users\JENNEW~1\AppData\Local\Temp\ccIqmgX7.s 			page 22


 877      3A257320 
 877      4A4F5953 
 877      5449434B 
 877      3A25730D 
 878 0419 000000   		.align	2
 879              	.LC32:
 880 041c 5B537461 		.ascii	"[Status]    Pan=%c%3d.%02d  Tilt=%c%3d.%02d  Roll=%"
 880      7475735D 
 880      20202020 
 880      50616E3D 
 880      25632533 
 881 044f 63253364 		.ascii	"c%3d.%02d | L=%2d.%1dV R=%2d.%1dV | IMU:%d DRV:%d E"
 881      2E253032 
 881      64207C20 
 881      4C3D2532 
 881      642E2531 
 882 0482 52523A25 		.ascii	"RR:%d\015\012\000"
 882      640D0A00 
 883 048a 0000     		.align	2
 884              	.LC33:
 885 048c 5B537461 		.ascii	"[Status]    No valid frame yet\015\012\000"
 885      7475735D 
 885      20202020 
 885      4E6F2076 
 885      616C6964 
 886 04ad 000000   		.align	2
 887              	.LC34:
 888 04b0 5B4A6F79 		.ascii	"[Joystick]  L/R=%c%d.%02d (%s)  U/D=%c%d.%02d (%s)\015"
 888      73746963 
 888      6B5D2020 
 888      4C2F523D 
 888      25632564 
 889 04e3 0A00     		.ascii	"\012\000"
 890              		.section	.text.main,"ax",%progbits
 891              		.align	2
 892              		.global	main
 893              		.thumb
 894              		.thumb_func
 895              		.type	main, %function
 896              	main:
 897              	.LFB72:
 192:main.c        **** 
 193:main.c        **** /* =========================================================================
 194:main.c        ****  * main
 195:main.c        ****  * ========================================================================= */
 196:main.c        **** int main(void)
 197:main.c        **** {
 898              		.loc 1 197 0
 899              		.cfi_startproc
 900              		@ args = 0, pretend = 0, frame = 384
 901              		@ frame_needed = 1, uses_anonymous_args = 0
 902 0000 2DE9F043 		push	{r4, r5, r6, r7, r8, r9, lr}
 903              		.cfi_def_cfa_offset 28
 904              		.cfi_offset 4, -28
 905              		.cfi_offset 5, -24
 906              		.cfi_offset 6, -20
 907              		.cfi_offset 7, -16
ARM GAS  C:\Users\JENNEW~1\AppData\Local\Temp\ccIqmgX7.s 			page 23


 908              		.cfi_offset 8, -12
 909              		.cfi_offset 9, -8
 910              		.cfi_offset 14, -4
 911 0004 EFB0     		sub	sp, sp, #444
 912              		.cfi_def_cfa_offset 472
 913 0006 0EAF     		add	r7, sp, #56
 914              		.cfi_def_cfa 7, 416
 198:main.c        ****     char tx[TRANSMIT_BUFFER_SIZE];
 199:main.c        ****     uint8 ch;
 200:main.c        **** 
 201:main.c        ****     /* --- State flags --- */
 202:main.c        ****     uint8 joystick_active = FALSE;  /* 'j' — feeds joystick -> ctl         */
 915              		.loc 1 202 0
 916 0008 0023     		movs	r3, #0
 917 000a 87F8A730 		strb	r3, [r7, #167]
 203:main.c        ****     uint8 movi_active     = FALSE;  /* 'm' — sends QX packets to MoVI      */
 918              		.loc 1 203 0
 919 000e 0023     		movs	r3, #0
 920 0010 87F8A630 		strb	r3, [r7, #166]
 204:main.c        ****     uint8 streaming_adc   = FALSE;  /* 's' — raw ADC debug stream           */
 921              		.loc 1 204 0
 922 0014 0023     		movs	r3, #0
 923 0016 87F8A530 		strb	r3, [r7, #165]
 205:main.c        ****     uint8 diag_active     = FALSE;  /* printing suppressed until j or m ON  */
 924              		.loc 1 205 0
 925 001a 0023     		movs	r3, #0
 926 001c 87F87F31 		strb	r3, [r7, #383]
 206:main.c        **** 
 207:main.c        ****     /* --- Control mode (both axes share one mode) --- */
 208:main.c        ****     ff_api_control_type_e ctrl_mode = DEFER;
 927              		.loc 1 208 0
 928 0020 0023     		movs	r3, #0
 929 0022 87F8A430 		strb	r3, [r7, #164]
 209:main.c        **** 
 210:main.c        ****     /* --- Timers --- */
 211:main.c        ****     static uint32 last_tx_ms = 0u;
 212:main.c        **** 
 213:main.c        ****     /* --- ADC / joystick --- */
 214:main.c        ****     int16     counts[N_CH];
 215:main.c        ****     joy_cmd_t cmd;
 216:main.c        ****     cmd.u[0] = 0.0f;
 930              		.loc 1 216 0
 931 0026 4FF00003 		mov	r3, #0
 932 002a C7F89830 		str	r3, [r7, #152]	@ float
 217:main.c        ****     cmd.u[1] = 0.0f;
 933              		.loc 1 217 0
 934 002e 4FF00003 		mov	r3, #0
 935 0032 C7F89C30 		str	r3, [r7, #156]	@ float
 218:main.c        **** 
 219:main.c        ****     /* --- MoVI control struct --- */
 220:main.c        ****     movi_control_t ctl;
 221:main.c        **** 
 222:main.c        ****     /* --- Calibration state --- */
 223:main.c        ****     joy_cal_state_t cal_prev = JOY_CAL_OFF;
 936              		.loc 1 223 0
 937 0036 0023     		movs	r3, #0
 938 0038 87F87E31 		strb	r3, [r7, #382]
ARM GAS  C:\Users\JENNEW~1\AppData\Local\Temp\ccIqmgX7.s 			page 24


 224:main.c        **** 
 225:main.c        ****     /* --- Default calibration (best-guess until user calibrates) --- */
 226:main.c        ****     joy_cal_t defaults;
 227:main.c        ****     uint8 i;
 228:main.c        ****     for (i = 0u; i < (uint8)N_CH; i++) {
 939              		.loc 1 228 0
 940 003c 0023     		movs	r3, #0
 941 003e 87F87D31 		strb	r3, [r7, #381]
 942 0042 1BE0     		b	.L59
 943              	.L60:
 229:main.c        ****         defaults.minv[i]   = 0;
 944              		.loc 1 229 0 discriminator 3
 945 0044 97F87D21 		ldrb	r2, [r7, #381]	@ zero_extendqisi2
 946 0048 07F17403 		add	r3, r7, #116
 947 004c 0021     		movs	r1, #0
 948 004e 23F81210 		strh	r1, [r3, r2, lsl #1]	@ movhi
 230:main.c        ****         defaults.maxv[i]   = 255;
 949              		.loc 1 230 0 discriminator 3
 950 0052 97F87D31 		ldrb	r3, [r7, #381]	@ zero_extendqisi2
 951 0056 07F17402 		add	r2, r7, #116
 952 005a 5B00     		lsls	r3, r3, #1
 953 005c 1344     		add	r3, r3, r2
 954 005e FF22     		movs	r2, #255
 955 0060 9A80     		strh	r2, [r3, #4]	@ movhi
 231:main.c        ****         defaults.center[i] = 128;
 956              		.loc 1 231 0 discriminator 3
 957 0062 97F87D21 		ldrb	r2, [r7, #381]	@ zero_extendqisi2
 958 0066 07F17403 		add	r3, r7, #116
 959 006a 0432     		adds	r2, r2, #4
 960 006c 8021     		movs	r1, #128
 961 006e 23F81210 		strh	r1, [r3, r2, lsl #1]	@ movhi
 228:main.c        ****         defaults.minv[i]   = 0;
 962              		.loc 1 228 0 discriminator 3
 963 0072 97F87D31 		ldrb	r3, [r7, #381]	@ zero_extendqisi2
 964 0076 0133     		adds	r3, r3, #1
 965 0078 87F87D31 		strb	r3, [r7, #381]
 966              	.L59:
 228:main.c        ****         defaults.minv[i]   = 0;
 967              		.loc 1 228 0 is_stmt 0 discriminator 1
 968 007c 97F87D31 		ldrb	r3, [r7, #381]	@ zero_extendqisi2
 969 0080 012B     		cmp	r3, #1
 970 0082 DFD9     		bls	.L60
 232:main.c        ****     }
 233:main.c        ****     defaults.valid = 0u;
 971              		.loc 1 233 0 is_stmt 1
 972 0084 07F17403 		add	r3, r7, #116
 973 0088 0022     		movs	r2, #0
 974 008a 1A73     		strb	r2, [r3, #12]
 234:main.c        **** 
 235:main.c        ****     /* Flip X axis so rightward stick = positive pan */
 236:main.c        ****     uint32 invert_mask = (1u << CH_X);
 975              		.loc 1 236 0
 976 008c 0123     		movs	r3, #1
 977 008e C7F87831 		str	r3, [r7, #376]
 237:main.c        **** 
 238:main.c        ****     /* ------------------------------------------------------------------ */
 239:main.c        ****     /* Hardware init                                                        */
ARM GAS  C:\Users\JENNEW~1\AppData\Local\Temp\ccIqmgX7.s 			page 25


 240:main.c        ****     /* ------------------------------------------------------------------ */
 241:main.c        ****     CyGlobalIntEnable;
 978              		.loc 1 241 0
 979              		.syntax unified
 980              	@ 241 "main.c" 1
 981 0092 62B6     		CPSIE   i
 982              	@ 0 "" 2
 242:main.c        **** 
 243:main.c        ****     UART_1_Start();
 983              		.loc 1 243 0
 984              		.thumb
 985              		.syntax unified
 986 0094 FFF7FEFF 		bl	UART_1_Start
 244:main.c        ****     UART_1_PutString("\r\n========================================\r\n");
 987              		.loc 1 244 0
 988 0098 7D48     		ldr	r0, .L99
 989 009a FFF7FEFF 		bl	UART_1_PutString
 245:main.c        ****     UART_1_PutString("  MoVI Pro Controller  PSoC 5LP\r\n");
 990              		.loc 1 245 0
 991 009e 7D48     		ldr	r0, .L99+4
 992 00a0 FFF7FEFF 		bl	UART_1_PutString
 246:main.c        ****     UART_1_PutString("========================================\r\n");
 993              		.loc 1 246 0
 994 00a4 7C48     		ldr	r0, .L99+8
 995 00a6 FFF7FEFF 		bl	UART_1_PutString
 247:main.c        ****     UART_1_PutString("  j=joystick  m=movi  l=mode  s=adc\r\n");
 996              		.loc 1 247 0
 997 00aa 7C48     		ldr	r0, .L99+12
 998 00ac FFF7FEFF 		bl	UART_1_PutString
 248:main.c        ****     UART_1_PutString("  c=cal  k=kill  x=kill+quiet\r\n");
 999              		.loc 1 248 0
 1000 00b0 7B48     		ldr	r0, .L99+16
 1001 00b2 FFF7FEFF 		bl	UART_1_PutString
 249:main.c        ****     UART_1_PutString("========================================\r\n");
 1002              		.loc 1 249 0
 1003 00b6 7848     		ldr	r0, .L99+8
 1004 00b8 FFF7FEFF 		bl	UART_1_PutString
 250:main.c        **** 
 251:main.c        ****     UART_MOVI_Start();
 1005              		.loc 1 251 0
 1006 00bc FFF7FEFF 		bl	UART_MOVI_Start
 252:main.c        ****     UART_MOVI_ClearRxBuffer();
 1007              		.loc 1 252 0
 1008 00c0 FFF7FEFF 		bl	UART_MOVI_ClearRxBuffer
 253:main.c        ****     UART_MOVI_ClearTxBuffer();
 1009              		.loc 1 253 0
 1010 00c4 FFF7FEFF 		bl	UART_MOVI_ClearTxBuffer
 254:main.c        **** 
 255:main.c        ****     movi_comm_init(&g_movi, &MOVI_HAL);
 1011              		.loc 1 255 0
 1012 00c8 7649     		ldr	r1, .L99+20
 1013 00ca 7748     		ldr	r0, .L99+24
 1014 00cc FFF7FEFF 		bl	movi_comm_init
 256:main.c        ****     isr_rx_movi_StartEx(isr_rx_movi_Handler);
 1015              		.loc 1 256 0
 1016 00d0 7648     		ldr	r0, .L99+28
 1017 00d2 FFF7FEFF 		bl	isr_rx_movi_StartEx
ARM GAS  C:\Users\JENNEW~1\AppData\Local\Temp\ccIqmgX7.s 			page 26


 257:main.c        ****     UART_1_PutString("[Init] MoVI UART ready\r\n");
 1018              		.loc 1 257 0
 1019 00d6 7648     		ldr	r0, .L99+32
 1020 00d8 FFF7FEFF 		bl	UART_1_PutString
 258:main.c        **** 
 259:main.c        ****     joystick_init(&defaults, invert_mask);
 1021              		.loc 1 259 0
 1022 00dc 07F17403 		add	r3, r7, #116
 1023 00e0 D7F87811 		ldr	r1, [r7, #376]
 1024 00e4 1846     		mov	r0, r3
 1025 00e6 FFF7FEFF 		bl	joystick_init
 260:main.c        ****     adc_balanced_init();
 1026              		.loc 1 260 0
 1027 00ea FFF7FEFF 		bl	adc_balanced_init
 261:main.c        ****     UART_1_PutString("[Init] ADC + Joystick ready\r\n");
 1028              		.loc 1 261 0
 1029 00ee 7148     		ldr	r0, .L99+36
 1030 00f0 FFF7FEFF 		bl	UART_1_PutString
 262:main.c        **** 
 263:main.c        ****     Looptimer_Start();
 1031              		.loc 1 263 0
 1032 00f4 FFF7FEFF 		bl	Looptimer_Start
 264:main.c        ****     isr_Looptimer_StartEx(isr_Looptimer_Handler);
 1033              		.loc 1 264 0
 1034 00f8 6F48     		ldr	r0, .L99+40
 1035 00fa FFF7FEFF 		bl	isr_Looptimer_StartEx
 265:main.c        ****     UART_1_PutString("[Init] Loop timer ready\r\n");
 1036              		.loc 1 265 0
 1037 00fe 6F48     		ldr	r0, .L99+44
 1038 0100 FFF7FEFF 		bl	UART_1_PutString
 1039              	.L98:
 266:main.c        **** 
 267:main.c        ****     /* ------------------------------------------------------------------ */
 268:main.c        ****     /* Main loop                                                            */
 269:main.c        ****     /* ------------------------------------------------------------------ */
 270:main.c        ****     for (;;)
 271:main.c        ****     {
 272:main.c        ****         /* ==============================================================
 273:main.c        ****          * Step 1: CLI input
 274:main.c        ****          * ============================================================== */
 275:main.c        ****         ch = (uint8)UART_1_GetChar();
 1040              		.loc 1 275 0
 1041 0104 FFF7FEFF 		bl	UART_1_GetChar
 1042 0108 0346     		mov	r3, r0
 1043 010a 87F87731 		strb	r3, [r7, #375]
 276:main.c        **** 
 277:main.c        ****         if (ch == 'j' || ch == 'J')
 1044              		.loc 1 277 0
 1045 010e 97F87731 		ldrb	r3, [r7, #375]	@ zero_extendqisi2
 1046 0112 6A2B     		cmp	r3, #106
 1047 0114 03D0     		beq	.L61
 1048              		.loc 1 277 0 is_stmt 0 discriminator 1
 1049 0116 97F87731 		ldrb	r3, [r7, #375]	@ zero_extendqisi2
 1050 011a 4A2B     		cmp	r3, #74
 1051 011c 1AD1     		bne	.L62
 1052              	.L61:
 278:main.c        ****         {
ARM GAS  C:\Users\JENNEW~1\AppData\Local\Temp\ccIqmgX7.s 			page 27


 279:main.c        ****             joystick_active = !joystick_active;
 1053              		.loc 1 279 0 is_stmt 1
 1054 011e 97F8A730 		ldrb	r3, [r7, #167]	@ zero_extendqisi2
 1055 0122 002B     		cmp	r3, #0
 1056 0124 0CBF     		ite	eq
 1057 0126 0123     		moveq	r3, #1
 1058 0128 0023     		movne	r3, #0
 1059 012a DBB2     		uxtb	r3, r3
 1060 012c 87F8A730 		strb	r3, [r7, #167]
 280:main.c        ****             if (joystick_active) diag_active = TRUE;
 1061              		.loc 1 280 0
 1062 0130 97F8A730 		ldrb	r3, [r7, #167]	@ zero_extendqisi2
 1063 0134 002B     		cmp	r3, #0
 1064 0136 02D0     		beq	.L63
 1065              		.loc 1 280 0 is_stmt 0 discriminator 1
 1066 0138 0123     		movs	r3, #1
 1067 013a 87F87F31 		strb	r3, [r7, #383]
 1068              	.L63:
 281:main.c        ****             UART_1_PutString(joystick_active
 282:main.c        ****                 ? "[CLI] Joystick ON\r\n"
 1069              		.loc 1 282 0 is_stmt 1
 1070 013e 97F8A730 		ldrb	r3, [r7, #167]	@ zero_extendqisi2
 281:main.c        ****             UART_1_PutString(joystick_active
 1071              		.loc 1 281 0
 1072 0142 002B     		cmp	r3, #0
 1073 0144 01D0     		beq	.L64
 281:main.c        ****             UART_1_PutString(joystick_active
 1074              		.loc 1 281 0 is_stmt 0 discriminator 1
 1075 0146 5E4B     		ldr	r3, .L99+48
 1076 0148 00E0     		b	.L65
 1077              	.L64:
 281:main.c        ****             UART_1_PutString(joystick_active
 1078              		.loc 1 281 0 discriminator 2
 1079 014a 5E4B     		ldr	r3, .L99+52
 1080              	.L65:
 281:main.c        ****             UART_1_PutString(joystick_active
 1081              		.loc 1 281 0 discriminator 4
 1082 014c 1846     		mov	r0, r3
 1083 014e FFF7FEFF 		bl	UART_1_PutString
 1084 0152 D0E0     		b	.L66
 1085              	.L62:
 283:main.c        ****                 : "[CLI] Joystick OFF\r\n");
 284:main.c        ****         }
 285:main.c        ****         else if (ch == 'm' || ch == 'M')
 1086              		.loc 1 285 0 is_stmt 1
 1087 0154 97F87731 		ldrb	r3, [r7, #375]	@ zero_extendqisi2
 1088 0158 6D2B     		cmp	r3, #109
 1089 015a 03D0     		beq	.L67
 1090              		.loc 1 285 0 is_stmt 0 discriminator 1
 1091 015c 97F87731 		ldrb	r3, [r7, #375]	@ zero_extendqisi2
 1092 0160 4D2B     		cmp	r3, #77
 1093 0162 1AD1     		bne	.L68
 1094              	.L67:
 286:main.c        ****         {
 287:main.c        ****             movi_active = !movi_active;
 1095              		.loc 1 287 0 is_stmt 1
 1096 0164 97F8A630 		ldrb	r3, [r7, #166]	@ zero_extendqisi2
ARM GAS  C:\Users\JENNEW~1\AppData\Local\Temp\ccIqmgX7.s 			page 28


 1097 0168 002B     		cmp	r3, #0
 1098 016a 0CBF     		ite	eq
 1099 016c 0123     		moveq	r3, #1
 1100 016e 0023     		movne	r3, #0
 1101 0170 DBB2     		uxtb	r3, r3
 1102 0172 87F8A630 		strb	r3, [r7, #166]
 288:main.c        ****             if (movi_active) diag_active = TRUE;
 1103              		.loc 1 288 0
 1104 0176 97F8A630 		ldrb	r3, [r7, #166]	@ zero_extendqisi2
 1105 017a 002B     		cmp	r3, #0
 1106 017c 02D0     		beq	.L69
 1107              		.loc 1 288 0 is_stmt 0 discriminator 1
 1108 017e 0123     		movs	r3, #1
 1109 0180 87F87F31 		strb	r3, [r7, #383]
 1110              	.L69:
 289:main.c        ****             UART_1_PutString(movi_active
 290:main.c        ****                 ? "[CLI] MoVI comms ON\r\n"
 1111              		.loc 1 290 0 is_stmt 1
 1112 0184 97F8A630 		ldrb	r3, [r7, #166]	@ zero_extendqisi2
 289:main.c        ****             UART_1_PutString(movi_active
 1113              		.loc 1 289 0
 1114 0188 002B     		cmp	r3, #0
 1115 018a 01D0     		beq	.L70
 289:main.c        ****             UART_1_PutString(movi_active
 1116              		.loc 1 289 0 is_stmt 0 discriminator 1
 1117 018c 4E4B     		ldr	r3, .L99+56
 1118 018e 00E0     		b	.L71
 1119              	.L70:
 289:main.c        ****             UART_1_PutString(movi_active
 1120              		.loc 1 289 0 discriminator 2
 1121 0190 4E4B     		ldr	r3, .L99+60
 1122              	.L71:
 289:main.c        ****             UART_1_PutString(movi_active
 1123              		.loc 1 289 0 discriminator 4
 1124 0192 1846     		mov	r0, r3
 1125 0194 FFF7FEFF 		bl	UART_1_PutString
 1126 0198 ADE0     		b	.L66
 1127              	.L68:
 291:main.c        ****                 : "[CLI] MoVI comms OFF\r\n");
 292:main.c        ****         }
 293:main.c        ****         else if (ch == 'l' || ch == 'L')
 1128              		.loc 1 293 0 is_stmt 1
 1129 019a 97F87731 		ldrb	r3, [r7, #375]	@ zero_extendqisi2
 1130 019e 6C2B     		cmp	r3, #108
 1131 01a0 03D0     		beq	.L72
 1132              		.loc 1 293 0 is_stmt 0 discriminator 1
 1133 01a2 97F87731 		ldrb	r3, [r7, #375]	@ zero_extendqisi2
 1134 01a6 4C2B     		cmp	r3, #76
 1135 01a8 24D1     		bne	.L73
 1136              	.L72:
 294:main.c        ****         {
 295:main.c        ****             /* Cycle DEFER -> RATE -> ABSOLUTE -> DEFER */
 296:main.c        ****             if      (ctrl_mode == DEFER)    ctrl_mode = RATE;
 1137              		.loc 1 296 0 is_stmt 1
 1138 01aa 97F8A430 		ldrb	r3, [r7, #164]	@ zero_extendqisi2
 1139 01ae 002B     		cmp	r3, #0
 1140 01b0 03D1     		bne	.L74
ARM GAS  C:\Users\JENNEW~1\AppData\Local\Temp\ccIqmgX7.s 			page 29


 1141              		.loc 1 296 0 is_stmt 0 discriminator 1
 1142 01b2 0123     		movs	r3, #1
 1143 01b4 87F8A430 		strb	r3, [r7, #164]
 1144 01b8 0AE0     		b	.L75
 1145              	.L74:
 297:main.c        ****             else if (ctrl_mode == RATE)     ctrl_mode = ABSOLUTE;
 1146              		.loc 1 297 0 is_stmt 1
 1147 01ba 97F8A430 		ldrb	r3, [r7, #164]	@ zero_extendqisi2
 1148 01be 012B     		cmp	r3, #1
 1149 01c0 03D1     		bne	.L76
 1150              		.loc 1 297 0 is_stmt 0 discriminator 1
 1151 01c2 0223     		movs	r3, #2
 1152 01c4 87F8A430 		strb	r3, [r7, #164]
 1153 01c8 02E0     		b	.L75
 1154              	.L76:
 298:main.c        ****             else                            ctrl_mode = DEFER;
 1155              		.loc 1 298 0 is_stmt 1
 1156 01ca 0023     		movs	r3, #0
 1157 01cc 87F8A430 		strb	r3, [r7, #164]
 1158              	.L75:
 299:main.c        **** 
 300:main.c        ****             sprintf(tx, "[CLI] Mode: %s\r\n", mode_str(ctrl_mode));
 1159              		.loc 1 300 0
 1160 01d0 97F8A430 		ldrb	r3, [r7, #164]	@ zero_extendqisi2
 1161 01d4 1846     		mov	r0, r3
 1162 01d6 FFF7FEFF 		bl	mode_str
 1163 01da 0246     		mov	r2, r0
 1164 01dc 07F1A803 		add	r3, r7, #168
 1165 01e0 3B49     		ldr	r1, .L99+64
 1166 01e2 1846     		mov	r0, r3
 1167 01e4 FFF7FEFF 		bl	sprintf
 301:main.c        ****             UART_1_PutString(tx);
 1168              		.loc 1 301 0
 1169 01e8 07F1A803 		add	r3, r7, #168
 1170 01ec 1846     		mov	r0, r3
 1171 01ee FFF7FEFF 		bl	UART_1_PutString
 1172 01f2 80E0     		b	.L66
 1173              	.L73:
 302:main.c        ****         }
 303:main.c        ****         else if (ch == 'k' || ch == 'K')
 1174              		.loc 1 303 0
 1175 01f4 97F87731 		ldrb	r3, [r7, #375]	@ zero_extendqisi2
 1176 01f8 6B2B     		cmp	r3, #107
 1177 01fa 03D0     		beq	.L77
 1178              		.loc 1 303 0 is_stmt 0 discriminator 1
 1179 01fc 97F87731 		ldrb	r3, [r7, #375]	@ zero_extendqisi2
 1180 0200 4B2B     		cmp	r3, #75
 1181 0202 0DD1     		bne	.L78
 1182              	.L77:
 304:main.c        ****         {
 305:main.c        ****             do_kill(&g_movi, &joystick_active, &movi_active,
 1183              		.loc 1 305 0 is_stmt 1
 1184 0204 07F1A500 		add	r0, r7, #165
 1185 0208 07F1A602 		add	r2, r7, #166
 1186 020c 07F1A701 		add	r1, r7, #167
 1187 0210 07F1A403 		add	r3, r7, #164
 1188 0214 0093     		str	r3, [sp]
ARM GAS  C:\Users\JENNEW~1\AppData\Local\Temp\ccIqmgX7.s 			page 30


 1189 0216 0346     		mov	r3, r0
 1190 0218 2348     		ldr	r0, .L99+24
 1191 021a FFF7FEFF 		bl	do_kill
 1192 021e 6AE0     		b	.L66
 1193              	.L78:
 306:main.c        ****                     &streaming_adc, &ctrl_mode);
 307:main.c        ****             /* diag_active unchanged — keep printing */
 308:main.c        ****         }
 309:main.c        ****         else if (ch == 'x' || ch == 'X')
 1194              		.loc 1 309 0
 1195 0220 97F87731 		ldrb	r3, [r7, #375]	@ zero_extendqisi2
 1196 0224 782B     		cmp	r3, #120
 1197 0226 03D0     		beq	.L79
 1198              		.loc 1 309 0 is_stmt 0 discriminator 1
 1199 0228 97F87731 		ldrb	r3, [r7, #375]	@ zero_extendqisi2
 1200 022c 582B     		cmp	r3, #88
 1201 022e 13D1     		bne	.L80
 1202              	.L79:
 310:main.c        ****         {
 311:main.c        ****             do_kill(&g_movi, &joystick_active, &movi_active,
 1203              		.loc 1 311 0 is_stmt 1
 1204 0230 07F1A500 		add	r0, r7, #165
 1205 0234 07F1A602 		add	r2, r7, #166
 1206 0238 07F1A701 		add	r1, r7, #167
 1207 023c 07F1A403 		add	r3, r7, #164
 1208 0240 0093     		str	r3, [sp]
 1209 0242 0346     		mov	r3, r0
 1210 0244 1848     		ldr	r0, .L99+24
 1211 0246 FFF7FEFF 		bl	do_kill
 312:main.c        ****                     &streaming_adc, &ctrl_mode);
 313:main.c        ****             diag_active = FALSE;
 1212              		.loc 1 313 0
 1213 024a 0023     		movs	r3, #0
 1214 024c 87F87F31 		strb	r3, [r7, #383]
 314:main.c        ****             UART_1_PutString("[CLI] Output paused. Press j or m to resume.\r\n");
 1215              		.loc 1 314 0
 1216 0250 2048     		ldr	r0, .L99+68
 1217 0252 FFF7FEFF 		bl	UART_1_PutString
 1218 0256 4EE0     		b	.L66
 1219              	.L80:
 315:main.c        ****         }
 316:main.c        ****         else if (ch == 's' || ch == 'S')
 1220              		.loc 1 316 0
 1221 0258 97F87731 		ldrb	r3, [r7, #375]	@ zero_extendqisi2
 1222 025c 732B     		cmp	r3, #115
 1223 025e 03D0     		beq	.L81
 1224              		.loc 1 316 0 is_stmt 0 discriminator 1
 1225 0260 97F87731 		ldrb	r3, [r7, #375]	@ zero_extendqisi2
 1226 0264 532B     		cmp	r3, #83
 1227 0266 3BD1     		bne	.L82
 1228              	.L81:
 317:main.c        ****         {
 318:main.c        ****             streaming_adc = !streaming_adc;
 1229              		.loc 1 318 0 is_stmt 1
 1230 0268 97F8A530 		ldrb	r3, [r7, #165]	@ zero_extendqisi2
 1231 026c 002B     		cmp	r3, #0
 1232 026e 0CBF     		ite	eq
ARM GAS  C:\Users\JENNEW~1\AppData\Local\Temp\ccIqmgX7.s 			page 31


 1233 0270 0123     		moveq	r3, #1
 1234 0272 0023     		movne	r3, #0
 1235 0274 DBB2     		uxtb	r3, r3
 1236 0276 87F8A530 		strb	r3, [r7, #165]
 319:main.c        ****             UART_1_PutString(streaming_adc
 320:main.c        ****                 ? "[CLI] ADC stream ON\r\n"
 1237              		.loc 1 320 0
 1238 027a 97F8A530 		ldrb	r3, [r7, #165]	@ zero_extendqisi2
 319:main.c        ****             UART_1_PutString(streaming_adc
 1239              		.loc 1 319 0
 1240 027e 002B     		cmp	r3, #0
 1241 0280 01D0     		beq	.L83
 319:main.c        ****             UART_1_PutString(streaming_adc
 1242              		.loc 1 319 0 is_stmt 0 discriminator 1
 1243 0282 154B     		ldr	r3, .L99+72
 1244 0284 00E0     		b	.L84
 1245              	.L83:
 319:main.c        ****             UART_1_PutString(streaming_adc
 1246              		.loc 1 319 0 discriminator 2
 1247 0286 154B     		ldr	r3, .L99+76
 1248              	.L84:
 319:main.c        ****             UART_1_PutString(streaming_adc
 1249              		.loc 1 319 0 discriminator 4
 1250 0288 1846     		mov	r0, r3
 1251 028a FFF7FEFF 		bl	UART_1_PutString
 1252 028e 32E0     		b	.L66
 1253              	.L100:
 1254              		.align	2
 1255              	.L99:
 1256 0290 70010000 		.word	.LC10
 1257 0294 A0010000 		.word	.LC11
 1258 0298 C4010000 		.word	.LC12
 1259 029c F0010000 		.word	.LC13
 1260 02a0 18020000 		.word	.LC14
 1261 02a4 2C010000 		.word	MOVI_HAL
 1262 02a8 00000000 		.word	g_movi
 1263 02ac 00000000 		.word	isr_rx_movi_Handler
 1264 02b0 38020000 		.word	.LC15
 1265 02b4 54020000 		.word	.LC16
 1266 02b8 00000000 		.word	isr_Looptimer_Handler
 1267 02bc 74020000 		.word	.LC17
 1268 02c0 90020000 		.word	.LC18
 1269 02c4 A4020000 		.word	.LC19
 1270 02c8 BC020000 		.word	.LC20
 1271 02cc D4020000 		.word	.LC21
 1272 02d0 EC020000 		.word	.LC22
 1273 02d4 00030000 		.word	.LC23
 1274 02d8 30030000 		.word	.LC24
 1275 02dc 48030000 		.word	.LC25
 1276              	.L82:
 321:main.c        ****                 : "[CLI] ADC stream OFF\r\n");
 322:main.c        ****         }
 323:main.c        ****         else if (ch == 'c' || ch == 'C')
 1277              		.loc 1 323 0 is_stmt 1
 1278 02e0 97F87731 		ldrb	r3, [r7, #375]	@ zero_extendqisi2
 1279 02e4 632B     		cmp	r3, #99
 1280 02e6 03D0     		beq	.L85
ARM GAS  C:\Users\JENNEW~1\AppData\Local\Temp\ccIqmgX7.s 			page 32


 1281              		.loc 1 323 0 is_stmt 0 discriminator 1
 1282 02e8 97F87731 		ldrb	r3, [r7, #375]	@ zero_extendqisi2
 1283 02ec 432B     		cmp	r3, #67
 1284 02ee 02D1     		bne	.L66
 1285              	.L85:
 324:main.c        ****         {
 325:main.c        ****             joystick_on_key('c');
 1286              		.loc 1 325 0 is_stmt 1
 1287 02f0 6320     		movs	r0, #99
 1288 02f2 FFF7FEFF 		bl	joystick_on_key
 1289              	.L66:
 1290              	.LBB3:
 326:main.c        ****         }
 327:main.c        **** 
 328:main.c        ****         /* Calibration state change prompts */
 329:main.c        ****         {
 330:main.c        ****             joy_cal_state_t cal_now = joystick_cal_state();
 1291              		.loc 1 330 0
 1292 02f6 FFF7FEFF 		bl	joystick_cal_state
 1293 02fa 0346     		mov	r3, r0
 1294 02fc 87F87631 		strb	r3, [r7, #374]
 331:main.c        ****             print_cal_prompt_on_state_change(cal_prev, cal_now);
 1295              		.loc 1 331 0
 1296 0300 97F87621 		ldrb	r2, [r7, #374]	@ zero_extendqisi2
 1297 0304 97F87E31 		ldrb	r3, [r7, #382]	@ zero_extendqisi2
 1298 0308 1146     		mov	r1, r2
 1299 030a 1846     		mov	r0, r3
 1300 030c FFF7FEFF 		bl	print_cal_prompt_on_state_change
 332:main.c        ****             cal_prev = cal_now;
 1301              		.loc 1 332 0
 1302 0310 97F87631 		ldrb	r3, [r7, #374]
 1303 0314 87F87E31 		strb	r3, [r7, #382]
 1304              	.LBE3:
 333:main.c        ****         }
 334:main.c        **** 
 335:main.c        ****         /* ==============================================================
 336:main.c        ****          * Step 2: RX pump — ALWAYS, every iteration
 337:main.c        ****          * ============================================================== */
 338:main.c        ****         movi_comm_pump(&g_movi);
 1305              		.loc 1 338 0
 1306 0318 A248     		ldr	r0, .L101
 1307 031a FFF7FEFF 		bl	movi_comm_pump
 339:main.c        **** 
 340:main.c        ****         /* ==============================================================
 341:main.c        ****          * Step 3: ADC + joystick — ALWAYS (keeps cal working when inactive)
 342:main.c        ****          * ============================================================== */
 343:main.c        ****         if (adc_balanced_poll_frame(counts))
 1308              		.loc 1 343 0
 1309 031e 07F1A003 		add	r3, r7, #160
 1310 0322 1846     		mov	r0, r3
 1311 0324 FFF7FEFF 		bl	adc_balanced_poll_frame
 1312 0328 0346     		mov	r3, r0
 1313 032a 002B     		cmp	r3, #0
 1314 032c 67D0     		beq	.L86
 344:main.c        ****         {
 345:main.c        ****             joystick_on_sample(counts);
 1315              		.loc 1 345 0
ARM GAS  C:\Users\JENNEW~1\AppData\Local\Temp\ccIqmgX7.s 			page 33


 1316 032e 07F1A003 		add	r3, r7, #160
 1317 0332 1846     		mov	r0, r3
 1318 0334 FFF7FEFF 		bl	joystick_on_sample
 346:main.c        ****             joystick_get_cmd(&cmd);
 1319              		.loc 1 346 0
 1320 0338 07F19803 		add	r3, r7, #152
 1321 033c 1846     		mov	r0, r3
 1322 033e FFF7FEFF 		bl	joystick_get_cmd
 347:main.c        **** 
 348:main.c        ****             /* Raw ADC debug stream */
 349:main.c        ****             if (streaming_adc)
 1323              		.loc 1 349 0
 1324 0342 97F8A530 		ldrb	r3, [r7, #165]	@ zero_extendqisi2
 1325 0346 002B     		cmp	r3, #0
 1326 0348 3BD0     		beq	.L87
 1327              	.LBB4:
 350:main.c        ****             {
 351:main.c        ****                 int16 pan_milli  = (int16)(cmd.u[CH_X] * 1000.0f);
 1328              		.loc 1 351 0
 1329 034a D7F89830 		ldr	r3, [r7, #152]	@ float
 1330 034e 9649     		ldr	r1, .L101+4
 1331 0350 1846     		mov	r0, r3
 1332 0352 FFF7FEFF 		bl	__aeabi_fmul
 1333 0356 0346     		mov	r3, r0
 1334 0358 1846     		mov	r0, r3
 1335 035a FFF7FEFF 		bl	__aeabi_f2iz
 1336 035e 0346     		mov	r3, r0
 1337 0360 A7F87431 		strh	r3, [r7, #372]	@ movhi
 352:main.c        ****                 int16 tilt_milli = (int16)(cmd.u[CH_Y] * 1000.0f);
 1338              		.loc 1 352 0
 1339 0364 D7F89C30 		ldr	r3, [r7, #156]	@ float
 1340 0368 8F49     		ldr	r1, .L101+4
 1341 036a 1846     		mov	r0, r3
 1342 036c FFF7FEFF 		bl	__aeabi_fmul
 1343 0370 0346     		mov	r3, r0
 1344 0372 1846     		mov	r0, r3
 1345 0374 FFF7FEFF 		bl	__aeabi_f2iz
 1346 0378 0346     		mov	r3, r0
 1347 037a A7F87231 		strh	r3, [r7, #370]	@ movhi
 353:main.c        ****                 int32 x_mv = adc_balanced_counts_to_mv(counts[CH_X]);
 1348              		.loc 1 353 0
 1349 037e B7F9A030 		ldrsh	r3, [r7, #160]
 1350 0382 1846     		mov	r0, r3
 1351 0384 FFF7FEFF 		bl	adc_balanced_counts_to_mv
 1352 0388 C7F86C01 		str	r0, [r7, #364]
 354:main.c        ****                 int32 y_mv = adc_balanced_counts_to_mv(counts[CH_Y]);
 1353              		.loc 1 354 0
 1354 038c B7F9A230 		ldrsh	r3, [r7, #162]
 1355 0390 1846     		mov	r0, r3
 1356 0392 FFF7FEFF 		bl	adc_balanced_counts_to_mv
 1357 0396 C7F86801 		str	r0, [r7, #360]
 355:main.c        ****                 sprintf(tx,
 1358              		.loc 1 355 0
 1359 039a B7F97431 		ldrsh	r3, [r7, #372]
 1360 039e B7F97221 		ldrsh	r2, [r7, #370]
 1361 03a2 07F1A800 		add	r0, r7, #168
 1362 03a6 0192     		str	r2, [sp, #4]
ARM GAS  C:\Users\JENNEW~1\AppData\Local\Temp\ccIqmgX7.s 			page 34


 1363 03a8 0093     		str	r3, [sp]
 1364 03aa D7F86831 		ldr	r3, [r7, #360]
 1365 03ae D7F86C21 		ldr	r2, [r7, #364]
 1366 03b2 7E49     		ldr	r1, .L101+8
 1367 03b4 FFF7FEFF 		bl	sprintf
 356:main.c        ****                     "X:%ld mV Y:%ld mV  pan:%d/1000  tilt:%d/1000\r\n",
 357:main.c        ****                     (long)x_mv, (long)y_mv, pan_milli, tilt_milli);
 358:main.c        ****                 UART_1_PutString(tx);
 1368              		.loc 1 358 0
 1369 03b8 07F1A803 		add	r3, r7, #168
 1370 03bc 1846     		mov	r0, r3
 1371 03be FFF7FEFF 		bl	UART_1_PutString
 1372              	.L87:
 1373              	.LBE4:
 359:main.c        ****             }
 360:main.c        **** 
 361:main.c        ****             /* Calibration center capture progress */
 362:main.c        ****             if (joystick_cal_state() == JOY_CAL_CENTER_CAPTURE)
 1374              		.loc 1 362 0
 1375 03c2 FFF7FEFF 		bl	joystick_cal_state
 1376 03c6 0346     		mov	r3, r0
 1377 03c8 022B     		cmp	r3, #2
 1378 03ca 18D1     		bne	.L86
 1379              	.LBB5:
 363:main.c        ****             {
 364:main.c        ****                 uint16 n = joystick_center_samples_collected();
 1380              		.loc 1 364 0
 1381 03cc FFF7FEFF 		bl	joystick_center_samples_collected
 1382 03d0 0346     		mov	r3, r0
 1383 03d2 A7F86631 		strh	r3, [r7, #358]	@ movhi
 365:main.c        ****                 if ((n % 8u) == 0u)
 1384              		.loc 1 365 0
 1385 03d6 B7F86631 		ldrh	r3, [r7, #358]	@ movhi
 1386 03da 03F00703 		and	r3, r3, #7
 1387 03de 9BB2     		uxth	r3, r3
 1388 03e0 002B     		cmp	r3, #0
 1389 03e2 0CD1     		bne	.L86
 366:main.c        ****                 {
 367:main.c        ****                     sprintf(tx, "[CAL] Center samples: %u/%u\r\n",
 1390              		.loc 1 367 0
 1391 03e4 B7F86621 		ldrh	r2, [r7, #358]
 1392 03e8 07F1A800 		add	r0, r7, #168
 1393 03ec 2023     		movs	r3, #32
 1394 03ee 7049     		ldr	r1, .L101+12
 1395 03f0 FFF7FEFF 		bl	sprintf
 368:main.c        ****                             (unsigned)n, (unsigned)CAL_CENTER_SAMPLES);
 369:main.c        ****                     UART_1_PutString(tx);
 1396              		.loc 1 369 0
 1397 03f4 07F1A803 		add	r3, r7, #168
 1398 03f8 1846     		mov	r0, r3
 1399 03fa FFF7FEFF 		bl	UART_1_PutString
 1400              	.L86:
 1401              	.LBE5:
 370:main.c        ****                 }
 371:main.c        ****             }
 372:main.c        ****         }
 373:main.c        **** 
ARM GAS  C:\Users\JENNEW~1\AppData\Local\Temp\ccIqmgX7.s 			page 35


 374:main.c        ****         /* ==============================================================
 375:main.c        ****          * Step 4: Build control struct
 376:main.c        ****          *   joystick_active -> ctrl_mode for pan/tilt from joystick
 377:main.c        ****          *   else            -> DEFER all axes (MoVI holds position)
 378:main.c        ****          *   Tilt is negated so stick-up = positive tilt
 379:main.c        ****          * ============================================================== */
 380:main.c        ****         ctl.enable = 1u;
 1402              		.loc 1 380 0
 1403 03fe 0123     		movs	r3, #1
 1404 0400 87F89330 		strb	r3, [r7, #147]
 381:main.c        ****         ctl.kill   = 0u;
 1405              		.loc 1 381 0
 1406 0404 0023     		movs	r3, #0
 1407 0406 87F89430 		strb	r3, [r7, #148]
 382:main.c        **** 
 383:main.c        ****         if (joystick_active && joystick_cal_state() == JOY_CAL_OFF)
 1408              		.loc 1 383 0
 1409 040a 97F8A730 		ldrb	r3, [r7, #167]	@ zero_extendqisi2
 1410 040e 002B     		cmp	r3, #0
 1411 0410 1ED0     		beq	.L88
 1412              		.loc 1 383 0 is_stmt 0 discriminator 1
 1413 0412 FFF7FEFF 		bl	joystick_cal_state
 1414 0416 0346     		mov	r3, r0
 1415 0418 002B     		cmp	r3, #0
 1416 041a 19D1     		bne	.L88
 384:main.c        ****         {
 385:main.c        ****             ctl.pan_mode  = ctrl_mode;
 1417              		.loc 1 385 0 is_stmt 1
 1418 041c 97F8A430 		ldrb	r3, [r7, #164]	@ zero_extendqisi2
 1419 0420 87F89030 		strb	r3, [r7, #144]
 386:main.c        ****             ctl.tilt_mode = ctrl_mode;
 1420              		.loc 1 386 0
 1421 0424 97F8A430 		ldrb	r3, [r7, #164]	@ zero_extendqisi2
 1422 0428 87F89130 		strb	r3, [r7, #145]
 387:main.c        ****             ctl.roll_mode = DEFER;
 1423              		.loc 1 387 0
 1424 042c 0023     		movs	r3, #0
 1425 042e 87F89230 		strb	r3, [r7, #146]
 388:main.c        ****             ctl.pan  =  cmd.u[CH_X];
 1426              		.loc 1 388 0
 1427 0432 D7F89830 		ldr	r3, [r7, #152]	@ float
 1428 0436 C7F88430 		str	r3, [r7, #132]	@ float
 389:main.c        ****             ctl.tilt = -cmd.u[CH_Y];   /* negate: stick-up = positive tilt */
 1429              		.loc 1 389 0
 1430 043a D7F89C30 		ldr	r3, [r7, #156]	@ float
 1431 043e 83F00043 		eor	r3, r3, #-2147483648
 1432 0442 C7F88830 		str	r3, [r7, #136]	@ float
 390:main.c        ****             ctl.roll =  0.0f;
 1433              		.loc 1 390 0
 1434 0446 4FF00003 		mov	r3, #0
 1435 044a C7F88C30 		str	r3, [r7, #140]	@ float
 1436 044e 14E0     		b	.L89
 1437              	.L88:
 391:main.c        ****         }
 392:main.c        ****         else
 393:main.c        ****         {
 394:main.c        ****             ctl.pan_mode  = DEFER;
ARM GAS  C:\Users\JENNEW~1\AppData\Local\Temp\ccIqmgX7.s 			page 36


 1438              		.loc 1 394 0
 1439 0450 0023     		movs	r3, #0
 1440 0452 87F89030 		strb	r3, [r7, #144]
 395:main.c        ****             ctl.tilt_mode = DEFER;
 1441              		.loc 1 395 0
 1442 0456 0023     		movs	r3, #0
 1443 0458 87F89130 		strb	r3, [r7, #145]
 396:main.c        ****             ctl.roll_mode = DEFER;
 1444              		.loc 1 396 0
 1445 045c 0023     		movs	r3, #0
 1446 045e 87F89230 		strb	r3, [r7, #146]
 397:main.c        ****             ctl.pan  = 0.0f;
 1447              		.loc 1 397 0
 1448 0462 4FF00003 		mov	r3, #0
 1449 0466 C7F88430 		str	r3, [r7, #132]	@ float
 398:main.c        ****             ctl.tilt = 0.0f;
 1450              		.loc 1 398 0
 1451 046a 4FF00003 		mov	r3, #0
 1452 046e C7F88830 		str	r3, [r7, #136]	@ float
 399:main.c        ****             ctl.roll = 0.0f;
 1453              		.loc 1 399 0
 1454 0472 4FF00003 		mov	r3, #0
 1455 0476 C7F88C30 		str	r3, [r7, #140]	@ float
 1456              	.L89:
 400:main.c        ****         }
 401:main.c        **** 
 402:main.c        ****         /* ==============================================================
 403:main.c        ****          * Step 5: MoVI TX — gated on movi_active + cal off + timer
 404:main.c        ****          * ============================================================== */
 405:main.c        ****         if (movi_active
 1457              		.loc 1 405 0
 1458 047a 97F8A630 		ldrb	r3, [r7, #166]	@ zero_extendqisi2
 1459 047e 002B     		cmp	r3, #0
 1460 0480 18D0     		beq	.L90
 406:main.c        ****             && joystick_cal_state() == JOY_CAL_OFF
 1461              		.loc 1 406 0
 1462 0482 FFF7FEFF 		bl	joystick_cal_state
 1463 0486 0346     		mov	r3, r0
 1464 0488 002B     		cmp	r3, #0
 1465 048a 13D1     		bne	.L90
 407:main.c        ****             && (g_tick_ms - last_tx_ms) >= MOVI_TX_PERIOD_MS)
 1466              		.loc 1 407 0
 1467 048c 494B     		ldr	r3, .L101+16
 1468 048e 1A68     		ldr	r2, [r3]
 1469 0490 494B     		ldr	r3, .L101+20
 1470 0492 1B68     		ldr	r3, [r3]
 1471 0494 D31A     		subs	r3, r2, r3
 1472 0496 632B     		cmp	r3, #99
 1473 0498 0CD9     		bls	.L90
 408:main.c        ****         {
 409:main.c        ****             last_tx_ms = g_tick_ms;
 1474              		.loc 1 409 0
 1475 049a 464B     		ldr	r3, .L101+16
 1476 049c 1B68     		ldr	r3, [r3]
 1477 049e 464A     		ldr	r2, .L101+20
 1478 04a0 1360     		str	r3, [r2]
 410:main.c        ****             movi_comm_set_control(&g_movi, &ctl);
ARM GAS  C:\Users\JENNEW~1\AppData\Local\Temp\ccIqmgX7.s 			page 37


 1479              		.loc 1 410 0
 1480 04a2 07F18403 		add	r3, r7, #132
 1481 04a6 1946     		mov	r1, r3
 1482 04a8 3E48     		ldr	r0, .L101
 1483 04aa FFF7FEFF 		bl	movi_comm_set_control
 411:main.c        ****             movi_comm_send_control(&g_movi);
 1484              		.loc 1 411 0
 1485 04ae 3D48     		ldr	r0, .L101
 1486 04b0 FFF7FEFF 		bl	movi_comm_send_control
 1487              	.L90:
 412:main.c        ****         }
 413:main.c        **** 
 414:main.c        ****         /* ==============================================================
 415:main.c        ****          * Step 6: Diagnostic print
 416:main.c        ****          *   Gated on diag_active + cal off + 1s timer
 417:main.c        ****          * ============================================================== */
 418:main.c        ****         if (diag_active
 1488              		.loc 1 418 0
 1489 04b4 97F87F31 		ldrb	r3, [r7, #383]	@ zero_extendqisi2
 1490 04b8 002B     		cmp	r3, #0
 1491 04ba 3FF423AE 		beq	.L98
 419:main.c        ****             && joystick_cal_state() == JOY_CAL_OFF
 1492              		.loc 1 419 0
 1493 04be FFF7FEFF 		bl	joystick_cal_state
 1494 04c2 0346     		mov	r3, r0
 1495 04c4 002B     		cmp	r3, #0
 1496 04c6 7FF41DAE 		bne	.L98
 420:main.c        ****             && (g_tick_ms - last_diag_ms) >= DIAG_PERIOD_MS)
 1497              		.loc 1 420 0
 1498 04ca 3A4B     		ldr	r3, .L101+16
 1499 04cc 1A68     		ldr	r2, [r3]
 1500 04ce 3B4B     		ldr	r3, .L101+24
 1501 04d0 1B68     		ldr	r3, [r3]
 1502 04d2 D31A     		subs	r3, r2, r3
 1503 04d4 B3F57A7F 		cmp	r3, #1000
 1504 04d8 FFF414AE 		bcc	.L98
 1505              	.LBB6:
 421:main.c        ****         {
 422:main.c        ****             last_diag_ms = g_tick_ms;
 1506              		.loc 1 422 0
 1507 04dc 354B     		ldr	r3, .L101+16
 1508 04de 1B68     		ldr	r3, [r3]
 1509 04e0 364A     		ldr	r2, .L101+24
 1510 04e2 1360     		str	r3, [r2]
 423:main.c        **** 
 424:main.c        ****             /* --- Timestamp HH:MM:SS --- */
 425:main.c        ****             uint32 ms_total = g_tick_ms;
 1511              		.loc 1 425 0
 1512 04e4 334B     		ldr	r3, .L101+16
 1513 04e6 1B68     		ldr	r3, [r3]
 1514 04e8 C7F86031 		str	r3, [r7, #352]
 426:main.c        ****             uint32 sec_part = (ms_total / 1000u)   % 60u;
 1515              		.loc 1 426 0
 1516 04ec D7F86031 		ldr	r3, [r7, #352]
 1517 04f0 334A     		ldr	r2, .L101+28
 1518 04f2 A2FB0323 		umull	r2, r3, r2, r3
 1519 04f6 9A09     		lsrs	r2, r3, #6
ARM GAS  C:\Users\JENNEW~1\AppData\Local\Temp\ccIqmgX7.s 			page 38


 1520 04f8 324B     		ldr	r3, .L101+32
 1521 04fa A3FB0213 		umull	r1, r3, r3, r2
 1522 04fe 5909     		lsrs	r1, r3, #5
 1523 0500 0B46     		mov	r3, r1
 1524 0502 1B01     		lsls	r3, r3, #4
 1525 0504 5B1A     		subs	r3, r3, r1
 1526 0506 9B00     		lsls	r3, r3, #2
 1527 0508 D31A     		subs	r3, r2, r3
 1528 050a C7F85C31 		str	r3, [r7, #348]
 427:main.c        ****             uint32 min_part = (ms_total / 60000u)  % 60u;
 1529              		.loc 1 427 0
 1530 050e D7F86031 		ldr	r3, [r7, #352]
 1531 0512 2D4A     		ldr	r2, .L101+36
 1532 0514 A2FB0323 		umull	r2, r3, r2, r3
 1533 0518 9A0B     		lsrs	r2, r3, #14
 1534 051a 2A4B     		ldr	r3, .L101+32
 1535 051c A3FB0213 		umull	r1, r3, r3, r2
 1536 0520 5909     		lsrs	r1, r3, #5
 1537 0522 0B46     		mov	r3, r1
 1538 0524 1B01     		lsls	r3, r3, #4
 1539 0526 5B1A     		subs	r3, r3, r1
 1540 0528 9B00     		lsls	r3, r3, #2
 1541 052a D31A     		subs	r3, r2, r3
 1542 052c C7F85831 		str	r3, [r7, #344]
 428:main.c        ****             uint32 hr_part  =  ms_total / 3600000u;
 1543              		.loc 1 428 0
 1544 0530 D7F86031 		ldr	r3, [r7, #352]
 1545 0534 254A     		ldr	r2, .L101+40
 1546 0536 A2FB0323 		umull	r2, r3, r2, r3
 1547 053a 5B0D     		lsrs	r3, r3, #21
 1548 053c C7F85431 		str	r3, [r7, #340]
 429:main.c        **** 
 430:main.c        ****             sprintf(tx, "  %02lu:%02lu:%02lu\r\n",
 1549              		.loc 1 430 0
 1550 0540 07F1A800 		add	r0, r7, #168
 1551 0544 D7F85C31 		ldr	r3, [r7, #348]
 1552 0548 0093     		str	r3, [sp]
 1553 054a D7F85831 		ldr	r3, [r7, #344]
 1554 054e D7F85421 		ldr	r2, [r7, #340]
 1555 0552 1F49     		ldr	r1, .L101+44
 1556 0554 FFF7FEFF 		bl	sprintf
 431:main.c        ****                     (unsigned long)hr_part,
 432:main.c        ****                     (unsigned long)min_part,
 433:main.c        ****                     (unsigned long)sec_part);
 434:main.c        ****             UART_1_PutString(tx);
 1557              		.loc 1 434 0
 1558 0558 07F1A803 		add	r3, r7, #168
 1559 055c 1846     		mov	r0, r3
 1560 055e FFF7FEFF 		bl	UART_1_PutString
 435:main.c        **** 
 436:main.c        ****             /* --- Serial stats --- */
 437:main.c        ****             movi_statistics_t s;
 438:main.c        ****             movi_comm_get_statistics(&g_movi, &s);
 1561              		.loc 1 438 0
 1562 0562 07F15C03 		add	r3, r7, #92
 1563 0566 1946     		mov	r1, r3
 1564 0568 0E48     		ldr	r0, .L101
ARM GAS  C:\Users\JENNEW~1\AppData\Local\Temp\ccIqmgX7.s 			page 39


 1565 056a FFF7FEFF 		bl	movi_comm_get_statistics
 439:main.c        **** 
 440:main.c        ****             sprintf(tx,
 441:main.c        ****                 "[Serial]    TX:%lu RX:%lu | csum:%lu err:0x%02X | COMMS:%s JOYSTICK:%s\r\n",
 442:main.c        ****                 (unsigned long)s.tx_packets,
 1566              		.loc 1 442 0
 1567 056e 07F15C03 		add	r3, r7, #92
 1568 0572 1C68     		ldr	r4, [r3]
 443:main.c        ****                 (unsigned long)s.rx_packets,
 1569              		.loc 1 443 0
 1570 0574 07F15C03 		add	r3, r7, #92
 1571 0578 9D68     		ldr	r5, [r3, #8]
 444:main.c        ****                 (unsigned long)s.rx_bad_checksum,
 1572              		.loc 1 444 0
 1573 057a 07F15C03 		add	r3, r7, #92
 1574 057e DB68     		ldr	r3, [r3, #12]
 445:main.c        ****                 (unsigned)s.uart_err_flags,
 1575              		.loc 1 445 0
 1576 0580 07F15C02 		add	r2, r7, #92
 1577 0584 927D     		ldrb	r2, [r2, #22]	@ zero_extendqisi2
 440:main.c        ****                 "[Serial]    TX:%lu RX:%lu | csum:%lu err:0x%02X | COMMS:%s JOYSTICK:%s\r\n",
 1578              		.loc 1 440 0
 1579 0586 1646     		mov	r6, r2
 446:main.c        ****                 movi_active     ? "ON " : "OFF",
 1580              		.loc 1 446 0
 1581 0588 97F8A620 		ldrb	r2, [r7, #166]	@ zero_extendqisi2
 440:main.c        ****                 "[Serial]    TX:%lu RX:%lu | csum:%lu err:0x%02X | COMMS:%s JOYSTICK:%s\r\n",
 1582              		.loc 1 440 0
 1583 058c 002A     		cmp	r2, #0
 1584 058e 01D0     		beq	.L92
 440:main.c        ****                 "[Serial]    TX:%lu RX:%lu | csum:%lu err:0x%02X | COMMS:%s JOYSTICK:%s\r\n",
 1585              		.loc 1 440 0 is_stmt 0 discriminator 1
 1586 0590 104A     		ldr	r2, .L101+48
 1587 0592 00E0     		b	.L93
 1588              	.L92:
 440:main.c        ****                 "[Serial]    TX:%lu RX:%lu | csum:%lu err:0x%02X | COMMS:%s JOYSTICK:%s\r\n",
 1589              		.loc 1 440 0 discriminator 2
 1590 0594 104A     		ldr	r2, .L101+52
 1591              	.L93:
 447:main.c        ****                 joystick_active ? "ON " : "OFF");
 1592              		.loc 1 447 0 is_stmt 1 discriminator 4
 1593 0596 97F8A710 		ldrb	r1, [r7, #167]	@ zero_extendqisi2
 440:main.c        ****                 "[Serial]    TX:%lu RX:%lu | csum:%lu err:0x%02X | COMMS:%s JOYSTICK:%s\r\n",
 1594              		.loc 1 440 0 discriminator 4
 1595 059a 0029     		cmp	r1, #0
 1596 059c 1ED0     		beq	.L94
 440:main.c        ****                 "[Serial]    TX:%lu RX:%lu | csum:%lu err:0x%02X | COMMS:%s JOYSTICK:%s\r\n",
 1597              		.loc 1 440 0 is_stmt 0 discriminator 5
 1598 059e 0D49     		ldr	r1, .L101+48
 1599 05a0 1DE0     		b	.L95
 1600              	.L102:
 1601 05a2 00BF     		.align	2
 1602              	.L101:
 1603 05a4 00000000 		.word	g_movi
 1604 05a8 00007A44 		.word	1148846080
 1605 05ac 60030000 		.word	.LC26
 1606 05b0 90030000 		.word	.LC27
ARM GAS  C:\Users\JENNEW~1\AppData\Local\Temp\ccIqmgX7.s 			page 40


 1607 05b4 00000000 		.word	g_tick_ms
 1608 05b8 64010000 		.word	last_tx_ms.8202
 1609 05bc 00000000 		.word	last_diag_ms
 1610 05c0 D34D6210 		.word	274877907
 1611 05c4 89888888 		.word	-2004318071
 1612 05c8 73B2E745 		.word	1172812403
 1613 05cc B17C2195 		.word	-1792967503
 1614 05d0 B0030000 		.word	.LC28
 1615 05d4 C8030000 		.word	.LC29
 1616 05d8 CC030000 		.word	.LC30
 1617              	.L94:
 440:main.c        ****                 "[Serial]    TX:%lu RX:%lu | csum:%lu err:0x%02X | COMMS:%s JOYSTICK:%s\r\n",
 1618              		.loc 1 440 0 discriminator 6
 1619 05dc A549     		ldr	r1, .L103
 1620              	.L95:
 440:main.c        ****                 "[Serial]    TX:%lu RX:%lu | csum:%lu err:0x%02X | COMMS:%s JOYSTICK:%s\r\n",
 1621              		.loc 1 440 0 discriminator 8
 1622 05de 07F1A800 		add	r0, r7, #168
 1623 05e2 0391     		str	r1, [sp, #12]
 1624 05e4 0292     		str	r2, [sp, #8]
 1625 05e6 0196     		str	r6, [sp, #4]
 1626 05e8 0093     		str	r3, [sp]
 1627 05ea 2B46     		mov	r3, r5
 1628 05ec 2246     		mov	r2, r4
 1629 05ee A249     		ldr	r1, .L103+4
 1630 05f0 FFF7FEFF 		bl	sprintf
 448:main.c        ****             UART_1_PutString(tx);
 1631              		.loc 1 448 0 is_stmt 1 discriminator 8
 1632 05f4 07F1A803 		add	r3, r7, #168
 1633 05f8 1846     		mov	r0, r3
 1634 05fa FFF7FEFF 		bl	UART_1_PutString
 449:main.c        **** 
 450:main.c        ****             /* --- Gimbal status --- */
 451:main.c        ****             movi_status_t st;
 452:main.c        ****             movi_comm_get_status(&g_movi, &st);
 1635              		.loc 1 452 0 discriminator 8
 1636 05fe 07F12003 		add	r3, r7, #32
 1637 0602 1946     		mov	r1, r3
 1638 0604 9D48     		ldr	r0, .L103+8
 1639 0606 FFF7FEFF 		bl	movi_comm_get_status
 453:main.c        **** 
 454:main.c        ****             if (st.valid)
 1640              		.loc 1 454 0 discriminator 8
 1641 060a 07F12003 		add	r3, r7, #32
 1642 060e 1B78     		ldrb	r3, [r3]	@ zero_extendqisi2
 1643 0610 002B     		cmp	r3, #0
 1644 0612 00F0D780 		beq	.L96
 1645              	.LBB7:
 455:main.c        ****             {
 456:main.c        ****                 char pan_s, tilt_s, roll_s;
 457:main.c        ****                 int16 pan_i, pan_f, tilt_i, tilt_f, roll_i, roll_f;
 458:main.c        ****                 compute_euler_ints(&st,
 1646              		.loc 1 458 0
 1647 0616 07F14A04 		add	r4, r7, #74
 1648 061a 07F14C02 		add	r2, r7, #76
 1649 061e 07F15101 		add	r1, r7, #81
 1650 0622 07F12000 		add	r0, r7, #32
ARM GAS  C:\Users\JENNEW~1\AppData\Local\Temp\ccIqmgX7.s 			page 41


 1651 0626 07F14203 		add	r3, r7, #66
 1652 062a 0593     		str	r3, [sp, #20]
 1653 062c 07F14403 		add	r3, r7, #68
 1654 0630 0493     		str	r3, [sp, #16]
 1655 0632 07F14F03 		add	r3, r7, #79
 1656 0636 0393     		str	r3, [sp, #12]
 1657 0638 07F14603 		add	r3, r7, #70
 1658 063c 0293     		str	r3, [sp, #8]
 1659 063e 07F14803 		add	r3, r7, #72
 1660 0642 0193     		str	r3, [sp, #4]
 1661 0644 07F15003 		add	r3, r7, #80
 1662 0648 0093     		str	r3, [sp]
 1663 064a 2346     		mov	r3, r4
 1664 064c FFF7FEFF 		bl	compute_euler_ints
 459:main.c        ****                     &pan_s,  &pan_i,  &pan_f,
 460:main.c        ****                     &tilt_s, &tilt_i, &tilt_f,
 461:main.c        ****                     &roll_s, &roll_i, &roll_f);
 462:main.c        **** 
 463:main.c        ****                 int16 vl_i = (int16)st.battery_left_v;
 1665              		.loc 1 463 0
 1666 0650 07F12003 		add	r3, r7, #32
 1667 0654 5B68     		ldr	r3, [r3, #4]	@ float
 1668 0656 1846     		mov	r0, r3
 1669 0658 FFF7FEFF 		bl	__aeabi_f2iz
 1670 065c 0346     		mov	r3, r0
 1671 065e A7F85231 		strh	r3, [r7, #338]	@ movhi
 464:main.c        ****                 int16 vl_f = (int16)((st.battery_left_v  - (float)vl_i) * 10.0f);
 1672              		.loc 1 464 0
 1673 0662 07F12003 		add	r3, r7, #32
 1674 0666 5C68     		ldr	r4, [r3, #4]	@ float
 1675 0668 B7F95231 		ldrsh	r3, [r7, #338]
 1676 066c 1846     		mov	r0, r3
 1677 066e FFF7FEFF 		bl	__aeabi_i2f
 1678 0672 0346     		mov	r3, r0
 1679 0674 1946     		mov	r1, r3
 1680 0676 2046     		mov	r0, r4
 1681 0678 FFF7FEFF 		bl	__aeabi_fsub
 1682 067c 0346     		mov	r3, r0
 1683 067e 8049     		ldr	r1, .L103+12
 1684 0680 1846     		mov	r0, r3
 1685 0682 FFF7FEFF 		bl	__aeabi_fmul
 1686 0686 0346     		mov	r3, r0
 1687 0688 1846     		mov	r0, r3
 1688 068a FFF7FEFF 		bl	__aeabi_f2iz
 1689 068e 0346     		mov	r3, r0
 1690 0690 A7F85031 		strh	r3, [r7, #336]	@ movhi
 465:main.c        ****                 int16 vr_i = (int16)st.battery_right_v;
 1691              		.loc 1 465 0
 1692 0694 07F12003 		add	r3, r7, #32
 1693 0698 9B68     		ldr	r3, [r3, #8]	@ float
 1694 069a 1846     		mov	r0, r3
 1695 069c FFF7FEFF 		bl	__aeabi_f2iz
 1696 06a0 0346     		mov	r3, r0
 1697 06a2 A7F84E31 		strh	r3, [r7, #334]	@ movhi
 466:main.c        ****                 int16 vr_f = (int16)((st.battery_right_v - (float)vr_i) * 10.0f);
 1698              		.loc 1 466 0
 1699 06a6 07F12003 		add	r3, r7, #32
ARM GAS  C:\Users\JENNEW~1\AppData\Local\Temp\ccIqmgX7.s 			page 42


 1700 06aa 9C68     		ldr	r4, [r3, #8]	@ float
 1701 06ac B7F94E31 		ldrsh	r3, [r7, #334]
 1702 06b0 1846     		mov	r0, r3
 1703 06b2 FFF7FEFF 		bl	__aeabi_i2f
 1704 06b6 0346     		mov	r3, r0
 1705 06b8 1946     		mov	r1, r3
 1706 06ba 2046     		mov	r0, r4
 1707 06bc FFF7FEFF 		bl	__aeabi_fsub
 1708 06c0 0346     		mov	r3, r0
 1709 06c2 6F49     		ldr	r1, .L103+12
 1710 06c4 1846     		mov	r0, r3
 1711 06c6 FFF7FEFF 		bl	__aeabi_fmul
 1712 06ca 0346     		mov	r3, r0
 1713 06cc 1846     		mov	r0, r3
 1714 06ce FFF7FEFF 		bl	__aeabi_f2iz
 1715 06d2 0346     		mov	r3, r0
 1716 06d4 A7F84C31 		strh	r3, [r7, #332]	@ movhi
 467:main.c        **** 
 468:main.c        ****                 uint8 imu_err = (st.gimbal_status1 >> 6) & 0x01u;
 1717              		.loc 1 468 0
 1718 06d8 07F12003 		add	r3, r7, #32
 1719 06dc 1B7F     		ldrb	r3, [r3, #28]	@ zero_extendqisi2
 1720 06de 9B09     		lsrs	r3, r3, #6
 1721 06e0 DBB2     		uxtb	r3, r3
 1722 06e2 03F00103 		and	r3, r3, #1
 1723 06e6 87F84B31 		strb	r3, [r7, #331]
 469:main.c        ****                 uint8 drv_err = (st.gimbal_status1 >> 4) & 0x01u;
 1724              		.loc 1 469 0
 1725 06ea 07F12003 		add	r3, r7, #32
 1726 06ee 1B7F     		ldrb	r3, [r3, #28]	@ zero_extendqisi2
 1727 06f0 1B09     		lsrs	r3, r3, #4
 1728 06f2 DBB2     		uxtb	r3, r3
 1729 06f4 03F00103 		and	r3, r3, #1
 1730 06f8 87F84A31 		strb	r3, [r7, #330]
 470:main.c        ****                 uint8 gbl_err = (st.gimbal_status2 >> 4) & 0x01u;
 1731              		.loc 1 470 0
 1732 06fc 07F12003 		add	r3, r7, #32
 1733 0700 5B7F     		ldrb	r3, [r3, #29]	@ zero_extendqisi2
 1734 0702 1B09     		lsrs	r3, r3, #4
 1735 0704 DBB2     		uxtb	r3, r3
 1736 0706 03F00103 		and	r3, r3, #1
 1737 070a 87F84931 		strb	r3, [r7, #329]
 471:main.c        **** 
 472:main.c        ****                 sprintf(tx,
 1738              		.loc 1 472 0
 1739 070e 07F15103 		add	r3, r7, #81
 1740 0712 1B78     		ldrb	r3, [r3]	@ zero_extendqisi2
 1741 0714 9C46     		mov	ip, r3
 1742 0716 07F14C03 		add	r3, r7, #76
 1743 071a B3F90030 		ldrsh	r3, [r3]
 1744 071e 9846     		mov	r8, r3
 1745 0720 07F14A03 		add	r3, r7, #74
 1746 0724 B3F90030 		ldrsh	r3, [r3]
 1747 0728 FB61     		str	r3, [r7, #28]
 1748 072a 07F15003 		add	r3, r7, #80
 1749 072e 1B78     		ldrb	r3, [r3]	@ zero_extendqisi2
 1750 0730 BB61     		str	r3, [r7, #24]
ARM GAS  C:\Users\JENNEW~1\AppData\Local\Temp\ccIqmgX7.s 			page 43


 1751 0732 07F14803 		add	r3, r7, #72
 1752 0736 B3F90030 		ldrsh	r3, [r3]
 1753 073a 7B61     		str	r3, [r7, #20]
 1754 073c 07F14603 		add	r3, r7, #70
 1755 0740 B3F90030 		ldrsh	r3, [r3]
 1756 0744 3B61     		str	r3, [r7, #16]
 1757 0746 07F14F03 		add	r3, r7, #79
 1758 074a 1B78     		ldrb	r3, [r3]	@ zero_extendqisi2
 1759 074c FB60     		str	r3, [r7, #12]
 1760 074e 07F14403 		add	r3, r7, #68
 1761 0752 B3F90030 		ldrsh	r3, [r3]
 1762 0756 BB60     		str	r3, [r7, #8]
 1763 0758 07F14203 		add	r3, r7, #66
 1764 075c B3F90030 		ldrsh	r3, [r3]
 1765 0760 7B60     		str	r3, [r7, #4]
 1766 0762 B7F95201 		ldrsh	r0, [r7, #338]
 1767 0766 B7F95041 		ldrsh	r4, [r7, #336]
 1768 076a B7F94E51 		ldrsh	r5, [r7, #334]
 1769 076e B7F94C61 		ldrsh	r6, [r7, #332]
 1770 0772 97F84B11 		ldrb	r1, [r7, #331]	@ zero_extendqisi2
 1771 0776 97F84A21 		ldrb	r2, [r7, #330]	@ zero_extendqisi2
 1772 077a 97F84931 		ldrb	r3, [r7, #329]	@ zero_extendqisi2
 1773 077e 07F1A80E 		add	lr, r7, #168
 1774 0782 0D93     		str	r3, [sp, #52]
 1775 0784 0C92     		str	r2, [sp, #48]
 1776 0786 0B91     		str	r1, [sp, #44]
 1777 0788 0A96     		str	r6, [sp, #40]
 1778 078a 0995     		str	r5, [sp, #36]
 1779 078c 0894     		str	r4, [sp, #32]
 1780 078e 0790     		str	r0, [sp, #28]
 1781 0790 7A68     		ldr	r2, [r7, #4]
 1782 0792 0692     		str	r2, [sp, #24]
 1783 0794 BA68     		ldr	r2, [r7, #8]
 1784 0796 0592     		str	r2, [sp, #20]
 1785 0798 FA68     		ldr	r2, [r7, #12]
 1786 079a 0492     		str	r2, [sp, #16]
 1787 079c 3A69     		ldr	r2, [r7, #16]
 1788 079e 0392     		str	r2, [sp, #12]
 1789 07a0 7A69     		ldr	r2, [r7, #20]
 1790 07a2 0292     		str	r2, [sp, #8]
 1791 07a4 BA69     		ldr	r2, [r7, #24]
 1792 07a6 0192     		str	r2, [sp, #4]
 1793 07a8 FB69     		ldr	r3, [r7, #28]
 1794 07aa 0093     		str	r3, [sp]
 1795 07ac 4346     		mov	r3, r8
 1796 07ae 6246     		mov	r2, ip
 1797 07b0 3449     		ldr	r1, .L103+16
 1798 07b2 7046     		mov	r0, lr
 1799 07b4 FFF7FEFF 		bl	sprintf
 473:main.c        ****                     "[Status]    Pan=%c%3d.%02d  Tilt=%c%3d.%02d  Roll=%c%3d.%02d"
 474:main.c        ****                     " | L=%2d.%1dV R=%2d.%1dV | IMU:%d DRV:%d ERR:%d\r\n",
 475:main.c        ****                     pan_s,  (int)pan_i,  (int)pan_f,
 476:main.c        ****                     tilt_s, (int)tilt_i, (int)tilt_f,
 477:main.c        ****                     roll_s, (int)roll_i, (int)roll_f,
 478:main.c        ****                     (int)vl_i, (int)vl_f,
 479:main.c        ****                     (int)vr_i, (int)vr_f,
 480:main.c        ****                     (int)imu_err, (int)drv_err, (int)gbl_err);
ARM GAS  C:\Users\JENNEW~1\AppData\Local\Temp\ccIqmgX7.s 			page 44


 481:main.c        ****                 UART_1_PutString(tx);
 1800              		.loc 1 481 0
 1801 07b8 07F1A803 		add	r3, r7, #168
 1802 07bc 1846     		mov	r0, r3
 1803 07be FFF7FEFF 		bl	UART_1_PutString
 1804              	.LBE7:
 1805 07c2 02E0     		b	.L97
 1806              	.L96:
 482:main.c        ****             }
 483:main.c        ****             else
 484:main.c        ****             {
 485:main.c        ****                 UART_1_PutString("[Status]    No valid frame yet\r\n");
 1807              		.loc 1 485 0
 1808 07c4 3048     		ldr	r0, .L103+20
 1809 07c6 FFF7FEFF 		bl	UART_1_PutString
 1810              	.L97:
 486:main.c        ****             }
 487:main.c        **** 
 488:main.c        ****             /* --- Joystick --- */
 489:main.c        ****             char lr_s, ud_s;
 490:main.c        ****             int16 lr_i, lr_f, ud_i, ud_f;
 491:main.c        ****             decomp(cmd.u[CH_X], &lr_i, &lr_f, &lr_s);
 1811              		.loc 1 491 0 discriminator 1
 1812 07ca D7F89800 		ldr	r0, [r7, #152]	@ float
 1813 07ce 07F15B03 		add	r3, r7, #91
 1814 07d2 07F15602 		add	r2, r7, #86
 1815 07d6 07F15801 		add	r1, r7, #88
 1816 07da FFF7FEFF 		bl	decomp
 492:main.c        ****             decomp(cmd.u[CH_Y], &ud_i, &ud_f, &ud_s);
 1817              		.loc 1 492 0 discriminator 1
 1818 07de D7F89C00 		ldr	r0, [r7, #156]	@ float
 1819 07e2 07F15A03 		add	r3, r7, #90
 1820 07e6 07F15202 		add	r2, r7, #82
 1821 07ea 07F15401 		add	r1, r7, #84
 1822 07ee FFF7FEFF 		bl	decomp
 493:main.c        **** 
 494:main.c        ****             sprintf(tx,
 1823              		.loc 1 494 0 discriminator 1
 1824 07f2 07F15B03 		add	r3, r7, #91
 1825 07f6 1B78     		ldrb	r3, [r3]	@ zero_extendqisi2
 1826 07f8 9846     		mov	r8, r3
 1827 07fa 07F15803 		add	r3, r7, #88
 1828 07fe B3F90030 		ldrsh	r3, [r3]
 1829 0802 9946     		mov	r9, r3
 1830 0804 07F15603 		add	r3, r7, #86
 1831 0808 B3F90030 		ldrsh	r3, [r3]
 1832 080c 1C46     		mov	r4, r3
 1833 080e 97F8A430 		ldrb	r3, [r7, #164]	@ zero_extendqisi2
 1834 0812 1846     		mov	r0, r3
 1835 0814 FFF7FEFF 		bl	mode_str
 1836 0818 0546     		mov	r5, r0
 1837 081a 07F15A03 		add	r3, r7, #90
 1838 081e 1B78     		ldrb	r3, [r3]	@ zero_extendqisi2
 1839 0820 1E46     		mov	r6, r3
 1840 0822 07F15403 		add	r3, r7, #84
 1841 0826 B3F90030 		ldrsh	r3, [r3]
 1842 082a FB61     		str	r3, [r7, #28]
ARM GAS  C:\Users\JENNEW~1\AppData\Local\Temp\ccIqmgX7.s 			page 45


 1843 082c 07F15203 		add	r3, r7, #82
 1844 0830 B3F90030 		ldrsh	r3, [r3]
 1845 0834 BB61     		str	r3, [r7, #24]
 1846 0836 97F8A430 		ldrb	r3, [r7, #164]	@ zero_extendqisi2
 1847 083a 1846     		mov	r0, r3
 1848 083c FFF7FEFF 		bl	mode_str
 1849 0840 0346     		mov	r3, r0
 1850 0842 07F1A800 		add	r0, r7, #168
 1851 0846 0593     		str	r3, [sp, #20]
 1852 0848 BA69     		ldr	r2, [r7, #24]
 1853 084a 0492     		str	r2, [sp, #16]
 1854 084c FB69     		ldr	r3, [r7, #28]
 1855 084e 0393     		str	r3, [sp, #12]
 1856 0850 0296     		str	r6, [sp, #8]
 1857 0852 0195     		str	r5, [sp, #4]
 1858 0854 0094     		str	r4, [sp]
 1859 0856 4B46     		mov	r3, r9
 1860 0858 4246     		mov	r2, r8
 1861 085a 0C49     		ldr	r1, .L103+24
 1862 085c FFF7FEFF 		bl	sprintf
 495:main.c        ****                 "[Joystick]  L/R=%c%d.%02d (%s)  U/D=%c%d.%02d (%s)\r\n",
 496:main.c        ****                 lr_s, (int)lr_i, (int)lr_f, mode_str(ctrl_mode),
 497:main.c        ****                 ud_s, (int)ud_i, (int)ud_f, mode_str(ctrl_mode));
 498:main.c        ****             UART_1_PutString(tx);
 1863              		.loc 1 498 0 discriminator 1
 1864 0860 07F1A803 		add	r3, r7, #168
 1865 0864 1846     		mov	r0, r3
 1866 0866 FFF7FEFF 		bl	UART_1_PutString
 499:main.c        **** 
 500:main.c        ****             /* Clear sticky error flags after reporting */
 501:main.c        ****             g_movi.statistics.uart_err_flags = 0u;
 1867              		.loc 1 501 0 discriminator 1
 1868 086a 044B     		ldr	r3, .L103+8
 1869 086c 0022     		movs	r2, #0
 1870 086e 83F85220 		strb	r2, [r3, #82]
 1871              	.LBE6:
 502:main.c        ****         }
 503:main.c        ****     }
 1872              		.loc 1 503 0 discriminator 1
 1873 0872 47E4     		b	.L98
 1874              	.L104:
 1875              		.align	2
 1876              	.L103:
 1877 0874 CC030000 		.word	.LC30
 1878 0878 D0030000 		.word	.LC31
 1879 087c 00000000 		.word	g_movi
 1880 0880 00002041 		.word	1092616192
 1881 0884 1C040000 		.word	.LC32
 1882 0888 8C040000 		.word	.LC33
 1883 088c B0040000 		.word	.LC34
 1884              		.cfi_endproc
 1885              	.LFE72:
 1886              		.size	main, .-main
 1887              		.bss
 1888              		.align	2
 1889              	last_tx_ms.8202:
 1890 0164 00000000 		.space	4
ARM GAS  C:\Users\JENNEW~1\AppData\Local\Temp\ccIqmgX7.s 			page 46


 1891              		.text
 1892              	.Letext0:
 1893              		.file 2 "c:\\program files (x86)\\cypress\\psoc creator\\4.4\\psoc creator\\import\\gnu\\arm\\5.4.
 1894              		.file 3 "c:\\program files (x86)\\cypress\\psoc creator\\4.4\\psoc creator\\import\\gnu\\arm\\5.4.
 1895              		.file 4 "Generated_Source\\PSoC5/cytypes.h"
 1896              		.file 5 "joystick.h"
 1897              		.file 6 "movi_comm.h"
 1898              		.file 7 "QX_App_Config.h"
 1899              		.file 8 "QX_Protocol_App.h"
 1900              		.file 9 "movi_rb.h"
 1901              		.file 10 "Generated_Source\\PSoC5/core_cm3.h"