ARM GAS  C:\Users\JENNEW~1\AppData\Local\Temp\ccpPvNwd.s 			page 1


   1              		.syntax unified
   2              		.cpu cortex-m3
   3              		.fpu softvfp
   4              		.eabi_attribute 20, 1
   5              		.eabi_attribute 21, 1
   6              		.eabi_attribute 23, 3
   7              		.eabi_attribute 24, 1
   8              		.eabi_attribute 25, 1
   9              		.eabi_attribute 26, 1
  10              		.eabi_attribute 30, 6
  11              		.eabi_attribute 34, 1
  12              		.eabi_attribute 18, 4
  13              		.thumb
  14              		.syntax unified
  15              		.file	"movi_comm.c"
  16              		.text
  17              	.Ltext0:
  18              		.cfi_sections	.debug_frame
  19              		.section	.text.load_freefly_control_from_movi,"ax",%progbits
  20              		.align	2
  21              		.thumb
  22              		.thumb_func
  23              		.type	load_freefly_control_from_movi, %function
  24              	load_freefly_control_from_movi:
  25              	.LFB1:
  26              		.file 1 "movi_comm.c"
   1:movi_comm.c   **** #include "movi_comm.h"
   2:movi_comm.c   **** #include <string.h>
   3:movi_comm.c   **** #include <stdio.h>
   4:movi_comm.c   **** 
   5:movi_comm.c   **** /* Freefly/QX */
   6:movi_comm.c   **** #include "QX_Protocol.h"
   7:movi_comm.c   **** #include "simple_buffer.h"
   8:movi_comm.c   **** 
   9:movi_comm.c   **** #define MOVI_QX_PORT (QX_COMMS_PORT_UART)
  10:movi_comm.c   **** 
  11:movi_comm.c   **** static void load_freefly_control_from_movi(const movi_control_t* in)
  12:movi_comm.c   **** {
  27              		.loc 1 12 0
  28              		.cfi_startproc
  29              		@ args = 0, pretend = 0, frame = 8
  30              		@ frame_needed = 1, uses_anonymous_args = 0
  31              		@ link register save eliminated.
  32 0000 80B4     		push	{r7}
  33              		.cfi_def_cfa_offset 4
  34              		.cfi_offset 7, -4
  35 0002 83B0     		sub	sp, sp, #12
  36              		.cfi_def_cfa_offset 16
  37 0004 00AF     		add	r7, sp, #0
  38              		.cfi_def_cfa_register 7
  39 0006 7860     		str	r0, [r7, #4]
  13:movi_comm.c   ****     /* If you want enable to “gate” output, do it here */
  14:movi_comm.c   ****     if (in->enable == 0u) {
  40              		.loc 1 14 0
  41 0008 7B68     		ldr	r3, [r7, #4]
  42 000a DB7B     		ldrb	r3, [r3, #15]	@ zero_extendqisi2
  43 000c 002B     		cmp	r3, #0
ARM GAS  C:\Users\JENNEW~1\AppData\Local\Temp\ccpPvNwd.s 			page 2


  44 000e 2ED1     		bne	.L2
  15:movi_comm.c   ****         FreeflyAPI.control.pan.type  = DEFER;
  45              		.loc 1 15 0
  46 0010 444B     		ldr	r3, .L6
  47 0012 0022     		movs	r2, #0
  48 0014 1A75     		strb	r2, [r3, #20]
  16:movi_comm.c   ****         FreeflyAPI.control.tilt.type = DEFER;
  49              		.loc 1 16 0
  50 0016 434B     		ldr	r3, .L6
  51 0018 0022     		movs	r2, #0
  52 001a 1A77     		strb	r2, [r3, #28]
  17:movi_comm.c   ****         FreeflyAPI.control.roll.type = DEFER;
  53              		.loc 1 17 0
  54 001c 414B     		ldr	r3, .L6
  55 001e 0022     		movs	r2, #0
  56 0020 83F82420 		strb	r2, [r3, #36]
  18:movi_comm.c   ****         FreeflyAPI.control.focus.type = DEFER;
  57              		.loc 1 18 0
  58 0024 3F4B     		ldr	r3, .L6
  59 0026 0022     		movs	r2, #0
  60 0028 83F82C20 		strb	r2, [r3, #44]
  19:movi_comm.c   ****         FreeflyAPI.control.iris.type  = DEFER;
  61              		.loc 1 19 0
  62 002c 3D4B     		ldr	r3, .L6
  63 002e 0022     		movs	r2, #0
  64 0030 83F83420 		strb	r2, [r3, #52]
  20:movi_comm.c   ****         FreeflyAPI.control.zoom.type  = DEFER;
  65              		.loc 1 20 0
  66 0034 3B4B     		ldr	r3, .L6
  67 0036 0022     		movs	r2, #0
  68 0038 83F83C20 		strb	r2, [r3, #60]
  21:movi_comm.c   **** 
  22:movi_comm.c   ****         FreeflyAPI.control.pan.value  = 0.0f;
  69              		.loc 1 22 0
  70 003c 394B     		ldr	r3, .L6
  71 003e 4FF00002 		mov	r2, #0
  72 0042 1A61     		str	r2, [r3, #16]	@ float
  23:movi_comm.c   ****         FreeflyAPI.control.tilt.value = 0.0f;
  73              		.loc 1 23 0
  74 0044 374B     		ldr	r3, .L6
  75 0046 4FF00002 		mov	r2, #0
  76 004a 9A61     		str	r2, [r3, #24]	@ float
  24:movi_comm.c   ****         FreeflyAPI.control.roll.value = 0.0f;
  77              		.loc 1 24 0
  78 004c 354B     		ldr	r3, .L6
  79 004e 4FF00002 		mov	r2, #0
  80 0052 1A62     		str	r2, [r3, #32]	@ float
  25:movi_comm.c   ****         FreeflyAPI.control.focus.value = 0.0f;
  81              		.loc 1 25 0
  82 0054 334B     		ldr	r3, .L6
  83 0056 4FF00002 		mov	r2, #0
  84 005a 9A62     		str	r2, [r3, #40]	@ float
  26:movi_comm.c   ****         FreeflyAPI.control.iris.value  = 0.0f;
  85              		.loc 1 26 0
  86 005c 314B     		ldr	r3, .L6
  87 005e 4FF00002 		mov	r2, #0
  88 0062 1A63     		str	r2, [r3, #48]	@ float
ARM GAS  C:\Users\JENNEW~1\AppData\Local\Temp\ccpPvNwd.s 			page 3


  27:movi_comm.c   ****         FreeflyAPI.control.zoom.value  = 0.0f;
  89              		.loc 1 27 0
  90 0064 2F4B     		ldr	r3, .L6
  91 0066 4FF00002 		mov	r2, #0
  92 006a 9A63     		str	r2, [r3, #56]	@ float
  93 006c 30E0     		b	.L3
  94              	.L2:
  28:movi_comm.c   ****     } else {
  29:movi_comm.c   ****         FreeflyAPI.control.pan.type  = in->pan_mode;
  95              		.loc 1 29 0
  96 006e 7B68     		ldr	r3, [r7, #4]
  97 0070 1A7B     		ldrb	r2, [r3, #12]	@ zero_extendqisi2
  98 0072 2C4B     		ldr	r3, .L6
  99 0074 1A75     		strb	r2, [r3, #20]
  30:movi_comm.c   ****         FreeflyAPI.control.tilt.type = in->tilt_mode;
 100              		.loc 1 30 0
 101 0076 7B68     		ldr	r3, [r7, #4]
 102 0078 5A7B     		ldrb	r2, [r3, #13]	@ zero_extendqisi2
 103 007a 2A4B     		ldr	r3, .L6
 104 007c 1A77     		strb	r2, [r3, #28]
  31:movi_comm.c   ****         FreeflyAPI.control.roll.type = in->roll_mode;
 105              		.loc 1 31 0
 106 007e 7B68     		ldr	r3, [r7, #4]
 107 0080 9A7B     		ldrb	r2, [r3, #14]	@ zero_extendqisi2
 108 0082 284B     		ldr	r3, .L6
 109 0084 83F82420 		strb	r2, [r3, #36]
  32:movi_comm.c   **** 
  33:movi_comm.c   ****         FreeflyAPI.control.pan.value  = in->pan;
 110              		.loc 1 33 0
 111 0088 7B68     		ldr	r3, [r7, #4]
 112 008a 1B68     		ldr	r3, [r3]	@ float
 113 008c 254A     		ldr	r2, .L6
 114 008e 1361     		str	r3, [r2, #16]	@ float
  34:movi_comm.c   ****         FreeflyAPI.control.tilt.value = in->tilt;
 115              		.loc 1 34 0
 116 0090 7B68     		ldr	r3, [r7, #4]
 117 0092 5B68     		ldr	r3, [r3, #4]	@ float
 118 0094 234A     		ldr	r2, .L6
 119 0096 9361     		str	r3, [r2, #24]	@ float
  35:movi_comm.c   ****         FreeflyAPI.control.roll.value = in->roll;
 120              		.loc 1 35 0
 121 0098 7B68     		ldr	r3, [r7, #4]
 122 009a 9B68     		ldr	r3, [r3, #8]	@ float
 123 009c 214A     		ldr	r2, .L6
 124 009e 1362     		str	r3, [r2, #32]	@ float
  36:movi_comm.c   **** 
  37:movi_comm.c   ****         /* Leave lens DEFER for now */
  38:movi_comm.c   ****         FreeflyAPI.control.focus.type = DEFER;
 125              		.loc 1 38 0
 126 00a0 204B     		ldr	r3, .L6
 127 00a2 0022     		movs	r2, #0
 128 00a4 83F82C20 		strb	r2, [r3, #44]
  39:movi_comm.c   ****         FreeflyAPI.control.iris.type  = DEFER;
 129              		.loc 1 39 0
 130 00a8 1E4B     		ldr	r3, .L6
 131 00aa 0022     		movs	r2, #0
 132 00ac 83F83420 		strb	r2, [r3, #52]
ARM GAS  C:\Users\JENNEW~1\AppData\Local\Temp\ccpPvNwd.s 			page 4


  40:movi_comm.c   ****         FreeflyAPI.control.zoom.type  = DEFER;
 133              		.loc 1 40 0
 134 00b0 1C4B     		ldr	r3, .L6
 135 00b2 0022     		movs	r2, #0
 136 00b4 83F83C20 		strb	r2, [r3, #60]
  41:movi_comm.c   ****         FreeflyAPI.control.focus.value = 0.0f;
 137              		.loc 1 41 0
 138 00b8 1A4B     		ldr	r3, .L6
 139 00ba 4FF00002 		mov	r2, #0
 140 00be 9A62     		str	r2, [r3, #40]	@ float
  42:movi_comm.c   ****         FreeflyAPI.control.iris.value  = 0.0f;
 141              		.loc 1 42 0
 142 00c0 184B     		ldr	r3, .L6
 143 00c2 4FF00002 		mov	r2, #0
 144 00c6 1A63     		str	r2, [r3, #48]	@ float
  43:movi_comm.c   ****         FreeflyAPI.control.zoom.value  = 0.0f;
 145              		.loc 1 43 0
 146 00c8 164B     		ldr	r3, .L6
 147 00ca 4FF00002 		mov	r2, #0
 148 00ce 9A63     		str	r2, [r3, #56]	@ float
 149              	.L3:
  44:movi_comm.c   ****     }
  45:movi_comm.c   **** 
  46:movi_comm.c   ****     /* One-shot kill flag */
  47:movi_comm.c   ****     FreeflyAPI.control.gimbal_kill = (in->kill ? 1u : 0u);
 150              		.loc 1 47 0
 151 00d0 7B68     		ldr	r3, [r7, #4]
 152 00d2 1B7C     		ldrb	r3, [r3, #16]	@ zero_extendqisi2
 153 00d4 002B     		cmp	r3, #0
 154 00d6 01D0     		beq	.L4
 155              		.loc 1 47 0 is_stmt 0 discriminator 1
 156 00d8 0122     		movs	r2, #1
 157 00da 00E0     		b	.L5
 158              	.L4:
 159              		.loc 1 47 0 discriminator 2
 160 00dc 0022     		movs	r2, #0
 161              	.L5:
 162              		.loc 1 47 0 discriminator 4
 163 00de 114B     		ldr	r3, .L6
 164 00e0 1A73     		strb	r2, [r3, #12]
  48:movi_comm.c   **** 
  49:movi_comm.c   ****     /* Most setups use euler-style controls; leave quaternions off */
  50:movi_comm.c   ****     FreeflyAPI.control.gimbal_position_type_quaternions = 0u;
 165              		.loc 1 50 0 is_stmt 1 discriminator 4
 166 00e2 104B     		ldr	r3, .L6
 167 00e4 0022     		movs	r2, #0
 168 00e6 5A73     		strb	r2, [r3, #13]
  51:movi_comm.c   **** 
  52:movi_comm.c   ****     /* Leave FIZ flags alone unless you wire them */
  53:movi_comm.c   ****     FreeflyAPI.control.fiz_clearFaults_all_flag  = 0u;
 169              		.loc 1 53 0 discriminator 4
 170 00e8 0E4B     		ldr	r3, .L6
 171 00ea 0022     		movs	r2, #0
 172 00ec 83F84020 		strb	r2, [r3, #64]
  54:movi_comm.c   ****     FreeflyAPI.control.fiz_autoCalStart_all_flag = 0u;
 173              		.loc 1 54 0 discriminator 4
 174 00f0 0C4B     		ldr	r3, .L6
ARM GAS  C:\Users\JENNEW~1\AppData\Local\Temp\ccpPvNwd.s 			page 5


 175 00f2 0022     		movs	r2, #0
 176 00f4 83F84120 		strb	r2, [r3, #65]
  55:movi_comm.c   ****     FreeflyAPI.control.fiz_record_button_flag    = 0u;
 177              		.loc 1 55 0 discriminator 4
 178 00f8 0A4B     		ldr	r3, .L6
 179 00fa 0022     		movs	r2, #0
 180 00fc 83F84220 		strb	r2, [r3, #66]
  56:movi_comm.c   ****     FreeflyAPI.control.fiz_setSubRangeLim_F_flag = 0u;
 181              		.loc 1 56 0 discriminator 4
 182 0100 084B     		ldr	r3, .L6
 183 0102 0022     		movs	r2, #0
 184 0104 83F84320 		strb	r2, [r3, #67]
  57:movi_comm.c   ****     FreeflyAPI.control.fiz_setSubRangeLim_I_flag = 0u;
 185              		.loc 1 57 0 discriminator 4
 186 0108 064B     		ldr	r3, .L6
 187 010a 0022     		movs	r2, #0
 188 010c 83F84420 		strb	r2, [r3, #68]
  58:movi_comm.c   ****     FreeflyAPI.control.fiz_setSubRangeLim_Z_flag = 0u;
 189              		.loc 1 58 0 discriminator 4
 190 0110 044B     		ldr	r3, .L6
 191 0112 0022     		movs	r2, #0
 192 0114 83F84520 		strb	r2, [r3, #69]
  59:movi_comm.c   **** }
 193              		.loc 1 59 0 discriminator 4
 194 0118 00BF     		nop
 195 011a 0C37     		adds	r7, r7, #12
 196              		.cfi_def_cfa_offset 4
 197 011c BD46     		mov	sp, r7
 198              		.cfi_def_cfa_register 13
 199              		@ sp needed
 200 011e 80BC     		pop	{r7}
 201              		.cfi_restore 7
 202              		.cfi_def_cfa_offset 0
 203 0120 7047     		bx	lr
 204              	.L7:
 205 0122 00BF     		.align	2
 206              	.L6:
 207 0124 00000000 		.word	FreeflyAPI
 208              		.cfi_endproc
 209              	.LFE1:
 210              		.size	load_freefly_control_from_movi, .-load_freefly_control_from_movi
 211              		.section	.text.copy_status_from_freefly,"ax",%progbits
 212              		.align	2
 213              		.thumb
 214              		.thumb_func
 215              		.type	copy_status_from_freefly, %function
 216              	copy_status_from_freefly:
 217              	.LFB2:
  60:movi_comm.c   **** 
  61:movi_comm.c   **** static void copy_status_from_freefly(movi_status_t* out)
  62:movi_comm.c   **** {
 218              		.loc 1 62 0
 219              		.cfi_startproc
 220              		@ args = 0, pretend = 0, frame = 8
 221              		@ frame_needed = 1, uses_anonymous_args = 0
 222              		@ link register save eliminated.
 223 0000 80B4     		push	{r7}
ARM GAS  C:\Users\JENNEW~1\AppData\Local\Temp\ccpPvNwd.s 			page 6


 224              		.cfi_def_cfa_offset 4
 225              		.cfi_offset 7, -4
 226 0002 83B0     		sub	sp, sp, #12
 227              		.cfi_def_cfa_offset 16
 228 0004 00AF     		add	r7, sp, #0
 229              		.cfi_def_cfa_register 7
 230 0006 7860     		str	r0, [r7, #4]
  63:movi_comm.c   ****     out->battery_left_v  = FreeflyAPI.status.battery_v_left;
 231              		.loc 1 63 0
 232 0008 144B     		ldr	r3, .L9
 233 000a 9A6C     		ldr	r2, [r3, #72]	@ float
 234 000c 7B68     		ldr	r3, [r7, #4]
 235 000e 5A60     		str	r2, [r3, #4]	@ float
  64:movi_comm.c   ****     out->battery_right_v = FreeflyAPI.status.battery_v_right;
 236              		.loc 1 64 0
 237 0010 124B     		ldr	r3, .L9
 238 0012 DA6C     		ldr	r2, [r3, #76]	@ float
 239 0014 7B68     		ldr	r3, [r7, #4]
 240 0016 9A60     		str	r2, [r3, #8]	@ float
  65:movi_comm.c   ****     out->gimbal_r        = FreeflyAPI.status.gimbal_r;
 241              		.loc 1 65 0
 242 0018 104B     		ldr	r3, .L9
 243 001a 1A6E     		ldr	r2, [r3, #96]	@ float
 244 001c 7B68     		ldr	r3, [r7, #4]
 245 001e DA60     		str	r2, [r3, #12]	@ float
  66:movi_comm.c   ****     out->gimbal_i        = FreeflyAPI.status.gimbal_i;
 246              		.loc 1 66 0
 247 0020 0E4B     		ldr	r3, .L9
 248 0022 5A6D     		ldr	r2, [r3, #84]	@ float
 249 0024 7B68     		ldr	r3, [r7, #4]
 250 0026 1A61     		str	r2, [r3, #16]	@ float
  67:movi_comm.c   ****     out->gimbal_j        = FreeflyAPI.status.gimbal_j;
 251              		.loc 1 67 0
 252 0028 0C4B     		ldr	r3, .L9
 253 002a 9A6D     		ldr	r2, [r3, #88]	@ float
 254 002c 7B68     		ldr	r3, [r7, #4]
 255 002e 5A61     		str	r2, [r3, #20]	@ float
  68:movi_comm.c   ****     out->gimbal_k        = FreeflyAPI.status.gimbal_k;
 256              		.loc 1 68 0
 257 0030 0A4B     		ldr	r3, .L9
 258 0032 DA6D     		ldr	r2, [r3, #92]	@ float
 259 0034 7B68     		ldr	r3, [r7, #4]
 260 0036 9A61     		str	r2, [r3, #24]	@ float
  69:movi_comm.c   ****     out->gimbal_status1  = FreeflyAPI.status.gimbal_Status1;
 261              		.loc 1 69 0
 262 0038 084B     		ldr	r3, .L9
 263 003a 93F85020 		ldrb	r2, [r3, #80]	@ zero_extendqisi2
 264 003e 7B68     		ldr	r3, [r7, #4]
 265 0040 1A77     		strb	r2, [r3, #28]
  70:movi_comm.c   ****     out->gimbal_status2  = FreeflyAPI.status.gimbal_Status2;
 266              		.loc 1 70 0
 267 0042 064B     		ldr	r3, .L9
 268 0044 93F85120 		ldrb	r2, [r3, #81]	@ zero_extendqisi2
 269 0048 7B68     		ldr	r3, [r7, #4]
 270 004a 5A77     		strb	r2, [r3, #29]
  71:movi_comm.c   ****     out->valid = true;
 271              		.loc 1 71 0
ARM GAS  C:\Users\JENNEW~1\AppData\Local\Temp\ccpPvNwd.s 			page 7


 272 004c 7B68     		ldr	r3, [r7, #4]
 273 004e 0122     		movs	r2, #1
 274 0050 1A70     		strb	r2, [r3]
  72:movi_comm.c   **** }
 275              		.loc 1 72 0
 276 0052 00BF     		nop
 277 0054 0C37     		adds	r7, r7, #12
 278              		.cfi_def_cfa_offset 4
 279 0056 BD46     		mov	sp, r7
 280              		.cfi_def_cfa_register 13
 281              		@ sp needed
 282 0058 80BC     		pop	{r7}
 283              		.cfi_restore 7
 284              		.cfi_def_cfa_offset 0
 285 005a 7047     		bx	lr
 286              	.L10:
 287              		.align	2
 288              	.L9:
 289 005c 00000000 		.word	FreeflyAPI
 290              		.cfi_endproc
 291              	.LFE2:
 292              		.size	copy_status_from_freefly, .-copy_status_from_freefly
 293              		.section	.text.movi_comm_init,"ax",%progbits
 294              		.align	2
 295              		.global	movi_comm_init
 296              		.thumb
 297              		.thumb_func
 298              		.type	movi_comm_init, %function
 299              	movi_comm_init:
 300              	.LFB3:
  73:movi_comm.c   **** 
  74:movi_comm.c   **** void movi_comm_init(movi_comm_t* m, const movi_hal_t* hal)
  75:movi_comm.c   **** {
 301              		.loc 1 75 0
 302              		.cfi_startproc
 303              		@ args = 0, pretend = 0, frame = 8
 304              		@ frame_needed = 1, uses_anonymous_args = 0
 305 0000 80B5     		push	{r7, lr}
 306              		.cfi_def_cfa_offset 8
 307              		.cfi_offset 7, -8
 308              		.cfi_offset 14, -4
 309 0002 82B0     		sub	sp, sp, #8
 310              		.cfi_def_cfa_offset 16
 311 0004 00AF     		add	r7, sp, #0
 312              		.cfi_def_cfa_register 7
 313 0006 7860     		str	r0, [r7, #4]
 314 0008 3960     		str	r1, [r7]
  76:movi_comm.c   ****     if (!m || !hal || !hal->uart_putc) return;
 315              		.loc 1 76 0
 316 000a 7B68     		ldr	r3, [r7, #4]
 317 000c 002B     		cmp	r3, #0
 318 000e 1ED0     		beq	.L15
 319              		.loc 1 76 0 is_stmt 0 discriminator 1
 320 0010 3B68     		ldr	r3, [r7]
 321 0012 002B     		cmp	r3, #0
 322 0014 1BD0     		beq	.L15
 323              		.loc 1 76 0 discriminator 2
ARM GAS  C:\Users\JENNEW~1\AppData\Local\Temp\ccpPvNwd.s 			page 8


 324 0016 3B68     		ldr	r3, [r7]
 325 0018 5B68     		ldr	r3, [r3, #4]
 326 001a 002B     		cmp	r3, #0
 327 001c 17D0     		beq	.L15
  77:movi_comm.c   **** 
  78:movi_comm.c   ****     memset(m, 0, sizeof(*m));
 328              		.loc 1 78 0 is_stmt 1
 329 001e 4FF4AE72 		mov	r2, #348
 330 0022 0021     		movs	r1, #0
 331 0024 7868     		ldr	r0, [r7, #4]
 332 0026 FFF7FEFF 		bl	memset
  79:movi_comm.c   ****     m->hal = *hal;
 333              		.loc 1 79 0
 334 002a 7B68     		ldr	r3, [r7, #4]
 335 002c 3A68     		ldr	r2, [r7]
 336 002e 92E80300 		ldmia	r2, {r0, r1}
 337 0032 83E80300 		stmia	r3, {r0, r1}
  80:movi_comm.c   ****     movi_rb_init(&m->rb);
 338              		.loc 1 80 0
 339 0036 7B68     		ldr	r3, [r7, #4]
 340 0038 5433     		adds	r3, r3, #84
 341 003a 1846     		mov	r0, r3
 342 003c FFF7FEFF 		bl	movi_rb_init
  81:movi_comm.c   **** 
  82:movi_comm.c   ****     m->status.valid = false;
 343              		.loc 1 82 0
 344 0040 7B68     		ldr	r3, [r7, #4]
 345 0042 0022     		movs	r2, #0
 346 0044 1A77     		strb	r2, [r3, #28]
  83:movi_comm.c   **** 
  84:movi_comm.c   ****     /* Initializes QX client and default API fields */
  85:movi_comm.c   ****     FreeflyAPI.begin();
 347              		.loc 1 85 0
 348 0046 044B     		ldr	r3, .L16
 349 0048 1B68     		ldr	r3, [r3]
 350 004a 9847     		blx	r3
 351 004c 00E0     		b	.L11
 352              	.L15:
  76:movi_comm.c   **** 
 353              		.loc 1 76 0
 354 004e 00BF     		nop
 355              	.L11:
  86:movi_comm.c   **** }
 356              		.loc 1 86 0
 357 0050 0837     		adds	r7, r7, #8
 358              		.cfi_def_cfa_offset 8
 359 0052 BD46     		mov	sp, r7
 360              		.cfi_def_cfa_register 13
 361              		@ sp needed
 362 0054 80BD     		pop	{r7, pc}
 363              	.L17:
 364 0056 00BF     		.align	2
 365              	.L16:
 366 0058 00000000 		.word	FreeflyAPI
 367              		.cfi_endproc
 368              	.LFE3:
 369              		.size	movi_comm_init, .-movi_comm_init
ARM GAS  C:\Users\JENNEW~1\AppData\Local\Temp\ccpPvNwd.s 			page 9


 370              		.section	.text.movi_comm_reset,"ax",%progbits
 371              		.align	2
 372              		.global	movi_comm_reset
 373              		.thumb
 374              		.thumb_func
 375              		.type	movi_comm_reset, %function
 376              	movi_comm_reset:
 377              	.LFB4:
  87:movi_comm.c   **** 
  88:movi_comm.c   **** void movi_comm_reset(movi_comm_t* m)
  89:movi_comm.c   **** {
 378              		.loc 1 89 0
 379              		.cfi_startproc
 380              		@ args = 0, pretend = 0, frame = 8
 381              		@ frame_needed = 1, uses_anonymous_args = 0
 382 0000 80B5     		push	{r7, lr}
 383              		.cfi_def_cfa_offset 8
 384              		.cfi_offset 7, -8
 385              		.cfi_offset 14, -4
 386 0002 82B0     		sub	sp, sp, #8
 387              		.cfi_def_cfa_offset 16
 388 0004 00AF     		add	r7, sp, #0
 389              		.cfi_def_cfa_register 7
 390 0006 7860     		str	r0, [r7, #4]
  90:movi_comm.c   ****     if (!m) return;
 391              		.loc 1 90 0
 392 0008 7B68     		ldr	r3, [r7, #4]
 393 000a 002B     		cmp	r3, #0
 394 000c 0FD0     		beq	.L21
  91:movi_comm.c   **** 
  92:movi_comm.c   ****     movi_rb_clear(&m->rb);
 395              		.loc 1 92 0
 396 000e 7B68     		ldr	r3, [r7, #4]
 397 0010 5433     		adds	r3, r3, #84
 398 0012 1846     		mov	r0, r3
 399 0014 FFF7FEFF 		bl	movi_rb_clear
  93:movi_comm.c   ****     memset(&m->statistics, 0, sizeof(m->statistics));
 400              		.loc 1 93 0
 401 0018 7B68     		ldr	r3, [r7, #4]
 402 001a 3C33     		adds	r3, r3, #60
 403 001c 1822     		movs	r2, #24
 404 001e 0021     		movs	r1, #0
 405 0020 1846     		mov	r0, r3
 406 0022 FFF7FEFF 		bl	memset
  94:movi_comm.c   ****     m->status.valid = false;
 407              		.loc 1 94 0
 408 0026 7B68     		ldr	r3, [r7, #4]
 409 0028 0022     		movs	r2, #0
 410 002a 1A77     		strb	r2, [r3, #28]
 411 002c 00E0     		b	.L18
 412              	.L21:
  90:movi_comm.c   **** 
 413              		.loc 1 90 0
 414 002e 00BF     		nop
 415              	.L18:
  95:movi_comm.c   **** }
 416              		.loc 1 95 0
ARM GAS  C:\Users\JENNEW~1\AppData\Local\Temp\ccpPvNwd.s 			page 10


 417 0030 0837     		adds	r7, r7, #8
 418              		.cfi_def_cfa_offset 8
 419 0032 BD46     		mov	sp, r7
 420              		.cfi_def_cfa_register 13
 421              		@ sp needed
 422 0034 80BD     		pop	{r7, pc}
 423              		.cfi_endproc
 424              	.LFE4:
 425              		.size	movi_comm_reset, .-movi_comm_reset
 426 0036 00BF     		.section	.text.movi_comm_clear_statistics,"ax",%progbits
 427              		.align	2
 428              		.global	movi_comm_clear_statistics
 429              		.thumb
 430              		.thumb_func
 431              		.type	movi_comm_clear_statistics, %function
 432              	movi_comm_clear_statistics:
 433              	.LFB5:
  96:movi_comm.c   **** 
  97:movi_comm.c   **** void movi_comm_clear_statistics(movi_comm_t* m)
  98:movi_comm.c   **** {
 434              		.loc 1 98 0
 435              		.cfi_startproc
 436              		@ args = 0, pretend = 0, frame = 8
 437              		@ frame_needed = 1, uses_anonymous_args = 0
 438 0000 80B5     		push	{r7, lr}
 439              		.cfi_def_cfa_offset 8
 440              		.cfi_offset 7, -8
 441              		.cfi_offset 14, -4
 442 0002 82B0     		sub	sp, sp, #8
 443              		.cfi_def_cfa_offset 16
 444 0004 00AF     		add	r7, sp, #0
 445              		.cfi_def_cfa_register 7
 446 0006 7860     		str	r0, [r7, #4]
  99:movi_comm.c   ****     if (!m) return;
 447              		.loc 1 99 0
 448 0008 7B68     		ldr	r3, [r7, #4]
 449 000a 002B     		cmp	r3, #0
 450 000c 07D0     		beq	.L25
 100:movi_comm.c   ****     memset(&m->statistics, 0, sizeof(m->statistics));
 451              		.loc 1 100 0
 452 000e 7B68     		ldr	r3, [r7, #4]
 453 0010 3C33     		adds	r3, r3, #60
 454 0012 1822     		movs	r2, #24
 455 0014 0021     		movs	r1, #0
 456 0016 1846     		mov	r0, r3
 457 0018 FFF7FEFF 		bl	memset
 458 001c 00E0     		b	.L22
 459              	.L25:
  99:movi_comm.c   ****     if (!m) return;
 460              		.loc 1 99 0
 461 001e 00BF     		nop
 462              	.L22:
 101:movi_comm.c   **** }
 463              		.loc 1 101 0
 464 0020 0837     		adds	r7, r7, #8
 465              		.cfi_def_cfa_offset 8
 466 0022 BD46     		mov	sp, r7
ARM GAS  C:\Users\JENNEW~1\AppData\Local\Temp\ccpPvNwd.s 			page 11


 467              		.cfi_def_cfa_register 13
 468              		@ sp needed
 469 0024 80BD     		pop	{r7, pc}
 470              		.cfi_endproc
 471              	.LFE5:
 472              		.size	movi_comm_clear_statistics, .-movi_comm_clear_statistics
 473 0026 00BF     		.section	.text.movi_comm_on_uart_error_flags,"ax",%progbits
 474              		.align	2
 475              		.global	movi_comm_on_uart_error_flags
 476              		.thumb
 477              		.thumb_func
 478              		.type	movi_comm_on_uart_error_flags, %function
 479              	movi_comm_on_uart_error_flags:
 480              	.LFB6:
 102:movi_comm.c   **** 
 103:movi_comm.c   **** void movi_comm_on_uart_error_flags(movi_comm_t* m, uint8_t err_mask)
 104:movi_comm.c   **** {
 481              		.loc 1 104 0
 482              		.cfi_startproc
 483              		@ args = 0, pretend = 0, frame = 8
 484              		@ frame_needed = 1, uses_anonymous_args = 0
 485              		@ link register save eliminated.
 486 0000 80B4     		push	{r7}
 487              		.cfi_def_cfa_offset 4
 488              		.cfi_offset 7, -4
 489 0002 83B0     		sub	sp, sp, #12
 490              		.cfi_def_cfa_offset 16
 491 0004 00AF     		add	r7, sp, #0
 492              		.cfi_def_cfa_register 7
 493 0006 7860     		str	r0, [r7, #4]
 494 0008 0B46     		mov	r3, r1
 495 000a FB70     		strb	r3, [r7, #3]
 105:movi_comm.c   ****     if (!m) return;
 496              		.loc 1 105 0
 497 000c 7B68     		ldr	r3, [r7, #4]
 498 000e 002B     		cmp	r3, #0
 499 0010 09D0     		beq	.L29
 106:movi_comm.c   ****     m->statistics.uart_err_flags |= err_mask;
 500              		.loc 1 106 0
 501 0012 7B68     		ldr	r3, [r7, #4]
 502 0014 93F85220 		ldrb	r2, [r3, #82]	@ zero_extendqisi2
 503 0018 FB78     		ldrb	r3, [r7, #3]
 504 001a 1343     		orrs	r3, r3, r2
 505 001c DAB2     		uxtb	r2, r3
 506 001e 7B68     		ldr	r3, [r7, #4]
 507 0020 83F85220 		strb	r2, [r3, #82]
 508 0024 00E0     		b	.L26
 509              	.L29:
 105:movi_comm.c   ****     if (!m) return;
 510              		.loc 1 105 0
 511 0026 00BF     		nop
 512              	.L26:
 107:movi_comm.c   **** }
 513              		.loc 1 107 0
 514 0028 0C37     		adds	r7, r7, #12
 515              		.cfi_def_cfa_offset 4
 516 002a BD46     		mov	sp, r7
ARM GAS  C:\Users\JENNEW~1\AppData\Local\Temp\ccpPvNwd.s 			page 12


 517              		.cfi_def_cfa_register 13
 518              		@ sp needed
 519 002c 80BC     		pop	{r7}
 520              		.cfi_restore 7
 521              		.cfi_def_cfa_offset 0
 522 002e 7047     		bx	lr
 523              		.cfi_endproc
 524              	.LFE6:
 525              		.size	movi_comm_on_uart_error_flags, .-movi_comm_on_uart_error_flags
 526              		.section	.text.movi_comm_on_rx_byte,"ax",%progbits
 527              		.align	2
 528              		.global	movi_comm_on_rx_byte
 529              		.thumb
 530              		.thumb_func
 531              		.type	movi_comm_on_rx_byte, %function
 532              	movi_comm_on_rx_byte:
 533              	.LFB7:
 108:movi_comm.c   **** 
 109:movi_comm.c   **** void movi_comm_on_rx_byte(movi_comm_t* m, uint8_t b)
 110:movi_comm.c   **** {
 534              		.loc 1 110 0
 535              		.cfi_startproc
 536              		@ args = 0, pretend = 0, frame = 8
 537              		@ frame_needed = 1, uses_anonymous_args = 0
 538 0000 80B5     		push	{r7, lr}
 539              		.cfi_def_cfa_offset 8
 540              		.cfi_offset 7, -8
 541              		.cfi_offset 14, -4
 542 0002 82B0     		sub	sp, sp, #8
 543              		.cfi_def_cfa_offset 16
 544 0004 00AF     		add	r7, sp, #0
 545              		.cfi_def_cfa_register 7
 546 0006 7860     		str	r0, [r7, #4]
 547 0008 0B46     		mov	r3, r1
 548 000a FB70     		strb	r3, [r7, #3]
 111:movi_comm.c   ****     if (!m) return;
 549              		.loc 1 111 0
 550 000c 7B68     		ldr	r3, [r7, #4]
 551 000e 002B     		cmp	r3, #0
 552 0010 0ED0     		beq	.L33
 112:movi_comm.c   **** 
 113:movi_comm.c   ****     (void)movi_rb_push(&m->rb, b);
 553              		.loc 1 113 0
 554 0012 7B68     		ldr	r3, [r7, #4]
 555 0014 5433     		adds	r3, r3, #84
 556 0016 FA78     		ldrb	r2, [r7, #3]	@ zero_extendqisi2
 557 0018 1146     		mov	r1, r2
 558 001a 1846     		mov	r0, r3
 559 001c FFF7FEFF 		bl	movi_rb_push
 114:movi_comm.c   ****     m->statistics.rb_drops = m->rb.drops;
 560              		.loc 1 114 0
 561 0020 7B68     		ldr	r3, [r7, #4]
 562 0022 B3F85831 		ldrh	r3, [r3, #344]	@ movhi
 563 0026 9AB2     		uxth	r2, r3
 564 0028 7B68     		ldr	r3, [r7, #4]
 565 002a A3F85020 		strh	r2, [r3, #80]	@ movhi
 566 002e 00E0     		b	.L30
ARM GAS  C:\Users\JENNEW~1\AppData\Local\Temp\ccpPvNwd.s 			page 13


 567              	.L33:
 111:movi_comm.c   ****     if (!m) return;
 568              		.loc 1 111 0
 569 0030 00BF     		nop
 570              	.L30:
 115:movi_comm.c   **** }
 571              		.loc 1 115 0
 572 0032 0837     		adds	r7, r7, #8
 573              		.cfi_def_cfa_offset 8
 574 0034 BD46     		mov	sp, r7
 575              		.cfi_def_cfa_register 13
 576              		@ sp needed
 577 0036 80BD     		pop	{r7, pc}
 578              		.cfi_endproc
 579              	.LFE7:
 580              		.size	movi_comm_on_rx_byte, .-movi_comm_on_rx_byte
 581              		.section	.text.movi_comm_pump,"ax",%progbits
 582              		.align	2
 583              		.global	movi_comm_pump
 584              		.thumb
 585              		.thumb_func
 586              		.type	movi_comm_pump, %function
 587              	movi_comm_pump:
 588              	.LFB8:
 116:movi_comm.c   **** 
 117:movi_comm.c   **** void movi_comm_pump(movi_comm_t* m)
 118:movi_comm.c   **** {
 589              		.loc 1 118 0
 590              		.cfi_startproc
 591              		@ args = 0, pretend = 0, frame = 24
 592              		@ frame_needed = 1, uses_anonymous_args = 0
 593 0000 80B5     		push	{r7, lr}
 594              		.cfi_def_cfa_offset 8
 595              		.cfi_offset 7, -8
 596              		.cfi_offset 14, -4
 597 0002 86B0     		sub	sp, sp, #24
 598              		.cfi_def_cfa_offset 32
 599 0004 00AF     		add	r7, sp, #0
 600              		.cfi_def_cfa_register 7
 601 0006 7860     		str	r0, [r7, #4]
 119:movi_comm.c   ****     if (!m) return;
 602              		.loc 1 119 0
 603 0008 7B68     		ldr	r3, [r7, #4]
 604 000a 002B     		cmp	r3, #0
 605 000c 40D0     		beq	.L40
 120:movi_comm.c   **** 
 121:movi_comm.c   ****     uint8_t b;
 122:movi_comm.c   **** 
 123:movi_comm.c   ****     /* Track checksum fails using QX port counter */
 124:movi_comm.c   ****     uint32_t chkfail_before = QX_CommsPorts[MOVI_QX_PORT].ChkSumFail_cnt;
 606              		.loc 1 124 0
 607 000e 224B     		ldr	r3, .L41
 608 0010 D3F88030 		ldr	r3, [r3, #128]
 609 0014 7B61     		str	r3, [r7, #20]
 125:movi_comm.c   **** 
 126:movi_comm.c   ****     while (movi_rb_pop(&m->rb, &b)) {
 610              		.loc 1 126 0
ARM GAS  C:\Users\JENNEW~1\AppData\Local\Temp\ccpPvNwd.s 			page 14


 611 0016 18E0     		b	.L37
 612              	.L38:
 613              	.LBB2:
 127:movi_comm.c   ****         m->statistics.rx_bytes++;
 614              		.loc 1 127 0
 615 0018 7B68     		ldr	r3, [r7, #4]
 616 001a DB6C     		ldr	r3, [r3, #76]
 617 001c 5A1C     		adds	r2, r3, #1
 618 001e 7B68     		ldr	r3, [r7, #4]
 619 0020 DA64     		str	r2, [r3, #76]
 128:movi_comm.c   ****         
 129:movi_comm.c   ****         int got_packet = QX_StreamRxCharSM(MOVI_QX_PORT, (unsigned char)b);
 620              		.loc 1 129 0
 621 0022 FB7A     		ldrb	r3, [r7, #11]	@ zero_extendqisi2
 622 0024 1946     		mov	r1, r3
 623 0026 0020     		movs	r0, #0
 624 0028 FFF7FEFF 		bl	QX_StreamRxCharSM
 625 002c 0346     		mov	r3, r0
 626 002e 3B61     		str	r3, [r7, #16]
 130:movi_comm.c   ****         // Print if a valid QX packet was parsed
 131:movi_comm.c   ****         if (got_packet) {
 627              		.loc 1 131 0
 628 0030 3B69     		ldr	r3, [r7, #16]
 629 0032 002B     		cmp	r3, #0
 630 0034 09D0     		beq	.L37
 132:movi_comm.c   ****             // UART_1_PutString(" [QX OK]\r\n");
 133:movi_comm.c   ****             m->statistics.rx_packets++;
 631              		.loc 1 133 0
 632 0036 7B68     		ldr	r3, [r7, #4]
 633 0038 5B6C     		ldr	r3, [r3, #68]
 634 003a 5A1C     		adds	r2, r3, #1
 635 003c 7B68     		ldr	r3, [r7, #4]
 636 003e 5A64     		str	r2, [r3, #68]
 134:movi_comm.c   ****             copy_status_from_freefly(&m->status);
 637              		.loc 1 134 0
 638 0040 7B68     		ldr	r3, [r7, #4]
 639 0042 1C33     		adds	r3, r3, #28
 640 0044 1846     		mov	r0, r3
 641 0046 FFF7FEFF 		bl	copy_status_from_freefly
 642              	.L37:
 643              	.LBE2:
 126:movi_comm.c   ****         m->statistics.rx_bytes++;
 644              		.loc 1 126 0
 645 004a 7B68     		ldr	r3, [r7, #4]
 646 004c 5433     		adds	r3, r3, #84
 647 004e 07F10B02 		add	r2, r7, #11
 648 0052 1146     		mov	r1, r2
 649 0054 1846     		mov	r0, r3
 650 0056 FFF7FEFF 		bl	movi_rb_pop
 651 005a 0346     		mov	r3, r0
 652 005c 002B     		cmp	r3, #0
 653 005e DBD1     		bne	.L38
 135:movi_comm.c   ****         } else {
 136:movi_comm.c   ****             // UART_1_PutString("\r\n");
 137:movi_comm.c   ****         }
 138:movi_comm.c   ****     }
 139:movi_comm.c   **** 
ARM GAS  C:\Users\JENNEW~1\AppData\Local\Temp\ccpPvNwd.s 			page 15


 140:movi_comm.c   ****     uint32_t chkfail_after = QX_CommsPorts[MOVI_QX_PORT].ChkSumFail_cnt;
 654              		.loc 1 140 0
 655 0060 0D4B     		ldr	r3, .L41
 656 0062 D3F88030 		ldr	r3, [r3, #128]
 657 0066 FB60     		str	r3, [r7, #12]
 141:movi_comm.c   ****     if (chkfail_after > chkfail_before) {
 658              		.loc 1 141 0
 659 0068 FA68     		ldr	r2, [r7, #12]
 660 006a 7B69     		ldr	r3, [r7, #20]
 661 006c 9A42     		cmp	r2, r3
 662 006e 07D9     		bls	.L39
 142:movi_comm.c   ****         m->statistics.rx_bad_checksum += (chkfail_after - chkfail_before);
 663              		.loc 1 142 0
 664 0070 7B68     		ldr	r3, [r7, #4]
 665 0072 9A6C     		ldr	r2, [r3, #72]
 666 0074 F968     		ldr	r1, [r7, #12]
 667 0076 7B69     		ldr	r3, [r7, #20]
 668 0078 CB1A     		subs	r3, r1, r3
 669 007a 1A44     		add	r2, r2, r3
 670 007c 7B68     		ldr	r3, [r7, #4]
 671 007e 9A64     		str	r2, [r3, #72]
 672              	.L39:
 143:movi_comm.c   ****     }
 144:movi_comm.c   **** 
 145:movi_comm.c   ****     m->statistics.rb_drops = m->rb.drops;
 673              		.loc 1 145 0
 674 0080 7B68     		ldr	r3, [r7, #4]
 675 0082 B3F85831 		ldrh	r3, [r3, #344]	@ movhi
 676 0086 9AB2     		uxth	r2, r3
 677 0088 7B68     		ldr	r3, [r7, #4]
 678 008a A3F85020 		strh	r2, [r3, #80]	@ movhi
 679 008e 00E0     		b	.L34
 680              	.L40:
 119:movi_comm.c   **** 
 681              		.loc 1 119 0
 682 0090 00BF     		nop
 683              	.L34:
 146:movi_comm.c   **** }
 684              		.loc 1 146 0
 685 0092 1837     		adds	r7, r7, #24
 686              		.cfi_def_cfa_offset 8
 687 0094 BD46     		mov	sp, r7
 688              		.cfi_def_cfa_register 13
 689              		@ sp needed
 690 0096 80BD     		pop	{r7, pc}
 691              	.L42:
 692              		.align	2
 693              	.L41:
 694 0098 00000000 		.word	QX_CommsPorts
 695              		.cfi_endproc
 696              	.LFE8:
 697              		.size	movi_comm_pump, .-movi_comm_pump
 698              		.section	.text.movi_comm_set_control,"ax",%progbits
 699              		.align	2
 700              		.global	movi_comm_set_control
 701              		.thumb
 702              		.thumb_func
ARM GAS  C:\Users\JENNEW~1\AppData\Local\Temp\ccpPvNwd.s 			page 16


 703              		.type	movi_comm_set_control, %function
 704              	movi_comm_set_control:
 705              	.LFB9:
 147:movi_comm.c   **** 
 148:movi_comm.c   **** void movi_comm_set_control(movi_comm_t* m, const movi_control_t* ctl)
 149:movi_comm.c   **** {
 706              		.loc 1 149 0
 707              		.cfi_startproc
 708              		@ args = 0, pretend = 0, frame = 8
 709              		@ frame_needed = 1, uses_anonymous_args = 0
 710              		@ link register save eliminated.
 711 0000 B0B4     		push	{r4, r5, r7}
 712              		.cfi_def_cfa_offset 12
 713              		.cfi_offset 4, -12
 714              		.cfi_offset 5, -8
 715              		.cfi_offset 7, -4
 716 0002 83B0     		sub	sp, sp, #12
 717              		.cfi_def_cfa_offset 24
 718 0004 00AF     		add	r7, sp, #0
 719              		.cfi_def_cfa_register 7
 720 0006 7860     		str	r0, [r7, #4]
 721 0008 3960     		str	r1, [r7]
 150:movi_comm.c   ****     if (!m || !ctl) return;
 722              		.loc 1 150 0
 723 000a 7B68     		ldr	r3, [r7, #4]
 724 000c 002B     		cmp	r3, #0
 725 000e 0CD0     		beq	.L47
 726              		.loc 1 150 0 is_stmt 0 discriminator 1
 727 0010 3B68     		ldr	r3, [r7]
 728 0012 002B     		cmp	r3, #0
 729 0014 09D0     		beq	.L47
 151:movi_comm.c   ****     m->ctl = *ctl;
 730              		.loc 1 151 0 is_stmt 1
 731 0016 7B68     		ldr	r3, [r7, #4]
 732 0018 3A68     		ldr	r2, [r7]
 733 001a 03F10804 		add	r4, r3, #8
 734 001e 1546     		mov	r5, r2
 735 0020 0FCD     		ldmia	r5!, {r0, r1, r2, r3}
 736 0022 0FC4     		stmia	r4!, {r0, r1, r2, r3}
 737 0024 2B68     		ldr	r3, [r5]
 738 0026 2360     		str	r3, [r4]
 739 0028 00E0     		b	.L43
 740              	.L47:
 150:movi_comm.c   ****     if (!m || !ctl) return;
 741              		.loc 1 150 0
 742 002a 00BF     		nop
 743              	.L43:
 152:movi_comm.c   **** }
 744              		.loc 1 152 0
 745 002c 0C37     		adds	r7, r7, #12
 746              		.cfi_def_cfa_offset 12
 747 002e BD46     		mov	sp, r7
 748              		.cfi_def_cfa_register 13
 749              		@ sp needed
 750 0030 B0BC     		pop	{r4, r5, r7}
 751              		.cfi_restore 7
 752              		.cfi_restore 5
ARM GAS  C:\Users\JENNEW~1\AppData\Local\Temp\ccpPvNwd.s 			page 17


 753              		.cfi_restore 4
 754              		.cfi_def_cfa_offset 0
 755 0032 7047     		bx	lr
 756              		.cfi_endproc
 757              	.LFE9:
 758              		.size	movi_comm_set_control, .-movi_comm_set_control
 759              		.section	.text.movi_comm_get_control,"ax",%progbits
 760              		.align	2
 761              		.global	movi_comm_get_control
 762              		.thumb
 763              		.thumb_func
 764              		.type	movi_comm_get_control, %function
 765              	movi_comm_get_control:
 766              	.LFB10:
 153:movi_comm.c   **** 
 154:movi_comm.c   **** void movi_comm_get_control(movi_comm_t* m, movi_control_t* out)
 155:movi_comm.c   **** {
 767              		.loc 1 155 0
 768              		.cfi_startproc
 769              		@ args = 0, pretend = 0, frame = 8
 770              		@ frame_needed = 1, uses_anonymous_args = 0
 771              		@ link register save eliminated.
 772 0000 B0B4     		push	{r4, r5, r7}
 773              		.cfi_def_cfa_offset 12
 774              		.cfi_offset 4, -12
 775              		.cfi_offset 5, -8
 776              		.cfi_offset 7, -4
 777 0002 83B0     		sub	sp, sp, #12
 778              		.cfi_def_cfa_offset 24
 779 0004 00AF     		add	r7, sp, #0
 780              		.cfi_def_cfa_register 7
 781 0006 7860     		str	r0, [r7, #4]
 782 0008 3960     		str	r1, [r7]
 156:movi_comm.c   ****     if (!m || !out) return;
 783              		.loc 1 156 0
 784 000a 7B68     		ldr	r3, [r7, #4]
 785 000c 002B     		cmp	r3, #0
 786 000e 0CD0     		beq	.L52
 787              		.loc 1 156 0 is_stmt 0 discriminator 1
 788 0010 3B68     		ldr	r3, [r7]
 789 0012 002B     		cmp	r3, #0
 790 0014 09D0     		beq	.L52
 157:movi_comm.c   ****     *out = m->ctl;
 791              		.loc 1 157 0 is_stmt 1
 792 0016 3A68     		ldr	r2, [r7]
 793 0018 7B68     		ldr	r3, [r7, #4]
 794 001a 1546     		mov	r5, r2
 795 001c 03F10804 		add	r4, r3, #8
 796 0020 0FCC     		ldmia	r4!, {r0, r1, r2, r3}
 797 0022 0FC5     		stmia	r5!, {r0, r1, r2, r3}
 798 0024 2368     		ldr	r3, [r4]
 799 0026 2B60     		str	r3, [r5]
 800 0028 00E0     		b	.L48
 801              	.L52:
 156:movi_comm.c   ****     if (!m || !out) return;
 802              		.loc 1 156 0
 803 002a 00BF     		nop
ARM GAS  C:\Users\JENNEW~1\AppData\Local\Temp\ccpPvNwd.s 			page 18


 804              	.L48:
 158:movi_comm.c   **** }
 805              		.loc 1 158 0
 806 002c 0C37     		adds	r7, r7, #12
 807              		.cfi_def_cfa_offset 12
 808 002e BD46     		mov	sp, r7
 809              		.cfi_def_cfa_register 13
 810              		@ sp needed
 811 0030 B0BC     		pop	{r4, r5, r7}
 812              		.cfi_restore 7
 813              		.cfi_restore 5
 814              		.cfi_restore 4
 815              		.cfi_def_cfa_offset 0
 816 0032 7047     		bx	lr
 817              		.cfi_endproc
 818              	.LFE10:
 819              		.size	movi_comm_get_control, .-movi_comm_get_control
 820              		.section	.text.movi_comm_kill,"ax",%progbits
 821              		.align	2
 822              		.global	movi_comm_kill
 823              		.thumb
 824              		.thumb_func
 825              		.type	movi_comm_kill, %function
 826              	movi_comm_kill:
 827              	.LFB11:
 159:movi_comm.c   **** 
 160:movi_comm.c   **** void movi_comm_kill(movi_comm_t* m)
 161:movi_comm.c   **** {
 828              		.loc 1 161 0
 829              		.cfi_startproc
 830              		@ args = 0, pretend = 0, frame = 8
 831              		@ frame_needed = 1, uses_anonymous_args = 0
 832 0000 80B5     		push	{r7, lr}
 833              		.cfi_def_cfa_offset 8
 834              		.cfi_offset 7, -8
 835              		.cfi_offset 14, -4
 836 0002 82B0     		sub	sp, sp, #8
 837              		.cfi_def_cfa_offset 16
 838 0004 00AF     		add	r7, sp, #0
 839              		.cfi_def_cfa_register 7
 840 0006 7860     		str	r0, [r7, #4]
 162:movi_comm.c   ****     if (!m) return;
 841              		.loc 1 162 0
 842 0008 7B68     		ldr	r3, [r7, #4]
 843 000a 002B     		cmp	r3, #0
 844 000c 09D0     		beq	.L56
 163:movi_comm.c   ****     m->ctl.kill = 1u;
 845              		.loc 1 163 0
 846 000e 7B68     		ldr	r3, [r7, #4]
 847 0010 0122     		movs	r2, #1
 848 0012 1A76     		strb	r2, [r3, #24]
 164:movi_comm.c   ****     (void)movi_comm_send_control(m);
 849              		.loc 1 164 0
 850 0014 7868     		ldr	r0, [r7, #4]
 851 0016 FFF7FEFF 		bl	movi_comm_send_control
 165:movi_comm.c   ****     m->ctl.kill = 0u;
 852              		.loc 1 165 0
ARM GAS  C:\Users\JENNEW~1\AppData\Local\Temp\ccpPvNwd.s 			page 19


 853 001a 7B68     		ldr	r3, [r7, #4]
 854 001c 0022     		movs	r2, #0
 855 001e 1A76     		strb	r2, [r3, #24]
 856 0020 00E0     		b	.L53
 857              	.L56:
 162:movi_comm.c   ****     m->ctl.kill = 1u;
 858              		.loc 1 162 0
 859 0022 00BF     		nop
 860              	.L53:
 166:movi_comm.c   **** }
 861              		.loc 1 166 0
 862 0024 0837     		adds	r7, r7, #8
 863              		.cfi_def_cfa_offset 8
 864 0026 BD46     		mov	sp, r7
 865              		.cfi_def_cfa_register 13
 866              		@ sp needed
 867 0028 80BD     		pop	{r7, pc}
 868              		.cfi_endproc
 869              	.LFE11:
 870              		.size	movi_comm_kill, .-movi_comm_kill
 871 002a 00BF     		.section	.text.movi_comm_build_control_frame,"ax",%progbits
 872              		.align	2
 873              		.global	movi_comm_build_control_frame
 874              		.thumb
 875              		.thumb_func
 876              		.type	movi_comm_build_control_frame, %function
 877              	movi_comm_build_control_frame:
 878              	.LFB12:
 167:movi_comm.c   **** 
 168:movi_comm.c   **** /* Not meaningful in the Freefly “send() then drain queue” architecture */
 169:movi_comm.c   **** movi_result_t movi_comm_build_control_frame(movi_comm_t* m,
 170:movi_comm.c   ****                                            uint8_t* out, uint16_t out_max, uint16_t* out_len)
 171:movi_comm.c   **** {
 879              		.loc 1 171 0
 880              		.cfi_startproc
 881              		@ args = 0, pretend = 0, frame = 16
 882              		@ frame_needed = 1, uses_anonymous_args = 0
 883              		@ link register save eliminated.
 884 0000 80B4     		push	{r7}
 885              		.cfi_def_cfa_offset 4
 886              		.cfi_offset 7, -4
 887 0002 85B0     		sub	sp, sp, #20
 888              		.cfi_def_cfa_offset 24
 889 0004 00AF     		add	r7, sp, #0
 890              		.cfi_def_cfa_register 7
 891 0006 F860     		str	r0, [r7, #12]
 892 0008 B960     		str	r1, [r7, #8]
 893 000a 3B60     		str	r3, [r7]
 894 000c 1346     		mov	r3, r2	@ movhi
 895 000e FB80     		strh	r3, [r7, #6]	@ movhi
 172:movi_comm.c   ****     (void)m; (void)out; (void)out_max;
 173:movi_comm.c   ****     if (out_len) *out_len = 0u;
 896              		.loc 1 173 0
 897 0010 3B68     		ldr	r3, [r7]
 898 0012 002B     		cmp	r3, #0
 899 0014 02D0     		beq	.L58
 900              		.loc 1 173 0 is_stmt 0 discriminator 1
ARM GAS  C:\Users\JENNEW~1\AppData\Local\Temp\ccpPvNwd.s 			page 20


 901 0016 3B68     		ldr	r3, [r7]
 902 0018 0022     		movs	r2, #0
 903 001a 1A80     		strh	r2, [r3]	@ movhi
 904              	.L58:
 174:movi_comm.c   ****     return MOVI_ERR_ENCODE;
 905              		.loc 1 174 0 is_stmt 1
 906 001c 0223     		movs	r3, #2
 175:movi_comm.c   **** }
 907              		.loc 1 175 0
 908 001e 1846     		mov	r0, r3
 909 0020 1437     		adds	r7, r7, #20
 910              		.cfi_def_cfa_offset 4
 911 0022 BD46     		mov	sp, r7
 912              		.cfi_def_cfa_register 13
 913              		@ sp needed
 914 0024 80BC     		pop	{r7}
 915              		.cfi_restore 7
 916              		.cfi_def_cfa_offset 0
 917 0026 7047     		bx	lr
 918              		.cfi_endproc
 919              	.LFE12:
 920              		.size	movi_comm_build_control_frame, .-movi_comm_build_control_frame
 921              		.section	.text.movi_comm_send_control,"ax",%progbits
 922              		.align	2
 923              		.global	movi_comm_send_control
 924              		.thumb
 925              		.thumb_func
 926              		.type	movi_comm_send_control, %function
 927              	movi_comm_send_control:
 928              	.LFB13:
 176:movi_comm.c   **** 
 177:movi_comm.c   **** movi_result_t movi_comm_send_control(movi_comm_t* m)
 178:movi_comm.c   **** {
 929              		.loc 1 178 0
 930              		.cfi_startproc
 931              		@ args = 0, pretend = 0, frame = 16
 932              		@ frame_needed = 1, uses_anonymous_args = 0
 933 0000 80B5     		push	{r7, lr}
 934              		.cfi_def_cfa_offset 8
 935              		.cfi_offset 7, -8
 936              		.cfi_offset 14, -4
 937 0002 84B0     		sub	sp, sp, #16
 938              		.cfi_def_cfa_offset 24
 939 0004 00AF     		add	r7, sp, #0
 940              		.cfi_def_cfa_register 7
 941 0006 7860     		str	r0, [r7, #4]
 179:movi_comm.c   ****     if (!m || !m->hal.uart_putc) return MOVI_ERR_UART;
 942              		.loc 1 179 0
 943 0008 7B68     		ldr	r3, [r7, #4]
 944 000a 002B     		cmp	r3, #0
 945 000c 03D0     		beq	.L61
 946              		.loc 1 179 0 is_stmt 0 discriminator 2
 947 000e 7B68     		ldr	r3, [r7, #4]
 948 0010 5B68     		ldr	r3, [r3, #4]
 949 0012 002B     		cmp	r3, #0
 950 0014 01D1     		bne	.L62
 951              	.L61:
ARM GAS  C:\Users\JENNEW~1\AppData\Local\Temp\ccpPvNwd.s 			page 21


 952              		.loc 1 179 0 discriminator 3
 953 0016 0123     		movs	r3, #1
 954 0018 30E0     		b	.L66
 955              	.L62:
 180:movi_comm.c   **** 
 181:movi_comm.c   ****     load_freefly_control_from_movi(&m->ctl);
 956              		.loc 1 181 0 is_stmt 1
 957 001a 7B68     		ldr	r3, [r7, #4]
 958 001c 0833     		adds	r3, r3, #8
 959 001e 1846     		mov	r0, r3
 960 0020 FFF7FEFF 		bl	load_freefly_control_from_movi
 182:movi_comm.c   **** 
 183:movi_comm.c   ****     /* Build/enqueue a QX277 control packet into SEND_BUF_IDX */
 184:movi_comm.c   ****     FreeflyAPI.send();
 961              		.loc 1 184 0
 962 0024 174B     		ldr	r3, .L67
 963 0026 5B68     		ldr	r3, [r3, #4]
 964 0028 9847     		blx	r3
 185:movi_comm.c   **** 
 186:movi_comm.c   ****     /* Drain the queued bytes and put them on the wire */
 187:movi_comm.c   ****     uint8_t byte;
 188:movi_comm.c   ****     uint32_t sent = 0;
 965              		.loc 1 188 0
 966 002a 0023     		movs	r3, #0
 967 002c FB60     		str	r3, [r7, #12]
 189:movi_comm.c   **** 
 190:movi_comm.c   ****     while (BufRemove(SEND_BUF_IDX, (volatile uint8_t*)&byte) != 0) {
 968              		.loc 1 190 0
 969 002e 09E0     		b	.L64
 970              	.L65:
 191:movi_comm.c   ****         m->hal.uart_putc(m->hal.ctx, byte);
 971              		.loc 1 191 0
 972 0030 7B68     		ldr	r3, [r7, #4]
 973 0032 5B68     		ldr	r3, [r3, #4]
 974 0034 7A68     		ldr	r2, [r7, #4]
 975 0036 1268     		ldr	r2, [r2]
 976 0038 F97A     		ldrb	r1, [r7, #11]	@ zero_extendqisi2
 977 003a 1046     		mov	r0, r2
 978 003c 9847     		blx	r3
 192:movi_comm.c   ****         sent++;
 979              		.loc 1 192 0
 980 003e FB68     		ldr	r3, [r7, #12]
 981 0040 0133     		adds	r3, r3, #1
 982 0042 FB60     		str	r3, [r7, #12]
 983              	.L64:
 190:movi_comm.c   ****         m->hal.uart_putc(m->hal.ctx, byte);
 984              		.loc 1 190 0
 985 0044 07F10B03 		add	r3, r7, #11
 986 0048 1946     		mov	r1, r3
 987 004a 0120     		movs	r0, #1
 988 004c FFF7FEFF 		bl	BufRemove
 989 0050 0346     		mov	r3, r0
 990 0052 002B     		cmp	r3, #0
 991 0054 ECD1     		bne	.L65
 193:movi_comm.c   ****     }
 194:movi_comm.c   **** 
 195:movi_comm.c   ****     m->statistics.tx_packets++;
ARM GAS  C:\Users\JENNEW~1\AppData\Local\Temp\ccpPvNwd.s 			page 22


 992              		.loc 1 195 0
 993 0056 7B68     		ldr	r3, [r7, #4]
 994 0058 DB6B     		ldr	r3, [r3, #60]
 995 005a 5A1C     		adds	r2, r3, #1
 996 005c 7B68     		ldr	r3, [r7, #4]
 997 005e DA63     		str	r2, [r3, #60]
 196:movi_comm.c   ****     m->statistics.tx_bytes += sent;
 998              		.loc 1 196 0
 999 0060 7B68     		ldr	r3, [r7, #4]
 1000 0062 1A6C     		ldr	r2, [r3, #64]
 1001 0064 FB68     		ldr	r3, [r7, #12]
 1002 0066 1A44     		add	r2, r2, r3
 1003 0068 7B68     		ldr	r3, [r7, #4]
 1004 006a 1A64     		str	r2, [r3, #64]
 197:movi_comm.c   **** 
 198:movi_comm.c   ****     return (m->statistics.uart_err_flags != 0u) ? MOVI_ERR_UART : MOVI_OK;
 1005              		.loc 1 198 0
 1006 006c 7B68     		ldr	r3, [r7, #4]
 1007 006e 93F85230 		ldrb	r3, [r3, #82]	@ zero_extendqisi2
 1008 0072 002B     		cmp	r3, #0
 1009 0074 14BF     		ite	ne
 1010 0076 0123     		movne	r3, #1
 1011 0078 0023     		moveq	r3, #0
 1012 007a DBB2     		uxtb	r3, r3
 1013              	.L66:
 199:movi_comm.c   **** }
 1014              		.loc 1 199 0 discriminator 1
 1015 007c 1846     		mov	r0, r3
 1016 007e 1037     		adds	r7, r7, #16
 1017              		.cfi_def_cfa_offset 8
 1018 0080 BD46     		mov	sp, r7
 1019              		.cfi_def_cfa_register 13
 1020              		@ sp needed
 1021 0082 80BD     		pop	{r7, pc}
 1022              	.L68:
 1023              		.align	2
 1024              	.L67:
 1025 0084 00000000 		.word	FreeflyAPI
 1026              		.cfi_endproc
 1027              	.LFE13:
 1028              		.size	movi_comm_send_control, .-movi_comm_send_control
 1029              		.section	.text.movi_comm_get_status,"ax",%progbits
 1030              		.align	2
 1031              		.global	movi_comm_get_status
 1032              		.thumb
 1033              		.thumb_func
 1034              		.type	movi_comm_get_status, %function
 1035              	movi_comm_get_status:
 1036              	.LFB14:
 200:movi_comm.c   **** 
 201:movi_comm.c   **** void movi_comm_get_status(movi_comm_t* m, movi_status_t* out)
 202:movi_comm.c   **** {
 1037              		.loc 1 202 0
 1038              		.cfi_startproc
 1039              		@ args = 0, pretend = 0, frame = 8
 1040              		@ frame_needed = 1, uses_anonymous_args = 0
 1041              		@ link register save eliminated.
ARM GAS  C:\Users\JENNEW~1\AppData\Local\Temp\ccpPvNwd.s 			page 23


 1042 0000 B0B4     		push	{r4, r5, r7}
 1043              		.cfi_def_cfa_offset 12
 1044              		.cfi_offset 4, -12
 1045              		.cfi_offset 5, -8
 1046              		.cfi_offset 7, -4
 1047 0002 83B0     		sub	sp, sp, #12
 1048              		.cfi_def_cfa_offset 24
 1049 0004 00AF     		add	r7, sp, #0
 1050              		.cfi_def_cfa_register 7
 1051 0006 7860     		str	r0, [r7, #4]
 1052 0008 3960     		str	r1, [r7]
 203:movi_comm.c   ****     if (!m || !out) return;
 1053              		.loc 1 203 0
 1054 000a 7B68     		ldr	r3, [r7, #4]
 1055 000c 002B     		cmp	r3, #0
 1056 000e 0ED0     		beq	.L73
 1057              		.loc 1 203 0 is_stmt 0 discriminator 1
 1058 0010 3B68     		ldr	r3, [r7]
 1059 0012 002B     		cmp	r3, #0
 1060 0014 0BD0     		beq	.L73
 204:movi_comm.c   ****     *out = m->status;
 1061              		.loc 1 204 0 is_stmt 1
 1062 0016 3A68     		ldr	r2, [r7]
 1063 0018 7B68     		ldr	r3, [r7, #4]
 1064 001a 1546     		mov	r5, r2
 1065 001c 03F11C04 		add	r4, r3, #28
 1066 0020 0FCC     		ldmia	r4!, {r0, r1, r2, r3}
 1067 0022 0FC5     		stmia	r5!, {r0, r1, r2, r3}
 1068 0024 94E80F00 		ldmia	r4, {r0, r1, r2, r3}
 1069 0028 85E80F00 		stmia	r5, {r0, r1, r2, r3}
 1070 002c 00E0     		b	.L69
 1071              	.L73:
 203:movi_comm.c   ****     if (!m || !out) return;
 1072              		.loc 1 203 0
 1073 002e 00BF     		nop
 1074              	.L69:
 205:movi_comm.c   **** }
 1075              		.loc 1 205 0
 1076 0030 0C37     		adds	r7, r7, #12
 1077              		.cfi_def_cfa_offset 12
 1078 0032 BD46     		mov	sp, r7
 1079              		.cfi_def_cfa_register 13
 1080              		@ sp needed
 1081 0034 B0BC     		pop	{r4, r5, r7}
 1082              		.cfi_restore 7
 1083              		.cfi_restore 5
 1084              		.cfi_restore 4
 1085              		.cfi_def_cfa_offset 0
 1086 0036 7047     		bx	lr
 1087              		.cfi_endproc
 1088              	.LFE14:
 1089              		.size	movi_comm_get_status, .-movi_comm_get_status
 1090              		.section	.text.movi_comm_get_statistics,"ax",%progbits
 1091              		.align	2
 1092              		.global	movi_comm_get_statistics
 1093              		.thumb
 1094              		.thumb_func
ARM GAS  C:\Users\JENNEW~1\AppData\Local\Temp\ccpPvNwd.s 			page 24


 1095              		.type	movi_comm_get_statistics, %function
 1096              	movi_comm_get_statistics:
 1097              	.LFB15:
 206:movi_comm.c   **** 
 207:movi_comm.c   **** void movi_comm_get_statistics(movi_comm_t* m, movi_statistics_t* out)
 208:movi_comm.c   **** {
 1098              		.loc 1 208 0
 1099              		.cfi_startproc
 1100              		@ args = 0, pretend = 0, frame = 8
 1101              		@ frame_needed = 1, uses_anonymous_args = 0
 1102              		@ link register save eliminated.
 1103 0000 B0B4     		push	{r4, r5, r7}
 1104              		.cfi_def_cfa_offset 12
 1105              		.cfi_offset 4, -12
 1106              		.cfi_offset 5, -8
 1107              		.cfi_offset 7, -4
 1108 0002 83B0     		sub	sp, sp, #12
 1109              		.cfi_def_cfa_offset 24
 1110 0004 00AF     		add	r7, sp, #0
 1111              		.cfi_def_cfa_register 7
 1112 0006 7860     		str	r0, [r7, #4]
 1113 0008 3960     		str	r1, [r7]
 209:movi_comm.c   ****     if (!m || !out) return;
 1114              		.loc 1 209 0
 1115 000a 7B68     		ldr	r3, [r7, #4]
 1116 000c 002B     		cmp	r3, #0
 1117 000e 15D0     		beq	.L78
 1118              		.loc 1 209 0 is_stmt 0 discriminator 1
 1119 0010 3B68     		ldr	r3, [r7]
 1120 0012 002B     		cmp	r3, #0
 1121 0014 12D0     		beq	.L78
 210:movi_comm.c   ****     m->statistics.rb_drops = m->rb.drops;
 1122              		.loc 1 210 0 is_stmt 1
 1123 0016 7B68     		ldr	r3, [r7, #4]
 1124 0018 B3F85831 		ldrh	r3, [r3, #344]	@ movhi
 1125 001c 9AB2     		uxth	r2, r3
 1126 001e 7B68     		ldr	r3, [r7, #4]
 1127 0020 A3F85020 		strh	r2, [r3, #80]	@ movhi
 211:movi_comm.c   ****     *out = m->statistics;
 1128              		.loc 1 211 0
 1129 0024 3A68     		ldr	r2, [r7]
 1130 0026 7B68     		ldr	r3, [r7, #4]
 1131 0028 1546     		mov	r5, r2
 1132 002a 03F13C04 		add	r4, r3, #60
 1133 002e 0FCC     		ldmia	r4!, {r0, r1, r2, r3}
 1134 0030 0FC5     		stmia	r5!, {r0, r1, r2, r3}
 1135 0032 94E80300 		ldmia	r4, {r0, r1}
 1136 0036 85E80300 		stmia	r5, {r0, r1}
 1137 003a 00E0     		b	.L74
 1138              	.L78:
 209:movi_comm.c   ****     if (!m || !out) return;
 1139              		.loc 1 209 0
 1140 003c 00BF     		nop
 1141              	.L74:
 212:movi_comm.c   **** }
 1142              		.loc 1 212 0
 1143 003e 0C37     		adds	r7, r7, #12
ARM GAS  C:\Users\JENNEW~1\AppData\Local\Temp\ccpPvNwd.s 			page 25


 1144              		.cfi_def_cfa_offset 12
 1145 0040 BD46     		mov	sp, r7
 1146              		.cfi_def_cfa_register 13
 1147              		@ sp needed
 1148 0042 B0BC     		pop	{r4, r5, r7}
 1149              		.cfi_restore 7
 1150              		.cfi_restore 5
 1151              		.cfi_restore 4
 1152              		.cfi_def_cfa_offset 0
 1153 0044 7047     		bx	lr
 1154              		.cfi_endproc
 1155              	.LFE15:
 1156              		.size	movi_comm_get_statistics, .-movi_comm_get_statistics
 1157 0046 00BF     		.text
 1158              	.Letext0:
 1159              		.file 2 "c:\\program files (x86)\\cypress\\psoc creator\\4.4\\psoc creator\\import\\gnu\\arm\\5.4.
 1160              		.file 3 "c:\\program files (x86)\\cypress\\psoc creator\\4.4\\psoc creator\\import\\gnu\\arm\\5.4.
 1161              		.file 4 "movi_comm.h"
 1162              		.file 5 "QX_App_Config.h"
 1163              		.file 6 "QX_Protocol.h"
 1164              		.file 7 "QX_Protocol_App.h"
 1165              		.file 8 "movi_rb.h"